CCS PCH C Compiler, Version 4.104, 5967               23-jul.-19 10:34

               Filename: H:\JP\JP\Laboratorio\Autoclave\Autoclaves Vertical\Sin Precamara\2019\Autoclave 50L-V3.1 Avantika #004587980 OP201976\Firmware V4.0\GLCD_Controller\GLCD_Controller.lst

               ROM used: 57046 bytes (58%)
                         Largest free fragment is 32768
               RAM used: 1599 (48%) at main() level
                         1624 (49%) worst case
               Stack:    4 worst case (3 in main + 1 for interrupts)

*
00000:  GOTO   68F4
*
00008:  GOTO   00BA
0000C:  NOP   
0000E:  NOP   
00010:  NOP   
00012:  NOP   
00014:  NOP   
00016:  NOP   
00018:  MOVWF  04
0001A:  MOVFF  FD8,05
0001E:  MOVFF  FE0,06
00022:  MOVLB  0
00024:  MOVFF  FE9,0C
00028:  MOVFF  FEA,07
0002C:  MOVFF  FE1,08
00030:  MOVFF  FE2,09
00034:  MOVFF  FD9,0A
00038:  MOVFF  FDA,0B
0003C:  MOVFF  FF3,12
00040:  MOVFF  FF4,13
00044:  MOVFF  FFA,14
00048:  MOVFF  FFB,15
0004C:  MOVFF  00,0E
00050:  MOVFF  01,0F
00054:  MOVFF  02,10
00058:  MOVFF  03,11
0005C:  BTFSS  FF2.5
0005E:  GOTO   0068
00062:  BTFSC  FF2.2
00064:  GOTO   05A8
00068:  BTFSS  F9D.0
0006A:  GOTO   0074
0006E:  BTFSC  F9E.0
00070:  GOTO   0608
00074:  MOVFF  0E,00
00078:  MOVFF  0F,01
0007C:  MOVFF  10,02
00080:  MOVFF  11,03
00084:  MOVFF  0C,FE9
00088:  MOVFF  07,FEA
0008C:  BSF    07.7
0008E:  MOVFF  08,FE1
00092:  MOVFF  09,FE2
00096:  MOVFF  0A,FD9
0009A:  MOVFF  0B,FDA
0009E:  MOVFF  12,FF3
000A2:  MOVFF  13,FF4
000A6:  MOVFF  14,FFA
000AA:  MOVFF  15,FFB
000AE:  MOVF   04,W
000B0:  MOVFF  06,FE0
000B4:  MOVFF  05,FD8
000B8:  RETFIE 0
000BA:  MOVWF  17
000BC:  MOVFF  FD8,18
000C0:  MOVFF  FE0,19
000C4:  MOVLB  0
000C6:  MOVFF  FE9,1F
000CA:  MOVFF  FEA,1A
000CE:  MOVFF  FE1,1B
000D2:  MOVFF  FE2,1C
000D6:  MOVFF  FD9,1D
000DA:  MOVFF  FDA,1E
000DE:  MOVFF  FF3,25
000E2:  MOVFF  FF4,26
000E6:  MOVFF  FFA,27
000EA:  MOVFF  FFB,28
000EE:  MOVFF  00,21
000F2:  MOVFF  01,22
000F6:  MOVFF  02,23
000FA:  MOVFF  03,24
000FE:  BTFSS  F9D.5
00100:  GOTO   010A
00104:  BTFSC  F9E.5
00106:  GOTO   053A
0010A:  MOVFF  21,00
0010E:  MOVFF  22,01
00112:  MOVFF  23,02
00116:  MOVFF  24,03
0011A:  MOVFF  1F,FE9
0011E:  MOVFF  1A,FEA
00122:  BSF    1A.7
00124:  MOVFF  1B,FE1
00128:  MOVFF  1C,FE2
0012C:  MOVFF  1D,FD9
00130:  MOVFF  1E,FDA
00134:  MOVFF  25,FF3
00138:  MOVFF  26,FF4
0013C:  MOVFF  27,FFA
00140:  MOVFF  28,FFB
00144:  MOVF   17,W
00146:  MOVFF  19,FE0
0014A:  MOVFF  18,FD8
0014E:  RETFIE 0
.................... //Falta crear menu de ajuste de variables y de norma CFR21 
....................  
.................... #include <18F4685.h> 
.................... //////// Standard Header file for the PIC18F4685 device //////////////// 
.................... #device PIC18F4685 
.................... #list 
....................  
.................... #device adc=10 
.................... #device HIGH_INTS=TRUE //Activamos niveles de prioridad 
.................... #fuses HS,WDT8192,NOPROTECT,NOLVP,NODEBUG,NOSTVREN,NOPUT,NOCPD,NOWRT,NOIESO,NOFCMEN,NOPBADEN,NOWRTC,NOWRTB,NOEBTR,NOEBTRB,NOCPB,NOXINST,NOLPT1OSC,NOMCLR 
.................... #use delay(clock=20000000) 
*
01D06:  MOVLW  06
01D08:  MOVWF  FEA
01D0A:  MOVLW  3D
01D0C:  MOVWF  FE9
01D0E:  MOVF   FEF,W
01D10:  BZ    1D2C
01D12:  MOVLW  06
01D14:  MOVWF  01
01D16:  CLRF   00
01D18:  DECFSZ 00,F
01D1A:  BRA    1D18
01D1C:  DECFSZ 01,F
01D1E:  BRA    1D16
01D20:  MOVLW  7B
01D22:  MOVWF  00
01D24:  DECFSZ 00,F
01D26:  BRA    1D24
01D28:  DECFSZ FEF,F
01D2A:  BRA    1D12
01D2C:  RETLW  00
.................... #use i2c(Master,slow,sda=PIN_C4,scl=PIN_C3) 
*
0219A:  MOVLW  08
0219C:  MOVWF  01
0219E:  MOVLW  05
021A0:  MOVWF  00
021A2:  DECFSZ 00,F
021A4:  BRA    21A2
021A6:  BCF    F8B.3
021A8:  BCF    F94.3
021AA:  MOVLW  06
021AC:  MOVWF  00
021AE:  DECFSZ 00,F
021B0:  BRA    21AE
021B2:  MOVLB  6
021B4:  RLCF   x41,F
021B6:  BCF    F8B.4
021B8:  BTFSC  FD8.0
021BA:  BSF    F94.4
021BC:  BTFSS  FD8.0
021BE:  BCF    F94.4
021C0:  BSF    F94.3
021C2:  BTFSS  F82.3
021C4:  BRA    21C2
021C6:  DECFSZ 01,F
021C8:  BRA    21CC
021CA:  BRA    21D0
021CC:  MOVLB  0
021CE:  BRA    219E
021D0:  MOVLW  05
021D2:  MOVWF  00
021D4:  DECFSZ 00,F
021D6:  BRA    21D4
021D8:  BCF    F8B.3
021DA:  BCF    F94.3
021DC:  NOP   
021DE:  BSF    F94.4
021E0:  MOVLW  06
021E2:  MOVWF  00
021E4:  DECFSZ 00,F
021E6:  BRA    21E4
021E8:  MOVLW  06
021EA:  MOVWF  00
021EC:  DECFSZ 00,F
021EE:  BRA    21EC
021F0:  BSF    F94.3
021F2:  BTFSS  F82.3
021F4:  BRA    21F2
021F6:  CLRF   01
021F8:  MOVLW  06
021FA:  MOVWF  00
021FC:  DECFSZ 00,F
021FE:  BRA    21FC
02200:  BTFSC  F82.4
02202:  BSF    01.0
02204:  BCF    F8B.3
02206:  BCF    F94.3
02208:  BCF    F8B.4
0220A:  BCF    F94.4
0220C:  MOVLB  0
0220E:  RETLW  00
02210:  MOVLW  08
02212:  MOVLB  6
02214:  MOVWF  x3D
02216:  MOVFF  00,63E
0221A:  BSF    F94.4
0221C:  MOVLW  06
0221E:  MOVWF  00
02220:  DECFSZ 00,F
02222:  BRA    2220
02224:  BSF    F94.3
02226:  BTFSS  F82.3
02228:  BRA    2226
0222A:  BTFSC  F82.4
0222C:  BSF    FD8.0
0222E:  BTFSS  F82.4
02230:  BCF    FD8.0
02232:  RLCF   01,F
02234:  MOVLW  05
02236:  MOVWF  00
02238:  DECFSZ 00,F
0223A:  BRA    2238
0223C:  BCF    F94.3
0223E:  BCF    F8B.3
02240:  DECFSZ x3D,F
02242:  BRA    221A
02244:  BSF    F94.4
02246:  MOVLW  06
02248:  MOVWF  00
0224A:  DECFSZ 00,F
0224C:  BRA    224A
0224E:  BCF    F8B.4
02250:  MOVF   x3E,W
02252:  BTFSS  FD8.2
02254:  BCF    F94.4
02256:  NOP   
02258:  BSF    F94.3
0225A:  BTFSS  F82.3
0225C:  BRA    225A
0225E:  MOVLW  05
02260:  MOVWF  00
02262:  DECFSZ 00,F
02264:  BRA    2262
02266:  BCF    F8B.3
02268:  BCF    F94.3
0226A:  MOVLW  06
0226C:  MOVWF  00
0226E:  DECFSZ 00,F
02270:  BRA    226E
02272:  BCF    F8B.4
02274:  BCF    F94.4
02276:  MOVLB  0
02278:  RETLW  00
.................... #use rs232(baud=9600, xmit=PIN_C6, rcv=PIN_C7, bits=8, parity=N) 
*
03B62:  BTFSS  F9E.4
03B64:  BRA    3B62
03B66:  MOVWF  FAD
03B68:  RETLW  00
.................... #include <stdio.h> 
.................... /////////////////////////////////////////////////////////////////////////// 
.................... ////        (C) Copyright 1996,2003 Custom Computer Services           //// 
.................... //// This source code may only be used by licensed users of the CCS C  //// 
.................... //// compiler.  This source code may only be distributed to other      //// 
.................... //// licensed users of the CCS C compiler.  No other use, reproduction //// 
.................... //// or distribution is permitted without written permission.          //// 
.................... //// Derivative programs created using this software in object code    //// 
.................... //// form are not restricted in any way.                               //// 
.................... /////////////////////////////////////////////////////////////////////////// 
....................  
.................... #ifndef _STDIO 
.................... #define _STDIO 
.................... #include <string.h> 
.................... //////////////////////////////////////////////////////////////////////////// 
.................... ////        (C) Copyright 1996,2008 Custom Computer Services            //// 
.................... //// This source code may only be used by licensed users of the CCS C   //// 
.................... //// compiler.  This source code may only be distributed to other       //// 
.................... //// licensed users of the CCS C compiler.  No other use, reproduction  //// 
.................... //// or distribution is permitted without written permission.           //// 
.................... //// Derivative programs created using this software in object code     //// 
.................... //// form are not restricted in any way.                                //// 
.................... //////////////////////////////////////////////////////////////////////////// 
....................  
.................... #ifndef _STRING 
.................... #define _STRING 
.................... #include <stddef.h> 
.................... /////////////////////////////////////////////////////////////////////////// 
.................... ////        (C) Copyright 1996,2003 Custom Computer Services           //// 
.................... //// This source code may only be used by licensed users of the CCS C  //// 
.................... //// compiler.  This source code may only be distributed to other      //// 
.................... //// licensed users of the CCS C compiler.  No other use, reproduction //// 
.................... //// or distribution is permitted without written permission.          //// 
.................... //// Derivative programs created using this software in object code    //// 
.................... //// form are not restricted in any way.                               //// 
.................... /////////////////////////////////////////////////////////////////////////// 
....................  
.................... #ifndef _STDDEF 
....................  
.................... #define _STDDEF 
....................  
.................... #if sizeof(unsigned int8 *)==1 
.................... #define ptrdiff_t unsigned int8 
.................... #else 
.................... #define ptrdiff_t unsigned int16 
.................... #endif 
....................  
.................... #define size_t unsigned int8 
.................... #define wchar_t char 
.................... #define NULL 0 
....................  
.................... #define offsetof(s,f) (offsetofbit(s,f)/8) 
....................  
.................... #endif 
....................  
.................... #include <ctype.h> 
.................... //////////////////////////////////////////////////////////////////////////// 
.................... ////        (C) Copyright 1996,2003 Custom Computer Services            //// 
.................... //// This source code may only be used by licensed users of the CCS C   //// 
.................... //// compiler.  This source code may only be distributed to other       //// 
.................... //// licensed users of the CCS C compiler.  No other use, reproduction  //// 
.................... //// or distribution is permitted without written permission.           //// 
.................... //// Derivative programs created using this software in object code     //// 
.................... //// form are not restricted in any way.                                //// 
.................... //////////////////////////////////////////////////////////////////////////// 
....................  
.................... #ifndef _CTYPE 
.................... #define _CTYPE 
....................  
.................... #define islower(x)  isamong(x,"abcdefghijklmnopqrstuvwxyz") 
.................... #define isupper(x)  isamong(x,"ABCDEFGHIJKLMNOPQRSTUVWXYZ") 
.................... #define isalnum(x)  isamong(x,"0123456789ABCDEFGHIJKLMNOPQRSTUVWXYZabcdefghijklmnopqrstuvwxyz") 
.................... #define isalpha(x)  isamong(x,"ABCDEFGHIJKLMNOPQRSTUVWXYZabcdefghijklmnopqrstuvwxyz") 
.................... #define isdigit(x)  isamong(x,"0123456789") 
.................... #define isspace(x)  ((x)==' ') 
.................... #define isxdigit(x) isamong(x,"0123456789ABCDEFabcdef") 
.................... #define iscntrl(x)  ((x)<' ') 
.................... #define isprint(x)  ((x)>=' ') 
.................... #define isgraph(x)  ((x)>' ') 
.................... #define ispunct(x)  (((x)>' ')&&!isalnum(x)) 
....................  
.................... #endif 
....................  
....................  
....................  
....................  
....................  
.................... ////////////////////////////////////////////// 
.................... //// Uncomment the following define to    //// 
.................... //// allow some functions to use a        //// 
.................... //// quicker algorithm, but use more ROM  //// 
.................... ////                                      //// 
.................... //// #define FASTER_BUT_MORE_ROM          //// 
.................... ////////////////////////////////////////////// 
....................  
....................  
....................  
.................... /*Copying functions*/ 
.................... /* standard template: 
....................    void *memmove(void *s1, void *s2, size_t n). 
....................    Copies max of n characters safely (not following ending '\0') 
....................    from s2 in s1; if s2 has less than n characters, appends 0 */ 
....................  
.................... char *memmove(void *s1,char *s2,size_t n) 
.................... { 
....................    char *sc1; 
....................    char *sc2; 
....................    sc1=s1; 
....................    sc2=s2; 
....................    if(sc2<sc1 && sc1 <sc2 +n) 
....................       for(sc1+=n,sc2+=n;0<n;--n) 
....................          *--sc1=*--sc2; 
....................    else 
....................       for(;0<n;--n) 
....................          *sc1++=*sc2++; 
....................   return s1; 
....................   } 
....................  
.................... /* Standard template: char *strcpy(char *s1, const char *s2) 
....................    copies the string s2 including the null character to s1. 
....................    This is a compiler built in to handle the different address 
....................    spaces */ 
....................  
.................... #define strcopy strcpy 
....................  
.................... /* standard template: 
....................    char *strncpy(char *s1, const char *s2, size_t n). 
....................    Copies max of n characters (not following ending '\0') 
....................    from s2 in s1; if s2 has less than n characters, appends 0 */ 
....................  
.................... char *strncpy(char *s1, char *s2, size_t n) 
.................... { 
....................   char *s; 
....................  
....................   for (s = s1; n > 0 && *s2 != '\0'; n--) 
....................      *s++ = *s2++; 
....................   for (; n > 0; n--) 
....................      *s++ = '\0'; 
....................  
....................   return(s1); 
.................... } 
.................... /***********************************************************/ 
....................  
.................... /*concatenation functions*/ 
.................... /* standard template: char *strcat(char *s1, const char *s2) 
.................... appends s2 to s1*/ 
....................  
.................... char *strcat(char *s1, char *s2) 
.................... { 
....................    char *s; 
....................  
....................    for (s = s1; *s != '\0'; ++s); 
....................    while(*s2 != '\0') 
....................    { 
....................       *s = *s2; 
....................       ++s; 
....................       ++s2; 
....................    } 
....................  
....................    *s = '\0'; 
....................    return(s1); 
.................... } 
.................... /* standard template: char *strncat(char *s1, char *s2,size_t n) 
.................... appends not more than n characters from s2 to s1*/ 
....................  
.................... char *strncat(char *s1, char *s2, size_t n) 
.................... { 
....................    char *s; 
....................  
....................    for (s = s1; *s != '\0'; ++s); 
....................    while(*s2 != '\0' && 0<n) 
....................    { 
....................       *s = *s2; 
....................       ++s; 
....................       ++s2; 
....................       --n; 
....................    } 
....................  
....................    *s = '\0'; 
....................    return(s1); 
.................... } 
....................  
.................... /***********************************************************/ 
....................  
....................  
.................... /*comparison functions*/ 
.................... /* standard template: signed int memcmp(void *s1, void *s2). 
....................    Compares s1 & s2; returns -1 if s1<s2, 0 if s1=s2, 1 if s1>s2 */ 
....................  
.................... signed int8 memcmp(void * s1,char *s2,size_t n) 
.................... { 
.................... char *su1, *su2; 
.................... for(su1=s1, su2=s2; 0<n; ++su1, ++su2, --n) 
.................... { 
....................    if(*su1!=*su2) 
....................       return ((*su1<*su2)?-1:+1); 
.................... } 
.................... return 0; 
.................... } 
....................  
.................... /* standard template: int strcmp(const char *s1, const char *s2). 
....................    Compares s1 & s2; returns -1 if s1<s2, 0 if s1=s2, 1 if s1>s2 */ 
....................  
.................... signed int8 strcmp(char *s1, char *s2) 
.................... { 
....................    for (; *s1 == *s2; s1++, s2++) 
....................       if (*s1 == '\0') 
....................          return(0); 
....................    return((*s1 < *s2) ? -1: 1); 
.................... } 
.................... /* standard template: int strcoll(const char *s1, const char *s2). 
....................    Compares s1 & s2; returns -1 if s1<s2, 0 if s1=s2, 1 if s1>s2 */ 
....................  
.................... signed int8 strcoll(char *s1, char *s2) 
.................... { 
....................    for (; *s1 == *s2; s1++, s2++) 
....................       if (*s1 == '\0') 
....................          return(0); 
....................    return((*s1 < *s2) ? -1: 1); 
.................... } 
....................  
.................... /* standard template: 
....................    int strncmp(const char *s1, const char *s2, size_t n). 
....................    Compares max of n characters (not following 0) from s1 to s2; 
....................    returns same as strcmp */ 
....................  
.................... signed int8 strncmp(char *s1, char *s2, size_t n) 
.................... { 
....................    for (; n > 0; s1++, s2++, n--) 
....................       if (*s1 != *s2) 
....................          return((*s1 <*s2) ? -1: 1); 
....................       else if (*s1 == '\0') 
....................          return(0); 
....................    return(0); 
.................... } 
.................... /* standard template: 
....................    int strxfrm(const char *s1, const char *s2, size_t n). 
....................    transforms maximum of n characters from s2 and places them into s1*/ 
.................... size_t strxfrm(char *s1, char *s2, size_t n) 
.................... { 
....................   char *s; 
....................   unsigned int8 n1; 
....................   n1=n; 
....................   for (s = s1; n > 0 && *s2 != '\0'; n--) 
....................      *s++ = *s2++; 
....................   for (; n > 0; n--) 
....................      *s++ = '\0'; 
....................  
....................   return(n1); 
.................... } 
....................  
....................  
....................  
....................  
....................  
.................... /***********************************************************/ 
.................... /*Search functions*/ 
.................... /* standard template: void *memchr(const char *s, int c). 
....................    Finds first occurrence of c in n characters of s */ 
....................  
.................... char *memchr(void *s,unsigned int8 c,size_t n) 
.................... { 
....................    char uc; 
....................    char *su; 
....................    uc=c; 
....................    for(su=s;0<n;++su,--n) 
....................       if(*su==uc) 
....................       return su; 
....................    return NULL; 
.................... } 
....................  
.................... /* standard template: char *strchr(const char *s, int c). 
....................    Finds first occurrence of c in s */ 
....................  
.................... char *strchr(char *s, unsigned int8 c) 
.................... { 
....................    for (; *s != c; s++) 
....................       if (*s == '\0') 
....................          return(0); 
....................    return(s); 
.................... } 
.................... /* standard template: 
....................    size_t strcspn(const char *s1, const char *s2). 
....................    Computes length of max initial segment of s1 that 
....................    consists entirely of characters NOT from s2*/ 
....................  
.................... unsigned int8  strcspn(char *s1, char *s2) 
.................... { 
....................    char *sc1, *sc2; 
....................  
....................    for (sc1 = s1; *sc1 != 0; sc1++) 
....................       for (sc2 = s2; *sc2 != 0; sc2++) 
....................          if (*sc1 == *sc2) 
....................             return(sc1 - s1); 
....................    return(sc1 - s1); 
.................... } 
.................... /* standard template: 
....................    char *strpbrk(const char *s1, const char *s2). 
....................    Locates first occurence of any character from s2 in s1; 
....................    returns s1 if s2 is empty string */ 
....................  
.................... char *strpbrk(char *s1, char *s2) 
.................... { 
....................    char *sc1, *sc2; 
....................  
....................    for (sc1 = s1; *sc1 != 0; sc1++) 
....................       for (sc2 = s2; *sc2 != 0; sc2++) 
....................          if (*sc1 == *sc2) 
....................             return(sc1); 
....................    return(0); 
.................... } 
....................  
....................  
.................... /* standard template: char *strrchr(const char *s, int c). 
....................    Finds last occurrence of c in s */ 
....................  
.................... char *strrchr(char *s, unsigned int8 c) 
.................... { 
....................    char *p; 
....................  
....................    for (p = 0; ; s++) 
....................    { 
....................       if (*s == c) 
....................          p = s; 
....................       if (*s == '\0') 
....................          return(p); 
....................    } 
.................... } 
.................... /* computes length of max initial segment of s1 consisting 
....................    entirely of characters from s2 */ 
....................  
.................... unsigned int8  strspn(char *s1, char *s2) 
.................... { 
....................    char *sc1, *sc2; 
....................  
....................    for (sc1 = s1; *sc1 != 0; sc1++) 
....................       for (sc2 = s2; ; sc2++) 
....................     if (*sc2 == '\0') 
....................        return(sc1 - s1); 
....................          else if (*sc1 == *sc2) 
....................             break; 
....................    return(sc1 - s1); 
.................... } 
.................... /* standard template: 
....................    char *strstr(const char *s1, const char *s2); 
....................    Locates first occurence of character sequence s2 in s1; 
....................    returns 0 if s2 is empty string 
....................  
....................    Uncomment #define FASTER_BUT_MORE_ROM at the top of the 
....................    file to use the faster algorithm */ 
.................... char *strstr(char *s1, char *s2) 
.................... { 
....................    char *s, *t; 
....................  
....................    #ifdef FASTER_BUT_MORE_ROM 
....................    if (*s2 == '\0') 
....................          return(s1); 
....................    #endif 
....................  
....................    while (*s1) 
....................    { 
....................       for(s = s1, t = s2; *t && (*s == *t); ++s, ++t); 
....................  
....................       if (*t == '\0') 
....................          return s1; 
....................       ++s1; 
....................       #ifdef FASTER_BUT_MORE_ROM 
....................          while(*s1 != '\0' && *s1 != *s2) 
....................             ++s1; 
....................       #endif 
....................    } 
....................    return 0; 
.................... } 
....................  
.................... /* standard template: char *strtok(char *s1, const char *s2). 
....................  
....................    Finds next token in s1 delimited by a character from separator 
....................    string s2 (which can be different from call to call).  First call 
....................    starts at beginning of s1 searching for first character NOT 
....................    contained in s2; returns 0 if none is found. 
....................    If one is found, it is the start of first token (return value). 
....................    Function then searches from there for a character contained in s2. 
....................    If none is found, current token extends to end of s1, and subsequent 
....................    searches for a token will return 0.  If one is found, it is 
....................    overwritten by '\0', which terminates current token.  Function saves 
....................    pointer to following character from which next search will start. 
....................    Each subsequent call, with 0 as first argument, starts searching 
....................    from saved pointer */ 
....................  
.................... char *strtok(char *s1, char *s2) 
.................... { 
....................    char *beg, *end; 
....................    static char *save; 
....................  
....................    beg = (s1)? s1: save; 
....................    beg += strspn(beg, s2); 
....................    if (*beg == '\0') 
....................    { 
....................       *save = ' '; 
....................       return(0); 
....................    } 
....................    end = strpbrk(beg, s2); 
....................    if (*end != '\0') 
....................    { 
....................       *end = '\0'; 
....................       end++; 
....................    } 
....................    save = end; 
....................    return(beg); 
.................... } 
....................  
.................... /*****************************************************************/ 
.................... /*Miscellaneous functions*/ 
.................... /* standard template 
.................... maps error number in errnum to an error message string 
.................... Returns: Pointer to string 
.................... */ 
.................... #ifdef _ERRNO 
.................... char * strerror(unsigned int8 errnum) 
.................... { 
.................... char s[15]; 
.................... switch( errnum) 
.................... { 
.................... case 0: 
....................    strcpy(s,"no errors"); 
....................    return s; 
.................... case EDOM : 
....................    strcpy(s,"domain error"); 
....................    return s; 
.................... case ERANGE: 
....................    strcpy(s,"range error"); 
....................    return s; 
.................... } 
.................... } 
.................... #ENDIF 
.................... /* standard template: size_t strlen(const char *s). 
....................    Computes length of s1 (preceding terminating 0) */ 
....................  
.................... unsigned int8 strlen(char *s) 
.................... { 
....................    char *sc; 
....................  
....................    for (sc = s; *sc != 0; sc++); 
....................    return(sc - s); 
.................... } 
....................  
.................... /* standard template: size_t stricmp(const char *s1, const char *s2). 
....................    Compares s1 to s2 ignoring case (upper vs. lower) */ 
....................  
.................... signed int8 stricmp(char *s1, char *s2) 
.................... { 
....................  for(; *s1==*s2||(isalpha(*s1)&&isalpha(*s2)&&(*s1==*s2+32||*s2==*s1+32)); 
....................     s1++, s2++) 
....................     if (*s1 == '\0') 
....................        return(0); 
....................  return((*s1 < *s2) ? -1: 1); 
.................... } 
....................  
....................  
.................... /* standard template: char *strlwr(char *s). 
....................    Replaces uppercase letters by lowercase; 
....................    returns pointer to new string s */ 
....................  
.................... char *strlwr(char *s) 
.................... { 
....................    char *p; 
....................  
....................    for (p = s; *p != '\0'; p++) 
....................       if (*p >= 'A' && *p <='Z') 
....................          *p += 'a' - 'A'; 
....................    return(s); 
.................... } 
....................  
....................  
.................... /************************************************************/ 
....................  
....................  
.................... #endif 
....................  
.................... #ifndef getc 
.................... #define getc getch 
.................... #define getchar getch 
.................... #define puts(s) {printf(s); putchar(13); putchar(10);} 
.................... #define putc putchar 
.................... #endif 
.................... /* maps error number to an error message. Writes a sequence of characters to 
.................... stderr stream thus: if s is not null then string pointed to by s follwed by 
.................... a colon (:) and a space and the appropriate error message returned by strerror 
.................... function with argument errno 
....................  
.................... Returns: no value 
.................... */ 
....................  
.................... #ifdef _ERRNO 
.................... void perror(char *s) 
.................... { 
....................   if(s) 
....................   fprintf(STDERR,"%s: ",s); 
....................   fprintf(STDERR,"%s\r\n",strerror(errno)); 
.................... } 
.................... #endif 
.................... #endif 
....................  
.................... #include <string.h> 
.................... //////////////////////////////////////////////////////////////////////////// 
.................... ////        (C) Copyright 1996,2008 Custom Computer Services            //// 
.................... //// This source code may only be used by licensed users of the CCS C   //// 
.................... //// compiler.  This source code may only be distributed to other       //// 
.................... //// licensed users of the CCS C compiler.  No other use, reproduction  //// 
.................... //// or distribution is permitted without written permission.           //// 
.................... //// Derivative programs created using this software in object code     //// 
.................... //// form are not restricted in any way.                                //// 
.................... //////////////////////////////////////////////////////////////////////////// 
....................  
.................... #ifndef _STRING 
.................... #define _STRING 
.................... #include <stddef.h> 
.................... #include <ctype.h> 
....................  
....................  
....................  
.................... ////////////////////////////////////////////// 
.................... //// Uncomment the following define to    //// 
.................... //// allow some functions to use a        //// 
.................... //// quicker algorithm, but use more ROM  //// 
.................... ////                                      //// 
.................... //// #define FASTER_BUT_MORE_ROM          //// 
.................... ////////////////////////////////////////////// 
....................  
....................  
....................  
.................... /*Copying functions*/ 
.................... /* standard template: 
....................    void *memmove(void *s1, void *s2, size_t n). 
....................    Copies max of n characters safely (not following ending '\0') 
....................    from s2 in s1; if s2 has less than n characters, appends 0 */ 
....................  
.................... char *memmove(void *s1,char *s2,size_t n) 
.................... { 
....................    char *sc1; 
....................    char *sc2; 
....................    sc1=s1; 
....................    sc2=s2; 
....................    if(sc2<sc1 && sc1 <sc2 +n) 
....................       for(sc1+=n,sc2+=n;0<n;--n) 
....................          *--sc1=*--sc2; 
....................    else 
....................       for(;0<n;--n) 
....................          *sc1++=*sc2++; 
....................   return s1; 
....................   } 
....................  
.................... /* Standard template: char *strcpy(char *s1, const char *s2) 
....................    copies the string s2 including the null character to s1. 
....................    This is a compiler built in to handle the different address 
....................    spaces */ 
....................  
.................... #define strcopy strcpy 
....................  
.................... /* standard template: 
....................    char *strncpy(char *s1, const char *s2, size_t n). 
....................    Copies max of n characters (not following ending '\0') 
....................    from s2 in s1; if s2 has less than n characters, appends 0 */ 
....................  
.................... char *strncpy(char *s1, char *s2, size_t n) 
.................... { 
....................   char *s; 
....................  
....................   for (s = s1; n > 0 && *s2 != '\0'; n--) 
....................      *s++ = *s2++; 
....................   for (; n > 0; n--) 
....................      *s++ = '\0'; 
....................  
....................   return(s1); 
.................... } 
.................... /***********************************************************/ 
....................  
.................... /*concatenation functions*/ 
.................... /* standard template: char *strcat(char *s1, const char *s2) 
.................... appends s2 to s1*/ 
....................  
.................... char *strcat(char *s1, char *s2) 
.................... { 
....................    char *s; 
....................  
....................    for (s = s1; *s != '\0'; ++s); 
....................    while(*s2 != '\0') 
....................    { 
....................       *s = *s2; 
....................       ++s; 
....................       ++s2; 
....................    } 
....................  
....................    *s = '\0'; 
....................    return(s1); 
.................... } 
.................... /* standard template: char *strncat(char *s1, char *s2,size_t n) 
.................... appends not more than n characters from s2 to s1*/ 
....................  
.................... char *strncat(char *s1, char *s2, size_t n) 
.................... { 
....................    char *s; 
....................  
....................    for (s = s1; *s != '\0'; ++s); 
....................    while(*s2 != '\0' && 0<n) 
....................    { 
....................       *s = *s2; 
....................       ++s; 
....................       ++s2; 
....................       --n; 
....................    } 
....................  
....................    *s = '\0'; 
....................    return(s1); 
.................... } 
....................  
.................... /***********************************************************/ 
....................  
....................  
.................... /*comparison functions*/ 
.................... /* standard template: signed int memcmp(void *s1, void *s2). 
....................    Compares s1 & s2; returns -1 if s1<s2, 0 if s1=s2, 1 if s1>s2 */ 
....................  
.................... signed int8 memcmp(void * s1,char *s2,size_t n) 
.................... { 
.................... char *su1, *su2; 
.................... for(su1=s1, su2=s2; 0<n; ++su1, ++su2, --n) 
.................... { 
....................    if(*su1!=*su2) 
....................       return ((*su1<*su2)?-1:+1); 
.................... } 
.................... return 0; 
.................... } 
....................  
.................... /* standard template: int strcmp(const char *s1, const char *s2). 
....................    Compares s1 & s2; returns -1 if s1<s2, 0 if s1=s2, 1 if s1>s2 */ 
....................  
.................... signed int8 strcmp(char *s1, char *s2) 
.................... { 
....................    for (; *s1 == *s2; s1++, s2++) 
....................       if (*s1 == '\0') 
....................          return(0); 
....................    return((*s1 < *s2) ? -1: 1); 
.................... } 
.................... /* standard template: int strcoll(const char *s1, const char *s2). 
....................    Compares s1 & s2; returns -1 if s1<s2, 0 if s1=s2, 1 if s1>s2 */ 
....................  
.................... signed int8 strcoll(char *s1, char *s2) 
.................... { 
....................    for (; *s1 == *s2; s1++, s2++) 
....................       if (*s1 == '\0') 
....................          return(0); 
....................    return((*s1 < *s2) ? -1: 1); 
.................... } 
....................  
.................... /* standard template: 
....................    int strncmp(const char *s1, const char *s2, size_t n). 
....................    Compares max of n characters (not following 0) from s1 to s2; 
....................    returns same as strcmp */ 
....................  
.................... signed int8 strncmp(char *s1, char *s2, size_t n) 
.................... { 
....................    for (; n > 0; s1++, s2++, n--) 
....................       if (*s1 != *s2) 
....................          return((*s1 <*s2) ? -1: 1); 
....................       else if (*s1 == '\0') 
....................          return(0); 
....................    return(0); 
.................... } 
.................... /* standard template: 
....................    int strxfrm(const char *s1, const char *s2, size_t n). 
....................    transforms maximum of n characters from s2 and places them into s1*/ 
.................... size_t strxfrm(char *s1, char *s2, size_t n) 
.................... { 
....................   char *s; 
....................   unsigned int8 n1; 
....................   n1=n; 
....................   for (s = s1; n > 0 && *s2 != '\0'; n--) 
....................      *s++ = *s2++; 
....................   for (; n > 0; n--) 
....................      *s++ = '\0'; 
....................  
....................   return(n1); 
.................... } 
....................  
....................  
....................  
....................  
....................  
.................... /***********************************************************/ 
.................... /*Search functions*/ 
.................... /* standard template: void *memchr(const char *s, int c). 
....................    Finds first occurrence of c in n characters of s */ 
....................  
.................... char *memchr(void *s,unsigned int8 c,size_t n) 
.................... { 
....................    char uc; 
....................    char *su; 
....................    uc=c; 
....................    for(su=s;0<n;++su,--n) 
....................       if(*su==uc) 
....................       return su; 
....................    return NULL; 
.................... } 
....................  
.................... /* standard template: char *strchr(const char *s, int c). 
....................    Finds first occurrence of c in s */ 
....................  
.................... char *strchr(char *s, unsigned int8 c) 
.................... { 
....................    for (; *s != c; s++) 
....................       if (*s == '\0') 
....................          return(0); 
....................    return(s); 
.................... } 
.................... /* standard template: 
....................    size_t strcspn(const char *s1, const char *s2). 
....................    Computes length of max initial segment of s1 that 
....................    consists entirely of characters NOT from s2*/ 
....................  
.................... unsigned int8  strcspn(char *s1, char *s2) 
.................... { 
....................    char *sc1, *sc2; 
....................  
....................    for (sc1 = s1; *sc1 != 0; sc1++) 
....................       for (sc2 = s2; *sc2 != 0; sc2++) 
....................          if (*sc1 == *sc2) 
....................             return(sc1 - s1); 
....................    return(sc1 - s1); 
.................... } 
.................... /* standard template: 
....................    char *strpbrk(const char *s1, const char *s2). 
....................    Locates first occurence of any character from s2 in s1; 
....................    returns s1 if s2 is empty string */ 
....................  
.................... char *strpbrk(char *s1, char *s2) 
.................... { 
....................    char *sc1, *sc2; 
....................  
....................    for (sc1 = s1; *sc1 != 0; sc1++) 
....................       for (sc2 = s2; *sc2 != 0; sc2++) 
....................          if (*sc1 == *sc2) 
....................             return(sc1); 
....................    return(0); 
.................... } 
....................  
....................  
.................... /* standard template: char *strrchr(const char *s, int c). 
....................    Finds last occurrence of c in s */ 
....................  
.................... char *strrchr(char *s, unsigned int8 c) 
.................... { 
....................    char *p; 
....................  
....................    for (p = 0; ; s++) 
....................    { 
....................       if (*s == c) 
....................          p = s; 
....................       if (*s == '\0') 
....................          return(p); 
....................    } 
.................... } 
.................... /* computes length of max initial segment of s1 consisting 
....................    entirely of characters from s2 */ 
....................  
.................... unsigned int8  strspn(char *s1, char *s2) 
.................... { 
....................    char *sc1, *sc2; 
....................  
....................    for (sc1 = s1; *sc1 != 0; sc1++) 
....................       for (sc2 = s2; ; sc2++) 
....................     if (*sc2 == '\0') 
....................        return(sc1 - s1); 
....................          else if (*sc1 == *sc2) 
....................             break; 
....................    return(sc1 - s1); 
.................... } 
.................... /* standard template: 
....................    char *strstr(const char *s1, const char *s2); 
....................    Locates first occurence of character sequence s2 in s1; 
....................    returns 0 if s2 is empty string 
....................  
....................    Uncomment #define FASTER_BUT_MORE_ROM at the top of the 
....................    file to use the faster algorithm */ 
.................... char *strstr(char *s1, char *s2) 
.................... { 
....................    char *s, *t; 
....................  
....................    #ifdef FASTER_BUT_MORE_ROM 
....................    if (*s2 == '\0') 
....................          return(s1); 
....................    #endif 
....................  
....................    while (*s1) 
....................    { 
....................       for(s = s1, t = s2; *t && (*s == *t); ++s, ++t); 
....................  
....................       if (*t == '\0') 
....................          return s1; 
....................       ++s1; 
....................       #ifdef FASTER_BUT_MORE_ROM 
....................          while(*s1 != '\0' && *s1 != *s2) 
....................             ++s1; 
....................       #endif 
....................    } 
....................    return 0; 
.................... } 
....................  
.................... /* standard template: char *strtok(char *s1, const char *s2). 
....................  
....................    Finds next token in s1 delimited by a character from separator 
....................    string s2 (which can be different from call to call).  First call 
....................    starts at beginning of s1 searching for first character NOT 
....................    contained in s2; returns 0 if none is found. 
....................    If one is found, it is the start of first token (return value). 
....................    Function then searches from there for a character contained in s2. 
....................    If none is found, current token extends to end of s1, and subsequent 
....................    searches for a token will return 0.  If one is found, it is 
....................    overwritten by '\0', which terminates current token.  Function saves 
....................    pointer to following character from which next search will start. 
....................    Each subsequent call, with 0 as first argument, starts searching 
....................    from saved pointer */ 
....................  
.................... char *strtok(char *s1, char *s2) 
.................... { 
....................    char *beg, *end; 
....................    static char *save; 
....................  
....................    beg = (s1)? s1: save; 
....................    beg += strspn(beg, s2); 
....................    if (*beg == '\0') 
....................    { 
....................       *save = ' '; 
....................       return(0); 
....................    } 
....................    end = strpbrk(beg, s2); 
....................    if (*end != '\0') 
....................    { 
....................       *end = '\0'; 
....................       end++; 
....................    } 
....................    save = end; 
....................    return(beg); 
.................... } 
....................  
.................... /*****************************************************************/ 
.................... /*Miscellaneous functions*/ 
.................... /* standard template 
.................... maps error number in errnum to an error message string 
.................... Returns: Pointer to string 
.................... */ 
.................... #ifdef _ERRNO 
.................... char * strerror(unsigned int8 errnum) 
.................... { 
.................... char s[15]; 
.................... switch( errnum) 
.................... { 
.................... case 0: 
....................    strcpy(s,"no errors"); 
....................    return s; 
.................... case EDOM : 
....................    strcpy(s,"domain error"); 
....................    return s; 
.................... case ERANGE: 
....................    strcpy(s,"range error"); 
....................    return s; 
.................... } 
.................... } 
.................... #ENDIF 
.................... /* standard template: size_t strlen(const char *s). 
....................    Computes length of s1 (preceding terminating 0) */ 
....................  
.................... unsigned int8 strlen(char *s) 
.................... { 
....................    char *sc; 
....................  
....................    for (sc = s; *sc != 0; sc++); 
....................    return(sc - s); 
.................... } 
....................  
.................... /* standard template: size_t stricmp(const char *s1, const char *s2). 
....................    Compares s1 to s2 ignoring case (upper vs. lower) */ 
....................  
.................... signed int8 stricmp(char *s1, char *s2) 
.................... { 
....................  for(; *s1==*s2||(isalpha(*s1)&&isalpha(*s2)&&(*s1==*s2+32||*s2==*s1+32)); 
....................     s1++, s2++) 
....................     if (*s1 == '\0') 
....................        return(0); 
....................  return((*s1 < *s2) ? -1: 1); 
.................... } 
....................  
....................  
.................... /* standard template: char *strlwr(char *s). 
....................    Replaces uppercase letters by lowercase; 
....................    returns pointer to new string s */ 
....................  
.................... char *strlwr(char *s) 
.................... { 
....................    char *p; 
....................  
....................    for (p = s; *p != '\0'; p++) 
....................       if (*p >= 'A' && *p <='Z') 
....................          *p += 'a' - 'A'; 
....................    return(s); 
.................... } 
....................  
....................  
.................... /************************************************************/ 
....................  
....................  
.................... #endif 
....................  
.................... #include <stdlib.h> 
.................... /////////////////////////////////////////////////////////////////////////// 
.................... ////        (C) Copyright 1996,2007 Custom Computer Services           //// 
.................... //// This source code may only be used by licensed users of the CCS C  //// 
.................... //// compiler.  This source code may only be distributed to other      //// 
.................... //// licensed users of the CCS C compiler.  No other use, reproduction //// 
.................... //// or distribution is permitted without written permission.          //// 
.................... //// Derivative programs created using this software in object code    //// 
.................... //// form are not restricted in any way.                               //// 
.................... /////////////////////////////////////////////////////////////////////////// 
....................  
.................... #ifndef _STDLIB 
.................... #define _STDLIB 
....................  
.................... //--------------------------------------------------------------------------- 
.................... // Definitions and types 
.................... //--------------------------------------------------------------------------- 
....................  
.................... #ifndef RAND_MAX 
.................... #define RAND_MAX  32767    // The value of which is the maximum value 
....................                            // ... returned by the rand function 
.................... #endif 
....................  
....................  
.................... #IF (sizeof(int16*)>1) 
.................... #DEFINE LONG_POINTERS 1 
.................... #ELSE  
.................... #DEFINE LONG_POINTERS 0 
.................... #ENDIF 
....................  
.................... typedef struct { 
....................    signed int quot; 
....................    signed int rem; 
.................... } div_t; 
....................  
.................... typedef struct { 
....................    signed long quot; 
....................    signed long rem; 
.................... } ldiv_t; 
....................  
.................... #include <stddef.h> 
.................... /////////////////////////////////////////////////////////////////////////// 
.................... ////        (C) Copyright 1996,2003 Custom Computer Services           //// 
.................... //// This source code may only be used by licensed users of the CCS C  //// 
.................... //// compiler.  This source code may only be distributed to other      //// 
.................... //// licensed users of the CCS C compiler.  No other use, reproduction //// 
.................... //// or distribution is permitted without written permission.          //// 
.................... //// Derivative programs created using this software in object code    //// 
.................... //// form are not restricted in any way.                               //// 
.................... /////////////////////////////////////////////////////////////////////////// 
....................  
.................... #ifndef _STDDEF 
....................  
.................... #define _STDDEF 
....................  
.................... #if sizeof(unsigned int8 *)==1 
.................... #define ptrdiff_t unsigned int8 
.................... #else 
.................... #define ptrdiff_t unsigned int16 
.................... #endif 
....................  
.................... #define size_t unsigned int8 
.................... #define wchar_t char 
.................... #define NULL 0 
....................  
.................... #define offsetof(s,f) (offsetofbit(s,f)/8) 
....................  
.................... #endif 
....................  
....................  
.................... //--------------------------------------------------------------------------- 
.................... // String conversion functions 
.................... //--------------------------------------------------------------------------- 
....................  
.................... /* Standard template: signed int  atoi(char * s) 
....................  * converts the initial portion of the string s to a signed int 
....................  * returns the converted value if any, 0 otherwise 
....................  */ 
.................... signed int atoi(char *s); 
....................  
.................... /* Syntax: signed int32  atoi32(char * s) 
....................    converts the initial portion of the string s to a signed int32 
....................    returns the converted value if any, 0 otherwise*/ 
.................... #if (sizeof(long)==4) 
....................  #define atoi32(s) atol(s) 
.................... #else  
....................  signed int32 atoi32(char *s); 
.................... #endif 
....................  
.................... #if defined(__PCD__) 
.................... // The following functions only work on the 24 bit compiler 
.................... // for the 30F, 33F, 24F and 24H parts 
.................... /* Syntax: signed int48  atoi48(char * s) 
....................    converts the initial portion of the string s to a signed int48 
....................    returns the converted value if any, 0 otherwise*/ 
....................     
.................... signed int48 atoi48(char *s); 
....................  
.................... /* Syntax: signed int64  atoi64(char * s) 
....................    converts the initial portion of the string s to a signed int64 
....................    returns the converted value if any, 0 otherwise*/ 
.................... signed int64 atoi64(char *s); 
.................... #endif 
....................  
.................... /* Syntax: char *  itoa(signed int32 num, int8 base, char * s) 
....................    converts the signed int32 to a string and 
....................    returns the converted value if any, 0 otherwise*/ 
.................... char * itoa(signed int32 num, unsigned int base, char * s); 
....................  
.................... /* Standard template: signed int16  atol(char * s) 
....................  * converts the initial portion of the string s to a signed int16 
....................  * returns the converted value if any, 0 otherwise 
....................  */ 
.................... signed long atol(char *s); 
....................  
.................... /* Standard template: int16 strtoul(char * s,char *endptr,signed int base) 
....................  * converts the initial portion of the string s, represented as an 
....................  * integral value of radix base  to a signed long. 
....................  * Returns the converted value if any, 0 otherwise 
....................  * the final string is returned in the endptr, if endptr is not null 
....................  */ 
.................... signed long strtol(char *s,char *endptr, signed int base); 
....................  
.................... /* Standard template: int16 strtoul(char * s,char *endptr,signed int base) 
....................  * converts the initial portion of the string s, represented as an 
....................  * integral value of radix base to a unsigned long. 
....................  * returns the converted value if any, 0 otherwise 
....................  * the final string is returned in the endptr, if endptr is not null 
....................  */ 
.................... unsigned long strtoul(char *s,char *endptr, signed int base); 
....................  
.................... /* Standart template: float strtof(char * s,char *endptr) 
....................                       float48 strtof48(char *s,char *endptr); 
....................                       float64 strtod(char *s,char *endptr); 
....................  * converts the initial portion of the string s to a float32, float48 or float64, 
....................  * returns the converted value if any, 0 otherwise 
....................  * the final string is returned in the endptr, if endptr is not null                    
.................... */ 
.................... float strtof(char *s,char *endptr); 
.................... #if defined(__PCD__) 
.................... float48 strtof48(char *s,char *endptr); 
.................... float64 strtod(char *s,char *endptr); 
.................... #else 
.................... //provided for compatibility 
.................... #define strtof48(s, e) strtof(s, e) 
.................... #define strtod(s, e) strtof(s, e) 
.................... #endif 
....................  
.................... /* Standard template: float32 atof(char * s) 
....................  * converts the initial portion of the string s to a float. 
....................  * returns the converted value if any, 0 otherwise 
....................  */ 
.................... #define atof(s)   strtof(s, 0) 
....................  
.................... #if defined(__PCD__) 
.................... // The following functions only work on the 24 bit compiler 
.................... // for the 30F, 33F, 24F and 24H parts 
....................  
.................... /* Standard template: float48 atof48(char * s) 
....................  * converts the initial portion of the string s to a float. 
....................  * returns the converted value if any, 0 otherwise 
....................  */ 
.................... #define atof48(s) strtof48(s, 0) 
....................  
.................... /* Standard template: float64 atof64(char * s) 
....................  * converts the initial portion of the string s to a float. 
....................  * returns the converted value if any, 0 otherwise 
....................  */ 
.................... #define atof64(s) strtod(s, 0) 
.................... #endif 
....................  
.................... /* Standard template: float32 atoe(char * s) 
....................  * converts the initial portion of the string s to a float. 
....................  * returns the converted value if any, 0 otherwise 
....................  * also handles E format numbers 
....................  */ 
.................... #if !defined(__PCD__) 
.................... float atoe(char * s); 
.................... #endif 
....................  
.................... #if defined(__PCD__) 
.................... float32 atoe(char * s); 
.................... #endif 
....................  
.................... //--------------------------------------------------------------------------- 
.................... // Pseudo-random sequence generation functions 
.................... //--------------------------------------------------------------------------- 
....................  
.................... /* The rand function computes a sequence of pseudo-random integers in 
....................  * the range 0 to RAND_MAX 
....................  * 
....................  * Parameters: 
....................  *       (none) 
....................  * 
....................  * Returns: 
....................  *       The pseudo-random integer 
....................  */ 
.................... unsigned int16 rand(void); 
....................  
.................... /* The srand function uses the argument as a seed for a new sequence of 
....................  * pseudo-random numbers to be returned by subsequent calls to rand. 
....................  * 
....................  * Parameters: 
....................  *       [in] seed: The seed value to start from. You might need to pass 
....................  * 
....................  * Returns: 
....................  *       (none) 
....................  * 
....................  * Remarks 
....................  *          The srand function sets the starting point for generating 
....................  *       a series of pseudorandom integers. To reinitialize the 
....................  *       generator, use 1 as the seed argument. Any other value for 
....................  *       seed sets the generator to a random starting point. rand 
....................  *       retrieves the pseudorandom numbers that are generated. 
....................  *       Calling rand before any call to srand generates the same 
....................  *       sequence as calling srand with seed passed as 1. 
....................  *          Usually, you need to pass a time here from outer source 
....................  *       so that the numbers will be different every time you run. 
....................  */ 
.................... void srand(unsigned int32 seed); 
....................  
.................... //--------------------------------------------------------------------------- 
.................... // Memory management functions 
.................... //--------------------------------------------------------------------------- 
....................  
.................... // Comming soon 
....................  
.................... //--------------------------------------------------------------------------- 
.................... // Communication with the environment 
.................... //--------------------------------------------------------------------------- 
....................  
.................... /* The function returns 0 always 
....................  */ 
.................... signed int8 system(char *string); 
....................  
.................... //--------------------------------------------------------------------------- 
.................... // Searching and sorting utilities 
.................... //--------------------------------------------------------------------------- 
....................  
.................... /* Performs a binary search of a sorted array.. 
....................  * 
....................  * Parameters: 
....................  *       [in] key: Object to search for 
....................  *       [in] base: Pointer to base of search data 
....................  *       [in] num: Number of elements 
....................  *       [in] width: Width of elements 
....................  *       [in] compare: Function that compares two elements 
....................  * 
....................  * Returns: 
....................  *       bsearch returns a pointer to an occurrence of key in the array pointed 
....................  *       to by base. If key is not found, the function returns NULL. If the 
....................  *       array is not in order or contains duplicate records with identical keys, 
....................  *       the result is unpredictable. 
....................  */ 
.................... //void *bsearch(const void *key, const void *base, size_t num, size_t width, 
.................... //              int (*compare)(const void *, const void *)); 
....................  
.................... /* Performs the shell-metzner sort (not the quick sort algorithm). The contents 
....................  * of the array are sorted into ascending order according to a comparison 
....................  * function pointed to by compar. 
....................  * 
....................  * Parameters: 
....................  *       [in] base: Pointer to base of search data 
....................  *       [in] num: Number of elements 
....................  *       [in] width: Width of elements 
....................  *       [in] compare: Function that compares two elements 
....................  * 
....................  * Returns: 
....................  *       (none) 
....................  */ 
.................... //void *qsort(const void *base, size_t num, size_t width, 
.................... //              int (*compare)(const void *, const void *)); 
....................  
.................... //--------------------------------------------------------------------------- 
.................... // Integer arithmetic functions 
.................... //--------------------------------------------------------------------------- 
....................  
.................... #define labs abs 
....................  
.................... div_t div(signed int numer, signed int denom); 
.................... ldiv_t ldiv(signed long numer, signed long denom); 
....................  
.................... //--------------------------------------------------------------------------- 
.................... // Multibyte character functions 
.................... //--------------------------------------------------------------------------- 
....................  
.................... // Not supported 
....................  
.................... //--------------------------------------------------------------------------- 
.................... // Multibyte string functions 
.................... //--------------------------------------------------------------------------- 
....................  
.................... // Not supported 
....................  
....................  
.................... //--------------------------------------------------------------------------- 
.................... // Internal implementation 
.................... //--------------------------------------------------------------------------- 
....................  
.................... #include <stddef.h> 
.................... /////////////////////////////////////////////////////////////////////////// 
.................... ////        (C) Copyright 1996,2003 Custom Computer Services           //// 
.................... //// This source code may only be used by licensed users of the CCS C  //// 
.................... //// compiler.  This source code may only be distributed to other      //// 
.................... //// licensed users of the CCS C compiler.  No other use, reproduction //// 
.................... //// or distribution is permitted without written permission.          //// 
.................... //// Derivative programs created using this software in object code    //// 
.................... //// form are not restricted in any way.                               //// 
.................... /////////////////////////////////////////////////////////////////////////// 
....................  
.................... #ifndef _STDDEF 
....................  
.................... #define _STDDEF 
....................  
.................... #if sizeof(unsigned int8 *)==1 
.................... #define ptrdiff_t unsigned int8 
.................... #else 
.................... #define ptrdiff_t unsigned int16 
.................... #endif 
....................  
.................... #define size_t unsigned int8 
.................... #define wchar_t char 
.................... #define NULL 0 
....................  
.................... #define offsetof(s,f) (offsetofbit(s,f)/8) 
....................  
.................... #endif 
....................  
.................... #include <string.h> 
.................... //////////////////////////////////////////////////////////////////////////// 
.................... ////        (C) Copyright 1996,2008 Custom Computer Services            //// 
.................... //// This source code may only be used by licensed users of the CCS C   //// 
.................... //// compiler.  This source code may only be distributed to other       //// 
.................... //// licensed users of the CCS C compiler.  No other use, reproduction  //// 
.................... //// or distribution is permitted without written permission.           //// 
.................... //// Derivative programs created using this software in object code     //// 
.................... //// form are not restricted in any way.                                //// 
.................... //////////////////////////////////////////////////////////////////////////// 
....................  
.................... #ifndef _STRING 
.................... #define _STRING 
.................... #include <stddef.h> 
.................... #include <ctype.h> 
....................  
....................  
....................  
.................... ////////////////////////////////////////////// 
.................... //// Uncomment the following define to    //// 
.................... //// allow some functions to use a        //// 
.................... //// quicker algorithm, but use more ROM  //// 
.................... ////                                      //// 
.................... //// #define FASTER_BUT_MORE_ROM          //// 
.................... ////////////////////////////////////////////// 
....................  
....................  
....................  
.................... /*Copying functions*/ 
.................... /* standard template: 
....................    void *memmove(void *s1, void *s2, size_t n). 
....................    Copies max of n characters safely (not following ending '\0') 
....................    from s2 in s1; if s2 has less than n characters, appends 0 */ 
....................  
.................... char *memmove(void *s1,char *s2,size_t n) 
.................... { 
....................    char *sc1; 
....................    char *sc2; 
....................    sc1=s1; 
....................    sc2=s2; 
....................    if(sc2<sc1 && sc1 <sc2 +n) 
....................       for(sc1+=n,sc2+=n;0<n;--n) 
....................          *--sc1=*--sc2; 
....................    else 
....................       for(;0<n;--n) 
....................          *sc1++=*sc2++; 
....................   return s1; 
....................   } 
....................  
.................... /* Standard template: char *strcpy(char *s1, const char *s2) 
....................    copies the string s2 including the null character to s1. 
....................    This is a compiler built in to handle the different address 
....................    spaces */ 
....................  
.................... #define strcopy strcpy 
....................  
.................... /* standard template: 
....................    char *strncpy(char *s1, const char *s2, size_t n). 
....................    Copies max of n characters (not following ending '\0') 
....................    from s2 in s1; if s2 has less than n characters, appends 0 */ 
....................  
.................... char *strncpy(char *s1, char *s2, size_t n) 
.................... { 
....................   char *s; 
....................  
....................   for (s = s1; n > 0 && *s2 != '\0'; n--) 
....................      *s++ = *s2++; 
....................   for (; n > 0; n--) 
....................      *s++ = '\0'; 
....................  
....................   return(s1); 
.................... } 
.................... /***********************************************************/ 
....................  
.................... /*concatenation functions*/ 
.................... /* standard template: char *strcat(char *s1, const char *s2) 
.................... appends s2 to s1*/ 
....................  
.................... char *strcat(char *s1, char *s2) 
.................... { 
....................    char *s; 
....................  
....................    for (s = s1; *s != '\0'; ++s); 
....................    while(*s2 != '\0') 
....................    { 
....................       *s = *s2; 
....................       ++s; 
....................       ++s2; 
....................    } 
....................  
....................    *s = '\0'; 
....................    return(s1); 
.................... } 
.................... /* standard template: char *strncat(char *s1, char *s2,size_t n) 
.................... appends not more than n characters from s2 to s1*/ 
....................  
.................... char *strncat(char *s1, char *s2, size_t n) 
.................... { 
....................    char *s; 
....................  
....................    for (s = s1; *s != '\0'; ++s); 
....................    while(*s2 != '\0' && 0<n) 
....................    { 
....................       *s = *s2; 
....................       ++s; 
....................       ++s2; 
....................       --n; 
....................    } 
....................  
....................    *s = '\0'; 
....................    return(s1); 
.................... } 
....................  
.................... /***********************************************************/ 
....................  
....................  
.................... /*comparison functions*/ 
.................... /* standard template: signed int memcmp(void *s1, void *s2). 
....................    Compares s1 & s2; returns -1 if s1<s2, 0 if s1=s2, 1 if s1>s2 */ 
....................  
.................... signed int8 memcmp(void * s1,char *s2,size_t n) 
.................... { 
.................... char *su1, *su2; 
.................... for(su1=s1, su2=s2; 0<n; ++su1, ++su2, --n) 
.................... { 
....................    if(*su1!=*su2) 
....................       return ((*su1<*su2)?-1:+1); 
.................... } 
.................... return 0; 
.................... } 
....................  
.................... /* standard template: int strcmp(const char *s1, const char *s2). 
....................    Compares s1 & s2; returns -1 if s1<s2, 0 if s1=s2, 1 if s1>s2 */ 
....................  
.................... signed int8 strcmp(char *s1, char *s2) 
.................... { 
....................    for (; *s1 == *s2; s1++, s2++) 
....................       if (*s1 == '\0') 
....................          return(0); 
....................    return((*s1 < *s2) ? -1: 1); 
.................... } 
.................... /* standard template: int strcoll(const char *s1, const char *s2). 
....................    Compares s1 & s2; returns -1 if s1<s2, 0 if s1=s2, 1 if s1>s2 */ 
....................  
.................... signed int8 strcoll(char *s1, char *s2) 
.................... { 
....................    for (; *s1 == *s2; s1++, s2++) 
....................       if (*s1 == '\0') 
....................          return(0); 
....................    return((*s1 < *s2) ? -1: 1); 
.................... } 
....................  
.................... /* standard template: 
....................    int strncmp(const char *s1, const char *s2, size_t n). 
....................    Compares max of n characters (not following 0) from s1 to s2; 
....................    returns same as strcmp */ 
....................  
.................... signed int8 strncmp(char *s1, char *s2, size_t n) 
.................... { 
....................    for (; n > 0; s1++, s2++, n--) 
....................       if (*s1 != *s2) 
....................          return((*s1 <*s2) ? -1: 1); 
....................       else if (*s1 == '\0') 
....................          return(0); 
....................    return(0); 
.................... } 
.................... /* standard template: 
....................    int strxfrm(const char *s1, const char *s2, size_t n). 
....................    transforms maximum of n characters from s2 and places them into s1*/ 
.................... size_t strxfrm(char *s1, char *s2, size_t n) 
.................... { 
....................   char *s; 
....................   unsigned int8 n1; 
....................   n1=n; 
....................   for (s = s1; n > 0 && *s2 != '\0'; n--) 
....................      *s++ = *s2++; 
....................   for (; n > 0; n--) 
....................      *s++ = '\0'; 
....................  
....................   return(n1); 
.................... } 
....................  
....................  
....................  
....................  
....................  
.................... /***********************************************************/ 
.................... /*Search functions*/ 
.................... /* standard template: void *memchr(const char *s, int c). 
....................    Finds first occurrence of c in n characters of s */ 
....................  
.................... char *memchr(void *s,unsigned int8 c,size_t n) 
.................... { 
....................    char uc; 
....................    char *su; 
....................    uc=c; 
....................    for(su=s;0<n;++su,--n) 
....................       if(*su==uc) 
....................       return su; 
....................    return NULL; 
.................... } 
....................  
.................... /* standard template: char *strchr(const char *s, int c). 
....................    Finds first occurrence of c in s */ 
....................  
.................... char *strchr(char *s, unsigned int8 c) 
.................... { 
....................    for (; *s != c; s++) 
....................       if (*s == '\0') 
....................          return(0); 
....................    return(s); 
.................... } 
.................... /* standard template: 
....................    size_t strcspn(const char *s1, const char *s2). 
....................    Computes length of max initial segment of s1 that 
....................    consists entirely of characters NOT from s2*/ 
....................  
.................... unsigned int8  strcspn(char *s1, char *s2) 
.................... { 
....................    char *sc1, *sc2; 
....................  
....................    for (sc1 = s1; *sc1 != 0; sc1++) 
....................       for (sc2 = s2; *sc2 != 0; sc2++) 
....................          if (*sc1 == *sc2) 
....................             return(sc1 - s1); 
....................    return(sc1 - s1); 
.................... } 
.................... /* standard template: 
....................    char *strpbrk(const char *s1, const char *s2). 
....................    Locates first occurence of any character from s2 in s1; 
....................    returns s1 if s2 is empty string */ 
....................  
.................... char *strpbrk(char *s1, char *s2) 
.................... { 
....................    char *sc1, *sc2; 
....................  
....................    for (sc1 = s1; *sc1 != 0; sc1++) 
....................       for (sc2 = s2; *sc2 != 0; sc2++) 
....................          if (*sc1 == *sc2) 
....................             return(sc1); 
....................    return(0); 
.................... } 
....................  
....................  
.................... /* standard template: char *strrchr(const char *s, int c). 
....................    Finds last occurrence of c in s */ 
....................  
.................... char *strrchr(char *s, unsigned int8 c) 
.................... { 
....................    char *p; 
....................  
....................    for (p = 0; ; s++) 
....................    { 
....................       if (*s == c) 
....................          p = s; 
....................       if (*s == '\0') 
....................          return(p); 
....................    } 
.................... } 
.................... /* computes length of max initial segment of s1 consisting 
....................    entirely of characters from s2 */ 
....................  
.................... unsigned int8  strspn(char *s1, char *s2) 
.................... { 
....................    char *sc1, *sc2; 
....................  
....................    for (sc1 = s1; *sc1 != 0; sc1++) 
....................       for (sc2 = s2; ; sc2++) 
....................     if (*sc2 == '\0') 
....................        return(sc1 - s1); 
....................          else if (*sc1 == *sc2) 
....................             break; 
....................    return(sc1 - s1); 
.................... } 
.................... /* standard template: 
....................    char *strstr(const char *s1, const char *s2); 
....................    Locates first occurence of character sequence s2 in s1; 
....................    returns 0 if s2 is empty string 
....................  
....................    Uncomment #define FASTER_BUT_MORE_ROM at the top of the 
....................    file to use the faster algorithm */ 
.................... char *strstr(char *s1, char *s2) 
.................... { 
....................    char *s, *t; 
....................  
....................    #ifdef FASTER_BUT_MORE_ROM 
....................    if (*s2 == '\0') 
....................          return(s1); 
....................    #endif 
....................  
....................    while (*s1) 
....................    { 
....................       for(s = s1, t = s2; *t && (*s == *t); ++s, ++t); 
....................  
....................       if (*t == '\0') 
....................          return s1; 
....................       ++s1; 
....................       #ifdef FASTER_BUT_MORE_ROM 
....................          while(*s1 != '\0' && *s1 != *s2) 
....................             ++s1; 
....................       #endif 
....................    } 
....................    return 0; 
.................... } 
....................  
.................... /* standard template: char *strtok(char *s1, const char *s2). 
....................  
....................    Finds next token in s1 delimited by a character from separator 
....................    string s2 (which can be different from call to call).  First call 
....................    starts at beginning of s1 searching for first character NOT 
....................    contained in s2; returns 0 if none is found. 
....................    If one is found, it is the start of first token (return value). 
....................    Function then searches from there for a character contained in s2. 
....................    If none is found, current token extends to end of s1, and subsequent 
....................    searches for a token will return 0.  If one is found, it is 
....................    overwritten by '\0', which terminates current token.  Function saves 
....................    pointer to following character from which next search will start. 
....................    Each subsequent call, with 0 as first argument, starts searching 
....................    from saved pointer */ 
....................  
.................... char *strtok(char *s1, char *s2) 
.................... { 
....................    char *beg, *end; 
....................    static char *save; 
....................  
....................    beg = (s1)? s1: save; 
....................    beg += strspn(beg, s2); 
....................    if (*beg == '\0') 
....................    { 
....................       *save = ' '; 
....................       return(0); 
....................    } 
....................    end = strpbrk(beg, s2); 
....................    if (*end != '\0') 
....................    { 
....................       *end = '\0'; 
....................       end++; 
....................    } 
....................    save = end; 
....................    return(beg); 
.................... } 
....................  
.................... /*****************************************************************/ 
.................... /*Miscellaneous functions*/ 
.................... /* standard template 
.................... maps error number in errnum to an error message string 
.................... Returns: Pointer to string 
.................... */ 
.................... #ifdef _ERRNO 
.................... char * strerror(unsigned int8 errnum) 
.................... { 
.................... char s[15]; 
.................... switch( errnum) 
.................... { 
.................... case 0: 
....................    strcpy(s,"no errors"); 
....................    return s; 
.................... case EDOM : 
....................    strcpy(s,"domain error"); 
....................    return s; 
.................... case ERANGE: 
....................    strcpy(s,"range error"); 
....................    return s; 
.................... } 
.................... } 
.................... #ENDIF 
.................... /* standard template: size_t strlen(const char *s). 
....................    Computes length of s1 (preceding terminating 0) */ 
....................  
.................... unsigned int8 strlen(char *s) 
.................... { 
....................    char *sc; 
....................  
....................    for (sc = s; *sc != 0; sc++); 
....................    return(sc - s); 
.................... } 
....................  
.................... /* standard template: size_t stricmp(const char *s1, const char *s2). 
....................    Compares s1 to s2 ignoring case (upper vs. lower) */ 
....................  
.................... signed int8 stricmp(char *s1, char *s2) 
.................... { 
....................  for(; *s1==*s2||(isalpha(*s1)&&isalpha(*s2)&&(*s1==*s2+32||*s2==*s1+32)); 
....................     s1++, s2++) 
....................     if (*s1 == '\0') 
....................        return(0); 
....................  return((*s1 < *s2) ? -1: 1); 
.................... } 
....................  
....................  
.................... /* standard template: char *strlwr(char *s). 
....................    Replaces uppercase letters by lowercase; 
....................    returns pointer to new string s */ 
....................  
.................... char *strlwr(char *s) 
.................... { 
....................    char *p; 
....................  
....................    for (p = s; *p != '\0'; p++) 
....................       if (*p >= 'A' && *p <='Z') 
....................          *p += 'a' - 'A'; 
....................    return(s); 
.................... } 
....................  
....................  
.................... /************************************************************/ 
....................  
....................  
.................... #endif 
....................  
....................  
.................... div_t div(signed int numer, signed int denom) 
.................... { 
....................    div_t val; 
....................    val.quot = numer / denom; 
....................    val.rem = numer - (denom * val.quot); 
....................    return (val); 
.................... } 
....................  
.................... ldiv_t ldiv(signed long numer, signed long denom) 
.................... { 
....................    ldiv_t val; 
....................  
....................    val.quot = numer / denom; 
....................    val.rem = numer - (denom * val.quot); 
....................    return (val); 
.................... } 
....................  
.................... #if defined(__PCD__) 
.................... float32 atoe(char * s) 
.................... { 
....................    float32 pow10 = 1.0; 
....................    float32 result = 0.0; 
....................    unsigned int8 sign = 0; 
....................    unsigned int8 expsign = 0; 
....................    char c; 
....................    unsigned int8 ptr = 0; 
....................    unsigned int8 i; 
....................    float32 exp = 1.0; 
....................    unsigned int8 expcnt = 0; 
....................  
....................    c = s[ptr++]; 
....................  
....................    if ((c>='0' && c<='9') || c=='+' || c=='-' || c=='.' || c=='E' || c=='e') { 
....................       if(c == '-') { 
....................          sign = 1; 
....................          c = s[ptr++]; 
....................       } 
....................       if(c == '+') 
....................          c = s[ptr++]; 
....................  
....................       while((c >= '0' && c <= '9')) { 
....................          result = 10*result + c - '0'; 
....................          c = s[ptr++]; 
....................       } 
....................  
....................       if (c == '.') { 
....................          c = s[ptr++]; 
....................          while((c >= '0' && c <= '9')) { 
....................              pow10 = pow10*10; 
....................              result += (c - '0')/pow10; 
....................              c = s[ptr++]; 
....................          } 
....................       } 
....................  
....................       // Handling the exponent 
....................       if (c=='e' || c=='E') { 
....................          c = s[ptr++]; 
....................  
....................          if(c == '-') { 
....................             expsign = 1; 
....................             c = s[ptr++]; 
....................          } 
....................          if(c == '+') 
....................             c = s[ptr++]; 
....................  
....................          while((c >= '0' && c <= '9')) { 
....................             expcnt = 10*expcnt + c - '0'; 
....................             c = s[ptr++]; 
....................          } 
....................  
....................          for(i=0;i<expcnt;i++) 
....................             exp*=10; 
....................  
....................          if(expsign==1) 
....................             result/=exp; 
....................          else 
....................             result*=exp; 
....................       } 
....................    } 
....................  
....................    if (sign == 1) 
....................       result = -1*result; 
....................    return(result); 
.................... } 
.................... #endif 
....................  
.................... #if !defined(__PCD__) 
.................... float atoe(char * s) 
.................... { 
....................    float pow10 = 1.0; 
....................    float result = 0.0; 
....................    unsigned int8 sign = 0; 
....................    unsigned int8 expsign = 0; 
....................    char c; 
....................    unsigned int8 ptr = 0; 
....................    unsigned int8 i; 
....................    float exp = 1.0; 
....................    unsigned int8 expcnt = 0; 
....................  
....................    c = s[ptr++]; 
....................  
....................    if ((c>='0' && c<='9') || c=='+' || c=='-' || c=='.' || c=='E' || c=='e') { 
....................       if(c == '-') { 
....................          sign = 1; 
....................          c = s[ptr++]; 
....................       } 
....................       if(c == '+') 
....................          c = s[ptr++]; 
....................  
....................       while((c >= '0' && c <= '9')) { 
....................          result = 10*result + c - '0'; 
....................          c = s[ptr++]; 
....................       } 
....................  
....................       if (c == '.') { 
....................          c = s[ptr++]; 
....................          while((c >= '0' && c <= '9')) { 
....................              pow10 = pow10*10; 
....................              result += (c - '0')/pow10; 
....................              c = s[ptr++]; 
....................          } 
....................       } 
....................  
....................       // Handling the exponent 
....................       if (c=='e' || c=='E') { 
....................          c = s[ptr++]; 
....................  
....................          if(c == '-') { 
....................             expsign = 1; 
....................             c = s[ptr++]; 
....................          } 
....................          if(c == '+') 
....................             c = s[ptr++]; 
....................  
....................          while((c >= '0' && c <= '9')) { 
....................             expcnt = 10*expcnt + c - '0'; 
....................             c = s[ptr++]; 
....................          } 
....................  
....................          for(i=0;i<expcnt;i++) 
....................             exp*=10; 
....................  
....................          if(expsign==1) 
....................             result/=exp; 
....................          else 
....................             result*=exp; 
....................       } 
....................    } 
....................  
....................    if (sign == 1) 
....................       result = -1*result; 
....................    return(result); 
.................... } 
.................... #endif 
....................  
.................... signed int atoi(char *s) 
.................... { 
....................    signed int result; 
....................    unsigned int sign, base, index; 
....................    char c; 
....................  
....................    index = 0; 
....................    sign = 0; 
....................    base = 10; 
....................    result = 0; 
....................  
....................    if (!s) 
....................       return 0; 
....................    // Omit all preceeding alpha characters 
....................    c = s[index++]; 
....................  
....................    // increase index if either positive or negative sign is detected 
....................    if (c == '-') 
....................    { 
....................       sign = 1;         // Set the sign to negative 
....................       c = s[index++]; 
....................    } 
....................    else if (c == '+') 
....................    { 
....................       c = s[index++]; 
....................    } 
....................  
....................    if (c >= '0' && c <= '9') 
....................    { 
....................  
....................       // Check for hexa number 
....................       if (c == '0' && (s[index] == 'x' || s[index] == 'X')) 
....................       { 
....................          base = 16; 
....................          index++; 
....................          c = s[index++]; 
....................       } 
....................  
....................       // The number is a decimal number 
....................       if (base == 10) 
....................       { 
....................          while (c >= '0' && c <= '9') 
....................          { 
....................             result = 10*result + (c - '0'); 
....................             c = s[index++]; 
....................          } 
....................       } 
....................       else if (base == 16)    // The number is a hexa number 
....................       { 
....................          c = toupper(c); 
....................          while ( (c >= '0' && c <= '9') || (c >= 'A' && c<='F')) 
....................          { 
....................             if (c >= '0' && c <= '9') 
....................                result = (result << 4) + (c - '0'); 
....................             else 
....................                result = (result << 4) + (c - 'A' + 10); 
....................  
....................             c = s[index++]; 
....................             c = toupper(c); 
....................          } 
....................       } 
....................    } 
....................  
....................    if (sign == 1 && base == 10) 
....................        result = -result; 
....................  
....................    return(result); 
.................... } 
....................  
.................... signed long atol(char *s) 
.................... { 
....................    signed long result; 
....................    unsigned int sign, base, index; 
....................    char c; 
....................  
....................    index = 0; 
....................    sign = 0; 
....................    base = 10; 
....................    result = 0; 
....................  
....................    if (!s) 
....................       return 0; 
....................    c = s[index++]; 
....................  
....................    // increase index if either positive or negative sign is detected 
....................    if (c == '-') 
....................    { 
....................       sign = 1;         // Set the sign to negative 
....................       c = s[index++]; 
....................    } 
....................    else if (c == '+') 
....................    { 
....................       c = s[index++]; 
....................    } 
....................  
....................    if (c >= '0' && c <= '9') 
....................    { 
....................       if (c == '0' && (s[index] == 'x' || s[index] == 'X')) 
....................       { 
....................          base = 16; 
....................          index++; 
....................          c = s[index++]; 
....................       } 
....................  
....................       // The number is a decimal number 
....................       if (base == 10) 
....................       { 
....................          while (c >= '0' && c <= '9') 
....................          { 
....................             result = 10*result + (c - '0'); 
....................             c = s[index++]; 
....................          } 
....................       } 
....................       else if (base == 16)    // The number is a hexa number 
....................       { 
....................          c = toupper(c); 
....................          while ( (c >= '0' && c <= '9') || (c >= 'A' && c <='F')) 
....................          { 
....................             if (c >= '0' && c <= '9') 
....................                result = (result << 4) + (c - '0'); 
....................             else 
....................                result = (result << 4) + (c - 'A' + 10); 
....................  
....................             c = s[index++];c = toupper(c); 
....................          } 
....................       } 
....................    } 
....................  
....................    if (base == 10 && sign == 1) 
....................       result = -result; 
....................  
....................    return(result); 
.................... } 
....................  
.................... /* A fast routine to multiply by 10 
....................  */ 
.................... signed int32 mult_with10(int32 num) 
.................... { 
....................    return ( (num << 1) + (num << 3) ); 
.................... } 
....................  
.................... #if sizeof(long)==2 
.................... signed int32 atoi32(char *s) 
.................... { 
....................    signed int32 result; 
....................    int8 sign, base, index; 
....................    char c; 
....................  
....................    index = 0; 
....................    sign = 0; 
....................    base = 10; 
....................    result = 0; 
....................  
....................    if (!s) 
....................       return 0; 
....................    c = s[index++]; 
....................  
....................    // increase index if either positive or negative sign is detected 
....................    if (c == '-') 
....................    { 
....................       sign = 1;         // Set the sign to negative 
....................       c = s[index++]; 
....................    } 
....................    else if (c == '+') 
....................    { 
....................       c = s[index++]; 
....................    } 
....................  
....................    if (c >= '0' && c <= '9') 
....................    { 
....................       if (c == '0' && (s[index] == 'x' || s[index] == 'X')) 
....................       { 
....................          base = 16; 
....................          index++; 
....................          c = s[index++]; 
....................       } 
....................  
....................       // The number is a decimal number 
....................       if (base == 10) 
....................       { 
....................          while (c >= '0' && c <= '9') { 
....................             result = (result << 1) + (result << 3);  // result *= 10; 
....................             result += (c - '0'); 
....................             c = s[index++]; 
....................          } 
....................       } 
....................       else if (base == 16)    // The number is a hexa number 
....................       { 
....................          c = toupper(c); 
....................          while ((c >= '0' && c <= '9') || (c >= 'A' && c <='F')) 
....................          { 
....................             if (c >= '0' && c <= '9') 
....................                result = (result << 4) + (c - '0'); 
....................             else 
....................                result = (result << 4) + (c - 'A' + 10); 
....................  
....................             c = s[index++];c = toupper(c); 
....................          } 
....................       } 
....................    } 
....................  
....................    if (base == 10 && sign == 1) 
....................       result = -result; 
....................  
....................    return(result); 
.................... } 
.................... #endif 
....................  
.................... #if defined(__PCD__) 
....................  
.................... signed int48 atoi48(char *s) 
.................... { 
....................    signed int48 result; 
....................    int8 sign, base, index; 
....................    char c; 
....................  
....................    index = 0; 
....................    sign = 0; 
....................    base = 10; 
....................    result = 0; 
....................  
....................    if (!s) 
....................       return 0; 
....................    c = s[index++]; 
....................  
....................    // increase index if either positive or negative sign is detected 
....................    if (c == '-') 
....................    { 
....................       sign = 1;         // Set the sign to negative 
....................       c = s[index++]; 
....................    } 
....................    else if (c == '+') 
....................    { 
....................       c = s[index++]; 
....................    } 
....................  
....................    if (c >= '0' && c <= '9') 
....................    { 
....................       if (c == '0' && (s[index] == 'x' || s[index] == 'X')) 
....................       { 
....................          base = 16; 
....................          index++; 
....................          c = s[index++]; 
....................       } 
....................  
....................       // The number is a decimal number 
....................       if (base == 10) 
....................       { 
....................          while (c >= '0' && c <= '9') { 
....................             result = (result << 1) + (result << 3);  // result *= 10; 
....................             result += (c - '0'); 
....................             c = s[index++]; 
....................          } 
....................       } 
....................       else if (base == 16)    // The number is a hexa number 
....................       { 
....................          c = toupper(c); 
....................          while ((c >= '0' && c <= '9') || (c >= 'A' && c <='F')) 
....................          { 
....................             if (c >= '0' && c <= '9') 
....................                result = (result << 4) + (c - '0'); 
....................             else 
....................                result = (result << 4) + (c - 'A' + 10); 
....................  
....................             c = s[index++];c = toupper(c); 
....................          } 
....................       } 
....................    } 
....................  
....................    if (base == 10 && sign == 1) 
....................       result = -result; 
....................  
....................    return(result); 
.................... } 
....................  
.................... signed int64 atoi64(char *s) 
.................... { 
....................    signed int64 result; 
....................    int8 sign, base, index; 
....................    char c; 
....................  
....................    index = 0; 
....................    sign = 0; 
....................    base = 10; 
....................    result = 0; 
....................  
....................    if (!s) 
....................       return 0; 
....................    c = s[index++]; 
....................  
....................    // increase index if either positive or negative sign is detected 
....................    if (c == '-') 
....................    { 
....................       sign = 1;         // Set the sign to negative 
....................       c = s[index++]; 
....................    } 
....................    else if (c == '+') 
....................    { 
....................       c = s[index++]; 
....................    } 
....................  
....................    if (c >= '0' && c <= '9') 
....................    { 
....................       if (c == '0' && (s[index] == 'x' || s[index] == 'X')) 
....................       { 
....................          base = 16; 
....................          index++; 
....................          c = s[index++]; 
....................       } 
....................  
....................       // The number is a decimal number 
....................       if (base == 10) 
....................       { 
....................          while (c >= '0' && c <= '9') { 
....................             result = (result << 1) + (result << 3);  // result *= 10; 
....................             result += (c - '0'); 
....................             c = s[index++]; 
....................          } 
....................       } 
....................       else if (base == 16)    // The number is a hexa number 
....................       { 
....................          c = toupper(c); 
....................          while ((c >= '0' && c <= '9') || (c >= 'A' && c <='F')) 
....................          { 
....................             if (c >= '0' && c <= '9') 
....................                result = (result << 4) + (c - '0'); 
....................             else 
....................                result = (result << 4) + (c - 'A' + 10); 
....................  
....................             c = s[index++];c = toupper(c); 
....................          } 
....................       } 
....................    } 
....................  
....................    if (base == 10 && sign == 1) 
....................       result = -result; 
....................  
....................    return(result); 
.................... } 
.................... #endif 
....................  
.................... char * itoa(signed int32 num, unsigned int base, char * s) 
.................... { 
....................      unsigned int32 temp=1; 
....................      unsigned int8 i,sign=0,cnt=0; 
....................      char c; 
....................  
....................      if(num<0) { 
....................          sign=1;        // Check for negative number 
....................          num*=-1; 
....................      } 
....................  
....................      while(temp>0) { 
....................          temp=(num/base); 
....................          s[cnt]=(num%base)+'0';    // Conversion 
....................  
....................          if(s[cnt]>0x39) 
....................             s[cnt]+=0x7; 
....................  
....................          cnt++; 
....................          num=temp; 
....................      } 
....................  
....................      if(sign==1) { 
....................          s[cnt]=0x2D;      // Negative sign 
....................          cnt++; 
....................      } 
....................  
....................      for(i = 0;i<(int8)(cnt/2);i++) { 
....................  
....................          c=s[i]; 
....................          s[i]=s[cnt-i-1];        // Reverse the number 
....................          s[cnt-i-1]=c; 
....................      } 
....................      s[cnt]='\0';     // End the string 
....................      return s; 
.................... } 
....................  
.................... float strtof(char *s, char *endptr) 
.................... { 
....................    float pow10 = 1.0; 
....................    float result = 0.0; 
....................    int1 skip = 1, sign = 0, point = 0; 
....................    char c; 
....................    unsigned int8 ptr = 0; 
....................  
....................    if (!s) 
....................       return 0; 
....................  
....................    for(c=s[ptr++]; c!=0; c=s[ptr++]) 
....................    { 
....................       if (skip && !isspace(c)) 
....................       { 
....................          skip = 0; 
....................          if (c == '+') 
....................          { 
....................             sign = 0; 
....................             continue; 
....................          }             
....................          else if (c == '-') 
....................          { 
....................             sign = 1; 
....................             continue; 
....................          } 
....................       } 
....................       if (!skip && (c == '.') && !point) 
....................          point = 1; 
....................       else if (!skip && isdigit(c)) 
....................       { 
....................          c -= '0'; 
....................          if (point) 
....................          { 
....................             pow10 = pow10 * 10.0; 
....................             result += (float)c / pow10;    
....................          } 
....................          else 
....................          { 
....................             result = 10.0 * result + (float)c; 
....................          } 
....................       } 
....................       else if (!skip) 
....................          break; 
....................    } 
....................  
....................    if (sign) 
....................       result = -1*result; 
....................        
....................    if(endptr) 
....................    { 
....................       if (ptr) { 
....................          ptr--; 
....................        #IF LONG_POINTERS  
....................          *((long *)endptr)= s+ptr;  
....................        #ELSE 
....................          *((char *)endptr)=s+ptr; 
....................        #ENDIF 
....................       } 
....................       else 
....................       { 
....................       #IF LONG_POINTERS 
....................       *((long *)endptr)= s;  
....................       #ELSE 
....................       *((char *)endptr)=s; 
....................       #ENDIF 
....................       } 
....................    } 
....................  
....................    return(result); 
.................... } 
....................  
.................... #if defined(__PCD__) 
.................... float48 strtof48(char *s, char *endptr) 
.................... { 
....................    float48 pow10 = 1.0; 
....................    float48 result = 0.0; 
....................    int1 skip = 1, sign = 0, point = 0; 
....................    char c; 
....................    unsigned int8 ptr = 0; 
....................  
....................    if (!s) 
....................       return 0; 
....................  
....................    for(c=s[ptr++]; c!=0; c=s[ptr++]) 
....................    { 
....................       if (skip && !isspace(c)) 
....................       { 
....................          skip = 0; 
....................          if (c == '+') 
....................          { 
....................             sign = 0; 
....................             continue; 
....................          }             
....................          else if (c == '-') 
....................          { 
....................             sign = 1; 
....................             continue; 
....................          } 
....................       } 
....................       if (!skip && (c == '.') && !point) 
....................          point = 1; 
....................       else if (!skip && isdigit(c)) 
....................       { 
....................          c -= '0'; 
....................          if (point) 
....................          { 
....................             pow10 = pow10 * 10.0; 
....................             result += (float48)c / pow10;    
....................          } 
....................          else 
....................          { 
....................             result = 10.0 * result + (float48)c; 
....................          } 
....................       } 
....................       else if (!skip) 
....................          break; 
....................    } 
....................  
....................    if (sign) 
....................       result = -1*result; 
....................        
....................    if(endptr) 
....................    { 
....................       if (ptr) { 
....................          ptr--; 
....................        #IF LONG_POINTERS  
....................          *((long *)endptr)= s+ptr;  
....................        #ELSE 
....................          *((char *)endptr)=s+ptr; 
....................        #ENDIF 
....................       } 
....................       else 
....................       { 
....................       #IF LONG_POINTERS 
....................       *((long *)endptr)= s;  
....................       #ELSE 
....................       *((char *)endptr)=s; 
....................       #ENDIF 
....................       } 
....................    } 
....................  
....................    return(result); 
.................... } 
....................  
.................... float64 strtod(char *s, char *endptr) 
.................... { 
....................    float64 pow10 = 1.0; 
....................    float64 result = 0.0; 
....................    int1 skip = 1, sign = 0, point = 0; 
....................    char c; 
....................    unsigned int8 ptr = 0; 
....................  
....................    if (!s) 
....................       return 0; 
....................  
....................    for(c=s[ptr++]; c!=0; c=s[ptr++]) 
....................    { 
....................       if (skip && !isspace(c)) 
....................       { 
....................          skip = 0; 
....................          if (c == '+') 
....................          { 
....................             sign = 0; 
....................             continue; 
....................          }             
....................          else if (c == '-') 
....................          { 
....................             sign = 1; 
....................             continue; 
....................          } 
....................       } 
....................       if (!skip && (c == '.') && !point) 
....................          point = 1; 
....................       else if (!skip && isdigit(c)) 
....................       { 
....................          c -= '0'; 
....................          if (point) 
....................          { 
....................             pow10 = pow10 * 10.0; 
....................             result += (float64)c / pow10;    
....................          } 
....................          else 
....................          { 
....................             result = 10.0 * result + (float64)c; 
....................          } 
....................       } 
....................       else if (!skip) 
....................          break; 
....................    } 
....................  
....................    if (sign) 
....................       result = -1*result; 
....................        
....................    if(endptr) 
....................    { 
....................       if (ptr) { 
....................          ptr--; 
....................        #IF LONG_POINTERS  
....................          *((long *)endptr)= s+ptr;  
....................        #ELSE 
....................          *((char *)endptr)=s+ptr; 
....................        #ENDIF 
....................       } 
....................       else 
....................       { 
....................       #IF LONG_POINTERS 
....................       *((long *)endptr)= s;  
....................       #ELSE 
....................       *((char *)endptr)=s; 
....................       #ENDIF 
....................       } 
....................    } 
....................  
....................    return(result); 
.................... } 
.................... #endif 
....................  
.................... unsigned long strtoul(char *s, char *endptr, signed int base) 
.................... { 
....................    char *sc,*s1,*sd; 
....................    unsigned long x=0; 
....................    char sign; 
....................    char digits[]="0123456789abcdefghijklmnopqstuvwxyz"; 
....................    for(sc=s;isspace(*sc);++sc); 
....................    sign=*sc=='-'||*sc=='+'?*sc++:'+'; 
....................    if(sign=='-' || base <0 || base ==1|| base >36) // invalid base 
....................    goto StrtoulGO; 
....................  
....................    else if (base) 
....................    { 
....................       if(base==16 && *sc =='0'&&(sc[1]=='x' || sc[1]=='X')) 
....................          sc+=2; 
....................       if(base==8 && *sc =='0') 
....................          sc+=1; 
....................       if(base==2 && *sc =='0'&&sc[1]=='b') 
....................          sc+=2; 
....................  
....................    } 
....................    else if(*sc!='0') // base is 0, find base 
....................       base=10; 
....................    else if (sc[1]=='x' || sc[1]=='X') 
....................       base =16,sc+=2; 
....................    else if(sc[1]=='b') 
....................       base=2,sc+=2; 
....................    else 
....................       base=8; 
....................    for (s1=sc;*sc=='0';++sc);// skip leading zeroes 
....................    sd=memchr(digits,tolower(*sc),base); 
....................    for(; sd!=0; ) 
....................    { 
....................       x=x*base+(int16)(sd-digits); 
....................       ++sc; 
....................       sd=memchr(digits,tolower(*sc),base); 
....................    } 
....................    if(s1==sc) 
....................    { 
....................    StrtoulGO: 
....................       if (endptr) 
....................       { 
....................          #IF LONG_POINTERS 
....................          *((long *)endptr)= s;  
....................          #ELSE 
....................          *((char *)endptr)=s; 
....................          #ENDIF 
....................          } 
....................    return 0; 
....................    } 
....................    if (endptr) 
....................    { 
....................          #IF LONG_POINTERS 
....................          *((long *)endptr)= sc;  
....................          #ELSE 
....................          *((char *)endptr)=sc;  
....................          #ENDIF 
....................    } 
....................    return x; 
.................... } 
....................  
....................  
.................... signed long strtol(char *s,char *endptr, signed int base) 
.................... { 
....................    char *sc,*s1,*sd; 
....................    signed long x=0; 
....................    char sign; 
....................    char digits[]="0123456789abcdefghijklmnopqstuvwxyz"; 
....................    for(sc=s;isspace(*sc);++sc); 
....................    sign=*sc=='-'||*sc=='+'?*sc++:'+'; 
....................    if (base <0 || base ==1|| base >36) // invalid base 
....................    goto StrtolGO; 
....................    else if (base) 
....................    { 
....................       if(base==16 && *sc =='0'&&(sc[1]=='x' || sc[1]=='X')) 
....................          sc+=2; 
....................       if(base==8 && *sc =='0') 
....................          sc+=1; 
....................       if(base==2 && *sc =='0'&&sc[1]=='b') 
....................          sc+=2; 
....................  
....................    } 
....................    else if(*sc!='0') // base is 0, find base 
....................       base=10; 
....................    else if (sc[1]=='x' || sc[1]=='X') 
....................       base =16,sc+=2; 
....................    else if(sc[1]=='b') 
....................       base=2,sc+=2; 
....................    else 
....................       base=8; 
....................    for (s1=sc;*sc=='0';++sc);// skip leading zeroes 
....................  
....................    sd=memchr(digits,tolower(*sc),base); 
....................    for(;sd!=0;) 
....................    { 
....................       x=x*base+(int16)(sd-digits); 
....................       ++sc; 
....................       sd=memchr(digits,tolower(*sc),base); 
....................    } 
....................    if(s1==sc) 
....................    { 
....................    StrtolGO: 
....................       if (endptr) 
....................       { 
....................          #IF LONG_POINTERS 
....................          *((long *)endptr)= s;  
....................          #ELSE 
....................          *((char *)endptr)=s; 
....................          #ENDIF 
....................       } 
....................    return 0; 
....................    } 
....................    if(sign=='-') 
....................       x  =-x; 
....................    if (endptr) 
....................    { 
....................         #IF LONG_POINTERS 
....................          *((long *)endptr)= sc;  
....................         #ELSE 
....................         *((char *)endptr)=sc; 
....................         #ENDIF 
....................    } 
....................    return x; 
.................... } 
....................  
.................... signed int8 system(char *string) 
.................... { 
....................    return 0; 
.................... } 
....................  
.................... int8 mblen(char *s,size_t n) 
.................... { 
....................    return strlen(s); 
.................... } 
....................  
.................... int8 mbtowc(wchar_t *pwc,char *s,size_t n) 
.................... { 
....................    *pwc=*s; 
....................    return 1; 
.................... } 
....................  
.................... int8 wctomb(char *s,wchar_t wchar) 
.................... { 
....................    *s=wchar; 
....................    return 1; 
.................... } 
....................  
.................... size_t mbstowcs(wchar_t *pwcs,char *s,size_t n) 
.................... { 
....................    strncpy(pwcs,s,n); 
....................    return strlen(pwcs); 
.................... } 
....................  
.................... size_t wcstombs(char *s,wchar_t *pwcs,size_t n) 
.................... { 
....................    strncpy(s,pwcs,n); 
....................    return strlen(s); 
.................... } 
....................  
.................... //--------------------------------------------------------------------------- 
.................... // The random number implementation 
.................... //--------------------------------------------------------------------------- 
....................  
.................... unsigned int32 _Randseed; 
....................  
.................... unsigned int16 rand(void) 
.................... { 
....................    _Randseed = _Randseed * 1103515245 + 12345; 
....................    return ((unsigned int16)(_Randseed >> 16) % RAND_MAX); 
.................... } 
....................  
.................... void srand(unsigned int32 seed) 
.................... { 
....................    _Randseed = seed; 
.................... } 
....................  
.................... //--------------------------------------------------------------------------- 
.................... // Searching and sorting utilities implementation 
.................... //--------------------------------------------------------------------------- 
....................  
.................... #if !defined(__PCD__) 
.................... typedef signed int8 (*_Cmpfun)(char * p1,char * p2);  
.................... #else  
.................... typedef signed int16 (*_Cmpfun)(char * p1,char * p2);  
.................... #endif 
....................  
....................  
....................  
.................... void qsort(char * qdata, unsigned int qitems, unsigned int qsize, _Cmpfun cmp) { 
....................    unsigned int m,j,i,l; 
....................    int1 done; 
....................    unsigned int8 t[16]; 
....................  
....................    m = qitems/2; 
....................    while( m > 0 ) { 
....................      for(j=0; j<(qitems-m); ++j) { 
....................         i = j; 
....................         do 
....................         { 
....................            done=1; 
....................            l = i+m; 
....................            if( (*cmp)(qdata+i*qsize, qdata+l*qsize) > 0 ) { 
....................               memcpy(t, qdata+i*qsize, qsize); 
....................               memcpy(qdata+i*qsize, qdata+l*qsize, qsize); 
....................               memcpy(qdata+l*qsize, t, qsize); 
....................               if(m <= i) 
....................                 i -= m; 
....................                 done = 0; 
....................            } 
....................         } while(!done); 
....................      } 
....................      m = m/2; 
....................    } 
.................... } 
....................  
....................  
.................... char *bsearch(char *key, char *base, size_t num, size_t width,_Cmpfun cmp) 
.................... { 
....................    char *p, *q; 
....................    size_t n; 
....................    size_t pivot; 
....................    signed int val; 
....................  
....................    p = base; 
....................    n = num; 
....................  
....................    while (n > 0) 
....................    { 
....................       pivot = n >> 1; 
....................       q = p + width * pivot; 
....................  
....................       val = (*cmp)(key, q); 
....................  
....................       if (val < 0) 
....................          n = pivot; 
....................       else if (val == 0) 
....................          return ((char *)q); 
....................       else { 
....................          p = q + width; 
....................          n -= pivot + 1; 
....................       } 
....................    } 
....................  
....................    return NULL;      // There's no match 
.................... } 
....................  
....................  
.................... #endif 
....................  
.................... #include <DS1302.c> 
.................... ////////////////////////////////////////////////////////////////////////// 
.................... ////                               DS1302.C                           //// 
.................... ////                     Driver for Real Time Clock                   //// 
.................... ////                                                                  //// 
.................... ////  rtc_init()                                   Call after power up//// 
.................... ////                                                                  //// 
.................... ////  rtc_set_datetime(day,mth,year,dow,hour,min)  Set the date/time  //// 
.................... ////                                                                  //// 
.................... ////  rtc_get_date(day,mth,year,dow)               Get the date       //// 
.................... ////                                                                  //// 
.................... ////  rtc_get_time(hr,min,sec)                     Get the time       //// 
.................... ////                                                                  //// 
.................... ////  rtc_write_nvr(address,data)                  Write to NVR       //// 
.................... ////                                                                  //// 
.................... ////  data = rtc_read_nvr(address)                 Read from NVR      //// 
.................... ////                                                                  //// 
.................... ////  get_bcd(data)                              Convert data to BCD  //// 
.................... ////                                                                  //// 
.................... ////  rm_bcd(data)                               Convert data to int  //// 
.................... ////                                                                  //// 
.................... ////////////////////////////////////////////////////////////////////////// 
.................... ////        (C) Copyright 1996,2003 Custom Computer Services          //// 
.................... //// This source code may only be used by licensed users of the CCS C //// 
.................... //// compiler.  This source code may only be distributed to other     //// 
.................... //// licensed users of the CCS C compiler.  No other use, reproduction//// 
.................... //// or distribution is permitted without written permission.         //// 
.................... //// Derivative programs created using this software in object code   //// 
.................... //// form are not restricted in any way.                              //// 
.................... ////////////////////////////////////////////////////////////////////////// 
....................  
.................... //#ifndef RTC_SCLK 
....................  
.................... #define RTC_SCLK PIN_D1 
.................... #define RTC_IO   PIN_D2 
.................... #define RTC_RST  PIN_D3 
....................  
.................... //#endif 
....................  
.................... void write_ds1302_byte(BYTE cmd) { 
....................    BYTE i; 
....................  
....................    for(i=0;i<=7;++i) { 
*
035CC:  MOVLB  6
035CE:  CLRF   x3E
035D0:  MOVF   x3E,W
035D2:  SUBLW  07
035D4:  BNC   35F0
....................       output_bit(RTC_IO, shift_right(&cmd,1,0) ); 
035D6:  BCF    FD8.0
035D8:  RRCF   x3D,F
035DA:  BC    35E0
035DC:  BCF    F8C.2
035DE:  BRA    35E2
035E0:  BSF    F8C.2
035E2:  BCF    F95.2
....................       output_high(RTC_SCLK); 
035E4:  BCF    F95.1
035E6:  BSF    F8C.1
....................       output_low(RTC_SCLK); 
035E8:  BCF    F95.1
035EA:  BCF    F8C.1
....................    } 
035EC:  INCF   x3E,F
035EE:  BRA    35D0
.................... } 
035F0:  MOVLB  0
035F2:  RETLW  00
....................  
.................... void write_ds1302(BYTE cmd, BYTE data) { 
....................  
....................    output_high(RTC_RST); 
035F4:  BCF    F95.3
035F6:  BSF    F8C.3
....................    write_ds1302_byte(cmd); 
035F8:  MOVFF  63B,63D
035FC:  RCALL  35CC
....................    write_ds1302_byte(data); 
035FE:  MOVFF  63C,63D
03602:  RCALL  35CC
....................    output_low(RTC_RST); 
03604:  BCF    F95.3
03606:  BCF    F8C.3
.................... } 
03608:  RETLW  00
....................  
.................... BYTE read_ds1302(BYTE cmd) { 
....................    BYTE i,data; 
....................  
....................    output_high(RTC_RST); 
0360A:  BCF    F95.3
0360C:  BSF    F8C.3
....................    write_ds1302_byte(cmd); 
0360E:  MOVFF  638,63D
03612:  RCALL  35CC
....................     
....................    input(RTC_IO); 
03614:  BSF    F95.2
....................    delay_us(10); 
03616:  MOVLW  10
03618:  MOVWF  00
0361A:  DECFSZ 00,F
0361C:  BRA    361A
0361E:  NOP   
....................           
....................    for(i=0;i<=7;++i) { 
03620:  MOVLB  6
03622:  CLRF   x39
03624:  MOVF   x39,W
03626:  SUBLW  07
03628:  BNC   3654
....................       shift_right(&data,1,input(RTC_IO)); 
0362A:  BSF    F95.2
0362C:  BTFSC  F83.2
0362E:  BRA    3634
03630:  BCF    FD8.0
03632:  BRA    3636
03634:  BSF    FD8.0
03636:  RRCF   x3A,F
....................       output_high(RTC_SCLK); 
03638:  BCF    F95.1
0363A:  BSF    F8C.1
....................       delay_us(20); 
0363C:  MOVLW  21
0363E:  MOVWF  00
03640:  DECFSZ 00,F
03642:  BRA    3640
....................       output_low(RTC_SCLK); 
03644:  BCF    F95.1
03646:  BCF    F8C.1
....................       delay_us(20); 
03648:  MOVLW  21
0364A:  MOVWF  00
0364C:  DECFSZ 00,F
0364E:  BRA    364C
....................    } 
03650:  INCF   x39,F
03652:  BRA    3624
....................    output_low(RTC_RST); 
03654:  BCF    F95.3
03656:  BCF    F8C.3
....................  
....................    return(data); 
03658:  MOVFF  63A,01
.................... } 
0365C:  MOVLB  0
0365E:  RETLW  00
....................  
.................... void rtc_init() { 
....................    BYTE x; 
....................    output_low(RTC_RST); 
03660:  BCF    F95.3
03662:  BCF    F8C.3
....................    delay_us(20); 
03664:  MOVLW  21
03666:  MOVWF  00
03668:  DECFSZ 00,F
0366A:  BRA    3668
....................    output_low(RTC_SCLK); 
0366C:  BCF    F95.1
0366E:  BCF    F8C.1
....................    write_ds1302(0x8e,0); 
03670:  MOVLW  8E
03672:  MOVLB  6
03674:  MOVWF  x3B
03676:  CLRF   x3C
03678:  MOVLB  0
0367A:  RCALL  35F4
....................    write_ds1302(0x90,0xa4); 
0367C:  MOVLW  90
0367E:  MOVLB  6
03680:  MOVWF  x3B
03682:  MOVLW  A4
03684:  MOVWF  x3C
03686:  MOVLB  0
03688:  RCALL  35F4
....................    x=read_ds1302(0x81); 
0368A:  MOVLW  81
0368C:  MOVLB  6
0368E:  MOVWF  x38
03690:  MOVLB  0
03692:  RCALL  360A
03694:  MOVFF  01,634
....................    if((x & 0x80)!=0) 
03698:  MOVLB  6
0369A:  MOVF   x34,W
0369C:  ANDLW  80
0369E:  BZ    36AC
....................      write_ds1302(0x80,0); 
036A0:  MOVLW  80
036A2:  MOVWF  x3B
036A4:  CLRF   x3C
036A6:  MOVLB  0
036A8:  RCALL  35F4
036AA:  MOVLB  6
.................... } 
036AC:  MOVLB  0
036AE:  GOTO   6E06 (RETURN)
....................  
.................... byte get_bcd(BYTE data) 
.................... { 
....................    byte nibh; 
....................    byte nibl; 
....................  
....................    nibh=data/10; 
*
0508E:  MOVFF  63A,63D
05092:  MOVLW  0A
05094:  MOVLB  6
05096:  MOVWF  x3E
05098:  MOVLB  0
0509A:  RCALL  4BD0
0509C:  MOVFF  01,63B
....................    nibl=data-(nibh*10); 
050A0:  MOVLB  6
050A2:  MOVF   x3B,W
050A4:  MULLW  0A
050A6:  MOVF   FF3,W
050A8:  SUBWF  x3A,W
050AA:  MOVWF  x3C
....................  
....................    return((nibh<<4)|nibl); 
050AC:  SWAPF  x3B,W
050AE:  MOVWF  00
050B0:  MOVLW  F0
050B2:  ANDWF  00,F
050B4:  MOVF   00,W
050B6:  IORWF  x3C,W
050B8:  MOVWF  01
.................... } 
050BA:  MOVLB  0
050BC:  RETLW  00
....................  
.................... byte rm_bcd(BYTE data) 
.................... { 
....................    byte i; 
....................  
....................    i=data; 
*
0459E:  MOVFF  639,63A
....................    data=(i>>4)*10; 
045A2:  MOVLB  6
045A4:  SWAPF  x3A,W
045A6:  MOVWF  00
045A8:  MOVLW  0F
045AA:  ANDWF  00,F
045AC:  MOVF   00,W
045AE:  MULLW  0A
045B0:  MOVFF  FF3,639
....................    data=data+(i<<4>>4); 
045B4:  SWAPF  x3A,W
045B6:  MOVWF  00
045B8:  MOVLW  F0
045BA:  ANDWF  00,F
045BC:  MOVF   00,W
045BE:  SWAPF  00,F
045C0:  MOVLW  0F
045C2:  ANDWF  00,F
045C4:  MOVF   00,W
045C6:  ADDWF  x39,F
....................  
....................    return data; 
045C8:  MOVFF  639,01
.................... } 
045CC:  MOVLB  0
045CE:  RETLW  00
....................  
.................... void rtc_set_datetime(BYTE day, BYTE mth, BYTE year, BYTE dow, BYTE hr, BYTE min) { 
....................  
....................    write_ds1302(0x86,get_bcd(day)); 
*
050BE:  MOVFF  634,63A
050C2:  RCALL  508E
050C4:  MOVFF  01,63A
050C8:  MOVLW  86
050CA:  MOVLB  6
050CC:  MOVWF  x3B
050CE:  MOVFF  01,63C
050D2:  MOVLB  0
050D4:  CALL   35F4
....................    write_ds1302(0x88,get_bcd(mth)); 
050D8:  MOVFF  635,63A
050DC:  RCALL  508E
050DE:  MOVFF  01,63A
050E2:  MOVLW  88
050E4:  MOVLB  6
050E6:  MOVWF  x3B
050E8:  MOVFF  01,63C
050EC:  MOVLB  0
050EE:  CALL   35F4
....................    write_ds1302(0x8c,get_bcd(year)); 
050F2:  MOVFF  636,63A
050F6:  RCALL  508E
050F8:  MOVFF  01,63A
050FC:  MOVLW  8C
050FE:  MOVLB  6
05100:  MOVWF  x3B
05102:  MOVFF  01,63C
05106:  MOVLB  0
05108:  CALL   35F4
....................    write_ds1302(0x8a,get_bcd(dow)); 
0510C:  MOVFF  637,63A
05110:  RCALL  508E
05112:  MOVFF  01,63A
05116:  MOVLW  8A
05118:  MOVLB  6
0511A:  MOVWF  x3B
0511C:  MOVFF  01,63C
05120:  MOVLB  0
05122:  CALL   35F4
....................    write_ds1302(0x84,get_bcd(hr)); 
05126:  MOVFF  638,63A
0512A:  RCALL  508E
0512C:  MOVFF  01,63A
05130:  MOVLW  84
05132:  MOVLB  6
05134:  MOVWF  x3B
05136:  MOVFF  01,63C
0513A:  MOVLB  0
0513C:  CALL   35F4
....................    write_ds1302(0x82,get_bcd(min)); 
05140:  MOVFF  639,63A
05144:  RCALL  508E
05146:  MOVFF  01,63A
0514A:  MOVLW  82
0514C:  MOVLB  6
0514E:  MOVWF  x3B
05150:  MOVFF  01,63C
05154:  MOVLB  0
05156:  CALL   35F4
....................    write_ds1302(0x80,get_bcd(0)); 
0515A:  MOVLB  6
0515C:  CLRF   x3A
0515E:  MOVLB  0
05160:  RCALL  508E
05162:  MOVFF  01,63A
05166:  MOVLW  80
05168:  MOVLB  6
0516A:  MOVWF  x3B
0516C:  MOVFF  01,63C
05170:  MOVLB  0
05172:  CALL   35F4
.................... } 
05176:  GOTO   9658 (RETURN)
....................  
.................... void rtc_get_date(BYTE& day, BYTE& mth, BYTE& year, BYTE& dow) { 
....................    day = rm_bcd(read_ds1302(0x87)); 
*
06F30:  MOVLW  87
06F32:  MOVLB  6
06F34:  MOVWF  x38
06F36:  MOVLB  0
06F38:  CALL   360A
06F3C:  MOVFF  01,634
06F40:  MOVFF  01,639
06F44:  CALL   459E
06F48:  MOVFF  01,21D
....................    mth = rm_bcd(read_ds1302(0x89)); 
06F4C:  MOVLW  89
06F4E:  MOVLB  6
06F50:  MOVWF  x38
06F52:  MOVLB  0
06F54:  CALL   360A
06F58:  MOVFF  01,634
06F5C:  MOVFF  01,639
06F60:  CALL   459E
06F64:  MOVFF  01,21C
....................    year = rm_bcd(read_ds1302(0x8d)); 
06F68:  MOVLW  8D
06F6A:  MOVLB  6
06F6C:  MOVWF  x38
06F6E:  MOVLB  0
06F70:  CALL   360A
06F74:  MOVFF  01,634
06F78:  MOVFF  01,639
06F7C:  CALL   459E
06F80:  MOVFF  01,21B
....................    dow = rm_bcd(read_ds1302(0x8b)); 
06F84:  MOVLW  8B
06F86:  MOVLB  6
06F88:  MOVWF  x38
06F8A:  MOVLB  0
06F8C:  CALL   360A
06F90:  MOVFF  01,634
06F94:  MOVFF  01,639
06F98:  CALL   459E
06F9C:  MOVFF  01,221
.................... } 
....................  
.................... void rtc_get_time(BYTE& hr, BYTE& min, BYTE& sec) { 
....................    hr = rm_bcd(read_ds1302(0x85)); 
06FA0:  MOVLW  85
06FA2:  MOVLB  6
06FA4:  MOVWF  x38
06FA6:  MOVLB  0
06FA8:  CALL   360A
06FAC:  MOVFF  01,634
06FB0:  MOVFF  01,639
06FB4:  CALL   459E
06FB8:  MOVFF  01,21E
....................    min = rm_bcd(read_ds1302(0x83)); 
06FBC:  MOVLW  83
06FBE:  MOVLB  6
06FC0:  MOVWF  x38
06FC2:  MOVLB  0
06FC4:  CALL   360A
06FC8:  MOVFF  01,634
06FCC:  MOVFF  01,639
06FD0:  CALL   459E
06FD4:  MOVFF  01,21F
....................    sec = rm_bcd(read_ds1302(0x81)); 
06FD8:  MOVLW  81
06FDA:  MOVLB  6
06FDC:  MOVWF  x38
06FDE:  MOVLB  0
06FE0:  CALL   360A
06FE4:  MOVFF  01,634
06FE8:  MOVFF  01,639
06FEC:  CALL   459E
06FF0:  MOVFF  01,220
.................... } 
....................  
.................... void rtc_write_nvr(BYTE address, BYTE data) { 
....................    write_ds1302(address|0xc0,data); 
.................... } 
....................  
.................... BYTE rtc_read_nvr(BYTE address) { 
....................     return(read_ds1302(address|0xc1)); 
.................... } 
....................  
.................... #include <24512.c> 
.................... /////////////////////////////////////////////////////////////////////////// 
.................... ////   Library for a 24LC512 serial EEPROM                             //// 
.................... ////                                                                   //// 
.................... ////   init_ext_eeprom();    Call before the other functions are used  //// 
.................... ////                                                                   //// 
.................... ////   write_ext_eeprom(a, d);  Write the byte d to the address a      //// 
.................... ////                                                                   //// 
.................... ////   d = read_ext_eeprom(a);   Read the byte d from the address a    //// 
.................... ////                                                                   //// 
.................... ////   The main program may define eeprom_sda                          //// 
.................... ////   and eeprom_scl to override the defaults below.                  //// 
.................... ////                                                                   //// 
.................... /////////////////////////////////////////////////////////////////////////// 
.................... ////        (C) Copyright 1996,2003 Custom Computer Services           //// 
.................... //// This source code may only be used by licensed users of the CCS C  //// 
.................... //// compiler.  This source code may only be distributed to other      //// 
.................... //// licensed users of the CCS C compiler.  No other use, reproduction //// 
.................... //// or distribution is permitted without written permission.          //// 
.................... //// Derivative programs created using this software in object code    //// 
.................... //// form are not restricted in any way.                               //// 
.................... /////////////////////////////////////////////////////////////////////////// 
....................  
.................... #ifndef EEPROM_SDA 
....................  
.................... #define EEPROM_SDA  PIN_C4 
.................... #define EEPROM_SCL  PIN_C3 
....................  
.................... #endif 
....................  
.................... //#use i2c(master, sda=EEPROM_SDA, scl=EEPROM_SCL) 
....................  
.................... #define EEPROM_ADDRESS long int 
.................... #define EEPROM_SIZE   65535 
....................  
.................... void init_ext_eeprom() 
.................... { 
....................    output_float(EEPROM_SCL); 
....................    output_float(EEPROM_SDA); 
....................  
.................... } 
....................  
.................... void write_ext_eeprom(long int address, BYTE data) 
.................... { 
....................    short int status; 
....................    i2c_start(); 
*
05ADE:  BSF    F94.4
05AE0:  MOVLW  05
05AE2:  MOVWF  00
05AE4:  DECFSZ 00,F
05AE6:  BRA    5AE4
05AE8:  BSF    F94.3
05AEA:  MOVLW  06
05AEC:  MOVWF  00
05AEE:  DECFSZ 00,F
05AF0:  BRA    5AEE
05AF2:  BCF    F8B.4
05AF4:  BCF    F94.4
05AF6:  MOVLW  05
05AF8:  MOVWF  00
05AFA:  DECFSZ 00,F
05AFC:  BRA    5AFA
05AFE:  BCF    F8B.3
05B00:  BCF    F94.3
....................    i2c_write(0xa0); 
05B02:  MOVLW  A0
05B04:  MOVLB  6
05B06:  MOVWF  x41
05B08:  MOVLB  0
05B0A:  CALL   219A
....................    i2c_write(address>>8); 
05B0E:  MOVFF  63C,63F
05B12:  MOVLB  6
05B14:  CLRF   x40
05B16:  MOVFF  63C,641
05B1A:  MOVLB  0
05B1C:  CALL   219A
....................    i2c_write(address); 
05B20:  MOVFF  63B,641
05B24:  CALL   219A
....................    i2c_write(data); 
05B28:  MOVFF  63D,641
05B2C:  CALL   219A
....................    i2c_stop(); 
05B30:  BCF    F94.4
05B32:  NOP   
05B34:  BSF    F94.3
05B36:  BTFSS  F82.3
05B38:  BRA    5B36
05B3A:  MOVLW  05
05B3C:  MOVWF  00
05B3E:  DECFSZ 00,F
05B40:  BRA    5B3E
05B42:  BRA    5B44
05B44:  NOP   
05B46:  BSF    F94.4
05B48:  MOVLW  05
05B4A:  MOVWF  00
05B4C:  DECFSZ 00,F
05B4E:  BRA    5B4C
....................    i2c_start(); 
05B50:  BSF    F94.4
05B52:  MOVLW  05
05B54:  MOVWF  00
05B56:  DECFSZ 00,F
05B58:  BRA    5B56
05B5A:  BSF    F94.3
05B5C:  MOVLW  06
05B5E:  MOVWF  00
05B60:  DECFSZ 00,F
05B62:  BRA    5B60
05B64:  BCF    F8B.4
05B66:  BCF    F94.4
05B68:  MOVLW  05
05B6A:  MOVWF  00
05B6C:  DECFSZ 00,F
05B6E:  BRA    5B6C
05B70:  BCF    F8B.3
05B72:  BCF    F94.3
....................    status=i2c_write(0xa0); 
05B74:  MOVLW  A0
05B76:  MOVLB  6
05B78:  MOVWF  x41
05B7A:  MOVLB  0
05B7C:  CALL   219A
05B80:  MOVF   01,W
05B82:  MOVLB  6
05B84:  BCF    x3E.0
05B86:  BTFSC  01.0
05B88:  BSF    x3E.0
....................    while(status==1) 
....................    { 
05B8A:  BTFSS  x3E.0
05B8C:  BRA    5BCC
....................       i2c_start(); 
05B8E:  BSF    F94.4
05B90:  MOVLW  05
05B92:  MOVWF  00
05B94:  DECFSZ 00,F
05B96:  BRA    5B94
05B98:  BSF    F94.3
05B9A:  MOVLW  06
05B9C:  MOVWF  00
05B9E:  DECFSZ 00,F
05BA0:  BRA    5B9E
05BA2:  BTFSS  F82.3
05BA4:  BRA    5BA2
05BA6:  BCF    F8B.4
05BA8:  BCF    F94.4
05BAA:  MOVLW  05
05BAC:  MOVWF  00
05BAE:  DECFSZ 00,F
05BB0:  BRA    5BAE
05BB2:  BCF    F8B.3
05BB4:  BCF    F94.3
....................       status=i2c_write(0xa0); 
05BB6:  MOVLW  A0
05BB8:  MOVWF  x41
05BBA:  MOVLB  0
05BBC:  CALL   219A
05BC0:  MOVF   01,W
05BC2:  MOVLB  6
05BC4:  BCF    x3E.0
05BC6:  BTFSC  01.0
05BC8:  BSF    x3E.0
....................    } 
05BCA:  BRA    5B8A
....................    i2c_stop(); 
05BCC:  BCF    F94.4
05BCE:  NOP   
05BD0:  BSF    F94.3
05BD2:  BTFSS  F82.3
05BD4:  BRA    5BD2
05BD6:  MOVLW  05
05BD8:  MOVWF  00
05BDA:  DECFSZ 00,F
05BDC:  BRA    5BDA
05BDE:  BRA    5BE0
05BE0:  NOP   
05BE2:  BSF    F94.4
05BE4:  MOVLW  05
05BE6:  MOVWF  00
05BE8:  DECFSZ 00,F
05BEA:  BRA    5BE8
.................... } 
05BEC:  MOVLB  0
05BEE:  RETLW  00
....................  
.................... BYTE read_ext_eeprom(long int address) { 
....................    BYTE data; 
....................    i2c_start(); 
*
0227A:  BSF    F94.4
0227C:  MOVLW  05
0227E:  MOVWF  00
02280:  DECFSZ 00,F
02282:  BRA    2280
02284:  BSF    F94.3
02286:  MOVLW  06
02288:  MOVWF  00
0228A:  DECFSZ 00,F
0228C:  BRA    228A
0228E:  BCF    F8B.4
02290:  BCF    F94.4
02292:  MOVLW  05
02294:  MOVWF  00
02296:  DECFSZ 00,F
02298:  BRA    2296
0229A:  BCF    F8B.3
0229C:  BCF    F94.3
....................    i2c_write(0xa0); 
0229E:  MOVLW  A0
022A0:  MOVLB  6
022A2:  MOVWF  x41
022A4:  MOVLB  0
022A6:  RCALL  219A
....................    i2c_write(address>>8); 
022A8:  MOVFF  63A,63C
022AC:  MOVLB  6
022AE:  CLRF   x3D
022B0:  MOVFF  63A,641
022B4:  MOVLB  0
022B6:  RCALL  219A
....................    i2c_write(address); 
022B8:  MOVFF  639,641
022BC:  RCALL  219A
....................    i2c_start(); 
022BE:  BSF    F94.4
022C0:  MOVLW  05
022C2:  MOVWF  00
022C4:  DECFSZ 00,F
022C6:  BRA    22C4
022C8:  BSF    F94.3
022CA:  MOVLW  06
022CC:  MOVWF  00
022CE:  DECFSZ 00,F
022D0:  BRA    22CE
022D2:  BTFSS  F82.3
022D4:  BRA    22D2
022D6:  BCF    F8B.4
022D8:  BCF    F94.4
022DA:  MOVLW  05
022DC:  MOVWF  00
022DE:  DECFSZ 00,F
022E0:  BRA    22DE
022E2:  BCF    F8B.3
022E4:  BCF    F94.3
....................    i2c_write(0xa1); 
022E6:  MOVLW  A1
022E8:  MOVLB  6
022EA:  MOVWF  x41
022EC:  MOVLB  0
022EE:  RCALL  219A
....................    data=i2c_read(0); 
022F0:  CLRF   00
022F2:  RCALL  2210
022F4:  MOVFF  01,63B
....................    i2c_stop(); 
022F8:  BCF    F94.4
022FA:  NOP   
022FC:  BSF    F94.3
022FE:  BTFSS  F82.3
02300:  BRA    22FE
02302:  MOVLW  05
02304:  MOVWF  00
02306:  DECFSZ 00,F
02308:  BRA    2306
0230A:  BRA    230C
0230C:  NOP   
0230E:  BSF    F94.4
02310:  MOVLW  05
02312:  MOVWF  00
02314:  DECFSZ 00,F
02316:  BRA    2314
....................    return(data); 
02318:  MOVLB  6
0231A:  MOVFF  63B,01
.................... } 
0231E:  MOVLB  0
02320:  RETLW  00
....................  
....................  
.................... #define   UP            !input(PIN_B0) 
.................... #define   DOWN          !input(PIN_B1) 
.................... #define   RIGHT         !input(PIN_B2) 
.................... #define   LEFT          !input(PIN_B3) 
....................  
.................... #define   DOOR          !input(PIN_B6) 
.................... #define   STOP          !input(PIN_B7) 
.................... #define   TERM          !input(PIN_B5) 
....................  
.................... #define   LOW           input(PIN_C1) 
.................... #define   HIG           input(PIN_C0) 
....................  
.................... #define   SSR_on           output_bit(PIN_C2,0) 
.................... #define   SSR_off          output_bit(PIN_C2,1) 
....................  
.................... #define   Buzzer_on        output_bit(PIN_D0,1) 
.................... #define   Buzzer_off       output_bit(PIN_D0,0) 
....................  
.................... #define   Paso_on          output_bit(PIN_D5,1) 
.................... #define   Paso_off         output_bit(PIN_D5,0) 
....................  
.................... #define   Desfogue_on      output_bit(PIN_D4,1) 
.................... #define   Desfogue_off     output_bit(PIN_D4,0) 
....................  
.................... #define   Agua_on          output_bit(PIN_D6,1) 
.................... #define   Agua_off         output_bit(PIN_D6,0) 
....................  
.................... #define OFF 0 
.................... #define ON  1 
.................... #define RX_BUFFER_SIZE  10 
.................... char Rx_Buffer[RX_BUFFER_SIZE+1]; 
.................... char Rx_Buffer2[RX_BUFFER_SIZE+1]; 
.................... char RX_Wr_Index=0; 
....................  
.................... //Comunicacion//------------------------ 
.................... //byte txbuf[0X20]; 
.................... byte SlaveA0Tx[0X20]; 
.................... byte dato=0;            //Contendr la informacin a enviar o recibir 
.................... byte direccion=0;       //Contendr la direccin del esclavo en el bus I2C 
.................... byte posicion=0;        //Contendr la posicin en el buffer de memoria del esclavo donde se almacenar o de donde se recuperar el dato 
.................... //byte ByteConfig1=0,ByteConfig2=0,ByteConfig3=0; 
....................  
.................... /* Tabla de Modulos, Primera Fila Ao Regular y el siguiente ao Bisiesto 
.................... E   F   M   A   M   J   J   A   S   O   N   D 
.................... 0   3   3   6   1   4   6   2   5   0   3   5 
.................... 0   3   4   0   2   5   0   3   6   1   4   6 
.................... */ 
.................... int8 Regular[12]={0,3,3,6,1,4,6,2,5,0,3,5}; 
.................... int8 Bisiesto[12]={0,3,4,0,2,5,0,3,6,1,4,6}; 
....................  
.................... //Alarmas//--------------------- 
.................... short AlarmaTiempoProlongado=OFF,AlarmaSobreTemperatura=OFF,AlarmaTermostato=OFF,AlarmaPuerta=OFF,AlarmaEmergencia=OFF,AlarmaVacio=OFF; 
.................... short AlarmaBomba=OFF,guardaCiclo=OFF,Cilindro=OFF,AlarmaLlenado=OFF; 
.................... int16 TiempoVacio=600,t_exhaust=0; 
....................  
.................... //Banderas//-------------------- 
.................... short IniciaLlenado=OFF,IniciaCiclo=OFF,Esterilizando=OFF,Secando=OFF,SensadoNivel=OFF,Desfogando=OFF,DesfogueSuave=OFF,CalderinLleno=OFF; 
.................... short EstadoDesfogue=OFF,EstadoSuministro=OFF,EstadoAire=OFF,PruebaEstados=OFF,disp_Guarda=OFF,Ciclo=OFF,EstadoAgua2=OFF; 
.................... short Op=OFF,Op2=OFF,Minutos=OFF,Segundos=OFF,GuardaEEPROM=OFF,EstadoPaso=OFF,EstadoVacio=OFF,EstadoBuzzer=OFF,flagAlarma=OFF; 
.................... short flagBuzzer=OFF,flagSilencio=OFF,Finalizo=OFF,AlarmaPresion=OFF,EstadoACierre=OFF,EstadoBomba=OFF,Libre=OFF,ingreso=OFF,Fugas=OFF; 
.................... short PreCalentamiento=OFF,IniciaVacio=OFF,IniciaVacio2=OFF,Vacio=OFF,flag_vac=OFF,flag_vacio=OFF,flag_pulso=OFF,EstadoAireBomba=OFF; 
....................  
.................... //Tiempos//--------------------- 
.................... int16 TiempoCiclo=0,TiempoSensadoNivel=0,Tp=0,Tc=0,tguarda=0; 
.................... signed int  Testerilizacion[4]={0,0,0,0};   // Tiempo transcurrido 
.................... signed int  Testerilizacionp[4]={0,0,0,0};   // Tiempo transcurrido 
.................... signed int  Tsecado[4]={0,0,0,0};   // Tiempo transcurrido 
.................... signed int  Tsecadop[4]={0,0,0,0};   // Tiempo transcurrido 
....................  
.................... //Control//------------------------ 
.................... float PromPresion[20]={0.0,0.0,0.0,0.0,0.0,0.0,0.0,0.0,0.0,0.0,0.0,0.0,0.0,0.0,0.0,0.0,0.0,0.0,0.0,0.0}; 
.................... float PromPresionp[20]={0.0,0.0,0.0,0.0,0.0,0.0,0.0,0.0,0.0,0.0,0.0,0.0,0.0,0.0,0.0,0.0,0.0,0.0,0.0,0.0}; 
.................... float Temporal=0.0; 
.................... float K=0.006429; 
.................... float R7=3000,R8=3100,R9=3100,R10=6800,AN=0,BN=0; 
.................... float X[2]={0.0,0.0}; 
.................... float promediopresion=0.0,promediopresionp=0.0,Aumento=0.0; 
.................... int8 h=0,l=0,MediaMovil=20,PantallaPrincipal=0,TipoClave=0,Modulo=0,TTrampa=0; 
.................... float V0=0.0,Pt,Tciclo=10.0,Tpulso=0.0,error=0.0,Prom=0.0,Temperature=0.0,tmp=0.0,Ganancia=25.0,Ganancia2=20.0,desvio=1.0; 
.................... float V1=0.0,Presion=0.0,V2=0.0,Presionp=0.0; 
.................... float Temperatura=0.0,Temperatura2=0.0; 
.................... float a=0.0011,b=2.3302,c=-244.0723; 
.................... int8 Integral=0,Derivativo=0; 
....................  
.................... //Varios//-------------------------------- 
.................... short desfoguelento=0,Lectura=0,Grafica=0; 
.................... short disp_Stop=0,flagTC=0,flagImprime=0; 
.................... int8 Control=0,tiemporecta=0,Controlando=0,timpresion=2,CalculoImpresion=0,Inicio=1,Dato_Exitoso=0,Dato2=0; 
.................... int8 Menu=0, MenuAnt=0,MenuAntt=240,i=0,CiclosL=0,CiclosH=0,CicloSeleccionado=0,Tapertura=0; 
.................... int16 CantidadPulsos=4; 
.................... int8 Setpoint=0,Opcion=1,Opcion2=1,tiempo_esterilizacion=0,tiempo_secado=0,tiempoImpresion=0; 
.................... int16 tiempos=0,tiempos2=0,tiempos3=0,tiempoctrl=0,Nivel=0,tinicio=0,PresionCamara=0,PresionPreCamara=0,Ciclos=0,tbomba=0,tvacio=0; 
.................... signed int  Password[4]={0,0,0,0};        // Contrasena Almacenada de 4 digitos 
.................... int8 r=0,t=0,r22=0,t2=0,TiempoControl=0,NivelDes=0; 
.................... int8 y=0,ConteoBuzzer=0,posicionDato=0,codigoAlarma=0,codigoAnt=0,codigoUsuario2=0; 
.................... int16 tbuzzer=0,tsilencio=0,NivelSeleccionado=0,TiempoLlenado=0; 
.................... int8 Year=18,Mes=9,Dia=13,Hora=0,Minuto=0,Segundo=0,dow=0,cicloVisualizado=0,cicloVisto=0,NivelVacio=25,Atmosferica=75,PulsoPositivo=10,PulsosVacio=0; 
.................... int8 YearTx=0,MesTx=0,DiaTx=0,HoraTx=0,MinutoTx=0,SegundoTx=0,dowTx=0,SetTime=0,Imprime=0,CicloLibre=0,Pulsos=0,j=0,codigoUsuario=0,codigoUsuarioant=0; 
.................... signed int8 G1=0,G2=0,sg1=0,sg2=0; 
.................... const char Texto[12][20]={"CALENTAMIENTO","NO ENVUELTOS 134","NO ENVUELTOS 121","ENVUELTOS 134","ENVUELTOS 121","ENVUELTO DOBLE 1", 
.................... "ENVUELTO DOBLE 2","PRION","BOWIE & DICK","TEST DE FUGAS","TEST DE COMPONENTES","HORA Y FECHA"}; 
.................... char usuario[20]; 
.................... float TCiclos[7]; 
.................... int16 PcCiclos[7]; 
.................... int16 PpcCiclos[7]; 
.................... int8 horaCiclos[7]; 
.................... int8 minutoCiclos[7]; 
.................... int8 ACiclos[7]; 
.................... int8 diaCiclos=0,mesCiclos=0,yearCiclos=0,usuarioCiclos=0,cicloCiclos=0; 
.................... short estados[30]={0,0,0,0,0,0,0,0,0,0,0,0,0,0,0,0,0,0,0,0,0,0,0,0,0,0,0,0,0,0}; 
....................  
.................... typedef struct{ 
....................    int8 Password[4]; 
.................... }Claves; 
....................  
.................... typedef struct{ 
....................    int8 Temperatura; 
....................    int8 Minutoest; 
....................    int8 Segundoest; 
....................    int8 Minutosec; 
....................    int8 Segundosec; 
....................    int8 PulsosVacio; 
....................    int8 NivelVacio; 
....................    int8 NivelDesfogue; 
.................... }Personalizado; 
....................  
.................... typedef struct{ 
....................    float BN; 
....................    float AN; 
....................    float V0; 
....................    float Pt; 
....................    float RPT100; 
....................    int8 l; 
....................    int8 h; 
....................    float Prom; 
....................    float Temperature; 
....................    int8 Ajuste; 
....................    int8 Ajusten; 
....................    float promedio[80]; 
....................    float Gain; 
.................... }SensorPT100; 
....................  
.................... SensorPT100 Sensor[2]; 
.................... Personalizado CiclosPersonalizados[20]; 
.................... Claves Clave[10]; 
....................  
.................... #include "Funciones.h" 
....................  
.................... void BorraBuffer(void){ 
.................... RX_Buffer[0]=0; 
*
04B4C:  CLRF   30
.................... RX_Buffer[1]=0; 
04B4E:  CLRF   31
.................... RX_Buffer[2]=0; 
04B50:  CLRF   32
.................... RX_Buffer[3]=0; 
04B52:  CLRF   33
.................... RX_Buffer[4]=0; 
04B54:  CLRF   34
.................... RX_Buffer[5]=0; 
04B56:  CLRF   35
.................... RX_Buffer[6]=0; 
04B58:  CLRF   36
.................... RX_Buffer[7]=0; 
04B5A:  CLRF   37
.................... RX_Buffer[8]=0; 
04B5C:  CLRF   38
.................... RX_Buffer[9]=0; 
04B5E:  CLRF   39
....................  
.................... RX_Buffer2[0]=0; 
04B60:  CLRF   3B
.................... RX_Buffer2[1]=0; 
04B62:  CLRF   3C
.................... RX_Buffer2[2]=0; 
04B64:  CLRF   3D
.................... RX_Buffer2[3]=0; 
04B66:  CLRF   3E
.................... RX_Buffer2[4]=0; 
04B68:  CLRF   3F
.................... RX_Buffer2[5]=0; 
04B6A:  CLRF   40
.................... RX_Buffer2[6]=0; 
04B6C:  CLRF   41
.................... RX_Buffer2[7]=0; 
04B6E:  CLRF   42
.................... RX_Buffer2[8]=0; 
04B70:  CLRF   43
.................... RX_Buffer2[9]=0; 
04B72:  CLRF   44
.................... } 
04B74:  GOTO   7100 (RETURN)
....................  
.................... void SendDataDisplay(void){ 
.................... delay_us(10); 
*
03B6A:  MOVLW  10
03B6C:  MOVWF  00
03B6E:  DECFSZ 00,F
03B70:  BRA    3B6E
03B72:  NOP   
.................... putc(0xFF); 
03B74:  MOVLW  FF
03B76:  RCALL  3B62
.................... delay_us(10); 
03B78:  MOVLW  10
03B7A:  MOVWF  00
03B7C:  DECFSZ 00,F
03B7E:  BRA    3B7C
03B80:  NOP   
.................... putc(0xFF); 
03B82:  MOVLW  FF
03B84:  RCALL  3B62
.................... delay_us(10); 
03B86:  MOVLW  10
03B88:  MOVWF  00
03B8A:  DECFSZ 00,F
03B8C:  BRA    3B8A
03B8E:  NOP   
.................... putc(0xFF); 
03B90:  MOVLW  FF
03B92:  RCALL  3B62
.................... delay_us(10); 
03B94:  MOVLW  10
03B96:  MOVWF  00
03B98:  DECFSZ 00,F
03B9A:  BRA    3B98
03B9C:  NOP   
.................... } 
03B9E:  RETLW  00
....................  
.................... short esBisiesto(int8 year) { 
....................      return ((year % 4 == 0 && year % 100 != 0) || year % 400 == 0); 
*
0503C:  MOVLB  6
0503E:  MOVF   x34,W
05040:  ANDLW  03
05042:  BNZ   5056
05044:  MOVFF  634,63D
05048:  MOVLW  64
0504A:  MOVWF  x3E
0504C:  MOVLB  0
0504E:  RCALL  4BD0
05050:  MOVF   00,F
05052:  BNZ   5084
05054:  MOVLB  6
05056:  CLRF   x39
05058:  MOVFF  634,638
0505C:  MOVLW  01
0505E:  MOVWF  x3B
05060:  MOVLW  90
05062:  MOVWF  x3A
05064:  MOVLB  0
05066:  RCALL  4FF6
05068:  MOVFF  00,635
0506C:  MOVLB  6
0506E:  MOVFF  03,636
05072:  MOVF   x35,F
05074:  BNZ   5080
05076:  MOVF   x36,F
05078:  BTFSS  FD8.2
0507A:  BRA    5080
0507C:  MOVLB  0
0507E:  BRA    5084
05080:  MOVLW  00
05082:  BRA    5088
05084:  MOVLW  01
05086:  MOVLB  6
05088:  MOVWF  01
.................... } 
0508A:  MOVLB  0
0508C:  RETLW  00
....................  
.................... void LimitaDia(){ 
....................    if(MesTx>12) 
*
0517A:  MOVLB  2
0517C:  MOVF   x29,W
0517E:  SUBLW  0C
05180:  BC    5186
....................       MesTx=10; 
05182:  MOVLW  0A
05184:  MOVWF  x29
....................    if(DiaTx>31) 
05186:  MOVF   x2A,W
05188:  SUBLW  1F
0518A:  BC    5190
....................       DiaTx=16; 
0518C:  MOVLW  10
0518E:  MOVWF  x2A
....................    if(YearTx>99) 
05190:  MOVF   x28,W
05192:  SUBLW  63
05194:  BC    519A
....................       YearTx=18;    
05196:  MOVLW  12
05198:  MOVWF  x28
....................    if(HoraTx>24) 
0519A:  MOVF   x2B,W
0519C:  SUBLW  18
0519E:  BC    51A4
....................       HoraTx=11;       
051A0:  MOVLW  0B
051A2:  MOVWF  x2B
....................    if(MinutoTx>59) 
051A4:  MOVF   x2C,W
051A6:  SUBLW  3B
051A8:  BC    51AE
....................       MinutoTx=30;       
051AA:  MOVLW  1E
051AC:  MOVWF  x2C
....................     
....................       if(MesTx==2){ 
051AE:  MOVF   x29,W
051B0:  SUBLW  02
051B2:  BNZ   51DE
....................          if(esBisiesto(YearTx)){ 
051B4:  MOVFF  228,634
051B8:  MOVLB  0
051BA:  RCALL  503C
051BC:  MOVF   01,F
051BE:  BZ    51D0
....................             if(DiaTx>29){ 
051C0:  MOVLB  2
051C2:  MOVF   x2A,W
051C4:  SUBLW  1D
051C6:  BC    51CC
....................                DiaTx=29; 
051C8:  MOVLW  1D
051CA:  MOVWF  x2A
....................                //glcd_fillScreen(OFF); 
....................             } 
....................          }else{ 
051CC:  BRA    51DC
051CE:  MOVLB  0
....................             if(DiaTx>28){ 
051D0:  MOVLB  2
051D2:  MOVF   x2A,W
051D4:  SUBLW  1C
051D6:  BC    51DC
....................                DiaTx=28; 
051D8:  MOVLW  1C
051DA:  MOVWF  x2A
....................                //glcd_fillScreen(OFF); 
....................             } 
....................          } 
....................       }else{ 
051DC:  BRA    5208
....................          if(MesTx<=7){ 
051DE:  MOVF   x29,W
051E0:  SUBLW  07
051E2:  BNC   51F6
....................             if(MesTx % 2 ==0){ 
051E4:  MOVF   x29,W
051E6:  ANDLW  01
051E8:  BNZ   51F4
....................                if(DiaTx>30){ 
051EA:  MOVF   x2A,W
051EC:  SUBLW  1E
051EE:  BC    51F4
....................                   DiaTx=30;  
051F0:  MOVLW  1E
051F2:  MOVWF  x2A
....................                   //glcd_fillScreen(OFF); 
....................                } 
....................             } 
....................          }else{ 
051F4:  BRA    5208
....................             if(MesTx % 2 ==1){ 
051F6:  MOVF   x29,W
051F8:  ANDLW  01
051FA:  SUBLW  01
051FC:  BNZ   5208
....................                if(DiaTx>30){ 
051FE:  MOVF   x2A,W
05200:  SUBLW  1E
05202:  BC    5208
....................                   DiaTx=30;  
05204:  MOVLW  1E
05206:  MOVWF  x2A
....................                   //glcd_fillScreen(OFF); 
....................                } 
....................             } 
....................          } 
....................       } 
.................... } 
05208:  MOVLB  0
0520A:  GOTO   98DC (RETURN)
....................  
.................... void ActualizaRecta(){ 
....................    X[y]=Temperature; 
*
062D8:  MOVLB  2
062DA:  MOVF   x0D,W
062DC:  MULLW  04
062DE:  MOVF   FF3,W
062E0:  CLRF   03
062E2:  ADDLW  67
062E4:  MOVWF  FE9
062E6:  MOVLW  01
062E8:  ADDWFC 03,W
062EA:  MOVWF  FEA
062EC:  MOVFF  19A,FEF
062F0:  MOVFF  19B,FEC
062F4:  MOVFF  19C,FEC
062F8:  MOVFF  19D,FEC
....................    y++; 
062FC:  INCF   x0D,F
....................    if(y>=2) 
062FE:  MOVF   x0D,W
06300:  SUBLW  01
06302:  BC    6340
....................    { 
....................       y=0; 
06304:  CLRF   x0D
....................       Aumento=X[1]-X[0]; 
06306:  BSF    FD8.1
06308:  MOVFF  16E,649
0630C:  MOVFF  16D,648
06310:  MOVFF  16C,647
06314:  MOVFF  16B,646
06318:  MOVFF  16A,64D
0631C:  MOVFF  169,64C
06320:  MOVFF  168,64B
06324:  MOVFF  167,64A
06328:  MOVLB  0
0632A:  CALL   1E8C
0632E:  MOVFF  03,17A
06332:  MOVFF  02,179
06336:  MOVFF  01,178
0633A:  MOVFF  00,177
0633E:  MOVLB  2
....................    } 
.................... } 
06340:  MOVLB  0
06342:  GOTO   63BE (RETURN)
....................  
.................... // Funcion para conversor analogo-digital 
.................... float sensores(int x){ 
.................... float y;set_adc_channel(x);delay_ms(1);y=read_adc();return (y); 
*
03CB2:  MOVLB  6
03CB4:  RLCF   x38,W
03CB6:  MOVWF  00
03CB8:  RLCF   00,F
03CBA:  MOVLW  FC
03CBC:  ANDWF  00,F
03CBE:  MOVFF  00,01
03CC2:  MOVF   FC2,W
03CC4:  ANDLW  C3
03CC6:  IORWF  00,W
03CC8:  MOVWF  FC2
03CCA:  MOVLW  01
03CCC:  MOVWF  x3D
03CCE:  MOVLB  0
03CD0:  CALL   1D06
03CD4:  BSF    FC2.1
03CD6:  BTFSC  FC2.1
03CD8:  BRA    3CD6
03CDA:  MOVFF  FC4,647
03CDE:  MOVFF  FC3,646
03CE2:  MOVLB  0
03CE4:  CALL   1CD0
03CE8:  MOVFF  03,63C
03CEC:  MOVFF  02,63B
03CF0:  MOVFF  01,63A
03CF4:  MOVFF  00,639
03CF8:  MOVFF  639,00
03CFC:  MOVFF  63A,01
03D00:  MOVFF  63B,02
03D04:  MOVFF  63C,03
.................... } 
03D08:  RETLW  00
....................  
.................... float LeerPT100(int8 canal,int media) 
.................... { 
....................    Prom=0.0; 
03D0A:  MOVLB  1
03D0C:  CLRF   x99
03D0E:  CLRF   x98
03D10:  CLRF   x97
03D12:  CLRF   x96
....................    Sensor[canal].V0 = sensores(canal);   //Lectura de Divisor de Voltaje de PT100 con resistencia de 6.18k (+-2%) 
03D14:  MOVLB  6
03D16:  CLRF   x3D
03D18:  MOVFF  634,63C
03D1C:  MOVLW  01
03D1E:  MOVWF  x3F
03D20:  MOVLW  64
03D22:  MOVWF  x3E
03D24:  MOVLB  0
03D26:  CALL   2178
03D2A:  MOVFF  01,636
03D2E:  MOVLW  08
03D30:  MOVLB  6
03D32:  ADDWF  01,W
03D34:  MOVWF  01
03D36:  MOVLW  00
03D38:  ADDWFC 02,W
03D3A:  MOVWF  03
03D3C:  MOVF   01,W
03D3E:  ADDLW  A4
03D40:  MOVWF  01
03D42:  MOVLW  02
03D44:  ADDWFC 03,F
03D46:  MOVFF  01,636
03D4A:  MOVFF  03,637
03D4E:  MOVFF  634,638
03D52:  MOVLB  0
03D54:  RCALL  3CB2
03D56:  MOVFF  637,FEA
03D5A:  MOVFF  636,FE9
03D5E:  MOVFF  00,FEF
03D62:  MOVFF  01,FEC
03D66:  MOVFF  02,FEC
03D6A:  MOVFF  03,FEC
....................    Sensor[canal].V0 = Sensor[canal].V0/Sensor[canal].Gain; // Se elimina la ganancia 
03D6E:  MOVLB  6
03D70:  CLRF   x3D
03D72:  MOVFF  634,63C
03D76:  MOVLW  01
03D78:  MOVWF  x3F
03D7A:  MOVLW  64
03D7C:  MOVWF  x3E
03D7E:  MOVLB  0
03D80:  CALL   2178
03D84:  MOVFF  01,636
03D88:  MOVLW  08
03D8A:  MOVLB  6
03D8C:  ADDWF  01,W
03D8E:  MOVWF  01
03D90:  MOVLW  00
03D92:  ADDWFC 02,W
03D94:  MOVWF  03
03D96:  MOVF   01,W
03D98:  ADDLW  A4
03D9A:  MOVWF  01
03D9C:  MOVLW  02
03D9E:  ADDWFC 03,F
03DA0:  MOVFF  01,636
03DA4:  MOVFF  03,637
03DA8:  CLRF   x3D
03DAA:  MOVFF  634,63C
03DAE:  MOVLW  01
03DB0:  MOVWF  x3F
03DB2:  MOVLW  64
03DB4:  MOVWF  x3E
03DB6:  MOVLB  0
03DB8:  CALL   2178
03DBC:  MOVFF  01,638
03DC0:  MOVLW  08
03DC2:  MOVLB  6
03DC4:  ADDWF  01,W
03DC6:  MOVWF  01
03DC8:  MOVLW  00
03DCA:  ADDWFC 02,W
03DCC:  MOVWF  03
03DCE:  MOVF   01,W
03DD0:  ADDLW  A4
03DD2:  MOVWF  FE9
03DD4:  MOVLW  02
03DD6:  ADDWFC 03,W
03DD8:  MOVWF  FEA
03DDA:  MOVFF  FEF,638
03DDE:  MOVFF  FEC,639
03DE2:  MOVFF  FEC,63A
03DE6:  MOVFF  FEC,63B
03DEA:  CLRF   x3D
03DEC:  MOVFF  634,63C
03DF0:  MOVLW  01
03DF2:  MOVWF  x3F
03DF4:  MOVLW  64
03DF6:  MOVWF  x3E
03DF8:  MOVLB  0
03DFA:  CALL   2178
03DFE:  MOVFF  02,63D
03E02:  MOVFF  01,63C
03E06:  MOVLW  60
03E08:  MOVLB  6
03E0A:  ADDWF  01,W
03E0C:  MOVWF  01
03E0E:  MOVLW  01
03E10:  ADDWFC 02,W
03E12:  MOVWF  03
03E14:  MOVF   01,W
03E16:  ADDLW  A4
03E18:  MOVWF  FE9
03E1A:  MOVLW  02
03E1C:  ADDWFC 03,W
03E1E:  MOVWF  FEA
03E20:  MOVFF  FEF,00
03E24:  MOVFF  FEC,01
03E28:  MOVFF  FEC,02
03E2C:  MOVFF  FEC,03
03E30:  MOVFF  63B,641
03E34:  MOVFF  63A,640
03E38:  MOVFF  639,63F
03E3C:  MOVFF  638,63E
03E40:  MOVFF  03,645
03E44:  MOVFF  02,644
03E48:  MOVFF  01,643
03E4C:  MOVFF  00,642
03E50:  MOVLB  0
03E52:  CALL   1D2E
03E56:  MOVFF  637,FEA
03E5A:  MOVFF  636,FE9
03E5E:  MOVFF  00,FEF
03E62:  MOVFF  01,FEC
03E66:  MOVFF  02,FEC
03E6A:  MOVFF  03,FEC
....................    Sensor[canal].V0 += 14.82; 
03E6E:  MOVLB  6
03E70:  CLRF   x3D
03E72:  MOVFF  634,63C
03E76:  MOVLW  01
03E78:  MOVWF  x3F
03E7A:  MOVLW  64
03E7C:  MOVWF  x3E
03E7E:  MOVLB  0
03E80:  CALL   2178
03E84:  MOVFF  02,637
03E88:  MOVFF  01,636
03E8C:  MOVLW  08
03E8E:  MOVLB  6
03E90:  ADDWF  01,W
03E92:  MOVWF  01
03E94:  MOVLW  00
03E96:  ADDWFC 02,W
03E98:  MOVWF  03
03E9A:  MOVF   01,W
03E9C:  ADDLW  A4
03E9E:  MOVWF  FE9
03EA0:  MOVLW  02
03EA2:  ADDWFC 03,W
03EA4:  MOVWF  FEA
03EA6:  MOVFF  FEA,63D
03EAA:  MOVFF  FE9,63C
03EAE:  BCF    FD8.1
03EB0:  MOVFF  FEF,646
03EB4:  MOVFF  FEC,647
03EB8:  MOVFF  FEC,648
03EBC:  MOVFF  FEC,649
03EC0:  MOVLW  B8
03EC2:  MOVWF  x4D
03EC4:  MOVLW  1E
03EC6:  MOVWF  x4C
03EC8:  MOVLW  6D
03ECA:  MOVWF  x4B
03ECC:  MOVLW  82
03ECE:  MOVWF  x4A
03ED0:  MOVLB  0
03ED2:  CALL   1E8C
03ED6:  MOVFF  63D,FEA
03EDA:  MOVFF  63C,FE9
03EDE:  MOVFF  00,FEF
03EE2:  MOVFF  01,FEC
03EE6:  MOVFF  02,FEC
03EEA:  MOVFF  03,FEC
....................    //Sensor[canal].BN=(Sensor[canal].V0*(R8+R9))+(1023*R9); 
....................    //Sensor[canal].Pt=(R10/((AN/Sensor[canal].BN)-1))-R7; 
....................    //Sensor[canal].Pt=Sensor[canal].Pt-Sensor[canal].RPT100; //Ajuste de impedancia de cableado de PT100    
....................    Sensor[canal].Pt=R10/((1023/Sensor[canal].V0)-1); 
03EEE:  MOVLB  6
03EF0:  CLRF   x3D
03EF2:  MOVFF  634,63C
03EF6:  MOVLW  01
03EF8:  MOVWF  x3F
03EFA:  MOVLW  64
03EFC:  MOVWF  x3E
03EFE:  MOVLB  0
03F00:  CALL   2178
03F04:  MOVFF  01,636
03F08:  MOVLW  0C
03F0A:  MOVLB  6
03F0C:  ADDWF  01,W
03F0E:  MOVWF  01
03F10:  MOVLW  00
03F12:  ADDWFC 02,W
03F14:  MOVWF  03
03F16:  MOVF   01,W
03F18:  ADDLW  A4
03F1A:  MOVWF  01
03F1C:  MOVLW  02
03F1E:  ADDWFC 03,F
03F20:  MOVFF  01,636
03F24:  MOVFF  03,637
03F28:  CLRF   x3D
03F2A:  MOVFF  634,63C
03F2E:  MOVLW  01
03F30:  MOVWF  x3F
03F32:  MOVLW  64
03F34:  MOVWF  x3E
03F36:  MOVLB  0
03F38:  CALL   2178
03F3C:  MOVFF  02,639
03F40:  MOVFF  01,638
03F44:  MOVLW  08
03F46:  MOVLB  6
03F48:  ADDWF  01,W
03F4A:  MOVWF  01
03F4C:  MOVLW  00
03F4E:  ADDWFC 02,W
03F50:  MOVWF  03
03F52:  MOVF   01,W
03F54:  ADDLW  A4
03F56:  MOVWF  FE9
03F58:  MOVLW  02
03F5A:  ADDWFC 03,W
03F5C:  MOVWF  FEA
03F5E:  MOVFF  FEF,00
03F62:  MOVFF  FEC,01
03F66:  MOVFF  FEC,02
03F6A:  MOVFF  FEC,03
03F6E:  CLRF   x41
03F70:  MOVLW  C0
03F72:  MOVWF  x40
03F74:  MOVLW  7F
03F76:  MOVWF  x3F
03F78:  MOVLW  88
03F7A:  MOVWF  x3E
03F7C:  MOVFF  03,645
03F80:  MOVFF  02,644
03F84:  MOVFF  01,643
03F88:  MOVFF  00,642
03F8C:  MOVLB  0
03F8E:  CALL   1D2E
03F92:  MOVFF  00,638
03F96:  MOVFF  01,639
03F9A:  MOVFF  02,63A
03F9E:  MOVFF  03,63B
03FA2:  MOVFF  FEA,63D
03FA6:  MOVFF  FE9,63C
03FAA:  BSF    FD8.1
03FAC:  MOVFF  03,649
03FB0:  MOVFF  02,648
03FB4:  MOVFF  01,647
03FB8:  MOVFF  00,646
03FBC:  MOVLB  6
03FBE:  CLRF   x4D
03FC0:  CLRF   x4C
03FC2:  CLRF   x4B
03FC4:  MOVLW  7F
03FC6:  MOVWF  x4A
03FC8:  MOVLB  0
03FCA:  CALL   1E8C
03FCE:  MOVFF  63D,FEA
03FD2:  MOVFF  63C,FE9
03FD6:  MOVFF  15E,641
03FDA:  MOVFF  15D,640
03FDE:  MOVFF  15C,63F
03FE2:  MOVFF  15B,63E
03FE6:  MOVFF  03,645
03FEA:  MOVFF  02,644
03FEE:  MOVFF  01,643
03FF2:  MOVFF  00,642
03FF6:  CALL   1D2E
03FFA:  MOVFF  637,FEA
03FFE:  MOVFF  636,FE9
04002:  MOVFF  00,FEF
04006:  MOVFF  01,FEC
0400A:  MOVFF  02,FEC
0400E:  MOVFF  03,FEC
....................              
....................    if(Sensor[canal].l>(media-1)) 
04012:  MOVLB  6
04014:  CLRF   x3D
04016:  MOVFF  634,63C
0401A:  MOVLW  01
0401C:  MOVWF  x3F
0401E:  MOVLW  64
04020:  MOVWF  x3E
04022:  MOVLB  0
04024:  CALL   2178
04028:  MOVFF  02,637
0402C:  MOVFF  01,636
04030:  MOVLW  14
04032:  MOVLB  6
04034:  ADDWF  01,W
04036:  MOVWF  01
04038:  MOVLW  00
0403A:  ADDWFC 02,W
0403C:  MOVWF  03
0403E:  MOVF   01,W
04040:  ADDLW  A4
04042:  MOVWF  FE9
04044:  MOVLW  02
04046:  ADDWFC 03,W
04048:  MOVWF  FEA
0404A:  MOVFF  FEF,636
0404E:  MOVLW  01
04050:  SUBWF  x35,W
04052:  SUBWF  x36,W
04054:  BZ    408C
04056:  BNC   408C
....................    {Sensor[canal].l=0;} 
04058:  CLRF   x3D
0405A:  MOVFF  634,63C
0405E:  MOVLW  01
04060:  MOVWF  x3F
04062:  MOVLW  64
04064:  MOVWF  x3E
04066:  MOVLB  0
04068:  CALL   2178
0406C:  MOVFF  01,636
04070:  MOVLW  14
04072:  MOVLB  6
04074:  ADDWF  01,W
04076:  MOVWF  01
04078:  MOVLW  00
0407A:  ADDWFC 02,W
0407C:  MOVWF  03
0407E:  MOVF   01,W
04080:  ADDLW  A4
04082:  MOVWF  FE9
04084:  MOVLW  02
04086:  ADDWFC 03,W
04088:  MOVWF  FEA
0408A:  CLRF   FEF
....................     
....................    Sensor[canal].promedio[Sensor[canal].l]=Sensor[canal].Pt;Sensor[canal].l++; 
0408C:  CLRF   x3D
0408E:  MOVFF  634,63C
04092:  MOVLW  01
04094:  MOVWF  x3F
04096:  MOVLW  64
04098:  MOVWF  x3E
0409A:  MOVLB  0
0409C:  CALL   2178
040A0:  MOVFF  02,637
040A4:  MOVFF  01,636
040A8:  MOVLW  20
040AA:  MOVLB  6
040AC:  ADDWF  x36,F
040AE:  MOVLW  00
040B0:  ADDWFC x37,F
040B2:  CLRF   x3D
040B4:  MOVFF  634,63C
040B8:  MOVLW  01
040BA:  MOVWF  x3F
040BC:  MOVLW  64
040BE:  MOVWF  x3E
040C0:  MOVLB  0
040C2:  CALL   2178
040C6:  MOVFF  02,639
040CA:  MOVFF  01,638
040CE:  MOVLW  14
040D0:  MOVLB  6
040D2:  ADDWF  01,W
040D4:  MOVWF  01
040D6:  MOVLW  00
040D8:  ADDWFC 02,W
040DA:  MOVWF  03
040DC:  MOVF   01,W
040DE:  ADDLW  A4
040E0:  MOVWF  FE9
040E2:  MOVLW  02
040E4:  ADDWFC 03,W
040E6:  MOVWF  FEA
040E8:  CLRF   x3D
040EA:  MOVFF  FEF,63C
040EE:  CLRF   x3F
040F0:  MOVLW  04
040F2:  MOVWF  x3E
040F4:  MOVLB  0
040F6:  CALL   2178
040FA:  MOVFF  02,03
040FE:  MOVF   01,W
04100:  MOVLB  6
04102:  ADDWF  x36,W
04104:  MOVWF  01
04106:  MOVF   x37,W
04108:  ADDWFC 03,F
0410A:  MOVF   01,W
0410C:  ADDLW  A4
0410E:  MOVWF  01
04110:  MOVLW  02
04112:  ADDWFC 03,F
04114:  MOVFF  01,636
04118:  MOVFF  03,637
0411C:  CLRF   x3D
0411E:  MOVFF  634,63C
04122:  MOVLW  01
04124:  MOVWF  x3F
04126:  MOVLW  64
04128:  MOVWF  x3E
0412A:  MOVLB  0
0412C:  CALL   2178
04130:  MOVFF  02,639
04134:  MOVFF  01,638
04138:  MOVLW  0C
0413A:  MOVLB  6
0413C:  ADDWF  01,W
0413E:  MOVWF  01
04140:  MOVLW  00
04142:  ADDWFC 02,W
04144:  MOVWF  03
04146:  MOVF   01,W
04148:  ADDLW  A4
0414A:  MOVWF  FE9
0414C:  MOVLW  02
0414E:  ADDWFC 03,W
04150:  MOVWF  FEA
04152:  MOVFF  FEF,00
04156:  MOVFF  FEC,01
0415A:  MOVFF  FEC,02
0415E:  MOVFF  FEC,03
04162:  MOVFF  637,FEA
04166:  MOVFF  636,FE9
0416A:  MOVFF  00,FEF
0416E:  MOVFF  01,FEC
04172:  MOVFF  02,FEC
04176:  MOVFF  03,FEC
0417A:  CLRF   x3D
0417C:  MOVFF  634,63C
04180:  MOVLW  01
04182:  MOVWF  x3F
04184:  MOVLW  64
04186:  MOVWF  x3E
04188:  MOVLB  0
0418A:  CALL   2178
0418E:  MOVFF  01,636
04192:  MOVLW  14
04194:  MOVLB  6
04196:  ADDWF  01,W
04198:  MOVWF  01
0419A:  MOVLW  00
0419C:  ADDWFC 02,W
0419E:  MOVWF  03
041A0:  MOVF   01,W
041A2:  ADDLW  A4
041A4:  MOVWF  FE9
041A6:  MOVLW  02
041A8:  ADDWFC 03,W
041AA:  MOVWF  FEA
041AC:  INCF   FEF,F
....................           
....................    for(Sensor[canal].h=0;Sensor[canal].h<media;Sensor[canal].h++) 
041AE:  CLRF   x3D
041B0:  MOVFF  634,63C
041B4:  MOVLW  01
041B6:  MOVWF  x3F
041B8:  MOVLW  64
041BA:  MOVWF  x3E
041BC:  MOVLB  0
041BE:  CALL   2178
041C2:  MOVFF  02,637
041C6:  MOVFF  01,636
041CA:  MOVLW  15
041CC:  MOVLB  6
041CE:  ADDWF  01,W
041D0:  MOVWF  01
041D2:  MOVLW  00
041D4:  ADDWFC 02,W
041D6:  MOVWF  03
041D8:  MOVF   01,W
041DA:  ADDLW  A4
041DC:  MOVWF  FE9
041DE:  MOVLW  02
041E0:  ADDWFC 03,W
041E2:  MOVWF  FEA
041E4:  CLRF   FEF
041E6:  CLRF   x3D
041E8:  MOVFF  634,63C
041EC:  MOVLW  01
041EE:  MOVWF  x3F
041F0:  MOVLW  64
041F2:  MOVWF  x3E
041F4:  MOVLB  0
041F6:  CALL   2178
041FA:  MOVFF  02,637
041FE:  MOVFF  01,636
04202:  MOVLW  15
04204:  MOVLB  6
04206:  ADDWF  01,W
04208:  MOVWF  01
0420A:  MOVLW  00
0420C:  ADDWFC 02,W
0420E:  MOVWF  03
04210:  MOVF   01,W
04212:  ADDLW  A4
04214:  MOVWF  FE9
04216:  MOVLW  02
04218:  ADDWFC 03,W
0421A:  MOVWF  FEA
0421C:  MOVF   x35,W
0421E:  SUBWF  FEF,W
04220:  BTFSC  FD8.0
04222:  BRA    4342
....................    { 
....................       Prom+=Sensor[canal].promedio[Sensor[canal].h]; 
04224:  CLRF   x3D
04226:  MOVFF  634,63C
0422A:  MOVLW  01
0422C:  MOVWF  x3F
0422E:  MOVLW  64
04230:  MOVWF  x3E
04232:  MOVLB  0
04234:  CALL   2178
04238:  MOVFF  02,637
0423C:  MOVFF  01,636
04240:  MOVLW  20
04242:  MOVLB  6
04244:  ADDWF  x36,F
04246:  MOVLW  00
04248:  ADDWFC x37,F
0424A:  CLRF   x3D
0424C:  MOVFF  634,63C
04250:  MOVLW  01
04252:  MOVWF  x3F
04254:  MOVLW  64
04256:  MOVWF  x3E
04258:  MOVLB  0
0425A:  CALL   2178
0425E:  MOVFF  02,639
04262:  MOVFF  01,638
04266:  MOVLW  15
04268:  MOVLB  6
0426A:  ADDWF  01,W
0426C:  MOVWF  01
0426E:  MOVLW  00
04270:  ADDWFC 02,W
04272:  MOVWF  03
04274:  MOVF   01,W
04276:  ADDLW  A4
04278:  MOVWF  FE9
0427A:  MOVLW  02
0427C:  ADDWFC 03,W
0427E:  MOVWF  FEA
04280:  CLRF   x3D
04282:  MOVFF  FEF,63C
04286:  CLRF   x3F
04288:  MOVLW  04
0428A:  MOVWF  x3E
0428C:  MOVLB  0
0428E:  CALL   2178
04292:  MOVFF  02,03
04296:  MOVF   01,W
04298:  MOVLB  6
0429A:  ADDWF  x36,W
0429C:  MOVWF  01
0429E:  MOVF   x37,W
042A0:  ADDWFC 03,F
042A2:  MOVF   01,W
042A4:  ADDLW  A4
042A6:  MOVWF  FE9
042A8:  MOVLW  02
042AA:  ADDWFC 03,W
042AC:  MOVWF  FEA
042AE:  MOVFF  FEF,00
042B2:  MOVFF  FEC,01
042B6:  MOVFF  FEC,02
042BA:  MOVFF  FEC,03
042BE:  MOVFF  FEA,637
042C2:  MOVFF  FE9,636
042C6:  BCF    FD8.1
042C8:  MOVFF  199,649
042CC:  MOVFF  198,648
042D0:  MOVFF  197,647
042D4:  MOVFF  196,646
042D8:  MOVFF  03,64D
042DC:  MOVFF  02,64C
042E0:  MOVFF  01,64B
042E4:  MOVFF  00,64A
042E8:  MOVLB  0
042EA:  CALL   1E8C
042EE:  MOVFF  637,FEA
042F2:  MOVFF  636,FE9
042F6:  MOVFF  03,199
042FA:  MOVFF  02,198
042FE:  MOVFF  01,197
04302:  MOVFF  00,196
....................    }  
04306:  MOVLB  6
04308:  CLRF   x3D
0430A:  MOVFF  634,63C
0430E:  MOVLW  01
04310:  MOVWF  x3F
04312:  MOVLW  64
04314:  MOVWF  x3E
04316:  MOVLB  0
04318:  CALL   2178
0431C:  MOVFF  02,637
04320:  MOVFF  01,636
04324:  MOVLW  15
04326:  MOVLB  6
04328:  ADDWF  01,W
0432A:  MOVWF  01
0432C:  MOVLW  00
0432E:  ADDWFC 02,W
04330:  MOVWF  03
04332:  MOVF   01,W
04334:  ADDLW  A4
04336:  MOVWF  FE9
04338:  MOVLW  02
0433A:  ADDWFC 03,W
0433C:  MOVWF  FEA
0433E:  INCF   FEF,F
04340:  BRA    41E6
....................    Prom=Prom/media;    
04342:  CLRF   x47
04344:  MOVFF  635,646
04348:  MOVLB  0
0434A:  CALL   1CD0
0434E:  MOVFF  199,641
04352:  MOVFF  198,640
04356:  MOVFF  197,63F
0435A:  MOVFF  196,63E
0435E:  MOVFF  03,645
04362:  MOVFF  02,644
04366:  MOVFF  01,643
0436A:  MOVFF  00,642
0436E:  CALL   1D2E
04372:  MOVFF  03,199
04376:  MOVFF  02,198
0437A:  MOVFF  01,197
0437E:  MOVFF  00,196
....................    //Temperature=(Prom-100.0)/(0.385);  // Ecuacin determinada por linealizacin en Matlab. Revisar este polinomio.   
....................    Temperature=((Prom*Prom)*a)+(Prom*b)+c;  // Ecuacin determinada por linealizacin en Matlab. Revisar este polinomio. 
04382:  MOVFF  199,64D
04386:  MOVFF  198,64C
0438A:  MOVFF  197,64B
0438E:  MOVFF  196,64A
04392:  MOVFF  199,651
04396:  MOVFF  198,650
0439A:  MOVFF  197,64F
0439E:  MOVFF  196,64E
043A2:  RCALL  3BBC
043A4:  MOVFF  00,636
043A8:  MOVFF  01,637
043AC:  MOVFF  02,638
043B0:  MOVFF  03,639
043B4:  MOVFF  03,64D
043B8:  MOVFF  02,64C
043BC:  MOVFF  01,64B
043C0:  MOVFF  00,64A
043C4:  MOVFF  1C9,651
043C8:  MOVFF  1C8,650
043CC:  MOVFF  1C7,64F
043D0:  MOVFF  1C6,64E
043D4:  CALL   3BBC
043D8:  MOVFF  00,636
043DC:  MOVFF  01,637
043E0:  MOVFF  02,638
043E4:  MOVFF  03,639
043E8:  MOVFF  199,64D
043EC:  MOVFF  198,64C
043F0:  MOVFF  197,64B
043F4:  MOVFF  196,64A
043F8:  MOVFF  1CD,651
043FC:  MOVFF  1CC,650
04400:  MOVFF  1CB,64F
04404:  MOVFF  1CA,64E
04408:  CALL   3BBC
0440C:  BCF    FD8.1
0440E:  MOVFF  639,649
04412:  MOVFF  638,648
04416:  MOVFF  637,647
0441A:  MOVFF  636,646
0441E:  MOVFF  03,64D
04422:  MOVFF  02,64C
04426:  MOVFF  01,64B
0442A:  MOVFF  00,64A
0442E:  CALL   1E8C
04432:  MOVFF  00,636
04436:  MOVFF  01,637
0443A:  MOVFF  02,638
0443E:  MOVFF  03,639
04442:  BCF    FD8.1
04444:  MOVFF  03,649
04448:  MOVFF  02,648
0444C:  MOVFF  01,647
04450:  MOVFF  00,646
04454:  MOVFF  1D1,64D
04458:  MOVFF  1D0,64C
0445C:  MOVFF  1CF,64B
04460:  MOVFF  1CE,64A
04464:  CALL   1E8C
04468:  MOVFF  03,19D
0446C:  MOVFF  02,19C
04470:  MOVFF  01,19B
04474:  MOVFF  00,19A
....................    Temperature+=((float)Sensor[canal].Ajuste-(float)Sensor[canal].Ajusten); 
04478:  MOVLB  6
0447A:  CLRF   x3D
0447C:  MOVFF  634,63C
04480:  MOVLW  01
04482:  MOVWF  x3F
04484:  MOVLW  64
04486:  MOVWF  x3E
04488:  MOVLB  0
0448A:  CALL   2178
0448E:  MOVFF  02,637
04492:  MOVFF  01,636
04496:  MOVLW  1E
04498:  MOVLB  6
0449A:  ADDWF  01,W
0449C:  MOVWF  01
0449E:  MOVLW  00
044A0:  ADDWFC 02,W
044A2:  MOVWF  03
044A4:  MOVF   01,W
044A6:  ADDLW  A4
044A8:  MOVWF  FE9
044AA:  MOVLW  02
044AC:  ADDWFC 03,W
044AE:  MOVWF  FEA
044B0:  MOVF   FEF,W
044B2:  CLRF   x47
044B4:  MOVWF  x46
044B6:  MOVLB  0
044B8:  CALL   1CD0
044BC:  MOVFF  00,636
044C0:  MOVFF  01,637
044C4:  MOVFF  02,638
044C8:  MOVFF  03,639
044CC:  MOVLB  6
044CE:  CLRF   x3D
044D0:  MOVFF  634,63C
044D4:  MOVLW  01
044D6:  MOVWF  x3F
044D8:  MOVLW  64
044DA:  MOVWF  x3E
044DC:  MOVLB  0
044DE:  CALL   2178
044E2:  MOVFF  02,63B
044E6:  MOVFF  01,63A
044EA:  MOVLW  1F
044EC:  MOVLB  6
044EE:  ADDWF  01,W
044F0:  MOVWF  01
044F2:  MOVLW  00
044F4:  ADDWFC 02,W
044F6:  MOVWF  03
044F8:  MOVF   01,W
044FA:  ADDLW  A4
044FC:  MOVWF  FE9
044FE:  MOVLW  02
04500:  ADDWFC 03,W
04502:  MOVWF  FEA
04504:  MOVF   FEF,W
04506:  CLRF   x47
04508:  MOVWF  x46
0450A:  MOVLB  0
0450C:  CALL   1CD0
04510:  MOVFF  FEA,63B
04514:  MOVFF  FE9,63A
04518:  BSF    FD8.1
0451A:  MOVFF  639,649
0451E:  MOVFF  638,648
04522:  MOVFF  637,647
04526:  MOVFF  636,646
0452A:  MOVFF  03,64D
0452E:  MOVFF  02,64C
04532:  MOVFF  01,64B
04536:  MOVFF  00,64A
0453A:  CALL   1E8C
0453E:  MOVFF  63B,FEA
04542:  MOVFF  63A,FE9
04546:  MOVFF  FEA,637
0454A:  MOVFF  FE9,636
0454E:  BCF    FD8.1
04550:  MOVFF  19D,649
04554:  MOVFF  19C,648
04558:  MOVFF  19B,647
0455C:  MOVFF  19A,646
04560:  MOVFF  03,64D
04564:  MOVFF  02,64C
04568:  MOVFF  01,64B
0456C:  MOVFF  00,64A
04570:  CALL   1E8C
04574:  MOVFF  637,FEA
04578:  MOVFF  636,FE9
0457C:  MOVFF  03,19D
04580:  MOVFF  02,19C
04584:  MOVFF  01,19B
04588:  MOVFF  00,19A
....................     
....................    return Temperature; 
0458C:  MOVFF  19A,00
04590:  MOVFF  19B,01
04594:  MOVFF  19C,02
04598:  MOVFF  19D,03
.................... } 
0459C:  RETLW  00
....................  
.................... float Leer_Sensor_Presion_Camara(int media){ 
....................    promediopresion=0.0; 
*
04812:  MOVLB  1
04814:  CLRF   x72
04816:  CLRF   x71
04818:  CLRF   x70
0481A:  CLRF   x6F
....................    V1 = sensores(2);   //Lectura de Divisor de Voltaje de PT100 con resistencia de 1k (+-10%) 
0481C:  MOVLW  02
0481E:  MOVLB  6
04820:  MOVWF  x38
04822:  MOVLB  0
04824:  CALL   3CB2
04828:  MOVFF  03,1B1
0482C:  MOVFF  02,1B0
04830:  MOVFF  01,1AF
04834:  MOVFF  00,1AE
....................    //V1 = V1*(5.0/1024.0); 
....................    //Presion=(V1-0.2)/(K); 
....................    Presion=(((V1+G1)/1023)-0.04)/K; 
04838:  MOVLB  6
0483A:  CLRF   x36
0483C:  MOVFF  236,635
04840:  BTFSC  x35.7
04842:  DECF   x36,F
04844:  MOVLB  0
04846:  BRA    47C0
04848:  BCF    FD8.1
0484A:  MOVFF  1B1,649
0484E:  MOVFF  1B0,648
04852:  MOVFF  1AF,647
04856:  MOVFF  1AE,646
0485A:  MOVFF  03,64D
0485E:  MOVFF  02,64C
04862:  MOVFF  01,64B
04866:  MOVFF  00,64A
0486A:  CALL   1E8C
0486E:  MOVFF  00,635
04872:  MOVFF  01,636
04876:  MOVFF  02,637
0487A:  MOVFF  03,638
0487E:  MOVFF  03,641
04882:  MOVFF  02,640
04886:  MOVFF  01,63F
0488A:  MOVFF  00,63E
0488E:  MOVLB  6
04890:  CLRF   x45
04892:  MOVLW  C0
04894:  MOVWF  x44
04896:  MOVLW  7F
04898:  MOVWF  x43
0489A:  MOVLW  88
0489C:  MOVWF  x42
0489E:  MOVLB  0
048A0:  CALL   1D2E
048A4:  MOVFF  00,635
048A8:  MOVFF  01,636
048AC:  MOVFF  02,637
048B0:  MOVFF  03,638
048B4:  BSF    FD8.1
048B6:  MOVFF  03,649
048BA:  MOVFF  02,648
048BE:  MOVFF  01,647
048C2:  MOVFF  00,646
048C6:  MOVLW  0A
048C8:  MOVLB  6
048CA:  MOVWF  x4D
048CC:  MOVLW  D7
048CE:  MOVWF  x4C
048D0:  MOVLW  23
048D2:  MOVWF  x4B
048D4:  MOVLW  7A
048D6:  MOVWF  x4A
048D8:  MOVLB  0
048DA:  CALL   1E8C
048DE:  MOVFF  00,635
048E2:  MOVFF  01,636
048E6:  MOVFF  02,637
048EA:  MOVFF  03,638
048EE:  MOVFF  03,641
048F2:  MOVFF  02,640
048F6:  MOVFF  01,63F
048FA:  MOVFF  00,63E
048FE:  MOVFF  14E,645
04902:  MOVFF  14D,644
04906:  MOVFF  14C,643
0490A:  MOVFF  14B,642
0490E:  CALL   1D2E
04912:  MOVFF  03,1B5
04916:  MOVFF  02,1B4
0491A:  MOVFF  01,1B3
0491E:  MOVFF  00,1B2
....................     
....................    if(Presion<0.0) 
04922:  MOVFF  1B5,63B
04926:  MOVFF  1B4,63A
0492A:  MOVFF  1B3,639
0492E:  MOVFF  1B2,638
04932:  MOVLB  6
04934:  CLRF   x3F
04936:  CLRF   x3E
04938:  CLRF   x3D
0493A:  CLRF   x3C
0493C:  MOVLB  0
0493E:  CALL   2362
04942:  BNC   494E
....................    { 
....................       Presion=0.0; 
04944:  MOVLB  1
04946:  CLRF   xB5
04948:  CLRF   xB4
0494A:  CLRF   xB3
0494C:  CLRF   xB2
....................    } 
....................     
....................    if(r>media-1) 
0494E:  MOVLW  01
04950:  MOVLB  6
04952:  SUBWF  x34,W
04954:  MOVLB  2
04956:  SUBWF  x07,W
04958:  BZ    495E
0495A:  BNC   495E
....................    {r=0;} 
0495C:  CLRF   x07
....................    PromPresion[r]=Presion;r++; 
0495E:  MOVF   x07,W
04960:  MULLW  04
04962:  MOVF   FF3,W
04964:  CLRF   03
04966:  ADDLW  A7
04968:  MOVWF  FE9
0496A:  MOVLW  00
0496C:  ADDWFC 03,W
0496E:  MOVWF  FEA
04970:  MOVFF  1B2,FEF
04974:  MOVFF  1B3,FEC
04978:  MOVFF  1B4,FEC
0497C:  MOVFF  1B5,FEC
04980:  INCF   x07,F
....................           
....................    for(t=0;t<=(media-1);t++) 
04982:  CLRF   x08
04984:  MOVLW  01
04986:  MOVLB  6
04988:  SUBWF  x34,W
0498A:  MOVLB  2
0498C:  SUBWF  x08,W
0498E:  BZ    4992
04990:  BC    4A02
....................    { 
....................       promediopresion+=PromPresion[t]; 
04992:  MOVF   x08,W
04994:  MULLW  04
04996:  MOVF   FF3,W
04998:  CLRF   03
0499A:  ADDLW  A7
0499C:  MOVWF  FE9
0499E:  MOVLW  00
049A0:  ADDWFC 03,W
049A2:  MOVWF  FEA
049A4:  MOVFF  FEF,00
049A8:  MOVFF  FEC,01
049AC:  MOVFF  FEC,02
049B0:  MOVFF  FEC,03
049B4:  MOVFF  FEA,636
049B8:  MOVFF  FE9,635
049BC:  BCF    FD8.1
049BE:  MOVFF  172,649
049C2:  MOVFF  171,648
049C6:  MOVFF  170,647
049CA:  MOVFF  16F,646
049CE:  MOVFF  03,64D
049D2:  MOVFF  02,64C
049D6:  MOVFF  01,64B
049DA:  MOVFF  00,64A
049DE:  MOVLB  0
049E0:  CALL   1E8C
049E4:  MOVFF  636,FEA
049E8:  MOVFF  635,FE9
049EC:  MOVFF  03,172
049F0:  MOVFF  02,171
049F4:  MOVFF  01,170
049F8:  MOVFF  00,16F
....................    }  
049FC:  MOVLB  2
049FE:  INCF   x08,F
04A00:  BRA    4984
....................    promediopresion=promediopresion/media;    
04A02:  MOVLB  6
04A04:  CLRF   x47
04A06:  MOVFF  634,646
04A0A:  MOVLB  0
04A0C:  CALL   1CD0
04A10:  MOVFF  172,641
04A14:  MOVFF  171,640
04A18:  MOVFF  170,63F
04A1C:  MOVFF  16F,63E
04A20:  MOVFF  03,645
04A24:  MOVFF  02,644
04A28:  MOVFF  01,643
04A2C:  MOVFF  00,642
04A30:  CALL   1D2E
04A34:  MOVFF  03,172
04A38:  MOVFF  02,171
04A3C:  MOVFF  01,170
04A40:  MOVFF  00,16F
....................     
....................    return promediopresion; 
04A44:  MOVFF  16F,00
04A48:  MOVFF  170,01
04A4C:  MOVFF  171,02
04A50:  MOVFF  172,03
.................... } 
04A54:  GOTO   7082 (RETURN)
....................  
.................... float Leer_Sensor_Presion_PreCamara(int media){ 
....................    promediopresionp=0.0; 
....................    V2 = sensores(3); 
....................    //Presionp=(0.073842*V2)-14.504; //R=240, V=5; Sensor de Presion Manometrica de 0-58PSIG 
....................    Presionp=(0.06364*V2)-12.5; //R=240, V=5; Sensor de Presion Manometrica de 0-50PSIA 
....................    Presionp=Presionp*6.89476; 
....................     
....................    if(Presionp<0.0) 
....................       Presionp=0.0; 
....................     
....................    if(r22>media-1) 
....................       r22=0; 
....................    PromPresionp[r22]=Presionp;r22++; 
....................           
....................    for(t2=0;t2<=(media-1);t2++){ 
....................       promediopresionp+=PromPresionp[t2]; 
....................    } 
....................     
....................    promediopresionp=promediopresionp/media;    
....................     
....................    return promediopresionp; 
....................     
....................    /////////////////************** 
....................    /*promediopresionp=0.0; 
....................    V2 = sensores(3);   //Lectura de Divisor de Voltaje de PT100 con resistencia de 1k (+-10%) 
....................    V2 = V2*(5.0/1024.0); 
....................    Presionp=(V2-0.2)/(K); 
....................     
....................    if(Presionp<0.0) 
....................    { 
....................       Presionp=0.0; 
....................    } 
....................     
....................    if(r22>media-1) 
....................    {r22=0;} 
....................    PromPresionp[r22]=Presionp;r22++; 
....................           
....................    for(t2=0;t2<=(media-1);t2++) 
....................    { 
....................       promediopresionp+=PromPresionp[t2]; 
....................    }  
....................    promediopresionp=promediopresionp/media;    
....................     
....................    return promediopresionp;*/ 
.................... } 
....................  
.................... void Controla(){ 
....................    if(tiemporecta>=Derivativo/2.0) 
*
06346:  MOVLB  6
06348:  CLRF   x47
0634A:  MOVFF  1D3,646
0634E:  MOVLB  0
06350:  CALL   1CD0
06354:  MOVFF  03,641
06358:  MOVFF  02,640
0635C:  MOVFF  01,63F
06360:  MOVFF  00,63E
06364:  MOVLB  6
06366:  CLRF   x45
06368:  CLRF   x44
0636A:  CLRF   x43
0636C:  MOVLW  80
0636E:  MOVWF  x42
06370:  MOVLB  0
06372:  CALL   1D2E
06376:  MOVFF  00,634
0637A:  MOVFF  01,635
0637E:  MOVFF  02,636
06382:  MOVFF  03,637
06386:  MOVLB  6
06388:  CLRF   x47
0638A:  MOVFF  1D6,646
0638E:  MOVLB  0
06390:  CALL   1CD0
06394:  MOVFF  637,63B
06398:  MOVFF  636,63A
0639C:  MOVFF  635,639
063A0:  MOVFF  634,638
063A4:  MOVFF  03,63F
063A8:  MOVFF  02,63E
063AC:  MOVFF  01,63D
063B0:  MOVFF  00,63C
063B4:  CALL   2362
063B8:  BC    63BC
063BA:  BNZ   63C2
....................    { 
....................       ActualizaRecta(); 
063BC:  BRA    62D8
....................       tiemporecta=0; 
063BE:  MOVLB  1
063C0:  CLRF   xD6
....................    }  
.................... //-------------------------------Control de Calentamiento------------------------------------------------------------//          
....................    error=desvio+Setpoint-Temperatura;      // Clculo del error ****** 
063C2:  MOVLB  6
063C4:  CLRF   x47
063C6:  MOVFF  1E7,646
063CA:  MOVLB  0
063CC:  CALL   1CD0
063D0:  BCF    FD8.1
063D2:  MOVFF  1AD,649
063D6:  MOVFF  1AC,648
063DA:  MOVFF  1AB,647
063DE:  MOVFF  1AA,646
063E2:  MOVFF  03,64D
063E6:  MOVFF  02,64C
063EA:  MOVFF  01,64B
063EE:  MOVFF  00,64A
063F2:  CALL   1E8C
063F6:  MOVFF  00,634
063FA:  MOVFF  01,635
063FE:  MOVFF  02,636
06402:  MOVFF  03,637
06406:  BSF    FD8.1
06408:  MOVFF  03,649
0640C:  MOVFF  02,648
06410:  MOVFF  01,647
06414:  MOVFF  00,646
06418:  MOVFF  1C1,64D
0641C:  MOVFF  1C0,64C
06420:  MOVFF  1BF,64B
06424:  MOVFF  1BE,64A
06428:  CALL   1E8C
0642C:  MOVFF  03,195
06430:  MOVFF  02,194
06434:  MOVFF  01,193
06438:  MOVFF  00,192
....................     
....................    if(error>1.0 && error<15 && Aumento<0.3) 
0643C:  MOVLB  6
0643E:  CLRF   x3B
06440:  CLRF   x3A
06442:  CLRF   x39
06444:  MOVLW  7F
06446:  MOVWF  x38
06448:  MOVFF  195,63F
0644C:  MOVFF  194,63E
06450:  MOVFF  193,63D
06454:  MOVFF  192,63C
06458:  MOVLB  0
0645A:  CALL   2362
0645E:  BTFSS  FD8.0
06460:  BRA    668A
06462:  MOVFF  195,63B
06466:  MOVFF  194,63A
0646A:  MOVFF  193,639
0646E:  MOVFF  192,638
06472:  MOVLB  6
06474:  CLRF   x3F
06476:  CLRF   x3E
06478:  MOVLW  70
0647A:  MOVWF  x3D
0647C:  MOVLW  82
0647E:  MOVWF  x3C
06480:  MOVLB  0
06482:  CALL   2362
06486:  BTFSS  FD8.0
06488:  BRA    668A
0648A:  MOVFF  17A,63B
0648E:  MOVFF  179,63A
06492:  MOVFF  178,639
06496:  MOVFF  177,638
0649A:  MOVLW  9A
0649C:  MOVLB  6
0649E:  MOVWF  x3F
064A0:  MOVLW  99
064A2:  MOVWF  x3E
064A4:  MOVLW  19
064A6:  MOVWF  x3D
064A8:  MOVLW  7D
064AA:  MOVWF  x3C
064AC:  MOVLB  0
064AE:  CALL   2362
064B2:  BTFSS  FD8.0
064B4:  BRA    668A
....................    { 
....................       if(Tpulso<4.0) 
064B6:  MOVFF  191,63B
064BA:  MOVFF  190,63A
064BE:  MOVFF  18F,639
064C2:  MOVFF  18E,638
064C6:  MOVLB  6
064C8:  CLRF   x3F
064CA:  CLRF   x3E
064CC:  CLRF   x3D
064CE:  MOVLW  81
064D0:  MOVWF  x3C
064D2:  MOVLB  0
064D4:  CALL   2362
064D8:  BTFSS  FD8.0
064DA:  BRA    6688
....................       { 
....................          flagTC=1; 
064DC:  BSF    x8C.7
....................          if(TiempoControl>=Derivativo) 
064DE:  MOVLB  1
064E0:  MOVF   xD3,W
064E2:  MOVLB  2
064E4:  SUBWF  x0B,W
064E6:  BTFSS  FD8.0
064E8:  BRA    6684
....................          { 
....................             TiempoControl=0; 
064EA:  CLRF   x0B
....................             if(Aumento<-0.5){ 
064EC:  MOVFF  17A,63B
064F0:  MOVFF  179,63A
064F4:  MOVFF  178,639
064F8:  MOVFF  177,638
064FC:  MOVLB  6
064FE:  CLRF   x3F
06500:  CLRF   x3E
06502:  MOVLW  80
06504:  MOVWF  x3D
06506:  MOVLW  7E
06508:  MOVWF  x3C
0650A:  MOVLB  0
0650C:  CALL   2362
06510:  BNC   6582
....................                Ganancia+=Integral+0.2; 
06512:  MOVLB  6
06514:  CLRF   x47
06516:  MOVFF  1D2,646
0651A:  MOVLB  0
0651C:  CALL   1CD0
06520:  BCF    FD8.1
06522:  MOVFF  03,649
06526:  MOVFF  02,648
0652A:  MOVFF  01,647
0652E:  MOVFF  00,646
06532:  MOVLW  CD
06534:  MOVLB  6
06536:  MOVWF  x4D
06538:  MOVLW  CC
0653A:  MOVWF  x4C
0653C:  MOVLW  4C
0653E:  MOVWF  x4B
06540:  MOVLW  7C
06542:  MOVWF  x4A
06544:  MOVLB  0
06546:  CALL   1E8C
0654A:  BCF    FD8.1
0654C:  MOVFF  1A5,649
06550:  MOVFF  1A4,648
06554:  MOVFF  1A3,647
06558:  MOVFF  1A2,646
0655C:  MOVFF  03,64D
06560:  MOVFF  02,64C
06564:  MOVFF  01,64B
06568:  MOVFF  00,64A
0656C:  CALL   1E8C
06570:  MOVFF  03,1A5
06574:  MOVFF  02,1A4
06578:  MOVFF  01,1A3
0657C:  MOVFF  00,1A2
....................             }else{ 
06580:  BRA    6682
....................                if(Aumento<-0.1){ 
06582:  MOVFF  17A,63B
06586:  MOVFF  179,63A
0658A:  MOVFF  178,639
0658E:  MOVFF  177,638
06592:  MOVLW  CD
06594:  MOVLB  6
06596:  MOVWF  x3F
06598:  MOVLW  CC
0659A:  MOVWF  x3E
0659C:  MOVWF  x3D
0659E:  MOVLW  7B
065A0:  MOVWF  x3C
065A2:  MOVLB  0
065A4:  CALL   2362
065A8:  BNC   661A
....................                   Ganancia+=Integral-0.2; 
065AA:  MOVLB  6
065AC:  CLRF   x47
065AE:  MOVFF  1D2,646
065B2:  MOVLB  0
065B4:  CALL   1CD0
065B8:  BSF    FD8.1
065BA:  MOVFF  03,649
065BE:  MOVFF  02,648
065C2:  MOVFF  01,647
065C6:  MOVFF  00,646
065CA:  MOVLW  CD
065CC:  MOVLB  6
065CE:  MOVWF  x4D
065D0:  MOVLW  CC
065D2:  MOVWF  x4C
065D4:  MOVLW  4C
065D6:  MOVWF  x4B
065D8:  MOVLW  7C
065DA:  MOVWF  x4A
065DC:  MOVLB  0
065DE:  CALL   1E8C
065E2:  BCF    FD8.1
065E4:  MOVFF  1A5,649
065E8:  MOVFF  1A4,648
065EC:  MOVFF  1A3,647
065F0:  MOVFF  1A2,646
065F4:  MOVFF  03,64D
065F8:  MOVFF  02,64C
065FC:  MOVFF  01,64B
06600:  MOVFF  00,64A
06604:  CALL   1E8C
06608:  MOVFF  03,1A5
0660C:  MOVFF  02,1A4
06610:  MOVFF  01,1A3
06614:  MOVFF  00,1A2
....................                }else{ 
06618:  BRA    6682
....................                   Ganancia+=Integral-0.5; 
0661A:  MOVLB  6
0661C:  CLRF   x47
0661E:  MOVFF  1D2,646
06622:  MOVLB  0
06624:  CALL   1CD0
06628:  BSF    FD8.1
0662A:  MOVFF  03,649
0662E:  MOVFF  02,648
06632:  MOVFF  01,647
06636:  MOVFF  00,646
0663A:  MOVLB  6
0663C:  CLRF   x4D
0663E:  CLRF   x4C
06640:  CLRF   x4B
06642:  MOVLW  7E
06644:  MOVWF  x4A
06646:  MOVLB  0
06648:  CALL   1E8C
0664C:  BCF    FD8.1
0664E:  MOVFF  1A5,649
06652:  MOVFF  1A4,648
06656:  MOVFF  1A3,647
0665A:  MOVFF  1A2,646
0665E:  MOVFF  03,64D
06662:  MOVFF  02,64C
06666:  MOVFF  01,64B
0666A:  MOVFF  00,64A
0666E:  CALL   1E8C
06672:  MOVFF  03,1A5
06676:  MOVFF  02,1A4
0667A:  MOVFF  01,1A3
0667E:  MOVFF  00,1A2
06682:  MOVLB  2
....................                } 
....................             } 
....................          } 
....................       }else{ 
06684:  BRA    668C
06686:  MOVLB  0
....................          flagTC=0; 
06688:  BCF    x8C.7
0668A:  MOVLB  2
....................       } 
....................    } 
....................     
....................    if(error<-0.3) 
0668C:  MOVFF  195,63B
06690:  MOVFF  194,63A
06694:  MOVFF  193,639
06698:  MOVFF  192,638
0669C:  MOVLW  9A
0669E:  MOVLB  6
066A0:  MOVWF  x3F
066A2:  MOVLW  99
066A4:  MOVWF  x3E
066A6:  MOVWF  x3D
066A8:  MOVLW  7D
066AA:  MOVWF  x3C
066AC:  MOVLB  0
066AE:  CALL   2362
066B2:  BNC   66C4
....................    { 
....................       Ganancia=Ganancia2; 
066B4:  MOVFF  1A9,1A5
066B8:  MOVFF  1A8,1A4
066BC:  MOVFF  1A7,1A3
066C0:  MOVFF  1A6,1A2
....................    } 
....................     
....................    if(Ganancia<1) 
066C4:  MOVFF  1A5,63B
066C8:  MOVFF  1A4,63A
066CC:  MOVFF  1A3,639
066D0:  MOVFF  1A2,638
066D4:  MOVLB  6
066D6:  CLRF   x3F
066D8:  CLRF   x3E
066DA:  CLRF   x3D
066DC:  MOVLW  7F
066DE:  MOVWF  x3C
066E0:  MOVLB  0
066E2:  CALL   2362
066E6:  BNC   66F4
....................    { 
....................       Ganancia=1; 
066E8:  MOVLB  1
066EA:  CLRF   xA5
066EC:  CLRF   xA4
066EE:  CLRF   xA3
066F0:  MOVLW  7F
066F2:  MOVWF  xA2
....................    } 
....................     
....................    if(error<0.0)     // Anti Wind_DOWN     
066F4:  MOVFF  195,63B
066F8:  MOVFF  194,63A
066FC:  MOVFF  193,639
06700:  MOVFF  192,638
06704:  MOVLB  6
06706:  CLRF   x3F
06708:  CLRF   x3E
0670A:  CLRF   x3D
0670C:  CLRF   x3C
0670E:  MOVLB  0
06710:  CALL   2362
06714:  BNC   6722
....................    { 
....................       error=0.0; 
06716:  MOVLB  1
06718:  CLRF   x95
0671A:  CLRF   x94
0671C:  CLRF   x93
0671E:  CLRF   x92
06720:  MOVLB  0
....................    } 
....................    //tmp=(Setpoint-Prom)*Ganancia;  // Control Proporcional. 
....................    tmp=error*Ganancia;  // Control Proporcional. 
06722:  MOVFF  195,64D
06726:  MOVFF  194,64C
0672A:  MOVFF  193,64B
0672E:  MOVFF  192,64A
06732:  MOVFF  1A5,651
06736:  MOVFF  1A4,650
0673A:  MOVFF  1A3,64F
0673E:  MOVFF  1A2,64E
06742:  CALL   3BBC
06746:  MOVFF  03,1A1
0674A:  MOVFF  02,1A0
0674E:  MOVFF  01,19F
06752:  MOVFF  00,19E
....................           
....................    if(tmp>Setpoint)   // Anti Wind-UP       
06756:  MOVLB  6
06758:  CLRF   x47
0675A:  MOVFF  1E7,646
0675E:  MOVLB  0
06760:  CALL   1CD0
06764:  MOVFF  03,63B
06768:  MOVFF  02,63A
0676C:  MOVFF  01,639
06770:  MOVFF  00,638
06774:  MOVFF  1A1,63F
06778:  MOVFF  1A0,63E
0677C:  MOVFF  19F,63D
06780:  MOVFF  19E,63C
06784:  CALL   2362
06788:  BNC   67A8
....................    { 
....................       tmp=Setpoint; 
0678A:  MOVLB  6
0678C:  CLRF   x47
0678E:  MOVFF  1E7,646
06792:  MOVLB  0
06794:  CALL   1CD0
06798:  MOVFF  03,1A1
0679C:  MOVFF  02,1A0
067A0:  MOVFF  01,19F
067A4:  MOVFF  00,19E
....................    } 
....................                 
....................    if(tmp<0.0)     // Anti Wind_DOWN     
067A8:  MOVFF  1A1,63B
067AC:  MOVFF  1A0,63A
067B0:  MOVFF  19F,639
067B4:  MOVFF  19E,638
067B8:  MOVLB  6
067BA:  CLRF   x3F
067BC:  CLRF   x3E
067BE:  CLRF   x3D
067C0:  CLRF   x3C
067C2:  MOVLB  0
067C4:  CALL   2362
067C8:  BNC   67D4
....................    { 
....................       tmp=0.0; 
067CA:  MOVLB  1
067CC:  CLRF   xA1
067CE:  CLRF   xA0
067D0:  CLRF   x9F
067D2:  CLRF   x9E
....................    } 
....................     
....................    // Tpulso(t)= Tciclo*(y(t)-ymin)/(ymax - ymin); calculo de ciclo util para control de resistencia.ymax=140.ymin=0; 
....................    // Tpulso es float, hay que pasar ese ciclo a una salida de un puerto usando el TMR1. 
....................    Tpulso=(tmp/Setpoint)*Tciclo;   
067D4:  MOVLB  6
067D6:  CLRF   x47
067D8:  MOVFF  1E7,646
067DC:  MOVLB  0
067DE:  CALL   1CD0
067E2:  MOVFF  1A1,641
067E6:  MOVFF  1A0,640
067EA:  MOVFF  19F,63F
067EE:  MOVFF  19E,63E
067F2:  MOVFF  03,645
067F6:  MOVFF  02,644
067FA:  MOVFF  01,643
067FE:  MOVFF  00,642
06802:  CALL   1D2E
06806:  MOVFF  00,634
0680A:  MOVFF  01,635
0680E:  MOVFF  02,636
06812:  MOVFF  03,637
06816:  MOVFF  03,64D
0681A:  MOVFF  02,64C
0681E:  MOVFF  01,64B
06822:  MOVFF  00,64A
06826:  MOVFF  18D,651
0682A:  MOVFF  18C,650
0682E:  MOVFF  18B,64F
06832:  MOVFF  18A,64E
06836:  CALL   3BBC
0683A:  MOVFF  03,191
0683E:  MOVFF  02,190
06842:  MOVFF  01,18F
06846:  MOVFF  00,18E
....................                                        
....................    Tp=(Tpulso/0.005); 
0684A:  MOVFF  191,641
0684E:  MOVFF  190,640
06852:  MOVFF  18F,63F
06856:  MOVFF  18E,63E
0685A:  MOVLW  0A
0685C:  MOVLB  6
0685E:  MOVWF  x45
06860:  MOVLW  D7
06862:  MOVWF  x44
06864:  MOVLW  23
06866:  MOVWF  x43
06868:  MOVLW  77
0686A:  MOVWF  x42
0686C:  MOVLB  0
0686E:  CALL   1D2E
06872:  MOVFF  03,649
06876:  MOVFF  02,648
0687A:  MOVFF  01,647
0687E:  MOVFF  00,646
06882:  CALL   4A58
06886:  MOVFF  02,92
0688A:  MOVFF  01,91
....................    Tc=(Tciclo/0.005); 
0688E:  MOVFF  18D,641
06892:  MOVFF  18C,640
06896:  MOVFF  18B,63F
0689A:  MOVFF  18A,63E
0689E:  MOVLW  0A
068A0:  MOVLB  6
068A2:  MOVWF  x45
068A4:  MOVLW  D7
068A6:  MOVWF  x44
068A8:  MOVLW  23
068AA:  MOVWF  x43
068AC:  MOVLW  77
068AE:  MOVWF  x42
068B0:  MOVLB  0
068B2:  CALL   1D2E
068B6:  MOVFF  03,649
068BA:  MOVFF  02,648
068BE:  MOVFF  01,647
068C2:  MOVFF  00,646
068C6:  CALL   4A58
068CA:  MOVFF  02,94
068CE:  MOVFF  01,93
....................    Controlando=1;    
068D2:  MOVLW  01
068D4:  MOVLB  1
068D6:  MOVWF  xD7
.................... //--------------------------------------------------------------------------------------------------------------------//    
.................... } 
068D8:  MOVLB  0
068DA:  RETLW  00
....................  
.................... void Envio_I2C(direccion, posicion, dato){ 
....................  
....................    i2c_start();            // Comienzo comunicacin 
....................    i2c_write(direccion);   // Direccin del esclavo en el bus I2C 
....................    i2c_write(posicion);    // Posicin donde se guardara el dato transmitido 
....................    i2c_write(dato);        // Dato a transmitir 
....................    i2c_stop();             // Fin comunicacin 
....................  } 
....................  
.................... void Lectura_I2C (byte direccion, byte posicion, byte &dato) { 
....................  
....................    i2c_start();            // Comienzo de la comunicacin 
....................    i2c_write(direccion);   // Direccin del esclavo en el bus I2C 
....................    i2c_write(posicion);    // Posicin de donde se leer el dato en el esclavo 
....................    i2c_start();            // Reinicio 
....................    i2c_write(direccion+1); // Direccin del esclavo en modo lectura 
....................    dato=i2c_read(0);       // Lectura del dato 
....................    i2c_stop();             // Fin comunicacin 
.................... } 
....................  
.................... void Carga_Vector(void){ 
....................    SlaveA0Tx[0]=(int8)Temperatura; 
....................    SlaveA0Tx[1]=(Temperatura-((int8)Temperatura))*10; 
....................    SlaveA0Tx[2]=make8((int16)PresionCamara,0); 
....................    SlaveA0Tx[3]=make8((int16)PresionCamara,1); 
....................    SlaveA0Tx[4]=make8((int16)PresionPreCamara,0); 
....................    SlaveA0Tx[5]=make8((int16)PresionPreCamara,1); 
....................    SlaveA0Tx[6]=(int8)Tpulso*10; 
....................    SlaveA0Tx[7]=HIG; 
....................    SlaveA0Tx[8]=LOW; 
....................    SlaveA0Tx[9]=TERM; 
....................    SlaveA0Tx[10]=DOOR; 
....................    SlaveA0Tx[11]=STOP; 
....................    SlaveA0Tx[12]=(int8)error; 
....................    SlaveA0Tx[13]=CicloSeleccionado; 
....................    SlaveA0Tx[14]=SetTime; 
....................    SlaveA0Tx[15]=DiaTx; 
....................    SlaveA0Tx[16]=MesTx; 
....................    SlaveA0Tx[17]=YearTx; 
....................    SlaveA0Tx[18]=HoraTx; 
....................    SlaveA0Tx[19]=MinutoTx; 
....................    SlaveA0Tx[20]=SegundoTx; 
....................    SlaveA0Tx[21]=Imprime; 
.................... } 
....................  
.................... void Lee_Vector(void){ 
....................    /*Dia=txbuf[0]; 
....................    Mess=txbuf[1]; 
....................    Year=txbuf[2]; 
....................    Hora=txbuf[3]; 
....................    Minuto=txbuf[4]; 
....................    Segundo=txbuf[5]; 
....................    dow=txbuf[6];*/ 
.................... } 
....................  
.................... void Envio_Esclavos(void){ 
....................    //Carga_Vector(); 
....................    //for(i=0;i<22;i++) 
....................    //{ 
....................       //direccion=0xB0; 
....................       //Envio_I2C(direccion,i,SlaveA0Tx[i]); 
....................    //}  
.................... } 
.................... void Lectura_Esclavos(void){ 
....................    //for(i=0;i<7;i++) 
....................    //{ 
....................    //   direccion=0xA0;                        //Direccin en el bus I2c 
....................    //   posicion=i;                         //Posicin de memoria a leer 
....................    //   Lectura_I2C(direccion, posicion, dato);    //Lectura por I2C 
....................    //   txbuf[i]=(int8)dato; 
....................    //} 
....................    //Lee_Vector(); 
.................... } 
....................  
.................... int8 extraeDecimal(float data){ 
*
05DDE:  MOVLB  6
05DE0:  CLRF   x41
05DE2:  CLRF   x40
05DE4:  CLRF   x3F
05DE6:  CLRF   x3E
05DE8:  CLRF   x45
05DEA:  CLRF   x44
05DEC:  CLRF   x43
05DEE:  CLRF   x42
....................    float entero=0; 
....................    float tmp=0.0; 
....................     
....................    entero=(int8)data; 
05DF0:  MOVFF  63D,649
05DF4:  MOVFF  63C,648
05DF8:  MOVFF  63B,647
05DFC:  MOVFF  63A,646
05E00:  MOVLB  0
05E02:  CALL   4A58
05E06:  MOVLB  6
05E08:  CLRF   x47
05E0A:  MOVFF  01,646
05E0E:  MOVLB  0
05E10:  CALL   1CD0
05E14:  MOVFF  03,641
05E18:  MOVFF  02,640
05E1C:  MOVFF  01,63F
05E20:  MOVFF  00,63E
....................    tmp=(data-entero)*10; 
05E24:  BSF    FD8.1
05E26:  MOVFF  63D,649
05E2A:  MOVFF  63C,648
05E2E:  MOVFF  63B,647
05E32:  MOVFF  63A,646
05E36:  MOVFF  641,64D
05E3A:  MOVFF  640,64C
05E3E:  MOVFF  63F,64B
05E42:  MOVFF  63E,64A
05E46:  CALL   1E8C
05E4A:  MOVFF  00,646
05E4E:  MOVFF  01,647
05E52:  MOVFF  02,648
05E56:  MOVFF  03,649
05E5A:  MOVFF  03,64D
05E5E:  MOVFF  02,64C
05E62:  MOVFF  01,64B
05E66:  MOVFF  00,64A
05E6A:  MOVLB  6
05E6C:  CLRF   x51
05E6E:  CLRF   x50
05E70:  MOVLW  20
05E72:  MOVWF  x4F
05E74:  MOVLW  82
05E76:  MOVWF  x4E
05E78:  MOVLB  0
05E7A:  CALL   3BBC
05E7E:  MOVFF  03,645
05E82:  MOVFF  02,644
05E86:  MOVFF  01,643
05E8A:  MOVFF  00,642
....................    return (int8)tmp; 
05E8E:  MOVFF  645,649
05E92:  MOVFF  644,648
05E96:  MOVFF  643,647
05E9A:  MOVFF  642,646
05E9E:  CALL   4A58
05EA2:  MOVF   01,W
.................... } 
05EA4:  GOTO   5FB6 (RETURN)
....................  
.................... float inttofloat(int8 decimal){ 
....................    float tmp; 
....................    tmp=decimal; 
*
02322:  MOVLB  6
02324:  CLRF   x47
02326:  MOVFF  638,646
0232A:  MOVLB  0
0232C:  RCALL  1CD0
0232E:  MOVFF  03,63C
02332:  MOVFF  02,63B
02336:  MOVFF  01,63A
0233A:  MOVFF  00,639
....................    return tmp/10; 
0233E:  MOVFF  63C,641
02342:  MOVFF  63B,640
02346:  MOVFF  63A,63F
0234A:  MOVFF  639,63E
0234E:  MOVLB  6
02350:  CLRF   x45
02352:  CLRF   x44
02354:  MOVLW  20
02356:  MOVWF  x43
02358:  MOVLW  82
0235A:  MOVWF  x42
0235C:  MOVLB  0
0235E:  RCALL  1D2E
.................... } 
02360:  RETLW  00
....................  
.................... void LeeEEPROM(){ 
.................... //Lectura EEPROM//-------------------------- 
....................    Ganancia=read_eeprom(20); 
*
023DC:  MOVFF  FF2,634
023E0:  BCF    FF2.6
023E2:  BCF    FF2.7
023E4:  CLRF   FAA
023E6:  MOVLW  14
023E8:  MOVWF  FA9
023EA:  BCF    FA6.6
023EC:  BCF    FA6.7
023EE:  BSF    FA6.0
023F0:  MOVF   FA8,W
023F2:  MOVLB  6
023F4:  BTFSC  x34.6
023F6:  BSF    FF2.6
023F8:  BTFSC  x34.7
023FA:  BSF    FF2.7
023FC:  CLRF   x47
023FE:  MOVWF  x46
02400:  MOVLB  0
02402:  RCALL  1CD0
02404:  MOVFF  03,1A5
02408:  MOVFF  02,1A4
0240C:  MOVFF  01,1A3
02410:  MOVFF  00,1A2
....................    delay_ms(10); 
02414:  MOVLW  0A
02416:  MOVLB  6
02418:  MOVWF  x3D
0241A:  MOVLB  0
0241C:  RCALL  1D06
....................    Sensor[0].Ajuste=read_eeprom(21); 
0241E:  MOVFF  FF2,634
02422:  BCF    FF2.6
02424:  BCF    FF2.7
02426:  CLRF   FAA
02428:  MOVLW  15
0242A:  MOVWF  FA9
0242C:  BCF    FA6.6
0242E:  BCF    FA6.7
02430:  BSF    FA6.0
02432:  MOVF   FA8,W
02434:  MOVLB  6
02436:  BTFSC  x34.6
02438:  BSF    FF2.6
0243A:  BTFSC  x34.7
0243C:  BSF    FF2.7
0243E:  MOVLB  2
02440:  MOVWF  xC2
....................    delay_ms(10); 
02442:  MOVLW  0A
02444:  MOVLB  6
02446:  MOVWF  x3D
02448:  MOVLB  0
0244A:  RCALL  1D06
....................    Sensor[0].Ajusten=read_eeprom(22); 
0244C:  MOVFF  FF2,634
02450:  BCF    FF2.6
02452:  BCF    FF2.7
02454:  CLRF   FAA
02456:  MOVLW  16
02458:  MOVWF  FA9
0245A:  BCF    FA6.6
0245C:  BCF    FA6.7
0245E:  BSF    FA6.0
02460:  MOVF   FA8,W
02462:  MOVLB  6
02464:  BTFSC  x34.6
02466:  BSF    FF2.6
02468:  BTFSC  x34.7
0246A:  BSF    FF2.7
0246C:  MOVLB  2
0246E:  MOVWF  xC3
....................    delay_ms(10); 
02470:  MOVLW  0A
02472:  MOVLB  6
02474:  MOVWF  x3D
02476:  MOVLB  0
02478:  RCALL  1D06
....................    //Desvio=read_eeprom(23); 
....................    MediaMovil=read_eeprom(24); 
0247A:  MOVFF  FF2,634
0247E:  BCF    FF2.6
02480:  BCF    FF2.7
02482:  CLRF   FAA
02484:  MOVLW  18
02486:  MOVWF  FA9
02488:  BCF    FA6.6
0248A:  BCF    FA6.7
0248C:  BSF    FA6.0
0248E:  MOVF   FA8,W
02490:  MOVLB  6
02492:  BTFSC  x34.6
02494:  BSF    FF2.6
02496:  BTFSC  x34.7
02498:  BSF    FF2.7
0249A:  MOVLB  1
0249C:  MOVWF  x7D
....................    delay_ms(10); 
0249E:  MOVLW  0A
024A0:  MOVLB  6
024A2:  MOVWF  x3D
024A4:  MOVLB  0
024A6:  RCALL  1D06
....................    Tciclo=read_eeprom(25); 
024A8:  MOVFF  FF2,634
024AC:  BCF    FF2.6
024AE:  BCF    FF2.7
024B0:  CLRF   FAA
024B2:  MOVLW  19
024B4:  MOVWF  FA9
024B6:  BCF    FA6.6
024B8:  BCF    FA6.7
024BA:  BSF    FA6.0
024BC:  MOVF   FA8,W
024BE:  MOVLB  6
024C0:  BTFSC  x34.6
024C2:  BSF    FF2.6
024C4:  BTFSC  x34.7
024C6:  BSF    FF2.7
024C8:  CLRF   x47
024CA:  MOVWF  x46
024CC:  MOVLB  0
024CE:  RCALL  1CD0
024D0:  MOVFF  03,18D
024D4:  MOVFF  02,18C
024D8:  MOVFF  01,18B
024DC:  MOVFF  00,18A
....................    delay_ms(10); 
024E0:  MOVLW  0A
024E2:  MOVLB  6
024E4:  MOVWF  x3D
024E6:  MOVLB  0
024E8:  RCALL  1D06
....................    Integral=read_eeprom(26); 
024EA:  MOVFF  FF2,634
024EE:  BCF    FF2.6
024F0:  BCF    FF2.7
024F2:  CLRF   FAA
024F4:  MOVLW  1A
024F6:  MOVWF  FA9
024F8:  BCF    FA6.6
024FA:  BCF    FA6.7
024FC:  BSF    FA6.0
024FE:  MOVF   FA8,W
02500:  MOVLB  6
02502:  BTFSC  x34.6
02504:  BSF    FF2.6
02506:  BTFSC  x34.7
02508:  BSF    FF2.7
0250A:  MOVLB  1
0250C:  MOVWF  xD2
....................    delay_ms(10); 
0250E:  MOVLW  0A
02510:  MOVLB  6
02512:  MOVWF  x3D
02514:  MOVLB  0
02516:  CALL   1D06
....................    Derivativo=read_eeprom(27); 
0251A:  MOVFF  FF2,634
0251E:  BCF    FF2.6
02520:  BCF    FF2.7
02522:  CLRF   FAA
02524:  MOVLW  1B
02526:  MOVWF  FA9
02528:  BCF    FA6.6
0252A:  BCF    FA6.7
0252C:  BSF    FA6.0
0252E:  MOVF   FA8,W
02530:  MOVLB  6
02532:  BTFSC  x34.6
02534:  BSF    FF2.6
02536:  BTFSC  x34.7
02538:  BSF    FF2.7
0253A:  MOVLB  1
0253C:  MOVWF  xD3
....................    delay_ms(10); 
0253E:  MOVLW  0A
02540:  MOVLB  6
02542:  MOVWF  x3D
02544:  MOVLB  0
02546:  CALL   1D06
....................    Temporal=read_eeprom(29); 
0254A:  MOVFF  FF2,634
0254E:  BCF    FF2.6
02550:  BCF    FF2.7
02552:  CLRF   FAA
02554:  MOVLW  1D
02556:  MOVWF  FA9
02558:  BCF    FA6.6
0255A:  BCF    FA6.7
0255C:  BSF    FA6.0
0255E:  MOVF   FA8,W
02560:  MOVLB  6
02562:  BTFSC  x34.6
02564:  BSF    FF2.6
02566:  BTFSC  x34.7
02568:  BSF    FF2.7
0256A:  CLRF   x47
0256C:  MOVWF  x46
0256E:  MOVLB  0
02570:  CALL   1CD0
02574:  MOVFF  03,14A
02578:  MOVFF  02,149
0257C:  MOVFF  01,148
02580:  MOVFF  00,147
....................    Temporal=Temporal/10.0; 
02584:  MOVFF  14A,641
02588:  MOVFF  149,640
0258C:  MOVFF  148,63F
02590:  MOVFF  147,63E
02594:  MOVLB  6
02596:  CLRF   x45
02598:  CLRF   x44
0259A:  MOVLW  20
0259C:  MOVWF  x43
0259E:  MOVLW  82
025A0:  MOVWF  x42
025A2:  MOVLB  0
025A4:  CALL   1D2E
025A8:  MOVFF  03,14A
025AC:  MOVFF  02,149
025B0:  MOVFF  01,148
025B4:  MOVFF  00,147
....................    delay_ms(10); 
025B8:  MOVLW  0A
025BA:  MOVLB  6
025BC:  MOVWF  x3D
025BE:  MOVLB  0
025C0:  CALL   1D06
....................    //Gain=read_eeprom(28)+Temporal; 
....................    delay_ms(10); 
025C4:  MOVLW  0A
025C6:  MOVLB  6
025C8:  MOVWF  x3D
025CA:  MOVLB  0
025CC:  CALL   1D06
....................    //R1=make16(read_eeprom(31),read_eeprom(30)); 
....................    delay_ms(10); 
025D0:  MOVLW  0A
025D2:  MOVLB  6
025D4:  MOVWF  x3D
025D6:  MOVLB  0
025D8:  CALL   1D06
....................    Temporal=read_eeprom(33); 
025DC:  MOVFF  FF2,634
025E0:  BCF    FF2.6
025E2:  BCF    FF2.7
025E4:  CLRF   FAA
025E6:  MOVLW  21
025E8:  MOVWF  FA9
025EA:  BCF    FA6.6
025EC:  BCF    FA6.7
025EE:  BSF    FA6.0
025F0:  MOVF   FA8,W
025F2:  MOVLB  6
025F4:  BTFSC  x34.6
025F6:  BSF    FF2.6
025F8:  BTFSC  x34.7
025FA:  BSF    FF2.7
025FC:  CLRF   x47
025FE:  MOVWF  x46
02600:  MOVLB  0
02602:  CALL   1CD0
02606:  MOVFF  03,14A
0260A:  MOVFF  02,149
0260E:  MOVFF  01,148
02612:  MOVFF  00,147
....................    Temporal=Temporal/10.0; 
02616:  MOVFF  14A,641
0261A:  MOVFF  149,640
0261E:  MOVFF  148,63F
02622:  MOVFF  147,63E
02626:  MOVLB  6
02628:  CLRF   x45
0262A:  CLRF   x44
0262C:  MOVLW  20
0262E:  MOVWF  x43
02630:  MOVLW  82
02632:  MOVWF  x42
02634:  MOVLB  0
02636:  CALL   1D2E
0263A:  MOVFF  03,14A
0263E:  MOVFF  02,149
02642:  MOVFF  01,148
02646:  MOVFF  00,147
....................    delay_ms(10); 
0264A:  MOVLW  0A
0264C:  MOVLB  6
0264E:  MOVWF  x3D
02650:  MOVLB  0
02652:  CALL   1D06
....................    Sensor[0].RPT100=read_eeprom(32)+Temporal; 
02656:  MOVFF  FF2,634
0265A:  BCF    FF2.6
0265C:  BCF    FF2.7
0265E:  CLRF   FAA
02660:  MOVLW  20
02662:  MOVWF  FA9
02664:  BCF    FA6.6
02666:  BCF    FA6.7
02668:  BSF    FA6.0
0266A:  MOVF   FA8,W
0266C:  MOVLB  6
0266E:  BTFSC  x34.6
02670:  BSF    FF2.6
02672:  BTFSC  x34.7
02674:  BSF    FF2.7
02676:  CLRF   x47
02678:  MOVWF  x46
0267A:  MOVLB  0
0267C:  CALL   1CD0
02680:  BCF    FD8.1
02682:  MOVFF  03,649
02686:  MOVFF  02,648
0268A:  MOVFF  01,647
0268E:  MOVFF  00,646
02692:  MOVFF  14A,64D
02696:  MOVFF  149,64C
0269A:  MOVFF  148,64B
0269E:  MOVFF  147,64A
026A2:  CALL   1E8C
026A6:  MOVFF  03,2B7
026AA:  MOVFF  02,2B6
026AE:  MOVFF  01,2B5
026B2:  MOVFF  00,2B4
....................    delay_ms(10); 
026B6:  MOVLW  0A
026B8:  MOVLB  6
026BA:  MOVWF  x3D
026BC:  MOVLB  0
026BE:  CALL   1D06
....................    CiclosL=read_eeprom(37); 
026C2:  MOVFF  FF2,634
026C6:  BCF    FF2.6
026C8:  BCF    FF2.7
026CA:  CLRF   FAA
026CC:  MOVLW  25
026CE:  MOVWF  FA9
026D0:  BCF    FA6.6
026D2:  BCF    FA6.7
026D4:  BSF    FA6.0
026D6:  MOVF   FA8,W
026D8:  MOVLB  6
026DA:  BTFSC  x34.6
026DC:  BSF    FF2.6
026DE:  BTFSC  x34.7
026E0:  BSF    FF2.7
026E2:  MOVLB  1
026E4:  MOVWF  xE1
....................    delay_ms(10); 
026E6:  MOVLW  0A
026E8:  MOVLB  6
026EA:  MOVWF  x3D
026EC:  MOVLB  0
026EE:  CALL   1D06
....................    CiclosH=read_eeprom(38); 
026F2:  MOVFF  FF2,634
026F6:  BCF    FF2.6
026F8:  BCF    FF2.7
026FA:  CLRF   FAA
026FC:  MOVLW  26
026FE:  MOVWF  FA9
02700:  BCF    FA6.6
02702:  BCF    FA6.7
02704:  BSF    FA6.0
02706:  MOVF   FA8,W
02708:  MOVLB  6
0270A:  BTFSC  x34.6
0270C:  BSF    FF2.6
0270E:  BTFSC  x34.7
02710:  BSF    FF2.7
02712:  MOVLB  1
02714:  MOVWF  xE2
....................    delay_ms(10); 
02716:  MOVLW  0A
02718:  MOVLB  6
0271A:  MOVWF  x3D
0271C:  MOVLB  0
0271E:  CALL   1D06
....................    Ciclos=make16(CiclosH,CiclosL); 
02722:  MOVFF  1E2,1FE
02726:  MOVFF  1E1,1FD
....................    delay_ms(10); 
0272A:  MOVLW  0A
0272C:  MOVLB  6
0272E:  MOVWF  x3D
02730:  MOVLB  0
02732:  CALL   1D06
....................    TTrampa=read_eeprom(39); 
02736:  MOVFF  FF2,634
0273A:  BCF    FF2.6
0273C:  BCF    FF2.7
0273E:  CLRF   FAA
02740:  MOVLW  27
02742:  MOVWF  FA9
02744:  BCF    FA6.6
02746:  BCF    FA6.7
02748:  BSF    FA6.0
0274A:  MOVF   FA8,W
0274C:  MOVLB  6
0274E:  BTFSC  x34.6
02750:  BSF    FF2.6
02752:  BTFSC  x34.7
02754:  BSF    FF2.7
02756:  MOVLB  1
02758:  MOVWF  x81
....................    delay_ms(10); 
0275A:  MOVLW  0A
0275C:  MOVLB  6
0275E:  MOVWF  x3D
02760:  MOVLB  0
02762:  CALL   1D06
....................    //ActivaImpresion=read_eeprom(40); 
....................    delay_ms(10); 
02766:  MOVLW  0A
02768:  MOVLB  6
0276A:  MOVWF  x3D
0276C:  MOVLB  0
0276E:  CALL   1D06
....................    //timpresion=read_eeprom(41); 
....................    delay_ms(10); 
02772:  MOVLW  0A
02774:  MOVLB  6
02776:  MOVWF  x3D
02778:  MOVLB  0
0277A:  CALL   1D06
....................    G1=read_eeprom(42); 
0277E:  MOVFF  FF2,634
02782:  BCF    FF2.6
02784:  BCF    FF2.7
02786:  CLRF   FAA
02788:  MOVLW  2A
0278A:  MOVWF  FA9
0278C:  BCF    FA6.6
0278E:  BCF    FA6.7
02790:  BSF    FA6.0
02792:  MOVF   FA8,W
02794:  MOVLB  6
02796:  BTFSC  x34.6
02798:  BSF    FF2.6
0279A:  BTFSC  x34.7
0279C:  BSF    FF2.7
0279E:  MOVLB  2
027A0:  MOVWF  x36
....................    delay_ms(10); 
027A2:  MOVLW  0A
027A4:  MOVLB  6
027A6:  MOVWF  x3D
027A8:  MOVLB  0
027AA:  CALL   1D06
....................    G2=read_eeprom(43); 
027AE:  MOVFF  FF2,634
027B2:  BCF    FF2.6
027B4:  BCF    FF2.7
027B6:  CLRF   FAA
027B8:  MOVLW  2B
027BA:  MOVWF  FA9
027BC:  BCF    FA6.6
027BE:  BCF    FA6.7
027C0:  BSF    FA6.0
027C2:  MOVF   FA8,W
027C4:  MOVLB  6
027C6:  BTFSC  x34.6
027C8:  BSF    FF2.6
027CA:  BTFSC  x34.7
027CC:  BSF    FF2.7
027CE:  MOVLB  2
027D0:  MOVWF  x37
....................    delay_ms(10); 
027D2:  MOVLW  0A
027D4:  MOVLB  6
027D6:  MOVWF  x3D
027D8:  MOVLB  0
027DA:  CALL   1D06
....................    sg1=read_eeprom(44); 
027DE:  MOVFF  FF2,634
027E2:  BCF    FF2.6
027E4:  BCF    FF2.7
027E6:  CLRF   FAA
027E8:  MOVLW  2C
027EA:  MOVWF  FA9
027EC:  BCF    FA6.6
027EE:  BCF    FA6.7
027F0:  BSF    FA6.0
027F2:  MOVF   FA8,W
027F4:  MOVLB  6
027F6:  BTFSC  x34.6
027F8:  BSF    FF2.6
027FA:  BTFSC  x34.7
027FC:  BSF    FF2.7
027FE:  MOVLB  2
02800:  MOVWF  x38
....................    delay_ms(10); 
02802:  MOVLW  0A
02804:  MOVLB  6
02806:  MOVWF  x3D
02808:  MOVLB  0
0280A:  CALL   1D06
....................    sg2=read_eeprom(45); 
0280E:  MOVFF  FF2,634
02812:  BCF    FF2.6
02814:  BCF    FF2.7
02816:  CLRF   FAA
02818:  MOVLW  2D
0281A:  MOVWF  FA9
0281C:  BCF    FA6.6
0281E:  BCF    FA6.7
02820:  BSF    FA6.0
02822:  MOVF   FA8,W
02824:  MOVLB  6
02826:  BTFSC  x34.6
02828:  BSF    FF2.6
0282A:  BTFSC  x34.7
0282C:  BSF    FF2.7
0282E:  MOVLB  2
02830:  MOVWF  x39
....................     
....................    for(i=0;i<30;i++){ 
02832:  MOVLB  1
02834:  CLRF   xE0
02836:  MOVF   xE0,W
02838:  SUBLW  1D
0283A:  BNC   28AE
....................       estados[i]=read_eeprom(i+50); 
0283C:  MOVLW  32
0283E:  ADDWF  xE0,W
02840:  MOVLB  6
02842:  MOVWF  x34
02844:  MOVFF  FF2,635
02848:  BCF    FF2.6
0284A:  BCF    FF2.7
0284C:  CLRF   FAA
0284E:  MOVFF  634,FA9
02852:  BCF    FA6.6
02854:  BCF    FA6.7
02856:  BSF    FA6.0
02858:  MOVF   FA8,W
0285A:  BTFSC  x35.6
0285C:  BSF    FF2.6
0285E:  BTFSC  x35.7
02860:  BSF    FF2.7
02862:  MOVFF  1E0,636
02866:  MOVWF  x37
02868:  MOVLW  02
0286A:  MOVWF  x39
0286C:  MOVLW  A0
0286E:  MOVWF  x38
02870:  MOVLB  0
02872:  RCALL  2104
....................       if(estados[i]>1) 
02874:  MOVFF  1E0,635
02878:  MOVLW  02
0287A:  MOVLB  6
0287C:  MOVWF  x37
0287E:  MOVLW  A0
02880:  MOVWF  x36
02882:  MOVLB  0
02884:  RCALL  2146
02886:  MOVLW  00
02888:  BTFSC  01.0
0288A:  MOVLW  01
0288C:  ANDLW  01
0288E:  SUBLW  01
02890:  BC    28A8
....................          estados[i]=1; 
02892:  MOVFF  1E0,636
02896:  MOVLW  01
02898:  MOVLB  6
0289A:  MOVWF  x37
0289C:  MOVLW  02
0289E:  MOVWF  x39
028A0:  MOVLW  A0
028A2:  MOVWF  x38
028A4:  MOVLB  0
028A6:  RCALL  2104
....................    } 
028A8:  MOVLB  1
028AA:  INCF   xE0,F
028AC:  BRA    2836
....................     
....................    for(i=0;i<20;i++){//Lee valores almacenados de ciclos personalizados 
028AE:  CLRF   xE0
028B0:  MOVF   xE0,W
028B2:  SUBLW  13
028B4:  BTFSS  FD8.0
028B6:  BRA    2E2E
....................       CiclosPersonalizados[i].Temperatura=read_eeprom(100+(i*8));  
028B8:  MOVF   xE0,W
028BA:  MULLW  08
028BC:  MOVF   FF3,W
028BE:  MOVLB  6
028C0:  CLRF   x35
028C2:  MOVWF  x34
028C4:  MOVLW  6C
028C6:  ADDWF  x34,W
028C8:  MOVWF  FE9
028CA:  MOVLW  05
028CC:  ADDWFC x35,W
028CE:  MOVWF  FEA
028D0:  MOVLB  1
028D2:  MOVF   xE0,W
028D4:  MULLW  08
028D6:  MOVF   FF3,W
028D8:  ADDLW  64
028DA:  MOVLB  6
028DC:  MOVWF  x36
028DE:  MOVFF  FF2,637
028E2:  BCF    FF2.6
028E4:  BCF    FF2.7
028E6:  CLRF   FAA
028E8:  MOVFF  636,FA9
028EC:  BCF    FA6.6
028EE:  BCF    FA6.7
028F0:  BSF    FA6.0
028F2:  MOVF   FA8,W
028F4:  BTFSC  x37.6
028F6:  BSF    FF2.6
028F8:  BTFSC  x37.7
028FA:  BSF    FF2.7
028FC:  MOVWF  FEF
....................       CiclosPersonalizados[i].Minutoest=read_eeprom(101+(i*8));  
028FE:  MOVLB  1
02900:  MOVF   xE0,W
02902:  MULLW  08
02904:  MOVF   FF3,W
02906:  MOVLB  6
02908:  CLRF   x35
0290A:  MOVWF  x34
0290C:  MOVLW  01
0290E:  ADDWF  x34,W
02910:  MOVWF  01
02912:  MOVLW  00
02914:  ADDWFC x35,W
02916:  MOVWF  03
02918:  MOVF   01,W
0291A:  ADDLW  6C
0291C:  MOVWF  FE9
0291E:  MOVLW  05
02920:  ADDWFC 03,W
02922:  MOVWF  FEA
02924:  MOVLB  1
02926:  MOVF   xE0,W
02928:  MULLW  08
0292A:  MOVF   FF3,W
0292C:  ADDLW  65
0292E:  MOVLB  6
02930:  MOVWF  x36
02932:  MOVFF  FF2,637
02936:  BCF    FF2.6
02938:  BCF    FF2.7
0293A:  CLRF   FAA
0293C:  MOVFF  636,FA9
02940:  BCF    FA6.6
02942:  BCF    FA6.7
02944:  BSF    FA6.0
02946:  MOVF   FA8,W
02948:  BTFSC  x37.6
0294A:  BSF    FF2.6
0294C:  BTFSC  x37.7
0294E:  BSF    FF2.7
02950:  MOVWF  FEF
....................       CiclosPersonalizados[i].Segundoest=read_eeprom(102+(i*8));  
02952:  MOVLB  1
02954:  MOVF   xE0,W
02956:  MULLW  08
02958:  MOVF   FF3,W
0295A:  MOVLB  6
0295C:  CLRF   x35
0295E:  MOVWF  x34
02960:  MOVLW  02
02962:  ADDWF  x34,W
02964:  MOVWF  01
02966:  MOVLW  00
02968:  ADDWFC x35,W
0296A:  MOVWF  03
0296C:  MOVF   01,W
0296E:  ADDLW  6C
02970:  MOVWF  FE9
02972:  MOVLW  05
02974:  ADDWFC 03,W
02976:  MOVWF  FEA
02978:  MOVLB  1
0297A:  MOVF   xE0,W
0297C:  MULLW  08
0297E:  MOVF   FF3,W
02980:  ADDLW  66
02982:  MOVLB  6
02984:  MOVWF  x36
02986:  MOVFF  FF2,637
0298A:  BCF    FF2.6
0298C:  BCF    FF2.7
0298E:  CLRF   FAA
02990:  MOVFF  636,FA9
02994:  BCF    FA6.6
02996:  BCF    FA6.7
02998:  BSF    FA6.0
0299A:  MOVF   FA8,W
0299C:  BTFSC  x37.6
0299E:  BSF    FF2.6
029A0:  BTFSC  x37.7
029A2:  BSF    FF2.7
029A4:  MOVWF  FEF
....................       CiclosPersonalizados[i].Minutosec=read_eeprom(103+(i*8));  
029A6:  MOVLB  1
029A8:  MOVF   xE0,W
029AA:  MULLW  08
029AC:  MOVF   FF3,W
029AE:  MOVLB  6
029B0:  CLRF   x35
029B2:  MOVWF  x34
029B4:  MOVLW  03
029B6:  ADDWF  x34,W
029B8:  MOVWF  01
029BA:  MOVLW  00
029BC:  ADDWFC x35,W
029BE:  MOVWF  03
029C0:  MOVF   01,W
029C2:  ADDLW  6C
029C4:  MOVWF  FE9
029C6:  MOVLW  05
029C8:  ADDWFC 03,W
029CA:  MOVWF  FEA
029CC:  MOVLB  1
029CE:  MOVF   xE0,W
029D0:  MULLW  08
029D2:  MOVF   FF3,W
029D4:  ADDLW  67
029D6:  MOVLB  6
029D8:  MOVWF  x36
029DA:  MOVFF  FF2,637
029DE:  BCF    FF2.6
029E0:  BCF    FF2.7
029E2:  CLRF   FAA
029E4:  MOVFF  636,FA9
029E8:  BCF    FA6.6
029EA:  BCF    FA6.7
029EC:  BSF    FA6.0
029EE:  MOVF   FA8,W
029F0:  BTFSC  x37.6
029F2:  BSF    FF2.6
029F4:  BTFSC  x37.7
029F6:  BSF    FF2.7
029F8:  MOVWF  FEF
....................       CiclosPersonalizados[i].Segundosec=read_eeprom(104+(i*8));  
029FA:  MOVLB  1
029FC:  MOVF   xE0,W
029FE:  MULLW  08
02A00:  MOVF   FF3,W
02A02:  MOVLB  6
02A04:  CLRF   x35
02A06:  MOVWF  x34
02A08:  MOVLW  04
02A0A:  ADDWF  x34,W
02A0C:  MOVWF  01
02A0E:  MOVLW  00
02A10:  ADDWFC x35,W
02A12:  MOVWF  03
02A14:  MOVF   01,W
02A16:  ADDLW  6C
02A18:  MOVWF  FE9
02A1A:  MOVLW  05
02A1C:  ADDWFC 03,W
02A1E:  MOVWF  FEA
02A20:  MOVLB  1
02A22:  MOVF   xE0,W
02A24:  MULLW  08
02A26:  MOVF   FF3,W
02A28:  ADDLW  68
02A2A:  MOVLB  6
02A2C:  MOVWF  x36
02A2E:  MOVFF  FF2,637
02A32:  BCF    FF2.6
02A34:  BCF    FF2.7
02A36:  CLRF   FAA
02A38:  MOVFF  636,FA9
02A3C:  BCF    FA6.6
02A3E:  BCF    FA6.7
02A40:  BSF    FA6.0
02A42:  MOVF   FA8,W
02A44:  BTFSC  x37.6
02A46:  BSF    FF2.6
02A48:  BTFSC  x37.7
02A4A:  BSF    FF2.7
02A4C:  MOVWF  FEF
....................       CiclosPersonalizados[i].PulsosVacio=read_eeprom(105+(i*8));  
02A4E:  MOVLB  1
02A50:  MOVF   xE0,W
02A52:  MULLW  08
02A54:  MOVF   FF3,W
02A56:  MOVLB  6
02A58:  CLRF   x35
02A5A:  MOVWF  x34
02A5C:  MOVLW  05
02A5E:  ADDWF  x34,W
02A60:  MOVWF  01
02A62:  MOVLW  00
02A64:  ADDWFC x35,W
02A66:  MOVWF  03
02A68:  MOVF   01,W
02A6A:  ADDLW  6C
02A6C:  MOVWF  FE9
02A6E:  MOVLW  05
02A70:  ADDWFC 03,W
02A72:  MOVWF  FEA
02A74:  MOVLB  1
02A76:  MOVF   xE0,W
02A78:  MULLW  08
02A7A:  MOVF   FF3,W
02A7C:  ADDLW  69
02A7E:  MOVLB  6
02A80:  MOVWF  x36
02A82:  MOVFF  FF2,637
02A86:  BCF    FF2.6
02A88:  BCF    FF2.7
02A8A:  CLRF   FAA
02A8C:  MOVFF  636,FA9
02A90:  BCF    FA6.6
02A92:  BCF    FA6.7
02A94:  BSF    FA6.0
02A96:  MOVF   FA8,W
02A98:  BTFSC  x37.6
02A9A:  BSF    FF2.6
02A9C:  BTFSC  x37.7
02A9E:  BSF    FF2.7
02AA0:  MOVWF  FEF
....................       CiclosPersonalizados[i].NivelVacio=read_eeprom(106+(i*8));  
02AA2:  MOVLB  1
02AA4:  MOVF   xE0,W
02AA6:  MULLW  08
02AA8:  MOVF   FF3,W
02AAA:  MOVLB  6
02AAC:  CLRF   x35
02AAE:  MOVWF  x34
02AB0:  MOVLW  06
02AB2:  ADDWF  x34,W
02AB4:  MOVWF  01
02AB6:  MOVLW  00
02AB8:  ADDWFC x35,W
02ABA:  MOVWF  03
02ABC:  MOVF   01,W
02ABE:  ADDLW  6C
02AC0:  MOVWF  FE9
02AC2:  MOVLW  05
02AC4:  ADDWFC 03,W
02AC6:  MOVWF  FEA
02AC8:  MOVLB  1
02ACA:  MOVF   xE0,W
02ACC:  MULLW  08
02ACE:  MOVF   FF3,W
02AD0:  ADDLW  6A
02AD2:  MOVLB  6
02AD4:  MOVWF  x36
02AD6:  MOVFF  FF2,637
02ADA:  BCF    FF2.6
02ADC:  BCF    FF2.7
02ADE:  CLRF   FAA
02AE0:  MOVFF  636,FA9
02AE4:  BCF    FA6.6
02AE6:  BCF    FA6.7
02AE8:  BSF    FA6.0
02AEA:  MOVF   FA8,W
02AEC:  BTFSC  x37.6
02AEE:  BSF    FF2.6
02AF0:  BTFSC  x37.7
02AF2:  BSF    FF2.7
02AF4:  MOVWF  FEF
....................       CiclosPersonalizados[i].NivelDesfogue=read_eeprom(107+(i*8));  
02AF6:  MOVLB  1
02AF8:  MOVF   xE0,W
02AFA:  MULLW  08
02AFC:  MOVF   FF3,W
02AFE:  MOVLB  6
02B00:  CLRF   x35
02B02:  MOVWF  x34
02B04:  MOVLW  07
02B06:  ADDWF  x34,W
02B08:  MOVWF  01
02B0A:  MOVLW  00
02B0C:  ADDWFC x35,W
02B0E:  MOVWF  03
02B10:  MOVF   01,W
02B12:  ADDLW  6C
02B14:  MOVWF  FE9
02B16:  MOVLW  05
02B18:  ADDWFC 03,W
02B1A:  MOVWF  FEA
02B1C:  MOVLB  1
02B1E:  MOVF   xE0,W
02B20:  MULLW  08
02B22:  MOVF   FF3,W
02B24:  ADDLW  6B
02B26:  MOVLB  6
02B28:  MOVWF  x36
02B2A:  MOVFF  FF2,637
02B2E:  BCF    FF2.6
02B30:  BCF    FF2.7
02B32:  CLRF   FAA
02B34:  MOVFF  636,FA9
02B38:  BCF    FA6.6
02B3A:  BCF    FA6.7
02B3C:  BSF    FA6.0
02B3E:  MOVF   FA8,W
02B40:  BTFSC  x37.6
02B42:  BSF    FF2.6
02B44:  BTFSC  x37.7
02B46:  BSF    FF2.7
02B48:  MOVWF  FEF
....................        
....................       if(CiclosPersonalizados[i].Temperatura>134 || CiclosPersonalizados[i].Temperatura<105) 
02B4A:  MOVLB  1
02B4C:  MOVF   xE0,W
02B4E:  MULLW  08
02B50:  MOVF   FF3,W
02B52:  MOVLB  6
02B54:  CLRF   x35
02B56:  MOVWF  x34
02B58:  MOVLW  6C
02B5A:  ADDWF  x34,W
02B5C:  MOVWF  FE9
02B5E:  MOVLW  05
02B60:  ADDWFC x35,W
02B62:  MOVWF  FEA
02B64:  MOVF   FEF,W
02B66:  SUBLW  86
02B68:  BNC   2B8A
02B6A:  MOVLB  1
02B6C:  MOVF   xE0,W
02B6E:  MULLW  08
02B70:  MOVF   FF3,W
02B72:  MOVLB  6
02B74:  CLRF   x35
02B76:  MOVWF  x34
02B78:  MOVLW  6C
02B7A:  ADDWF  x34,W
02B7C:  MOVWF  FE9
02B7E:  MOVLW  05
02B80:  ADDWFC x35,W
02B82:  MOVWF  FEA
02B84:  MOVF   FEF,W
02B86:  SUBLW  68
02B88:  BNC   2BA8
....................          CiclosPersonalizados[i].Temperatura=121; 
02B8A:  MOVLB  1
02B8C:  MOVF   xE0,W
02B8E:  MULLW  08
02B90:  MOVF   FF3,W
02B92:  MOVLB  6
02B94:  CLRF   x35
02B96:  MOVWF  x34
02B98:  MOVLW  6C
02B9A:  ADDWF  x34,W
02B9C:  MOVWF  FE9
02B9E:  MOVLW  05
02BA0:  ADDWFC x35,W
02BA2:  MOVWF  FEA
02BA4:  MOVLW  79
02BA6:  MOVWF  FEF
....................       if(CiclosPersonalizados[i].Minutoest>59) 
02BA8:  MOVLB  1
02BAA:  MOVF   xE0,W
02BAC:  MULLW  08
02BAE:  MOVF   FF3,W
02BB0:  MOVLB  6
02BB2:  CLRF   x35
02BB4:  MOVWF  x34
02BB6:  MOVLW  01
02BB8:  ADDWF  x34,W
02BBA:  MOVWF  01
02BBC:  MOVLW  00
02BBE:  ADDWFC x35,W
02BC0:  MOVWF  03
02BC2:  MOVF   01,W
02BC4:  ADDLW  6C
02BC6:  MOVWF  FE9
02BC8:  MOVLW  05
02BCA:  ADDWFC 03,W
02BCC:  MOVWF  FEA
02BCE:  MOVF   FEF,W
02BD0:  SUBLW  3B
02BD2:  BC    2BFE
....................          CiclosPersonalizados[i].Minutoest=3; 
02BD4:  MOVLB  1
02BD6:  MOVF   xE0,W
02BD8:  MULLW  08
02BDA:  MOVF   FF3,W
02BDC:  MOVLB  6
02BDE:  CLRF   x35
02BE0:  MOVWF  x34
02BE2:  MOVLW  01
02BE4:  ADDWF  x34,W
02BE6:  MOVWF  01
02BE8:  MOVLW  00
02BEA:  ADDWFC x35,W
02BEC:  MOVWF  03
02BEE:  MOVF   01,W
02BF0:  ADDLW  6C
02BF2:  MOVWF  FE9
02BF4:  MOVLW  05
02BF6:  ADDWFC 03,W
02BF8:  MOVWF  FEA
02BFA:  MOVLW  03
02BFC:  MOVWF  FEF
....................       if(CiclosPersonalizados[i].Minutosec>59) 
02BFE:  MOVLB  1
02C00:  MOVF   xE0,W
02C02:  MULLW  08
02C04:  MOVF   FF3,W
02C06:  MOVLB  6
02C08:  CLRF   x35
02C0A:  MOVWF  x34
02C0C:  MOVLW  03
02C0E:  ADDWF  x34,W
02C10:  MOVWF  01
02C12:  MOVLW  00
02C14:  ADDWFC x35,W
02C16:  MOVWF  03
02C18:  MOVF   01,W
02C1A:  ADDLW  6C
02C1C:  MOVWF  FE9
02C1E:  MOVLW  05
02C20:  ADDWFC 03,W
02C22:  MOVWF  FEA
02C24:  MOVF   FEF,W
02C26:  SUBLW  3B
02C28:  BC    2C52
....................          CiclosPersonalizados[i].Minutosec=0;    
02C2A:  MOVLB  1
02C2C:  MOVF   xE0,W
02C2E:  MULLW  08
02C30:  MOVF   FF3,W
02C32:  MOVLB  6
02C34:  CLRF   x35
02C36:  MOVWF  x34
02C38:  MOVLW  03
02C3A:  ADDWF  x34,W
02C3C:  MOVWF  01
02C3E:  MOVLW  00
02C40:  ADDWFC x35,W
02C42:  MOVWF  03
02C44:  MOVF   01,W
02C46:  ADDLW  6C
02C48:  MOVWF  FE9
02C4A:  MOVLW  05
02C4C:  ADDWFC 03,W
02C4E:  MOVWF  FEA
02C50:  CLRF   FEF
....................       if(CiclosPersonalizados[i].Segundoest>59) 
02C52:  MOVLB  1
02C54:  MOVF   xE0,W
02C56:  MULLW  08
02C58:  MOVF   FF3,W
02C5A:  MOVLB  6
02C5C:  CLRF   x35
02C5E:  MOVWF  x34
02C60:  MOVLW  02
02C62:  ADDWF  x34,W
02C64:  MOVWF  01
02C66:  MOVLW  00
02C68:  ADDWFC x35,W
02C6A:  MOVWF  03
02C6C:  MOVF   01,W
02C6E:  ADDLW  6C
02C70:  MOVWF  FE9
02C72:  MOVLW  05
02C74:  ADDWFC 03,W
02C76:  MOVWF  FEA
02C78:  MOVF   FEF,W
02C7A:  SUBLW  3B
02C7C:  BC    2CA6
....................          CiclosPersonalizados[i].Segundoest=0; 
02C7E:  MOVLB  1
02C80:  MOVF   xE0,W
02C82:  MULLW  08
02C84:  MOVF   FF3,W
02C86:  MOVLB  6
02C88:  CLRF   x35
02C8A:  MOVWF  x34
02C8C:  MOVLW  02
02C8E:  ADDWF  x34,W
02C90:  MOVWF  01
02C92:  MOVLW  00
02C94:  ADDWFC x35,W
02C96:  MOVWF  03
02C98:  MOVF   01,W
02C9A:  ADDLW  6C
02C9C:  MOVWF  FE9
02C9E:  MOVLW  05
02CA0:  ADDWFC 03,W
02CA2:  MOVWF  FEA
02CA4:  CLRF   FEF
....................       if(CiclosPersonalizados[i].Segundosec>59) 
02CA6:  MOVLB  1
02CA8:  MOVF   xE0,W
02CAA:  MULLW  08
02CAC:  MOVF   FF3,W
02CAE:  MOVLB  6
02CB0:  CLRF   x35
02CB2:  MOVWF  x34
02CB4:  MOVLW  04
02CB6:  ADDWF  x34,W
02CB8:  MOVWF  01
02CBA:  MOVLW  00
02CBC:  ADDWFC x35,W
02CBE:  MOVWF  03
02CC0:  MOVF   01,W
02CC2:  ADDLW  6C
02CC4:  MOVWF  FE9
02CC6:  MOVLW  05
02CC8:  ADDWFC 03,W
02CCA:  MOVWF  FEA
02CCC:  MOVF   FEF,W
02CCE:  SUBLW  3B
02CD0:  BC    2CFA
....................          CiclosPersonalizados[i].Segundosec=0;       
02CD2:  MOVLB  1
02CD4:  MOVF   xE0,W
02CD6:  MULLW  08
02CD8:  MOVF   FF3,W
02CDA:  MOVLB  6
02CDC:  CLRF   x35
02CDE:  MOVWF  x34
02CE0:  MOVLW  04
02CE2:  ADDWF  x34,W
02CE4:  MOVWF  01
02CE6:  MOVLW  00
02CE8:  ADDWFC x35,W
02CEA:  MOVWF  03
02CEC:  MOVF   01,W
02CEE:  ADDLW  6C
02CF0:  MOVWF  FE9
02CF2:  MOVLW  05
02CF4:  ADDWFC 03,W
02CF6:  MOVWF  FEA
02CF8:  CLRF   FEF
....................       if(CiclosPersonalizados[i].PulsosVacio>15) 
02CFA:  MOVLB  1
02CFC:  MOVF   xE0,W
02CFE:  MULLW  08
02D00:  MOVF   FF3,W
02D02:  MOVLB  6
02D04:  CLRF   x35
02D06:  MOVWF  x34
02D08:  MOVLW  05
02D0A:  ADDWF  x34,W
02D0C:  MOVWF  01
02D0E:  MOVLW  00
02D10:  ADDWFC x35,W
02D12:  MOVWF  03
02D14:  MOVF   01,W
02D16:  ADDLW  6C
02D18:  MOVWF  FE9
02D1A:  MOVLW  05
02D1C:  ADDWFC 03,W
02D1E:  MOVWF  FEA
02D20:  MOVF   FEF,W
02D22:  SUBLW  0F
02D24:  BC    2D50
....................          CiclosPersonalizados[i].PulsosVacio=4; 
02D26:  MOVLB  1
02D28:  MOVF   xE0,W
02D2A:  MULLW  08
02D2C:  MOVF   FF3,W
02D2E:  MOVLB  6
02D30:  CLRF   x35
02D32:  MOVWF  x34
02D34:  MOVLW  05
02D36:  ADDWF  x34,W
02D38:  MOVWF  01
02D3A:  MOVLW  00
02D3C:  ADDWFC x35,W
02D3E:  MOVWF  03
02D40:  MOVF   01,W
02D42:  ADDLW  6C
02D44:  MOVWF  FE9
02D46:  MOVLW  05
02D48:  ADDWFC 03,W
02D4A:  MOVWF  FEA
02D4C:  MOVLW  04
02D4E:  MOVWF  FEF
....................       if(CiclosPersonalizados[i].NivelVacio>100 || CiclosPersonalizados[i].NivelVacio<10) 
02D50:  MOVLB  1
02D52:  MOVF   xE0,W
02D54:  MULLW  08
02D56:  MOVF   FF3,W
02D58:  MOVLB  6
02D5A:  CLRF   x35
02D5C:  MOVWF  x34
02D5E:  MOVLW  06
02D60:  ADDWF  x34,W
02D62:  MOVWF  01
02D64:  MOVLW  00
02D66:  ADDWFC x35,W
02D68:  MOVWF  03
02D6A:  MOVF   01,W
02D6C:  ADDLW  6C
02D6E:  MOVWF  FE9
02D70:  MOVLW  05
02D72:  ADDWFC 03,W
02D74:  MOVWF  FEA
02D76:  MOVF   FEF,W
02D78:  SUBLW  64
02D7A:  BNC   2DA8
02D7C:  MOVLB  1
02D7E:  MOVF   xE0,W
02D80:  MULLW  08
02D82:  MOVF   FF3,W
02D84:  MOVLB  6
02D86:  CLRF   x35
02D88:  MOVWF  x34
02D8A:  MOVLW  06
02D8C:  ADDWF  x34,W
02D8E:  MOVWF  01
02D90:  MOVLW  00
02D92:  ADDWFC x35,W
02D94:  MOVWF  03
02D96:  MOVF   01,W
02D98:  ADDLW  6C
02D9A:  MOVWF  FE9
02D9C:  MOVLW  05
02D9E:  ADDWFC 03,W
02DA0:  MOVWF  FEA
02DA2:  MOVF   FEF,W
02DA4:  SUBLW  09
02DA6:  BNC   2DD2
....................          CiclosPersonalizados[i].NivelVacio=25;    
02DA8:  MOVLB  1
02DAA:  MOVF   xE0,W
02DAC:  MULLW  08
02DAE:  MOVF   FF3,W
02DB0:  MOVLB  6
02DB2:  CLRF   x35
02DB4:  MOVWF  x34
02DB6:  MOVLW  06
02DB8:  ADDWF  x34,W
02DBA:  MOVWF  01
02DBC:  MOVLW  00
02DBE:  ADDWFC x35,W
02DC0:  MOVWF  03
02DC2:  MOVF   01,W
02DC4:  ADDLW  6C
02DC6:  MOVWF  FE9
02DC8:  MOVLW  05
02DCA:  ADDWFC 03,W
02DCC:  MOVWF  FEA
02DCE:  MOVLW  19
02DD0:  MOVWF  FEF
....................       if(CiclosPersonalizados[i].NivelDesfogue>6) 
02DD2:  MOVLB  1
02DD4:  MOVF   xE0,W
02DD6:  MULLW  08
02DD8:  MOVF   FF3,W
02DDA:  MOVLB  6
02DDC:  CLRF   x35
02DDE:  MOVWF  x34
02DE0:  MOVLW  07
02DE2:  ADDWF  x34,W
02DE4:  MOVWF  01
02DE6:  MOVLW  00
02DE8:  ADDWFC x35,W
02DEA:  MOVWF  03
02DEC:  MOVF   01,W
02DEE:  ADDLW  6C
02DF0:  MOVWF  FE9
02DF2:  MOVLW  05
02DF4:  ADDWFC 03,W
02DF6:  MOVWF  FEA
02DF8:  MOVF   FEF,W
02DFA:  SUBLW  06
02DFC:  BC    2E28
....................          CiclosPersonalizados[i].NivelDesfogue=6; 
02DFE:  MOVLB  1
02E00:  MOVF   xE0,W
02E02:  MULLW  08
02E04:  MOVF   FF3,W
02E06:  MOVLB  6
02E08:  CLRF   x35
02E0A:  MOVWF  x34
02E0C:  MOVLW  07
02E0E:  ADDWF  x34,W
02E10:  MOVWF  01
02E12:  MOVLW  00
02E14:  ADDWFC x35,W
02E16:  MOVWF  03
02E18:  MOVF   01,W
02E1A:  ADDLW  6C
02E1C:  MOVWF  FE9
02E1E:  MOVLW  05
02E20:  ADDWFC 03,W
02E22:  MOVWF  FEA
02E24:  MOVLW  06
02E26:  MOVWF  FEF
....................    } 
02E28:  MOVLB  1
02E2A:  INCF   xE0,F
02E2C:  BRA    28B0
....................     
....................    for(i=0;i<10;i++){//Lee contraseas de usuarios 
02E2E:  CLRF   xE0
02E30:  MOVF   xE0,W
02E32:  SUBLW  09
02E34:  BNC   2F16
....................       for(j=0;j<4;j++){ 
02E36:  MOVLB  2
02E38:  CLRF   x33
02E3A:  MOVF   x33,W
02E3C:  SUBLW  03
02E3E:  BNC   2F10
....................          Clave[i].Password[j]=read_eeprom((300+j)+(i*4)); 
02E40:  MOVLB  1
02E42:  MOVF   xE0,W
02E44:  MULLW  04
02E46:  MOVF   FF3,W
02E48:  MOVLB  6
02E4A:  CLRF   x35
02E4C:  MOVWF  x34
02E4E:  CLRF   03
02E50:  MOVLB  2
02E52:  MOVF   x33,W
02E54:  MOVLB  6
02E56:  ADDWF  x34,W
02E58:  MOVWF  01
02E5A:  MOVF   x35,W
02E5C:  ADDWFC 03,F
02E5E:  MOVF   01,W
02E60:  ADDLW  0C
02E62:  MOVWF  FE9
02E64:  MOVLW  06
02E66:  ADDWFC 03,W
02E68:  MOVWF  FEA
02E6A:  MOVLW  2C
02E6C:  MOVLB  2
02E6E:  ADDWF  x33,W
02E70:  MOVLB  6
02E72:  MOVWF  x36
02E74:  MOVLW  01
02E76:  MOVWF  x37
02E78:  BTFSC  FD8.0
02E7A:  INCF   x37,F
02E7C:  MOVLB  1
02E7E:  MOVF   xE0,W
02E80:  MULLW  04
02E82:  MOVF   FF3,W
02E84:  MOVLB  6
02E86:  ADDWF  x36,F
02E88:  MOVLW  00
02E8A:  ADDWFC x37,F
02E8C:  MOVFF  FF2,638
02E90:  BCF    FF2.6
02E92:  BCF    FF2.7
02E94:  MOVFF  637,FAA
02E98:  MOVFF  636,FA9
02E9C:  BCF    FA6.6
02E9E:  BCF    FA6.7
02EA0:  BSF    FA6.0
02EA2:  MOVF   FA8,W
02EA4:  BTFSC  x38.6
02EA6:  BSF    FF2.6
02EA8:  BTFSC  x38.7
02EAA:  BSF    FF2.7
02EAC:  MOVWF  FEF
....................          if(Clave[i].Password[j]>9) 
02EAE:  MOVLB  1
02EB0:  MOVF   xE0,W
02EB2:  MULLW  04
02EB4:  MOVF   FF3,W
02EB6:  MOVLB  6
02EB8:  CLRF   x35
02EBA:  MOVWF  x34
02EBC:  CLRF   03
02EBE:  MOVLB  2
02EC0:  MOVF   x33,W
02EC2:  MOVLB  6
02EC4:  ADDWF  x34,W
02EC6:  MOVWF  01
02EC8:  MOVF   x35,W
02ECA:  ADDWFC 03,F
02ECC:  MOVF   01,W
02ECE:  ADDLW  0C
02ED0:  MOVWF  FE9
02ED2:  MOVLW  06
02ED4:  ADDWFC 03,W
02ED6:  MOVWF  FEA
02ED8:  MOVF   FEF,W
02EDA:  SUBLW  09
02EDC:  BC    2F0A
....................             Clave[i].Password[j]=0; 
02EDE:  MOVLB  1
02EE0:  MOVF   xE0,W
02EE2:  MULLW  04
02EE4:  MOVF   FF3,W
02EE6:  MOVLB  6
02EE8:  CLRF   x35
02EEA:  MOVWF  x34
02EEC:  CLRF   03
02EEE:  MOVLB  2
02EF0:  MOVF   x33,W
02EF2:  MOVLB  6
02EF4:  ADDWF  x34,W
02EF6:  MOVWF  01
02EF8:  MOVF   x35,W
02EFA:  ADDWFC 03,F
02EFC:  MOVF   01,W
02EFE:  ADDLW  0C
02F00:  MOVWF  FE9
02F02:  MOVLW  06
02F04:  ADDWFC 03,W
02F06:  MOVWF  FEA
02F08:  CLRF   FEF
....................       } 
02F0A:  MOVLB  2
02F0C:  INCF   x33,F
02F0E:  BRA    2E3A
....................    } 
02F10:  MOVLB  1
02F12:  INCF   xE0,F
02F14:  BRA    2E30
....................     
....................    diaCiclos=read_ext_eeprom(2+(cicloVisto*320)); 
02F16:  MOVLB  6
02F18:  CLRF   x3D
02F1A:  MOVFF  223,63C
02F1E:  MOVLW  01
02F20:  MOVWF  x3F
02F22:  MOVLW  40
02F24:  MOVWF  x3E
02F26:  MOVLB  0
02F28:  CALL   2178
02F2C:  MOVFF  02,03
02F30:  MOVF   01,W
02F32:  ADDLW  02
02F34:  MOVLB  6
02F36:  MOVWF  x34
02F38:  MOVLW  00
02F3A:  ADDWFC 02,W
02F3C:  MOVWF  x35
02F3E:  MOVWF  x3A
02F40:  MOVFF  634,639
02F44:  MOVLB  0
02F46:  CALL   227A
02F4A:  MOVFF  01,29B
....................    if(diaCiclos>31) 
02F4E:  MOVLB  2
02F50:  MOVF   x9B,W
02F52:  SUBLW  1F
02F54:  BC    2F5A
....................       diaCiclos=1; 
02F56:  MOVLW  01
02F58:  MOVWF  x9B
....................    mesCiclos=read_ext_eeprom(3+(cicloVisto*320)); 
02F5A:  MOVLB  6
02F5C:  CLRF   x3D
02F5E:  MOVFF  223,63C
02F62:  MOVLW  01
02F64:  MOVWF  x3F
02F66:  MOVLW  40
02F68:  MOVWF  x3E
02F6A:  MOVLB  0
02F6C:  CALL   2178
02F70:  MOVFF  02,03
02F74:  MOVF   01,W
02F76:  ADDLW  03
02F78:  MOVLB  6
02F7A:  MOVWF  x34
02F7C:  MOVLW  00
02F7E:  ADDWFC 02,W
02F80:  MOVWF  x35
02F82:  MOVWF  x3A
02F84:  MOVFF  634,639
02F88:  MOVLB  0
02F8A:  CALL   227A
02F8E:  MOVFF  01,29C
....................    if(mesCiclos>12) 
02F92:  MOVLB  2
02F94:  MOVF   x9C,W
02F96:  SUBLW  0C
02F98:  BC    2F9E
....................       mesCiclos=1; 
02F9A:  MOVLW  01
02F9C:  MOVWF  x9C
....................    yearCiclos=read_ext_eeprom(4+(cicloVisto*320)); 
02F9E:  MOVLB  6
02FA0:  CLRF   x3D
02FA2:  MOVFF  223,63C
02FA6:  MOVLW  01
02FA8:  MOVWF  x3F
02FAA:  MOVLW  40
02FAC:  MOVWF  x3E
02FAE:  MOVLB  0
02FB0:  CALL   2178
02FB4:  MOVFF  02,03
02FB8:  MOVF   01,W
02FBA:  ADDLW  04
02FBC:  MOVLB  6
02FBE:  MOVWF  x34
02FC0:  MOVLW  00
02FC2:  ADDWFC 02,W
02FC4:  MOVWF  x35
02FC6:  MOVWF  x3A
02FC8:  MOVFF  634,639
02FCC:  MOVLB  0
02FCE:  CALL   227A
02FD2:  MOVFF  01,29D
....................    if(yearCiclos>99) 
02FD6:  MOVLB  2
02FD8:  MOVF   x9D,W
02FDA:  SUBLW  63
02FDC:  BC    2FE2
....................       yearCiclos=19; 
02FDE:  MOVLW  13
02FE0:  MOVWF  x9D
....................    cicloCiclos=read_ext_eeprom(1+(cicloVisto*320)); 
02FE2:  MOVLB  6
02FE4:  CLRF   x3D
02FE6:  MOVFF  223,63C
02FEA:  MOVLW  01
02FEC:  MOVWF  x3F
02FEE:  MOVLW  40
02FF0:  MOVWF  x3E
02FF2:  MOVLB  0
02FF4:  CALL   2178
02FF8:  MOVFF  02,03
02FFC:  MOVF   01,W
02FFE:  ADDLW  01
03000:  MOVLB  6
03002:  MOVWF  x34
03004:  MOVLW  00
03006:  ADDWFC 02,W
03008:  MOVWF  x35
0300A:  MOVWF  x3A
0300C:  MOVFF  634,639
03010:  MOVLB  0
03012:  CALL   227A
03016:  MOVFF  01,29F
....................    if(cicloCiclos>20) 
0301A:  MOVLB  2
0301C:  MOVF   x9F,W
0301E:  SUBLW  14
03020:  BC    3026
....................       cicloCiclos=1; 
03022:  MOVLW  01
03024:  MOVWF  x9F
....................    usuarioCiclos=read_ext_eeprom((cicloVisto*320)); 
03026:  MOVLB  6
03028:  CLRF   x3D
0302A:  MOVFF  223,63C
0302E:  MOVLW  01
03030:  MOVWF  x3F
03032:  MOVLW  40
03034:  MOVWF  x3E
03036:  MOVLB  0
03038:  CALL   2178
0303C:  MOVFF  02,635
03040:  MOVFF  01,634
03044:  MOVFF  02,63A
03048:  MOVFF  01,639
0304C:  CALL   227A
03050:  MOVFF  01,29E
....................    if(usuarioCiclos>10) 
03054:  MOVLB  2
03056:  MOVF   x9E,W
03058:  SUBLW  0A
0305A:  BC    3060
....................       usuarioCiclos=1; 
0305C:  MOVLW  01
0305E:  MOVWF  x9E
....................    for(i=0;i<7;i++){//Lee Valores para completar la Tabla 
03060:  MOVLB  1
03062:  CLRF   xE0
03064:  MOVF   xE0,W
03066:  SUBLW  06
03068:  BTFSS  FD8.0
0306A:  BRA    35C6
....................       horaCiclos[i]=read_ext_eeprom((cicloVisto*320)+11+((cicloVisualizado+i)*9)); 
0306C:  CLRF   03
0306E:  MOVF   xE0,W
03070:  ADDLW  86
03072:  MOVWF  01
03074:  MOVLW  02
03076:  ADDWFC 03,F
03078:  MOVFF  01,634
0307C:  MOVLB  6
0307E:  MOVFF  03,635
03082:  CLRF   x3D
03084:  MOVFF  223,63C
03088:  MOVLW  01
0308A:  MOVWF  x3F
0308C:  MOVLW  40
0308E:  MOVWF  x3E
03090:  MOVLB  0
03092:  CALL   2178
03096:  MOVFF  02,637
0309A:  MOVFF  01,636
0309E:  MOVLW  0B
030A0:  MOVLB  6
030A2:  ADDWF  x36,F
030A4:  MOVLW  00
030A6:  ADDWFC x37,F
030A8:  MOVLB  1
030AA:  MOVF   xE0,W
030AC:  MOVLB  2
030AE:  ADDWF  x22,W
030B0:  MULLW  09
030B2:  MOVF   FF3,W
030B4:  MOVLB  6
030B6:  ADDWF  x36,F
030B8:  MOVLW  00
030BA:  ADDWFC x37,F
030BC:  MOVFF  637,63A
030C0:  MOVFF  636,639
030C4:  MOVLB  0
030C6:  CALL   227A
030CA:  MOVFF  635,FEA
030CE:  MOVFF  634,FE9
030D2:  MOVFF  01,FEF
....................       if(horaCiclos[i]>24) 
030D6:  CLRF   03
030D8:  MOVLB  1
030DA:  MOVF   xE0,W
030DC:  ADDLW  86
030DE:  MOVWF  FE9
030E0:  MOVLW  02
030E2:  ADDWFC 03,W
030E4:  MOVWF  FEA
030E6:  MOVF   FEF,W
030E8:  SUBLW  18
030EA:  BC    30FC
....................          horaCiclos[i]=0; 
030EC:  CLRF   03
030EE:  MOVF   xE0,W
030F0:  ADDLW  86
030F2:  MOVWF  FE9
030F4:  MOVLW  02
030F6:  ADDWFC 03,W
030F8:  MOVWF  FEA
030FA:  CLRF   FEF
....................       minutoCiclos[i]=read_ext_eeprom((cicloVisto*320)+12+((cicloVisualizado+i)*9)); 
030FC:  CLRF   03
030FE:  MOVF   xE0,W
03100:  ADDLW  8D
03102:  MOVWF  01
03104:  MOVLW  02
03106:  ADDWFC 03,F
03108:  MOVFF  01,634
0310C:  MOVLB  6
0310E:  MOVFF  03,635
03112:  CLRF   x3D
03114:  MOVFF  223,63C
03118:  MOVLW  01
0311A:  MOVWF  x3F
0311C:  MOVLW  40
0311E:  MOVWF  x3E
03120:  MOVLB  0
03122:  CALL   2178
03126:  MOVFF  02,637
0312A:  MOVFF  01,636
0312E:  MOVLW  0C
03130:  MOVLB  6
03132:  ADDWF  x36,F
03134:  MOVLW  00
03136:  ADDWFC x37,F
03138:  MOVLB  1
0313A:  MOVF   xE0,W
0313C:  MOVLB  2
0313E:  ADDWF  x22,W
03140:  MULLW  09
03142:  MOVF   FF3,W
03144:  MOVLB  6
03146:  ADDWF  x36,F
03148:  MOVLW  00
0314A:  ADDWFC x37,F
0314C:  MOVFF  637,63A
03150:  MOVFF  636,639
03154:  MOVLB  0
03156:  CALL   227A
0315A:  MOVFF  635,FEA
0315E:  MOVFF  634,FE9
03162:  MOVFF  01,FEF
....................       if(minutoCiclos[i]>59) 
03166:  CLRF   03
03168:  MOVLB  1
0316A:  MOVF   xE0,W
0316C:  ADDLW  8D
0316E:  MOVWF  FE9
03170:  MOVLW  02
03172:  ADDWFC 03,W
03174:  MOVWF  FEA
03176:  MOVF   FEF,W
03178:  SUBLW  3B
0317A:  BC    318C
....................          minutoCiclos[i]=0; 
0317C:  CLRF   03
0317E:  MOVF   xE0,W
03180:  ADDLW  8D
03182:  MOVWF  FE9
03184:  MOVLW  02
03186:  ADDWFC 03,W
03188:  MOVWF  FEA
0318A:  CLRF   FEF
....................       TCiclos[i]=read_ext_eeprom((cicloVisto*320)+5+((cicloVisualizado+i)*9))+inttofloat(read_ext_eeprom((cicloVisto*320)+6+((cicloVisualizado+i)*9))); 
0318C:  MOVF   xE0,W
0318E:  MULLW  04
03190:  MOVF   FF3,W
03192:  CLRF   03
03194:  ADDLW  4E
03196:  MOVWF  01
03198:  MOVLW  02
0319A:  ADDWFC 03,F
0319C:  MOVFF  01,634
031A0:  MOVLB  6
031A2:  MOVFF  03,635
031A6:  CLRF   x3D
031A8:  MOVFF  223,63C
031AC:  MOVLW  01
031AE:  MOVWF  x3F
031B0:  MOVLW  40
031B2:  MOVWF  x3E
031B4:  MOVLB  0
031B6:  CALL   2178
031BA:  MOVFF  02,637
031BE:  MOVFF  01,636
031C2:  MOVLW  05
031C4:  MOVLB  6
031C6:  ADDWF  x36,F
031C8:  MOVLW  00
031CA:  ADDWFC x37,F
031CC:  MOVLB  1
031CE:  MOVF   xE0,W
031D0:  MOVLB  2
031D2:  ADDWF  x22,W
031D4:  MULLW  09
031D6:  MOVF   FF3,W
031D8:  MOVLB  6
031DA:  ADDWF  x36,F
031DC:  MOVLW  00
031DE:  ADDWFC x37,F
031E0:  MOVFF  637,63A
031E4:  MOVFF  636,639
031E8:  MOVLB  0
031EA:  CALL   227A
031EE:  MOVFF  01,636
031F2:  MOVLB  6
031F4:  CLRF   x3D
031F6:  MOVFF  223,63C
031FA:  MOVLW  01
031FC:  MOVWF  x3F
031FE:  MOVLW  40
03200:  MOVWF  x3E
03202:  MOVLB  0
03204:  CALL   2178
03208:  MOVFF  02,638
0320C:  MOVFF  01,637
03210:  MOVLW  06
03212:  MOVLB  6
03214:  ADDWF  x37,F
03216:  MOVLW  00
03218:  ADDWFC x38,F
0321A:  MOVLB  1
0321C:  MOVF   xE0,W
0321E:  MOVLB  2
03220:  ADDWF  x22,W
03222:  MULLW  09
03224:  MOVF   FF3,W
03226:  MOVLB  6
03228:  ADDWF  x37,F
0322A:  MOVLW  00
0322C:  ADDWFC x38,F
0322E:  MOVFF  638,63A
03232:  MOVFF  637,639
03236:  MOVLB  0
03238:  CALL   227A
0323C:  MOVFF  01,637
03240:  MOVFF  01,638
03244:  CALL   2322
03248:  MOVFF  00,637
0324C:  MOVFF  01,638
03250:  MOVFF  02,639
03254:  MOVFF  03,63A
03258:  MOVLB  6
0325A:  CLRF   x47
0325C:  MOVFF  636,646
03260:  MOVLB  0
03262:  CALL   1CD0
03266:  MOVFF  FEA,63C
0326A:  MOVFF  FE9,63B
0326E:  BCF    FD8.1
03270:  MOVFF  03,649
03274:  MOVFF  02,648
03278:  MOVFF  01,647
0327C:  MOVFF  00,646
03280:  MOVFF  63A,64D
03284:  MOVFF  639,64C
03288:  MOVFF  638,64B
0328C:  MOVFF  637,64A
03290:  CALL   1E8C
03294:  MOVFF  63C,FEA
03298:  MOVFF  63B,FE9
0329C:  MOVFF  635,FEA
032A0:  MOVFF  634,FE9
032A4:  MOVFF  00,FEF
032A8:  MOVFF  01,FEC
032AC:  MOVFF  02,FEC
032B0:  MOVFF  03,FEC
....................       if(TCiclos[i]>200) 
032B4:  MOVLB  1
032B6:  MOVF   xE0,W
032B8:  MULLW  04
032BA:  MOVF   FF3,W
032BC:  CLRF   03
032BE:  ADDLW  4E
032C0:  MOVWF  FE9
032C2:  MOVLW  02
032C4:  ADDWFC 03,W
032C6:  MOVWF  FEA
032C8:  MOVFF  FEF,634
032CC:  MOVFF  FEC,635
032D0:  MOVFF  FEC,636
032D4:  MOVFF  FEC,637
032D8:  MOVLB  6
032DA:  CLRF   x3B
032DC:  CLRF   x3A
032DE:  MOVLW  48
032E0:  MOVWF  x39
032E2:  MOVLW  86
032E4:  MOVWF  x38
032E6:  MOVFF  637,63F
032EA:  MOVFF  636,63E
032EE:  MOVFF  635,63D
032F2:  MOVFF  634,63C
032F6:  MOVLB  0
032F8:  CALL   2362
032FC:  BNC   331C
....................          TCiclos[i]=0; 
032FE:  MOVLB  1
03300:  MOVF   xE0,W
03302:  MULLW  04
03304:  MOVF   FF3,W
03306:  CLRF   03
03308:  ADDLW  4E
0330A:  MOVWF  FE9
0330C:  MOVLW  02
0330E:  ADDWFC 03,W
03310:  MOVWF  FEA
03312:  CLRF   FEF
03314:  CLRF   FEC
03316:  CLRF   FEC
03318:  CLRF   FEC
0331A:  MOVLB  0
....................       PcCiclos[i]=make16(read_ext_eeprom((cicloVisto*320)+7+((cicloVisualizado+i)*9)),read_ext_eeprom((cicloVisto*320)+8+((cicloVisualizado+i)*9))); 
0331C:  BCF    FD8.0
0331E:  MOVLB  1
03320:  RLCF   xE0,W
03322:  CLRF   03
03324:  ADDLW  6A
03326:  MOVWF  01
03328:  MOVLW  02
0332A:  ADDWFC 03,F
0332C:  MOVFF  01,634
03330:  MOVLB  6
03332:  MOVFF  03,635
03336:  CLRF   x3D
03338:  MOVFF  223,63C
0333C:  MOVLW  01
0333E:  MOVWF  x3F
03340:  MOVLW  40
03342:  MOVWF  x3E
03344:  MOVLB  0
03346:  CALL   2178
0334A:  MOVFF  02,637
0334E:  MOVFF  01,636
03352:  MOVLW  07
03354:  MOVLB  6
03356:  ADDWF  x36,F
03358:  MOVLW  00
0335A:  ADDWFC x37,F
0335C:  MOVLB  1
0335E:  MOVF   xE0,W
03360:  MOVLB  2
03362:  ADDWF  x22,W
03364:  MULLW  09
03366:  MOVF   FF3,W
03368:  MOVLB  6
0336A:  ADDWF  x36,F
0336C:  MOVLW  00
0336E:  ADDWFC x37,F
03370:  MOVFF  637,63A
03374:  MOVFF  636,639
03378:  MOVLB  0
0337A:  CALL   227A
0337E:  MOVFF  01,636
03382:  MOVLB  6
03384:  CLRF   x3D
03386:  MOVFF  223,63C
0338A:  MOVLW  01
0338C:  MOVWF  x3F
0338E:  MOVLW  40
03390:  MOVWF  x3E
03392:  MOVLB  0
03394:  CALL   2178
03398:  MOVFF  02,638
0339C:  MOVFF  01,637
033A0:  MOVLW  08
033A2:  MOVLB  6
033A4:  ADDWF  x37,F
033A6:  MOVLW  00
033A8:  ADDWFC x38,F
033AA:  MOVLB  1
033AC:  MOVF   xE0,W
033AE:  MOVLB  2
033B0:  ADDWF  x22,W
033B2:  MULLW  09
033B4:  MOVF   FF3,W
033B6:  MOVLB  6
033B8:  ADDWF  x37,F
033BA:  MOVLW  00
033BC:  ADDWFC x38,F
033BE:  MOVFF  638,63A
033C2:  MOVFF  637,639
033C6:  MOVLB  0
033C8:  CALL   227A
033CC:  MOVFF  635,FEA
033D0:  MOVFF  634,FE9
033D4:  MOVFF  636,FEC
033D8:  MOVF   FED,F
033DA:  MOVFF  01,FEF
....................       if(PcCiclos[i]>500) 
033DE:  BCF    FD8.0
033E0:  MOVLB  1
033E2:  RLCF   xE0,W
033E4:  CLRF   03
033E6:  ADDLW  6A
033E8:  MOVWF  FE9
033EA:  MOVLW  02
033EC:  ADDWFC 03,W
033EE:  MOVWF  FEA
033F0:  MOVFF  FEC,635
033F4:  MOVF   FED,F
033F6:  MOVFF  FEF,634
033FA:  MOVLB  6
033FC:  MOVF   x35,W
033FE:  SUBLW  00
03400:  BC    3426
03402:  XORLW  FF
03404:  BNZ   340C
03406:  MOVF   x34,W
03408:  SUBLW  F4
0340A:  BC    3426
....................          PcCiclos[i]=0; 
0340C:  BCF    FD8.0
0340E:  MOVLB  1
03410:  RLCF   xE0,W
03412:  CLRF   03
03414:  ADDLW  6A
03416:  MOVWF  FE9
03418:  MOVLW  02
0341A:  ADDWFC 03,W
0341C:  MOVWF  FEA
0341E:  CLRF   FEC
03420:  MOVF   FED,F
03422:  CLRF   FEF
03424:  MOVLB  6
....................       PpcCiclos[i]=make16(read_ext_eeprom((cicloVisto*320)+9+((cicloVisualizado+i)*9)),read_ext_eeprom((cicloVisto*320)+10+((cicloVisualizado+i)*9))); 
03426:  BCF    FD8.0
03428:  MOVLB  1
0342A:  RLCF   xE0,W
0342C:  CLRF   03
0342E:  ADDLW  78
03430:  MOVWF  01
03432:  MOVLW  02
03434:  ADDWFC 03,F
03436:  MOVFF  01,634
0343A:  MOVLB  6
0343C:  MOVFF  03,635
03440:  CLRF   x3D
03442:  MOVFF  223,63C
03446:  MOVLW  01
03448:  MOVWF  x3F
0344A:  MOVLW  40
0344C:  MOVWF  x3E
0344E:  MOVLB  0
03450:  CALL   2178
03454:  MOVFF  02,637
03458:  MOVFF  01,636
0345C:  MOVLW  09
0345E:  MOVLB  6
03460:  ADDWF  x36,F
03462:  MOVLW  00
03464:  ADDWFC x37,F
03466:  MOVLB  1
03468:  MOVF   xE0,W
0346A:  MOVLB  2
0346C:  ADDWF  x22,W
0346E:  MULLW  09
03470:  MOVF   FF3,W
03472:  MOVLB  6
03474:  ADDWF  x36,F
03476:  MOVLW  00
03478:  ADDWFC x37,F
0347A:  MOVFF  637,63A
0347E:  MOVFF  636,639
03482:  MOVLB  0
03484:  CALL   227A
03488:  MOVFF  01,636
0348C:  MOVLB  6
0348E:  CLRF   x3D
03490:  MOVFF  223,63C
03494:  MOVLW  01
03496:  MOVWF  x3F
03498:  MOVLW  40
0349A:  MOVWF  x3E
0349C:  MOVLB  0
0349E:  CALL   2178
034A2:  MOVFF  02,638
034A6:  MOVFF  01,637
034AA:  MOVLW  0A
034AC:  MOVLB  6
034AE:  ADDWF  x37,F
034B0:  MOVLW  00
034B2:  ADDWFC x38,F
034B4:  MOVLB  1
034B6:  MOVF   xE0,W
034B8:  MOVLB  2
034BA:  ADDWF  x22,W
034BC:  MULLW  09
034BE:  MOVF   FF3,W
034C0:  MOVLB  6
034C2:  ADDWF  x37,F
034C4:  MOVLW  00
034C6:  ADDWFC x38,F
034C8:  MOVFF  638,63A
034CC:  MOVFF  637,639
034D0:  MOVLB  0
034D2:  CALL   227A
034D6:  MOVFF  635,FEA
034DA:  MOVFF  634,FE9
034DE:  MOVFF  636,FEC
034E2:  MOVF   FED,F
034E4:  MOVFF  01,FEF
....................       if(PpcCiclos[i]>500) 
034E8:  BCF    FD8.0
034EA:  MOVLB  1
034EC:  RLCF   xE0,W
034EE:  CLRF   03
034F0:  ADDLW  78
034F2:  MOVWF  FE9
034F4:  MOVLW  02
034F6:  ADDWFC 03,W
034F8:  MOVWF  FEA
034FA:  MOVFF  FEC,635
034FE:  MOVF   FED,F
03500:  MOVFF  FEF,634
03504:  MOVLB  6
03506:  MOVF   x35,W
03508:  SUBLW  00
0350A:  BC    3530
0350C:  XORLW  FF
0350E:  BNZ   3516
03510:  MOVF   x34,W
03512:  SUBLW  F4
03514:  BC    3530
....................          PpcCiclos[i]=0; 
03516:  BCF    FD8.0
03518:  MOVLB  1
0351A:  RLCF   xE0,W
0351C:  CLRF   03
0351E:  ADDLW  78
03520:  MOVWF  FE9
03522:  MOVLW  02
03524:  ADDWFC 03,W
03526:  MOVWF  FEA
03528:  CLRF   FEC
0352A:  MOVF   FED,F
0352C:  CLRF   FEF
0352E:  MOVLB  6
....................       ACiclos[i]=read_ext_eeprom((cicloVisto*320)+13+((cicloVisualizado+i)*9)); 
03530:  CLRF   03
03532:  MOVLB  1
03534:  MOVF   xE0,W
03536:  ADDLW  94
03538:  MOVWF  01
0353A:  MOVLW  02
0353C:  ADDWFC 03,F
0353E:  MOVFF  01,634
03542:  MOVLB  6
03544:  MOVFF  03,635
03548:  CLRF   x3D
0354A:  MOVFF  223,63C
0354E:  MOVLW  01
03550:  MOVWF  x3F
03552:  MOVLW  40
03554:  MOVWF  x3E
03556:  MOVLB  0
03558:  CALL   2178
0355C:  MOVFF  02,637
03560:  MOVFF  01,636
03564:  MOVLW  0D
03566:  MOVLB  6
03568:  ADDWF  x36,F
0356A:  MOVLW  00
0356C:  ADDWFC x37,F
0356E:  MOVLB  1
03570:  MOVF   xE0,W
03572:  MOVLB  2
03574:  ADDWF  x22,W
03576:  MULLW  09
03578:  MOVF   FF3,W
0357A:  MOVLB  6
0357C:  ADDWF  x36,F
0357E:  MOVLW  00
03580:  ADDWFC x37,F
03582:  MOVFF  637,63A
03586:  MOVFF  636,639
0358A:  MOVLB  0
0358C:  CALL   227A
03590:  MOVFF  635,FEA
03594:  MOVFF  634,FE9
03598:  MOVFF  01,FEF
....................       if(ACiclos[i]>10) 
0359C:  CLRF   03
0359E:  MOVLB  1
035A0:  MOVF   xE0,W
035A2:  ADDLW  94
035A4:  MOVWF  FE9
035A6:  MOVLW  02
035A8:  ADDWFC 03,W
035AA:  MOVWF  FEA
035AC:  MOVF   FEF,W
035AE:  SUBLW  0A
035B0:  BC    35C2
....................          ACiclos[i]=0; 
035B2:  CLRF   03
035B4:  MOVF   xE0,W
035B6:  ADDLW  94
035B8:  MOVWF  FE9
035BA:  MOVLW  02
035BC:  ADDWFC 03,W
035BE:  MOVWF  FEA
035C0:  CLRF   FEF
....................    } 
035C2:  INCF   xE0,F
035C4:  BRA    3064
.................... } 
035C6:  MOVLB  0
035C8:  GOTO   6E02 (RETURN)
....................  
.................... void LimitaValores(){ 
....................    if(Ganancia>20.0){ 
*
03700:  MOVLB  6
03702:  CLRF   x3B
03704:  CLRF   x3A
03706:  MOVLW  20
03708:  MOVWF  x39
0370A:  MOVLW  83
0370C:  MOVWF  x38
0370E:  MOVFF  1A5,63F
03712:  MOVFF  1A4,63E
03716:  MOVFF  1A3,63D
0371A:  MOVFF  1A2,63C
0371E:  MOVLB  0
03720:  CALL   2362
03724:  BNC   376E
....................       Ganancia=15.0; 
03726:  MOVLB  1
03728:  CLRF   xA5
0372A:  CLRF   xA4
0372C:  MOVLW  70
0372E:  MOVWF  xA3
03730:  MOVLW  82
03732:  MOVWF  xA2
....................       write_eeprom(20,15); 
03734:  CLRF   FAA
03736:  MOVLW  14
03738:  MOVWF  FA9
0373A:  MOVLW  0F
0373C:  MOVWF  FA8
0373E:  BCF    FA6.6
03740:  BCF    FA6.7
03742:  BSF    FA6.2
03744:  MOVF   FF2,W
03746:  MOVWF  00
03748:  BCF    FF2.6
0374A:  BCF    FF2.7
0374C:  MOVLB  F
0374E:  MOVLW  55
03750:  MOVWF  FA7
03752:  MOVLW  AA
03754:  MOVWF  FA7
03756:  BSF    FA6.1
03758:  BTFSC  FA6.1
0375A:  BRA    3758
0375C:  BCF    FA6.2
0375E:  MOVF   00,W
03760:  IORWF  FF2,F
....................       delay_ms(10); 
03762:  MOVLW  0A
03764:  MOVLB  6
03766:  MOVWF  x3D
03768:  MOVLB  0
0376A:  CALL   1D06
....................    } 
....................    if(Sensor[0].Ajuste>50){ 
0376E:  MOVLB  2
03770:  MOVF   xC2,W
03772:  SUBLW  32
03774:  BC    37B2
....................       Sensor[0].Ajuste=0; 
03776:  CLRF   xC2
....................       write_eeprom(21,0); 
03778:  CLRF   FAA
0377A:  MOVLW  15
0377C:  MOVWF  FA9
0377E:  CLRF   FA8
03780:  BCF    FA6.6
03782:  BCF    FA6.7
03784:  BSF    FA6.2
03786:  MOVF   FF2,W
03788:  MOVWF  00
0378A:  BCF    FF2.6
0378C:  BCF    FF2.7
0378E:  MOVLB  F
03790:  MOVLW  55
03792:  MOVWF  FA7
03794:  MOVLW  AA
03796:  MOVWF  FA7
03798:  BSF    FA6.1
0379A:  BTFSC  FA6.1
0379C:  BRA    379A
0379E:  BCF    FA6.2
037A0:  MOVF   00,W
037A2:  IORWF  FF2,F
....................       delay_ms(10); 
037A4:  MOVLW  0A
037A6:  MOVLB  6
037A8:  MOVWF  x3D
037AA:  MOVLB  0
037AC:  CALL   1D06
037B0:  MOVLB  2
....................    } 
....................    if(Sensor[0].Ajusten>50){ 
037B2:  MOVF   xC3,W
037B4:  SUBLW  32
037B6:  BC    37F2
....................       Sensor[0].Ajusten=0; 
037B8:  CLRF   xC3
....................       write_eeprom(22,0); 
037BA:  CLRF   FAA
037BC:  MOVLW  16
037BE:  MOVWF  FA9
037C0:  CLRF   FA8
037C2:  BCF    FA6.6
037C4:  BCF    FA6.7
037C6:  BSF    FA6.2
037C8:  MOVF   FF2,W
037CA:  MOVWF  00
037CC:  BCF    FF2.6
037CE:  BCF    FF2.7
037D0:  MOVLB  F
037D2:  MOVLW  55
037D4:  MOVWF  FA7
037D6:  MOVLW  AA
037D8:  MOVWF  FA7
037DA:  BSF    FA6.1
037DC:  BTFSC  FA6.1
037DE:  BRA    37DC
037E0:  BCF    FA6.2
037E2:  MOVF   00,W
037E4:  IORWF  FF2,F
....................       delay_ms(10); 
037E6:  MOVLW  0A
037E8:  MOVLB  6
037EA:  MOVWF  x3D
037EC:  MOVLB  0
037EE:  CALL   1D06
....................    } 
....................    if(MediaMovil>80){ 
037F2:  MOVLB  1
037F4:  MOVF   x7D,W
037F6:  SUBLW  50
037F8:  BC    3838
....................       MediaMovil=80; 
037FA:  MOVLW  50
037FC:  MOVWF  x7D
....................       write_eeprom(24,80); 
037FE:  CLRF   FAA
03800:  MOVLW  18
03802:  MOVWF  FA9
03804:  MOVLW  50
03806:  MOVWF  FA8
03808:  BCF    FA6.6
0380A:  BCF    FA6.7
0380C:  BSF    FA6.2
0380E:  MOVF   FF2,W
03810:  MOVWF  00
03812:  BCF    FF2.6
03814:  BCF    FF2.7
03816:  MOVLB  F
03818:  MOVLW  55
0381A:  MOVWF  FA7
0381C:  MOVLW  AA
0381E:  MOVWF  FA7
03820:  BSF    FA6.1
03822:  BTFSC  FA6.1
03824:  BRA    3822
03826:  BCF    FA6.2
03828:  MOVF   00,W
0382A:  IORWF  FF2,F
....................       delay_ms(10); 
0382C:  MOVLW  0A
0382E:  MOVLB  6
03830:  MOVWF  x3D
03832:  MOVLB  0
03834:  CALL   1D06
....................    } 
....................    if(Tciclo>10){ 
03838:  MOVLB  6
0383A:  CLRF   x3B
0383C:  CLRF   x3A
0383E:  MOVLW  20
03840:  MOVWF  x39
03842:  MOVLW  82
03844:  MOVWF  x38
03846:  MOVFF  18D,63F
0384A:  MOVFF  18C,63E
0384E:  MOVFF  18B,63D
03852:  MOVFF  18A,63C
03856:  MOVLB  0
03858:  CALL   2362
0385C:  BNC   38A6
....................       Tciclo=10; 
0385E:  MOVLB  1
03860:  CLRF   x8D
03862:  CLRF   x8C
03864:  MOVLW  20
03866:  MOVWF  x8B
03868:  MOVLW  82
0386A:  MOVWF  x8A
....................       write_eeprom(25,10); 
0386C:  CLRF   FAA
0386E:  MOVLW  19
03870:  MOVWF  FA9
03872:  MOVLW  0A
03874:  MOVWF  FA8
03876:  BCF    FA6.6
03878:  BCF    FA6.7
0387A:  BSF    FA6.2
0387C:  MOVF   FF2,W
0387E:  MOVWF  00
03880:  BCF    FF2.6
03882:  BCF    FF2.7
03884:  MOVLB  F
03886:  MOVLW  55
03888:  MOVWF  FA7
0388A:  MOVLW  AA
0388C:  MOVWF  FA7
0388E:  BSF    FA6.1
03890:  BTFSC  FA6.1
03892:  BRA    3890
03894:  BCF    FA6.2
03896:  MOVF   00,W
03898:  IORWF  FF2,F
....................       delay_ms(10); 
0389A:  MOVLW  0A
0389C:  MOVLB  6
0389E:  MOVWF  x3D
038A0:  MOVLB  0
038A2:  CALL   1D06
....................    } 
....................    if(Integral>10.0){ 
038A6:  MOVLB  6
038A8:  CLRF   x47
038AA:  MOVFF  1D2,646
038AE:  MOVLB  0
038B0:  CALL   1CD0
038B4:  MOVLB  6
038B6:  CLRF   x3B
038B8:  CLRF   x3A
038BA:  MOVLW  20
038BC:  MOVWF  x39
038BE:  MOVLW  82
038C0:  MOVWF  x38
038C2:  MOVFF  03,63F
038C6:  MOVFF  02,63E
038CA:  MOVFF  01,63D
038CE:  MOVFF  00,63C
038D2:  MOVLB  0
038D4:  CALL   2362
038D8:  BNC   391A
....................       Integral=1.0; 
038DA:  MOVLW  01
038DC:  MOVLB  1
038DE:  MOVWF  xD2
....................       write_eeprom(26,1); 
038E0:  CLRF   FAA
038E2:  MOVLW  1A
038E4:  MOVWF  FA9
038E6:  MOVLW  01
038E8:  MOVWF  FA8
038EA:  BCF    FA6.6
038EC:  BCF    FA6.7
038EE:  BSF    FA6.2
038F0:  MOVF   FF2,W
038F2:  MOVWF  00
038F4:  BCF    FF2.6
038F6:  BCF    FF2.7
038F8:  MOVLB  F
038FA:  MOVLW  55
038FC:  MOVWF  FA7
038FE:  MOVLW  AA
03900:  MOVWF  FA7
03902:  BSF    FA6.1
03904:  BTFSC  FA6.1
03906:  BRA    3904
03908:  BCF    FA6.2
0390A:  MOVF   00,W
0390C:  IORWF  FF2,F
....................       delay_ms(10); 
0390E:  MOVLW  0A
03910:  MOVLB  6
03912:  MOVWF  x3D
03914:  MOVLB  0
03916:  CALL   1D06
....................    } 
....................    if(Derivativo>90.0){ 
0391A:  MOVLB  6
0391C:  CLRF   x47
0391E:  MOVFF  1D3,646
03922:  MOVLB  0
03924:  CALL   1CD0
03928:  MOVLB  6
0392A:  CLRF   x3B
0392C:  CLRF   x3A
0392E:  MOVLW  34
03930:  MOVWF  x39
03932:  MOVLW  85
03934:  MOVWF  x38
03936:  MOVFF  03,63F
0393A:  MOVFF  02,63E
0393E:  MOVFF  01,63D
03942:  MOVFF  00,63C
03946:  MOVLB  0
03948:  CALL   2362
0394C:  BNC   398E
....................       Derivativo=15.0; 
0394E:  MOVLW  0F
03950:  MOVLB  1
03952:  MOVWF  xD3
....................       write_eeprom(27,15); 
03954:  CLRF   FAA
03956:  MOVLW  1B
03958:  MOVWF  FA9
0395A:  MOVLW  0F
0395C:  MOVWF  FA8
0395E:  BCF    FA6.6
03960:  BCF    FA6.7
03962:  BSF    FA6.2
03964:  MOVF   FF2,W
03966:  MOVWF  00
03968:  BCF    FF2.6
0396A:  BCF    FF2.7
0396C:  MOVLB  F
0396E:  MOVLW  55
03970:  MOVWF  FA7
03972:  MOVLW  AA
03974:  MOVWF  FA7
03976:  BSF    FA6.1
03978:  BTFSC  FA6.1
0397A:  BRA    3978
0397C:  BCF    FA6.2
0397E:  MOVF   00,W
03980:  IORWF  FF2,F
....................       delay_ms(10); 
03982:  MOVLW  0A
03984:  MOVLB  6
03986:  MOVWF  x3D
03988:  MOVLB  0
0398A:  CALL   1D06
....................    } 
....................    /*if(Gain>50){ 
....................       Gain=40.2; 
....................       write_eeprom(28,40); 
....................       delay_ms(10); 
....................       write_eeprom(29,2); 
....................       delay_ms(10); 
....................    } 
....................    if(R1>6400){ 
....................       R1=6200; 
....................       write_eeprom(30,0x38); 
....................       delay_ms(10); 
....................       write_eeprom(31,0x18); 
....................       delay_ms(10); 
....................    } 
....................    */ 
....................    if(Sensor[0].RPT100>2.0){ 
0398E:  MOVLB  6
03990:  CLRF   x3B
03992:  CLRF   x3A
03994:  CLRF   x39
03996:  MOVLW  80
03998:  MOVWF  x38
0399A:  MOVFF  2B7,63F
0399E:  MOVFF  2B6,63E
039A2:  MOVFF  2B5,63D
039A6:  MOVFF  2B4,63C
039AA:  MOVLB  0
039AC:  CALL   2362
039B0:  BNC   3A30
....................       Sensor[0].RPT100=0.5; 
039B2:  MOVLB  2
039B4:  CLRF   xB7
039B6:  CLRF   xB6
039B8:  CLRF   xB5
039BA:  MOVLW  7E
039BC:  MOVWF  xB4
....................       write_eeprom(32,0); 
039BE:  CLRF   FAA
039C0:  MOVLW  20
039C2:  MOVWF  FA9
039C4:  CLRF   FA8
039C6:  BCF    FA6.6
039C8:  BCF    FA6.7
039CA:  BSF    FA6.2
039CC:  MOVF   FF2,W
039CE:  MOVWF  00
039D0:  BCF    FF2.6
039D2:  BCF    FF2.7
039D4:  MOVLB  F
039D6:  MOVLW  55
039D8:  MOVWF  FA7
039DA:  MOVLW  AA
039DC:  MOVWF  FA7
039DE:  BSF    FA6.1
039E0:  BTFSC  FA6.1
039E2:  BRA    39E0
039E4:  BCF    FA6.2
039E6:  MOVF   00,W
039E8:  IORWF  FF2,F
....................       delay_ms(10); 
039EA:  MOVLW  0A
039EC:  MOVLB  6
039EE:  MOVWF  x3D
039F0:  MOVLB  0
039F2:  CALL   1D06
....................       write_eeprom(33,5); 
039F6:  CLRF   FAA
039F8:  MOVLW  21
039FA:  MOVWF  FA9
039FC:  MOVLW  05
039FE:  MOVWF  FA8
03A00:  BCF    FA6.6
03A02:  BCF    FA6.7
03A04:  BSF    FA6.2
03A06:  MOVF   FF2,W
03A08:  MOVWF  00
03A0A:  BCF    FF2.6
03A0C:  BCF    FF2.7
03A0E:  MOVLB  F
03A10:  MOVLW  55
03A12:  MOVWF  FA7
03A14:  MOVLW  AA
03A16:  MOVWF  FA7
03A18:  BSF    FA6.1
03A1A:  BTFSC  FA6.1
03A1C:  BRA    3A1A
03A1E:  BCF    FA6.2
03A20:  MOVF   00,W
03A22:  IORWF  FF2,F
....................       delay_ms(10); 
03A24:  MOVLW  0A
03A26:  MOVLB  6
03A28:  MOVWF  x3D
03A2A:  MOVLB  0
03A2C:  CALL   1D06
....................    } 
....................    if(Ciclos>60000){ 
03A30:  MOVLB  1
03A32:  MOVF   xFE,W
03A34:  SUBLW  E9
03A36:  BC    3AB8
03A38:  XORLW  FF
03A3A:  BNZ   3A42
03A3C:  MOVF   xFD,W
03A3E:  SUBLW  60
03A40:  BC    3AB8
....................       Ciclos=0; 
03A42:  CLRF   xFE
03A44:  CLRF   xFD
....................       write_eeprom(37,0); 
03A46:  CLRF   FAA
03A48:  MOVLW  25
03A4A:  MOVWF  FA9
03A4C:  CLRF   FA8
03A4E:  BCF    FA6.6
03A50:  BCF    FA6.7
03A52:  BSF    FA6.2
03A54:  MOVF   FF2,W
03A56:  MOVWF  00
03A58:  BCF    FF2.6
03A5A:  BCF    FF2.7
03A5C:  MOVLB  F
03A5E:  MOVLW  55
03A60:  MOVWF  FA7
03A62:  MOVLW  AA
03A64:  MOVWF  FA7
03A66:  BSF    FA6.1
03A68:  BTFSC  FA6.1
03A6A:  BRA    3A68
03A6C:  BCF    FA6.2
03A6E:  MOVF   00,W
03A70:  IORWF  FF2,F
....................       delay_ms(10); 
03A72:  MOVLW  0A
03A74:  MOVLB  6
03A76:  MOVWF  x3D
03A78:  MOVLB  0
03A7A:  CALL   1D06
....................       write_eeprom(38,0); 
03A7E:  CLRF   FAA
03A80:  MOVLW  26
03A82:  MOVWF  FA9
03A84:  CLRF   FA8
03A86:  BCF    FA6.6
03A88:  BCF    FA6.7
03A8A:  BSF    FA6.2
03A8C:  MOVF   FF2,W
03A8E:  MOVWF  00
03A90:  BCF    FF2.6
03A92:  BCF    FF2.7
03A94:  MOVLB  F
03A96:  MOVLW  55
03A98:  MOVWF  FA7
03A9A:  MOVLW  AA
03A9C:  MOVWF  FA7
03A9E:  BSF    FA6.1
03AA0:  BTFSC  FA6.1
03AA2:  BRA    3AA0
03AA4:  BCF    FA6.2
03AA6:  MOVF   00,W
03AA8:  IORWF  FF2,F
....................       delay_ms(10); 
03AAA:  MOVLW  0A
03AAC:  MOVLB  6
03AAE:  MOVWF  x3D
03AB0:  MOVLB  0
03AB2:  CALL   1D06
03AB6:  MOVLB  1
....................    } 
....................    if(TTrampa>100){ 
03AB8:  MOVF   x81,W
03ABA:  SUBLW  64
03ABC:  BC    3AFC
....................       TTrampa=80; 
03ABE:  MOVLW  50
03AC0:  MOVWF  x81
....................       write_eeprom(39,80); 
03AC2:  CLRF   FAA
03AC4:  MOVLW  27
03AC6:  MOVWF  FA9
03AC8:  MOVLW  50
03ACA:  MOVWF  FA8
03ACC:  BCF    FA6.6
03ACE:  BCF    FA6.7
03AD0:  BSF    FA6.2
03AD2:  MOVF   FF2,W
03AD4:  MOVWF  00
03AD6:  BCF    FF2.6
03AD8:  BCF    FF2.7
03ADA:  MOVLB  F
03ADC:  MOVLW  55
03ADE:  MOVWF  FA7
03AE0:  MOVLW  AA
03AE2:  MOVWF  FA7
03AE4:  BSF    FA6.1
03AE6:  BTFSC  FA6.1
03AE8:  BRA    3AE6
03AEA:  BCF    FA6.2
03AEC:  MOVF   00,W
03AEE:  IORWF  FF2,F
....................       delay_ms(10); 
03AF0:  MOVLW  0A
03AF2:  MOVLB  6
03AF4:  MOVWF  x3D
03AF6:  MOVLB  0
03AF8:  CALL   1D06
....................    } 
....................    /*if(ActivaImpresion>1){ 
....................       ActivaImpresion=1; 
....................       write_eeprom(40,1); 
....................       delay_ms(10); 
....................    } 
....................    if(timpresion>30){ 
....................       timpresion=2; 
....................       write_eeprom(41,2); 
....................       delay_ms(10); 
....................    } 
....................    */ 
....................    if(sg1==10){ 
03AFC:  MOVLB  2
03AFE:  MOVF   x38,W
03B00:  SUBLW  0A
03B02:  BNZ   3B18
....................       G1=G1*(-1); 
03B04:  MOVFF  236,63B
03B08:  MOVLW  FF
03B0A:  MOVLB  6
03B0C:  MOVWF  x3C
03B0E:  MOVLB  0
03B10:  RCALL  36B2
03B12:  MOVFF  01,236
03B16:  MOVLB  2
....................    } 
....................    if(sg2==10){ 
03B18:  MOVF   x39,W
03B1A:  SUBLW  0A
03B1C:  BNZ   3B32
....................       G2=G2*(-1); 
03B1E:  MOVFF  237,63B
03B22:  MOVLW  FF
03B24:  MOVLB  6
03B26:  MOVWF  x3C
03B28:  MOVLB  0
03B2A:  RCALL  36B2
03B2C:  MOVFF  01,237
03B30:  MOVLB  2
....................    } 
.................... } 
03B32:  MOVLB  0
03B34:  GOTO   6E16 (RETURN)
....................  
.................... void LeeDisplay(void){ 
....................    if(Dato_Exitoso==5){ 
*
045D0:  MOVLB  1
045D2:  MOVF   xDB,W
045D4:  SUBLW  05
045D6:  BTFSS  FD8.2
045D8:  BRA    47BA
....................          RX_Buffer[0]=RX_Buffer2[0]; 
045DA:  MOVFF  3B,30
....................          RX_Buffer[1]=RX_Buffer2[1]; 
045DE:  MOVFF  3C,31
....................          RX_Buffer[2]=RX_Buffer2[2]; 
045E2:  MOVFF  3D,32
....................          RX_Buffer[3]=RX_Buffer2[3]; 
045E6:  MOVFF  3E,33
....................          RX_Buffer[4]=RX_Buffer2[4]; 
045EA:  MOVFF  3F,34
....................          RX_Buffer[5]=RX_Buffer2[5]; 
045EE:  MOVFF  40,35
....................          RX_Buffer[6]=RX_Buffer2[6]; 
045F2:  MOVFF  41,36
....................          RX_Buffer[7]=RX_Buffer2[7]; 
045F6:  MOVFF  42,37
....................          RX_Buffer[8]=RX_Buffer2[8]; 
045FA:  MOVFF  43,38
....................          RX_Buffer[9]=RX_Buffer2[9]; 
045FE:  MOVFF  44,39
....................           
....................       if(RX_Buffer[3]==0x01){// Pregunta por la pagina en la que esta el display,01 es Contrasea de Acceso 
04602:  DECFSZ 33,W
04604:  BRA    4614
....................          Menu=0; 
04606:  CLRF   xDD
....................          if(MenuAntt!=Menu) 
04608:  MOVF   xDD,W
0460A:  SUBWF  xDF,W
0460C:  BZ    4612
....................             MenuAntt=Menu; 
0460E:  MOVFF  1DD,1DF
....................       }else if(RX_Buffer[3]==0x02){//02 es Ciclos Fijos 
04612:  BRA    47BA
04614:  MOVF   33,W
04616:  SUBLW  02
04618:  BNZ   462A
....................          Menu=1; 
0461A:  MOVLW  01
0461C:  MOVWF  xDD
....................          if(MenuAntt!=Menu) 
0461E:  MOVF   xDD,W
04620:  SUBWF  xDF,W
04622:  BZ    4628
....................             MenuAntt=Menu; 
04624:  MOVFF  1DD,1DF
....................       }else if(RX_Buffer[3]==0x03){//03 es Tiempo Esterilizacion 
04628:  BRA    47BA
0462A:  MOVF   33,W
0462C:  SUBLW  03
0462E:  BNZ   4640
....................          Menu=2; 
04630:  MOVLW  02
04632:  MOVWF  xDD
....................          if(MenuAntt!=Menu) 
04634:  MOVF   xDD,W
04636:  SUBWF  xDF,W
04638:  BZ    463E
....................             MenuAntt=Menu; 
0463A:  MOVFF  1DD,1DF
....................       }else if(RX_Buffer[3]==0x04){//04 es Tiempo de Secado 
0463E:  BRA    47BA
04640:  MOVF   33,W
04642:  SUBLW  04
04644:  BNZ   4656
....................          Menu=3; 
04646:  MOVLW  03
04648:  MOVWF  xDD
....................          if(MenuAntt!=Menu) 
0464A:  MOVF   xDD,W
0464C:  SUBWF  xDF,W
0464E:  BZ    4654
....................             MenuAntt=Menu; 
04650:  MOVFF  1DD,1DF
....................       }else if(RX_Buffer[3]==0x05){//05 es Temperatura 
04654:  BRA    47BA
04656:  MOVF   33,W
04658:  SUBLW  05
0465A:  BNZ   466C
....................          Menu=4; 
0465C:  MOVLW  04
0465E:  MOVWF  xDD
....................          if(MenuAntt!=Menu) 
04660:  MOVF   xDD,W
04662:  SUBWF  xDF,W
04664:  BZ    466A
....................             MenuAntt=Menu; 
04666:  MOVFF  1DD,1DF
....................       }else if(RX_Buffer[3]==0x06){//06 es Nivel de Vacio 
0466A:  BRA    47BA
0466C:  MOVF   33,W
0466E:  SUBLW  06
04670:  BNZ   4682
....................          Menu=5; 
04672:  MOVLW  05
04674:  MOVWF  xDD
....................          if(MenuAntt!=Menu) 
04676:  MOVF   xDD,W
04678:  SUBWF  xDF,W
0467A:  BZ    4680
....................             MenuAntt=Menu; 
0467C:  MOVFF  1DD,1DF
....................       }else if(RX_Buffer[3]==0x07){//07 es Test de Componentes 
04680:  BRA    47BA
04682:  MOVF   33,W
04684:  SUBLW  07
04686:  BNZ   4698
....................          Menu=6; 
04688:  MOVLW  06
0468A:  MOVWF  xDD
....................          if(MenuAntt!=Menu) 
0468C:  MOVF   xDD,W
0468E:  SUBWF  xDF,W
04690:  BZ    4696
....................             MenuAntt=Menu; 
04692:  MOVFF  1DD,1DF
....................       }else if(RX_Buffer[3]==0x08){//08 es Fecha y hora 
04696:  BRA    47BA
04698:  MOVF   33,W
0469A:  SUBLW  08
0469C:  BNZ   46AE
....................          Menu=7; 
0469E:  MOVLW  07
046A0:  MOVWF  xDD
....................          if(MenuAntt!=Menu) 
046A2:  MOVF   xDD,W
046A4:  SUBWF  xDF,W
046A6:  BZ    46AC
....................             MenuAntt=Menu; 
046A8:  MOVFF  1DD,1DF
....................       }else if(RX_Buffer[3]==0x09){//09 es Ciclos Personalizados 
046AC:  BRA    47BA
046AE:  MOVF   33,W
046B0:  SUBLW  09
046B2:  BNZ   46C4
....................          Menu=8; 
046B4:  MOVLW  08
046B6:  MOVWF  xDD
....................          if(MenuAntt!=Menu) 
046B8:  MOVF   xDD,W
046BA:  SUBWF  xDF,W
046BC:  BZ    46C2
....................             MenuAntt=Menu; 
046BE:  MOVFF  1DD,1DF
....................       }else if(RX_Buffer[3]==0x0a){//0a es Pulsos de Vacio 
046C2:  BRA    47BA
046C4:  MOVF   33,W
046C6:  SUBLW  0A
046C8:  BNZ   46DA
....................          Menu=9; 
046CA:  MOVLW  09
046CC:  MOVWF  xDD
....................          if(MenuAntt!=Menu) 
046CE:  MOVF   xDD,W
046D0:  SUBWF  xDF,W
046D2:  BZ    46D8
....................             MenuAntt=Menu; 
046D4:  MOVFF  1DD,1DF
....................       }else if(RX_Buffer[3]==0x0b){//0b es Usuarios 
046D8:  BRA    47BA
046DA:  MOVF   33,W
046DC:  SUBLW  0B
046DE:  BNZ   46F0
....................          Menu=10; 
046E0:  MOVLW  0A
046E2:  MOVWF  xDD
....................          if(MenuAntt!=Menu) 
046E4:  MOVF   xDD,W
046E6:  SUBWF  xDF,W
046E8:  BZ    46EE
....................             MenuAntt=Menu; 
046EA:  MOVFF  1DD,1DF
....................       }else if(RX_Buffer[3]==0x0c){//0c es Configuraciones 
046EE:  BRA    47BA
046F0:  MOVF   33,W
046F2:  SUBLW  0C
046F4:  BNZ   4706
....................          Menu=11; 
046F6:  MOVLW  0B
046F8:  MOVWF  xDD
....................          if(MenuAntt!=Menu) 
046FA:  MOVF   xDD,W
046FC:  SUBWF  xDF,W
046FE:  BZ    4704
....................             MenuAntt=Menu; 
04700:  MOVFF  1DD,1DF
....................       }else if(RX_Buffer[3]==0x0d){//0d es Ciclos 
04704:  BRA    47BA
04706:  MOVF   33,W
04708:  SUBLW  0D
0470A:  BNZ   471C
....................          Menu=12; 
0470C:  MOVLW  0C
0470E:  MOVWF  xDD
....................          if(MenuAntt!=Menu) 
04710:  MOVF   xDD,W
04712:  SUBWF  xDF,W
04714:  BZ    471A
....................             MenuAntt=Menu; 
04716:  MOVFF  1DD,1DF
....................       }else if(RX_Buffer[3]==0x0e){//0d es Activacion de Ciclos 
0471A:  BRA    47BA
0471C:  MOVF   33,W
0471E:  SUBLW  0E
04720:  BNZ   4732
....................          Menu=14; 
04722:  MOVLW  0E
04724:  MOVWF  xDD
....................          if(MenuAntt!=Menu) 
04726:  MOVF   xDD,W
04728:  SUBWF  xDF,W
0472A:  BZ    4730
....................             MenuAntt=Menu; 
0472C:  MOVFF  1DD,1DF
....................       }else if(RX_Buffer[3]==0x10){//10 es Nivel de Desfogue 
04730:  BRA    47BA
04732:  MOVF   33,W
04734:  SUBLW  10
04736:  BNZ   4748
....................          Menu=13; 
04738:  MOVLW  0D
0473A:  MOVWF  xDD
....................          if(MenuAntt!=Menu) 
0473C:  MOVF   xDD,W
0473E:  SUBWF  xDF,W
04740:  BZ    4746
....................             MenuAntt=Menu; 
04742:  MOVFF  1DD,1DF
....................       }else if(RX_Buffer[3]==0x0f){//0f es Recibe caracteres de contrasea desde display 
04746:  BRA    47BA
04748:  MOVF   33,W
0474A:  SUBLW  0F
0474C:  BNZ   4750
....................           
....................       }else if(RX_Buffer[3]==0x1a){//1a es Menu de Funcionamiento 
0474E:  BRA    47BA
04750:  MOVF   33,W
04752:  SUBLW  1A
04754:  BNZ   4766
....................          Menu=20; 
04756:  MOVLW  14
04758:  MOVWF  xDD
....................          if(MenuAntt!=Menu) 
0475A:  MOVF   xDD,W
0475C:  SUBWF  xDF,W
0475E:  BZ    4764
....................             MenuAntt=Menu; 
04760:  MOVFF  1DD,1DF
....................       }else if(RX_Buffer[3]==0x1b){//1b es Menu de clave correcta 
04764:  BRA    47BA
04766:  MOVF   33,W
04768:  SUBLW  1B
0476A:  BNZ   477C
....................          Menu=15; 
0476C:  MOVLW  0F
0476E:  MOVWF  xDD
....................          if(MenuAntt!=Menu) 
04770:  MOVF   xDD,W
04772:  SUBWF  xDF,W
04774:  BZ    477A
....................             MenuAntt=Menu; 
04776:  MOVFF  1DD,1DF
....................       }else if(RX_Buffer[3]==0x1c){//1c es Menu de clave incorrecta 
0477A:  BRA    47BA
0477C:  MOVF   33,W
0477E:  SUBLW  1C
04780:  BNZ   4792
....................          Menu=16; 
04782:  MOVLW  10
04784:  MOVWF  xDD
....................          if(MenuAntt!=Menu) 
04786:  MOVF   xDD,W
04788:  SUBWF  xDF,W
0478A:  BZ    4790
....................             MenuAntt=Menu; 
0478C:  MOVFF  1DD,1DF
....................       }else if(RX_Buffer[3]==0x2c){//2c es Menu de Configuracion de Parametros 
04790:  BRA    47BA
04792:  MOVF   33,W
04794:  SUBLW  2C
04796:  BNZ   47A8
....................          Menu=100; 
04798:  MOVLW  64
0479A:  MOVWF  xDD
....................          if(MenuAntt!=Menu) 
0479C:  MOVF   xDD,W
0479E:  SUBWF  xDF,W
047A0:  BZ    47A6
....................             MenuAntt=Menu; 
047A2:  MOVFF  1DD,1DF
....................       }else if(RX_Buffer[3]==0xcc){//cc es Menu de Bienvenida 
047A6:  BRA    47BA
047A8:  MOVF   33,W
047AA:  SUBLW  CC
047AC:  BNZ   47BA
....................          Menu=240; 
047AE:  MOVLW  F0
047B0:  MOVWF  xDD
....................          if(MenuAntt!=240) 
047B2:  MOVF   xDF,W
047B4:  SUBLW  F0
047B6:  BZ    47BA
....................             reset_cpu(); 
047B8:  RESET
....................       } 
....................    } 
.................... } 
047BA:  MOVLB  0
047BC:  GOTO   6FF8 (RETURN)
....................  
.................... void ConfiguraCiclo(int8 este0,este1,este2,este3,secado0,secado1,secado2,secado3,liquidos,ciclo,temperatura){ 
....................    Testerilizacionp[0]=este0;Testerilizacionp[1]=este1;Testerilizacionp[2]=este2;Testerilizacionp[3]=este3; 
*
04C7A:  MOVFF  63E,9B
04C7E:  MOVFF  63F,9C
04C82:  MOVFF  640,9D
04C86:  MOVFF  641,9E
....................    Tsecadop[0]=secado0;Tsecadop[1]=secado1;Tsecadop[2]=secado2;Tsecadop[3]=secado3; 
04C8A:  MOVFF  642,A3
04C8E:  MOVFF  643,A4
04C92:  MOVFF  644,A5
04C96:  MOVFF  645,A6
....................    Setpoint=temperatura;                
04C9A:  MOVFF  648,1E7
....................    tiempo_secado=0; 
04C9E:  MOVLB  1
04CA0:  CLRF   xEB
....................    if(Tsecadop[3]==0 && Tsecadop[2]==0 || liquidos==1){ 
04CA2:  MOVLB  0
04CA4:  MOVF   xA6,F
04CA6:  BNZ   4CAC
04CA8:  MOVF   xA5,F
04CAA:  BZ    4CB4
04CAC:  MOVLB  6
04CAE:  DECFSZ x46,W
04CB0:  BRA    4CBA
04CB2:  MOVLB  0
....................       desfoguelento=1; 
04CB4:  BSF    x8C.3
....................    }else{ 
04CB6:  BRA    4CBE
04CB8:  MOVLB  6
....................       desfoguelento=0; 
04CBA:  MOVLB  0
04CBC:  BCF    x8C.3
....................    } 
....................    CicloSeleccionado=ciclo;   
04CBE:  MOVFF  647,1E3
....................    Testerilizacion[0]=Testerilizacionp[0];Testerilizacion[1]=Testerilizacionp[1];Testerilizacion[2]=Testerilizacionp[2];Testerilizacion[3]=Testerilizacionp[3]; 
04CC2:  MOVFF  9B,97
04CC6:  MOVFF  9C,98
04CCA:  MOVFF  9D,99
04CCE:  MOVFF  9E,9A
....................    Tsecado[0]=Tsecadop[0];Tsecado[1]=Tsecadop[1];Tsecado[2]=Tsecadop[2];Tsecado[3]=Tsecadop[3]; 
04CD2:  MOVFF  A3,9F
04CD6:  MOVFF  A4,A0
04CDA:  MOVFF  A5,A1
04CDE:  MOVFF  A6,A2
.................... } 
04CE2:  RETLW  00
....................  
.................... void ActivaAlarma(int8 Tipo){ 
....................     
....................    if(tsilencio>12000){ 
*
04A94:  MOVLB  2
04A96:  MOVF   x16,W
04A98:  SUBLW  2D
04A9A:  BC    4AAE
04A9C:  XORLW  FF
04A9E:  BNZ   4AA6
04AA0:  MOVF   x15,W
04AA2:  SUBLW  E0
04AA4:  BC    4AAE
....................       tsilencio=0; 
04AA6:  CLRF   x16
04AA8:  CLRF   x15
....................       flagSilencio=OFF; 
04AAA:  MOVLB  0
04AAC:  BCF    x8A.3
....................    } 
....................     
....................    if(Tipo==1){ // Alarma por Error 
04AAE:  MOVLB  6
04AB0:  DECFSZ x34,W
04AB2:  BRA    4B0A
....................    if(UP || DOWN || RIGHT || LEFT) 
04AB4:  BSF    F93.0
04AB6:  BTFSS  F81.0
04AB8:  BRA    4ACC
04ABA:  BSF    F93.1
04ABC:  BTFSS  F81.1
04ABE:  BRA    4ACC
04AC0:  BSF    F93.2
04AC2:  BTFSS  F81.2
04AC4:  BRA    4ACC
04AC6:  BSF    F93.3
04AC8:  BTFSC  F81.3
04ACA:  BRA    4AD0
....................       flagSilencio=ON; 
04ACC:  MOVLB  0
04ACE:  BSF    x8A.3
....................        
....................       if(!flagSilencio){ 
04AD0:  MOVLB  0
04AD2:  BTFSC  x8A.3
04AD4:  BRA    4B00
....................          flagAlarma=1; 
04AD6:  BSF    x8A.1
....................          if(tbuzzer>200){ 
04AD8:  MOVLB  2
04ADA:  MOVF   x14,F
04ADC:  BNZ   4AE4
04ADE:  MOVF   x13,W
04AE0:  SUBLW  C8
04AE2:  BC    4AFC
....................             tbuzzer=0; 
04AE4:  CLRF   x14
04AE6:  CLRF   x13
....................             flagBuzzer=!flagBuzzer; 
04AE8:  MOVLB  0
04AEA:  BTG    x8A.2
....................             if(flagBuzzer) 
04AEC:  BTFSS  x8A.2
04AEE:  BRA    4AF6
....................                Buzzer_on; 
04AF0:  BSF    F8C.0
04AF2:  BCF    F95.0
....................             else 
04AF4:  BRA    4AFA
....................                Buzzer_off; 
04AF6:  BCF    F8C.0
04AF8:  BCF    F95.0
04AFA:  MOVLB  2
....................          } 
....................       }else{ 
04AFC:  BRA    4B06
04AFE:  MOVLB  0
....................          Buzzer_off; 
04B00:  BCF    F8C.0
04B02:  BCF    F95.0
04B04:  MOVLB  2
....................       } 
....................    }else if(Tipo==2){  
04B06:  BRA    4B46
04B08:  MOVLB  6
04B0A:  MOVF   x34,W
04B0C:  SUBLW  02
04B0E:  BNZ   4B48
....................       flagAlarma=1; 
04B10:  MOVLB  0
04B12:  BSF    x8A.1
....................       if(ConteoBuzzer<20){    
04B14:  MOVLB  2
04B16:  MOVF   x0E,W
04B18:  SUBLW  13
04B1A:  BNC   4B42
....................          if(tbuzzer>100){ 
04B1C:  MOVF   x14,F
04B1E:  BNZ   4B26
04B20:  MOVF   x13,W
04B22:  SUBLW  64
04B24:  BC    4B40
....................             tbuzzer=0; 
04B26:  CLRF   x14
04B28:  CLRF   x13
....................             flagBuzzer=!flagBuzzer; 
04B2A:  MOVLB  0
04B2C:  BTG    x8A.2
....................             if(flagBuzzer) 
04B2E:  BTFSS  x8A.2
04B30:  BRA    4B38
....................                Buzzer_on; 
04B32:  BSF    F8C.0
04B34:  BCF    F95.0
....................             else 
04B36:  BRA    4B3C
....................                Buzzer_off; 
04B38:  BCF    F8C.0
04B3A:  BCF    F95.0
....................                 
....................             ConteoBuzzer++;    
04B3C:  MOVLB  2
04B3E:  INCF   x0E,F
....................          } 
....................       }else{ 
04B40:  BRA    4B46
....................          Buzzer_off; 
04B42:  BCF    F8C.0
04B44:  BCF    F95.0
04B46:  MOVLB  6
....................       } 
....................    } 
.................... } 
04B48:  MOVLB  0
04B4A:  RETLW  00
....................  
.................... void ApagaSalidas(){ 
....................    Desfogue_off; 
*
03BA0:  BCF    F8C.4
03BA2:  BCF    F95.4
....................    Paso_off; 
03BA4:  BCF    F8C.5
03BA6:  BCF    F95.5
....................    Buzzer_off; 
03BA8:  BCF    F8C.0
03BAA:  BCF    F95.0
....................    Agua_off; 
03BAC:  BCF    F8C.6
03BAE:  BCF    F95.6
....................    SSR_off; 
03BB0:  BSF    F8B.2
03BB2:  BCF    F94.2
....................    Controlando=0; 
03BB4:  MOVLB  1
03BB6:  CLRF   xD7
.................... } 
03BB8:  MOVLB  0
03BBA:  RETLW  00
....................  
.................... void ControlaPresion(){ 
....................    if(PresionPrecamara>=150){ 
*
068DC:  MOVLB  1
068DE:  MOVF   xFC,F
068E0:  BNZ   68E8
068E2:  MOVF   xFB,W
068E4:  SUBLW  95
068E6:  BC    68EE
....................       //SSR_off; 
....................       Precalentamiento=ON; 
068E8:  MOVLB  0
068EA:  BSF    x8B.3
068EC:  MOVLB  1
....................    } 
....................    //if(PresionPrecamara<130) 
....................       //SSR_on; 
.................... } 
068EE:  MOVLB  0
068F0:  GOTO   CB94 (RETURN)
....................  
.................... void GuardaDatoEstatico(){ 
*
05BF0:  MOVLB  6
05BF2:  CLRF   x35
05BF4:  CLRF   x34
05BF6:  CLRF   x37
05BF8:  CLRF   x36
....................    int16 posCiclo=0,cicloMemoria=0; 
....................    posCiclo=Ciclos/200; 
05BFA:  MOVFF  1FE,639
05BFE:  MOVFF  1FD,638
05C02:  CLRF   x3B
05C04:  MOVLW  C8
05C06:  MOVWF  x3A
05C08:  MOVLB  0
05C0A:  CALL   4FF6
05C0E:  MOVFF  02,635
05C12:  MOVFF  01,634
....................    cicloMemoria=Ciclos-(posCiclo*200); 
05C16:  MOVFF  635,63D
05C1A:  MOVFF  634,63C
05C1E:  MOVLB  6
05C20:  CLRF   x3F
05C22:  MOVLW  C8
05C24:  MOVWF  x3E
05C26:  MOVLB  0
05C28:  CALL   2178
05C2C:  MOVF   01,W
05C2E:  MOVLB  1
05C30:  SUBWF  xFD,W
05C32:  MOVLB  6
05C34:  MOVWF  x36
05C36:  MOVF   02,W
05C38:  MOVLB  1
05C3A:  SUBWFB xFE,W
05C3C:  MOVLB  6
05C3E:  MOVWF  x37
....................    if(!disp_Guarda){ 
05C40:  MOVLB  0
05C42:  BTFSC  x88.6
05C44:  BRA    5DDA
....................       write_ext_eeprom(cicloMemoria*320,codigoUsuario); 
05C46:  MOVFF  637,63D
05C4A:  MOVFF  636,63C
05C4E:  MOVLW  01
05C50:  MOVLB  6
05C52:  MOVWF  x3F
05C54:  MOVLW  40
05C56:  MOVWF  x3E
05C58:  MOVLB  0
05C5A:  CALL   2178
05C5E:  MOVFF  02,639
05C62:  MOVFF  01,638
05C66:  MOVFF  02,63C
05C6A:  MOVFF  01,63B
05C6E:  MOVFF  234,63D
05C72:  RCALL  5ADE
....................       delay_ms(10); 
05C74:  MOVLW  0A
05C76:  MOVLB  6
05C78:  MOVWF  x3D
05C7A:  MOVLB  0
05C7C:  CALL   1D06
....................       if(!Libre) 
05C80:  BTFSC  x8B.0
05C82:  BRA    5CBE
....................          write_ext_eeprom(1+(cicloMemoria*320),CicloSeleccionado); 
05C84:  MOVFF  637,63D
05C88:  MOVFF  636,63C
05C8C:  MOVLW  01
05C8E:  MOVLB  6
05C90:  MOVWF  x3F
05C92:  MOVLW  40
05C94:  MOVWF  x3E
05C96:  MOVLB  0
05C98:  CALL   2178
05C9C:  MOVFF  02,03
05CA0:  MOVF   01,W
05CA2:  ADDLW  01
05CA4:  MOVLB  6
05CA6:  MOVWF  x38
05CA8:  MOVLW  00
05CAA:  ADDWFC 02,W
05CAC:  MOVWF  x39
05CAE:  MOVWF  x3C
05CB0:  MOVFF  638,63B
05CB4:  MOVFF  1E3,63D
05CB8:  MOVLB  0
05CBA:  RCALL  5ADE
....................       else 
05CBC:  BRA    5D00
....................          write_ext_eeprom(1+(cicloMemoria*320),CicloLibre+10); 
05CBE:  MOVFF  637,63D
05CC2:  MOVFF  636,63C
05CC6:  MOVLW  01
05CC8:  MOVLB  6
05CCA:  MOVWF  x3F
05CCC:  MOVLW  40
05CCE:  MOVWF  x3E
05CD0:  MOVLB  0
05CD2:  CALL   2178
05CD6:  MOVFF  02,03
05CDA:  MOVF   01,W
05CDC:  ADDLW  01
05CDE:  MOVLB  6
05CE0:  MOVWF  x38
05CE2:  MOVLW  00
05CE4:  ADDWFC 02,W
05CE6:  MOVWF  x39
05CE8:  MOVLW  0A
05CEA:  MOVLB  2
05CEC:  ADDWF  x31,W
05CEE:  MOVLB  6
05CF0:  MOVWF  x3A
05CF2:  MOVFF  639,63C
05CF6:  MOVFF  638,63B
05CFA:  MOVWF  x3D
05CFC:  MOVLB  0
05CFE:  RCALL  5ADE
....................       delay_ms(10); 
05D00:  MOVLW  0A
05D02:  MOVLB  6
05D04:  MOVWF  x3D
05D06:  MOVLB  0
05D08:  CALL   1D06
....................       write_ext_eeprom(2+(cicloMemoria*320),Dia); 
05D0C:  MOVFF  637,63D
05D10:  MOVFF  636,63C
05D14:  MOVLW  01
05D16:  MOVLB  6
05D18:  MOVWF  x3F
05D1A:  MOVLW  40
05D1C:  MOVWF  x3E
05D1E:  MOVLB  0
05D20:  CALL   2178
05D24:  MOVFF  02,03
05D28:  MOVF   01,W
05D2A:  ADDLW  02
05D2C:  MOVLB  6
05D2E:  MOVWF  x38
05D30:  MOVLW  00
05D32:  ADDWFC 02,W
05D34:  MOVWF  x39
05D36:  MOVWF  x3C
05D38:  MOVFF  638,63B
05D3C:  MOVFF  21D,63D
05D40:  MOVLB  0
05D42:  RCALL  5ADE
....................       delay_ms(10); 
05D44:  MOVLW  0A
05D46:  MOVLB  6
05D48:  MOVWF  x3D
05D4A:  MOVLB  0
05D4C:  CALL   1D06
....................       write_ext_eeprom(3+(cicloMemoria*320),Mes); 
05D50:  MOVFF  637,63D
05D54:  MOVFF  636,63C
05D58:  MOVLW  01
05D5A:  MOVLB  6
05D5C:  MOVWF  x3F
05D5E:  MOVLW  40
05D60:  MOVWF  x3E
05D62:  MOVLB  0
05D64:  CALL   2178
05D68:  MOVFF  02,03
05D6C:  MOVF   01,W
05D6E:  ADDLW  03
05D70:  MOVLB  6
05D72:  MOVWF  x38
05D74:  MOVLW  00
05D76:  ADDWFC 02,W
05D78:  MOVWF  x39
05D7A:  MOVWF  x3C
05D7C:  MOVFF  638,63B
05D80:  MOVFF  21C,63D
05D84:  MOVLB  0
05D86:  RCALL  5ADE
....................       delay_ms(10); 
05D88:  MOVLW  0A
05D8A:  MOVLB  6
05D8C:  MOVWF  x3D
05D8E:  MOVLB  0
05D90:  CALL   1D06
....................       write_ext_eeprom(4+(cicloMemoria*320),Year); 
05D94:  MOVFF  637,63D
05D98:  MOVFF  636,63C
05D9C:  MOVLW  01
05D9E:  MOVLB  6
05DA0:  MOVWF  x3F
05DA2:  MOVLW  40
05DA4:  MOVWF  x3E
05DA6:  MOVLB  0
05DA8:  CALL   2178
05DAC:  MOVFF  02,03
05DB0:  MOVF   01,W
05DB2:  ADDLW  04
05DB4:  MOVLB  6
05DB6:  MOVWF  x38
05DB8:  MOVLW  00
05DBA:  ADDWFC 02,W
05DBC:  MOVWF  x39
05DBE:  MOVWF  x3C
05DC0:  MOVFF  638,63B
05DC4:  MOVFF  21B,63D
05DC8:  MOVLB  0
05DCA:  RCALL  5ADE
....................       delay_ms(10);  
05DCC:  MOVLW  0A
05DCE:  MOVLB  6
05DD0:  MOVWF  x3D
05DD2:  MOVLB  0
05DD4:  CALL   1D06
....................       disp_Guarda=1; 
05DD8:  BSF    x88.6
....................    }    
.................... } 
05DDA:  GOTO   C2D0 (RETURN)
....................  
.................... void GuardaDatoCiclo(){ 
*
05EA8:  MOVLB  6
05EAA:  CLRF   x35
05EAC:  CLRF   x34
05EAE:  CLRF   x37
05EB0:  CLRF   x36
....................    int16 posCiclo=0,cicloMemoria=0; 
....................    posCiclo=Ciclos/200; 
05EB2:  MOVFF  1FE,639
05EB6:  MOVFF  1FD,638
05EBA:  CLRF   x3B
05EBC:  MOVLW  C8
05EBE:  MOVWF  x3A
05EC0:  MOVLB  0
05EC2:  CALL   4FF6
05EC6:  MOVFF  02,635
05ECA:  MOVFF  01,634
....................    if(!Ciclo){ 
05ECE:  BTFSC  x88.7
05ED0:  BRA    6248
....................       cicloMemoria=Ciclos-(posCiclo*200); 
05ED2:  MOVFF  635,63D
05ED6:  MOVFF  634,63C
05EDA:  MOVLB  6
05EDC:  CLRF   x3F
05EDE:  MOVLW  C8
05EE0:  MOVWF  x3E
05EE2:  MOVLB  0
05EE4:  CALL   2178
05EE8:  MOVF   01,W
05EEA:  MOVLB  1
05EEC:  SUBWF  xFD,W
05EEE:  MOVLB  6
05EF0:  MOVWF  x36
05EF2:  MOVF   02,W
05EF4:  MOVLB  1
05EF6:  SUBWFB xFE,W
05EF8:  MOVLB  6
05EFA:  MOVWF  x37
....................       write_ext_eeprom(5+(cicloMemoria*320)+(posicionDato*9),(int8)Temperatura); 
05EFC:  MOVFF  637,63D
05F00:  MOVFF  636,63C
05F04:  MOVLW  01
05F06:  MOVWF  x3F
05F08:  MOVLW  40
05F0A:  MOVWF  x3E
05F0C:  MOVLB  0
05F0E:  CALL   2178
05F12:  MOVFF  02,03
05F16:  MOVF   01,W
05F18:  ADDLW  05
05F1A:  MOVLB  6
05F1C:  MOVWF  x38
05F1E:  MOVLW  00
05F20:  ADDWFC 02,W
05F22:  MOVWF  x39
05F24:  MOVLB  2
05F26:  MOVF   x0F,W
05F28:  MULLW  09
05F2A:  MOVF   FF3,W
05F2C:  MOVLB  6
05F2E:  ADDWF  x38,F
05F30:  MOVLW  00
05F32:  ADDWFC x39,F
05F34:  MOVFF  1C1,649
05F38:  MOVFF  1C0,648
05F3C:  MOVFF  1BF,647
05F40:  MOVFF  1BE,646
05F44:  MOVLB  0
05F46:  CALL   4A58
05F4A:  MOVFF  01,63A
05F4E:  MOVFF  639,63C
05F52:  MOVFF  638,63B
05F56:  MOVFF  01,63D
05F5A:  RCALL  5ADE
....................       delay_ms(10); 
05F5C:  MOVLW  0A
05F5E:  MOVLB  6
05F60:  MOVWF  x3D
05F62:  MOVLB  0
05F64:  CALL   1D06
....................       write_ext_eeprom(6+(cicloMemoria*320)+(posicionDato*9),extraeDecimal(Temperatura)); 
05F68:  MOVFF  637,63D
05F6C:  MOVFF  636,63C
05F70:  MOVLW  01
05F72:  MOVLB  6
05F74:  MOVWF  x3F
05F76:  MOVLW  40
05F78:  MOVWF  x3E
05F7A:  MOVLB  0
05F7C:  CALL   2178
05F80:  MOVFF  02,03
05F84:  MOVF   01,W
05F86:  ADDLW  06
05F88:  MOVLB  6
05F8A:  MOVWF  x38
05F8C:  MOVLW  00
05F8E:  ADDWFC 02,W
05F90:  MOVWF  x39
05F92:  MOVLB  2
05F94:  MOVF   x0F,W
05F96:  MULLW  09
05F98:  MOVF   FF3,W
05F9A:  MOVLB  6
05F9C:  ADDWF  x38,F
05F9E:  MOVLW  00
05FA0:  ADDWFC x39,F
05FA2:  MOVFF  1C1,63D
05FA6:  MOVFF  1C0,63C
05FAA:  MOVFF  1BF,63B
05FAE:  MOVFF  1BE,63A
05FB2:  MOVLB  0
05FB4:  BRA    5DDE
05FB6:  MOVFF  01,63A
05FBA:  MOVFF  639,63C
05FBE:  MOVFF  638,63B
05FC2:  MOVFF  01,63D
05FC6:  RCALL  5ADE
....................       delay_ms(10); 
05FC8:  MOVLW  0A
05FCA:  MOVLB  6
05FCC:  MOVWF  x3D
05FCE:  MOVLB  0
05FD0:  CALL   1D06
....................       write_ext_eeprom(7+(cicloMemoria*320)+(posicionDato*9),make8(PresionCamara,1)); 
05FD4:  MOVFF  637,63D
05FD8:  MOVFF  636,63C
05FDC:  MOVLW  01
05FDE:  MOVLB  6
05FE0:  MOVWF  x3F
05FE2:  MOVLW  40
05FE4:  MOVWF  x3E
05FE6:  MOVLB  0
05FE8:  CALL   2178
05FEC:  MOVFF  02,03
05FF0:  MOVF   01,W
05FF2:  ADDLW  07
05FF4:  MOVLB  6
05FF6:  MOVWF  x38
05FF8:  MOVLW  00
05FFA:  ADDWFC 02,W
05FFC:  MOVWF  x39
05FFE:  MOVLB  2
06000:  MOVF   x0F,W
06002:  MULLW  09
06004:  MOVF   FF3,W
06006:  MOVLB  6
06008:  ADDWF  x38,F
0600A:  MOVLW  00
0600C:  ADDWFC x39,F
0600E:  MOVFF  1FA,63A
06012:  MOVFF  639,63C
06016:  MOVFF  638,63B
0601A:  MOVFF  1FA,63D
0601E:  MOVLB  0
06020:  RCALL  5ADE
....................       delay_ms(10); 
06022:  MOVLW  0A
06024:  MOVLB  6
06026:  MOVWF  x3D
06028:  MOVLB  0
0602A:  CALL   1D06
....................       write_ext_eeprom(8+(cicloMemoria*320)+(posicionDato*9),make8(PresionCamara,0)); 
0602E:  MOVFF  637,63D
06032:  MOVFF  636,63C
06036:  MOVLW  01
06038:  MOVLB  6
0603A:  MOVWF  x3F
0603C:  MOVLW  40
0603E:  MOVWF  x3E
06040:  MOVLB  0
06042:  CALL   2178
06046:  MOVFF  02,03
0604A:  MOVF   01,W
0604C:  ADDLW  08
0604E:  MOVLB  6
06050:  MOVWF  x38
06052:  MOVLW  00
06054:  ADDWFC 02,W
06056:  MOVWF  x39
06058:  MOVLB  2
0605A:  MOVF   x0F,W
0605C:  MULLW  09
0605E:  MOVF   FF3,W
06060:  MOVLB  6
06062:  ADDWF  x38,F
06064:  MOVLW  00
06066:  ADDWFC x39,F
06068:  MOVFF  1F9,63A
0606C:  MOVFF  639,63C
06070:  MOVFF  638,63B
06074:  MOVFF  1F9,63D
06078:  MOVLB  0
0607A:  RCALL  5ADE
....................       delay_ms(10); 
0607C:  MOVLW  0A
0607E:  MOVLB  6
06080:  MOVWF  x3D
06082:  MOVLB  0
06084:  CALL   1D06
....................       write_ext_eeprom(9+(cicloMemoria*320)+(posicionDato*9),make8(PresionPreCamara,1)); 
06088:  MOVFF  637,63D
0608C:  MOVFF  636,63C
06090:  MOVLW  01
06092:  MOVLB  6
06094:  MOVWF  x3F
06096:  MOVLW  40
06098:  MOVWF  x3E
0609A:  MOVLB  0
0609C:  CALL   2178
060A0:  MOVFF  02,03
060A4:  MOVF   01,W
060A6:  ADDLW  09
060A8:  MOVLB  6
060AA:  MOVWF  x38
060AC:  MOVLW  00
060AE:  ADDWFC 02,W
060B0:  MOVWF  x39
060B2:  MOVLB  2
060B4:  MOVF   x0F,W
060B6:  MULLW  09
060B8:  MOVF   FF3,W
060BA:  MOVLB  6
060BC:  ADDWF  x38,F
060BE:  MOVLW  00
060C0:  ADDWFC x39,F
060C2:  MOVFF  1FC,63A
060C6:  MOVFF  639,63C
060CA:  MOVFF  638,63B
060CE:  MOVFF  1FC,63D
060D2:  MOVLB  0
060D4:  RCALL  5ADE
....................       delay_ms(10); 
060D6:  MOVLW  0A
060D8:  MOVLB  6
060DA:  MOVWF  x3D
060DC:  MOVLB  0
060DE:  CALL   1D06
....................       write_ext_eeprom(10+(cicloMemoria*320)+(posicionDato*9),make8(PresionPreCamara,0)); 
060E2:  MOVFF  637,63D
060E6:  MOVFF  636,63C
060EA:  MOVLW  01
060EC:  MOVLB  6
060EE:  MOVWF  x3F
060F0:  MOVLW  40
060F2:  MOVWF  x3E
060F4:  MOVLB  0
060F6:  CALL   2178
060FA:  MOVFF  02,03
060FE:  MOVF   01,W
06100:  ADDLW  0A
06102:  MOVLB  6
06104:  MOVWF  x38
06106:  MOVLW  00
06108:  ADDWFC 02,W
0610A:  MOVWF  x39
0610C:  MOVLB  2
0610E:  MOVF   x0F,W
06110:  MULLW  09
06112:  MOVF   FF3,W
06114:  MOVLB  6
06116:  ADDWF  x38,F
06118:  MOVLW  00
0611A:  ADDWFC x39,F
0611C:  MOVFF  1FB,63A
06120:  MOVFF  639,63C
06124:  MOVFF  638,63B
06128:  MOVFF  1FB,63D
0612C:  MOVLB  0
0612E:  RCALL  5ADE
....................       delay_ms(10); 
06130:  MOVLW  0A
06132:  MOVLB  6
06134:  MOVWF  x3D
06136:  MOVLB  0
06138:  CALL   1D06
....................       write_ext_eeprom(11+(cicloMemoria*320)+(posicionDato*9),Hora); 
0613C:  MOVFF  637,63D
06140:  MOVFF  636,63C
06144:  MOVLW  01
06146:  MOVLB  6
06148:  MOVWF  x3F
0614A:  MOVLW  40
0614C:  MOVWF  x3E
0614E:  MOVLB  0
06150:  CALL   2178
06154:  MOVFF  02,03
06158:  MOVF   01,W
0615A:  ADDLW  0B
0615C:  MOVLB  6
0615E:  MOVWF  x38
06160:  MOVLW  00
06162:  ADDWFC 02,W
06164:  MOVWF  x39
06166:  MOVLB  2
06168:  MOVF   x0F,W
0616A:  MULLW  09
0616C:  MOVF   FF3,W
0616E:  MOVLB  6
06170:  ADDWF  x38,F
06172:  MOVLW  00
06174:  ADDWFC x39,F
06176:  MOVFF  639,63C
0617A:  MOVFF  638,63B
0617E:  MOVFF  21E,63D
06182:  MOVLB  0
06184:  RCALL  5ADE
....................       delay_ms(10); 
06186:  MOVLW  0A
06188:  MOVLB  6
0618A:  MOVWF  x3D
0618C:  MOVLB  0
0618E:  CALL   1D06
....................       write_ext_eeprom(12+(cicloMemoria*320)+(posicionDato*9),Minuto); 
06192:  MOVFF  637,63D
06196:  MOVFF  636,63C
0619A:  MOVLW  01
0619C:  MOVLB  6
0619E:  MOVWF  x3F
061A0:  MOVLW  40
061A2:  MOVWF  x3E
061A4:  MOVLB  0
061A6:  CALL   2178
061AA:  MOVFF  02,03
061AE:  MOVF   01,W
061B0:  ADDLW  0C
061B2:  MOVLB  6
061B4:  MOVWF  x38
061B6:  MOVLW  00
061B8:  ADDWFC 02,W
061BA:  MOVWF  x39
061BC:  MOVLB  2
061BE:  MOVF   x0F,W
061C0:  MULLW  09
061C2:  MOVF   FF3,W
061C4:  MOVLB  6
061C6:  ADDWF  x38,F
061C8:  MOVLW  00
061CA:  ADDWFC x39,F
061CC:  MOVFF  639,63C
061D0:  MOVFF  638,63B
061D4:  MOVFF  21F,63D
061D8:  MOVLB  0
061DA:  RCALL  5ADE
....................       delay_ms(10); 
061DC:  MOVLW  0A
061DE:  MOVLB  6
061E0:  MOVWF  x3D
061E2:  MOVLB  0
061E4:  CALL   1D06
....................       write_ext_eeprom(13+(cicloMemoria*320)+(posicionDato*9),codigoAlarma); 
061E8:  MOVFF  637,63D
061EC:  MOVFF  636,63C
061F0:  MOVLW  01
061F2:  MOVLB  6
061F4:  MOVWF  x3F
061F6:  MOVLW  40
061F8:  MOVWF  x3E
061FA:  MOVLB  0
061FC:  CALL   2178
06200:  MOVFF  02,03
06204:  MOVF   01,W
06206:  ADDLW  0D
06208:  MOVLB  6
0620A:  MOVWF  x38
0620C:  MOVLW  00
0620E:  ADDWFC 02,W
06210:  MOVWF  x39
06212:  MOVLB  2
06214:  MOVF   x0F,W
06216:  MULLW  09
06218:  MOVF   FF3,W
0621A:  MOVLB  6
0621C:  ADDWF  x38,F
0621E:  MOVLW  00
06220:  ADDWFC x39,F
06222:  MOVFF  639,63C
06226:  MOVFF  638,63B
0622A:  MOVFF  210,63D
0622E:  MOVLB  0
06230:  RCALL  5ADE
....................       delay_ms(10); 
06232:  MOVLW  0A
06234:  MOVLB  6
06236:  MOVWF  x3D
06238:  MOVLB  0
0623A:  CALL   1D06
....................     
....................       if(posicionDato<35) 
0623E:  MOVLB  2
06240:  MOVF   x0F,W
06242:  SUBLW  22
06244:  BNC   6248
....................          ++posicionDato; 
06246:  INCF   x0F,F
06248:  MOVLB  0
....................    } 
.................... } 
0624A:  RETLW  00
....................  
.................... void incrementaCiclos(){ 
....................    if(!Ciclo){ 
0624C:  BTFSC  x88.7
0624E:  BRA    62D6
....................       Ciclo=ON; 
06250:  BSF    x88.7
....................       Ciclos++; 
06252:  MOVLB  1
06254:  INCF   xFD,F
06256:  BTFSC  FD8.2
06258:  INCF   xFE,F
....................       CiclosL=make8(Ciclos,0); 
0625A:  MOVFF  1FD,1E1
....................       CiclosH=make8(Ciclos,1); 
0625E:  MOVFF  1FE,1E2
....................       write_eeprom(37,CiclosL); 
06262:  CLRF   FAA
06264:  MOVLW  25
06266:  MOVWF  FA9
06268:  MOVFF  1E1,FA8
0626C:  BCF    FA6.6
0626E:  BCF    FA6.7
06270:  BSF    FA6.2
06272:  MOVF   FF2,W
06274:  MOVWF  00
06276:  BCF    FF2.6
06278:  BCF    FF2.7
0627A:  MOVLB  F
0627C:  MOVLW  55
0627E:  MOVWF  FA7
06280:  MOVLW  AA
06282:  MOVWF  FA7
06284:  BSF    FA6.1
06286:  BTFSC  FA6.1
06288:  BRA    6286
0628A:  BCF    FA6.2
0628C:  MOVF   00,W
0628E:  IORWF  FF2,F
....................       delay_ms(20); 
06290:  MOVLW  14
06292:  MOVLB  6
06294:  MOVWF  x3D
06296:  MOVLB  0
06298:  CALL   1D06
....................       write_eeprom(38,CiclosH); 
0629C:  CLRF   FAA
0629E:  MOVLW  26
062A0:  MOVWF  FA9
062A2:  MOVFF  1E2,FA8
062A6:  BCF    FA6.6
062A8:  BCF    FA6.7
062AA:  BSF    FA6.2
062AC:  MOVF   FF2,W
062AE:  MOVWF  00
062B0:  BCF    FF2.6
062B2:  BCF    FF2.7
062B4:  MOVLB  F
062B6:  MOVLW  55
062B8:  MOVWF  FA7
062BA:  MOVLW  AA
062BC:  MOVWF  FA7
062BE:  BSF    FA6.1
062C0:  BTFSC  FA6.1
062C2:  BRA    62C0
062C4:  BCF    FA6.2
062C6:  MOVF   00,W
062C8:  IORWF  FF2,F
....................       delay_ms(20); 
062CA:  MOVLW  14
062CC:  MOVLB  6
062CE:  MOVWF  x3D
062D0:  MOVLB  0
062D2:  CALL   1D06
....................    } 
.................... } 
062D6:  RETLW  00
....................  
.................... void exportarData(){ 
*
0520E:  MOVLB  6
05210:  CLRF   x35
05212:  CLRF   x34
05214:  CLRF   x36
.................... int16 posicion=0; 
.................... int8 tmp=0; 
.................... posicion=0; 
05216:  CLRF   x35
05218:  CLRF   x34
.................... direccion=0xB0; 
0521A:  MOVLW  B0
0521C:  MOVLB  0
0521E:  MOVWF  x68
.................... Buzzer_on; 
05220:  BSF    F8C.0
05222:  BCF    F95.0
.................... //Inicio de Transmision 
.................... i2c_start();            // Comienzo comunicacin 
05224:  BSF    F94.4
05226:  MOVLW  05
05228:  MOVWF  00
0522A:  DECFSZ 00,F
0522C:  BRA    522A
0522E:  BSF    F94.3
05230:  MOVLW  06
05232:  MOVWF  00
05234:  DECFSZ 00,F
05236:  BRA    5234
05238:  BCF    F8B.4
0523A:  BCF    F94.4
0523C:  MOVLW  05
0523E:  MOVWF  00
05240:  DECFSZ 00,F
05242:  BRA    5240
05244:  BCF    F8B.3
05246:  BCF    F94.3
.................... i2c_write(direccion);   // Direccin del esclavo en el bus I2C 
05248:  MOVFF  68,641
0524C:  CALL   219A
.................... i2c_write(make8(posicion,0));    // Posicin donde se guardara el dato transmitido 
05250:  MOVFF  634,637
05254:  MOVFF  634,641
05258:  CALL   219A
.................... i2c_write(make8(posicion,1));    // Posicin donde se guardara el dato transmitido 
0525C:  MOVFF  635,637
05260:  MOVFF  635,641
05264:  CALL   219A
.................... i2c_write(0xff);        // Dato a transmitir 
05268:  MOVLW  FF
0526A:  MOVLB  6
0526C:  MOVWF  x41
0526E:  MOVLB  0
05270:  CALL   219A
.................... i2c_stop(); 
05274:  BCF    F94.4
05276:  NOP   
05278:  BSF    F94.3
0527A:  BTFSS  F82.3
0527C:  BRA    527A
0527E:  MOVLW  05
05280:  MOVWF  00
05282:  DECFSZ 00,F
05284:  BRA    5282
05286:  BRA    5288
05288:  NOP   
0528A:  BSF    F94.4
0528C:  MOVLW  05
0528E:  MOVWF  00
05290:  DECFSZ 00,F
05292:  BRA    5290
.................... ++posicion; 
05294:  MOVLB  6
05296:  INCF   x34,F
05298:  BTFSC  FD8.2
0529A:  INCF   x35,F
.................... i2c_start();            // Comienzo comunicacin 
0529C:  BSF    F94.4
0529E:  MOVLW  05
052A0:  MOVWF  00
052A2:  DECFSZ 00,F
052A4:  BRA    52A2
052A6:  BSF    F94.3
052A8:  MOVLW  06
052AA:  MOVWF  00
052AC:  DECFSZ 00,F
052AE:  BRA    52AC
052B0:  BCF    F8B.4
052B2:  BCF    F94.4
052B4:  MOVLW  05
052B6:  MOVWF  00
052B8:  DECFSZ 00,F
052BA:  BRA    52B8
052BC:  BCF    F8B.3
052BE:  BCF    F94.3
.................... i2c_write(direccion);   // Direccin del esclavo en el bus I2C 
052C0:  MOVFF  68,641
052C4:  MOVLB  0
052C6:  CALL   219A
.................... i2c_write(make8(posicion,0));    // Posicin donde se guardara el dato transmitido 
052CA:  MOVFF  634,637
052CE:  MOVFF  634,641
052D2:  CALL   219A
.................... i2c_write(make8(posicion,1));    // Posicin donde se guardara el dato transmitido 
052D6:  MOVFF  635,637
052DA:  MOVFF  635,641
052DE:  CALL   219A
.................... i2c_write(0xff);        // Dato a transmitir 
052E2:  MOVLW  FF
052E4:  MOVLB  6
052E6:  MOVWF  x41
052E8:  MOVLB  0
052EA:  CALL   219A
.................... i2c_stop(); 
052EE:  BCF    F94.4
052F0:  NOP   
052F2:  BSF    F94.3
052F4:  BTFSS  F82.3
052F6:  BRA    52F4
052F8:  MOVLW  05
052FA:  MOVWF  00
052FC:  DECFSZ 00,F
052FE:  BRA    52FC
05300:  BRA    5302
05302:  NOP   
05304:  BSF    F94.4
05306:  MOVLW  05
05308:  MOVWF  00
0530A:  DECFSZ 00,F
0530C:  BRA    530A
.................... ++posicion; 
0530E:  MOVLB  6
05310:  INCF   x34,F
05312:  BTFSC  FD8.2
05314:  INCF   x35,F
.................... //Se envian 2 veces ff para indicar que se inicia la transmision. 
....................  
....................    for(i=0;i<5;i++){ 
05316:  MOVLB  1
05318:  CLRF   xE0
0531A:  MOVF   xE0,W
0531C:  SUBLW  04
0531E:  BNC   53D6
....................       tmp=read_ext_eeprom((cicloVisto*320)+i); 
05320:  MOVLB  6
05322:  CLRF   x3D
05324:  MOVFF  223,63C
05328:  MOVLW  01
0532A:  MOVWF  x3F
0532C:  MOVLW  40
0532E:  MOVWF  x3E
05330:  MOVLB  0
05332:  CALL   2178
05336:  MOVFF  02,638
0533A:  MOVFF  01,637
0533E:  MOVLB  1
05340:  MOVF   xE0,W
05342:  MOVLB  6
05344:  ADDWF  x37,F
05346:  MOVLW  00
05348:  ADDWFC x38,F
0534A:  MOVFF  638,63A
0534E:  MOVFF  637,639
05352:  MOVLB  0
05354:  CALL   227A
05358:  MOVFF  01,636
....................       //if(tmp>250) 
....................       //   tmp=20; 
....................       i2c_start();            // Comienzo comunicacin 
0535C:  BSF    F94.4
0535E:  MOVLW  05
05360:  MOVWF  00
05362:  DECFSZ 00,F
05364:  BRA    5362
05366:  BSF    F94.3
05368:  MOVLW  06
0536A:  MOVWF  00
0536C:  DECFSZ 00,F
0536E:  BRA    536C
05370:  BCF    F8B.4
05372:  BCF    F94.4
05374:  MOVLW  05
05376:  MOVWF  00
05378:  DECFSZ 00,F
0537A:  BRA    5378
0537C:  BCF    F8B.3
0537E:  BCF    F94.3
....................       i2c_write(direccion);   // Direccin del esclavo en el bus I2C 
05380:  MOVFF  68,641
05384:  CALL   219A
....................       i2c_write(make8(posicion,0));    // Posicin donde se guardara el dato transmitido 
05388:  MOVFF  634,637
0538C:  MOVFF  634,641
05390:  CALL   219A
....................       i2c_write(make8(posicion,1));    // Posicin donde se guardara el dato transmitido 
05394:  MOVFF  635,637
05398:  MOVFF  635,641
0539C:  CALL   219A
....................       i2c_write(tmp);        // Dato a transmitir 
053A0:  MOVFF  636,641
053A4:  CALL   219A
....................       i2c_stop();  
053A8:  BCF    F94.4
053AA:  NOP   
053AC:  BSF    F94.3
053AE:  BTFSS  F82.3
053B0:  BRA    53AE
053B2:  MOVLW  05
053B4:  MOVWF  00
053B6:  DECFSZ 00,F
053B8:  BRA    53B6
053BA:  BRA    53BC
053BC:  NOP   
053BE:  BSF    F94.4
053C0:  MOVLW  05
053C2:  MOVWF  00
053C4:  DECFSZ 00,F
053C6:  BRA    53C4
....................       ++posicion; 
053C8:  MOVLB  6
053CA:  INCF   x34,F
053CC:  BTFSC  FD8.2
053CE:  INCF   x35,F
....................    } 
053D0:  MOVLB  1
053D2:  INCF   xE0,F
053D4:  BRA    531A
....................    for(i=0;i<35;i++){//Lee Valores para completar la Tabla 
053D6:  CLRF   xE0
053D8:  MOVF   xE0,W
053DA:  SUBLW  22
053DC:  BNC   54B6
....................       for(j=5;j<14;j++){//Lee Valores para completar la Tabla 
053DE:  MOVLW  05
053E0:  MOVLB  2
053E2:  MOVWF  x33
053E4:  MOVF   x33,W
053E6:  SUBLW  0D
053E8:  BNC   54B0
....................          tmp=read_ext_eeprom((cicloVisto*320)+j+(i*9)); 
053EA:  MOVLB  6
053EC:  CLRF   x3D
053EE:  MOVFF  223,63C
053F2:  MOVLW  01
053F4:  MOVWF  x3F
053F6:  MOVLW  40
053F8:  MOVWF  x3E
053FA:  MOVLB  0
053FC:  CALL   2178
05400:  MOVFF  02,638
05404:  MOVFF  01,637
05408:  MOVLB  2
0540A:  MOVF   x33,W
0540C:  MOVLB  6
0540E:  ADDWF  x37,F
05410:  MOVLW  00
05412:  ADDWFC x38,F
05414:  MOVLB  1
05416:  MOVF   xE0,W
05418:  MULLW  09
0541A:  MOVF   FF3,W
0541C:  MOVLB  6
0541E:  ADDWF  x37,F
05420:  MOVLW  00
05422:  ADDWFC x38,F
05424:  MOVFF  638,63A
05428:  MOVFF  637,639
0542C:  MOVLB  0
0542E:  CALL   227A
05432:  MOVFF  01,636
....................          //if(tmp>250) 
....................          //   tmp=20; 
....................          i2c_start();            // Comienzo comunicacin 
05436:  BSF    F94.4
05438:  MOVLW  05
0543A:  MOVWF  00
0543C:  DECFSZ 00,F
0543E:  BRA    543C
05440:  BSF    F94.3
05442:  MOVLW  06
05444:  MOVWF  00
05446:  DECFSZ 00,F
05448:  BRA    5446
0544A:  BCF    F8B.4
0544C:  BCF    F94.4
0544E:  MOVLW  05
05450:  MOVWF  00
05452:  DECFSZ 00,F
05454:  BRA    5452
05456:  BCF    F8B.3
05458:  BCF    F94.3
....................          i2c_write(direccion);   // Direccin del esclavo en el bus I2C 
0545A:  MOVFF  68,641
0545E:  CALL   219A
....................          i2c_write(make8(posicion,0));    // Posicin donde se guardara el dato transmitido 
05462:  MOVFF  634,637
05466:  MOVFF  634,641
0546A:  CALL   219A
....................          i2c_write(make8(posicion,1));    // Posicin donde se guardara el dato transmitido 
0546E:  MOVFF  635,637
05472:  MOVFF  635,641
05476:  CALL   219A
....................          i2c_write(tmp);        // Dato a transmitir 
0547A:  MOVFF  636,641
0547E:  CALL   219A
....................          i2c_stop();  
05482:  BCF    F94.4
05484:  NOP   
05486:  BSF    F94.3
05488:  BTFSS  F82.3
0548A:  BRA    5488
0548C:  MOVLW  05
0548E:  MOVWF  00
05490:  DECFSZ 00,F
05492:  BRA    5490
05494:  BRA    5496
05496:  NOP   
05498:  BSF    F94.4
0549A:  MOVLW  05
0549C:  MOVWF  00
0549E:  DECFSZ 00,F
054A0:  BRA    549E
....................          ++posicion; 
054A2:  MOVLB  6
054A4:  INCF   x34,F
054A6:  BTFSC  FD8.2
054A8:  INCF   x35,F
....................       } 
054AA:  MOVLB  2
054AC:  INCF   x33,F
054AE:  BRA    53E4
....................    } 
054B0:  MOVLB  1
054B2:  INCF   xE0,F
054B4:  BRA    53D8
....................  
.................... //Fin de Transmision 
.................... i2c_start();            // Comienzo comunicacin 
054B6:  BSF    F94.4
054B8:  MOVLW  05
054BA:  MOVWF  00
054BC:  DECFSZ 00,F
054BE:  BRA    54BC
054C0:  BSF    F94.3
054C2:  MOVLW  06
054C4:  MOVWF  00
054C6:  DECFSZ 00,F
054C8:  BRA    54C6
054CA:  BCF    F8B.4
054CC:  BCF    F94.4
054CE:  MOVLW  05
054D0:  MOVWF  00
054D2:  DECFSZ 00,F
054D4:  BRA    54D2
054D6:  BCF    F8B.3
054D8:  BCF    F94.3
.................... i2c_write(direccion);   // Direccin del esclavo en el bus I2C 
054DA:  MOVFF  68,641
054DE:  MOVLB  0
054E0:  CALL   219A
.................... i2c_write(make8(posicion,0));    // Posicin donde se guardara el dato transmitido 
054E4:  MOVFF  634,637
054E8:  MOVFF  634,641
054EC:  CALL   219A
.................... i2c_write(make8(posicion,1));    // Posicin donde se guardara el dato transmitido 
054F0:  MOVFF  635,637
054F4:  MOVFF  635,641
054F8:  CALL   219A
.................... i2c_write(0x1f);        // Dato a transmitir 
054FC:  MOVLW  1F
054FE:  MOVLB  6
05500:  MOVWF  x41
05502:  MOVLB  0
05504:  CALL   219A
.................... i2c_stop(); 
05508:  BCF    F94.4
0550A:  NOP   
0550C:  BSF    F94.3
0550E:  BTFSS  F82.3
05510:  BRA    550E
05512:  MOVLW  05
05514:  MOVWF  00
05516:  DECFSZ 00,F
05518:  BRA    5516
0551A:  BRA    551C
0551C:  NOP   
0551E:  BSF    F94.4
05520:  MOVLW  05
05522:  MOVWF  00
05524:  DECFSZ 00,F
05526:  BRA    5524
.................... ++posicion; 
05528:  MOVLB  6
0552A:  INCF   x34,F
0552C:  BTFSC  FD8.2
0552E:  INCF   x35,F
.................... i2c_start();            // Comienzo comunicacin 
05530:  BSF    F94.4
05532:  MOVLW  05
05534:  MOVWF  00
05536:  DECFSZ 00,F
05538:  BRA    5536
0553A:  BSF    F94.3
0553C:  MOVLW  06
0553E:  MOVWF  00
05540:  DECFSZ 00,F
05542:  BRA    5540
05544:  BCF    F8B.4
05546:  BCF    F94.4
05548:  MOVLW  05
0554A:  MOVWF  00
0554C:  DECFSZ 00,F
0554E:  BRA    554C
05550:  BCF    F8B.3
05552:  BCF    F94.3
.................... i2c_write(direccion);   // Direccin del esclavo en el bus I2C 
05554:  MOVFF  68,641
05558:  MOVLB  0
0555A:  CALL   219A
.................... i2c_write(make8(posicion,0));    // Posicin donde se guardara el dato transmitido 
0555E:  MOVFF  634,637
05562:  MOVFF  634,641
05566:  CALL   219A
.................... i2c_write(make8(posicion,1));    // Posicin donde se guardara el dato transmitido 
0556A:  MOVFF  635,637
0556E:  MOVFF  635,641
05572:  CALL   219A
.................... i2c_write(0x1f);        // Dato a transmitir 
05576:  MOVLW  1F
05578:  MOVLB  6
0557A:  MOVWF  x41
0557C:  MOVLB  0
0557E:  CALL   219A
.................... i2c_stop(); 
05582:  BCF    F94.4
05584:  NOP   
05586:  BSF    F94.3
05588:  BTFSS  F82.3
0558A:  BRA    5588
0558C:  MOVLW  05
0558E:  MOVWF  00
05590:  DECFSZ 00,F
05592:  BRA    5590
05594:  BRA    5596
05596:  NOP   
05598:  BSF    F94.4
0559A:  MOVLW  05
0559C:  MOVWF  00
0559E:  DECFSZ 00,F
055A0:  BRA    559E
.................... ++posicion; 
055A2:  MOVLB  6
055A4:  INCF   x34,F
055A6:  BTFSC  FD8.2
055A8:  INCF   x35,F
.................... //Se envian 2 veces 1f para indicar que se inicia la transmision. 
.................... delay_ms(200); 
055AA:  MOVLW  C8
055AC:  MOVWF  x3D
055AE:  MOVLB  0
055B0:  CALL   1D06
.................... Buzzer_off; 
055B4:  BCF    F8C.0
055B6:  BCF    F95.0
.................... } 
055B8:  GOTO   B384 (RETURN)
....................  
.................... void codificaAlarma(){ 
....................    if(ACiclos[i]==0){ 
055BC:  CLRF   03
055BE:  MOVLB  1
055C0:  MOVF   xE0,W
055C2:  ADDLW  94
055C4:  MOVWF  FE9
055C6:  MOVLW  02
055C8:  ADDWFC 03,W
055CA:  MOVWF  FEA
055CC:  MOVF   FEF,F
055CE:  BNZ   560E
....................       printf("A%u.txt=\"----\"",i+1); 
055D0:  MOVLW  01
055D2:  ADDWF  xE0,W
055D4:  MOVLB  6
055D6:  MOVWF  x34
055D8:  MOVLW  41
055DA:  BTFSS  F9E.4
055DC:  BRA    55DA
055DE:  MOVWF  FAD
055E0:  MOVFF  634,639
055E4:  MOVLW  1B
055E6:  MOVWF  x3A
055E8:  MOVLB  0
055EA:  CALL   4BFC
055EE:  MOVLW  13
055F0:  MOVWF  FF6
055F2:  MOVLW  04
055F4:  MOVWF  FF7
055F6:  MOVLW  00
055F8:  MOVWF  FF8
055FA:  MOVLW  0B
055FC:  MOVLB  6
055FE:  MOVWF  x39
05600:  MOVLB  0
05602:  CALL   4B78
....................       SendDataDisplay(); 
05606:  CALL   3B6A
....................    }else if(ACiclos[i]==1){ 
0560A:  BRA    5AD6
0560C:  MOVLB  1
0560E:  CLRF   03
05610:  MOVF   xE0,W
05612:  ADDLW  94
05614:  MOVWF  FE9
05616:  MOVLW  02
05618:  ADDWFC 03,W
0561A:  MOVWF  FEA
0561C:  DECFSZ FEF,W
0561E:  BRA    565E
....................       printf("A%u.txt=\"Parada\"",i+1); 
05620:  MOVLW  01
05622:  ADDWF  xE0,W
05624:  MOVLB  6
05626:  MOVWF  x34
05628:  MOVLW  41
0562A:  BTFSS  F9E.4
0562C:  BRA    562A
0562E:  MOVWF  FAD
05630:  MOVFF  634,639
05634:  MOVLW  1B
05636:  MOVWF  x3A
05638:  MOVLB  0
0563A:  CALL   4BFC
0563E:  MOVLW  23
05640:  MOVWF  FF6
05642:  MOVLW  04
05644:  MOVWF  FF7
05646:  MOVLW  00
05648:  MOVWF  FF8
0564A:  MOVLW  0D
0564C:  MOVLB  6
0564E:  MOVWF  x39
05650:  MOVLB  0
05652:  CALL   4B78
....................       SendDataDisplay(); 
05656:  CALL   3B6A
....................    }else if(ACiclos[i]==2){ 
0565A:  BRA    5AD6
0565C:  MOVLB  1
0565E:  CLRF   03
05660:  MOVF   xE0,W
05662:  ADDLW  94
05664:  MOVWF  FE9
05666:  MOVLW  02
05668:  ADDWFC 03,W
0566A:  MOVWF  FEA
0566C:  MOVF   FEF,W
0566E:  SUBLW  02
05670:  BNZ   56B0
....................       printf("A%u.txt=\"Puerta\"",i+1); 
05672:  MOVLW  01
05674:  ADDWF  xE0,W
05676:  MOVLB  6
05678:  MOVWF  x34
0567A:  MOVLW  41
0567C:  BTFSS  F9E.4
0567E:  BRA    567C
05680:  MOVWF  FAD
05682:  MOVFF  634,639
05686:  MOVLW  1B
05688:  MOVWF  x3A
0568A:  MOVLB  0
0568C:  CALL   4BFC
05690:  MOVLW  35
05692:  MOVWF  FF6
05694:  MOVLW  04
05696:  MOVWF  FF7
05698:  MOVLW  00
0569A:  MOVWF  FF8
0569C:  MOVLW  0D
0569E:  MOVLB  6
056A0:  MOVWF  x39
056A2:  MOVLB  0
056A4:  CALL   4B78
....................       SendDataDisplay(); 
056A8:  CALL   3B6A
....................    }else if(ACiclos[i]==3){ 
056AC:  BRA    5AD6
056AE:  MOVLB  1
056B0:  CLRF   03
056B2:  MOVF   xE0,W
056B4:  ADDLW  94
056B6:  MOVWF  FE9
056B8:  MOVLW  02
056BA:  ADDWFC 03,W
056BC:  MOVWF  FEA
056BE:  MOVF   FEF,W
056C0:  SUBLW  03
056C2:  BNZ   5702
....................       printf("A%u.txt=\"Termostato\"",i+1); 
056C4:  MOVLW  01
056C6:  ADDWF  xE0,W
056C8:  MOVLB  6
056CA:  MOVWF  x34
056CC:  MOVLW  41
056CE:  BTFSS  F9E.4
056D0:  BRA    56CE
056D2:  MOVWF  FAD
056D4:  MOVFF  634,639
056D8:  MOVLW  1B
056DA:  MOVWF  x3A
056DC:  MOVLB  0
056DE:  CALL   4BFC
056E2:  MOVLW  47
056E4:  MOVWF  FF6
056E6:  MOVLW  04
056E8:  MOVWF  FF7
056EA:  MOVLW  00
056EC:  MOVWF  FF8
056EE:  MOVLW  11
056F0:  MOVLB  6
056F2:  MOVWF  x39
056F4:  MOVLB  0
056F6:  CALL   4B78
....................       SendDataDisplay(); 
056FA:  CALL   3B6A
....................    }else if(ACiclos[i]==4){ 
056FE:  BRA    5AD6
05700:  MOVLB  1
05702:  CLRF   03
05704:  MOVF   xE0,W
05706:  ADDLW  94
05708:  MOVWF  FE9
0570A:  MOVLW  02
0570C:  ADDWFC 03,W
0570E:  MOVWF  FEA
05710:  MOVF   FEF,W
05712:  SUBLW  04
05714:  BNZ   5754
....................       printf("A%u.txt=\"SobreT\"",i+1); 
05716:  MOVLW  01
05718:  ADDWF  xE0,W
0571A:  MOVLB  6
0571C:  MOVWF  x34
0571E:  MOVLW  41
05720:  BTFSS  F9E.4
05722:  BRA    5720
05724:  MOVWF  FAD
05726:  MOVFF  634,639
0572A:  MOVLW  1B
0572C:  MOVWF  x3A
0572E:  MOVLB  0
05730:  CALL   4BFC
05734:  MOVLW  5D
05736:  MOVWF  FF6
05738:  MOVLW  04
0573A:  MOVWF  FF7
0573C:  MOVLW  00
0573E:  MOVWF  FF8
05740:  MOVLW  0D
05742:  MOVLB  6
05744:  MOVWF  x39
05746:  MOVLB  0
05748:  CALL   4B78
....................       SendDataDisplay(); 
0574C:  CALL   3B6A
....................    }else if(ACiclos[i]==5){ 
05750:  BRA    5AD6
05752:  MOVLB  1
05754:  CLRF   03
05756:  MOVF   xE0,W
05758:  ADDLW  94
0575A:  MOVWF  FE9
0575C:  MOVLW  02
0575E:  ADDWFC 03,W
05760:  MOVWF  FEA
05762:  MOVF   FEF,W
05764:  SUBLW  05
05766:  BNZ   57A6
....................       printf("A%u.txt=\"Tiempo\"",i+1); 
05768:  MOVLW  01
0576A:  ADDWF  xE0,W
0576C:  MOVLB  6
0576E:  MOVWF  x34
05770:  MOVLW  41
05772:  BTFSS  F9E.4
05774:  BRA    5772
05776:  MOVWF  FAD
05778:  MOVFF  634,639
0577C:  MOVLW  1B
0577E:  MOVWF  x3A
05780:  MOVLB  0
05782:  CALL   4BFC
05786:  MOVLW  6F
05788:  MOVWF  FF6
0578A:  MOVLW  04
0578C:  MOVWF  FF7
0578E:  MOVLW  00
05790:  MOVWF  FF8
05792:  MOVLW  0D
05794:  MOVLB  6
05796:  MOVWF  x39
05798:  MOVLB  0
0579A:  CALL   4B78
....................       SendDataDisplay(); 
0579E:  CALL   3B6A
....................    }else if(ACiclos[i]==6){ 
057A2:  BRA    5AD6
057A4:  MOVLB  1
057A6:  CLRF   03
057A8:  MOVF   xE0,W
057AA:  ADDLW  94
057AC:  MOVWF  FE9
057AE:  MOVLW  02
057B0:  ADDWFC 03,W
057B2:  MOVWF  FEA
057B4:  MOVF   FEF,W
057B6:  SUBLW  06
057B8:  BNZ   57F8
....................       printf("A%u.txt=\"Presion\"",i+1); 
057BA:  MOVLW  01
057BC:  ADDWF  xE0,W
057BE:  MOVLB  6
057C0:  MOVWF  x34
057C2:  MOVLW  41
057C4:  BTFSS  F9E.4
057C6:  BRA    57C4
057C8:  MOVWF  FAD
057CA:  MOVFF  634,639
057CE:  MOVLW  1B
057D0:  MOVWF  x3A
057D2:  MOVLB  0
057D4:  CALL   4BFC
057D8:  MOVLW  81
057DA:  MOVWF  FF6
057DC:  MOVLW  04
057DE:  MOVWF  FF7
057E0:  MOVLW  00
057E2:  MOVWF  FF8
057E4:  MOVLW  0E
057E6:  MOVLB  6
057E8:  MOVWF  x39
057EA:  MOVLB  0
057EC:  CALL   4B78
....................       SendDataDisplay(); 
057F0:  CALL   3B6A
....................    }else if(ACiclos[i]==7){ 
057F4:  BRA    5AD6
057F6:  MOVLB  1
057F8:  CLRF   03
057FA:  MOVF   xE0,W
057FC:  ADDLW  94
057FE:  MOVWF  FE9
05800:  MOVLW  02
05802:  ADDWFC 03,W
05804:  MOVWF  FEA
05806:  MOVF   FEF,W
05808:  SUBLW  07
0580A:  BNZ   584A
....................       printf("A%u.txt=\"Bomba\"",i+1); 
0580C:  MOVLW  01
0580E:  ADDWF  xE0,W
05810:  MOVLB  6
05812:  MOVWF  x34
05814:  MOVLW  41
05816:  BTFSS  F9E.4
05818:  BRA    5816
0581A:  MOVWF  FAD
0581C:  MOVFF  634,639
05820:  MOVLW  1B
05822:  MOVWF  x3A
05824:  MOVLB  0
05826:  CALL   4BFC
0582A:  MOVLW  93
0582C:  MOVWF  FF6
0582E:  MOVLW  04
05830:  MOVWF  FF7
05832:  MOVLW  00
05834:  MOVWF  FF8
05836:  MOVLW  0C
05838:  MOVLB  6
0583A:  MOVWF  x39
0583C:  MOVLB  0
0583E:  CALL   4B78
....................       SendDataDisplay(); 
05842:  CALL   3B6A
....................    }else if(ACiclos[i]==8){ 
05846:  BRA    5AD6
05848:  MOVLB  1
0584A:  CLRF   03
0584C:  MOVF   xE0,W
0584E:  ADDLW  94
05850:  MOVWF  FE9
05852:  MOVLW  02
05854:  ADDWFC 03,W
05856:  MOVWF  FEA
05858:  MOVF   FEF,W
0585A:  SUBLW  08
0585C:  BNZ   589C
....................       printf("A%u.txt=\"ErrorVacio\"",i+1); 
0585E:  MOVLW  01
05860:  ADDWF  xE0,W
05862:  MOVLB  6
05864:  MOVWF  x34
05866:  MOVLW  41
05868:  BTFSS  F9E.4
0586A:  BRA    5868
0586C:  MOVWF  FAD
0586E:  MOVFF  634,639
05872:  MOVLW  1B
05874:  MOVWF  x3A
05876:  MOVLB  0
05878:  CALL   4BFC
0587C:  MOVLW  A3
0587E:  MOVWF  FF6
05880:  MOVLW  04
05882:  MOVWF  FF7
05884:  MOVLW  00
05886:  MOVWF  FF8
05888:  MOVLW  11
0588A:  MOVLB  6
0588C:  MOVWF  x39
0588E:  MOVLB  0
05890:  CALL   4B78
....................       SendDataDisplay(); 
05894:  CALL   3B6A
....................    }else if(ACiclos[i]==10){ 
05898:  BRA    5AD6
0589A:  MOVLB  1
0589C:  CLRF   03
0589E:  MOVF   xE0,W
058A0:  ADDLW  94
058A2:  MOVWF  FE9
058A4:  MOVLW  02
058A6:  ADDWFC 03,W
058A8:  MOVWF  FEA
058AA:  MOVF   FEF,W
058AC:  SUBLW  0A
058AE:  BNZ   58EE
....................       printf("A%u.txt=\"Llenado\"",i+1); 
058B0:  MOVLW  01
058B2:  ADDWF  xE0,W
058B4:  MOVLB  6
058B6:  MOVWF  x34
058B8:  MOVLW  41
058BA:  BTFSS  F9E.4
058BC:  BRA    58BA
058BE:  MOVWF  FAD
058C0:  MOVFF  634,639
058C4:  MOVLW  1B
058C6:  MOVWF  x3A
058C8:  MOVLB  0
058CA:  CALL   4BFC
058CE:  MOVLW  B9
058D0:  MOVWF  FF6
058D2:  MOVLW  04
058D4:  MOVWF  FF7
058D6:  MOVLW  00
058D8:  MOVWF  FF8
058DA:  MOVLW  0E
058DC:  MOVLB  6
058DE:  MOVWF  x39
058E0:  MOVLB  0
058E2:  CALL   4B78
....................       SendDataDisplay(); 
058E6:  CALL   3B6A
....................    }else if(ACiclos[i]==11){ 
058EA:  BRA    5AD6
058EC:  MOVLB  1
058EE:  CLRF   03
058F0:  MOVF   xE0,W
058F2:  ADDLW  94
058F4:  MOVWF  FE9
058F6:  MOVLW  02
058F8:  ADDWFC 03,W
058FA:  MOVWF  FEA
058FC:  MOVF   FEF,W
058FE:  SUBLW  0B
05900:  BNZ   5940
....................       printf("A%u.txt=\"Vacio\"",i+1); 
05902:  MOVLW  01
05904:  ADDWF  xE0,W
05906:  MOVLB  6
05908:  MOVWF  x34
0590A:  MOVLW  41
0590C:  BTFSS  F9E.4
0590E:  BRA    590C
05910:  MOVWF  FAD
05912:  MOVFF  634,639
05916:  MOVLW  1B
05918:  MOVWF  x3A
0591A:  MOVLB  0
0591C:  CALL   4BFC
05920:  MOVLW  CB
05922:  MOVWF  FF6
05924:  MOVLW  04
05926:  MOVWF  FF7
05928:  MOVLW  00
0592A:  MOVWF  FF8
0592C:  MOVLW  0C
0592E:  MOVLB  6
05930:  MOVWF  x39
05932:  MOVLB  0
05934:  CALL   4B78
....................       SendDataDisplay(); 
05938:  CALL   3B6A
....................    }else if(ACiclos[i]==12){ 
0593C:  BRA    5AD6
0593E:  MOVLB  1
05940:  CLRF   03
05942:  MOVF   xE0,W
05944:  ADDLW  94
05946:  MOVWF  FE9
05948:  MOVLW  02
0594A:  ADDWFC 03,W
0594C:  MOVWF  FEA
0594E:  MOVF   FEF,W
05950:  SUBLW  0C
05952:  BNZ   5992
....................       printf("A%u.txt=\"Calen\"",i+1); 
05954:  MOVLW  01
05956:  ADDWF  xE0,W
05958:  MOVLB  6
0595A:  MOVWF  x34
0595C:  MOVLW  41
0595E:  BTFSS  F9E.4
05960:  BRA    595E
05962:  MOVWF  FAD
05964:  MOVFF  634,639
05968:  MOVLW  1B
0596A:  MOVWF  x3A
0596C:  MOVLB  0
0596E:  CALL   4BFC
05972:  MOVLW  DB
05974:  MOVWF  FF6
05976:  MOVLW  04
05978:  MOVWF  FF7
0597A:  MOVLW  00
0597C:  MOVWF  FF8
0597E:  MOVLW  0C
05980:  MOVLB  6
05982:  MOVWF  x39
05984:  MOVLB  0
05986:  CALL   4B78
....................       SendDataDisplay(); 
0598A:  CALL   3B6A
....................    }else if(ACiclos[i]==13){ 
0598E:  BRA    5AD6
05990:  MOVLB  1
05992:  CLRF   03
05994:  MOVF   xE0,W
05996:  ADDLW  94
05998:  MOVWF  FE9
0599A:  MOVLW  02
0599C:  ADDWFC 03,W
0599E:  MOVWF  FEA
059A0:  MOVF   FEF,W
059A2:  SUBLW  0D
059A4:  BNZ   59E4
....................       printf("A%u.txt=\"Desfoga\"",i+1); 
059A6:  MOVLW  01
059A8:  ADDWF  xE0,W
059AA:  MOVLB  6
059AC:  MOVWF  x34
059AE:  MOVLW  41
059B0:  BTFSS  F9E.4
059B2:  BRA    59B0
059B4:  MOVWF  FAD
059B6:  MOVFF  634,639
059BA:  MOVLW  1B
059BC:  MOVWF  x3A
059BE:  MOVLB  0
059C0:  CALL   4BFC
059C4:  MOVLW  EB
059C6:  MOVWF  FF6
059C8:  MOVLW  04
059CA:  MOVWF  FF7
059CC:  MOVLW  00
059CE:  MOVWF  FF8
059D0:  MOVLW  0E
059D2:  MOVLB  6
059D4:  MOVWF  x39
059D6:  MOVLB  0
059D8:  CALL   4B78
....................       SendDataDisplay(); 
059DC:  CALL   3B6A
....................    }else if(ACiclos[i]==14){ 
059E0:  BRA    5AD6
059E2:  MOVLB  1
059E4:  CLRF   03
059E6:  MOVF   xE0,W
059E8:  ADDLW  94
059EA:  MOVWF  FE9
059EC:  MOVLW  02
059EE:  ADDWFC 03,W
059F0:  MOVWF  FEA
059F2:  MOVF   FEF,W
059F4:  SUBLW  0E
059F6:  BNZ   5A36
....................       printf("A%u.txt=\"Finalizado\"",i+1); 
059F8:  MOVLW  01
059FA:  ADDWF  xE0,W
059FC:  MOVLB  6
059FE:  MOVWF  x34
05A00:  MOVLW  41
05A02:  BTFSS  F9E.4
05A04:  BRA    5A02
05A06:  MOVWF  FAD
05A08:  MOVFF  634,639
05A0C:  MOVLW  1B
05A0E:  MOVWF  x3A
05A10:  MOVLB  0
05A12:  CALL   4BFC
05A16:  MOVLW  FD
05A18:  MOVWF  FF6
05A1A:  MOVLW  04
05A1C:  MOVWF  FF7
05A1E:  MOVLW  00
05A20:  MOVWF  FF8
05A22:  MOVLW  11
05A24:  MOVLB  6
05A26:  MOVWF  x39
05A28:  MOVLB  0
05A2A:  CALL   4B78
....................       SendDataDisplay(); 
05A2E:  CALL   3B6A
....................    }else if(ACiclos[i]==15){ 
05A32:  BRA    5AD6
05A34:  MOVLB  1
05A36:  CLRF   03
05A38:  MOVF   xE0,W
05A3A:  ADDLW  94
05A3C:  MOVWF  FE9
05A3E:  MOVLW  02
05A40:  ADDWFC 03,W
05A42:  MOVWF  FEA
05A44:  MOVF   FEF,W
05A46:  SUBLW  0F
05A48:  BNZ   5A88
....................       printf("A%u.txt=\"Secando\"",i+1); 
05A4A:  MOVLW  01
05A4C:  ADDWF  xE0,W
05A4E:  MOVLB  6
05A50:  MOVWF  x34
05A52:  MOVLW  41
05A54:  BTFSS  F9E.4
05A56:  BRA    5A54
05A58:  MOVWF  FAD
05A5A:  MOVFF  634,639
05A5E:  MOVLW  1B
05A60:  MOVWF  x3A
05A62:  MOVLB  0
05A64:  CALL   4BFC
05A68:  MOVLW  13
05A6A:  MOVWF  FF6
05A6C:  MOVLW  05
05A6E:  MOVWF  FF7
05A70:  MOVLW  00
05A72:  MOVWF  FF8
05A74:  MOVLW  0E
05A76:  MOVLB  6
05A78:  MOVWF  x39
05A7A:  MOVLB  0
05A7C:  CALL   4B78
....................       SendDataDisplay(); 
05A80:  CALL   3B6A
....................    }else if(ACiclos[i]==16){ 
05A84:  BRA    5AD6
05A86:  MOVLB  1
05A88:  CLRF   03
05A8A:  MOVF   xE0,W
05A8C:  ADDLW  94
05A8E:  MOVWF  FE9
05A90:  MOVLW  02
05A92:  ADDWFC 03,W
05A94:  MOVWF  FEA
05A96:  MOVF   FEF,W
05A98:  SUBLW  10
05A9A:  BNZ   5AD8
....................       printf("A%u.txt=\"Esterilizando\"",i+1); 
05A9C:  MOVLW  01
05A9E:  ADDWF  xE0,W
05AA0:  MOVLB  6
05AA2:  MOVWF  x34
05AA4:  MOVLW  41
05AA6:  BTFSS  F9E.4
05AA8:  BRA    5AA6
05AAA:  MOVWF  FAD
05AAC:  MOVFF  634,639
05AB0:  MOVLW  1B
05AB2:  MOVWF  x3A
05AB4:  MOVLB  0
05AB6:  CALL   4BFC
05ABA:  MOVLW  25
05ABC:  MOVWF  FF6
05ABE:  MOVLW  05
05AC0:  MOVWF  FF7
05AC2:  MOVLW  00
05AC4:  MOVWF  FF8
05AC6:  MOVLW  14
05AC8:  MOVLB  6
05ACA:  MOVWF  x39
05ACC:  MOVLB  0
05ACE:  CALL   4B78
....................       SendDataDisplay(); 
05AD2:  CALL   3B6A
05AD6:  MOVLB  1
....................    } 
.................... } 
05AD8:  MOVLB  0
05ADA:  GOTO   BE48 (RETURN)
....................  
.................... void sistemaBloqueo(short activa){ 
....................    if(activa && DOOR){ 
....................       output_bit(PIN_C1,1); 
....................       output_bit(PIN_C2,0); 
....................       Cilindro=ON; 
....................    }else if(!activa){ 
....................       output_bit(PIN_C1,0); 
....................       output_bit(PIN_C2,1); 
....................    } 
.................... } 
....................  
....................  
.................... #int_rda HIGH 
.................... void serial_rx_isr(){ 
....................    Dato2=fgetc(); 
*
0053A:  BTFSS  F9E.5
0053C:  BRA    053A
0053E:  MOVFF  FAE,1DC
00542:  MOVLB  1
....................    if(Dato2==0x65){//Inicio Comunicacion 
00544:  MOVF   xDC,W
00546:  SUBLW  65
00548:  BNZ   0550
....................       Inicio=1; 
0054A:  MOVLW  01
0054C:  MOVWF  xDA
....................       RX_Wr_Index =0; 
0054E:  CLRF   46
....................    } 
....................     
....................    if(Inicio==1){ 
00550:  DECFSZ xDA,W
00552:  BRA    0568
....................       Rx_Buffer2[RX_Wr_Index] = Dato2; 
00554:  CLRF   03
00556:  MOVF   46,W
00558:  ADDLW  3B
0055A:  MOVWF  FE9
0055C:  MOVLW  00
0055E:  ADDWFC 03,W
00560:  MOVWF  FEA
00562:  MOVFF  1DC,FEF
....................       RX_Wr_Index++; 
00566:  INCF   46,F
....................    } 
....................    if(RX_Wr_Index >= RX_BUFFER_SIZE){ 
00568:  MOVF   46,W
0056A:  SUBLW  09
0056C:  BC    0572
....................       RX_Wr_Index =0; 
0056E:  CLRF   46
....................       Inicio=0; 
00570:  CLRF   xDA
....................    } 
....................  
....................    if(RX_Wr_Index==0){ 
00572:  MOVF   46,F
00574:  BNZ   0596
....................       if(Rx_Buffer2[0]==0x65 && Rx_Buffer2[1]==0xff && Rx_Buffer2[2]==0xff && Rx_Buffer2[8]==0x00 && Rx_Buffer2[9]==0xff ){ 
00576:  MOVF   3B,W
00578:  SUBLW  65
0057A:  BNZ   0592
0057C:  INCFSZ 3C,W
0057E:  BRA    0592
00580:  INCFSZ 3D,W
00582:  BRA    0592
00584:  MOVF   43,F
00586:  BNZ   0592
00588:  INCFSZ 44,W
0058A:  BRA    0592
....................          Dato_Exitoso=5; 
0058C:  MOVLW  05
0058E:  MOVWF  xDB
....................       }else{ 
00590:  BRA    0596
....................          Dato_Exitoso=10; 
00592:  MOVLW  0A
00594:  MOVWF  xDB
....................       } 
....................    } 
....................     
....................    if(Menu==20) 
00596:  MOVF   xDD,W
00598:  SUBLW  14
0059A:  BNZ   05A0
....................      Buzzer_on; 
0059C:  BSF    F8C.0
0059E:  BCF    F95.0
.................... } 
....................  
005A0:  BCF    F9E.5
005A2:  MOVLB  0
005A4:  GOTO   010A
.................... #int_TIMER0 
.................... void temp0s(void){ 
....................    set_timer0(0); 
005A8:  CLRF   FD7
005AA:  CLRF   FD6
....................    t_exhaust++; 
005AC:  INCF   x86,F
005AE:  BTFSC  FD8.2
005B0:  INCF   x87,F
....................    if(DesfogueSuave){ 
005B2:  BTFSS  x88.0
005B4:  BRA    0602
....................       if(Nivel<6){ 
005B6:  MOVLB  1
005B8:  MOVF   xF6,F
005BA:  BNZ   05FC
005BC:  MOVF   xF5,W
005BE:  SUBLW  05
005C0:  BNC   05FC
....................          if(t_exhaust<=NivelSeleccionado) // Si el tiempo es menor o igual al tiempo de control se enciende la resistencia de lo contrario se apaga. 
005C2:  MOVLB  0
005C4:  MOVF   x87,W
005C6:  MOVLB  2
005C8:  SUBWF  x18,W
005CA:  BNC   05DE
005CC:  BNZ   05D8
005CE:  MOVLB  0
005D0:  MOVF   x86,W
005D2:  MOVLB  2
005D4:  SUBWF  x17,W
005D6:  BNC   05DE
....................             Desfogue_on; 
005D8:  BSF    F8C.4
005DA:  BCF    F95.4
....................          else             
005DC:  BRA    05E2
....................             Desfogue_off;          
005DE:  BCF    F8C.4
005E0:  BCF    F95.4
....................        
....................          if(t_exhaust>=60000) // Si el tiempo de control es mayor al tiempo de ciclo se reinicia tiempo de control 
005E2:  MOVLB  0
005E4:  MOVF   x87,W
005E6:  SUBLW  E9
005E8:  BC    05F8
005EA:  XORLW  FF
005EC:  BNZ   05F4
005EE:  MOVF   x86,W
005F0:  SUBLW  5F
005F2:  BC    05F8
....................             t_exhaust=0;// tiempoctrl incrementa una unidad cada Xms, por eso se dividen los tiempos por 0.005. 
005F4:  CLRF   x87
005F6:  CLRF   x86
....................       }else{ 
005F8:  BRA    0602
005FA:  MOVLB  1
....................          Desfogue_on; 
005FC:  BSF    F8C.4
005FE:  BCF    F95.4
00600:  MOVLB  0
....................       } 
....................    }   
.................... } 
....................  
00602:  BCF    FF2.2
00604:  GOTO   0074
.................... #int_TIMER1 
.................... void temp1s(void){ 
....................    set_timer1(40536); // Se repite cada 5ms 
00608:  MOVLW  9E
0060A:  MOVWF  FCF
0060C:  MOVLW  58
0060E:  MOVWF  FCE
....................    tiempos++; 
00610:  MOVLB  1
00612:  INCF   xED,F
00614:  BTFSC  FD8.2
00616:  INCF   xEE,F
....................    tiempos2++; 
00618:  INCF   xEF,F
0061A:  BTFSC  FD8.2
0061C:  INCF   xF0,F
....................    tiempos3++; 
0061E:  INCF   xF1,F
00620:  BTFSC  FD8.2
00622:  INCF   xF2,F
....................    tiempoctrl++; 
00624:  INCF   xF3,F
00626:  BTFSC  FD8.2
00628:  INCF   xF4,F
....................     
....................    if(flagAlarma) 
0062A:  MOVLB  0
0062C:  BTFSS  x8A.1
0062E:  BRA    063A
....................       tbuzzer++; 
00630:  MOVLB  2
00632:  INCF   x13,F
00634:  BTFSC  FD8.2
00636:  INCF   x14,F
00638:  MOVLB  0
....................        
....................    if(flagSilencio)    
0063A:  BTFSS  x8A.3
0063C:  BRA    0646
....................       tsilencio++; 
0063E:  MOVLB  2
00640:  INCF   x15,F
00642:  BTFSC  FD8.2
00644:  INCF   x16,F
....................     
....................    if(Controlando==1){ 
00646:  MOVLB  1
00648:  DECFSZ xD7,W
0064A:  BRA    0688
....................       if(tiempoctrl<Tp) // Si el tiempo es menor o igual al tiempo de control se enciende la resistencia de lo contrario se apaga. 
0064C:  MOVF   xF4,W
0064E:  MOVLB  0
00650:  SUBWF  x92,W
00652:  BNC   066C
00654:  BNZ   0666
00656:  MOVF   x91,W
00658:  MOVLB  1
0065A:  SUBWF  xF3,W
0065C:  BTFSS  FD8.0
0065E:  BRA    0664
00660:  MOVLB  0
00662:  BRA    066C
00664:  MOVLB  0
....................          SSR_on; 
00666:  BCF    F8B.2
00668:  BCF    F94.2
....................       else          
0066A:  BRA    0670
....................          SSR_off; 
0066C:  BSF    F8B.2
0066E:  BCF    F94.2
....................              
....................       if(tiempoctrl>=Tc) // Si el tiempo de control es mayor al tiempo de ciclo se reinicia tiempo de control 
00670:  MOVF   x94,W
00672:  MOVLB  1
00674:  SUBWF  xF4,W
00676:  BNC   0688
00678:  BNZ   0684
0067A:  MOVLB  0
0067C:  MOVF   x93,W
0067E:  MOVLB  1
00680:  SUBWF  xF3,W
00682:  BNC   0688
....................          tiempoctrl=0;// tiempoctrl incrementa una unidad cada 5ms, por eso se dividen los tiempos por 0.005. 
00684:  CLRF   xF4
00686:  CLRF   xF3
....................    } 
....................  
....................    if(tiempos>=200){  // 12000 para que incremente cada minuto, 200para que incremente cada segundo. 
00688:  MOVF   xEE,F
0068A:  BNZ   0694
0068C:  MOVF   xED,W
0068E:  SUBLW  C7
00690:  BTFSC  FD8.0
00692:  BRA    07E0
....................       if(flagTC) 
00694:  MOVLB  0
00696:  BTFSS  x8C.7
00698:  BRA    069E
....................          TiempoControl++; 
0069A:  MOVLB  2
0069C:  INCF   x0B,F
....................        
....................       tiemporecta++; 
0069E:  MOVLB  1
006A0:  INCF   xD6,F
....................        
....................       if(IniciaCiclo && tiempoImpresion<CalculoImpresion){ 
006A2:  MOVLB  0
006A4:  BTFSS  x83.3
006A6:  BRA    06BA
006A8:  MOVLB  1
006AA:  MOVF   xD9,W
006AC:  SUBWF  xEC,W
006AE:  BTFSS  FD8.0
006B0:  BRA    06B6
006B2:  MOVLB  0
006B4:  BRA    06BA
....................          tiempoImpresion++; 
006B6:  INCF   xEC,F
....................       }else if(tiempoImpresion>=CalculoImpresion){ 
006B8:  BRA    06C6
006BA:  MOVLB  1
006BC:  MOVF   xD9,W
006BE:  SUBWF  xEC,W
006C0:  BNC   06C6
....................          flagImprime=1; 
006C2:  BSF    xD4.0
....................          tiempoImpresion=0; 
006C4:  CLRF   xEC
....................       } 
....................        
....................       if(guardaCiclo) 
006C6:  MOVLB  0
006C8:  BTFSS  x82.7
006CA:  BRA    06D2
....................          tguarda++; 
006CC:  INCF   x95,F
006CE:  BTFSC  FD8.2
006D0:  INCF   x96,F
....................        
....................       if(IniciaCiclo && !Esterilizando && DOOR) 
006D2:  BTFSS  x83.3
006D4:  BRA    06E6
006D6:  BTFSC  x83.4
006D8:  BRA    06E6
006DA:  BSF    F93.6
006DC:  BTFSC  F81.6
006DE:  BRA    06E6
....................          TiempoCiclo++; 
006E0:  INCF   x8D,F
006E2:  BTFSC  FD8.2
006E4:  INCF   x8E,F
....................           
....................       if(IniciaLlenado && !CalderinLleno) 
006E6:  BTFSS  x83.2
006E8:  BRA    06F8
006EA:  BTFSC  x88.1
006EC:  BRA    06F8
....................          TiempoLlenado++; 
006EE:  MOVLB  2
006F0:  INCF   x19,F
006F2:  BTFSC  FD8.2
006F4:  INCF   x1A,F
006F6:  MOVLB  0
....................           
....................       if(SensadoNivel) 
006F8:  BTFSS  x83.6
006FA:  BRA    0702
....................          TiempoSensadoNivel++; 
006FC:  INCF   x8F,F
006FE:  BTFSC  FD8.2
00700:  INCF   x90,F
....................        
....................       if(IniciaVacio) 
00702:  BTFSS  x8B.4
00704:  BRA    0710
....................          tvacio++;          
00706:  MOVLB  2
00708:  INCF   x01,F
0070A:  BTFSC  FD8.2
0070C:  INCF   x02,F
0070E:  MOVLB  0
....................        
....................       if(IniciaVacio2) 
00710:  BTFSS  x8B.5
00712:  BRA    0722
....................          tbomba++; 
00714:  MOVLB  1
00716:  INCF   xFF,F
00718:  BTFSS  FD8.2
0071A:  BRA    0722
0071C:  MOVLB  2
0071E:  INCF   x00,F
00720:  MOVLB  1
....................       
....................       tiempos=0;Lectura=1;tinicio++; 
00722:  MOVLB  1
00724:  CLRF   xEE
00726:  CLRF   xED
00728:  MOVLB  0
0072A:  BSF    x8C.4
0072C:  MOVLB  1
0072E:  INCF   xF7,F
00730:  BTFSC  FD8.2
00732:  INCF   xF8,F
....................     
....................       if(Esterilizando && !Desfogando){                
00734:  MOVLB  0
00736:  BTFSS  x83.4
00738:  BRA    078C
0073A:  BTFSC  x83.7
0073C:  BRA    078C
....................          if(Testerilizacion[0]>0){ 
0073E:  BTFSC  x97.7
00740:  BRA    074C
00742:  MOVF   x97,W
00744:  SUBLW  00
00746:  BC    074C
....................             Testerilizacion[0]--; 
00748:  DECF   x97,F
....................          }else if(Testerilizacion[1]>0){ 
0074A:  BRA    078C
0074C:  BTFSC  x98.7
0074E:  BRA    075E
00750:  MOVF   x98,W
00752:  SUBLW  00
00754:  BC    075E
....................             Testerilizacion[1]--; 
00756:  DECF   x98,F
....................             Testerilizacion[0]=9; 
00758:  MOVLW  09
0075A:  MOVWF  x97
....................          }else if(Testerilizacion[2]>0){ 
0075C:  BRA    078C
0075E:  BTFSC  x99.7
00760:  BRA    0774
00762:  MOVF   x99,W
00764:  SUBLW  00
00766:  BC    0774
....................             Testerilizacion[2]--; 
00768:  DECF   x99,F
....................             Testerilizacion[1]=5; 
0076A:  MOVLW  05
0076C:  MOVWF  x98
....................             Testerilizacion[0]=9; 
0076E:  MOVLW  09
00770:  MOVWF  x97
....................          }else if(Testerilizacion[3]>0){ 
00772:  BRA    078C
00774:  BTFSC  x9A.7
00776:  BRA    078C
00778:  MOVF   x9A,W
0077A:  SUBLW  00
0077C:  BC    078C
....................             Testerilizacion[3]--; 
0077E:  DECF   x9A,F
....................             Testerilizacion[2]=9; 
00780:  MOVLW  09
00782:  MOVWF  x99
....................             Testerilizacion[1]=5; 
00784:  MOVLW  05
00786:  MOVWF  x98
....................             Testerilizacion[0]=9; 
00788:  MOVLW  09
0078A:  MOVWF  x97
....................          } 
....................       } 
....................        
....................       if(Secando){ 
0078C:  BTFSS  x83.5
0078E:  BRA    07DE
....................          if(Tsecado[0]>0){ 
00790:  BTFSC  x9F.7
00792:  BRA    079E
00794:  MOVF   x9F,W
00796:  SUBLW  00
00798:  BC    079E
....................             Tsecado[0]--; 
0079A:  DECF   x9F,F
....................          }else if(Tsecado[1]>0){ 
0079C:  BRA    07DE
0079E:  BTFSC  xA0.7
007A0:  BRA    07B0
007A2:  MOVF   xA0,W
007A4:  SUBLW  00
007A6:  BC    07B0
....................             Tsecado[1]--; 
007A8:  DECF   xA0,F
....................             Tsecado[0]=9; 
007AA:  MOVLW  09
007AC:  MOVWF  x9F
....................          }else if(Tsecado[2]>0){ 
007AE:  BRA    07DE
007B0:  BTFSC  xA1.7
007B2:  BRA    07C6
007B4:  MOVF   xA1,W
007B6:  SUBLW  00
007B8:  BC    07C6
....................             Tsecado[2]--; 
007BA:  DECF   xA1,F
....................             Tsecado[1]=5; 
007BC:  MOVLW  05
007BE:  MOVWF  xA0
....................             Tsecado[0]=9; 
007C0:  MOVLW  09
007C2:  MOVWF  x9F
....................          }else if(Tsecado[3]>0){ 
007C4:  BRA    07DE
007C6:  BTFSC  xA2.7
007C8:  BRA    07DE
007CA:  MOVF   xA2,W
007CC:  SUBLW  00
007CE:  BC    07DE
....................             Tsecado[3]--; 
007D0:  DECF   xA2,F
....................             Tsecado[2]=9; 
007D2:  MOVLW  09
007D4:  MOVWF  xA1
....................             Tsecado[1]=5; 
007D6:  MOVLW  05
007D8:  MOVWF  xA0
....................             Tsecado[0]=9; 
007DA:  MOVLW  09
007DC:  MOVWF  x9F
007DE:  MOVLB  1
....................          } 
....................       } 
....................    } 
.................... } 
....................  
007E0:  BCF    F9E.0
007E2:  MOVLB  0
007E4:  GOTO   0074
.................... void main() 
.................... { 
*
068F4:  CLRF   FF8
068F6:  BCF    FF1.2
068F8:  BCF    F9F.0
068FA:  BSF    F9F.5
068FC:  BSF    FD0.7
068FE:  BSF    07.7
06900:  CLRF   FEA
06902:  CLRF   FE9
06904:  BSF    FB8.3
06906:  MOVLW  08
06908:  MOVWF  FAF
0690A:  MOVLW  02
0690C:  MOVWF  FB0
0690E:  MOVLW  A6
06910:  MOVWF  FAC
06912:  MOVLW  90
06914:  MOVWF  FAB
06916:  CLRF   46
06918:  CLRF   x67
0691A:  CLRF   x68
0691C:  CLRF   x69
0691E:  BCF    x82.0
06920:  BCF    x82.1
06922:  BCF    x82.2
06924:  BCF    x82.3
06926:  BCF    x82.4
06928:  BCF    x82.5
0692A:  BCF    x82.6
0692C:  BCF    x82.7
0692E:  BCF    x83.0
06930:  BCF    x83.1
06932:  MOVLW  02
06934:  MOVWF  x85
06936:  MOVLW  58
06938:  MOVWF  x84
0693A:  CLRF   x87
0693C:  CLRF   x86
0693E:  BCF    x83.2
06940:  BCF    x83.3
06942:  BCF    x83.4
06944:  BCF    x83.5
06946:  BCF    x83.6
06948:  BCF    x83.7
0694A:  BCF    x88.0
0694C:  BCF    x88.1
0694E:  BCF    x88.2
06950:  BCF    x88.3
06952:  BCF    x88.4
06954:  BCF    x88.5
06956:  BCF    x88.6
06958:  BCF    x88.7
0695A:  BCF    x89.0
0695C:  BCF    x89.1
0695E:  BCF    x89.2
06960:  BCF    x89.3
06962:  BCF    x89.4
06964:  BCF    x89.5
06966:  BCF    x89.6
06968:  BCF    x89.7
0696A:  BCF    x8A.0
0696C:  BCF    x8A.1
0696E:  BCF    x8A.2
06970:  BCF    x8A.3
06972:  BCF    x8A.4
06974:  BCF    x8A.5
06976:  BCF    x8A.6
06978:  BCF    x8A.7
0697A:  BCF    x8B.0
0697C:  BCF    x8B.1
0697E:  BCF    x8B.2
06980:  BCF    x8B.3
06982:  BCF    x8B.4
06984:  BCF    x8B.5
06986:  BCF    x8B.6
06988:  BCF    x8B.7
0698A:  BCF    x8C.0
0698C:  BCF    x8C.1
0698E:  BCF    x8C.2
06990:  CLRF   x8E
06992:  CLRF   x8D
06994:  CLRF   x90
06996:  CLRF   x8F
06998:  CLRF   x92
0699A:  CLRF   x91
0699C:  CLRF   x94
0699E:  CLRF   x93
069A0:  CLRF   x96
069A2:  CLRF   x95
069A4:  MOVLB  1
069A6:  CLRF   x4A
069A8:  CLRF   x49
069AA:  CLRF   x48
069AC:  CLRF   x47
069AE:  MOVLW  5C
069B0:  MOVWF  x4E
069B2:  MOVLW  AA
069B4:  MOVWF  x4D
069B6:  MOVLW  52
069B8:  MOVWF  x4C
069BA:  MOVLW  77
069BC:  MOVWF  x4B
069BE:  CLRF   x52
069C0:  MOVLW  80
069C2:  MOVWF  x51
069C4:  MOVLW  3B
069C6:  MOVWF  x50
069C8:  MOVLW  8A
069CA:  MOVWF  x4F
069CC:  CLRF   x56
069CE:  MOVLW  C0
069D0:  MOVWF  x55
069D2:  MOVLW  41
069D4:  MOVWF  x54
069D6:  MOVLW  8A
069D8:  MOVWF  x53
069DA:  CLRF   x5A
069DC:  MOVLW  C0
069DE:  MOVWF  x59
069E0:  MOVLW  41
069E2:  MOVWF  x58
069E4:  MOVLW  8A
069E6:  MOVWF  x57
069E8:  CLRF   x5E
069EA:  MOVLW  80
069EC:  MOVWF  x5D
069EE:  MOVLW  54
069F0:  MOVWF  x5C
069F2:  MOVLW  8B
069F4:  MOVWF  x5B
069F6:  CLRF   x62
069F8:  CLRF   x61
069FA:  CLRF   x60
069FC:  CLRF   x5F
069FE:  CLRF   x66
06A00:  CLRF   x65
06A02:  CLRF   x64
06A04:  CLRF   x63
06A06:  CLRF   x72
06A08:  CLRF   x71
06A0A:  CLRF   x70
06A0C:  CLRF   x6F
06A0E:  CLRF   x76
06A10:  CLRF   x75
06A12:  CLRF   x74
06A14:  CLRF   x73
06A16:  CLRF   x7A
06A18:  CLRF   x79
06A1A:  CLRF   x78
06A1C:  CLRF   x77
06A1E:  CLRF   x7B
06A20:  CLRF   x7C
06A22:  MOVLW  14
06A24:  MOVWF  x7D
06A26:  CLRF   x7E
06A28:  CLRF   x7F
06A2A:  CLRF   x80
06A2C:  CLRF   x81
06A2E:  CLRF   x85
06A30:  CLRF   x84
06A32:  CLRF   x83
06A34:  CLRF   x82
06A36:  CLRF   x8D
06A38:  CLRF   x8C
06A3A:  MOVLW  20
06A3C:  MOVWF  x8B
06A3E:  MOVLW  82
06A40:  MOVWF  x8A
06A42:  CLRF   x91
06A44:  CLRF   x90
06A46:  CLRF   x8F
06A48:  CLRF   x8E
06A4A:  CLRF   x95
06A4C:  CLRF   x94
06A4E:  CLRF   x93
06A50:  CLRF   x92
06A52:  CLRF   x99
06A54:  CLRF   x98
06A56:  CLRF   x97
06A58:  CLRF   x96
06A5A:  CLRF   x9D
06A5C:  CLRF   x9C
06A5E:  CLRF   x9B
06A60:  CLRF   x9A
06A62:  CLRF   xA1
06A64:  CLRF   xA0
06A66:  CLRF   x9F
06A68:  CLRF   x9E
06A6A:  CLRF   xA5
06A6C:  CLRF   xA4
06A6E:  MOVLW  48
06A70:  MOVWF  xA3
06A72:  MOVLW  83
06A74:  MOVWF  xA2
06A76:  CLRF   xA9
06A78:  CLRF   xA8
06A7A:  MOVLW  20
06A7C:  MOVWF  xA7
06A7E:  MOVLW  83
06A80:  MOVWF  xA6
06A82:  CLRF   xAD
06A84:  CLRF   xAC
06A86:  CLRF   xAB
06A88:  MOVLW  7F
06A8A:  MOVWF  xAA
06A8C:  CLRF   xB1
06A8E:  CLRF   xB0
06A90:  CLRF   xAF
06A92:  CLRF   xAE
06A94:  CLRF   xB5
06A96:  CLRF   xB4
06A98:  CLRF   xB3
06A9A:  CLRF   xB2
06A9C:  CLRF   xB9
06A9E:  CLRF   xB8
06AA0:  CLRF   xB7
06AA2:  CLRF   xB6
06AA4:  CLRF   xBD
06AA6:  CLRF   xBC
06AA8:  CLRF   xBB
06AAA:  CLRF   xBA
06AAC:  CLRF   xC1
06AAE:  CLRF   xC0
06AB0:  CLRF   xBF
06AB2:  CLRF   xBE
06AB4:  CLRF   xC5
06AB6:  CLRF   xC4
06AB8:  CLRF   xC3
06ABA:  CLRF   xC2
06ABC:  MOVLW  E0
06ABE:  MOVWF  xC9
06AC0:  MOVLW  2D
06AC2:  MOVWF  xC8
06AC4:  MOVLW  10
06AC6:  MOVWF  xC7
06AC8:  MOVLW  75
06ACA:  MOVWF  xC6
06ACC:  MOVLW  FF
06ACE:  MOVWF  xCD
06AD0:  MOVLW  21
06AD2:  MOVWF  xCC
06AD4:  MOVLW  15
06AD6:  MOVWF  xCB
06AD8:  MOVLW  80
06ADA:  MOVWF  xCA
06ADC:  MOVLW  82
06ADE:  MOVWF  xD1
06AE0:  MOVLW  12
06AE2:  MOVWF  xD0
06AE4:  MOVLW  F4
06AE6:  MOVWF  xCF
06AE8:  MOVLW  86
06AEA:  MOVWF  xCE
06AEC:  CLRF   xD2
06AEE:  CLRF   xD3
06AF0:  MOVLB  0
06AF2:  BCF    x8C.3
06AF4:  BCF    x8C.4
06AF6:  BCF    x8C.5
06AF8:  BCF    x8C.6
06AFA:  BCF    x8C.7
06AFC:  MOVLB  1
06AFE:  BCF    xD4.0
06B00:  CLRF   xD5
06B02:  CLRF   xD6
06B04:  CLRF   xD7
06B06:  MOVLW  02
06B08:  MOVWF  xD8
06B0A:  CLRF   xD9
06B0C:  MOVLW  01
06B0E:  MOVWF  xDA
06B10:  CLRF   xDB
06B12:  CLRF   xDC
06B14:  CLRF   xDD
06B16:  CLRF   xDE
06B18:  MOVLW  F0
06B1A:  MOVWF  xDF
06B1C:  CLRF   xE0
06B1E:  CLRF   xE1
06B20:  CLRF   xE2
06B22:  CLRF   xE3
06B24:  CLRF   xE4
06B26:  CLRF   xE6
06B28:  MOVLW  04
06B2A:  MOVWF  xE5
06B2C:  CLRF   xE7
06B2E:  MOVLW  01
06B30:  MOVWF  xE8
06B32:  MOVWF  xE9
06B34:  CLRF   xEA
06B36:  CLRF   xEB
06B38:  CLRF   xEC
06B3A:  CLRF   xEE
06B3C:  CLRF   xED
06B3E:  CLRF   xF0
06B40:  CLRF   xEF
06B42:  CLRF   xF2
06B44:  CLRF   xF1
06B46:  CLRF   xF4
06B48:  CLRF   xF3
06B4A:  CLRF   xF6
06B4C:  CLRF   xF5
06B4E:  CLRF   xF8
06B50:  CLRF   xF7
06B52:  CLRF   xFA
06B54:  CLRF   xF9
06B56:  CLRF   xFC
06B58:  CLRF   xFB
06B5A:  CLRF   xFE
06B5C:  CLRF   xFD
06B5E:  MOVLB  2
06B60:  CLRF   x00
06B62:  MOVLB  1
06B64:  CLRF   xFF
06B66:  MOVLB  2
06B68:  CLRF   x02
06B6A:  CLRF   x01
06B6C:  CLRF   x07
06B6E:  CLRF   x08
06B70:  CLRF   x09
06B72:  CLRF   x0A
06B74:  CLRF   x0B
06B76:  CLRF   x0C
06B78:  CLRF   x0D
06B7A:  CLRF   x0E
06B7C:  CLRF   x0F
06B7E:  CLRF   x10
06B80:  CLRF   x11
06B82:  CLRF   x12
06B84:  CLRF   x14
06B86:  CLRF   x13
06B88:  CLRF   x16
06B8A:  CLRF   x15
06B8C:  CLRF   x18
06B8E:  CLRF   x17
06B90:  CLRF   x1A
06B92:  CLRF   x19
06B94:  MOVLW  12
06B96:  MOVWF  x1B
06B98:  MOVLW  09
06B9A:  MOVWF  x1C
06B9C:  MOVLW  0D
06B9E:  MOVWF  x1D
06BA0:  CLRF   x1E
06BA2:  CLRF   x1F
06BA4:  CLRF   x20
06BA6:  CLRF   x21
06BA8:  CLRF   x22
06BAA:  CLRF   x23
06BAC:  MOVLW  19
06BAE:  MOVWF  x24
06BB0:  MOVLW  4B
06BB2:  MOVWF  x25
06BB4:  MOVLW  0A
06BB6:  MOVWF  x26
06BB8:  CLRF   x27
06BBA:  CLRF   x28
06BBC:  CLRF   x29
06BBE:  CLRF   x2A
06BC0:  CLRF   x2B
06BC2:  CLRF   x2C
06BC4:  CLRF   x2D
06BC6:  CLRF   x2E
06BC8:  CLRF   x2F
06BCA:  CLRF   x30
06BCC:  CLRF   x31
06BCE:  CLRF   x32
06BD0:  CLRF   x33
06BD2:  CLRF   x34
06BD4:  CLRF   x35
06BD6:  CLRF   x36
06BD8:  CLRF   x37
06BDA:  CLRF   x38
06BDC:  CLRF   x39
06BDE:  CLRF   x9B
06BE0:  CLRF   x9C
06BE2:  CLRF   x9D
06BE4:  CLRF   x9E
06BE6:  CLRF   x9F
06BE8:  MOVF   FC1,W
06BEA:  ANDLW  C0
06BEC:  IORLW  0F
06BEE:  MOVWF  FC1
06BF0:  MOVLW  07
06BF2:  MOVWF  FB4
06BF4:  CLRF   2A
06BF6:  CLRF   2B
06BF8:  MOVLB  0
06BFA:  CLRF   x6A
06BFC:  MOVLW  03
06BFE:  MOVWF  x6B
06C00:  MOVWF  x6C
06C02:  MOVLW  06
06C04:  MOVWF  x6D
06C06:  MOVLW  01
06C08:  MOVWF  x6E
06C0A:  MOVLW  04
06C0C:  MOVWF  x6F
06C0E:  MOVLW  06
06C10:  MOVWF  x70
06C12:  MOVLW  02
06C14:  MOVWF  x71
06C16:  MOVLW  05
06C18:  MOVWF  x72
06C1A:  CLRF   x73
06C1C:  MOVLW  03
06C1E:  MOVWF  x74
06C20:  MOVLW  05
06C22:  MOVWF  x75
06C24:  CLRF   x76
06C26:  MOVLW  03
06C28:  MOVWF  x77
06C2A:  MOVLW  04
06C2C:  MOVWF  x78
06C2E:  CLRF   x79
06C30:  MOVLW  02
06C32:  MOVWF  x7A
06C34:  MOVLW  05
06C36:  MOVWF  x7B
06C38:  CLRF   x7C
06C3A:  MOVLW  03
06C3C:  MOVWF  x7D
06C3E:  MOVLW  06
06C40:  MOVWF  x7E
06C42:  MOVLW  01
06C44:  MOVWF  x7F
06C46:  MOVLW  04
06C48:  MOVWF  x80
06C4A:  MOVLW  06
06C4C:  MOVWF  x81
06C4E:  CLRF   x97
06C50:  CLRF   x98
06C52:  CLRF   x99
06C54:  CLRF   x9A
06C56:  CLRF   x9B
06C58:  CLRF   x9C
06C5A:  CLRF   x9D
06C5C:  CLRF   x9E
06C5E:  CLRF   x9F
06C60:  CLRF   xA0
06C62:  CLRF   xA1
06C64:  CLRF   xA2
06C66:  CLRF   xA3
06C68:  CLRF   xA4
06C6A:  CLRF   xA5
06C6C:  CLRF   xA6
06C6E:  CLRF   xA7
06C70:  CLRF   xA8
06C72:  CLRF   xA9
06C74:  CLRF   xAA
06C76:  CLRF   xAB
06C78:  CLRF   xAC
06C7A:  CLRF   xAD
06C7C:  CLRF   xAE
06C7E:  CLRF   xAF
06C80:  CLRF   xB0
06C82:  CLRF   xB1
06C84:  CLRF   xB2
06C86:  CLRF   xB3
06C88:  CLRF   xB4
06C8A:  CLRF   xB5
06C8C:  CLRF   xB6
06C8E:  CLRF   xB7
06C90:  CLRF   xB8
06C92:  CLRF   xB9
06C94:  CLRF   xBA
06C96:  CLRF   xBB
06C98:  CLRF   xBC
06C9A:  CLRF   xBD
06C9C:  CLRF   xBE
06C9E:  CLRF   xBF
06CA0:  CLRF   xC0
06CA2:  CLRF   xC1
06CA4:  CLRF   xC2
06CA6:  CLRF   xC3
06CA8:  CLRF   xC4
06CAA:  CLRF   xC5
06CAC:  CLRF   xC6
06CAE:  CLRF   xC7
06CB0:  CLRF   xC8
06CB2:  CLRF   xC9
06CB4:  CLRF   xCA
06CB6:  CLRF   xCB
06CB8:  CLRF   xCC
06CBA:  CLRF   xCD
06CBC:  CLRF   xCE
06CBE:  CLRF   xCF
06CC0:  CLRF   xD0
06CC2:  CLRF   xD1
06CC4:  CLRF   xD2
06CC6:  CLRF   xD3
06CC8:  CLRF   xD4
06CCA:  CLRF   xD5
06CCC:  CLRF   xD6
06CCE:  CLRF   xD7
06CD0:  CLRF   xD8
06CD2:  CLRF   xD9
06CD4:  CLRF   xDA
06CD6:  CLRF   xDB
06CD8:  CLRF   xDC
06CDA:  CLRF   xDD
06CDC:  CLRF   xDE
06CDE:  CLRF   xDF
06CE0:  CLRF   xE0
06CE2:  CLRF   xE1
06CE4:  CLRF   xE2
06CE6:  CLRF   xE3
06CE8:  CLRF   xE4
06CEA:  CLRF   xE5
06CEC:  CLRF   xE6
06CEE:  CLRF   xE7
06CF0:  CLRF   xE8
06CF2:  CLRF   xE9
06CF4:  CLRF   xEA
06CF6:  CLRF   xEB
06CF8:  CLRF   xEC
06CFA:  CLRF   xED
06CFC:  CLRF   xEE
06CFE:  CLRF   xEF
06D00:  CLRF   xF0
06D02:  CLRF   xF1
06D04:  CLRF   xF2
06D06:  CLRF   xF3
06D08:  CLRF   xF4
06D0A:  CLRF   xF5
06D0C:  CLRF   xF6
06D0E:  CLRF   xF7
06D10:  CLRF   xF8
06D12:  CLRF   xF9
06D14:  CLRF   xFA
06D16:  CLRF   xFB
06D18:  CLRF   xFC
06D1A:  CLRF   xFD
06D1C:  CLRF   xFE
06D1E:  CLRF   xFF
06D20:  MOVLB  1
06D22:  CLRF   x00
06D24:  CLRF   x01
06D26:  CLRF   x02
06D28:  CLRF   x03
06D2A:  CLRF   x04
06D2C:  CLRF   x05
06D2E:  CLRF   x06
06D30:  CLRF   x07
06D32:  CLRF   x08
06D34:  CLRF   x09
06D36:  CLRF   x0A
06D38:  CLRF   x0B
06D3A:  CLRF   x0C
06D3C:  CLRF   x0D
06D3E:  CLRF   x0E
06D40:  CLRF   x0F
06D42:  CLRF   x10
06D44:  CLRF   x11
06D46:  CLRF   x12
06D48:  CLRF   x13
06D4A:  CLRF   x14
06D4C:  CLRF   x15
06D4E:  CLRF   x16
06D50:  CLRF   x17
06D52:  CLRF   x18
06D54:  CLRF   x19
06D56:  CLRF   x1A
06D58:  CLRF   x1B
06D5A:  CLRF   x1C
06D5C:  CLRF   x1D
06D5E:  CLRF   x1E
06D60:  CLRF   x1F
06D62:  CLRF   x20
06D64:  CLRF   x21
06D66:  CLRF   x22
06D68:  CLRF   x23
06D6A:  CLRF   x24
06D6C:  CLRF   x25
06D6E:  CLRF   x26
06D70:  CLRF   x27
06D72:  CLRF   x28
06D74:  CLRF   x29
06D76:  CLRF   x2A
06D78:  CLRF   x2B
06D7A:  CLRF   x2C
06D7C:  CLRF   x2D
06D7E:  CLRF   x2E
06D80:  CLRF   x2F
06D82:  CLRF   x30
06D84:  CLRF   x31
06D86:  CLRF   x32
06D88:  CLRF   x33
06D8A:  CLRF   x34
06D8C:  CLRF   x35
06D8E:  CLRF   x36
06D90:  CLRF   x37
06D92:  CLRF   x38
06D94:  CLRF   x39
06D96:  CLRF   x3A
06D98:  CLRF   x3B
06D9A:  CLRF   x3C
06D9C:  CLRF   x3D
06D9E:  CLRF   x3E
06DA0:  CLRF   x3F
06DA2:  CLRF   x40
06DA4:  CLRF   x41
06DA6:  CLRF   x42
06DA8:  CLRF   x43
06DAA:  CLRF   x44
06DAC:  CLRF   x45
06DAE:  CLRF   x46
06DB0:  CLRF   x67
06DB2:  CLRF   x68
06DB4:  CLRF   x69
06DB6:  CLRF   x6A
06DB8:  CLRF   x6B
06DBA:  CLRF   x6C
06DBC:  CLRF   x6D
06DBE:  CLRF   x6E
06DC0:  MOVLB  2
06DC2:  CLRF   x03
06DC4:  CLRF   x04
06DC6:  CLRF   x05
06DC8:  CLRF   x06
06DCA:  CLRF   xA0
06DCC:  CLRF   xA1
06DCE:  CLRF   xA2
06DD0:  CLRF   xA3
....................    setup_timer_0(RTCC_8_BIT|RTCC_DIV_1); 
06DD2:  MOVLW  C8
06DD4:  MOVWF  FD5
....................    enable_interrupts(INT_TIMER0); 
06DD6:  BSF    FF2.5
....................    setup_timer_1(T1_INTERNAL|T1_DIV_BY_1); 
06DD8:  MOVLW  85
06DDA:  MOVWF  FCD
....................    enable_interrupts(INT_TIMER1); 
06DDC:  BSF    F9D.0
....................    setup_adc_ports(AN0_TO_AN2); 
06DDE:  MOVF   FC1,W
06DE0:  ANDLW  C0
06DE2:  IORLW  0C
06DE4:  MOVWF  FC1
....................    setup_adc(ADC_CLOCK_DIV_64); 
06DE6:  MOVF   FC0,W
06DE8:  ANDLW  C0
06DEA:  IORLW  06
06DEC:  MOVWF  FC0
06DEE:  BSF    FC0.7
06DF0:  BSF    FC2.0
....................    port_b_pullups(true); 
06DF2:  BCF    FF1.7
....................    enable_interrupts(int_rda); 
06DF4:  BSF    F9D.5
....................    setup_wdt(WDT_ON); 
06DF6:  BSF    FD1.0
....................    enable_interrupts(global); 
06DF8:  MOVLW  C0
06DFA:  IORWF  FF2,F
....................    LeeEEPROM(); 
06DFC:  MOVLB  0
06DFE:  GOTO   23DC
....................    rtc_init(); 
06E02:  GOTO   3660
....................    delay_ms(1); 
06E06:  MOVLW  01
06E08:  MOVLB  6
06E0A:  MOVWF  x3D
06E0C:  MOVLB  0
06E0E:  CALL   1D06
....................    LimitaValores(); 
06E12:  GOTO   3700
....................    CalculoImpresion=timpresion*60; 
06E16:  MOVLB  1
06E18:  MOVF   xD8,W
06E1A:  MULLW  3C
06E1C:  MOVFF  FF3,1D9
....................    printf("page Bienvenida"); 
06E20:  MOVLW  E8
06E22:  MOVWF  FF6
06E24:  MOVLW  07
06E26:  MOVWF  FF7
06E28:  MOVLW  00
06E2A:  MOVWF  FF8
06E2C:  MOVLB  0
06E2E:  CALL   3B38
....................    SendDataDisplay(); 
06E32:  CALL   3B6A
....................    printf("bkcmd=0"); 
06E36:  MOVLW  F8
06E38:  MOVWF  FF6
06E3A:  MOVLW  07
06E3C:  MOVWF  FF7
06E3E:  MOVLW  00
06E40:  MOVWF  FF8
06E42:  CALL   3B38
....................    SendDataDisplay(); 
06E46:  CALL   3B6A
....................    delay_ms(3500);  
06E4A:  MOVLW  0E
06E4C:  MOVLB  6
06E4E:  MOVWF  x34
06E50:  MOVLW  FA
06E52:  MOVWF  x3D
06E54:  MOVLB  0
06E56:  CALL   1D06
06E5A:  MOVLB  6
06E5C:  DECFSZ x34,F
06E5E:  BRA    6E50
....................    printf("page Usuarios"); 
06E60:  MOVLW  00
06E62:  MOVWF  FF6
06E64:  MOVLW  08
06E66:  MOVWF  FF7
06E68:  MOVLW  00
06E6A:  MOVWF  FF8
06E6C:  MOVLB  0
06E6E:  CALL   3B38
....................    SendDataDisplay(); 
06E72:  CALL   3B6A
....................    ApagaSalidas(); 
06E76:  CALL   3BA0
....................    AN=1023*(R8+R9); 
06E7A:  BCF    FD8.1
06E7C:  MOVFF  156,649
06E80:  MOVFF  155,648
06E84:  MOVFF  154,647
06E88:  MOVFF  153,646
06E8C:  MOVFF  15A,64D
06E90:  MOVFF  159,64C
06E94:  MOVFF  158,64B
06E98:  MOVFF  157,64A
06E9C:  CALL   1E8C
06EA0:  MOVLB  6
06EA2:  CLRF   x4D
06EA4:  MOVLW  C0
06EA6:  MOVWF  x4C
06EA8:  MOVLW  7F
06EAA:  MOVWF  x4B
06EAC:  MOVLW  88
06EAE:  MOVWF  x4A
06EB0:  MOVFF  03,651
06EB4:  MOVFF  02,650
06EB8:  MOVFF  01,64F
06EBC:  MOVFF  00,64E
06EC0:  MOVLB  0
06EC2:  CALL   3BBC
06EC6:  MOVFF  03,162
06ECA:  MOVFF  02,161
06ECE:  MOVFF  01,160
06ED2:  MOVFF  00,15F
....................    //TiempoVacio=CantidadPulsos*360;  
....................    TiempoVacio=360;  
06ED6:  MOVLW  01
06ED8:  MOVWF  x85
06EDA:  MOVLW  68
06EDC:  MOVWF  x84
....................    Sensor[0].Gain=105.51; 
06EDE:  MOVLW  1F
06EE0:  MOVLB  4
06EE2:  MOVWF  x07
06EE4:  MOVLW  05
06EE6:  MOVWF  x06
06EE8:  MOVLW  53
06EEA:  MOVWF  x05
06EEC:  MOVLW  85
06EEE:  MOVWF  x04
....................    Sensor[1].Gain=105.51; 
06EF0:  MOVLW  1F
06EF2:  MOVLB  5
06EF4:  MOVWF  x6B
06EF6:  MOVLW  05
06EF8:  MOVWF  x6A
06EFA:  MOVLW  53
06EFC:  MOVWF  x69
06EFE:  MOVLW  85
06F00:  MOVWF  x68
....................     
....................    for(i=0;i<MediaMovil;i++){ 
06F02:  MOVLB  1
06F04:  CLRF   xE0
06F06:  MOVF   x7D,W
06F08:  SUBWF  xE0,W
06F0A:  BC    6F30
....................       Temperatura=LeerPT100(0,MediaMovil); 
06F0C:  MOVLB  6
06F0E:  CLRF   x34
06F10:  MOVFF  17D,635
06F14:  MOVLB  0
06F16:  CALL   3D0A
06F1A:  MOVFF  03,1C1
06F1E:  MOVFF  02,1C0
06F22:  MOVFF  01,1BF
06F26:  MOVFF  00,1BE
....................    } 
06F2A:  MOVLB  1
06F2C:  INCF   xE0,F
06F2E:  BRA    6F06
....................     
....................    while(true) 
....................    { 
....................       rtc_get_date(Dia,Mes,Year,dow); 
....................       rtc_get_time(Hora,Minuto,Segundo); 
....................       LeeDisplay(); 
*
06FF4:  GOTO   45D0
....................       //Envio_Esclavos(); 
....................       delay_ms(1); 
06FF8:  MOVLW  01
06FFA:  MOVLB  6
06FFC:  MOVWF  x3D
06FFE:  MOVLB  0
07000:  CALL   1D06
....................       //Lectura_Esclavos(); 
....................       restart_wdt(); 
07004:  CLRWDT
....................  
.................... // Monitoreo Nivel de Agua//-------------------------------------- 
....................             if(!LOW){//Si no sensa agua en el nivel alto y no se ha llenado el calderin          
07006:  BSF    F94.1
07008:  BTFSC  F82.1
0700A:  BRA    7020
....................                TiempoSensadoNivel=0; 
0700C:  CLRF   x90
0700E:  CLRF   x8F
....................                Controlando=0;    
07010:  MOVLB  1
07012:  CLRF   xD7
....................                CalderinLleno=OFF; 
07014:  MOVLB  0
07016:  BCF    x88.1
....................                SensadoNivel=OFF; 
07018:  BCF    x83.6
....................                TiempoSensadoNivel=0; 
0701A:  CLRF   x90
0701C:  CLRF   x8F
....................             } else{  
0701E:  BRA    7032
....................                   SensadoNivel=ON; 
07020:  BSF    x83.6
....................                   if(TiempoSensadoNivel>2) 
07022:  MOVF   x90,F
07024:  BNZ   702C
07026:  MOVF   x8F,W
07028:  SUBLW  02
0702A:  BC    7032
....................                   { 
....................                      SensadoNivel=OFF; 
0702C:  BCF    x83.6
....................                      CalderinLleno=ON; 
0702E:  BSF    x88.1
....................                      IniciaLlenado=OFF;                   
07030:  BCF    x83.2
....................                   } 
....................             } 
....................        
.................... // Tiempo de Grafica//-------------------------------------- 
....................       if(tiempos2>=2000){ 
07032:  MOVLB  1
07034:  MOVF   xF0,W
07036:  SUBLW  06
07038:  BC    704E
0703A:  XORLW  FF
0703C:  BNZ   7044
0703E:  MOVF   xEF,W
07040:  SUBLW  CF
07042:  BC    704E
....................          Grafica=1; 
07044:  MOVLB  0
07046:  BSF    x8C.5
....................          tiempos2=0; 
07048:  MOVLB  1
0704A:  CLRF   xF0
0704C:  CLRF   xEF
....................       } 
....................  
.................... // Tiempo de Muestreo//-------------------------------------- 
....................       if(tiempos3>=20){ 
0704E:  MOVF   xF2,F
07050:  BNZ   7058
07052:  MOVF   xF1,W
07054:  SUBLW  13
07056:  BC    70A4
....................          Temperatura=LeerPt100(0,MediaMovil); 
07058:  MOVLB  6
0705A:  CLRF   x34
0705C:  MOVFF  17D,635
07060:  MOVLB  0
07062:  CALL   3D0A
07066:  MOVFF  03,1C1
0706A:  MOVFF  02,1C0
0706E:  MOVFF  01,1BF
07072:  MOVFF  00,1BE
....................          PresionCamara=Leer_Sensor_Presion_Camara(10); 
07076:  MOVLW  0A
07078:  MOVLB  6
0707A:  MOVWF  x34
0707C:  MOVLB  0
0707E:  GOTO   4812
07082:  MOVFF  03,649
07086:  MOVFF  02,648
0708A:  MOVFF  01,647
0708E:  MOVFF  00,646
07092:  CALL   4A58
07096:  MOVFF  02,1FA
0709A:  MOVFF  01,1F9
....................          tiempos3=0; 
0709E:  MOVLB  1
070A0:  CLRF   xF2
070A2:  CLRF   xF1
....................       } 
....................        
.................... // Monitoreo Parada Emergencia//--------------------------------------       
....................       if(!STOP && !IniciaCiclo && !PruebaEstados){ 
070A4:  BSF    F93.7
070A6:  BTFSS  F81.7
070A8:  BRA    7104
070AA:  MOVLB  0
070AC:  BTFSS  x83.3
070AE:  BRA    70B4
070B0:  MOVLB  1
070B2:  BRA    7104
070B4:  BTFSS  x88.5
070B6:  BRA    70BC
070B8:  MOVLB  1
070BA:  BRA    7104
....................          if(!disp_Stop){ 
070BC:  BTFSC  x8C.6
070BE:  BRA    70C8
....................             disp_Stop=1;Menu=255; 
070C0:  BSF    x8C.6
070C2:  MOVLW  FF
070C4:  MOVLB  1
070C6:  MOVWF  xDD
....................          } 
....................          Controlando=0; 
070C8:  MOVLB  1
070CA:  CLRF   xD7
....................          Desfogue_on; 
070CC:  BSF    F8C.4
070CE:  BCF    F95.4
....................          Paso_off; 
070D0:  BCF    F8C.5
070D2:  BCF    F95.5
....................          Agua_off; 
070D4:  BCF    F8C.6
070D6:  BCF    F95.6
....................          DesfogueSuave=OFF; 
070D8:  MOVLB  0
070DA:  BCF    x88.0
....................          printf("page Emergencia"); 
070DC:  MOVLW  0E
070DE:  MOVWF  FF6
070E0:  MOVLW  08
070E2:  MOVWF  FF7
070E4:  MOVLW  00
070E6:  MOVWF  FF8
070E8:  CALL   3B38
....................          SendDataDisplay(); 
070EC:  CALL   3B6A
....................          ActivaAlarma(1); 
070F0:  MOVLW  01
070F2:  MOVLB  6
070F4:  MOVWF  x34
070F6:  MOVLB  0
070F8:  CALL   4A94
....................          BorraBuffer(); 
070FC:  GOTO   4B4C
....................       }else{ 
07100:  BRA    710C
07102:  MOVLB  1
....................          if(disp_Stop){ 
07104:  MOVLB  0
07106:  BTFSS  x8C.6
07108:  BRA    710C
....................             reset_cpu(); 
0710A:  RESET
....................          } 
....................       }            
....................    //Buzzer_off;    
.................... //_-------------------------------------------------------------------------------------------------------------------------------------------------------- 
....................    if(Menu==240){ //Menu de Bienvenida. 
0710C:  MOVLB  1
0710E:  MOVF   xDD,W
07110:  SUBLW  F0
07112:  BNZ   715C
....................       printf("bkcmd=0"); 
07114:  MOVLW  1E
07116:  MOVWF  FF6
07118:  MOVLW  08
0711A:  MOVWF  FF7
0711C:  MOVLW  00
0711E:  MOVWF  FF8
07120:  MOVLB  0
07122:  CALL   3B38
....................       SendDataDisplay(); 
07126:  CALL   3B6A
....................       delay_ms(1500); 
0712A:  MOVLW  06
0712C:  MOVLB  6
0712E:  MOVWF  x34
07130:  MOVLW  FA
07132:  MOVWF  x3D
07134:  MOVLB  0
07136:  CALL   1D06
0713A:  MOVLB  6
0713C:  DECFSZ x34,F
0713E:  BRA    7130
....................       printf("page Usuarios"); 
07140:  MOVLW  26
07142:  MOVWF  FF6
07144:  MOVLW  08
07146:  MOVWF  FF7
07148:  MOVLW  00
0714A:  MOVWF  FF8
0714C:  MOVLB  0
0714E:  CALL   3B38
....................       SendDataDisplay(); 
07152:  CALL   3B6A
....................       ApagaSalidas(); 
07156:  CALL   3BA0
0715A:  MOVLB  1
....................    } 
.................... //_-------------------------------------------------------------------------------------------------------------------------------------------------------- 
....................  
.................... //_-------------------------------------------------------------------------------------------------------------------------------------------------------- 
....................     if(Menu==0){ //Menu de Contrasea de acceso. 
0715C:  MOVF   xDD,F
0715E:  BTFSS  FD8.2
07160:  GOTO   7946
....................       ApagaSalidas(); 
07164:  MOVLB  0
07166:  CALL   3BA0
....................       //printf("bkcmd=0"); 
....................       //SendDataDisplay(); 
....................       if(RX_Buffer[4]==0x11){//11 
0716A:  MOVF   34,W
0716C:  SUBLW  11
0716E:  BNZ   7190
....................          if(TipoClave!=0){ 
07170:  MOVLB  1
07172:  MOVF   x7F,F
07174:  BZ    7190
....................             printf("page MenuPrincipal"); 
07176:  MOVLW  34
07178:  MOVWF  FF6
0717A:  MOVLW  08
0717C:  MOVWF  FF7
0717E:  MOVLW  00
07180:  MOVWF  FF8
07182:  MOVLB  0
07184:  CALL   3B38
....................             SendDataDisplay(); 
07188:  CALL   3B6A
....................             PantallaPrincipal=0; 
0718C:  MOVLB  1
0718E:  CLRF   x7E
....................          } 
....................       } 
....................        
....................       if(TipoClave==3){ 
07190:  MOVLB  1
07192:  MOVF   x7F,W
07194:  SUBLW  03
07196:  BNZ   71C4
....................          printf("titulo.txt=\"Clave Nueva\""); 
07198:  MOVLW  48
0719A:  MOVWF  FF6
0719C:  MOVLW  08
0719E:  MOVWF  FF7
071A0:  MOVLW  00
071A2:  MOVWF  FF8
071A4:  MOVLB  0
071A6:  CALL   3B38
....................          SendDataDisplay(); 
071AA:  CALL   3B6A
....................          printf("doevents"); 
071AE:  MOVLW  62
071B0:  MOVWF  FF6
071B2:  MOVLW  08
071B4:  MOVWF  FF7
071B6:  MOVLW  00
071B8:  MOVWF  FF8
071BA:  CALL   3B38
....................          SendDataDisplay(); 
071BE:  CALL   3B6A
071C2:  MOVLB  1
....................       } 
....................        
....................       if(TipoClave==2){ 
071C4:  MOVF   x7F,W
071C6:  SUBLW  02
071C8:  BNZ   71F6
....................          printf("titulo.txt=\"Clave Actual\""); 
071CA:  MOVLW  6C
071CC:  MOVWF  FF6
071CE:  MOVLW  08
071D0:  MOVWF  FF7
071D2:  MOVLW  00
071D4:  MOVWF  FF8
071D6:  MOVLB  0
071D8:  CALL   3B38
....................          SendDataDisplay(); 
071DC:  CALL   3B6A
....................          printf("doevents"); 
071E0:  MOVLW  86
071E2:  MOVWF  FF6
071E4:  MOVLW  08
071E6:  MOVWF  FF7
071E8:  MOVLW  00
071EA:  MOVWF  FF8
071EC:  CALL   3B38
....................          SendDataDisplay(); 
071F0:  CALL   3B6A
071F4:  MOVLB  1
....................       } 
....................        
....................       if(TipoClave==1){ 
071F6:  DECFSZ x7F,W
071F8:  BRA    7226
....................          printf("titulo.txt=\"Clave Tecnico\""); 
071FA:  MOVLW  90
071FC:  MOVWF  FF6
071FE:  MOVLW  08
07200:  MOVWF  FF7
07202:  MOVLW  00
07204:  MOVWF  FF8
07206:  MOVLB  0
07208:  CALL   3B38
....................          SendDataDisplay(); 
0720C:  CALL   3B6A
....................          printf("doevents"); 
07210:  MOVLW  AC
07212:  MOVWF  FF6
07214:  MOVLW  08
07216:  MOVWF  FF7
07218:  MOVLW  00
0721A:  MOVWF  FF8
0721C:  CALL   3B38
....................          SendDataDisplay(); 
07220:  CALL   3B6A
07224:  MOVLB  1
....................       } 
....................        
....................       if(TipoClave==0){ 
07226:  MOVF   x7F,F
07228:  BNZ   725C
....................          printf("titulo.txt=\"%s\"",usuario); 
0722A:  MOVLW  B6
0722C:  MOVWF  FF6
0722E:  MOVLW  08
07230:  MOVWF  FF7
07232:  MOVLW  00
07234:  MOVWF  FF8
07236:  MOVLW  0C
07238:  MOVLB  6
0723A:  MOVWF  x39
0723C:  MOVLB  0
0723E:  CALL   4B78
07242:  MOVLW  02
07244:  MOVWF  FEA
07246:  MOVLW  3A
07248:  MOVWF  FE9
0724A:  CALL   4BAA
0724E:  MOVLW  22
07250:  BTFSS  F9E.4
07252:  BRA    7250
07254:  MOVWF  FAD
....................          SendDataDisplay(); 
07256:  CALL   3B6A
0725A:  MOVLB  1
....................       } 
....................        
....................       if(RX_Buffer[4]==0x11){//11, Regresar 
0725C:  MOVF   34,W
0725E:  SUBLW  11
07260:  BNZ   7298
....................          if(TipoClave==1){ 
07262:  DECFSZ x7F,W
07264:  BRA    7280
....................             printf("page Ajustes"); 
07266:  MOVLW  C6
07268:  MOVWF  FF6
0726A:  MOVLW  08
0726C:  MOVWF  FF7
0726E:  MOVLW  00
07270:  MOVWF  FF8
07272:  MOVLB  0
07274:  CALL   3B38
....................             SendDataDisplay();        
07278:  CALL   3B6A
....................          }else{ 
0727C:  BRA    7296
0727E:  MOVLB  1
....................             printf("page Usuarios"); 
07280:  MOVLW  D4
07282:  MOVWF  FF6
07284:  MOVLW  08
07286:  MOVWF  FF7
07288:  MOVLW  00
0728A:  MOVWF  FF8
0728C:  MOVLB  0
0728E:  CALL   3B38
....................             SendDataDisplay();        
07292:  CALL   3B6A
07296:  MOVLB  1
....................          } 
....................       } 
....................        
....................       if(RX_Buffer[3]==0x0f){//0f, recibe caracteres ingresados desde el Display 
07298:  MOVF   33,W
0729A:  SUBLW  0F
0729C:  BTFSS  FD8.2
0729E:  BRA    7946
....................          delay_ms(800); 
072A0:  MOVLW  04
072A2:  MOVLB  6
072A4:  MOVWF  x34
072A6:  MOVLW  C8
072A8:  MOVWF  x3D
072AA:  MOVLB  0
072AC:  CALL   1D06
072B0:  MOVLB  6
072B2:  DECFSZ x34,F
072B4:  BRA    72A6
....................          if(TipoClave==0){ 
072B6:  MOVLB  1
072B8:  MOVF   x7F,F
072BA:  BTFSS  FD8.2
072BC:  BRA    75EE
....................             if(RX_Buffer[4]==0x33&&RX_Buffer[5]==0x38&&RX_Buffer[6]==0x39&&RX_Buffer[7]==0x32 &&RX_Buffer[8]==0x00 &&RX_Buffer[9]==0xff){ // Si Ingresa clave para reset general del sistema. 
072BE:  MOVF   34,W
072C0:  SUBLW  33
072C2:  BTFSS  FD8.2
072C4:  BRA    74BC
072C6:  MOVF   35,W
072C8:  SUBLW  38
072CA:  BTFSS  FD8.2
072CC:  BRA    74BC
072CE:  MOVF   36,W
072D0:  SUBLW  39
072D2:  BTFSS  FD8.2
072D4:  BRA    74BC
072D6:  MOVF   37,W
072D8:  SUBLW  32
072DA:  BTFSS  FD8.2
072DC:  BRA    74BC
072DE:  MOVF   38,F
072E0:  BTFSS  FD8.2
072E2:  BRA    74BC
072E4:  INCFSZ 39,W
072E6:  BRA    74BC
....................                write_eeprom(300,0);delay_ms(20);write_eeprom(301,0);delay_ms(20);// Reestablece a contrasea de Fabrica y reinicia Programa. 
072E8:  MOVLW  01
072EA:  MOVWF  FAA
072EC:  MOVLW  2C
072EE:  MOVWF  FA9
072F0:  CLRF   FA8
072F2:  BCF    FA6.6
072F4:  BCF    FA6.7
072F6:  BSF    FA6.2
072F8:  MOVF   FF2,W
072FA:  MOVWF  00
072FC:  BCF    FF2.6
072FE:  BCF    FF2.7
07300:  MOVLB  F
07302:  MOVLW  55
07304:  MOVWF  FA7
07306:  MOVLW  AA
07308:  MOVWF  FA7
0730A:  BSF    FA6.1
0730C:  BTFSC  FA6.1
0730E:  BRA    730C
07310:  BCF    FA6.2
07312:  MOVF   00,W
07314:  IORWF  FF2,F
07316:  MOVLW  14
07318:  MOVLB  6
0731A:  MOVWF  x3D
0731C:  MOVLB  0
0731E:  CALL   1D06
07322:  MOVLW  01
07324:  MOVWF  FAA
07326:  MOVLW  2D
07328:  MOVWF  FA9
0732A:  CLRF   FA8
0732C:  BCF    FA6.6
0732E:  BCF    FA6.7
07330:  BSF    FA6.2
07332:  MOVF   FF2,W
07334:  MOVWF  00
07336:  BCF    FF2.6
07338:  BCF    FF2.7
0733A:  MOVLB  F
0733C:  MOVLW  55
0733E:  MOVWF  FA7
07340:  MOVLW  AA
07342:  MOVWF  FA7
07344:  BSF    FA6.1
07346:  BTFSC  FA6.1
07348:  BRA    7346
0734A:  BCF    FA6.2
0734C:  MOVF   00,W
0734E:  IORWF  FF2,F
07350:  MOVLW  14
07352:  MOVLB  6
07354:  MOVWF  x3D
07356:  MOVLB  0
07358:  CALL   1D06
....................                write_eeprom(302,0);delay_ms(20);write_eeprom(303,0);delay_ms(20); 
0735C:  MOVLW  01
0735E:  MOVWF  FAA
07360:  MOVLW  2E
07362:  MOVWF  FA9
07364:  CLRF   FA8
07366:  BCF    FA6.6
07368:  BCF    FA6.7
0736A:  BSF    FA6.2
0736C:  MOVF   FF2,W
0736E:  MOVWF  00
07370:  BCF    FF2.6
07372:  BCF    FF2.7
07374:  MOVLB  F
07376:  MOVLW  55
07378:  MOVWF  FA7
0737A:  MOVLW  AA
0737C:  MOVWF  FA7
0737E:  BSF    FA6.1
07380:  BTFSC  FA6.1
07382:  BRA    7380
07384:  BCF    FA6.2
07386:  MOVF   00,W
07388:  IORWF  FF2,F
0738A:  MOVLW  14
0738C:  MOVLB  6
0738E:  MOVWF  x3D
07390:  MOVLB  0
07392:  CALL   1D06
07396:  MOVLW  01
07398:  MOVWF  FAA
0739A:  MOVLW  2F
0739C:  MOVWF  FA9
0739E:  CLRF   FA8
073A0:  BCF    FA6.6
073A2:  BCF    FA6.7
073A4:  BSF    FA6.2
073A6:  MOVF   FF2,W
073A8:  MOVWF  00
073AA:  BCF    FF2.6
073AC:  BCF    FF2.7
073AE:  MOVLB  F
073B0:  MOVLW  55
073B2:  MOVWF  FA7
073B4:  MOVLW  AA
073B6:  MOVWF  FA7
073B8:  BSF    FA6.1
073BA:  BTFSC  FA6.1
073BC:  BRA    73BA
073BE:  BCF    FA6.2
073C0:  MOVF   00,W
073C2:  IORWF  FF2,F
073C4:  MOVLW  14
073C6:  MOVLB  6
073C8:  MOVWF  x3D
073CA:  MOVLB  0
073CC:  CALL   1D06
....................                write_eeprom(336,0);delay_ms(20);write_eeprom(337,0);delay_ms(20);// Reestablece a contrasea de Fabrica y reinicia Programa. 
073D0:  MOVLW  01
073D2:  MOVWF  FAA
073D4:  MOVLW  50
073D6:  MOVWF  FA9
073D8:  CLRF   FA8
073DA:  BCF    FA6.6
073DC:  BCF    FA6.7
073DE:  BSF    FA6.2
073E0:  MOVF   FF2,W
073E2:  MOVWF  00
073E4:  BCF    FF2.6
073E6:  BCF    FF2.7
073E8:  MOVLB  F
073EA:  MOVLW  55
073EC:  MOVWF  FA7
073EE:  MOVLW  AA
073F0:  MOVWF  FA7
073F2:  BSF    FA6.1
073F4:  BTFSC  FA6.1
073F6:  BRA    73F4
073F8:  BCF    FA6.2
073FA:  MOVF   00,W
073FC:  IORWF  FF2,F
073FE:  MOVLW  14
07400:  MOVLB  6
07402:  MOVWF  x3D
07404:  MOVLB  0
07406:  CALL   1D06
0740A:  MOVLW  01
0740C:  MOVWF  FAA
0740E:  MOVLW  51
07410:  MOVWF  FA9
07412:  CLRF   FA8
07414:  BCF    FA6.6
07416:  BCF    FA6.7
07418:  BSF    FA6.2
0741A:  MOVF   FF2,W
0741C:  MOVWF  00
0741E:  BCF    FF2.6
07420:  BCF    FF2.7
07422:  MOVLB  F
07424:  MOVLW  55
07426:  MOVWF  FA7
07428:  MOVLW  AA
0742A:  MOVWF  FA7
0742C:  BSF    FA6.1
0742E:  BTFSC  FA6.1
07430:  BRA    742E
07432:  BCF    FA6.2
07434:  MOVF   00,W
07436:  IORWF  FF2,F
07438:  MOVLW  14
0743A:  MOVLB  6
0743C:  MOVWF  x3D
0743E:  MOVLB  0
07440:  CALL   1D06
....................                write_eeprom(338,0);delay_ms(20);write_eeprom(339,0);delay_ms(20); 
07444:  MOVLW  01
07446:  MOVWF  FAA
07448:  MOVLW  52
0744A:  MOVWF  FA9
0744C:  CLRF   FA8
0744E:  BCF    FA6.6
07450:  BCF    FA6.7
07452:  BSF    FA6.2
07454:  MOVF   FF2,W
07456:  MOVWF  00
07458:  BCF    FF2.6
0745A:  BCF    FF2.7
0745C:  MOVLB  F
0745E:  MOVLW  55
07460:  MOVWF  FA7
07462:  MOVLW  AA
07464:  MOVWF  FA7
07466:  BSF    FA6.1
07468:  BTFSC  FA6.1
0746A:  BRA    7468
0746C:  BCF    FA6.2
0746E:  MOVF   00,W
07470:  IORWF  FF2,F
07472:  MOVLW  14
07474:  MOVLB  6
07476:  MOVWF  x3D
07478:  MOVLB  0
0747A:  CALL   1D06
0747E:  MOVLW  01
07480:  MOVWF  FAA
07482:  MOVLW  53
07484:  MOVWF  FA9
07486:  CLRF   FA8
07488:  BCF    FA6.6
0748A:  BCF    FA6.7
0748C:  BSF    FA6.2
0748E:  MOVF   FF2,W
07490:  MOVWF  00
07492:  BCF    FF2.6
07494:  BCF    FF2.7
07496:  MOVLB  F
07498:  MOVLW  55
0749A:  MOVWF  FA7
0749C:  MOVLW  AA
0749E:  MOVWF  FA7
074A0:  BSF    FA6.1
074A2:  BTFSC  FA6.1
074A4:  BRA    74A2
074A6:  BCF    FA6.2
074A8:  MOVF   00,W
074AA:  IORWF  FF2,F
074AC:  MOVLW  14
074AE:  MOVLB  6
074B0:  MOVWF  x3D
074B2:  MOVLB  0
074B4:  CALL   1D06
....................                reset_cpu(); 
074B8:  RESET
074BA:  MOVLB  1
....................             } 
....................              
....................             if(RX_Buffer[4]>=0x30 && RX_Buffer[5]>=0x30 && RX_Buffer[6]>=0x30 && RX_Buffer[7]>=0x30 
....................             && RX_Buffer[4]<=0x39 && RX_Buffer[5]<=0x39 && RX_Buffer[6]<=0x39 && RX_Buffer[7]<=0x39){ 
074BC:  MOVF   34,W
074BE:  SUBLW  2F
074C0:  BTFSC  FD8.0
074C2:  BRA    75EC
074C4:  MOVF   35,W
074C6:  SUBLW  2F
074C8:  BTFSC  FD8.0
074CA:  BRA    75EC
074CC:  MOVF   36,W
074CE:  SUBLW  2F
074D0:  BTFSC  FD8.0
074D2:  BRA    75EC
074D4:  MOVF   37,W
074D6:  SUBLW  2F
074D8:  BTFSC  FD8.0
074DA:  BRA    75EC
074DC:  MOVF   34,W
074DE:  SUBLW  39
074E0:  BTFSS  FD8.0
074E2:  BRA    75EC
074E4:  MOVF   35,W
074E6:  SUBLW  39
074E8:  BTFSS  FD8.0
074EA:  BRA    75EC
074EC:  MOVF   36,W
074EE:  SUBLW  39
074F0:  BTFSS  FD8.0
074F2:  BRA    75EC
074F4:  MOVF   37,W
074F6:  SUBLW  39
074F8:  BTFSS  FD8.0
074FA:  BRA    75EC
....................                if((RX_Buffer[4]==Clave[codigoUsuario].Password[0]+0x30)&&(RX_Buffer[5]==Clave[codigoUsuario].Password[1]+0x30)&& 
....................                (RX_Buffer[6]==Clave[codigoUsuario].Password[2]+0x30)&&(RX_Buffer[7]==Clave[codigoUsuario].Password[3]+0x30) 
....................                &&RX_Buffer[8]==0x00 &&RX_Buffer[9]==0xff){ 
074FC:  MOVLB  2
074FE:  MOVF   x34,W
07500:  MULLW  04
07502:  MOVF   FF3,W
07504:  MOVLB  6
07506:  CLRF   x35
07508:  MOVWF  x34
0750A:  MOVLW  0C
0750C:  ADDWF  x34,W
0750E:  MOVWF  FE9
07510:  MOVLW  06
07512:  ADDWFC x35,W
07514:  MOVWF  FEA
07516:  MOVLW  30
07518:  ADDWF  FEF,W
0751A:  SUBWF  34,W
0751C:  BNZ   75D0
0751E:  MOVLB  2
07520:  MOVF   x34,W
07522:  MULLW  04
07524:  MOVF   FF3,W
07526:  MOVLB  6
07528:  CLRF   x35
0752A:  MOVWF  x34
0752C:  MOVLW  01
0752E:  ADDWF  x34,W
07530:  MOVWF  01
07532:  MOVLW  00
07534:  ADDWFC x35,W
07536:  MOVWF  03
07538:  MOVF   01,W
0753A:  ADDLW  0C
0753C:  MOVWF  FE9
0753E:  MOVLW  06
07540:  ADDWFC 03,W
07542:  MOVWF  FEA
07544:  MOVLW  30
07546:  ADDWF  FEF,W
07548:  SUBWF  35,W
0754A:  BNZ   75D0
0754C:  MOVLB  2
0754E:  MOVF   x34,W
07550:  MULLW  04
07552:  MOVF   FF3,W
07554:  MOVLB  6
07556:  CLRF   x35
07558:  MOVWF  x34
0755A:  MOVLW  02
0755C:  ADDWF  x34,W
0755E:  MOVWF  01
07560:  MOVLW  00
07562:  ADDWFC x35,W
07564:  MOVWF  03
07566:  MOVF   01,W
07568:  ADDLW  0C
0756A:  MOVWF  FE9
0756C:  MOVLW  06
0756E:  ADDWFC 03,W
07570:  MOVWF  FEA
07572:  MOVLW  30
07574:  ADDWF  FEF,W
07576:  SUBWF  36,W
07578:  BNZ   75D0
0757A:  MOVLB  2
0757C:  MOVF   x34,W
0757E:  MULLW  04
07580:  MOVF   FF3,W
07582:  MOVLB  6
07584:  CLRF   x35
07586:  MOVWF  x34
07588:  MOVLW  03
0758A:  ADDWF  x34,W
0758C:  MOVWF  01
0758E:  MOVLW  00
07590:  ADDWFC x35,W
07592:  MOVWF  03
07594:  MOVF   01,W
07596:  ADDLW  0C
07598:  MOVWF  FE9
0759A:  MOVLW  06
0759C:  ADDWFC 03,W
0759E:  MOVWF  FEA
075A0:  MOVLW  30
075A2:  ADDWF  FEF,W
075A4:  SUBWF  37,W
075A6:  BNZ   75D0
075A8:  MOVF   38,F
075AA:  BNZ   75D0
075AC:  INCFSZ 39,W
075AE:  BRA    75D0
....................                   printf("page ClaveCorrecta"); 
075B0:  MOVLW  E2
075B2:  MOVWF  FF6
075B4:  MOVLW  08
075B6:  MOVWF  FF7
075B8:  MOVLW  00
075BA:  MOVWF  FF8
075BC:  MOVLB  0
075BE:  CALL   3B38
....................                   SendDataDisplay(); 
075C2:  CALL   3B6A
....................                   ingreso=ON; 
075C6:  BSF    x8B.1
....................                   RX_Buffer[3]=0x00;RX_Buffer2[3]=0x00;   
075C8:  CLRF   33
075CA:  CLRF   3E
....................                }else{ 
075CC:  BRA    75EA
075CE:  MOVLB  6
....................                   printf("page ClaveBad"); 
075D0:  MOVLW  F6
075D2:  MOVWF  FF6
075D4:  MOVLW  08
075D6:  MOVWF  FF7
075D8:  MOVLW  00
075DA:  MOVWF  FF8
075DC:  MOVLB  0
075DE:  CALL   3B38
....................                   SendDataDisplay(); 
075E2:  CALL   3B6A
....................                   RX_Buffer[3]=0x00;RX_Buffer2[3]=0x00;   
075E6:  CLRF   33
075E8:  CLRF   3E
075EA:  MOVLB  1
....................                }  
....................             } 
....................          }else if(TipoClave==1){ 
075EC:  BRA    7946
075EE:  DECFSZ x7F,W
075F0:  BRA    764E
....................             if(RX_Buffer[4]==0x34&&RX_Buffer[5]==0x34&&RX_Buffer[6]==0x34&&RX_Buffer[7]==0x34&&RX_Buffer[8]==0x00 &&RX_Buffer[9]==0xff){ // Si Ingresa clave de Servicio Tecnico 
075F2:  MOVF   34,W
075F4:  SUBLW  34
075F6:  BNZ   7630
075F8:  MOVF   35,W
075FA:  SUBLW  34
075FC:  BNZ   7630
075FE:  MOVF   36,W
07600:  SUBLW  34
07602:  BNZ   7630
07604:  MOVF   37,W
07606:  SUBLW  34
07608:  BNZ   7630
0760A:  MOVF   38,F
0760C:  BNZ   7630
0760E:  INCFSZ 39,W
07610:  BRA    7630
....................                printf("page Config"); 
07612:  MOVLW  04
07614:  MOVWF  FF6
07616:  MOVLW  09
07618:  MOVWF  FF7
0761A:  MOVLW  00
0761C:  MOVWF  FF8
0761E:  MOVLB  0
07620:  CALL   3B38
....................                SendDataDisplay(); 
07624:  CALL   3B6A
....................                RX_Buffer[3]=0x00;RX_Buffer2[3]=0x00;   
07628:  CLRF   33
0762A:  CLRF   3E
....................             }else{ 
0762C:  BRA    764A
0762E:  MOVLB  1
....................                printf("page Menu"); 
07630:  MOVLW  10
07632:  MOVWF  FF6
07634:  MOVLW  09
07636:  MOVWF  FF7
07638:  MOVLW  00
0763A:  MOVWF  FF8
0763C:  MOVLB  0
0763E:  CALL   3B38
....................                SendDataDisplay(); 
07642:  CALL   3B6A
....................                RX_Buffer[3]=0x00;RX_Buffer2[3]=0x00;   
07646:  CLRF   33
07648:  CLRF   3E
....................             } 
....................          }else if(TipoClave==2){ 
0764A:  BRA    7944
0764C:  MOVLB  1
0764E:  MOVF   x7F,W
07650:  SUBLW  02
07652:  BTFSS  FD8.2
07654:  BRA    77A4
....................             if(RX_Buffer[4]>=0x30 && RX_Buffer[5]>=0x30 && RX_Buffer[6]>=0x30 && RX_Buffer[7]>=0x30 
....................             && RX_Buffer[4]<=0x39 && RX_Buffer[5]<=0x39 && RX_Buffer[6]<=0x39 && RX_Buffer[7]<=0x39){ 
07656:  MOVF   34,W
07658:  SUBLW  2F
0765A:  BTFSC  FD8.0
0765C:  BRA    77A2
0765E:  MOVF   35,W
07660:  SUBLW  2F
07662:  BTFSC  FD8.0
07664:  BRA    77A2
07666:  MOVF   36,W
07668:  SUBLW  2F
0766A:  BTFSC  FD8.0
0766C:  BRA    77A2
0766E:  MOVF   37,W
07670:  SUBLW  2F
07672:  BTFSC  FD8.0
07674:  BRA    77A2
07676:  MOVF   34,W
07678:  SUBLW  39
0767A:  BTFSS  FD8.0
0767C:  BRA    77A2
0767E:  MOVF   35,W
07680:  SUBLW  39
07682:  BTFSS  FD8.0
07684:  BRA    77A2
07686:  MOVF   36,W
07688:  SUBLW  39
0768A:  BTFSS  FD8.0
0768C:  BRA    77A2
0768E:  MOVF   37,W
07690:  SUBLW  39
07692:  BTFSS  FD8.0
07694:  BRA    77A2
....................                if((RX_Buffer[4]==Clave[codigoUsuario2].Password[0]+0x30)&&(RX_Buffer[5]==Clave[codigoUsuario2].Password[1]+0x30)&& 
....................                (RX_Buffer[6]==Clave[codigoUsuario2].Password[2]+0x30)&&(RX_Buffer[7]==Clave[codigoUsuario2].Password[3]+0x30) 
....................                &&RX_Buffer[8]==0x00 &&RX_Buffer[9]==0xff){ 
07696:  MOVLB  2
07698:  MOVF   x12,W
0769A:  MULLW  04
0769C:  MOVF   FF3,W
0769E:  MOVLB  6
076A0:  CLRF   x35
076A2:  MOVWF  x34
076A4:  MOVLW  0C
076A6:  ADDWF  x34,W
076A8:  MOVWF  FE9
076AA:  MOVLW  06
076AC:  ADDWFC x35,W
076AE:  MOVWF  FEA
076B0:  MOVLW  30
076B2:  ADDWF  FEF,W
076B4:  SUBWF  34,W
076B6:  BNZ   7782
076B8:  MOVLB  2
076BA:  MOVF   x12,W
076BC:  MULLW  04
076BE:  MOVF   FF3,W
076C0:  MOVLB  6
076C2:  CLRF   x35
076C4:  MOVWF  x34
076C6:  MOVLW  01
076C8:  ADDWF  x34,W
076CA:  MOVWF  01
076CC:  MOVLW  00
076CE:  ADDWFC x35,W
076D0:  MOVWF  03
076D2:  MOVF   01,W
076D4:  ADDLW  0C
076D6:  MOVWF  FE9
076D8:  MOVLW  06
076DA:  ADDWFC 03,W
076DC:  MOVWF  FEA
076DE:  MOVLW  30
076E0:  ADDWF  FEF,W
076E2:  SUBWF  35,W
076E4:  BNZ   7782
076E6:  MOVLB  2
076E8:  MOVF   x12,W
076EA:  MULLW  04
076EC:  MOVF   FF3,W
076EE:  MOVLB  6
076F0:  CLRF   x35
076F2:  MOVWF  x34
076F4:  MOVLW  02
076F6:  ADDWF  x34,W
076F8:  MOVWF  01
076FA:  MOVLW  00
076FC:  ADDWFC x35,W
076FE:  MOVWF  03
07700:  MOVF   01,W
07702:  ADDLW  0C
07704:  MOVWF  FE9
07706:  MOVLW  06
07708:  ADDWFC 03,W
0770A:  MOVWF  FEA
0770C:  MOVLW  30
0770E:  ADDWF  FEF,W
07710:  SUBWF  36,W
07712:  BNZ   7782
07714:  MOVLB  2
07716:  MOVF   x12,W
07718:  MULLW  04
0771A:  MOVF   FF3,W
0771C:  MOVLB  6
0771E:  CLRF   x35
07720:  MOVWF  x34
07722:  MOVLW  03
07724:  ADDWF  x34,W
07726:  MOVWF  01
07728:  MOVLW  00
0772A:  ADDWFC x35,W
0772C:  MOVWF  03
0772E:  MOVF   01,W
07730:  ADDLW  0C
07732:  MOVWF  FE9
07734:  MOVLW  06
07736:  ADDWFC 03,W
07738:  MOVWF  FEA
0773A:  MOVLW  30
0773C:  ADDWF  FEF,W
0773E:  SUBWF  37,W
07740:  BNZ   7782
07742:  MOVF   38,F
07744:  BNZ   7782
07746:  INCFSZ 39,W
07748:  BRA    7782
....................                   printf("page Clave"); 
0774A:  MOVLW  1A
0774C:  MOVWF  FF6
0774E:  MOVLW  09
07750:  MOVWF  FF7
07752:  MOVLW  00
07754:  MOVWF  FF8
07756:  MOVLB  0
07758:  CALL   3B38
....................                   SendDataDisplay(); 
0775C:  CALL   3B6A
....................                   printf("titulo.txt=\"Clave Nueva\""); 
07760:  MOVLW  26
07762:  MOVWF  FF6
07764:  MOVLW  09
07766:  MOVWF  FF7
07768:  MOVLW  00
0776A:  MOVWF  FF8
0776C:  CALL   3B38
....................                   SendDataDisplay(); 
07770:  CALL   3B6A
....................                   TipoClave=3; 
07774:  MOVLW  03
07776:  MOVLB  1
07778:  MOVWF  x7F
....................                   RX_Buffer[3]=0x00; 
0777A:  CLRF   33
....................                   RX_Buffer2[3]=0x00; 
0777C:  CLRF   3E
....................                }else{ 
0777E:  BRA    77A2
07780:  MOVLB  6
....................                   printf("page Menu"); 
07782:  MOVLW  40
07784:  MOVWF  FF6
07786:  MOVLW  09
07788:  MOVWF  FF7
0778A:  MOVLW  00
0778C:  MOVWF  FF8
0778E:  MOVLB  0
07790:  CALL   3B38
....................                   SendDataDisplay(); 
07794:  CALL   3B6A
....................                   RX_Buffer[3]=0x00; 
07798:  CLRF   33
....................                   RX_Buffer2[3]=0x00; 
0779A:  CLRF   3E
....................                   codigoUsuario=codigoUsuarioant; 
0779C:  MOVFF  235,234
077A0:  MOVLB  1
....................                }  
....................             } 
....................          }else if(TipoClave==3){ 
077A2:  BRA    7946
077A4:  MOVF   x7F,W
077A6:  SUBLW  03
077A8:  BTFSS  FD8.2
077AA:  BRA    7946
....................             printf("titulo.txt=\"Clave Nueva\""); 
077AC:  MOVLW  4A
077AE:  MOVWF  FF6
077B0:  MOVLW  09
077B2:  MOVWF  FF7
077B4:  MOVLW  00
077B6:  MOVWF  FF8
077B8:  MOVLB  0
077BA:  CALL   3B38
....................             SendDataDisplay(); 
077BE:  CALL   3B6A
....................             printf("page Menu"); 
077C2:  MOVLW  64
077C4:  MOVWF  FF6
077C6:  MOVLW  09
077C8:  MOVWF  FF7
077CA:  MOVLW  00
077CC:  MOVWF  FF8
077CE:  CALL   3B38
....................             SendDataDisplay(); 
077D2:  CALL   3B6A
....................             if(!GuardaEEPROM){ 
077D6:  BTFSC  x89.5
077D8:  BRA    7940
....................                write_eeprom(300+(codigoUsuario*4),RX_Buffer[4]-0x30);delay_ms(20); 
077DA:  MOVLB  2
077DC:  MOVF   x34,W
077DE:  MULLW  04
077E0:  MOVF   FF3,W
077E2:  ADDLW  2C
077E4:  MOVLB  6
077E6:  MOVWF  x34
077E8:  MOVLW  01
077EA:  MOVWF  x35
077EC:  BTFSC  FD8.0
077EE:  INCF   x35,F
077F0:  MOVLW  30
077F2:  SUBWF  34,W
077F4:  MOVWF  x36
077F6:  MOVFF  635,FAA
077FA:  MOVFF  634,FA9
077FE:  MOVFF  636,FA8
07802:  BCF    FA6.6
07804:  BCF    FA6.7
07806:  BSF    FA6.2
07808:  MOVF   FF2,W
0780A:  MOVWF  00
0780C:  BCF    FF2.6
0780E:  BCF    FF2.7
07810:  MOVLB  F
07812:  MOVLW  55
07814:  MOVWF  FA7
07816:  MOVLW  AA
07818:  MOVWF  FA7
0781A:  BSF    FA6.1
0781C:  BTFSC  FA6.1
0781E:  BRA    781C
07820:  BCF    FA6.2
07822:  MOVF   00,W
07824:  IORWF  FF2,F
07826:  MOVLW  14
07828:  MOVLB  6
0782A:  MOVWF  x3D
0782C:  MOVLB  0
0782E:  CALL   1D06
....................                write_eeprom(301+(codigoUsuario*4),RX_Buffer[5]-0x30);delay_ms(20); 
07832:  MOVLB  2
07834:  MOVF   x34,W
07836:  MULLW  04
07838:  MOVF   FF3,W
0783A:  ADDLW  2D
0783C:  MOVLB  6
0783E:  MOVWF  x34
07840:  MOVLW  01
07842:  MOVWF  x35
07844:  BTFSC  FD8.0
07846:  INCF   x35,F
07848:  MOVLW  30
0784A:  SUBWF  35,W
0784C:  MOVWF  x36
0784E:  MOVFF  635,FAA
07852:  MOVFF  634,FA9
07856:  MOVFF  636,FA8
0785A:  BCF    FA6.6
0785C:  BCF    FA6.7
0785E:  BSF    FA6.2
07860:  MOVF   FF2,W
07862:  MOVWF  00
07864:  BCF    FF2.6
07866:  BCF    FF2.7
07868:  MOVLB  F
0786A:  MOVLW  55
0786C:  MOVWF  FA7
0786E:  MOVLW  AA
07870:  MOVWF  FA7
07872:  BSF    FA6.1
07874:  BTFSC  FA6.1
07876:  BRA    7874
07878:  BCF    FA6.2
0787A:  MOVF   00,W
0787C:  IORWF  FF2,F
0787E:  MOVLW  14
07880:  MOVLB  6
07882:  MOVWF  x3D
07884:  MOVLB  0
07886:  CALL   1D06
....................                write_eeprom(302+(codigoUsuario*4),RX_Buffer[6]-0x30);delay_ms(20); 
0788A:  MOVLB  2
0788C:  MOVF   x34,W
0788E:  MULLW  04
07890:  MOVF   FF3,W
07892:  ADDLW  2E
07894:  MOVLB  6
07896:  MOVWF  x34
07898:  MOVLW  01
0789A:  MOVWF  x35
0789C:  BTFSC  FD8.0
0789E:  INCF   x35,F
078A0:  MOVLW  30
078A2:  SUBWF  36,W
078A4:  MOVWF  x36
078A6:  MOVFF  635,FAA
078AA:  MOVFF  634,FA9
078AE:  MOVFF  636,FA8
078B2:  BCF    FA6.6
078B4:  BCF    FA6.7
078B6:  BSF    FA6.2
078B8:  MOVF   FF2,W
078BA:  MOVWF  00
078BC:  BCF    FF2.6
078BE:  BCF    FF2.7
078C0:  MOVLB  F
078C2:  MOVLW  55
078C4:  MOVWF  FA7
078C6:  MOVLW  AA
078C8:  MOVWF  FA7
078CA:  BSF    FA6.1
078CC:  BTFSC  FA6.1
078CE:  BRA    78CC
078D0:  BCF    FA6.2
078D2:  MOVF   00,W
078D4:  IORWF  FF2,F
078D6:  MOVLW  14
078D8:  MOVLB  6
078DA:  MOVWF  x3D
078DC:  MOVLB  0
078DE:  CALL   1D06
....................                write_eeprom(303+(codigoUsuario*4),RX_Buffer[7]-0x30);delay_ms(20); 
078E2:  MOVLB  2
078E4:  MOVF   x34,W
078E6:  MULLW  04
078E8:  MOVF   FF3,W
078EA:  ADDLW  2F
078EC:  MOVLB  6
078EE:  MOVWF  x34
078F0:  MOVLW  01
078F2:  MOVWF  x35
078F4:  BTFSC  FD8.0
078F6:  INCF   x35,F
078F8:  MOVLW  30
078FA:  SUBWF  37,W
078FC:  MOVWF  x36
078FE:  MOVFF  635,FAA
07902:  MOVFF  634,FA9
07906:  MOVFF  636,FA8
0790A:  BCF    FA6.6
0790C:  BCF    FA6.7
0790E:  BSF    FA6.2
07910:  MOVF   FF2,W
07912:  MOVWF  00
07914:  BCF    FF2.6
07916:  BCF    FF2.7
07918:  MOVLB  F
0791A:  MOVLW  55
0791C:  MOVWF  FA7
0791E:  MOVLW  AA
07920:  MOVWF  FA7
07922:  BSF    FA6.1
07924:  BTFSC  FA6.1
07926:  BRA    7924
07928:  BCF    FA6.2
0792A:  MOVF   00,W
0792C:  IORWF  FF2,F
0792E:  MOVLW  14
07930:  MOVLB  6
07932:  MOVWF  x3D
07934:  MOVLB  0
07936:  CALL   1D06
....................                GuardaEEPROM=ON; 
0793A:  BSF    x89.5
....................                codigoUsuario=codigoUsuarioant; 
0793C:  MOVFF  235,234
....................             } 
....................             RX_Buffer[3]=0x00; 
07940:  CLRF   33
....................             RX_Buffer2[3]=0x00; 
07942:  CLRF   3E
07944:  MOVLB  1
....................          } 
....................       } 
....................     } 
.................... //_--------------------------------------------------------------------------------------------------------------------------------------------------------        
....................  
.................... //_-------------------------------------------------------------------------------------------------------------------------------------------------------- 
....................    if(Menu==1){ //Menu Principal. 
07946:  DECFSZ xDD,W
07948:  GOTO   8284
....................       printf("fecha.txt=\"Fecha:%02u/%02u/20%02u Hora: %02u:%02u:%02u\"",Dia,Mes,Year,Hora,Minuto,Segundo); 
0794C:  MOVLW  6E
0794E:  MOVWF  FF6
07950:  MOVLW  09
07952:  MOVWF  FF7
07954:  MOVLW  00
07956:  MOVWF  FF8
07958:  MOVLW  11
0795A:  MOVLB  6
0795C:  MOVWF  x39
0795E:  MOVLB  0
07960:  CALL   4B78
07964:  MOVFF  21D,639
07968:  MOVLW  01
0796A:  MOVLB  6
0796C:  MOVWF  x3A
0796E:  MOVLB  0
07970:  CALL   4BFC
07974:  MOVLW  2F
07976:  BTFSS  F9E.4
07978:  BRA    7976
0797A:  MOVWF  FAD
0797C:  MOVFF  21C,639
07980:  MOVLW  01
07982:  MOVLB  6
07984:  MOVWF  x3A
07986:  MOVLB  0
07988:  CALL   4BFC
0798C:  MOVLW  2F
0798E:  BTFSS  F9E.4
07990:  BRA    798E
07992:  MOVWF  FAD
07994:  MOVLW  32
07996:  BTFSS  F9E.4
07998:  BRA    7996
0799A:  MOVWF  FAD
0799C:  MOVLW  30
0799E:  BTFSS  F9E.4
079A0:  BRA    799E
079A2:  MOVWF  FAD
079A4:  MOVFF  21B,639
079A8:  MOVLW  01
079AA:  MOVLB  6
079AC:  MOVWF  x3A
079AE:  MOVLB  0
079B0:  CALL   4BFC
079B4:  MOVLW  8F
079B6:  MOVWF  FF6
079B8:  MOVLW  09
079BA:  MOVWF  FF7
079BC:  MOVLW  00
079BE:  MOVWF  FF8
079C0:  MOVLW  07
079C2:  MOVLB  6
079C4:  MOVWF  x39
079C6:  MOVLB  0
079C8:  CALL   4B78
079CC:  MOVFF  21E,639
079D0:  MOVLW  01
079D2:  MOVLB  6
079D4:  MOVWF  x3A
079D6:  MOVLB  0
079D8:  CALL   4BFC
079DC:  MOVLW  3A
079DE:  BTFSS  F9E.4
079E0:  BRA    79DE
079E2:  MOVWF  FAD
079E4:  MOVFF  21F,639
079E8:  MOVLW  01
079EA:  MOVLB  6
079EC:  MOVWF  x3A
079EE:  MOVLB  0
079F0:  CALL   4BFC
079F4:  MOVLW  3A
079F6:  BTFSS  F9E.4
079F8:  BRA    79F6
079FA:  MOVWF  FAD
079FC:  MOVFF  220,639
07A00:  MOVLW  01
07A02:  MOVLB  6
07A04:  MOVWF  x3A
07A06:  MOVLB  0
07A08:  CALL   4BFC
07A0C:  MOVLW  22
07A0E:  BTFSS  F9E.4
07A10:  BRA    7A0E
07A12:  MOVWF  FAD
....................       SendDataDisplay(); 
07A14:  CALL   3B6A
....................       GuardaEEPROM=OFF; 
07A18:  BCF    x89.5
....................       printf("tuser.txt=\"%s\"",usuario); 
07A1A:  MOVLW  A6
07A1C:  MOVWF  FF6
07A1E:  MOVLW  09
07A20:  MOVWF  FF7
07A22:  MOVLW  00
07A24:  MOVWF  FF8
07A26:  MOVLW  0B
07A28:  MOVLB  6
07A2A:  MOVWF  x39
07A2C:  MOVLB  0
07A2E:  CALL   4B78
07A32:  MOVLW  02
07A34:  MOVWF  FEA
07A36:  MOVLW  3A
07A38:  MOVWF  FE9
07A3A:  CALL   4BAA
07A3E:  MOVLW  22
07A40:  BTFSS  F9E.4
07A42:  BRA    7A40
07A44:  MOVWF  FAD
....................       SendDataDisplay(); 
07A46:  CALL   3B6A
....................       codigoUsuarioant=codigoUsuario; 
07A4A:  MOVFF  234,235
....................        
....................       if(RX_Buffer[4]==0x01 && RX_Buffer[5]==0x0f && estados[19+RX_Buffer[4]]){//01, Descontaminacin 
07A4E:  DECFSZ 34,W
07A50:  BRA    7AE6
07A52:  MOVF   35,W
07A54:  SUBLW  0F
07A56:  BNZ   7AE6
07A58:  MOVLW  13
07A5A:  ADDWF  34,W
07A5C:  MOVLB  6
07A5E:  MOVWF  x35
07A60:  MOVLW  02
07A62:  MOVWF  x37
07A64:  MOVLW  A0
07A66:  MOVWF  x36
07A68:  MOVLB  0
07A6A:  CALL   2146
07A6E:  BTFSS  01.0
07A70:  BRA    7AE6
....................          delay_ms(5); 
07A72:  MOVLW  05
07A74:  MOVLB  6
07A76:  MOVWF  x3D
07A78:  MOVLB  0
07A7A:  CALL   1D06
....................          if(RX_Buffer[4]==0x01 && RX_Buffer[5]==0x0f && estados[19+RX_Buffer[4]]){//01, Descontaminacin 
07A7E:  DECFSZ 34,W
07A80:  BRA    7AE6
07A82:  MOVF   35,W
07A84:  SUBLW  0F
07A86:  BNZ   7AE6
07A88:  MOVLW  13
07A8A:  ADDWF  34,W
07A8C:  MOVLB  6
07A8E:  MOVWF  x35
07A90:  MOVLW  02
07A92:  MOVWF  x37
07A94:  MOVLW  A0
07A96:  MOVWF  x36
07A98:  MOVLB  0
07A9A:  CALL   2146
07A9E:  BTFSS  01.0
07AA0:  BRA    7AE6
....................             printf("page Funcionamiento"); 
07AA2:  MOVLW  B6
07AA4:  MOVWF  FF6
07AA6:  MOVLW  09
07AA8:  MOVWF  FF7
07AAA:  MOVLW  00
07AAC:  MOVWF  FF8
07AAE:  CALL   3B38
....................             SendDataDisplay();        
07AB2:  CALL   3B6A
....................             ConfiguraCiclo(0,0,5,3,0,0,0,0,0,1,121); 
07AB6:  MOVLB  6
07AB8:  CLRF   x3E
07ABA:  CLRF   x3F
07ABC:  MOVLW  05
07ABE:  MOVWF  x40
07AC0:  MOVLW  03
07AC2:  MOVWF  x41
07AC4:  CLRF   x42
07AC6:  CLRF   x43
07AC8:  CLRF   x44
07ACA:  CLRF   x45
07ACC:  CLRF   x46
07ACE:  MOVLW  01
07AD0:  MOVWF  x47
07AD2:  MOVLW  79
07AD4:  MOVWF  x48
07AD6:  MOVLB  0
07AD8:  CALL   4C7A
....................             Op=OFF; 
07ADC:  BCF    x89.1
....................             Op2=OFF; 
07ADE:  BCF    x89.2
....................             MenuAnt=Menu; 
07AE0:  MOVFF  1DD,1DE
....................             //CantidadPulsos=7; 
....................             //NivelVacio=32; 
....................             Fugas=OFF; 
07AE4:  BCF    x8B.2
....................             //TiempoVacio=CantidadPulsos*180; 
....................          } 
....................       } 
....................        
....................       if(RX_Buffer[4]==0x02 && RX_Buffer[5]==0x0f && estados[19+RX_Buffer[4]]){//02, Solidos 
07AE6:  MOVF   34,W
07AE8:  SUBLW  02
07AEA:  BNZ   7B82
07AEC:  MOVF   35,W
07AEE:  SUBLW  0F
07AF0:  BNZ   7B82
07AF2:  MOVLW  13
07AF4:  ADDWF  34,W
07AF6:  MOVLB  6
07AF8:  MOVWF  x35
07AFA:  MOVLW  02
07AFC:  MOVWF  x37
07AFE:  MOVLW  A0
07B00:  MOVWF  x36
07B02:  MOVLB  0
07B04:  CALL   2146
07B08:  BTFSS  01.0
07B0A:  BRA    7B82
....................          delay_ms(5); 
07B0C:  MOVLW  05
07B0E:  MOVLB  6
07B10:  MOVWF  x3D
07B12:  MOVLB  0
07B14:  CALL   1D06
....................          if(RX_Buffer[4]==0x02 && RX_Buffer[5]==0x0f && estados[19+RX_Buffer[4]]){ 
07B18:  MOVF   34,W
07B1A:  SUBLW  02
07B1C:  BNZ   7B82
07B1E:  MOVF   35,W
07B20:  SUBLW  0F
07B22:  BNZ   7B82
07B24:  MOVLW  13
07B26:  ADDWF  34,W
07B28:  MOVLB  6
07B2A:  MOVWF  x35
07B2C:  MOVLW  02
07B2E:  MOVWF  x37
07B30:  MOVLW  A0
07B32:  MOVWF  x36
07B34:  MOVLB  0
07B36:  CALL   2146
07B3A:  BTFSS  01.0
07B3C:  BRA    7B82
....................             printf("page Funcionamiento"); 
07B3E:  MOVLW  CA
07B40:  MOVWF  FF6
07B42:  MOVLW  09
07B44:  MOVWF  FF7
07B46:  MOVLW  00
07B48:  MOVWF  FF8
07B4A:  CALL   3B38
....................             SendDataDisplay();        
07B4E:  CALL   3B6A
....................             ConfiguraCiclo(0,0,0,2,0,0,5,0,0,2,121); 
07B52:  MOVLB  6
07B54:  CLRF   x3E
07B56:  CLRF   x3F
07B58:  CLRF   x40
07B5A:  MOVLW  02
07B5C:  MOVWF  x41
07B5E:  CLRF   x42
07B60:  CLRF   x43
07B62:  MOVLW  05
07B64:  MOVWF  x44
07B66:  CLRF   x45
07B68:  CLRF   x46
07B6A:  MOVLW  02
07B6C:  MOVWF  x47
07B6E:  MOVLW  79
07B70:  MOVWF  x48
07B72:  MOVLB  0
07B74:  CALL   4C7A
....................             Op=OFF; 
07B78:  BCF    x89.1
....................             Op2=OFF; 
07B7A:  BCF    x89.2
....................             MenuAnt=Menu; 
07B7C:  MOVFF  1DD,1DE
....................             //CantidadPulsos=7; 
....................             //NivelVacio=32; 
....................             Fugas=OFF; 
07B80:  BCF    x8B.2
....................             //TiempoVacio=CantidadPulsos*180; 
....................          } 
....................       } 
....................        
....................       if(RX_Buffer[4]==0x03  && RX_Buffer[5]==0x0f && estados[19+RX_Buffer[4]]){//03, Liquidos 
07B82:  MOVF   34,W
07B84:  SUBLW  03
07B86:  BNZ   7C4C
07B88:  MOVF   35,W
07B8A:  SUBLW  0F
07B8C:  BNZ   7C4C
07B8E:  MOVLW  13
07B90:  ADDWF  34,W
07B92:  MOVLB  6
07B94:  MOVWF  x35
07B96:  MOVLW  02
07B98:  MOVWF  x37
07B9A:  MOVLW  A0
07B9C:  MOVWF  x36
07B9E:  MOVLB  0
07BA0:  CALL   2146
07BA4:  BTFSS  01.0
07BA6:  BRA    7C4C
....................          delay_ms(5); 
07BA8:  MOVLW  05
07BAA:  MOVLB  6
07BAC:  MOVWF  x3D
07BAE:  MOVLB  0
07BB0:  CALL   1D06
....................          if(RX_Buffer[4]==0x03 && RX_Buffer[5]==0x0f && estados[19+RX_Buffer[4]]){ 
07BB4:  MOVF   34,W
07BB6:  SUBLW  03
07BB8:  BNZ   7C4C
07BBA:  MOVF   35,W
07BBC:  SUBLW  0F
07BBE:  BNZ   7C4C
07BC0:  MOVLW  13
07BC2:  ADDWF  34,W
07BC4:  MOVLB  6
07BC6:  MOVWF  x35
07BC8:  MOVLW  02
07BCA:  MOVWF  x37
07BCC:  MOVLW  A0
07BCE:  MOVWF  x36
07BD0:  MOVLB  0
07BD2:  CALL   2146
07BD6:  BTFSS  01.0
07BD8:  BRA    7C4C
....................             printf("page Funcionamiento"); 
07BDA:  MOVLW  DE
07BDC:  MOVWF  FF6
07BDE:  MOVLW  09
07BE0:  MOVWF  FF7
07BE2:  MOVLW  00
07BE4:  MOVWF  FF8
07BE6:  CALL   3B38
....................             SendDataDisplay();        
07BEA:  CALL   3B6A
....................             ConfiguraCiclo(0,0,5,1,0,0,0,0,0,3,121); 
07BEE:  MOVLB  6
07BF0:  CLRF   x3E
07BF2:  CLRF   x3F
07BF4:  MOVLW  05
07BF6:  MOVWF  x40
07BF8:  MOVLW  01
07BFA:  MOVWF  x41
07BFC:  CLRF   x42
07BFE:  CLRF   x43
07C00:  CLRF   x44
07C02:  CLRF   x45
07C04:  CLRF   x46
07C06:  MOVLW  03
07C08:  MOVWF  x47
07C0A:  MOVLW  79
07C0C:  MOVWF  x48
07C0E:  MOVLB  0
07C10:  CALL   4C7A
....................             Op=OFF; 
07C14:  BCF    x89.1
....................             Op2=OFF; 
07C16:  BCF    x89.2
....................             MenuAnt=Menu; 
07C18:  MOVFF  1DD,1DE
....................             CantidadPulsos=7; 
07C1C:  MOVLB  1
07C1E:  CLRF   xE6
07C20:  MOVLW  07
07C22:  MOVWF  xE5
....................             NivelVacio=32; 
07C24:  MOVLW  20
07C26:  MOVLB  2
07C28:  MOVWF  x24
....................             Fugas=OFF; 
07C2A:  MOVLB  0
07C2C:  BCF    x8B.2
....................             TiempoVacio=CantidadPulsos*180; 
07C2E:  MOVFF  1E6,63D
07C32:  MOVFF  1E5,63C
07C36:  MOVLB  6
07C38:  CLRF   x3F
07C3A:  MOVLW  B4
07C3C:  MOVWF  x3E
07C3E:  MOVLB  0
07C40:  CALL   2178
07C44:  MOVFF  02,85
07C48:  MOVFF  01,84
....................          } 
....................       } 
....................        
....................       if(RX_Buffer[4]==0x04 && RX_Buffer[5]==0x0f && estados[19+RX_Buffer[4]]){//04, Envueltos 134 
07C4C:  MOVF   34,W
07C4E:  SUBLW  04
07C50:  BNZ   7D18
07C52:  MOVF   35,W
07C54:  SUBLW  0F
07C56:  BNZ   7D18
07C58:  MOVLW  13
07C5A:  ADDWF  34,W
07C5C:  MOVLB  6
07C5E:  MOVWF  x35
07C60:  MOVLW  02
07C62:  MOVWF  x37
07C64:  MOVLW  A0
07C66:  MOVWF  x36
07C68:  MOVLB  0
07C6A:  CALL   2146
07C6E:  BTFSS  01.0
07C70:  BRA    7D18
....................          delay_ms(5); 
07C72:  MOVLW  05
07C74:  MOVLB  6
07C76:  MOVWF  x3D
07C78:  MOVLB  0
07C7A:  CALL   1D06
....................          if(RX_Buffer[4]==0x04 && RX_Buffer[5]==0x0f && estados[19+RX_Buffer[4]]){ 
07C7E:  MOVF   34,W
07C80:  SUBLW  04
07C82:  BNZ   7D18
07C84:  MOVF   35,W
07C86:  SUBLW  0F
07C88:  BNZ   7D18
07C8A:  MOVLW  13
07C8C:  ADDWF  34,W
07C8E:  MOVLB  6
07C90:  MOVWF  x35
07C92:  MOVLW  02
07C94:  MOVWF  x37
07C96:  MOVLW  A0
07C98:  MOVWF  x36
07C9A:  MOVLB  0
07C9C:  CALL   2146
07CA0:  BTFSS  01.0
07CA2:  BRA    7D18
....................             printf("page Funcionamiento"); 
07CA4:  MOVLW  F2
07CA6:  MOVWF  FF6
07CA8:  MOVLW  09
07CAA:  MOVWF  FF7
07CAC:  MOVLW  00
07CAE:  MOVWF  FF8
07CB0:  CALL   3B38
....................             SendDataDisplay();        
07CB4:  CALL   3B6A
....................             ConfiguraCiclo(0,0,4,0,0,0,5,1,0,4,134); 
07CB8:  MOVLB  6
07CBA:  CLRF   x3E
07CBC:  CLRF   x3F
07CBE:  MOVLW  04
07CC0:  MOVWF  x40
07CC2:  CLRF   x41
07CC4:  CLRF   x42
07CC6:  CLRF   x43
07CC8:  MOVLW  05
07CCA:  MOVWF  x44
07CCC:  MOVLW  01
07CCE:  MOVWF  x45
07CD0:  CLRF   x46
07CD2:  MOVLW  04
07CD4:  MOVWF  x47
07CD6:  MOVLW  86
07CD8:  MOVWF  x48
07CDA:  MOVLB  0
07CDC:  CALL   4C7A
....................             Op=OFF; 
07CE0:  BCF    x89.1
....................             Op2=OFF; 
07CE2:  BCF    x89.2
....................             MenuAnt=Menu; 
07CE4:  MOVFF  1DD,1DE
....................             CantidadPulsos=7; 
07CE8:  MOVLB  1
07CEA:  CLRF   xE6
07CEC:  MOVLW  07
07CEE:  MOVWF  xE5
....................             NivelVacio=32; 
07CF0:  MOVLW  20
07CF2:  MOVLB  2
07CF4:  MOVWF  x24
....................             Fugas=OFF; 
07CF6:  MOVLB  0
07CF8:  BCF    x8B.2
....................             TiempoVacio=CantidadPulsos*180; 
07CFA:  MOVFF  1E6,63D
07CFE:  MOVFF  1E5,63C
07D02:  MOVLB  6
07D04:  CLRF   x3F
07D06:  MOVLW  B4
07D08:  MOVWF  x3E
07D0A:  MOVLB  0
07D0C:  CALL   2178
07D10:  MOVFF  02,85
07D14:  MOVFF  01,84
....................          } 
....................       } 
....................        
....................       if(RX_Buffer[4]==0x05 && RX_Buffer[5]==0x0f && estados[19+RX_Buffer[4]]){//05, Envueltos 121 
07D18:  MOVF   34,W
07D1A:  SUBLW  05
07D1C:  BNZ   7DE6
07D1E:  MOVF   35,W
07D20:  SUBLW  0F
07D22:  BNZ   7DE6
07D24:  MOVLW  13
07D26:  ADDWF  34,W
07D28:  MOVLB  6
07D2A:  MOVWF  x35
07D2C:  MOVLW  02
07D2E:  MOVWF  x37
07D30:  MOVLW  A0
07D32:  MOVWF  x36
07D34:  MOVLB  0
07D36:  CALL   2146
07D3A:  BTFSS  01.0
07D3C:  BRA    7DE6
....................          delay_ms(5); 
07D3E:  MOVLW  05
07D40:  MOVLB  6
07D42:  MOVWF  x3D
07D44:  MOVLB  0
07D46:  CALL   1D06
....................          if(RX_Buffer[4]==0x05 && RX_Buffer[5]==0x0f && estados[19+RX_Buffer[4]]){ 
07D4A:  MOVF   34,W
07D4C:  SUBLW  05
07D4E:  BNZ   7DE6
07D50:  MOVF   35,W
07D52:  SUBLW  0F
07D54:  BNZ   7DE6
07D56:  MOVLW  13
07D58:  ADDWF  34,W
07D5A:  MOVLB  6
07D5C:  MOVWF  x35
07D5E:  MOVLW  02
07D60:  MOVWF  x37
07D62:  MOVLW  A0
07D64:  MOVWF  x36
07D66:  MOVLB  0
07D68:  CALL   2146
07D6C:  BTFSS  01.0
07D6E:  BRA    7DE6
....................             printf("page Funcionamiento"); 
07D70:  MOVLW  06
07D72:  MOVWF  FF6
07D74:  MOVLW  0A
07D76:  MOVWF  FF7
07D78:  MOVLW  00
07D7A:  MOVWF  FF8
07D7C:  CALL   3B38
....................             SendDataDisplay();        
07D80:  CALL   3B6A
....................             ConfiguraCiclo(0,0,5,1,0,0,5,1,0,5,121); 
07D84:  MOVLB  6
07D86:  CLRF   x3E
07D88:  CLRF   x3F
07D8A:  MOVLW  05
07D8C:  MOVWF  x40
07D8E:  MOVLW  01
07D90:  MOVWF  x41
07D92:  CLRF   x42
07D94:  CLRF   x43
07D96:  MOVLW  05
07D98:  MOVWF  x44
07D9A:  MOVLW  01
07D9C:  MOVWF  x45
07D9E:  CLRF   x46
07DA0:  MOVLW  05
07DA2:  MOVWF  x47
07DA4:  MOVLW  79
07DA6:  MOVWF  x48
07DA8:  MOVLB  0
07DAA:  CALL   4C7A
....................             Op=OFF; 
07DAE:  BCF    x89.1
....................             Op2=OFF; 
07DB0:  BCF    x89.2
....................             MenuAnt=Menu; 
07DB2:  MOVFF  1DD,1DE
....................             CantidadPulsos=7; 
07DB6:  MOVLB  1
07DB8:  CLRF   xE6
07DBA:  MOVLW  07
07DBC:  MOVWF  xE5
....................             NivelVacio=32; 
07DBE:  MOVLW  20
07DC0:  MOVLB  2
07DC2:  MOVWF  x24
....................             Fugas=OFF; 
07DC4:  MOVLB  0
07DC6:  BCF    x8B.2
....................             TiempoVacio=CantidadPulsos*180; 
07DC8:  MOVFF  1E6,63D
07DCC:  MOVFF  1E5,63C
07DD0:  MOVLB  6
07DD2:  CLRF   x3F
07DD4:  MOVLW  B4
07DD6:  MOVWF  x3E
07DD8:  MOVLB  0
07DDA:  CALL   2178
07DDE:  MOVFF  02,85
07DE2:  MOVFF  01,84
....................          } 
....................       } 
....................        
....................       if(RX_Buffer[4]==0x06 && RX_Buffer[5]==0x0f && estados[19+RX_Buffer[4]]){//06, Envuelto Doble 1 
07DE6:  MOVF   34,W
07DE8:  SUBLW  06
07DEA:  BNZ   7EB0
07DEC:  MOVF   35,W
07DEE:  SUBLW  0F
07DF0:  BNZ   7EB0
07DF2:  MOVLW  13
07DF4:  ADDWF  34,W
07DF6:  MOVLB  6
07DF8:  MOVWF  x35
07DFA:  MOVLW  02
07DFC:  MOVWF  x37
07DFE:  MOVLW  A0
07E00:  MOVWF  x36
07E02:  MOVLB  0
07E04:  CALL   2146
07E08:  BTFSS  01.0
07E0A:  BRA    7EB0
....................          delay_ms(5); 
07E0C:  MOVLW  05
07E0E:  MOVLB  6
07E10:  MOVWF  x3D
07E12:  MOVLB  0
07E14:  CALL   1D06
....................          if(RX_Buffer[4]==0x06 && RX_Buffer[5]==0x0f && estados[19+RX_Buffer[4]]){ 
07E18:  MOVF   34,W
07E1A:  SUBLW  06
07E1C:  BNZ   7EB0
07E1E:  MOVF   35,W
07E20:  SUBLW  0F
07E22:  BNZ   7EB0
07E24:  MOVLW  13
07E26:  ADDWF  34,W
07E28:  MOVLB  6
07E2A:  MOVWF  x35
07E2C:  MOVLW  02
07E2E:  MOVWF  x37
07E30:  MOVLW  A0
07E32:  MOVWF  x36
07E34:  MOVLB  0
07E36:  CALL   2146
07E3A:  BTFSS  01.0
07E3C:  BRA    7EB0
....................             printf("page Funcionamiento"); 
07E3E:  MOVLW  1A
07E40:  MOVWF  FF6
07E42:  MOVLW  0A
07E44:  MOVWF  FF7
07E46:  MOVLW  00
07E48:  MOVWF  FF8
07E4A:  CALL   3B38
....................             SendDataDisplay();        
07E4E:  CALL   3B6A
....................             ConfiguraCiclo(0,0,7,0,0,0,0,2,0,6,134); 
07E52:  MOVLB  6
07E54:  CLRF   x3E
07E56:  CLRF   x3F
07E58:  MOVLW  07
07E5A:  MOVWF  x40
07E5C:  CLRF   x41
07E5E:  CLRF   x42
07E60:  CLRF   x43
07E62:  CLRF   x44
07E64:  MOVLW  02
07E66:  MOVWF  x45
07E68:  CLRF   x46
07E6A:  MOVLW  06
07E6C:  MOVWF  x47
07E6E:  MOVLW  86
07E70:  MOVWF  x48
07E72:  MOVLB  0
07E74:  CALL   4C7A
....................             Op=OFF; 
07E78:  BCF    x89.1
....................             Op2=OFF; 
07E7A:  BCF    x89.2
....................             MenuAnt=Menu; 
07E7C:  MOVFF  1DD,1DE
....................             CantidadPulsos=7; 
07E80:  MOVLB  1
07E82:  CLRF   xE6
07E84:  MOVLW  07
07E86:  MOVWF  xE5
....................             NivelVacio=32; 
07E88:  MOVLW  20
07E8A:  MOVLB  2
07E8C:  MOVWF  x24
....................             Fugas=OFF; 
07E8E:  MOVLB  0
07E90:  BCF    x8B.2
....................             TiempoVacio=CantidadPulsos*180; 
07E92:  MOVFF  1E6,63D
07E96:  MOVFF  1E5,63C
07E9A:  MOVLB  6
07E9C:  CLRF   x3F
07E9E:  MOVLW  B4
07EA0:  MOVWF  x3E
07EA2:  MOVLB  0
07EA4:  CALL   2178
07EA8:  MOVFF  02,85
07EAC:  MOVFF  01,84
....................          } 
....................       } 
....................        
....................       if(RX_Buffer[4]==0x07 && RX_Buffer[5]==0x0f && estados[19+RX_Buffer[4]]){//07, Envuelto Doble 2 
07EB0:  MOVF   34,W
07EB2:  SUBLW  07
07EB4:  BNZ   7F7A
07EB6:  MOVF   35,W
07EB8:  SUBLW  0F
07EBA:  BNZ   7F7A
07EBC:  MOVLW  13
07EBE:  ADDWF  34,W
07EC0:  MOVLB  6
07EC2:  MOVWF  x35
07EC4:  MOVLW  02
07EC6:  MOVWF  x37
07EC8:  MOVLW  A0
07ECA:  MOVWF  x36
07ECC:  MOVLB  0
07ECE:  CALL   2146
07ED2:  BTFSS  01.0
07ED4:  BRA    7F7A
....................          delay_ms(5); 
07ED6:  MOVLW  05
07ED8:  MOVLB  6
07EDA:  MOVWF  x3D
07EDC:  MOVLB  0
07EDE:  CALL   1D06
....................          if(RX_Buffer[4]==0x07 && RX_Buffer[5]==0x0f && estados[19+RX_Buffer[4]]){ 
07EE2:  MOVF   34,W
07EE4:  SUBLW  07
07EE6:  BNZ   7F7A
07EE8:  MOVF   35,W
07EEA:  SUBLW  0F
07EEC:  BNZ   7F7A
07EEE:  MOVLW  13
07EF0:  ADDWF  34,W
07EF2:  MOVLB  6
07EF4:  MOVWF  x35
07EF6:  MOVLW  02
07EF8:  MOVWF  x37
07EFA:  MOVLW  A0
07EFC:  MOVWF  x36
07EFE:  MOVLB  0
07F00:  CALL   2146
07F04:  BTFSS  01.0
07F06:  BRA    7F7A
....................             printf("page Funcionamiento"); 
07F08:  MOVLW  2E
07F0A:  MOVWF  FF6
07F0C:  MOVLW  0A
07F0E:  MOVWF  FF7
07F10:  MOVLW  00
07F12:  MOVWF  FF8
07F14:  CALL   3B38
....................             SendDataDisplay();        
07F18:  CALL   3B6A
....................             ConfiguraCiclo(0,0,7,0,0,0,0,3,0,7,134); 
07F1C:  MOVLB  6
07F1E:  CLRF   x3E
07F20:  CLRF   x3F
07F22:  MOVLW  07
07F24:  MOVWF  x40
07F26:  CLRF   x41
07F28:  CLRF   x42
07F2A:  CLRF   x43
07F2C:  CLRF   x44
07F2E:  MOVLW  03
07F30:  MOVWF  x45
07F32:  CLRF   x46
07F34:  MOVLW  07
07F36:  MOVWF  x47
07F38:  MOVLW  86
07F3A:  MOVWF  x48
07F3C:  MOVLB  0
07F3E:  CALL   4C7A
....................             Op=OFF; 
07F42:  BCF    x89.1
....................             Op2=OFF; 
07F44:  BCF    x89.2
....................             MenuAnt=Menu; 
07F46:  MOVFF  1DD,1DE
....................             CantidadPulsos=7; 
07F4A:  MOVLB  1
07F4C:  CLRF   xE6
07F4E:  MOVLW  07
07F50:  MOVWF  xE5
....................             NivelVacio=32; 
07F52:  MOVLW  20
07F54:  MOVLB  2
07F56:  MOVWF  x24
....................             Fugas=OFF; 
07F58:  MOVLB  0
07F5A:  BCF    x8B.2
....................             TiempoVacio=CantidadPulsos*180; 
07F5C:  MOVFF  1E6,63D
07F60:  MOVFF  1E5,63C
07F64:  MOVLB  6
07F66:  CLRF   x3F
07F68:  MOVLW  B4
07F6A:  MOVWF  x3E
07F6C:  MOVLB  0
07F6E:  CALL   2178
07F72:  MOVFF  02,85
07F76:  MOVFF  01,84
....................          } 
....................       } 
....................        
....................       if(RX_Buffer[4]==0x08 && RX_Buffer[5]==0x0f && estados[19+RX_Buffer[4]]){//08, Prion 
07F7A:  MOVF   34,W
07F7C:  SUBLW  08
07F7E:  BNZ   8048
07F80:  MOVF   35,W
07F82:  SUBLW  0F
07F84:  BNZ   8048
07F86:  MOVLW  13
07F88:  ADDWF  34,W
07F8A:  MOVLB  6
07F8C:  MOVWF  x35
07F8E:  MOVLW  02
07F90:  MOVWF  x37
07F92:  MOVLW  A0
07F94:  MOVWF  x36
07F96:  MOVLB  0
07F98:  CALL   2146
07F9C:  BTFSS  01.0
07F9E:  BRA    8048
....................          delay_ms(5); 
07FA0:  MOVLW  05
07FA2:  MOVLB  6
07FA4:  MOVWF  x3D
07FA6:  MOVLB  0
07FA8:  CALL   1D06
....................          if(RX_Buffer[4]==0x08 && RX_Buffer[5]==0x0f && estados[19+RX_Buffer[4]]){ 
07FAC:  MOVF   34,W
07FAE:  SUBLW  08
07FB0:  BNZ   8048
07FB2:  MOVF   35,W
07FB4:  SUBLW  0F
07FB6:  BNZ   8048
07FB8:  MOVLW  13
07FBA:  ADDWF  34,W
07FBC:  MOVLB  6
07FBE:  MOVWF  x35
07FC0:  MOVLW  02
07FC2:  MOVWF  x37
07FC4:  MOVLW  A0
07FC6:  MOVWF  x36
07FC8:  MOVLB  0
07FCA:  CALL   2146
07FCE:  BTFSS  01.0
07FD0:  BRA    8048
....................             printf("page Funcionamiento"); 
07FD2:  MOVLW  42
07FD4:  MOVWF  FF6
07FD6:  MOVLW  0A
07FD8:  MOVWF  FF7
07FDA:  MOVLW  00
07FDC:  MOVWF  FF8
07FDE:  CALL   3B38
....................             SendDataDisplay();        
07FE2:  CALL   3B6A
....................             ConfiguraCiclo(0,0,8,1,0,0,5,1,0,8,134); 
07FE6:  MOVLB  6
07FE8:  CLRF   x3E
07FEA:  CLRF   x3F
07FEC:  MOVLW  08
07FEE:  MOVWF  x40
07FF0:  MOVLW  01
07FF2:  MOVWF  x41
07FF4:  CLRF   x42
07FF6:  CLRF   x43
07FF8:  MOVLW  05
07FFA:  MOVWF  x44
07FFC:  MOVLW  01
07FFE:  MOVWF  x45
08000:  CLRF   x46
08002:  MOVLW  08
08004:  MOVWF  x47
08006:  MOVLW  86
08008:  MOVWF  x48
0800A:  MOVLB  0
0800C:  CALL   4C7A
....................             Op=OFF; 
08010:  BCF    x89.1
....................             Op2=OFF; 
08012:  BCF    x89.2
....................             MenuAnt=Menu; 
08014:  MOVFF  1DD,1DE
....................             CantidadPulsos=7; 
08018:  MOVLB  1
0801A:  CLRF   xE6
0801C:  MOVLW  07
0801E:  MOVWF  xE5
....................             NivelVacio=32; 
08020:  MOVLW  20
08022:  MOVLB  2
08024:  MOVWF  x24
....................             Fugas=OFF; 
08026:  MOVLB  0
08028:  BCF    x8B.2
....................             TiempoVacio=CantidadPulsos*180; 
0802A:  MOVFF  1E6,63D
0802E:  MOVFF  1E5,63C
08032:  MOVLB  6
08034:  CLRF   x3F
08036:  MOVLW  B4
08038:  MOVWF  x3E
0803A:  MOVLB  0
0803C:  CALL   2178
08040:  MOVFF  02,85
08044:  MOVFF  01,84
....................          } 
....................       } 
....................        
....................       if(RX_Buffer[4]==0x09 && RX_Buffer[5]==0x0f && estados[19+RX_Buffer[4]]){//09, Bowie & Dick 
08048:  MOVF   34,W
0804A:  SUBLW  09
0804C:  BNZ   8112
0804E:  MOVF   35,W
08050:  SUBLW  0F
08052:  BNZ   8112
08054:  MOVLW  13
08056:  ADDWF  34,W
08058:  MOVLB  6
0805A:  MOVWF  x35
0805C:  MOVLW  02
0805E:  MOVWF  x37
08060:  MOVLW  A0
08062:  MOVWF  x36
08064:  MOVLB  0
08066:  CALL   2146
0806A:  BTFSS  01.0
0806C:  BRA    8112
....................          delay_ms(5); 
0806E:  MOVLW  05
08070:  MOVLB  6
08072:  MOVWF  x3D
08074:  MOVLB  0
08076:  CALL   1D06
....................          if(RX_Buffer[4]==0x09 && RX_Buffer[5]==0x0f && estados[19+RX_Buffer[4]]){ 
0807A:  MOVF   34,W
0807C:  SUBLW  09
0807E:  BNZ   8112
08080:  MOVF   35,W
08082:  SUBLW  0F
08084:  BNZ   8112
08086:  MOVLW  13
08088:  ADDWF  34,W
0808A:  MOVLB  6
0808C:  MOVWF  x35
0808E:  MOVLW  02
08090:  MOVWF  x37
08092:  MOVLW  A0
08094:  MOVWF  x36
08096:  MOVLB  0
08098:  CALL   2146
0809C:  BTFSS  01.0
0809E:  BRA    8112
....................             printf("page Funcionamiento"); 
080A0:  MOVLW  56
080A2:  MOVWF  FF6
080A4:  MOVLW  0A
080A6:  MOVWF  FF7
080A8:  MOVLW  00
080AA:  MOVWF  FF8
080AC:  CALL   3B38
....................             SendDataDisplay();        
080B0:  CALL   3B6A
....................             ConfiguraCiclo(0,3,3,0,0,0,2,0,0,9,134); 
080B4:  MOVLB  6
080B6:  CLRF   x3E
080B8:  MOVLW  03
080BA:  MOVWF  x3F
080BC:  MOVWF  x40
080BE:  CLRF   x41
080C0:  CLRF   x42
080C2:  CLRF   x43
080C4:  MOVLW  02
080C6:  MOVWF  x44
080C8:  CLRF   x45
080CA:  CLRF   x46
080CC:  MOVLW  09
080CE:  MOVWF  x47
080D0:  MOVLW  86
080D2:  MOVWF  x48
080D4:  MOVLB  0
080D6:  CALL   4C7A
....................             Op=OFF; 
080DA:  BCF    x89.1
....................             Op2=OFF; 
080DC:  BCF    x89.2
....................             MenuAnt=Menu; 
080DE:  MOVFF  1DD,1DE
....................             CantidadPulsos=7; 
080E2:  MOVLB  1
080E4:  CLRF   xE6
080E6:  MOVLW  07
080E8:  MOVWF  xE5
....................             NivelVacio=32; 
080EA:  MOVLW  20
080EC:  MOVLB  2
080EE:  MOVWF  x24
....................             Fugas=OFF; 
080F0:  MOVLB  0
080F2:  BCF    x8B.2
....................             TiempoVacio=CantidadPulsos*180; 
080F4:  MOVFF  1E6,63D
080F8:  MOVFF  1E5,63C
080FC:  MOVLB  6
080FE:  CLRF   x3F
08100:  MOVLW  B4
08102:  MOVWF  x3E
08104:  MOVLB  0
08106:  CALL   2178
0810A:  MOVFF  02,85
0810E:  MOVFF  01,84
....................          } 
....................       } 
....................        
....................       if(RX_Buffer[4]==0x0a && RX_Buffer[5]==0x0f && estados[19+RX_Buffer[4]]){//0a, Test de Fugas 
08112:  MOVF   34,W
08114:  SUBLW  0A
08116:  BNZ   81DA
08118:  MOVF   35,W
0811A:  SUBLW  0F
0811C:  BNZ   81DA
0811E:  MOVLW  13
08120:  ADDWF  34,W
08122:  MOVLB  6
08124:  MOVWF  x35
08126:  MOVLW  02
08128:  MOVWF  x37
0812A:  MOVLW  A0
0812C:  MOVWF  x36
0812E:  MOVLB  0
08130:  CALL   2146
08134:  BTFSS  01.0
08136:  BRA    81DA
....................          delay_ms(5); 
08138:  MOVLW  05
0813A:  MOVLB  6
0813C:  MOVWF  x3D
0813E:  MOVLB  0
08140:  CALL   1D06
....................          if(RX_Buffer[4]==0x0a && RX_Buffer[5]==0x0f && estados[19+RX_Buffer[4]]){ 
08144:  MOVF   34,W
08146:  SUBLW  0A
08148:  BNZ   81DA
0814A:  MOVF   35,W
0814C:  SUBLW  0F
0814E:  BNZ   81DA
08150:  MOVLW  13
08152:  ADDWF  34,W
08154:  MOVLB  6
08156:  MOVWF  x35
08158:  MOVLW  02
0815A:  MOVWF  x37
0815C:  MOVLW  A0
0815E:  MOVWF  x36
08160:  MOVLB  0
08162:  CALL   2146
08166:  BTFSS  01.0
08168:  BRA    81DA
....................             printf("page Funcionamiento"); 
0816A:  MOVLW  6A
0816C:  MOVWF  FF6
0816E:  MOVLW  0A
08170:  MOVWF  FF7
08172:  MOVLW  00
08174:  MOVWF  FF8
08176:  CALL   3B38
....................             SendDataDisplay();        
0817A:  CALL   3B6A
....................             ConfiguraCiclo(0,0,5,1,0,0,0,0,0,10,0); 
0817E:  MOVLB  6
08180:  CLRF   x3E
08182:  CLRF   x3F
08184:  MOVLW  05
08186:  MOVWF  x40
08188:  MOVLW  01
0818A:  MOVWF  x41
0818C:  CLRF   x42
0818E:  CLRF   x43
08190:  CLRF   x44
08192:  CLRF   x45
08194:  CLRF   x46
08196:  MOVLW  0A
08198:  MOVWF  x47
0819A:  CLRF   x48
0819C:  MOVLB  0
0819E:  CALL   4C7A
....................             Op=OFF; 
081A2:  BCF    x89.1
....................             Op2=OFF; 
081A4:  BCF    x89.2
....................             MenuAnt=Menu; 
081A6:  MOVFF  1DD,1DE
....................             CantidadPulsos=1; 
081AA:  MOVLB  1
081AC:  CLRF   xE6
081AE:  MOVLW  01
081B0:  MOVWF  xE5
....................             NivelVacio=17; 
081B2:  MOVLW  11
081B4:  MOVLB  2
081B6:  MOVWF  x24
....................             Fugas=ON; 
081B8:  MOVLB  0
081BA:  BSF    x8B.2
....................             TiempoVacio=CantidadPulsos*180; 
081BC:  MOVFF  1E6,63D
081C0:  MOVFF  1E5,63C
081C4:  MOVLB  6
081C6:  CLRF   x3F
081C8:  MOVLW  B4
081CA:  MOVWF  x3E
081CC:  MOVLB  0
081CE:  CALL   2178
081D2:  MOVFF  02,85
081D6:  MOVFF  01,84
....................          } 
....................       } 
....................        
....................       if(RX_Buffer[4]==0xa0){//a0, Ciclos Fijos 
081DA:  MOVF   34,W
081DC:  SUBLW  A0
081DE:  BNZ   81F4
....................          printf("page Menu"); 
081E0:  MOVLW  7E
081E2:  MOVWF  FF6
081E4:  MOVLW  0A
081E6:  MOVWF  FF7
081E8:  MOVLW  00
081EA:  MOVWF  FF8
081EC:  CALL   3B38
....................          SendDataDisplay();      
081F0:  CALL   3B6A
....................       } 
....................        
....................       if(RX_Buffer[4]==0xb0){//b0, Personalizados 
081F4:  MOVF   34,W
081F6:  SUBLW  B0
081F8:  BNZ   820E
....................          printf("page CicloPersona"); 
081FA:  MOVLW  88
081FC:  MOVWF  FF6
081FE:  MOVLW  0A
08200:  MOVWF  FF7
08202:  MOVLW  00
08204:  MOVWF  FF8
08206:  CALL   3B38
....................          SendDataDisplay();      
0820A:  CALL   3B6A
....................       } 
....................        
....................       if(RX_Buffer[4]==0xc0){//c0, Configuraciones 
0820E:  MOVF   34,W
08210:  SUBLW  C0
08212:  BNZ   8236
....................          if(codigoUsuario==0 || codigoUsuario==9){        
08214:  MOVLB  2
08216:  MOVF   x34,F
08218:  BZ    8220
0821A:  MOVF   x34,W
0821C:  SUBLW  09
0821E:  BNZ   8238
....................             printf("page Ajustes"); 
08220:  MOVLW  9A
08222:  MOVWF  FF6
08224:  MOVLW  0A
08226:  MOVWF  FF7
08228:  MOVLW  00
0822A:  MOVWF  FF8
0822C:  MOVLB  0
0822E:  CALL   3B38
....................             SendDataDisplay();      
08232:  CALL   3B6A
08236:  MOVLB  2
....................          } 
....................       } 
....................  
....................          if(RIGHT && LEFT){ 
08238:  BSF    F93.2
0823A:  BTFSC  F81.2
0823C:  BRA    8288
0823E:  BSF    F93.3
08240:  BTFSC  F81.3
08242:  BRA    8288
....................             delay_ms(20); 
08244:  MOVLW  14
08246:  MOVLB  6
08248:  MOVWF  x3D
0824A:  MOVLB  0
0824C:  CALL   1D06
....................             if(RIGHT && LEFT){ 
08250:  BSF    F93.2
08252:  BTFSC  F81.2
08254:  BRA    8286
08256:  BSF    F93.3
08258:  BTFSC  F81.3
0825A:  BRA    8286
....................                printf("page Clave"); 
0825C:  MOVLW  A8
0825E:  MOVWF  FF6
08260:  MOVLW  0A
08262:  MOVWF  FF7
08264:  MOVLW  00
08266:  MOVWF  FF8
08268:  CALL   3B38
....................                SendDataDisplay();  
0826C:  CALL   3B6A
....................                Op=OFF; 
08270:  BCF    x89.1
....................                Op2=OFF; 
08272:  BCF    x89.2
....................                MenuAnt=Menu; 
08274:  MOVFF  1DD,1DE
....................                TipoClave=1; 
08278:  MOVLW  01
0827A:  MOVLB  1
0827C:  MOVWF  x7F
....................                RX_Buffer[3]=0x00; 
0827E:  CLRF   33
....................                RX_Buffer2[3]=0x00; 
08280:  CLRF   3E
....................                Opcion=0; 
08282:  CLRF   xE8
08284:  MOVLB  0
08286:  MOVLB  2
....................             } 
....................          } 
....................    } 
.................... //_--------------------------------------------------------------------------------------------------------------------------------------------------------        
....................  
.................... //_-------------------------------------------------------------------------------------------------------------------------------------------------------- 
....................     if(Menu==2){ //Menu de Tiempo Esterilizacion      
08288:  MOVLB  1
0828A:  MOVF   xDD,W
0828C:  SUBLW  02
0828E:  BTFSS  FD8.2
08290:  BRA    86AA
....................       printf("fecha.txt=\"Fecha:%02u/%02u/20%02u Hora: %02u:%02u:%02u\"",Dia,Mes,Year,Hora,Minuto,Segundo); 
08292:  MOVLW  B4
08294:  MOVWF  FF6
08296:  MOVLW  0A
08298:  MOVWF  FF7
0829A:  MOVLW  00
0829C:  MOVWF  FF8
0829E:  MOVLW  11
082A0:  MOVLB  6
082A2:  MOVWF  x39
082A4:  MOVLB  0
082A6:  CALL   4B78
082AA:  MOVFF  21D,639
082AE:  MOVLW  01
082B0:  MOVLB  6
082B2:  MOVWF  x3A
082B4:  MOVLB  0
082B6:  CALL   4BFC
082BA:  MOVLW  2F
082BC:  BTFSS  F9E.4
082BE:  BRA    82BC
082C0:  MOVWF  FAD
082C2:  MOVFF  21C,639
082C6:  MOVLW  01
082C8:  MOVLB  6
082CA:  MOVWF  x3A
082CC:  MOVLB  0
082CE:  CALL   4BFC
082D2:  MOVLW  2F
082D4:  BTFSS  F9E.4
082D6:  BRA    82D4
082D8:  MOVWF  FAD
082DA:  MOVLW  32
082DC:  BTFSS  F9E.4
082DE:  BRA    82DC
082E0:  MOVWF  FAD
082E2:  MOVLW  30
082E4:  BTFSS  F9E.4
082E6:  BRA    82E4
082E8:  MOVWF  FAD
082EA:  MOVFF  21B,639
082EE:  MOVLW  01
082F0:  MOVLB  6
082F2:  MOVWF  x3A
082F4:  MOVLB  0
082F6:  CALL   4BFC
082FA:  MOVLW  D5
082FC:  MOVWF  FF6
082FE:  MOVLW  0A
08300:  MOVWF  FF7
08302:  MOVLW  00
08304:  MOVWF  FF8
08306:  MOVLW  07
08308:  MOVLB  6
0830A:  MOVWF  x39
0830C:  MOVLB  0
0830E:  CALL   4B78
08312:  MOVFF  21E,639
08316:  MOVLW  01
08318:  MOVLB  6
0831A:  MOVWF  x3A
0831C:  MOVLB  0
0831E:  CALL   4BFC
08322:  MOVLW  3A
08324:  BTFSS  F9E.4
08326:  BRA    8324
08328:  MOVWF  FAD
0832A:  MOVFF  21F,639
0832E:  MOVLW  01
08330:  MOVLB  6
08332:  MOVWF  x3A
08334:  MOVLB  0
08336:  CALL   4BFC
0833A:  MOVLW  3A
0833C:  BTFSS  F9E.4
0833E:  BRA    833C
08340:  MOVWF  FAD
08342:  MOVFF  220,639
08346:  MOVLW  01
08348:  MOVLB  6
0834A:  MOVWF  x3A
0834C:  MOVLB  0
0834E:  CALL   4BFC
08352:  MOVLW  22
08354:  BTFSS  F9E.4
08356:  BRA    8354
08358:  MOVWF  FAD
....................       SendDataDisplay(); 
0835A:  CALL   3B6A
....................          if(RX_Buffer[4]==0x0a){//Selecciono Minutos 
0835E:  MOVF   34,W
08360:  SUBLW  0A
08362:  BNZ   8368
....................             Minutos=ON; 
08364:  BSF    x89.3
....................             Segundos=OFF; 
08366:  BCF    x89.4
....................          } 
....................           
....................          if(RX_Buffer[4]==0x0b){//Selecciono Segundos 
08368:  MOVF   34,W
0836A:  SUBLW  0B
0836C:  BNZ   8372
....................             Segundos=ON; 
0836E:  BSF    x89.4
....................             Minutos=OFF; 
08370:  BCF    x89.3
....................          } 
....................           
....................          if(RX_Buffer[4]==0x11){//Selecciono Regresar 
08372:  MOVF   34,W
08374:  SUBLW  11
08376:  BTFSS  FD8.2
08378:  BRA    84EC
....................             Segundos=OFF; 
0837A:  BCF    x89.4
....................             Minutos=OFF; 
0837C:  BCF    x89.3
....................             printf("page CicloPersona"); 
0837E:  MOVLW  EC
08380:  MOVWF  FF6
08382:  MOVLW  0A
08384:  MOVWF  FF7
08386:  MOVLW  00
08388:  MOVWF  FF8
0838A:  CALL   3B38
....................             SendDataDisplay();   
0838E:  CALL   3B6A
....................             PantallaPrincipal=1; 
08392:  MOVLW  01
08394:  MOVLB  1
08396:  MOVWF  x7E
....................             Op=OFF; 
08398:  MOVLB  0
0839A:  BCF    x89.1
....................             Op2=OFF; 
0839C:  BCF    x89.2
....................             if(!GuardaEEPROM){ 
0839E:  BTFSC  x89.5
083A0:  BRA    84EC
....................                CiclosPersonalizados[CicloLibre-1].Minutoest=Testerilizacionp[2]+(Testerilizacionp[3]*10); 
083A2:  MOVLW  01
083A4:  MOVLB  2
083A6:  SUBWF  x31,W
083A8:  MULLW  08
083AA:  MOVF   FF3,W
083AC:  MOVLB  6
083AE:  CLRF   x35
083B0:  MOVWF  x34
083B2:  MOVLW  01
083B4:  ADDWF  x34,W
083B6:  MOVWF  01
083B8:  MOVLW  00
083BA:  ADDWFC x35,W
083BC:  MOVWF  03
083BE:  MOVF   01,W
083C0:  ADDLW  6C
083C2:  MOVWF  FE9
083C4:  MOVLW  05
083C6:  ADDWFC 03,W
083C8:  MOVWF  FEA
083CA:  MOVFF  9E,63B
083CE:  MOVLW  0A
083D0:  MOVWF  x3C
083D2:  MOVLB  0
083D4:  CALL   36B2
083D8:  MOVF   01,W
083DA:  ADDWF  x9D,W
083DC:  MOVWF  FEF
....................                CiclosPersonalizados[CicloLibre-1].Segundoest=Testerilizacionp[0]+(Testerilizacionp[1]*10); 
083DE:  MOVLW  01
083E0:  MOVLB  2
083E2:  SUBWF  x31,W
083E4:  MULLW  08
083E6:  MOVF   FF3,W
083E8:  MOVLB  6
083EA:  CLRF   x35
083EC:  MOVWF  x34
083EE:  MOVLW  02
083F0:  ADDWF  x34,W
083F2:  MOVWF  01
083F4:  MOVLW  00
083F6:  ADDWFC x35,W
083F8:  MOVWF  03
083FA:  MOVF   01,W
083FC:  ADDLW  6C
083FE:  MOVWF  FE9
08400:  MOVLW  05
08402:  ADDWFC 03,W
08404:  MOVWF  FEA
08406:  MOVFF  9C,63B
0840A:  MOVLW  0A
0840C:  MOVWF  x3C
0840E:  MOVLB  0
08410:  CALL   36B2
08414:  MOVF   01,W
08416:  ADDWF  x9B,W
08418:  MOVWF  FEF
....................                write_eeprom(101+((CicloLibre-1)*8),Testerilizacionp[2]+(Testerilizacionp[3]*10)); 
0841A:  MOVLW  01
0841C:  MOVLB  2
0841E:  SUBWF  x31,W
08420:  MULLW  08
08422:  MOVF   FF3,W
08424:  ADDLW  65
08426:  MOVLB  6
08428:  MOVWF  x34
0842A:  MOVFF  9E,63B
0842E:  MOVLW  0A
08430:  MOVWF  x3C
08432:  MOVLB  0
08434:  CALL   36B2
08438:  MOVF   01,W
0843A:  ADDWF  x9D,W
0843C:  MOVLB  6
0843E:  MOVWF  x35
08440:  CLRF   FAA
08442:  MOVFF  634,FA9
08446:  MOVFF  635,FA8
0844A:  BCF    FA6.6
0844C:  BCF    FA6.7
0844E:  BSF    FA6.2
08450:  MOVF   FF2,W
08452:  MOVWF  00
08454:  BCF    FF2.6
08456:  BCF    FF2.7
08458:  MOVLB  F
0845A:  MOVLW  55
0845C:  MOVWF  FA7
0845E:  MOVLW  AA
08460:  MOVWF  FA7
08462:  BSF    FA6.1
08464:  BTFSC  FA6.1
08466:  BRA    8464
08468:  BCF    FA6.2
0846A:  MOVF   00,W
0846C:  IORWF  FF2,F
....................                delay_ms(10); 
0846E:  MOVLW  0A
08470:  MOVLB  6
08472:  MOVWF  x3D
08474:  MOVLB  0
08476:  CALL   1D06
....................                write_eeprom(102+((CicloLibre-1)*8),Testerilizacionp[0]+(Testerilizacionp[1]*10)); 
0847A:  MOVLW  01
0847C:  MOVLB  2
0847E:  SUBWF  x31,W
08480:  MULLW  08
08482:  MOVF   FF3,W
08484:  ADDLW  66
08486:  MOVLB  6
08488:  MOVWF  x34
0848A:  MOVFF  9C,63B
0848E:  MOVLW  0A
08490:  MOVWF  x3C
08492:  MOVLB  0
08494:  CALL   36B2
08498:  MOVF   01,W
0849A:  ADDWF  x9B,W
0849C:  MOVLB  6
0849E:  MOVWF  x35
084A0:  CLRF   FAA
084A2:  MOVFF  634,FA9
084A6:  MOVFF  635,FA8
084AA:  BCF    FA6.6
084AC:  BCF    FA6.7
084AE:  BSF    FA6.2
084B0:  MOVF   FF2,W
084B2:  MOVWF  00
084B4:  BCF    FF2.6
084B6:  BCF    FF2.7
084B8:  MOVLB  F
084BA:  MOVLW  55
084BC:  MOVWF  FA7
084BE:  MOVLW  AA
084C0:  MOVWF  FA7
084C2:  BSF    FA6.1
084C4:  BTFSC  FA6.1
084C6:  BRA    84C4
084C8:  BCF    FA6.2
084CA:  MOVF   00,W
084CC:  IORWF  FF2,F
....................                delay_ms(10); 
084CE:  MOVLW  0A
084D0:  MOVLB  6
084D2:  MOVWF  x3D
084D4:  MOVLB  0
084D6:  CALL   1D06
....................                Testerilizacion[0]=Testerilizacionp[0]; 
084DA:  MOVFF  9B,97
....................                Testerilizacion[1]=Testerilizacionp[1]; 
084DE:  MOVFF  9C,98
....................                Testerilizacion[2]=Testerilizacionp[2]; 
084E2:  MOVFF  9D,99
....................                Testerilizacion[3]=Testerilizacionp[3]; 
084E6:  MOVFF  9E,9A
....................                GuardaEEPROM=ON; 
084EA:  BSF    x89.5
....................             } 
....................          } 
....................           
....................          if(RX_Buffer[4]==0x0d && !Op){//Tecla Arriba Oprimida 
084EC:  MOVF   34,W
084EE:  SUBLW  0D
084F0:  BNZ   853A
084F2:  BTFSC  x89.1
084F4:  BRA    853A
....................             if(Segundos){ 
084F6:  BTFSS  x89.4
084F8:  BRA    8516
....................                Testerilizacionp[0]++; 
084FA:  INCF   x9B,F
....................                if(Testerilizacionp[0]>9){ 
084FC:  BTFSC  x9B.7
084FE:  BRA    8516
08500:  MOVF   x9B,W
08502:  SUBLW  09
08504:  BC    8516
....................                   Testerilizacionp[1]++; 
08506:  INCF   x9C,F
....................                   if(Testerilizacionp[1]>5) 
08508:  BTFSC  x9C.7
0850A:  BRA    8514
0850C:  MOVF   x9C,W
0850E:  SUBLW  05
08510:  BC    8514
....................                      Testerilizacionp[1]=0; 
08512:  CLRF   x9C
....................                   Testerilizacionp[0]=0; 
08514:  CLRF   x9B
....................                } 
....................             } 
....................             if(Minutos){ 
08516:  BTFSS  x89.3
08518:  BRA    8536
....................                Testerilizacionp[2]++; 
0851A:  INCF   x9D,F
....................                if(Testerilizacionp[2]>9){ 
0851C:  BTFSC  x9D.7
0851E:  BRA    8536
08520:  MOVF   x9D,W
08522:  SUBLW  09
08524:  BC    8536
....................                   Testerilizacionp[3]++; 
08526:  INCF   x9E,F
....................                   if(Testerilizacionp[3]>5) 
08528:  BTFSC  x9E.7
0852A:  BRA    8534
0852C:  MOVF   x9E,W
0852E:  SUBLW  05
08530:  BC    8534
....................                      Testerilizacionp[3]=0; 
08532:  CLRF   x9E
....................                   Testerilizacionp[2]=0; 
08534:  CLRF   x9D
....................                } 
....................             } 
....................             RX_Buffer[4]=0x00; 
08536:  CLRF   34
....................             Op=ON; 
08538:  BSF    x89.1
....................             //BorraBuffer(); 
....................          } 
....................           
....................          if(RX_Buffer[4]==0x0c && Op){//Tecla Derecha Oprimida 
0853A:  MOVF   34,W
0853C:  SUBLW  0C
0853E:  BNZ   8588
08540:  BTFSS  x89.1
08542:  BRA    8588
....................             if(Segundos){ 
08544:  BTFSS  x89.4
08546:  BRA    8564
....................                Testerilizacionp[0]++; 
08548:  INCF   x9B,F
....................                if(Testerilizacionp[0]>9){ 
0854A:  BTFSC  x9B.7
0854C:  BRA    8564
0854E:  MOVF   x9B,W
08550:  SUBLW  09
08552:  BC    8564
....................                   Testerilizacionp[1]++; 
08554:  INCF   x9C,F
....................                   if(Testerilizacionp[1]>5) 
08556:  BTFSC  x9C.7
08558:  BRA    8562
0855A:  MOVF   x9C,W
0855C:  SUBLW  05
0855E:  BC    8562
....................                      Testerilizacionp[1]=0; 
08560:  CLRF   x9C
....................                   Testerilizacionp[0]=0; 
08562:  CLRF   x9B
....................                } 
....................             } 
....................             if(Minutos){ 
08564:  BTFSS  x89.3
08566:  BRA    8584
....................                Testerilizacionp[2]++; 
08568:  INCF   x9D,F
....................                if(Testerilizacionp[2]>9){ 
0856A:  BTFSC  x9D.7
0856C:  BRA    8584
0856E:  MOVF   x9D,W
08570:  SUBLW  09
08572:  BC    8584
....................                   Testerilizacionp[3]++; 
08574:  INCF   x9E,F
....................                   if(Testerilizacionp[3]>5) 
08576:  BTFSC  x9E.7
08578:  BRA    8582
0857A:  MOVF   x9E,W
0857C:  SUBLW  05
0857E:  BC    8582
....................                      Testerilizacionp[3]=0; 
08580:  CLRF   x9E
....................                   Testerilizacionp[2]=0; 
08582:  CLRF   x9D
....................                } 
....................             } 
....................             RX_Buffer[4]=0x00; 
08584:  CLRF   34
....................             Op=OFF; 
08586:  BCF    x89.1
....................             //BorraBuffer(); 
....................          } 
....................           
....................          if(RX_Buffer[4]==0x0e && !Op2){//Tecla Izquierda Oprimida 
08588:  MOVF   34,W
0858A:  SUBLW  0E
0858C:  BNZ   85CE
0858E:  BTFSC  x89.2
08590:  BRA    85CE
....................             if(Segundos){ 
08592:  BTFSS  x89.4
08594:  BRA    85AE
....................                Testerilizacionp[0]--; 
08596:  DECF   x9B,F
....................                if(Testerilizacionp[0]<0){ 
08598:  BTFSC  x9B.7
0859A:  BRA    859E
0859C:  BRA    85AE
....................                   Testerilizacionp[1]--; 
0859E:  DECF   x9C,F
....................                   if(Testerilizacionp[1]<0) 
085A0:  BTFSC  x9C.7
085A2:  BRA    85A6
085A4:  BRA    85AA
....................                      Testerilizacionp[1]=5; 
085A6:  MOVLW  05
085A8:  MOVWF  x9C
....................                   Testerilizacionp[0]=9; 
085AA:  MOVLW  09
085AC:  MOVWF  x9B
....................                } 
....................             } 
....................             if(Minutos){ 
085AE:  BTFSS  x89.3
085B0:  BRA    85CA
....................                Testerilizacionp[2]--; 
085B2:  DECF   x9D,F
....................                if(Testerilizacionp[2]<0){ 
085B4:  BTFSC  x9D.7
085B6:  BRA    85BA
085B8:  BRA    85CA
....................                   Testerilizacionp[3]--; 
085BA:  DECF   x9E,F
....................                   if(Testerilizacionp[3]<0) 
085BC:  BTFSC  x9E.7
085BE:  BRA    85C2
085C0:  BRA    85C6
....................                      Testerilizacionp[3]=5; 
085C2:  MOVLW  05
085C4:  MOVWF  x9E
....................                   Testerilizacionp[2]=9; 
085C6:  MOVLW  09
085C8:  MOVWF  x9D
....................                } 
....................             } 
....................             RX_Buffer[4]=0x00; 
085CA:  CLRF   34
....................             Op2=ON; 
085CC:  BSF    x89.2
....................             //BorraBuffer(); 
....................          } 
....................           
....................          if(RX_Buffer[4]==0x0f && Op2){//Tecla Izquierda Oprimida 
085CE:  MOVF   34,W
085D0:  SUBLW  0F
085D2:  BNZ   8614
085D4:  BTFSS  x89.2
085D6:  BRA    8614
....................              
....................             if(Segundos){ 
085D8:  BTFSS  x89.4
085DA:  BRA    85F4
....................                Testerilizacionp[0]--; 
085DC:  DECF   x9B,F
....................                if(Testerilizacionp[0]<0){ 
085DE:  BTFSC  x9B.7
085E0:  BRA    85E4
085E2:  BRA    85F4
....................                   Testerilizacionp[1]--; 
085E4:  DECF   x9C,F
....................                   if(Testerilizacionp[1]<0) 
085E6:  BTFSC  x9C.7
085E8:  BRA    85EC
085EA:  BRA    85F0
....................                      Testerilizacionp[1]=5; 
085EC:  MOVLW  05
085EE:  MOVWF  x9C
....................                   Testerilizacionp[0]=9; 
085F0:  MOVLW  09
085F2:  MOVWF  x9B
....................                } 
....................             } 
....................             if(Minutos){ 
085F4:  BTFSS  x89.3
085F6:  BRA    8610
....................                Testerilizacionp[2]--; 
085F8:  DECF   x9D,F
....................                if(Testerilizacionp[2]<0){ 
085FA:  BTFSC  x9D.7
085FC:  BRA    8600
085FE:  BRA    8610
....................                   Testerilizacionp[3]--; 
08600:  DECF   x9E,F
....................                   if(Testerilizacionp[3]<0) 
08602:  BTFSC  x9E.7
08604:  BRA    8608
08606:  BRA    860C
....................                      Testerilizacionp[3]=5; 
08608:  MOVLW  05
0860A:  MOVWF  x9E
....................                   Testerilizacionp[2]=9; 
0860C:  MOVLW  09
0860E:  MOVWF  x9D
....................                } 
....................             } 
....................             RX_Buffer[4]=0x00; 
08610:  CLRF   34
....................             Op2=OFF; 
08612:  BCF    x89.2
....................             //BorraBuffer(); 
....................          } 
....................          printf("tminest.txt=\"%02u\"",((Testerilizacionp[3]*10)+Testerilizacionp[2])); 
08614:  MOVFF  9E,63B
08618:  MOVLW  0A
0861A:  MOVLB  6
0861C:  MOVWF  x3C
0861E:  MOVLB  0
08620:  CALL   36B2
08624:  MOVF   x9D,W
08626:  ADDWF  01,W
08628:  MOVLB  6
0862A:  MOVWF  x34
0862C:  MOVLW  FE
0862E:  MOVWF  FF6
08630:  MOVLW  0A
08632:  MOVWF  FF7
08634:  MOVLW  00
08636:  MOVWF  FF8
08638:  MOVLW  0D
0863A:  MOVWF  x39
0863C:  MOVLB  0
0863E:  CALL   4B78
08642:  MOVFF  634,639
08646:  MOVLW  01
08648:  MOVLB  6
0864A:  MOVWF  x3A
0864C:  MOVLB  0
0864E:  CALL   4BFC
08652:  MOVLW  22
08654:  BTFSS  F9E.4
08656:  BRA    8654
08658:  MOVWF  FAD
....................          SendDataDisplay(); 
0865A:  CALL   3B6A
....................          printf("tsecest.txt=\"%02u\"",((Testerilizacionp[1]*10)+Testerilizacionp[0])); 
0865E:  MOVFF  9C,63B
08662:  MOVLW  0A
08664:  MOVLB  6
08666:  MOVWF  x3C
08668:  MOVLB  0
0866A:  CALL   36B2
0866E:  MOVF   x9B,W
08670:  ADDWF  01,W
08672:  MOVLB  6
08674:  MOVWF  x34
08676:  MOVLW  12
08678:  MOVWF  FF6
0867A:  MOVLW  0B
0867C:  MOVWF  FF7
0867E:  MOVLW  00
08680:  MOVWF  FF8
08682:  MOVLW  0D
08684:  MOVWF  x39
08686:  MOVLB  0
08688:  CALL   4B78
0868C:  MOVFF  634,639
08690:  MOVLW  01
08692:  MOVLB  6
08694:  MOVWF  x3A
08696:  MOVLB  0
08698:  CALL   4BFC
0869C:  MOVLW  22
0869E:  BTFSS  F9E.4
086A0:  BRA    869E
086A2:  MOVWF  FAD
....................          SendDataDisplay(); 
086A4:  CALL   3B6A
086A8:  MOVLB  1
....................     } 
.................... //_--------------------------------------------------------------------------------------------------------------------------------------------------------        
....................  
.................... //_-------------------------------------------------------------------------------------------------------------------------------------------------------- 
....................     if(Menu==3){ //Menu de Tiempo de Secado 
086AA:  MOVF   xDD,W
086AC:  SUBLW  03
086AE:  BTFSS  FD8.2
086B0:  BRA    8A3A
....................       printf("fecha.txt=\"Fecha:%02u/%02u/20%02u Hora: %02u:%02u:%02u\"",Dia,Mes,Year,Hora,Minuto,Segundo); 
086B2:  MOVLW  26
086B4:  MOVWF  FF6
086B6:  MOVLW  0B
086B8:  MOVWF  FF7
086BA:  MOVLW  00
086BC:  MOVWF  FF8
086BE:  MOVLW  11
086C0:  MOVLB  6
086C2:  MOVWF  x39
086C4:  MOVLB  0
086C6:  CALL   4B78
086CA:  MOVFF  21D,639
086CE:  MOVLW  01
086D0:  MOVLB  6
086D2:  MOVWF  x3A
086D4:  MOVLB  0
086D6:  CALL   4BFC
086DA:  MOVLW  2F
086DC:  BTFSS  F9E.4
086DE:  BRA    86DC
086E0:  MOVWF  FAD
086E2:  MOVFF  21C,639
086E6:  MOVLW  01
086E8:  MOVLB  6
086EA:  MOVWF  x3A
086EC:  MOVLB  0
086EE:  CALL   4BFC
086F2:  MOVLW  2F
086F4:  BTFSS  F9E.4
086F6:  BRA    86F4
086F8:  MOVWF  FAD
086FA:  MOVLW  32
086FC:  BTFSS  F9E.4
086FE:  BRA    86FC
08700:  MOVWF  FAD
08702:  MOVLW  30
08704:  BTFSS  F9E.4
08706:  BRA    8704
08708:  MOVWF  FAD
0870A:  MOVFF  21B,639
0870E:  MOVLW  01
08710:  MOVLB  6
08712:  MOVWF  x3A
08714:  MOVLB  0
08716:  CALL   4BFC
0871A:  MOVLW  47
0871C:  MOVWF  FF6
0871E:  MOVLW  0B
08720:  MOVWF  FF7
08722:  MOVLW  00
08724:  MOVWF  FF8
08726:  MOVLW  07
08728:  MOVLB  6
0872A:  MOVWF  x39
0872C:  MOVLB  0
0872E:  CALL   4B78
08732:  MOVFF  21E,639
08736:  MOVLW  01
08738:  MOVLB  6
0873A:  MOVWF  x3A
0873C:  MOVLB  0
0873E:  CALL   4BFC
08742:  MOVLW  3A
08744:  BTFSS  F9E.4
08746:  BRA    8744
08748:  MOVWF  FAD
0874A:  MOVFF  21F,639
0874E:  MOVLW  01
08750:  MOVLB  6
08752:  MOVWF  x3A
08754:  MOVLB  0
08756:  CALL   4BFC
0875A:  MOVLW  3A
0875C:  BTFSS  F9E.4
0875E:  BRA    875C
08760:  MOVWF  FAD
08762:  MOVFF  220,639
08766:  MOVLW  01
08768:  MOVLB  6
0876A:  MOVWF  x3A
0876C:  MOVLB  0
0876E:  CALL   4BFC
08772:  MOVLW  22
08774:  BTFSS  F9E.4
08776:  BRA    8774
08778:  MOVWF  FAD
....................       SendDataDisplay(); 
0877A:  CALL   3B6A
....................          if(RX_Buffer[4]==0x0a){//Selecciono Minutos 
0877E:  MOVF   34,W
08780:  SUBLW  0A
08782:  BNZ   8788
....................             Minutos=ON; 
08784:  BSF    x89.3
....................             Segundos=OFF; 
08786:  BCF    x89.4
....................          } 
....................           
....................          if(RX_Buffer[4]==0x0b){//Selecciono Segundos 
08788:  MOVF   34,W
0878A:  SUBLW  0B
0878C:  BNZ   8792
....................             Segundos=ON; 
0878E:  BSF    x89.4
....................             Minutos=OFF; 
08790:  BCF    x89.3
....................          } 
....................           
....................          if(RX_Buffer[4]==0x11){//Selecciono Regresar 
08792:  MOVF   34,W
08794:  SUBLW  11
08796:  BTFSS  FD8.2
08798:  BRA    890C
....................             Segundos=OFF; 
0879A:  BCF    x89.4
....................             Minutos=OFF; 
0879C:  BCF    x89.3
....................             printf("page CicloPersona"); 
0879E:  MOVLW  5E
087A0:  MOVWF  FF6
087A2:  MOVLW  0B
087A4:  MOVWF  FF7
087A6:  MOVLW  00
087A8:  MOVWF  FF8
087AA:  CALL   3B38
....................             SendDataDisplay();   
087AE:  CALL   3B6A
....................             PantallaPrincipal=1; 
087B2:  MOVLW  01
087B4:  MOVLB  1
087B6:  MOVWF  x7E
....................             Op=OFF; 
087B8:  MOVLB  0
087BA:  BCF    x89.1
....................             Op2=OFF; 
087BC:  BCF    x89.2
....................             if(!GuardaEEPROM){ 
087BE:  BTFSC  x89.5
087C0:  BRA    890C
....................                CiclosPersonalizados[CicloLibre-1].Minutosec=Tsecadop[2]+(Tsecadop[3]*10); 
087C2:  MOVLW  01
087C4:  MOVLB  2
087C6:  SUBWF  x31,W
087C8:  MULLW  08
087CA:  MOVF   FF3,W
087CC:  MOVLB  6
087CE:  CLRF   x35
087D0:  MOVWF  x34
087D2:  MOVLW  03
087D4:  ADDWF  x34,W
087D6:  MOVWF  01
087D8:  MOVLW  00
087DA:  ADDWFC x35,W
087DC:  MOVWF  03
087DE:  MOVF   01,W
087E0:  ADDLW  6C
087E2:  MOVWF  FE9
087E4:  MOVLW  05
087E6:  ADDWFC 03,W
087E8:  MOVWF  FEA
087EA:  MOVFF  A6,63B
087EE:  MOVLW  0A
087F0:  MOVWF  x3C
087F2:  MOVLB  0
087F4:  CALL   36B2
087F8:  MOVF   01,W
087FA:  ADDWF  xA5,W
087FC:  MOVWF  FEF
....................                CiclosPersonalizados[CicloLibre-1].Segundosec=Tsecadop[0]+(Tsecadop[1]*10); 
087FE:  MOVLW  01
08800:  MOVLB  2
08802:  SUBWF  x31,W
08804:  MULLW  08
08806:  MOVF   FF3,W
08808:  MOVLB  6
0880A:  CLRF   x35
0880C:  MOVWF  x34
0880E:  MOVLW  04
08810:  ADDWF  x34,W
08812:  MOVWF  01
08814:  MOVLW  00
08816:  ADDWFC x35,W
08818:  MOVWF  03
0881A:  MOVF   01,W
0881C:  ADDLW  6C
0881E:  MOVWF  FE9
08820:  MOVLW  05
08822:  ADDWFC 03,W
08824:  MOVWF  FEA
08826:  MOVFF  A4,63B
0882A:  MOVLW  0A
0882C:  MOVWF  x3C
0882E:  MOVLB  0
08830:  CALL   36B2
08834:  MOVF   01,W
08836:  ADDWF  xA3,W
08838:  MOVWF  FEF
....................                write_eeprom(103+((CicloLibre-1)*8),Tsecadop[2]+(Tsecadop[3]*10)); 
0883A:  MOVLW  01
0883C:  MOVLB  2
0883E:  SUBWF  x31,W
08840:  MULLW  08
08842:  MOVF   FF3,W
08844:  ADDLW  67
08846:  MOVLB  6
08848:  MOVWF  x34
0884A:  MOVFF  A6,63B
0884E:  MOVLW  0A
08850:  MOVWF  x3C
08852:  MOVLB  0
08854:  CALL   36B2
08858:  MOVF   01,W
0885A:  ADDWF  xA5,W
0885C:  MOVLB  6
0885E:  MOVWF  x35
08860:  CLRF   FAA
08862:  MOVFF  634,FA9
08866:  MOVFF  635,FA8
0886A:  BCF    FA6.6
0886C:  BCF    FA6.7
0886E:  BSF    FA6.2
08870:  MOVF   FF2,W
08872:  MOVWF  00
08874:  BCF    FF2.6
08876:  BCF    FF2.7
08878:  MOVLB  F
0887A:  MOVLW  55
0887C:  MOVWF  FA7
0887E:  MOVLW  AA
08880:  MOVWF  FA7
08882:  BSF    FA6.1
08884:  BTFSC  FA6.1
08886:  BRA    8884
08888:  BCF    FA6.2
0888A:  MOVF   00,W
0888C:  IORWF  FF2,F
....................                delay_ms(10); 
0888E:  MOVLW  0A
08890:  MOVLB  6
08892:  MOVWF  x3D
08894:  MOVLB  0
08896:  CALL   1D06
....................                write_eeprom(104+((CicloLibre-1)*8),Tsecadop[0]+(Tsecadop[1]*10)); 
0889A:  MOVLW  01
0889C:  MOVLB  2
0889E:  SUBWF  x31,W
088A0:  MULLW  08
088A2:  MOVF   FF3,W
088A4:  ADDLW  68
088A6:  MOVLB  6
088A8:  MOVWF  x34
088AA:  MOVFF  A4,63B
088AE:  MOVLW  0A
088B0:  MOVWF  x3C
088B2:  MOVLB  0
088B4:  CALL   36B2
088B8:  MOVF   01,W
088BA:  ADDWF  xA3,W
088BC:  MOVLB  6
088BE:  MOVWF  x35
088C0:  CLRF   FAA
088C2:  MOVFF  634,FA9
088C6:  MOVFF  635,FA8
088CA:  BCF    FA6.6
088CC:  BCF    FA6.7
088CE:  BSF    FA6.2
088D0:  MOVF   FF2,W
088D2:  MOVWF  00
088D4:  BCF    FF2.6
088D6:  BCF    FF2.7
088D8:  MOVLB  F
088DA:  MOVLW  55
088DC:  MOVWF  FA7
088DE:  MOVLW  AA
088E0:  MOVWF  FA7
088E2:  BSF    FA6.1
088E4:  BTFSC  FA6.1
088E6:  BRA    88E4
088E8:  BCF    FA6.2
088EA:  MOVF   00,W
088EC:  IORWF  FF2,F
....................                delay_ms(10); 
088EE:  MOVLW  0A
088F0:  MOVLB  6
088F2:  MOVWF  x3D
088F4:  MOVLB  0
088F6:  CALL   1D06
....................                Tsecado[0]=Tsecadop[0]; 
088FA:  MOVFF  A3,9F
....................                Tsecado[1]=Tsecadop[1]; 
088FE:  MOVFF  A4,A0
....................                Tsecado[2]=Tsecadop[2]; 
08902:  MOVFF  A5,A1
....................                Tsecado[3]=Tsecadop[3]; 
08906:  MOVFF  A6,A2
....................                GuardaEEPROM=ON; 
0890A:  BSF    x89.5
....................             } 
....................          } 
....................            
....................          if(RX_Buffer[4]==0x0d ||RX_Buffer[4]==0x0c){//Tecla Arriba Oprimida 
0890C:  MOVF   34,W
0890E:  SUBLW  0D
08910:  BZ    8918
08912:  MOVF   34,W
08914:  SUBLW  0C
08916:  BNZ   895C
....................             if(Segundos){ 
08918:  BTFSS  x89.4
0891A:  BRA    8938
....................                Tsecadop[0]++; 
0891C:  INCF   xA3,F
....................                if(Tsecadop[0]>9){ 
0891E:  BTFSC  xA3.7
08920:  BRA    8938
08922:  MOVF   xA3,W
08924:  SUBLW  09
08926:  BC    8938
....................                   Tsecadop[1]++; 
08928:  INCF   xA4,F
....................                   if(Tsecadop[1]>5) 
0892A:  BTFSC  xA4.7
0892C:  BRA    8936
0892E:  MOVF   xA4,W
08930:  SUBLW  05
08932:  BC    8936
....................                      Tsecadop[1]=0; 
08934:  CLRF   xA4
....................                   Tsecadop[0]=0; 
08936:  CLRF   xA3
....................                } 
....................             } 
....................             if(Minutos){ 
08938:  BTFSS  x89.3
0893A:  BRA    8958
....................                Tsecadop[2]++; 
0893C:  INCF   xA5,F
....................                if(Tsecadop[2]>9){ 
0893E:  BTFSC  xA5.7
08940:  BRA    8958
08942:  MOVF   xA5,W
08944:  SUBLW  09
08946:  BC    8958
....................                   Tsecadop[3]++; 
08948:  INCF   xA6,F
....................                   if(Tsecadop[3]>5) 
0894A:  BTFSC  xA6.7
0894C:  BRA    8956
0894E:  MOVF   xA6,W
08950:  SUBLW  05
08952:  BC    8956
....................                      Tsecadop[3]=0; 
08954:  CLRF   xA6
....................                   Tsecadop[2]=0; 
08956:  CLRF   xA5
....................                } 
....................             } 
....................             RX_Buffer[4]=0x00; 
08958:  CLRF   34
....................             RX_Buffer2[4]=0x00;                         
0895A:  CLRF   3F
....................          } 
....................           
....................          if(RX_Buffer[4]==0x0e || RX_Buffer[4]==0x0f){//Tecla Izquierda Oprimida 
0895C:  MOVF   34,W
0895E:  SUBLW  0E
08960:  BZ    8968
08962:  MOVF   34,W
08964:  SUBLW  0F
08966:  BNZ   89A4
....................             if(Segundos){ 
08968:  BTFSS  x89.4
0896A:  BRA    8984
....................                Tsecadop[0]--; 
0896C:  DECF   xA3,F
....................                if(Tsecadop[0]<0){ 
0896E:  BTFSC  xA3.7
08970:  BRA    8974
08972:  BRA    8984
....................                   Tsecadop[1]--; 
08974:  DECF   xA4,F
....................                   if(Tsecadop[1]<0) 
08976:  BTFSC  xA4.7
08978:  BRA    897C
0897A:  BRA    8980
....................                      Tsecadop[1]=5; 
0897C:  MOVLW  05
0897E:  MOVWF  xA4
....................                   Tsecadop[0]=9; 
08980:  MOVLW  09
08982:  MOVWF  xA3
....................                } 
....................             } 
....................             if(Minutos){ 
08984:  BTFSS  x89.3
08986:  BRA    89A0
....................                Tsecadop[2]--; 
08988:  DECF   xA5,F
....................                if(Tsecadop[2]<0){ 
0898A:  BTFSC  xA5.7
0898C:  BRA    8990
0898E:  BRA    89A0
....................                   Tsecadop[3]--; 
08990:  DECF   xA6,F
....................                   if(Tsecadop[3]<0) 
08992:  BTFSC  xA6.7
08994:  BRA    8998
08996:  BRA    899C
....................                      Tsecadop[3]=5; 
08998:  MOVLW  05
0899A:  MOVWF  xA6
....................                   Tsecadop[2]=9; 
0899C:  MOVLW  09
0899E:  MOVWF  xA5
....................                } 
....................             } 
....................             RX_Buffer[4]=0x00; 
089A0:  CLRF   34
....................             RX_Buffer2[4]=0x00;             
089A2:  CLRF   3F
....................          } 
....................           
....................       printf("tminsec.txt=\"%02u\"",((Tsecadop[3]*10)+Tsecadop[2])); 
089A4:  MOVFF  A6,63B
089A8:  MOVLW  0A
089AA:  MOVLB  6
089AC:  MOVWF  x3C
089AE:  MOVLB  0
089B0:  CALL   36B2
089B4:  MOVF   xA5,W
089B6:  ADDWF  01,W
089B8:  MOVLB  6
089BA:  MOVWF  x34
089BC:  MOVLW  70
089BE:  MOVWF  FF6
089C0:  MOVLW  0B
089C2:  MOVWF  FF7
089C4:  MOVLW  00
089C6:  MOVWF  FF8
089C8:  MOVLW  0D
089CA:  MOVWF  x39
089CC:  MOVLB  0
089CE:  CALL   4B78
089D2:  MOVFF  634,639
089D6:  MOVLW  01
089D8:  MOVLB  6
089DA:  MOVWF  x3A
089DC:  MOVLB  0
089DE:  CALL   4BFC
089E2:  MOVLW  22
089E4:  BTFSS  F9E.4
089E6:  BRA    89E4
089E8:  MOVWF  FAD
....................       SendDataDisplay(); 
089EA:  CALL   3B6A
....................       printf("tsecsec.txt=\"%02u\"",((Tsecadop[1]*10)+Tsecadop[0])); 
089EE:  MOVFF  A4,63B
089F2:  MOVLW  0A
089F4:  MOVLB  6
089F6:  MOVWF  x3C
089F8:  MOVLB  0
089FA:  CALL   36B2
089FE:  MOVF   xA3,W
08A00:  ADDWF  01,W
08A02:  MOVLB  6
08A04:  MOVWF  x34
08A06:  MOVLW  84
08A08:  MOVWF  FF6
08A0A:  MOVLW  0B
08A0C:  MOVWF  FF7
08A0E:  MOVLW  00
08A10:  MOVWF  FF8
08A12:  MOVLW  0D
08A14:  MOVWF  x39
08A16:  MOVLB  0
08A18:  CALL   4B78
08A1C:  MOVFF  634,639
08A20:  MOVLW  01
08A22:  MOVLB  6
08A24:  MOVWF  x3A
08A26:  MOVLB  0
08A28:  CALL   4BFC
08A2C:  MOVLW  22
08A2E:  BTFSS  F9E.4
08A30:  BRA    8A2E
08A32:  MOVWF  FAD
....................       SendDataDisplay(); 
08A34:  CALL   3B6A
08A38:  MOVLB  1
....................     } 
.................... //_--------------------------------------------------------------------------------------------------------------------------------------------------------        
....................  
.................... //_-------------------------------------------------------------------------------------------------------------------------------------------------------- 
....................     if(Menu==4){ //Menu de Temperatura 
08A3A:  MOVF   xDD,W
08A3C:  SUBLW  04
08A3E:  BTFSS  FD8.2
08A40:  BRA    8C10
....................       printf("fecha.txt=\"Fecha:%02u/%02u/20%02u Hora: %02u:%02u:%02u\"",Dia,Mes,Year,Hora,Minuto,Segundo); 
08A42:  MOVLW  98
08A44:  MOVWF  FF6
08A46:  MOVLW  0B
08A48:  MOVWF  FF7
08A4A:  MOVLW  00
08A4C:  MOVWF  FF8
08A4E:  MOVLW  11
08A50:  MOVLB  6
08A52:  MOVWF  x39
08A54:  MOVLB  0
08A56:  CALL   4B78
08A5A:  MOVFF  21D,639
08A5E:  MOVLW  01
08A60:  MOVLB  6
08A62:  MOVWF  x3A
08A64:  MOVLB  0
08A66:  CALL   4BFC
08A6A:  MOVLW  2F
08A6C:  BTFSS  F9E.4
08A6E:  BRA    8A6C
08A70:  MOVWF  FAD
08A72:  MOVFF  21C,639
08A76:  MOVLW  01
08A78:  MOVLB  6
08A7A:  MOVWF  x3A
08A7C:  MOVLB  0
08A7E:  CALL   4BFC
08A82:  MOVLW  2F
08A84:  BTFSS  F9E.4
08A86:  BRA    8A84
08A88:  MOVWF  FAD
08A8A:  MOVLW  32
08A8C:  BTFSS  F9E.4
08A8E:  BRA    8A8C
08A90:  MOVWF  FAD
08A92:  MOVLW  30
08A94:  BTFSS  F9E.4
08A96:  BRA    8A94
08A98:  MOVWF  FAD
08A9A:  MOVFF  21B,639
08A9E:  MOVLW  01
08AA0:  MOVLB  6
08AA2:  MOVWF  x3A
08AA4:  MOVLB  0
08AA6:  CALL   4BFC
08AAA:  MOVLW  B9
08AAC:  MOVWF  FF6
08AAE:  MOVLW  0B
08AB0:  MOVWF  FF7
08AB2:  MOVLW  00
08AB4:  MOVWF  FF8
08AB6:  MOVLW  07
08AB8:  MOVLB  6
08ABA:  MOVWF  x39
08ABC:  MOVLB  0
08ABE:  CALL   4B78
08AC2:  MOVFF  21E,639
08AC6:  MOVLW  01
08AC8:  MOVLB  6
08ACA:  MOVWF  x3A
08ACC:  MOVLB  0
08ACE:  CALL   4BFC
08AD2:  MOVLW  3A
08AD4:  BTFSS  F9E.4
08AD6:  BRA    8AD4
08AD8:  MOVWF  FAD
08ADA:  MOVFF  21F,639
08ADE:  MOVLW  01
08AE0:  MOVLB  6
08AE2:  MOVWF  x3A
08AE4:  MOVLB  0
08AE6:  CALL   4BFC
08AEA:  MOVLW  3A
08AEC:  BTFSS  F9E.4
08AEE:  BRA    8AEC
08AF0:  MOVWF  FAD
08AF2:  MOVFF  220,639
08AF6:  MOVLW  01
08AF8:  MOVLB  6
08AFA:  MOVWF  x3A
08AFC:  MOVLB  0
08AFE:  CALL   4BFC
08B02:  MOVLW  22
08B04:  BTFSS  F9E.4
08B06:  BRA    8B04
08B08:  MOVWF  FAD
....................       SendDataDisplay(); 
08B0A:  CALL   3B6A
....................          if(Setpoint<105) 
08B0E:  MOVLB  1
08B10:  MOVF   xE7,W
08B12:  SUBLW  68
08B14:  BNC   8B1A
....................             Setpoint=134; 
08B16:  MOVLW  86
08B18:  MOVWF  xE7
....................          if(Setpoint>134) 
08B1A:  MOVF   xE7,W
08B1C:  SUBLW  86
08B1E:  BC    8B24
....................             Setpoint=105; 
08B20:  MOVLW  69
08B22:  MOVWF  xE7
....................           
....................          if(RX_Buffer[4]==0x11){//Selecciono Regresar 
08B24:  MOVF   34,W
08B26:  SUBLW  11
08B28:  BNZ   8BC2
....................             Segundos=OFF; 
08B2A:  MOVLB  0
08B2C:  BCF    x89.4
....................             Minutos=OFF; 
08B2E:  BCF    x89.3
....................             printf("page CicloPersona"); 
08B30:  MOVLW  D0
08B32:  MOVWF  FF6
08B34:  MOVLW  0B
08B36:  MOVWF  FF7
08B38:  MOVLW  00
08B3A:  MOVWF  FF8
08B3C:  CALL   3B38
....................             SendDataDisplay();   
08B40:  CALL   3B6A
....................             PantallaPrincipal=1; 
08B44:  MOVLW  01
08B46:  MOVLB  1
08B48:  MOVWF  x7E
....................             Op=OFF; 
08B4A:  MOVLB  0
08B4C:  BCF    x89.1
....................             Op2=OFF; 
08B4E:  BCF    x89.2
....................             if(!GuardaEEPROM){ 
08B50:  BTFSC  x89.5
08B52:  BRA    8BC0
....................                CiclosPersonalizados[CicloLibre-1].Temperatura=Setpoint; 
08B54:  MOVLW  01
08B56:  MOVLB  2
08B58:  SUBWF  x31,W
08B5A:  MULLW  08
08B5C:  MOVF   FF3,W
08B5E:  MOVLB  6
08B60:  CLRF   x35
08B62:  MOVWF  x34
08B64:  MOVLW  6C
08B66:  ADDWF  x34,W
08B68:  MOVWF  FE9
08B6A:  MOVLW  05
08B6C:  ADDWFC x35,W
08B6E:  MOVWF  FEA
08B70:  MOVFF  1E7,FEF
....................                write_eeprom(100+((CicloLibre-1)*8),Setpoint); 
08B74:  MOVLW  01
08B76:  MOVLB  2
08B78:  SUBWF  x31,W
08B7A:  MULLW  08
08B7C:  MOVF   FF3,W
08B7E:  ADDLW  64
08B80:  MOVLB  6
08B82:  MOVWF  x34
08B84:  CLRF   FAA
08B86:  MOVFF  634,FA9
08B8A:  MOVFF  1E7,FA8
08B8E:  BCF    FA6.6
08B90:  BCF    FA6.7
08B92:  BSF    FA6.2
08B94:  MOVF   FF2,W
08B96:  MOVWF  00
08B98:  BCF    FF2.6
08B9A:  BCF    FF2.7
08B9C:  MOVLB  F
08B9E:  MOVLW  55
08BA0:  MOVWF  FA7
08BA2:  MOVLW  AA
08BA4:  MOVWF  FA7
08BA6:  BSF    FA6.1
08BA8:  BTFSC  FA6.1
08BAA:  BRA    8BA8
08BAC:  BCF    FA6.2
08BAE:  MOVF   00,W
08BB0:  IORWF  FF2,F
....................                delay_ms(10); 
08BB2:  MOVLW  0A
08BB4:  MOVLB  6
08BB6:  MOVWF  x3D
08BB8:  MOVLB  0
08BBA:  CALL   1D06
....................                GuardaEEPROM=ON; 
08BBE:  BSF    x89.5
08BC0:  MOVLB  1
....................             } 
....................          } 
....................           
....................          if(RX_Buffer[4]==0x0d){//Tecla Arriba Oprimida 
08BC2:  MOVF   34,W
08BC4:  SUBLW  0D
08BC6:  BNZ   8BCE
....................             Setpoint++; 
08BC8:  INCF   xE7,F
....................             RX_Buffer[4]=0x00;   
08BCA:  CLRF   34
....................             RX_Buffer2[4]=0x00;             
08BCC:  CLRF   3F
....................             //BorraBuffer(); 
....................          } 
....................           
....................          if(RX_Buffer[4]==0x0c){//Tecla Abajo Oprimida 
08BCE:  MOVF   34,W
08BD0:  SUBLW  0C
08BD2:  BNZ   8BDA
....................             Setpoint--; 
08BD4:  DECF   xE7,F
....................             RX_Buffer[4]=0x00; 
08BD6:  CLRF   34
....................             RX_Buffer2[4]=0x00;             
08BD8:  CLRF   3F
....................             //BorraBuffer(); 
....................          } 
....................           
....................       printf("tsettem.txt=\"%03u\"",Setpoint); 
08BDA:  MOVLW  E2
08BDC:  MOVWF  FF6
08BDE:  MOVLW  0B
08BE0:  MOVWF  FF7
08BE2:  MOVLW  00
08BE4:  MOVWF  FF8
08BE6:  MOVLW  0D
08BE8:  MOVLB  6
08BEA:  MOVWF  x39
08BEC:  MOVLB  0
08BEE:  CALL   4B78
08BF2:  MOVFF  1E7,639
08BF6:  MOVLW  03
08BF8:  MOVLB  6
08BFA:  MOVWF  x3A
08BFC:  MOVLB  0
08BFE:  CALL   4BFC
08C02:  MOVLW  22
08C04:  BTFSS  F9E.4
08C06:  BRA    8C04
08C08:  MOVWF  FAD
....................       SendDataDisplay(); 
08C0A:  CALL   3B6A
08C0E:  MOVLB  1
....................     } 
.................... //_--------------------------------------------------------------------------------------------------------------------------------------------------------        
....................  
.................... //_--------------------------------------------------------------------------------------------------------------------------------------------------------       
....................     if(Menu==5){//Menu de Nivel de Vacio 
08C10:  MOVF   xDD,W
08C12:  SUBLW  05
08C14:  BTFSS  FD8.2
08C16:  BRA    8E02
....................       printf("fecha.txt=\"Fecha:%02u/%02u/20%02u Hora: %02u:%02u:%02u\"",Dia,Mes,Year,Hora,Minuto,Segundo); 
08C18:  MOVLW  F6
08C1A:  MOVWF  FF6
08C1C:  MOVLW  0B
08C1E:  MOVWF  FF7
08C20:  MOVLW  00
08C22:  MOVWF  FF8
08C24:  MOVLW  11
08C26:  MOVLB  6
08C28:  MOVWF  x39
08C2A:  MOVLB  0
08C2C:  CALL   4B78
08C30:  MOVFF  21D,639
08C34:  MOVLW  01
08C36:  MOVLB  6
08C38:  MOVWF  x3A
08C3A:  MOVLB  0
08C3C:  CALL   4BFC
08C40:  MOVLW  2F
08C42:  BTFSS  F9E.4
08C44:  BRA    8C42
08C46:  MOVWF  FAD
08C48:  MOVFF  21C,639
08C4C:  MOVLW  01
08C4E:  MOVLB  6
08C50:  MOVWF  x3A
08C52:  MOVLB  0
08C54:  CALL   4BFC
08C58:  MOVLW  2F
08C5A:  BTFSS  F9E.4
08C5C:  BRA    8C5A
08C5E:  MOVWF  FAD
08C60:  MOVLW  32
08C62:  BTFSS  F9E.4
08C64:  BRA    8C62
08C66:  MOVWF  FAD
08C68:  MOVLW  30
08C6A:  BTFSS  F9E.4
08C6C:  BRA    8C6A
08C6E:  MOVWF  FAD
08C70:  MOVFF  21B,639
08C74:  MOVLW  01
08C76:  MOVLB  6
08C78:  MOVWF  x3A
08C7A:  MOVLB  0
08C7C:  CALL   4BFC
08C80:  MOVLW  17
08C82:  MOVWF  FF6
08C84:  MOVLW  0C
08C86:  MOVWF  FF7
08C88:  MOVLW  00
08C8A:  MOVWF  FF8
08C8C:  MOVLW  07
08C8E:  MOVLB  6
08C90:  MOVWF  x39
08C92:  MOVLB  0
08C94:  CALL   4B78
08C98:  MOVFF  21E,639
08C9C:  MOVLW  01
08C9E:  MOVLB  6
08CA0:  MOVWF  x3A
08CA2:  MOVLB  0
08CA4:  CALL   4BFC
08CA8:  MOVLW  3A
08CAA:  BTFSS  F9E.4
08CAC:  BRA    8CAA
08CAE:  MOVWF  FAD
08CB0:  MOVFF  21F,639
08CB4:  MOVLW  01
08CB6:  MOVLB  6
08CB8:  MOVWF  x3A
08CBA:  MOVLB  0
08CBC:  CALL   4BFC
08CC0:  MOVLW  3A
08CC2:  BTFSS  F9E.4
08CC4:  BRA    8CC2
08CC6:  MOVWF  FAD
08CC8:  MOVFF  220,639
08CCC:  MOVLW  01
08CCE:  MOVLB  6
08CD0:  MOVWF  x3A
08CD2:  MOVLB  0
08CD4:  CALL   4BFC
08CD8:  MOVLW  22
08CDA:  BTFSS  F9E.4
08CDC:  BRA    8CDA
08CDE:  MOVWF  FAD
....................       SendDataDisplay(); 
08CE0:  CALL   3B6A
....................          if(Nivel<25) 
08CE4:  MOVLB  1
08CE6:  MOVF   xF6,F
08CE8:  BNZ   8CF6
08CEA:  MOVF   xF5,W
08CEC:  SUBLW  18
08CEE:  BNC   8CF6
....................             Nivel=100; 
08CF0:  CLRF   xF6
08CF2:  MOVLW  64
08CF4:  MOVWF  xF5
....................          if(Nivel>100) 
08CF6:  MOVF   xF6,F
08CF8:  BNZ   8D00
08CFA:  MOVF   xF5,W
08CFC:  SUBLW  64
08CFE:  BC    8D06
....................             Nivel=25; 
08D00:  CLRF   xF6
08D02:  MOVLW  19
08D04:  MOVWF  xF5
....................           
....................          if(RX_Buffer[4]==0x11){//Selecciono Regresar 
08D06:  MOVF   34,W
08D08:  SUBLW  11
08D0A:  BNZ   8DAA
....................             Segundos=OFF; 
08D0C:  MOVLB  0
08D0E:  BCF    x89.4
....................             Minutos=OFF;             
08D10:  BCF    x89.3
....................             tiempo_secado=0; 
08D12:  MOVLB  1
08D14:  CLRF   xEB
....................             printf("page CicloPersona"); 
08D16:  MOVLW  2E
08D18:  MOVWF  FF6
08D1A:  MOVLW  0C
08D1C:  MOVWF  FF7
08D1E:  MOVLW  00
08D20:  MOVWF  FF8
08D22:  MOVLB  0
08D24:  CALL   3B38
....................             SendDataDisplay();   
08D28:  CALL   3B6A
....................             if(!GuardaEEPROM){     
08D2C:  BTFSC  x89.5
08D2E:  BRA    8DA8
....................                CiclosPersonalizados[CicloLibre-1].NivelVacio=Nivel; 
08D30:  MOVLW  01
08D32:  MOVLB  2
08D34:  SUBWF  x31,W
08D36:  MULLW  08
08D38:  MOVF   FF3,W
08D3A:  MOVLB  6
08D3C:  CLRF   x35
08D3E:  MOVWF  x34
08D40:  MOVLW  06
08D42:  ADDWF  x34,W
08D44:  MOVWF  01
08D46:  MOVLW  00
08D48:  ADDWFC x35,W
08D4A:  MOVWF  03
08D4C:  MOVF   01,W
08D4E:  ADDLW  6C
08D50:  MOVWF  FE9
08D52:  MOVLW  05
08D54:  ADDWFC 03,W
08D56:  MOVWF  FEA
08D58:  MOVFF  1F5,FEF
....................                write_eeprom(106+((CicloLibre-1)*8),Nivel); 
08D5C:  MOVLW  01
08D5E:  MOVLB  2
08D60:  SUBWF  x31,W
08D62:  MULLW  08
08D64:  MOVF   FF3,W
08D66:  ADDLW  6A
08D68:  MOVLB  6
08D6A:  MOVWF  x34
08D6C:  CLRF   FAA
08D6E:  MOVFF  634,FA9
08D72:  MOVFF  1F5,FA8
08D76:  BCF    FA6.6
08D78:  BCF    FA6.7
08D7A:  BSF    FA6.2
08D7C:  MOVF   FF2,W
08D7E:  MOVWF  00
08D80:  BCF    FF2.6
08D82:  BCF    FF2.7
08D84:  MOVLB  F
08D86:  MOVLW  55
08D88:  MOVWF  FA7
08D8A:  MOVLW  AA
08D8C:  MOVWF  FA7
08D8E:  BSF    FA6.1
08D90:  BTFSC  FA6.1
08D92:  BRA    8D90
08D94:  BCF    FA6.2
08D96:  MOVF   00,W
08D98:  IORWF  FF2,F
....................                delay_ms(20);             
08D9A:  MOVLW  14
08D9C:  MOVLB  6
08D9E:  MOVWF  x3D
08DA0:  MOVLB  0
08DA2:  CALL   1D06
....................                GuardaEEPROM=ON; 
08DA6:  BSF    x89.5
08DA8:  MOVLB  1
....................             } 
....................          } 
....................           
....................          if(RX_Buffer[4]==0x0d){//Tecla Arriba Oprimida 
08DAA:  MOVF   34,W
08DAC:  SUBLW  0D
08DAE:  BNZ   8DBA
....................             Nivel++; 
08DB0:  INCF   xF5,F
08DB2:  BTFSC  FD8.2
08DB4:  INCF   xF6,F
....................             RX_Buffer[4]=0x00;             
08DB6:  CLRF   34
....................             RX_Buffer2[4]=0x00;             
08DB8:  CLRF   3F
....................             //BorraBuffer(); 
....................          } 
....................           
....................          if(RX_Buffer[4]==0x0c){//Tecla Abajo Oprimida 
08DBA:  MOVF   34,W
08DBC:  SUBLW  0C
08DBE:  BNZ   8DCC
....................             Nivel--; 
08DC0:  MOVF   xF5,W
08DC2:  BTFSC  FD8.2
08DC4:  DECF   xF6,F
08DC6:  DECF   xF5,F
....................             RX_Buffer[4]=0x00; 
08DC8:  CLRF   34
....................             RX_Buffer2[4]=0x00;             
08DCA:  CLRF   3F
....................             //BorraBuffer(); 
....................          } 
....................           
....................       printf("tnivel.txt=\"%Lu\"",Nivel); 
08DCC:  MOVLW  40
08DCE:  MOVWF  FF6
08DD0:  MOVLW  0C
08DD2:  MOVWF  FF7
08DD4:  MOVLW  00
08DD6:  MOVWF  FF8
08DD8:  MOVLW  0C
08DDA:  MOVLB  6
08DDC:  MOVWF  x39
08DDE:  MOVLB  0
08DE0:  CALL   4B78
08DE4:  MOVLW  10
08DE6:  MOVWF  FE9
08DE8:  MOVFF  1F6,639
08DEC:  MOVFF  1F5,638
08DF0:  CALL   4CE4
08DF4:  MOVLW  22
08DF6:  BTFSS  F9E.4
08DF8:  BRA    8DF6
08DFA:  MOVWF  FAD
....................       SendDataDisplay(); 
08DFC:  CALL   3B6A
08E00:  MOVLB  1
....................    } 
.................... //_--------------------------------------------------------------------------------------------------------------------------------------------------------       
....................  
.................... //_--------------------------------------------------------------------------------------------------------------------------------------------------------       
....................     if(Menu==6){ // Menu de Prueba de Componentes 
08E02:  MOVF   xDD,W
08E04:  SUBLW  06
08E06:  BTFSS  FD8.2
08E08:  BRA    94EE
....................          PruebaEstados=ON; 
08E0A:  MOVLB  0
08E0C:  BSF    x88.5
....................           
....................          if(RX_Buffer[4]==0x01)//Oprimio EV Suministro 
08E0E:  DECFSZ 34,W
08E10:  BRA    8E18
....................          { 
....................             EstadoSuministro=!EstadoSuministro; 
08E12:  BTG    x88.3
....................             RX_Buffer[4]=0x00; 
08E14:  CLRF   34
....................             RX_Buffer2[4]=0x00; 
08E16:  CLRF   3F
....................          } 
....................           
....................          if(EstadoSuministro){ 
08E18:  BTFSS  x88.3
08E1A:  BRA    8E36
....................             printf("b0.bco=2016"); 
08E1C:  MOVLW  52
08E1E:  MOVWF  FF6
08E20:  MOVLW  0C
08E22:  MOVWF  FF7
08E24:  MOVLW  00
08E26:  MOVWF  FF8
08E28:  CALL   3B38
....................             SendDataDisplay();  
08E2C:  CALL   3B6A
....................             Agua_on; 
08E30:  BSF    F8C.6
08E32:  BCF    F95.6
....................          } 
....................          else{ 
08E34:  BRA    8E4E
....................             printf("b0.bco=63488"); 
08E36:  MOVLW  5E
08E38:  MOVWF  FF6
08E3A:  MOVLW  0C
08E3C:  MOVWF  FF7
08E3E:  MOVLW  00
08E40:  MOVWF  FF8
08E42:  CALL   3B38
....................             SendDataDisplay();  
08E46:  CALL   3B6A
....................             Agua_off; 
08E4A:  BCF    F8C.6
08E4C:  BCF    F95.6
....................          } 
....................           
....................          if(RX_Buffer[4]==0x02)//Oprimio EV Desfogue 
08E4E:  MOVF   34,W
08E50:  SUBLW  02
08E52:  BNZ   8E5A
....................          { 
....................             EstadoDesfogue=!EstadoDesfogue; 
08E54:  BTG    x88.2
....................             RX_Buffer[4]=0x00; 
08E56:  CLRF   34
....................             RX_Buffer2[4]=0x00; 
08E58:  CLRF   3F
....................          } 
....................           
....................          if(EstadoDesfogue){ 
08E5A:  BTFSS  x88.2
08E5C:  BRA    8E78
....................             printf("b1.bco=2016"); 
08E5E:  MOVLW  6C
08E60:  MOVWF  FF6
08E62:  MOVLW  0C
08E64:  MOVWF  FF7
08E66:  MOVLW  00
08E68:  MOVWF  FF8
08E6A:  CALL   3B38
....................             SendDataDisplay();  
08E6E:  CALL   3B6A
....................             Desfogue_on; 
08E72:  BSF    F8C.4
08E74:  BCF    F95.4
....................          } 
....................          else{ 
08E76:  BRA    8E90
....................             printf("b1.bco=63488"); 
08E78:  MOVLW  78
08E7A:  MOVWF  FF6
08E7C:  MOVLW  0C
08E7E:  MOVWF  FF7
08E80:  MOVLW  00
08E82:  MOVWF  FF8
08E84:  CALL   3B38
....................             SendDataDisplay();  
08E88:  CALL   3B6A
....................             Desfogue_off; 
08E8C:  BCF    F8C.4
08E8E:  BCF    F95.4
....................          } 
....................           
....................          if(RX_Buffer[4]==0x03)//Oprimio EV Paso 
08E90:  MOVF   34,W
08E92:  SUBLW  03
08E94:  BNZ   8E9C
....................          { 
....................             EstadoPaso=!EstadoPaso; 
08E96:  BTG    x89.6
....................             RX_Buffer[4]=0x00; 
08E98:  CLRF   34
....................             RX_Buffer2[4]=0x00; 
08E9A:  CLRF   3F
....................          } 
....................           
....................          if(EstadoPaso){ 
08E9C:  BTFSS  x89.6
08E9E:  BRA    8EBA
....................             printf("b2.bco=2016"); 
08EA0:  MOVLW  86
08EA2:  MOVWF  FF6
08EA4:  MOVLW  0C
08EA6:  MOVWF  FF7
08EA8:  MOVLW  00
08EAA:  MOVWF  FF8
08EAC:  CALL   3B38
....................             SendDataDisplay();  
08EB0:  CALL   3B6A
....................             Paso_on; 
08EB4:  BSF    F8C.5
08EB6:  BCF    F95.5
....................          } 
....................          else{ 
08EB8:  BRA    8ED2
....................             printf("b2.bco=63488"); 
08EBA:  MOVLW  92
08EBC:  MOVWF  FF6
08EBE:  MOVLW  0C
08EC0:  MOVWF  FF7
08EC2:  MOVLW  00
08EC4:  MOVWF  FF8
08EC6:  CALL   3B38
....................             SendDataDisplay();  
08ECA:  CALL   3B6A
....................             Paso_off; 
08ECE:  BCF    F8C.5
08ED0:  BCF    F95.5
....................          } 
....................          
....................          if(RX_Buffer[4]==0x04)//Oprimio Vacio 
08ED2:  MOVF   34,W
08ED4:  SUBLW  04
08ED6:  BNZ   8EDE
....................          { 
....................             EstadoVacio=!EstadoVacio; 
08ED8:  BTG    x89.7
....................             RX_Buffer[4]=0x00; 
08EDA:  CLRF   34
....................             RX_Buffer2[4]=0x00; 
08EDC:  CLRF   3F
....................          } 
....................           
....................          if(EstadoVacio){ 
08EDE:  BTFSS  x89.7
08EE0:  BRA    8EFC
....................             printf("b3.bco=2016"); 
08EE2:  MOVLW  A0
08EE4:  MOVWF  FF6
08EE6:  MOVLW  0C
08EE8:  MOVWF  FF7
08EEA:  MOVLW  00
08EEC:  MOVWF  FF8
08EEE:  CALL   3B38
....................             SendDataDisplay();  
08EF2:  CALL   3B6A
....................             SSR_on; 
08EF6:  BCF    F8B.2
08EF8:  BCF    F94.2
....................          } 
....................          else{ 
08EFA:  BRA    8F14
....................             printf("b3.bco=63488"); 
08EFC:  MOVLW  AC
08EFE:  MOVWF  FF6
08F00:  MOVLW  0C
08F02:  MOVWF  FF7
08F04:  MOVLW  00
08F06:  MOVWF  FF8
08F08:  CALL   3B38
....................             SendDataDisplay();  
08F0C:  CALL   3B6A
....................             SSR_off; 
08F10:  BSF    F8B.2
08F12:  BCF    F94.2
....................          } 
....................          /* 
....................          if(RX_Buffer[4]==0x05)//Oprimio Aire 
....................          { 
....................             EstadoAire=!EstadoAire; 
....................             RX_Buffer[4]=0x00; 
....................             RX_Buffer2[4]=0x00; 
....................          } 
....................           
....................          if(EstadoAire){ 
....................             printf("b4.bco=2016"); 
....................             SendDataDisplay();  
....................             Aire_on; 
....................          } 
....................          else{ 
....................             printf("b4.bco=63488"); 
....................             SendDataDisplay();  
....................             Aire_off; 
....................          } 
....................           
....................          if(RX_Buffer[4]==0x06)//Oprimio Bomba Vacio 
....................          { 
....................             EstadoBomba=!EstadoBomba; 
....................             RX_Buffer[4]=0x00; 
....................             RX_Buffer2[4]=0x00; 
....................          } 
....................           
....................          if(EstadoBomba){ 
....................             printf("b5.bco=2016"); 
....................             SendDataDisplay();  
....................             if(CalderinLleno) 
....................                BombaVacio_on; 
....................          } 
....................          else{ 
....................             printf("b5.bco=63488"); 
....................             SendDataDisplay();  
....................             BombaVacio_off; 
....................          } 
....................          */ 
....................          if(RX_Buffer[4]==0x07)//Oprimio EV Agua 
08F14:  MOVF   34,W
08F16:  SUBLW  07
08F18:  BNZ   8F20
....................          { 
....................             EstadoAireBomba=!EstadoAireBomba; 
08F1A:  BTG    x8C.2
....................             RX_Buffer[4]=0x00; 
08F1C:  CLRF   34
....................             RX_Buffer2[4]=0x00; 
08F1E:  CLRF   3F
....................          } 
....................           
....................          /*if(EstadoAireBomba){ 
....................             printf("b6.bco=2016"); 
....................             SendDataDisplay();  
....................             Agua_on; 
....................          } 
....................          else{ 
....................             printf("b6.bco=63488"); 
....................             SendDataDisplay();  
....................             Agua_off; 
....................          } 
....................           
....................          if(RX_Buffer[4]==0x08)//Oprimio EV Agua2 
....................          { 
....................             EstadoAgua2=!EstadoAgua2; 
....................             RX_Buffer[4]=0x00; 
....................             RX_Buffer2[4]=0x00; 
....................          } 
....................           
....................          if(EstadoAgua2){ 
....................             printf("b7.bco=2016"); 
....................             SendDataDisplay();  
....................             Agua2_on; 
....................          } 
....................          else{ 
....................             printf("b7.bco=63488"); 
....................             SendDataDisplay();  
....................             Agua2_off; 
....................          } 
....................           
....................          if(RX_Buffer[4]==0x17)//Oprimio Abrir Cierre 
....................          { 
....................             EstadoACierre=!EstadoACierre; 
....................             RX_Buffer[4]=0x00; 
....................             RX_Buffer2[4]=0x00; 
....................          } 
....................           
....................          if(EstadoACierre){ 
....................             printf("b16.bco=2016"); 
....................             SendDataDisplay();  
....................             sistemaBloqueo(1); 
....................          } 
....................          else{ 
....................             printf("b16.bco=63488"); 
....................             SendDataDisplay();  
....................             sistemaBloqueo(0); 
....................          } 
....................          */ 
....................          if(DOOR){ 
08F20:  BSF    F93.6
08F22:  BTFSC  F81.6
08F24:  BRA    8F3C
....................             printf("b8.bco=2016"); 
08F26:  MOVLW  BA
08F28:  MOVWF  FF6
08F2A:  MOVLW  0C
08F2C:  MOVWF  FF7
08F2E:  MOVLW  00
08F30:  MOVWF  FF8
08F32:  CALL   3B38
....................             SendDataDisplay();  
08F36:  CALL   3B6A
....................          }else{ 
08F3A:  BRA    8F50
....................             printf("b8.bco=63488"); 
08F3C:  MOVLW  C6
08F3E:  MOVWF  FF6
08F40:  MOVLW  0C
08F42:  MOVWF  FF7
08F44:  MOVLW  00
08F46:  MOVWF  FF8
08F48:  CALL   3B38
....................             SendDataDisplay();  
08F4C:  CALL   3B6A
....................          } 
....................           
....................          if(TERM){ 
08F50:  BSF    F93.5
08F52:  BTFSC  F81.5
08F54:  BRA    8F6C
....................             printf("b9.bco=2016"); 
08F56:  MOVLW  D4
08F58:  MOVWF  FF6
08F5A:  MOVLW  0C
08F5C:  MOVWF  FF7
08F5E:  MOVLW  00
08F60:  MOVWF  FF8
08F62:  CALL   3B38
....................             SendDataDisplay();  
08F66:  CALL   3B6A
....................          }else{ 
08F6A:  BRA    8F80
....................             printf("b9.bco=63488"); 
08F6C:  MOVLW  E0
08F6E:  MOVWF  FF6
08F70:  MOVLW  0C
08F72:  MOVWF  FF7
08F74:  MOVLW  00
08F76:  MOVWF  FF8
08F78:  CALL   3B38
....................             SendDataDisplay();  
08F7C:  CALL   3B6A
....................          } 
....................           
....................          if(STOP){ 
08F80:  BSF    F93.7
08F82:  BTFSC  F81.7
08F84:  BRA    8F9C
....................             printf("b10.bco=2016"); 
08F86:  MOVLW  EE
08F88:  MOVWF  FF6
08F8A:  MOVLW  0C
08F8C:  MOVWF  FF7
08F8E:  MOVLW  00
08F90:  MOVWF  FF8
08F92:  CALL   3B38
....................             SendDataDisplay();  
08F96:  CALL   3B6A
....................          }else{ 
08F9A:  BRA    8FB0
....................             printf("b10.bco=63488"); 
08F9C:  MOVLW  FC
08F9E:  MOVWF  FF6
08FA0:  MOVLW  0C
08FA2:  MOVWF  FF7
08FA4:  MOVLW  00
08FA6:  MOVWF  FF8
08FA8:  CALL   3B38
....................             SendDataDisplay();  
08FAC:  CALL   3B6A
....................          } 
....................           
....................          if(RX_Buffer[4]==0x13)//Oprimio Buzzer 
08FB0:  MOVF   34,W
08FB2:  SUBLW  13
08FB4:  BNZ   8FBC
....................          { 
....................             EstadoBuzzer=!EstadoBuzzer; 
08FB6:  BTG    x8A.0
....................             RX_Buffer[4]=0x00; 
08FB8:  CLRF   34
....................             RX_Buffer2[4]=0x00; 
08FBA:  CLRF   3F
....................          } 
....................           
....................          if(EstadoBuzzer){ 
08FBC:  BTFSS  x8A.0
08FBE:  BRA    8FDA
....................             printf("b12.bco=2016"); 
08FC0:  MOVLW  0A
08FC2:  MOVWF  FF6
08FC4:  MOVLW  0D
08FC6:  MOVWF  FF7
08FC8:  MOVLW  00
08FCA:  MOVWF  FF8
08FCC:  CALL   3B38
....................             SendDataDisplay();  
08FD0:  CALL   3B6A
....................             Buzzer_on; 
08FD4:  BSF    F8C.0
08FD6:  BCF    F95.0
....................          } 
....................          else{ 
08FD8:  BRA    8FF2
....................             printf("b12.bco=63488"); 
08FDA:  MOVLW  18
08FDC:  MOVWF  FF6
08FDE:  MOVLW  0D
08FE0:  MOVWF  FF7
08FE2:  MOVLW  00
08FE4:  MOVWF  FF8
08FE6:  CALL   3B38
....................             SendDataDisplay();  
08FEA:  CALL   3B6A
....................             Buzzer_off; 
08FEE:  BCF    F8C.0
08FF0:  BCF    F95.0
....................          } 
....................           
....................          if(LOW){ 
08FF2:  BSF    F94.1
08FF4:  BTFSS  F82.1
08FF6:  BRA    900E
....................             printf("b17.bco=2016"); 
08FF8:  MOVLW  26
08FFA:  MOVWF  FF6
08FFC:  MOVLW  0D
08FFE:  MOVWF  FF7
09000:  MOVLW  00
09002:  MOVWF  FF8
09004:  CALL   3B38
....................             SendDataDisplay();  
09008:  CALL   3B6A
....................          }else{ 
0900C:  BRA    9022
....................             printf("b17.bco=63488"); 
0900E:  MOVLW  34
09010:  MOVWF  FF6
09012:  MOVLW  0D
09014:  MOVWF  FF7
09016:  MOVLW  00
09018:  MOVWF  FF8
0901A:  CALL   3B38
....................             SendDataDisplay();  
0901E:  CALL   3B6A
....................          } 
....................           
....................          if(RX_Buffer[4]==0x14)//Oprimio Zero ADC3 
09022:  MOVF   34,W
09024:  SUBLW  14
09026:  BTFSS  FD8.2
09028:  BRA    915E
....................          { 
....................             G1=41-sensores(2); 
0902A:  MOVLW  02
0902C:  MOVLB  6
0902E:  MOVWF  x38
09030:  MOVLB  0
09032:  CALL   3CB2
09036:  MOVFF  FEA,635
0903A:  MOVFF  FE9,634
0903E:  BSF    FD8.1
09040:  MOVLB  6
09042:  CLRF   x49
09044:  CLRF   x48
09046:  MOVLW  24
09048:  MOVWF  x47
0904A:  MOVLW  84
0904C:  MOVWF  x46
0904E:  MOVFF  03,64D
09052:  MOVFF  02,64C
09056:  MOVFF  01,64B
0905A:  MOVFF  00,64A
0905E:  MOVLB  0
09060:  CALL   1E8C
09064:  MOVFF  635,FEA
09068:  MOVFF  634,FE9
0906C:  MOVFF  03,649
09070:  MOVFF  02,648
09074:  MOVFF  01,647
09078:  MOVFF  00,646
0907C:  CALL   4A58
09080:  MOVFF  01,236
....................             if(G1<0) 
09084:  MOVLB  2
09086:  BTFSC  x36.7
09088:  BRA    908C
0908A:  BRA    9092
....................                sg1=10; 
0908C:  MOVLW  0A
0908E:  MOVWF  x38
....................             else 
09090:  BRA    9096
....................                sg1=5; 
09092:  MOVLW  05
09094:  MOVWF  x38
....................                    
....................             write_eeprom(42,(int8)G1); 
09096:  CLRF   FAA
09098:  MOVLW  2A
0909A:  MOVWF  FA9
0909C:  MOVFF  236,FA8
090A0:  BCF    FA6.6
090A2:  BCF    FA6.7
090A4:  BSF    FA6.2
090A6:  MOVF   FF2,W
090A8:  MOVWF  00
090AA:  BCF    FF2.6
090AC:  BCF    FF2.7
090AE:  MOVLB  F
090B0:  MOVLW  55
090B2:  MOVWF  FA7
090B4:  MOVLW  AA
090B6:  MOVWF  FA7
090B8:  BSF    FA6.1
090BA:  BTFSC  FA6.1
090BC:  BRA    90BA
090BE:  BCF    FA6.2
090C0:  MOVF   00,W
090C2:  IORWF  FF2,F
....................             delay_ms(10); 
090C4:  MOVLW  0A
090C6:  MOVLB  6
090C8:  MOVWF  x3D
090CA:  MOVLB  0
090CC:  CALL   1D06
....................             write_eeprom(44,(int8)sg1); 
090D0:  CLRF   FAA
090D2:  MOVLW  2C
090D4:  MOVWF  FA9
090D6:  MOVFF  238,FA8
090DA:  BCF    FA6.6
090DC:  BCF    FA6.7
090DE:  BSF    FA6.2
090E0:  MOVF   FF2,W
090E2:  MOVWF  00
090E4:  BCF    FF2.6
090E6:  BCF    FF2.7
090E8:  MOVLB  F
090EA:  MOVLW  55
090EC:  MOVWF  FA7
090EE:  MOVLW  AA
090F0:  MOVWF  FA7
090F2:  BSF    FA6.1
090F4:  BTFSC  FA6.1
090F6:  BRA    90F4
090F8:  BCF    FA6.2
090FA:  MOVF   00,W
090FC:  IORWF  FF2,F
....................             delay_ms(10); 
090FE:  MOVLW  0A
09100:  MOVLB  6
09102:  MOVWF  x3D
09104:  MOVLB  0
09106:  CALL   1D06
....................             Buzzer_on; 
0910A:  BSF    F8C.0
0910C:  BCF    F95.0
....................             delay_ms(1000); 
0910E:  MOVLW  04
09110:  MOVLB  6
09112:  MOVWF  x34
09114:  MOVLW  FA
09116:  MOVWF  x3D
09118:  MOVLB  0
0911A:  CALL   1D06
0911E:  MOVLB  6
09120:  DECFSZ x34,F
09122:  BRA    9114
....................             Buzzer_off; 
09124:  BCF    F8C.0
09126:  BCF    F95.0
....................             delay_ms(1000); 
09128:  MOVLW  04
0912A:  MOVWF  x34
0912C:  MOVLW  FA
0912E:  MOVWF  x3D
09130:  MOVLB  0
09132:  CALL   1D06
09136:  MOVLB  6
09138:  DECFSZ x34,F
0913A:  BRA    912C
....................             Buzzer_on; 
0913C:  BSF    F8C.0
0913E:  BCF    F95.0
....................             delay_ms(1000); 
09140:  MOVLW  04
09142:  MOVWF  x34
09144:  MOVLW  FA
09146:  MOVWF  x3D
09148:  MOVLB  0
0914A:  CALL   1D06
0914E:  MOVLB  6
09150:  DECFSZ x34,F
09152:  BRA    9144
....................             Buzzer_off; 
09154:  BCF    F8C.0
09156:  BCF    F95.0
....................             RX_Buffer[4]=0x00; 
09158:  CLRF   34
....................             RX_Buffer2[4]=0x00; 
0915A:  CLRF   3F
0915C:  MOVLB  0
....................          } 
....................           
....................          if(RX_Buffer[4]==0x14)//Oprimio Zero ADC3 
0915E:  MOVF   34,W
09160:  SUBLW  14
09162:  BTFSS  FD8.2
09164:  BRA    9298
....................          { 
....................             G2=41-sensores(3); 
09166:  MOVLW  03
09168:  MOVLB  6
0916A:  MOVWF  x38
0916C:  MOVLB  0
0916E:  CALL   3CB2
09172:  MOVFF  FEA,635
09176:  MOVFF  FE9,634
0917A:  BSF    FD8.1
0917C:  MOVLB  6
0917E:  CLRF   x49
09180:  CLRF   x48
09182:  MOVLW  24
09184:  MOVWF  x47
09186:  MOVLW  84
09188:  MOVWF  x46
0918A:  MOVFF  03,64D
0918E:  MOVFF  02,64C
09192:  MOVFF  01,64B
09196:  MOVFF  00,64A
0919A:  MOVLB  0
0919C:  CALL   1E8C
091A0:  MOVFF  635,FEA
091A4:  MOVFF  634,FE9
091A8:  MOVFF  03,649
091AC:  MOVFF  02,648
091B0:  MOVFF  01,647
091B4:  MOVFF  00,646
091B8:  CALL   4A58
091BC:  MOVFF  01,237
....................             if(G2<0) 
091C0:  MOVLB  2
091C2:  BTFSC  x37.7
091C4:  BRA    91C8
091C6:  BRA    91CE
....................                sg2=10; 
091C8:  MOVLW  0A
091CA:  MOVWF  x39
....................             else 
091CC:  BRA    91D2
....................                sg2=5; 
091CE:  MOVLW  05
091D0:  MOVWF  x39
....................                    
....................             write_eeprom(43,(int8)G2); 
091D2:  CLRF   FAA
091D4:  MOVLW  2B
091D6:  MOVWF  FA9
091D8:  MOVFF  237,FA8
091DC:  BCF    FA6.6
091DE:  BCF    FA6.7
091E0:  BSF    FA6.2
091E2:  MOVF   FF2,W
091E4:  MOVWF  00
091E6:  BCF    FF2.6
091E8:  BCF    FF2.7
091EA:  MOVLB  F
091EC:  MOVLW  55
091EE:  MOVWF  FA7
091F0:  MOVLW  AA
091F2:  MOVWF  FA7
091F4:  BSF    FA6.1
091F6:  BTFSC  FA6.1
091F8:  BRA    91F6
091FA:  BCF    FA6.2
091FC:  MOVF   00,W
091FE:  IORWF  FF2,F
....................             delay_ms(10); 
09200:  MOVLW  0A
09202:  MOVLB  6
09204:  MOVWF  x3D
09206:  MOVLB  0
09208:  CALL   1D06
....................             write_eeprom(45,(int8)sg2); 
0920C:  CLRF   FAA
0920E:  MOVLW  2D
09210:  MOVWF  FA9
09212:  MOVFF  239,FA8
09216:  BCF    FA6.6
09218:  BCF    FA6.7
0921A:  BSF    FA6.2
0921C:  MOVF   FF2,W
0921E:  MOVWF  00
09220:  BCF    FF2.6
09222:  BCF    FF2.7
09224:  MOVLB  F
09226:  MOVLW  55
09228:  MOVWF  FA7
0922A:  MOVLW  AA
0922C:  MOVWF  FA7
0922E:  BSF    FA6.1
09230:  BTFSC  FA6.1
09232:  BRA    9230
09234:  BCF    FA6.2
09236:  MOVF   00,W
09238:  IORWF  FF2,F
....................             delay_ms(10); 
0923A:  MOVLW  0A
0923C:  MOVLB  6
0923E:  MOVWF  x3D
09240:  MOVLB  0
09242:  CALL   1D06
....................             Buzzer_on; 
09246:  BSF    F8C.0
09248:  BCF    F95.0
....................             delay_ms(1000); 
0924A:  MOVLW  04
0924C:  MOVLB  6
0924E:  MOVWF  x34
09250:  MOVLW  FA
09252:  MOVWF  x3D
09254:  MOVLB  0
09256:  CALL   1D06
0925A:  MOVLB  6
0925C:  DECFSZ x34,F
0925E:  BRA    9250
....................             Buzzer_off; 
09260:  BCF    F8C.0
09262:  BCF    F95.0
....................             delay_ms(1000); 
09264:  MOVLW  04
09266:  MOVWF  x34
09268:  MOVLW  FA
0926A:  MOVWF  x3D
0926C:  MOVLB  0
0926E:  CALL   1D06
09272:  MOVLB  6
09274:  DECFSZ x34,F
09276:  BRA    9268
....................             Buzzer_on; 
09278:  BSF    F8C.0
0927A:  BCF    F95.0
....................             delay_ms(1000); 
0927C:  MOVLW  04
0927E:  MOVWF  x34
09280:  MOVLW  FA
09282:  MOVWF  x3D
09284:  MOVLB  0
09286:  CALL   1D06
0928A:  MOVLB  6
0928C:  DECFSZ x34,F
0928E:  BRA    9280
....................             Buzzer_off; 
09290:  BCF    F8C.0
09292:  BCF    F95.0
....................             RX_Buffer[4]=0x00; 
09294:  CLRF   34
....................             RX_Buffer2[4]=0x00; 
09296:  CLRF   3F
....................          } 
....................                    
....................          printf("b13.txt=\"ADC0:%3.0f\"",sensores(0));          
09298:  MOVLB  6
0929A:  CLRF   x38
0929C:  MOVLB  0
0929E:  CALL   3CB2
092A2:  MOVFF  00,634
092A6:  MOVFF  01,635
092AA:  MOVFF  02,636
092AE:  MOVFF  03,637
092B2:  MOVLW  42
092B4:  MOVWF  FF6
092B6:  MOVLW  0D
092B8:  MOVWF  FF7
092BA:  MOVLW  00
092BC:  MOVWF  FF8
092BE:  MOVLW  0E
092C0:  MOVLB  6
092C2:  MOVWF  x39
092C4:  MOVLB  0
092C6:  CALL   4B78
092CA:  MOVLW  02
092CC:  MOVWF  FE9
092CE:  MOVFF  637,63C
092D2:  MOVFF  636,63B
092D6:  MOVFF  635,63A
092DA:  MOVFF  634,639
092DE:  MOVLB  6
092E0:  CLRF   x3D
092E2:  MOVLB  0
092E4:  CALL   4E52
092E8:  MOVLW  22
092EA:  BTFSS  F9E.4
092EC:  BRA    92EA
092EE:  MOVWF  FAD
....................          SendDataDisplay(); 
092F0:  CALL   3B6A
....................          printf("b14.txt=\"ADC1:%3.0f\"",sensores(1));          
092F4:  MOVLW  01
092F6:  MOVLB  6
092F8:  MOVWF  x38
092FA:  MOVLB  0
092FC:  CALL   3CB2
09300:  MOVFF  00,634
09304:  MOVFF  01,635
09308:  MOVFF  02,636
0930C:  MOVFF  03,637
09310:  MOVLW  58
09312:  MOVWF  FF6
09314:  MOVLW  0D
09316:  MOVWF  FF7
09318:  MOVLW  00
0931A:  MOVWF  FF8
0931C:  MOVLW  0E
0931E:  MOVLB  6
09320:  MOVWF  x39
09322:  MOVLB  0
09324:  CALL   4B78
09328:  MOVLW  02
0932A:  MOVWF  FE9
0932C:  MOVFF  637,63C
09330:  MOVFF  636,63B
09334:  MOVFF  635,63A
09338:  MOVFF  634,639
0933C:  MOVLB  6
0933E:  CLRF   x3D
09340:  MOVLB  0
09342:  CALL   4E52
09346:  MOVLW  22
09348:  BTFSS  F9E.4
0934A:  BRA    9348
0934C:  MOVWF  FAD
....................          SendDataDisplay(); 
0934E:  CALL   3B6A
....................          printf("b15.txt=\"A2:%3.0f %03Lu\"",sensores(2),PresionCamara); 
09352:  MOVLW  02
09354:  MOVLB  6
09356:  MOVWF  x38
09358:  MOVLB  0
0935A:  CALL   3CB2
0935E:  MOVFF  00,634
09362:  MOVFF  01,635
09366:  MOVFF  02,636
0936A:  MOVFF  03,637
0936E:  MOVLW  6E
09370:  MOVWF  FF6
09372:  MOVLW  0D
09374:  MOVWF  FF7
09376:  MOVLW  00
09378:  MOVWF  FF8
0937A:  MOVLW  0C
0937C:  MOVLB  6
0937E:  MOVWF  x39
09380:  MOVLB  0
09382:  CALL   4B78
09386:  MOVLW  02
09388:  MOVWF  FE9
0938A:  MOVFF  637,63C
0938E:  MOVFF  636,63B
09392:  MOVFF  635,63A
09396:  MOVFF  634,639
0939A:  MOVLB  6
0939C:  CLRF   x3D
0939E:  MOVLB  0
093A0:  CALL   4E52
093A4:  MOVLW  20
093A6:  BTFSS  F9E.4
093A8:  BRA    93A6
093AA:  MOVWF  FAD
093AC:  MOVLW  0A
093AE:  MOVWF  FE9
093B0:  MOVFF  1FA,639
093B4:  MOVFF  1F9,638
093B8:  CALL   4CE4
093BC:  MOVLW  22
093BE:  BTFSS  F9E.4
093C0:  BRA    93BE
093C2:  MOVWF  FAD
....................          SendDataDisplay(); 
093C4:  CALL   3B6A
....................          printf("b18.txt=\"A3:%3.0f %03Lu\"",sensores(3),PresionPreCamara); 
093C8:  MOVLW  03
093CA:  MOVLB  6
093CC:  MOVWF  x38
093CE:  MOVLB  0
093D0:  CALL   3CB2
093D4:  MOVFF  00,634
093D8:  MOVFF  01,635
093DC:  MOVFF  02,636
093E0:  MOVFF  03,637
093E4:  MOVLW  88
093E6:  MOVWF  FF6
093E8:  MOVLW  0D
093EA:  MOVWF  FF7
093EC:  MOVLW  00
093EE:  MOVWF  FF8
093F0:  MOVLW  0C
093F2:  MOVLB  6
093F4:  MOVWF  x39
093F6:  MOVLB  0
093F8:  CALL   4B78
093FC:  MOVLW  02
093FE:  MOVWF  FE9
09400:  MOVFF  637,63C
09404:  MOVFF  636,63B
09408:  MOVFF  635,63A
0940C:  MOVFF  634,639
09410:  MOVLB  6
09412:  CLRF   x3D
09414:  MOVLB  0
09416:  CALL   4E52
0941A:  MOVLW  20
0941C:  BTFSS  F9E.4
0941E:  BRA    941C
09420:  MOVWF  FAD
09422:  MOVLW  0A
09424:  MOVWF  FE9
09426:  MOVFF  1FC,639
0942A:  MOVFF  1FB,638
0942E:  CALL   4CE4
09432:  MOVLW  22
09434:  BTFSS  F9E.4
09436:  BRA    9434
09438:  MOVWF  FAD
....................          SendDataDisplay(); 
0943A:  CALL   3B6A
....................          printf("b19.txt=\"T2:%3.1f\"",Temperatura2); 
0943E:  MOVLW  A2
09440:  MOVWF  FF6
09442:  MOVLW  0D
09444:  MOVWF  FF7
09446:  MOVLW  00
09448:  MOVWF  FF8
0944A:  MOVLW  0C
0944C:  MOVLB  6
0944E:  MOVWF  x39
09450:  MOVLB  0
09452:  CALL   4B78
09456:  MOVLW  02
09458:  MOVWF  FE9
0945A:  MOVFF  1C5,63C
0945E:  MOVFF  1C4,63B
09462:  MOVFF  1C3,63A
09466:  MOVFF  1C2,639
0946A:  MOVLW  01
0946C:  MOVLB  6
0946E:  MOVWF  x3D
09470:  MOVLB  0
09472:  CALL   4E52
09476:  MOVLW  22
09478:  BTFSS  F9E.4
0947A:  BRA    9478
0947C:  MOVWF  FAD
....................          SendDataDisplay(); 
0947E:  CALL   3B6A
....................          printf("b20.txt=\"T1:%3.1f\"",Temperatura); 
09482:  MOVLW  B6
09484:  MOVWF  FF6
09486:  MOVLW  0D
09488:  MOVWF  FF7
0948A:  MOVLW  00
0948C:  MOVWF  FF8
0948E:  MOVLW  0C
09490:  MOVLB  6
09492:  MOVWF  x39
09494:  MOVLB  0
09496:  CALL   4B78
0949A:  MOVLW  02
0949C:  MOVWF  FE9
0949E:  MOVFF  1C1,63C
094A2:  MOVFF  1C0,63B
094A6:  MOVFF  1BF,63A
094AA:  MOVFF  1BE,639
094AE:  MOVLW  01
094B0:  MOVLB  6
094B2:  MOVWF  x3D
094B4:  MOVLB  0
094B6:  CALL   4E52
094BA:  MOVLW  22
094BC:  BTFSS  F9E.4
094BE:  BRA    94BC
094C0:  MOVWF  FAD
....................          SendDataDisplay(); 
094C2:  CALL   3B6A
....................           
....................          if(RX_Buffer[4]==0x21)//Oprimio salir 
094C6:  MOVF   34,W
094C8:  SUBLW  21
094CA:  BNZ   94EC
....................          { 
....................             printf("page Menu"); 
094CC:  MOVLW  CA
094CE:  MOVWF  FF6
094D0:  MOVLW  0D
094D2:  MOVWF  FF7
094D4:  MOVLW  00
094D6:  MOVWF  FF8
094D8:  CALL   3B38
....................             SendDataDisplay(); 
094DC:  CALL   3B6A
....................             PantallaPrincipal=0; 
094E0:  MOVLB  1
094E2:  CLRF   x7E
....................             PruebaEstados=OFF; 
094E4:  MOVLB  0
094E6:  BCF    x88.5
....................             ApagaSalidas(); 
094E8:  CALL   3BA0
094EC:  MOVLB  1
....................             // Falta apagar Todo 
....................          } 
....................      } 
.................... //_--------------------------------------------------------------------------------------------------------------------------------------------------------     
....................  
.................... //_--------------------------------------------------------------------------------------------------------------------------------------------------------       
....................     if(Menu==7){ //Menu de Configuracin de Fecha y Hora 
094EE:  MOVF   xDD,W
094F0:  SUBLW  07
094F2:  BTFSS  FD8.2
094F4:  BRA    98DE
....................        
....................          if(RX_Buffer[4]==0x0a)//Selecciono Hora 
094F6:  MOVF   34,W
094F8:  SUBLW  0A
094FA:  BNZ   9500
....................             Opcion=4; 
094FC:  MOVLW  04
094FE:  MOVWF  xE8
....................           
....................          if(RX_Buffer[4]==0x0b)//Selecciono Minuto 
09500:  MOVF   34,W
09502:  SUBLW  0B
09504:  BNZ   950A
....................             Opcion=5; 
09506:  MOVLW  05
09508:  MOVWF  xE8
....................           
....................          if(RX_Buffer[4]==0x0c)//Selecciono Dia 
0950A:  MOVF   34,W
0950C:  SUBLW  0C
0950E:  BNZ   9514
....................             Opcion=1; 
09510:  MOVLW  01
09512:  MOVWF  xE8
....................           
....................          if(RX_Buffer[4]==0x0d)//Selecciono Hora 
09514:  MOVF   34,W
09516:  SUBLW  0D
09518:  BNZ   951E
....................             Opcion=2; 
0951A:  MOVLW  02
0951C:  MOVWF  xE8
....................           
....................          if(RX_Buffer[4]==0x0e)//Selecciono Year 
0951E:  MOVF   34,W
09520:  SUBLW  0E
09522:  BNZ   9528
....................             Opcion=3; 
09524:  MOVLW  03
09526:  MOVWF  xE8
....................           
....................          if(Opcion>5) 
09528:  MOVF   xE8,W
0952A:  SUBLW  05
0952C:  BC    9532
....................             Opcion=1; 
0952E:  MOVLW  01
09530:  MOVWF  xE8
....................          if(Opcion<1) 
09532:  MOVF   xE8,F
09534:  BNZ   953A
....................             Opcion=5; 
09536:  MOVLW  05
09538:  MOVWF  xE8
....................              
....................          if(RX_Buffer[4]==0x11){//Selecciono Regresar 
0953A:  MOVF   34,W
0953C:  SUBLW  11
0953E:  BTFSS  FD8.2
09540:  BRA    965A
....................             printf("page Menu"); 
09542:  MOVLW  D4
09544:  MOVWF  FF6
09546:  MOVLW  0D
09548:  MOVWF  FF7
0954A:  MOVLW  00
0954C:  MOVWF  FF8
0954E:  MOVLB  0
09550:  CALL   3B38
....................             SendDataDisplay();   
09554:  CALL   3B6A
....................             PantallaPrincipal=0; 
09558:  MOVLB  1
0955A:  CLRF   x7E
....................             Op=OFF; 
0955C:  MOVLB  0
0955E:  BCF    x89.1
....................             Op2=OFF; 
09560:  BCF    x89.2
....................              
....................             if(esBisiesto(YearTx)) 
09562:  MOVFF  228,634
09566:  CALL   503C
0956A:  MOVF   01,F
0956C:  BZ    9588
....................                Modulo=Bisiesto[MesTx]; 
0956E:  CLRF   03
09570:  MOVLB  2
09572:  MOVF   x29,W
09574:  ADDLW  76
09576:  MOVWF  FE9
09578:  MOVLW  00
0957A:  ADDWFC 03,W
0957C:  MOVWF  FEA
0957E:  MOVFF  FEF,180
09582:  MOVLB  1
....................             else 
09584:  BRA    959E
09586:  MOVLB  0
....................                Modulo=Regular[MesTx]; 
09588:  CLRF   03
0958A:  MOVLB  2
0958C:  MOVF   x29,W
0958E:  ADDLW  6A
09590:  MOVWF  FE9
09592:  MOVLW  00
09594:  ADDWFC 03,W
09596:  MOVWF  FEA
09598:  MOVFF  FEF,180
0959C:  MOVLB  1
....................           
....................             dowTx=((YearTx-1)%7+((YearTx-1)/4-3*((YearTx-1)/100+1)/4)%7+Modulo+DiaTx%7)%7; 
0959E:  MOVLW  01
095A0:  MOVLB  2
095A2:  SUBWF  x28,W
095A4:  MOVLB  6
095A6:  MOVWF  x35
095A8:  MOVWF  x3D
095AA:  MOVLW  07
095AC:  MOVWF  x3E
095AE:  MOVLB  0
095B0:  CALL   4BD0
095B4:  MOVFF  00,634
095B8:  MOVLW  01
095BA:  MOVLB  2
095BC:  SUBWF  x28,W
095BE:  MOVWF  00
095C0:  RRCF   00,W
095C2:  MOVLB  6
095C4:  MOVWF  x35
095C6:  RRCF   x35,F
095C8:  MOVLW  3F
095CA:  ANDWF  x35,F
095CC:  MOVLW  01
095CE:  MOVLB  2
095D0:  SUBWF  x28,W
095D2:  MOVLB  6
095D4:  MOVWF  x37
095D6:  MOVWF  x3D
095D8:  MOVLW  64
095DA:  MOVWF  x3E
095DC:  MOVLB  0
095DE:  CALL   4BD0
095E2:  MOVLW  01
095E4:  ADDWF  01,W
095E6:  MULLW  03
095E8:  MOVFF  FF3,00
095EC:  RRCF   00,F
095EE:  RRCF   00,F
095F0:  MOVLW  3F
095F2:  ANDWF  00,F
095F4:  MOVF   00,W
095F6:  MOVLB  6
095F8:  SUBWF  x35,W
095FA:  MOVWF  x36
095FC:  MOVWF  x3D
095FE:  MOVLW  07
09600:  MOVWF  x3E
09602:  MOVLB  0
09604:  CALL   4BD0
09608:  MOVF   00,W
0960A:  MOVLB  6
0960C:  ADDWF  x34,W
0960E:  MOVLB  1
09610:  ADDWF  x80,W
09612:  MOVLB  6
09614:  MOVWF  x34
09616:  MOVFF  22A,63D
0961A:  MOVLW  07
0961C:  MOVWF  x3E
0961E:  MOVLB  0
09620:  CALL   4BD0
09624:  MOVF   00,W
09626:  MOVLB  6
09628:  ADDWF  x34,W
0962A:  MOVWF  x35
0962C:  MOVWF  x3D
0962E:  MOVLW  07
09630:  MOVWF  x3E
09632:  MOVLB  0
09634:  CALL   4BD0
09638:  MOVFF  00,22E
....................             rtc_set_datetime(DiaTx,MesTx,YearTx,dowTx,HoraTx,MinutoTx); 
0963C:  MOVFF  22A,634
09640:  MOVFF  229,635
09644:  MOVFF  228,636
09648:  MOVFF  22E,637
0964C:  MOVFF  22B,638
09650:  MOVFF  22C,639
09654:  GOTO   50BE
09658:  MOVLB  1
....................          } 
....................           
....................          if(RX_Buffer[4]==0x2a){//Tecla Arriba Oprimida 
0965A:  MOVF   34,W
0965C:  SUBLW  2A
0965E:  BTFSS  FD8.2
09660:  BRA    975A
....................                if(Opcion==1){ 
09662:  DECFSZ xE8,W
09664:  BRA    96F6
....................                   if(MesTx==2){ 
09666:  MOVLB  2
09668:  MOVF   x29,W
0966A:  SUBLW  02
0966C:  BNZ   96A2
....................                      if(esBisiesto(YearTx)){ 
0966E:  MOVFF  228,634
09672:  MOVLB  0
09674:  CALL   503C
09678:  MOVF   01,F
0967A:  BZ    9690
....................                         if(DiaTx<29) 
0967C:  MOVLB  2
0967E:  MOVF   x2A,W
09680:  SUBLW  1C
09682:  BNC   9688
....................                            DiaTx++; 
09684:  INCF   x2A,F
....................                         else 
09686:  BRA    968C
....................                            DiaTx=1;    
09688:  MOVLW  01
0968A:  MOVWF  x2A
....................                      }else{ 
0968C:  BRA    96A0
0968E:  MOVLB  0
....................                         if(DiaTx<28) 
09690:  MOVLB  2
09692:  MOVF   x2A,W
09694:  SUBLW  1B
09696:  BNC   969C
....................                            DiaTx++; 
09698:  INCF   x2A,F
....................                         else 
0969A:  BRA    96A0
....................                            DiaTx=1;    
0969C:  MOVLW  01
0969E:  MOVWF  x2A
....................                      } 
....................                   }else{ 
096A0:  BRA    96F2
....................                      if(MesTx<=7){ 
096A2:  MOVF   x29,W
096A4:  SUBLW  07
096A6:  BNC   96CE
....................                         if(MesTx % 2 ==0){ 
096A8:  MOVF   x29,W
096AA:  ANDLW  01
096AC:  BNZ   96BE
....................                            if(DiaTx<30) 
096AE:  MOVF   x2A,W
096B0:  SUBLW  1D
096B2:  BNC   96B8
....................                               DiaTx++;     
096B4:  INCF   x2A,F
....................                            else 
096B6:  BRA    96BC
....................                               DiaTx=1;    
096B8:  MOVLW  01
096BA:  MOVWF  x2A
....................                         }else{ 
096BC:  BRA    96CC
....................                            if(DiaTx<31) 
096BE:  MOVF   x2A,W
096C0:  SUBLW  1E
096C2:  BNC   96C8
....................                               DiaTx++;     
096C4:  INCF   x2A,F
....................                            else 
096C6:  BRA    96CC
....................                               DiaTx=1;    
096C8:  MOVLW  01
096CA:  MOVWF  x2A
....................                         }     
....................                      }else{ 
096CC:  BRA    96F2
....................                         if(MesTx % 2 ==0){ 
096CE:  MOVF   x29,W
096D0:  ANDLW  01
096D2:  BNZ   96E4
....................                            if(DiaTx<31) 
096D4:  MOVF   x2A,W
096D6:  SUBLW  1E
096D8:  BNC   96DE
....................                               DiaTx++;   
096DA:  INCF   x2A,F
....................                            else 
096DC:  BRA    96E2
....................                               DiaTx=1; 
096DE:  MOVLW  01
096E0:  MOVWF  x2A
....................                         }else{ 
096E2:  BRA    96F2
....................                            if(DiaTx<30) 
096E4:  MOVF   x2A,W
096E6:  SUBLW  1D
096E8:  BNC   96EE
....................                               DiaTx++;     
096EA:  INCF   x2A,F
....................                            else 
096EC:  BRA    96F2
....................                               DiaTx=1; 
096EE:  MOVLW  01
096F0:  MOVWF  x2A
....................                         }     
....................                      } 
....................                   } 
....................                }else if(Opcion==2){ 
096F2:  BRA    9754
096F4:  MOVLB  1
096F6:  MOVF   xE8,W
096F8:  SUBLW  02
096FA:  BNZ   9710
....................                   if(MesTx<12) 
096FC:  MOVLB  2
096FE:  MOVF   x29,W
09700:  SUBLW  0B
09702:  BNC   9708
....................                      MesTx++; 
09704:  INCF   x29,F
....................                   else 
09706:  BRA    970C
....................                      MesTx=1; 
09708:  MOVLW  01
0970A:  MOVWF  x29
....................                }else if(Opcion==3){ 
0970C:  BRA    9754
0970E:  MOVLB  1
09710:  MOVF   xE8,W
09712:  SUBLW  03
09714:  BNZ   9728
....................                   if(YearTx<99) 
09716:  MOVLB  2
09718:  MOVF   x28,W
0971A:  SUBLW  62
0971C:  BNC   9722
....................                      YearTx++; 
0971E:  INCF   x28,F
....................                   else  
09720:  BRA    9724
....................                      YearTx=0; 
09722:  CLRF   x28
....................                }else if(Opcion==4){ 
09724:  BRA    9754
09726:  MOVLB  1
09728:  MOVF   xE8,W
0972A:  SUBLW  04
0972C:  BNZ   9740
....................                   if(HoraTx<24) 
0972E:  MOVLB  2
09730:  MOVF   x2B,W
09732:  SUBLW  17
09734:  BNC   973A
....................                      HoraTx++; 
09736:  INCF   x2B,F
....................                   else 
09738:  BRA    973C
....................                      HoraTx=0; 
0973A:  CLRF   x2B
....................                }else if(Opcion==5){ 
0973C:  BRA    9754
0973E:  MOVLB  1
09740:  MOVF   xE8,W
09742:  SUBLW  05
09744:  BNZ   9756
....................                   if(MinutoTx<59) 
09746:  MOVLB  2
09748:  MOVF   x2C,W
0974A:  SUBLW  3A
0974C:  BNC   9752
....................                      MinutoTx++; 
0974E:  INCF   x2C,F
....................                   else 
09750:  BRA    9754
....................                      MinutoTx=0; 
09752:  CLRF   x2C
09754:  MOVLB  1
....................                } 
....................                RX_Buffer[4]=0x00; 
09756:  CLRF   34
....................                RX_Buffer2[4]=0x00; 
09758:  CLRF   3F
....................          } 
....................           
....................          if(RX_Buffer[4]==0x2b){//Tecla Abajo Oprimida  
0975A:  MOVF   34,W
0975C:  SUBLW  2B
0975E:  BNZ   97D4
....................                if(Opcion==1){ 
09760:  DECFSZ xE8,W
09762:  BRA    9770
....................                   if(DiaTx>0) 
09764:  MOVLB  2
09766:  MOVF   x2A,F
09768:  BZ    976C
....................                      DiaTx--; 
0976A:  DECF   x2A,F
....................                }else if(Opcion==2){ 
0976C:  BRA    97CE
0976E:  MOVLB  1
09770:  MOVF   xE8,W
09772:  SUBLW  02
09774:  BNZ   978A
....................                   if(MesTx>1) 
09776:  MOVLB  2
09778:  MOVF   x29,W
0977A:  SUBLW  01
0977C:  BC    9782
....................                      MesTx--; 
0977E:  DECF   x29,F
....................                   else 
09780:  BRA    9786
....................                      MesTx=12; 
09782:  MOVLW  0C
09784:  MOVWF  x29
....................                }else if(Opcion==3){ 
09786:  BRA    97CE
09788:  MOVLB  1
0978A:  MOVF   xE8,W
0978C:  SUBLW  03
0978E:  BNZ   97A2
....................                   if(YearTx>0) 
09790:  MOVLB  2
09792:  MOVF   x28,F
09794:  BZ    979A
....................                      YearTx--; 
09796:  DECF   x28,F
....................                   else 
09798:  BRA    979E
....................                      YearTx=99; 
0979A:  MOVLW  63
0979C:  MOVWF  x28
....................                }else if(Opcion==4){ 
0979E:  BRA    97CE
097A0:  MOVLB  1
097A2:  MOVF   xE8,W
097A4:  SUBLW  04
097A6:  BNZ   97BA
....................                   if(HoraTx>0) 
097A8:  MOVLB  2
097AA:  MOVF   x2B,F
097AC:  BZ    97B2
....................                      HoraTx--; 
097AE:  DECF   x2B,F
....................                   else 
097B0:  BRA    97B6
....................                      HoraTx=23; 
097B2:  MOVLW  17
097B4:  MOVWF  x2B
....................                }else if(Opcion==5){ 
097B6:  BRA    97CE
097B8:  MOVLB  1
097BA:  MOVF   xE8,W
097BC:  SUBLW  05
097BE:  BNZ   97D0
....................                   if(MinutoTx>0) 
097C0:  MOVLB  2
097C2:  MOVF   x2C,F
097C4:  BZ    97CA
....................                      MinutoTx--; 
097C6:  DECF   x2C,F
....................                   else 
097C8:  BRA    97CE
....................                      MinutoTx=59; 
097CA:  MOVLW  3B
097CC:  MOVWF  x2C
097CE:  MOVLB  1
....................                } 
....................                RX_Buffer[4]=0x00; 
097D0:  CLRF   34
....................                RX_Buffer2[4]=0x00; 
097D2:  CLRF   3F
....................                //BorraBuffer(); 
....................          } 
....................        
....................       printf("thora.txt=\"%02u\"",HoraTx); 
097D4:  MOVLW  DE
097D6:  MOVWF  FF6
097D8:  MOVLW  0D
097DA:  MOVWF  FF7
097DC:  MOVLW  00
097DE:  MOVWF  FF8
097E0:  MOVLW  0B
097E2:  MOVLB  6
097E4:  MOVWF  x39
097E6:  MOVLB  0
097E8:  CALL   4B78
097EC:  MOVFF  22B,639
097F0:  MOVLW  01
097F2:  MOVLB  6
097F4:  MOVWF  x3A
097F6:  MOVLB  0
097F8:  CALL   4BFC
097FC:  MOVLW  22
097FE:  BTFSS  F9E.4
09800:  BRA    97FE
09802:  MOVWF  FAD
....................       SendDataDisplay(); 
09804:  CALL   3B6A
....................       printf("tminutos.txt=\"%02u\"",MinutoTx); 
09808:  MOVLW  F0
0980A:  MOVWF  FF6
0980C:  MOVLW  0D
0980E:  MOVWF  FF7
09810:  MOVLW  00
09812:  MOVWF  FF8
09814:  MOVLW  0E
09816:  MOVLB  6
09818:  MOVWF  x39
0981A:  MOVLB  0
0981C:  CALL   4B78
09820:  MOVFF  22C,639
09824:  MOVLW  01
09826:  MOVLB  6
09828:  MOVWF  x3A
0982A:  MOVLB  0
0982C:  CALL   4BFC
09830:  MOVLW  22
09832:  BTFSS  F9E.4
09834:  BRA    9832
09836:  MOVWF  FAD
....................       SendDataDisplay(); 
09838:  CALL   3B6A
....................       printf("tdia.txt=\"%02u\"",DiaTx); 
0983C:  MOVLW  04
0983E:  MOVWF  FF6
09840:  MOVLW  0E
09842:  MOVWF  FF7
09844:  MOVLW  00
09846:  MOVWF  FF8
09848:  MOVLW  0A
0984A:  MOVLB  6
0984C:  MOVWF  x39
0984E:  MOVLB  0
09850:  CALL   4B78
09854:  MOVFF  22A,639
09858:  MOVLW  01
0985A:  MOVLB  6
0985C:  MOVWF  x3A
0985E:  MOVLB  0
09860:  CALL   4BFC
09864:  MOVLW  22
09866:  BTFSS  F9E.4
09868:  BRA    9866
0986A:  MOVWF  FAD
....................       SendDataDisplay(); 
0986C:  CALL   3B6A
....................       printf("tmes.txt=\"%02u\"",MesTx); 
09870:  MOVLW  14
09872:  MOVWF  FF6
09874:  MOVLW  0E
09876:  MOVWF  FF7
09878:  MOVLW  00
0987A:  MOVWF  FF8
0987C:  MOVLW  0A
0987E:  MOVLB  6
09880:  MOVWF  x39
09882:  MOVLB  0
09884:  CALL   4B78
09888:  MOVFF  229,639
0988C:  MOVLW  01
0988E:  MOVLB  6
09890:  MOVWF  x3A
09892:  MOVLB  0
09894:  CALL   4BFC
09898:  MOVLW  22
0989A:  BTFSS  F9E.4
0989C:  BRA    989A
0989E:  MOVWF  FAD
....................       SendDataDisplay(); 
098A0:  CALL   3B6A
....................       printf("tyear.txt=\"%02u\"",YearTx); 
098A4:  MOVLW  24
098A6:  MOVWF  FF6
098A8:  MOVLW  0E
098AA:  MOVWF  FF7
098AC:  MOVLW  00
098AE:  MOVWF  FF8
098B0:  MOVLW  0B
098B2:  MOVLB  6
098B4:  MOVWF  x39
098B6:  MOVLB  0
098B8:  CALL   4B78
098BC:  MOVFF  228,639
098C0:  MOVLW  01
098C2:  MOVLB  6
098C4:  MOVWF  x3A
098C6:  MOVLB  0
098C8:  CALL   4BFC
098CC:  MOVLW  22
098CE:  BTFSS  F9E.4
098D0:  BRA    98CE
098D2:  MOVWF  FAD
....................       SendDataDisplay(); 
098D4:  CALL   3B6A
....................       LimitaDia();   
098D8:  GOTO   517A
098DC:  MOVLB  1
....................     } 
.................... //_--------------------------------------------------------------------------------------------------------------------------------------------------------        
....................  
.................... //_-------------------------------------------------------------------------------------------------------------------------------------------------------- 
....................    if(Menu==8){ //Menu Ciclos Personalizados 
098DE:  MOVF   xDD,W
098E0:  SUBLW  08
098E2:  BTFSS  FD8.2
098E4:  GOTO   A93C
....................       printf("fecha.txt=\"Fecha:%02u/%02u/20%02u Hora: %02u:%02u:%02u\"",Dia,Mes,Year,Hora,Minuto,Segundo); 
098E8:  MOVLW  36
098EA:  MOVWF  FF6
098EC:  MOVLW  0E
098EE:  MOVWF  FF7
098F0:  MOVLW  00
098F2:  MOVWF  FF8
098F4:  MOVLW  11
098F6:  MOVLB  6
098F8:  MOVWF  x39
098FA:  MOVLB  0
098FC:  CALL   4B78
09900:  MOVFF  21D,639
09904:  MOVLW  01
09906:  MOVLB  6
09908:  MOVWF  x3A
0990A:  MOVLB  0
0990C:  CALL   4BFC
09910:  MOVLW  2F
09912:  BTFSS  F9E.4
09914:  BRA    9912
09916:  MOVWF  FAD
09918:  MOVFF  21C,639
0991C:  MOVLW  01
0991E:  MOVLB  6
09920:  MOVWF  x3A
09922:  MOVLB  0
09924:  CALL   4BFC
09928:  MOVLW  2F
0992A:  BTFSS  F9E.4
0992C:  BRA    992A
0992E:  MOVWF  FAD
09930:  MOVLW  32
09932:  BTFSS  F9E.4
09934:  BRA    9932
09936:  MOVWF  FAD
09938:  MOVLW  30
0993A:  BTFSS  F9E.4
0993C:  BRA    993A
0993E:  MOVWF  FAD
09940:  MOVFF  21B,639
09944:  MOVLW  01
09946:  MOVLB  6
09948:  MOVWF  x3A
0994A:  MOVLB  0
0994C:  CALL   4BFC
09950:  MOVLW  57
09952:  MOVWF  FF6
09954:  MOVLW  0E
09956:  MOVWF  FF7
09958:  MOVLW  00
0995A:  MOVWF  FF8
0995C:  MOVLW  07
0995E:  MOVLB  6
09960:  MOVWF  x39
09962:  MOVLB  0
09964:  CALL   4B78
09968:  MOVFF  21E,639
0996C:  MOVLW  01
0996E:  MOVLB  6
09970:  MOVWF  x3A
09972:  MOVLB  0
09974:  CALL   4BFC
09978:  MOVLW  3A
0997A:  BTFSS  F9E.4
0997C:  BRA    997A
0997E:  MOVWF  FAD
09980:  MOVFF  21F,639
09984:  MOVLW  01
09986:  MOVLB  6
09988:  MOVWF  x3A
0998A:  MOVLB  0
0998C:  CALL   4BFC
09990:  MOVLW  3A
09992:  BTFSS  F9E.4
09994:  BRA    9992
09996:  MOVWF  FAD
09998:  MOVFF  220,639
0999C:  MOVLW  01
0999E:  MOVLB  6
099A0:  MOVWF  x3A
099A2:  MOVLB  0
099A4:  CALL   4BFC
099A8:  MOVLW  22
099AA:  BTFSS  F9E.4
099AC:  BRA    99AA
099AE:  MOVWF  FAD
....................       SendDataDisplay(); 
099B0:  CALL   3B6A
....................       GuardaEEPROM=OFF; 
099B4:  BCF    x89.5
....................       printf("tuser.txt=\"%s\"",usuario); 
099B6:  MOVLW  6E
099B8:  MOVWF  FF6
099BA:  MOVLW  0E
099BC:  MOVWF  FF7
099BE:  MOVLW  00
099C0:  MOVWF  FF8
099C2:  MOVLW  0B
099C4:  MOVLB  6
099C6:  MOVWF  x39
099C8:  MOVLB  0
099CA:  CALL   4B78
099CE:  MOVLW  02
099D0:  MOVWF  FEA
099D2:  MOVLW  3A
099D4:  MOVWF  FE9
099D6:  CALL   4BAA
099DA:  MOVLW  22
099DC:  BTFSS  F9E.4
099DE:  BRA    99DC
099E0:  MOVWF  FAD
....................       SendDataDisplay(); 
099E2:  CALL   3B6A
....................        
....................       if(RX_Buffer[4]>0x00 && RX_Buffer[4]<0x15 && estados[RX_Buffer[4]-1]){//Personalizados 
099E6:  MOVF   34,F
099E8:  BTFSC  FD8.2
099EA:  BRA    9CB2
099EC:  MOVF   34,W
099EE:  SUBLW  14
099F0:  BTFSS  FD8.0
099F2:  BRA    9CB2
099F4:  MOVLW  01
099F6:  SUBWF  34,W
099F8:  MOVLB  6
099FA:  MOVWF  x35
099FC:  MOVLW  02
099FE:  MOVWF  x37
09A00:  MOVLW  A0
09A02:  MOVWF  x36
09A04:  MOVLB  0
09A06:  CALL   2146
09A0A:  BTFSS  01.0
09A0C:  BRA    9CB2
....................          printf("ciclo.txt=\"CICLO P%02u\"",RX_Buffer[4]+0x0a); 
09A0E:  MOVLW  0A
09A10:  ADDWF  34,W
09A12:  MOVLB  6
09A14:  MOVWF  x34
09A16:  MOVLW  7E
09A18:  MOVWF  FF6
09A1A:  MOVLW  0E
09A1C:  MOVWF  FF7
09A1E:  MOVLW  00
09A20:  MOVWF  FF8
09A22:  MOVLW  12
09A24:  MOVWF  x39
09A26:  MOVLB  0
09A28:  CALL   4B78
09A2C:  MOVFF  634,639
09A30:  MOVLW  01
09A32:  MOVLB  6
09A34:  MOVWF  x3A
09A36:  MOVLB  0
09A38:  CALL   4BFC
09A3C:  MOVLW  22
09A3E:  BTFSS  F9E.4
09A40:  BRA    9A3E
09A42:  MOVWF  FAD
....................          SendDataDisplay();           
09A44:  CALL   3B6A
....................          printf("temp.txt=\"%u\"",CiclosPersonalizados[RX_Buffer[4]-1].Temperatura); 
09A48:  MOVLW  01
09A4A:  SUBWF  34,W
09A4C:  MULLW  08
09A4E:  MOVF   FF3,W
09A50:  MOVLB  6
09A52:  CLRF   x35
09A54:  MOVWF  x34
09A56:  MOVLW  6C
09A58:  ADDWF  x34,W
09A5A:  MOVWF  FE9
09A5C:  MOVLW  05
09A5E:  ADDWFC x35,W
09A60:  MOVWF  FEA
09A62:  MOVFF  FEF,634
09A66:  MOVLW  96
09A68:  MOVWF  FF6
09A6A:  MOVLW  0E
09A6C:  MOVWF  FF7
09A6E:  MOVLW  00
09A70:  MOVWF  FF8
09A72:  MOVLW  0A
09A74:  MOVWF  x39
09A76:  MOVLB  0
09A78:  CALL   4B78
09A7C:  MOVFF  634,639
09A80:  MOVLW  1B
09A82:  MOVLB  6
09A84:  MOVWF  x3A
09A86:  MOVLB  0
09A88:  CALL   4BFC
09A8C:  MOVLW  22
09A8E:  BTFSS  F9E.4
09A90:  BRA    9A8E
09A92:  MOVWF  FAD
....................          SendDataDisplay(); 
09A94:  CALL   3B6A
....................          printf("test.txt=\"%02u:%02u\"",CiclosPersonalizados[RX_Buffer[4]-1].Minutoest,CiclosPersonalizados[RX_Buffer[4]-1].Segundoest); 
09A98:  MOVLW  01
09A9A:  SUBWF  34,W
09A9C:  MULLW  08
09A9E:  MOVF   FF3,W
09AA0:  MOVLB  6
09AA2:  CLRF   x35
09AA4:  MOVWF  x34
09AA6:  MOVLW  01
09AA8:  ADDWF  x34,W
09AAA:  MOVWF  01
09AAC:  MOVLW  00
09AAE:  ADDWFC x35,W
09AB0:  MOVWF  03
09AB2:  MOVF   01,W
09AB4:  ADDLW  6C
09AB6:  MOVWF  FE9
09AB8:  MOVLW  05
09ABA:  ADDWFC 03,W
09ABC:  MOVWF  FEA
09ABE:  MOVFF  FEF,634
09AC2:  MOVLW  01
09AC4:  SUBWF  34,W
09AC6:  MULLW  08
09AC8:  MOVF   FF3,W
09ACA:  CLRF   x36
09ACC:  MOVWF  x35
09ACE:  MOVLW  02
09AD0:  ADDWF  x35,W
09AD2:  MOVWF  01
09AD4:  MOVLW  00
09AD6:  ADDWFC x36,W
09AD8:  MOVWF  03
09ADA:  MOVF   01,W
09ADC:  ADDLW  6C
09ADE:  MOVWF  FE9
09AE0:  MOVLW  05
09AE2:  ADDWFC 03,W
09AE4:  MOVWF  FEA
09AE6:  MOVFF  FEF,635
09AEA:  MOVLW  A4
09AEC:  MOVWF  FF6
09AEE:  MOVLW  0E
09AF0:  MOVWF  FF7
09AF2:  MOVLW  00
09AF4:  MOVWF  FF8
09AF6:  MOVLW  0A
09AF8:  MOVWF  x39
09AFA:  MOVLB  0
09AFC:  CALL   4B78
09B00:  MOVFF  634,639
09B04:  MOVLW  01
09B06:  MOVLB  6
09B08:  MOVWF  x3A
09B0A:  MOVLB  0
09B0C:  CALL   4BFC
09B10:  MOVLW  3A
09B12:  BTFSS  F9E.4
09B14:  BRA    9B12
09B16:  MOVWF  FAD
09B18:  MOVFF  635,639
09B1C:  MOVLW  01
09B1E:  MOVLB  6
09B20:  MOVWF  x3A
09B22:  MOVLB  0
09B24:  CALL   4BFC
09B28:  MOVLW  22
09B2A:  BTFSS  F9E.4
09B2C:  BRA    9B2A
09B2E:  MOVWF  FAD
....................          SendDataDisplay(); 
09B30:  CALL   3B6A
....................          printf("tsec.txt=\"%02u:%02u\"",CiclosPersonalizados[RX_Buffer[4]-1].Minutosec,CiclosPersonalizados[RX_Buffer[4]-1].Segundosec); 
09B34:  MOVLW  01
09B36:  SUBWF  34,W
09B38:  MULLW  08
09B3A:  MOVF   FF3,W
09B3C:  MOVLB  6
09B3E:  CLRF   x35
09B40:  MOVWF  x34
09B42:  MOVLW  03
09B44:  ADDWF  x34,W
09B46:  MOVWF  01
09B48:  MOVLW  00
09B4A:  ADDWFC x35,W
09B4C:  MOVWF  03
09B4E:  MOVF   01,W
09B50:  ADDLW  6C
09B52:  MOVWF  FE9
09B54:  MOVLW  05
09B56:  ADDWFC 03,W
09B58:  MOVWF  FEA
09B5A:  MOVFF  FEF,634
09B5E:  MOVLW  01
09B60:  SUBWF  34,W
09B62:  MULLW  08
09B64:  MOVF   FF3,W
09B66:  CLRF   x36
09B68:  MOVWF  x35
09B6A:  MOVLW  04
09B6C:  ADDWF  x35,W
09B6E:  MOVWF  01
09B70:  MOVLW  00
09B72:  ADDWFC x36,W
09B74:  MOVWF  03
09B76:  MOVF   01,W
09B78:  ADDLW  6C
09B7A:  MOVWF  FE9
09B7C:  MOVLW  05
09B7E:  ADDWFC 03,W
09B80:  MOVWF  FEA
09B82:  MOVFF  FEF,635
09B86:  MOVLW  BA
09B88:  MOVWF  FF6
09B8A:  MOVLW  0E
09B8C:  MOVWF  FF7
09B8E:  MOVLW  00
09B90:  MOVWF  FF8
09B92:  MOVLW  0A
09B94:  MOVWF  x39
09B96:  MOVLB  0
09B98:  CALL   4B78
09B9C:  MOVFF  634,639
09BA0:  MOVLW  01
09BA2:  MOVLB  6
09BA4:  MOVWF  x3A
09BA6:  MOVLB  0
09BA8:  CALL   4BFC
09BAC:  MOVLW  3A
09BAE:  BTFSS  F9E.4
09BB0:  BRA    9BAE
09BB2:  MOVWF  FAD
09BB4:  MOVFF  635,639
09BB8:  MOVLW  01
09BBA:  MOVLB  6
09BBC:  MOVWF  x3A
09BBE:  MOVLB  0
09BC0:  CALL   4BFC
09BC4:  MOVLW  22
09BC6:  BTFSS  F9E.4
09BC8:  BRA    9BC6
09BCA:  MOVWF  FAD
....................          SendDataDisplay(); 
09BCC:  CALL   3B6A
....................          printf("pulsos.txt=\"%02u\"",CiclosPersonalizados[RX_Buffer[4]-1].PulsosVacio); 
09BD0:  MOVLW  01
09BD2:  SUBWF  34,W
09BD4:  MULLW  08
09BD6:  MOVF   FF3,W
09BD8:  MOVLB  6
09BDA:  CLRF   x35
09BDC:  MOVWF  x34
09BDE:  MOVLW  05
09BE0:  ADDWF  x34,W
09BE2:  MOVWF  01
09BE4:  MOVLW  00
09BE6:  ADDWFC x35,W
09BE8:  MOVWF  03
09BEA:  MOVF   01,W
09BEC:  ADDLW  6C
09BEE:  MOVWF  FE9
09BF0:  MOVLW  05
09BF2:  ADDWFC 03,W
09BF4:  MOVWF  FEA
09BF6:  MOVFF  FEF,634
09BFA:  MOVLW  D0
09BFC:  MOVWF  FF6
09BFE:  MOVLW  0E
09C00:  MOVWF  FF7
09C02:  MOVLW  00
09C04:  MOVWF  FF8
09C06:  MOVLW  0C
09C08:  MOVWF  x39
09C0A:  MOVLB  0
09C0C:  CALL   4B78
09C10:  MOVFF  634,639
09C14:  MOVLW  01
09C16:  MOVLB  6
09C18:  MOVWF  x3A
09C1A:  MOVLB  0
09C1C:  CALL   4BFC
09C20:  MOVLW  22
09C22:  BTFSS  F9E.4
09C24:  BRA    9C22
09C26:  MOVWF  FAD
....................          SendDataDisplay(); 
09C28:  CALL   3B6A
....................          printf("vacio.txt=\"%03u kPa\"",CiclosPersonalizados[RX_Buffer[4]-1].NivelVacio); 
09C2C:  MOVLW  01
09C2E:  SUBWF  34,W
09C30:  MULLW  08
09C32:  MOVF   FF3,W
09C34:  MOVLB  6
09C36:  CLRF   x35
09C38:  MOVWF  x34
09C3A:  MOVLW  06
09C3C:  ADDWF  x34,W
09C3E:  MOVWF  01
09C40:  MOVLW  00
09C42:  ADDWFC x35,W
09C44:  MOVWF  03
09C46:  MOVF   01,W
09C48:  ADDLW  6C
09C4A:  MOVWF  FE9
09C4C:  MOVLW  05
09C4E:  ADDWFC 03,W
09C50:  MOVWF  FEA
09C52:  MOVFF  FEF,634
09C56:  MOVLW  E2
09C58:  MOVWF  FF6
09C5A:  MOVLW  0E
09C5C:  MOVWF  FF7
09C5E:  MOVLW  00
09C60:  MOVWF  FF8
09C62:  MOVLW  0B
09C64:  MOVWF  x39
09C66:  MOVLB  0
09C68:  CALL   4B78
09C6C:  MOVFF  634,639
09C70:  MOVLW  03
09C72:  MOVLB  6
09C74:  MOVWF  x3A
09C76:  MOVLB  0
09C78:  CALL   4BFC
09C7C:  MOVLW  F1
09C7E:  MOVWF  FF6
09C80:  MOVLW  0E
09C82:  MOVWF  FF7
09C84:  MOVLW  00
09C86:  MOVWF  FF8
09C88:  MOVLW  05
09C8A:  MOVLB  6
09C8C:  MOVWF  x39
09C8E:  MOVLB  0
09C90:  CALL   4B78
....................          SendDataDisplay(); 
09C94:  CALL   3B6A
....................          //printf("desfogue.txt=\"%u\"",CiclosPersonalizados[RX_Buffer[4]-1].NivelDesfogue); 
....................          printf("desfogue.txt=\"N/A\""); 
09C98:  MOVLW  F8
09C9A:  MOVWF  FF6
09C9C:  MOVLW  0E
09C9E:  MOVWF  FF7
09CA0:  MOVLW  00
09CA2:  MOVWF  FF8
09CA4:  CALL   3B38
....................          SendDataDisplay(); 
09CA8:  CALL   3B6A
....................          CicloLibre=RX_Buffer[4]; 
09CAC:  MOVFF  34,231
....................       }else if(CicloLibre==0x00){ 
09CB0:  BRA    9FCE
09CB2:  MOVLB  2
09CB4:  MOVF   x31,F
09CB6:  BNZ   9D4A
....................          printf("ciclo.txt=\"CICLO P--\""); 
09CB8:  MOVLW  0C
09CBA:  MOVWF  FF6
09CBC:  MOVLW  0F
09CBE:  MOVWF  FF7
09CC0:  MOVLW  00
09CC2:  MOVWF  FF8
09CC4:  MOVLB  0
09CC6:  CALL   3B38
....................          SendDataDisplay();           
09CCA:  CALL   3B6A
....................          printf("temp.txt=\"--\""); 
09CCE:  MOVLW  22
09CD0:  MOVWF  FF6
09CD2:  MOVLW  0F
09CD4:  MOVWF  FF7
09CD6:  MOVLW  00
09CD8:  MOVWF  FF8
09CDA:  CALL   3B38
....................          SendDataDisplay(); 
09CDE:  CALL   3B6A
....................          printf("test.txt=\"--:--\""); 
09CE2:  MOVLW  30
09CE4:  MOVWF  FF6
09CE6:  MOVLW  0F
09CE8:  MOVWF  FF7
09CEA:  MOVLW  00
09CEC:  MOVWF  FF8
09CEE:  CALL   3B38
....................          SendDataDisplay(); 
09CF2:  CALL   3B6A
....................          printf("tsec.txt=\"--:--\""); 
09CF6:  MOVLW  42
09CF8:  MOVWF  FF6
09CFA:  MOVLW  0F
09CFC:  MOVWF  FF7
09CFE:  MOVLW  00
09D00:  MOVWF  FF8
09D02:  CALL   3B38
....................          SendDataDisplay(); 
09D06:  CALL   3B6A
....................          printf("pulsos.txt=\"--\""); 
09D0A:  MOVLW  54
09D0C:  MOVWF  FF6
09D0E:  MOVLW  0F
09D10:  MOVWF  FF7
09D12:  MOVLW  00
09D14:  MOVWF  FF8
09D16:  CALL   3B38
....................          SendDataDisplay(); 
09D1A:  CALL   3B6A
....................          printf("vacio.txt=\"--\""); 
09D1E:  MOVLW  64
09D20:  MOVWF  FF6
09D22:  MOVLW  0F
09D24:  MOVWF  FF7
09D26:  MOVLW  00
09D28:  MOVWF  FF8
09D2A:  CALL   3B38
....................          SendDataDisplay(); 
09D2E:  CALL   3B6A
....................          printf("desfogue.txt=\"--\""); 
09D32:  MOVLW  74
09D34:  MOVWF  FF6
09D36:  MOVLW  0F
09D38:  MOVWF  FF7
09D3A:  MOVLW  00
09D3C:  MOVWF  FF8
09D3E:  CALL   3B38
....................          SendDataDisplay(); 
09D42:  CALL   3B6A
....................       }else if(CicloLibre>0 && CicloLibre<21 && estados[CicloLibre-1]){ 
09D46:  BRA    9FCE
09D48:  MOVLB  2
09D4A:  MOVF   x31,F
09D4C:  BTFSC  FD8.2
09D4E:  BRA    9FD0
09D50:  MOVF   x31,W
09D52:  SUBLW  14
09D54:  BTFSS  FD8.0
09D56:  BRA    9FD0
09D58:  MOVLW  01
09D5A:  SUBWF  x31,W
09D5C:  MOVLB  6
09D5E:  MOVWF  x35
09D60:  MOVLW  02
09D62:  MOVWF  x37
09D64:  MOVLW  A0
09D66:  MOVWF  x36
09D68:  MOVLB  0
09D6A:  CALL   2146
09D6E:  BTFSC  01.0
09D70:  BRA    9D76
09D72:  MOVLB  2
09D74:  BRA    9FD0
....................          printf("ciclo.txt=\"CICLO P%02u\"",CicloLibre+0x0a); 
09D76:  MOVLW  0A
09D78:  MOVLB  2
09D7A:  ADDWF  x31,W
09D7C:  MOVLB  6
09D7E:  MOVWF  x34
09D80:  MOVLW  86
09D82:  MOVWF  FF6
09D84:  MOVLW  0F
09D86:  MOVWF  FF7
09D88:  MOVLW  00
09D8A:  MOVWF  FF8
09D8C:  MOVLW  12
09D8E:  MOVWF  x39
09D90:  MOVLB  0
09D92:  CALL   4B78
09D96:  MOVFF  634,639
09D9A:  MOVLW  01
09D9C:  MOVLB  6
09D9E:  MOVWF  x3A
09DA0:  MOVLB  0
09DA2:  CALL   4BFC
09DA6:  MOVLW  22
09DA8:  BTFSS  F9E.4
09DAA:  BRA    9DA8
09DAC:  MOVWF  FAD
....................          SendDataDisplay();           
09DAE:  CALL   3B6A
....................          printf("temp.txt=\"%u\"",CiclosPersonalizados[CicloLibre-1].Temperatura); 
09DB2:  MOVLW  01
09DB4:  MOVLB  2
09DB6:  SUBWF  x31,W
09DB8:  MULLW  08
09DBA:  MOVF   FF3,W
09DBC:  MOVLB  6
09DBE:  CLRF   x35
09DC0:  MOVWF  x34
09DC2:  MOVLW  6C
09DC4:  ADDWF  x34,W
09DC6:  MOVWF  FE9
09DC8:  MOVLW  05
09DCA:  ADDWFC x35,W
09DCC:  MOVWF  FEA
09DCE:  MOVFF  FEF,634
09DD2:  MOVLW  9E
09DD4:  MOVWF  FF6
09DD6:  MOVLW  0F
09DD8:  MOVWF  FF7
09DDA:  MOVLW  00
09DDC:  MOVWF  FF8
09DDE:  MOVLW  0A
09DE0:  MOVWF  x39
09DE2:  MOVLB  0
09DE4:  CALL   4B78
09DE8:  MOVFF  634,639
09DEC:  MOVLW  1B
09DEE:  MOVLB  6
09DF0:  MOVWF  x3A
09DF2:  MOVLB  0
09DF4:  CALL   4BFC
09DF8:  MOVLW  22
09DFA:  BTFSS  F9E.4
09DFC:  BRA    9DFA
09DFE:  MOVWF  FAD
....................          SendDataDisplay(); 
09E00:  CALL   3B6A
....................          printf("test.txt=\"%02u:%02u\"",CiclosPersonalizados[CicloLibre-1].Minutoest,CiclosPersonalizados[CicloLibre-1].Segundoest); 
09E04:  MOVLW  01
09E06:  MOVLB  2
09E08:  SUBWF  x31,W
09E0A:  MULLW  08
09E0C:  MOVF   FF3,W
09E0E:  MOVLB  6
09E10:  CLRF   x35
09E12:  MOVWF  x34
09E14:  MOVLW  01
09E16:  ADDWF  x34,W
09E18:  MOVWF  01
09E1A:  MOVLW  00
09E1C:  ADDWFC x35,W
09E1E:  MOVWF  03
09E20:  MOVF   01,W
09E22:  ADDLW  6C
09E24:  MOVWF  FE9
09E26:  MOVLW  05
09E28:  ADDWFC 03,W
09E2A:  MOVWF  FEA
09E2C:  MOVFF  FEF,634
09E30:  MOVLW  01
09E32:  MOVLB  2
09E34:  SUBWF  x31,W
09E36:  MULLW  08
09E38:  MOVF   FF3,W
09E3A:  MOVLB  6
09E3C:  CLRF   x36
09E3E:  MOVWF  x35
09E40:  MOVLW  02
09E42:  ADDWF  x35,W
09E44:  MOVWF  01
09E46:  MOVLW  00
09E48:  ADDWFC x36,W
09E4A:  MOVWF  03
09E4C:  MOVF   01,W
09E4E:  ADDLW  6C
09E50:  MOVWF  FE9
09E52:  MOVLW  05
09E54:  ADDWFC 03,W
09E56:  MOVWF  FEA
09E58:  MOVFF  FEF,635
09E5C:  MOVLW  AC
09E5E:  MOVWF  FF6
09E60:  MOVLW  0F
09E62:  MOVWF  FF7
09E64:  MOVLW  00
09E66:  MOVWF  FF8
09E68:  MOVLW  0A
09E6A:  MOVWF  x39
09E6C:  MOVLB  0
09E6E:  CALL   4B78
09E72:  MOVFF  634,639
09E76:  MOVLW  01
09E78:  MOVLB  6
09E7A:  MOVWF  x3A
09E7C:  MOVLB  0
09E7E:  CALL   4BFC
09E82:  MOVLW  3A
09E84:  BTFSS  F9E.4
09E86:  BRA    9E84
09E88:  MOVWF  FAD
09E8A:  MOVFF  635,639
09E8E:  MOVLW  01
09E90:  MOVLB  6
09E92:  MOVWF  x3A
09E94:  MOVLB  0
09E96:  CALL   4BFC
09E9A:  MOVLW  22
09E9C:  BTFSS  F9E.4
09E9E:  BRA    9E9C
09EA0:  MOVWF  FAD
....................          SendDataDisplay(); 
09EA2:  CALL   3B6A
....................          printf("tsec.txt=\"%02u:%02u\"",CiclosPersonalizados[CicloLibre-1].Minutosec,CiclosPersonalizados[CicloLibre-1].Segundosec); 
09EA6:  MOVLW  01
09EA8:  MOVLB  2
09EAA:  SUBWF  x31,W
09EAC:  MULLW  08
09EAE:  MOVF   FF3,W
09EB0:  MOVLB  6
09EB2:  CLRF   x35
09EB4:  MOVWF  x34
09EB6:  MOVLW  03
09EB8:  ADDWF  x34,W
09EBA:  MOVWF  01
09EBC:  MOVLW  00
09EBE:  ADDWFC x35,W
09EC0:  MOVWF  03
09EC2:  MOVF   01,W
09EC4:  ADDLW  6C
09EC6:  MOVWF  FE9
09EC8:  MOVLW  05
09ECA:  ADDWFC 03,W
09ECC:  MOVWF  FEA
09ECE:  MOVFF  FEF,634
09ED2:  MOVLW  01
09ED4:  MOVLB  2
09ED6:  SUBWF  x31,W
09ED8:  MULLW  08
09EDA:  MOVF   FF3,W
09EDC:  MOVLB  6
09EDE:  CLRF   x36
09EE0:  MOVWF  x35
09EE2:  MOVLW  04
09EE4:  ADDWF  x35,W
09EE6:  MOVWF  01
09EE8:  MOVLW  00
09EEA:  ADDWFC x36,W
09EEC:  MOVWF  03
09EEE:  MOVF   01,W
09EF0:  ADDLW  6C
09EF2:  MOVWF  FE9
09EF4:  MOVLW  05
09EF6:  ADDWFC 03,W
09EF8:  MOVWF  FEA
09EFA:  MOVFF  FEF,635
09EFE:  MOVLW  C2
09F00:  MOVWF  FF6
09F02:  MOVLW  0F
09F04:  MOVWF  FF7
09F06:  MOVLW  00
09F08:  MOVWF  FF8
09F0A:  MOVLW  0A
09F0C:  MOVWF  x39
09F0E:  MOVLB  0
09F10:  CALL   4B78
09F14:  MOVFF  634,639
09F18:  MOVLW  01
09F1A:  MOVLB  6
09F1C:  MOVWF  x3A
09F1E:  MOVLB  0
09F20:  CALL   4BFC
09F24:  MOVLW  3A
09F26:  BTFSS  F9E.4
09F28:  BRA    9F26
09F2A:  MOVWF  FAD
09F2C:  MOVFF  635,639
09F30:  MOVLW  01
09F32:  MOVLB  6
09F34:  MOVWF  x3A
09F36:  MOVLB  0
09F38:  CALL   4BFC
09F3C:  MOVLW  22
09F3E:  BTFSS  F9E.4
09F40:  BRA    9F3E
09F42:  MOVWF  FAD
....................          SendDataDisplay(); 
09F44:  CALL   3B6A
....................          //printf("pulsos.txt=\"%02u\"",CiclosPersonalizados[CicloLibre-1].PulsosVacio); 
....................          printf("pulsos.txt=\"N/A\""); 
09F48:  MOVLW  D8
09F4A:  MOVWF  FF6
09F4C:  MOVLW  0F
09F4E:  MOVWF  FF7
09F50:  MOVLW  00
09F52:  MOVWF  FF8
09F54:  CALL   3B38
....................          SendDataDisplay(); 
09F58:  CALL   3B6A
....................          //printf("vacio.txt=\"%03u kPa\"",CiclosPersonalizados[CicloLibre-1].NivelVacio); 
....................          printf("vacio.txt=\"N/A\""); 
09F5C:  MOVLW  EA
09F5E:  MOVWF  FF6
09F60:  MOVLW  0F
09F62:  MOVWF  FF7
09F64:  MOVLW  00
09F66:  MOVWF  FF8
09F68:  CALL   3B38
....................          SendDataDisplay(); 
09F6C:  CALL   3B6A
....................          printf("desfogue.txt=\"%u\"",CiclosPersonalizados[CicloLibre-1].NivelDesfogue); 
09F70:  MOVLW  01
09F72:  MOVLB  2
09F74:  SUBWF  x31,W
09F76:  MULLW  08
09F78:  MOVF   FF3,W
09F7A:  MOVLB  6
09F7C:  CLRF   x35
09F7E:  MOVWF  x34
09F80:  MOVLW  07
09F82:  ADDWF  x34,W
09F84:  MOVWF  01
09F86:  MOVLW  00
09F88:  ADDWFC x35,W
09F8A:  MOVWF  03
09F8C:  MOVF   01,W
09F8E:  ADDLW  6C
09F90:  MOVWF  FE9
09F92:  MOVLW  05
09F94:  ADDWFC 03,W
09F96:  MOVWF  FEA
09F98:  MOVFF  FEF,634
09F9C:  MOVLW  FA
09F9E:  MOVWF  FF6
09FA0:  MOVLW  0F
09FA2:  MOVWF  FF7
09FA4:  MOVLW  00
09FA6:  MOVWF  FF8
09FA8:  MOVLW  0E
09FAA:  MOVWF  x39
09FAC:  MOVLB  0
09FAE:  CALL   4B78
09FB2:  MOVFF  634,639
09FB6:  MOVLW  1B
09FB8:  MOVLB  6
09FBA:  MOVWF  x3A
09FBC:  MOVLB  0
09FBE:  CALL   4BFC
09FC2:  MOVLW  22
09FC4:  BTFSS  F9E.4
09FC6:  BRA    9FC4
09FC8:  MOVWF  FAD
....................          //printf("desfogue.txt=\"N/A\""); 
....................          SendDataDisplay(); 
09FCA:  CALL   3B6A
09FCE:  MOVLB  2
....................       } 
....................        
....................       if(RX_Buffer[4]==0xa0){//a0, Menu Principal 
09FD0:  MOVF   34,W
09FD2:  SUBLW  A0
09FD4:  BNZ   9FEE
....................          printf("page Menu"); 
09FD6:  MOVLW  0C
09FD8:  MOVWF  FF6
09FDA:  MOVLW  10
09FDC:  MOVWF  FF7
09FDE:  MOVLW  00
09FE0:  MOVWF  FF8
09FE2:  MOVLB  0
09FE4:  CALL   3B38
....................          SendDataDisplay();      
09FE8:  CALL   3B6A
09FEC:  MOVLB  2
....................       } 
....................        
....................       if(RX_Buffer[4]==0xb0){//b0, Personalizados 
09FEE:  MOVF   34,W
09FF0:  SUBLW  B0
09FF2:  BNZ   A00C
....................          printf("page CicloPersona"); 
09FF4:  MOVLW  16
09FF6:  MOVWF  FF6
09FF8:  MOVLW  10
09FFA:  MOVWF  FF7
09FFC:  MOVLW  00
09FFE:  MOVWF  FF8
0A000:  MOVLB  0
0A002:  CALL   3B38
....................          SendDataDisplay();      
0A006:  CALL   3B6A
0A00A:  MOVLB  2
....................       } 
....................        
....................       if(RX_Buffer[4]==0xc0){//c0, Configuraciones 
0A00C:  MOVF   34,W
0A00E:  SUBLW  C0
0A010:  BNZ   A034
....................          if(codigoUsuario==0 || codigoUsuario==9){   
0A012:  MOVF   x34,F
0A014:  BZ    A01C
0A016:  MOVF   x34,W
0A018:  SUBLW  09
0A01A:  BNZ   A034
....................             printf("page Ajustes"); 
0A01C:  MOVLW  28
0A01E:  MOVWF  FF6
0A020:  MOVLW  10
0A022:  MOVWF  FF7
0A024:  MOVLW  00
0A026:  MOVWF  FF8
0A028:  MOVLB  0
0A02A:  CALL   3B38
....................             SendDataDisplay();      
0A02E:  CALL   3B6A
0A032:  MOVLB  2
....................          } 
....................       } 
....................        
....................       if(RX_Buffer[4]==0x20 && CicloLibre>0){//20, Temperatura 
0A034:  MOVF   34,W
0A036:  SUBLW  20
0A038:  BNZ   A082
0A03A:  MOVF   x31,F
0A03C:  BZ    A082
....................          if(codigoUsuario==0 || codigoUsuario==9){   
0A03E:  MOVF   x34,F
0A040:  BZ    A048
0A042:  MOVF   x34,W
0A044:  SUBLW  09
0A046:  BNZ   A082
....................             printf("page Temperatura"); 
0A048:  MOVLW  36
0A04A:  MOVWF  FF6
0A04C:  MOVLW  10
0A04E:  MOVWF  FF7
0A050:  MOVLW  00
0A052:  MOVWF  FF8
0A054:  MOVLB  0
0A056:  CALL   3B38
....................             SendDataDisplay();      
0A05A:  CALL   3B6A
....................             Setpoint=CiclosPersonalizados[CicloLibre-1].Temperatura; 
0A05E:  MOVLW  01
0A060:  MOVLB  2
0A062:  SUBWF  x31,W
0A064:  MULLW  08
0A066:  MOVF   FF3,W
0A068:  MOVLB  6
0A06A:  CLRF   x35
0A06C:  MOVWF  x34
0A06E:  MOVLW  6C
0A070:  ADDWF  x34,W
0A072:  MOVWF  FE9
0A074:  MOVLW  05
0A076:  ADDWFC x35,W
0A078:  MOVWF  FEA
0A07A:  MOVFF  FEF,1E7
0A07E:  MOVLB  1
0A080:  MOVLB  2
....................          } 
....................       } 
....................        
....................       if(RX_Buffer[4]==0x30 && CicloLibre>0){//30, Test 
0A082:  MOVF   34,W
0A084:  SUBLW  30
0A086:  BTFSS  FD8.2
0A088:  BRA    A1B0
0A08A:  MOVF   x31,F
0A08C:  BTFSC  FD8.2
0A08E:  BRA    A1B0
....................          if(codigoUsuario==0 || codigoUsuario==9){   
0A090:  MOVF   x34,F
0A092:  BZ    A09C
0A094:  MOVF   x34,W
0A096:  SUBLW  09
0A098:  BTFSS  FD8.2
0A09A:  BRA    A1B0
....................             printf("page TiempoEst"); 
0A09C:  MOVLW  48
0A09E:  MOVWF  FF6
0A0A0:  MOVLW  10
0A0A2:  MOVWF  FF7
0A0A4:  MOVLW  00
0A0A6:  MOVWF  FF8
0A0A8:  MOVLB  0
0A0AA:  CALL   3B38
....................             SendDataDisplay();      
0A0AE:  CALL   3B6A
....................             Testerilizacionp[3]=CiclosPersonalizados[CicloLibre-1].Minutoest/10; 
0A0B2:  MOVLW  01
0A0B4:  MOVLB  2
0A0B6:  SUBWF  x31,W
0A0B8:  MULLW  08
0A0BA:  MOVF   FF3,W
0A0BC:  MOVLB  6
0A0BE:  CLRF   x35
0A0C0:  MOVWF  x34
0A0C2:  MOVLW  01
0A0C4:  ADDWF  x34,W
0A0C6:  MOVWF  01
0A0C8:  MOVLW  00
0A0CA:  ADDWFC x35,W
0A0CC:  MOVWF  03
0A0CE:  MOVF   01,W
0A0D0:  ADDLW  6C
0A0D2:  MOVWF  FE9
0A0D4:  MOVLW  05
0A0D6:  ADDWFC 03,W
0A0D8:  MOVWF  FEA
0A0DA:  MOVFF  FEF,63D
0A0DE:  MOVLW  0A
0A0E0:  MOVWF  x3E
0A0E2:  MOVLB  0
0A0E4:  CALL   4BD0
0A0E8:  MOVFF  01,9E
....................             Testerilizacionp[2]=CiclosPersonalizados[CicloLibre-1].Minutoest-(Testerilizacion[3]*10); 
0A0EC:  MOVLW  01
0A0EE:  MOVLB  2
0A0F0:  SUBWF  x31,W
0A0F2:  MULLW  08
0A0F4:  MOVF   FF3,W
0A0F6:  MOVLB  6
0A0F8:  CLRF   x35
0A0FA:  MOVWF  x34
0A0FC:  MOVLW  01
0A0FE:  ADDWF  x34,W
0A100:  MOVWF  01
0A102:  MOVLW  00
0A104:  ADDWFC x35,W
0A106:  MOVWF  03
0A108:  MOVF   01,W
0A10A:  ADDLW  6C
0A10C:  MOVWF  FE9
0A10E:  MOVLW  05
0A110:  ADDWFC 03,W
0A112:  MOVWF  FEA
0A114:  MOVFF  FEF,634
0A118:  MOVFF  9A,63B
0A11C:  MOVLW  0A
0A11E:  MOVWF  x3C
0A120:  MOVLB  0
0A122:  CALL   36B2
0A126:  MOVF   01,W
0A128:  MOVLB  6
0A12A:  SUBWF  x34,W
0A12C:  MOVLB  0
0A12E:  MOVWF  x9D
....................             Testerilizacionp[1]=CiclosPersonalizados[CicloLibre-1].Segundoest/10; 
0A130:  MOVLW  01
0A132:  MOVLB  2
0A134:  SUBWF  x31,W
0A136:  MULLW  08
0A138:  MOVF   FF3,W
0A13A:  MOVLB  6
0A13C:  CLRF   x35
0A13E:  MOVWF  x34
0A140:  MOVLW  02
0A142:  ADDWF  x34,W
0A144:  MOVWF  01
0A146:  MOVLW  00
0A148:  ADDWFC x35,W
0A14A:  MOVWF  03
0A14C:  MOVF   01,W
0A14E:  ADDLW  6C
0A150:  MOVWF  FE9
0A152:  MOVLW  05
0A154:  ADDWFC 03,W
0A156:  MOVWF  FEA
0A158:  MOVFF  FEF,63D
0A15C:  MOVLW  0A
0A15E:  MOVWF  x3E
0A160:  MOVLB  0
0A162:  CALL   4BD0
0A166:  MOVFF  01,9C
....................             Testerilizacionp[0]=CiclosPersonalizados[CicloLibre-1].Segundoest-(Testerilizacion[1]*10); 
0A16A:  MOVLW  01
0A16C:  MOVLB  2
0A16E:  SUBWF  x31,W
0A170:  MULLW  08
0A172:  MOVF   FF3,W
0A174:  MOVLB  6
0A176:  CLRF   x35
0A178:  MOVWF  x34
0A17A:  MOVLW  02
0A17C:  ADDWF  x34,W
0A17E:  MOVWF  01
0A180:  MOVLW  00
0A182:  ADDWFC x35,W
0A184:  MOVWF  03
0A186:  MOVF   01,W
0A188:  ADDLW  6C
0A18A:  MOVWF  FE9
0A18C:  MOVLW  05
0A18E:  ADDWFC 03,W
0A190:  MOVWF  FEA
0A192:  MOVFF  FEF,634
0A196:  MOVFF  98,63B
0A19A:  MOVLW  0A
0A19C:  MOVWF  x3C
0A19E:  MOVLB  0
0A1A0:  CALL   36B2
0A1A4:  MOVF   01,W
0A1A6:  MOVLB  6
0A1A8:  SUBWF  x34,W
0A1AA:  MOVLB  0
0A1AC:  MOVWF  x9B
0A1AE:  MOVLB  2
....................          } 
....................       } 
....................        
....................       if(RX_Buffer[4]==0x40 && CicloLibre>0){//40, Tsec 
0A1B0:  MOVF   34,W
0A1B2:  SUBLW  40
0A1B4:  BTFSS  FD8.2
0A1B6:  BRA    A2DE
0A1B8:  MOVF   x31,F
0A1BA:  BTFSC  FD8.2
0A1BC:  BRA    A2DE
....................          if(codigoUsuario==0 || codigoUsuario==9){   
0A1BE:  MOVF   x34,F
0A1C0:  BZ    A1CA
0A1C2:  MOVF   x34,W
0A1C4:  SUBLW  09
0A1C6:  BTFSS  FD8.2
0A1C8:  BRA    A2DE
....................             printf("page TiempoSec"); 
0A1CA:  MOVLW  58
0A1CC:  MOVWF  FF6
0A1CE:  MOVLW  10
0A1D0:  MOVWF  FF7
0A1D2:  MOVLW  00
0A1D4:  MOVWF  FF8
0A1D6:  MOVLB  0
0A1D8:  CALL   3B38
....................             SendDataDisplay();    
0A1DC:  CALL   3B6A
....................             Tsecadop[3]=CiclosPersonalizados[CicloLibre-1].Minutosec/10; 
0A1E0:  MOVLW  01
0A1E2:  MOVLB  2
0A1E4:  SUBWF  x31,W
0A1E6:  MULLW  08
0A1E8:  MOVF   FF3,W
0A1EA:  MOVLB  6
0A1EC:  CLRF   x35
0A1EE:  MOVWF  x34
0A1F0:  MOVLW  03
0A1F2:  ADDWF  x34,W
0A1F4:  MOVWF  01
0A1F6:  MOVLW  00
0A1F8:  ADDWFC x35,W
0A1FA:  MOVWF  03
0A1FC:  MOVF   01,W
0A1FE:  ADDLW  6C
0A200:  MOVWF  FE9
0A202:  MOVLW  05
0A204:  ADDWFC 03,W
0A206:  MOVWF  FEA
0A208:  MOVFF  FEF,63D
0A20C:  MOVLW  0A
0A20E:  MOVWF  x3E
0A210:  MOVLB  0
0A212:  CALL   4BD0
0A216:  MOVFF  01,A6
....................             Tsecadop[2]=CiclosPersonalizados[CicloLibre-1].Minutosec-(Tsecado[3]*10); 
0A21A:  MOVLW  01
0A21C:  MOVLB  2
0A21E:  SUBWF  x31,W
0A220:  MULLW  08
0A222:  MOVF   FF3,W
0A224:  MOVLB  6
0A226:  CLRF   x35
0A228:  MOVWF  x34
0A22A:  MOVLW  03
0A22C:  ADDWF  x34,W
0A22E:  MOVWF  01
0A230:  MOVLW  00
0A232:  ADDWFC x35,W
0A234:  MOVWF  03
0A236:  MOVF   01,W
0A238:  ADDLW  6C
0A23A:  MOVWF  FE9
0A23C:  MOVLW  05
0A23E:  ADDWFC 03,W
0A240:  MOVWF  FEA
0A242:  MOVFF  FEF,634
0A246:  MOVFF  A2,63B
0A24A:  MOVLW  0A
0A24C:  MOVWF  x3C
0A24E:  MOVLB  0
0A250:  CALL   36B2
0A254:  MOVF   01,W
0A256:  MOVLB  6
0A258:  SUBWF  x34,W
0A25A:  MOVLB  0
0A25C:  MOVWF  xA5
....................             Tsecadop[1]=CiclosPersonalizados[CicloLibre-1].Segundosec/10; 
0A25E:  MOVLW  01
0A260:  MOVLB  2
0A262:  SUBWF  x31,W
0A264:  MULLW  08
0A266:  MOVF   FF3,W
0A268:  MOVLB  6
0A26A:  CLRF   x35
0A26C:  MOVWF  x34
0A26E:  MOVLW  04
0A270:  ADDWF  x34,W
0A272:  MOVWF  01
0A274:  MOVLW  00
0A276:  ADDWFC x35,W
0A278:  MOVWF  03
0A27A:  MOVF   01,W
0A27C:  ADDLW  6C
0A27E:  MOVWF  FE9
0A280:  MOVLW  05
0A282:  ADDWFC 03,W
0A284:  MOVWF  FEA
0A286:  MOVFF  FEF,63D
0A28A:  MOVLW  0A
0A28C:  MOVWF  x3E
0A28E:  MOVLB  0
0A290:  CALL   4BD0
0A294:  MOVFF  01,A4
....................             Tsecadop[0]=CiclosPersonalizados[CicloLibre-1].Segundosec-(Tsecado[1]*10); 
0A298:  MOVLW  01
0A29A:  MOVLB  2
0A29C:  SUBWF  x31,W
0A29E:  MULLW  08
0A2A0:  MOVF   FF3,W
0A2A2:  MOVLB  6
0A2A4:  CLRF   x35
0A2A6:  MOVWF  x34
0A2A8:  MOVLW  04
0A2AA:  ADDWF  x34,W
0A2AC:  MOVWF  01
0A2AE:  MOVLW  00
0A2B0:  ADDWFC x35,W
0A2B2:  MOVWF  03
0A2B4:  MOVF   01,W
0A2B6:  ADDLW  6C
0A2B8:  MOVWF  FE9
0A2BA:  MOVLW  05
0A2BC:  ADDWFC 03,W
0A2BE:  MOVWF  FEA
0A2C0:  MOVFF  FEF,634
0A2C4:  MOVFF  A0,63B
0A2C8:  MOVLW  0A
0A2CA:  MOVWF  x3C
0A2CC:  MOVLB  0
0A2CE:  CALL   36B2
0A2D2:  MOVF   01,W
0A2D4:  MOVLB  6
0A2D6:  SUBWF  x34,W
0A2D8:  MOVLB  0
0A2DA:  MOVWF  xA3
0A2DC:  MOVLB  2
....................          } 
....................       } 
....................        
....................       if(RX_Buffer[4]==0x50 && CicloLibre>0){//50, PulsosVacio 
0A2DE:  MOVF   34,W
0A2E0:  SUBLW  50
0A2E2:  BNZ   A2E8
0A2E4:  MOVF   x31,F
0A2E6:  BZ    A2E8
....................          /*if(codigoUsuario==0 || codigoUsuario==9){   
....................             printf("page Pulsos"); 
....................             SendDataDisplay();      
....................             Pulsos=CiclosPersonalizados[CicloLibre-1].PulsosVacio; 
....................          }*/ 
....................       } 
....................        
....................       if(RX_Buffer[4]==0x60 && CicloLibre>0){//60, NivelVacio 
0A2E8:  MOVF   34,W
0A2EA:  SUBLW  60
0A2EC:  BNZ   A2F2
0A2EE:  MOVF   x31,F
0A2F0:  BZ    A2F2
....................          /*if(codigoUsuario==0 || codigoUsuario==9){   
....................             printf("page Nivel"); 
....................             SendDataDisplay();      
....................             Nivel=CiclosPersonalizados[CicloLibre-1].NivelVacio; 
....................          }*/ 
....................       } 
....................        
....................       if(RX_Buffer[4]==0x80 && CicloLibre>0){//80, NivelDesfogue 
0A2F2:  MOVF   34,W
0A2F4:  SUBLW  80
0A2F6:  BNZ   A34A
0A2F8:  MOVF   x31,F
0A2FA:  BZ    A34A
....................          if(codigoUsuario==0 || codigoUsuario==9){   
0A2FC:  MOVF   x34,F
0A2FE:  BZ    A306
0A300:  MOVF   x34,W
0A302:  SUBLW  09
0A304:  BNZ   A34A
....................             printf("page NivelDes"); 
0A306:  MOVLW  68
0A308:  MOVWF  FF6
0A30A:  MOVLW  10
0A30C:  MOVWF  FF7
0A30E:  MOVLW  00
0A310:  MOVWF  FF8
0A312:  MOVLB  0
0A314:  CALL   3B38
....................             SendDataDisplay();      
0A318:  CALL   3B6A
....................             NivelDes=CiclosPersonalizados[CicloLibre-1].NivelDesfogue; 
0A31C:  MOVLW  01
0A31E:  MOVLB  2
0A320:  SUBWF  x31,W
0A322:  MULLW  08
0A324:  MOVF   FF3,W
0A326:  MOVLB  6
0A328:  CLRF   x35
0A32A:  MOVWF  x34
0A32C:  MOVLW  07
0A32E:  ADDWF  x34,W
0A330:  MOVWF  01
0A332:  MOVLW  00
0A334:  ADDWFC x35,W
0A336:  MOVWF  03
0A338:  MOVF   01,W
0A33A:  ADDLW  6C
0A33C:  MOVWF  FE9
0A33E:  MOVLW  05
0A340:  ADDWFC 03,W
0A342:  MOVWF  FEA
0A344:  MOVFF  FEF,20C
0A348:  MOVLB  2
....................          } 
....................       } 
....................        
....................       if(RX_Buffer[4]==0x70 && CicloLibre>0){//70, Iniciar Ciclo 
0A34A:  MOVF   34,W
0A34C:  SUBLW  70
0A34E:  BTFSS  FD8.2
0A350:  BRA    A93A
0A352:  MOVF   x31,F
0A354:  BTFSC  FD8.2
0A356:  BRA    A93A
....................                    
....................          printf("page Funcionamiento"); 
0A358:  MOVLW  76
0A35A:  MOVWF  FF6
0A35C:  MOVLW  10
0A35E:  MOVWF  FF7
0A360:  MOVLW  00
0A362:  MOVWF  FF8
0A364:  MOVLB  0
0A366:  CALL   3B38
....................          SendDataDisplay();        
0A36A:  CALL   3B6A
....................          Libre=ON; 
0A36E:  BSF    x8B.0
....................          if(CiclosPersonalizados[CicloLibre-1].NivelDesfogue>5){ 
0A370:  MOVLW  01
0A372:  MOVLB  2
0A374:  SUBWF  x31,W
0A376:  MULLW  08
0A378:  MOVF   FF3,W
0A37A:  MOVLB  6
0A37C:  CLRF   x35
0A37E:  MOVWF  x34
0A380:  MOVLW  07
0A382:  ADDWF  x34,W
0A384:  MOVWF  01
0A386:  MOVLW  00
0A388:  ADDWFC x35,W
0A38A:  MOVWF  03
0A38C:  MOVF   01,W
0A38E:  ADDLW  6C
0A390:  MOVWF  FE9
0A392:  MOVLW  05
0A394:  ADDWFC 03,W
0A396:  MOVWF  FEA
0A398:  MOVF   FEF,W
0A39A:  SUBLW  05
0A39C:  BTFSC  FD8.0
0A39E:  BRA    A64A
....................             ConfiguraCiclo(CiclosPersonalizados[CicloLibre-1].Segundoest-(Testerilizacion[1]*10), 
....................                         CiclosPersonalizados[CicloLibre-1].Segundoest/10, 
....................                         CiclosPersonalizados[CicloLibre-1].Minutoest-(Testerilizacion[3]*10), 
....................                         CiclosPersonalizados[CicloLibre-1].Minutoest/10, 
....................                         CiclosPersonalizados[CicloLibre-1].Segundosec-(Tsecado[1]*10), 
....................                         CiclosPersonalizados[CicloLibre-1].Segundosec/10, 
....................                         CiclosPersonalizados[CicloLibre-1].Minutosec-(Tsecado[3]*10), 
....................                         CiclosPersonalizados[CicloLibre-1].Minutosec/10,0,CicloLibre+10,CiclosPersonalizados[CicloLibre-1].Temperatura);             
0A3A0:  MOVLW  01
0A3A2:  MOVLB  2
0A3A4:  SUBWF  x31,W
0A3A6:  MULLW  08
0A3A8:  MOVF   FF3,W
0A3AA:  MOVLB  6
0A3AC:  CLRF   x35
0A3AE:  MOVWF  x34
0A3B0:  MOVLW  02
0A3B2:  ADDWF  x34,W
0A3B4:  MOVWF  01
0A3B6:  MOVLW  00
0A3B8:  ADDWFC x35,W
0A3BA:  MOVWF  03
0A3BC:  MOVF   01,W
0A3BE:  ADDLW  6C
0A3C0:  MOVWF  FE9
0A3C2:  MOVLW  05
0A3C4:  ADDWFC 03,W
0A3C6:  MOVWF  FEA
0A3C8:  MOVFF  FEF,634
0A3CC:  MOVFF  98,63B
0A3D0:  MOVLW  0A
0A3D2:  MOVWF  x3C
0A3D4:  MOVLB  0
0A3D6:  CALL   36B2
0A3DA:  MOVF   01,W
0A3DC:  MOVLB  6
0A3DE:  SUBWF  x34,F
0A3E0:  MOVLW  01
0A3E2:  MOVLB  2
0A3E4:  SUBWF  x31,W
0A3E6:  MULLW  08
0A3E8:  MOVF   FF3,W
0A3EA:  MOVLB  6
0A3EC:  CLRF   x36
0A3EE:  MOVWF  x35
0A3F0:  MOVLW  02
0A3F2:  ADDWF  x35,W
0A3F4:  MOVWF  01
0A3F6:  MOVLW  00
0A3F8:  ADDWFC x36,W
0A3FA:  MOVWF  03
0A3FC:  MOVF   01,W
0A3FE:  ADDLW  6C
0A400:  MOVWF  FE9
0A402:  MOVLW  05
0A404:  ADDWFC 03,W
0A406:  MOVWF  FEA
0A408:  MOVFF  FEF,63D
0A40C:  MOVLW  0A
0A40E:  MOVWF  x3E
0A410:  MOVLB  0
0A412:  CALL   4BD0
0A416:  MOVFF  01,635
0A41A:  MOVLW  01
0A41C:  MOVLB  2
0A41E:  SUBWF  x31,W
0A420:  MULLW  08
0A422:  MOVF   FF3,W
0A424:  MOVLB  6
0A426:  CLRF   x37
0A428:  MOVWF  x36
0A42A:  MOVLW  01
0A42C:  ADDWF  x36,W
0A42E:  MOVWF  01
0A430:  MOVLW  00
0A432:  ADDWFC x37,W
0A434:  MOVWF  03
0A436:  MOVF   01,W
0A438:  ADDLW  6C
0A43A:  MOVWF  FE9
0A43C:  MOVLW  05
0A43E:  ADDWFC 03,W
0A440:  MOVWF  FEA
0A442:  MOVFF  FEF,636
0A446:  MOVFF  9A,63B
0A44A:  MOVLW  0A
0A44C:  MOVWF  x3C
0A44E:  MOVLB  0
0A450:  CALL   36B2
0A454:  MOVF   01,W
0A456:  MOVLB  6
0A458:  SUBWF  x36,F
0A45A:  MOVLW  01
0A45C:  MOVLB  2
0A45E:  SUBWF  x31,W
0A460:  MULLW  08
0A462:  MOVF   FF3,W
0A464:  MOVLB  6
0A466:  CLRF   x38
0A468:  MOVWF  x37
0A46A:  MOVLW  01
0A46C:  ADDWF  x37,W
0A46E:  MOVWF  01
0A470:  MOVLW  00
0A472:  ADDWFC x38,W
0A474:  MOVWF  03
0A476:  MOVF   01,W
0A478:  ADDLW  6C
0A47A:  MOVWF  FE9
0A47C:  MOVLW  05
0A47E:  ADDWFC 03,W
0A480:  MOVWF  FEA
0A482:  MOVFF  FEF,63D
0A486:  MOVLW  0A
0A488:  MOVWF  x3E
0A48A:  MOVLB  0
0A48C:  CALL   4BD0
0A490:  MOVFF  01,637
0A494:  MOVLW  01
0A496:  MOVLB  2
0A498:  SUBWF  x31,W
0A49A:  MULLW  08
0A49C:  MOVF   FF3,W
0A49E:  MOVLB  6
0A4A0:  CLRF   x39
0A4A2:  MOVWF  x38
0A4A4:  MOVLW  04
0A4A6:  ADDWF  x38,W
0A4A8:  MOVWF  01
0A4AA:  MOVLW  00
0A4AC:  ADDWFC x39,W
0A4AE:  MOVWF  03
0A4B0:  MOVF   01,W
0A4B2:  ADDLW  6C
0A4B4:  MOVWF  FE9
0A4B6:  MOVLW  05
0A4B8:  ADDWFC 03,W
0A4BA:  MOVWF  FEA
0A4BC:  MOVFF  FEF,638
0A4C0:  MOVFF  A0,63B
0A4C4:  MOVLW  0A
0A4C6:  MOVWF  x3C
0A4C8:  MOVLB  0
0A4CA:  CALL   36B2
0A4CE:  MOVF   01,W
0A4D0:  MOVLB  6
0A4D2:  SUBWF  x38,F
0A4D4:  MOVLW  01
0A4D6:  MOVLB  2
0A4D8:  SUBWF  x31,W
0A4DA:  MULLW  08
0A4DC:  MOVF   FF3,W
0A4DE:  MOVLB  6
0A4E0:  CLRF   x3A
0A4E2:  MOVWF  x39
0A4E4:  MOVLW  04
0A4E6:  ADDWF  x39,W
0A4E8:  MOVWF  01
0A4EA:  MOVLW  00
0A4EC:  ADDWFC x3A,W
0A4EE:  MOVWF  03
0A4F0:  MOVF   01,W
0A4F2:  ADDLW  6C
0A4F4:  MOVWF  FE9
0A4F6:  MOVLW  05
0A4F8:  ADDWFC 03,W
0A4FA:  MOVWF  FEA
0A4FC:  MOVFF  FEF,63D
0A500:  MOVLW  0A
0A502:  MOVWF  x3E
0A504:  MOVLB  0
0A506:  CALL   4BD0
0A50A:  MOVFF  01,639
0A50E:  MOVLW  01
0A510:  MOVLB  2
0A512:  SUBWF  x31,W
0A514:  MULLW  08
0A516:  MOVF   FF3,W
0A518:  MOVLB  6
0A51A:  CLRF   x3B
0A51C:  MOVWF  x3A
0A51E:  MOVLW  03
0A520:  ADDWF  x3A,W
0A522:  MOVWF  01
0A524:  MOVLW  00
0A526:  ADDWFC x3B,W
0A528:  MOVWF  03
0A52A:  MOVF   01,W
0A52C:  ADDLW  6C
0A52E:  MOVWF  FE9
0A530:  MOVLW  05
0A532:  ADDWFC 03,W
0A534:  MOVWF  FEA
0A536:  MOVFF  FEF,63A
0A53A:  MOVFF  A2,63B
0A53E:  MOVLW  0A
0A540:  MOVWF  x3C
0A542:  MOVLB  0
0A544:  CALL   36B2
0A548:  MOVF   01,W
0A54A:  MOVLB  6
0A54C:  SUBWF  x3A,F
0A54E:  MOVLW  01
0A550:  MOVLB  2
0A552:  SUBWF  x31,W
0A554:  MULLW  08
0A556:  MOVF   FF3,W
0A558:  MOVLB  6
0A55A:  CLRF   x3C
0A55C:  MOVWF  x3B
0A55E:  MOVLW  03
0A560:  ADDWF  x3B,W
0A562:  MOVWF  01
0A564:  MOVLW  00
0A566:  ADDWFC x3C,W
0A568:  MOVWF  03
0A56A:  MOVF   01,W
0A56C:  ADDLW  6C
0A56E:  MOVWF  FE9
0A570:  MOVLW  05
0A572:  ADDWFC 03,W
0A574:  MOVWF  FEA
0A576:  MOVFF  FEF,63D
0A57A:  MOVLW  0A
0A57C:  MOVWF  x3E
0A57E:  MOVLB  0
0A580:  CALL   4BD0
0A584:  MOVFF  01,63B
0A588:  MOVLW  0A
0A58A:  MOVLB  2
0A58C:  ADDWF  x31,W
0A58E:  MOVLB  6
0A590:  MOVWF  x3C
0A592:  MOVLW  01
0A594:  MOVLB  2
0A596:  SUBWF  x31,W
0A598:  MULLW  08
0A59A:  MOVF   FF3,W
0A59C:  MOVLB  6
0A59E:  CLRF   x3E
0A5A0:  MOVWF  x3D
0A5A2:  MOVLW  6C
0A5A4:  ADDWF  x3D,W
0A5A6:  MOVWF  FE9
0A5A8:  MOVLW  05
0A5AA:  ADDWFC x3E,W
0A5AC:  MOVWF  FEA
0A5AE:  MOVFF  FEF,63D
0A5B2:  MOVFF  634,63E
0A5B6:  MOVFF  635,63F
0A5BA:  MOVFF  636,640
0A5BE:  MOVFF  637,641
0A5C2:  MOVFF  638,642
0A5C6:  MOVFF  639,643
0A5CA:  MOVFF  63A,644
0A5CE:  MOVFF  01,645
0A5D2:  CLRF   x46
0A5D4:  MOVFF  63C,647
0A5D8:  MOVFF  63D,648
0A5DC:  MOVLB  0
0A5DE:  CALL   4C7A
....................             NivelVacio=CiclosPersonalizados[CicloLibre-1].NivelVacio; 
0A5E2:  MOVLW  01
0A5E4:  MOVLB  2
0A5E6:  SUBWF  x31,W
0A5E8:  MULLW  08
0A5EA:  MOVF   FF3,W
0A5EC:  MOVLB  6
0A5EE:  CLRF   x35
0A5F0:  MOVWF  x34
0A5F2:  MOVLW  06
0A5F4:  ADDWF  x34,W
0A5F6:  MOVWF  01
0A5F8:  MOVLW  00
0A5FA:  ADDWFC x35,W
0A5FC:  MOVWF  03
0A5FE:  MOVF   01,W
0A600:  ADDLW  6C
0A602:  MOVWF  FE9
0A604:  MOVLW  05
0A606:  ADDWFC 03,W
0A608:  MOVWF  FEA
0A60A:  MOVFF  FEF,224
0A60E:  MOVLB  2
....................             CantidadPulsos=CiclosPersonalizados[CicloLibre-1].PulsosVacio; 
0A610:  MOVLW  01
0A612:  SUBWF  x31,W
0A614:  MULLW  08
0A616:  MOVF   FF3,W
0A618:  MOVLB  6
0A61A:  CLRF   x35
0A61C:  MOVWF  x34
0A61E:  MOVLW  05
0A620:  ADDWF  x34,W
0A622:  MOVWF  01
0A624:  MOVLW  00
0A626:  ADDWFC x35,W
0A628:  MOVWF  03
0A62A:  MOVF   01,W
0A62C:  ADDLW  6C
0A62E:  MOVWF  FE9
0A630:  MOVLW  05
0A632:  ADDWFC 03,W
0A634:  MOVWF  FEA
0A636:  MOVF   FEF,W
0A638:  CLRF   03
0A63A:  MOVLB  1
0A63C:  MOVWF  xE5
0A63E:  MOVFF  03,1E6
....................             Fugas=OFF; 
0A642:  MOVLB  0
0A644:  BCF    x8B.2
....................          }else{ 
0A646:  BRA    A938
0A648:  MOVLB  6
....................             ConfiguraCiclo(CiclosPersonalizados[CicloLibre-1].Segundoest-(Testerilizacion[1]*10), 
....................                         CiclosPersonalizados[CicloLibre-1].Segundoest/10, 
....................                         CiclosPersonalizados[CicloLibre-1].Minutoest-(Testerilizacion[3]*10), 
....................                         CiclosPersonalizados[CicloLibre-1].Minutoest/10, 
....................                         CiclosPersonalizados[CicloLibre-1].Segundosec-(Tsecado[1]*10), 
....................                         CiclosPersonalizados[CicloLibre-1].Segundosec/10, 
....................                         CiclosPersonalizados[CicloLibre-1].Minutosec-(Tsecado[3]*10), 
....................                         CiclosPersonalizados[CicloLibre-1].Minutosec/10,1,CicloLibre+10,CiclosPersonalizados[CicloLibre-1].Temperatura);             
0A64A:  MOVLW  01
0A64C:  MOVLB  2
0A64E:  SUBWF  x31,W
0A650:  MULLW  08
0A652:  MOVF   FF3,W
0A654:  MOVLB  6
0A656:  CLRF   x35
0A658:  MOVWF  x34
0A65A:  MOVLW  02
0A65C:  ADDWF  x34,W
0A65E:  MOVWF  01
0A660:  MOVLW  00
0A662:  ADDWFC x35,W
0A664:  MOVWF  03
0A666:  MOVF   01,W
0A668:  ADDLW  6C
0A66A:  MOVWF  FE9
0A66C:  MOVLW  05
0A66E:  ADDWFC 03,W
0A670:  MOVWF  FEA
0A672:  MOVFF  FEF,634
0A676:  MOVFF  98,63B
0A67A:  MOVLW  0A
0A67C:  MOVWF  x3C
0A67E:  MOVLB  0
0A680:  CALL   36B2
0A684:  MOVF   01,W
0A686:  MOVLB  6
0A688:  SUBWF  x34,F
0A68A:  MOVLW  01
0A68C:  MOVLB  2
0A68E:  SUBWF  x31,W
0A690:  MULLW  08
0A692:  MOVF   FF3,W
0A694:  MOVLB  6
0A696:  CLRF   x36
0A698:  MOVWF  x35
0A69A:  MOVLW  02
0A69C:  ADDWF  x35,W
0A69E:  MOVWF  01
0A6A0:  MOVLW  00
0A6A2:  ADDWFC x36,W
0A6A4:  MOVWF  03
0A6A6:  MOVF   01,W
0A6A8:  ADDLW  6C
0A6AA:  MOVWF  FE9
0A6AC:  MOVLW  05
0A6AE:  ADDWFC 03,W
0A6B0:  MOVWF  FEA
0A6B2:  MOVFF  FEF,63D
0A6B6:  MOVLW  0A
0A6B8:  MOVWF  x3E
0A6BA:  MOVLB  0
0A6BC:  CALL   4BD0
0A6C0:  MOVFF  01,635
0A6C4:  MOVLW  01
0A6C6:  MOVLB  2
0A6C8:  SUBWF  x31,W
0A6CA:  MULLW  08
0A6CC:  MOVF   FF3,W
0A6CE:  MOVLB  6
0A6D0:  CLRF   x37
0A6D2:  MOVWF  x36
0A6D4:  MOVLW  01
0A6D6:  ADDWF  x36,W
0A6D8:  MOVWF  01
0A6DA:  MOVLW  00
0A6DC:  ADDWFC x37,W
0A6DE:  MOVWF  03
0A6E0:  MOVF   01,W
0A6E2:  ADDLW  6C
0A6E4:  MOVWF  FE9
0A6E6:  MOVLW  05
0A6E8:  ADDWFC 03,W
0A6EA:  MOVWF  FEA
0A6EC:  MOVFF  FEF,636
0A6F0:  MOVFF  9A,63B
0A6F4:  MOVLW  0A
0A6F6:  MOVWF  x3C
0A6F8:  MOVLB  0
0A6FA:  CALL   36B2
0A6FE:  MOVF   01,W
0A700:  MOVLB  6
0A702:  SUBWF  x36,F
0A704:  MOVLW  01
0A706:  MOVLB  2
0A708:  SUBWF  x31,W
0A70A:  MULLW  08
0A70C:  MOVF   FF3,W
0A70E:  MOVLB  6
0A710:  CLRF   x38
0A712:  MOVWF  x37
0A714:  MOVLW  01
0A716:  ADDWF  x37,W
0A718:  MOVWF  01
0A71A:  MOVLW  00
0A71C:  ADDWFC x38,W
0A71E:  MOVWF  03
0A720:  MOVF   01,W
0A722:  ADDLW  6C
0A724:  MOVWF  FE9
0A726:  MOVLW  05
0A728:  ADDWFC 03,W
0A72A:  MOVWF  FEA
0A72C:  MOVFF  FEF,63D
0A730:  MOVLW  0A
0A732:  MOVWF  x3E
0A734:  MOVLB  0
0A736:  CALL   4BD0
0A73A:  MOVFF  01,637
0A73E:  MOVLW  01
0A740:  MOVLB  2
0A742:  SUBWF  x31,W
0A744:  MULLW  08
0A746:  MOVF   FF3,W
0A748:  MOVLB  6
0A74A:  CLRF   x39
0A74C:  MOVWF  x38
0A74E:  MOVLW  04
0A750:  ADDWF  x38,W
0A752:  MOVWF  01
0A754:  MOVLW  00
0A756:  ADDWFC x39,W
0A758:  MOVWF  03
0A75A:  MOVF   01,W
0A75C:  ADDLW  6C
0A75E:  MOVWF  FE9
0A760:  MOVLW  05
0A762:  ADDWFC 03,W
0A764:  MOVWF  FEA
0A766:  MOVFF  FEF,638
0A76A:  MOVFF  A0,63B
0A76E:  MOVLW  0A
0A770:  MOVWF  x3C
0A772:  MOVLB  0
0A774:  CALL   36B2
0A778:  MOVF   01,W
0A77A:  MOVLB  6
0A77C:  SUBWF  x38,F
0A77E:  MOVLW  01
0A780:  MOVLB  2
0A782:  SUBWF  x31,W
0A784:  MULLW  08
0A786:  MOVF   FF3,W
0A788:  MOVLB  6
0A78A:  CLRF   x3A
0A78C:  MOVWF  x39
0A78E:  MOVLW  04
0A790:  ADDWF  x39,W
0A792:  MOVWF  01
0A794:  MOVLW  00
0A796:  ADDWFC x3A,W
0A798:  MOVWF  03
0A79A:  MOVF   01,W
0A79C:  ADDLW  6C
0A79E:  MOVWF  FE9
0A7A0:  MOVLW  05
0A7A2:  ADDWFC 03,W
0A7A4:  MOVWF  FEA
0A7A6:  MOVFF  FEF,63D
0A7AA:  MOVLW  0A
0A7AC:  MOVWF  x3E
0A7AE:  MOVLB  0
0A7B0:  CALL   4BD0
0A7B4:  MOVFF  01,639
0A7B8:  MOVLW  01
0A7BA:  MOVLB  2
0A7BC:  SUBWF  x31,W
0A7BE:  MULLW  08
0A7C0:  MOVF   FF3,W
0A7C2:  MOVLB  6
0A7C4:  CLRF   x3B
0A7C6:  MOVWF  x3A
0A7C8:  MOVLW  03
0A7CA:  ADDWF  x3A,W
0A7CC:  MOVWF  01
0A7CE:  MOVLW  00
0A7D0:  ADDWFC x3B,W
0A7D2:  MOVWF  03
0A7D4:  MOVF   01,W
0A7D6:  ADDLW  6C
0A7D8:  MOVWF  FE9
0A7DA:  MOVLW  05
0A7DC:  ADDWFC 03,W
0A7DE:  MOVWF  FEA
0A7E0:  MOVFF  FEF,63A
0A7E4:  MOVFF  A2,63B
0A7E8:  MOVLW  0A
0A7EA:  MOVWF  x3C
0A7EC:  MOVLB  0
0A7EE:  CALL   36B2
0A7F2:  MOVF   01,W
0A7F4:  MOVLB  6
0A7F6:  SUBWF  x3A,F
0A7F8:  MOVLW  01
0A7FA:  MOVLB  2
0A7FC:  SUBWF  x31,W
0A7FE:  MULLW  08
0A800:  MOVF   FF3,W
0A802:  MOVLB  6
0A804:  CLRF   x3C
0A806:  MOVWF  x3B
0A808:  MOVLW  03
0A80A:  ADDWF  x3B,W
0A80C:  MOVWF  01
0A80E:  MOVLW  00
0A810:  ADDWFC x3C,W
0A812:  MOVWF  03
0A814:  MOVF   01,W
0A816:  ADDLW  6C
0A818:  MOVWF  FE9
0A81A:  MOVLW  05
0A81C:  ADDWFC 03,W
0A81E:  MOVWF  FEA
0A820:  MOVFF  FEF,63D
0A824:  MOVLW  0A
0A826:  MOVWF  x3E
0A828:  MOVLB  0
0A82A:  CALL   4BD0
0A82E:  MOVFF  01,63B
0A832:  MOVLW  0A
0A834:  MOVLB  2
0A836:  ADDWF  x31,W
0A838:  MOVLB  6
0A83A:  MOVWF  x3C
0A83C:  MOVLW  01
0A83E:  MOVLB  2
0A840:  SUBWF  x31,W
0A842:  MULLW  08
0A844:  MOVF   FF3,W
0A846:  MOVLB  6
0A848:  CLRF   x3E
0A84A:  MOVWF  x3D
0A84C:  MOVLW  6C
0A84E:  ADDWF  x3D,W
0A850:  MOVWF  FE9
0A852:  MOVLW  05
0A854:  ADDWFC x3E,W
0A856:  MOVWF  FEA
0A858:  MOVFF  FEF,63D
0A85C:  MOVFF  634,63E
0A860:  MOVFF  635,63F
0A864:  MOVFF  636,640
0A868:  MOVFF  637,641
0A86C:  MOVFF  638,642
0A870:  MOVFF  639,643
0A874:  MOVFF  63A,644
0A878:  MOVFF  01,645
0A87C:  MOVLW  01
0A87E:  MOVWF  x46
0A880:  MOVFF  63C,647
0A884:  MOVFF  63D,648
0A888:  MOVLB  0
0A88A:  CALL   4C7A
....................             NivelVacio=CiclosPersonalizados[CicloLibre-1].NivelVacio; 
0A88E:  MOVLW  01
0A890:  MOVLB  2
0A892:  SUBWF  x31,W
0A894:  MULLW  08
0A896:  MOVF   FF3,W
0A898:  MOVLB  6
0A89A:  CLRF   x35
0A89C:  MOVWF  x34
0A89E:  MOVLW  06
0A8A0:  ADDWF  x34,W
0A8A2:  MOVWF  01
0A8A4:  MOVLW  00
0A8A6:  ADDWFC x35,W
0A8A8:  MOVWF  03
0A8AA:  MOVF   01,W
0A8AC:  ADDLW  6C
0A8AE:  MOVWF  FE9
0A8B0:  MOVLW  05
0A8B2:  ADDWFC 03,W
0A8B4:  MOVWF  FEA
0A8B6:  MOVFF  FEF,224
0A8BA:  MOVLB  2
....................             CantidadPulsos=CiclosPersonalizados[CicloLibre-1].PulsosVacio; 
0A8BC:  MOVLW  01
0A8BE:  SUBWF  x31,W
0A8C0:  MULLW  08
0A8C2:  MOVF   FF3,W
0A8C4:  MOVLB  6
0A8C6:  CLRF   x35
0A8C8:  MOVWF  x34
0A8CA:  MOVLW  05
0A8CC:  ADDWF  x34,W
0A8CE:  MOVWF  01
0A8D0:  MOVLW  00
0A8D2:  ADDWFC x35,W
0A8D4:  MOVWF  03
0A8D6:  MOVF   01,W
0A8D8:  ADDLW  6C
0A8DA:  MOVWF  FE9
0A8DC:  MOVLW  05
0A8DE:  ADDWFC 03,W
0A8E0:  MOVWF  FEA
0A8E2:  MOVF   FEF,W
0A8E4:  CLRF   03
0A8E6:  MOVLB  1
0A8E8:  MOVWF  xE5
0A8EA:  MOVFF  03,1E6
....................             NivelSeleccionado=9990*CiclosPersonalizados[CicloLibre-1].NivelDesfogue; 
0A8EE:  MOVLW  01
0A8F0:  MOVLB  2
0A8F2:  SUBWF  x31,W
0A8F4:  MULLW  08
0A8F6:  MOVF   FF3,W
0A8F8:  MOVLB  6
0A8FA:  CLRF   x35
0A8FC:  MOVWF  x34
0A8FE:  MOVLW  07
0A900:  ADDWF  x34,W
0A902:  MOVWF  01
0A904:  MOVLW  00
0A906:  ADDWFC x35,W
0A908:  MOVWF  03
0A90A:  MOVF   01,W
0A90C:  ADDLW  6C
0A90E:  MOVWF  FE9
0A910:  MOVLW  05
0A912:  ADDWFC 03,W
0A914:  MOVWF  FEA
0A916:  MOVFF  FEF,634
0A91A:  MOVLW  27
0A91C:  MOVWF  x3D
0A91E:  MOVLW  06
0A920:  MOVWF  x3C
0A922:  CLRF   x3F
0A924:  MOVFF  634,63E
0A928:  MOVLB  0
0A92A:  CALL   2178
0A92E:  MOVFF  02,218
0A932:  MOVFF  01,217
....................             Fugas=OFF; 
0A936:  BCF    x8B.2
0A938:  MOVLB  2
0A93A:  MOVLB  1
....................          } 
....................       } 
....................    } 
.................... //_--------------------------------------------------------------------------------------------------------------------------------------------------------        
....................  
.................... //_--------------------------------------------------------------------------------------------------------------------------------------------------------       
....................    if(Menu==9){//Menu de Pulsos de Vacio 
0A93C:  MOVF   xDD,W
0A93E:  SUBLW  09
0A940:  BTFSS  FD8.2
0A942:  BRA    AB12
....................       printf("fecha.txt=\"Fecha:%02u/%02u/20%02u Hora: %02u:%02u:%02u\"",Dia,Mes,Year,Hora,Minuto,Segundo); 
0A944:  MOVLW  8A
0A946:  MOVWF  FF6
0A948:  MOVLW  10
0A94A:  MOVWF  FF7
0A94C:  MOVLW  00
0A94E:  MOVWF  FF8
0A950:  MOVLW  11
0A952:  MOVLB  6
0A954:  MOVWF  x39
0A956:  MOVLB  0
0A958:  CALL   4B78
0A95C:  MOVFF  21D,639
0A960:  MOVLW  01
0A962:  MOVLB  6
0A964:  MOVWF  x3A
0A966:  MOVLB  0
0A968:  CALL   4BFC
0A96C:  MOVLW  2F
0A96E:  BTFSS  F9E.4
0A970:  BRA    A96E
0A972:  MOVWF  FAD
0A974:  MOVFF  21C,639
0A978:  MOVLW  01
0A97A:  MOVLB  6
0A97C:  MOVWF  x3A
0A97E:  MOVLB  0
0A980:  CALL   4BFC
0A984:  MOVLW  2F
0A986:  BTFSS  F9E.4
0A988:  BRA    A986
0A98A:  MOVWF  FAD
0A98C:  MOVLW  32
0A98E:  BTFSS  F9E.4
0A990:  BRA    A98E
0A992:  MOVWF  FAD
0A994:  MOVLW  30
0A996:  BTFSS  F9E.4
0A998:  BRA    A996
0A99A:  MOVWF  FAD
0A99C:  MOVFF  21B,639
0A9A0:  MOVLW  01
0A9A2:  MOVLB  6
0A9A4:  MOVWF  x3A
0A9A6:  MOVLB  0
0A9A8:  CALL   4BFC
0A9AC:  MOVLW  AB
0A9AE:  MOVWF  FF6
0A9B0:  MOVLW  10
0A9B2:  MOVWF  FF7
0A9B4:  MOVLW  00
0A9B6:  MOVWF  FF8
0A9B8:  MOVLW  07
0A9BA:  MOVLB  6
0A9BC:  MOVWF  x39
0A9BE:  MOVLB  0
0A9C0:  CALL   4B78
0A9C4:  MOVFF  21E,639
0A9C8:  MOVLW  01
0A9CA:  MOVLB  6
0A9CC:  MOVWF  x3A
0A9CE:  MOVLB  0
0A9D0:  CALL   4BFC
0A9D4:  MOVLW  3A
0A9D6:  BTFSS  F9E.4
0A9D8:  BRA    A9D6
0A9DA:  MOVWF  FAD
0A9DC:  MOVFF  21F,639
0A9E0:  MOVLW  01
0A9E2:  MOVLB  6
0A9E4:  MOVWF  x3A
0A9E6:  MOVLB  0
0A9E8:  CALL   4BFC
0A9EC:  MOVLW  3A
0A9EE:  BTFSS  F9E.4
0A9F0:  BRA    A9EE
0A9F2:  MOVWF  FAD
0A9F4:  MOVFF  220,639
0A9F8:  MOVLW  01
0A9FA:  MOVLB  6
0A9FC:  MOVWF  x3A
0A9FE:  MOVLB  0
0AA00:  CALL   4BFC
0AA04:  MOVLW  22
0AA06:  BTFSS  F9E.4
0AA08:  BRA    AA06
0AA0A:  MOVWF  FAD
....................       SendDataDisplay(); 
0AA0C:  CALL   3B6A
....................          if(Pulsos<5) 
0AA10:  MOVLB  2
0AA12:  MOVF   x32,W
0AA14:  SUBLW  04
0AA16:  BNC   AA1C
....................             Pulsos=15; 
0AA18:  MOVLW  0F
0AA1A:  MOVWF  x32
....................          if(Pulsos>15) 
0AA1C:  MOVF   x32,W
0AA1E:  SUBLW  0F
0AA20:  BC    AA26
....................             Pulsos=5; 
0AA22:  MOVLW  05
0AA24:  MOVWF  x32
....................           
....................          if(RX_Buffer[4]==0x11){//Selecciono Regresar 
0AA26:  MOVF   34,W
0AA28:  SUBLW  11
0AA2A:  BNZ   AAC4
....................             Segundos=OFF; 
0AA2C:  MOVLB  0
0AA2E:  BCF    x89.4
....................             Minutos=OFF;             
0AA30:  BCF    x89.3
....................             printf("page CicloPersona"); 
0AA32:  MOVLW  C2
0AA34:  MOVWF  FF6
0AA36:  MOVLW  10
0AA38:  MOVWF  FF7
0AA3A:  MOVLW  00
0AA3C:  MOVWF  FF8
0AA3E:  CALL   3B38
....................             SendDataDisplay();   
0AA42:  CALL   3B6A
....................             if(!GuardaEEPROM){     
0AA46:  BTFSC  x89.5
0AA48:  BRA    AAC2
....................                CiclosPersonalizados[CicloLibre-1].PulsosVacio=Pulsos; 
0AA4A:  MOVLW  01
0AA4C:  MOVLB  2
0AA4E:  SUBWF  x31,W
0AA50:  MULLW  08
0AA52:  MOVF   FF3,W
0AA54:  MOVLB  6
0AA56:  CLRF   x35
0AA58:  MOVWF  x34
0AA5A:  MOVLW  05
0AA5C:  ADDWF  x34,W
0AA5E:  MOVWF  01
0AA60:  MOVLW  00
0AA62:  ADDWFC x35,W
0AA64:  MOVWF  03
0AA66:  MOVF   01,W
0AA68:  ADDLW  6C
0AA6A:  MOVWF  FE9
0AA6C:  MOVLW  05
0AA6E:  ADDWFC 03,W
0AA70:  MOVWF  FEA
0AA72:  MOVFF  232,FEF
....................                write_eeprom(105+((CicloLibre-1)*8),Pulsos); 
0AA76:  MOVLW  01
0AA78:  MOVLB  2
0AA7A:  SUBWF  x31,W
0AA7C:  MULLW  08
0AA7E:  MOVF   FF3,W
0AA80:  ADDLW  69
0AA82:  MOVLB  6
0AA84:  MOVWF  x34
0AA86:  CLRF   FAA
0AA88:  MOVFF  634,FA9
0AA8C:  MOVFF  232,FA8
0AA90:  BCF    FA6.6
0AA92:  BCF    FA6.7
0AA94:  BSF    FA6.2
0AA96:  MOVF   FF2,W
0AA98:  MOVWF  00
0AA9A:  BCF    FF2.6
0AA9C:  BCF    FF2.7
0AA9E:  MOVLB  F
0AAA0:  MOVLW  55
0AAA2:  MOVWF  FA7
0AAA4:  MOVLW  AA
0AAA6:  MOVWF  FA7
0AAA8:  BSF    FA6.1
0AAAA:  BTFSC  FA6.1
0AAAC:  BRA    AAAA
0AAAE:  BCF    FA6.2
0AAB0:  MOVF   00,W
0AAB2:  IORWF  FF2,F
....................                delay_ms(20);             
0AAB4:  MOVLW  14
0AAB6:  MOVLB  6
0AAB8:  MOVWF  x3D
0AABA:  MOVLB  0
0AABC:  CALL   1D06
....................                //NivelSeleccionado=9990*Nivel; 
....................                GuardaEEPROM=ON; 
0AAC0:  BSF    x89.5
0AAC2:  MOVLB  2
....................             } 
....................          } 
....................           
....................          if(RX_Buffer[4]==0x0d){//Tecla Arriba Oprimida 
0AAC4:  MOVF   34,W
0AAC6:  SUBLW  0D
0AAC8:  BNZ   AAD0
....................             Pulsos++; 
0AACA:  INCF   x32,F
....................             RX_Buffer[4]=0x00;             
0AACC:  CLRF   34
....................             RX_Buffer2[4]=0x00;             
0AACE:  CLRF   3F
....................             //BorraBuffer(); 
....................          } 
....................           
....................          if(RX_Buffer[4]==0x0c){//Tecla Abajo Oprimida 
0AAD0:  MOVF   34,W
0AAD2:  SUBLW  0C
0AAD4:  BNZ   AADC
....................             Pulsos--; 
0AAD6:  DECF   x32,F
....................             RX_Buffer[4]=0x00; 
0AAD8:  CLRF   34
....................             RX_Buffer2[4]=0x00;             
0AADA:  CLRF   3F
....................             //BorraBuffer(); 
....................          } 
....................           
....................       printf("tnivel.txt=\"%u\"",Pulsos); 
0AADC:  MOVLW  D4
0AADE:  MOVWF  FF6
0AAE0:  MOVLW  10
0AAE2:  MOVWF  FF7
0AAE4:  MOVLW  00
0AAE6:  MOVWF  FF8
0AAE8:  MOVLW  0C
0AAEA:  MOVLB  6
0AAEC:  MOVWF  x39
0AAEE:  MOVLB  0
0AAF0:  CALL   4B78
0AAF4:  MOVFF  232,639
0AAF8:  MOVLW  1B
0AAFA:  MOVLB  6
0AAFC:  MOVWF  x3A
0AAFE:  MOVLB  0
0AB00:  CALL   4BFC
0AB04:  MOVLW  22
0AB06:  BTFSS  F9E.4
0AB08:  BRA    AB06
0AB0A:  MOVWF  FAD
....................       SendDataDisplay(); 
0AB0C:  CALL   3B6A
0AB10:  MOVLB  1
....................    } 
.................... //_--------------------------------------------------------------------------------------------------------------------------------------------------------       
....................  
.................... //_--------------------------------------------------------------------------------------------------------------------------------------------------------       
....................    if(Menu==10){//Menu de Usuarios 
0AB12:  MOVF   xDD,W
0AB14:  SUBLW  0A
0AB16:  BTFSS  FD8.2
0AB18:  BRA    AFB4
....................       printf("fecha.txt=\"Fecha:%02u/%02u/20%02u Hora: %02u:%02u:%02u\"",Dia,Mes,Year,Hora,Minuto,Segundo); 
0AB1A:  MOVLW  E4
0AB1C:  MOVWF  FF6
0AB1E:  MOVLW  10
0AB20:  MOVWF  FF7
0AB22:  MOVLW  00
0AB24:  MOVWF  FF8
0AB26:  MOVLW  11
0AB28:  MOVLB  6
0AB2A:  MOVWF  x39
0AB2C:  MOVLB  0
0AB2E:  CALL   4B78
0AB32:  MOVFF  21D,639
0AB36:  MOVLW  01
0AB38:  MOVLB  6
0AB3A:  MOVWF  x3A
0AB3C:  MOVLB  0
0AB3E:  CALL   4BFC
0AB42:  MOVLW  2F
0AB44:  BTFSS  F9E.4
0AB46:  BRA    AB44
0AB48:  MOVWF  FAD
0AB4A:  MOVFF  21C,639
0AB4E:  MOVLW  01
0AB50:  MOVLB  6
0AB52:  MOVWF  x3A
0AB54:  MOVLB  0
0AB56:  CALL   4BFC
0AB5A:  MOVLW  2F
0AB5C:  BTFSS  F9E.4
0AB5E:  BRA    AB5C
0AB60:  MOVWF  FAD
0AB62:  MOVLW  32
0AB64:  BTFSS  F9E.4
0AB66:  BRA    AB64
0AB68:  MOVWF  FAD
0AB6A:  MOVLW  30
0AB6C:  BTFSS  F9E.4
0AB6E:  BRA    AB6C
0AB70:  MOVWF  FAD
0AB72:  MOVFF  21B,639
0AB76:  MOVLW  01
0AB78:  MOVLB  6
0AB7A:  MOVWF  x3A
0AB7C:  MOVLB  0
0AB7E:  CALL   4BFC
0AB82:  MOVLW  05
0AB84:  MOVWF  FF6
0AB86:  MOVLW  11
0AB88:  MOVWF  FF7
0AB8A:  MOVLW  00
0AB8C:  MOVWF  FF8
0AB8E:  MOVLW  07
0AB90:  MOVLB  6
0AB92:  MOVWF  x39
0AB94:  MOVLB  0
0AB96:  CALL   4B78
0AB9A:  MOVFF  21E,639
0AB9E:  MOVLW  01
0ABA0:  MOVLB  6
0ABA2:  MOVWF  x3A
0ABA4:  MOVLB  0
0ABA6:  CALL   4BFC
0ABAA:  MOVLW  3A
0ABAC:  BTFSS  F9E.4
0ABAE:  BRA    ABAC
0ABB0:  MOVWF  FAD
0ABB2:  MOVFF  21F,639
0ABB6:  MOVLW  01
0ABB8:  MOVLB  6
0ABBA:  MOVWF  x3A
0ABBC:  MOVLB  0
0ABBE:  CALL   4BFC
0ABC2:  MOVLW  3A
0ABC4:  BTFSS  F9E.4
0ABC6:  BRA    ABC4
0ABC8:  MOVWF  FAD
0ABCA:  MOVFF  220,639
0ABCE:  MOVLW  01
0ABD0:  MOVLB  6
0ABD2:  MOVWF  x3A
0ABD4:  MOVLB  0
0ABD6:  CALL   4BFC
0ABDA:  MOVLW  22
0ABDC:  BTFSS  F9E.4
0ABDE:  BRA    ABDC
0ABE0:  MOVWF  FAD
....................       SendDataDisplay(); 
0ABE2:  CALL   3B6A
....................       GuardaEEPROM=OFF; 
0ABE6:  BCF    x89.5
....................       if(ingreso) 
0ABE8:  BTFSS  x8B.1
0ABEA:  BRA    ABF4
....................          TipoClave=2; 
0ABEC:  MOVLW  02
0ABEE:  MOVLB  1
0ABF0:  MOVWF  x7F
....................       else 
0ABF2:  BRA    ABF8
....................          TipoClave=0; 
0ABF4:  MOVLB  1
0ABF6:  CLRF   x7F
....................        
....................       if(RX_Buffer[4]==0x01){//01, Admin 
0ABF8:  DECFSZ 34,W
0ABFA:  BRA    AC4E
....................          printf("page Clave"); 
0ABFC:  MOVLW  1C
0ABFE:  MOVWF  FF6
0AC00:  MOVLW  11
0AC02:  MOVWF  FF7
0AC04:  MOVLW  00
0AC06:  MOVWF  FF8
0AC08:  MOVLB  0
0AC0A:  CALL   3B38
....................          SendDataDisplay();        
0AC0E:  CALL   3B6A
....................          if(!ingreso){ 
0AC12:  BTFSC  x8B.1
0AC14:  BRA    AC46
....................             usuario="Admin"; 
0AC16:  MOVLW  02
0AC18:  MOVWF  FEA
0AC1A:  MOVLW  3A
0AC1C:  MOVWF  FE9
0AC1E:  MOVFF  FF2,634
0AC22:  BCF    FF2.6
0AC24:  BCF    FF2.7
0AC26:  MOVLW  00
0AC28:  CALL   0150
0AC2C:  TBLRD*-
0AC2E:  TBLRD*+
0AC30:  MOVF   FF5,W
0AC32:  MOVWF  FEE
0AC34:  IORLW  00
0AC36:  BNZ   AC2E
0AC38:  MOVLB  6
0AC3A:  BTFSC  x34.6
0AC3C:  BSF    FF2.6
0AC3E:  BTFSC  x34.7
0AC40:  BSF    FF2.7
....................             codigoUsuario=0; 
0AC42:  MOVLB  2
0AC44:  CLRF   x34
....................          } 
....................          codigoUsuario2=0; 
0AC46:  MOVLB  2
0AC48:  CLRF   x12
....................       }else if(RX_Buffer[4]==0x02){//02, Operador 1 
0AC4A:  BRA    AF86
0AC4C:  MOVLB  1
0AC4E:  MOVF   34,W
0AC50:  SUBLW  02
0AC52:  BNZ   ACAA
....................          printf("page Clave"); 
0AC54:  MOVLW  28
0AC56:  MOVWF  FF6
0AC58:  MOVLW  11
0AC5A:  MOVWF  FF7
0AC5C:  MOVLW  00
0AC5E:  MOVWF  FF8
0AC60:  MOVLB  0
0AC62:  CALL   3B38
....................          SendDataDisplay();        
0AC66:  CALL   3B6A
....................          if(!ingreso){ 
0AC6A:  BTFSC  x8B.1
0AC6C:  BRA    ACA0
....................             usuario="Operador 1"; 
0AC6E:  MOVLW  02
0AC70:  MOVWF  FEA
0AC72:  MOVLW  3A
0AC74:  MOVWF  FE9
0AC76:  MOVFF  FF2,634
0AC7A:  BCF    FF2.6
0AC7C:  BCF    FF2.7
0AC7E:  MOVLW  00
0AC80:  CALL   017A
0AC84:  TBLRD*-
0AC86:  TBLRD*+
0AC88:  MOVF   FF5,W
0AC8A:  MOVWF  FEE
0AC8C:  IORLW  00
0AC8E:  BNZ   AC86
0AC90:  MOVLB  6
0AC92:  BTFSC  x34.6
0AC94:  BSF    FF2.6
0AC96:  BTFSC  x34.7
0AC98:  BSF    FF2.7
....................             codigoUsuario=1; 
0AC9A:  MOVLW  01
0AC9C:  MOVLB  2
0AC9E:  MOVWF  x34
....................          } 
....................          codigoUsuario2=1; 
0ACA0:  MOVLW  01
0ACA2:  MOVLB  2
0ACA4:  MOVWF  x12
....................       }else if(RX_Buffer[4]==0x03){//03, Operador 2 
0ACA6:  BRA    AF86
0ACA8:  MOVLB  1
0ACAA:  MOVF   34,W
0ACAC:  SUBLW  03
0ACAE:  BNZ   AD06
....................          printf("page Clave"); 
0ACB0:  MOVLW  34
0ACB2:  MOVWF  FF6
0ACB4:  MOVLW  11
0ACB6:  MOVWF  FF7
0ACB8:  MOVLW  00
0ACBA:  MOVWF  FF8
0ACBC:  MOVLB  0
0ACBE:  CALL   3B38
....................          SendDataDisplay();        
0ACC2:  CALL   3B6A
....................          if(!ingreso){ 
0ACC6:  BTFSC  x8B.1
0ACC8:  BRA    ACFC
....................             usuario="Operador 2"; 
0ACCA:  MOVLW  02
0ACCC:  MOVWF  FEA
0ACCE:  MOVLW  3A
0ACD0:  MOVWF  FE9
0ACD2:  MOVFF  FF2,634
0ACD6:  BCF    FF2.6
0ACD8:  BCF    FF2.7
0ACDA:  MOVLW  00
0ACDC:  CALL   01AA
0ACE0:  TBLRD*-
0ACE2:  TBLRD*+
0ACE4:  MOVF   FF5,W
0ACE6:  MOVWF  FEE
0ACE8:  IORLW  00
0ACEA:  BNZ   ACE2
0ACEC:  MOVLB  6
0ACEE:  BTFSC  x34.6
0ACF0:  BSF    FF2.6
0ACF2:  BTFSC  x34.7
0ACF4:  BSF    FF2.7
....................             codigoUsuario=2; 
0ACF6:  MOVLW  02
0ACF8:  MOVLB  2
0ACFA:  MOVWF  x34
....................          } 
....................          codigoUsuario2=2; 
0ACFC:  MOVLW  02
0ACFE:  MOVLB  2
0AD00:  MOVWF  x12
....................       }else if(RX_Buffer[4]==0x04){//04, Operador 3 
0AD02:  BRA    AF86
0AD04:  MOVLB  1
0AD06:  MOVF   34,W
0AD08:  SUBLW  04
0AD0A:  BNZ   AD62
....................          printf("page Clave"); 
0AD0C:  MOVLW  40
0AD0E:  MOVWF  FF6
0AD10:  MOVLW  11
0AD12:  MOVWF  FF7
0AD14:  MOVLW  00
0AD16:  MOVWF  FF8
0AD18:  MOVLB  0
0AD1A:  CALL   3B38
....................          SendDataDisplay();        
0AD1E:  CALL   3B6A
....................          if(!ingreso){ 
0AD22:  BTFSC  x8B.1
0AD24:  BRA    AD58
....................             usuario="Operador 3"; 
0AD26:  MOVLW  02
0AD28:  MOVWF  FEA
0AD2A:  MOVLW  3A
0AD2C:  MOVWF  FE9
0AD2E:  MOVFF  FF2,634
0AD32:  BCF    FF2.6
0AD34:  BCF    FF2.7
0AD36:  MOVLW  00
0AD38:  CALL   01DA
0AD3C:  TBLRD*-
0AD3E:  TBLRD*+
0AD40:  MOVF   FF5,W
0AD42:  MOVWF  FEE
0AD44:  IORLW  00
0AD46:  BNZ   AD3E
0AD48:  MOVLB  6
0AD4A:  BTFSC  x34.6
0AD4C:  BSF    FF2.6
0AD4E:  BTFSC  x34.7
0AD50:  BSF    FF2.7
....................             codigoUsuario=3; 
0AD52:  MOVLW  03
0AD54:  MOVLB  2
0AD56:  MOVWF  x34
....................          } 
....................          codigoUsuario2=3; 
0AD58:  MOVLW  03
0AD5A:  MOVLB  2
0AD5C:  MOVWF  x12
....................       }else if(RX_Buffer[4]==0x05){//05, Operador 4 
0AD5E:  BRA    AF86
0AD60:  MOVLB  1
0AD62:  MOVF   34,W
0AD64:  SUBLW  05
0AD66:  BNZ   ADBE
....................          printf("page Clave"); 
0AD68:  MOVLW  4C
0AD6A:  MOVWF  FF6
0AD6C:  MOVLW  11
0AD6E:  MOVWF  FF7
0AD70:  MOVLW  00
0AD72:  MOVWF  FF8
0AD74:  MOVLB  0
0AD76:  CALL   3B38
....................          SendDataDisplay();        
0AD7A:  CALL   3B6A
....................          if(!ingreso){ 
0AD7E:  BTFSC  x8B.1
0AD80:  BRA    ADB4
....................             usuario="Operador 4"; 
0AD82:  MOVLW  02
0AD84:  MOVWF  FEA
0AD86:  MOVLW  3A
0AD88:  MOVWF  FE9
0AD8A:  MOVFF  FF2,634
0AD8E:  BCF    FF2.6
0AD90:  BCF    FF2.7
0AD92:  MOVLW  00
0AD94:  CALL   020A
0AD98:  TBLRD*-
0AD9A:  TBLRD*+
0AD9C:  MOVF   FF5,W
0AD9E:  MOVWF  FEE
0ADA0:  IORLW  00
0ADA2:  BNZ   AD9A
0ADA4:  MOVLB  6
0ADA6:  BTFSC  x34.6
0ADA8:  BSF    FF2.6
0ADAA:  BTFSC  x34.7
0ADAC:  BSF    FF2.7
....................             codigoUsuario=4; 
0ADAE:  MOVLW  04
0ADB0:  MOVLB  2
0ADB2:  MOVWF  x34
....................          } 
....................          codigoUsuario2=4; 
0ADB4:  MOVLW  04
0ADB6:  MOVLB  2
0ADB8:  MOVWF  x12
....................       }else if(RX_Buffer[4]==0x06){//06, Operador 5 
0ADBA:  BRA    AF86
0ADBC:  MOVLB  1
0ADBE:  MOVF   34,W
0ADC0:  SUBLW  06
0ADC2:  BNZ   AE1A
....................          printf("page Clave"); 
0ADC4:  MOVLW  58
0ADC6:  MOVWF  FF6
0ADC8:  MOVLW  11
0ADCA:  MOVWF  FF7
0ADCC:  MOVLW  00
0ADCE:  MOVWF  FF8
0ADD0:  MOVLB  0
0ADD2:  CALL   3B38
....................          SendDataDisplay();        
0ADD6:  CALL   3B6A
....................          if(!ingreso){ 
0ADDA:  BTFSC  x8B.1
0ADDC:  BRA    AE10
....................             usuario="Operador 5"; 
0ADDE:  MOVLW  02
0ADE0:  MOVWF  FEA
0ADE2:  MOVLW  3A
0ADE4:  MOVWF  FE9
0ADE6:  MOVFF  FF2,634
0ADEA:  BCF    FF2.6
0ADEC:  BCF    FF2.7
0ADEE:  MOVLW  00
0ADF0:  CALL   023A
0ADF4:  TBLRD*-
0ADF6:  TBLRD*+
0ADF8:  MOVF   FF5,W
0ADFA:  MOVWF  FEE
0ADFC:  IORLW  00
0ADFE:  BNZ   ADF6
0AE00:  MOVLB  6
0AE02:  BTFSC  x34.6
0AE04:  BSF    FF2.6
0AE06:  BTFSC  x34.7
0AE08:  BSF    FF2.7
....................             codigoUsuario=5; 
0AE0A:  MOVLW  05
0AE0C:  MOVLB  2
0AE0E:  MOVWF  x34
....................          } 
....................          codigoUsuario2=5; 
0AE10:  MOVLW  05
0AE12:  MOVLB  2
0AE14:  MOVWF  x12
....................       }else if(RX_Buffer[4]==0x07){//07, Operador 6 
0AE16:  BRA    AF86
0AE18:  MOVLB  1
0AE1A:  MOVF   34,W
0AE1C:  SUBLW  07
0AE1E:  BNZ   AE76
....................          printf("page Clave"); 
0AE20:  MOVLW  64
0AE22:  MOVWF  FF6
0AE24:  MOVLW  11
0AE26:  MOVWF  FF7
0AE28:  MOVLW  00
0AE2A:  MOVWF  FF8
0AE2C:  MOVLB  0
0AE2E:  CALL   3B38
....................          SendDataDisplay();        
0AE32:  CALL   3B6A
....................          if(!ingreso){ 
0AE36:  BTFSC  x8B.1
0AE38:  BRA    AE6C
....................             usuario="Operador 6"; 
0AE3A:  MOVLW  02
0AE3C:  MOVWF  FEA
0AE3E:  MOVLW  3A
0AE40:  MOVWF  FE9
0AE42:  MOVFF  FF2,634
0AE46:  BCF    FF2.6
0AE48:  BCF    FF2.7
0AE4A:  MOVLW  00
0AE4C:  CALL   026A
0AE50:  TBLRD*-
0AE52:  TBLRD*+
0AE54:  MOVF   FF5,W
0AE56:  MOVWF  FEE
0AE58:  IORLW  00
0AE5A:  BNZ   AE52
0AE5C:  MOVLB  6
0AE5E:  BTFSC  x34.6
0AE60:  BSF    FF2.6
0AE62:  BTFSC  x34.7
0AE64:  BSF    FF2.7
....................             codigoUsuario=6; 
0AE66:  MOVLW  06
0AE68:  MOVLB  2
0AE6A:  MOVWF  x34
....................          } 
....................          codigoUsuario2=6; 
0AE6C:  MOVLW  06
0AE6E:  MOVLB  2
0AE70:  MOVWF  x12
....................       }else if(RX_Buffer[4]==0x08){//08, Operador 7 
0AE72:  BRA    AF86
0AE74:  MOVLB  1
0AE76:  MOVF   34,W
0AE78:  SUBLW  08
0AE7A:  BNZ   AED2
....................          printf("page Clave"); 
0AE7C:  MOVLW  70
0AE7E:  MOVWF  FF6
0AE80:  MOVLW  11
0AE82:  MOVWF  FF7
0AE84:  MOVLW  00
0AE86:  MOVWF  FF8
0AE88:  MOVLB  0
0AE8A:  CALL   3B38
....................          SendDataDisplay();        
0AE8E:  CALL   3B6A
....................          if(!ingreso){ 
0AE92:  BTFSC  x8B.1
0AE94:  BRA    AEC8
....................             usuario="Operador 7"; 
0AE96:  MOVLW  02
0AE98:  MOVWF  FEA
0AE9A:  MOVLW  3A
0AE9C:  MOVWF  FE9
0AE9E:  MOVFF  FF2,634
0AEA2:  BCF    FF2.6
0AEA4:  BCF    FF2.7
0AEA6:  MOVLW  00
0AEA8:  CALL   029A
0AEAC:  TBLRD*-
0AEAE:  TBLRD*+
0AEB0:  MOVF   FF5,W
0AEB2:  MOVWF  FEE
0AEB4:  IORLW  00
0AEB6:  BNZ   AEAE
0AEB8:  MOVLB  6
0AEBA:  BTFSC  x34.6
0AEBC:  BSF    FF2.6
0AEBE:  BTFSC  x34.7
0AEC0:  BSF    FF2.7
....................             codigoUsuario=7; 
0AEC2:  MOVLW  07
0AEC4:  MOVLB  2
0AEC6:  MOVWF  x34
....................          } 
....................          codigoUsuario2=7; 
0AEC8:  MOVLW  07
0AECA:  MOVLB  2
0AECC:  MOVWF  x12
....................       }else if(RX_Buffer[4]==0x09){//09, Operador 8 
0AECE:  BRA    AF86
0AED0:  MOVLB  1
0AED2:  MOVF   34,W
0AED4:  SUBLW  09
0AED6:  BNZ   AF2E
....................          printf("page Clave"); 
0AED8:  MOVLW  7C
0AEDA:  MOVWF  FF6
0AEDC:  MOVLW  11
0AEDE:  MOVWF  FF7
0AEE0:  MOVLW  00
0AEE2:  MOVWF  FF8
0AEE4:  MOVLB  0
0AEE6:  CALL   3B38
....................          SendDataDisplay();        
0AEEA:  CALL   3B6A
....................          if(!ingreso){ 
0AEEE:  BTFSC  x8B.1
0AEF0:  BRA    AF24
....................             usuario="Operador 8"; 
0AEF2:  MOVLW  02
0AEF4:  MOVWF  FEA
0AEF6:  MOVLW  3A
0AEF8:  MOVWF  FE9
0AEFA:  MOVFF  FF2,634
0AEFE:  BCF    FF2.6
0AF00:  BCF    FF2.7
0AF02:  MOVLW  00
0AF04:  CALL   02CA
0AF08:  TBLRD*-
0AF0A:  TBLRD*+
0AF0C:  MOVF   FF5,W
0AF0E:  MOVWF  FEE
0AF10:  IORLW  00
0AF12:  BNZ   AF0A
0AF14:  MOVLB  6
0AF16:  BTFSC  x34.6
0AF18:  BSF    FF2.6
0AF1A:  BTFSC  x34.7
0AF1C:  BSF    FF2.7
....................             codigoUsuario=8; 
0AF1E:  MOVLW  08
0AF20:  MOVLB  2
0AF22:  MOVWF  x34
....................          } 
....................          codigoUsuario2=8; 
0AF24:  MOVLW  08
0AF26:  MOVLB  2
0AF28:  MOVWF  x12
....................       }else if(RX_Buffer[4]==0x0a){//0a, Tecnico 
0AF2A:  BRA    AF86
0AF2C:  MOVLB  1
0AF2E:  MOVF   34,W
0AF30:  SUBLW  0A
0AF32:  BNZ   AF88
....................          printf("page Clave"); 
0AF34:  MOVLW  88
0AF36:  MOVWF  FF6
0AF38:  MOVLW  11
0AF3A:  MOVWF  FF7
0AF3C:  MOVLW  00
0AF3E:  MOVWF  FF8
0AF40:  MOVLB  0
0AF42:  CALL   3B38
....................          SendDataDisplay();        
0AF46:  CALL   3B6A
....................          if(!ingreso){ 
0AF4A:  BTFSC  x8B.1
0AF4C:  BRA    AF80
....................             usuario="Tecnico"; 
0AF4E:  MOVLW  02
0AF50:  MOVWF  FEA
0AF52:  MOVLW  3A
0AF54:  MOVWF  FE9
0AF56:  MOVFF  FF2,634
0AF5A:  BCF    FF2.6
0AF5C:  BCF    FF2.7
0AF5E:  MOVLW  00
0AF60:  CALL   02FA
0AF64:  TBLRD*-
0AF66:  TBLRD*+
0AF68:  MOVF   FF5,W
0AF6A:  MOVWF  FEE
0AF6C:  IORLW  00
0AF6E:  BNZ   AF66
0AF70:  MOVLB  6
0AF72:  BTFSC  x34.6
0AF74:  BSF    FF2.6
0AF76:  BTFSC  x34.7
0AF78:  BSF    FF2.7
....................             codigoUsuario=9; 
0AF7A:  MOVLW  09
0AF7C:  MOVLB  2
0AF7E:  MOVWF  x34
....................          } 
....................          codigoUsuario2=9; 
0AF80:  MOVLW  09
0AF82:  MOVLB  2
0AF84:  MOVWF  x12
0AF86:  MOVLB  1
....................       } 
....................        
....................       if(RX_Buffer[4]==0xaa && ingreso){//aa, Regresar 
0AF88:  MOVF   34,W
0AF8A:  SUBLW  AA
0AF8C:  BNZ   AFB4
0AF8E:  MOVLB  0
0AF90:  BTFSC  x8B.1
0AF92:  BRA    AF98
0AF94:  MOVLB  1
0AF96:  BRA    AFB4
....................          printf("page Ajustes"); 
0AF98:  MOVLW  94
0AF9A:  MOVWF  FF6
0AF9C:  MOVLW  11
0AF9E:  MOVWF  FF7
0AFA0:  MOVLW  00
0AFA2:  MOVWF  FF8
0AFA4:  CALL   3B38
....................          SendDataDisplay();        
0AFA8:  CALL   3B6A
....................          codigoUsuario2=10; 
0AFAC:  MOVLW  0A
0AFAE:  MOVLB  2
0AFB0:  MOVWF  x12
0AFB2:  MOVLB  1
....................       } 
....................    } 
.................... //_--------------------------------------------------------------------------------------------------------------------------------------------------------       
....................  
.................... //_--------------------------------------------------------------------------------------------------------------------------------------------------------       
....................    if(Menu==11){//Menu de Configuraciones 
0AFB4:  MOVF   xDD,W
0AFB6:  SUBLW  0B
0AFB8:  BTFSS  FD8.2
0AFBA:  BRA    B1F0
....................       printf("fecha.txt=\"Fecha:%02u/%02u/20%02u Hora: %02u:%02u:%02u\"",Dia,Mes,Year,Hora,Minuto,Segundo); 
0AFBC:  MOVLW  A2
0AFBE:  MOVWF  FF6
0AFC0:  MOVLW  11
0AFC2:  MOVWF  FF7
0AFC4:  MOVLW  00
0AFC6:  MOVWF  FF8
0AFC8:  MOVLW  11
0AFCA:  MOVLB  6
0AFCC:  MOVWF  x39
0AFCE:  MOVLB  0
0AFD0:  CALL   4B78
0AFD4:  MOVFF  21D,639
0AFD8:  MOVLW  01
0AFDA:  MOVLB  6
0AFDC:  MOVWF  x3A
0AFDE:  MOVLB  0
0AFE0:  CALL   4BFC
0AFE4:  MOVLW  2F
0AFE6:  BTFSS  F9E.4
0AFE8:  BRA    AFE6
0AFEA:  MOVWF  FAD
0AFEC:  MOVFF  21C,639
0AFF0:  MOVLW  01
0AFF2:  MOVLB  6
0AFF4:  MOVWF  x3A
0AFF6:  MOVLB  0
0AFF8:  CALL   4BFC
0AFFC:  MOVLW  2F
0AFFE:  BTFSS  F9E.4
0B000:  BRA    AFFE
0B002:  MOVWF  FAD
0B004:  MOVLW  32
0B006:  BTFSS  F9E.4
0B008:  BRA    B006
0B00A:  MOVWF  FAD
0B00C:  MOVLW  30
0B00E:  BTFSS  F9E.4
0B010:  BRA    B00E
0B012:  MOVWF  FAD
0B014:  MOVFF  21B,639
0B018:  MOVLW  01
0B01A:  MOVLB  6
0B01C:  MOVWF  x3A
0B01E:  MOVLB  0
0B020:  CALL   4BFC
0B024:  MOVLW  C3
0B026:  MOVWF  FF6
0B028:  MOVLW  11
0B02A:  MOVWF  FF7
0B02C:  MOVLW  00
0B02E:  MOVWF  FF8
0B030:  MOVLW  07
0B032:  MOVLB  6
0B034:  MOVWF  x39
0B036:  MOVLB  0
0B038:  CALL   4B78
0B03C:  MOVFF  21E,639
0B040:  MOVLW  01
0B042:  MOVLB  6
0B044:  MOVWF  x3A
0B046:  MOVLB  0
0B048:  CALL   4BFC
0B04C:  MOVLW  3A
0B04E:  BTFSS  F9E.4
0B050:  BRA    B04E
0B052:  MOVWF  FAD
0B054:  MOVFF  21F,639
0B058:  MOVLW  01
0B05A:  MOVLB  6
0B05C:  MOVWF  x3A
0B05E:  MOVLB  0
0B060:  CALL   4BFC
0B064:  MOVLW  3A
0B066:  BTFSS  F9E.4
0B068:  BRA    B066
0B06A:  MOVWF  FAD
0B06C:  MOVFF  220,639
0B070:  MOVLW  01
0B072:  MOVLB  6
0B074:  MOVWF  x3A
0B076:  MOVLB  0
0B078:  CALL   4BFC
0B07C:  MOVLW  22
0B07E:  BTFSS  F9E.4
0B080:  BRA    B07E
0B082:  MOVWF  FAD
....................       SendDataDisplay(); 
0B084:  CALL   3B6A
....................       GuardaEEPROM=OFF; 
0B088:  BCF    x89.5
....................       printf("tuser.txt=\"%s\"",usuario); 
0B08A:  MOVLW  DA
0B08C:  MOVWF  FF6
0B08E:  MOVLW  11
0B090:  MOVWF  FF7
0B092:  MOVLW  00
0B094:  MOVWF  FF8
0B096:  MOVLW  0B
0B098:  MOVLB  6
0B09A:  MOVWF  x39
0B09C:  MOVLB  0
0B09E:  CALL   4B78
0B0A2:  MOVLW  02
0B0A4:  MOVWF  FEA
0B0A6:  MOVLW  3A
0B0A8:  MOVWF  FE9
0B0AA:  CALL   4BAA
0B0AE:  MOVLW  22
0B0B0:  BTFSS  F9E.4
0B0B2:  BRA    B0B0
0B0B4:  MOVWF  FAD
....................       SendDataDisplay(); 
0B0B6:  CALL   3B6A
....................       TipoClave=0; 
0B0BA:  MOVLB  1
0B0BC:  CLRF   x7F
....................        
....................       if(RX_Buffer[4]==0x01){//01, Ciclos 
0B0BE:  DECFSZ 34,W
0B0C0:  BRA    B0DA
....................          printf("page Ciclos"); 
0B0C2:  MOVLW  EA
0B0C4:  MOVWF  FF6
0B0C6:  MOVLW  11
0B0C8:  MOVWF  FF7
0B0CA:  MOVLW  00
0B0CC:  MOVWF  FF8
0B0CE:  MOVLB  0
0B0D0:  CALL   3B38
....................          SendDataDisplay();      
0B0D4:  CALL   3B6A
0B0D8:  MOVLB  1
....................       } 
....................        
....................       if(RX_Buffer[4]==0x02){//02, Test de Componentes 
0B0DA:  MOVF   34,W
0B0DC:  SUBLW  02
0B0DE:  BNZ   B0F8
....................          printf("page Test"); 
0B0E0:  MOVLW  F6
0B0E2:  MOVWF  FF6
0B0E4:  MOVLW  11
0B0E6:  MOVWF  FF7
0B0E8:  MOVLW  00
0B0EA:  MOVWF  FF8
0B0EC:  MOVLB  0
0B0EE:  CALL   3B38
....................          SendDataDisplay();      
0B0F2:  CALL   3B6A
0B0F6:  MOVLB  1
....................       } 
....................        
....................       if(RX_Buffer[4]==0x03){//03, Modificacin de clave Usuarios 
0B0F8:  MOVF   34,W
0B0FA:  SUBLW  03
0B0FC:  BNZ   B116
....................          printf("page Usuarios"); 
0B0FE:  MOVLW  00
0B100:  MOVWF  FF6
0B102:  MOVLW  12
0B104:  MOVWF  FF7
0B106:  MOVLW  00
0B108:  MOVWF  FF8
0B10A:  MOVLB  0
0B10C:  CALL   3B38
....................          SendDataDisplay();      
0B110:  CALL   3B6A
0B114:  MOVLB  1
....................       } 
....................        
....................       if(RX_Buffer[4]==0x04){//03, Modificacin de clave Usuarios 
0B116:  MOVF   34,W
0B118:  SUBLW  04
0B11A:  BNZ   B134
....................          printf("page Activa"); 
0B11C:  MOVLW  0E
0B11E:  MOVWF  FF6
0B120:  MOVLW  12
0B122:  MOVWF  FF7
0B124:  MOVLW  00
0B126:  MOVWF  FF8
0B128:  MOVLB  0
0B12A:  CALL   3B38
....................          SendDataDisplay();      
0B12E:  CALL   3B6A
0B132:  MOVLB  1
....................       } 
....................        
....................       if(RX_Buffer[4]==0x11 && CodigoUsuario==9){//11, Menu Oculto Tecnico 
0B134:  MOVF   34,W
0B136:  SUBLW  11
0B138:  BNZ   B164
0B13A:  MOVLB  2
0B13C:  MOVF   x34,W
0B13E:  SUBLW  09
0B140:  BTFSC  FD8.2
0B142:  BRA    B148
0B144:  MOVLB  1
0B146:  BRA    B164
....................          printf("page Clave"); 
0B148:  MOVLW  1A
0B14A:  MOVWF  FF6
0B14C:  MOVLW  12
0B14E:  MOVWF  FF7
0B150:  MOVLW  00
0B152:  MOVWF  FF8
0B154:  MOVLB  0
0B156:  CALL   3B38
....................          SendDataDisplay();  
0B15A:  CALL   3B6A
....................          TipoClave=1; 
0B15E:  MOVLW  01
0B160:  MOVLB  1
0B162:  MOVWF  x7F
....................       } 
....................        
....................       if(RX_Buffer[4]==0x05){//05, Hora y Fecha 
0B164:  MOVF   34,W
0B166:  SUBLW  05
0B168:  BNZ   B196
....................          printf("page Fecha"); 
0B16A:  MOVLW  26
0B16C:  MOVWF  FF6
0B16E:  MOVLW  12
0B170:  MOVWF  FF7
0B172:  MOVLW  00
0B174:  MOVWF  FF8
0B176:  MOVLB  0
0B178:  CALL   3B38
....................          SendDataDisplay();      
0B17C:  CALL   3B6A
....................          DiaTx=Dia; 
0B180:  MOVFF  21D,22A
....................          MesTx=Mes; 
0B184:  MOVFF  21C,229
....................          YearTx=Year; 
0B188:  MOVFF  21B,228
....................          HoraTx=Hora; 
0B18C:  MOVFF  21E,22B
....................          MinutoTx=Minuto; 
0B190:  MOVFF  21F,22C
0B194:  MOVLB  1
....................       } 
....................        
....................       if(RX_Buffer[4]==0xa0){//a0, Menu Principal 
0B196:  MOVF   34,W
0B198:  SUBLW  A0
0B19A:  BNZ   B1B4
....................          printf("page Menu"); 
0B19C:  MOVLW  32
0B19E:  MOVWF  FF6
0B1A0:  MOVLW  12
0B1A2:  MOVWF  FF7
0B1A4:  MOVLW  00
0B1A6:  MOVWF  FF8
0B1A8:  MOVLB  0
0B1AA:  CALL   3B38
....................          SendDataDisplay();      
0B1AE:  CALL   3B6A
0B1B2:  MOVLB  1
....................       } 
....................        
....................       if(RX_Buffer[4]==0xb0){//b0, Personalizados 
0B1B4:  MOVF   34,W
0B1B6:  SUBLW  B0
0B1B8:  BNZ   B1D2
....................          printf("page CicloPersona"); 
0B1BA:  MOVLW  3C
0B1BC:  MOVWF  FF6
0B1BE:  MOVLW  12
0B1C0:  MOVWF  FF7
0B1C2:  MOVLW  00
0B1C4:  MOVWF  FF8
0B1C6:  MOVLB  0
0B1C8:  CALL   3B38
....................          SendDataDisplay();      
0B1CC:  CALL   3B6A
0B1D0:  MOVLB  1
....................       } 
....................        
....................       if(RX_Buffer[4]==0xc0){//c0, Configuraciones 
0B1D2:  MOVF   34,W
0B1D4:  SUBLW  C0
0B1D6:  BNZ   B1F0
....................          printf("page Ajustes"); 
0B1D8:  MOVLW  4E
0B1DA:  MOVWF  FF6
0B1DC:  MOVLW  12
0B1DE:  MOVWF  FF7
0B1E0:  MOVLW  00
0B1E2:  MOVWF  FF8
0B1E4:  MOVLB  0
0B1E6:  CALL   3B38
....................          SendDataDisplay();      
0B1EA:  CALL   3B6A
0B1EE:  MOVLB  1
....................       } 
....................    } 
.................... //_--------------------------------------------------------------------------------------------------------------------------------------------------------       
....................  
.................... //_--------------------------------------------------------------------------------------------------------------------------------------------------------       
....................    if(Menu==12){//Menu de Visualizacion de Ciclos Realizados 
0B1F0:  MOVF   xDD,W
0B1F2:  SUBLW  0C
0B1F4:  BTFSS  FD8.2
0B1F6:  GOTO   BE4E
....................       //printf("fecha.txt=\"Fecha:%02u/%02u/20%02u    Hora: %02u:%02u\"",Dia,Mes,Year,Hora,Minuto); 
....................       //SendDataDisplay(); 
....................       GuardaEEPROM=OFF; 
0B1FA:  MOVLB  0
0B1FC:  BCF    x89.5
....................        
....................       i2c_start();            // Comienzo de la comunicacin 
0B1FE:  BSF    F94.4
0B200:  MOVLW  05
0B202:  MOVWF  00
0B204:  DECFSZ 00,F
0B206:  BRA    B204
0B208:  BSF    F94.3
0B20A:  MOVLW  06
0B20C:  MOVWF  00
0B20E:  DECFSZ 00,F
0B210:  BRA    B20E
0B212:  BCF    F8B.4
0B214:  BCF    F94.4
0B216:  MOVLW  05
0B218:  MOVWF  00
0B21A:  DECFSZ 00,F
0B21C:  BRA    B21A
0B21E:  BCF    F8B.3
0B220:  BCF    F94.3
....................       i2c_write(0xB0);   // Direccin del esclavo en el bus I2C 
0B222:  MOVLW  B0
0B224:  MOVLB  6
0B226:  MOVWF  x41
0B228:  MOVLB  0
0B22A:  CALL   219A
....................       i2c_write(0);    // Posicin de donde se leer el dato en el esclavo 
0B22E:  MOVLB  6
0B230:  CLRF   x41
0B232:  MOVLB  0
0B234:  CALL   219A
....................       i2c_write(0);    // Posicin de donde se leer el dato en el esclavo 
0B238:  MOVLB  6
0B23A:  CLRF   x41
0B23C:  MOVLB  0
0B23E:  CALL   219A
....................       i2c_start();            // Reinicio 
0B242:  BSF    F94.4
0B244:  MOVLW  05
0B246:  MOVWF  00
0B248:  DECFSZ 00,F
0B24A:  BRA    B248
0B24C:  BSF    F94.3
0B24E:  MOVLW  06
0B250:  MOVWF  00
0B252:  DECFSZ 00,F
0B254:  BRA    B252
0B256:  BTFSS  F82.3
0B258:  BRA    B256
0B25A:  BCF    F8B.4
0B25C:  BCF    F94.4
0B25E:  MOVLW  05
0B260:  MOVWF  00
0B262:  DECFSZ 00,F
0B264:  BRA    B262
0B266:  BCF    F8B.3
0B268:  BCF    F94.3
....................       i2c_write(direccion+1); // Direccin del esclavo en modo lectura 
0B26A:  MOVLW  01
0B26C:  ADDWF  x68,W
0B26E:  MOVLB  6
0B270:  MOVWF  x34
0B272:  MOVWF  x41
0B274:  MOVLB  0
0B276:  CALL   219A
....................       dato=i2c_read(0);       // Lectura del dato 
0B27A:  CLRF   00
0B27C:  CALL   2210
0B280:  MOVFF  01,67
....................       i2c_stop(); 
0B284:  BCF    F94.4
0B286:  NOP   
0B288:  BSF    F94.3
0B28A:  BTFSS  F82.3
0B28C:  BRA    B28A
0B28E:  MOVLW  05
0B290:  MOVWF  00
0B292:  DECFSZ 00,F
0B294:  BRA    B292
0B296:  BRA    B298
0B298:  NOP   
0B29A:  BSF    F94.4
0B29C:  MOVLW  05
0B29E:  MOVWF  00
0B2A0:  DECFSZ 00,F
0B2A2:  BRA    B2A0
....................       if(dato==1){ 
0B2A4:  DECFSZ x67,W
0B2A6:  BRA    B2BE
....................          printf("estado.txt=\"Enlazando \""); 
0B2A8:  MOVLW  5C
0B2AA:  MOVWF  FF6
0B2AC:  MOVLW  12
0B2AE:  MOVWF  FF7
0B2B0:  MOVLW  00
0B2B2:  MOVWF  FF8
0B2B4:  CALL   3B38
....................          SendDataDisplay();      
0B2B8:  CALL   3B6A
....................       }else if(dato==2){ 
0B2BC:  BRA    B35E
0B2BE:  MOVF   x67,W
0B2C0:  SUBLW  02
0B2C2:  BNZ   B2DA
....................          printf("estado.txt=\"Verificando Com. \""); 
0B2C4:  MOVLW  74
0B2C6:  MOVWF  FF6
0B2C8:  MOVLW  12
0B2CA:  MOVWF  FF7
0B2CC:  MOVLW  00
0B2CE:  MOVWF  FF8
0B2D0:  CALL   3B38
....................          SendDataDisplay();     
0B2D4:  CALL   3B6A
....................       }else if(dato==3){ 
0B2D8:  BRA    B35E
0B2DA:  MOVF   x67,W
0B2DC:  SUBLW  03
0B2DE:  BNZ   B2F6
....................          printf("estado.txt=\"Montando USB\""); 
0B2E0:  MOVLW  94
0B2E2:  MOVWF  FF6
0B2E4:  MOVLW  12
0B2E6:  MOVWF  FF7
0B2E8:  MOVLW  00
0B2EA:  MOVWF  FF8
0B2EC:  CALL   3B38
....................          SendDataDisplay();     
0B2F0:  CALL   3B6A
....................       }else if(dato==4){ 
0B2F4:  BRA    B35E
0B2F6:  MOVF   x67,W
0B2F8:  SUBLW  04
0B2FA:  BNZ   B312
....................          printf("estado.txt=\"Creando Archivo\""); 
0B2FC:  MOVLW  AE
0B2FE:  MOVWF  FF6
0B300:  MOVLW  12
0B302:  MOVWF  FF7
0B304:  MOVLW  00
0B306:  MOVWF  FF8
0B308:  CALL   3B38
....................          SendDataDisplay();     
0B30C:  CALL   3B6A
....................       }else if(dato==5){ 
0B310:  BRA    B35E
0B312:  MOVF   x67,W
0B314:  SUBLW  05
0B316:  BNZ   B32E
....................          printf("estado.txt=\"Transfiriendo Datos\""); 
0B318:  MOVLW  CC
0B31A:  MOVWF  FF6
0B31C:  MOVLW  12
0B31E:  MOVWF  FF7
0B320:  MOVLW  00
0B322:  MOVWF  FF8
0B324:  CALL   3B38
....................          SendDataDisplay();     
0B328:  CALL   3B6A
....................       }else if(dato==6){ 
0B32C:  BRA    B35E
0B32E:  MOVF   x67,W
0B330:  SUBLW  06
0B332:  BNZ   B34A
....................          printf("estado.txt=\"Cerrando USB\""); 
0B334:  MOVLW  EE
0B336:  MOVWF  FF6
0B338:  MOVLW  12
0B33A:  MOVWF  FF7
0B33C:  MOVLW  00
0B33E:  MOVWF  FF8
0B340:  CALL   3B38
....................          SendDataDisplay();     
0B344:  CALL   3B6A
....................       }else{ 
0B348:  BRA    B35E
....................          printf("estado.txt=\"Desconectado \""); 
0B34A:  MOVLW  08
0B34C:  MOVWF  FF6
0B34E:  MOVLW  13
0B350:  MOVWF  FF7
0B352:  MOVLW  00
0B354:  MOVWF  FF8
0B356:  CALL   3B38
....................          SendDataDisplay();     
0B35A:  CALL   3B6A
....................       } 
....................        
....................       if(RX_Buffer[6]==0x01){//01, Ciclos 
0B35E:  DECFSZ 36,W
0B360:  BRA    B376
....................          printf("page Ajustes"); 
0B362:  MOVLW  24
0B364:  MOVWF  FF6
0B366:  MOVLW  13
0B368:  MOVWF  FF7
0B36A:  MOVLW  00
0B36C:  MOVWF  FF8
0B36E:  CALL   3B38
....................          SendDataDisplay();      
0B372:  CALL   3B6A
....................       } 
....................        
....................       if(RX_Buffer[6]==0x02){//02, Exportar 
0B376:  MOVF   36,W
0B378:  SUBLW  02
0B37A:  BNZ   B384
....................          RX_Buffer[6]=0x00;   
0B37C:  CLRF   36
....................          RX_Buffer2[6]=0x00; 
0B37E:  CLRF   41
....................          exportarData(); 
0B380:  GOTO   520E
....................       } 
....................        
....................       if(RX_Buffer[4]>0x00 && RX_Buffer[5]>0x00){ 
0B384:  MOVF   34,F
0B386:  BTFSC  FD8.2
0B388:  BRA    BA58
0B38A:  MOVF   35,F
0B38C:  BTFSC  FD8.2
0B38E:  BRA    BA58
....................          cicloVisualizado=RX_Buffer[4]-1; 
0B390:  MOVLW  01
0B392:  SUBWF  34,W
0B394:  MOVLB  2
0B396:  MOVWF  x22
....................          cicloVisto=RX_Buffer[5]-1; 
0B398:  MOVLW  01
0B39A:  SUBWF  35,W
0B39C:  MOVWF  x23
....................          RX_Buffer[4]=0x00; 
0B39E:  CLRF   34
....................          RX_Buffer[5]=0x00; 
0B3A0:  CLRF   35
....................          RX_Buffer2[4]=0x00; 
0B3A2:  CLRF   3F
....................          RX_Buffer2[5]=0x00; 
0B3A4:  CLRF   40
....................          diaCiclos=read_ext_eeprom(2+(cicloVisto*320)); 
0B3A6:  MOVLB  6
0B3A8:  CLRF   x3D
0B3AA:  MOVFF  223,63C
0B3AE:  MOVLW  01
0B3B0:  MOVWF  x3F
0B3B2:  MOVLW  40
0B3B4:  MOVWF  x3E
0B3B6:  MOVLB  0
0B3B8:  CALL   2178
0B3BC:  MOVFF  02,03
0B3C0:  MOVF   01,W
0B3C2:  ADDLW  02
0B3C4:  MOVLB  6
0B3C6:  MOVWF  x34
0B3C8:  MOVLW  00
0B3CA:  ADDWFC 02,W
0B3CC:  MOVWF  x35
0B3CE:  MOVWF  x3A
0B3D0:  MOVFF  634,639
0B3D4:  MOVLB  0
0B3D6:  CALL   227A
0B3DA:  MOVFF  01,29B
....................          if(diaCiclos>31) 
0B3DE:  MOVLB  2
0B3E0:  MOVF   x9B,W
0B3E2:  SUBLW  1F
0B3E4:  BC    B3EA
....................             diaCiclos=1; 
0B3E6:  MOVLW  01
0B3E8:  MOVWF  x9B
....................          mesCiclos=read_ext_eeprom(3+(cicloVisto*320)); 
0B3EA:  MOVLB  6
0B3EC:  CLRF   x3D
0B3EE:  MOVFF  223,63C
0B3F2:  MOVLW  01
0B3F4:  MOVWF  x3F
0B3F6:  MOVLW  40
0B3F8:  MOVWF  x3E
0B3FA:  MOVLB  0
0B3FC:  CALL   2178
0B400:  MOVFF  02,03
0B404:  MOVF   01,W
0B406:  ADDLW  03
0B408:  MOVLB  6
0B40A:  MOVWF  x34
0B40C:  MOVLW  00
0B40E:  ADDWFC 02,W
0B410:  MOVWF  x35
0B412:  MOVWF  x3A
0B414:  MOVFF  634,639
0B418:  MOVLB  0
0B41A:  CALL   227A
0B41E:  MOVFF  01,29C
....................          if(mesCiclos>12) 
0B422:  MOVLB  2
0B424:  MOVF   x9C,W
0B426:  SUBLW  0C
0B428:  BC    B42E
....................             mesCiclos=1; 
0B42A:  MOVLW  01
0B42C:  MOVWF  x9C
....................          yearCiclos=read_ext_eeprom(4+(cicloVisto*320)); 
0B42E:  MOVLB  6
0B430:  CLRF   x3D
0B432:  MOVFF  223,63C
0B436:  MOVLW  01
0B438:  MOVWF  x3F
0B43A:  MOVLW  40
0B43C:  MOVWF  x3E
0B43E:  MOVLB  0
0B440:  CALL   2178
0B444:  MOVFF  02,03
0B448:  MOVF   01,W
0B44A:  ADDLW  04
0B44C:  MOVLB  6
0B44E:  MOVWF  x34
0B450:  MOVLW  00
0B452:  ADDWFC 02,W
0B454:  MOVWF  x35
0B456:  MOVWF  x3A
0B458:  MOVFF  634,639
0B45C:  MOVLB  0
0B45E:  CALL   227A
0B462:  MOVFF  01,29D
....................          if(yearCiclos>99) 
0B466:  MOVLB  2
0B468:  MOVF   x9D,W
0B46A:  SUBLW  63
0B46C:  BC    B472
....................             yearCiclos=19; 
0B46E:  MOVLW  13
0B470:  MOVWF  x9D
....................          cicloCiclos=read_ext_eeprom(1+(cicloVisto*320)); 
0B472:  MOVLB  6
0B474:  CLRF   x3D
0B476:  MOVFF  223,63C
0B47A:  MOVLW  01
0B47C:  MOVWF  x3F
0B47E:  MOVLW  40
0B480:  MOVWF  x3E
0B482:  MOVLB  0
0B484:  CALL   2178
0B488:  MOVFF  02,03
0B48C:  MOVF   01,W
0B48E:  ADDLW  01
0B490:  MOVLB  6
0B492:  MOVWF  x34
0B494:  MOVLW  00
0B496:  ADDWFC 02,W
0B498:  MOVWF  x35
0B49A:  MOVWF  x3A
0B49C:  MOVFF  634,639
0B4A0:  MOVLB  0
0B4A2:  CALL   227A
0B4A6:  MOVFF  01,29F
....................          if(cicloCiclos>20) 
0B4AA:  MOVLB  2
0B4AC:  MOVF   x9F,W
0B4AE:  SUBLW  14
0B4B0:  BC    B4B6
....................             cicloCiclos=1; 
0B4B2:  MOVLW  01
0B4B4:  MOVWF  x9F
....................          usuarioCiclos=read_ext_eeprom((cicloVisto*320)); 
0B4B6:  MOVLB  6
0B4B8:  CLRF   x3D
0B4BA:  MOVFF  223,63C
0B4BE:  MOVLW  01
0B4C0:  MOVWF  x3F
0B4C2:  MOVLW  40
0B4C4:  MOVWF  x3E
0B4C6:  MOVLB  0
0B4C8:  CALL   2178
0B4CC:  MOVFF  02,635
0B4D0:  MOVFF  01,634
0B4D4:  MOVFF  02,63A
0B4D8:  MOVFF  01,639
0B4DC:  CALL   227A
0B4E0:  MOVFF  01,29E
....................          if(usuarioCiclos>10) 
0B4E4:  MOVLB  2
0B4E6:  MOVF   x9E,W
0B4E8:  SUBLW  0A
0B4EA:  BC    B4F0
....................             usuarioCiclos=1; 
0B4EC:  MOVLW  01
0B4EE:  MOVWF  x9E
....................          for(i=0;i<7;i++){//Lee Valores para completar la Tabla 
0B4F0:  MOVLB  1
0B4F2:  CLRF   xE0
0B4F4:  MOVF   xE0,W
0B4F6:  SUBLW  06
0B4F8:  BTFSS  FD8.0
0B4FA:  BRA    BA56
....................             horaCiclos[i]=read_ext_eeprom((cicloVisto*320)+11+((cicloVisualizado+i)*9)); 
0B4FC:  CLRF   03
0B4FE:  MOVF   xE0,W
0B500:  ADDLW  86
0B502:  MOVWF  01
0B504:  MOVLW  02
0B506:  ADDWFC 03,F
0B508:  MOVFF  01,634
0B50C:  MOVLB  6
0B50E:  MOVFF  03,635
0B512:  CLRF   x3D
0B514:  MOVFF  223,63C
0B518:  MOVLW  01
0B51A:  MOVWF  x3F
0B51C:  MOVLW  40
0B51E:  MOVWF  x3E
0B520:  MOVLB  0
0B522:  CALL   2178
0B526:  MOVFF  02,637
0B52A:  MOVFF  01,636
0B52E:  MOVLW  0B
0B530:  MOVLB  6
0B532:  ADDWF  x36,F
0B534:  MOVLW  00
0B536:  ADDWFC x37,F
0B538:  MOVLB  1
0B53A:  MOVF   xE0,W
0B53C:  MOVLB  2
0B53E:  ADDWF  x22,W
0B540:  MULLW  09
0B542:  MOVF   FF3,W
0B544:  MOVLB  6
0B546:  ADDWF  x36,F
0B548:  MOVLW  00
0B54A:  ADDWFC x37,F
0B54C:  MOVFF  637,63A
0B550:  MOVFF  636,639
0B554:  MOVLB  0
0B556:  CALL   227A
0B55A:  MOVFF  635,FEA
0B55E:  MOVFF  634,FE9
0B562:  MOVFF  01,FEF
....................             if(horaCiclos[i]>24) 
0B566:  CLRF   03
0B568:  MOVLB  1
0B56A:  MOVF   xE0,W
0B56C:  ADDLW  86
0B56E:  MOVWF  FE9
0B570:  MOVLW  02
0B572:  ADDWFC 03,W
0B574:  MOVWF  FEA
0B576:  MOVF   FEF,W
0B578:  SUBLW  18
0B57A:  BC    B58C
....................                horaCiclos[i]=0; 
0B57C:  CLRF   03
0B57E:  MOVF   xE0,W
0B580:  ADDLW  86
0B582:  MOVWF  FE9
0B584:  MOVLW  02
0B586:  ADDWFC 03,W
0B588:  MOVWF  FEA
0B58A:  CLRF   FEF
....................             minutoCiclos[i]=read_ext_eeprom((cicloVisto*320)+12+((cicloVisualizado+i)*9)); 
0B58C:  CLRF   03
0B58E:  MOVF   xE0,W
0B590:  ADDLW  8D
0B592:  MOVWF  01
0B594:  MOVLW  02
0B596:  ADDWFC 03,F
0B598:  MOVFF  01,634
0B59C:  MOVLB  6
0B59E:  MOVFF  03,635
0B5A2:  CLRF   x3D
0B5A4:  MOVFF  223,63C
0B5A8:  MOVLW  01
0B5AA:  MOVWF  x3F
0B5AC:  MOVLW  40
0B5AE:  MOVWF  x3E
0B5B0:  MOVLB  0
0B5B2:  CALL   2178
0B5B6:  MOVFF  02,637
0B5BA:  MOVFF  01,636
0B5BE:  MOVLW  0C
0B5C0:  MOVLB  6
0B5C2:  ADDWF  x36,F
0B5C4:  MOVLW  00
0B5C6:  ADDWFC x37,F
0B5C8:  MOVLB  1
0B5CA:  MOVF   xE0,W
0B5CC:  MOVLB  2
0B5CE:  ADDWF  x22,W
0B5D0:  MULLW  09
0B5D2:  MOVF   FF3,W
0B5D4:  MOVLB  6
0B5D6:  ADDWF  x36,F
0B5D8:  MOVLW  00
0B5DA:  ADDWFC x37,F
0B5DC:  MOVFF  637,63A
0B5E0:  MOVFF  636,639
0B5E4:  MOVLB  0
0B5E6:  CALL   227A
0B5EA:  MOVFF  635,FEA
0B5EE:  MOVFF  634,FE9
0B5F2:  MOVFF  01,FEF
....................             if(minutoCiclos[i]>59) 
0B5F6:  CLRF   03
0B5F8:  MOVLB  1
0B5FA:  MOVF   xE0,W
0B5FC:  ADDLW  8D
0B5FE:  MOVWF  FE9
0B600:  MOVLW  02
0B602:  ADDWFC 03,W
0B604:  MOVWF  FEA
0B606:  MOVF   FEF,W
0B608:  SUBLW  3B
0B60A:  BC    B61C
....................                minutoCiclos[i]=0; 
0B60C:  CLRF   03
0B60E:  MOVF   xE0,W
0B610:  ADDLW  8D
0B612:  MOVWF  FE9
0B614:  MOVLW  02
0B616:  ADDWFC 03,W
0B618:  MOVWF  FEA
0B61A:  CLRF   FEF
....................             TCiclos[i]=read_ext_eeprom((cicloVisto*320)+5+((cicloVisualizado+i)*9))+inttofloat(read_ext_eeprom((cicloVisto*320)+6+((cicloVisualizado+i)*9))); 
0B61C:  MOVF   xE0,W
0B61E:  MULLW  04
0B620:  MOVF   FF3,W
0B622:  CLRF   03
0B624:  ADDLW  4E
0B626:  MOVWF  01
0B628:  MOVLW  02
0B62A:  ADDWFC 03,F
0B62C:  MOVFF  01,634
0B630:  MOVLB  6
0B632:  MOVFF  03,635
0B636:  CLRF   x3D
0B638:  MOVFF  223,63C
0B63C:  MOVLW  01
0B63E:  MOVWF  x3F
0B640:  MOVLW  40
0B642:  MOVWF  x3E
0B644:  MOVLB  0
0B646:  CALL   2178
0B64A:  MOVFF  02,637
0B64E:  MOVFF  01,636
0B652:  MOVLW  05
0B654:  MOVLB  6
0B656:  ADDWF  x36,F
0B658:  MOVLW  00
0B65A:  ADDWFC x37,F
0B65C:  MOVLB  1
0B65E:  MOVF   xE0,W
0B660:  MOVLB  2
0B662:  ADDWF  x22,W
0B664:  MULLW  09
0B666:  MOVF   FF3,W
0B668:  MOVLB  6
0B66A:  ADDWF  x36,F
0B66C:  MOVLW  00
0B66E:  ADDWFC x37,F
0B670:  MOVFF  637,63A
0B674:  MOVFF  636,639
0B678:  MOVLB  0
0B67A:  CALL   227A
0B67E:  MOVFF  01,636
0B682:  MOVLB  6
0B684:  CLRF   x3D
0B686:  MOVFF  223,63C
0B68A:  MOVLW  01
0B68C:  MOVWF  x3F
0B68E:  MOVLW  40
0B690:  MOVWF  x3E
0B692:  MOVLB  0
0B694:  CALL   2178
0B698:  MOVFF  02,638
0B69C:  MOVFF  01,637
0B6A0:  MOVLW  06
0B6A2:  MOVLB  6
0B6A4:  ADDWF  x37,F
0B6A6:  MOVLW  00
0B6A8:  ADDWFC x38,F
0B6AA:  MOVLB  1
0B6AC:  MOVF   xE0,W
0B6AE:  MOVLB  2
0B6B0:  ADDWF  x22,W
0B6B2:  MULLW  09
0B6B4:  MOVF   FF3,W
0B6B6:  MOVLB  6
0B6B8:  ADDWF  x37,F
0B6BA:  MOVLW  00
0B6BC:  ADDWFC x38,F
0B6BE:  MOVFF  638,63A
0B6C2:  MOVFF  637,639
0B6C6:  MOVLB  0
0B6C8:  CALL   227A
0B6CC:  MOVFF  01,637
0B6D0:  MOVFF  01,638
0B6D4:  CALL   2322
0B6D8:  MOVFF  00,637
0B6DC:  MOVFF  01,638
0B6E0:  MOVFF  02,639
0B6E4:  MOVFF  03,63A
0B6E8:  MOVLB  6
0B6EA:  CLRF   x47
0B6EC:  MOVFF  636,646
0B6F0:  MOVLB  0
0B6F2:  CALL   1CD0
0B6F6:  MOVFF  FEA,63C
0B6FA:  MOVFF  FE9,63B
0B6FE:  BCF    FD8.1
0B700:  MOVFF  03,649
0B704:  MOVFF  02,648
0B708:  MOVFF  01,647
0B70C:  MOVFF  00,646
0B710:  MOVFF  63A,64D
0B714:  MOVFF  639,64C
0B718:  MOVFF  638,64B
0B71C:  MOVFF  637,64A
0B720:  CALL   1E8C
0B724:  MOVFF  63C,FEA
0B728:  MOVFF  63B,FE9
0B72C:  MOVFF  635,FEA
0B730:  MOVFF  634,FE9
0B734:  MOVFF  00,FEF
0B738:  MOVFF  01,FEC
0B73C:  MOVFF  02,FEC
0B740:  MOVFF  03,FEC
....................             if(TCiclos[i]>150) 
0B744:  MOVLB  1
0B746:  MOVF   xE0,W
0B748:  MULLW  04
0B74A:  MOVF   FF3,W
0B74C:  CLRF   03
0B74E:  ADDLW  4E
0B750:  MOVWF  FE9
0B752:  MOVLW  02
0B754:  ADDWFC 03,W
0B756:  MOVWF  FEA
0B758:  MOVFF  FEF,634
0B75C:  MOVFF  FEC,635
0B760:  MOVFF  FEC,636
0B764:  MOVFF  FEC,637
0B768:  MOVLB  6
0B76A:  CLRF   x3B
0B76C:  CLRF   x3A
0B76E:  MOVLW  16
0B770:  MOVWF  x39
0B772:  MOVLW  86
0B774:  MOVWF  x38
0B776:  MOVFF  637,63F
0B77A:  MOVFF  636,63E
0B77E:  MOVFF  635,63D
0B782:  MOVFF  634,63C
0B786:  MOVLB  0
0B788:  CALL   2362
0B78C:  BNC   B7AC
....................                TCiclos[i]=0; 
0B78E:  MOVLB  1
0B790:  MOVF   xE0,W
0B792:  MULLW  04
0B794:  MOVF   FF3,W
0B796:  CLRF   03
0B798:  ADDLW  4E
0B79A:  MOVWF  FE9
0B79C:  MOVLW  02
0B79E:  ADDWFC 03,W
0B7A0:  MOVWF  FEA
0B7A2:  CLRF   FEF
0B7A4:  CLRF   FEC
0B7A6:  CLRF   FEC
0B7A8:  CLRF   FEC
0B7AA:  MOVLB  0
....................             PcCiclos[i]=make16(read_ext_eeprom((cicloVisto*320)+7+((cicloVisualizado+i)*9)),read_ext_eeprom((cicloVisto*320)+8+((cicloVisualizado+i)*9))); 
0B7AC:  BCF    FD8.0
0B7AE:  MOVLB  1
0B7B0:  RLCF   xE0,W
0B7B2:  CLRF   03
0B7B4:  ADDLW  6A
0B7B6:  MOVWF  01
0B7B8:  MOVLW  02
0B7BA:  ADDWFC 03,F
0B7BC:  MOVFF  01,634
0B7C0:  MOVLB  6
0B7C2:  MOVFF  03,635
0B7C6:  CLRF   x3D
0B7C8:  MOVFF  223,63C
0B7CC:  MOVLW  01
0B7CE:  MOVWF  x3F
0B7D0:  MOVLW  40
0B7D2:  MOVWF  x3E
0B7D4:  MOVLB  0
0B7D6:  CALL   2178
0B7DA:  MOVFF  02,637
0B7DE:  MOVFF  01,636
0B7E2:  MOVLW  07
0B7E4:  MOVLB  6
0B7E6:  ADDWF  x36,F
0B7E8:  MOVLW  00
0B7EA:  ADDWFC x37,F
0B7EC:  MOVLB  1
0B7EE:  MOVF   xE0,W
0B7F0:  MOVLB  2
0B7F2:  ADDWF  x22,W
0B7F4:  MULLW  09
0B7F6:  MOVF   FF3,W
0B7F8:  MOVLB  6
0B7FA:  ADDWF  x36,F
0B7FC:  MOVLW  00
0B7FE:  ADDWFC x37,F
0B800:  MOVFF  637,63A
0B804:  MOVFF  636,639
0B808:  MOVLB  0
0B80A:  CALL   227A
0B80E:  MOVFF  01,636
0B812:  MOVLB  6
0B814:  CLRF   x3D
0B816:  MOVFF  223,63C
0B81A:  MOVLW  01
0B81C:  MOVWF  x3F
0B81E:  MOVLW  40
0B820:  MOVWF  x3E
0B822:  MOVLB  0
0B824:  CALL   2178
0B828:  MOVFF  02,638
0B82C:  MOVFF  01,637
0B830:  MOVLW  08
0B832:  MOVLB  6
0B834:  ADDWF  x37,F
0B836:  MOVLW  00
0B838:  ADDWFC x38,F
0B83A:  MOVLB  1
0B83C:  MOVF   xE0,W
0B83E:  MOVLB  2
0B840:  ADDWF  x22,W
0B842:  MULLW  09
0B844:  MOVF   FF3,W
0B846:  MOVLB  6
0B848:  ADDWF  x37,F
0B84A:  MOVLW  00
0B84C:  ADDWFC x38,F
0B84E:  MOVFF  638,63A
0B852:  MOVFF  637,639
0B856:  MOVLB  0
0B858:  CALL   227A
0B85C:  MOVFF  635,FEA
0B860:  MOVFF  634,FE9
0B864:  MOVFF  636,FEC
0B868:  MOVF   FED,F
0B86A:  MOVFF  01,FEF
....................             if(PcCiclos[i]>400) 
0B86E:  BCF    FD8.0
0B870:  MOVLB  1
0B872:  RLCF   xE0,W
0B874:  CLRF   03
0B876:  ADDLW  6A
0B878:  MOVWF  FE9
0B87A:  MOVLW  02
0B87C:  ADDWFC 03,W
0B87E:  MOVWF  FEA
0B880:  MOVFF  FEC,635
0B884:  MOVF   FED,F
0B886:  MOVFF  FEF,634
0B88A:  MOVLB  6
0B88C:  MOVF   x35,W
0B88E:  SUBLW  00
0B890:  BC    B8B6
0B892:  XORLW  FF
0B894:  BNZ   B89C
0B896:  MOVF   x34,W
0B898:  SUBLW  90
0B89A:  BC    B8B6
....................                PcCiclos[i]=0; 
0B89C:  BCF    FD8.0
0B89E:  MOVLB  1
0B8A0:  RLCF   xE0,W
0B8A2:  CLRF   03
0B8A4:  ADDLW  6A
0B8A6:  MOVWF  FE9
0B8A8:  MOVLW  02
0B8AA:  ADDWFC 03,W
0B8AC:  MOVWF  FEA
0B8AE:  CLRF   FEC
0B8B0:  MOVF   FED,F
0B8B2:  CLRF   FEF
0B8B4:  MOVLB  6
....................             PpcCiclos[i]=make16(read_ext_eeprom((cicloVisto*320)+9+((cicloVisualizado+i)*9)),read_ext_eeprom((cicloVisto*320)+10+((cicloVisualizado+i)*9))); 
0B8B6:  BCF    FD8.0
0B8B8:  MOVLB  1
0B8BA:  RLCF   xE0,W
0B8BC:  CLRF   03
0B8BE:  ADDLW  78
0B8C0:  MOVWF  01
0B8C2:  MOVLW  02
0B8C4:  ADDWFC 03,F
0B8C6:  MOVFF  01,634
0B8CA:  MOVLB  6
0B8CC:  MOVFF  03,635
0B8D0:  CLRF   x3D
0B8D2:  MOVFF  223,63C
0B8D6:  MOVLW  01
0B8D8:  MOVWF  x3F
0B8DA:  MOVLW  40
0B8DC:  MOVWF  x3E
0B8DE:  MOVLB  0
0B8E0:  CALL   2178
0B8E4:  MOVFF  02,637
0B8E8:  MOVFF  01,636
0B8EC:  MOVLW  09
0B8EE:  MOVLB  6
0B8F0:  ADDWF  x36,F
0B8F2:  MOVLW  00
0B8F4:  ADDWFC x37,F
0B8F6:  MOVLB  1
0B8F8:  MOVF   xE0,W
0B8FA:  MOVLB  2
0B8FC:  ADDWF  x22,W
0B8FE:  MULLW  09
0B900:  MOVF   FF3,W
0B902:  MOVLB  6
0B904:  ADDWF  x36,F
0B906:  MOVLW  00
0B908:  ADDWFC x37,F
0B90A:  MOVFF  637,63A
0B90E:  MOVFF  636,639
0B912:  MOVLB  0
0B914:  CALL   227A
0B918:  MOVFF  01,636
0B91C:  MOVLB  6
0B91E:  CLRF   x3D
0B920:  MOVFF  223,63C
0B924:  MOVLW  01
0B926:  MOVWF  x3F
0B928:  MOVLW  40
0B92A:  MOVWF  x3E
0B92C:  MOVLB  0
0B92E:  CALL   2178
0B932:  MOVFF  02,638
0B936:  MOVFF  01,637
0B93A:  MOVLW  0A
0B93C:  MOVLB  6
0B93E:  ADDWF  x37,F
0B940:  MOVLW  00
0B942:  ADDWFC x38,F
0B944:  MOVLB  1
0B946:  MOVF   xE0,W
0B948:  MOVLB  2
0B94A:  ADDWF  x22,W
0B94C:  MULLW  09
0B94E:  MOVF   FF3,W
0B950:  MOVLB  6
0B952:  ADDWF  x37,F
0B954:  MOVLW  00
0B956:  ADDWFC x38,F
0B958:  MOVFF  638,63A
0B95C:  MOVFF  637,639
0B960:  MOVLB  0
0B962:  CALL   227A
0B966:  MOVFF  635,FEA
0B96A:  MOVFF  634,FE9
0B96E:  MOVFF  636,FEC
0B972:  MOVF   FED,F
0B974:  MOVFF  01,FEF
....................             if(PpcCiclos[i]>400) 
0B978:  BCF    FD8.0
0B97A:  MOVLB  1
0B97C:  RLCF   xE0,W
0B97E:  CLRF   03
0B980:  ADDLW  78
0B982:  MOVWF  FE9
0B984:  MOVLW  02
0B986:  ADDWFC 03,W
0B988:  MOVWF  FEA
0B98A:  MOVFF  FEC,635
0B98E:  MOVF   FED,F
0B990:  MOVFF  FEF,634
0B994:  MOVLB  6
0B996:  MOVF   x35,W
0B998:  SUBLW  00
0B99A:  BC    B9C0
0B99C:  XORLW  FF
0B99E:  BNZ   B9A6
0B9A0:  MOVF   x34,W
0B9A2:  SUBLW  90
0B9A4:  BC    B9C0
....................                PpcCiclos[i]=0; 
0B9A6:  BCF    FD8.0
0B9A8:  MOVLB  1
0B9AA:  RLCF   xE0,W
0B9AC:  CLRF   03
0B9AE:  ADDLW  78
0B9B0:  MOVWF  FE9
0B9B2:  MOVLW  02
0B9B4:  ADDWFC 03,W
0B9B6:  MOVWF  FEA
0B9B8:  CLRF   FEC
0B9BA:  MOVF   FED,F
0B9BC:  CLRF   FEF
0B9BE:  MOVLB  6
....................             ACiclos[i]=read_ext_eeprom((cicloVisto*320)+13+((cicloVisualizado+i)*9)); 
0B9C0:  CLRF   03
0B9C2:  MOVLB  1
0B9C4:  MOVF   xE0,W
0B9C6:  ADDLW  94
0B9C8:  MOVWF  01
0B9CA:  MOVLW  02
0B9CC:  ADDWFC 03,F
0B9CE:  MOVFF  01,634
0B9D2:  MOVLB  6
0B9D4:  MOVFF  03,635
0B9D8:  CLRF   x3D
0B9DA:  MOVFF  223,63C
0B9DE:  MOVLW  01
0B9E0:  MOVWF  x3F
0B9E2:  MOVLW  40
0B9E4:  MOVWF  x3E
0B9E6:  MOVLB  0
0B9E8:  CALL   2178
0B9EC:  MOVFF  02,637
0B9F0:  MOVFF  01,636
0B9F4:  MOVLW  0D
0B9F6:  MOVLB  6
0B9F8:  ADDWF  x36,F
0B9FA:  MOVLW  00
0B9FC:  ADDWFC x37,F
0B9FE:  MOVLB  1
0BA00:  MOVF   xE0,W
0BA02:  MOVLB  2
0BA04:  ADDWF  x22,W
0BA06:  MULLW  09
0BA08:  MOVF   FF3,W
0BA0A:  MOVLB  6
0BA0C:  ADDWF  x36,F
0BA0E:  MOVLW  00
0BA10:  ADDWFC x37,F
0BA12:  MOVFF  637,63A
0BA16:  MOVFF  636,639
0BA1A:  MOVLB  0
0BA1C:  CALL   227A
0BA20:  MOVFF  635,FEA
0BA24:  MOVFF  634,FE9
0BA28:  MOVFF  01,FEF
....................             if(ACiclos[i]>20) 
0BA2C:  CLRF   03
0BA2E:  MOVLB  1
0BA30:  MOVF   xE0,W
0BA32:  ADDLW  94
0BA34:  MOVWF  FE9
0BA36:  MOVLW  02
0BA38:  ADDWFC 03,W
0BA3A:  MOVWF  FEA
0BA3C:  MOVF   FEF,W
0BA3E:  SUBLW  14
0BA40:  BC    BA52
....................                ACiclos[i]=0; 
0BA42:  CLRF   03
0BA44:  MOVF   xE0,W
0BA46:  ADDLW  94
0BA48:  MOVWF  FE9
0BA4A:  MOVLW  02
0BA4C:  ADDWFC 03,W
0BA4E:  MOVWF  FEA
0BA50:  CLRF   FEF
....................          } 
0BA52:  INCF   xE0,F
0BA54:  BRA    B4F4
0BA56:  MOVLB  0
....................       } 
....................        
....................       //Imprime Valores Estaticos 
....................       printf("fecha.txt=\"%02u/%02u/%02u\"",diaCiclos,mesCiclos,yearCiclos); 
0BA58:  MOVLW  32
0BA5A:  MOVWF  FF6
0BA5C:  MOVLW  13
0BA5E:  MOVWF  FF7
0BA60:  MOVLW  00
0BA62:  MOVWF  FF8
0BA64:  MOVLW  0B
0BA66:  MOVLB  6
0BA68:  MOVWF  x39
0BA6A:  MOVLB  0
0BA6C:  CALL   4B78
0BA70:  MOVFF  29B,639
0BA74:  MOVLW  01
0BA76:  MOVLB  6
0BA78:  MOVWF  x3A
0BA7A:  MOVLB  0
0BA7C:  CALL   4BFC
0BA80:  MOVLW  2F
0BA82:  BTFSS  F9E.4
0BA84:  BRA    BA82
0BA86:  MOVWF  FAD
0BA88:  MOVFF  29C,639
0BA8C:  MOVLW  01
0BA8E:  MOVLB  6
0BA90:  MOVWF  x3A
0BA92:  MOVLB  0
0BA94:  CALL   4BFC
0BA98:  MOVLW  2F
0BA9A:  BTFSS  F9E.4
0BA9C:  BRA    BA9A
0BA9E:  MOVWF  FAD
0BAA0:  MOVFF  29D,639
0BAA4:  MOVLW  01
0BAA6:  MOVLB  6
0BAA8:  MOVWF  x3A
0BAAA:  MOVLB  0
0BAAC:  CALL   4BFC
0BAB0:  MOVLW  22
0BAB2:  BTFSS  F9E.4
0BAB4:  BRA    BAB2
0BAB6:  MOVWF  FAD
....................       SendDataDisplay(); 
0BAB8:  CALL   3B6A
....................        
....................       printf("ciclo.txt=\"%02u\"",cicloCiclos); 
0BABC:  MOVLW  4E
0BABE:  MOVWF  FF6
0BAC0:  MOVLW  13
0BAC2:  MOVWF  FF7
0BAC4:  MOVLW  00
0BAC6:  MOVWF  FF8
0BAC8:  MOVLW  0B
0BACA:  MOVLB  6
0BACC:  MOVWF  x39
0BACE:  MOVLB  0
0BAD0:  CALL   4B78
0BAD4:  MOVFF  29F,639
0BAD8:  MOVLW  01
0BADA:  MOVLB  6
0BADC:  MOVWF  x3A
0BADE:  MOVLB  0
0BAE0:  CALL   4BFC
0BAE4:  MOVLW  22
0BAE6:  BTFSS  F9E.4
0BAE8:  BRA    BAE6
0BAEA:  MOVWF  FAD
....................       SendDataDisplay(); 
0BAEC:  CALL   3B6A
....................        
....................       printf("t0.txt=\"Ciclo %02u\"",cicloVisto+1); 
0BAF0:  MOVLW  01
0BAF2:  MOVLB  2
0BAF4:  ADDWF  x23,W
0BAF6:  MOVLB  6
0BAF8:  MOVWF  x34
0BAFA:  MOVLW  60
0BAFC:  MOVWF  FF6
0BAFE:  MOVLW  13
0BB00:  MOVWF  FF7
0BB02:  MOVLW  00
0BB04:  MOVWF  FF8
0BB06:  MOVLW  0E
0BB08:  MOVWF  x39
0BB0A:  MOVLB  0
0BB0C:  CALL   4B78
0BB10:  MOVFF  634,639
0BB14:  MOVLW  01
0BB16:  MOVLB  6
0BB18:  MOVWF  x3A
0BB1A:  MOVLB  0
0BB1C:  CALL   4BFC
0BB20:  MOVLW  22
0BB22:  BTFSS  F9E.4
0BB24:  BRA    BB22
0BB26:  MOVWF  FAD
....................       SendDataDisplay(); 
0BB28:  CALL   3B6A
....................        
....................       if(usuarioCiclos==0){ 
0BB2C:  MOVLB  2
0BB2E:  MOVF   x9E,F
0BB30:  BNZ   BB4C
....................          printf("usuario.txt=\"Admin\""); 
0BB32:  MOVLW  74
0BB34:  MOVWF  FF6
0BB36:  MOVLW  13
0BB38:  MOVWF  FF7
0BB3A:  MOVLW  00
0BB3C:  MOVWF  FF8
0BB3E:  MOVLB  0
0BB40:  CALL   3B38
....................          SendDataDisplay(); 
0BB44:  CALL   3B6A
....................       }else if(usuarioCiclos>0 && usuarioCiclos<9){ 
0BB48:  BRA    BBAA
0BB4A:  MOVLB  2
0BB4C:  MOVF   x9E,F
0BB4E:  BZ    BB8E
0BB50:  MOVF   x9E,W
0BB52:  SUBLW  08
0BB54:  BNC   BB8E
....................          printf("usuario.txt=\"Operador%u\"",usuarioCiclos); 
0BB56:  MOVLW  88
0BB58:  MOVWF  FF6
0BB5A:  MOVLW  13
0BB5C:  MOVWF  FF7
0BB5E:  MOVLW  00
0BB60:  MOVWF  FF8
0BB62:  MOVLW  15
0BB64:  MOVLB  6
0BB66:  MOVWF  x39
0BB68:  MOVLB  0
0BB6A:  CALL   4B78
0BB6E:  MOVFF  29E,639
0BB72:  MOVLW  1B
0BB74:  MOVLB  6
0BB76:  MOVWF  x3A
0BB78:  MOVLB  0
0BB7A:  CALL   4BFC
0BB7E:  MOVLW  22
0BB80:  BTFSS  F9E.4
0BB82:  BRA    BB80
0BB84:  MOVWF  FAD
....................          SendDataDisplay(); 
0BB86:  CALL   3B6A
....................       }else if(usuarioCiclos==9){ 
0BB8A:  BRA    BBAA
0BB8C:  MOVLB  2
0BB8E:  MOVF   x9E,W
0BB90:  SUBLW  09
0BB92:  BNZ   BBAA
....................          printf("usuario.txt=\"Tecnico\""); 
0BB94:  MOVLW  A2
0BB96:  MOVWF  FF6
0BB98:  MOVLW  13
0BB9A:  MOVWF  FF7
0BB9C:  MOVLW  00
0BB9E:  MOVWF  FF8
0BBA0:  MOVLB  0
0BBA2:  CALL   3B38
....................          SendDataDisplay(); 
0BBA6:  CALL   3B6A
....................       } 
....................        
....................       //Imprime Valores Dinamicos 
....................       for(i=0;i<7;i++){ 
0BBAA:  MOVLB  1
0BBAC:  CLRF   xE0
0BBAE:  MOVF   xE0,W
0BBB0:  SUBLW  06
0BBB2:  BTFSS  FD8.0
0BBB4:  BRA    BE4E
....................          printf("hora%u.txt=\"%02u.  %02u:%02u\"",i+1,cicloVisualizado+i+1,horaCiclos[i],minutoCiclos[i]); 
0BBB6:  MOVLW  01
0BBB8:  ADDWF  xE0,W
0BBBA:  MOVLB  6
0BBBC:  MOVWF  x34
0BBBE:  MOVLB  1
0BBC0:  MOVF   xE0,W
0BBC2:  MOVLB  2
0BBC4:  ADDWF  x22,W
0BBC6:  ADDLW  01
0BBC8:  MOVLB  6
0BBCA:  MOVWF  x35
0BBCC:  CLRF   03
0BBCE:  MOVLB  1
0BBD0:  MOVF   xE0,W
0BBD2:  ADDLW  86
0BBD4:  MOVWF  FE9
0BBD6:  MOVLW  02
0BBD8:  ADDWFC 03,W
0BBDA:  MOVWF  FEA
0BBDC:  MOVFF  FEF,636
0BBE0:  CLRF   03
0BBE2:  MOVF   xE0,W
0BBE4:  ADDLW  8D
0BBE6:  MOVWF  FE9
0BBE8:  MOVLW  02
0BBEA:  ADDWFC 03,W
0BBEC:  MOVWF  FEA
0BBEE:  MOVFF  FEF,637
0BBF2:  MOVLW  B8
0BBF4:  MOVWF  FF6
0BBF6:  MOVLW  13
0BBF8:  MOVWF  FF7
0BBFA:  MOVLW  00
0BBFC:  MOVWF  FF8
0BBFE:  MOVLW  04
0BC00:  MOVLB  6
0BC02:  MOVWF  x39
0BC04:  MOVLB  0
0BC06:  CALL   4B78
0BC0A:  MOVFF  634,639
0BC0E:  MOVLW  1B
0BC10:  MOVLB  6
0BC12:  MOVWF  x3A
0BC14:  MOVLB  0
0BC16:  CALL   4BFC
0BC1A:  MOVLW  BE
0BC1C:  MOVWF  FF6
0BC1E:  MOVLW  13
0BC20:  MOVWF  FF7
0BC22:  MOVLW  00
0BC24:  MOVWF  FF8
0BC26:  MOVLW  06
0BC28:  MOVLB  6
0BC2A:  MOVWF  x39
0BC2C:  MOVLB  0
0BC2E:  CALL   4B78
0BC32:  MOVFF  635,639
0BC36:  MOVLW  01
0BC38:  MOVLB  6
0BC3A:  MOVWF  x3A
0BC3C:  MOVLB  0
0BC3E:  CALL   4BFC
0BC42:  MOVLW  2E
0BC44:  BTFSS  F9E.4
0BC46:  BRA    BC44
0BC48:  MOVWF  FAD
0BC4A:  MOVLW  20
0BC4C:  BTFSS  F9E.4
0BC4E:  BRA    BC4C
0BC50:  MOVWF  FAD
0BC52:  MOVLW  20
0BC54:  BTFSS  F9E.4
0BC56:  BRA    BC54
0BC58:  MOVWF  FAD
0BC5A:  MOVFF  636,639
0BC5E:  MOVLW  01
0BC60:  MOVLB  6
0BC62:  MOVWF  x3A
0BC64:  MOVLB  0
0BC66:  CALL   4BFC
0BC6A:  MOVLW  3A
0BC6C:  BTFSS  F9E.4
0BC6E:  BRA    BC6C
0BC70:  MOVWF  FAD
0BC72:  MOVFF  637,639
0BC76:  MOVLW  01
0BC78:  MOVLB  6
0BC7A:  MOVWF  x3A
0BC7C:  MOVLB  0
0BC7E:  CALL   4BFC
0BC82:  MOVLW  22
0BC84:  BTFSS  F9E.4
0BC86:  BRA    BC84
0BC88:  MOVWF  FAD
....................          SendDataDisplay(); 
0BC8A:  CALL   3B6A
....................          printf("T%u.txt=\"%3.1fC\"",i+1,TCiclos[i]); 
0BC8E:  MOVLW  01
0BC90:  MOVLB  1
0BC92:  ADDWF  xE0,W
0BC94:  MOVLB  6
0BC96:  MOVWF  x34
0BC98:  MOVLB  1
0BC9A:  MOVF   xE0,W
0BC9C:  MULLW  04
0BC9E:  MOVF   FF3,W
0BCA0:  CLRF   03
0BCA2:  ADDLW  4E
0BCA4:  MOVWF  FE9
0BCA6:  MOVLW  02
0BCA8:  ADDWFC 03,W
0BCAA:  MOVWF  FEA
0BCAC:  MOVFF  FEF,635
0BCB0:  MOVFF  FEC,636
0BCB4:  MOVFF  FEC,637
0BCB8:  MOVFF  FEC,638
0BCBC:  MOVLW  54
0BCBE:  BTFSS  F9E.4
0BCC0:  BRA    BCBE
0BCC2:  MOVWF  FAD
0BCC4:  MOVFF  634,639
0BCC8:  MOVLW  1B
0BCCA:  MOVLB  6
0BCCC:  MOVWF  x3A
0BCCE:  MOVLB  0
0BCD0:  CALL   4BFC
0BCD4:  MOVLW  D9
0BCD6:  MOVWF  FF6
0BCD8:  MOVLW  13
0BCDA:  MOVWF  FF7
0BCDC:  MOVLW  00
0BCDE:  MOVWF  FF8
0BCE0:  MOVLW  06
0BCE2:  MOVLB  6
0BCE4:  MOVWF  x39
0BCE6:  MOVLB  0
0BCE8:  CALL   4B78
0BCEC:  MOVLW  02
0BCEE:  MOVWF  FE9
0BCF0:  MOVFF  638,63C
0BCF4:  MOVFF  637,63B
0BCF8:  MOVFF  636,63A
0BCFC:  MOVFF  635,639
0BD00:  MOVLW  01
0BD02:  MOVLB  6
0BD04:  MOVWF  x3D
0BD06:  MOVLB  0
0BD08:  CALL   4E52
0BD0C:  MOVLW  B0
0BD0E:  BTFSS  F9E.4
0BD10:  BRA    BD0E
0BD12:  MOVWF  FAD
0BD14:  MOVLW  43
0BD16:  BTFSS  F9E.4
0BD18:  BRA    BD16
0BD1A:  MOVWF  FAD
0BD1C:  MOVLW  22
0BD1E:  BTFSS  F9E.4
0BD20:  BRA    BD1E
0BD22:  MOVWF  FAD
....................          SendDataDisplay(); 
0BD24:  CALL   3B6A
....................          printf("Pc%u.txt=\"%03LukPa\"",i+1,PcCiclos[i]); 
0BD28:  MOVLW  01
0BD2A:  MOVLB  1
0BD2C:  ADDWF  xE0,W
0BD2E:  MOVLB  6
0BD30:  MOVWF  x34
0BD32:  BCF    FD8.0
0BD34:  MOVLB  1
0BD36:  RLCF   xE0,W
0BD38:  CLRF   03
0BD3A:  ADDLW  6A
0BD3C:  MOVWF  FE9
0BD3E:  MOVLW  02
0BD40:  ADDWFC 03,W
0BD42:  MOVWF  FEA
0BD44:  MOVFF  FEC,636
0BD48:  MOVF   FED,F
0BD4A:  MOVFF  FEF,635
0BD4E:  MOVLW  50
0BD50:  BTFSS  F9E.4
0BD52:  BRA    BD50
0BD54:  MOVWF  FAD
0BD56:  MOVLW  63
0BD58:  BTFSS  F9E.4
0BD5A:  BRA    BD58
0BD5C:  MOVWF  FAD
0BD5E:  MOVFF  634,639
0BD62:  MOVLW  1B
0BD64:  MOVLB  6
0BD66:  MOVWF  x3A
0BD68:  MOVLB  0
0BD6A:  CALL   4BFC
0BD6E:  MOVLW  EC
0BD70:  MOVWF  FF6
0BD72:  MOVLW  13
0BD74:  MOVWF  FF7
0BD76:  MOVLW  00
0BD78:  MOVWF  FF8
0BD7A:  MOVLW  06
0BD7C:  MOVLB  6
0BD7E:  MOVWF  x39
0BD80:  MOVLB  0
0BD82:  CALL   4B78
0BD86:  MOVLW  0A
0BD88:  MOVWF  FE9
0BD8A:  MOVFF  636,639
0BD8E:  MOVFF  635,638
0BD92:  CALL   4CE4
0BD96:  MOVLW  F7
0BD98:  MOVWF  FF6
0BD9A:  MOVLW  13
0BD9C:  MOVWF  FF7
0BD9E:  MOVLW  00
0BDA0:  MOVWF  FF8
0BDA2:  MOVLW  04
0BDA4:  MOVLB  6
0BDA6:  MOVWF  x39
0BDA8:  MOVLB  0
0BDAA:  CALL   4B78
....................          SendDataDisplay(); 
0BDAE:  CALL   3B6A
....................          printf("Ppc%u.txt=\"%03LukPa\"",i+1,PpcCiclos[i]); 
0BDB2:  MOVLW  01
0BDB4:  MOVLB  1
0BDB6:  ADDWF  xE0,W
0BDB8:  MOVLB  6
0BDBA:  MOVWF  x34
0BDBC:  BCF    FD8.0
0BDBE:  MOVLB  1
0BDC0:  RLCF   xE0,W
0BDC2:  CLRF   03
0BDC4:  ADDLW  78
0BDC6:  MOVWF  FE9
0BDC8:  MOVLW  02
0BDCA:  ADDWFC 03,W
0BDCC:  MOVWF  FEA
0BDCE:  MOVFF  FEC,636
0BDD2:  MOVF   FED,F
0BDD4:  MOVFF  FEF,635
0BDD8:  MOVLW  50
0BDDA:  BTFSS  F9E.4
0BDDC:  BRA    BDDA
0BDDE:  MOVWF  FAD
0BDE0:  MOVLW  70
0BDE2:  BTFSS  F9E.4
0BDE4:  BRA    BDE2
0BDE6:  MOVWF  FAD
0BDE8:  MOVLW  63
0BDEA:  BTFSS  F9E.4
0BDEC:  BRA    BDEA
0BDEE:  MOVWF  FAD
0BDF0:  MOVFF  634,639
0BDF4:  MOVLW  1B
0BDF6:  MOVLB  6
0BDF8:  MOVWF  x3A
0BDFA:  MOVLB  0
0BDFC:  CALL   4BFC
0BE00:  MOVLW  01
0BE02:  MOVWF  FF6
0BE04:  MOVLW  14
0BE06:  MOVWF  FF7
0BE08:  MOVLW  00
0BE0A:  MOVWF  FF8
0BE0C:  MOVLW  06
0BE0E:  MOVLB  6
0BE10:  MOVWF  x39
0BE12:  MOVLB  0
0BE14:  CALL   4B78
0BE18:  MOVLW  0A
0BE1A:  MOVWF  FE9
0BE1C:  MOVFF  636,639
0BE20:  MOVFF  635,638
0BE24:  CALL   4CE4
0BE28:  MOVLW  0C
0BE2A:  MOVWF  FF6
0BE2C:  MOVLW  14
0BE2E:  MOVWF  FF7
0BE30:  MOVLW  00
0BE32:  MOVWF  FF8
0BE34:  MOVLW  04
0BE36:  MOVLB  6
0BE38:  MOVWF  x39
0BE3A:  MOVLB  0
0BE3C:  CALL   4B78
....................          SendDataDisplay();          
0BE40:  CALL   3B6A
....................          codificaAlarma(); 
0BE44:  GOTO   55BC
....................       }   
0BE48:  MOVLB  1
0BE4A:  INCF   xE0,F
0BE4C:  BRA    BBAE
....................    } 
.................... //_--------------------------------------------------------------------------------------------------------------------------------------------------------       
....................  
.................... //_--------------------------------------------------------------------------------------------------------------------------------------------------------       
....................     if(Menu==13){//Menu de Nivel de Desfogue 
0BE4E:  MOVF   xDD,W
0BE50:  SUBLW  0D
0BE52:  BTFSS  FD8.2
0BE54:  BRA    C028
....................       printf("fecha.txt=\"Fecha:%02u/%02u/20%02u Hora: %02u:%02u:%02u\"",Dia,Mes,Year,Hora,Minuto,Segundo); 
0BE56:  MOVLW  12
0BE58:  MOVWF  FF6
0BE5A:  MOVLW  14
0BE5C:  MOVWF  FF7
0BE5E:  MOVLW  00
0BE60:  MOVWF  FF8
0BE62:  MOVLW  11
0BE64:  MOVLB  6
0BE66:  MOVWF  x39
0BE68:  MOVLB  0
0BE6A:  CALL   4B78
0BE6E:  MOVFF  21D,639
0BE72:  MOVLW  01
0BE74:  MOVLB  6
0BE76:  MOVWF  x3A
0BE78:  MOVLB  0
0BE7A:  CALL   4BFC
0BE7E:  MOVLW  2F
0BE80:  BTFSS  F9E.4
0BE82:  BRA    BE80
0BE84:  MOVWF  FAD
0BE86:  MOVFF  21C,639
0BE8A:  MOVLW  01
0BE8C:  MOVLB  6
0BE8E:  MOVWF  x3A
0BE90:  MOVLB  0
0BE92:  CALL   4BFC
0BE96:  MOVLW  2F
0BE98:  BTFSS  F9E.4
0BE9A:  BRA    BE98
0BE9C:  MOVWF  FAD
0BE9E:  MOVLW  32
0BEA0:  BTFSS  F9E.4
0BEA2:  BRA    BEA0
0BEA4:  MOVWF  FAD
0BEA6:  MOVLW  30
0BEA8:  BTFSS  F9E.4
0BEAA:  BRA    BEA8
0BEAC:  MOVWF  FAD
0BEAE:  MOVFF  21B,639
0BEB2:  MOVLW  01
0BEB4:  MOVLB  6
0BEB6:  MOVWF  x3A
0BEB8:  MOVLB  0
0BEBA:  CALL   4BFC
0BEBE:  MOVLW  33
0BEC0:  MOVWF  FF6
0BEC2:  MOVLW  14
0BEC4:  MOVWF  FF7
0BEC6:  MOVLW  00
0BEC8:  MOVWF  FF8
0BECA:  MOVLW  07
0BECC:  MOVLB  6
0BECE:  MOVWF  x39
0BED0:  MOVLB  0
0BED2:  CALL   4B78
0BED6:  MOVFF  21E,639
0BEDA:  MOVLW  01
0BEDC:  MOVLB  6
0BEDE:  MOVWF  x3A
0BEE0:  MOVLB  0
0BEE2:  CALL   4BFC
0BEE6:  MOVLW  3A
0BEE8:  BTFSS  F9E.4
0BEEA:  BRA    BEE8
0BEEC:  MOVWF  FAD
0BEEE:  MOVFF  21F,639
0BEF2:  MOVLW  01
0BEF4:  MOVLB  6
0BEF6:  MOVWF  x3A
0BEF8:  MOVLB  0
0BEFA:  CALL   4BFC
0BEFE:  MOVLW  3A
0BF00:  BTFSS  F9E.4
0BF02:  BRA    BF00
0BF04:  MOVWF  FAD
0BF06:  MOVFF  220,639
0BF0A:  MOVLW  01
0BF0C:  MOVLB  6
0BF0E:  MOVWF  x3A
0BF10:  MOVLB  0
0BF12:  CALL   4BFC
0BF16:  MOVLW  22
0BF18:  BTFSS  F9E.4
0BF1A:  BRA    BF18
0BF1C:  MOVWF  FAD
....................       SendDataDisplay(); 
0BF1E:  CALL   3B6A
....................          if(NivelDes<1) 
0BF22:  MOVLB  2
0BF24:  MOVF   x0C,F
0BF26:  BNZ   BF2C
....................             NivelDes=6; 
0BF28:  MOVLW  06
0BF2A:  MOVWF  x0C
....................          if(NivelDes>6) 
0BF2C:  MOVF   x0C,W
0BF2E:  SUBLW  06
0BF30:  BC    BF36
....................             NivelDes=1; 
0BF32:  MOVLW  01
0BF34:  MOVWF  x0C
....................           
....................          if(RX_Buffer[4]==0x11){//Selecciono Regresar 
0BF36:  MOVF   34,W
0BF38:  SUBLW  11
0BF3A:  BNZ   BFDA
....................             Segundos=OFF; 
0BF3C:  MOVLB  0
0BF3E:  BCF    x89.4
....................             Minutos=OFF;             
0BF40:  BCF    x89.3
....................             tiempo_secado=0; 
0BF42:  MOVLB  1
0BF44:  CLRF   xEB
....................             printf("page CicloPersona"); 
0BF46:  MOVLW  4A
0BF48:  MOVWF  FF6
0BF4A:  MOVLW  14
0BF4C:  MOVWF  FF7
0BF4E:  MOVLW  00
0BF50:  MOVWF  FF8
0BF52:  MOVLB  0
0BF54:  CALL   3B38
....................             SendDataDisplay();   
0BF58:  CALL   3B6A
....................             if(!GuardaEEPROM){     
0BF5C:  BTFSC  x89.5
0BF5E:  BRA    BFD8
....................                CiclosPersonalizados[CicloLibre-1].NivelDesfogue=NivelDes; 
0BF60:  MOVLW  01
0BF62:  MOVLB  2
0BF64:  SUBWF  x31,W
0BF66:  MULLW  08
0BF68:  MOVF   FF3,W
0BF6A:  MOVLB  6
0BF6C:  CLRF   x35
0BF6E:  MOVWF  x34
0BF70:  MOVLW  07
0BF72:  ADDWF  x34,W
0BF74:  MOVWF  01
0BF76:  MOVLW  00
0BF78:  ADDWFC x35,W
0BF7A:  MOVWF  03
0BF7C:  MOVF   01,W
0BF7E:  ADDLW  6C
0BF80:  MOVWF  FE9
0BF82:  MOVLW  05
0BF84:  ADDWFC 03,W
0BF86:  MOVWF  FEA
0BF88:  MOVFF  20C,FEF
....................                write_eeprom(107+((CicloLibre-1)*8),NivelDes); 
0BF8C:  MOVLW  01
0BF8E:  MOVLB  2
0BF90:  SUBWF  x31,W
0BF92:  MULLW  08
0BF94:  MOVF   FF3,W
0BF96:  ADDLW  6B
0BF98:  MOVLB  6
0BF9A:  MOVWF  x34
0BF9C:  CLRF   FAA
0BF9E:  MOVFF  634,FA9
0BFA2:  MOVFF  20C,FA8
0BFA6:  BCF    FA6.6
0BFA8:  BCF    FA6.7
0BFAA:  BSF    FA6.2
0BFAC:  MOVF   FF2,W
0BFAE:  MOVWF  00
0BFB0:  BCF    FF2.6
0BFB2:  BCF    FF2.7
0BFB4:  MOVLB  F
0BFB6:  MOVLW  55
0BFB8:  MOVWF  FA7
0BFBA:  MOVLW  AA
0BFBC:  MOVWF  FA7
0BFBE:  BSF    FA6.1
0BFC0:  BTFSC  FA6.1
0BFC2:  BRA    BFC0
0BFC4:  BCF    FA6.2
0BFC6:  MOVF   00,W
0BFC8:  IORWF  FF2,F
....................                delay_ms(20);             
0BFCA:  MOVLW  14
0BFCC:  MOVLB  6
0BFCE:  MOVWF  x3D
0BFD0:  MOVLB  0
0BFD2:  CALL   1D06
....................                GuardaEEPROM=ON; 
0BFD6:  BSF    x89.5
0BFD8:  MOVLB  2
....................             } 
....................          } 
....................           
....................          if(RX_Buffer[4]==0x0d){//Tecla Arriba Oprimida 
0BFDA:  MOVF   34,W
0BFDC:  SUBLW  0D
0BFDE:  BNZ   BFE6
....................             NivelDes++; 
0BFE0:  INCF   x0C,F
....................             RX_Buffer[4]=0x00;             
0BFE2:  CLRF   34
....................             RX_Buffer2[4]=0x00;                        
0BFE4:  CLRF   3F
....................          } 
....................           
....................          if(RX_Buffer[4]==0x0c){//Tecla Abajo Oprimida 
0BFE6:  MOVF   34,W
0BFE8:  SUBLW  0C
0BFEA:  BNZ   BFF2
....................             NivelDes--; 
0BFEC:  DECF   x0C,F
....................             RX_Buffer[4]=0x00; 
0BFEE:  CLRF   34
....................             RX_Buffer2[4]=0x00;                         
0BFF0:  CLRF   3F
....................          } 
....................           
....................       printf("tnivel.txt=\"%u\"",NivelDes); 
0BFF2:  MOVLW  5C
0BFF4:  MOVWF  FF6
0BFF6:  MOVLW  14
0BFF8:  MOVWF  FF7
0BFFA:  MOVLW  00
0BFFC:  MOVWF  FF8
0BFFE:  MOVLW  0C
0C000:  MOVLB  6
0C002:  MOVWF  x39
0C004:  MOVLB  0
0C006:  CALL   4B78
0C00A:  MOVFF  20C,639
0C00E:  MOVLW  1B
0C010:  MOVLB  6
0C012:  MOVWF  x3A
0C014:  MOVLB  0
0C016:  CALL   4BFC
0C01A:  MOVLW  22
0C01C:  BTFSS  F9E.4
0C01E:  BRA    C01C
0C020:  MOVWF  FAD
....................       SendDataDisplay(); 
0C022:  CALL   3B6A
0C026:  MOVLB  1
....................    } 
.................... //_--------------------------------------------------------------------------------------------------------------------------------------------------------       
....................  
.................... //_--------------------------------------------------------------------------------------------------------------------------------------------------------       
....................     if(Menu==14){//Menu de Activacion de Ciclos 
0C028:  MOVF   xDD,W
0C02A:  SUBLW  0E
0C02C:  BTFSS  FD8.2
0C02E:  BRA    C258
....................       printf("fecha.txt=\"Fecha:%02u/%02u/20%02u Hora: %02u:%02u:%02u\"",Dia,Mes,Year,Hora,Minuto,Segundo); 
0C030:  MOVLW  6C
0C032:  MOVWF  FF6
0C034:  MOVLW  14
0C036:  MOVWF  FF7
0C038:  MOVLW  00
0C03A:  MOVWF  FF8
0C03C:  MOVLW  11
0C03E:  MOVLB  6
0C040:  MOVWF  x39
0C042:  MOVLB  0
0C044:  CALL   4B78
0C048:  MOVFF  21D,639
0C04C:  MOVLW  01
0C04E:  MOVLB  6
0C050:  MOVWF  x3A
0C052:  MOVLB  0
0C054:  CALL   4BFC
0C058:  MOVLW  2F
0C05A:  BTFSS  F9E.4
0C05C:  BRA    C05A
0C05E:  MOVWF  FAD
0C060:  MOVFF  21C,639
0C064:  MOVLW  01
0C066:  MOVLB  6
0C068:  MOVWF  x3A
0C06A:  MOVLB  0
0C06C:  CALL   4BFC
0C070:  MOVLW  2F
0C072:  BTFSS  F9E.4
0C074:  BRA    C072
0C076:  MOVWF  FAD
0C078:  MOVLW  32
0C07A:  BTFSS  F9E.4
0C07C:  BRA    C07A
0C07E:  MOVWF  FAD
0C080:  MOVLW  30
0C082:  BTFSS  F9E.4
0C084:  BRA    C082
0C086:  MOVWF  FAD
0C088:  MOVFF  21B,639
0C08C:  MOVLW  01
0C08E:  MOVLB  6
0C090:  MOVWF  x3A
0C092:  MOVLB  0
0C094:  CALL   4BFC
0C098:  MOVLW  8D
0C09A:  MOVWF  FF6
0C09C:  MOVLW  14
0C09E:  MOVWF  FF7
0C0A0:  MOVLW  00
0C0A2:  MOVWF  FF8
0C0A4:  MOVLW  07
0C0A6:  MOVLB  6
0C0A8:  MOVWF  x39
0C0AA:  MOVLB  0
0C0AC:  CALL   4B78
0C0B0:  MOVFF  21E,639
0C0B4:  MOVLW  01
0C0B6:  MOVLB  6
0C0B8:  MOVWF  x3A
0C0BA:  MOVLB  0
0C0BC:  CALL   4BFC
0C0C0:  MOVLW  3A
0C0C2:  BTFSS  F9E.4
0C0C4:  BRA    C0C2
0C0C6:  MOVWF  FAD
0C0C8:  MOVFF  21F,639
0C0CC:  MOVLW  01
0C0CE:  MOVLB  6
0C0D0:  MOVWF  x3A
0C0D2:  MOVLB  0
0C0D4:  CALL   4BFC
0C0D8:  MOVLW  3A
0C0DA:  BTFSS  F9E.4
0C0DC:  BRA    C0DA
0C0DE:  MOVWF  FAD
0C0E0:  MOVFF  220,639
0C0E4:  MOVLW  01
0C0E6:  MOVLB  6
0C0E8:  MOVWF  x3A
0C0EA:  MOVLB  0
0C0EC:  CALL   4BFC
0C0F0:  MOVLW  22
0C0F2:  BTFSS  F9E.4
0C0F4:  BRA    C0F2
0C0F6:  MOVWF  FAD
....................       SendDataDisplay(); 
0C0F8:  CALL   3B6A
....................        
....................       if(RX_Buffer[4]==0xaa){ 
0C0FC:  MOVF   34,W
0C0FE:  SUBLW  AA
0C100:  BNZ   C18A
....................          for(i=0;i<30;i++){ 
0C102:  MOVLB  1
0C104:  CLRF   xE0
0C106:  MOVF   xE0,W
0C108:  SUBLW  1D
0C10A:  BNC   C170
....................             write_eeprom(50+i,estados[i]); 
0C10C:  MOVLW  32
0C10E:  ADDWF  xE0,W
0C110:  MOVLB  6
0C112:  MOVWF  x34
0C114:  MOVFF  1E0,635
0C118:  MOVLW  02
0C11A:  MOVWF  x37
0C11C:  MOVLW  A0
0C11E:  MOVWF  x36
0C120:  MOVLB  0
0C122:  CALL   2146
0C126:  MOVLW  00
0C128:  BTFSC  01.0
0C12A:  MOVLW  01
0C12C:  MOVLB  6
0C12E:  MOVWF  x35
0C130:  CLRF   FAA
0C132:  MOVFF  634,FA9
0C136:  MOVFF  635,FA8
0C13A:  BCF    FA6.6
0C13C:  BCF    FA6.7
0C13E:  BSF    FA6.2
0C140:  MOVF   FF2,W
0C142:  MOVWF  00
0C144:  BCF    FF2.6
0C146:  BCF    FF2.7
0C148:  MOVLB  F
0C14A:  MOVLW  55
0C14C:  MOVWF  FA7
0C14E:  MOVLW  AA
0C150:  MOVWF  FA7
0C152:  BSF    FA6.1
0C154:  BTFSC  FA6.1
0C156:  BRA    C154
0C158:  BCF    FA6.2
0C15A:  MOVF   00,W
0C15C:  IORWF  FF2,F
....................             delay_ms(10); 
0C15E:  MOVLW  0A
0C160:  MOVLB  6
0C162:  MOVWF  x3D
0C164:  MOVLB  0
0C166:  CALL   1D06
....................          } 
0C16A:  MOVLB  1
0C16C:  INCF   xE0,F
0C16E:  BRA    C106
....................          printf("page Ajustes"); 
0C170:  MOVLW  A4
0C172:  MOVWF  FF6
0C174:  MOVLW  14
0C176:  MOVWF  FF7
0C178:  MOVLW  00
0C17A:  MOVWF  FF8
0C17C:  MOVLB  0
0C17E:  CALL   3B38
....................          SendDataDisplay();  
0C182:  CALL   3B6A
....................          RX_Buffer[4]=0x00; 
0C186:  CLRF   34
....................          RX_Buffer2[4]=0x00; 
0C188:  CLRF   3F
....................       } 
....................        
....................       for(i=0;i<30;i++){ 
0C18A:  MOVLB  1
0C18C:  CLRF   xE0
0C18E:  MOVF   xE0,W
0C190:  SUBLW  1D
0C192:  BNC   C258
....................          if(RX_Buffer[4]==i+1){ 
0C194:  MOVLW  01
0C196:  ADDWF  xE0,W
0C198:  SUBWF  34,W
0C19A:  BNZ   C1D0
....................             estados[i]=!estados[i]; 
0C19C:  MOVFF  1E0,635
0C1A0:  MOVLW  02
0C1A2:  MOVLB  6
0C1A4:  MOVWF  x37
0C1A6:  MOVLW  A0
0C1A8:  MOVWF  x36
0C1AA:  MOVLB  0
0C1AC:  CALL   2146
0C1B0:  MOVLW  00
0C1B2:  BTFSS  01.0
0C1B4:  MOVLW  01
0C1B6:  MOVFF  1E0,636
0C1BA:  MOVLB  6
0C1BC:  MOVWF  x37
0C1BE:  MOVLW  02
0C1C0:  MOVWF  x39
0C1C2:  MOVLW  A0
0C1C4:  MOVWF  x38
0C1C6:  MOVLB  0
0C1C8:  CALL   2104
....................             RX_Buffer[4]=0x00; 
0C1CC:  CLRF   34
....................             RX_Buffer2[4]=0x00; 
0C1CE:  CLRF   3F
....................          } 
....................           
....................          if(estados[i]){ 
0C1D0:  MOVFF  1E0,635
0C1D4:  MOVLW  02
0C1D6:  MOVLB  6
0C1D8:  MOVWF  x37
0C1DA:  MOVLW  A0
0C1DC:  MOVWF  x36
0C1DE:  MOVLB  0
0C1E0:  CALL   2146
0C1E4:  BTFSS  01.0
0C1E6:  BRA    C21E
....................             printf("b%u.bco=2016",i); 
0C1E8:  MOVLW  62
0C1EA:  BTFSS  F9E.4
0C1EC:  BRA    C1EA
0C1EE:  MOVWF  FAD
0C1F0:  MOVFF  1E0,639
0C1F4:  MOVLW  1B
0C1F6:  MOVLB  6
0C1F8:  MOVWF  x3A
0C1FA:  MOVLB  0
0C1FC:  CALL   4BFC
0C200:  MOVLW  B5
0C202:  MOVWF  FF6
0C204:  MOVLW  14
0C206:  MOVWF  FF7
0C208:  MOVLW  00
0C20A:  MOVWF  FF8
0C20C:  MOVLW  09
0C20E:  MOVLB  6
0C210:  MOVWF  x39
0C212:  MOVLB  0
0C214:  CALL   4B78
....................             SendDataDisplay();              
0C218:  CALL   3B6A
....................          }else{ 
0C21C:  BRA    C252
....................             printf("b%u.bco=63488",i); 
0C21E:  MOVLW  62
0C220:  BTFSS  F9E.4
0C222:  BRA    C220
0C224:  MOVWF  FAD
0C226:  MOVFF  1E0,639
0C22A:  MOVLW  1B
0C22C:  MOVLB  6
0C22E:  MOVWF  x3A
0C230:  MOVLB  0
0C232:  CALL   4BFC
0C236:  MOVLW  C3
0C238:  MOVWF  FF6
0C23A:  MOVLW  14
0C23C:  MOVWF  FF7
0C23E:  MOVLW  00
0C240:  MOVWF  FF8
0C242:  MOVLW  0A
0C244:  MOVLB  6
0C246:  MOVWF  x39
0C248:  MOVLB  0
0C24A:  CALL   4B78
....................             SendDataDisplay();  
0C24E:  CALL   3B6A
....................          } 
....................       } 
0C252:  MOVLB  1
0C254:  INCF   xE0,F
0C256:  BRA    C18E
....................    } 
.................... //_--------------------------------------------------------------------------------------------------------------------------------------------------------       
....................  
.................... //_--------------------------------------------------------------------------------------------------------------------------------------------------------       
....................     if(Menu==15){//Menu de Clave Correcta 
0C258:  MOVF   xDD,W
0C25A:  SUBLW  0F
0C25C:  BNZ   C28C
....................       delay_ms(2000); 
0C25E:  MOVLW  08
0C260:  MOVLB  6
0C262:  MOVWF  x34
0C264:  MOVLW  FA
0C266:  MOVWF  x3D
0C268:  MOVLB  0
0C26A:  CALL   1D06
0C26E:  MOVLB  6
0C270:  DECFSZ x34,F
0C272:  BRA    C264
....................       printf("page Menu"); 
0C274:  MOVLW  CE
0C276:  MOVWF  FF6
0C278:  MOVLW  14
0C27A:  MOVWF  FF7
0C27C:  MOVLW  00
0C27E:  MOVWF  FF8
0C280:  MOVLB  0
0C282:  CALL   3B38
....................       SendDataDisplay(); 
0C286:  CALL   3B6A
0C28A:  MOVLB  1
....................    } 
.................... //_--------------------------------------------------------------------------------------------------------------------------------------------------------       
....................  
.................... //_--------------------------------------------------------------------------------------------------------------------------------------------------------       
....................     if(Menu==16){//Menu de Clave InCorrecta 
0C28C:  MOVF   xDD,W
0C28E:  SUBLW  10
0C290:  BNZ   C2C0
....................       delay_ms(2000); 
0C292:  MOVLW  08
0C294:  MOVLB  6
0C296:  MOVWF  x34
0C298:  MOVLW  FA
0C29A:  MOVWF  x3D
0C29C:  MOVLB  0
0C29E:  CALL   1D06
0C2A2:  MOVLB  6
0C2A4:  DECFSZ x34,F
0C2A6:  BRA    C298
....................       printf("page Clave"); 
0C2A8:  MOVLW  D8
0C2AA:  MOVWF  FF6
0C2AC:  MOVLW  14
0C2AE:  MOVWF  FF7
0C2B0:  MOVLW  00
0C2B2:  MOVWF  FF8
0C2B4:  MOVLB  0
0C2B6:  CALL   3B38
....................       SendDataDisplay(); 
0C2BA:  CALL   3B6A
0C2BE:  MOVLB  1
....................    } 
.................... //_--------------------------------------------------------------------------------------------------------------------------------------------------------       
....................  
.................... //_--------------------------------------------------------------------------------------------------------------------------------------------------------     
....................    if(Menu==20){ // Este es el menu de cuando el proceso se inicio. 
0C2C0:  MOVF   xDD,W
0C2C2:  SUBLW  14
0C2C4:  BTFSS  FD8.2
0C2C6:  GOTO   D0F4
....................     
....................    GuardaDatoEstatico(); 
0C2CA:  MOVLB  0
0C2CC:  GOTO   5BF0
....................    guardaCiclo=ON; 
0C2D0:  BSF    x82.7
....................    if(!Libre){ 
0C2D2:  BTFSC  x8B.0
0C2D4:  BRA    C35A
....................       printf("t2f.txt=\"%u\"",CicloSeleccionado); 
0C2D6:  MOVLW  E4
0C2D8:  MOVWF  FF6
0C2DA:  MOVLW  14
0C2DC:  MOVWF  FF7
0C2DE:  MOVLW  00
0C2E0:  MOVWF  FF8
0C2E2:  MOVLW  09
0C2E4:  MOVLB  6
0C2E6:  MOVWF  x39
0C2E8:  MOVLB  0
0C2EA:  CALL   4B78
0C2EE:  MOVFF  1E3,639
0C2F2:  MOVLW  1B
0C2F4:  MOVLB  6
0C2F6:  MOVWF  x3A
0C2F8:  MOVLB  0
0C2FA:  CALL   4BFC
0C2FE:  MOVLW  22
0C300:  BTFSS  F9E.4
0C302:  BRA    C300
0C304:  MOVWF  FAD
....................       SendDataDisplay(); 
0C306:  CALL   3B6A
....................       printf("t3f.txt=\"%s\"",Texto[CicloSeleccionado-1]); 
0C30A:  MOVLW  01
0C30C:  MOVLB  1
0C30E:  SUBWF  xE3,W
0C310:  MULLW  14
0C312:  MOVF   FF3,W
0C314:  CLRF   03
0C316:  MOVLB  6
0C318:  MOVWF  x34
0C31A:  MOVLW  F2
0C31C:  MOVWF  FF6
0C31E:  MOVLW  14
0C320:  MOVWF  FF7
0C322:  MOVLW  00
0C324:  MOVWF  FF8
0C326:  MOVLW  09
0C328:  MOVWF  x39
0C32A:  MOVLB  0
0C32C:  CALL   4B78
0C330:  MOVLW  26
0C332:  MOVWF  FF6
0C334:  MOVLW  03
0C336:  MOVWF  FF7
0C338:  MOVLW  00
0C33A:  MOVWF  FF8
0C33C:  MOVLB  6
0C33E:  MOVF   x34,W
0C340:  ADDWF  FF6,F
0C342:  MOVLW  00
0C344:  ADDWFC FF7,F
0C346:  MOVLB  0
0C348:  CALL   3B38
0C34C:  MOVLW  22
0C34E:  BTFSS  F9E.4
0C350:  BRA    C34E
0C352:  MOVWF  FAD
....................       SendDataDisplay(); 
0C354:  CALL   3B6A
....................    }else{ 
0C358:  BRA    C3AA
....................       printf("t2f.txt=\"%u\"",CicloLibre+10); 
0C35A:  MOVLW  0A
0C35C:  MOVLB  2
0C35E:  ADDWF  x31,W
0C360:  MOVLB  6
0C362:  MOVWF  x34
0C364:  MOVLW  00
0C366:  MOVWF  FF6
0C368:  MOVLW  15
0C36A:  MOVWF  FF7
0C36C:  MOVLW  00
0C36E:  MOVWF  FF8
0C370:  MOVLW  09
0C372:  MOVWF  x39
0C374:  MOVLB  0
0C376:  CALL   4B78
0C37A:  MOVFF  634,639
0C37E:  MOVLW  1B
0C380:  MOVLB  6
0C382:  MOVWF  x3A
0C384:  MOVLB  0
0C386:  CALL   4BFC
0C38A:  MOVLW  22
0C38C:  BTFSS  F9E.4
0C38E:  BRA    C38C
0C390:  MOVWF  FAD
....................       SendDataDisplay(); 
0C392:  CALL   3B6A
....................       printf("t3f.txt=\"Personalizado\""); 
0C396:  MOVLW  0E
0C398:  MOVWF  FF6
0C39A:  MOVLW  15
0C39C:  MOVWF  FF7
0C39E:  MOVLW  00
0C3A0:  MOVWF  FF8
0C3A2:  CALL   3B38
....................       SendDataDisplay(); 
0C3A6:  CALL   3B6A
....................    } 
....................  
....................    if(PresionPreCamara>275 || PresionCamara>350){ 
0C3AA:  MOVLB  1
0C3AC:  MOVF   xFC,W
0C3AE:  SUBLW  00
0C3B0:  BC    C3BC
0C3B2:  XORLW  FF
0C3B4:  BNZ   C3CC
0C3B6:  MOVF   xFB,W
0C3B8:  SUBLW  13
0C3BA:  BNC   C3CC
0C3BC:  MOVF   xFA,W
0C3BE:  SUBLW  00
0C3C0:  BC    C3D0
0C3C2:  XORLW  FF
0C3C4:  BNZ   C3CC
0C3C6:  MOVF   xF9,W
0C3C8:  SUBLW  5E
0C3CA:  BC    C3D0
....................       AlarmaPresion=ON; 
0C3CC:  MOVLB  0
0C3CE:  BSF    x8A.5
....................    } 
....................     
....................    if(TiempoCiclo>1800 && !Fugas){//ANALIZAR BIEN ESTA ALARMA 
0C3D0:  MOVLB  0
0C3D2:  MOVF   x8E,W
0C3D4:  SUBLW  06
0C3D6:  BC    C3FC
0C3D8:  XORLW  FF
0C3DA:  BNZ   C3E2
0C3DC:  MOVF   x8D,W
0C3DE:  SUBLW  08
0C3E0:  BC    C3FC
0C3E2:  BTFSC  x8B.2
0C3E4:  BRA    C3FC
....................       if(PresionPrecamara<10){ 
0C3E6:  MOVLB  1
0C3E8:  MOVF   xFC,F
0C3EA:  BNZ   C3F8
0C3EC:  MOVF   xFB,W
0C3EE:  SUBLW  09
0C3F0:  BNC   C3F8
....................          AlarmaTiempoProlongado=ON; 
0C3F2:  MOVLB  0
0C3F4:  BSF    x82.0
0C3F6:  MOVLB  1
....................       } 
....................    }else{ 
0C3F8:  BRA    C3FE
0C3FA:  MOVLB  0
....................       AlarmaTiempoProlongado=OFF; 
0C3FC:  BCF    x82.0
....................    } 
....................     
....................    if(Temperatura>Setpoint+3.0 && !Fugas){ 
0C3FE:  MOVLB  6
0C400:  CLRF   x47
0C402:  MOVFF  1E7,646
0C406:  MOVLB  0
0C408:  CALL   1CD0
0C40C:  BCF    FD8.1
0C40E:  MOVFF  03,649
0C412:  MOVFF  02,648
0C416:  MOVFF  01,647
0C41A:  MOVFF  00,646
0C41E:  MOVLB  6
0C420:  CLRF   x4D
0C422:  CLRF   x4C
0C424:  MOVLW  40
0C426:  MOVWF  x4B
0C428:  MOVLW  80
0C42A:  MOVWF  x4A
0C42C:  MOVLB  0
0C42E:  CALL   1E8C
0C432:  MOVFF  03,63B
0C436:  MOVFF  02,63A
0C43A:  MOVFF  01,639
0C43E:  MOVFF  00,638
0C442:  MOVFF  1C1,63F
0C446:  MOVFF  1C0,63E
0C44A:  MOVFF  1BF,63D
0C44E:  MOVFF  1BE,63C
0C452:  CALL   2362
0C456:  BNC   C45E
0C458:  BTFSC  x8B.2
0C45A:  BRA    C45E
....................       AlarmaSobreTemperatura=ON; 
0C45C:  BSF    x82.1
....................    } 
....................     
....................    if(!TERM){ 
0C45E:  BSF    F93.5
0C460:  BTFSS  F81.5
0C462:  BRA    C466
....................       AlarmaTermostato=ON; 
0C464:  BSF    x82.2
....................    } 
....................     
....................    if(!DOOR){ 
0C466:  BSF    F93.6
0C468:  BTFSS  F81.6
0C46A:  BRA    C47C
....................       //Desfogue_off; 
....................       //Solenoide_off; 
....................       Paso_off; 
0C46C:  BCF    F8C.5
0C46E:  BCF    F95.5
....................       if(!Secando && !Finalizo){ 
0C470:  BTFSC  x83.5
0C472:  BRA    C47A
0C474:  BTFSC  x8A.4
0C476:  BRA    C47A
....................          AlarmaPuerta=ON; 
0C478:  BSF    x82.3
....................       } 
....................    }else{ 
0C47A:  BRA    C47E
....................       AlarmaPuerta=OFF; 
0C47C:  BCF    x82.3
....................    } 
....................  
....................    if(!STOP){ 
0C47E:  BSF    F93.7
0C480:  BTFSS  F81.7
0C482:  BRA    C486
....................       AlarmaEmergencia=ON; 
0C484:  BSF    x82.4
....................    } 
....................     
....................    if(AlarmaPuerta || AlarmaTermostato || AlarmaLlenado || AlarmaSobreTemperatura || AlarmaTiempoProlongado || AlarmaEmergencia || AlarmaPresion){ 
0C486:  BTFSC  x82.3
0C488:  BRA    C4A2
0C48A:  BTFSC  x82.2
0C48C:  BRA    C4A2
0C48E:  BTFSC  x83.1
0C490:  BRA    C4A2
0C492:  BTFSC  x82.1
0C494:  BRA    C4A2
0C496:  BTFSC  x82.0
0C498:  BRA    C4A2
0C49A:  BTFSC  x82.4
0C49C:  BRA    C4A2
0C49E:  BTFSS  x8A.5
0C4A0:  BRA    C77A
....................       ActivaAlarma(1); 
0C4A2:  MOVLW  01
0C4A4:  MOVLB  6
0C4A6:  MOVWF  x34
0C4A8:  MOVLB  0
0C4AA:  CALL   4A94
....................       if(AlarmaEmergencia){ 
0C4AE:  BTFSS  x82.4
0C4B0:  BRA    C518
....................          codigoAlarma=1; 
0C4B2:  MOVLW  01
0C4B4:  MOVLB  2
0C4B6:  MOVWF  x10
....................          printf("Funcionamiento.t4f.txt=\" Parada de Emergencia\""); 
0C4B8:  MOVLW  26
0C4BA:  MOVWF  FF6
0C4BC:  MOVLW  15
0C4BE:  MOVWF  FF7
0C4C0:  MOVLW  00
0C4C2:  MOVWF  FF8
0C4C4:  MOVLB  0
0C4C6:  CALL   3B38
....................          SendDataDisplay(); 
0C4CA:  CALL   3B6A
....................          printf("Funcionamiento.t5f.txt=\" Cancelado\""); 
0C4CE:  MOVLW  56
0C4D0:  MOVWF  FF6
0C4D2:  MOVLW  15
0C4D4:  MOVWF  FF7
0C4D6:  MOVLW  00
0C4D8:  MOVWF  FF8
0C4DA:  CALL   3B38
....................          SendDataDisplay(); 
0C4DE:  CALL   3B6A
....................          Desfogue_on; 
0C4E2:  BSF    F8C.4
0C4E4:  BCF    F95.4
....................          Paso_off; 
0C4E6:  BCF    F8C.5
0C4E8:  BCF    F95.5
....................          Agua_off; 
0C4EA:  BCF    F8C.6
0C4EC:  BCF    F95.6
....................          SSR_off; 
0C4EE:  BSF    F8B.2
0C4F0:  BCF    F94.2
....................          Esterilizando=OFF; 
0C4F2:  BCF    x83.4
....................          Desfogando=OFF; 
0C4F4:  BCF    x83.7
....................          DesfogueSuave=OFF; 
0C4F6:  BCF    x88.0
....................          //IniciaCiclo=OFF; 
....................          Controlando=0; 
0C4F8:  MOVLB  1
0C4FA:  CLRF   xD7
....................          if(codigoAnt!=codigoAlarma){ 
0C4FC:  MOVLB  2
0C4FE:  MOVF   x10,W
0C500:  SUBWF  x11,W
0C502:  BZ    C514
....................             codigoAnt=codigoAlarma; 
0C504:  MOVFF  210,211
....................             GuardaDatoCiclo(); 
0C508:  MOVLB  0
0C50A:  CALL   5EA8
....................             incrementaCiclos(); 
0C50E:  CALL   624C
0C512:  MOVLB  2
....................          } 
....................       }else if(AlarmaPuerta){ 
0C514:  BRA    C776
0C516:  MOVLB  0
0C518:  BTFSS  x82.3
0C51A:  BRA    C576
....................          codigoAlarma=2; 
0C51C:  MOVLW  02
0C51E:  MOVLB  2
0C520:  MOVWF  x10
....................          printf("Funcionamiento.t4f.txt=\" Puerta Abierta\""); 
0C522:  MOVLW  7A
0C524:  MOVWF  FF6
0C526:  MOVLW  15
0C528:  MOVWF  FF7
0C52A:  MOVLW  00
0C52C:  MOVWF  FF8
0C52E:  MOVLB  0
0C530:  CALL   3B38
....................          SendDataDisplay(); 
0C534:  CALL   3B6A
....................          printf("Funcionamiento.t5f.txt=\" Pausado\""); 
0C538:  MOVLW  A4
0C53A:  MOVWF  FF6
0C53C:  MOVLW  15
0C53E:  MOVWF  FF7
0C540:  MOVLW  00
0C542:  MOVWF  FF8
0C544:  CALL   3B38
....................          SendDataDisplay(); 
0C548:  CALL   3B6A
....................          Paso_off;                   
0C54C:  BCF    F8C.5
0C54E:  BCF    F95.5
....................          Agua_off;     
0C550:  BCF    F8C.6
0C552:  BCF    F95.6
....................          SSR_off; 
0C554:  BSF    F8B.2
0C556:  BCF    F94.2
....................          IniciaLlenado=OFF; 
0C558:  BCF    x83.2
....................          //IniciaCiclo=OFF; 
....................          Controlando=0; 
0C55A:  MOVLB  1
0C55C:  CLRF   xD7
....................          if(codigoAnt!=codigoAlarma){ 
0C55E:  MOVLB  2
0C560:  MOVF   x10,W
0C562:  SUBWF  x11,W
0C564:  BZ    C572
....................             codigoAnt=codigoAlarma; 
0C566:  MOVFF  210,211
....................             GuardaDatoCiclo(); 
0C56A:  MOVLB  0
0C56C:  CALL   5EA8
0C570:  MOVLB  2
....................          } 
....................       }else if(AlarmaTermostato){ 
0C572:  BRA    C776
0C574:  MOVLB  0
0C576:  BTFSS  x82.2
0C578:  BRA    C5E6
....................          codigoAlarma=3; 
0C57A:  MOVLW  03
0C57C:  MOVLB  2
0C57E:  MOVWF  x10
....................          tiempo_esterilizacion=0;tiempo_secado=0;          
0C580:  MOVLB  1
0C582:  CLRF   xEA
0C584:  CLRF   xEB
....................          printf("Funcionamiento.t4f.txt=\" Termostato\""); 
0C586:  MOVLW  C6
0C588:  MOVWF  FF6
0C58A:  MOVLW  15
0C58C:  MOVWF  FF7
0C58E:  MOVLW  00
0C590:  MOVWF  FF8
0C592:  MOVLB  0
0C594:  CALL   3B38
....................          SendDataDisplay(); 
0C598:  CALL   3B6A
....................          printf("Funcionamiento.t5f.txt=\" Cancelado\""); 
0C59C:  MOVLW  EC
0C59E:  MOVWF  FF6
0C5A0:  MOVLW  15
0C5A2:  MOVWF  FF7
0C5A4:  MOVLW  00
0C5A6:  MOVWF  FF8
0C5A8:  CALL   3B38
....................          SendDataDisplay();          
0C5AC:  CALL   3B6A
....................          Desfogue_on;                   
0C5B0:  BSF    F8C.4
0C5B2:  BCF    F95.4
....................          Paso_off;          
0C5B4:  BCF    F8C.5
0C5B6:  BCF    F95.5
....................          Agua_off;    
0C5B8:  BCF    F8C.6
0C5BA:  BCF    F95.6
....................          SSR_off; 
0C5BC:  BSF    F8B.2
0C5BE:  BCF    F94.2
....................          Esterilizando=OFF; 
0C5C0:  BCF    x83.4
....................          Desfogando=OFF; 
0C5C2:  BCF    x83.7
....................          IniciaCiclo=OFF; 
0C5C4:  BCF    x83.3
....................          Controlando=0; 
0C5C6:  MOVLB  1
0C5C8:  CLRF   xD7
....................          if(codigoAnt!=codigoAlarma){ 
0C5CA:  MOVLB  2
0C5CC:  MOVF   x10,W
0C5CE:  SUBWF  x11,W
0C5D0:  BZ    C5E2
....................             codigoAnt=codigoAlarma; 
0C5D2:  MOVFF  210,211
....................             GuardaDatoCiclo(); 
0C5D6:  MOVLB  0
0C5D8:  CALL   5EA8
....................             incrementaCiclos(); 
0C5DC:  CALL   624C
0C5E0:  MOVLB  2
....................          } 
....................       }else if(AlarmaSobreTemperatura){                   
0C5E2:  BRA    C776
0C5E4:  MOVLB  0
0C5E6:  BTFSS  x82.1
0C5E8:  BRA    C650
....................          codigoAlarma=4; 
0C5EA:  MOVLW  04
0C5EC:  MOVLB  2
0C5EE:  MOVWF  x10
....................          tiempo_esterilizacion=0;tiempo_secado=0;          
0C5F0:  MOVLB  1
0C5F2:  CLRF   xEA
0C5F4:  CLRF   xEB
....................          printf("Funcionamiento.t4f.txt=\" Sobretemperatura\""); 
0C5F6:  MOVLW  10
0C5F8:  MOVWF  FF6
0C5FA:  MOVLW  16
0C5FC:  MOVWF  FF7
0C5FE:  MOVLW  00
0C600:  MOVWF  FF8
0C602:  MOVLB  0
0C604:  CALL   3B38
....................          SendDataDisplay(); 
0C608:  CALL   3B6A
....................          printf("Funcionamiento.t5f.txt=\" Cancelado\""); 
0C60C:  MOVLW  3C
0C60E:  MOVWF  FF6
0C610:  MOVLW  16
0C612:  MOVWF  FF7
0C614:  MOVLW  00
0C616:  MOVWF  FF8
0C618:  CALL   3B38
....................          SendDataDisplay();   
0C61C:  CALL   3B6A
....................          Desfogue_on; 
0C620:  BSF    F8C.4
0C622:  BCF    F95.4
....................          Paso_off; 
0C624:  BCF    F8C.5
0C626:  BCF    F95.5
....................          Agua_off; 
0C628:  BCF    F8C.6
0C62A:  BCF    F95.6
....................          SSR_off; 
0C62C:  BSF    F8B.2
0C62E:  BCF    F94.2
....................          Controlando=0; 
0C630:  MOVLB  1
0C632:  CLRF   xD7
....................          if(codigoAnt!=codigoAlarma){ 
0C634:  MOVLB  2
0C636:  MOVF   x10,W
0C638:  SUBWF  x11,W
0C63A:  BZ    C64C
....................             codigoAnt=codigoAlarma; 
0C63C:  MOVFF  210,211
....................             GuardaDatoCiclo(); 
0C640:  MOVLB  0
0C642:  CALL   5EA8
....................             incrementaCiclos(); 
0C646:  CALL   624C
0C64A:  MOVLB  2
....................          } 
....................       }else if(AlarmaTiempoProlongado){ 
0C64C:  BRA    C776
0C64E:  MOVLB  0
0C650:  BTFSS  x82.0
0C652:  BRA    C6B4
....................          codigoAlarma=5; 
0C654:  MOVLW  05
0C656:  MOVLB  2
0C658:  MOVWF  x10
....................          printf("Funcionamiento.t4f.txt=\" Tiempo Prolongado\""); 
0C65A:  MOVLW  60
0C65C:  MOVWF  FF6
0C65E:  MOVLW  16
0C660:  MOVWF  FF7
0C662:  MOVLW  00
0C664:  MOVWF  FF8
0C666:  MOVLB  0
0C668:  CALL   3B38
....................          SendDataDisplay(); 
0C66C:  CALL   3B6A
....................          printf("Funcionamiento.t5f.txt=\" Cancelado\""); 
0C670:  MOVLW  8C
0C672:  MOVWF  FF6
0C674:  MOVLW  16
0C676:  MOVWF  FF7
0C678:  MOVLW  00
0C67A:  MOVWF  FF8
0C67C:  CALL   3B38
....................          SendDataDisplay();          
0C680:  CALL   3B6A
....................          Desfogue_on; 
0C684:  BSF    F8C.4
0C686:  BCF    F95.4
....................          Paso_off; 
0C688:  BCF    F8C.5
0C68A:  BCF    F95.5
....................          Agua_off;     
0C68C:  BCF    F8C.6
0C68E:  BCF    F95.6
....................          SSR_off; 
0C690:  BSF    F8B.2
0C692:  BCF    F94.2
....................          Controlando=0; 
0C694:  MOVLB  1
0C696:  CLRF   xD7
....................          if(codigoAnt!=codigoAlarma){ 
0C698:  MOVLB  2
0C69A:  MOVF   x10,W
0C69C:  SUBWF  x11,W
0C69E:  BZ    C6B0
....................             codigoAnt=codigoAlarma; 
0C6A0:  MOVFF  210,211
....................             GuardaDatoCiclo(); 
0C6A4:  MOVLB  0
0C6A6:  CALL   5EA8
....................             incrementaCiclos(); 
0C6AA:  CALL   624C
0C6AE:  MOVLB  2
....................          } 
....................       }else if(AlarmaPresion){ // Alarma de Error de SobrePresion: Error por exceso de Presion. 
0C6B0:  BRA    C776
0C6B2:  MOVLB  0
0C6B4:  BTFSS  x8A.5
0C6B6:  BRA    C734
....................          codigoAlarma=6; 
0C6B8:  MOVLW  06
0C6BA:  MOVLB  2
0C6BC:  MOVWF  x10
....................          printf("Funcionamiento.t4f.txt=\" SobrePresion\""); 
0C6BE:  MOVLW  B0
0C6C0:  MOVWF  FF6
0C6C2:  MOVLW  16
0C6C4:  MOVWF  FF7
0C6C6:  MOVLW  00
0C6C8:  MOVWF  FF8
0C6CA:  MOVLB  0
0C6CC:  CALL   3B38
....................          SendDataDisplay(); 
0C6D0:  CALL   3B6A
....................          printf("Funcionamiento.t5f.txt=\" Cancelado\""); 
0C6D4:  MOVLW  D8
0C6D6:  MOVWF  FF6
0C6D8:  MOVLW  16
0C6DA:  MOVWF  FF7
0C6DC:  MOVLW  00
0C6DE:  MOVWF  FF8
0C6E0:  CALL   3B38
....................          SendDataDisplay(); 
0C6E4:  CALL   3B6A
....................          Desfogue_on;                   
0C6E8:  BSF    F8C.4
0C6EA:  BCF    F95.4
....................          Agua_off; 
0C6EC:  BCF    F8C.6
0C6EE:  BCF    F95.6
....................          SSR_off; 
0C6F0:  BSF    F8B.2
0C6F2:  BCF    F94.2
....................          if(PresionPreCamara>(Atmosferica+4) && DOOR) 
0C6F4:  MOVLW  04
0C6F6:  MOVLB  2
0C6F8:  ADDWF  x25,W
0C6FA:  MOVLB  1
0C6FC:  MOVF   xFC,F
0C6FE:  BNZ   C706
0C700:  SUBWF  xFB,W
0C702:  BZ    C712
0C704:  BNC   C712
0C706:  BSF    F93.6
0C708:  BTFSC  F81.6
0C70A:  BRA    C712
....................             Paso_on; 
0C70C:  BSF    F8C.5
0C70E:  BCF    F95.5
....................          else 
0C710:  BRA    C716
....................             Paso_off; 
0C712:  BCF    F8C.5
0C714:  BCF    F95.5
....................          Controlando=0; 
0C716:  CLRF   xD7
....................          if(codigoAnt!=codigoAlarma){ 
0C718:  MOVLB  2
0C71A:  MOVF   x10,W
0C71C:  SUBWF  x11,W
0C71E:  BZ    C730
....................             codigoAnt=codigoAlarma; 
0C720:  MOVFF  210,211
....................             GuardaDatoCiclo(); 
0C724:  MOVLB  0
0C726:  CALL   5EA8
....................             incrementaCiclos(); 
0C72A:  CALL   624C
0C72E:  MOVLB  2
....................          } 
....................       }else if(AlarmaLlenado){ 
0C730:  BRA    C776
0C732:  MOVLB  0
0C734:  BTFSS  x83.1
0C736:  BRA    C774
....................          printf("Funcionamiento.t4f.txt=\" Tiempo Llenado\""); 
0C738:  MOVLW  FC
0C73A:  MOVWF  FF6
0C73C:  MOVLW  16
0C73E:  MOVWF  FF7
0C740:  MOVLW  00
0C742:  MOVWF  FF8
0C744:  CALL   3B38
....................          SendDataDisplay(); 
0C748:  CALL   3B6A
....................          printf("Funcionamiento.t5f.txt=\" Cancelado\""); 
0C74C:  MOVLW  26
0C74E:  MOVWF  FF6
0C750:  MOVLW  17
0C752:  MOVWF  FF7
0C754:  MOVLW  00
0C756:  MOVWF  FF8
0C758:  CALL   3B38
....................          SendDataDisplay(); 
0C75C:  CALL   3B6A
....................          Desfogue_off; 
0C760:  BCF    F8C.4
0C762:  BCF    F95.4
....................          Agua_off; 
0C764:  BCF    F8C.6
0C766:  BCF    F95.6
....................          SSR_off; 
0C768:  BSF    F8B.2
0C76A:  BCF    F94.2
....................          Paso_off; 
0C76C:  BCF    F8C.5
0C76E:  BCF    F95.5
....................          Controlando=0; 
0C770:  MOVLB  1
0C772:  CLRF   xD7
0C774:  MOVLB  2
....................       } 
....................    }else{ 
0C776:  BRA    CC54
0C778:  MOVLB  0
....................       Buzzer_off; 
0C77A:  BCF    F8C.0
0C77C:  BCF    F95.0
....................       IniciaCiclo=ON; 
0C77E:  BSF    x83.3
....................           
....................       if(!CalderinLleno){ 
0C780:  BTFSC  x88.1
0C782:  BRA    C7E2
....................          codigoAlarma=10; 
0C784:  MOVLW  0A
0C786:  MOVLB  2
0C788:  MOVWF  x10
....................             if(codigoAnt!=codigoAlarma){ 
0C78A:  MOVF   x10,W
0C78C:  SUBWF  x11,W
0C78E:  BZ    C79C
....................                codigoAnt=codigoAlarma; 
0C790:  MOVFF  210,211
....................                GuardaDatoCiclo();                   
0C794:  MOVLB  0
0C796:  CALL   5EA8
0C79A:  MOVLB  2
....................             } 
....................             printf("Funcionamiento.t4f.txt=\" Ninguna\""); 
0C79C:  MOVLW  4A
0C79E:  MOVWF  FF6
0C7A0:  MOVLW  17
0C7A2:  MOVWF  FF7
0C7A4:  MOVLW  00
0C7A6:  MOVWF  FF8
0C7A8:  MOVLB  0
0C7AA:  CALL   3B38
....................             SendDataDisplay(); 
0C7AE:  CALL   3B6A
....................             printf("Funcionamiento.t5f.txt=\" Llenando\""); 
0C7B2:  MOVLW  6C
0C7B4:  MOVWF  FF6
0C7B6:  MOVLW  17
0C7B8:  MOVWF  FF7
0C7BA:  MOVLW  00
0C7BC:  MOVWF  FF8
0C7BE:  CALL   3B38
....................             SendDataDisplay(); 
0C7C2:  CALL   3B6A
....................             Control=0; 
0C7C6:  MOVLB  1
0C7C8:  CLRF   xD5
....................             IniciaLlenado=ON; 
0C7CA:  MOVLB  0
0C7CC:  BSF    x83.2
....................             Controlando=0; 
0C7CE:  MOVLB  1
0C7D0:  CLRF   xD7
....................             Desfogue_on; 
0C7D2:  BSF    F8C.4
0C7D4:  BCF    F95.4
....................             Agua_on; 
0C7D6:  BSF    F8C.6
0C7D8:  BCF    F95.6
....................             Paso_off; 
0C7DA:  BCF    F8C.5
0C7DC:  BCF    F95.5
....................       }else{ 
0C7DE:  BRA    CC54
0C7E0:  MOVLB  0
....................          Agua_off; 
0C7E2:  BCF    F8C.6
0C7E4:  BCF    F95.6
....................             if(Temperatura>=((float)Setpoint-0.3)){ 
0C7E6:  MOVLB  6
0C7E8:  CLRF   x47
0C7EA:  MOVFF  1E7,646
0C7EE:  MOVLB  0
0C7F0:  CALL   1CD0
0C7F4:  MOVFF  00,634
0C7F8:  MOVFF  01,635
0C7FC:  MOVFF  02,636
0C800:  MOVFF  03,637
0C804:  BSF    FD8.1
0C806:  MOVFF  03,649
0C80A:  MOVFF  02,648
0C80E:  MOVFF  01,647
0C812:  MOVFF  00,646
0C816:  MOVLW  9A
0C818:  MOVLB  6
0C81A:  MOVWF  x4D
0C81C:  MOVLW  99
0C81E:  MOVWF  x4C
0C820:  MOVLW  19
0C822:  MOVWF  x4B
0C824:  MOVLW  7D
0C826:  MOVWF  x4A
0C828:  MOVLB  0
0C82A:  CALL   1E8C
0C82E:  MOVFF  03,63B
0C832:  MOVFF  02,63A
0C836:  MOVFF  01,639
0C83A:  MOVFF  00,638
0C83E:  MOVFF  1C1,63F
0C842:  MOVFF  1C0,63E
0C846:  MOVFF  1BF,63D
0C84A:  MOVFF  1BE,63C
0C84E:  CALL   2362
0C852:  BC    C856
0C854:  BNZ   C858
....................                Esterilizando=ON; 
0C856:  BSF    x83.4
....................             } 
....................              
....................             if(Temperatura<((float)Setpoint-0.9) && !Desfogando){ 
0C858:  MOVLB  6
0C85A:  CLRF   x47
0C85C:  MOVFF  1E7,646
0C860:  MOVLB  0
0C862:  CALL   1CD0
0C866:  MOVFF  00,634
0C86A:  MOVFF  01,635
0C86E:  MOVFF  02,636
0C872:  MOVFF  03,637
0C876:  BSF    FD8.1
0C878:  MOVFF  03,649
0C87C:  MOVFF  02,648
0C880:  MOVFF  01,647
0C884:  MOVFF  00,646
0C888:  MOVLW  66
0C88A:  MOVLB  6
0C88C:  MOVWF  x4D
0C88E:  MOVWF  x4C
0C890:  MOVWF  x4B
0C892:  MOVLW  7E
0C894:  MOVWF  x4A
0C896:  MOVLB  0
0C898:  CALL   1E8C
0C89C:  MOVFF  1C1,63B
0C8A0:  MOVFF  1C0,63A
0C8A4:  MOVFF  1BF,639
0C8A8:  MOVFF  1BE,638
0C8AC:  MOVFF  03,63F
0C8B0:  MOVFF  02,63E
0C8B4:  MOVFF  01,63D
0C8B8:  MOVFF  00,63C
0C8BC:  CALL   2362
0C8C0:  BNC   C8C8
0C8C2:  BTFSC  x83.7
0C8C4:  BRA    C8C8
....................                Esterilizando=OFF; 
0C8C6:  BCF    x83.4
....................             } 
....................              
....................             if(!Esterilizando){ 
0C8C8:  BTFSC  x83.4
0C8CA:  BRA    C928
....................                codigoAlarma=12; 
0C8CC:  MOVLW  0C
0C8CE:  MOVLB  2
0C8D0:  MOVWF  x10
....................                if(codigoAnt!=codigoAlarma){ 
0C8D2:  MOVF   x10,W
0C8D4:  SUBWF  x11,W
0C8D6:  BZ    C8E4
....................                   codigoAnt=codigoAlarma; 
0C8D8:  MOVFF  210,211
....................                   GuardaDatoCiclo();                   
0C8DC:  MOVLB  0
0C8DE:  CALL   5EA8
0C8E2:  MOVLB  2
....................                } 
....................                printf("Funcionamiento.t4f.txt=\" Ninguna\""); 
0C8E4:  MOVLW  90
0C8E6:  MOVWF  FF6
0C8E8:  MOVLW  17
0C8EA:  MOVWF  FF7
0C8EC:  MOVLW  00
0C8EE:  MOVWF  FF8
0C8F0:  MOVLB  0
0C8F2:  CALL   3B38
....................                SendDataDisplay(); 
0C8F6:  CALL   3B6A
....................                printf("Funcionamiento.t5f.txt=\" Calentando\""); 
0C8FA:  MOVLW  B2
0C8FC:  MOVWF  FF6
0C8FE:  MOVLW  17
0C900:  MOVWF  FF7
0C902:  MOVLW  00
0C904:  MOVWF  FF8
0C906:  CALL   3B38
....................                SendDataDisplay(); 
0C90A:  CALL   3B6A
....................                Control=1; 
0C90E:  MOVLW  01
0C910:  MOVLB  1
0C912:  MOVWF  xD5
....................                Controla(); 
0C914:  MOVLB  0
0C916:  CALL   6346
....................                Paso_on;                               
0C91A:  BSF    F8C.5
0C91C:  BCF    F95.5
....................                Desfogue_off; 
0C91E:  BCF    F8C.4
0C920:  BCF    F95.4
....................                Agua_off; 
0C922:  BCF    F8C.6
0C924:  BCF    F95.6
....................             }else{ 
0C926:  BRA    CC52
....................                TiempoCiclo=0; 
0C928:  CLRF   x8E
0C92A:  CLRF   x8D
....................                if((Testerilizacion[0]==0)&&(Testerilizacion[1]==0)&& 
....................                (Testerilizacion[2]==0)&&(Testerilizacion[3]==0)){  
0C92C:  MOVF   x97,F
0C92E:  BTFSS  FD8.2
0C930:  BRA    CC00
0C932:  MOVF   x98,F
0C934:  BTFSS  FD8.2
0C936:  BRA    CC00
0C938:  MOVF   x99,F
0C93A:  BTFSS  FD8.2
0C93C:  BRA    CC00
0C93E:  MOVF   x9A,F
0C940:  BTFSS  FD8.2
0C942:  BRA    CC00
....................                   if(desfoguelento){ 
0C944:  BTFSS  x8C.3
0C946:  BRA    CA60
....................                      Controlando=0; 
0C948:  MOVLB  1
0C94A:  CLRF   xD7
....................                      if(PresionCamara<(Atmosferica+2)){ 
0C94C:  MOVLW  02
0C94E:  MOVLB  2
0C950:  ADDWF  x25,W
0C952:  MOVLB  1
0C954:  MOVF   xFA,F
0C956:  BNZ   C9FA
0C958:  SUBWF  xF9,W
0C95A:  BC    C9FA
....................                         Secando=OFF; 
0C95C:  MOVLB  0
0C95E:  BCF    x83.5
....................                         DesfogueSuave=OFF;                                                                         
0C960:  BCF    x88.0
....................                         Desfogue_on; 
0C962:  BSF    F8C.4
0C964:  BCF    F95.4
....................                         Paso_off;                         
0C966:  BCF    F8C.5
0C968:  BCF    F95.5
....................                         Agua_off; 
0C96A:  BCF    F8C.6
0C96C:  BCF    F95.6
....................                         if(Temperatura<=Tapertura){ 
0C96E:  MOVLB  6
0C970:  CLRF   x47
0C972:  MOVFF  1E4,646
0C976:  MOVLB  0
0C978:  CALL   1CD0
0C97C:  MOVFF  1C1,63B
0C980:  MOVFF  1C0,63A
0C984:  MOVFF  1BF,639
0C988:  MOVFF  1BE,638
0C98C:  MOVFF  03,63F
0C990:  MOVFF  02,63E
0C994:  MOVFF  01,63D
0C998:  MOVFF  00,63C
0C99C:  CALL   2362
0C9A0:  BC    C9A4
0C9A2:  BNZ   C9F0
....................                            ActivaAlarma(2); 
0C9A4:  MOVLW  02
0C9A6:  MOVLB  6
0C9A8:  MOVWF  x34
0C9AA:  MOVLB  0
0C9AC:  CALL   4A94
....................                            printf("Funcionamiento.t4f.txt=\" Ninguna\""); 
0C9B0:  MOVLW  D8
0C9B2:  MOVWF  FF6
0C9B4:  MOVLW  17
0C9B6:  MOVWF  FF7
0C9B8:  MOVLW  00
0C9BA:  MOVWF  FF8
0C9BC:  CALL   3B38
....................                            SendDataDisplay(); 
0C9C0:  CALL   3B6A
....................                            printf("Funcionamiento.t5f.txt=\" Finalizado\""); 
0C9C4:  MOVLW  FA
0C9C6:  MOVWF  FF6
0C9C8:  MOVLW  17
0C9CA:  MOVWF  FF7
0C9CC:  MOVLW  00
0C9CE:  MOVWF  FF8
0C9D0:  CALL   3B38
....................                            SendDataDisplay(); 
0C9D4:  CALL   3B6A
....................                            Finalizo=ON; 
0C9D8:  BSF    x8A.4
....................                            codigoAlarma=14; 
0C9DA:  MOVLW  0E
0C9DC:  MOVLB  2
0C9DE:  MOVWF  x10
....................                               if(codigoAnt!=codigoAlarma){ 
0C9E0:  MOVF   x10,W
0C9E2:  SUBWF  x11,W
0C9E4:  BZ    C9F2
....................                                  codigoAnt=codigoAlarma; 
0C9E6:  MOVFF  210,211
....................                                  GuardaDatoCiclo();                   
0C9EA:  MOVLB  0
0C9EC:  CALL   5EA8
0C9F0:  MOVLB  2
....................                               }                           
....................                         } 
....................                         incrementaCiclos(); 
0C9F2:  MOVLB  0
0C9F4:  CALL   624C
....................                      }else if(PresionCamara>(Atmosferica+10)){ 
0C9F8:  BRA    CA5E
0C9FA:  MOVLW  0A
0C9FC:  MOVLB  2
0C9FE:  ADDWF  x25,W
0CA00:  MOVLB  1
0CA02:  MOVF   xFA,F
0CA04:  BNZ   CA0C
0CA06:  SUBWF  xF9,W
0CA08:  BZ    CA5C
0CA0A:  BNC   CA5C
....................                         codigoAlarma=13; 
0CA0C:  MOVLW  0D
0CA0E:  MOVLB  2
0CA10:  MOVWF  x10
....................                         if(codigoAnt!=codigoAlarma){ 
0CA12:  MOVF   x10,W
0CA14:  SUBWF  x11,W
0CA16:  BZ    CA22
....................                            codigoAnt=codigoAlarma; 
0CA18:  MOVFF  210,211
....................                            GuardaDatoCiclo();                   
0CA1C:  MOVLB  0
0CA1E:  CALL   5EA8
....................                         } 
....................                         Desfogando=ON; 
0CA22:  MOVLB  0
0CA24:  BSF    x83.7
....................                         DesfogueSuave=ON; 
0CA26:  BSF    x88.0
....................                         printf("Funcionamiento.t4f.txt=\" Ninguna\""); 
0CA28:  MOVLW  20
0CA2A:  MOVWF  FF6
0CA2C:  MOVLW  18
0CA2E:  MOVWF  FF7
0CA30:  MOVLW  00
0CA32:  MOVWF  FF8
0CA34:  CALL   3B38
....................                         SendDataDisplay(); 
0CA38:  CALL   3B6A
....................                         printf("Funcionamiento.t5f.txt=\" Despresurizando\""); 
0CA3C:  MOVLW  42
0CA3E:  MOVWF  FF6
0CA40:  MOVLW  18
0CA42:  MOVWF  FF7
0CA44:  MOVLW  00
0CA46:  MOVWF  FF8
0CA48:  CALL   3B38
....................                         SendDataDisplay(); 
0CA4C:  CALL   3B6A
....................                         Control=0; 
0CA50:  MOVLB  1
0CA52:  CLRF   xD5
....................                         //Desfogue_on; 
....................                         Paso_on; 
0CA54:  BSF    F8C.5
0CA56:  BCF    F95.5
....................                         Agua_off; 
0CA58:  BCF    F8C.6
0CA5A:  BCF    F95.6
0CA5C:  MOVLB  0
....................                      } 
....................                   }else{                      
0CA5E:  BRA    CBFE
....................                      Paso_off; 
0CA60:  BCF    F8C.5
0CA62:  BCF    F95.5
....................                      Controlando=0; 
0CA64:  MOVLB  1
0CA66:  CLRF   xD7
....................                      Control=0; 
0CA68:  CLRF   xD5
....................                      if(PresionCamara<(Atmosferica+2)){   
0CA6A:  MOVLW  02
0CA6C:  MOVLB  2
0CA6E:  ADDWF  x25,W
0CA70:  MOVLB  1
0CA72:  MOVF   xFA,F
0CA74:  BTFSS  FD8.2
0CA76:  BRA    CB96
0CA78:  SUBWF  xF9,W
0CA7A:  BTFSC  FD8.0
0CA7C:  BRA    CB96
....................                         if((Tsecado[0]==0)&&(Tsecado[1]==0)&&(Tsecado[2]==0)&&(Tsecado[3]==0)){                           
0CA7E:  MOVLB  0
0CA80:  MOVF   x9F,F
0CA82:  BTFSS  FD8.2
0CA84:  BRA    CB60
0CA86:  MOVF   xA0,F
0CA88:  BNZ   CB60
0CA8A:  MOVF   xA1,F
0CA8C:  BNZ   CB60
0CA8E:  MOVF   xA2,F
0CA90:  BNZ   CB60
....................                            codigoAlarma=15; 
0CA92:  MOVLW  0F
0CA94:  MOVLB  2
0CA96:  MOVWF  x10
....................                            if(codigoAnt!=codigoAlarma){ 
0CA98:  MOVF   x10,W
0CA9A:  SUBWF  x11,W
0CA9C:  BZ    CAAA
....................                               codigoAnt=codigoAlarma; 
0CA9E:  MOVFF  210,211
....................                               GuardaDatoCiclo();                   
0CAA2:  MOVLB  0
0CAA4:  CALL   5EA8
0CAA8:  MOVLB  2
....................                            } 
....................                            if(!DOOR){ 
0CAAA:  BSF    F93.6
0CAAC:  BTFSS  F81.6
0CAAE:  BRA    CABA
....................                               Desfogue_off; 
0CAB0:  BCF    F8C.4
0CAB2:  BCF    F95.4
....................                               Paso_off; 
0CAB4:  BCF    F8C.5
0CAB6:  BCF    F95.5
....................                            }else{ 
0CAB8:  BRA    CAC2
....................                               Desfogue_on;                               
0CABA:  BSF    F8C.4
0CABC:  BCF    F95.4
....................                               Paso_off; 
0CABE:  BCF    F8C.5
0CAC0:  BCF    F95.5
....................                            }                                
....................                            Agua_off;                                                       
0CAC2:  BCF    F8C.6
0CAC4:  BCF    F95.6
....................                            Desfogue_on; 
0CAC6:  BSF    F8C.4
0CAC8:  BCF    F95.4
....................                            Paso_off;                            
0CACA:  BCF    F8C.5
0CACC:  BCF    F95.5
....................                            Secando=OFF; 
0CACE:  MOVLB  0
0CAD0:  BCF    x83.5
....................                            if(Temperatura<=Tapertura){ 
0CAD2:  MOVLB  6
0CAD4:  CLRF   x47
0CAD6:  MOVFF  1E4,646
0CADA:  MOVLB  0
0CADC:  CALL   1CD0
0CAE0:  MOVFF  1C1,63B
0CAE4:  MOVFF  1C0,63A
0CAE8:  MOVFF  1BF,639
0CAEC:  MOVFF  1BE,638
0CAF0:  MOVFF  03,63F
0CAF4:  MOVFF  02,63E
0CAF8:  MOVFF  01,63D
0CAFC:  MOVFF  00,63C
0CB00:  CALL   2362
0CB04:  BC    CB08
0CB06:  BNZ   CB54
....................                               ActivaAlarma(2); 
0CB08:  MOVLW  02
0CB0A:  MOVLB  6
0CB0C:  MOVWF  x34
0CB0E:  MOVLB  0
0CB10:  CALL   4A94
....................                               printf("Funcionamiento.t4f.txt=\" Ninguna\""); 
0CB14:  MOVLW  6C
0CB16:  MOVWF  FF6
0CB18:  MOVLW  18
0CB1A:  MOVWF  FF7
0CB1C:  MOVLW  00
0CB1E:  MOVWF  FF8
0CB20:  CALL   3B38
....................                               SendDataDisplay(); 
0CB24:  CALL   3B6A
....................                               printf("Funcionamiento.t5f.txt=\" Finalizado\""); 
0CB28:  MOVLW  8E
0CB2A:  MOVWF  FF6
0CB2C:  MOVLW  18
0CB2E:  MOVWF  FF7
0CB30:  MOVLW  00
0CB32:  MOVWF  FF8
0CB34:  CALL   3B38
....................                               SendDataDisplay(); 
0CB38:  CALL   3B6A
....................                               Finalizo=ON; 
0CB3C:  BSF    x8A.4
....................                               codigoAlarma=14; 
0CB3E:  MOVLW  0E
0CB40:  MOVLB  2
0CB42:  MOVWF  x10
....................                               if(codigoAnt!=codigoAlarma){ 
0CB44:  MOVF   x10,W
0CB46:  SUBWF  x11,W
0CB48:  BZ    CB56
....................                                  codigoAnt=codigoAlarma; 
0CB4A:  MOVFF  210,211
....................                                  GuardaDatoCiclo();                   
0CB4E:  MOVLB  0
0CB50:  CALL   5EA8
0CB54:  MOVLB  2
....................                               } 
....................                            } 
....................                            incrementaCiclos(); 
0CB56:  MOVLB  0
0CB58:  CALL   624C
....................                            Secando=OFF; 
0CB5C:  BCF    x83.5
....................                         }else{ 
0CB5E:  BRA    CB94
....................                            if(Secando){ 
0CB60:  BTFSS  x83.5
0CB62:  BRA    CB8C
....................                               printf("Funcionamiento.t4f.txt=\" Ninguna\""); 
0CB64:  MOVLW  B4
0CB66:  MOVWF  FF6
0CB68:  MOVLW  18
0CB6A:  MOVWF  FF7
0CB6C:  MOVLW  00
0CB6E:  MOVWF  FF8
0CB70:  CALL   3B38
....................                               SendDataDisplay(); 
0CB74:  CALL   3B6A
....................                               printf("Funcionamiento.t5f.txt=\" Secando\""); 
0CB78:  MOVLW  D6
0CB7A:  MOVWF  FF6
0CB7C:  MOVLW  18
0CB7E:  MOVWF  FF7
0CB80:  MOVLW  00
0CB82:  MOVWF  FF8
0CB84:  CALL   3B38
....................                               SendDataDisplay(); 
0CB88:  CALL   3B6A
....................                            } 
....................                            Paso_off; 
0CB8C:  BCF    F8C.5
0CB8E:  BCF    F95.5
....................                            ControlaPresion(); 
0CB90:  GOTO   68DC
....................                         } 
....................                      }else if(PresionCamara>(Atmosferica+5)){ 
0CB94:  BRA    CBFE
0CB96:  MOVLW  05
0CB98:  MOVLB  2
0CB9A:  ADDWF  x25,W
0CB9C:  MOVLB  1
0CB9E:  MOVF   xFA,F
0CBA0:  BNZ   CBA8
0CBA2:  SUBWF  xF9,W
0CBA4:  BZ    CBFC
0CBA6:  BNC   CBFC
....................                         codigoAlarma=13; 
0CBA8:  MOVLW  0D
0CBAA:  MOVLB  2
0CBAC:  MOVWF  x10
....................                         if(codigoAnt!=codigoAlarma){ 
0CBAE:  MOVF   x10,W
0CBB0:  SUBWF  x11,W
0CBB2:  BZ    CBBE
....................                            codigoAnt=codigoAlarma; 
0CBB4:  MOVFF  210,211
....................                            GuardaDatoCiclo();                   
0CBB8:  MOVLB  0
0CBBA:  CALL   5EA8
....................                         } 
....................                         Desfogando=ON; 
0CBBE:  MOVLB  0
0CBC0:  BSF    x83.7
....................                         printf("Funcionamiento.t4f.txt=\" Ninguna\""); 
0CBC2:  MOVLW  F8
0CBC4:  MOVWF  FF6
0CBC6:  MOVLW  18
0CBC8:  MOVWF  FF7
0CBCA:  MOVLW  00
0CBCC:  MOVWF  FF8
0CBCE:  CALL   3B38
....................                         SendDataDisplay(); 
0CBD2:  CALL   3B6A
....................                         printf("Funcionamiento.t5f.txt=\" Despresurizando\""); 
0CBD6:  MOVLW  1A
0CBD8:  MOVWF  FF6
0CBDA:  MOVLW  19
0CBDC:  MOVWF  FF7
0CBDE:  MOVLW  00
0CBE0:  MOVWF  FF8
0CBE2:  CALL   3B38
....................                         SendDataDisplay(); 
0CBE6:  CALL   3B6A
....................                         Control=0; 
0CBEA:  MOVLB  1
0CBEC:  CLRF   xD5
....................                         Controlando=0; 
0CBEE:  CLRF   xD7
....................                         Paso_off; 
0CBF0:  BCF    F8C.5
0CBF2:  BCF    F95.5
....................                         Desfogue_off; 
0CBF4:  BCF    F8C.4
0CBF6:  BCF    F95.4
....................                         Agua_off;                         
0CBF8:  BCF    F8C.6
0CBFA:  BCF    F95.6
0CBFC:  MOVLB  0
....................                      } 
....................                   } 
....................                }else{ 
0CBFE:  BRA    CC52
....................                   codigoAlarma=16; 
0CC00:  MOVLW  10
0CC02:  MOVLB  2
0CC04:  MOVWF  x10
....................                   if(codigoAnt!=codigoAlarma){ 
0CC06:  MOVF   x10,W
0CC08:  SUBWF  x11,W
0CC0A:  BZ    CC18
....................                      codigoAnt=codigoAlarma; 
0CC0C:  MOVFF  210,211
....................                      GuardaDatoCiclo();                   
0CC10:  MOVLB  0
0CC12:  CALL   5EA8
0CC16:  MOVLB  2
....................                   } 
....................                   printf("Funcionamiento.t4f.txt=\" Ninguna\""); 
0CC18:  MOVLW  44
0CC1A:  MOVWF  FF6
0CC1C:  MOVLW  19
0CC1E:  MOVWF  FF7
0CC20:  MOVLW  00
0CC22:  MOVWF  FF8
0CC24:  MOVLB  0
0CC26:  CALL   3B38
....................                   SendDataDisplay(); 
0CC2A:  CALL   3B6A
....................                   printf("Funcionamiento.t5f.txt=\" Esterilizando\""); 
0CC2E:  MOVLW  66
0CC30:  MOVWF  FF6
0CC32:  MOVLW  19
0CC34:  MOVWF  FF7
0CC36:  MOVLW  00
0CC38:  MOVWF  FF8
0CC3A:  CALL   3B38
....................                   SendDataDisplay(); 
0CC3E:  CALL   3B6A
....................                   Paso_on; 
0CC42:  BSF    F8C.5
0CC44:  BCF    F95.5
....................                   Control=1; 
0CC46:  MOVLW  01
0CC48:  MOVLB  1
0CC4A:  MOVWF  xD5
....................                   Controla(); 
0CC4C:  MOVLB  0
0CC4E:  CALL   6346
0CC52:  MOVLB  1
....................                } 
....................             } 
....................          } 
....................       }  
....................     
....................  
....................    if(tguarda>=180){ 
0CC54:  MOVLB  0
0CC56:  MOVF   x96,F
0CC58:  BNZ   CC60
0CC5A:  MOVF   x95,W
0CC5C:  SUBLW  B3
0CC5E:  BC    CC6C
....................       if(!Ciclo) 
0CC60:  BTFSC  x88.7
0CC62:  BRA    CC68
....................          GuardaDatoCiclo(); 
0CC64:  CALL   5EA8
....................       tguarda=0; 
0CC68:  CLRF   x96
0CC6A:  CLRF   x95
....................    } 
....................  
....................    if(Grafica==1){ 
0CC6C:  BTFSS  x8C.5
0CC6E:  BRA    CDE0
....................       printf("add 14,0,%1.0f",Temperatura*0.66); 
0CC70:  MOVFF  1C1,64D
0CC74:  MOVFF  1C0,64C
0CC78:  MOVFF  1BF,64B
0CC7C:  MOVFF  1BE,64A
0CC80:  MOVLW  C3
0CC82:  MOVLB  6
0CC84:  MOVWF  x51
0CC86:  MOVLW  F5
0CC88:  MOVWF  x50
0CC8A:  MOVLW  28
0CC8C:  MOVWF  x4F
0CC8E:  MOVLW  7E
0CC90:  MOVWF  x4E
0CC92:  MOVLB  0
0CC94:  CALL   3BBC
0CC98:  MOVFF  00,634
0CC9C:  MOVFF  01,635
0CCA0:  MOVFF  02,636
0CCA4:  MOVFF  03,637
0CCA8:  MOVLW  8E
0CCAA:  MOVWF  FF6
0CCAC:  MOVLW  19
0CCAE:  MOVWF  FF7
0CCB0:  MOVLW  00
0CCB2:  MOVWF  FF8
0CCB4:  MOVLW  09
0CCB6:  MOVLB  6
0CCB8:  MOVWF  x39
0CCBA:  MOVLB  0
0CCBC:  CALL   4B78
0CCC0:  MOVLW  00
0CCC2:  MOVWF  FE9
0CCC4:  MOVFF  637,63C
0CCC8:  MOVFF  636,63B
0CCCC:  MOVFF  635,63A
0CCD0:  MOVFF  634,639
0CCD4:  MOVLB  6
0CCD6:  CLRF   x3D
0CCD8:  MOVLB  0
0CCDA:  CALL   4E52
....................       SendDataDisplay(); 
0CCDE:  CALL   3B6A
....................       printf("add 14,1,%1.0f",PresionCamara*0.66); 
0CCE2:  MOVFF  1FA,647
0CCE6:  MOVFF  1F9,646
0CCEA:  CALL   1CD0
0CCEE:  MOVFF  03,64D
0CCF2:  MOVFF  02,64C
0CCF6:  MOVFF  01,64B
0CCFA:  MOVFF  00,64A
0CCFE:  MOVLW  C3
0CD00:  MOVLB  6
0CD02:  MOVWF  x51
0CD04:  MOVLW  F5
0CD06:  MOVWF  x50
0CD08:  MOVLW  28
0CD0A:  MOVWF  x4F
0CD0C:  MOVLW  7E
0CD0E:  MOVWF  x4E
0CD10:  MOVLB  0
0CD12:  CALL   3BBC
0CD16:  MOVFF  00,634
0CD1A:  MOVFF  01,635
0CD1E:  MOVFF  02,636
0CD22:  MOVFF  03,637
0CD26:  MOVLW  9E
0CD28:  MOVWF  FF6
0CD2A:  MOVLW  19
0CD2C:  MOVWF  FF7
0CD2E:  MOVLW  00
0CD30:  MOVWF  FF8
0CD32:  MOVLW  09
0CD34:  MOVLB  6
0CD36:  MOVWF  x39
0CD38:  MOVLB  0
0CD3A:  CALL   4B78
0CD3E:  MOVLW  00
0CD40:  MOVWF  FE9
0CD42:  MOVFF  637,63C
0CD46:  MOVFF  636,63B
0CD4A:  MOVFF  635,63A
0CD4E:  MOVFF  634,639
0CD52:  MOVLB  6
0CD54:  CLRF   x3D
0CD56:  MOVLB  0
0CD58:  CALL   4E52
....................       SendDataDisplay(); 
0CD5C:  CALL   3B6A
....................       printf("add 14,2,%1.0f",PresionPreCamara*0.66); 
0CD60:  MOVFF  1FC,647
0CD64:  MOVFF  1FB,646
0CD68:  CALL   1CD0
0CD6C:  MOVFF  03,64D
0CD70:  MOVFF  02,64C
0CD74:  MOVFF  01,64B
0CD78:  MOVFF  00,64A
0CD7C:  MOVLW  C3
0CD7E:  MOVLB  6
0CD80:  MOVWF  x51
0CD82:  MOVLW  F5
0CD84:  MOVWF  x50
0CD86:  MOVLW  28
0CD88:  MOVWF  x4F
0CD8A:  MOVLW  7E
0CD8C:  MOVWF  x4E
0CD8E:  MOVLB  0
0CD90:  CALL   3BBC
0CD94:  MOVFF  00,634
0CD98:  MOVFF  01,635
0CD9C:  MOVFF  02,636
0CDA0:  MOVFF  03,637
0CDA4:  MOVLW  AE
0CDA6:  MOVWF  FF6
0CDA8:  MOVLW  19
0CDAA:  MOVWF  FF7
0CDAC:  MOVLW  00
0CDAE:  MOVWF  FF8
0CDB0:  MOVLW  09
0CDB2:  MOVLB  6
0CDB4:  MOVWF  x39
0CDB6:  MOVLB  0
0CDB8:  CALL   4B78
0CDBC:  MOVLW  00
0CDBE:  MOVWF  FE9
0CDC0:  MOVFF  637,63C
0CDC4:  MOVFF  636,63B
0CDC8:  MOVFF  635,63A
0CDCC:  MOVFF  634,639
0CDD0:  MOVLB  6
0CDD2:  CLRF   x3D
0CDD4:  MOVLB  0
0CDD6:  CALL   4E52
....................       SendDataDisplay(); 
0CDDA:  CALL   3B6A
....................       Grafica=0; 
0CDDE:  BCF    x8C.5
....................    } 
....................    if(Lectura==1)// Utilizado para visualizar la lectura de la temperatura 
0CDE0:  BTFSS  x8C.4
0CDE2:  BRA    D0F2
....................    {                       
....................       Lectura=0; 
0CDE4:  BCF    x8C.4
....................       printf("tuser.txt=\"%s\"",usuario); 
0CDE6:  MOVLW  BE
0CDE8:  MOVWF  FF6
0CDEA:  MOVLW  19
0CDEC:  MOVWF  FF7
0CDEE:  MOVLW  00
0CDF0:  MOVWF  FF8
0CDF2:  MOVLW  0B
0CDF4:  MOVLB  6
0CDF6:  MOVWF  x39
0CDF8:  MOVLB  0
0CDFA:  CALL   4B78
0CDFE:  MOVLW  02
0CE00:  MOVWF  FEA
0CE02:  MOVLW  3A
0CE04:  MOVWF  FE9
0CE06:  CALL   4BAA
0CE0A:  MOVLW  22
0CE0C:  BTFSS  F9E.4
0CE0E:  BRA    CE0C
0CE10:  MOVWF  FAD
....................       SendDataDisplay(); 
0CE12:  CALL   3B6A
....................       printf("t6f.txt=\"%3.1f\"",Temperatura); 
0CE16:  MOVLW  CE
0CE18:  MOVWF  FF6
0CE1A:  MOVLW  19
0CE1C:  MOVWF  FF7
0CE1E:  MOVLW  00
0CE20:  MOVWF  FF8
0CE22:  MOVLW  09
0CE24:  MOVLB  6
0CE26:  MOVWF  x39
0CE28:  MOVLB  0
0CE2A:  CALL   4B78
0CE2E:  MOVLW  02
0CE30:  MOVWF  FE9
0CE32:  MOVFF  1C1,63C
0CE36:  MOVFF  1C0,63B
0CE3A:  MOVFF  1BF,63A
0CE3E:  MOVFF  1BE,639
0CE42:  MOVLW  01
0CE44:  MOVLB  6
0CE46:  MOVWF  x3D
0CE48:  MOVLB  0
0CE4A:  CALL   4E52
0CE4E:  MOVLW  22
0CE50:  BTFSS  F9E.4
0CE52:  BRA    CE50
0CE54:  MOVWF  FAD
....................       SendDataDisplay(); 
0CE56:  CALL   3B6A
....................       printf("Funcionamiento.t7f.txt=\"%03LukPa\"",PresionCamara); 
0CE5A:  MOVLW  DE
0CE5C:  MOVWF  FF6
0CE5E:  MOVLW  19
0CE60:  MOVWF  FF7
0CE62:  MOVLW  00
0CE64:  MOVWF  FF8
0CE66:  MOVLW  18
0CE68:  MOVLB  6
0CE6A:  MOVWF  x39
0CE6C:  MOVLB  0
0CE6E:  CALL   4B78
0CE72:  MOVLW  0A
0CE74:  MOVWF  FE9
0CE76:  MOVFF  1FA,639
0CE7A:  MOVFF  1F9,638
0CE7E:  CALL   4CE4
0CE82:  MOVLW  FB
0CE84:  MOVWF  FF6
0CE86:  MOVLW  19
0CE88:  MOVWF  FF7
0CE8A:  MOVLW  00
0CE8C:  MOVWF  FF8
0CE8E:  MOVLW  04
0CE90:  MOVLB  6
0CE92:  MOVWF  x39
0CE94:  MOVLB  0
0CE96:  CALL   4B78
....................       SendDataDisplay(); 
0CE9A:  CALL   3B6A
....................       printf("Funcionamiento.t12f.txt=\"%03LukPa\"",PresionPreCamara); 
0CE9E:  MOVLW  00
0CEA0:  MOVWF  FF6
0CEA2:  MOVLW  1A
0CEA4:  MOVWF  FF7
0CEA6:  MOVLW  00
0CEA8:  MOVWF  FF8
0CEAA:  MOVLW  19
0CEAC:  MOVLB  6
0CEAE:  MOVWF  x39
0CEB0:  MOVLB  0
0CEB2:  CALL   4B78
0CEB6:  MOVLW  0A
0CEB8:  MOVWF  FE9
0CEBA:  MOVFF  1FC,639
0CEBE:  MOVFF  1FB,638
0CEC2:  CALL   4CE4
0CEC6:  MOVLW  1E
0CEC8:  MOVWF  FF6
0CECA:  MOVLW  1A
0CECC:  MOVWF  FF7
0CECE:  MOVLW  00
0CED0:  MOVWF  FF8
0CED2:  MOVLW  04
0CED4:  MOVLB  6
0CED6:  MOVWF  x39
0CED8:  MOVLB  0
0CEDA:  CALL   4B78
....................       SendDataDisplay(); 
0CEDE:  CALL   3B6A
....................       printf("Funcionamiento.t9f.txt=\"%03u\"",Setpoint); 
0CEE2:  MOVLW  24
0CEE4:  MOVWF  FF6
0CEE6:  MOVLW  1A
0CEE8:  MOVWF  FF7
0CEEA:  MOVLW  00
0CEEC:  MOVWF  FF8
0CEEE:  MOVLW  18
0CEF0:  MOVLB  6
0CEF2:  MOVWF  x39
0CEF4:  MOVLB  0
0CEF6:  CALL   4B78
0CEFA:  MOVFF  1E7,639
0CEFE:  MOVLW  03
0CF00:  MOVLB  6
0CF02:  MOVWF  x3A
0CF04:  MOVLB  0
0CF06:  CALL   4BFC
0CF0A:  MOVLW  22
0CF0C:  BTFSS  F9E.4
0CF0E:  BRA    CF0C
0CF10:  MOVWF  FAD
....................       SendDataDisplay();       
0CF12:  CALL   3B6A
....................       printf("Funcionamiento.t10f.txt=\"%02u\"",((Testerilizacion[3]*10)+Testerilizacion[2])); 
0CF16:  MOVFF  9A,63B
0CF1A:  MOVLW  0A
0CF1C:  MOVLB  6
0CF1E:  MOVWF  x3C
0CF20:  MOVLB  0
0CF22:  CALL   36B2
0CF26:  MOVF   x99,W
0CF28:  ADDWF  01,W
0CF2A:  MOVLB  6
0CF2C:  MOVWF  x34
0CF2E:  MOVLW  42
0CF30:  MOVWF  FF6
0CF32:  MOVLW  1A
0CF34:  MOVWF  FF7
0CF36:  MOVLW  00
0CF38:  MOVWF  FF8
0CF3A:  MOVLW  19
0CF3C:  MOVWF  x39
0CF3E:  MOVLB  0
0CF40:  CALL   4B78
0CF44:  MOVFF  634,639
0CF48:  MOVLW  01
0CF4A:  MOVLB  6
0CF4C:  MOVWF  x3A
0CF4E:  MOVLB  0
0CF50:  CALL   4BFC
0CF54:  MOVLW  22
0CF56:  BTFSS  F9E.4
0CF58:  BRA    CF56
0CF5A:  MOVWF  FAD
....................       SendDataDisplay();       
0CF5C:  CALL   3B6A
....................       printf("Funcionamiento.t13f.txt=\"%02u\"",((Testerilizacion[1]*10)+Testerilizacion[0])); 
0CF60:  MOVFF  98,63B
0CF64:  MOVLW  0A
0CF66:  MOVLB  6
0CF68:  MOVWF  x3C
0CF6A:  MOVLB  0
0CF6C:  CALL   36B2
0CF70:  MOVF   x97,W
0CF72:  ADDWF  01,W
0CF74:  MOVLB  6
0CF76:  MOVWF  x34
0CF78:  MOVLW  62
0CF7A:  MOVWF  FF6
0CF7C:  MOVLW  1A
0CF7E:  MOVWF  FF7
0CF80:  MOVLW  00
0CF82:  MOVWF  FF8
0CF84:  MOVLW  19
0CF86:  MOVWF  x39
0CF88:  MOVLB  0
0CF8A:  CALL   4B78
0CF8E:  MOVFF  634,639
0CF92:  MOVLW  01
0CF94:  MOVLB  6
0CF96:  MOVWF  x3A
0CF98:  MOVLB  0
0CF9A:  CALL   4BFC
0CF9E:  MOVLW  22
0CFA0:  BTFSS  F9E.4
0CFA2:  BRA    CFA0
0CFA4:  MOVWF  FAD
....................       SendDataDisplay();       
0CFA6:  CALL   3B6A
....................       printf("Funcionamiento.t11f.txt=\"%02u\"",((Tsecado[3]*10)+Tsecado[2])); 
0CFAA:  MOVFF  A2,63B
0CFAE:  MOVLW  0A
0CFB0:  MOVLB  6
0CFB2:  MOVWF  x3C
0CFB4:  MOVLB  0
0CFB6:  CALL   36B2
0CFBA:  MOVF   xA1,W
0CFBC:  ADDWF  01,W
0CFBE:  MOVLB  6
0CFC0:  MOVWF  x34
0CFC2:  MOVLW  82
0CFC4:  MOVWF  FF6
0CFC6:  MOVLW  1A
0CFC8:  MOVWF  FF7
0CFCA:  MOVLW  00
0CFCC:  MOVWF  FF8
0CFCE:  MOVLW  19
0CFD0:  MOVWF  x39
0CFD2:  MOVLB  0
0CFD4:  CALL   4B78
0CFD8:  MOVFF  634,639
0CFDC:  MOVLW  01
0CFDE:  MOVLB  6
0CFE0:  MOVWF  x3A
0CFE2:  MOVLB  0
0CFE4:  CALL   4BFC
0CFE8:  MOVLW  22
0CFEA:  BTFSS  F9E.4
0CFEC:  BRA    CFEA
0CFEE:  MOVWF  FAD
....................       SendDataDisplay();       
0CFF0:  CALL   3B6A
....................       printf("Funcionamiento.t16f.txt=\"%02u\"",((Tsecado[1]*10)+Tsecado[0])); 
0CFF4:  MOVFF  A0,63B
0CFF8:  MOVLW  0A
0CFFA:  MOVLB  6
0CFFC:  MOVWF  x3C
0CFFE:  MOVLB  0
0D000:  CALL   36B2
0D004:  MOVF   x9F,W
0D006:  ADDWF  01,W
0D008:  MOVLB  6
0D00A:  MOVWF  x34
0D00C:  MOVLW  A2
0D00E:  MOVWF  FF6
0D010:  MOVLW  1A
0D012:  MOVWF  FF7
0D014:  MOVLW  00
0D016:  MOVWF  FF8
0D018:  MOVLW  19
0D01A:  MOVWF  x39
0D01C:  MOVLB  0
0D01E:  CALL   4B78
0D022:  MOVFF  634,639
0D026:  MOVLW  01
0D028:  MOVLB  6
0D02A:  MOVWF  x3A
0D02C:  MOVLB  0
0D02E:  CALL   4BFC
0D032:  MOVLW  22
0D034:  BTFSS  F9E.4
0D036:  BRA    D034
0D038:  MOVWF  FAD
....................       SendDataDisplay();       
0D03A:  CALL   3B6A
....................        
....................       printf("fecha.txt=\"Fecha:%02u/%02u/20%02u Hora: %02u:%02u\"",Dia,Mes,Year,Hora,Minuto); 
0D03E:  MOVLW  C2
0D040:  MOVWF  FF6
0D042:  MOVLW  1A
0D044:  MOVWF  FF7
0D046:  MOVLW  00
0D048:  MOVWF  FF8
0D04A:  MOVLW  11
0D04C:  MOVLB  6
0D04E:  MOVWF  x39
0D050:  MOVLB  0
0D052:  CALL   4B78
0D056:  MOVFF  21D,639
0D05A:  MOVLW  01
0D05C:  MOVLB  6
0D05E:  MOVWF  x3A
0D060:  MOVLB  0
0D062:  CALL   4BFC
0D066:  MOVLW  2F
0D068:  BTFSS  F9E.4
0D06A:  BRA    D068
0D06C:  MOVWF  FAD
0D06E:  MOVFF  21C,639
0D072:  MOVLW  01
0D074:  MOVLB  6
0D076:  MOVWF  x3A
0D078:  MOVLB  0
0D07A:  CALL   4BFC
0D07E:  MOVLW  2F
0D080:  BTFSS  F9E.4
0D082:  BRA    D080
0D084:  MOVWF  FAD
0D086:  MOVLW  32
0D088:  BTFSS  F9E.4
0D08A:  BRA    D088
0D08C:  MOVWF  FAD
0D08E:  MOVLW  30
0D090:  BTFSS  F9E.4
0D092:  BRA    D090
0D094:  MOVWF  FAD
0D096:  MOVFF  21B,639
0D09A:  MOVLW  01
0D09C:  MOVLB  6
0D09E:  MOVWF  x3A
0D0A0:  MOVLB  0
0D0A2:  CALL   4BFC
0D0A6:  MOVLW  E3
0D0A8:  MOVWF  FF6
0D0AA:  MOVLW  1A
0D0AC:  MOVWF  FF7
0D0AE:  MOVLW  00
0D0B0:  MOVWF  FF8
0D0B2:  MOVLW  07
0D0B4:  MOVLB  6
0D0B6:  MOVWF  x39
0D0B8:  MOVLB  0
0D0BA:  CALL   4B78
0D0BE:  MOVFF  21E,639
0D0C2:  MOVLW  01
0D0C4:  MOVLB  6
0D0C6:  MOVWF  x3A
0D0C8:  MOVLB  0
0D0CA:  CALL   4BFC
0D0CE:  MOVLW  3A
0D0D0:  BTFSS  F9E.4
0D0D2:  BRA    D0D0
0D0D4:  MOVWF  FAD
0D0D6:  MOVFF  21F,639
0D0DA:  MOVLW  01
0D0DC:  MOVLB  6
0D0DE:  MOVWF  x3A
0D0E0:  MOVLB  0
0D0E2:  CALL   4BFC
0D0E6:  MOVLW  22
0D0E8:  BTFSS  F9E.4
0D0EA:  BRA    D0E8
0D0EC:  MOVWF  FAD
....................       SendDataDisplay(); 
0D0EE:  CALL   3B6A
0D0F2:  MOVLB  1
....................       //printf("fecha.font=2"); 
....................       //SendDataDisplay(); 
....................    } 
....................  
.................... } 
.................... //_-------------------------------------------------------------------------------------------------------------------------------------------------------- 
....................  
.................... //_-------------------------------------------------------------------------------------------------------------------------------------------------------- 
....................       if(Menu==100){ //Menu de Configuracin de Parametros de Control 
0D0F4:  MOVF   xDD,W
0D0F6:  SUBLW  64
0D0F8:  BTFSS  FD8.2
0D0FA:  GOTO   DED4
....................       
....................       if(Opcion2>10) 
0D0FE:  MOVF   xE9,W
0D100:  SUBLW  0A
0D102:  BC    D108
....................          Opcion2=1; 
0D104:  MOVLW  01
0D106:  MOVWF  xE9
....................       if(Opcion2<1) 
0D108:  MOVF   xE9,F
0D10A:  BNZ   D110
....................          Opcion2=10; 
0D10C:  MOVLW  0A
0D10E:  MOVWF  xE9
....................        
....................       if(Opcion2==1){ 
0D110:  DECFSZ xE9,W
0D112:  BRA    D290
....................          printf("Config.t2c.txt=\"Proporcional\""); 
0D114:  MOVLW  F6
0D116:  MOVWF  FF6
0D118:  MOVLW  1A
0D11A:  MOVWF  FF7
0D11C:  MOVLW  00
0D11E:  MOVWF  FF8
0D120:  MOVLB  0
0D122:  CALL   3B38
....................          SendDataDisplay();       
0D126:  CALL   3B6A
....................          printf("t3c.txt=\"%2.0f\"",Ganancia); 
0D12A:  MOVLW  14
0D12C:  MOVWF  FF6
0D12E:  MOVLW  1B
0D130:  MOVWF  FF7
0D132:  MOVLW  00
0D134:  MOVWF  FF8
0D136:  MOVLW  09
0D138:  MOVLB  6
0D13A:  MOVWF  x39
0D13C:  MOVLB  0
0D13E:  CALL   4B78
0D142:  MOVLW  01
0D144:  MOVWF  FE9
0D146:  MOVFF  1A5,63C
0D14A:  MOVFF  1A4,63B
0D14E:  MOVFF  1A3,63A
0D152:  MOVFF  1A2,639
0D156:  MOVLB  6
0D158:  CLRF   x3D
0D15A:  MOVLB  0
0D15C:  CALL   4E52
0D160:  MOVLW  22
0D162:  BTFSS  F9E.4
0D164:  BRA    D162
0D166:  MOVWF  FAD
....................          SendDataDisplay(); 
0D168:  CALL   3B6A
....................          if(RX_Buffer[4]==0x0a || UP){//Tecla Arriba Oprimida 
0D16C:  MOVF   34,W
0D16E:  SUBLW  0A
0D170:  BZ    D178
0D172:  BSF    F93.0
0D174:  BTFSC  F81.0
0D176:  BRA    D1C8
....................             delay_ms(20); 
0D178:  MOVLW  14
0D17A:  MOVLB  6
0D17C:  MOVWF  x3D
0D17E:  MOVLB  0
0D180:  CALL   1D06
....................             if(RX_Buffer[4]==0x0a || UP){ 
0D184:  MOVF   34,W
0D186:  SUBLW  0A
0D188:  BZ    D190
0D18A:  BSF    F93.0
0D18C:  BTFSC  F81.0
0D18E:  BRA    D1C8
....................                Ganancia+=1.0; 
0D190:  BCF    FD8.1
0D192:  MOVFF  1A5,649
0D196:  MOVFF  1A4,648
0D19A:  MOVFF  1A3,647
0D19E:  MOVFF  1A2,646
0D1A2:  MOVLB  6
0D1A4:  CLRF   x4D
0D1A6:  CLRF   x4C
0D1A8:  CLRF   x4B
0D1AA:  MOVLW  7F
0D1AC:  MOVWF  x4A
0D1AE:  MOVLB  0
0D1B0:  CALL   1E8C
0D1B4:  MOVFF  03,1A5
0D1B8:  MOVFF  02,1A4
0D1BC:  MOVFF  01,1A3
0D1C0:  MOVFF  00,1A2
....................                RX_Buffer[4]=0x00;   
0D1C4:  CLRF   34
....................                RX_Buffer2[4]=0x00;             
0D1C6:  CLRF   3F
....................                //BorraBuffer(); 
....................             } 
....................          } 
....................              
....................          if(RX_Buffer[4]==0x0b || DOWN){//Tecla Abajo Oprimida 
0D1C8:  MOVF   34,W
0D1CA:  SUBLW  0B
0D1CC:  BZ    D1D4
0D1CE:  BSF    F93.1
0D1D0:  BTFSC  F81.1
0D1D2:  BRA    D224
....................             delay_ms(20); 
0D1D4:  MOVLW  14
0D1D6:  MOVLB  6
0D1D8:  MOVWF  x3D
0D1DA:  MOVLB  0
0D1DC:  CALL   1D06
....................             if(RX_Buffer[4]==0x0b || DOWN){ 
0D1E0:  MOVF   34,W
0D1E2:  SUBLW  0B
0D1E4:  BZ    D1EC
0D1E6:  BSF    F93.1
0D1E8:  BTFSC  F81.1
0D1EA:  BRA    D224
....................                Ganancia-=1.0; 
0D1EC:  BSF    FD8.1
0D1EE:  MOVFF  1A5,649
0D1F2:  MOVFF  1A4,648
0D1F6:  MOVFF  1A3,647
0D1FA:  MOVFF  1A2,646
0D1FE:  MOVLB  6
0D200:  CLRF   x4D
0D202:  CLRF   x4C
0D204:  CLRF   x4B
0D206:  MOVLW  7F
0D208:  MOVWF  x4A
0D20A:  MOVLB  0
0D20C:  CALL   1E8C
0D210:  MOVFF  03,1A5
0D214:  MOVFF  02,1A4
0D218:  MOVFF  01,1A3
0D21C:  MOVFF  00,1A2
....................                RX_Buffer[4]=0x00; 
0D220:  CLRF   34
....................                RX_Buffer2[4]=0x00;             
0D222:  CLRF   3F
....................                //BorraBuffer(); 
....................             } 
....................          } 
....................           
....................          if(Ganancia>40) 
0D224:  MOVLB  6
0D226:  CLRF   x3B
0D228:  CLRF   x3A
0D22A:  MOVLW  20
0D22C:  MOVWF  x39
0D22E:  MOVLW  84
0D230:  MOVWF  x38
0D232:  MOVFF  1A5,63F
0D236:  MOVFF  1A4,63E
0D23A:  MOVFF  1A3,63D
0D23E:  MOVFF  1A2,63C
0D242:  MOVLB  0
0D244:  CALL   2362
0D248:  BNC   D256
....................             Ganancia=1; 
0D24A:  MOVLB  1
0D24C:  CLRF   xA5
0D24E:  CLRF   xA4
0D250:  CLRF   xA3
0D252:  MOVLW  7F
0D254:  MOVWF  xA2
....................          if(Ganancia<1) 
0D256:  MOVFF  1A5,63B
0D25A:  MOVFF  1A4,63A
0D25E:  MOVFF  1A3,639
0D262:  MOVFF  1A2,638
0D266:  MOVLB  6
0D268:  CLRF   x3F
0D26A:  CLRF   x3E
0D26C:  CLRF   x3D
0D26E:  MOVLW  7F
0D270:  MOVWF  x3C
0D272:  MOVLB  0
0D274:  CALL   2362
0D278:  BNC   D28A
....................             Ganancia=40; 
0D27A:  MOVLB  1
0D27C:  CLRF   xA5
0D27E:  CLRF   xA4
0D280:  MOVLW  20
0D282:  MOVWF  xA3
0D284:  MOVLW  84
0D286:  MOVWF  xA2
0D288:  MOVLB  0
....................       }else if(Opcion2==2){ 
0D28A:  GOTO   DA46
0D28E:  MOVLB  1
0D290:  MOVF   xE9,W
0D292:  SUBLW  02
0D294:  BNZ   D354
....................          printf("Config.t2c.txt=\"Derivativo\""); 
0D296:  MOVLW  24
0D298:  MOVWF  FF6
0D29A:  MOVLW  1B
0D29C:  MOVWF  FF7
0D29E:  MOVLW  00
0D2A0:  MOVWF  FF8
0D2A2:  MOVLB  0
0D2A4:  CALL   3B38
....................          SendDataDisplay();       
0D2A8:  CALL   3B6A
....................          printf("t3c.txt=\"%u\"",Derivativo); 
0D2AC:  MOVLW  40
0D2AE:  MOVWF  FF6
0D2B0:  MOVLW  1B
0D2B2:  MOVWF  FF7
0D2B4:  MOVLW  00
0D2B6:  MOVWF  FF8
0D2B8:  MOVLW  09
0D2BA:  MOVLB  6
0D2BC:  MOVWF  x39
0D2BE:  MOVLB  0
0D2C0:  CALL   4B78
0D2C4:  MOVFF  1D3,639
0D2C8:  MOVLW  1B
0D2CA:  MOVLB  6
0D2CC:  MOVWF  x3A
0D2CE:  MOVLB  0
0D2D0:  CALL   4BFC
0D2D4:  MOVLW  22
0D2D6:  BTFSS  F9E.4
0D2D8:  BRA    D2D6
0D2DA:  MOVWF  FAD
....................          SendDataDisplay(); 
0D2DC:  CALL   3B6A
....................          if(RX_Buffer[4]==0x0a || UP){//Tecla Arriba Oprimida 
0D2E0:  MOVF   34,W
0D2E2:  SUBLW  0A
0D2E4:  BZ    D2EC
0D2E6:  BSF    F93.0
0D2E8:  BTFSC  F81.0
0D2EA:  BRA    D30E
....................             delay_ms(20); 
0D2EC:  MOVLW  14
0D2EE:  MOVLB  6
0D2F0:  MOVWF  x3D
0D2F2:  MOVLB  0
0D2F4:  CALL   1D06
....................             if(RX_Buffer[4]==0x0a || UP){ 
0D2F8:  MOVF   34,W
0D2FA:  SUBLW  0A
0D2FC:  BZ    D304
0D2FE:  BSF    F93.0
0D300:  BTFSC  F81.0
0D302:  BRA    D30E
....................                Derivativo++; 
0D304:  MOVLB  1
0D306:  INCF   xD3,F
....................                RX_Buffer[4]=0x00;   
0D308:  CLRF   34
....................                RX_Buffer2[4]=0x00;             
0D30A:  CLRF   3F
0D30C:  MOVLB  0
....................                //BorraBuffer(); 
....................             } 
....................          } 
....................              
....................          if(RX_Buffer[4]==0x0b || DOWN){//Tecla Abajo Oprimida 
0D30E:  MOVF   34,W
0D310:  SUBLW  0B
0D312:  BZ    D31A
0D314:  BSF    F93.1
0D316:  BTFSC  F81.1
0D318:  BRA    D33C
....................             delay_ms(20); 
0D31A:  MOVLW  14
0D31C:  MOVLB  6
0D31E:  MOVWF  x3D
0D320:  MOVLB  0
0D322:  CALL   1D06
....................             if(RX_Buffer[4]==0x0b || DOWN){ 
0D326:  MOVF   34,W
0D328:  SUBLW  0B
0D32A:  BZ    D332
0D32C:  BSF    F93.1
0D32E:  BTFSC  F81.1
0D330:  BRA    D33C
....................                Derivativo--; 
0D332:  MOVLB  1
0D334:  DECF   xD3,F
....................                RX_Buffer[4]=0x00; 
0D336:  CLRF   34
....................                RX_Buffer2[4]=0x00;             
0D338:  CLRF   3F
0D33A:  MOVLB  0
....................                //BorraBuffer(); 
....................             } 
....................          } 
....................           
....................           
....................          if(Derivativo>40) 
0D33C:  MOVLB  1
0D33E:  MOVF   xD3,W
0D340:  SUBLW  28
0D342:  BC    D348
....................             Derivativo=1; 
0D344:  MOVLW  01
0D346:  MOVWF  xD3
....................          if(Derivativo<1) 
0D348:  MOVF   xD3,F
0D34A:  BNZ   D350
....................             Derivativo=40; 
0D34C:  MOVLW  28
0D34E:  MOVWF  xD3
....................       }else if(Opcion2==3){ 
0D350:  GOTO   DA48
0D354:  MOVF   xE9,W
0D356:  SUBLW  03
0D358:  BNZ   D416
....................          printf("Config.t2c.txt=\"Integral\""); 
0D35A:  MOVLW  4E
0D35C:  MOVWF  FF6
0D35E:  MOVLW  1B
0D360:  MOVWF  FF7
0D362:  MOVLW  00
0D364:  MOVWF  FF8
0D366:  MOVLB  0
0D368:  CALL   3B38
....................          SendDataDisplay();       
0D36C:  CALL   3B6A
....................          printf("t3c.txt=\"%u\"",Integral); 
0D370:  MOVLW  68
0D372:  MOVWF  FF6
0D374:  MOVLW  1B
0D376:  MOVWF  FF7
0D378:  MOVLW  00
0D37A:  MOVWF  FF8
0D37C:  MOVLW  09
0D37E:  MOVLB  6
0D380:  MOVWF  x39
0D382:  MOVLB  0
0D384:  CALL   4B78
0D388:  MOVFF  1D2,639
0D38C:  MOVLW  1B
0D38E:  MOVLB  6
0D390:  MOVWF  x3A
0D392:  MOVLB  0
0D394:  CALL   4BFC
0D398:  MOVLW  22
0D39A:  BTFSS  F9E.4
0D39C:  BRA    D39A
0D39E:  MOVWF  FAD
....................          SendDataDisplay(); 
0D3A0:  CALL   3B6A
....................          if(RX_Buffer[4]==0x0a || UP){//Tecla Arriba Oprimida 
0D3A4:  MOVF   34,W
0D3A6:  SUBLW  0A
0D3A8:  BZ    D3B0
0D3AA:  BSF    F93.0
0D3AC:  BTFSC  F81.0
0D3AE:  BRA    D3D2
....................             delay_ms(20); 
0D3B0:  MOVLW  14
0D3B2:  MOVLB  6
0D3B4:  MOVWF  x3D
0D3B6:  MOVLB  0
0D3B8:  CALL   1D06
....................             if(RX_Buffer[4]==0x0a || UP){ 
0D3BC:  MOVF   34,W
0D3BE:  SUBLW  0A
0D3C0:  BZ    D3C8
0D3C2:  BSF    F93.0
0D3C4:  BTFSC  F81.0
0D3C6:  BRA    D3D2
....................                Integral++; 
0D3C8:  MOVLB  1
0D3CA:  INCF   xD2,F
....................                RX_Buffer[4]=0x00;   
0D3CC:  CLRF   34
....................                RX_Buffer2[4]=0x00;             
0D3CE:  CLRF   3F
0D3D0:  MOVLB  0
....................                //BorraBuffer(); 
....................             } 
....................          } 
....................              
....................          if(RX_Buffer[4]==0x0b || DOWN){//Tecla Abajo Oprimida 
0D3D2:  MOVF   34,W
0D3D4:  SUBLW  0B
0D3D6:  BZ    D3DE
0D3D8:  BSF    F93.1
0D3DA:  BTFSC  F81.1
0D3DC:  BRA    D400
....................             delay_ms(20); 
0D3DE:  MOVLW  14
0D3E0:  MOVLB  6
0D3E2:  MOVWF  x3D
0D3E4:  MOVLB  0
0D3E6:  CALL   1D06
....................             if(RX_Buffer[4]==0x0b || DOWN){ 
0D3EA:  MOVF   34,W
0D3EC:  SUBLW  0B
0D3EE:  BZ    D3F6
0D3F0:  BSF    F93.1
0D3F2:  BTFSC  F81.1
0D3F4:  BRA    D400
....................                Integral--; 
0D3F6:  MOVLB  1
0D3F8:  DECF   xD2,F
....................                RX_Buffer[4]=0x00; 
0D3FA:  CLRF   34
....................                RX_Buffer2[4]=0x00;             
0D3FC:  CLRF   3F
0D3FE:  MOVLB  0
....................                //BorraBuffer(); 
....................             } 
....................          } 
....................           
....................          if(Integral>40) 
0D400:  MOVLB  1
0D402:  MOVF   xD2,W
0D404:  SUBLW  28
0D406:  BC    D40C
....................             Integral=1; 
0D408:  MOVLW  01
0D40A:  MOVWF  xD2
....................          if(Integral<1) 
0D40C:  MOVF   xD2,F
0D40E:  BNZ   D414
....................             Integral=40; 
0D410:  MOVLW  28
0D412:  MOVWF  xD2
....................       }else if(Opcion2==4){ 
0D414:  BRA    DA48
0D416:  MOVF   xE9,W
0D418:  SUBLW  04
0D41A:  BTFSS  FD8.2
0D41C:  BRA    D59C
....................          printf("Config.t2c.txt=\"Tciclo\""); 
0D41E:  MOVLW  76
0D420:  MOVWF  FF6
0D422:  MOVLW  1B
0D424:  MOVWF  FF7
0D426:  MOVLW  00
0D428:  MOVWF  FF8
0D42A:  MOVLB  0
0D42C:  CALL   3B38
....................          SendDataDisplay();       
0D430:  CALL   3B6A
....................          printf("t3c.txt=\"%2.0f\"",Tciclo); 
0D434:  MOVLW  8E
0D436:  MOVWF  FF6
0D438:  MOVLW  1B
0D43A:  MOVWF  FF7
0D43C:  MOVLW  00
0D43E:  MOVWF  FF8
0D440:  MOVLW  09
0D442:  MOVLB  6
0D444:  MOVWF  x39
0D446:  MOVLB  0
0D448:  CALL   4B78
0D44C:  MOVLW  01
0D44E:  MOVWF  FE9
0D450:  MOVFF  18D,63C
0D454:  MOVFF  18C,63B
0D458:  MOVFF  18B,63A
0D45C:  MOVFF  18A,639
0D460:  MOVLB  6
0D462:  CLRF   x3D
0D464:  MOVLB  0
0D466:  CALL   4E52
0D46A:  MOVLW  22
0D46C:  BTFSS  F9E.4
0D46E:  BRA    D46C
0D470:  MOVWF  FAD
....................          SendDataDisplay(); 
0D472:  CALL   3B6A
....................          if(RX_Buffer[4]==0x0a || UP){//Tecla Arriba Oprimida 
0D476:  MOVF   34,W
0D478:  SUBLW  0A
0D47A:  BZ    D482
0D47C:  BSF    F93.0
0D47E:  BTFSC  F81.0
0D480:  BRA    D4D2
....................             delay_ms(20); 
0D482:  MOVLW  14
0D484:  MOVLB  6
0D486:  MOVWF  x3D
0D488:  MOVLB  0
0D48A:  CALL   1D06
....................             if(RX_Buffer[4]==0x0a || UP){ 
0D48E:  MOVF   34,W
0D490:  SUBLW  0A
0D492:  BZ    D49A
0D494:  BSF    F93.0
0D496:  BTFSC  F81.0
0D498:  BRA    D4D2
....................                Tciclo+=1.0; 
0D49A:  BCF    FD8.1
0D49C:  MOVFF  18D,649
0D4A0:  MOVFF  18C,648
0D4A4:  MOVFF  18B,647
0D4A8:  MOVFF  18A,646
0D4AC:  MOVLB  6
0D4AE:  CLRF   x4D
0D4B0:  CLRF   x4C
0D4B2:  CLRF   x4B
0D4B4:  MOVLW  7F
0D4B6:  MOVWF  x4A
0D4B8:  MOVLB  0
0D4BA:  CALL   1E8C
0D4BE:  MOVFF  03,18D
0D4C2:  MOVFF  02,18C
0D4C6:  MOVFF  01,18B
0D4CA:  MOVFF  00,18A
....................                RX_Buffer[4]=0x00;   
0D4CE:  CLRF   34
....................                RX_Buffer2[4]=0x00;             
0D4D0:  CLRF   3F
....................                //BorraBuffer(); 
....................             } 
....................          } 
....................              
....................          if(RX_Buffer[4]==0x0b || DOWN){//Tecla Abajo Oprimida 
0D4D2:  MOVF   34,W
0D4D4:  SUBLW  0B
0D4D6:  BZ    D4DE
0D4D8:  BSF    F93.1
0D4DA:  BTFSC  F81.1
0D4DC:  BRA    D52E
....................             delay_ms(20); 
0D4DE:  MOVLW  14
0D4E0:  MOVLB  6
0D4E2:  MOVWF  x3D
0D4E4:  MOVLB  0
0D4E6:  CALL   1D06
....................             if(RX_Buffer[4]==0x0b || DOWN){ 
0D4EA:  MOVF   34,W
0D4EC:  SUBLW  0B
0D4EE:  BZ    D4F6
0D4F0:  BSF    F93.1
0D4F2:  BTFSC  F81.1
0D4F4:  BRA    D52E
....................                Tciclo-=1.0; 
0D4F6:  BSF    FD8.1
0D4F8:  MOVFF  18D,649
0D4FC:  MOVFF  18C,648
0D500:  MOVFF  18B,647
0D504:  MOVFF  18A,646
0D508:  MOVLB  6
0D50A:  CLRF   x4D
0D50C:  CLRF   x4C
0D50E:  CLRF   x4B
0D510:  MOVLW  7F
0D512:  MOVWF  x4A
0D514:  MOVLB  0
0D516:  CALL   1E8C
0D51A:  MOVFF  03,18D
0D51E:  MOVFF  02,18C
0D522:  MOVFF  01,18B
0D526:  MOVFF  00,18A
....................                RX_Buffer[4]=0x00; 
0D52A:  CLRF   34
....................                RX_Buffer2[4]=0x00;             
0D52C:  CLRF   3F
....................                //BorraBuffer(); 
....................             } 
....................          } 
....................           
....................          if(Tciclo>20) 
0D52E:  MOVLB  6
0D530:  CLRF   x3B
0D532:  CLRF   x3A
0D534:  MOVLW  20
0D536:  MOVWF  x39
0D538:  MOVLW  83
0D53A:  MOVWF  x38
0D53C:  MOVFF  18D,63F
0D540:  MOVFF  18C,63E
0D544:  MOVFF  18B,63D
0D548:  MOVFF  18A,63C
0D54C:  MOVLB  0
0D54E:  CALL   2362
0D552:  BNC   D562
....................             Tciclo=5; 
0D554:  MOVLB  1
0D556:  CLRF   x8D
0D558:  CLRF   x8C
0D55A:  MOVLW  20
0D55C:  MOVWF  x8B
0D55E:  MOVLW  81
0D560:  MOVWF  x8A
....................          if(Tciclo<5) 
0D562:  MOVFF  18D,63B
0D566:  MOVFF  18C,63A
0D56A:  MOVFF  18B,639
0D56E:  MOVFF  18A,638
0D572:  MOVLB  6
0D574:  CLRF   x3F
0D576:  CLRF   x3E
0D578:  MOVLW  20
0D57A:  MOVWF  x3D
0D57C:  MOVLW  81
0D57E:  MOVWF  x3C
0D580:  MOVLB  0
0D582:  CALL   2362
0D586:  BNC   D598
....................             Tciclo=20; 
0D588:  MOVLB  1
0D58A:  CLRF   x8D
0D58C:  CLRF   x8C
0D58E:  MOVLW  20
0D590:  MOVWF  x8B
0D592:  MOVLW  83
0D594:  MOVWF  x8A
0D596:  MOVLB  0
....................       }else if(Opcion2==5){ 
0D598:  BRA    DA46
0D59A:  MOVLB  1
0D59C:  MOVF   xE9,W
0D59E:  SUBLW  05
0D5A0:  BNZ   D656
....................          printf("Config.t2c.txt=\"Ajuste +\""); 
0D5A2:  MOVLW  9E
0D5A4:  MOVWF  FF6
0D5A6:  MOVLW  1B
0D5A8:  MOVWF  FF7
0D5AA:  MOVLW  00
0D5AC:  MOVWF  FF8
0D5AE:  MOVLB  0
0D5B0:  CALL   3B38
....................          SendDataDisplay();       
0D5B4:  CALL   3B6A
....................          printf("t3c.txt=\"%u\"",Sensor[0].Ajuste); 
0D5B8:  MOVLW  B8
0D5BA:  MOVWF  FF6
0D5BC:  MOVLW  1B
0D5BE:  MOVWF  FF7
0D5C0:  MOVLW  00
0D5C2:  MOVWF  FF8
0D5C4:  MOVLW  09
0D5C6:  MOVLB  6
0D5C8:  MOVWF  x39
0D5CA:  MOVLB  0
0D5CC:  CALL   4B78
0D5D0:  MOVFF  2C2,639
0D5D4:  MOVLW  1B
0D5D6:  MOVLB  6
0D5D8:  MOVWF  x3A
0D5DA:  MOVLB  0
0D5DC:  CALL   4BFC
0D5E0:  MOVLW  22
0D5E2:  BTFSS  F9E.4
0D5E4:  BRA    D5E2
0D5E6:  MOVWF  FAD
....................          SendDataDisplay(); 
0D5E8:  CALL   3B6A
....................          if(RX_Buffer[4]==0x0a || UP){//Tecla Arriba Oprimida 
0D5EC:  MOVF   34,W
0D5EE:  SUBLW  0A
0D5F0:  BZ    D5F8
0D5F2:  BSF    F93.0
0D5F4:  BTFSC  F81.0
0D5F6:  BRA    D620
....................             delay_ms(20); 
0D5F8:  MOVLW  14
0D5FA:  MOVLB  6
0D5FC:  MOVWF  x3D
0D5FE:  MOVLB  0
0D600:  CALL   1D06
....................             if(RX_Buffer[4]==0x0a || UP){ 
0D604:  MOVF   34,W
0D606:  SUBLW  0A
0D608:  BZ    D610
0D60A:  BSF    F93.0
0D60C:  BTFSC  F81.0
0D60E:  BRA    D620
....................                if(Sensor[0].Ajuste<40) 
0D610:  MOVLB  2
0D612:  MOVF   xC2,W
0D614:  SUBLW  27
0D616:  BNC   D61A
....................                   Sensor[0].Ajuste++; 
0D618:  INCF   xC2,F
....................                RX_Buffer[4]=0x00;   
0D61A:  CLRF   34
....................                RX_Buffer2[4]=0x00;             
0D61C:  CLRF   3F
0D61E:  MOVLB  0
....................                //BorraBuffer(); 
....................             } 
....................          } 
....................              
....................          if(RX_Buffer[4]==0x0b || DOWN){//Tecla Abajo Oprimida 
0D620:  MOVF   34,W
0D622:  SUBLW  0B
0D624:  BZ    D62C
0D626:  BSF    F93.1
0D628:  BTFSC  F81.1
0D62A:  BRA    D652
....................             delay_ms(20); 
0D62C:  MOVLW  14
0D62E:  MOVLB  6
0D630:  MOVWF  x3D
0D632:  MOVLB  0
0D634:  CALL   1D06
....................             if(RX_Buffer[4]==0x0b || DOWN){ 
0D638:  MOVF   34,W
0D63A:  SUBLW  0B
0D63C:  BZ    D644
0D63E:  BSF    F93.1
0D640:  BTFSC  F81.1
0D642:  BRA    D652
....................                if(Sensor[0].Ajuste>0) 
0D644:  MOVLB  2
0D646:  MOVF   xC2,F
0D648:  BZ    D64C
....................                   Sensor[0].Ajuste--; 
0D64A:  DECF   xC2,F
....................                RX_Buffer[4]=0x00; 
0D64C:  CLRF   34
....................                RX_Buffer2[4]=0x00;             
0D64E:  CLRF   3F
0D650:  MOVLB  0
....................                //BorraBuffer(); 
....................             } 
....................          } 
....................       }else if(Opcion2==6){ 
0D652:  BRA    DA46
0D654:  MOVLB  1
0D656:  MOVF   xE9,W
0D658:  SUBLW  06
0D65A:  BNZ   D710
....................          printf("Config.t2c.txt=\"Ajuste -\""); 
0D65C:  MOVLW  C6
0D65E:  MOVWF  FF6
0D660:  MOVLW  1B
0D662:  MOVWF  FF7
0D664:  MOVLW  00
0D666:  MOVWF  FF8
0D668:  MOVLB  0
0D66A:  CALL   3B38
....................          SendDataDisplay();       
0D66E:  CALL   3B6A
....................          printf("t3c.txt=\"%u\"",Sensor[0].Ajusten); 
0D672:  MOVLW  E0
0D674:  MOVWF  FF6
0D676:  MOVLW  1B
0D678:  MOVWF  FF7
0D67A:  MOVLW  00
0D67C:  MOVWF  FF8
0D67E:  MOVLW  09
0D680:  MOVLB  6
0D682:  MOVWF  x39
0D684:  MOVLB  0
0D686:  CALL   4B78
0D68A:  MOVFF  2C3,639
0D68E:  MOVLW  1B
0D690:  MOVLB  6
0D692:  MOVWF  x3A
0D694:  MOVLB  0
0D696:  CALL   4BFC
0D69A:  MOVLW  22
0D69C:  BTFSS  F9E.4
0D69E:  BRA    D69C
0D6A0:  MOVWF  FAD
....................          SendDataDisplay(); 
0D6A2:  CALL   3B6A
....................          if(RX_Buffer[4]==0x0a || UP){//Tecla Arriba Oprimida 
0D6A6:  MOVF   34,W
0D6A8:  SUBLW  0A
0D6AA:  BZ    D6B2
0D6AC:  BSF    F93.0
0D6AE:  BTFSC  F81.0
0D6B0:  BRA    D6DA
....................             delay_ms(20); 
0D6B2:  MOVLW  14
0D6B4:  MOVLB  6
0D6B6:  MOVWF  x3D
0D6B8:  MOVLB  0
0D6BA:  CALL   1D06
....................             if(RX_Buffer[4]==0x0a || UP){ 
0D6BE:  MOVF   34,W
0D6C0:  SUBLW  0A
0D6C2:  BZ    D6CA
0D6C4:  BSF    F93.0
0D6C6:  BTFSC  F81.0
0D6C8:  BRA    D6DA
....................                if(Sensor[0].Ajusten<40) 
0D6CA:  MOVLB  2
0D6CC:  MOVF   xC3,W
0D6CE:  SUBLW  27
0D6D0:  BNC   D6D4
....................                   Sensor[0].Ajusten++; 
0D6D2:  INCF   xC3,F
....................                RX_Buffer[4]=0x00;   
0D6D4:  CLRF   34
....................                RX_Buffer2[4]=0x00;             
0D6D6:  CLRF   3F
0D6D8:  MOVLB  0
....................                //BorraBuffer(); 
....................             } 
....................          } 
....................              
....................          if(RX_Buffer[4]==0x0b || DOWN){//Tecla Abajo Oprimida 
0D6DA:  MOVF   34,W
0D6DC:  SUBLW  0B
0D6DE:  BZ    D6E6
0D6E0:  BSF    F93.1
0D6E2:  BTFSC  F81.1
0D6E4:  BRA    D70C
....................             delay_ms(20); 
0D6E6:  MOVLW  14
0D6E8:  MOVLB  6
0D6EA:  MOVWF  x3D
0D6EC:  MOVLB  0
0D6EE:  CALL   1D06
....................             if(RX_Buffer[4]==0x0b || DOWN){ 
0D6F2:  MOVF   34,W
0D6F4:  SUBLW  0B
0D6F6:  BZ    D6FE
0D6F8:  BSF    F93.1
0D6FA:  BTFSC  F81.1
0D6FC:  BRA    D70C
....................                if(Sensor[0].Ajusten>0) 
0D6FE:  MOVLB  2
0D700:  MOVF   xC3,F
0D702:  BZ    D706
....................                   Sensor[0].Ajusten--; 
0D704:  DECF   xC3,F
....................                RX_Buffer[4]=0x00; 
0D706:  CLRF   34
....................                RX_Buffer2[4]=0x00;             
0D708:  CLRF   3F
0D70A:  MOVLB  0
....................                //BorraBuffer(); 
....................             } 
....................          } 
....................       }else if(Opcion2==7){ 
0D70C:  BRA    DA46
0D70E:  MOVLB  1
0D710:  MOVF   xE9,W
0D712:  SUBLW  07
0D714:  BNZ   D7CC
....................          printf("Config.t2c.txt=\"Media\""); 
0D716:  MOVLW  EE
0D718:  MOVWF  FF6
0D71A:  MOVLW  1B
0D71C:  MOVWF  FF7
0D71E:  MOVLW  00
0D720:  MOVWF  FF8
0D722:  MOVLB  0
0D724:  CALL   3B38
....................          SendDataDisplay();       
0D728:  CALL   3B6A
....................          printf("t3c.txt=\"%u\"",MediaMovil); 
0D72C:  MOVLW  06
0D72E:  MOVWF  FF6
0D730:  MOVLW  1C
0D732:  MOVWF  FF7
0D734:  MOVLW  00
0D736:  MOVWF  FF8
0D738:  MOVLW  09
0D73A:  MOVLB  6
0D73C:  MOVWF  x39
0D73E:  MOVLB  0
0D740:  CALL   4B78
0D744:  MOVFF  17D,639
0D748:  MOVLW  1B
0D74A:  MOVLB  6
0D74C:  MOVWF  x3A
0D74E:  MOVLB  0
0D750:  CALL   4BFC
0D754:  MOVLW  22
0D756:  BTFSS  F9E.4
0D758:  BRA    D756
0D75A:  MOVWF  FAD
....................          SendDataDisplay(); 
0D75C:  CALL   3B6A
....................          if(RX_Buffer[4]==0x0a || UP){//Tecla Arriba Oprimida 
0D760:  MOVF   34,W
0D762:  SUBLW  0A
0D764:  BZ    D76C
0D766:  BSF    F93.0
0D768:  BTFSC  F81.0
0D76A:  BRA    D794
....................             delay_ms(20); 
0D76C:  MOVLW  14
0D76E:  MOVLB  6
0D770:  MOVWF  x3D
0D772:  MOVLB  0
0D774:  CALL   1D06
....................             if(RX_Buffer[4]==0x0a || UP){ 
0D778:  MOVF   34,W
0D77A:  SUBLW  0A
0D77C:  BZ    D784
0D77E:  BSF    F93.0
0D780:  BTFSC  F81.0
0D782:  BRA    D794
....................                if(MediaMovil<80) 
0D784:  MOVLB  1
0D786:  MOVF   x7D,W
0D788:  SUBLW  4F
0D78A:  BNC   D78E
....................                   MediaMovil++; 
0D78C:  INCF   x7D,F
....................                RX_Buffer[4]=0x00;   
0D78E:  CLRF   34
....................                RX_Buffer2[4]=0x00;             
0D790:  CLRF   3F
0D792:  MOVLB  0
....................                //BorraBuffer(); 
....................             } 
....................          } 
....................              
....................          if(RX_Buffer[4]==0x0b || DOWN){//Tecla Abajo Oprimida 
0D794:  MOVF   34,W
0D796:  SUBLW  0B
0D798:  BZ    D7A0
0D79A:  BSF    F93.1
0D79C:  BTFSC  F81.1
0D79E:  BRA    D7C8
....................             delay_ms(20); 
0D7A0:  MOVLW  14
0D7A2:  MOVLB  6
0D7A4:  MOVWF  x3D
0D7A6:  MOVLB  0
0D7A8:  CALL   1D06
....................             if(RX_Buffer[4]==0x0b || DOWN){ 
0D7AC:  MOVF   34,W
0D7AE:  SUBLW  0B
0D7B0:  BZ    D7B8
0D7B2:  BSF    F93.1
0D7B4:  BTFSC  F81.1
0D7B6:  BRA    D7C8
....................                if(MediaMovil>10) 
0D7B8:  MOVLB  1
0D7BA:  MOVF   x7D,W
0D7BC:  SUBLW  0A
0D7BE:  BC    D7C2
....................                   MediaMovil--; 
0D7C0:  DECF   x7D,F
....................                RX_Buffer[4]=0x00; 
0D7C2:  CLRF   34
....................                RX_Buffer2[4]=0x00;             
0D7C4:  CLRF   3F
0D7C6:  MOVLB  0
....................                //BorraBuffer(); 
....................             } 
....................          } 
....................       }else if(Opcion2==8){ 
0D7C8:  BRA    DA46
0D7CA:  MOVLB  1
0D7CC:  MOVF   xE9,W
0D7CE:  SUBLW  08
0D7D0:  BTFSS  FD8.2
0D7D2:  BRA    D93A
....................          printf("Config.t2c.txt=\"RPT100B\""); 
0D7D4:  MOVLW  14
0D7D6:  MOVWF  FF6
0D7D8:  MOVLW  1C
0D7DA:  MOVWF  FF7
0D7DC:  MOVLW  00
0D7DE:  MOVWF  FF8
0D7E0:  MOVLB  0
0D7E2:  CALL   3B38
....................          SendDataDisplay();       
0D7E6:  CALL   3B6A
....................          printf("t3c.txt=\"%2.1f\"",Sensor[0].RPT100); 
0D7EA:  MOVLW  2E
0D7EC:  MOVWF  FF6
0D7EE:  MOVLW  1C
0D7F0:  MOVWF  FF7
0D7F2:  MOVLW  00
0D7F4:  MOVWF  FF8
0D7F6:  MOVLW  09
0D7F8:  MOVLB  6
0D7FA:  MOVWF  x39
0D7FC:  MOVLB  0
0D7FE:  CALL   4B78
0D802:  MOVLW  01
0D804:  MOVWF  FE9
0D806:  MOVFF  2B7,63C
0D80A:  MOVFF  2B6,63B
0D80E:  MOVFF  2B5,63A
0D812:  MOVFF  2B4,639
0D816:  MOVLB  6
0D818:  MOVWF  x3D
0D81A:  MOVLB  0
0D81C:  CALL   4E52
0D820:  MOVLW  22
0D822:  BTFSS  F9E.4
0D824:  BRA    D822
0D826:  MOVWF  FAD
....................          SendDataDisplay(); 
0D828:  CALL   3B6A
....................          if(RX_Buffer[4]==0x0a || UP){//Tecla Arriba Oprimida 
0D82C:  MOVF   34,W
0D82E:  SUBLW  0A
0D830:  BZ    D838
0D832:  BSF    F93.0
0D834:  BTFSC  F81.0
0D836:  BRA    D8B2
....................             delay_ms(20); 
0D838:  MOVLW  14
0D83A:  MOVLB  6
0D83C:  MOVWF  x3D
0D83E:  MOVLB  0
0D840:  CALL   1D06
....................             if(RX_Buffer[4]==0x0a || UP){ 
0D844:  MOVF   34,W
0D846:  SUBLW  0A
0D848:  BZ    D850
0D84A:  BSF    F93.0
0D84C:  BTFSC  F81.0
0D84E:  BRA    D8B2
....................                if(Sensor[0].RPT100<2.0) 
0D850:  MOVFF  2B7,63B
0D854:  MOVFF  2B6,63A
0D858:  MOVFF  2B5,639
0D85C:  MOVFF  2B4,638
0D860:  MOVLB  6
0D862:  CLRF   x3F
0D864:  CLRF   x3E
0D866:  CLRF   x3D
0D868:  MOVLW  80
0D86A:  MOVWF  x3C
0D86C:  MOVLB  0
0D86E:  CALL   2362
0D872:  BNC   D8AE
....................                   Sensor[0].RPT100+=0.1; 
0D874:  BCF    FD8.1
0D876:  MOVFF  2B7,649
0D87A:  MOVFF  2B6,648
0D87E:  MOVFF  2B5,647
0D882:  MOVFF  2B4,646
0D886:  MOVLW  CD
0D888:  MOVLB  6
0D88A:  MOVWF  x4D
0D88C:  MOVLW  CC
0D88E:  MOVWF  x4C
0D890:  MOVLW  4C
0D892:  MOVWF  x4B
0D894:  MOVLW  7B
0D896:  MOVWF  x4A
0D898:  MOVLB  0
0D89A:  CALL   1E8C
0D89E:  MOVFF  03,2B7
0D8A2:  MOVFF  02,2B6
0D8A6:  MOVFF  01,2B5
0D8AA:  MOVFF  00,2B4
....................                RX_Buffer[4]=0x00;   
0D8AE:  CLRF   34
....................                RX_Buffer2[4]=0x00;             
0D8B0:  CLRF   3F
....................                //BorraBuffer(); 
....................             } 
....................          } 
....................              
....................          if(RX_Buffer[4]==0x0b || DOWN){//Tecla Abajo Oprimida 
0D8B2:  MOVF   34,W
0D8B4:  SUBLW  0B
0D8B6:  BZ    D8BE
0D8B8:  BSF    F93.1
0D8BA:  BTFSC  F81.1
0D8BC:  BRA    D936
....................             delay_ms(20); 
0D8BE:  MOVLW  14
0D8C0:  MOVLB  6
0D8C2:  MOVWF  x3D
0D8C4:  MOVLB  0
0D8C6:  CALL   1D06
....................             if(RX_Buffer[4]==0x0b || DOWN){ 
0D8CA:  MOVF   34,W
0D8CC:  SUBLW  0B
0D8CE:  BZ    D8D6
0D8D0:  BSF    F93.1
0D8D2:  BTFSC  F81.1
0D8D4:  BRA    D936
....................                if(Sensor[0].RPT100>0.0) 
0D8D6:  MOVLB  6
0D8D8:  CLRF   x3B
0D8DA:  CLRF   x3A
0D8DC:  CLRF   x39
0D8DE:  CLRF   x38
0D8E0:  MOVFF  2B7,63F
0D8E4:  MOVFF  2B6,63E
0D8E8:  MOVFF  2B5,63D
0D8EC:  MOVFF  2B4,63C
0D8F0:  MOVLB  0
0D8F2:  CALL   2362
0D8F6:  BNC   D932
....................                   Sensor[0].RPT100-=0.1; 
0D8F8:  BSF    FD8.1
0D8FA:  MOVFF  2B7,649
0D8FE:  MOVFF  2B6,648
0D902:  MOVFF  2B5,647
0D906:  MOVFF  2B4,646
0D90A:  MOVLW  CD
0D90C:  MOVLB  6
0D90E:  MOVWF  x4D
0D910:  MOVLW  CC
0D912:  MOVWF  x4C
0D914:  MOVLW  4C
0D916:  MOVWF  x4B
0D918:  MOVLW  7B
0D91A:  MOVWF  x4A
0D91C:  MOVLB  0
0D91E:  CALL   1E8C
0D922:  MOVFF  03,2B7
0D926:  MOVFF  02,2B6
0D92A:  MOVFF  01,2B5
0D92E:  MOVFF  00,2B4
....................                RX_Buffer[4]=0x00; 
0D932:  CLRF   34
....................                RX_Buffer2[4]=0x00;             
0D934:  CLRF   3F
....................                //BorraBuffer(); 
....................             } 
....................          } 
....................       }else if(Opcion2==9){ 
0D936:  BRA    DA46
0D938:  MOVLB  1
0D93A:  MOVF   xE9,W
0D93C:  SUBLW  09
0D93E:  BNZ   D9F6
....................          printf("Config.t2c.txt=\"TTrampa\""); 
0D940:  MOVLW  3E
0D942:  MOVWF  FF6
0D944:  MOVLW  1C
0D946:  MOVWF  FF7
0D948:  MOVLW  00
0D94A:  MOVWF  FF8
0D94C:  MOVLB  0
0D94E:  CALL   3B38
....................          SendDataDisplay();       
0D952:  CALL   3B6A
....................          printf("t3c.txt=\"%02u\"",TTrampa); 
0D956:  MOVLW  58
0D958:  MOVWF  FF6
0D95A:  MOVLW  1C
0D95C:  MOVWF  FF7
0D95E:  MOVLW  00
0D960:  MOVWF  FF8
0D962:  MOVLW  09
0D964:  MOVLB  6
0D966:  MOVWF  x39
0D968:  MOVLB  0
0D96A:  CALL   4B78
0D96E:  MOVFF  181,639
0D972:  MOVLW  01
0D974:  MOVLB  6
0D976:  MOVWF  x3A
0D978:  MOVLB  0
0D97A:  CALL   4BFC
0D97E:  MOVLW  22
0D980:  BTFSS  F9E.4
0D982:  BRA    D980
0D984:  MOVWF  FAD
....................          SendDataDisplay(); 
0D986:  CALL   3B6A
....................          if(RX_Buffer[4]==0x0a || UP){//Tecla Arriba Oprimida 
0D98A:  MOVF   34,W
0D98C:  SUBLW  0A
0D98E:  BZ    D996
0D990:  BSF    F93.0
0D992:  BTFSC  F81.0
0D994:  BRA    D9BE
....................             delay_ms(20); 
0D996:  MOVLW  14
0D998:  MOVLB  6
0D99A:  MOVWF  x3D
0D99C:  MOVLB  0
0D99E:  CALL   1D06
....................             if(RX_Buffer[4]==0x0a || UP){ 
0D9A2:  MOVF   34,W
0D9A4:  SUBLW  0A
0D9A6:  BZ    D9AE
0D9A8:  BSF    F93.0
0D9AA:  BTFSC  F81.0
0D9AC:  BRA    D9BE
....................                if(TTrampa<100) 
0D9AE:  MOVLB  1
0D9B0:  MOVF   x81,W
0D9B2:  SUBLW  63
0D9B4:  BNC   D9B8
....................                   TTrampa++; 
0D9B6:  INCF   x81,F
....................                RX_Buffer[4]=0x00;   
0D9B8:  CLRF   34
....................                RX_Buffer2[4]=0x00;             
0D9BA:  CLRF   3F
0D9BC:  MOVLB  0
....................                //BorraBuffer(); 
....................             } 
....................          } 
....................              
....................          if(RX_Buffer[4]==0x0b || DOWN){//Tecla Abajo Oprimida 
0D9BE:  MOVF   34,W
0D9C0:  SUBLW  0B
0D9C2:  BZ    D9CA
0D9C4:  BSF    F93.1
0D9C6:  BTFSC  F81.1
0D9C8:  BRA    D9F2
....................             delay_ms(20); 
0D9CA:  MOVLW  14
0D9CC:  MOVLB  6
0D9CE:  MOVWF  x3D
0D9D0:  MOVLB  0
0D9D2:  CALL   1D06
....................             if(RX_Buffer[4]==0x0b || DOWN){ 
0D9D6:  MOVF   34,W
0D9D8:  SUBLW  0B
0D9DA:  BZ    D9E2
0D9DC:  BSF    F93.1
0D9DE:  BTFSC  F81.1
0D9E0:  BRA    D9F2
....................                if(TTrampa>50) 
0D9E2:  MOVLB  1
0D9E4:  MOVF   x81,W
0D9E6:  SUBLW  32
0D9E8:  BC    D9EC
....................                   TTrampa--; 
0D9EA:  DECF   x81,F
....................                RX_Buffer[4]=0x00; 
0D9EC:  CLRF   34
....................                RX_Buffer2[4]=0x00;             
0D9EE:  CLRF   3F
0D9F0:  MOVLB  0
....................                //BorraBuffer(); 
....................             } 
....................          } 
....................       }else if(Opcion2==10){ 
0D9F2:  BRA    DA46
0D9F4:  MOVLB  1
0D9F6:  MOVF   xE9,W
0D9F8:  SUBLW  0A
0D9FA:  BNZ   DA48
....................          printf("Config.t2c.txt=\"Ciclos\""); 
0D9FC:  MOVLW  68
0D9FE:  MOVWF  FF6
0DA00:  MOVLW  1C
0DA02:  MOVWF  FF7
0DA04:  MOVLW  00
0DA06:  MOVWF  FF8
0DA08:  MOVLB  0
0DA0A:  CALL   3B38
....................          SendDataDisplay();       
0DA0E:  CALL   3B6A
....................          printf("t3c.txt=\"%03Lu\"",Ciclos); 
0DA12:  MOVLW  80
0DA14:  MOVWF  FF6
0DA16:  MOVLW  1C
0DA18:  MOVWF  FF7
0DA1A:  MOVLW  00
0DA1C:  MOVWF  FF8
0DA1E:  MOVLW  09
0DA20:  MOVLB  6
0DA22:  MOVWF  x39
0DA24:  MOVLB  0
0DA26:  CALL   4B78
0DA2A:  MOVLW  0A
0DA2C:  MOVWF  FE9
0DA2E:  MOVFF  1FE,639
0DA32:  MOVFF  1FD,638
0DA36:  CALL   4CE4
0DA3A:  MOVLW  22
0DA3C:  BTFSS  F9E.4
0DA3E:  BRA    DA3C
0DA40:  MOVWF  FAD
....................          SendDataDisplay(); 
0DA42:  CALL   3B6A
0DA46:  MOVLB  1
....................       } 
....................        
....................       if(RX_Buffer[4]==0x0c || LEFT){//Tecla Izquierda Oprimida 
0DA48:  MOVF   34,W
0DA4A:  SUBLW  0C
0DA4C:  BZ    DA54
0DA4E:  BSF    F93.3
0DA50:  BTFSC  F81.3
0DA52:  BRA    DA74
....................          delay_ms(20); 
0DA54:  MOVLW  14
0DA56:  MOVLB  6
0DA58:  MOVWF  x3D
0DA5A:  MOVLB  0
0DA5C:  CALL   1D06
....................          if(RX_Buffer[4]==0x0c || LEFT){ 
0DA60:  MOVF   34,W
0DA62:  SUBLW  0C
0DA64:  BZ    DA6C
0DA66:  BSF    F93.3
0DA68:  BTFSC  F81.3
0DA6A:  BRA    DA76
....................             Opcion2++; 
0DA6C:  MOVLB  1
0DA6E:  INCF   xE9,F
....................             RX_Buffer[4]=0x00;   
0DA70:  CLRF   34
....................             RX_Buffer2[4]=0x00;             
0DA72:  CLRF   3F
0DA74:  MOVLB  0
....................             //BorraBuffer(); 
....................          } 
....................       } 
....................           
....................       if(RX_Buffer[4]==0x0d || RIGHT){//Tecla Derecha Oprimida 
0DA76:  MOVF   34,W
0DA78:  SUBLW  0D
0DA7A:  BZ    DA82
0DA7C:  BSF    F93.2
0DA7E:  BTFSC  F81.2
0DA80:  BRA    DAA4
....................          delay_ms(20); 
0DA82:  MOVLW  14
0DA84:  MOVLB  6
0DA86:  MOVWF  x3D
0DA88:  MOVLB  0
0DA8A:  CALL   1D06
....................          if(RX_Buffer[4]==0x0d || RIGHT){ 
0DA8E:  MOVF   34,W
0DA90:  SUBLW  0D
0DA92:  BZ    DA9A
0DA94:  BSF    F93.2
0DA96:  BTFSC  F81.2
0DA98:  BRA    DAA4
....................             Opcion2--; 
0DA9A:  MOVLB  1
0DA9C:  DECF   xE9,F
....................             RX_Buffer[4]=0x00; 
0DA9E:  CLRF   34
....................             RX_Buffer2[4]=0x00;             
0DAA0:  CLRF   3F
0DAA2:  MOVLB  0
....................             //BorraBuffer(); 
....................          } 
....................       } 
....................        
....................       if(RX_Buffer[4]==0x11 || (RIGHT && LEFT)){//Tecla Regresar 
0DAA4:  MOVF   34,W
0DAA6:  SUBLW  11
0DAA8:  BZ    DAB6
0DAAA:  BSF    F93.2
0DAAC:  BTFSC  F81.2
0DAAE:  BRA    DE1E
0DAB0:  BSF    F93.3
0DAB2:  BTFSC  F81.3
0DAB4:  BRA    DE1E
....................          delay_ms(20); 
0DAB6:  MOVLW  14
0DAB8:  MOVLB  6
0DABA:  MOVWF  x3D
0DABC:  MOVLB  0
0DABE:  CALL   1D06
....................          if(RX_Buffer[4]==0x11 || (RIGHT && LEFT)){ 
0DAC2:  MOVF   34,W
0DAC4:  SUBLW  11
0DAC6:  BZ    DAD4
0DAC8:  BSF    F93.2
0DACA:  BTFSC  F81.2
0DACC:  BRA    DE1E
0DACE:  BSF    F93.3
0DAD0:  BTFSC  F81.3
0DAD2:  BRA    DE1E
....................             if(!GuardaEEPROM){ 
0DAD4:  BTFSC  x89.5
0DAD6:  BRA    DE0A
....................                write_eeprom(20,(int8)Ganancia); 
0DAD8:  MOVFF  1A5,649
0DADC:  MOVFF  1A4,648
0DAE0:  MOVFF  1A3,647
0DAE4:  MOVFF  1A2,646
0DAE8:  CALL   4A58
0DAEC:  MOVFF  01,634
0DAF0:  CLRF   FAA
0DAF2:  MOVLW  14
0DAF4:  MOVWF  FA9
0DAF6:  MOVFF  634,FA8
0DAFA:  BCF    FA6.6
0DAFC:  BCF    FA6.7
0DAFE:  BSF    FA6.2
0DB00:  MOVF   FF2,W
0DB02:  MOVWF  00
0DB04:  BCF    FF2.6
0DB06:  BCF    FF2.7
0DB08:  MOVLB  F
0DB0A:  MOVLW  55
0DB0C:  MOVWF  FA7
0DB0E:  MOVLW  AA
0DB10:  MOVWF  FA7
0DB12:  BSF    FA6.1
0DB14:  BTFSC  FA6.1
0DB16:  BRA    DB14
0DB18:  BCF    FA6.2
0DB1A:  MOVF   00,W
0DB1C:  IORWF  FF2,F
....................                delay_ms(10); 
0DB1E:  MOVLW  0A
0DB20:  MOVLB  6
0DB22:  MOVWF  x3D
0DB24:  MOVLB  0
0DB26:  CALL   1D06
....................                write_eeprom(26,(int8)Integral); 
0DB2A:  CLRF   FAA
0DB2C:  MOVLW  1A
0DB2E:  MOVWF  FA9
0DB30:  MOVFF  1D2,FA8
0DB34:  BCF    FA6.6
0DB36:  BCF    FA6.7
0DB38:  BSF    FA6.2
0DB3A:  MOVF   FF2,W
0DB3C:  MOVWF  00
0DB3E:  BCF    FF2.6
0DB40:  BCF    FF2.7
0DB42:  MOVLB  F
0DB44:  MOVLW  55
0DB46:  MOVWF  FA7
0DB48:  MOVLW  AA
0DB4A:  MOVWF  FA7
0DB4C:  BSF    FA6.1
0DB4E:  BTFSC  FA6.1
0DB50:  BRA    DB4E
0DB52:  BCF    FA6.2
0DB54:  MOVF   00,W
0DB56:  IORWF  FF2,F
....................                delay_ms(10); 
0DB58:  MOVLW  0A
0DB5A:  MOVLB  6
0DB5C:  MOVWF  x3D
0DB5E:  MOVLB  0
0DB60:  CALL   1D06
....................                write_eeprom(27,(int8)Derivativo); 
0DB64:  CLRF   FAA
0DB66:  MOVLW  1B
0DB68:  MOVWF  FA9
0DB6A:  MOVFF  1D3,FA8
0DB6E:  BCF    FA6.6
0DB70:  BCF    FA6.7
0DB72:  BSF    FA6.2
0DB74:  MOVF   FF2,W
0DB76:  MOVWF  00
0DB78:  BCF    FF2.6
0DB7A:  BCF    FF2.7
0DB7C:  MOVLB  F
0DB7E:  MOVLW  55
0DB80:  MOVWF  FA7
0DB82:  MOVLW  AA
0DB84:  MOVWF  FA7
0DB86:  BSF    FA6.1
0DB88:  BTFSC  FA6.1
0DB8A:  BRA    DB88
0DB8C:  BCF    FA6.2
0DB8E:  MOVF   00,W
0DB90:  IORWF  FF2,F
....................                delay_ms(10); 
0DB92:  MOVLW  0A
0DB94:  MOVLB  6
0DB96:  MOVWF  x3D
0DB98:  MOVLB  0
0DB9A:  CALL   1D06
....................                write_eeprom(25,(int8)Tciclo); 
0DB9E:  MOVFF  18D,649
0DBA2:  MOVFF  18C,648
0DBA6:  MOVFF  18B,647
0DBAA:  MOVFF  18A,646
0DBAE:  CALL   4A58
0DBB2:  MOVFF  01,634
0DBB6:  CLRF   FAA
0DBB8:  MOVLW  19
0DBBA:  MOVWF  FA9
0DBBC:  MOVFF  634,FA8
0DBC0:  BCF    FA6.6
0DBC2:  BCF    FA6.7
0DBC4:  BSF    FA6.2
0DBC6:  MOVF   FF2,W
0DBC8:  MOVWF  00
0DBCA:  BCF    FF2.6
0DBCC:  BCF    FF2.7
0DBCE:  MOVLB  F
0DBD0:  MOVLW  55
0DBD2:  MOVWF  FA7
0DBD4:  MOVLW  AA
0DBD6:  MOVWF  FA7
0DBD8:  BSF    FA6.1
0DBDA:  BTFSC  FA6.1
0DBDC:  BRA    DBDA
0DBDE:  BCF    FA6.2
0DBE0:  MOVF   00,W
0DBE2:  IORWF  FF2,F
....................                delay_ms(10); 
0DBE4:  MOVLW  0A
0DBE6:  MOVLB  6
0DBE8:  MOVWF  x3D
0DBEA:  MOVLB  0
0DBEC:  CALL   1D06
....................                write_eeprom(21,Sensor[0].Ajuste); 
0DBF0:  CLRF   FAA
0DBF2:  MOVLW  15
0DBF4:  MOVWF  FA9
0DBF6:  MOVFF  2C2,FA8
0DBFA:  BCF    FA6.6
0DBFC:  BCF    FA6.7
0DBFE:  BSF    FA6.2
0DC00:  MOVF   FF2,W
0DC02:  MOVWF  00
0DC04:  BCF    FF2.6
0DC06:  BCF    FF2.7
0DC08:  MOVLB  F
0DC0A:  MOVLW  55
0DC0C:  MOVWF  FA7
0DC0E:  MOVLW  AA
0DC10:  MOVWF  FA7
0DC12:  BSF    FA6.1
0DC14:  BTFSC  FA6.1
0DC16:  BRA    DC14
0DC18:  BCF    FA6.2
0DC1A:  MOVF   00,W
0DC1C:  IORWF  FF2,F
....................                delay_ms(10); 
0DC1E:  MOVLW  0A
0DC20:  MOVLB  6
0DC22:  MOVWF  x3D
0DC24:  MOVLB  0
0DC26:  CALL   1D06
....................                write_eeprom(22,Sensor[0].Ajusten); 
0DC2A:  CLRF   FAA
0DC2C:  MOVLW  16
0DC2E:  MOVWF  FA9
0DC30:  MOVFF  2C3,FA8
0DC34:  BCF    FA6.6
0DC36:  BCF    FA6.7
0DC38:  BSF    FA6.2
0DC3A:  MOVF   FF2,W
0DC3C:  MOVWF  00
0DC3E:  BCF    FF2.6
0DC40:  BCF    FF2.7
0DC42:  MOVLB  F
0DC44:  MOVLW  55
0DC46:  MOVWF  FA7
0DC48:  MOVLW  AA
0DC4A:  MOVWF  FA7
0DC4C:  BSF    FA6.1
0DC4E:  BTFSC  FA6.1
0DC50:  BRA    DC4E
0DC52:  BCF    FA6.2
0DC54:  MOVF   00,W
0DC56:  IORWF  FF2,F
....................                delay_ms(10); 
0DC58:  MOVLW  0A
0DC5A:  MOVLB  6
0DC5C:  MOVWF  x3D
0DC5E:  MOVLB  0
0DC60:  CALL   1D06
....................                write_eeprom(24,(int8)MediaMovil); 
0DC64:  CLRF   FAA
0DC66:  MOVLW  18
0DC68:  MOVWF  FA9
0DC6A:  MOVFF  17D,FA8
0DC6E:  BCF    FA6.6
0DC70:  BCF    FA6.7
0DC72:  BSF    FA6.2
0DC74:  MOVF   FF2,W
0DC76:  MOVWF  00
0DC78:  BCF    FF2.6
0DC7A:  BCF    FF2.7
0DC7C:  MOVLB  F
0DC7E:  MOVLW  55
0DC80:  MOVWF  FA7
0DC82:  MOVLW  AA
0DC84:  MOVWF  FA7
0DC86:  BSF    FA6.1
0DC88:  BTFSC  FA6.1
0DC8A:  BRA    DC88
0DC8C:  BCF    FA6.2
0DC8E:  MOVF   00,W
0DC90:  IORWF  FF2,F
....................                delay_ms(10); 
0DC92:  MOVLW  0A
0DC94:  MOVLB  6
0DC96:  MOVWF  x3D
0DC98:  MOVLB  0
0DC9A:  CALL   1D06
....................                write_eeprom(32,(int8)Sensor[0].RPT100); 
0DC9E:  MOVFF  2B7,649
0DCA2:  MOVFF  2B6,648
0DCA6:  MOVFF  2B5,647
0DCAA:  MOVFF  2B4,646
0DCAE:  CALL   4A58
0DCB2:  MOVFF  01,634
0DCB6:  CLRF   FAA
0DCB8:  MOVLW  20
0DCBA:  MOVWF  FA9
0DCBC:  MOVFF  634,FA8
0DCC0:  BCF    FA6.6
0DCC2:  BCF    FA6.7
0DCC4:  BSF    FA6.2
0DCC6:  MOVF   FF2,W
0DCC8:  MOVWF  00
0DCCA:  BCF    FF2.6
0DCCC:  BCF    FF2.7
0DCCE:  MOVLB  F
0DCD0:  MOVLW  55
0DCD2:  MOVWF  FA7
0DCD4:  MOVLW  AA
0DCD6:  MOVWF  FA7
0DCD8:  BSF    FA6.1
0DCDA:  BTFSC  FA6.1
0DCDC:  BRA    DCDA
0DCDE:  BCF    FA6.2
0DCE0:  MOVF   00,W
0DCE2:  IORWF  FF2,F
....................                delay_ms(10); 
0DCE4:  MOVLW  0A
0DCE6:  MOVLB  6
0DCE8:  MOVWF  x3D
0DCEA:  MOVLB  0
0DCEC:  CALL   1D06
....................                Temporal=Sensor[0].RPT100-((int8)Sensor[0].RPT100); 
0DCF0:  MOVFF  2B7,649
0DCF4:  MOVFF  2B6,648
0DCF8:  MOVFF  2B5,647
0DCFC:  MOVFF  2B4,646
0DD00:  CALL   4A58
0DD04:  MOVLB  6
0DD06:  CLRF   x47
0DD08:  MOVFF  01,646
0DD0C:  MOVLB  0
0DD0E:  CALL   1CD0
0DD12:  BSF    FD8.1
0DD14:  MOVFF  2B7,649
0DD18:  MOVFF  2B6,648
0DD1C:  MOVFF  2B5,647
0DD20:  MOVFF  2B4,646
0DD24:  MOVFF  03,64D
0DD28:  MOVFF  02,64C
0DD2C:  MOVFF  01,64B
0DD30:  MOVFF  00,64A
0DD34:  CALL   1E8C
0DD38:  MOVFF  03,14A
0DD3C:  MOVFF  02,149
0DD40:  MOVFF  01,148
0DD44:  MOVFF  00,147
....................                Temporal=Temporal*10; 
0DD48:  MOVFF  14A,64D
0DD4C:  MOVFF  149,64C
0DD50:  MOVFF  148,64B
0DD54:  MOVFF  147,64A
0DD58:  MOVLB  6
0DD5A:  CLRF   x51
0DD5C:  CLRF   x50
0DD5E:  MOVLW  20
0DD60:  MOVWF  x4F
0DD62:  MOVLW  82
0DD64:  MOVWF  x4E
0DD66:  MOVLB  0
0DD68:  CALL   3BBC
0DD6C:  MOVFF  03,14A
0DD70:  MOVFF  02,149
0DD74:  MOVFF  01,148
0DD78:  MOVFF  00,147
....................                write_eeprom(33,(int8)Temporal); 
0DD7C:  MOVFF  14A,649
0DD80:  MOVFF  149,648
0DD84:  MOVFF  148,647
0DD88:  MOVFF  147,646
0DD8C:  CALL   4A58
0DD90:  MOVFF  01,634
0DD94:  CLRF   FAA
0DD96:  MOVLW  21
0DD98:  MOVWF  FA9
0DD9A:  MOVFF  634,FA8
0DD9E:  BCF    FA6.6
0DDA0:  BCF    FA6.7
0DDA2:  BSF    FA6.2
0DDA4:  MOVF   FF2,W
0DDA6:  MOVWF  00
0DDA8:  BCF    FF2.6
0DDAA:  BCF    FF2.7
0DDAC:  MOVLB  F
0DDAE:  MOVLW  55
0DDB0:  MOVWF  FA7
0DDB2:  MOVLW  AA
0DDB4:  MOVWF  FA7
0DDB6:  BSF    FA6.1
0DDB8:  BTFSC  FA6.1
0DDBA:  BRA    DDB8
0DDBC:  BCF    FA6.2
0DDBE:  MOVF   00,W
0DDC0:  IORWF  FF2,F
....................                delay_ms(10); 
0DDC2:  MOVLW  0A
0DDC4:  MOVLB  6
0DDC6:  MOVWF  x3D
0DDC8:  MOVLB  0
0DDCA:  CALL   1D06
....................                write_eeprom(39,TTrampa); 
0DDCE:  CLRF   FAA
0DDD0:  MOVLW  27
0DDD2:  MOVWF  FA9
0DDD4:  MOVFF  181,FA8
0DDD8:  BCF    FA6.6
0DDDA:  BCF    FA6.7
0DDDC:  BSF    FA6.2
0DDDE:  MOVF   FF2,W
0DDE0:  MOVWF  00
0DDE2:  BCF    FF2.6
0DDE4:  BCF    FF2.7
0DDE6:  MOVLB  F
0DDE8:  MOVLW  55
0DDEA:  MOVWF  FA7
0DDEC:  MOVLW  AA
0DDEE:  MOVWF  FA7
0DDF0:  BSF    FA6.1
0DDF2:  BTFSC  FA6.1
0DDF4:  BRA    DDF2
0DDF6:  BCF    FA6.2
0DDF8:  MOVF   00,W
0DDFA:  IORWF  FF2,F
....................                delay_ms(10); 
0DDFC:  MOVLW  0A
0DDFE:  MOVLB  6
0DE00:  MOVWF  x3D
0DE02:  MOVLB  0
0DE04:  CALL   1D06
....................                GuardaEEPROM=ON; 
0DE08:  BSF    x89.5
....................             } 
....................             printf("page Menu"); 
0DE0A:  MOVLW  90
0DE0C:  MOVWF  FF6
0DE0E:  MOVLW  1C
0DE10:  MOVWF  FF7
0DE12:  MOVLW  00
0DE14:  MOVWF  FF8
0DE16:  CALL   3B38
....................             SendDataDisplay(); 
0DE1A:  CALL   3B6A
....................             //BorraBuffer(); 
....................          } 
....................       } 
....................       printf("fecha.txt=\"Fecha:%02u/%02u/20%02u    Hora: %02u:%02u\"",Dia,Mes,Year,Hora,Minuto); 
0DE1E:  MOVLW  9A
0DE20:  MOVWF  FF6
0DE22:  MOVLW  1C
0DE24:  MOVWF  FF7
0DE26:  MOVLW  00
0DE28:  MOVWF  FF8
0DE2A:  MOVLW  11
0DE2C:  MOVLB  6
0DE2E:  MOVWF  x39
0DE30:  MOVLB  0
0DE32:  CALL   4B78
0DE36:  MOVFF  21D,639
0DE3A:  MOVLW  01
0DE3C:  MOVLB  6
0DE3E:  MOVWF  x3A
0DE40:  MOVLB  0
0DE42:  CALL   4BFC
0DE46:  MOVLW  2F
0DE48:  BTFSS  F9E.4
0DE4A:  BRA    DE48
0DE4C:  MOVWF  FAD
0DE4E:  MOVFF  21C,639
0DE52:  MOVLW  01
0DE54:  MOVLB  6
0DE56:  MOVWF  x3A
0DE58:  MOVLB  0
0DE5A:  CALL   4BFC
0DE5E:  MOVLW  2F
0DE60:  BTFSS  F9E.4
0DE62:  BRA    DE60
0DE64:  MOVWF  FAD
0DE66:  MOVLW  32
0DE68:  BTFSS  F9E.4
0DE6A:  BRA    DE68
0DE6C:  MOVWF  FAD
0DE6E:  MOVLW  30
0DE70:  BTFSS  F9E.4
0DE72:  BRA    DE70
0DE74:  MOVWF  FAD
0DE76:  MOVFF  21B,639
0DE7A:  MOVLW  01
0DE7C:  MOVLB  6
0DE7E:  MOVWF  x3A
0DE80:  MOVLB  0
0DE82:  CALL   4BFC
0DE86:  MOVLW  BB
0DE88:  MOVWF  FF6
0DE8A:  MOVLW  1C
0DE8C:  MOVWF  FF7
0DE8E:  MOVLW  00
0DE90:  MOVWF  FF8
0DE92:  MOVLW  0A
0DE94:  MOVLB  6
0DE96:  MOVWF  x39
0DE98:  MOVLB  0
0DE9A:  CALL   4B78
0DE9E:  MOVFF  21E,639
0DEA2:  MOVLW  01
0DEA4:  MOVLB  6
0DEA6:  MOVWF  x3A
0DEA8:  MOVLB  0
0DEAA:  CALL   4BFC
0DEAE:  MOVLW  3A
0DEB0:  BTFSS  F9E.4
0DEB2:  BRA    DEB0
0DEB4:  MOVWF  FAD
0DEB6:  MOVFF  21F,639
0DEBA:  MOVLW  01
0DEBC:  MOVLB  6
0DEBE:  MOVWF  x3A
0DEC0:  MOVLB  0
0DEC2:  CALL   4BFC
0DEC6:  MOVLW  22
0DEC8:  BTFSS  F9E.4
0DECA:  BRA    DEC8
0DECC:  MOVWF  FAD
....................       SendDataDisplay();  
0DECE:  CALL   3B6A
0DED2:  MOVLB  1
....................     } 
.................... //_--------------------------------------------------------------------------------------------------------------------------------------------------------        
....................  
....................    } 
0DED4:  GOTO   6F30
.................... } 
0DED8:  SLEEP 

Configuration Fuses:
   Word  1: 0200   HS NOIESO NOFCMEN
   Word  2: 1B1F   BROWNOUT WDT BORV20 NOPUT WDT8192
   Word  3: 0000   NOPBADEN NOLPT1OSC NOMCLR
   Word  4: 00B0   NOSTVREN NODEBUG NOLVP NOXINST BBSIZ4K
   Word  5: C03F   NOPROTECT NOCPD NOCPB
   Word  6: E03F   NOWRT NOWRTD NOWRTC NOWRTB
   Word  7: 403F   NOEBTR NOEBTRB
