CCS PCH C Compiler, Version 4.104, 5967               23-abr.-21 09:24

               Filename: D:\Laboratorio\Autoclave\Autoclave Horizontal\Con Precamara\2021\Autoclave 85L Avantika  OP2020415 #004588571\Firmware V4.0.7 - Reservorio-Presion-200Ciclos-Impresora-Generador\GLCD_Controller_V3.0.1\GLCD_Controller.lst

               ROM used: 57690 bytes (59%)
                         Largest free fragment is 32768
               RAM used: 1106 (33%) at main() level
                         1134 (34%) worst case
               Stack:    5 worst case (4 in main + 1 for interrupts)

*
00000:  GOTO   76DC
*
00008:  GOTO   00BA
0000C:  NOP   
0000E:  NOP   
00010:  NOP   
00012:  NOP   
00014:  NOP   
00016:  NOP   
00018:  MOVWF  04
0001A:  MOVFF  FD8,05
0001E:  MOVFF  FE0,06
00022:  MOVLB  0
00024:  MOVFF  FE9,0C
00028:  MOVFF  FEA,07
0002C:  MOVFF  FE1,08
00030:  MOVFF  FE2,09
00034:  MOVFF  FD9,0A
00038:  MOVFF  FDA,0B
0003C:  MOVFF  FF3,12
00040:  MOVFF  FF4,13
00044:  MOVFF  FFA,14
00048:  MOVFF  FFB,15
0004C:  MOVFF  00,0E
00050:  MOVFF  01,0F
00054:  MOVFF  02,10
00058:  MOVFF  03,11
0005C:  BTFSS  FF2.5
0005E:  GOTO   0068
00062:  BTFSC  FF2.2
00064:  GOTO   0526
00068:  BTFSS  F9D.0
0006A:  GOTO   0074
0006E:  BTFSC  F9E.0
00070:  GOTO   057E
00074:  MOVFF  0E,00
00078:  MOVFF  0F,01
0007C:  MOVFF  10,02
00080:  MOVFF  11,03
00084:  MOVFF  0C,FE9
00088:  MOVFF  07,FEA
0008C:  BSF    07.7
0008E:  MOVFF  08,FE1
00092:  MOVFF  09,FE2
00096:  MOVFF  0A,FD9
0009A:  MOVFF  0B,FDA
0009E:  MOVFF  12,FF3
000A2:  MOVFF  13,FF4
000A6:  MOVFF  14,FFA
000AA:  MOVFF  15,FFB
000AE:  MOVF   04,W
000B0:  MOVFF  06,FE0
000B4:  MOVFF  05,FD8
000B8:  RETFIE 0
000BA:  MOVWF  17
000BC:  MOVFF  FD8,18
000C0:  MOVFF  FE0,19
000C4:  MOVLB  0
000C6:  MOVFF  FE9,1F
000CA:  MOVFF  FEA,1A
000CE:  MOVFF  FE1,1B
000D2:  MOVFF  FE2,1C
000D6:  MOVFF  FD9,1D
000DA:  MOVFF  FDA,1E
000DE:  MOVFF  FF3,25
000E2:  MOVFF  FF4,26
000E6:  MOVFF  FFA,27
000EA:  MOVFF  FFB,28
000EE:  MOVFF  00,21
000F2:  MOVFF  01,22
000F6:  MOVFF  02,23
000FA:  MOVFF  03,24
000FE:  BTFSS  F9D.5
00100:  GOTO   010A
00104:  BTFSC  F9E.5
00106:  GOTO   04B8
0010A:  MOVFF  21,00
0010E:  MOVFF  22,01
00112:  MOVFF  23,02
00116:  MOVFF  24,03
0011A:  MOVFF  1F,FE9
0011E:  MOVFF  1A,FEA
00122:  BSF    1A.7
00124:  MOVFF  1B,FE1
00128:  MOVFF  1C,FE2
0012C:  MOVFF  1D,FD9
00130:  MOVFF  1E,FDA
00134:  MOVFF  25,FF3
00138:  MOVFF  26,FF4
0013C:  MOVFF  27,FFA
00140:  MOVFF  28,FFB
00144:  MOVF   17,W
00146:  MOVFF  19,FE0
0014A:  MOVFF  18,FD8
0014E:  RETFIE 0
.................... //Falta crear menu de ajuste de variables y de norma CFR21 
....................  
.................... #include <18F4685.h> 
.................... //////// Standard Header file for the PIC18F4685 device //////////////// 
.................... #device PIC18F4685 
.................... #list 
....................  
.................... #device adc=10 
.................... #device HIGH_INTS=TRUE //Activamos niveles de prioridad 
.................... #fuses HS,WDT8192,NOPROTECT,NOLVP,NODEBUG,NOSTVREN,PUT,NOCPD,NOWRT,NOIESO,NOFCMEN,NOPBADEN,NOWRTC,NOWRTB,NOEBTR,NOEBTRB,NOCPB,NOXINST,NOLPT1OSC,NOMCLR,NOBROWNOUT,BORV42 
.................... #use delay(clock=20000000) 
*
01AF4:  MOVLW  04
01AF6:  MOVWF  FEA
01AF8:  MOVLW  5C
01AFA:  MOVWF  FE9
01AFC:  MOVF   FEF,W
01AFE:  BZ    1B1A
01B00:  MOVLW  06
01B02:  MOVWF  01
01B04:  CLRF   00
01B06:  DECFSZ 00,F
01B08:  BRA    1B06
01B0A:  DECFSZ 01,F
01B0C:  BRA    1B04
01B0E:  MOVLW  7B
01B10:  MOVWF  00
01B12:  DECFSZ 00,F
01B14:  BRA    1B12
01B16:  DECFSZ FEF,F
01B18:  BRA    1B00
01B1A:  RETLW  00
.................... #use i2c(Master,slow,sda=PIN_C4,scl=PIN_C3) 
*
0470A:  MOVLW  08
0470C:  MOVWF  01
0470E:  MOVLW  05
04710:  MOVWF  00
04712:  DECFSZ 00,F
04714:  BRA    4712
04716:  BCF    F8B.3
04718:  BCF    F94.3
0471A:  MOVLW  06
0471C:  MOVWF  00
0471E:  DECFSZ 00,F
04720:  BRA    471E
04722:  MOVLB  4
04724:  RLCF   x5D,F
04726:  BCF    F8B.4
04728:  BTFSC  FD8.0
0472A:  BSF    F94.4
0472C:  BTFSS  FD8.0
0472E:  BCF    F94.4
04730:  BSF    F94.3
04732:  BTFSS  F82.3
04734:  BRA    4732
04736:  DECFSZ 01,F
04738:  BRA    473C
0473A:  BRA    4740
0473C:  MOVLB  0
0473E:  BRA    470E
04740:  MOVLW  05
04742:  MOVWF  00
04744:  DECFSZ 00,F
04746:  BRA    4744
04748:  BCF    F8B.3
0474A:  BCF    F94.3
0474C:  NOP   
0474E:  BSF    F94.4
04750:  MOVLW  06
04752:  MOVWF  00
04754:  DECFSZ 00,F
04756:  BRA    4754
04758:  MOVLW  06
0475A:  MOVWF  00
0475C:  DECFSZ 00,F
0475E:  BRA    475C
04760:  BSF    F94.3
04762:  BTFSS  F82.3
04764:  BRA    4762
04766:  CLRF   01
04768:  MOVLW  06
0476A:  MOVWF  00
0476C:  DECFSZ 00,F
0476E:  BRA    476C
04770:  BTFSC  F82.4
04772:  BSF    01.0
04774:  BCF    F8B.3
04776:  BCF    F94.3
04778:  BCF    F8B.4
0477A:  BCF    F94.4
0477C:  MOVLB  0
0477E:  RETLW  00
*
05552:  MOVLW  08
05554:  MOVLB  4
05556:  MOVWF  x50
05558:  MOVFF  00,451
0555C:  BSF    F94.4
0555E:  MOVLW  06
05560:  MOVWF  00
05562:  DECFSZ 00,F
05564:  BRA    5562
05566:  BSF    F94.3
05568:  BTFSS  F82.3
0556A:  BRA    5568
0556C:  BTFSC  F82.4
0556E:  BSF    FD8.0
05570:  BTFSS  F82.4
05572:  BCF    FD8.0
05574:  RLCF   01,F
05576:  MOVLW  05
05578:  MOVWF  00
0557A:  DECFSZ 00,F
0557C:  BRA    557A
0557E:  BCF    F94.3
05580:  BCF    F8B.3
05582:  DECFSZ x50,F
05584:  BRA    555C
05586:  BSF    F94.4
05588:  MOVLW  06
0558A:  MOVWF  00
0558C:  DECFSZ 00,F
0558E:  BRA    558C
05590:  BCF    F8B.4
05592:  MOVF   x51,W
05594:  BTFSS  FD8.2
05596:  BCF    F94.4
05598:  NOP   
0559A:  BSF    F94.3
0559C:  BTFSS  F82.3
0559E:  BRA    559C
055A0:  MOVLW  05
055A2:  MOVWF  00
055A4:  DECFSZ 00,F
055A6:  BRA    55A4
055A8:  BCF    F8B.3
055AA:  BCF    F94.3
055AC:  MOVLW  06
055AE:  MOVWF  00
055B0:  DECFSZ 00,F
055B2:  BRA    55B0
055B4:  BCF    F8B.4
055B6:  BCF    F94.4
055B8:  MOVLB  0
055BA:  GOTO   5640 (RETURN)
.................... #use rs232(baud=9600, xmit=PIN_C6, rcv=PIN_C7, bits=8, parity=N) 
*
039E2:  BTFSS  F9E.4
039E4:  BRA    39E2
039E6:  MOVWF  FAD
039E8:  RETLW  00
.................... //#include "HDM64GS12.c" 
.................... //#include "GRAPHICS.c" 
.................... ///#include "imagen.h" 
.................... #include <stdio.h> 
.................... /////////////////////////////////////////////////////////////////////////// 
.................... ////        (C) Copyright 1996,2003 Custom Computer Services           //// 
.................... //// This source code may only be used by licensed users of the CCS C  //// 
.................... //// compiler.  This source code may only be distributed to other      //// 
.................... //// licensed users of the CCS C compiler.  No other use, reproduction //// 
.................... //// or distribution is permitted without written permission.          //// 
.................... //// Derivative programs created using this software in object code    //// 
.................... //// form are not restricted in any way.                               //// 
.................... /////////////////////////////////////////////////////////////////////////// 
....................  
.................... #ifndef _STDIO 
.................... #define _STDIO 
.................... #include <string.h> 
.................... //////////////////////////////////////////////////////////////////////////// 
.................... ////        (C) Copyright 1996,2008 Custom Computer Services            //// 
.................... //// This source code may only be used by licensed users of the CCS C   //// 
.................... //// compiler.  This source code may only be distributed to other       //// 
.................... //// licensed users of the CCS C compiler.  No other use, reproduction  //// 
.................... //// or distribution is permitted without written permission.           //// 
.................... //// Derivative programs created using this software in object code     //// 
.................... //// form are not restricted in any way.                                //// 
.................... //////////////////////////////////////////////////////////////////////////// 
....................  
.................... #ifndef _STRING 
.................... #define _STRING 
.................... #include <stddef.h> 
.................... /////////////////////////////////////////////////////////////////////////// 
.................... ////        (C) Copyright 1996,2003 Custom Computer Services           //// 
.................... //// This source code may only be used by licensed users of the CCS C  //// 
.................... //// compiler.  This source code may only be distributed to other      //// 
.................... //// licensed users of the CCS C compiler.  No other use, reproduction //// 
.................... //// or distribution is permitted without written permission.          //// 
.................... //// Derivative programs created using this software in object code    //// 
.................... //// form are not restricted in any way.                               //// 
.................... /////////////////////////////////////////////////////////////////////////// 
....................  
.................... #ifndef _STDDEF 
....................  
.................... #define _STDDEF 
....................  
.................... #if sizeof(unsigned int8 *)==1 
.................... #define ptrdiff_t unsigned int8 
.................... #else 
.................... #define ptrdiff_t unsigned int16 
.................... #endif 
....................  
.................... #define size_t unsigned int8 
.................... #define wchar_t char 
.................... #define NULL 0 
....................  
.................... #define offsetof(s,f) (offsetofbit(s,f)/8) 
....................  
.................... #endif 
....................  
.................... #include <ctype.h> 
.................... //////////////////////////////////////////////////////////////////////////// 
.................... ////        (C) Copyright 1996,2003 Custom Computer Services            //// 
.................... //// This source code may only be used by licensed users of the CCS C   //// 
.................... //// compiler.  This source code may only be distributed to other       //// 
.................... //// licensed users of the CCS C compiler.  No other use, reproduction  //// 
.................... //// or distribution is permitted without written permission.           //// 
.................... //// Derivative programs created using this software in object code     //// 
.................... //// form are not restricted in any way.                                //// 
.................... //////////////////////////////////////////////////////////////////////////// 
....................  
.................... #ifndef _CTYPE 
.................... #define _CTYPE 
....................  
.................... #define islower(x)  isamong(x,"abcdefghijklmnopqrstuvwxyz") 
.................... #define isupper(x)  isamong(x,"ABCDEFGHIJKLMNOPQRSTUVWXYZ") 
.................... #define isalnum(x)  isamong(x,"0123456789ABCDEFGHIJKLMNOPQRSTUVWXYZabcdefghijklmnopqrstuvwxyz") 
.................... #define isalpha(x)  isamong(x,"ABCDEFGHIJKLMNOPQRSTUVWXYZabcdefghijklmnopqrstuvwxyz") 
.................... #define isdigit(x)  isamong(x,"0123456789") 
.................... #define isspace(x)  ((x)==' ') 
.................... #define isxdigit(x) isamong(x,"0123456789ABCDEFabcdef") 
.................... #define iscntrl(x)  ((x)<' ') 
.................... #define isprint(x)  ((x)>=' ') 
.................... #define isgraph(x)  ((x)>' ') 
.................... #define ispunct(x)  (((x)>' ')&&!isalnum(x)) 
....................  
.................... #endif 
....................  
....................  
....................  
....................  
....................  
.................... ////////////////////////////////////////////// 
.................... //// Uncomment the following define to    //// 
.................... //// allow some functions to use a        //// 
.................... //// quicker algorithm, but use more ROM  //// 
.................... ////                                      //// 
.................... //// #define FASTER_BUT_MORE_ROM          //// 
.................... ////////////////////////////////////////////// 
....................  
....................  
....................  
.................... /*Copying functions*/ 
.................... /* standard template: 
....................    void *memmove(void *s1, void *s2, size_t n). 
....................    Copies max of n characters safely (not following ending '\0') 
....................    from s2 in s1; if s2 has less than n characters, appends 0 */ 
....................  
.................... char *memmove(void *s1,char *s2,size_t n) 
.................... { 
....................    char *sc1; 
....................    char *sc2; 
....................    sc1=s1; 
....................    sc2=s2; 
....................    if(sc2<sc1 && sc1 <sc2 +n) 
....................       for(sc1+=n,sc2+=n;0<n;--n) 
....................          *--sc1=*--sc2; 
....................    else 
....................       for(;0<n;--n) 
....................          *sc1++=*sc2++; 
....................   return s1; 
....................   } 
....................  
.................... /* Standard template: char *strcpy(char *s1, const char *s2) 
....................    copies the string s2 including the null character to s1. 
....................    This is a compiler built in to handle the different address 
....................    spaces */ 
....................  
.................... #define strcopy strcpy 
....................  
.................... /* standard template: 
....................    char *strncpy(char *s1, const char *s2, size_t n). 
....................    Copies max of n characters (not following ending '\0') 
....................    from s2 in s1; if s2 has less than n characters, appends 0 */ 
....................  
.................... char *strncpy(char *s1, char *s2, size_t n) 
.................... { 
....................   char *s; 
....................  
....................   for (s = s1; n > 0 && *s2 != '\0'; n--) 
....................      *s++ = *s2++; 
....................   for (; n > 0; n--) 
....................      *s++ = '\0'; 
....................  
....................   return(s1); 
.................... } 
.................... /***********************************************************/ 
....................  
.................... /*concatenation functions*/ 
.................... /* standard template: char *strcat(char *s1, const char *s2) 
.................... appends s2 to s1*/ 
....................  
.................... char *strcat(char *s1, char *s2) 
.................... { 
....................    char *s; 
....................  
....................    for (s = s1; *s != '\0'; ++s); 
....................    while(*s2 != '\0') 
....................    { 
....................       *s = *s2; 
....................       ++s; 
....................       ++s2; 
....................    } 
....................  
....................    *s = '\0'; 
....................    return(s1); 
.................... } 
.................... /* standard template: char *strncat(char *s1, char *s2,size_t n) 
.................... appends not more than n characters from s2 to s1*/ 
....................  
.................... char *strncat(char *s1, char *s2, size_t n) 
.................... { 
....................    char *s; 
....................  
....................    for (s = s1; *s != '\0'; ++s); 
....................    while(*s2 != '\0' && 0<n) 
....................    { 
....................       *s = *s2; 
....................       ++s; 
....................       ++s2; 
....................       --n; 
....................    } 
....................  
....................    *s = '\0'; 
....................    return(s1); 
.................... } 
....................  
.................... /***********************************************************/ 
....................  
....................  
.................... /*comparison functions*/ 
.................... /* standard template: signed int memcmp(void *s1, void *s2). 
....................    Compares s1 & s2; returns -1 if s1<s2, 0 if s1=s2, 1 if s1>s2 */ 
....................  
.................... signed int8 memcmp(void * s1,char *s2,size_t n) 
.................... { 
.................... char *su1, *su2; 
.................... for(su1=s1, su2=s2; 0<n; ++su1, ++su2, --n) 
.................... { 
....................    if(*su1!=*su2) 
....................       return ((*su1<*su2)?-1:+1); 
.................... } 
.................... return 0; 
.................... } 
....................  
.................... /* standard template: int strcmp(const char *s1, const char *s2). 
....................    Compares s1 & s2; returns -1 if s1<s2, 0 if s1=s2, 1 if s1>s2 */ 
....................  
.................... signed int8 strcmp(char *s1, char *s2) 
.................... { 
....................    for (; *s1 == *s2; s1++, s2++) 
....................       if (*s1 == '\0') 
....................          return(0); 
....................    return((*s1 < *s2) ? -1: 1); 
.................... } 
.................... /* standard template: int strcoll(const char *s1, const char *s2). 
....................    Compares s1 & s2; returns -1 if s1<s2, 0 if s1=s2, 1 if s1>s2 */ 
....................  
.................... signed int8 strcoll(char *s1, char *s2) 
.................... { 
....................    for (; *s1 == *s2; s1++, s2++) 
....................       if (*s1 == '\0') 
....................          return(0); 
....................    return((*s1 < *s2) ? -1: 1); 
.................... } 
....................  
.................... /* standard template: 
....................    int strncmp(const char *s1, const char *s2, size_t n). 
....................    Compares max of n characters (not following 0) from s1 to s2; 
....................    returns same as strcmp */ 
....................  
.................... signed int8 strncmp(char *s1, char *s2, size_t n) 
.................... { 
....................    for (; n > 0; s1++, s2++, n--) 
....................       if (*s1 != *s2) 
....................          return((*s1 <*s2) ? -1: 1); 
....................       else if (*s1 == '\0') 
....................          return(0); 
....................    return(0); 
.................... } 
.................... /* standard template: 
....................    int strxfrm(const char *s1, const char *s2, size_t n). 
....................    transforms maximum of n characters from s2 and places them into s1*/ 
.................... size_t strxfrm(char *s1, char *s2, size_t n) 
.................... { 
....................   char *s; 
....................   unsigned int8 n1; 
....................   n1=n; 
....................   for (s = s1; n > 0 && *s2 != '\0'; n--) 
....................      *s++ = *s2++; 
....................   for (; n > 0; n--) 
....................      *s++ = '\0'; 
....................  
....................   return(n1); 
.................... } 
....................  
....................  
....................  
....................  
....................  
.................... /***********************************************************/ 
.................... /*Search functions*/ 
.................... /* standard template: void *memchr(const char *s, int c). 
....................    Finds first occurrence of c in n characters of s */ 
....................  
.................... char *memchr(void *s,unsigned int8 c,size_t n) 
.................... { 
....................    char uc; 
....................    char *su; 
....................    uc=c; 
....................    for(su=s;0<n;++su,--n) 
....................       if(*su==uc) 
....................       return su; 
....................    return NULL; 
.................... } 
....................  
.................... /* standard template: char *strchr(const char *s, int c). 
....................    Finds first occurrence of c in s */ 
....................  
.................... char *strchr(char *s, unsigned int8 c) 
.................... { 
....................    for (; *s != c; s++) 
....................       if (*s == '\0') 
....................          return(0); 
....................    return(s); 
.................... } 
.................... /* standard template: 
....................    size_t strcspn(const char *s1, const char *s2). 
....................    Computes length of max initial segment of s1 that 
....................    consists entirely of characters NOT from s2*/ 
....................  
.................... unsigned int8  strcspn(char *s1, char *s2) 
.................... { 
....................    char *sc1, *sc2; 
....................  
....................    for (sc1 = s1; *sc1 != 0; sc1++) 
....................       for (sc2 = s2; *sc2 != 0; sc2++) 
....................          if (*sc1 == *sc2) 
....................             return(sc1 - s1); 
....................    return(sc1 - s1); 
.................... } 
.................... /* standard template: 
....................    char *strpbrk(const char *s1, const char *s2). 
....................    Locates first occurence of any character from s2 in s1; 
....................    returns s1 if s2 is empty string */ 
....................  
.................... char *strpbrk(char *s1, char *s2) 
.................... { 
....................    char *sc1, *sc2; 
....................  
....................    for (sc1 = s1; *sc1 != 0; sc1++) 
....................       for (sc2 = s2; *sc2 != 0; sc2++) 
....................          if (*sc1 == *sc2) 
....................             return(sc1); 
....................    return(0); 
.................... } 
....................  
....................  
.................... /* standard template: char *strrchr(const char *s, int c). 
....................    Finds last occurrence of c in s */ 
....................  
.................... char *strrchr(char *s, unsigned int8 c) 
.................... { 
....................    char *p; 
....................  
....................    for (p = 0; ; s++) 
....................    { 
....................       if (*s == c) 
....................          p = s; 
....................       if (*s == '\0') 
....................          return(p); 
....................    } 
.................... } 
.................... /* computes length of max initial segment of s1 consisting 
....................    entirely of characters from s2 */ 
....................  
.................... unsigned int8  strspn(char *s1, char *s2) 
.................... { 
....................    char *sc1, *sc2; 
....................  
....................    for (sc1 = s1; *sc1 != 0; sc1++) 
....................       for (sc2 = s2; ; sc2++) 
....................     if (*sc2 == '\0') 
....................        return(sc1 - s1); 
....................          else if (*sc1 == *sc2) 
....................             break; 
....................    return(sc1 - s1); 
.................... } 
.................... /* standard template: 
....................    char *strstr(const char *s1, const char *s2); 
....................    Locates first occurence of character sequence s2 in s1; 
....................    returns 0 if s2 is empty string 
....................  
....................    Uncomment #define FASTER_BUT_MORE_ROM at the top of the 
....................    file to use the faster algorithm */ 
.................... char *strstr(char *s1, char *s2) 
.................... { 
....................    char *s, *t; 
....................  
....................    #ifdef FASTER_BUT_MORE_ROM 
....................    if (*s2 == '\0') 
....................          return(s1); 
....................    #endif 
....................  
....................    while (*s1) 
....................    { 
....................       for(s = s1, t = s2; *t && (*s == *t); ++s, ++t); 
....................  
....................       if (*t == '\0') 
....................          return s1; 
....................       ++s1; 
....................       #ifdef FASTER_BUT_MORE_ROM 
....................          while(*s1 != '\0' && *s1 != *s2) 
....................             ++s1; 
....................       #endif 
....................    } 
....................    return 0; 
.................... } 
....................  
.................... /* standard template: char *strtok(char *s1, const char *s2). 
....................  
....................    Finds next token in s1 delimited by a character from separator 
....................    string s2 (which can be different from call to call).  First call 
....................    starts at beginning of s1 searching for first character NOT 
....................    contained in s2; returns 0 if none is found. 
....................    If one is found, it is the start of first token (return value). 
....................    Function then searches from there for a character contained in s2. 
....................    If none is found, current token extends to end of s1, and subsequent 
....................    searches for a token will return 0.  If one is found, it is 
....................    overwritten by '\0', which terminates current token.  Function saves 
....................    pointer to following character from which next search will start. 
....................    Each subsequent call, with 0 as first argument, starts searching 
....................    from saved pointer */ 
....................  
.................... char *strtok(char *s1, char *s2) 
.................... { 
....................    char *beg, *end; 
....................    static char *save; 
....................  
....................    beg = (s1)? s1: save; 
....................    beg += strspn(beg, s2); 
....................    if (*beg == '\0') 
....................    { 
....................       *save = ' '; 
....................       return(0); 
....................    } 
....................    end = strpbrk(beg, s2); 
....................    if (*end != '\0') 
....................    { 
....................       *end = '\0'; 
....................       end++; 
....................    } 
....................    save = end; 
....................    return(beg); 
.................... } 
....................  
.................... /*****************************************************************/ 
.................... /*Miscellaneous functions*/ 
.................... /* standard template 
.................... maps error number in errnum to an error message string 
.................... Returns: Pointer to string 
.................... */ 
.................... #ifdef _ERRNO 
.................... char * strerror(unsigned int8 errnum) 
.................... { 
.................... char s[15]; 
.................... switch( errnum) 
.................... { 
.................... case 0: 
....................    strcpy(s,"no errors"); 
....................    return s; 
.................... case EDOM : 
....................    strcpy(s,"domain error"); 
....................    return s; 
.................... case ERANGE: 
....................    strcpy(s,"range error"); 
....................    return s; 
.................... } 
.................... } 
.................... #ENDIF 
.................... /* standard template: size_t strlen(const char *s). 
....................    Computes length of s1 (preceding terminating 0) */ 
....................  
.................... unsigned int8 strlen(char *s) 
.................... { 
....................    char *sc; 
....................  
....................    for (sc = s; *sc != 0; sc++); 
....................    return(sc - s); 
.................... } 
....................  
.................... /* standard template: size_t stricmp(const char *s1, const char *s2). 
....................    Compares s1 to s2 ignoring case (upper vs. lower) */ 
....................  
.................... signed int8 stricmp(char *s1, char *s2) 
.................... { 
....................  for(; *s1==*s2||(isalpha(*s1)&&isalpha(*s2)&&(*s1==*s2+32||*s2==*s1+32)); 
....................     s1++, s2++) 
....................     if (*s1 == '\0') 
....................        return(0); 
....................  return((*s1 < *s2) ? -1: 1); 
.................... } 
....................  
....................  
.................... /* standard template: char *strlwr(char *s). 
....................    Replaces uppercase letters by lowercase; 
....................    returns pointer to new string s */ 
....................  
.................... char *strlwr(char *s) 
.................... { 
....................    char *p; 
....................  
....................    for (p = s; *p != '\0'; p++) 
....................       if (*p >= 'A' && *p <='Z') 
....................          *p += 'a' - 'A'; 
....................    return(s); 
.................... } 
....................  
....................  
.................... /************************************************************/ 
....................  
....................  
.................... #endif 
....................  
.................... #ifndef getc 
.................... #define getc getch 
.................... #define getchar getch 
.................... #define puts(s) {printf(s); putchar(13); putchar(10);} 
.................... #define putc putchar 
.................... #endif 
.................... /* maps error number to an error message. Writes a sequence of characters to 
.................... stderr stream thus: if s is not null then string pointed to by s follwed by 
.................... a colon (:) and a space and the appropriate error message returned by strerror 
.................... function with argument errno 
....................  
.................... Returns: no value 
.................... */ 
....................  
.................... #ifdef _ERRNO 
.................... void perror(char *s) 
.................... { 
....................   if(s) 
....................   fprintf(STDERR,"%s: ",s); 
....................   fprintf(STDERR,"%s\r\n",strerror(errno)); 
.................... } 
.................... #endif 
.................... #endif 
....................  
.................... #include <string.h> 
.................... //////////////////////////////////////////////////////////////////////////// 
.................... ////        (C) Copyright 1996,2008 Custom Computer Services            //// 
.................... //// This source code may only be used by licensed users of the CCS C   //// 
.................... //// compiler.  This source code may only be distributed to other       //// 
.................... //// licensed users of the CCS C compiler.  No other use, reproduction  //// 
.................... //// or distribution is permitted without written permission.           //// 
.................... //// Derivative programs created using this software in object code     //// 
.................... //// form are not restricted in any way.                                //// 
.................... //////////////////////////////////////////////////////////////////////////// 
....................  
.................... #ifndef _STRING 
.................... #define _STRING 
.................... #include <stddef.h> 
.................... #include <ctype.h> 
....................  
....................  
....................  
.................... ////////////////////////////////////////////// 
.................... //// Uncomment the following define to    //// 
.................... //// allow some functions to use a        //// 
.................... //// quicker algorithm, but use more ROM  //// 
.................... ////                                      //// 
.................... //// #define FASTER_BUT_MORE_ROM          //// 
.................... ////////////////////////////////////////////// 
....................  
....................  
....................  
.................... /*Copying functions*/ 
.................... /* standard template: 
....................    void *memmove(void *s1, void *s2, size_t n). 
....................    Copies max of n characters safely (not following ending '\0') 
....................    from s2 in s1; if s2 has less than n characters, appends 0 */ 
....................  
.................... char *memmove(void *s1,char *s2,size_t n) 
.................... { 
....................    char *sc1; 
....................    char *sc2; 
....................    sc1=s1; 
....................    sc2=s2; 
....................    if(sc2<sc1 && sc1 <sc2 +n) 
....................       for(sc1+=n,sc2+=n;0<n;--n) 
....................          *--sc1=*--sc2; 
....................    else 
....................       for(;0<n;--n) 
....................          *sc1++=*sc2++; 
....................   return s1; 
....................   } 
....................  
.................... /* Standard template: char *strcpy(char *s1, const char *s2) 
....................    copies the string s2 including the null character to s1. 
....................    This is a compiler built in to handle the different address 
....................    spaces */ 
....................  
.................... #define strcopy strcpy 
....................  
.................... /* standard template: 
....................    char *strncpy(char *s1, const char *s2, size_t n). 
....................    Copies max of n characters (not following ending '\0') 
....................    from s2 in s1; if s2 has less than n characters, appends 0 */ 
....................  
.................... char *strncpy(char *s1, char *s2, size_t n) 
.................... { 
....................   char *s; 
....................  
....................   for (s = s1; n > 0 && *s2 != '\0'; n--) 
....................      *s++ = *s2++; 
....................   for (; n > 0; n--) 
....................      *s++ = '\0'; 
....................  
....................   return(s1); 
.................... } 
.................... /***********************************************************/ 
....................  
.................... /*concatenation functions*/ 
.................... /* standard template: char *strcat(char *s1, const char *s2) 
.................... appends s2 to s1*/ 
....................  
.................... char *strcat(char *s1, char *s2) 
.................... { 
....................    char *s; 
....................  
....................    for (s = s1; *s != '\0'; ++s); 
....................    while(*s2 != '\0') 
....................    { 
....................       *s = *s2; 
....................       ++s; 
....................       ++s2; 
....................    } 
....................  
....................    *s = '\0'; 
....................    return(s1); 
.................... } 
.................... /* standard template: char *strncat(char *s1, char *s2,size_t n) 
.................... appends not more than n characters from s2 to s1*/ 
....................  
.................... char *strncat(char *s1, char *s2, size_t n) 
.................... { 
....................    char *s; 
....................  
....................    for (s = s1; *s != '\0'; ++s); 
....................    while(*s2 != '\0' && 0<n) 
....................    { 
....................       *s = *s2; 
....................       ++s; 
....................       ++s2; 
....................       --n; 
....................    } 
....................  
....................    *s = '\0'; 
....................    return(s1); 
.................... } 
....................  
.................... /***********************************************************/ 
....................  
....................  
.................... /*comparison functions*/ 
.................... /* standard template: signed int memcmp(void *s1, void *s2). 
....................    Compares s1 & s2; returns -1 if s1<s2, 0 if s1=s2, 1 if s1>s2 */ 
....................  
.................... signed int8 memcmp(void * s1,char *s2,size_t n) 
.................... { 
.................... char *su1, *su2; 
.................... for(su1=s1, su2=s2; 0<n; ++su1, ++su2, --n) 
.................... { 
....................    if(*su1!=*su2) 
....................       return ((*su1<*su2)?-1:+1); 
.................... } 
.................... return 0; 
.................... } 
....................  
.................... /* standard template: int strcmp(const char *s1, const char *s2). 
....................    Compares s1 & s2; returns -1 if s1<s2, 0 if s1=s2, 1 if s1>s2 */ 
....................  
.................... signed int8 strcmp(char *s1, char *s2) 
.................... { 
....................    for (; *s1 == *s2; s1++, s2++) 
....................       if (*s1 == '\0') 
....................          return(0); 
....................    return((*s1 < *s2) ? -1: 1); 
.................... } 
.................... /* standard template: int strcoll(const char *s1, const char *s2). 
....................    Compares s1 & s2; returns -1 if s1<s2, 0 if s1=s2, 1 if s1>s2 */ 
....................  
.................... signed int8 strcoll(char *s1, char *s2) 
.................... { 
....................    for (; *s1 == *s2; s1++, s2++) 
....................       if (*s1 == '\0') 
....................          return(0); 
....................    return((*s1 < *s2) ? -1: 1); 
.................... } 
....................  
.................... /* standard template: 
....................    int strncmp(const char *s1, const char *s2, size_t n). 
....................    Compares max of n characters (not following 0) from s1 to s2; 
....................    returns same as strcmp */ 
....................  
.................... signed int8 strncmp(char *s1, char *s2, size_t n) 
.................... { 
....................    for (; n > 0; s1++, s2++, n--) 
....................       if (*s1 != *s2) 
....................          return((*s1 <*s2) ? -1: 1); 
....................       else if (*s1 == '\0') 
....................          return(0); 
....................    return(0); 
.................... } 
.................... /* standard template: 
....................    int strxfrm(const char *s1, const char *s2, size_t n). 
....................    transforms maximum of n characters from s2 and places them into s1*/ 
.................... size_t strxfrm(char *s1, char *s2, size_t n) 
.................... { 
....................   char *s; 
....................   unsigned int8 n1; 
....................   n1=n; 
....................   for (s = s1; n > 0 && *s2 != '\0'; n--) 
....................      *s++ = *s2++; 
....................   for (; n > 0; n--) 
....................      *s++ = '\0'; 
....................  
....................   return(n1); 
.................... } 
....................  
....................  
....................  
....................  
....................  
.................... /***********************************************************/ 
.................... /*Search functions*/ 
.................... /* standard template: void *memchr(const char *s, int c). 
....................    Finds first occurrence of c in n characters of s */ 
....................  
.................... char *memchr(void *s,unsigned int8 c,size_t n) 
.................... { 
....................    char uc; 
....................    char *su; 
....................    uc=c; 
....................    for(su=s;0<n;++su,--n) 
....................       if(*su==uc) 
....................       return su; 
....................    return NULL; 
.................... } 
....................  
.................... /* standard template: char *strchr(const char *s, int c). 
....................    Finds first occurrence of c in s */ 
....................  
.................... char *strchr(char *s, unsigned int8 c) 
.................... { 
....................    for (; *s != c; s++) 
....................       if (*s == '\0') 
....................          return(0); 
....................    return(s); 
.................... } 
.................... /* standard template: 
....................    size_t strcspn(const char *s1, const char *s2). 
....................    Computes length of max initial segment of s1 that 
....................    consists entirely of characters NOT from s2*/ 
....................  
.................... unsigned int8  strcspn(char *s1, char *s2) 
.................... { 
....................    char *sc1, *sc2; 
....................  
....................    for (sc1 = s1; *sc1 != 0; sc1++) 
....................       for (sc2 = s2; *sc2 != 0; sc2++) 
....................          if (*sc1 == *sc2) 
....................             return(sc1 - s1); 
....................    return(sc1 - s1); 
.................... } 
.................... /* standard template: 
....................    char *strpbrk(const char *s1, const char *s2). 
....................    Locates first occurence of any character from s2 in s1; 
....................    returns s1 if s2 is empty string */ 
....................  
.................... char *strpbrk(char *s1, char *s2) 
.................... { 
....................    char *sc1, *sc2; 
....................  
....................    for (sc1 = s1; *sc1 != 0; sc1++) 
....................       for (sc2 = s2; *sc2 != 0; sc2++) 
....................          if (*sc1 == *sc2) 
....................             return(sc1); 
....................    return(0); 
.................... } 
....................  
....................  
.................... /* standard template: char *strrchr(const char *s, int c). 
....................    Finds last occurrence of c in s */ 
....................  
.................... char *strrchr(char *s, unsigned int8 c) 
.................... { 
....................    char *p; 
....................  
....................    for (p = 0; ; s++) 
....................    { 
....................       if (*s == c) 
....................          p = s; 
....................       if (*s == '\0') 
....................          return(p); 
....................    } 
.................... } 
.................... /* computes length of max initial segment of s1 consisting 
....................    entirely of characters from s2 */ 
....................  
.................... unsigned int8  strspn(char *s1, char *s2) 
.................... { 
....................    char *sc1, *sc2; 
....................  
....................    for (sc1 = s1; *sc1 != 0; sc1++) 
....................       for (sc2 = s2; ; sc2++) 
....................     if (*sc2 == '\0') 
....................        return(sc1 - s1); 
....................          else if (*sc1 == *sc2) 
....................             break; 
....................    return(sc1 - s1); 
.................... } 
.................... /* standard template: 
....................    char *strstr(const char *s1, const char *s2); 
....................    Locates first occurence of character sequence s2 in s1; 
....................    returns 0 if s2 is empty string 
....................  
....................    Uncomment #define FASTER_BUT_MORE_ROM at the top of the 
....................    file to use the faster algorithm */ 
.................... char *strstr(char *s1, char *s2) 
.................... { 
....................    char *s, *t; 
....................  
....................    #ifdef FASTER_BUT_MORE_ROM 
....................    if (*s2 == '\0') 
....................          return(s1); 
....................    #endif 
....................  
....................    while (*s1) 
....................    { 
....................       for(s = s1, t = s2; *t && (*s == *t); ++s, ++t); 
....................  
....................       if (*t == '\0') 
....................          return s1; 
....................       ++s1; 
....................       #ifdef FASTER_BUT_MORE_ROM 
....................          while(*s1 != '\0' && *s1 != *s2) 
....................             ++s1; 
....................       #endif 
....................    } 
....................    return 0; 
.................... } 
....................  
.................... /* standard template: char *strtok(char *s1, const char *s2). 
....................  
....................    Finds next token in s1 delimited by a character from separator 
....................    string s2 (which can be different from call to call).  First call 
....................    starts at beginning of s1 searching for first character NOT 
....................    contained in s2; returns 0 if none is found. 
....................    If one is found, it is the start of first token (return value). 
....................    Function then searches from there for a character contained in s2. 
....................    If none is found, current token extends to end of s1, and subsequent 
....................    searches for a token will return 0.  If one is found, it is 
....................    overwritten by '\0', which terminates current token.  Function saves 
....................    pointer to following character from which next search will start. 
....................    Each subsequent call, with 0 as first argument, starts searching 
....................    from saved pointer */ 
....................  
.................... char *strtok(char *s1, char *s2) 
.................... { 
....................    char *beg, *end; 
....................    static char *save; 
....................  
....................    beg = (s1)? s1: save; 
....................    beg += strspn(beg, s2); 
....................    if (*beg == '\0') 
....................    { 
....................       *save = ' '; 
....................       return(0); 
....................    } 
....................    end = strpbrk(beg, s2); 
....................    if (*end != '\0') 
....................    { 
....................       *end = '\0'; 
....................       end++; 
....................    } 
....................    save = end; 
....................    return(beg); 
.................... } 
....................  
.................... /*****************************************************************/ 
.................... /*Miscellaneous functions*/ 
.................... /* standard template 
.................... maps error number in errnum to an error message string 
.................... Returns: Pointer to string 
.................... */ 
.................... #ifdef _ERRNO 
.................... char * strerror(unsigned int8 errnum) 
.................... { 
.................... char s[15]; 
.................... switch( errnum) 
.................... { 
.................... case 0: 
....................    strcpy(s,"no errors"); 
....................    return s; 
.................... case EDOM : 
....................    strcpy(s,"domain error"); 
....................    return s; 
.................... case ERANGE: 
....................    strcpy(s,"range error"); 
....................    return s; 
.................... } 
.................... } 
.................... #ENDIF 
.................... /* standard template: size_t strlen(const char *s). 
....................    Computes length of s1 (preceding terminating 0) */ 
....................  
.................... unsigned int8 strlen(char *s) 
.................... { 
....................    char *sc; 
....................  
....................    for (sc = s; *sc != 0; sc++); 
....................    return(sc - s); 
.................... } 
....................  
.................... /* standard template: size_t stricmp(const char *s1, const char *s2). 
....................    Compares s1 to s2 ignoring case (upper vs. lower) */ 
....................  
.................... signed int8 stricmp(char *s1, char *s2) 
.................... { 
....................  for(; *s1==*s2||(isalpha(*s1)&&isalpha(*s2)&&(*s1==*s2+32||*s2==*s1+32)); 
....................     s1++, s2++) 
....................     if (*s1 == '\0') 
....................        return(0); 
....................  return((*s1 < *s2) ? -1: 1); 
.................... } 
....................  
....................  
.................... /* standard template: char *strlwr(char *s). 
....................    Replaces uppercase letters by lowercase; 
....................    returns pointer to new string s */ 
....................  
.................... char *strlwr(char *s) 
.................... { 
....................    char *p; 
....................  
....................    for (p = s; *p != '\0'; p++) 
....................       if (*p >= 'A' && *p <='Z') 
....................          *p += 'a' - 'A'; 
....................    return(s); 
.................... } 
....................  
....................  
.................... /************************************************************/ 
....................  
....................  
.................... #endif 
....................  
.................... #include <stdlib.h> 
.................... /////////////////////////////////////////////////////////////////////////// 
.................... ////        (C) Copyright 1996,2007 Custom Computer Services           //// 
.................... //// This source code may only be used by licensed users of the CCS C  //// 
.................... //// compiler.  This source code may only be distributed to other      //// 
.................... //// licensed users of the CCS C compiler.  No other use, reproduction //// 
.................... //// or distribution is permitted without written permission.          //// 
.................... //// Derivative programs created using this software in object code    //// 
.................... //// form are not restricted in any way.                               //// 
.................... /////////////////////////////////////////////////////////////////////////// 
....................  
.................... #ifndef _STDLIB 
.................... #define _STDLIB 
....................  
.................... //--------------------------------------------------------------------------- 
.................... // Definitions and types 
.................... //--------------------------------------------------------------------------- 
....................  
.................... #ifndef RAND_MAX 
.................... #define RAND_MAX  32767    // The value of which is the maximum value 
....................                            // ... returned by the rand function 
.................... #endif 
....................  
....................  
.................... #IF (sizeof(int16*)>1) 
.................... #DEFINE LONG_POINTERS 1 
.................... #ELSE  
.................... #DEFINE LONG_POINTERS 0 
.................... #ENDIF 
....................  
.................... typedef struct { 
....................    signed int quot; 
....................    signed int rem; 
.................... } div_t; 
....................  
.................... typedef struct { 
....................    signed long quot; 
....................    signed long rem; 
.................... } ldiv_t; 
....................  
.................... #include <stddef.h> 
.................... /////////////////////////////////////////////////////////////////////////// 
.................... ////        (C) Copyright 1996,2003 Custom Computer Services           //// 
.................... //// This source code may only be used by licensed users of the CCS C  //// 
.................... //// compiler.  This source code may only be distributed to other      //// 
.................... //// licensed users of the CCS C compiler.  No other use, reproduction //// 
.................... //// or distribution is permitted without written permission.          //// 
.................... //// Derivative programs created using this software in object code    //// 
.................... //// form are not restricted in any way.                               //// 
.................... /////////////////////////////////////////////////////////////////////////// 
....................  
.................... #ifndef _STDDEF 
....................  
.................... #define _STDDEF 
....................  
.................... #if sizeof(unsigned int8 *)==1 
.................... #define ptrdiff_t unsigned int8 
.................... #else 
.................... #define ptrdiff_t unsigned int16 
.................... #endif 
....................  
.................... #define size_t unsigned int8 
.................... #define wchar_t char 
.................... #define NULL 0 
....................  
.................... #define offsetof(s,f) (offsetofbit(s,f)/8) 
....................  
.................... #endif 
....................  
....................  
.................... //--------------------------------------------------------------------------- 
.................... // String conversion functions 
.................... //--------------------------------------------------------------------------- 
....................  
.................... /* Standard template: signed int  atoi(char * s) 
....................  * converts the initial portion of the string s to a signed int 
....................  * returns the converted value if any, 0 otherwise 
....................  */ 
.................... signed int atoi(char *s); 
....................  
.................... /* Syntax: signed int32  atoi32(char * s) 
....................    converts the initial portion of the string s to a signed int32 
....................    returns the converted value if any, 0 otherwise*/ 
.................... #if (sizeof(long)==4) 
....................  #define atoi32(s) atol(s) 
.................... #else  
....................  signed int32 atoi32(char *s); 
.................... #endif 
....................  
.................... #if defined(__PCD__) 
.................... // The following functions only work on the 24 bit compiler 
.................... // for the 30F, 33F, 24F and 24H parts 
.................... /* Syntax: signed int48  atoi48(char * s) 
....................    converts the initial portion of the string s to a signed int48 
....................    returns the converted value if any, 0 otherwise*/ 
....................     
.................... signed int48 atoi48(char *s); 
....................  
.................... /* Syntax: signed int64  atoi64(char * s) 
....................    converts the initial portion of the string s to a signed int64 
....................    returns the converted value if any, 0 otherwise*/ 
.................... signed int64 atoi64(char *s); 
.................... #endif 
....................  
.................... /* Syntax: char *  itoa(signed int32 num, int8 base, char * s) 
....................    converts the signed int32 to a string and 
....................    returns the converted value if any, 0 otherwise*/ 
.................... char * itoa(signed int32 num, unsigned int base, char * s); 
....................  
.................... /* Standard template: signed int16  atol(char * s) 
....................  * converts the initial portion of the string s to a signed int16 
....................  * returns the converted value if any, 0 otherwise 
....................  */ 
.................... signed long atol(char *s); 
....................  
.................... /* Standard template: int16 strtoul(char * s,char *endptr,signed int base) 
....................  * converts the initial portion of the string s, represented as an 
....................  * integral value of radix base  to a signed long. 
....................  * Returns the converted value if any, 0 otherwise 
....................  * the final string is returned in the endptr, if endptr is not null 
....................  */ 
.................... signed long strtol(char *s,char *endptr, signed int base); 
....................  
.................... /* Standard template: int16 strtoul(char * s,char *endptr,signed int base) 
....................  * converts the initial portion of the string s, represented as an 
....................  * integral value of radix base to a unsigned long. 
....................  * returns the converted value if any, 0 otherwise 
....................  * the final string is returned in the endptr, if endptr is not null 
....................  */ 
.................... unsigned long strtoul(char *s,char *endptr, signed int base); 
....................  
.................... /* Standart template: float strtof(char * s,char *endptr) 
....................                       float48 strtof48(char *s,char *endptr); 
....................                       float64 strtod(char *s,char *endptr); 
....................  * converts the initial portion of the string s to a float32, float48 or float64, 
....................  * returns the converted value if any, 0 otherwise 
....................  * the final string is returned in the endptr, if endptr is not null                    
.................... */ 
.................... float strtof(char *s,char *endptr); 
.................... #if defined(__PCD__) 
.................... float48 strtof48(char *s,char *endptr); 
.................... float64 strtod(char *s,char *endptr); 
.................... #else 
.................... //provided for compatibility 
.................... #define strtof48(s, e) strtof(s, e) 
.................... #define strtod(s, e) strtof(s, e) 
.................... #endif 
....................  
.................... /* Standard template: float32 atof(char * s) 
....................  * converts the initial portion of the string s to a float. 
....................  * returns the converted value if any, 0 otherwise 
....................  */ 
.................... #define atof(s)   strtof(s, 0) 
....................  
.................... #if defined(__PCD__) 
.................... // The following functions only work on the 24 bit compiler 
.................... // for the 30F, 33F, 24F and 24H parts 
....................  
.................... /* Standard template: float48 atof48(char * s) 
....................  * converts the initial portion of the string s to a float. 
....................  * returns the converted value if any, 0 otherwise 
....................  */ 
.................... #define atof48(s) strtof48(s, 0) 
....................  
.................... /* Standard template: float64 atof64(char * s) 
....................  * converts the initial portion of the string s to a float. 
....................  * returns the converted value if any, 0 otherwise 
....................  */ 
.................... #define atof64(s) strtod(s, 0) 
.................... #endif 
....................  
.................... /* Standard template: float32 atoe(char * s) 
....................  * converts the initial portion of the string s to a float. 
....................  * returns the converted value if any, 0 otherwise 
....................  * also handles E format numbers 
....................  */ 
.................... #if !defined(__PCD__) 
.................... float atoe(char * s); 
.................... #endif 
....................  
.................... #if defined(__PCD__) 
.................... float32 atoe(char * s); 
.................... #endif 
....................  
.................... //--------------------------------------------------------------------------- 
.................... // Pseudo-random sequence generation functions 
.................... //--------------------------------------------------------------------------- 
....................  
.................... /* The rand function computes a sequence of pseudo-random integers in 
....................  * the range 0 to RAND_MAX 
....................  * 
....................  * Parameters: 
....................  *       (none) 
....................  * 
....................  * Returns: 
....................  *       The pseudo-random integer 
....................  */ 
.................... unsigned int16 rand(void); 
....................  
.................... /* The srand function uses the argument as a seed for a new sequence of 
....................  * pseudo-random numbers to be returned by subsequent calls to rand. 
....................  * 
....................  * Parameters: 
....................  *       [in] seed: The seed value to start from. You might need to pass 
....................  * 
....................  * Returns: 
....................  *       (none) 
....................  * 
....................  * Remarks 
....................  *          The srand function sets the starting point for generating 
....................  *       a series of pseudorandom integers. To reinitialize the 
....................  *       generator, use 1 as the seed argument. Any other value for 
....................  *       seed sets the generator to a random starting point. rand 
....................  *       retrieves the pseudorandom numbers that are generated. 
....................  *       Calling rand before any call to srand generates the same 
....................  *       sequence as calling srand with seed passed as 1. 
....................  *          Usually, you need to pass a time here from outer source 
....................  *       so that the numbers will be different every time you run. 
....................  */ 
.................... void srand(unsigned int32 seed); 
....................  
.................... //--------------------------------------------------------------------------- 
.................... // Memory management functions 
.................... //--------------------------------------------------------------------------- 
....................  
.................... // Comming soon 
....................  
.................... //--------------------------------------------------------------------------- 
.................... // Communication with the environment 
.................... //--------------------------------------------------------------------------- 
....................  
.................... /* The function returns 0 always 
....................  */ 
.................... signed int8 system(char *string); 
....................  
.................... //--------------------------------------------------------------------------- 
.................... // Searching and sorting utilities 
.................... //--------------------------------------------------------------------------- 
....................  
.................... /* Performs a binary search of a sorted array.. 
....................  * 
....................  * Parameters: 
....................  *       [in] key: Object to search for 
....................  *       [in] base: Pointer to base of search data 
....................  *       [in] num: Number of elements 
....................  *       [in] width: Width of elements 
....................  *       [in] compare: Function that compares two elements 
....................  * 
....................  * Returns: 
....................  *       bsearch returns a pointer to an occurrence of key in the array pointed 
....................  *       to by base. If key is not found, the function returns NULL. If the 
....................  *       array is not in order or contains duplicate records with identical keys, 
....................  *       the result is unpredictable. 
....................  */ 
.................... //void *bsearch(const void *key, const void *base, size_t num, size_t width, 
.................... //              int (*compare)(const void *, const void *)); 
....................  
.................... /* Performs the shell-metzner sort (not the quick sort algorithm). The contents 
....................  * of the array are sorted into ascending order according to a comparison 
....................  * function pointed to by compar. 
....................  * 
....................  * Parameters: 
....................  *       [in] base: Pointer to base of search data 
....................  *       [in] num: Number of elements 
....................  *       [in] width: Width of elements 
....................  *       [in] compare: Function that compares two elements 
....................  * 
....................  * Returns: 
....................  *       (none) 
....................  */ 
.................... //void *qsort(const void *base, size_t num, size_t width, 
.................... //              int (*compare)(const void *, const void *)); 
....................  
.................... //--------------------------------------------------------------------------- 
.................... // Integer arithmetic functions 
.................... //--------------------------------------------------------------------------- 
....................  
.................... #define labs abs 
....................  
.................... div_t div(signed int numer, signed int denom); 
.................... ldiv_t ldiv(signed long numer, signed long denom); 
....................  
.................... //--------------------------------------------------------------------------- 
.................... // Multibyte character functions 
.................... //--------------------------------------------------------------------------- 
....................  
.................... // Not supported 
....................  
.................... //--------------------------------------------------------------------------- 
.................... // Multibyte string functions 
.................... //--------------------------------------------------------------------------- 
....................  
.................... // Not supported 
....................  
....................  
.................... //--------------------------------------------------------------------------- 
.................... // Internal implementation 
.................... //--------------------------------------------------------------------------- 
....................  
.................... #include <stddef.h> 
.................... /////////////////////////////////////////////////////////////////////////// 
.................... ////        (C) Copyright 1996,2003 Custom Computer Services           //// 
.................... //// This source code may only be used by licensed users of the CCS C  //// 
.................... //// compiler.  This source code may only be distributed to other      //// 
.................... //// licensed users of the CCS C compiler.  No other use, reproduction //// 
.................... //// or distribution is permitted without written permission.          //// 
.................... //// Derivative programs created using this software in object code    //// 
.................... //// form are not restricted in any way.                               //// 
.................... /////////////////////////////////////////////////////////////////////////// 
....................  
.................... #ifndef _STDDEF 
....................  
.................... #define _STDDEF 
....................  
.................... #if sizeof(unsigned int8 *)==1 
.................... #define ptrdiff_t unsigned int8 
.................... #else 
.................... #define ptrdiff_t unsigned int16 
.................... #endif 
....................  
.................... #define size_t unsigned int8 
.................... #define wchar_t char 
.................... #define NULL 0 
....................  
.................... #define offsetof(s,f) (offsetofbit(s,f)/8) 
....................  
.................... #endif 
....................  
.................... #include <string.h> 
.................... //////////////////////////////////////////////////////////////////////////// 
.................... ////        (C) Copyright 1996,2008 Custom Computer Services            //// 
.................... //// This source code may only be used by licensed users of the CCS C   //// 
.................... //// compiler.  This source code may only be distributed to other       //// 
.................... //// licensed users of the CCS C compiler.  No other use, reproduction  //// 
.................... //// or distribution is permitted without written permission.           //// 
.................... //// Derivative programs created using this software in object code     //// 
.................... //// form are not restricted in any way.                                //// 
.................... //////////////////////////////////////////////////////////////////////////// 
....................  
.................... #ifndef _STRING 
.................... #define _STRING 
.................... #include <stddef.h> 
.................... #include <ctype.h> 
....................  
....................  
....................  
.................... ////////////////////////////////////////////// 
.................... //// Uncomment the following define to    //// 
.................... //// allow some functions to use a        //// 
.................... //// quicker algorithm, but use more ROM  //// 
.................... ////                                      //// 
.................... //// #define FASTER_BUT_MORE_ROM          //// 
.................... ////////////////////////////////////////////// 
....................  
....................  
....................  
.................... /*Copying functions*/ 
.................... /* standard template: 
....................    void *memmove(void *s1, void *s2, size_t n). 
....................    Copies max of n characters safely (not following ending '\0') 
....................    from s2 in s1; if s2 has less than n characters, appends 0 */ 
....................  
.................... char *memmove(void *s1,char *s2,size_t n) 
.................... { 
....................    char *sc1; 
....................    char *sc2; 
....................    sc1=s1; 
....................    sc2=s2; 
....................    if(sc2<sc1 && sc1 <sc2 +n) 
....................       for(sc1+=n,sc2+=n;0<n;--n) 
....................          *--sc1=*--sc2; 
....................    else 
....................       for(;0<n;--n) 
....................          *sc1++=*sc2++; 
....................   return s1; 
....................   } 
....................  
.................... /* Standard template: char *strcpy(char *s1, const char *s2) 
....................    copies the string s2 including the null character to s1. 
....................    This is a compiler built in to handle the different address 
....................    spaces */ 
....................  
.................... #define strcopy strcpy 
....................  
.................... /* standard template: 
....................    char *strncpy(char *s1, const char *s2, size_t n). 
....................    Copies max of n characters (not following ending '\0') 
....................    from s2 in s1; if s2 has less than n characters, appends 0 */ 
....................  
.................... char *strncpy(char *s1, char *s2, size_t n) 
.................... { 
....................   char *s; 
....................  
....................   for (s = s1; n > 0 && *s2 != '\0'; n--) 
....................      *s++ = *s2++; 
....................   for (; n > 0; n--) 
....................      *s++ = '\0'; 
....................  
....................   return(s1); 
.................... } 
.................... /***********************************************************/ 
....................  
.................... /*concatenation functions*/ 
.................... /* standard template: char *strcat(char *s1, const char *s2) 
.................... appends s2 to s1*/ 
....................  
.................... char *strcat(char *s1, char *s2) 
.................... { 
....................    char *s; 
....................  
....................    for (s = s1; *s != '\0'; ++s); 
....................    while(*s2 != '\0') 
....................    { 
....................       *s = *s2; 
....................       ++s; 
....................       ++s2; 
....................    } 
....................  
....................    *s = '\0'; 
....................    return(s1); 
.................... } 
.................... /* standard template: char *strncat(char *s1, char *s2,size_t n) 
.................... appends not more than n characters from s2 to s1*/ 
....................  
.................... char *strncat(char *s1, char *s2, size_t n) 
.................... { 
....................    char *s; 
....................  
....................    for (s = s1; *s != '\0'; ++s); 
....................    while(*s2 != '\0' && 0<n) 
....................    { 
....................       *s = *s2; 
....................       ++s; 
....................       ++s2; 
....................       --n; 
....................    } 
....................  
....................    *s = '\0'; 
....................    return(s1); 
.................... } 
....................  
.................... /***********************************************************/ 
....................  
....................  
.................... /*comparison functions*/ 
.................... /* standard template: signed int memcmp(void *s1, void *s2). 
....................    Compares s1 & s2; returns -1 if s1<s2, 0 if s1=s2, 1 if s1>s2 */ 
....................  
.................... signed int8 memcmp(void * s1,char *s2,size_t n) 
.................... { 
.................... char *su1, *su2; 
.................... for(su1=s1, su2=s2; 0<n; ++su1, ++su2, --n) 
.................... { 
....................    if(*su1!=*su2) 
....................       return ((*su1<*su2)?-1:+1); 
.................... } 
.................... return 0; 
.................... } 
....................  
.................... /* standard template: int strcmp(const char *s1, const char *s2). 
....................    Compares s1 & s2; returns -1 if s1<s2, 0 if s1=s2, 1 if s1>s2 */ 
....................  
.................... signed int8 strcmp(char *s1, char *s2) 
.................... { 
....................    for (; *s1 == *s2; s1++, s2++) 
....................       if (*s1 == '\0') 
....................          return(0); 
....................    return((*s1 < *s2) ? -1: 1); 
.................... } 
.................... /* standard template: int strcoll(const char *s1, const char *s2). 
....................    Compares s1 & s2; returns -1 if s1<s2, 0 if s1=s2, 1 if s1>s2 */ 
....................  
.................... signed int8 strcoll(char *s1, char *s2) 
.................... { 
....................    for (; *s1 == *s2; s1++, s2++) 
....................       if (*s1 == '\0') 
....................          return(0); 
....................    return((*s1 < *s2) ? -1: 1); 
.................... } 
....................  
.................... /* standard template: 
....................    int strncmp(const char *s1, const char *s2, size_t n). 
....................    Compares max of n characters (not following 0) from s1 to s2; 
....................    returns same as strcmp */ 
....................  
.................... signed int8 strncmp(char *s1, char *s2, size_t n) 
.................... { 
....................    for (; n > 0; s1++, s2++, n--) 
....................       if (*s1 != *s2) 
....................          return((*s1 <*s2) ? -1: 1); 
....................       else if (*s1 == '\0') 
....................          return(0); 
....................    return(0); 
.................... } 
.................... /* standard template: 
....................    int strxfrm(const char *s1, const char *s2, size_t n). 
....................    transforms maximum of n characters from s2 and places them into s1*/ 
.................... size_t strxfrm(char *s1, char *s2, size_t n) 
.................... { 
....................   char *s; 
....................   unsigned int8 n1; 
....................   n1=n; 
....................   for (s = s1; n > 0 && *s2 != '\0'; n--) 
....................      *s++ = *s2++; 
....................   for (; n > 0; n--) 
....................      *s++ = '\0'; 
....................  
....................   return(n1); 
.................... } 
....................  
....................  
....................  
....................  
....................  
.................... /***********************************************************/ 
.................... /*Search functions*/ 
.................... /* standard template: void *memchr(const char *s, int c). 
....................    Finds first occurrence of c in n characters of s */ 
....................  
.................... char *memchr(void *s,unsigned int8 c,size_t n) 
.................... { 
....................    char uc; 
....................    char *su; 
....................    uc=c; 
....................    for(su=s;0<n;++su,--n) 
....................       if(*su==uc) 
....................       return su; 
....................    return NULL; 
.................... } 
....................  
.................... /* standard template: char *strchr(const char *s, int c). 
....................    Finds first occurrence of c in s */ 
....................  
.................... char *strchr(char *s, unsigned int8 c) 
.................... { 
....................    for (; *s != c; s++) 
....................       if (*s == '\0') 
....................          return(0); 
....................    return(s); 
.................... } 
.................... /* standard template: 
....................    size_t strcspn(const char *s1, const char *s2). 
....................    Computes length of max initial segment of s1 that 
....................    consists entirely of characters NOT from s2*/ 
....................  
.................... unsigned int8  strcspn(char *s1, char *s2) 
.................... { 
....................    char *sc1, *sc2; 
....................  
....................    for (sc1 = s1; *sc1 != 0; sc1++) 
....................       for (sc2 = s2; *sc2 != 0; sc2++) 
....................          if (*sc1 == *sc2) 
....................             return(sc1 - s1); 
....................    return(sc1 - s1); 
.................... } 
.................... /* standard template: 
....................    char *strpbrk(const char *s1, const char *s2). 
....................    Locates first occurence of any character from s2 in s1; 
....................    returns s1 if s2 is empty string */ 
....................  
.................... char *strpbrk(char *s1, char *s2) 
.................... { 
....................    char *sc1, *sc2; 
....................  
....................    for (sc1 = s1; *sc1 != 0; sc1++) 
....................       for (sc2 = s2; *sc2 != 0; sc2++) 
....................          if (*sc1 == *sc2) 
....................             return(sc1); 
....................    return(0); 
.................... } 
....................  
....................  
.................... /* standard template: char *strrchr(const char *s, int c). 
....................    Finds last occurrence of c in s */ 
....................  
.................... char *strrchr(char *s, unsigned int8 c) 
.................... { 
....................    char *p; 
....................  
....................    for (p = 0; ; s++) 
....................    { 
....................       if (*s == c) 
....................          p = s; 
....................       if (*s == '\0') 
....................          return(p); 
....................    } 
.................... } 
.................... /* computes length of max initial segment of s1 consisting 
....................    entirely of characters from s2 */ 
....................  
.................... unsigned int8  strspn(char *s1, char *s2) 
.................... { 
....................    char *sc1, *sc2; 
....................  
....................    for (sc1 = s1; *sc1 != 0; sc1++) 
....................       for (sc2 = s2; ; sc2++) 
....................     if (*sc2 == '\0') 
....................        return(sc1 - s1); 
....................          else if (*sc1 == *sc2) 
....................             break; 
....................    return(sc1 - s1); 
.................... } 
.................... /* standard template: 
....................    char *strstr(const char *s1, const char *s2); 
....................    Locates first occurence of character sequence s2 in s1; 
....................    returns 0 if s2 is empty string 
....................  
....................    Uncomment #define FASTER_BUT_MORE_ROM at the top of the 
....................    file to use the faster algorithm */ 
.................... char *strstr(char *s1, char *s2) 
.................... { 
....................    char *s, *t; 
....................  
....................    #ifdef FASTER_BUT_MORE_ROM 
....................    if (*s2 == '\0') 
....................          return(s1); 
....................    #endif 
....................  
....................    while (*s1) 
....................    { 
....................       for(s = s1, t = s2; *t && (*s == *t); ++s, ++t); 
....................  
....................       if (*t == '\0') 
....................          return s1; 
....................       ++s1; 
....................       #ifdef FASTER_BUT_MORE_ROM 
....................          while(*s1 != '\0' && *s1 != *s2) 
....................             ++s1; 
....................       #endif 
....................    } 
....................    return 0; 
.................... } 
....................  
.................... /* standard template: char *strtok(char *s1, const char *s2). 
....................  
....................    Finds next token in s1 delimited by a character from separator 
....................    string s2 (which can be different from call to call).  First call 
....................    starts at beginning of s1 searching for first character NOT 
....................    contained in s2; returns 0 if none is found. 
....................    If one is found, it is the start of first token (return value). 
....................    Function then searches from there for a character contained in s2. 
....................    If none is found, current token extends to end of s1, and subsequent 
....................    searches for a token will return 0.  If one is found, it is 
....................    overwritten by '\0', which terminates current token.  Function saves 
....................    pointer to following character from which next search will start. 
....................    Each subsequent call, with 0 as first argument, starts searching 
....................    from saved pointer */ 
....................  
.................... char *strtok(char *s1, char *s2) 
.................... { 
....................    char *beg, *end; 
....................    static char *save; 
....................  
....................    beg = (s1)? s1: save; 
....................    beg += strspn(beg, s2); 
....................    if (*beg == '\0') 
....................    { 
....................       *save = ' '; 
....................       return(0); 
....................    } 
....................    end = strpbrk(beg, s2); 
....................    if (*end != '\0') 
....................    { 
....................       *end = '\0'; 
....................       end++; 
....................    } 
....................    save = end; 
....................    return(beg); 
.................... } 
....................  
.................... /*****************************************************************/ 
.................... /*Miscellaneous functions*/ 
.................... /* standard template 
.................... maps error number in errnum to an error message string 
.................... Returns: Pointer to string 
.................... */ 
.................... #ifdef _ERRNO 
.................... char * strerror(unsigned int8 errnum) 
.................... { 
.................... char s[15]; 
.................... switch( errnum) 
.................... { 
.................... case 0: 
....................    strcpy(s,"no errors"); 
....................    return s; 
.................... case EDOM : 
....................    strcpy(s,"domain error"); 
....................    return s; 
.................... case ERANGE: 
....................    strcpy(s,"range error"); 
....................    return s; 
.................... } 
.................... } 
.................... #ENDIF 
.................... /* standard template: size_t strlen(const char *s). 
....................    Computes length of s1 (preceding terminating 0) */ 
....................  
.................... unsigned int8 strlen(char *s) 
.................... { 
....................    char *sc; 
....................  
....................    for (sc = s; *sc != 0; sc++); 
....................    return(sc - s); 
.................... } 
....................  
.................... /* standard template: size_t stricmp(const char *s1, const char *s2). 
....................    Compares s1 to s2 ignoring case (upper vs. lower) */ 
....................  
.................... signed int8 stricmp(char *s1, char *s2) 
.................... { 
....................  for(; *s1==*s2||(isalpha(*s1)&&isalpha(*s2)&&(*s1==*s2+32||*s2==*s1+32)); 
....................     s1++, s2++) 
....................     if (*s1 == '\0') 
....................        return(0); 
....................  return((*s1 < *s2) ? -1: 1); 
.................... } 
....................  
....................  
.................... /* standard template: char *strlwr(char *s). 
....................    Replaces uppercase letters by lowercase; 
....................    returns pointer to new string s */ 
....................  
.................... char *strlwr(char *s) 
.................... { 
....................    char *p; 
....................  
....................    for (p = s; *p != '\0'; p++) 
....................       if (*p >= 'A' && *p <='Z') 
....................          *p += 'a' - 'A'; 
....................    return(s); 
.................... } 
....................  
....................  
.................... /************************************************************/ 
....................  
....................  
.................... #endif 
....................  
....................  
.................... div_t div(signed int numer, signed int denom) 
.................... { 
....................    div_t val; 
....................    val.quot = numer / denom; 
....................    val.rem = numer - (denom * val.quot); 
....................    return (val); 
.................... } 
....................  
.................... ldiv_t ldiv(signed long numer, signed long denom) 
.................... { 
....................    ldiv_t val; 
....................  
....................    val.quot = numer / denom; 
....................    val.rem = numer - (denom * val.quot); 
....................    return (val); 
.................... } 
....................  
.................... #if defined(__PCD__) 
.................... float32 atoe(char * s) 
.................... { 
....................    float32 pow10 = 1.0; 
....................    float32 result = 0.0; 
....................    unsigned int8 sign = 0; 
....................    unsigned int8 expsign = 0; 
....................    char c; 
....................    unsigned int8 ptr = 0; 
....................    unsigned int8 i; 
....................    float32 exp = 1.0; 
....................    unsigned int8 expcnt = 0; 
....................  
....................    c = s[ptr++]; 
....................  
....................    if ((c>='0' && c<='9') || c=='+' || c=='-' || c=='.' || c=='E' || c=='e') { 
....................       if(c == '-') { 
....................          sign = 1; 
....................          c = s[ptr++]; 
....................       } 
....................       if(c == '+') 
....................          c = s[ptr++]; 
....................  
....................       while((c >= '0' && c <= '9')) { 
....................          result = 10*result + c - '0'; 
....................          c = s[ptr++]; 
....................       } 
....................  
....................       if (c == '.') { 
....................          c = s[ptr++]; 
....................          while((c >= '0' && c <= '9')) { 
....................              pow10 = pow10*10; 
....................              result += (c - '0')/pow10; 
....................              c = s[ptr++]; 
....................          } 
....................       } 
....................  
....................       // Handling the exponent 
....................       if (c=='e' || c=='E') { 
....................          c = s[ptr++]; 
....................  
....................          if(c == '-') { 
....................             expsign = 1; 
....................             c = s[ptr++]; 
....................          } 
....................          if(c == '+') 
....................             c = s[ptr++]; 
....................  
....................          while((c >= '0' && c <= '9')) { 
....................             expcnt = 10*expcnt + c - '0'; 
....................             c = s[ptr++]; 
....................          } 
....................  
....................          for(i=0;i<expcnt;i++) 
....................             exp*=10; 
....................  
....................          if(expsign==1) 
....................             result/=exp; 
....................          else 
....................             result*=exp; 
....................       } 
....................    } 
....................  
....................    if (sign == 1) 
....................       result = -1*result; 
....................    return(result); 
.................... } 
.................... #endif 
....................  
.................... #if !defined(__PCD__) 
.................... float atoe(char * s) 
.................... { 
....................    float pow10 = 1.0; 
....................    float result = 0.0; 
....................    unsigned int8 sign = 0; 
....................    unsigned int8 expsign = 0; 
....................    char c; 
....................    unsigned int8 ptr = 0; 
....................    unsigned int8 i; 
....................    float exp = 1.0; 
....................    unsigned int8 expcnt = 0; 
....................  
....................    c = s[ptr++]; 
....................  
....................    if ((c>='0' && c<='9') || c=='+' || c=='-' || c=='.' || c=='E' || c=='e') { 
....................       if(c == '-') { 
....................          sign = 1; 
....................          c = s[ptr++]; 
....................       } 
....................       if(c == '+') 
....................          c = s[ptr++]; 
....................  
....................       while((c >= '0' && c <= '9')) { 
....................          result = 10*result + c - '0'; 
....................          c = s[ptr++]; 
....................       } 
....................  
....................       if (c == '.') { 
....................          c = s[ptr++]; 
....................          while((c >= '0' && c <= '9')) { 
....................              pow10 = pow10*10; 
....................              result += (c - '0')/pow10; 
....................              c = s[ptr++]; 
....................          } 
....................       } 
....................  
....................       // Handling the exponent 
....................       if (c=='e' || c=='E') { 
....................          c = s[ptr++]; 
....................  
....................          if(c == '-') { 
....................             expsign = 1; 
....................             c = s[ptr++]; 
....................          } 
....................          if(c == '+') 
....................             c = s[ptr++]; 
....................  
....................          while((c >= '0' && c <= '9')) { 
....................             expcnt = 10*expcnt + c - '0'; 
....................             c = s[ptr++]; 
....................          } 
....................  
....................          for(i=0;i<expcnt;i++) 
....................             exp*=10; 
....................  
....................          if(expsign==1) 
....................             result/=exp; 
....................          else 
....................             result*=exp; 
....................       } 
....................    } 
....................  
....................    if (sign == 1) 
....................       result = -1*result; 
....................    return(result); 
.................... } 
.................... #endif 
....................  
.................... signed int atoi(char *s) 
.................... { 
....................    signed int result; 
....................    unsigned int sign, base, index; 
....................    char c; 
....................  
....................    index = 0; 
....................    sign = 0; 
....................    base = 10; 
....................    result = 0; 
....................  
....................    if (!s) 
....................       return 0; 
....................    // Omit all preceeding alpha characters 
....................    c = s[index++]; 
....................  
....................    // increase index if either positive or negative sign is detected 
....................    if (c == '-') 
....................    { 
....................       sign = 1;         // Set the sign to negative 
....................       c = s[index++]; 
....................    } 
....................    else if (c == '+') 
....................    { 
....................       c = s[index++]; 
....................    } 
....................  
....................    if (c >= '0' && c <= '9') 
....................    { 
....................  
....................       // Check for hexa number 
....................       if (c == '0' && (s[index] == 'x' || s[index] == 'X')) 
....................       { 
....................          base = 16; 
....................          index++; 
....................          c = s[index++]; 
....................       } 
....................  
....................       // The number is a decimal number 
....................       if (base == 10) 
....................       { 
....................          while (c >= '0' && c <= '9') 
....................          { 
....................             result = 10*result + (c - '0'); 
....................             c = s[index++]; 
....................          } 
....................       } 
....................       else if (base == 16)    // The number is a hexa number 
....................       { 
....................          c = toupper(c); 
....................          while ( (c >= '0' && c <= '9') || (c >= 'A' && c<='F')) 
....................          { 
....................             if (c >= '0' && c <= '9') 
....................                result = (result << 4) + (c - '0'); 
....................             else 
....................                result = (result << 4) + (c - 'A' + 10); 
....................  
....................             c = s[index++]; 
....................             c = toupper(c); 
....................          } 
....................       } 
....................    } 
....................  
....................    if (sign == 1 && base == 10) 
....................        result = -result; 
....................  
....................    return(result); 
.................... } 
....................  
.................... signed long atol(char *s) 
.................... { 
....................    signed long result; 
....................    unsigned int sign, base, index; 
....................    char c; 
....................  
....................    index = 0; 
....................    sign = 0; 
....................    base = 10; 
....................    result = 0; 
....................  
....................    if (!s) 
....................       return 0; 
....................    c = s[index++]; 
....................  
....................    // increase index if either positive or negative sign is detected 
....................    if (c == '-') 
....................    { 
....................       sign = 1;         // Set the sign to negative 
....................       c = s[index++]; 
....................    } 
....................    else if (c == '+') 
....................    { 
....................       c = s[index++]; 
....................    } 
....................  
....................    if (c >= '0' && c <= '9') 
....................    { 
....................       if (c == '0' && (s[index] == 'x' || s[index] == 'X')) 
....................       { 
....................          base = 16; 
....................          index++; 
....................          c = s[index++]; 
....................       } 
....................  
....................       // The number is a decimal number 
....................       if (base == 10) 
....................       { 
....................          while (c >= '0' && c <= '9') 
....................          { 
....................             result = 10*result + (c - '0'); 
....................             c = s[index++]; 
....................          } 
....................       } 
....................       else if (base == 16)    // The number is a hexa number 
....................       { 
....................          c = toupper(c); 
....................          while ( (c >= '0' && c <= '9') || (c >= 'A' && c <='F')) 
....................          { 
....................             if (c >= '0' && c <= '9') 
....................                result = (result << 4) + (c - '0'); 
....................             else 
....................                result = (result << 4) + (c - 'A' + 10); 
....................  
....................             c = s[index++];c = toupper(c); 
....................          } 
....................       } 
....................    } 
....................  
....................    if (base == 10 && sign == 1) 
....................       result = -result; 
....................  
....................    return(result); 
.................... } 
....................  
.................... /* A fast routine to multiply by 10 
....................  */ 
.................... signed int32 mult_with10(int32 num) 
.................... { 
....................    return ( (num << 1) + (num << 3) ); 
.................... } 
....................  
.................... #if sizeof(long)==2 
.................... signed int32 atoi32(char *s) 
.................... { 
....................    signed int32 result; 
....................    int8 sign, base, index; 
....................    char c; 
....................  
....................    index = 0; 
....................    sign = 0; 
....................    base = 10; 
....................    result = 0; 
....................  
....................    if (!s) 
....................       return 0; 
....................    c = s[index++]; 
....................  
....................    // increase index if either positive or negative sign is detected 
....................    if (c == '-') 
....................    { 
....................       sign = 1;         // Set the sign to negative 
....................       c = s[index++]; 
....................    } 
....................    else if (c == '+') 
....................    { 
....................       c = s[index++]; 
....................    } 
....................  
....................    if (c >= '0' && c <= '9') 
....................    { 
....................       if (c == '0' && (s[index] == 'x' || s[index] == 'X')) 
....................       { 
....................          base = 16; 
....................          index++; 
....................          c = s[index++]; 
....................       } 
....................  
....................       // The number is a decimal number 
....................       if (base == 10) 
....................       { 
....................          while (c >= '0' && c <= '9') { 
....................             result = (result << 1) + (result << 3);  // result *= 10; 
....................             result += (c - '0'); 
....................             c = s[index++]; 
....................          } 
....................       } 
....................       else if (base == 16)    // The number is a hexa number 
....................       { 
....................          c = toupper(c); 
....................          while ((c >= '0' && c <= '9') || (c >= 'A' && c <='F')) 
....................          { 
....................             if (c >= '0' && c <= '9') 
....................                result = (result << 4) + (c - '0'); 
....................             else 
....................                result = (result << 4) + (c - 'A' + 10); 
....................  
....................             c = s[index++];c = toupper(c); 
....................          } 
....................       } 
....................    } 
....................  
....................    if (base == 10 && sign == 1) 
....................       result = -result; 
....................  
....................    return(result); 
.................... } 
.................... #endif 
....................  
.................... #if defined(__PCD__) 
....................  
.................... signed int48 atoi48(char *s) 
.................... { 
....................    signed int48 result; 
....................    int8 sign, base, index; 
....................    char c; 
....................  
....................    index = 0; 
....................    sign = 0; 
....................    base = 10; 
....................    result = 0; 
....................  
....................    if (!s) 
....................       return 0; 
....................    c = s[index++]; 
....................  
....................    // increase index if either positive or negative sign is detected 
....................    if (c == '-') 
....................    { 
....................       sign = 1;         // Set the sign to negative 
....................       c = s[index++]; 
....................    } 
....................    else if (c == '+') 
....................    { 
....................       c = s[index++]; 
....................    } 
....................  
....................    if (c >= '0' && c <= '9') 
....................    { 
....................       if (c == '0' && (s[index] == 'x' || s[index] == 'X')) 
....................       { 
....................          base = 16; 
....................          index++; 
....................          c = s[index++]; 
....................       } 
....................  
....................       // The number is a decimal number 
....................       if (base == 10) 
....................       { 
....................          while (c >= '0' && c <= '9') { 
....................             result = (result << 1) + (result << 3);  // result *= 10; 
....................             result += (c - '0'); 
....................             c = s[index++]; 
....................          } 
....................       } 
....................       else if (base == 16)    // The number is a hexa number 
....................       { 
....................          c = toupper(c); 
....................          while ((c >= '0' && c <= '9') || (c >= 'A' && c <='F')) 
....................          { 
....................             if (c >= '0' && c <= '9') 
....................                result = (result << 4) + (c - '0'); 
....................             else 
....................                result = (result << 4) + (c - 'A' + 10); 
....................  
....................             c = s[index++];c = toupper(c); 
....................          } 
....................       } 
....................    } 
....................  
....................    if (base == 10 && sign == 1) 
....................       result = -result; 
....................  
....................    return(result); 
.................... } 
....................  
.................... signed int64 atoi64(char *s) 
.................... { 
....................    signed int64 result; 
....................    int8 sign, base, index; 
....................    char c; 
....................  
....................    index = 0; 
....................    sign = 0; 
....................    base = 10; 
....................    result = 0; 
....................  
....................    if (!s) 
....................       return 0; 
....................    c = s[index++]; 
....................  
....................    // increase index if either positive or negative sign is detected 
....................    if (c == '-') 
....................    { 
....................       sign = 1;         // Set the sign to negative 
....................       c = s[index++]; 
....................    } 
....................    else if (c == '+') 
....................    { 
....................       c = s[index++]; 
....................    } 
....................  
....................    if (c >= '0' && c <= '9') 
....................    { 
....................       if (c == '0' && (s[index] == 'x' || s[index] == 'X')) 
....................       { 
....................          base = 16; 
....................          index++; 
....................          c = s[index++]; 
....................       } 
....................  
....................       // The number is a decimal number 
....................       if (base == 10) 
....................       { 
....................          while (c >= '0' && c <= '9') { 
....................             result = (result << 1) + (result << 3);  // result *= 10; 
....................             result += (c - '0'); 
....................             c = s[index++]; 
....................          } 
....................       } 
....................       else if (base == 16)    // The number is a hexa number 
....................       { 
....................          c = toupper(c); 
....................          while ((c >= '0' && c <= '9') || (c >= 'A' && c <='F')) 
....................          { 
....................             if (c >= '0' && c <= '9') 
....................                result = (result << 4) + (c - '0'); 
....................             else 
....................                result = (result << 4) + (c - 'A' + 10); 
....................  
....................             c = s[index++];c = toupper(c); 
....................          } 
....................       } 
....................    } 
....................  
....................    if (base == 10 && sign == 1) 
....................       result = -result; 
....................  
....................    return(result); 
.................... } 
.................... #endif 
....................  
.................... char * itoa(signed int32 num, unsigned int base, char * s) 
.................... { 
....................      unsigned int32 temp=1; 
....................      unsigned int8 i,sign=0,cnt=0; 
....................      char c; 
....................  
....................      if(num<0) { 
....................          sign=1;        // Check for negative number 
....................          num*=-1; 
....................      } 
....................  
....................      while(temp>0) { 
....................          temp=(num/base); 
....................          s[cnt]=(num%base)+'0';    // Conversion 
....................  
....................          if(s[cnt]>0x39) 
....................             s[cnt]+=0x7; 
....................  
....................          cnt++; 
....................          num=temp; 
....................      } 
....................  
....................      if(sign==1) { 
....................          s[cnt]=0x2D;      // Negative sign 
....................          cnt++; 
....................      } 
....................  
....................      for(i = 0;i<(int8)(cnt/2);i++) { 
....................  
....................          c=s[i]; 
....................          s[i]=s[cnt-i-1];        // Reverse the number 
....................          s[cnt-i-1]=c; 
....................      } 
....................      s[cnt]='\0';     // End the string 
....................      return s; 
.................... } 
....................  
.................... float strtof(char *s, char *endptr) 
.................... { 
....................    float pow10 = 1.0; 
....................    float result = 0.0; 
....................    int1 skip = 1, sign = 0, point = 0; 
....................    char c; 
....................    unsigned int8 ptr = 0; 
....................  
....................    if (!s) 
....................       return 0; 
....................  
....................    for(c=s[ptr++]; c!=0; c=s[ptr++]) 
....................    { 
....................       if (skip && !isspace(c)) 
....................       { 
....................          skip = 0; 
....................          if (c == '+') 
....................          { 
....................             sign = 0; 
....................             continue; 
....................          }             
....................          else if (c == '-') 
....................          { 
....................             sign = 1; 
....................             continue; 
....................          } 
....................       } 
....................       if (!skip && (c == '.') && !point) 
....................          point = 1; 
....................       else if (!skip && isdigit(c)) 
....................       { 
....................          c -= '0'; 
....................          if (point) 
....................          { 
....................             pow10 = pow10 * 10.0; 
....................             result += (float)c / pow10;    
....................          } 
....................          else 
....................          { 
....................             result = 10.0 * result + (float)c; 
....................          } 
....................       } 
....................       else if (!skip) 
....................          break; 
....................    } 
....................  
....................    if (sign) 
....................       result = -1*result; 
....................        
....................    if(endptr) 
....................    { 
....................       if (ptr) { 
....................          ptr--; 
....................        #IF LONG_POINTERS  
....................          *((long *)endptr)= s+ptr;  
....................        #ELSE 
....................          *((char *)endptr)=s+ptr; 
....................        #ENDIF 
....................       } 
....................       else 
....................       { 
....................       #IF LONG_POINTERS 
....................       *((long *)endptr)= s;  
....................       #ELSE 
....................       *((char *)endptr)=s; 
....................       #ENDIF 
....................       } 
....................    } 
....................  
....................    return(result); 
.................... } 
....................  
.................... #if defined(__PCD__) 
.................... float48 strtof48(char *s, char *endptr) 
.................... { 
....................    float48 pow10 = 1.0; 
....................    float48 result = 0.0; 
....................    int1 skip = 1, sign = 0, point = 0; 
....................    char c; 
....................    unsigned int8 ptr = 0; 
....................  
....................    if (!s) 
....................       return 0; 
....................  
....................    for(c=s[ptr++]; c!=0; c=s[ptr++]) 
....................    { 
....................       if (skip && !isspace(c)) 
....................       { 
....................          skip = 0; 
....................          if (c == '+') 
....................          { 
....................             sign = 0; 
....................             continue; 
....................          }             
....................          else if (c == '-') 
....................          { 
....................             sign = 1; 
....................             continue; 
....................          } 
....................       } 
....................       if (!skip && (c == '.') && !point) 
....................          point = 1; 
....................       else if (!skip && isdigit(c)) 
....................       { 
....................          c -= '0'; 
....................          if (point) 
....................          { 
....................             pow10 = pow10 * 10.0; 
....................             result += (float48)c / pow10;    
....................          } 
....................          else 
....................          { 
....................             result = 10.0 * result + (float48)c; 
....................          } 
....................       } 
....................       else if (!skip) 
....................          break; 
....................    } 
....................  
....................    if (sign) 
....................       result = -1*result; 
....................        
....................    if(endptr) 
....................    { 
....................       if (ptr) { 
....................          ptr--; 
....................        #IF LONG_POINTERS  
....................          *((long *)endptr)= s+ptr;  
....................        #ELSE 
....................          *((char *)endptr)=s+ptr; 
....................        #ENDIF 
....................       } 
....................       else 
....................       { 
....................       #IF LONG_POINTERS 
....................       *((long *)endptr)= s;  
....................       #ELSE 
....................       *((char *)endptr)=s; 
....................       #ENDIF 
....................       } 
....................    } 
....................  
....................    return(result); 
.................... } 
....................  
.................... float64 strtod(char *s, char *endptr) 
.................... { 
....................    float64 pow10 = 1.0; 
....................    float64 result = 0.0; 
....................    int1 skip = 1, sign = 0, point = 0; 
....................    char c; 
....................    unsigned int8 ptr = 0; 
....................  
....................    if (!s) 
....................       return 0; 
....................  
....................    for(c=s[ptr++]; c!=0; c=s[ptr++]) 
....................    { 
....................       if (skip && !isspace(c)) 
....................       { 
....................          skip = 0; 
....................          if (c == '+') 
....................          { 
....................             sign = 0; 
....................             continue; 
....................          }             
....................          else if (c == '-') 
....................          { 
....................             sign = 1; 
....................             continue; 
....................          } 
....................       } 
....................       if (!skip && (c == '.') && !point) 
....................          point = 1; 
....................       else if (!skip && isdigit(c)) 
....................       { 
....................          c -= '0'; 
....................          if (point) 
....................          { 
....................             pow10 = pow10 * 10.0; 
....................             result += (float64)c / pow10;    
....................          } 
....................          else 
....................          { 
....................             result = 10.0 * result + (float64)c; 
....................          } 
....................       } 
....................       else if (!skip) 
....................          break; 
....................    } 
....................  
....................    if (sign) 
....................       result = -1*result; 
....................        
....................    if(endptr) 
....................    { 
....................       if (ptr) { 
....................          ptr--; 
....................        #IF LONG_POINTERS  
....................          *((long *)endptr)= s+ptr;  
....................        #ELSE 
....................          *((char *)endptr)=s+ptr; 
....................        #ENDIF 
....................       } 
....................       else 
....................       { 
....................       #IF LONG_POINTERS 
....................       *((long *)endptr)= s;  
....................       #ELSE 
....................       *((char *)endptr)=s; 
....................       #ENDIF 
....................       } 
....................    } 
....................  
....................    return(result); 
.................... } 
.................... #endif 
....................  
.................... unsigned long strtoul(char *s, char *endptr, signed int base) 
.................... { 
....................    char *sc,*s1,*sd; 
....................    unsigned long x=0; 
....................    char sign; 
....................    char digits[]="0123456789abcdefghijklmnopqstuvwxyz"; 
....................    for(sc=s;isspace(*sc);++sc); 
....................    sign=*sc=='-'||*sc=='+'?*sc++:'+'; 
....................    if(sign=='-' || base <0 || base ==1|| base >36) // invalid base 
....................    goto StrtoulGO; 
....................  
....................    else if (base) 
....................    { 
....................       if(base==16 && *sc =='0'&&(sc[1]=='x' || sc[1]=='X')) 
....................          sc+=2; 
....................       if(base==8 && *sc =='0') 
....................          sc+=1; 
....................       if(base==2 && *sc =='0'&&sc[1]=='b') 
....................          sc+=2; 
....................  
....................    } 
....................    else if(*sc!='0') // base is 0, find base 
....................       base=10; 
....................    else if (sc[1]=='x' || sc[1]=='X') 
....................       base =16,sc+=2; 
....................    else if(sc[1]=='b') 
....................       base=2,sc+=2; 
....................    else 
....................       base=8; 
....................    for (s1=sc;*sc=='0';++sc);// skip leading zeroes 
....................    sd=memchr(digits,tolower(*sc),base); 
....................    for(; sd!=0; ) 
....................    { 
....................       x=x*base+(int16)(sd-digits); 
....................       ++sc; 
....................       sd=memchr(digits,tolower(*sc),base); 
....................    } 
....................    if(s1==sc) 
....................    { 
....................    StrtoulGO: 
....................       if (endptr) 
....................       { 
....................          #IF LONG_POINTERS 
....................          *((long *)endptr)= s;  
....................          #ELSE 
....................          *((char *)endptr)=s; 
....................          #ENDIF 
....................          } 
....................    return 0; 
....................    } 
....................    if (endptr) 
....................    { 
....................          #IF LONG_POINTERS 
....................          *((long *)endptr)= sc;  
....................          #ELSE 
....................          *((char *)endptr)=sc;  
....................          #ENDIF 
....................    } 
....................    return x; 
.................... } 
....................  
....................  
.................... signed long strtol(char *s,char *endptr, signed int base) 
.................... { 
....................    char *sc,*s1,*sd; 
....................    signed long x=0; 
....................    char sign; 
....................    char digits[]="0123456789abcdefghijklmnopqstuvwxyz"; 
....................    for(sc=s;isspace(*sc);++sc); 
....................    sign=*sc=='-'||*sc=='+'?*sc++:'+'; 
....................    if (base <0 || base ==1|| base >36) // invalid base 
....................    goto StrtolGO; 
....................    else if (base) 
....................    { 
....................       if(base==16 && *sc =='0'&&(sc[1]=='x' || sc[1]=='X')) 
....................          sc+=2; 
....................       if(base==8 && *sc =='0') 
....................          sc+=1; 
....................       if(base==2 && *sc =='0'&&sc[1]=='b') 
....................          sc+=2; 
....................  
....................    } 
....................    else if(*sc!='0') // base is 0, find base 
....................       base=10; 
....................    else if (sc[1]=='x' || sc[1]=='X') 
....................       base =16,sc+=2; 
....................    else if(sc[1]=='b') 
....................       base=2,sc+=2; 
....................    else 
....................       base=8; 
....................    for (s1=sc;*sc=='0';++sc);// skip leading zeroes 
....................  
....................    sd=memchr(digits,tolower(*sc),base); 
....................    for(;sd!=0;) 
....................    { 
....................       x=x*base+(int16)(sd-digits); 
....................       ++sc; 
....................       sd=memchr(digits,tolower(*sc),base); 
....................    } 
....................    if(s1==sc) 
....................    { 
....................    StrtolGO: 
....................       if (endptr) 
....................       { 
....................          #IF LONG_POINTERS 
....................          *((long *)endptr)= s;  
....................          #ELSE 
....................          *((char *)endptr)=s; 
....................          #ENDIF 
....................       } 
....................    return 0; 
....................    } 
....................    if(sign=='-') 
....................       x  =-x; 
....................    if (endptr) 
....................    { 
....................         #IF LONG_POINTERS 
....................          *((long *)endptr)= sc;  
....................         #ELSE 
....................         *((char *)endptr)=sc; 
....................         #ENDIF 
....................    } 
....................    return x; 
.................... } 
....................  
.................... signed int8 system(char *string) 
.................... { 
....................    return 0; 
.................... } 
....................  
.................... int8 mblen(char *s,size_t n) 
.................... { 
....................    return strlen(s); 
.................... } 
....................  
.................... int8 mbtowc(wchar_t *pwc,char *s,size_t n) 
.................... { 
....................    *pwc=*s; 
....................    return 1; 
.................... } 
....................  
.................... int8 wctomb(char *s,wchar_t wchar) 
.................... { 
....................    *s=wchar; 
....................    return 1; 
.................... } 
....................  
.................... size_t mbstowcs(wchar_t *pwcs,char *s,size_t n) 
.................... { 
....................    strncpy(pwcs,s,n); 
....................    return strlen(pwcs); 
.................... } 
....................  
.................... size_t wcstombs(char *s,wchar_t *pwcs,size_t n) 
.................... { 
....................    strncpy(s,pwcs,n); 
....................    return strlen(s); 
.................... } 
....................  
.................... //--------------------------------------------------------------------------- 
.................... // The random number implementation 
.................... //--------------------------------------------------------------------------- 
....................  
.................... unsigned int32 _Randseed; 
....................  
.................... unsigned int16 rand(void) 
.................... { 
....................    _Randseed = _Randseed * 1103515245 + 12345; 
....................    return ((unsigned int16)(_Randseed >> 16) % RAND_MAX); 
.................... } 
....................  
.................... void srand(unsigned int32 seed) 
.................... { 
....................    _Randseed = seed; 
.................... } 
....................  
.................... //--------------------------------------------------------------------------- 
.................... // Searching and sorting utilities implementation 
.................... //--------------------------------------------------------------------------- 
....................  
.................... #if !defined(__PCD__) 
.................... typedef signed int8 (*_Cmpfun)(char * p1,char * p2);  
.................... #else  
.................... typedef signed int16 (*_Cmpfun)(char * p1,char * p2);  
.................... #endif 
....................  
....................  
....................  
.................... void qsort(char * qdata, unsigned int qitems, unsigned int qsize, _Cmpfun cmp) { 
....................    unsigned int m,j,i,l; 
....................    int1 done; 
....................    unsigned int8 t[16]; 
....................  
....................    m = qitems/2; 
....................    while( m > 0 ) { 
....................      for(j=0; j<(qitems-m); ++j) { 
....................         i = j; 
....................         do 
....................         { 
....................            done=1; 
....................            l = i+m; 
....................            if( (*cmp)(qdata+i*qsize, qdata+l*qsize) > 0 ) { 
....................               memcpy(t, qdata+i*qsize, qsize); 
....................               memcpy(qdata+i*qsize, qdata+l*qsize, qsize); 
....................               memcpy(qdata+l*qsize, t, qsize); 
....................               if(m <= i) 
....................                 i -= m; 
....................                 done = 0; 
....................            } 
....................         } while(!done); 
....................      } 
....................      m = m/2; 
....................    } 
.................... } 
....................  
....................  
.................... char *bsearch(char *key, char *base, size_t num, size_t width,_Cmpfun cmp) 
.................... { 
....................    char *p, *q; 
....................    size_t n; 
....................    size_t pivot; 
....................    signed int val; 
....................  
....................    p = base; 
....................    n = num; 
....................  
....................    while (n > 0) 
....................    { 
....................       pivot = n >> 1; 
....................       q = p + width * pivot; 
....................  
....................       val = (*cmp)(key, q); 
....................  
....................       if (val < 0) 
....................          n = pivot; 
....................       else if (val == 0) 
....................          return ((char *)q); 
....................       else { 
....................          p = q + width; 
....................          n -= pivot + 1; 
....................       } 
....................    } 
....................  
....................    return NULL;      // There's no match 
.................... } 
....................  
....................  
.................... #endif 
....................  
.................... #include <DS1302.c> 
.................... ////////////////////////////////////////////////////////////////////////// 
.................... ////                               DS1302.C                           //// 
.................... ////                     Driver for Real Time Clock                   //// 
.................... ////                                                                  //// 
.................... ////  rtc_init()                                   Call after power up//// 
.................... ////                                                                  //// 
.................... ////  rtc_set_datetime(day,mth,year,dow,hour,min)  Set the date/time  //// 
.................... ////                                                                  //// 
.................... ////  rtc_get_date(day,mth,year,dow)               Get the date       //// 
.................... ////                                                                  //// 
.................... ////  rtc_get_time(hr,min,sec)                     Get the time       //// 
.................... ////                                                                  //// 
.................... ////  rtc_write_nvr(address,data)                  Write to NVR       //// 
.................... ////                                                                  //// 
.................... ////  data = rtc_read_nvr(address)                 Read from NVR      //// 
.................... ////                                                                  //// 
.................... ////  get_bcd(data)                              Convert data to BCD  //// 
.................... ////                                                                  //// 
.................... ////  rm_bcd(data)                               Convert data to int  //// 
.................... ////                                                                  //// 
.................... ////////////////////////////////////////////////////////////////////////// 
.................... ////        (C) Copyright 1996,2003 Custom Computer Services          //// 
.................... //// This source code may only be used by licensed users of the CCS C //// 
.................... //// compiler.  This source code may only be distributed to other     //// 
.................... //// licensed users of the CCS C compiler.  No other use, reproduction//// 
.................... //// or distribution is permitted without written permission.         //// 
.................... //// Derivative programs created using this software in object code   //// 
.................... //// form are not restricted in any way.                              //// 
.................... ////////////////////////////////////////////////////////////////////////// 
....................  
.................... //#ifndef RTC_SCLK 
....................  
.................... #define RTC_SCLK PIN_D4 
.................... #define RTC_IO   PIN_D5 
.................... #define RTC_RST  PIN_D6 
....................  
.................... //#endif 
....................  
.................... void write_ds1302_byte(BYTE cmd) { 
....................    BYTE i; 
....................  
....................    for(i=0;i<=7;++i) { 
*
02D12:  MOVLB  4
02D14:  CLRF   x51
02D16:  MOVF   x51,W
02D18:  SUBLW  07
02D1A:  BNC   2D36
....................       output_bit(RTC_IO, shift_right(&cmd,1,0) ); 
02D1C:  BCF    FD8.0
02D1E:  RRCF   x50,F
02D20:  BC    2D26
02D22:  BCF    F8C.5
02D24:  BRA    2D28
02D26:  BSF    F8C.5
02D28:  BCF    F95.5
....................       output_high(RTC_SCLK); 
02D2A:  BCF    F95.4
02D2C:  BSF    F8C.4
....................       output_low(RTC_SCLK); 
02D2E:  BCF    F95.4
02D30:  BCF    F8C.4
....................    } 
02D32:  INCF   x51,F
02D34:  BRA    2D16
.................... } 
02D36:  MOVLB  0
02D38:  RETLW  00
....................  
.................... void write_ds1302(BYTE cmd, BYTE data) { 
....................  
....................    output_high(RTC_RST); 
02D3A:  BCF    F95.6
02D3C:  BSF    F8C.6
....................    write_ds1302_byte(cmd); 
02D3E:  MOVFF  44E,450
02D42:  RCALL  2D12
....................    write_ds1302_byte(data); 
02D44:  MOVFF  44F,450
02D48:  RCALL  2D12
....................    output_low(RTC_RST); 
02D4A:  BCF    F95.6
02D4C:  BCF    F8C.6
.................... } 
02D4E:  RETLW  00
....................  
.................... BYTE read_ds1302(BYTE cmd) { 
....................    BYTE i,data; 
....................  
....................    output_high(RTC_RST); 
02D50:  BCF    F95.6
02D52:  BSF    F8C.6
....................    write_ds1302_byte(cmd); 
02D54:  MOVFF  44B,450
02D58:  RCALL  2D12
....................     
....................    input(RTC_IO); 
02D5A:  BSF    F95.5
....................    delay_us(10); 
02D5C:  MOVLW  10
02D5E:  MOVWF  00
02D60:  DECFSZ 00,F
02D62:  BRA    2D60
02D64:  NOP   
....................           
....................    for(i=0;i<=7;++i) { 
02D66:  MOVLB  4
02D68:  CLRF   x4C
02D6A:  MOVF   x4C,W
02D6C:  SUBLW  07
02D6E:  BNC   2D9A
....................       shift_right(&data,1,input(RTC_IO)); 
02D70:  BSF    F95.5
02D72:  BTFSC  F83.5
02D74:  BRA    2D7A
02D76:  BCF    FD8.0
02D78:  BRA    2D7C
02D7A:  BSF    FD8.0
02D7C:  RRCF   x4D,F
....................       output_high(RTC_SCLK); 
02D7E:  BCF    F95.4
02D80:  BSF    F8C.4
....................       delay_us(20); 
02D82:  MOVLW  21
02D84:  MOVWF  00
02D86:  DECFSZ 00,F
02D88:  BRA    2D86
....................       output_low(RTC_SCLK); 
02D8A:  BCF    F95.4
02D8C:  BCF    F8C.4
....................       delay_us(20); 
02D8E:  MOVLW  21
02D90:  MOVWF  00
02D92:  DECFSZ 00,F
02D94:  BRA    2D92
....................    } 
02D96:  INCF   x4C,F
02D98:  BRA    2D6A
....................    output_low(RTC_RST); 
02D9A:  BCF    F95.6
02D9C:  BCF    F8C.6
....................  
....................    return(data); 
02D9E:  MOVFF  44D,01
.................... } 
02DA2:  MOVLB  0
02DA4:  RETLW  00
....................  
.................... void rtc_init() { 
....................    BYTE x; 
....................    output_low(RTC_RST); 
02DA6:  BCF    F95.6
02DA8:  BCF    F8C.6
....................    delay_us(20); 
02DAA:  MOVLW  21
02DAC:  MOVWF  00
02DAE:  DECFSZ 00,F
02DB0:  BRA    2DAE
....................    output_low(RTC_SCLK); 
02DB2:  BCF    F95.4
02DB4:  BCF    F8C.4
....................    write_ds1302(0x8e,0); 
02DB6:  MOVLW  8E
02DB8:  MOVLB  4
02DBA:  MOVWF  x4E
02DBC:  CLRF   x4F
02DBE:  MOVLB  0
02DC0:  RCALL  2D3A
....................    write_ds1302(0x90,0xa4); 
02DC2:  MOVLW  90
02DC4:  MOVLB  4
02DC6:  MOVWF  x4E
02DC8:  MOVLW  A4
02DCA:  MOVWF  x4F
02DCC:  MOVLB  0
02DCE:  RCALL  2D3A
....................    x=read_ds1302(0x81); 
02DD0:  MOVLW  81
02DD2:  MOVLB  4
02DD4:  MOVWF  x4B
02DD6:  MOVLB  0
02DD8:  RCALL  2D50
02DDA:  MOVFF  01,447
....................    if((x & 0x80)!=0) 
02DDE:  MOVLB  4
02DE0:  MOVF   x47,W
02DE2:  ANDLW  80
02DE4:  BZ    2DF2
....................      write_ds1302(0x80,0); 
02DE6:  MOVLW  80
02DE8:  MOVWF  x4E
02DEA:  CLRF   x4F
02DEC:  MOVLB  0
02DEE:  RCALL  2D3A
02DF0:  MOVLB  4
.................... } 
02DF2:  MOVLB  0
02DF4:  GOTO   7F38 (RETURN)
....................  
.................... byte get_bcd(BYTE data) 
.................... { 
....................    byte nibh; 
....................    byte nibl; 
....................  
....................    nibh=data/10; 
*
053A0:  MOVFF  44D,451
053A4:  MOVLW  0A
053A6:  MOVLB  4
053A8:  MOVWF  x52
053AA:  MOVLB  0
053AC:  CALL   49D4
053B0:  MOVFF  01,44E
....................    nibl=data-(nibh*10); 
053B4:  MOVLB  4
053B6:  MOVF   x4E,W
053B8:  MULLW  0A
053BA:  MOVF   FF3,W
053BC:  SUBWF  x4D,W
053BE:  MOVWF  x4F
....................  
....................    return((nibh<<4)|nibl); 
053C0:  SWAPF  x4E,W
053C2:  MOVWF  00
053C4:  MOVLW  F0
053C6:  ANDWF  00,F
053C8:  MOVF   00,W
053CA:  IORWF  x4F,W
053CC:  MOVWF  01
.................... } 
053CE:  MOVLB  0
053D0:  RETLW  00
....................  
.................... byte rm_bcd(BYTE data) 
.................... { 
....................    byte i; 
....................  
....................    i=data; 
*
04810:  MOVFF  44C,44D
....................    data=(i>>4)*10; 
04814:  MOVLB  4
04816:  SWAPF  x4D,W
04818:  MOVWF  00
0481A:  MOVLW  0F
0481C:  ANDWF  00,F
0481E:  MOVF   00,W
04820:  MULLW  0A
04822:  MOVFF  FF3,44C
....................    data=data+(i<<4>>4); 
04826:  SWAPF  x4D,W
04828:  MOVWF  00
0482A:  MOVLW  F0
0482C:  ANDWF  00,F
0482E:  MOVF   00,W
04830:  SWAPF  00,F
04832:  MOVLW  0F
04834:  ANDWF  00,F
04836:  MOVF   00,W
04838:  ADDWF  x4C,F
....................  
....................    return data; 
0483A:  MOVFF  44C,01
.................... } 
0483E:  MOVLB  0
04840:  RETLW  00
....................  
.................... void rtc_set_datetime(BYTE day, BYTE mth, BYTE year, BYTE dow, BYTE hr, BYTE min) { 
....................  
....................    write_ds1302(0x86,get_bcd(day)); 
*
053D2:  MOVFF  447,44D
053D6:  RCALL  53A0
053D8:  MOVFF  01,44D
053DC:  MOVLW  86
053DE:  MOVLB  4
053E0:  MOVWF  x4E
053E2:  MOVFF  01,44F
053E6:  MOVLB  0
053E8:  CALL   2D3A
....................    write_ds1302(0x88,get_bcd(mth)); 
053EC:  MOVFF  448,44D
053F0:  RCALL  53A0
053F2:  MOVFF  01,44D
053F6:  MOVLW  88
053F8:  MOVLB  4
053FA:  MOVWF  x4E
053FC:  MOVFF  01,44F
05400:  MOVLB  0
05402:  CALL   2D3A
....................    write_ds1302(0x8c,get_bcd(year)); 
05406:  MOVFF  449,44D
0540A:  RCALL  53A0
0540C:  MOVFF  01,44D
05410:  MOVLW  8C
05412:  MOVLB  4
05414:  MOVWF  x4E
05416:  MOVFF  01,44F
0541A:  MOVLB  0
0541C:  CALL   2D3A
....................    write_ds1302(0x8a,get_bcd(dow)); 
05420:  MOVFF  44A,44D
05424:  RCALL  53A0
05426:  MOVFF  01,44D
0542A:  MOVLW  8A
0542C:  MOVLB  4
0542E:  MOVWF  x4E
05430:  MOVFF  01,44F
05434:  MOVLB  0
05436:  CALL   2D3A
....................    write_ds1302(0x84,get_bcd(hr)); 
0543A:  MOVFF  44B,44D
0543E:  RCALL  53A0
05440:  MOVFF  01,44D
05444:  MOVLW  84
05446:  MOVLB  4
05448:  MOVWF  x4E
0544A:  MOVFF  01,44F
0544E:  MOVLB  0
05450:  CALL   2D3A
....................    write_ds1302(0x82,get_bcd(min)); 
05454:  MOVFF  44C,44D
05458:  RCALL  53A0
0545A:  MOVFF  01,44D
0545E:  MOVLW  82
05460:  MOVLB  4
05462:  MOVWF  x4E
05464:  MOVFF  01,44F
05468:  MOVLB  0
0546A:  CALL   2D3A
....................    write_ds1302(0x80,get_bcd(0)); 
0546E:  MOVLB  4
05470:  CLRF   x4D
05472:  MOVLB  0
05474:  RCALL  53A0
05476:  MOVFF  01,44D
0547A:  MOVLW  80
0547C:  MOVLB  4
0547E:  MOVWF  x4E
05480:  MOVFF  01,44F
05484:  MOVLB  0
05486:  CALL   2D3A
.................... } 
0548A:  GOTO   ABA4 (RETURN)
....................  
.................... void rtc_get_date(BYTE& day, BYTE& mth, BYTE& year, BYTE& dow) { 
....................    day = rm_bcd(read_ds1302(0x87)); 
*
0817C:  MOVLW  87
0817E:  MOVLB  4
08180:  MOVWF  x4B
08182:  MOVLB  0
08184:  CALL   2D50
08188:  MOVFF  01,447
0818C:  MOVFF  01,44C
08190:  CALL   4810
08194:  MOVFF  01,3A8
....................    mth = rm_bcd(read_ds1302(0x89)); 
08198:  MOVLW  89
0819A:  MOVLB  4
0819C:  MOVWF  x4B
0819E:  MOVLB  0
081A0:  CALL   2D50
081A4:  MOVFF  01,447
081A8:  MOVFF  01,44C
081AC:  CALL   4810
081B0:  MOVFF  01,3A7
....................    year = rm_bcd(read_ds1302(0x8d)); 
081B4:  MOVLW  8D
081B6:  MOVLB  4
081B8:  MOVWF  x4B
081BA:  MOVLB  0
081BC:  CALL   2D50
081C0:  MOVFF  01,447
081C4:  MOVFF  01,44C
081C8:  CALL   4810
081CC:  MOVFF  01,3A6
....................    dow = rm_bcd(read_ds1302(0x8b)); 
081D0:  MOVLW  8B
081D2:  MOVLB  4
081D4:  MOVWF  x4B
081D6:  MOVLB  0
081D8:  CALL   2D50
081DC:  MOVFF  01,447
081E0:  MOVFF  01,44C
081E4:  CALL   4810
081E8:  MOVFF  01,3AC
.................... } 
....................  
.................... void rtc_get_time(BYTE& hr, BYTE& min, BYTE& sec) { 
....................    hr = rm_bcd(read_ds1302(0x85)); 
081EC:  MOVLW  85
081EE:  MOVLB  4
081F0:  MOVWF  x4B
081F2:  MOVLB  0
081F4:  CALL   2D50
081F8:  MOVFF  01,447
081FC:  MOVFF  01,44C
08200:  CALL   4810
08204:  MOVFF  01,3A9
....................    min = rm_bcd(read_ds1302(0x83)); 
08208:  MOVLW  83
0820A:  MOVLB  4
0820C:  MOVWF  x4B
0820E:  MOVLB  0
08210:  CALL   2D50
08214:  MOVFF  01,447
08218:  MOVFF  01,44C
0821C:  CALL   4810
08220:  MOVFF  01,3AA
....................    sec = rm_bcd(read_ds1302(0x81)); 
08224:  MOVLW  81
08226:  MOVLB  4
08228:  MOVWF  x4B
0822A:  MOVLB  0
0822C:  CALL   2D50
08230:  MOVFF  01,447
08234:  MOVFF  01,44C
08238:  CALL   4810
0823C:  MOVFF  01,3AB
.................... } 
....................  
.................... void rtc_write_nvr(BYTE address, BYTE data) { 
....................    write_ds1302(address|0xc0,data); 
.................... } 
....................  
.................... BYTE rtc_read_nvr(BYTE address) { 
....................     return(read_ds1302(address|0xc1)); 
.................... } 
....................  
.................... #include <24512.c> 
.................... /////////////////////////////////////////////////////////////////////////// 
.................... ////   Library for a 24LC512 serial EEPROM                             //// 
.................... ////                                                                   //// 
.................... ////   init_ext_eeprom();    Call before the other functions are used  //// 
.................... ////                                                                   //// 
.................... ////   write_ext_eeprom(a, d);  Write the byte d to the address a      //// 
.................... ////                                                                   //// 
.................... ////   d = read_ext_eeprom(a);   Read the byte d from the address a    //// 
.................... ////                                                                   //// 
.................... ////   The main program may define eeprom_sda                          //// 
.................... ////   and eeprom_scl to override the defaults below.                  //// 
.................... ////                                                                   //// 
.................... /////////////////////////////////////////////////////////////////////////// 
.................... ////        (C) Copyright 1996,2003 Custom Computer Services           //// 
.................... //// This source code may only be used by licensed users of the CCS C  //// 
.................... //// compiler.  This source code may only be distributed to other      //// 
.................... //// licensed users of the CCS C compiler.  No other use, reproduction //// 
.................... //// or distribution is permitted without written permission.          //// 
.................... //// Derivative programs created using this software in object code    //// 
.................... //// form are not restricted in any way.                               //// 
.................... /////////////////////////////////////////////////////////////////////////// 
....................  
.................... #ifndef EEPROM_SDA 
....................  
.................... #define EEPROM_SDA  PIN_C4 
.................... #define EEPROM_SCL  PIN_C3 
....................  
.................... #endif 
....................  
.................... //#use i2c(master, sda=EEPROM_SDA, scl=EEPROM_SCL) 
....................  
.................... #define EEPROM_ADDRESS long int 
.................... #define EEPROM_SIZE   65535 
....................  
.................... void init_ext_eeprom() 
.................... { 
....................    output_float(EEPROM_SCL); 
....................    output_float(EEPROM_SDA); 
....................  
.................... } 
....................  
.................... void write_ext_eeprom(long int address, BYTE data) 
.................... { 
....................    short int status; 
....................    i2c_start(); 
*
06664:  BSF    F94.4
06666:  MOVLW  05
06668:  MOVWF  00
0666A:  DECFSZ 00,F
0666C:  BRA    666A
0666E:  BSF    F94.3
06670:  MOVLW  06
06672:  MOVWF  00
06674:  DECFSZ 00,F
06676:  BRA    6674
06678:  BCF    F8B.4
0667A:  BCF    F94.4
0667C:  MOVLW  05
0667E:  MOVWF  00
06680:  DECFSZ 00,F
06682:  BRA    6680
06684:  BCF    F8B.3
06686:  BCF    F94.3
....................    i2c_write(0xa0); 
06688:  MOVLW  A0
0668A:  MOVLB  4
0668C:  MOVWF  x5D
0668E:  MOVLB  0
06690:  CALL   470A
....................    i2c_write(address>>8); 
06694:  MOVFF  44F,452
06698:  MOVLB  4
0669A:  CLRF   x53
0669C:  MOVFF  44F,45D
066A0:  MOVLB  0
066A2:  CALL   470A
....................    i2c_write(address); 
066A6:  MOVFF  44E,45D
066AA:  CALL   470A
....................    i2c_write(data); 
066AE:  MOVFF  450,45D
066B2:  CALL   470A
....................    i2c_stop(); 
066B6:  BCF    F94.4
066B8:  NOP   
066BA:  BSF    F94.3
066BC:  BTFSS  F82.3
066BE:  BRA    66BC
066C0:  MOVLW  05
066C2:  MOVWF  00
066C4:  DECFSZ 00,F
066C6:  BRA    66C4
066C8:  BRA    66CA
066CA:  NOP   
066CC:  BSF    F94.4
066CE:  MOVLW  05
066D0:  MOVWF  00
066D2:  DECFSZ 00,F
066D4:  BRA    66D2
....................    i2c_start(); 
066D6:  BSF    F94.4
066D8:  MOVLW  05
066DA:  MOVWF  00
066DC:  DECFSZ 00,F
066DE:  BRA    66DC
066E0:  BSF    F94.3
066E2:  MOVLW  06
066E4:  MOVWF  00
066E6:  DECFSZ 00,F
066E8:  BRA    66E6
066EA:  BCF    F8B.4
066EC:  BCF    F94.4
066EE:  MOVLW  05
066F0:  MOVWF  00
066F2:  DECFSZ 00,F
066F4:  BRA    66F2
066F6:  BCF    F8B.3
066F8:  BCF    F94.3
....................    status=i2c_write(0xa0); 
066FA:  MOVLW  A0
066FC:  MOVLB  4
066FE:  MOVWF  x5D
06700:  MOVLB  0
06702:  CALL   470A
06706:  MOVF   01,W
06708:  MOVLB  4
0670A:  BCF    x51.0
0670C:  BTFSC  01.0
0670E:  BSF    x51.0
....................    //while(status==1) 
....................    //{ 
....................       i2c_start(); 
06710:  BSF    F94.4
06712:  MOVLW  05
06714:  MOVWF  00
06716:  DECFSZ 00,F
06718:  BRA    6716
0671A:  BSF    F94.3
0671C:  MOVLW  06
0671E:  MOVWF  00
06720:  DECFSZ 00,F
06722:  BRA    6720
06724:  BTFSS  F82.3
06726:  BRA    6724
06728:  BCF    F8B.4
0672A:  BCF    F94.4
0672C:  MOVLW  05
0672E:  MOVWF  00
06730:  DECFSZ 00,F
06732:  BRA    6730
06734:  BCF    F8B.3
06736:  BCF    F94.3
....................       status=i2c_write(0xa0); 
06738:  MOVLW  A0
0673A:  MOVWF  x5D
0673C:  MOVLB  0
0673E:  CALL   470A
06742:  MOVF   01,W
06744:  MOVLB  4
06746:  BCF    x51.0
06748:  BTFSC  01.0
0674A:  BSF    x51.0
....................    //} 
....................    i2c_stop(); 
0674C:  BCF    F94.4
0674E:  NOP   
06750:  BSF    F94.3
06752:  BTFSS  F82.3
06754:  BRA    6752
06756:  MOVLW  05
06758:  MOVWF  00
0675A:  DECFSZ 00,F
0675C:  BRA    675A
0675E:  BRA    6760
06760:  NOP   
06762:  BSF    F94.4
06764:  MOVLW  05
06766:  MOVWF  00
06768:  DECFSZ 00,F
0676A:  BRA    6768
.................... } 
0676C:  MOVLB  0
0676E:  RETLW  00
....................  
.................... BYTE read_ext_eeprom(long int address) { 
....................    BYTE data; 
....................    i2c_start(); 
*
055BE:  BSF    F94.4
055C0:  MOVLW  05
055C2:  MOVWF  00
055C4:  DECFSZ 00,F
055C6:  BRA    55C4
055C8:  BSF    F94.3
055CA:  MOVLW  06
055CC:  MOVWF  00
055CE:  DECFSZ 00,F
055D0:  BRA    55CE
055D2:  BCF    F8B.4
055D4:  BCF    F94.4
055D6:  MOVLW  05
055D8:  MOVWF  00
055DA:  DECFSZ 00,F
055DC:  BRA    55DA
055DE:  BCF    F8B.3
055E0:  BCF    F94.3
....................    i2c_write(0xa0); 
055E2:  MOVLW  A0
055E4:  MOVLB  4
055E6:  MOVWF  x5D
055E8:  MOVLB  0
055EA:  CALL   470A
....................    i2c_write(address>>8); 
055EE:  MOVFF  44D,44F
055F2:  MOVLB  4
055F4:  CLRF   x50
055F6:  MOVFF  44D,45D
055FA:  MOVLB  0
055FC:  CALL   470A
....................    i2c_write(address); 
05600:  MOVFF  44C,45D
05604:  CALL   470A
....................    i2c_start(); 
05608:  BSF    F94.4
0560A:  MOVLW  05
0560C:  MOVWF  00
0560E:  DECFSZ 00,F
05610:  BRA    560E
05612:  BSF    F94.3
05614:  MOVLW  06
05616:  MOVWF  00
05618:  DECFSZ 00,F
0561A:  BRA    5618
0561C:  BTFSS  F82.3
0561E:  BRA    561C
05620:  BCF    F8B.4
05622:  BCF    F94.4
05624:  MOVLW  05
05626:  MOVWF  00
05628:  DECFSZ 00,F
0562A:  BRA    5628
0562C:  BCF    F8B.3
0562E:  BCF    F94.3
....................    i2c_write(0xa1); 
05630:  MOVLW  A1
05632:  MOVLB  4
05634:  MOVWF  x5D
05636:  MOVLB  0
05638:  CALL   470A
....................    data=i2c_read(0); 
0563C:  CLRF   00
0563E:  BRA    5552
05640:  MOVFF  01,44E
....................    i2c_stop(); 
05644:  BCF    F94.4
05646:  NOP   
05648:  BSF    F94.3
0564A:  BTFSS  F82.3
0564C:  BRA    564A
0564E:  MOVLW  05
05650:  MOVWF  00
05652:  DECFSZ 00,F
05654:  BRA    5652
05656:  BRA    5658
05658:  NOP   
0565A:  BSF    F94.4
0565C:  MOVLW  05
0565E:  MOVWF  00
05660:  DECFSZ 00,F
05662:  BRA    5660
....................    return(data); 
05664:  MOVLB  4
05666:  MOVFF  44E,01
.................... } 
0566A:  MOVLB  0
0566C:  RETLW  00
....................  
....................  
.................... //-----Defines para configuracion de logica de funcionamiento de autoclave---// 
.................... #define PT100Fija //Define para autcolaves con reservorio y Pt100 fija (NO FLEXIBLE) 
.................... //#define Reservorio //Define para autoclaves con reservorio 
.................... #define Tmax 134 
.................... #define Tmin 105 
.................... //#define ULKA 
.................... #define Generador 
.................... //--------------------------------------------------------------------------// 
....................  
.................... #define   UP            !input(PIN_B3) 
.................... #define   DOWN          !input(PIN_B2) 
.................... #define   RIGHT         !input(PIN_B1) 
.................... #define   LEFT          !input(PIN_B0) 
....................  
.................... #define   DOOR          !input(PIN_B6) 
.................... #define   STOP          !input(PIN_B5) 
.................... #define   TERM          !input(PIN_B4) 
....................  
.................... //#define   LOW           input(PIN_C1) 
.................... //#define   HIG           input(PIN_C0) 
....................  
.................... #define   SSR_on           output_bit(PIN_E1,1) 
.................... #define   SSR_off          output_bit(PIN_E1,0) 
....................  
.................... #define   SSR2_on          output_bit(PIN_E2,1) 
.................... #define   SSR2_off         output_bit(PIN_E2,0) 
....................  
.................... #define   Buzzer_on        output_bit(PIN_D7,1) 
.................... #define   Buzzer_off       output_bit(PIN_D7,0) 
....................  
.................... #define   Desfogue_on      output_bit(PIN_C1,0) 
.................... #define   Desfogue_off     output_bit(PIN_C1,1) 
....................  
.................... #define   Agua_on          output_bit(PIN_C2,0) 
.................... #define   Agua_off         output_bit(PIN_C2,1) 
....................  
.................... #ifdef Generador 
.................... #define   Paso_on          output_bit(PIN_C0,0) 
.................... #define   Paso_off         output_bit(PIN_C0,1) 
.................... #else 
.................... #define   Bomba_on         output_bit(PIN_C0,0) 
.................... #define   Bomba_off        output_bit(PIN_C0,1) 
.................... #endif 
....................  
....................  
.................... #define OFF 0 
.................... #define ON  1 
.................... #define RX_BUFFER_SIZE  10 
.................... char Rx_Buffer[RX_BUFFER_SIZE+1]; 
.................... char Rx_Buffer2[RX_BUFFER_SIZE+1]; 
.................... char RX_Wr_Index=0; 
.................... char RX_Rd_Index=0; 
.................... char RX_Counter=0; 
....................  
.................... #define TX_BUFFER_SIZE  24 
.................... char Tx_Buffer[TX_BUFFER_SIZE+1]; 
.................... char TX_Wr_Index=0; 
.................... char TX_Counter=0; 
.................... //int1 RX_Buffer_Overflow=0; 
....................  
.................... //Comunicacion//------------------------ 
.................... byte SlaveA0Tx[0X20]; 
.................... byte dato=0;            //Contendr la informacin a enviar o recibir 
.................... byte direccion=0;       //Contendr la direccin del esclavo en el bus I2C 
.................... byte posicion=0;        //Contendr la posicin en el buffer de memoria del esclavo donde se almacenar o de donde se recuperar el dato 
....................  
.................... /* Tabla de Modulos, Primera Fila Ao Regular y el siguiente ao Bisiesto 
.................... E   F   M   A   M   J   J   A   S   O   N   D 
.................... 0   3   3   6   1   4   6   2   5   0   3   5 
.................... 0   3   4   0   2   5   0   3   6   1   4   6 
.................... */ 
.................... int8 Regular[12]={0,3,3,6,1,4,6,2,5,0,3,5}; 
.................... int8 Bisiesto[12]={0,3,4,0,2,5,0,3,6,1,4,6}; 
....................  
.................... //Alarmas//--------------------- 
.................... short AlarmaTiempoProlongado=OFF,AlarmaSobreTemperatura=OFF,AlarmaLlenado=OFF,AlarmaTermostato=OFF,AlarmaPuerta=OFF,AlarmaEmergencia=OFF,AlarmaCiclo=OFF; 
....................  
.................... //Banderas//-------------------- 
.................... short IniciaLlenado=OFF,CalderinLleno=OFF,IniciaCiclo=OFF,Esterilizando=OFF,Secando=OFF,SensadoNivel=OFF,Desfogando=OFF,DesfogueSuave=OFF,Precalentamiento=OFF; 
.................... short EstadoDesfogue=OFF,EstadoAgua=OFF,EstadoSSR=OFF,PruebaEstados=OFF,Ciclo=OFF,flagCalentando=OFF,flagEsterilizando=OFF,EstadoAire=OFF,SensadoNivelL=OFF; 
.................... short flagDesfogando=OFF,Op=OFF,Op2=OFF,Minutos=OFF,Segundos=OFF,GuardaEEPROM=OFF,EstadoPaso=OFF,EstadoBuzzer=OFF,flagAlarma=OFF,NivelBajo=OFF,purgo=OFF,purgaAire2=OFF; 
.................... short flagBuzzer=OFF,flagSilencio=OFF,Finalizo=OFF,AlarmaPresion=OFF,Libre=OFF,purga=OFF,entro=OFF,Aire=OFF,disp_Guarda=OFF,guardaCiclo=OFF,flagBombaAgua=OFF,flagBombaAguaOff=OFF; 
....................  
.................... //Tiempos//--------------------- 
.................... int16 TiempoCiclo=0,TiempoLlenado=0,TiempoSensadoNivel=0,Tp=0,Tc=0,tguarda=0,tNivelBajo=0,conteoPresion=0,tPurgaAire=0; 
.................... signed int  Testerilizacion[5]={0,0,0,0,0};   // Tiempo transcurrido 
.................... signed int  Testerilizacionp[5]={0,0,0,0,0};   // Tiempo transcurrido 
.................... signed int  Tsecado[4]={0,0,0,0};   // Tiempo transcurrido 
.................... signed int  Tsecadop[4]={0,0,0,0};   // Tiempo transcurrido 
....................  
.................... //Control//------------------------ 
.................... float promedio[80]={0.0,0.0,0.0,0.0,0.0,0.0,0.0,0.0,0.0,0.0,0.0,0.0,0.0,0.0,0.0,0.0,0.0,0.0,0.0,0.0,0.0,0.0,0.0,0.0,0.0,0.0,0.0,0.0,0.0,0.0,0.0,0.0,0.0,0.0,0.0,0.0,0.0,0.0,0.0,0.0,0.0,0.0,0.0,0.0,0.0,0.0,0.0,0.0,0.0,0.0,0.0,0.0,0.0,0.0,0.0,0.0,0.0,0.0,0.0,0.0,0.0,0.0,0.0,0.0}; 
.................... float PromPresion[20]={0.0,0.0,0.0,0.0,0.0,0.0,0.0,0.0,0.0,0.0,0.0,0.0,0.0,0.0,0.0,0.0,0.0,0.0,0.0,0.0}; 
.................... float PromPresionp[20]={0.0,0.0,0.0,0.0,0.0,0.0,0.0,0.0,0.0,0.0,0.0,0.0,0.0,0.0,0.0,0.0,0.0,0.0,0.0,0.0}; 
.................... float Gain=141.6,RPT100=0.5,Temporal=0.0; 
.................... float R1=100,R10=6800; 
.................... float X[2]={0.0,0.0}; 
.................... float Xx[2]={0.0,0.0}; 
.................... float promediopresion=0.0,Aumento=0.0,Aumento2=0.0,promediopresionp=0.0; 
.................... int8 h=0,l=0,Ajuste=0,Ajusten=0,MediaMovil=20,TTrampa=0,PantallaPrincipal=0,TipoClave=0,Modulo=0,Digito=0,yy=0,cicloVisto=0,cicloVisualizado=0,posicionDato=0,j=0,codigoAlarma=0,codigoAnt=0; 
.................... float V0=0.0,Pt,Tciclo=10.0,Tpulso=0.0,error=0.0,Prom=0.0,Temperature=0.0,tmp=0.0,Ganancia=25.0,Ganancia2=20.0,desvio=1.2,tmp2=0.0; 
.................... float V1=0.0,Presion=0.0,V2=0.0,Presionp=0.0; 
.................... float Temperatura=0.0,K=0.0012858; 
.................... float a=0.0011,b=2.3302,c=-244.0723; 
.................... int8 Integral=0,Derivativo=0,CicloLibre=0; 
.................... float p1=0.0000011617,p2=-0.0010575,p3=0.44114,p4=65.043,Tactual=0.0; 
....................  
.................... //Varios//-------------------------------- 
.................... short desfoguelento=0,Lectura=0,Grafica=0,LOW=0,HIG=0; 
.................... short disp_Stop=0,flagTC=0,flagImprime=0,flagImprimir=0; 
.................... int8 Control=0,tiemporecta=0,Controlando=0,ActivaImpresion=1,timpresion=2,CalculoImpresion=0,Inicio=1,Dato_Exitoso=0,Dato2=0,z=0; 
.................... int8 Menu=0, MenuAnt=0,MenuAntt=240,i=0,CiclosL=0,CiclosH=0,CicloSeleccionado=0; 
.................... int8 Setpoint=0,Opcion=1,Opcion2=1,tiempo_esterilizacion=0,tiempo_secado=0,tiempoImpresion=0,temperaturaInicial=0; 
.................... int16 tiempos=0,tiempos2=0,tiempos3=0,tiempoctrl=0,Nivel=0,tinicio=0,PresionCamara=0,PresionPreCamara=0,Ciclos=0,NivelSeleccionado=0,tBombaAgua=0,tBombaAguaOff=0; 
.................... signed int  Contrasena[4]={0,0,0,0};      // Contrasena de 4 digitos 
.................... signed int  Password[4]={0,0,0,0};        // Contrasena Almacenada de 4 digitos 
.................... int8 r=0,t=0,r22=0,t2=0,TiempoControl=0; 
.................... int8 y=0,ConteoBuzzer=0; 
.................... int16 t_exhaust=0,tbuzzer=0,tsilencio=0,tiempoAgua=0,tStop=0,tTermostato=0; 
.................... int8 Year=18,Mes=9,Dia=13,Hora=0,Minuto=0,Segundo=0,dow=0; 
.................... int8 YearTx=0,MesTx=0,DiaTx=0,HoraTx=0,MinutoTx=0,SegundoTx=0,dowTx=0,SetTime=0,Imprime=0; 
.................... int8 Atmosferica=72; 
.................... signed int8 G1=0,G2=0,sg1=0,sg2=0; 
.................... int8 iconoGrande[9]={25,16,22,24,23,28,20,46,69}; 
.................... int8 iconoPeque[9]={34,36,18,33,32,38,19,17,68}; 
.................... //int8 iconoGrande[9]={86,88,80,84,82,90,78,76,92}; 
.................... //int8 iconoPeque[9]={85,87,79,83,81,89,77,75,91}; 
.................... char const texto[9][20]={"LIQUIDOS A","CAUCHO","INSTRUMENTAL","LIQUIDOS B","LIBRE","TEST","HORA Y FECHA","CLAVE","DATOS"}; 
.................... int8 diaCiclos=0,mesCiclos=0,yearCiclos=0,usuarioCiclos=0,cicloCiclos=0; 
....................  
.................... float TCiclos[7]; 
.................... int16 PcCiclos[7]; 
.................... int16 PpcCiclos[7]; 
.................... int8 horaCiclos[7]; 
.................... int8 minutoCiclos[7]; 
.................... int8 ACiclos[7]; 
....................  
.................... typedef struct{ 
....................    int8 Temperatura; 
....................    int8 MinutoestH; 
....................    int8 MinutoestL; 
....................    int8 Segundoest; 
....................    int8 Minutosec; 
....................    int8 Segundosec; 
....................    int8 PulsosVacio; 
....................    int8 NivelVacio; 
....................    int8 NivelDesfogue; 
....................    int8 Minutoest; 
.................... }Personalizado; 
....................  
.................... Personalizado CiclosPersonalizados[4]; 
....................  
.................... #include "Funciones.h" 
.................... float inttofloat(int8 decimal){ 
....................    float tmp; 
....................    tmp=decimal; 
0566E:  MOVLB  4
05670:  CLRF   x5D
05672:  MOVFF  44B,45C
05676:  MOVLB  0
05678:  CALL   1B1C
0567C:  MOVFF  03,44F
05680:  MOVFF  02,44E
05684:  MOVFF  01,44D
05688:  MOVFF  00,44C
....................    return tmp/10; 
0568C:  MOVFF  44F,453
05690:  MOVFF  44E,452
05694:  MOVFF  44D,451
05698:  MOVFF  44C,450
0569C:  MOVLB  4
0569E:  CLRF   x57
056A0:  CLRF   x56
056A2:  MOVLW  20
056A4:  MOVWF  x55
056A6:  MOVLW  82
056A8:  MOVWF  x54
056AA:  MOVLB  0
056AC:  CALL   1B52
.................... } 
056B0:  GOTO   59D0 (RETURN)
....................  
.................... void BorraBuffer(void){ 
.................... RX_Buffer[0]=0; 
*
04976:  CLRF   30
.................... RX_Buffer[1]=0; 
04978:  CLRF   31
.................... RX_Buffer[2]=0; 
0497A:  CLRF   32
.................... RX_Buffer[3]=0; 
0497C:  CLRF   33
.................... RX_Buffer[4]=0; 
0497E:  CLRF   34
.................... RX_Buffer[5]=0; 
04980:  CLRF   35
.................... RX_Buffer[6]=0; 
04982:  CLRF   36
.................... RX_Buffer[7]=0; 
04984:  CLRF   37
.................... RX_Buffer[8]=0; 
04986:  CLRF   38
.................... RX_Buffer[9]=0; 
04988:  CLRF   39
....................  
.................... RX_Buffer2[0]=0; 
0498A:  CLRF   3B
.................... RX_Buffer2[1]=0; 
0498C:  CLRF   3C
.................... RX_Buffer2[2]=0; 
0498E:  CLRF   3D
.................... RX_Buffer2[3]=0; 
04990:  CLRF   3E
.................... RX_Buffer2[4]=0; 
04992:  CLRF   3F
.................... RX_Buffer2[5]=0; 
04994:  CLRF   40
.................... RX_Buffer2[6]=0; 
04996:  CLRF   41
.................... RX_Buffer2[7]=0; 
04998:  CLRF   42
.................... RX_Buffer2[8]=0; 
0499A:  CLRF   43
.................... RX_Buffer2[9]=0; 
0499C:  CLRF   44
....................  
.................... } 
0499E:  GOTO   8338 (RETURN)
....................  
.................... char bgetc(void){ 
....................    char c; 
....................    while(RX_Counter==0) 
....................       ; 
....................    c=Rx_Buffer2[RX_Rd_Index]; 
....................    if(++RX_Rd_Index>RX_BUFFER_SIZE) 
....................       RX_Rd_Index=0; 
....................    if(RX_Counter) 
....................       RX_Counter--; 
....................    return c; 
.................... } 
....................  
.................... void bputc(char c){ 
....................    char restart=0; 
....................    while(TX_Counter> (TX_BUFFER_SIZE-1)) 
....................       ; 
....................    if(TX_Counter==0) 
....................       restart=1; 
....................    TX_Buffer[TX_Wr_Index++]=c; 
....................    if(TX_Wr_Index>TX_BUFFER_SIZE) 
....................       TX_Wr_Index=0; 
....................     
....................    TX_Counter++; 
....................     
....................    if(restart==1) 
....................       enable_interrupts(int_tbe); 
.................... } 
....................  
.................... void SendDataDisplay(void){ 
.................... delay_us(10); 
*
039EA:  MOVLW  10
039EC:  MOVWF  00
039EE:  DECFSZ 00,F
039F0:  BRA    39EE
039F2:  NOP   
.................... putc(0xFF); 
039F4:  MOVLW  FF
039F6:  RCALL  39E2
.................... delay_us(10); 
039F8:  MOVLW  10
039FA:  MOVWF  00
039FC:  DECFSZ 00,F
039FE:  BRA    39FC
03A00:  NOP   
.................... putc(0xFF); 
03A02:  MOVLW  FF
03A04:  RCALL  39E2
.................... delay_us(10); 
03A06:  MOVLW  10
03A08:  MOVWF  00
03A0A:  DECFSZ 00,F
03A0C:  BRA    3A0A
03A0E:  NOP   
.................... putc(0xFF); 
03A10:  MOVLW  FF
03A12:  RCALL  39E2
.................... delay_us(10); 
03A14:  MOVLW  10
03A16:  MOVWF  00
03A18:  DECFSZ 00,F
03A1A:  BRA    3A18
03A1C:  NOP   
.................... } 
03A1E:  RETLW  00
....................  
.................... short esBisiesto(int8 year) { 
....................      return ((year % 4 == 0 && year % 100 != 0) || year % 400 == 0); 
*
0534C:  MOVLB  4
0534E:  MOVF   x47,W
05350:  ANDLW  03
05352:  BNZ   5368
05354:  MOVFF  447,451
05358:  MOVLW  64
0535A:  MOVWF  x52
0535C:  MOVLB  0
0535E:  CALL   49D4
05362:  MOVF   00,F
05364:  BNZ   5396
05366:  MOVLB  4
05368:  CLRF   x4C
0536A:  MOVFF  447,44B
0536E:  MOVLW  01
05370:  MOVWF  x4E
05372:  MOVLW  90
05374:  MOVWF  x4D
05376:  MOVLB  0
05378:  RCALL  5306
0537A:  MOVFF  00,448
0537E:  MOVLB  4
05380:  MOVFF  03,449
05384:  MOVF   x48,F
05386:  BNZ   5392
05388:  MOVF   x49,F
0538A:  BTFSS  FD8.2
0538C:  BRA    5392
0538E:  MOVLB  0
05390:  BRA    5396
05392:  MOVLW  00
05394:  BRA    539A
05396:  MOVLW  01
05398:  MOVLB  4
0539A:  MOVWF  01
.................... } 
0539C:  MOVLB  0
0539E:  RETLW  00
....................  
.................... void LimitaDia(){ 
....................    if(MesTx>12) 
*
0548E:  MOVLB  3
05490:  MOVF   xAE,W
05492:  SUBLW  0C
05494:  BC    549A
....................       MesTx=10; 
05496:  MOVLW  0A
05498:  MOVWF  xAE
....................    if(DiaTx>31) 
0549A:  MOVF   xAF,W
0549C:  SUBLW  1F
0549E:  BC    54A4
....................       DiaTx=16; 
054A0:  MOVLW  10
054A2:  MOVWF  xAF
....................    if(YearTx>99) 
054A4:  MOVF   xAD,W
054A6:  SUBLW  63
054A8:  BC    54AE
....................       YearTx=18;    
054AA:  MOVLW  12
054AC:  MOVWF  xAD
....................    if(HoraTx>24) 
054AE:  MOVF   xB0,W
054B0:  SUBLW  18
054B2:  BC    54B8
....................       HoraTx=11;       
054B4:  MOVLW  0B
054B6:  MOVWF  xB0
....................    if(MinutoTx>59) 
054B8:  MOVF   xB1,W
054BA:  SUBLW  3B
054BC:  BC    54C2
....................       MinutoTx=30;       
054BE:  MOVLW  1E
054C0:  MOVWF  xB1
....................     
....................       if(MesTx==2){ 
054C2:  MOVF   xAE,W
054C4:  SUBLW  02
054C6:  BNZ   54F2
....................          if(esBisiesto(YearTx)){ 
054C8:  MOVFF  3AD,447
054CC:  MOVLB  0
054CE:  RCALL  534C
054D0:  MOVF   01,F
054D2:  BZ    54E4
....................             if(DiaTx>29){ 
054D4:  MOVLB  3
054D6:  MOVF   xAF,W
054D8:  SUBLW  1D
054DA:  BC    54E0
....................                DiaTx=29; 
054DC:  MOVLW  1D
054DE:  MOVWF  xAF
....................                //glcd_fillScreen(OFF); 
....................             } 
....................          }else{ 
054E0:  BRA    54F0
054E2:  MOVLB  0
....................             if(DiaTx>28){ 
054E4:  MOVLB  3
054E6:  MOVF   xAF,W
054E8:  SUBLW  1C
054EA:  BC    54F0
....................                DiaTx=28; 
054EC:  MOVLW  1C
054EE:  MOVWF  xAF
....................                //glcd_fillScreen(OFF); 
....................             } 
....................          } 
....................       }else{ 
054F0:  BRA    551C
....................          if(MesTx<=7){ 
054F2:  MOVF   xAE,W
054F4:  SUBLW  07
054F6:  BNC   550A
....................             if(MesTx % 2 ==0){ 
054F8:  MOVF   xAE,W
054FA:  ANDLW  01
054FC:  BNZ   5508
....................                if(DiaTx>30){ 
054FE:  MOVF   xAF,W
05500:  SUBLW  1E
05502:  BC    5508
....................                   DiaTx=30;  
05504:  MOVLW  1E
05506:  MOVWF  xAF
....................                   //glcd_fillScreen(OFF); 
....................                } 
....................             } 
....................          }else{ 
05508:  BRA    551C
....................             if(MesTx % 2 ==1){ 
0550A:  MOVF   xAE,W
0550C:  ANDLW  01
0550E:  SUBLW  01
05510:  BNZ   551C
....................                if(DiaTx>30){ 
05512:  MOVF   xAF,W
05514:  SUBLW  1E
05516:  BC    551C
....................                   DiaTx=30;  
05518:  MOVLW  1E
0551A:  MOVWF  xAF
....................                   //glcd_fillScreen(OFF); 
....................                } 
....................             } 
....................          } 
....................       } 
.................... } 
0551C:  MOVLB  0
0551E:  GOTO   AE42 (RETURN)
....................  
.................... void ActualizaRecta(){ 
....................    X[y]=Temperature; 
*
06FE2:  MOVLB  3
06FE4:  MOVF   x98,W
06FE6:  MULLW  04
06FE8:  MOVF   FF3,W
06FEA:  CLRF   03
06FEC:  ADDLW  BE
06FEE:  MOVWF  FE9
06FF0:  MOVLW  02
06FF2:  ADDWFC 03,W
06FF4:  MOVWF  FEA
06FF6:  MOVFF  307,FEF
06FFA:  MOVFF  308,FEC
06FFE:  MOVFF  309,FEC
07002:  MOVFF  30A,FEC
....................    y++; 
07006:  INCF   x98,F
....................    if(y>=2) 
07008:  MOVF   x98,W
0700A:  SUBLW  01
0700C:  BC    704A
....................    { 
....................       y=0; 
0700E:  CLRF   x98
....................       Aumento=X[1]-X[0]; 
07010:  BSF    FD8.1
07012:  MOVFF  2C5,45F
07016:  MOVFF  2C4,45E
0701A:  MOVFF  2C3,45D
0701E:  MOVFF  2C2,45C
07022:  MOVFF  2C1,463
07026:  MOVFF  2C0,462
0702A:  MOVFF  2BF,461
0702E:  MOVFF  2BE,460
07032:  MOVLB  0
07034:  CALL   1CB0
07038:  MOVFF  03,2D5
0703C:  MOVFF  02,2D4
07040:  MOVFF  01,2D3
07044:  MOVFF  00,2D2
07048:  MOVLB  3
....................    } 
.................... } 
0704A:  MOVLB  0
0704C:  GOTO   70C8 (RETURN)
....................  
.................... void ActualizaRectaPresion(){ 
....................    Xx[yy]=Tactual; 
....................    yy++; 
....................    if(yy>=2){ 
....................       yy=0; 
....................       Aumento2=Xx[1]-Xx[0]; 
....................    } 
.................... } 
....................  
.................... // Funcion para conversor analogo-digital 
.................... float sensores(int x){ 
.................... float y;set_adc_channel(x);delay_ms(1);y=read_adc();return (y); 
*
03A42:  MOVLB  4
03A44:  RLCF   x50,W
03A46:  MOVWF  00
03A48:  RLCF   00,F
03A4A:  MOVLW  FC
03A4C:  ANDWF  00,F
03A4E:  MOVFF  00,01
03A52:  MOVF   FC2,W
03A54:  ANDLW  C3
03A56:  IORWF  00,W
03A58:  MOVWF  FC2
03A5A:  MOVLW  01
03A5C:  MOVWF  x5C
03A5E:  MOVLB  0
03A60:  CALL   1AF4
03A64:  BSF    FC2.1
03A66:  BTFSC  FC2.1
03A68:  BRA    3A66
03A6A:  MOVFF  FC4,45D
03A6E:  MOVFF  FC3,45C
03A72:  MOVLB  0
03A74:  CALL   1B1C
03A78:  MOVFF  03,454
03A7C:  MOVFF  02,453
03A80:  MOVFF  01,452
03A84:  MOVFF  00,451
03A88:  MOVFF  451,00
03A8C:  MOVFF  452,01
03A90:  MOVFF  453,02
03A94:  MOVFF  454,03
.................... } 
03A98:  RETLW  00
.................... float LeerPT100(int media) 
.................... { 
*
03BB2:  MOVLB  4
03BB4:  CLRF   x4B
03BB6:  CLRF   x4A
03BB8:  CLRF   x49
03BBA:  CLRF   x48
03BBC:  CLRF   x4F
03BBE:  CLRF   x4E
03BC0:  CLRF   x4D
03BC2:  CLRF   x4C
....................    float ajp=0.0,ajn=0.0; 
....................    Prom=0.0; 
03BC4:  MOVLB  3
03BC6:  CLRF   x06
03BC8:  CLRF   x05
03BCA:  CLRF   x04
03BCC:  CLRF   x03
....................    V0 = sensores(0);   //Lectura de Divisor de Voltaje de PT100 con resistencia de 6.18k (+-2%) 
03BCE:  MOVLB  4
03BD0:  CLRF   x50
03BD2:  MOVLB  0
03BD4:  RCALL  3A42
03BD6:  MOVFF  03,2F2
03BDA:  MOVFF  02,2F1
03BDE:  MOVFF  01,2F0
03BE2:  MOVFF  00,2EF
....................    V0 = V0/105.77; // Se elimina la ganancia 
03BE6:  MOVFF  2F2,453
03BEA:  MOVFF  2F1,452
03BEE:  MOVFF  2F0,451
03BF2:  MOVFF  2EF,450
03BF6:  MOVLW  3D
03BF8:  MOVLB  4
03BFA:  MOVWF  x57
03BFC:  MOVLW  8A
03BFE:  MOVWF  x56
03C00:  MOVLW  53
03C02:  MOVWF  x55
03C04:  MOVLW  85
03C06:  MOVWF  x54
03C08:  MOVLB  0
03C0A:  CALL   1B52
03C0E:  MOVFF  03,2F2
03C12:  MOVFF  02,2F1
03C16:  MOVFF  01,2F0
03C1A:  MOVFF  00,2EF
....................    //V0 += 14.82; 
....................    V0 += 14.82;//5.041V 73mV 
03C1E:  BCF    FD8.1
03C20:  MOVFF  2F2,45F
03C24:  MOVFF  2F1,45E
03C28:  MOVFF  2F0,45D
03C2C:  MOVFF  2EF,45C
03C30:  MOVLW  B8
03C32:  MOVLB  4
03C34:  MOVWF  x63
03C36:  MOVLW  1E
03C38:  MOVWF  x62
03C3A:  MOVLW  6D
03C3C:  MOVWF  x61
03C3E:  MOVLW  82
03C40:  MOVWF  x60
03C42:  MOVLB  0
03C44:  CALL   1CB0
03C48:  MOVFF  03,2F2
03C4C:  MOVFF  02,2F1
03C50:  MOVFF  01,2F0
03C54:  MOVFF  00,2EF
....................    Pt=R10/((1023/V0)-1); 
03C58:  MOVLB  4
03C5A:  CLRF   x53
03C5C:  MOVLW  C0
03C5E:  MOVWF  x52
03C60:  MOVLW  7F
03C62:  MOVWF  x51
03C64:  MOVLW  88
03C66:  MOVWF  x50
03C68:  MOVFF  2F2,457
03C6C:  MOVFF  2F1,456
03C70:  MOVFF  2F0,455
03C74:  MOVFF  2EF,454
03C78:  MOVLB  0
03C7A:  CALL   1B52
03C7E:  MOVFF  00,450
03C82:  MOVFF  01,451
03C86:  MOVFF  02,452
03C8A:  MOVFF  03,453
03C8E:  BSF    FD8.1
03C90:  MOVFF  03,45F
03C94:  MOVFF  02,45E
03C98:  MOVFF  01,45D
03C9C:  MOVFF  00,45C
03CA0:  MOVLB  4
03CA2:  CLRF   x63
03CA4:  CLRF   x62
03CA6:  CLRF   x61
03CA8:  MOVLW  7F
03CAA:  MOVWF  x60
03CAC:  MOVLB  0
03CAE:  CALL   1CB0
03CB2:  MOVFF  2BD,453
03CB6:  MOVFF  2BC,452
03CBA:  MOVFF  2BB,451
03CBE:  MOVFF  2BA,450
03CC2:  MOVFF  03,457
03CC6:  MOVFF  02,456
03CCA:  MOVFF  01,455
03CCE:  MOVFF  00,454
03CD2:  CALL   1B52
03CD6:  MOVFF  03,2F6
03CDA:  MOVFF  02,2F5
03CDE:  MOVFF  01,2F4
03CE2:  MOVFF  00,2F3
....................              
....................    if(l>(media-1)) 
03CE6:  MOVLW  01
03CE8:  MOVLB  4
03CEA:  SUBWF  x47,W
03CEC:  MOVLB  2
03CEE:  SUBWF  xDF,W
03CF0:  BZ    3CF6
03CF2:  BNC   3CF6
....................    {l=0;} 
03CF4:  CLRF   xDF
....................    //promedio[l]=Temperature;l++; 
....................    promedio[l]=Pt;l++; 
03CF6:  MOVLB  4
03CF8:  CLRF   x51
03CFA:  MOVFF  2DF,450
03CFE:  CLRF   x53
03D00:  MOVLW  04
03D02:  MOVWF  x52
03D04:  MOVLB  0
03D06:  RCALL  3A9A
03D08:  MOVF   01,W
03D0A:  ADDLW  CA
03D0C:  MOVWF  FE9
03D0E:  MOVLW  00
03D10:  ADDWFC 02,W
03D12:  MOVWF  FEA
03D14:  MOVFF  2F3,FEF
03D18:  MOVFF  2F4,FEC
03D1C:  MOVFF  2F5,FEC
03D20:  MOVFF  2F6,FEC
03D24:  MOVLB  2
03D26:  INCF   xDF,F
....................           
....................    for(h=0;h<media;h++) 
03D28:  CLRF   xDE
03D2A:  MOVLB  4
03D2C:  MOVF   x47,W
03D2E:  MOVLB  2
03D30:  SUBWF  xDE,W
03D32:  BC    3DB2
....................    { 
....................       Prom+=promedio[h]; 
03D34:  MOVLB  4
03D36:  CLRF   x51
03D38:  MOVFF  2DE,450
03D3C:  CLRF   x53
03D3E:  MOVLW  04
03D40:  MOVWF  x52
03D42:  MOVLB  0
03D44:  RCALL  3A9A
03D46:  MOVFF  02,03
03D4A:  MOVF   01,W
03D4C:  ADDLW  CA
03D4E:  MOVWF  FE9
03D50:  MOVLW  00
03D52:  ADDWFC 02,W
03D54:  MOVWF  FEA
03D56:  MOVFF  FEF,00
03D5A:  MOVFF  FEC,01
03D5E:  MOVFF  FEC,02
03D62:  MOVFF  FEC,03
03D66:  MOVFF  FEA,451
03D6A:  MOVFF  FE9,450
03D6E:  BCF    FD8.1
03D70:  MOVFF  306,45F
03D74:  MOVFF  305,45E
03D78:  MOVFF  304,45D
03D7C:  MOVFF  303,45C
03D80:  MOVFF  03,463
03D84:  MOVFF  02,462
03D88:  MOVFF  01,461
03D8C:  MOVFF  00,460
03D90:  CALL   1CB0
03D94:  MOVFF  451,FEA
03D98:  MOVFF  450,FE9
03D9C:  MOVFF  03,306
03DA0:  MOVFF  02,305
03DA4:  MOVFF  01,304
03DA8:  MOVFF  00,303
....................    }  
03DAC:  MOVLB  2
03DAE:  INCF   xDE,F
03DB0:  BRA    3D2A
....................    Prom=Prom/media;    
03DB2:  MOVLB  4
03DB4:  CLRF   x5D
03DB6:  MOVFF  447,45C
03DBA:  MOVLB  0
03DBC:  CALL   1B1C
03DC0:  MOVFF  306,453
03DC4:  MOVFF  305,452
03DC8:  MOVFF  304,451
03DCC:  MOVFF  303,450
03DD0:  MOVFF  03,457
03DD4:  MOVFF  02,456
03DD8:  MOVFF  01,455
03DDC:  MOVFF  00,454
03DE0:  CALL   1B52
03DE4:  MOVFF  03,306
03DE8:  MOVFF  02,305
03DEC:  MOVFF  01,304
03DF0:  MOVFF  00,303
....................    //Temperature=(Prom-100.0)/(0.385);  // Ecuacin determinada por linealizacin en Matlab. Revisar este polinomio.   
....................    Temperature=((Prom*Prom)*a)+(Prom*b)+c;  // Ecuacin determinada por linealizacin en Matlab. Revisar este polinomio. 
03DF4:  MOVFF  306,463
03DF8:  MOVFF  305,462
03DFC:  MOVFF  304,461
03E00:  MOVFF  303,460
03E04:  MOVFF  306,467
03E08:  MOVFF  305,466
03E0C:  MOVFF  304,465
03E10:  MOVFF  303,464
03E14:  RCALL  3ABC
03E16:  MOVFF  00,450
03E1A:  MOVFF  01,451
03E1E:  MOVFF  02,452
03E22:  MOVFF  03,453
03E26:  MOVFF  03,463
03E2A:  MOVFF  02,462
03E2E:  MOVFF  01,461
03E32:  MOVFF  00,460
03E36:  MOVFF  33A,467
03E3A:  MOVFF  339,466
03E3E:  MOVFF  338,465
03E42:  MOVFF  337,464
03E46:  RCALL  3ABC
03E48:  MOVFF  00,450
03E4C:  MOVFF  01,451
03E50:  MOVFF  02,452
03E54:  MOVFF  03,453
03E58:  MOVFF  306,463
03E5C:  MOVFF  305,462
03E60:  MOVFF  304,461
03E64:  MOVFF  303,460
03E68:  MOVFF  33E,467
03E6C:  MOVFF  33D,466
03E70:  MOVFF  33C,465
03E74:  MOVFF  33B,464
03E78:  RCALL  3ABC
03E7A:  BCF    FD8.1
03E7C:  MOVFF  453,45F
03E80:  MOVFF  452,45E
03E84:  MOVFF  451,45D
03E88:  MOVFF  450,45C
03E8C:  MOVFF  03,463
03E90:  MOVFF  02,462
03E94:  MOVFF  01,461
03E98:  MOVFF  00,460
03E9C:  CALL   1CB0
03EA0:  MOVFF  00,450
03EA4:  MOVFF  01,451
03EA8:  MOVFF  02,452
03EAC:  MOVFF  03,453
03EB0:  BCF    FD8.1
03EB2:  MOVFF  03,45F
03EB6:  MOVFF  02,45E
03EBA:  MOVFF  01,45D
03EBE:  MOVFF  00,45C
03EC2:  MOVFF  342,463
03EC6:  MOVFF  341,462
03ECA:  MOVFF  340,461
03ECE:  MOVFF  33F,460
03ED2:  CALL   1CB0
03ED6:  MOVFF  03,30A
03EDA:  MOVFF  02,309
03EDE:  MOVFF  01,308
03EE2:  MOVFF  00,307
....................    ajp=(float)Ajuste; 
03EE6:  MOVLB  4
03EE8:  CLRF   x5D
03EEA:  MOVFF  2E0,45C
03EEE:  MOVLB  0
03EF0:  CALL   1B1C
03EF4:  MOVFF  03,44B
03EF8:  MOVFF  02,44A
03EFC:  MOVFF  01,449
03F00:  MOVFF  00,448
....................    ajp=ajp/10; 
03F04:  MOVFF  44B,453
03F08:  MOVFF  44A,452
03F0C:  MOVFF  449,451
03F10:  MOVFF  448,450
03F14:  MOVLB  4
03F16:  CLRF   x57
03F18:  CLRF   x56
03F1A:  MOVLW  20
03F1C:  MOVWF  x55
03F1E:  MOVLW  82
03F20:  MOVWF  x54
03F22:  MOVLB  0
03F24:  CALL   1B52
03F28:  MOVFF  03,44B
03F2C:  MOVFF  02,44A
03F30:  MOVFF  01,449
03F34:  MOVFF  00,448
....................    ajn=(float)Ajusten; 
03F38:  MOVLB  4
03F3A:  CLRF   x5D
03F3C:  MOVFF  2E1,45C
03F40:  MOVLB  0
03F42:  CALL   1B1C
03F46:  MOVFF  03,44F
03F4A:  MOVFF  02,44E
03F4E:  MOVFF  01,44D
03F52:  MOVFF  00,44C
....................    ajn=ajn/10; 
03F56:  MOVFF  44F,453
03F5A:  MOVFF  44E,452
03F5E:  MOVFF  44D,451
03F62:  MOVFF  44C,450
03F66:  MOVLB  4
03F68:  CLRF   x57
03F6A:  CLRF   x56
03F6C:  MOVLW  20
03F6E:  MOVWF  x55
03F70:  MOVLW  82
03F72:  MOVWF  x54
03F74:  MOVLB  0
03F76:  CALL   1B52
03F7A:  MOVFF  03,44F
03F7E:  MOVFF  02,44E
03F82:  MOVFF  01,44D
03F86:  MOVFF  00,44C
....................    Temperature+=(ajp-ajn); 
03F8A:  BSF    FD8.1
03F8C:  MOVFF  44B,45F
03F90:  MOVFF  44A,45E
03F94:  MOVFF  449,45D
03F98:  MOVFF  448,45C
03F9C:  MOVFF  44F,463
03FA0:  MOVFF  44E,462
03FA4:  MOVFF  44D,461
03FA8:  MOVFF  44C,460
03FAC:  CALL   1CB0
03FB0:  BCF    FD8.1
03FB2:  MOVFF  30A,45F
03FB6:  MOVFF  309,45E
03FBA:  MOVFF  308,45D
03FBE:  MOVFF  307,45C
03FC2:  MOVFF  03,463
03FC6:  MOVFF  02,462
03FCA:  MOVFF  01,461
03FCE:  MOVFF  00,460
03FD2:  CALL   1CB0
03FD6:  MOVFF  03,30A
03FDA:  MOVFF  02,309
03FDE:  MOVFF  01,308
03FE2:  MOVFF  00,307
....................    //Temperature-=39.0; 
....................     
....................    //return Prom; 
....................    return Temperature; 
03FE6:  MOVFF  307,00
03FEA:  MOVFF  308,01
03FEE:  MOVFF  309,02
03FF2:  MOVFF  30A,03
.................... } 
03FF6:  RETLW  00
....................  
.................... float Leer_Sensor_Presion_Camara(int media){ 
....................    promediopresion=0.0; 
03FF8:  MOVLB  2
03FFA:  CLRF   xD1
03FFC:  CLRF   xD0
03FFE:  CLRF   xCF
04000:  CLRF   xCE
....................    V1 = sensores(5);   //Lectura de Divisor de Voltaje de PT100 con resistencia de 1k (+-10%) 
04002:  MOVLW  05
04004:  MOVLB  4
04006:  MOVWF  x50
04008:  MOVLB  0
0400A:  RCALL  3A42
0400C:  MOVFF  03,322
04010:  MOVFF  02,321
04014:  MOVFF  01,320
04018:  MOVFF  00,31F
....................    //V1 = V1*(5.0/1024.0); 
....................    //Presion=(V1-0.2)/(K); 
....................    Presion=(((V1)/1023)-0.04)/K; 
0401C:  MOVFF  322,453
04020:  MOVFF  321,452
04024:  MOVFF  320,451
04028:  MOVFF  31F,450
0402C:  MOVLB  4
0402E:  CLRF   x57
04030:  MOVLW  C0
04032:  MOVWF  x56
04034:  MOVLW  7F
04036:  MOVWF  x55
04038:  MOVLW  88
0403A:  MOVWF  x54
0403C:  MOVLB  0
0403E:  CALL   1B52
04042:  MOVFF  00,448
04046:  MOVFF  01,449
0404A:  MOVFF  02,44A
0404E:  MOVFF  03,44B
04052:  BSF    FD8.1
04054:  MOVFF  03,45F
04058:  MOVFF  02,45E
0405C:  MOVFF  01,45D
04060:  MOVFF  00,45C
04064:  MOVLW  0A
04066:  MOVLB  4
04068:  MOVWF  x63
0406A:  MOVLW  D7
0406C:  MOVWF  x62
0406E:  MOVLW  23
04070:  MOVWF  x61
04072:  MOVLW  7A
04074:  MOVWF  x60
04076:  MOVLB  0
04078:  CALL   1CB0
0407C:  MOVFF  00,448
04080:  MOVFF  01,449
04084:  MOVFF  02,44A
04088:  MOVFF  03,44B
0408C:  MOVFF  03,453
04090:  MOVFF  02,452
04094:  MOVFF  01,451
04098:  MOVFF  00,450
0409C:  MOVFF  336,457
040A0:  MOVFF  335,456
040A4:  MOVFF  334,455
040A8:  MOVFF  333,454
040AC:  CALL   1B52
040B0:  MOVFF  03,326
040B4:  MOVFF  02,325
040B8:  MOVFF  01,324
040BC:  MOVFF  00,323
....................     
....................    if(Presion<0.0) 
040C0:  MOVFF  326,44E
040C4:  MOVFF  325,44D
040C8:  MOVFF  324,44C
040CC:  MOVFF  323,44B
040D0:  MOVLB  4
040D2:  CLRF   x52
040D4:  CLRF   x51
040D6:  CLRF   x50
040D8:  CLRF   x4F
040DA:  MOVLB  0
040DC:  CALL   2DF8
040E0:  BNC   40EC
....................    { 
....................       Presion=0.0; 
040E2:  MOVLB  3
040E4:  CLRF   x26
040E6:  CLRF   x25
040E8:  CLRF   x24
040EA:  CLRF   x23
....................    } 
....................     
....................    if(r>media-1) 
040EC:  MOVLW  01
040EE:  MOVLB  4
040F0:  SUBWF  x47,W
040F2:  MOVLB  3
040F4:  SUBWF  x93,W
040F6:  BZ    40FC
040F8:  BNC   40FC
....................    {r=0;} 
040FA:  CLRF   x93
....................    PromPresion[r]=Presion;r++; 
040FC:  MOVF   x93,W
040FE:  MULLW  04
04100:  MOVF   FF3,W
04102:  CLRF   03
04104:  ADDLW  0A
04106:  MOVWF  FE9
04108:  MOVLW  02
0410A:  ADDWFC 03,W
0410C:  MOVWF  FEA
0410E:  MOVFF  323,FEF
04112:  MOVFF  324,FEC
04116:  MOVFF  325,FEC
0411A:  MOVFF  326,FEC
0411E:  INCF   x93,F
....................           
....................    for(t=0;t<=(media-1);t++) 
04120:  CLRF   x94
04122:  MOVLW  01
04124:  MOVLB  4
04126:  SUBWF  x47,W
04128:  MOVLB  3
0412A:  SUBWF  x94,W
0412C:  BZ    4130
0412E:  BC    41A0
....................    { 
....................       promediopresion+=PromPresion[t]; 
04130:  MOVF   x94,W
04132:  MULLW  04
04134:  MOVF   FF3,W
04136:  CLRF   03
04138:  ADDLW  0A
0413A:  MOVWF  FE9
0413C:  MOVLW  02
0413E:  ADDWFC 03,W
04140:  MOVWF  FEA
04142:  MOVFF  FEF,00
04146:  MOVFF  FEC,01
0414A:  MOVFF  FEC,02
0414E:  MOVFF  FEC,03
04152:  MOVFF  FEA,449
04156:  MOVFF  FE9,448
0415A:  BCF    FD8.1
0415C:  MOVFF  2D1,45F
04160:  MOVFF  2D0,45E
04164:  MOVFF  2CF,45D
04168:  MOVFF  2CE,45C
0416C:  MOVFF  03,463
04170:  MOVFF  02,462
04174:  MOVFF  01,461
04178:  MOVFF  00,460
0417C:  MOVLB  0
0417E:  CALL   1CB0
04182:  MOVFF  449,FEA
04186:  MOVFF  448,FE9
0418A:  MOVFF  03,2D1
0418E:  MOVFF  02,2D0
04192:  MOVFF  01,2CF
04196:  MOVFF  00,2CE
....................    }  
0419A:  MOVLB  3
0419C:  INCF   x94,F
0419E:  BRA    4122
....................    promediopresion=promediopresion/media;    
041A0:  MOVLB  4
041A2:  CLRF   x5D
041A4:  MOVFF  447,45C
041A8:  MOVLB  0
041AA:  CALL   1B1C
041AE:  MOVFF  2D1,453
041B2:  MOVFF  2D0,452
041B6:  MOVFF  2CF,451
041BA:  MOVFF  2CE,450
041BE:  MOVFF  03,457
041C2:  MOVFF  02,456
041C6:  MOVFF  01,455
041CA:  MOVFF  00,454
041CE:  CALL   1B52
041D2:  MOVFF  03,2D1
041D6:  MOVFF  02,2D0
041DA:  MOVFF  01,2CF
041DE:  MOVFF  00,2CE
....................     
....................    return promediopresion; 
041E2:  MOVFF  2CE,00
041E6:  MOVFF  2CF,01
041EA:  MOVFF  2D0,02
041EE:  MOVFF  2D1,03
.................... } 
041F2:  RETLW  00
....................  
.................... float Leer_Sensor_Presion_PreCamara(int media){ 
....................    promediopresionp=0.0; 
*
04230:  MOVLB  2
04232:  CLRF   xDD
04234:  CLRF   xDC
04236:  CLRF   xDB
04238:  CLRF   xDA
....................    V2 = sensores(4);   //Lectura de Divisor de Voltaje de PT100 con resistencia de 1k (+-10%) 
0423A:  MOVLW  04
0423C:  MOVLB  4
0423E:  MOVWF  x50
04240:  MOVLB  0
04242:  CALL   3A42
04246:  MOVFF  03,32A
0424A:  MOVFF  02,329
0424E:  MOVFF  01,328
04252:  MOVFF  00,327
....................    //V2 = V2*(5.0/1024.0); 
....................    //Presionp=(V2-0.2)/(K); 
....................    Presionp=(((V2)/1023)-0.04)/K; 
04256:  MOVFF  32A,453
0425A:  MOVFF  329,452
0425E:  MOVFF  328,451
04262:  MOVFF  327,450
04266:  MOVLB  4
04268:  CLRF   x57
0426A:  MOVLW  C0
0426C:  MOVWF  x56
0426E:  MOVLW  7F
04270:  MOVWF  x55
04272:  MOVLW  88
04274:  MOVWF  x54
04276:  MOVLB  0
04278:  CALL   1B52
0427C:  MOVFF  00,448
04280:  MOVFF  01,449
04284:  MOVFF  02,44A
04288:  MOVFF  03,44B
0428C:  BSF    FD8.1
0428E:  MOVFF  03,45F
04292:  MOVFF  02,45E
04296:  MOVFF  01,45D
0429A:  MOVFF  00,45C
0429E:  MOVLW  0A
042A0:  MOVLB  4
042A2:  MOVWF  x63
042A4:  MOVLW  D7
042A6:  MOVWF  x62
042A8:  MOVLW  23
042AA:  MOVWF  x61
042AC:  MOVLW  7A
042AE:  MOVWF  x60
042B0:  MOVLB  0
042B2:  CALL   1CB0
042B6:  MOVFF  00,448
042BA:  MOVFF  01,449
042BE:  MOVFF  02,44A
042C2:  MOVFF  03,44B
042C6:  MOVFF  03,453
042CA:  MOVFF  02,452
042CE:  MOVFF  01,451
042D2:  MOVFF  00,450
042D6:  MOVFF  336,457
042DA:  MOVFF  335,456
042DE:  MOVFF  334,455
042E2:  MOVFF  333,454
042E6:  CALL   1B52
042EA:  MOVFF  03,32E
042EE:  MOVFF  02,32D
042F2:  MOVFF  01,32C
042F6:  MOVFF  00,32B
....................     
....................    if(Presionp<0.0) 
042FA:  MOVFF  32E,44E
042FE:  MOVFF  32D,44D
04302:  MOVFF  32C,44C
04306:  MOVFF  32B,44B
0430A:  MOVLB  4
0430C:  CLRF   x52
0430E:  CLRF   x51
04310:  CLRF   x50
04312:  CLRF   x4F
04314:  MOVLB  0
04316:  CALL   2DF8
0431A:  BNC   4326
....................    { 
....................       Presionp=0.0; 
0431C:  MOVLB  3
0431E:  CLRF   x2E
04320:  CLRF   x2D
04322:  CLRF   x2C
04324:  CLRF   x2B
....................    } 
....................     
....................    if(r22>media-1) 
04326:  MOVLW  01
04328:  MOVLB  4
0432A:  SUBWF  x47,W
0432C:  MOVLB  3
0432E:  SUBWF  x95,W
04330:  BZ    4336
04332:  BNC   4336
....................    {r22=0;} 
04334:  CLRF   x95
....................    PromPresionp[r22]=Presionp;r22++; 
04336:  MOVF   x95,W
04338:  MULLW  04
0433A:  MOVF   FF3,W
0433C:  CLRF   03
0433E:  ADDLW  5A
04340:  MOVWF  FE9
04342:  MOVLW  02
04344:  ADDWFC 03,W
04346:  MOVWF  FEA
04348:  MOVFF  32B,FEF
0434C:  MOVFF  32C,FEC
04350:  MOVFF  32D,FEC
04354:  MOVFF  32E,FEC
04358:  INCF   x95,F
....................           
....................    for(t2=0;t2<=(media-1);t2++) 
0435A:  CLRF   x96
0435C:  MOVLW  01
0435E:  MOVLB  4
04360:  SUBWF  x47,W
04362:  MOVLB  3
04364:  SUBWF  x96,W
04366:  BZ    436A
04368:  BC    43DA
....................    { 
....................       promediopresionp+=PromPresionp[t2]; 
0436A:  MOVF   x96,W
0436C:  MULLW  04
0436E:  MOVF   FF3,W
04370:  CLRF   03
04372:  ADDLW  5A
04374:  MOVWF  FE9
04376:  MOVLW  02
04378:  ADDWFC 03,W
0437A:  MOVWF  FEA
0437C:  MOVFF  FEF,00
04380:  MOVFF  FEC,01
04384:  MOVFF  FEC,02
04388:  MOVFF  FEC,03
0438C:  MOVFF  FEA,449
04390:  MOVFF  FE9,448
04394:  BCF    FD8.1
04396:  MOVFF  2DD,45F
0439A:  MOVFF  2DC,45E
0439E:  MOVFF  2DB,45D
043A2:  MOVFF  2DA,45C
043A6:  MOVFF  03,463
043AA:  MOVFF  02,462
043AE:  MOVFF  01,461
043B2:  MOVFF  00,460
043B6:  MOVLB  0
043B8:  CALL   1CB0
043BC:  MOVFF  449,FEA
043C0:  MOVFF  448,FE9
043C4:  MOVFF  03,2DD
043C8:  MOVFF  02,2DC
043CC:  MOVFF  01,2DB
043D0:  MOVFF  00,2DA
....................    }  
043D4:  MOVLB  3
043D6:  INCF   x96,F
043D8:  BRA    435C
....................    promediopresionp=promediopresionp/media;    
043DA:  MOVLB  4
043DC:  CLRF   x5D
043DE:  MOVFF  447,45C
043E2:  MOVLB  0
043E4:  CALL   1B1C
043E8:  MOVFF  2DD,453
043EC:  MOVFF  2DC,452
043F0:  MOVFF  2DB,451
043F4:  MOVFF  2DA,450
043F8:  MOVFF  03,457
043FC:  MOVFF  02,456
04400:  MOVFF  01,455
04404:  MOVFF  00,454
04408:  CALL   1B52
0440C:  MOVFF  03,2DD
04410:  MOVFF  02,2DC
04414:  MOVFF  01,2DB
04418:  MOVFF  00,2DA
....................     
....................    return promediopresionp; 
0441C:  MOVFF  2DA,00
04420:  MOVFF  2DB,01
04424:  MOVFF  2DC,02
04428:  MOVFF  2DD,03
.................... } 
0442C:  RETLW  00
....................  
.................... void Controla(){ 
....................    if(tiemporecta>=Derivativo/2.0) 
*
07050:  MOVLB  4
07052:  CLRF   x5D
07054:  MOVFF  344,45C
07058:  MOVLB  0
0705A:  CALL   1B1C
0705E:  MOVFF  03,453
07062:  MOVFF  02,452
07066:  MOVFF  01,451
0706A:  MOVFF  00,450
0706E:  MOVLB  4
07070:  CLRF   x57
07072:  CLRF   x56
07074:  CLRF   x55
07076:  MOVLW  80
07078:  MOVWF  x54
0707A:  MOVLB  0
0707C:  CALL   1B52
07080:  MOVFF  00,447
07084:  MOVFF  01,448
07088:  MOVFF  02,449
0708C:  MOVFF  03,44A
07090:  MOVLB  4
07092:  CLRF   x5D
07094:  MOVFF  35C,45C
07098:  MOVLB  0
0709A:  CALL   1B1C
0709E:  MOVFF  44A,44E
070A2:  MOVFF  449,44D
070A6:  MOVFF  448,44C
070AA:  MOVFF  447,44B
070AE:  MOVFF  03,452
070B2:  MOVFF  02,451
070B6:  MOVFF  01,450
070BA:  MOVFF  00,44F
070BE:  CALL   2DF8
070C2:  BC    70C6
070C4:  BNZ   70CC
....................    { 
....................       ActualizaRecta(); 
070C6:  BRA    6FE2
....................       tiemporecta=0; 
070C8:  MOVLB  3
070CA:  CLRF   x5C
....................    }  
.................... //-------------------------------Control de Calentamiento------------------------------------------------------------//          
....................    error=desvio+Setpoint-Temperatura;      // Clculo del error ****** 
070CC:  MOVLB  4
070CE:  CLRF   x5D
070D0:  MOVFF  36C,45C
070D4:  MOVLB  0
070D6:  CALL   1B1C
070DA:  BCF    FD8.1
070DC:  MOVFF  31A,45F
070E0:  MOVFF  319,45E
070E4:  MOVFF  318,45D
070E8:  MOVFF  317,45C
070EC:  MOVFF  03,463
070F0:  MOVFF  02,462
070F4:  MOVFF  01,461
070F8:  MOVFF  00,460
070FC:  CALL   1CB0
07100:  MOVFF  00,447
07104:  MOVFF  01,448
07108:  MOVFF  02,449
0710C:  MOVFF  03,44A
07110:  BSF    FD8.1
07112:  MOVFF  03,45F
07116:  MOVFF  02,45E
0711A:  MOVFF  01,45D
0711E:  MOVFF  00,45C
07122:  MOVFF  332,463
07126:  MOVFF  331,462
0712A:  MOVFF  330,461
0712E:  MOVFF  32F,460
07132:  CALL   1CB0
07136:  MOVFF  03,302
0713A:  MOVFF  02,301
0713E:  MOVFF  01,300
07142:  MOVFF  00,2FF
....................     
....................    if(error>1.0 && error<15 && Aumento<0.3){ 
07146:  MOVLB  4
07148:  CLRF   x4E
0714A:  CLRF   x4D
0714C:  CLRF   x4C
0714E:  MOVLW  7F
07150:  MOVWF  x4B
07152:  MOVFF  302,452
07156:  MOVFF  301,451
0715A:  MOVFF  300,450
0715E:  MOVFF  2FF,44F
07162:  MOVLB  0
07164:  CALL   2DF8
07168:  BTFSS  FD8.0
0716A:  BRA    7394
0716C:  MOVFF  302,44E
07170:  MOVFF  301,44D
07174:  MOVFF  300,44C
07178:  MOVFF  2FF,44B
0717C:  MOVLB  4
0717E:  CLRF   x52
07180:  CLRF   x51
07182:  MOVLW  70
07184:  MOVWF  x50
07186:  MOVLW  82
07188:  MOVWF  x4F
0718A:  MOVLB  0
0718C:  CALL   2DF8
07190:  BTFSS  FD8.0
07192:  BRA    7394
07194:  MOVFF  2D5,44E
07198:  MOVFF  2D4,44D
0719C:  MOVFF  2D3,44C
071A0:  MOVFF  2D2,44B
071A4:  MOVLW  9A
071A6:  MOVLB  4
071A8:  MOVWF  x52
071AA:  MOVLW  99
071AC:  MOVWF  x51
071AE:  MOVLW  19
071B0:  MOVWF  x50
071B2:  MOVLW  7D
071B4:  MOVWF  x4F
071B6:  MOVLB  0
071B8:  CALL   2DF8
071BC:  BTFSS  FD8.0
071BE:  BRA    7394
....................       if(Tpulso<6.0){ 
071C0:  MOVFF  2FE,44E
071C4:  MOVFF  2FD,44D
071C8:  MOVFF  2FC,44C
071CC:  MOVFF  2FB,44B
071D0:  MOVLB  4
071D2:  CLRF   x52
071D4:  CLRF   x51
071D6:  MOVLW  40
071D8:  MOVWF  x50
071DA:  MOVLW  81
071DC:  MOVWF  x4F
071DE:  MOVLB  0
071E0:  CALL   2DF8
071E4:  BTFSS  FD8.0
071E6:  BRA    7392
....................          flagTC=1; 
071E8:  BSF    xA5.7
....................          if(TiempoControl>=Derivativo){ 
071EA:  MOVLB  3
071EC:  MOVF   x44,W
071EE:  SUBWF  x97,W
071F0:  BTFSS  FD8.0
071F2:  BRA    738E
....................             TiempoControl=0; 
071F4:  CLRF   x97
....................             if(Aumento<-0.5){ 
071F6:  MOVFF  2D5,44E
071FA:  MOVFF  2D4,44D
071FE:  MOVFF  2D3,44C
07202:  MOVFF  2D2,44B
07206:  MOVLB  4
07208:  CLRF   x52
0720A:  CLRF   x51
0720C:  MOVLW  80
0720E:  MOVWF  x50
07210:  MOVLW  7E
07212:  MOVWF  x4F
07214:  MOVLB  0
07216:  CALL   2DF8
0721A:  BNC   728C
....................                Ganancia+=Integral+0.2; 
0721C:  MOVLB  4
0721E:  CLRF   x5D
07220:  MOVFF  343,45C
07224:  MOVLB  0
07226:  CALL   1B1C
0722A:  BCF    FD8.1
0722C:  MOVFF  03,45F
07230:  MOVFF  02,45E
07234:  MOVFF  01,45D
07238:  MOVFF  00,45C
0723C:  MOVLW  CD
0723E:  MOVLB  4
07240:  MOVWF  x63
07242:  MOVLW  CC
07244:  MOVWF  x62
07246:  MOVLW  4C
07248:  MOVWF  x61
0724A:  MOVLW  7C
0724C:  MOVWF  x60
0724E:  MOVLB  0
07250:  CALL   1CB0
07254:  BCF    FD8.1
07256:  MOVFF  312,45F
0725A:  MOVFF  311,45E
0725E:  MOVFF  310,45D
07262:  MOVFF  30F,45C
07266:  MOVFF  03,463
0726A:  MOVFF  02,462
0726E:  MOVFF  01,461
07272:  MOVFF  00,460
07276:  CALL   1CB0
0727A:  MOVFF  03,312
0727E:  MOVFF  02,311
07282:  MOVFF  01,310
07286:  MOVFF  00,30F
....................             }else{ 
0728A:  BRA    738C
....................                if(Aumento<-0.1){ 
0728C:  MOVFF  2D5,44E
07290:  MOVFF  2D4,44D
07294:  MOVFF  2D3,44C
07298:  MOVFF  2D2,44B
0729C:  MOVLW  CD
0729E:  MOVLB  4
072A0:  MOVWF  x52
072A2:  MOVLW  CC
072A4:  MOVWF  x51
072A6:  MOVWF  x50
072A8:  MOVLW  7B
072AA:  MOVWF  x4F
072AC:  MOVLB  0
072AE:  CALL   2DF8
072B2:  BNC   7324
....................                   Ganancia+=Integral-0.2; 
072B4:  MOVLB  4
072B6:  CLRF   x5D
072B8:  MOVFF  343,45C
072BC:  MOVLB  0
072BE:  CALL   1B1C
072C2:  BSF    FD8.1
072C4:  MOVFF  03,45F
072C8:  MOVFF  02,45E
072CC:  MOVFF  01,45D
072D0:  MOVFF  00,45C
072D4:  MOVLW  CD
072D6:  MOVLB  4
072D8:  MOVWF  x63
072DA:  MOVLW  CC
072DC:  MOVWF  x62
072DE:  MOVLW  4C
072E0:  MOVWF  x61
072E2:  MOVLW  7C
072E4:  MOVWF  x60
072E6:  MOVLB  0
072E8:  CALL   1CB0
072EC:  BCF    FD8.1
072EE:  MOVFF  312,45F
072F2:  MOVFF  311,45E
072F6:  MOVFF  310,45D
072FA:  MOVFF  30F,45C
072FE:  MOVFF  03,463
07302:  MOVFF  02,462
07306:  MOVFF  01,461
0730A:  MOVFF  00,460
0730E:  CALL   1CB0
07312:  MOVFF  03,312
07316:  MOVFF  02,311
0731A:  MOVFF  01,310
0731E:  MOVFF  00,30F
....................                }else{ 
07322:  BRA    738C
....................                   Ganancia+=Integral-0.5; 
07324:  MOVLB  4
07326:  CLRF   x5D
07328:  MOVFF  343,45C
0732C:  MOVLB  0
0732E:  CALL   1B1C
07332:  BSF    FD8.1
07334:  MOVFF  03,45F
07338:  MOVFF  02,45E
0733C:  MOVFF  01,45D
07340:  MOVFF  00,45C
07344:  MOVLB  4
07346:  CLRF   x63
07348:  CLRF   x62
0734A:  CLRF   x61
0734C:  MOVLW  7E
0734E:  MOVWF  x60
07350:  MOVLB  0
07352:  CALL   1CB0
07356:  BCF    FD8.1
07358:  MOVFF  312,45F
0735C:  MOVFF  311,45E
07360:  MOVFF  310,45D
07364:  MOVFF  30F,45C
07368:  MOVFF  03,463
0736C:  MOVFF  02,462
07370:  MOVFF  01,461
07374:  MOVFF  00,460
07378:  CALL   1CB0
0737C:  MOVFF  03,312
07380:  MOVFF  02,311
07384:  MOVFF  01,310
07388:  MOVFF  00,30F
0738C:  MOVLB  3
....................                } 
....................             } 
....................          } 
....................       }else{ 
0738E:  BRA    7396
07390:  MOVLB  0
....................          flagTC=0; 
07392:  BCF    xA5.7
07394:  MOVLB  3
....................       } 
....................    } 
....................     
....................    if(error<-0.3) 
07396:  MOVFF  302,44E
0739A:  MOVFF  301,44D
0739E:  MOVFF  300,44C
073A2:  MOVFF  2FF,44B
073A6:  MOVLW  9A
073A8:  MOVLB  4
073AA:  MOVWF  x52
073AC:  MOVLW  99
073AE:  MOVWF  x51
073B0:  MOVWF  x50
073B2:  MOVLW  7D
073B4:  MOVWF  x4F
073B6:  MOVLB  0
073B8:  CALL   2DF8
073BC:  BNC   73CE
....................       Ganancia=Ganancia2; 
073BE:  MOVFF  316,312
073C2:  MOVFF  315,311
073C6:  MOVFF  314,310
073CA:  MOVFF  313,30F
....................     
....................    if(Ganancia<1) 
073CE:  MOVFF  312,44E
073D2:  MOVFF  311,44D
073D6:  MOVFF  310,44C
073DA:  MOVFF  30F,44B
073DE:  MOVLB  4
073E0:  CLRF   x52
073E2:  CLRF   x51
073E4:  CLRF   x50
073E6:  MOVLW  7F
073E8:  MOVWF  x4F
073EA:  MOVLB  0
073EC:  CALL   2DF8
073F0:  BNC   73FE
....................       Ganancia=1; 
073F2:  MOVLB  3
073F4:  CLRF   x12
073F6:  CLRF   x11
073F8:  CLRF   x10
073FA:  MOVLW  7F
073FC:  MOVWF  x0F
....................        
....................    if(error<0.0)     // Anti Wind_DOWN     
073FE:  MOVFF  302,44E
07402:  MOVFF  301,44D
07406:  MOVFF  300,44C
0740A:  MOVFF  2FF,44B
0740E:  MOVLB  4
07410:  CLRF   x52
07412:  CLRF   x51
07414:  CLRF   x50
07416:  CLRF   x4F
07418:  MOVLB  0
0741A:  CALL   2DF8
0741E:  BNC   742E
....................       error=0.0; 
07420:  MOVLB  3
07422:  CLRF   x02
07424:  CLRF   x01
07426:  CLRF   x00
07428:  MOVLB  2
0742A:  CLRF   xFF
0742C:  MOVLB  0
....................     
....................    //tmp=(Setpoint-Prom)*Ganancia;  // Control Proporcional. 
....................    tmp=error*Ganancia;  // Control Proporcional. 
0742E:  MOVFF  302,463
07432:  MOVFF  301,462
07436:  MOVFF  300,461
0743A:  MOVFF  2FF,460
0743E:  MOVFF  312,467
07442:  MOVFF  311,466
07446:  MOVFF  310,465
0744A:  MOVFF  30F,464
0744E:  CALL   3ABC
07452:  MOVFF  03,30E
07456:  MOVFF  02,30D
0745A:  MOVFF  01,30C
0745E:  MOVFF  00,30B
....................           
....................    if(tmp>Setpoint)   // Anti Wind-UP       
07462:  MOVLB  4
07464:  CLRF   x5D
07466:  MOVFF  36C,45C
0746A:  MOVLB  0
0746C:  CALL   1B1C
07470:  MOVFF  03,44E
07474:  MOVFF  02,44D
07478:  MOVFF  01,44C
0747C:  MOVFF  00,44B
07480:  MOVFF  30E,452
07484:  MOVFF  30D,451
07488:  MOVFF  30C,450
0748C:  MOVFF  30B,44F
07490:  CALL   2DF8
07494:  BNC   74B4
....................       tmp=Setpoint; 
07496:  MOVLB  4
07498:  CLRF   x5D
0749A:  MOVFF  36C,45C
0749E:  MOVLB  0
074A0:  CALL   1B1C
074A4:  MOVFF  03,30E
074A8:  MOVFF  02,30D
074AC:  MOVFF  01,30C
074B0:  MOVFF  00,30B
....................                   
....................    if(tmp<0.0)     // Anti Wind_DOWN     
074B4:  MOVFF  30E,44E
074B8:  MOVFF  30D,44D
074BC:  MOVFF  30C,44C
074C0:  MOVFF  30B,44B
074C4:  MOVLB  4
074C6:  CLRF   x52
074C8:  CLRF   x51
074CA:  CLRF   x50
074CC:  CLRF   x4F
074CE:  MOVLB  0
074D0:  CALL   2DF8
074D4:  BNC   74E0
....................       tmp=0.0; 
074D6:  MOVLB  3
074D8:  CLRF   x0E
074DA:  CLRF   x0D
074DC:  CLRF   x0C
074DE:  CLRF   x0B
....................     
....................    // Tpulso(t)= Tciclo*(y(t)-ymin)/(ymax - ymin); calculo de ciclo util para control de resistencia.ymax=140.ymin=0; 
....................    // Tpulso es float, hay que pasar ese ciclo a una salida de un puerto usando el TMR1. 
....................    tmp2=(tmp/Setpoint); 
074E0:  MOVLB  4
074E2:  CLRF   x5D
074E4:  MOVFF  36C,45C
074E8:  MOVLB  0
074EA:  CALL   1B1C
074EE:  MOVFF  30E,453
074F2:  MOVFF  30D,452
074F6:  MOVFF  30C,451
074FA:  MOVFF  30B,450
074FE:  MOVFF  03,457
07502:  MOVFF  02,456
07506:  MOVFF  01,455
0750A:  MOVFF  00,454
0750E:  CALL   1B52
07512:  MOVFF  03,31E
07516:  MOVFF  02,31D
0751A:  MOVFF  01,31C
0751E:  MOVFF  00,31B
....................    //if(tmp2>0.8) 
....................    //tmp2=0.8; 
....................    Tpulso=tmp2*Tciclo;   
07522:  MOVFF  31E,463
07526:  MOVFF  31D,462
0752A:  MOVFF  31C,461
0752E:  MOVFF  31B,460
07532:  MOVFF  2FA,467
07536:  MOVFF  2F9,466
0753A:  MOVFF  2F8,465
0753E:  MOVFF  2F7,464
07542:  CALL   3ABC
07546:  MOVFF  03,2FE
0754A:  MOVFF  02,2FD
0754E:  MOVFF  01,2FC
07552:  MOVFF  00,2FB
....................                                        
....................    Tp=(Tpulso/0.005); 
07556:  MOVFF  2FE,453
0755A:  MOVFF  2FD,452
0755E:  MOVFF  2FC,451
07562:  MOVFF  2FB,450
07566:  MOVLW  0A
07568:  MOVLB  4
0756A:  MOVWF  x57
0756C:  MOVLW  D7
0756E:  MOVWF  x56
07570:  MOVLW  23
07572:  MOVWF  x55
07574:  MOVLW  77
07576:  MOVWF  x54
07578:  MOVLB  0
0757A:  CALL   1B52
0757E:  MOVFF  03,45F
07582:  MOVFF  02,45E
07586:  MOVFF  01,45D
0758A:  MOVFF  00,45C
0758E:  CALL   41F4
07592:  MOVFF  02,AD
07596:  MOVFF  01,AC
....................    Tc=(Tciclo/0.005); 
0759A:  MOVFF  2FA,453
0759E:  MOVFF  2F9,452
075A2:  MOVFF  2F8,451
075A6:  MOVFF  2F7,450
075AA:  MOVLW  0A
075AC:  MOVLB  4
075AE:  MOVWF  x57
075B0:  MOVLW  D7
075B2:  MOVWF  x56
075B4:  MOVLW  23
075B6:  MOVWF  x55
075B8:  MOVLW  77
075BA:  MOVWF  x54
075BC:  MOVLB  0
075BE:  CALL   1B52
075C2:  MOVFF  03,45F
075C6:  MOVFF  02,45E
075CA:  MOVFF  01,45D
075CE:  MOVFF  00,45C
075D2:  CALL   41F4
075D6:  MOVFF  02,AF
075DA:  MOVFF  01,AE
....................    Controlando=1;    
075DE:  MOVLW  01
075E0:  MOVLB  3
075E2:  MOVWF  x5D
.................... //--------------------------------------------------------------------------------------------------------------------//    
.................... } 
075E4:  MOVLB  0
075E6:  RETLW  00
....................  
.................... void ControlaPresion(){ 
....................    float prc=0.0;    
....................    if(tiemporecta>=Derivativo/2.0){ 
....................       ActualizaRectaPresion(); 
....................       tiemporecta=0; 
....................    }  
....................    prc=(float)PresionCamara; 
....................    Tactual=((prc)*(prc)*(prc)*p1)+((prc)*(prc)*p2)+(p3*prc)+p4; 
.................... //-------------------------------Control de Calentamiento------------------------------------------------------------//          
....................    if(Esterilizando){ 
....................       error=desvio+Setpoint-Tactual;      // Clculo del error ****** 
....................    }else{ 
....................       error=desvio+1.0+Setpoint-Tactual;      // Clculo del error ****** 
....................    } 
....................     
....................    if(error>1.0 && error<20 && Aumento2<0.3){ 
....................       if(Tpulso<=6.0){ 
....................          flagTC=1; 
....................          if(TiempoControl>=Derivativo){ 
....................             TiempoControl=0; 
....................             if(Aumento2<-0.5){ 
....................                Ganancia+=Integral+0.2; 
....................             }else{ 
....................                if(Aumento2<-0.1){ 
....................                   Ganancia+=Integral-0.2; 
....................                }else{ 
....................                   Ganancia+=Integral-0.5; 
....................                } 
....................             } 
....................          } 
....................       }else{ 
....................          flagTC=0; 
....................       } 
....................    } 
....................     
....................    if(error<-0.3) 
....................       Ganancia=Ganancia2; 
....................     
....................    if(Ganancia<1) 
....................       Ganancia=1; 
....................     
....................    if(error<0.0)     // Anti Wind_DOWN     
....................       error=0.0; 
....................    //tmp=(Setpoint-Prom)*Ganancia;  // Control Proporcional. 
....................    tmp=error*Ganancia;  // Control Proporcional. 
....................           
....................    if(tmp>Setpoint)   // Anti Wind-UP       
....................       tmp=Setpoint; 
....................                 
....................    if(tmp<0.0)     // Anti Wind_DOWN     
....................       tmp=0.0; 
....................     
....................    // Tpulso(t)= Tciclo*(y(t)-ymin)/(ymax - ymin); calculo de ciclo util para control de resistencia.ymax=140.ymin=0; 
....................    // Tpulso es float, hay que pasar ese ciclo a una salida de un puerto usando el TMR1. 
....................    tmp2=(tmp/Setpoint); 
....................    //if(tmp2>0.8) 
....................    //tmp2=0.8; 
....................    Tpulso=tmp2*Tciclo;   
....................                                        
....................    Tp=(Tpulso/0.005); 
....................    Tc=(Tciclo/0.005); 
....................    Controlando=1;    
.................... //--------------------------------------------------------------------------------------------------------------------//    
.................... } 
....................  
....................  
.................... void Envio_I2C(direccion, posicion, dato){ 
....................  
....................    i2c_start();            // Comienzo comunicacin 
....................    i2c_write(direccion);   // Direccin del esclavo en el bus I2C 
....................    i2c_write(posicion);    // Posicin donde se guardara el dato transmitido 
....................    i2c_write(dato);        // Dato a transmitir 
....................    i2c_stop();             // Fin comunicacin 
....................  } 
....................  
.................... void Lectura_I2C (byte direccion, byte posicion, byte &dato) { 
....................  
....................    i2c_start();            // Comienzo de la comunicacin 
....................    i2c_write(direccion);   // Direccin del esclavo en el bus I2C 
....................    i2c_write(posicion);    // Posicin de donde se leer el dato en el esclavo 
....................    i2c_start();            // Reinicio 
....................    i2c_write(direccion+1); // Direccin del esclavo en modo lectura 
....................    dato=i2c_read(0);       // Lectura del dato 
....................    i2c_stop();             // Fin comunicacin 
.................... } 
....................  
.................... void Carga_Vector(void){ 
....................    SlaveA0Tx[0]=(int8)Temperatura; 
*
045BE:  MOVFF  332,45F
045C2:  MOVFF  331,45E
045C6:  MOVFF  330,45D
045CA:  MOVFF  32F,45C
045CE:  RCALL  41F4
045D0:  MOVFF  01,64
....................    SlaveA0Tx[1]=(Temperatura-((int8)Temperatura))*10; 
045D4:  MOVFF  332,45F
045D8:  MOVFF  331,45E
045DC:  MOVFF  330,45D
045E0:  MOVFF  32F,45C
045E4:  RCALL  41F4
045E6:  MOVLB  4
045E8:  CLRF   x5D
045EA:  MOVFF  01,45C
045EE:  MOVLB  0
045F0:  CALL   1B1C
045F4:  BSF    FD8.1
045F6:  MOVFF  332,45F
045FA:  MOVFF  331,45E
045FE:  MOVFF  330,45D
04602:  MOVFF  32F,45C
04606:  MOVFF  03,463
0460A:  MOVFF  02,462
0460E:  MOVFF  01,461
04612:  MOVFF  00,460
04616:  CALL   1CB0
0461A:  MOVFF  00,45C
0461E:  MOVFF  01,45D
04622:  MOVFF  02,45E
04626:  MOVFF  03,45F
0462A:  MOVFF  03,463
0462E:  MOVFF  02,462
04632:  MOVFF  01,461
04636:  MOVFF  00,460
0463A:  MOVLB  4
0463C:  CLRF   x67
0463E:  CLRF   x66
04640:  MOVLW  20
04642:  MOVWF  x65
04644:  MOVLW  82
04646:  MOVWF  x64
04648:  MOVLB  0
0464A:  CALL   3ABC
0464E:  MOVFF  03,45F
04652:  MOVFF  02,45E
04656:  MOVFF  01,45D
0465A:  MOVFF  00,45C
0465E:  RCALL  41F4
04660:  MOVFF  01,65
....................    SlaveA0Tx[2]=make8((int16)PresionCamara,0); 
04664:  MOVFF  37F,66
04668:  MOVLB  0
....................    SlaveA0Tx[3]=make8((int16)PresionCamara,1); 
0466A:  MOVFF  380,67
0466E:  MOVLB  0
....................    SlaveA0Tx[4]=make8((int16)PresionPreCamara,0); 
04670:  MOVFF  381,68
04674:  MOVLB  0
....................    SlaveA0Tx[5]=make8((int16)PresionPreCamara,1); 
04676:  MOVFF  382,69
0467A:  MOVLB  0
....................    SlaveA0Tx[6]=(int8)Tpulso*10; 
0467C:  MOVFF  2FE,45F
04680:  MOVFF  2FD,45E
04684:  MOVFF  2FC,45D
04688:  MOVFF  2FB,45C
0468C:  RCALL  41F4
0468E:  MOVF   01,W
04690:  MULLW  0A
04692:  MOVFF  FF3,6A
....................    SlaveA0Tx[7]=HIG; 
04696:  CLRF   x6B
04698:  BTFSC  xA5.5
0469A:  INCF   x6B,F
....................    SlaveA0Tx[8]=LOW; 
0469C:  CLRF   x6C
0469E:  BTFSC  xA5.4
046A0:  INCF   x6C,F
....................    SlaveA0Tx[9]=TERM; 
046A2:  BSF    F93.4
046A4:  CLRF   x6D
046A6:  BTFSS  F81.4
046A8:  INCF   x6D,F
....................    SlaveA0Tx[10]=DOOR; 
046AA:  BSF    F93.6
046AC:  CLRF   x6E
046AE:  BTFSS  F81.6
046B0:  INCF   x6E,F
....................    SlaveA0Tx[11]=STOP; 
046B2:  BSF    F93.5
046B4:  CLRF   x6F
046B6:  BTFSS  F81.5
046B8:  INCF   x6F,F
....................    SlaveA0Tx[12]=(int8)error; 
046BA:  MOVFF  302,45F
046BE:  MOVFF  301,45E
046C2:  MOVFF  300,45D
046C6:  MOVFF  2FF,45C
046CA:  RCALL  41F4
046CC:  MOVFF  01,70
....................    SlaveA0Tx[13]=CicloSeleccionado; 
046D0:  MOVFF  36B,71
....................    SlaveA0Tx[14]=SetTime; 
046D4:  MOVFF  3B4,72
....................    SlaveA0Tx[15]=Dia; 
046D8:  MOVFF  3A8,73
....................    SlaveA0Tx[16]=Mes; 
046DC:  MOVFF  3A7,74
....................    SlaveA0Tx[17]=Year; 
046E0:  MOVFF  3A6,75
....................    SlaveA0Tx[18]=Hora; 
046E4:  MOVFF  3A9,76
....................    SlaveA0Tx[19]=Minuto; 
046E8:  MOVFF  3AA,77
....................    SlaveA0Tx[20]=Segundo; 
046EC:  MOVFF  3AB,78
....................    SlaveA0Tx[21]=Imprime; 
046F0:  MOVFF  3B5,79
....................    SlaveA0Tx[22]=Aire; 
046F4:  CLRF   x7A
046F6:  BTFSC  xA4.4
046F8:  INCF   x7A,F
....................    SlaveA0Tx[23]=make8(Ciclos,0); 
046FA:  MOVFF  383,7B
046FE:  MOVLB  0
....................    SlaveA0Tx[24]=make8(Ciclos,1); 
04700:  MOVFF  384,7C
04704:  MOVLB  0
.................... } 
04706:  GOTO   4782 (RETURN)
....................  
.................... void Lee_Vector(void){ 
....................    /*Dia=txbuf[0]; 
....................    Mess=txbuf[1]; 
....................    Year=txbuf[2]; 
....................    Hora=txbuf[3]; 
....................    Minuto=txbuf[4]; 
....................    Segundo=txbuf[5]; 
....................    dow=txbuf[6];*/ 
.................... } 
....................  
.................... void Envio_Esclavos(void){ 
....................    Carga_Vector(); 
*
04780:  BRA    45BE
....................    for(i=0;i<25;i++){ 
04782:  MOVLB  3
04784:  CLRF   x68
04786:  MOVF   x68,W
04788:  SUBLW  18
0478A:  BNC   480C
....................       direccion=0xB0; 
0478C:  MOVLW  B0
0478E:  MOVLB  0
04790:  MOVWF  x85
....................       i2c_start();            // Comienzo comunicacin 
04792:  BSF    F94.4
04794:  MOVLW  05
04796:  MOVWF  00
04798:  DECFSZ 00,F
0479A:  BRA    4798
0479C:  BSF    F94.3
0479E:  MOVLW  06
047A0:  MOVWF  00
047A2:  DECFSZ 00,F
047A4:  BRA    47A2
047A6:  BCF    F8B.4
047A8:  BCF    F94.4
047AA:  MOVLW  05
047AC:  MOVWF  00
047AE:  DECFSZ 00,F
047B0:  BRA    47AE
047B2:  BCF    F8B.3
047B4:  BCF    F94.3
....................       i2c_write(direccion);   // Direccin del esclavo en el bus I2C 
047B6:  MOVFF  85,45D
047BA:  RCALL  470A
....................       i2c_write(i);   // Direccin del esclavo en el bus I2C 
047BC:  MOVFF  368,45D
047C0:  RCALL  470A
....................       i2c_write(0);    // Posicin donde se guardara el dato transmitido 
047C2:  MOVLB  4
047C4:  CLRF   x5D
047C6:  MOVLB  0
047C8:  RCALL  470A
....................       i2c_write(SlaveA0Tx[i]); // Dato a transmitir 
047CA:  CLRF   03
047CC:  MOVLB  3
047CE:  MOVF   x68,W
047D0:  ADDLW  64
047D2:  MOVWF  FE9
047D4:  MOVLW  00
047D6:  ADDWFC 03,W
047D8:  MOVWF  FEA
047DA:  MOVFF  FEF,45C
047DE:  MOVFF  45C,45D
047E2:  MOVLB  0
047E4:  RCALL  470A
....................       i2c_stop();  
047E6:  BCF    F94.4
047E8:  NOP   
047EA:  BSF    F94.3
047EC:  BTFSS  F82.3
047EE:  BRA    47EC
047F0:  MOVLW  05
047F2:  MOVWF  00
047F4:  DECFSZ 00,F
047F6:  BRA    47F4
047F8:  BRA    47FA
047FA:  NOP   
047FC:  BSF    F94.4
047FE:  MOVLW  05
04800:  MOVWF  00
04802:  DECFSZ 00,F
04804:  BRA    4802
....................       //Envio_I2C(direccion,i,SlaveB0Tx[i]); 
....................    }  
04806:  MOVLB  3
04808:  INCF   x68,F
0480A:  BRA    4786
.................... } 
0480C:  MOVLB  0
0480E:  RETLW  00
.................... void Lectura_Esclavos(void){ 
....................    //for(i=0;i<7;i++) 
....................    //{ 
....................    //   direccion=0xA0;                        //Direccin en el bus I2c 
....................    //   posicion=i;                         //Posicin de memoria a leer 
....................    //   Lectura_I2C(direccion, posicion, dato);    //Lectura por I2C 
....................    //   txbuf[i]=(int8)dato; 
....................    //} 
....................    //Lee_Vector(); 
.................... } 
....................  
.................... void LeeEEPROM(){ 
.................... //Lectura EEPROM//-------------------------- 
....................    Testerilizacionp[0]=read_eeprom(0); 
*
01F28:  MOVFF  FF2,447
01F2C:  BCF    FF2.6
01F2E:  BCF    FF2.7
01F30:  CLRF   FAA
01F32:  CLRF   FA9
01F34:  BCF    FA6.6
01F36:  BCF    FA6.7
01F38:  BSF    FA6.0
01F3A:  MOVF   FA8,W
01F3C:  MOVLB  4
01F3E:  BTFSC  x47.6
01F40:  BSF    FF2.6
01F42:  BTFSC  x47.7
01F44:  BSF    FF2.7
01F46:  MOVLB  0
01F48:  MOVWF  xBD
....................    delay_ms(10); 
01F4A:  MOVLW  0A
01F4C:  MOVLB  4
01F4E:  MOVWF  x5C
01F50:  MOVLB  0
01F52:  RCALL  1AF4
....................    Testerilizacionp[1]=read_eeprom(1); 
01F54:  MOVFF  FF2,447
01F58:  BCF    FF2.6
01F5A:  BCF    FF2.7
01F5C:  CLRF   FAA
01F5E:  MOVLW  01
01F60:  MOVWF  FA9
01F62:  BCF    FA6.6
01F64:  BCF    FA6.7
01F66:  BSF    FA6.0
01F68:  MOVF   FA8,W
01F6A:  MOVLB  4
01F6C:  BTFSC  x47.6
01F6E:  BSF    FF2.6
01F70:  BTFSC  x47.7
01F72:  BSF    FF2.7
01F74:  MOVLB  0
01F76:  MOVWF  xBE
....................    delay_ms(10); 
01F78:  MOVLW  0A
01F7A:  MOVLB  4
01F7C:  MOVWF  x5C
01F7E:  MOVLB  0
01F80:  RCALL  1AF4
....................    Testerilizacionp[2]=read_eeprom(2); 
01F82:  MOVFF  FF2,447
01F86:  BCF    FF2.6
01F88:  BCF    FF2.7
01F8A:  CLRF   FAA
01F8C:  MOVLW  02
01F8E:  MOVWF  FA9
01F90:  BCF    FA6.6
01F92:  BCF    FA6.7
01F94:  BSF    FA6.0
01F96:  MOVF   FA8,W
01F98:  MOVLB  4
01F9A:  BTFSC  x47.6
01F9C:  BSF    FF2.6
01F9E:  BTFSC  x47.7
01FA0:  BSF    FF2.7
01FA2:  MOVLB  0
01FA4:  MOVWF  xBF
....................    delay_ms(10); 
01FA6:  MOVLW  0A
01FA8:  MOVLB  4
01FAA:  MOVWF  x5C
01FAC:  MOVLB  0
01FAE:  RCALL  1AF4
....................    Testerilizacionp[3]=read_eeprom(3); 
01FB0:  MOVFF  FF2,447
01FB4:  BCF    FF2.6
01FB6:  BCF    FF2.7
01FB8:  CLRF   FAA
01FBA:  MOVLW  03
01FBC:  MOVWF  FA9
01FBE:  BCF    FA6.6
01FC0:  BCF    FA6.7
01FC2:  BSF    FA6.0
01FC4:  MOVF   FA8,W
01FC6:  MOVLB  4
01FC8:  BTFSC  x47.6
01FCA:  BSF    FF2.6
01FCC:  BTFSC  x47.7
01FCE:  BSF    FF2.7
01FD0:  MOVLB  0
01FD2:  MOVWF  xC0
....................    delay_ms(10); 
01FD4:  MOVLW  0A
01FD6:  MOVLB  4
01FD8:  MOVWF  x5C
01FDA:  MOVLB  0
01FDC:  RCALL  1AF4
....................    Tsecadop[0]=read_eeprom(4); 
01FDE:  MOVFF  FF2,447
01FE2:  BCF    FF2.6
01FE4:  BCF    FF2.7
01FE6:  CLRF   FAA
01FE8:  MOVLW  04
01FEA:  MOVWF  FA9
01FEC:  BCF    FA6.6
01FEE:  BCF    FA6.7
01FF0:  BSF    FA6.0
01FF2:  MOVF   FA8,W
01FF4:  MOVLB  4
01FF6:  BTFSC  x47.6
01FF8:  BSF    FF2.6
01FFA:  BTFSC  x47.7
01FFC:  BSF    FF2.7
01FFE:  MOVLB  0
02000:  MOVWF  xC6
....................    delay_ms(10); 
02002:  MOVLW  0A
02004:  MOVLB  4
02006:  MOVWF  x5C
02008:  MOVLB  0
0200A:  RCALL  1AF4
....................    Tsecadop[1]=read_eeprom(5); 
0200C:  MOVFF  FF2,447
02010:  BCF    FF2.6
02012:  BCF    FF2.7
02014:  CLRF   FAA
02016:  MOVLW  05
02018:  MOVWF  FA9
0201A:  BCF    FA6.6
0201C:  BCF    FA6.7
0201E:  BSF    FA6.0
02020:  MOVF   FA8,W
02022:  MOVLB  4
02024:  BTFSC  x47.6
02026:  BSF    FF2.6
02028:  BTFSC  x47.7
0202A:  BSF    FF2.7
0202C:  MOVLB  0
0202E:  MOVWF  xC7
....................    delay_ms(10); 
02030:  MOVLW  0A
02032:  MOVLB  4
02034:  MOVWF  x5C
02036:  MOVLB  0
02038:  RCALL  1AF4
....................    Tsecadop[2]=read_eeprom(6); 
0203A:  MOVFF  FF2,447
0203E:  BCF    FF2.6
02040:  BCF    FF2.7
02042:  CLRF   FAA
02044:  MOVLW  06
02046:  MOVWF  FA9
02048:  BCF    FA6.6
0204A:  BCF    FA6.7
0204C:  BSF    FA6.0
0204E:  MOVF   FA8,W
02050:  MOVLB  4
02052:  BTFSC  x47.6
02054:  BSF    FF2.6
02056:  BTFSC  x47.7
02058:  BSF    FF2.7
0205A:  MOVLB  0
0205C:  MOVWF  xC8
....................    delay_ms(10); 
0205E:  MOVLW  0A
02060:  MOVLB  4
02062:  MOVWF  x5C
02064:  MOVLB  0
02066:  RCALL  1AF4
....................    Tsecadop[3]=read_eeprom(7); 
02068:  MOVFF  FF2,447
0206C:  BCF    FF2.6
0206E:  BCF    FF2.7
02070:  CLRF   FAA
02072:  MOVLW  07
02074:  MOVWF  FA9
02076:  BCF    FA6.6
02078:  BCF    FA6.7
0207A:  BSF    FA6.0
0207C:  MOVF   FA8,W
0207E:  MOVLB  4
02080:  BTFSC  x47.6
02082:  BSF    FF2.6
02084:  BTFSC  x47.7
02086:  BSF    FF2.7
02088:  MOVLB  0
0208A:  MOVWF  xC9
....................    delay_ms(10); 
0208C:  MOVLW  0A
0208E:  MOVLB  4
02090:  MOVWF  x5C
02092:  MOVLB  0
02094:  RCALL  1AF4
....................    Setpoint=read_eeprom(8); 
02096:  MOVFF  FF2,447
0209A:  BCF    FF2.6
0209C:  BCF    FF2.7
0209E:  CLRF   FAA
020A0:  MOVLW  08
020A2:  MOVWF  FA9
020A4:  BCF    FA6.6
020A6:  BCF    FA6.7
020A8:  BSF    FA6.0
020AA:  MOVF   FA8,W
020AC:  MOVLB  4
020AE:  BTFSC  x47.6
020B0:  BSF    FF2.6
020B2:  BTFSC  x47.7
020B4:  BSF    FF2.7
020B6:  MOVLB  3
020B8:  MOVWF  x6C
....................    delay_ms(10); 
020BA:  MOVLW  0A
020BC:  MOVLB  4
020BE:  MOVWF  x5C
020C0:  MOVLB  0
020C2:  RCALL  1AF4
....................    Nivel=read_eeprom(9); 
020C4:  MOVFF  FF2,447
020C8:  BCF    FF2.6
020CA:  BCF    FF2.7
020CC:  CLRF   FAA
020CE:  MOVLW  09
020D0:  MOVWF  FA9
020D2:  BCF    FA6.6
020D4:  BCF    FA6.7
020D6:  BSF    FA6.0
020D8:  MOVF   FA8,W
020DA:  MOVLB  4
020DC:  BTFSC  x47.6
020DE:  BSF    FF2.6
020E0:  BTFSC  x47.7
020E2:  BSF    FF2.7
020E4:  MOVLB  3
020E6:  CLRF   x7C
020E8:  MOVWF  x7B
....................    delay_ms(10); 
020EA:  MOVLW  0A
020EC:  MOVLB  4
020EE:  MOVWF  x5C
020F0:  MOVLB  0
020F2:  RCALL  1AF4
....................    Password[0]=read_eeprom(10); 
020F4:  MOVFF  FF2,447
020F8:  BCF    FF2.6
020FA:  BCF    FF2.7
020FC:  CLRF   FAA
020FE:  MOVLW  0A
02100:  MOVWF  FA9
02102:  BCF    FA6.6
02104:  BCF    FA6.7
02106:  BSF    FA6.0
02108:  MOVF   FA8,W
0210A:  MOVLB  4
0210C:  BTFSC  x47.6
0210E:  BSF    FF2.6
02110:  BTFSC  x47.7
02112:  BSF    FF2.7
02114:  MOVLB  3
02116:  MOVWF  x8F
....................    delay_ms(10); 
02118:  MOVLW  0A
0211A:  MOVLB  4
0211C:  MOVWF  x5C
0211E:  MOVLB  0
02120:  RCALL  1AF4
....................    Password[1]=read_eeprom(11); 
02122:  MOVFF  FF2,447
02126:  BCF    FF2.6
02128:  BCF    FF2.7
0212A:  CLRF   FAA
0212C:  MOVLW  0B
0212E:  MOVWF  FA9
02130:  BCF    FA6.6
02132:  BCF    FA6.7
02134:  BSF    FA6.0
02136:  MOVF   FA8,W
02138:  MOVLB  4
0213A:  BTFSC  x47.6
0213C:  BSF    FF2.6
0213E:  BTFSC  x47.7
02140:  BSF    FF2.7
02142:  MOVLB  3
02144:  MOVWF  x90
....................    delay_ms(10); 
02146:  MOVLW  0A
02148:  MOVLB  4
0214A:  MOVWF  x5C
0214C:  MOVLB  0
0214E:  RCALL  1AF4
....................    Password[2]=read_eeprom(12); 
02150:  MOVFF  FF2,447
02154:  BCF    FF2.6
02156:  BCF    FF2.7
02158:  CLRF   FAA
0215A:  MOVLW  0C
0215C:  MOVWF  FA9
0215E:  BCF    FA6.6
02160:  BCF    FA6.7
02162:  BSF    FA6.0
02164:  MOVF   FA8,W
02166:  MOVLB  4
02168:  BTFSC  x47.6
0216A:  BSF    FF2.6
0216C:  BTFSC  x47.7
0216E:  BSF    FF2.7
02170:  MOVLB  3
02172:  MOVWF  x91
....................    delay_ms(10); 
02174:  MOVLW  0A
02176:  MOVLB  4
02178:  MOVWF  x5C
0217A:  MOVLB  0
0217C:  RCALL  1AF4
....................    Password[3]=read_eeprom(13); 
0217E:  MOVFF  FF2,447
02182:  BCF    FF2.6
02184:  BCF    FF2.7
02186:  CLRF   FAA
02188:  MOVLW  0D
0218A:  MOVWF  FA9
0218C:  BCF    FA6.6
0218E:  BCF    FA6.7
02190:  BSF    FA6.0
02192:  MOVF   FA8,W
02194:  MOVLB  4
02196:  BTFSC  x47.6
02198:  BSF    FF2.6
0219A:  BTFSC  x47.7
0219C:  BSF    FF2.7
0219E:  MOVLB  3
021A0:  MOVWF  x92
....................    delay_ms(10); 
021A2:  MOVLW  0A
021A4:  MOVLB  4
021A6:  MOVWF  x5C
021A8:  MOVLB  0
021AA:  RCALL  1AF4
....................    Ganancia=read_eeprom(20); 
021AC:  MOVFF  FF2,447
021B0:  BCF    FF2.6
021B2:  BCF    FF2.7
021B4:  CLRF   FAA
021B6:  MOVLW  14
021B8:  MOVWF  FA9
021BA:  BCF    FA6.6
021BC:  BCF    FA6.7
021BE:  BSF    FA6.0
021C0:  MOVF   FA8,W
021C2:  MOVLB  4
021C4:  BTFSC  x47.6
021C6:  BSF    FF2.6
021C8:  BTFSC  x47.7
021CA:  BSF    FF2.7
021CC:  CLRF   x5D
021CE:  MOVWF  x5C
021D0:  MOVLB  0
021D2:  RCALL  1B1C
021D4:  MOVFF  03,312
021D8:  MOVFF  02,311
021DC:  MOVFF  01,310
021E0:  MOVFF  00,30F
....................    delay_ms(10); 
021E4:  MOVLW  0A
021E6:  MOVLB  4
021E8:  MOVWF  x5C
021EA:  MOVLB  0
021EC:  RCALL  1AF4
....................    Ajuste=read_eeprom(21); 
021EE:  MOVFF  FF2,447
021F2:  BCF    FF2.6
021F4:  BCF    FF2.7
021F6:  CLRF   FAA
021F8:  MOVLW  15
021FA:  MOVWF  FA9
021FC:  BCF    FA6.6
021FE:  BCF    FA6.7
02200:  BSF    FA6.0
02202:  MOVF   FA8,W
02204:  MOVLB  4
02206:  BTFSC  x47.6
02208:  BSF    FF2.6
0220A:  BTFSC  x47.7
0220C:  BSF    FF2.7
0220E:  MOVLB  2
02210:  MOVWF  xE0
....................    delay_ms(10); 
02212:  MOVLW  0A
02214:  MOVLB  4
02216:  MOVWF  x5C
02218:  MOVLB  0
0221A:  RCALL  1AF4
....................    Ajusten=read_eeprom(22); 
0221C:  MOVFF  FF2,447
02220:  BCF    FF2.6
02222:  BCF    FF2.7
02224:  CLRF   FAA
02226:  MOVLW  16
02228:  MOVWF  FA9
0222A:  BCF    FA6.6
0222C:  BCF    FA6.7
0222E:  BSF    FA6.0
02230:  MOVF   FA8,W
02232:  MOVLB  4
02234:  BTFSC  x47.6
02236:  BSF    FF2.6
02238:  BTFSC  x47.7
0223A:  BSF    FF2.7
0223C:  MOVLB  2
0223E:  MOVWF  xE1
....................    delay_ms(10); 
02240:  MOVLW  0A
02242:  MOVLB  4
02244:  MOVWF  x5C
02246:  MOVLB  0
02248:  RCALL  1AF4
....................    //Desvio=read_eeprom(23); 
....................    MediaMovil=read_eeprom(24); 
0224A:  MOVFF  FF2,447
0224E:  BCF    FF2.6
02250:  BCF    FF2.7
02252:  CLRF   FAA
02254:  MOVLW  18
02256:  MOVWF  FA9
02258:  BCF    FA6.6
0225A:  BCF    FA6.7
0225C:  BSF    FA6.0
0225E:  MOVF   FA8,W
02260:  MOVLB  4
02262:  BTFSC  x47.6
02264:  BSF    FF2.6
02266:  BTFSC  x47.7
02268:  BSF    FF2.7
0226A:  MOVLB  2
0226C:  MOVWF  xE2
....................    delay_ms(10); 
0226E:  MOVLW  0A
02270:  MOVLB  4
02272:  MOVWF  x5C
02274:  MOVLB  0
02276:  RCALL  1AF4
....................    Tciclo=read_eeprom(25); 
02278:  MOVFF  FF2,447
0227C:  BCF    FF2.6
0227E:  BCF    FF2.7
02280:  CLRF   FAA
02282:  MOVLW  19
02284:  MOVWF  FA9
02286:  BCF    FA6.6
02288:  BCF    FA6.7
0228A:  BSF    FA6.0
0228C:  MOVF   FA8,W
0228E:  MOVLB  4
02290:  BTFSC  x47.6
02292:  BSF    FF2.6
02294:  BTFSC  x47.7
02296:  BSF    FF2.7
02298:  CLRF   x5D
0229A:  MOVWF  x5C
0229C:  MOVLB  0
0229E:  RCALL  1B1C
022A0:  MOVFF  03,2FA
022A4:  MOVFF  02,2F9
022A8:  MOVFF  01,2F8
022AC:  MOVFF  00,2F7
....................    delay_ms(10); 
022B0:  MOVLW  0A
022B2:  MOVLB  4
022B4:  MOVWF  x5C
022B6:  MOVLB  0
022B8:  RCALL  1AF4
....................    Integral=read_eeprom(26); 
022BA:  MOVFF  FF2,447
022BE:  BCF    FF2.6
022C0:  BCF    FF2.7
022C2:  CLRF   FAA
022C4:  MOVLW  1A
022C6:  MOVWF  FA9
022C8:  BCF    FA6.6
022CA:  BCF    FA6.7
022CC:  BSF    FA6.0
022CE:  MOVF   FA8,W
022D0:  MOVLB  4
022D2:  BTFSC  x47.6
022D4:  BSF    FF2.6
022D6:  BTFSC  x47.7
022D8:  BSF    FF2.7
022DA:  MOVLB  3
022DC:  MOVWF  x43
....................    delay_ms(10); 
022DE:  MOVLW  0A
022E0:  MOVLB  4
022E2:  MOVWF  x5C
022E4:  MOVLB  0
022E6:  RCALL  1AF4
....................    Derivativo=read_eeprom(27); 
022E8:  MOVFF  FF2,447
022EC:  BCF    FF2.6
022EE:  BCF    FF2.7
022F0:  CLRF   FAA
022F2:  MOVLW  1B
022F4:  MOVWF  FA9
022F6:  BCF    FA6.6
022F8:  BCF    FA6.7
022FA:  BSF    FA6.0
022FC:  MOVF   FA8,W
022FE:  MOVLB  4
02300:  BTFSC  x47.6
02302:  BSF    FF2.6
02304:  BTFSC  x47.7
02306:  BSF    FF2.7
02308:  MOVLB  3
0230A:  MOVWF  x44
....................    delay_ms(10); 
0230C:  MOVLW  0A
0230E:  MOVLB  4
02310:  MOVWF  x5C
02312:  MOVLB  0
02314:  CALL   1AF4
....................    Temporal=read_eeprom(29); 
02318:  MOVFF  FF2,447
0231C:  BCF    FF2.6
0231E:  BCF    FF2.7
02320:  CLRF   FAA
02322:  MOVLW  1D
02324:  MOVWF  FA9
02326:  BCF    FA6.6
02328:  BCF    FA6.7
0232A:  BSF    FA6.0
0232C:  MOVF   FA8,W
0232E:  MOVLB  4
02330:  BTFSC  x47.6
02332:  BSF    FF2.6
02334:  BTFSC  x47.7
02336:  BSF    FF2.7
02338:  CLRF   x5D
0233A:  MOVWF  x5C
0233C:  MOVLB  0
0233E:  CALL   1B1C
02342:  MOVFF  03,2B5
02346:  MOVFF  02,2B4
0234A:  MOVFF  01,2B3
0234E:  MOVFF  00,2B2
....................    Temporal=Temporal/10.0; 
02352:  MOVFF  2B5,453
02356:  MOVFF  2B4,452
0235A:  MOVFF  2B3,451
0235E:  MOVFF  2B2,450
02362:  MOVLB  4
02364:  CLRF   x57
02366:  CLRF   x56
02368:  MOVLW  20
0236A:  MOVWF  x55
0236C:  MOVLW  82
0236E:  MOVWF  x54
02370:  MOVLB  0
02372:  CALL   1B52
02376:  MOVFF  03,2B5
0237A:  MOVFF  02,2B4
0237E:  MOVFF  01,2B3
02382:  MOVFF  00,2B2
....................    delay_ms(10); 
02386:  MOVLW  0A
02388:  MOVLB  4
0238A:  MOVWF  x5C
0238C:  MOVLB  0
0238E:  CALL   1AF4
....................    Gain=read_eeprom(28)+Temporal; 
02392:  MOVFF  FF2,447
02396:  BCF    FF2.6
02398:  BCF    FF2.7
0239A:  CLRF   FAA
0239C:  MOVLW  1C
0239E:  MOVWF  FA9
023A0:  BCF    FA6.6
023A2:  BCF    FA6.7
023A4:  BSF    FA6.0
023A6:  MOVF   FA8,W
023A8:  MOVLB  4
023AA:  BTFSC  x47.6
023AC:  BSF    FF2.6
023AE:  BTFSC  x47.7
023B0:  BSF    FF2.7
023B2:  CLRF   x5D
023B4:  MOVWF  x5C
023B6:  MOVLB  0
023B8:  CALL   1B1C
023BC:  BCF    FD8.1
023BE:  MOVFF  03,45F
023C2:  MOVFF  02,45E
023C6:  MOVFF  01,45D
023CA:  MOVFF  00,45C
023CE:  MOVFF  2B5,463
023D2:  MOVFF  2B4,462
023D6:  MOVFF  2B3,461
023DA:  MOVFF  2B2,460
023DE:  RCALL  1CB0
023E0:  MOVFF  03,2AD
023E4:  MOVFF  02,2AC
023E8:  MOVFF  01,2AB
023EC:  MOVFF  00,2AA
....................    delay_ms(10); 
023F0:  MOVLW  0A
023F2:  MOVLB  4
023F4:  MOVWF  x5C
023F6:  MOVLB  0
023F8:  CALL   1AF4
....................    R1=make16(read_eeprom(31),read_eeprom(30)); 
023FC:  MOVFF  FF2,447
02400:  BCF    FF2.6
02402:  BCF    FF2.7
02404:  CLRF   FAA
02406:  MOVLW  1F
02408:  MOVWF  FA9
0240A:  BCF    FA6.6
0240C:  BCF    FA6.7
0240E:  BSF    FA6.0
02410:  MOVF   FA8,W
02412:  MOVLB  4
02414:  BTFSC  x47.6
02416:  BSF    FF2.6
02418:  BTFSC  x47.7
0241A:  BSF    FF2.7
0241C:  MOVWF  x48
0241E:  MOVFF  FF2,449
02422:  BCF    FF2.6
02424:  BCF    FF2.7
02426:  CLRF   FAA
02428:  MOVLW  1E
0242A:  MOVWF  FA9
0242C:  BCF    FA6.6
0242E:  BCF    FA6.7
02430:  BSF    FA6.0
02432:  MOVF   FA8,W
02434:  BTFSC  x49.6
02436:  BSF    FF2.6
02438:  BTFSC  x49.7
0243A:  BSF    FF2.7
0243C:  MOVWF  x4A
0243E:  MOVFF  448,03
02442:  MOVF   x4A,W
02444:  MOVWF  x5C
02446:  MOVFF  03,45D
0244A:  MOVLB  0
0244C:  CALL   1B1C
02450:  MOVFF  03,2B9
02454:  MOVFF  02,2B8
02458:  MOVFF  01,2B7
0245C:  MOVFF  00,2B6
....................    delay_ms(10); 
02460:  MOVLW  0A
02462:  MOVLB  4
02464:  MOVWF  x5C
02466:  MOVLB  0
02468:  CALL   1AF4
....................    Temporal=read_eeprom(33); 
0246C:  MOVFF  FF2,447
02470:  BCF    FF2.6
02472:  BCF    FF2.7
02474:  CLRF   FAA
02476:  MOVLW  21
02478:  MOVWF  FA9
0247A:  BCF    FA6.6
0247C:  BCF    FA6.7
0247E:  BSF    FA6.0
02480:  MOVF   FA8,W
02482:  MOVLB  4
02484:  BTFSC  x47.6
02486:  BSF    FF2.6
02488:  BTFSC  x47.7
0248A:  BSF    FF2.7
0248C:  CLRF   x5D
0248E:  MOVWF  x5C
02490:  MOVLB  0
02492:  CALL   1B1C
02496:  MOVFF  03,2B5
0249A:  MOVFF  02,2B4
0249E:  MOVFF  01,2B3
024A2:  MOVFF  00,2B2
....................    Temporal=Temporal/10.0; 
024A6:  MOVFF  2B5,453
024AA:  MOVFF  2B4,452
024AE:  MOVFF  2B3,451
024B2:  MOVFF  2B2,450
024B6:  MOVLB  4
024B8:  CLRF   x57
024BA:  CLRF   x56
024BC:  MOVLW  20
024BE:  MOVWF  x55
024C0:  MOVLW  82
024C2:  MOVWF  x54
024C4:  MOVLB  0
024C6:  CALL   1B52
024CA:  MOVFF  03,2B5
024CE:  MOVFF  02,2B4
024D2:  MOVFF  01,2B3
024D6:  MOVFF  00,2B2
....................    delay_ms(10); 
024DA:  MOVLW  0A
024DC:  MOVLB  4
024DE:  MOVWF  x5C
024E0:  MOVLB  0
024E2:  CALL   1AF4
....................    RPT100=read_eeprom(32)+Temporal; 
024E6:  MOVFF  FF2,447
024EA:  BCF    FF2.6
024EC:  BCF    FF2.7
024EE:  CLRF   FAA
024F0:  MOVLW  20
024F2:  MOVWF  FA9
024F4:  BCF    FA6.6
024F6:  BCF    FA6.7
024F8:  BSF    FA6.0
024FA:  MOVF   FA8,W
024FC:  MOVLB  4
024FE:  BTFSC  x47.6
02500:  BSF    FF2.6
02502:  BTFSC  x47.7
02504:  BSF    FF2.7
02506:  CLRF   x5D
02508:  MOVWF  x5C
0250A:  MOVLB  0
0250C:  CALL   1B1C
02510:  BCF    FD8.1
02512:  MOVFF  03,45F
02516:  MOVFF  02,45E
0251A:  MOVFF  01,45D
0251E:  MOVFF  00,45C
02522:  MOVFF  2B5,463
02526:  MOVFF  2B4,462
0252A:  MOVFF  2B3,461
0252E:  MOVFF  2B2,460
02532:  CALL   1CB0
02536:  MOVFF  03,2B1
0253A:  MOVFF  02,2B0
0253E:  MOVFF  01,2AF
02542:  MOVFF  00,2AE
....................    delay_ms(10); 
02546:  MOVLW  0A
02548:  MOVLB  4
0254A:  MOVWF  x5C
0254C:  MOVLB  0
0254E:  CALL   1AF4
....................    CiclosL=read_eeprom(37); 
02552:  MOVFF  FF2,447
02556:  BCF    FF2.6
02558:  BCF    FF2.7
0255A:  CLRF   FAA
0255C:  MOVLW  25
0255E:  MOVWF  FA9
02560:  BCF    FA6.6
02562:  BCF    FA6.7
02564:  BSF    FA6.0
02566:  MOVF   FA8,W
02568:  MOVLB  4
0256A:  BTFSC  x47.6
0256C:  BSF    FF2.6
0256E:  BTFSC  x47.7
02570:  BSF    FF2.7
02572:  MOVLB  3
02574:  MOVWF  x69
....................    delay_ms(10); 
02576:  MOVLW  0A
02578:  MOVLB  4
0257A:  MOVWF  x5C
0257C:  MOVLB  0
0257E:  CALL   1AF4
....................    CiclosH=read_eeprom(38); 
02582:  MOVFF  FF2,447
02586:  BCF    FF2.6
02588:  BCF    FF2.7
0258A:  CLRF   FAA
0258C:  MOVLW  26
0258E:  MOVWF  FA9
02590:  BCF    FA6.6
02592:  BCF    FA6.7
02594:  BSF    FA6.0
02596:  MOVF   FA8,W
02598:  MOVLB  4
0259A:  BTFSC  x47.6
0259C:  BSF    FF2.6
0259E:  BTFSC  x47.7
025A0:  BSF    FF2.7
025A2:  MOVLB  3
025A4:  MOVWF  x6A
....................    delay_ms(10); 
025A6:  MOVLW  0A
025A8:  MOVLB  4
025AA:  MOVWF  x5C
025AC:  MOVLB  0
025AE:  CALL   1AF4
....................    Ciclos=make16(CiclosH,CiclosL); 
025B2:  MOVFF  36A,384
025B6:  MOVFF  369,383
....................    delay_ms(10); 
025BA:  MOVLW  0A
025BC:  MOVLB  4
025BE:  MOVWF  x5C
025C0:  MOVLB  0
025C2:  CALL   1AF4
....................    TTrampa=read_eeprom(39); 
025C6:  MOVFF  FF2,447
025CA:  BCF    FF2.6
025CC:  BCF    FF2.7
025CE:  CLRF   FAA
025D0:  MOVLW  27
025D2:  MOVWF  FA9
025D4:  BCF    FA6.6
025D6:  BCF    FA6.7
025D8:  BSF    FA6.0
025DA:  MOVF   FA8,W
025DC:  MOVLB  4
025DE:  BTFSC  x47.6
025E0:  BSF    FF2.6
025E2:  BTFSC  x47.7
025E4:  BSF    FF2.7
025E6:  MOVLB  2
025E8:  MOVWF  xE3
....................    delay_ms(10); 
025EA:  MOVLW  0A
025EC:  MOVLB  4
025EE:  MOVWF  x5C
025F0:  MOVLB  0
025F2:  CALL   1AF4
....................    ActivaImpresion=read_eeprom(40); 
025F6:  MOVFF  FF2,447
025FA:  BCF    FF2.6
025FC:  BCF    FF2.7
025FE:  CLRF   FAA
02600:  MOVLW  28
02602:  MOVWF  FA9
02604:  BCF    FA6.6
02606:  BCF    FA6.7
02608:  BSF    FA6.0
0260A:  MOVF   FA8,W
0260C:  MOVLB  4
0260E:  BTFSC  x47.6
02610:  BSF    FF2.6
02612:  BTFSC  x47.7
02614:  BSF    FF2.7
02616:  MOVLB  3
02618:  MOVWF  x5E
....................    delay_ms(10); 
0261A:  MOVLW  0A
0261C:  MOVLB  4
0261E:  MOVWF  x5C
02620:  MOVLB  0
02622:  CALL   1AF4
....................    timpresion=read_eeprom(41); 
02626:  MOVFF  FF2,447
0262A:  BCF    FF2.6
0262C:  BCF    FF2.7
0262E:  CLRF   FAA
02630:  MOVLW  29
02632:  MOVWF  FA9
02634:  BCF    FA6.6
02636:  BCF    FA6.7
02638:  BSF    FA6.0
0263A:  MOVF   FA8,W
0263C:  MOVLB  4
0263E:  BTFSC  x47.6
02640:  BSF    FF2.6
02642:  BTFSC  x47.7
02644:  BSF    FF2.7
02646:  MOVLB  3
02648:  MOVWF  x5F
....................    delay_ms(10); 
0264A:  MOVLW  0A
0264C:  MOVLB  4
0264E:  MOVWF  x5C
02650:  MOVLB  0
02652:  CALL   1AF4
....................    G1=read_eeprom(42); 
02656:  MOVFF  FF2,447
0265A:  BCF    FF2.6
0265C:  BCF    FF2.7
0265E:  CLRF   FAA
02660:  MOVLW  2A
02662:  MOVWF  FA9
02664:  BCF    FA6.6
02666:  BCF    FA6.7
02668:  BSF    FA6.0
0266A:  MOVF   FA8,W
0266C:  MOVLB  4
0266E:  BTFSC  x47.6
02670:  BSF    FF2.6
02672:  BTFSC  x47.7
02674:  BSF    FF2.7
02676:  MOVLB  3
02678:  MOVWF  xB7
....................    delay_ms(10); 
0267A:  MOVLW  0A
0267C:  MOVLB  4
0267E:  MOVWF  x5C
02680:  MOVLB  0
02682:  CALL   1AF4
....................    G2=read_eeprom(43); 
02686:  MOVFF  FF2,447
0268A:  BCF    FF2.6
0268C:  BCF    FF2.7
0268E:  CLRF   FAA
02690:  MOVLW  2B
02692:  MOVWF  FA9
02694:  BCF    FA6.6
02696:  BCF    FA6.7
02698:  BSF    FA6.0
0269A:  MOVF   FA8,W
0269C:  MOVLB  4
0269E:  BTFSC  x47.6
026A0:  BSF    FF2.6
026A2:  BTFSC  x47.7
026A4:  BSF    FF2.7
026A6:  MOVLB  3
026A8:  MOVWF  xB8
....................    delay_ms(10); 
026AA:  MOVLW  0A
026AC:  MOVLB  4
026AE:  MOVWF  x5C
026B0:  MOVLB  0
026B2:  CALL   1AF4
....................    sg1=read_eeprom(44); 
026B6:  MOVFF  FF2,447
026BA:  BCF    FF2.6
026BC:  BCF    FF2.7
026BE:  CLRF   FAA
026C0:  MOVLW  2C
026C2:  MOVWF  FA9
026C4:  BCF    FA6.6
026C6:  BCF    FA6.7
026C8:  BSF    FA6.0
026CA:  MOVF   FA8,W
026CC:  MOVLB  4
026CE:  BTFSC  x47.6
026D0:  BSF    FF2.6
026D2:  BTFSC  x47.7
026D4:  BSF    FF2.7
026D6:  MOVLB  3
026D8:  MOVWF  xB9
....................    delay_ms(10); 
026DA:  MOVLW  0A
026DC:  MOVLB  4
026DE:  MOVWF  x5C
026E0:  MOVLB  0
026E2:  CALL   1AF4
....................    sg2=read_eeprom(45); 
026E6:  MOVFF  FF2,447
026EA:  BCF    FF2.6
026EC:  BCF    FF2.7
026EE:  CLRF   FAA
026F0:  MOVLW  2D
026F2:  MOVWF  FA9
026F4:  BCF    FA6.6
026F6:  BCF    FA6.7
026F8:  BSF    FA6.0
026FA:  MOVF   FA8,W
026FC:  MOVLB  4
026FE:  BTFSC  x47.6
02700:  BSF    FF2.6
02702:  BTFSC  x47.7
02704:  BSF    FF2.7
02706:  MOVLB  3
02708:  MOVWF  xBA
....................    delay_ms(10); 
0270A:  MOVLW  0A
0270C:  MOVLB  4
0270E:  MOVWF  x5C
02710:  MOVLB  0
02712:  CALL   1AF4
....................    Atmosferica=read_eeprom(46); 
02716:  MOVFF  FF2,447
0271A:  BCF    FF2.6
0271C:  BCF    FF2.7
0271E:  CLRF   FAA
02720:  MOVLW  2E
02722:  MOVWF  FA9
02724:  BCF    FA6.6
02726:  BCF    FA6.7
02728:  BSF    FA6.0
0272A:  MOVF   FA8,W
0272C:  MOVLB  4
0272E:  BTFSC  x47.6
02730:  BSF    FF2.6
02732:  BTFSC  x47.7
02734:  BSF    FF2.7
02736:  MOVLB  3
02738:  MOVWF  xB6
....................     
....................    for(i=0;i<4;i++){//Lee valores almacenados de ciclos personalizados 
0273A:  CLRF   x68
0273C:  MOVF   x68,W
0273E:  SUBLW  03
02740:  BTFSS  FD8.0
02742:  BRA    2D0C
....................       CiclosPersonalizados[i].Temperatura=read_eeprom(100+(i*8));  
02744:  MOVF   x68,W
02746:  MULLW  0A
02748:  MOVF   FF3,W
0274A:  MOVLB  4
0274C:  CLRF   x48
0274E:  MOVWF  x47
02750:  MOVLW  1F
02752:  ADDWF  x47,W
02754:  MOVWF  FE9
02756:  MOVLW  04
02758:  ADDWFC x48,W
0275A:  MOVWF  FEA
0275C:  MOVLB  3
0275E:  MOVF   x68,W
02760:  MULLW  08
02762:  MOVF   FF3,W
02764:  ADDLW  64
02766:  MOVLB  4
02768:  MOVWF  x49
0276A:  MOVFF  FF2,44A
0276E:  BCF    FF2.6
02770:  BCF    FF2.7
02772:  CLRF   FAA
02774:  MOVFF  449,FA9
02778:  BCF    FA6.6
0277A:  BCF    FA6.7
0277C:  BSF    FA6.0
0277E:  MOVF   FA8,W
02780:  BTFSC  x4A.6
02782:  BSF    FF2.6
02784:  BTFSC  x4A.7
02786:  BSF    FF2.7
02788:  MOVWF  FEF
....................       CiclosPersonalizados[i].MinutoestH=read_eeprom(101+(i*8));  
0278A:  MOVLB  3
0278C:  MOVF   x68,W
0278E:  MULLW  0A
02790:  MOVF   FF3,W
02792:  MOVLB  4
02794:  CLRF   x48
02796:  MOVWF  x47
02798:  MOVLW  01
0279A:  ADDWF  x47,W
0279C:  MOVWF  01
0279E:  MOVLW  00
027A0:  ADDWFC x48,W
027A2:  MOVWF  03
027A4:  MOVF   01,W
027A6:  ADDLW  1F
027A8:  MOVWF  FE9
027AA:  MOVLW  04
027AC:  ADDWFC 03,W
027AE:  MOVWF  FEA
027B0:  MOVLB  3
027B2:  MOVF   x68,W
027B4:  MULLW  08
027B6:  MOVF   FF3,W
027B8:  ADDLW  65
027BA:  MOVLB  4
027BC:  MOVWF  x49
027BE:  MOVFF  FF2,44A
027C2:  BCF    FF2.6
027C4:  BCF    FF2.7
027C6:  CLRF   FAA
027C8:  MOVFF  449,FA9
027CC:  BCF    FA6.6
027CE:  BCF    FA6.7
027D0:  BSF    FA6.0
027D2:  MOVF   FA8,W
027D4:  BTFSC  x4A.6
027D6:  BSF    FF2.6
027D8:  BTFSC  x4A.7
027DA:  BSF    FF2.7
027DC:  MOVWF  FEF
....................       CiclosPersonalizados[i].Minutoest=read_eeprom(102+(i*8));  
027DE:  MOVLB  3
027E0:  MOVF   x68,W
027E2:  MULLW  0A
027E4:  MOVF   FF3,W
027E6:  MOVLB  4
027E8:  CLRF   x48
027EA:  MOVWF  x47
027EC:  MOVLW  09
027EE:  ADDWF  x47,W
027F0:  MOVWF  01
027F2:  MOVLW  00
027F4:  ADDWFC x48,W
027F6:  MOVWF  03
027F8:  MOVF   01,W
027FA:  ADDLW  1F
027FC:  MOVWF  FE9
027FE:  MOVLW  04
02800:  ADDWFC 03,W
02802:  MOVWF  FEA
02804:  MOVLB  3
02806:  MOVF   x68,W
02808:  MULLW  08
0280A:  MOVF   FF3,W
0280C:  ADDLW  66
0280E:  MOVLB  4
02810:  MOVWF  x49
02812:  MOVFF  FF2,44A
02816:  BCF    FF2.6
02818:  BCF    FF2.7
0281A:  CLRF   FAA
0281C:  MOVFF  449,FA9
02820:  BCF    FA6.6
02822:  BCF    FA6.7
02824:  BSF    FA6.0
02826:  MOVF   FA8,W
02828:  BTFSC  x4A.6
0282A:  BSF    FF2.6
0282C:  BTFSC  x4A.7
0282E:  BSF    FF2.7
02830:  MOVWF  FEF
....................       CiclosPersonalizados[i].Segundoest=read_eeprom(103+(i*8));  
02832:  MOVLB  3
02834:  MOVF   x68,W
02836:  MULLW  0A
02838:  MOVF   FF3,W
0283A:  MOVLB  4
0283C:  CLRF   x48
0283E:  MOVWF  x47
02840:  MOVLW  03
02842:  ADDWF  x47,W
02844:  MOVWF  01
02846:  MOVLW  00
02848:  ADDWFC x48,W
0284A:  MOVWF  03
0284C:  MOVF   01,W
0284E:  ADDLW  1F
02850:  MOVWF  FE9
02852:  MOVLW  04
02854:  ADDWFC 03,W
02856:  MOVWF  FEA
02858:  MOVLB  3
0285A:  MOVF   x68,W
0285C:  MULLW  08
0285E:  MOVF   FF3,W
02860:  ADDLW  67
02862:  MOVLB  4
02864:  MOVWF  x49
02866:  MOVFF  FF2,44A
0286A:  BCF    FF2.6
0286C:  BCF    FF2.7
0286E:  CLRF   FAA
02870:  MOVFF  449,FA9
02874:  BCF    FA6.6
02876:  BCF    FA6.7
02878:  BSF    FA6.0
0287A:  MOVF   FA8,W
0287C:  BTFSC  x4A.6
0287E:  BSF    FF2.6
02880:  BTFSC  x4A.7
02882:  BSF    FF2.7
02884:  MOVWF  FEF
....................       CiclosPersonalizados[i].Minutosec=read_eeprom(104+(i*8));  
02886:  MOVLB  3
02888:  MOVF   x68,W
0288A:  MULLW  0A
0288C:  MOVF   FF3,W
0288E:  MOVLB  4
02890:  CLRF   x48
02892:  MOVWF  x47
02894:  MOVLW  04
02896:  ADDWF  x47,W
02898:  MOVWF  01
0289A:  MOVLW  00
0289C:  ADDWFC x48,W
0289E:  MOVWF  03
028A0:  MOVF   01,W
028A2:  ADDLW  1F
028A4:  MOVWF  FE9
028A6:  MOVLW  04
028A8:  ADDWFC 03,W
028AA:  MOVWF  FEA
028AC:  MOVLB  3
028AE:  MOVF   x68,W
028B0:  MULLW  08
028B2:  MOVF   FF3,W
028B4:  ADDLW  68
028B6:  MOVLB  4
028B8:  MOVWF  x49
028BA:  MOVFF  FF2,44A
028BE:  BCF    FF2.6
028C0:  BCF    FF2.7
028C2:  CLRF   FAA
028C4:  MOVFF  449,FA9
028C8:  BCF    FA6.6
028CA:  BCF    FA6.7
028CC:  BSF    FA6.0
028CE:  MOVF   FA8,W
028D0:  BTFSC  x4A.6
028D2:  BSF    FF2.6
028D4:  BTFSC  x4A.7
028D6:  BSF    FF2.7
028D8:  MOVWF  FEF
....................       CiclosPersonalizados[i].Segundosec=read_eeprom(105+(i*8));  
028DA:  MOVLB  3
028DC:  MOVF   x68,W
028DE:  MULLW  0A
028E0:  MOVF   FF3,W
028E2:  MOVLB  4
028E4:  CLRF   x48
028E6:  MOVWF  x47
028E8:  MOVLW  05
028EA:  ADDWF  x47,W
028EC:  MOVWF  01
028EE:  MOVLW  00
028F0:  ADDWFC x48,W
028F2:  MOVWF  03
028F4:  MOVF   01,W
028F6:  ADDLW  1F
028F8:  MOVWF  FE9
028FA:  MOVLW  04
028FC:  ADDWFC 03,W
028FE:  MOVWF  FEA
02900:  MOVLB  3
02902:  MOVF   x68,W
02904:  MULLW  08
02906:  MOVF   FF3,W
02908:  ADDLW  69
0290A:  MOVLB  4
0290C:  MOVWF  x49
0290E:  MOVFF  FF2,44A
02912:  BCF    FF2.6
02914:  BCF    FF2.7
02916:  CLRF   FAA
02918:  MOVFF  449,FA9
0291C:  BCF    FA6.6
0291E:  BCF    FA6.7
02920:  BSF    FA6.0
02922:  MOVF   FA8,W
02924:  BTFSC  x4A.6
02926:  BSF    FF2.6
02928:  BTFSC  x4A.7
0292A:  BSF    FF2.7
0292C:  MOVWF  FEF
....................       CiclosPersonalizados[i].PulsosVacio=read_eeprom(106+(i*8));  
0292E:  MOVLB  3
02930:  MOVF   x68,W
02932:  MULLW  0A
02934:  MOVF   FF3,W
02936:  MOVLB  4
02938:  CLRF   x48
0293A:  MOVWF  x47
0293C:  MOVLW  06
0293E:  ADDWF  x47,W
02940:  MOVWF  01
02942:  MOVLW  00
02944:  ADDWFC x48,W
02946:  MOVWF  03
02948:  MOVF   01,W
0294A:  ADDLW  1F
0294C:  MOVWF  FE9
0294E:  MOVLW  04
02950:  ADDWFC 03,W
02952:  MOVWF  FEA
02954:  MOVLB  3
02956:  MOVF   x68,W
02958:  MULLW  08
0295A:  MOVF   FF3,W
0295C:  ADDLW  6A
0295E:  MOVLB  4
02960:  MOVWF  x49
02962:  MOVFF  FF2,44A
02966:  BCF    FF2.6
02968:  BCF    FF2.7
0296A:  CLRF   FAA
0296C:  MOVFF  449,FA9
02970:  BCF    FA6.6
02972:  BCF    FA6.7
02974:  BSF    FA6.0
02976:  MOVF   FA8,W
02978:  BTFSC  x4A.6
0297A:  BSF    FF2.6
0297C:  BTFSC  x4A.7
0297E:  BSF    FF2.7
02980:  MOVWF  FEF
....................       CiclosPersonalizados[i].NivelDesfogue=read_eeprom(107+(i*8));  
02982:  MOVLB  3
02984:  MOVF   x68,W
02986:  MULLW  0A
02988:  MOVF   FF3,W
0298A:  MOVLB  4
0298C:  CLRF   x48
0298E:  MOVWF  x47
02990:  MOVLW  08
02992:  ADDWF  x47,W
02994:  MOVWF  01
02996:  MOVLW  00
02998:  ADDWFC x48,W
0299A:  MOVWF  03
0299C:  MOVF   01,W
0299E:  ADDLW  1F
029A0:  MOVWF  FE9
029A2:  MOVLW  04
029A4:  ADDWFC 03,W
029A6:  MOVWF  FEA
029A8:  MOVLB  3
029AA:  MOVF   x68,W
029AC:  MULLW  08
029AE:  MOVF   FF3,W
029B0:  ADDLW  6B
029B2:  MOVLB  4
029B4:  MOVWF  x49
029B6:  MOVFF  FF2,44A
029BA:  BCF    FF2.6
029BC:  BCF    FF2.7
029BE:  CLRF   FAA
029C0:  MOVFF  449,FA9
029C4:  BCF    FA6.6
029C6:  BCF    FA6.7
029C8:  BSF    FA6.0
029CA:  MOVF   FA8,W
029CC:  BTFSC  x4A.6
029CE:  BSF    FF2.6
029D0:  BTFSC  x4A.7
029D2:  BSF    FF2.7
029D4:  MOVWF  FEF
....................        
....................       if(CiclosPersonalizados[i].Temperatura>134 || CiclosPersonalizados[i].Temperatura<105) 
029D6:  MOVLB  3
029D8:  MOVF   x68,W
029DA:  MULLW  0A
029DC:  MOVF   FF3,W
029DE:  MOVLB  4
029E0:  CLRF   x48
029E2:  MOVWF  x47
029E4:  MOVLW  1F
029E6:  ADDWF  x47,W
029E8:  MOVWF  FE9
029EA:  MOVLW  04
029EC:  ADDWFC x48,W
029EE:  MOVWF  FEA
029F0:  MOVF   FEF,W
029F2:  SUBLW  86
029F4:  BNC   2A16
029F6:  MOVLB  3
029F8:  MOVF   x68,W
029FA:  MULLW  0A
029FC:  MOVF   FF3,W
029FE:  MOVLB  4
02A00:  CLRF   x48
02A02:  MOVWF  x47
02A04:  MOVLW  1F
02A06:  ADDWF  x47,W
02A08:  MOVWF  FE9
02A0A:  MOVLW  04
02A0C:  ADDWFC x48,W
02A0E:  MOVWF  FEA
02A10:  MOVF   FEF,W
02A12:  SUBLW  68
02A14:  BNC   2A34
....................          CiclosPersonalizados[i].Temperatura=121; 
02A16:  MOVLB  3
02A18:  MOVF   x68,W
02A1A:  MULLW  0A
02A1C:  MOVF   FF3,W
02A1E:  MOVLB  4
02A20:  CLRF   x48
02A22:  MOVWF  x47
02A24:  MOVLW  1F
02A26:  ADDWF  x47,W
02A28:  MOVWF  FE9
02A2A:  MOVLW  04
02A2C:  ADDWFC x48,W
02A2E:  MOVWF  FEA
02A30:  MOVLW  79
02A32:  MOVWF  FEF
....................       if(CiclosPersonalizados[i].Minutoest>59) 
02A34:  MOVLB  3
02A36:  MOVF   x68,W
02A38:  MULLW  0A
02A3A:  MOVF   FF3,W
02A3C:  MOVLB  4
02A3E:  CLRF   x48
02A40:  MOVWF  x47
02A42:  MOVLW  09
02A44:  ADDWF  x47,W
02A46:  MOVWF  01
02A48:  MOVLW  00
02A4A:  ADDWFC x48,W
02A4C:  MOVWF  03
02A4E:  MOVF   01,W
02A50:  ADDLW  1F
02A52:  MOVWF  FE9
02A54:  MOVLW  04
02A56:  ADDWFC 03,W
02A58:  MOVWF  FEA
02A5A:  MOVF   FEF,W
02A5C:  SUBLW  3B
02A5E:  BC    2A88
....................          CiclosPersonalizados[i].Minutoest=0; 
02A60:  MOVLB  3
02A62:  MOVF   x68,W
02A64:  MULLW  0A
02A66:  MOVF   FF3,W
02A68:  MOVLB  4
02A6A:  CLRF   x48
02A6C:  MOVWF  x47
02A6E:  MOVLW  09
02A70:  ADDWF  x47,W
02A72:  MOVWF  01
02A74:  MOVLW  00
02A76:  ADDWFC x48,W
02A78:  MOVWF  03
02A7A:  MOVF   01,W
02A7C:  ADDLW  1F
02A7E:  MOVWF  FE9
02A80:  MOVLW  04
02A82:  ADDWFC 03,W
02A84:  MOVWF  FEA
02A86:  CLRF   FEF
....................       if(CiclosPersonalizados[i].Segundoest>59) 
02A88:  MOVLB  3
02A8A:  MOVF   x68,W
02A8C:  MULLW  0A
02A8E:  MOVF   FF3,W
02A90:  MOVLB  4
02A92:  CLRF   x48
02A94:  MOVWF  x47
02A96:  MOVLW  03
02A98:  ADDWF  x47,W
02A9A:  MOVWF  01
02A9C:  MOVLW  00
02A9E:  ADDWFC x48,W
02AA0:  MOVWF  03
02AA2:  MOVF   01,W
02AA4:  ADDLW  1F
02AA6:  MOVWF  FE9
02AA8:  MOVLW  04
02AAA:  ADDWFC 03,W
02AAC:  MOVWF  FEA
02AAE:  MOVF   FEF,W
02AB0:  SUBLW  3B
02AB2:  BC    2ADC
....................          CiclosPersonalizados[i].Segundoest=0; 
02AB4:  MOVLB  3
02AB6:  MOVF   x68,W
02AB8:  MULLW  0A
02ABA:  MOVF   FF3,W
02ABC:  MOVLB  4
02ABE:  CLRF   x48
02AC0:  MOVWF  x47
02AC2:  MOVLW  03
02AC4:  ADDWF  x47,W
02AC6:  MOVWF  01
02AC8:  MOVLW  00
02ACA:  ADDWFC x48,W
02ACC:  MOVWF  03
02ACE:  MOVF   01,W
02AD0:  ADDLW  1F
02AD2:  MOVWF  FE9
02AD4:  MOVLW  04
02AD6:  ADDWFC 03,W
02AD8:  MOVWF  FEA
02ADA:  CLRF   FEF
....................       if(CiclosPersonalizados[i].Minutosec>59) 
02ADC:  MOVLB  3
02ADE:  MOVF   x68,W
02AE0:  MULLW  0A
02AE2:  MOVF   FF3,W
02AE4:  MOVLB  4
02AE6:  CLRF   x48
02AE8:  MOVWF  x47
02AEA:  MOVLW  04
02AEC:  ADDWF  x47,W
02AEE:  MOVWF  01
02AF0:  MOVLW  00
02AF2:  ADDWFC x48,W
02AF4:  MOVWF  03
02AF6:  MOVF   01,W
02AF8:  ADDLW  1F
02AFA:  MOVWF  FE9
02AFC:  MOVLW  04
02AFE:  ADDWFC 03,W
02B00:  MOVWF  FEA
02B02:  MOVF   FEF,W
02B04:  SUBLW  3B
02B06:  BC    2B30
....................          CiclosPersonalizados[i].Minutosec=0;    
02B08:  MOVLB  3
02B0A:  MOVF   x68,W
02B0C:  MULLW  0A
02B0E:  MOVF   FF3,W
02B10:  MOVLB  4
02B12:  CLRF   x48
02B14:  MOVWF  x47
02B16:  MOVLW  04
02B18:  ADDWF  x47,W
02B1A:  MOVWF  01
02B1C:  MOVLW  00
02B1E:  ADDWFC x48,W
02B20:  MOVWF  03
02B22:  MOVF   01,W
02B24:  ADDLW  1F
02B26:  MOVWF  FE9
02B28:  MOVLW  04
02B2A:  ADDWFC 03,W
02B2C:  MOVWF  FEA
02B2E:  CLRF   FEF
....................       if(CiclosPersonalizados[i].Segundoest>59) 
02B30:  MOVLB  3
02B32:  MOVF   x68,W
02B34:  MULLW  0A
02B36:  MOVF   FF3,W
02B38:  MOVLB  4
02B3A:  CLRF   x48
02B3C:  MOVWF  x47
02B3E:  MOVLW  03
02B40:  ADDWF  x47,W
02B42:  MOVWF  01
02B44:  MOVLW  00
02B46:  ADDWFC x48,W
02B48:  MOVWF  03
02B4A:  MOVF   01,W
02B4C:  ADDLW  1F
02B4E:  MOVWF  FE9
02B50:  MOVLW  04
02B52:  ADDWFC 03,W
02B54:  MOVWF  FEA
02B56:  MOVF   FEF,W
02B58:  SUBLW  3B
02B5A:  BC    2B84
....................          CiclosPersonalizados[i].Segundoest=0; 
02B5C:  MOVLB  3
02B5E:  MOVF   x68,W
02B60:  MULLW  0A
02B62:  MOVF   FF3,W
02B64:  MOVLB  4
02B66:  CLRF   x48
02B68:  MOVWF  x47
02B6A:  MOVLW  03
02B6C:  ADDWF  x47,W
02B6E:  MOVWF  01
02B70:  MOVLW  00
02B72:  ADDWFC x48,W
02B74:  MOVWF  03
02B76:  MOVF   01,W
02B78:  ADDLW  1F
02B7A:  MOVWF  FE9
02B7C:  MOVLW  04
02B7E:  ADDWFC 03,W
02B80:  MOVWF  FEA
02B82:  CLRF   FEF
....................       if(CiclosPersonalizados[i].Segundosec>59) 
02B84:  MOVLB  3
02B86:  MOVF   x68,W
02B88:  MULLW  0A
02B8A:  MOVF   FF3,W
02B8C:  MOVLB  4
02B8E:  CLRF   x48
02B90:  MOVWF  x47
02B92:  MOVLW  05
02B94:  ADDWF  x47,W
02B96:  MOVWF  01
02B98:  MOVLW  00
02B9A:  ADDWFC x48,W
02B9C:  MOVWF  03
02B9E:  MOVF   01,W
02BA0:  ADDLW  1F
02BA2:  MOVWF  FE9
02BA4:  MOVLW  04
02BA6:  ADDWFC 03,W
02BA8:  MOVWF  FEA
02BAA:  MOVF   FEF,W
02BAC:  SUBLW  3B
02BAE:  BC    2BD8
....................          CiclosPersonalizados[i].Segundosec=0;       
02BB0:  MOVLB  3
02BB2:  MOVF   x68,W
02BB4:  MULLW  0A
02BB6:  MOVF   FF3,W
02BB8:  MOVLB  4
02BBA:  CLRF   x48
02BBC:  MOVWF  x47
02BBE:  MOVLW  05
02BC0:  ADDWF  x47,W
02BC2:  MOVWF  01
02BC4:  MOVLW  00
02BC6:  ADDWFC x48,W
02BC8:  MOVWF  03
02BCA:  MOVF   01,W
02BCC:  ADDLW  1F
02BCE:  MOVWF  FE9
02BD0:  MOVLW  04
02BD2:  ADDWFC 03,W
02BD4:  MOVWF  FEA
02BD6:  CLRF   FEF
....................       if(CiclosPersonalizados[i].PulsosVacio>15) 
02BD8:  MOVLB  3
02BDA:  MOVF   x68,W
02BDC:  MULLW  0A
02BDE:  MOVF   FF3,W
02BE0:  MOVLB  4
02BE2:  CLRF   x48
02BE4:  MOVWF  x47
02BE6:  MOVLW  06
02BE8:  ADDWF  x47,W
02BEA:  MOVWF  01
02BEC:  MOVLW  00
02BEE:  ADDWFC x48,W
02BF0:  MOVWF  03
02BF2:  MOVF   01,W
02BF4:  ADDLW  1F
02BF6:  MOVWF  FE9
02BF8:  MOVLW  04
02BFA:  ADDWFC 03,W
02BFC:  MOVWF  FEA
02BFE:  MOVF   FEF,W
02C00:  SUBLW  0F
02C02:  BC    2C2E
....................          CiclosPersonalizados[i].PulsosVacio=4; 
02C04:  MOVLB  3
02C06:  MOVF   x68,W
02C08:  MULLW  0A
02C0A:  MOVF   FF3,W
02C0C:  MOVLB  4
02C0E:  CLRF   x48
02C10:  MOVWF  x47
02C12:  MOVLW  06
02C14:  ADDWF  x47,W
02C16:  MOVWF  01
02C18:  MOVLW  00
02C1A:  ADDWFC x48,W
02C1C:  MOVWF  03
02C1E:  MOVF   01,W
02C20:  ADDLW  1F
02C22:  MOVWF  FE9
02C24:  MOVLW  04
02C26:  ADDWFC 03,W
02C28:  MOVWF  FEA
02C2A:  MOVLW  04
02C2C:  MOVWF  FEF
....................       if(CiclosPersonalizados[i].NivelVacio>100 || CiclosPersonalizados[i].NivelVacio<10) 
02C2E:  MOVLB  3
02C30:  MOVF   x68,W
02C32:  MULLW  0A
02C34:  MOVF   FF3,W
02C36:  MOVLB  4
02C38:  CLRF   x48
02C3A:  MOVWF  x47
02C3C:  MOVLW  07
02C3E:  ADDWF  x47,W
02C40:  MOVWF  01
02C42:  MOVLW  00
02C44:  ADDWFC x48,W
02C46:  MOVWF  03
02C48:  MOVF   01,W
02C4A:  ADDLW  1F
02C4C:  MOVWF  FE9
02C4E:  MOVLW  04
02C50:  ADDWFC 03,W
02C52:  MOVWF  FEA
02C54:  MOVF   FEF,W
02C56:  SUBLW  64
02C58:  BNC   2C86
02C5A:  MOVLB  3
02C5C:  MOVF   x68,W
02C5E:  MULLW  0A
02C60:  MOVF   FF3,W
02C62:  MOVLB  4
02C64:  CLRF   x48
02C66:  MOVWF  x47
02C68:  MOVLW  07
02C6A:  ADDWF  x47,W
02C6C:  MOVWF  01
02C6E:  MOVLW  00
02C70:  ADDWFC x48,W
02C72:  MOVWF  03
02C74:  MOVF   01,W
02C76:  ADDLW  1F
02C78:  MOVWF  FE9
02C7A:  MOVLW  04
02C7C:  ADDWFC 03,W
02C7E:  MOVWF  FEA
02C80:  MOVF   FEF,W
02C82:  SUBLW  09
02C84:  BNC   2CB0
....................          CiclosPersonalizados[i].NivelVacio=25;    
02C86:  MOVLB  3
02C88:  MOVF   x68,W
02C8A:  MULLW  0A
02C8C:  MOVF   FF3,W
02C8E:  MOVLB  4
02C90:  CLRF   x48
02C92:  MOVWF  x47
02C94:  MOVLW  07
02C96:  ADDWF  x47,W
02C98:  MOVWF  01
02C9A:  MOVLW  00
02C9C:  ADDWFC x48,W
02C9E:  MOVWF  03
02CA0:  MOVF   01,W
02CA2:  ADDLW  1F
02CA4:  MOVWF  FE9
02CA6:  MOVLW  04
02CA8:  ADDWFC 03,W
02CAA:  MOVWF  FEA
02CAC:  MOVLW  19
02CAE:  MOVWF  FEF
....................       if(CiclosPersonalizados[i].NivelDesfogue>6) 
02CB0:  MOVLB  3
02CB2:  MOVF   x68,W
02CB4:  MULLW  0A
02CB6:  MOVF   FF3,W
02CB8:  MOVLB  4
02CBA:  CLRF   x48
02CBC:  MOVWF  x47
02CBE:  MOVLW  08
02CC0:  ADDWF  x47,W
02CC2:  MOVWF  01
02CC4:  MOVLW  00
02CC6:  ADDWFC x48,W
02CC8:  MOVWF  03
02CCA:  MOVF   01,W
02CCC:  ADDLW  1F
02CCE:  MOVWF  FE9
02CD0:  MOVLW  04
02CD2:  ADDWFC 03,W
02CD4:  MOVWF  FEA
02CD6:  MOVF   FEF,W
02CD8:  SUBLW  06
02CDA:  BC    2D06
....................          CiclosPersonalizados[i].NivelDesfogue=6; 
02CDC:  MOVLB  3
02CDE:  MOVF   x68,W
02CE0:  MULLW  0A
02CE2:  MOVF   FF3,W
02CE4:  MOVLB  4
02CE6:  CLRF   x48
02CE8:  MOVWF  x47
02CEA:  MOVLW  08
02CEC:  ADDWF  x47,W
02CEE:  MOVWF  01
02CF0:  MOVLW  00
02CF2:  ADDWFC x48,W
02CF4:  MOVWF  03
02CF6:  MOVF   01,W
02CF8:  ADDLW  1F
02CFA:  MOVWF  FE9
02CFC:  MOVLW  04
02CFE:  ADDWFC 03,W
02D00:  MOVWF  FEA
02D02:  MOVLW  06
02D04:  MOVWF  FEF
....................    } 
02D06:  MOVLB  3
02D08:  INCF   x68,F
02D0A:  BRA    273C
.................... } 
02D0C:  MOVLB  0
02D0E:  GOTO   7F34 (RETURN)
....................  
.................... void LimitaValores(){ 
....................    if(Testerilizacionp[0]>9 || Testerilizacionp[0]<0){ 
*
02EC0:  BTFSC  xBD.7
02EC2:  BRA    2ECA
02EC4:  MOVF   xBD,W
02EC6:  SUBLW  09
02EC8:  BNC   2ED0
02ECA:  BTFSC  xBD.7
02ECC:  BRA    2ED0
02ECE:  BRA    2F08
....................       Testerilizacionp[0]=0; 
02ED0:  CLRF   xBD
....................       write_eeprom(0,0); 
02ED2:  CLRF   FAA
02ED4:  CLRF   FA9
02ED6:  CLRF   FA8
02ED8:  BCF    FA6.6
02EDA:  BCF    FA6.7
02EDC:  BSF    FA6.2
02EDE:  MOVF   FF2,W
02EE0:  MOVWF  00
02EE2:  BCF    FF2.6
02EE4:  BCF    FF2.7
02EE6:  MOVLB  F
02EE8:  MOVLW  55
02EEA:  MOVWF  FA7
02EEC:  MOVLW  AA
02EEE:  MOVWF  FA7
02EF0:  BSF    FA6.1
02EF2:  BTFSC  FA6.1
02EF4:  BRA    2EF2
02EF6:  BCF    FA6.2
02EF8:  MOVF   00,W
02EFA:  IORWF  FF2,F
....................       delay_ms(10); 
02EFC:  MOVLW  0A
02EFE:  MOVLB  4
02F00:  MOVWF  x5C
02F02:  MOVLB  0
02F04:  CALL   1AF4
....................    } 
....................    if(Testerilizacionp[1]>9 || Testerilizacionp[1]<0){ 
02F08:  BTFSC  xBE.7
02F0A:  BRA    2F12
02F0C:  MOVF   xBE,W
02F0E:  SUBLW  09
02F10:  BNC   2F18
02F12:  BTFSC  xBE.7
02F14:  BRA    2F18
02F16:  BRA    2F52
....................       Testerilizacionp[1]=0; 
02F18:  CLRF   xBE
....................       write_eeprom(1,0); 
02F1A:  CLRF   FAA
02F1C:  MOVLW  01
02F1E:  MOVWF  FA9
02F20:  CLRF   FA8
02F22:  BCF    FA6.6
02F24:  BCF    FA6.7
02F26:  BSF    FA6.2
02F28:  MOVF   FF2,W
02F2A:  MOVWF  00
02F2C:  BCF    FF2.6
02F2E:  BCF    FF2.7
02F30:  MOVLB  F
02F32:  MOVLW  55
02F34:  MOVWF  FA7
02F36:  MOVLW  AA
02F38:  MOVWF  FA7
02F3A:  BSF    FA6.1
02F3C:  BTFSC  FA6.1
02F3E:  BRA    2F3C
02F40:  BCF    FA6.2
02F42:  MOVF   00,W
02F44:  IORWF  FF2,F
....................       delay_ms(10); 
02F46:  MOVLW  0A
02F48:  MOVLB  4
02F4A:  MOVWF  x5C
02F4C:  MOVLB  0
02F4E:  CALL   1AF4
....................    } 
....................    if(Testerilizacionp[2]>9 || Testerilizacionp[2]<0){ 
02F52:  BTFSC  xBF.7
02F54:  BRA    2F5C
02F56:  MOVF   xBF,W
02F58:  SUBLW  09
02F5A:  BNC   2F62
02F5C:  BTFSC  xBF.7
02F5E:  BRA    2F62
02F60:  BRA    2F9C
....................       Testerilizacionp[2]=0; 
02F62:  CLRF   xBF
....................       write_eeprom(2,0); 
02F64:  CLRF   FAA
02F66:  MOVLW  02
02F68:  MOVWF  FA9
02F6A:  CLRF   FA8
02F6C:  BCF    FA6.6
02F6E:  BCF    FA6.7
02F70:  BSF    FA6.2
02F72:  MOVF   FF2,W
02F74:  MOVWF  00
02F76:  BCF    FF2.6
02F78:  BCF    FF2.7
02F7A:  MOVLB  F
02F7C:  MOVLW  55
02F7E:  MOVWF  FA7
02F80:  MOVLW  AA
02F82:  MOVWF  FA7
02F84:  BSF    FA6.1
02F86:  BTFSC  FA6.1
02F88:  BRA    2F86
02F8A:  BCF    FA6.2
02F8C:  MOVF   00,W
02F8E:  IORWF  FF2,F
....................       delay_ms(10); 
02F90:  MOVLW  0A
02F92:  MOVLB  4
02F94:  MOVWF  x5C
02F96:  MOVLB  0
02F98:  CALL   1AF4
....................    } 
....................    if(Testerilizacionp[3]>9 || Testerilizacionp[3]<0){ 
02F9C:  BTFSC  xC0.7
02F9E:  BRA    2FA6
02FA0:  MOVF   xC0,W
02FA2:  SUBLW  09
02FA4:  BNC   2FAC
02FA6:  BTFSC  xC0.7
02FA8:  BRA    2FAC
02FAA:  BRA    2FE6
....................       Testerilizacionp[3]=0; 
02FAC:  CLRF   xC0
....................       write_eeprom(3,0); 
02FAE:  CLRF   FAA
02FB0:  MOVLW  03
02FB2:  MOVWF  FA9
02FB4:  CLRF   FA8
02FB6:  BCF    FA6.6
02FB8:  BCF    FA6.7
02FBA:  BSF    FA6.2
02FBC:  MOVF   FF2,W
02FBE:  MOVWF  00
02FC0:  BCF    FF2.6
02FC2:  BCF    FF2.7
02FC4:  MOVLB  F
02FC6:  MOVLW  55
02FC8:  MOVWF  FA7
02FCA:  MOVLW  AA
02FCC:  MOVWF  FA7
02FCE:  BSF    FA6.1
02FD0:  BTFSC  FA6.1
02FD2:  BRA    2FD0
02FD4:  BCF    FA6.2
02FD6:  MOVF   00,W
02FD8:  IORWF  FF2,F
....................       delay_ms(10); 
02FDA:  MOVLW  0A
02FDC:  MOVLB  4
02FDE:  MOVWF  x5C
02FE0:  MOVLB  0
02FE2:  CALL   1AF4
....................    } 
....................    if(Tsecadop[0]>9 || Tsecadop[0]<0){ 
02FE6:  BTFSC  xC6.7
02FE8:  BRA    2FF0
02FEA:  MOVF   xC6,W
02FEC:  SUBLW  09
02FEE:  BNC   2FF6
02FF0:  BTFSC  xC6.7
02FF2:  BRA    2FF6
02FF4:  BRA    3030
....................       Tsecadop[0]=0; 
02FF6:  CLRF   xC6
....................       write_eeprom(4,0); 
02FF8:  CLRF   FAA
02FFA:  MOVLW  04
02FFC:  MOVWF  FA9
02FFE:  CLRF   FA8
03000:  BCF    FA6.6
03002:  BCF    FA6.7
03004:  BSF    FA6.2
03006:  MOVF   FF2,W
03008:  MOVWF  00
0300A:  BCF    FF2.6
0300C:  BCF    FF2.7
0300E:  MOVLB  F
03010:  MOVLW  55
03012:  MOVWF  FA7
03014:  MOVLW  AA
03016:  MOVWF  FA7
03018:  BSF    FA6.1
0301A:  BTFSC  FA6.1
0301C:  BRA    301A
0301E:  BCF    FA6.2
03020:  MOVF   00,W
03022:  IORWF  FF2,F
....................       delay_ms(10); 
03024:  MOVLW  0A
03026:  MOVLB  4
03028:  MOVWF  x5C
0302A:  MOVLB  0
0302C:  CALL   1AF4
....................    } 
....................    if(Tsecadop[1]>9 || Tsecadop[1]<0){ 
03030:  BTFSC  xC7.7
03032:  BRA    303A
03034:  MOVF   xC7,W
03036:  SUBLW  09
03038:  BNC   3040
0303A:  BTFSC  xC7.7
0303C:  BRA    3040
0303E:  BRA    307A
....................       Tsecadop[1]=0; 
03040:  CLRF   xC7
....................       write_eeprom(5,0); 
03042:  CLRF   FAA
03044:  MOVLW  05
03046:  MOVWF  FA9
03048:  CLRF   FA8
0304A:  BCF    FA6.6
0304C:  BCF    FA6.7
0304E:  BSF    FA6.2
03050:  MOVF   FF2,W
03052:  MOVWF  00
03054:  BCF    FF2.6
03056:  BCF    FF2.7
03058:  MOVLB  F
0305A:  MOVLW  55
0305C:  MOVWF  FA7
0305E:  MOVLW  AA
03060:  MOVWF  FA7
03062:  BSF    FA6.1
03064:  BTFSC  FA6.1
03066:  BRA    3064
03068:  BCF    FA6.2
0306A:  MOVF   00,W
0306C:  IORWF  FF2,F
....................       delay_ms(10); 
0306E:  MOVLW  0A
03070:  MOVLB  4
03072:  MOVWF  x5C
03074:  MOVLB  0
03076:  CALL   1AF4
....................    } 
....................    if(Tsecadop[2]>9 || Tsecadop[2]<0){ 
0307A:  BTFSC  xC8.7
0307C:  BRA    3084
0307E:  MOVF   xC8,W
03080:  SUBLW  09
03082:  BNC   308A
03084:  BTFSC  xC8.7
03086:  BRA    308A
03088:  BRA    30C4
....................       Tsecadop[2]=0; 
0308A:  CLRF   xC8
....................       write_eeprom(6,0); 
0308C:  CLRF   FAA
0308E:  MOVLW  06
03090:  MOVWF  FA9
03092:  CLRF   FA8
03094:  BCF    FA6.6
03096:  BCF    FA6.7
03098:  BSF    FA6.2
0309A:  MOVF   FF2,W
0309C:  MOVWF  00
0309E:  BCF    FF2.6
030A0:  BCF    FF2.7
030A2:  MOVLB  F
030A4:  MOVLW  55
030A6:  MOVWF  FA7
030A8:  MOVLW  AA
030AA:  MOVWF  FA7
030AC:  BSF    FA6.1
030AE:  BTFSC  FA6.1
030B0:  BRA    30AE
030B2:  BCF    FA6.2
030B4:  MOVF   00,W
030B6:  IORWF  FF2,F
....................       delay_ms(10); 
030B8:  MOVLW  0A
030BA:  MOVLB  4
030BC:  MOVWF  x5C
030BE:  MOVLB  0
030C0:  CALL   1AF4
....................    } 
....................    if(Tsecadop[3]>9 || Tsecadop[3]<0){ 
030C4:  BTFSC  xC9.7
030C6:  BRA    30CE
030C8:  MOVF   xC9,W
030CA:  SUBLW  09
030CC:  BNC   30D4
030CE:  BTFSC  xC9.7
030D0:  BRA    30D4
030D2:  BRA    310E
....................       Tsecadop[3]=0; 
030D4:  CLRF   xC9
....................       write_eeprom(7,0); 
030D6:  CLRF   FAA
030D8:  MOVLW  07
030DA:  MOVWF  FA9
030DC:  CLRF   FA8
030DE:  BCF    FA6.6
030E0:  BCF    FA6.7
030E2:  BSF    FA6.2
030E4:  MOVF   FF2,W
030E6:  MOVWF  00
030E8:  BCF    FF2.6
030EA:  BCF    FF2.7
030EC:  MOVLB  F
030EE:  MOVLW  55
030F0:  MOVWF  FA7
030F2:  MOVLW  AA
030F4:  MOVWF  FA7
030F6:  BSF    FA6.1
030F8:  BTFSC  FA6.1
030FA:  BRA    30F8
030FC:  BCF    FA6.2
030FE:  MOVF   00,W
03100:  IORWF  FF2,F
....................       delay_ms(10); 
03102:  MOVLW  0A
03104:  MOVLB  4
03106:  MOVWF  x5C
03108:  MOVLB  0
0310A:  CALL   1AF4
....................    } 
....................    if(Setpoint>134){ 
0310E:  MOVLB  3
03110:  MOVF   x6C,W
03112:  SUBLW  86
03114:  BC    3156
....................       Setpoint=134; 
03116:  MOVLW  86
03118:  MOVWF  x6C
....................       write_eeprom(8,134); 
0311A:  CLRF   FAA
0311C:  MOVLW  08
0311E:  MOVWF  FA9
03120:  MOVLW  86
03122:  MOVWF  FA8
03124:  BCF    FA6.6
03126:  BCF    FA6.7
03128:  BSF    FA6.2
0312A:  MOVF   FF2,W
0312C:  MOVWF  00
0312E:  BCF    FF2.6
03130:  BCF    FF2.7
03132:  MOVLB  F
03134:  MOVLW  55
03136:  MOVWF  FA7
03138:  MOVLW  AA
0313A:  MOVWF  FA7
0313C:  BSF    FA6.1
0313E:  BTFSC  FA6.1
03140:  BRA    313E
03142:  BCF    FA6.2
03144:  MOVF   00,W
03146:  IORWF  FF2,F
....................       delay_ms(10); 
03148:  MOVLW  0A
0314A:  MOVLB  4
0314C:  MOVWF  x5C
0314E:  MOVLB  0
03150:  CALL   1AF4
03154:  MOVLB  3
....................    } 
....................    if(Nivel>6){ 
03156:  MOVF   x7C,F
03158:  BNZ   3160
0315A:  MOVF   x7B,W
0315C:  SUBLW  06
0315E:  BC    31A2
....................       Nivel=3; 
03160:  CLRF   x7C
03162:  MOVLW  03
03164:  MOVWF  x7B
....................       write_eeprom(9,3); 
03166:  CLRF   FAA
03168:  MOVLW  09
0316A:  MOVWF  FA9
0316C:  MOVLW  03
0316E:  MOVWF  FA8
03170:  BCF    FA6.6
03172:  BCF    FA6.7
03174:  BSF    FA6.2
03176:  MOVF   FF2,W
03178:  MOVWF  00
0317A:  BCF    FF2.6
0317C:  BCF    FF2.7
0317E:  MOVLB  F
03180:  MOVLW  55
03182:  MOVWF  FA7
03184:  MOVLW  AA
03186:  MOVWF  FA7
03188:  BSF    FA6.1
0318A:  BTFSC  FA6.1
0318C:  BRA    318A
0318E:  BCF    FA6.2
03190:  MOVF   00,W
03192:  IORWF  FF2,F
....................       delay_ms(10); 
03194:  MOVLW  0A
03196:  MOVLB  4
03198:  MOVWF  x5C
0319A:  MOVLB  0
0319C:  CALL   1AF4
031A0:  MOVLB  3
....................    } 
....................    if(Password[0]>9 || Password[0]<0){ 
031A2:  BTFSC  x8F.7
031A4:  BRA    31AC
031A6:  MOVF   x8F,W
031A8:  SUBLW  09
031AA:  BNC   31B2
031AC:  BTFSC  x8F.7
031AE:  BRA    31B2
031B0:  BRA    31EE
....................       Password[0]=0; 
031B2:  CLRF   x8F
....................       write_eeprom(10,0); 
031B4:  CLRF   FAA
031B6:  MOVLW  0A
031B8:  MOVWF  FA9
031BA:  CLRF   FA8
031BC:  BCF    FA6.6
031BE:  BCF    FA6.7
031C0:  BSF    FA6.2
031C2:  MOVF   FF2,W
031C4:  MOVWF  00
031C6:  BCF    FF2.6
031C8:  BCF    FF2.7
031CA:  MOVLB  F
031CC:  MOVLW  55
031CE:  MOVWF  FA7
031D0:  MOVLW  AA
031D2:  MOVWF  FA7
031D4:  BSF    FA6.1
031D6:  BTFSC  FA6.1
031D8:  BRA    31D6
031DA:  BCF    FA6.2
031DC:  MOVF   00,W
031DE:  IORWF  FF2,F
....................       delay_ms(10); 
031E0:  MOVLW  0A
031E2:  MOVLB  4
031E4:  MOVWF  x5C
031E6:  MOVLB  0
031E8:  CALL   1AF4
031EC:  MOVLB  3
....................    } 
....................    if(Password[1]>9 || Password[1]<0){ 
031EE:  BTFSC  x90.7
031F0:  BRA    31F8
031F2:  MOVF   x90,W
031F4:  SUBLW  09
031F6:  BNC   31FE
031F8:  BTFSC  x90.7
031FA:  BRA    31FE
031FC:  BRA    323A
....................       Password[1]=0; 
031FE:  CLRF   x90
....................       write_eeprom(11,0); 
03200:  CLRF   FAA
03202:  MOVLW  0B
03204:  MOVWF  FA9
03206:  CLRF   FA8
03208:  BCF    FA6.6
0320A:  BCF    FA6.7
0320C:  BSF    FA6.2
0320E:  MOVF   FF2,W
03210:  MOVWF  00
03212:  BCF    FF2.6
03214:  BCF    FF2.7
03216:  MOVLB  F
03218:  MOVLW  55
0321A:  MOVWF  FA7
0321C:  MOVLW  AA
0321E:  MOVWF  FA7
03220:  BSF    FA6.1
03222:  BTFSC  FA6.1
03224:  BRA    3222
03226:  BCF    FA6.2
03228:  MOVF   00,W
0322A:  IORWF  FF2,F
....................       delay_ms(10); 
0322C:  MOVLW  0A
0322E:  MOVLB  4
03230:  MOVWF  x5C
03232:  MOVLB  0
03234:  CALL   1AF4
03238:  MOVLB  3
....................    } 
....................    if(Password[2]>9 || Password[2]<0){ 
0323A:  BTFSC  x91.7
0323C:  BRA    3244
0323E:  MOVF   x91,W
03240:  SUBLW  09
03242:  BNC   324A
03244:  BTFSC  x91.7
03246:  BRA    324A
03248:  BRA    3286
....................       Password[2]=0; 
0324A:  CLRF   x91
....................       write_eeprom(12,0); 
0324C:  CLRF   FAA
0324E:  MOVLW  0C
03250:  MOVWF  FA9
03252:  CLRF   FA8
03254:  BCF    FA6.6
03256:  BCF    FA6.7
03258:  BSF    FA6.2
0325A:  MOVF   FF2,W
0325C:  MOVWF  00
0325E:  BCF    FF2.6
03260:  BCF    FF2.7
03262:  MOVLB  F
03264:  MOVLW  55
03266:  MOVWF  FA7
03268:  MOVLW  AA
0326A:  MOVWF  FA7
0326C:  BSF    FA6.1
0326E:  BTFSC  FA6.1
03270:  BRA    326E
03272:  BCF    FA6.2
03274:  MOVF   00,W
03276:  IORWF  FF2,F
....................       delay_ms(10); 
03278:  MOVLW  0A
0327A:  MOVLB  4
0327C:  MOVWF  x5C
0327E:  MOVLB  0
03280:  CALL   1AF4
03284:  MOVLB  3
....................    } 
....................    if(Password[3]>9 || Password[3]<0){ 
03286:  BTFSC  x92.7
03288:  BRA    3290
0328A:  MOVF   x92,W
0328C:  SUBLW  09
0328E:  BNC   3296
03290:  BTFSC  x92.7
03292:  BRA    3296
03294:  BRA    32D0
....................       Password[3]=0; 
03296:  CLRF   x92
....................       write_eeprom(13,0); 
03298:  CLRF   FAA
0329A:  MOVLW  0D
0329C:  MOVWF  FA9
0329E:  CLRF   FA8
032A0:  BCF    FA6.6
032A2:  BCF    FA6.7
032A4:  BSF    FA6.2
032A6:  MOVF   FF2,W
032A8:  MOVWF  00
032AA:  BCF    FF2.6
032AC:  BCF    FF2.7
032AE:  MOVLB  F
032B0:  MOVLW  55
032B2:  MOVWF  FA7
032B4:  MOVLW  AA
032B6:  MOVWF  FA7
032B8:  BSF    FA6.1
032BA:  BTFSC  FA6.1
032BC:  BRA    32BA
032BE:  BCF    FA6.2
032C0:  MOVF   00,W
032C2:  IORWF  FF2,F
....................       delay_ms(10); 
032C4:  MOVLW  0A
032C6:  MOVLB  4
032C8:  MOVWF  x5C
032CA:  MOVLB  0
032CC:  CALL   1AF4
....................    } 
....................    if(Ganancia>30.0 || Ganancia<1.0){ 
032D0:  MOVLB  4
032D2:  CLRF   x4E
032D4:  CLRF   x4D
032D6:  MOVLW  70
032D8:  MOVWF  x4C
032DA:  MOVLW  83
032DC:  MOVWF  x4B
032DE:  MOVFF  312,452
032E2:  MOVFF  311,451
032E6:  MOVFF  310,450
032EA:  MOVFF  30F,44F
032EE:  MOVLB  0
032F0:  RCALL  2DF8
032F2:  BC    3316
032F4:  MOVFF  312,44E
032F8:  MOVFF  311,44D
032FC:  MOVFF  310,44C
03300:  MOVFF  30F,44B
03304:  MOVLB  4
03306:  CLRF   x52
03308:  CLRF   x51
0330A:  CLRF   x50
0330C:  MOVLW  7F
0330E:  MOVWF  x4F
03310:  MOVLB  0
03312:  RCALL  2DF8
03314:  BNC   335E
....................       Ganancia=12.0; 
03316:  MOVLB  3
03318:  CLRF   x12
0331A:  CLRF   x11
0331C:  MOVLW  40
0331E:  MOVWF  x10
03320:  MOVLW  82
03322:  MOVWF  x0F
....................       write_eeprom(20,12); 
03324:  CLRF   FAA
03326:  MOVLW  14
03328:  MOVWF  FA9
0332A:  MOVLW  0C
0332C:  MOVWF  FA8
0332E:  BCF    FA6.6
03330:  BCF    FA6.7
03332:  BSF    FA6.2
03334:  MOVF   FF2,W
03336:  MOVWF  00
03338:  BCF    FF2.6
0333A:  BCF    FF2.7
0333C:  MOVLB  F
0333E:  MOVLW  55
03340:  MOVWF  FA7
03342:  MOVLW  AA
03344:  MOVWF  FA7
03346:  BSF    FA6.1
03348:  BTFSC  FA6.1
0334A:  BRA    3348
0334C:  BCF    FA6.2
0334E:  MOVF   00,W
03350:  IORWF  FF2,F
....................       delay_ms(10); 
03352:  MOVLW  0A
03354:  MOVLB  4
03356:  MOVWF  x5C
03358:  MOVLB  0
0335A:  CALL   1AF4
....................    } 
....................    if(Ajuste>100){ 
0335E:  MOVLB  2
03360:  MOVF   xE0,W
03362:  SUBLW  64
03364:  BC    33A2
....................       Ajuste=0; 
03366:  CLRF   xE0
....................       write_eeprom(21,0); 
03368:  CLRF   FAA
0336A:  MOVLW  15
0336C:  MOVWF  FA9
0336E:  CLRF   FA8
03370:  BCF    FA6.6
03372:  BCF    FA6.7
03374:  BSF    FA6.2
03376:  MOVF   FF2,W
03378:  MOVWF  00
0337A:  BCF    FF2.6
0337C:  BCF    FF2.7
0337E:  MOVLB  F
03380:  MOVLW  55
03382:  MOVWF  FA7
03384:  MOVLW  AA
03386:  MOVWF  FA7
03388:  BSF    FA6.1
0338A:  BTFSC  FA6.1
0338C:  BRA    338A
0338E:  BCF    FA6.2
03390:  MOVF   00,W
03392:  IORWF  FF2,F
....................       delay_ms(10); 
03394:  MOVLW  0A
03396:  MOVLB  4
03398:  MOVWF  x5C
0339A:  MOVLB  0
0339C:  CALL   1AF4
033A0:  MOVLB  2
....................    } 
....................    if(Ajusten>100){ 
033A2:  MOVF   xE1,W
033A4:  SUBLW  64
033A6:  BC    33E4
....................       Ajusten=0; 
033A8:  CLRF   xE1
....................       write_eeprom(22,0); 
033AA:  CLRF   FAA
033AC:  MOVLW  16
033AE:  MOVWF  FA9
033B0:  CLRF   FA8
033B2:  BCF    FA6.6
033B4:  BCF    FA6.7
033B6:  BSF    FA6.2
033B8:  MOVF   FF2,W
033BA:  MOVWF  00
033BC:  BCF    FF2.6
033BE:  BCF    FF2.7
033C0:  MOVLB  F
033C2:  MOVLW  55
033C4:  MOVWF  FA7
033C6:  MOVLW  AA
033C8:  MOVWF  FA7
033CA:  BSF    FA6.1
033CC:  BTFSC  FA6.1
033CE:  BRA    33CC
033D0:  BCF    FA6.2
033D2:  MOVF   00,W
033D4:  IORWF  FF2,F
....................       delay_ms(10); 
033D6:  MOVLW  0A
033D8:  MOVLB  4
033DA:  MOVWF  x5C
033DC:  MOVLB  0
033DE:  CALL   1AF4
033E2:  MOVLB  2
....................    } 
....................    if(MediaMovil>80 || MediaMovil<10){ 
033E4:  MOVF   xE2,W
033E6:  SUBLW  50
033E8:  BNC   33F0
033EA:  MOVF   xE2,W
033EC:  SUBLW  09
033EE:  BNC   342E
....................       MediaMovil=80; 
033F0:  MOVLW  50
033F2:  MOVWF  xE2
....................       write_eeprom(24,80); 
033F4:  CLRF   FAA
033F6:  MOVLW  18
033F8:  MOVWF  FA9
033FA:  MOVLW  50
033FC:  MOVWF  FA8
033FE:  BCF    FA6.6
03400:  BCF    FA6.7
03402:  BSF    FA6.2
03404:  MOVF   FF2,W
03406:  MOVWF  00
03408:  BCF    FF2.6
0340A:  BCF    FF2.7
0340C:  MOVLB  F
0340E:  MOVLW  55
03410:  MOVWF  FA7
03412:  MOVLW  AA
03414:  MOVWF  FA7
03416:  BSF    FA6.1
03418:  BTFSC  FA6.1
0341A:  BRA    3418
0341C:  BCF    FA6.2
0341E:  MOVF   00,W
03420:  IORWF  FF2,F
....................       delay_ms(10); 
03422:  MOVLW  0A
03424:  MOVLB  4
03426:  MOVWF  x5C
03428:  MOVLB  0
0342A:  CALL   1AF4
....................    } 
....................    if(Tciclo>10 || Tciclo<5){ 
0342E:  MOVLB  4
03430:  CLRF   x4E
03432:  CLRF   x4D
03434:  MOVLW  20
03436:  MOVWF  x4C
03438:  MOVLW  82
0343A:  MOVWF  x4B
0343C:  MOVFF  2FA,452
03440:  MOVFF  2F9,451
03444:  MOVFF  2F8,450
03448:  MOVFF  2F7,44F
0344C:  MOVLB  0
0344E:  RCALL  2DF8
03450:  BC    3476
03452:  MOVFF  2FA,44E
03456:  MOVFF  2F9,44D
0345A:  MOVFF  2F8,44C
0345E:  MOVFF  2F7,44B
03462:  MOVLB  4
03464:  CLRF   x52
03466:  CLRF   x51
03468:  MOVLW  20
0346A:  MOVWF  x50
0346C:  MOVLW  81
0346E:  MOVWF  x4F
03470:  MOVLB  0
03472:  RCALL  2DF8
03474:  BNC   34BE
....................       Tciclo=10; 
03476:  MOVLB  2
03478:  CLRF   xFA
0347A:  CLRF   xF9
0347C:  MOVLW  20
0347E:  MOVWF  xF8
03480:  MOVLW  82
03482:  MOVWF  xF7
....................       write_eeprom(25,10); 
03484:  CLRF   FAA
03486:  MOVLW  19
03488:  MOVWF  FA9
0348A:  MOVLW  0A
0348C:  MOVWF  FA8
0348E:  BCF    FA6.6
03490:  BCF    FA6.7
03492:  BSF    FA6.2
03494:  MOVF   FF2,W
03496:  MOVWF  00
03498:  BCF    FF2.6
0349A:  BCF    FF2.7
0349C:  MOVLB  F
0349E:  MOVLW  55
034A0:  MOVWF  FA7
034A2:  MOVLW  AA
034A4:  MOVWF  FA7
034A6:  BSF    FA6.1
034A8:  BTFSC  FA6.1
034AA:  BRA    34A8
034AC:  BCF    FA6.2
034AE:  MOVF   00,W
034B0:  IORWF  FF2,F
....................       delay_ms(10); 
034B2:  MOVLW  0A
034B4:  MOVLB  4
034B6:  MOVWF  x5C
034B8:  MOVLB  0
034BA:  CALL   1AF4
....................    } 
....................    if(Integral>10.0 || Integral<1.0){ 
034BE:  MOVLB  4
034C0:  CLRF   x5D
034C2:  MOVFF  343,45C
034C6:  MOVLB  0
034C8:  CALL   1B1C
034CC:  MOVLB  4
034CE:  CLRF   x4E
034D0:  CLRF   x4D
034D2:  MOVLW  20
034D4:  MOVWF  x4C
034D6:  MOVLW  82
034D8:  MOVWF  x4B
034DA:  MOVFF  03,452
034DE:  MOVFF  02,451
034E2:  MOVFF  01,450
034E6:  MOVFF  00,44F
034EA:  MOVLB  0
034EC:  RCALL  2DF8
034EE:  BC    3520
034F0:  MOVLB  4
034F2:  CLRF   x5D
034F4:  MOVFF  343,45C
034F8:  MOVLB  0
034FA:  CALL   1B1C
034FE:  MOVFF  03,44E
03502:  MOVFF  02,44D
03506:  MOVFF  01,44C
0350A:  MOVFF  00,44B
0350E:  MOVLB  4
03510:  CLRF   x52
03512:  CLRF   x51
03514:  CLRF   x50
03516:  MOVLW  7F
03518:  MOVWF  x4F
0351A:  MOVLB  0
0351C:  RCALL  2DF8
0351E:  BNC   3560
....................       Integral=1.0; 
03520:  MOVLW  01
03522:  MOVLB  3
03524:  MOVWF  x43
....................       write_eeprom(26,1); 
03526:  CLRF   FAA
03528:  MOVLW  1A
0352A:  MOVWF  FA9
0352C:  MOVLW  01
0352E:  MOVWF  FA8
03530:  BCF    FA6.6
03532:  BCF    FA6.7
03534:  BSF    FA6.2
03536:  MOVF   FF2,W
03538:  MOVWF  00
0353A:  BCF    FF2.6
0353C:  BCF    FF2.7
0353E:  MOVLB  F
03540:  MOVLW  55
03542:  MOVWF  FA7
03544:  MOVLW  AA
03546:  MOVWF  FA7
03548:  BSF    FA6.1
0354A:  BTFSC  FA6.1
0354C:  BRA    354A
0354E:  BCF    FA6.2
03550:  MOVF   00,W
03552:  IORWF  FF2,F
....................       delay_ms(10); 
03554:  MOVLW  0A
03556:  MOVLB  4
03558:  MOVWF  x5C
0355A:  MOVLB  0
0355C:  CALL   1AF4
....................    } 
....................    if(Derivativo>20.0 || Derivativo<5){ 
03560:  MOVLB  4
03562:  CLRF   x5D
03564:  MOVFF  344,45C
03568:  MOVLB  0
0356A:  CALL   1B1C
0356E:  MOVLB  4
03570:  CLRF   x4E
03572:  CLRF   x4D
03574:  MOVLW  20
03576:  MOVWF  x4C
03578:  MOVLW  83
0357A:  MOVWF  x4B
0357C:  MOVFF  03,452
03580:  MOVFF  02,451
03584:  MOVFF  01,450
03588:  MOVFF  00,44F
0358C:  MOVLB  0
0358E:  RCALL  2DF8
03590:  BC    359C
03592:  MOVLB  3
03594:  MOVF   x44,W
03596:  SUBLW  04
03598:  BNC   35DC
0359A:  MOVLB  0
....................       Derivativo=15.0; 
0359C:  MOVLW  0F
0359E:  MOVLB  3
035A0:  MOVWF  x44
....................       write_eeprom(27,15); 
035A2:  CLRF   FAA
035A4:  MOVLW  1B
035A6:  MOVWF  FA9
035A8:  MOVLW  0F
035AA:  MOVWF  FA8
035AC:  BCF    FA6.6
035AE:  BCF    FA6.7
035B0:  BSF    FA6.2
035B2:  MOVF   FF2,W
035B4:  MOVWF  00
035B6:  BCF    FF2.6
035B8:  BCF    FF2.7
035BA:  MOVLB  F
035BC:  MOVLW  55
035BE:  MOVWF  FA7
035C0:  MOVLW  AA
035C2:  MOVWF  FA7
035C4:  BSF    FA6.1
035C6:  BTFSC  FA6.1
035C8:  BRA    35C6
035CA:  BCF    FA6.2
035CC:  MOVF   00,W
035CE:  IORWF  FF2,F
....................       delay_ms(10); 
035D0:  MOVLW  0A
035D2:  MOVLB  4
035D4:  MOVWF  x5C
035D6:  MOVLB  0
035D8:  CALL   1AF4
....................    } 
....................    if(Gain>50){ 
035DC:  MOVLB  4
035DE:  CLRF   x4E
035E0:  CLRF   x4D
035E2:  MOVLW  48
035E4:  MOVWF  x4C
035E6:  MOVLW  84
035E8:  MOVWF  x4B
035EA:  MOVFF  2AD,452
035EE:  MOVFF  2AC,451
035F2:  MOVFF  2AB,450
035F6:  MOVFF  2AA,44F
035FA:  MOVLB  0
035FC:  CALL   2DF8
03600:  BNC   3688
....................       Gain=40.2; 
03602:  MOVLW  CD
03604:  MOVLB  2
03606:  MOVWF  xAD
03608:  MOVLW  CC
0360A:  MOVWF  xAC
0360C:  MOVLW  20
0360E:  MOVWF  xAB
03610:  MOVLW  84
03612:  MOVWF  xAA
....................       write_eeprom(28,40); 
03614:  CLRF   FAA
03616:  MOVLW  1C
03618:  MOVWF  FA9
0361A:  MOVLW  28
0361C:  MOVWF  FA8
0361E:  BCF    FA6.6
03620:  BCF    FA6.7
03622:  BSF    FA6.2
03624:  MOVF   FF2,W
03626:  MOVWF  00
03628:  BCF    FF2.6
0362A:  BCF    FF2.7
0362C:  MOVLB  F
0362E:  MOVLW  55
03630:  MOVWF  FA7
03632:  MOVLW  AA
03634:  MOVWF  FA7
03636:  BSF    FA6.1
03638:  BTFSC  FA6.1
0363A:  BRA    3638
0363C:  BCF    FA6.2
0363E:  MOVF   00,W
03640:  IORWF  FF2,F
....................       delay_ms(10); 
03642:  MOVLW  0A
03644:  MOVLB  4
03646:  MOVWF  x5C
03648:  MOVLB  0
0364A:  CALL   1AF4
....................       write_eeprom(29,2); 
0364E:  CLRF   FAA
03650:  MOVLW  1D
03652:  MOVWF  FA9
03654:  MOVLW  02
03656:  MOVWF  FA8
03658:  BCF    FA6.6
0365A:  BCF    FA6.7
0365C:  BSF    FA6.2
0365E:  MOVF   FF2,W
03660:  MOVWF  00
03662:  BCF    FF2.6
03664:  BCF    FF2.7
03666:  MOVLB  F
03668:  MOVLW  55
0366A:  MOVWF  FA7
0366C:  MOVLW  AA
0366E:  MOVWF  FA7
03670:  BSF    FA6.1
03672:  BTFSC  FA6.1
03674:  BRA    3672
03676:  BCF    FA6.2
03678:  MOVF   00,W
0367A:  IORWF  FF2,F
....................       delay_ms(10); 
0367C:  MOVLW  0A
0367E:  MOVLB  4
03680:  MOVWF  x5C
03682:  MOVLB  0
03684:  CALL   1AF4
....................    } 
....................    if(R1>6400){ 
03688:  MOVLB  4
0368A:  CLRF   x4E
0368C:  CLRF   x4D
0368E:  MOVLW  48
03690:  MOVWF  x4C
03692:  MOVLW  8B
03694:  MOVWF  x4B
03696:  MOVFF  2B9,452
0369A:  MOVFF  2B8,451
0369E:  MOVFF  2B7,450
036A2:  MOVFF  2B6,44F
036A6:  MOVLB  0
036A8:  CALL   2DF8
036AC:  BNC   3732
....................       R1=6200; 
036AE:  MOVLB  2
036B0:  CLRF   xB9
036B2:  MOVLW  C0
036B4:  MOVWF  xB8
036B6:  MOVLW  41
036B8:  MOVWF  xB7
036BA:  MOVLW  8B
036BC:  MOVWF  xB6
....................       write_eeprom(30,0x38); 
036BE:  CLRF   FAA
036C0:  MOVLW  1E
036C2:  MOVWF  FA9
036C4:  MOVLW  38
036C6:  MOVWF  FA8
036C8:  BCF    FA6.6
036CA:  BCF    FA6.7
036CC:  BSF    FA6.2
036CE:  MOVF   FF2,W
036D0:  MOVWF  00
036D2:  BCF    FF2.6
036D4:  BCF    FF2.7
036D6:  MOVLB  F
036D8:  MOVLW  55
036DA:  MOVWF  FA7
036DC:  MOVLW  AA
036DE:  MOVWF  FA7
036E0:  BSF    FA6.1
036E2:  BTFSC  FA6.1
036E4:  BRA    36E2
036E6:  BCF    FA6.2
036E8:  MOVF   00,W
036EA:  IORWF  FF2,F
....................       delay_ms(10); 
036EC:  MOVLW  0A
036EE:  MOVLB  4
036F0:  MOVWF  x5C
036F2:  MOVLB  0
036F4:  CALL   1AF4
....................       write_eeprom(31,0x18); 
036F8:  CLRF   FAA
036FA:  MOVLW  1F
036FC:  MOVWF  FA9
036FE:  MOVLW  18
03700:  MOVWF  FA8
03702:  BCF    FA6.6
03704:  BCF    FA6.7
03706:  BSF    FA6.2
03708:  MOVF   FF2,W
0370A:  MOVWF  00
0370C:  BCF    FF2.6
0370E:  BCF    FF2.7
03710:  MOVLB  F
03712:  MOVLW  55
03714:  MOVWF  FA7
03716:  MOVLW  AA
03718:  MOVWF  FA7
0371A:  BSF    FA6.1
0371C:  BTFSC  FA6.1
0371E:  BRA    371C
03720:  BCF    FA6.2
03722:  MOVF   00,W
03724:  IORWF  FF2,F
....................       delay_ms(10); 
03726:  MOVLW  0A
03728:  MOVLB  4
0372A:  MOVWF  x5C
0372C:  MOVLB  0
0372E:  CALL   1AF4
....................    } 
....................    if(RPT100>2.0){ 
03732:  MOVLB  4
03734:  CLRF   x4E
03736:  CLRF   x4D
03738:  CLRF   x4C
0373A:  MOVLW  80
0373C:  MOVWF  x4B
0373E:  MOVFF  2B1,452
03742:  MOVFF  2B0,451
03746:  MOVFF  2AF,450
0374A:  MOVFF  2AE,44F
0374E:  MOVLB  0
03750:  CALL   2DF8
03754:  BNC   37D4
....................       RPT100=0.5; 
03756:  MOVLB  2
03758:  CLRF   xB1
0375A:  CLRF   xB0
0375C:  CLRF   xAF
0375E:  MOVLW  7E
03760:  MOVWF  xAE
....................       write_eeprom(32,0); 
03762:  CLRF   FAA
03764:  MOVLW  20
03766:  MOVWF  FA9
03768:  CLRF   FA8
0376A:  BCF    FA6.6
0376C:  BCF    FA6.7
0376E:  BSF    FA6.2
03770:  MOVF   FF2,W
03772:  MOVWF  00
03774:  BCF    FF2.6
03776:  BCF    FF2.7
03778:  MOVLB  F
0377A:  MOVLW  55
0377C:  MOVWF  FA7
0377E:  MOVLW  AA
03780:  MOVWF  FA7
03782:  BSF    FA6.1
03784:  BTFSC  FA6.1
03786:  BRA    3784
03788:  BCF    FA6.2
0378A:  MOVF   00,W
0378C:  IORWF  FF2,F
....................       delay_ms(10); 
0378E:  MOVLW  0A
03790:  MOVLB  4
03792:  MOVWF  x5C
03794:  MOVLB  0
03796:  CALL   1AF4
....................       write_eeprom(33,5); 
0379A:  CLRF   FAA
0379C:  MOVLW  21
0379E:  MOVWF  FA9
037A0:  MOVLW  05
037A2:  MOVWF  FA8
037A4:  BCF    FA6.6
037A6:  BCF    FA6.7
037A8:  BSF    FA6.2
037AA:  MOVF   FF2,W
037AC:  MOVWF  00
037AE:  BCF    FF2.6
037B0:  BCF    FF2.7
037B2:  MOVLB  F
037B4:  MOVLW  55
037B6:  MOVWF  FA7
037B8:  MOVLW  AA
037BA:  MOVWF  FA7
037BC:  BSF    FA6.1
037BE:  BTFSC  FA6.1
037C0:  BRA    37BE
037C2:  BCF    FA6.2
037C4:  MOVF   00,W
037C6:  IORWF  FF2,F
....................       delay_ms(10); 
037C8:  MOVLW  0A
037CA:  MOVLB  4
037CC:  MOVWF  x5C
037CE:  MOVLB  0
037D0:  CALL   1AF4
....................    } 
....................    if(Ciclos>60000){ 
037D4:  MOVLB  3
037D6:  MOVF   x84,W
037D8:  SUBLW  E9
037DA:  BC    385A
037DC:  XORLW  FF
037DE:  BNZ   37E6
037E0:  MOVF   x83,W
037E2:  SUBLW  60
037E4:  BC    385A
....................       Ciclos=0; 
037E6:  CLRF   x84
037E8:  CLRF   x83
....................       write_eeprom(37,0); 
037EA:  CLRF   FAA
037EC:  MOVLW  25
037EE:  MOVWF  FA9
037F0:  CLRF   FA8
037F2:  BCF    FA6.6
037F4:  BCF    FA6.7
037F6:  BSF    FA6.2
037F8:  MOVF   FF2,W
037FA:  MOVWF  00
037FC:  BCF    FF2.6
037FE:  BCF    FF2.7
03800:  MOVLB  F
03802:  MOVLW  55
03804:  MOVWF  FA7
03806:  MOVLW  AA
03808:  MOVWF  FA7
0380A:  BSF    FA6.1
0380C:  BTFSC  FA6.1
0380E:  BRA    380C
03810:  BCF    FA6.2
03812:  MOVF   00,W
03814:  IORWF  FF2,F
....................       delay_ms(10); 
03816:  MOVLW  0A
03818:  MOVLB  4
0381A:  MOVWF  x5C
0381C:  MOVLB  0
0381E:  CALL   1AF4
....................       write_eeprom(38,0); 
03822:  CLRF   FAA
03824:  MOVLW  26
03826:  MOVWF  FA9
03828:  CLRF   FA8
0382A:  BCF    FA6.6
0382C:  BCF    FA6.7
0382E:  BSF    FA6.2
03830:  MOVF   FF2,W
03832:  MOVWF  00
03834:  BCF    FF2.6
03836:  BCF    FF2.7
03838:  MOVLB  F
0383A:  MOVLW  55
0383C:  MOVWF  FA7
0383E:  MOVLW  AA
03840:  MOVWF  FA7
03842:  BSF    FA6.1
03844:  BTFSC  FA6.1
03846:  BRA    3844
03848:  BCF    FA6.2
0384A:  MOVF   00,W
0384C:  IORWF  FF2,F
....................       delay_ms(10); 
0384E:  MOVLW  0A
03850:  MOVLB  4
03852:  MOVWF  x5C
03854:  MOVLB  0
03856:  CALL   1AF4
....................    } 
....................    if(TTrampa>100){ 
0385A:  MOVLB  2
0385C:  MOVF   xE3,W
0385E:  SUBLW  64
03860:  BC    38A0
....................       TTrampa=80; 
03862:  MOVLW  50
03864:  MOVWF  xE3
....................       write_eeprom(39,80); 
03866:  CLRF   FAA
03868:  MOVLW  27
0386A:  MOVWF  FA9
0386C:  MOVLW  50
0386E:  MOVWF  FA8
03870:  BCF    FA6.6
03872:  BCF    FA6.7
03874:  BSF    FA6.2
03876:  MOVF   FF2,W
03878:  MOVWF  00
0387A:  BCF    FF2.6
0387C:  BCF    FF2.7
0387E:  MOVLB  F
03880:  MOVLW  55
03882:  MOVWF  FA7
03884:  MOVLW  AA
03886:  MOVWF  FA7
03888:  BSF    FA6.1
0388A:  BTFSC  FA6.1
0388C:  BRA    388A
0388E:  BCF    FA6.2
03890:  MOVF   00,W
03892:  IORWF  FF2,F
....................       delay_ms(10); 
03894:  MOVLW  0A
03896:  MOVLB  4
03898:  MOVWF  x5C
0389A:  MOVLB  0
0389C:  CALL   1AF4
....................    } 
....................    if(ActivaImpresion>1){ 
038A0:  MOVLB  3
038A2:  MOVF   x5E,W
038A4:  SUBLW  01
038A6:  BC    38E8
....................       ActivaImpresion=1; 
038A8:  MOVLW  01
038AA:  MOVWF  x5E
....................       write_eeprom(40,1); 
038AC:  CLRF   FAA
038AE:  MOVLW  28
038B0:  MOVWF  FA9
038B2:  MOVLW  01
038B4:  MOVWF  FA8
038B6:  BCF    FA6.6
038B8:  BCF    FA6.7
038BA:  BSF    FA6.2
038BC:  MOVF   FF2,W
038BE:  MOVWF  00
038C0:  BCF    FF2.6
038C2:  BCF    FF2.7
038C4:  MOVLB  F
038C6:  MOVLW  55
038C8:  MOVWF  FA7
038CA:  MOVLW  AA
038CC:  MOVWF  FA7
038CE:  BSF    FA6.1
038D0:  BTFSC  FA6.1
038D2:  BRA    38D0
038D4:  BCF    FA6.2
038D6:  MOVF   00,W
038D8:  IORWF  FF2,F
....................       delay_ms(10); 
038DA:  MOVLW  0A
038DC:  MOVLB  4
038DE:  MOVWF  x5C
038E0:  MOVLB  0
038E2:  CALL   1AF4
038E6:  MOVLB  3
....................    } 
....................    if(timpresion>30){ 
038E8:  MOVF   x5F,W
038EA:  SUBLW  1E
038EC:  BC    392E
....................       timpresion=2; 
038EE:  MOVLW  02
038F0:  MOVWF  x5F
....................       write_eeprom(41,2); 
038F2:  CLRF   FAA
038F4:  MOVLW  29
038F6:  MOVWF  FA9
038F8:  MOVLW  02
038FA:  MOVWF  FA8
038FC:  BCF    FA6.6
038FE:  BCF    FA6.7
03900:  BSF    FA6.2
03902:  MOVF   FF2,W
03904:  MOVWF  00
03906:  BCF    FF2.6
03908:  BCF    FF2.7
0390A:  MOVLB  F
0390C:  MOVLW  55
0390E:  MOVWF  FA7
03910:  MOVLW  AA
03912:  MOVWF  FA7
03914:  BSF    FA6.1
03916:  BTFSC  FA6.1
03918:  BRA    3916
0391A:  BCF    FA6.2
0391C:  MOVF   00,W
0391E:  IORWF  FF2,F
....................       delay_ms(10); 
03920:  MOVLW  0A
03922:  MOVLB  4
03924:  MOVWF  x5C
03926:  MOVLB  0
03928:  CALL   1AF4
0392C:  MOVLB  3
....................    } 
....................    if(Atmosferica>100 || Atmosferica<50){ 
0392E:  MOVF   xB6,W
03930:  SUBLW  64
03932:  BNC   393A
03934:  MOVF   xB6,W
03936:  SUBLW  31
03938:  BNC   397A
....................       Atmosferica=72; 
0393A:  MOVLW  48
0393C:  MOVWF  xB6
....................       write_eeprom(46,72); 
0393E:  CLRF   FAA
03940:  MOVLW  2E
03942:  MOVWF  FA9
03944:  MOVLW  48
03946:  MOVWF  FA8
03948:  BCF    FA6.6
0394A:  BCF    FA6.7
0394C:  BSF    FA6.2
0394E:  MOVF   FF2,W
03950:  MOVWF  00
03952:  BCF    FF2.6
03954:  BCF    FF2.7
03956:  MOVLB  F
03958:  MOVLW  55
0395A:  MOVWF  FA7
0395C:  MOVLW  AA
0395E:  MOVWF  FA7
03960:  BSF    FA6.1
03962:  BTFSC  FA6.1
03964:  BRA    3962
03966:  BCF    FA6.2
03968:  MOVF   00,W
0396A:  IORWF  FF2,F
....................       delay_ms(10); 
0396C:  MOVLW  0A
0396E:  MOVLB  4
03970:  MOVWF  x5C
03972:  MOVLB  0
03974:  CALL   1AF4
03978:  MOVLB  3
....................    } 
....................    if(sg1==10){ 
0397A:  MOVF   xB9,W
0397C:  SUBLW  0A
0397E:  BNZ   3996
....................       G1=G1*(-1); 
03980:  MOVFF  3B7,449
03984:  MOVLW  FF
03986:  MOVLB  4
03988:  MOVWF  x4A
0398A:  MOVLB  0
0398C:  CALL   2E72
03990:  MOVFF  01,3B7
03994:  MOVLB  3
....................    } 
....................    if(sg2==10){ 
03996:  MOVF   xBA,W
03998:  SUBLW  0A
0399A:  BNZ   39B2
....................       G2=G2*(-1); 
0399C:  MOVFF  3B8,449
039A0:  MOVLW  FF
039A2:  MOVLB  4
039A4:  MOVWF  x4A
039A6:  MOVLB  0
039A8:  CALL   2E72
039AC:  MOVFF  01,3B8
039B0:  MOVLB  3
....................    } 
.................... } 
039B2:  MOVLB  0
039B4:  GOTO   7F48 (RETURN)
....................  
.................... void LeeDisplay(void){ 
....................    if(Dato_Exitoso==5){ 
*
0442E:  MOVLB  3
04430:  MOVF   x62,W
04432:  SUBLW  05
04434:  BTFSS  FD8.2
04436:  BRA    45AC
....................          RX_Buffer[0]=RX_Buffer2[0]; 
04438:  MOVFF  3B,30
....................          RX_Buffer[1]=RX_Buffer2[1]; 
0443C:  MOVFF  3C,31
....................          RX_Buffer[2]=RX_Buffer2[2]; 
04440:  MOVFF  3D,32
....................          RX_Buffer[3]=RX_Buffer2[3]; 
04444:  MOVFF  3E,33
....................          RX_Buffer[4]=RX_Buffer2[4]; 
04448:  MOVFF  3F,34
....................          RX_Buffer[5]=RX_Buffer2[5]; 
0444C:  MOVFF  40,35
....................          RX_Buffer[6]=RX_Buffer2[6]; 
04450:  MOVFF  41,36
....................          RX_Buffer[7]=RX_Buffer2[7]; 
04454:  MOVFF  42,37
....................          RX_Buffer[8]=RX_Buffer2[8]; 
04458:  MOVFF  43,38
....................          RX_Buffer[9]=RX_Buffer2[9]; 
0445C:  MOVFF  44,39
....................           
....................       if(RX_Buffer[3]==0x01){// Pregunta por la pagina en la que esta el display,01 es Contrasea de Acceso 
04460:  DECFSZ 33,W
04462:  BRA    4472
....................          Menu=0; 
04464:  CLRF   x65
....................          if(MenuAntt!=Menu) 
04466:  MOVF   x65,W
04468:  SUBWF  x67,W
0446A:  BZ    4470
....................             MenuAntt=Menu; 
0446C:  MOVFF  365,367
....................       }else if(RX_Buffer[3]==0x02){//02 es Menu Principal con PantallaPriincipal=0, y con PantallaPrincipal=1 es Ciclo Libre 
04470:  BRA    45AA
04472:  MOVF   33,W
04474:  SUBLW  02
04476:  BNZ   4488
....................          Menu=1; 
04478:  MOVLW  01
0447A:  MOVWF  x65
....................          if(MenuAntt!=Menu) 
0447C:  MOVF   x65,W
0447E:  SUBWF  x67,W
04480:  BZ    4486
....................             MenuAntt=Menu; 
04482:  MOVFF  365,367
....................       }else if(RX_Buffer[3]==0x03){//03 es Tiempo Esterilizacion 
04486:  BRA    45AA
04488:  MOVF   33,W
0448A:  SUBLW  03
0448C:  BNZ   449E
....................          Menu=2; 
0448E:  MOVLW  02
04490:  MOVWF  x65
....................          if(MenuAntt!=Menu) 
04492:  MOVF   x65,W
04494:  SUBWF  x67,W
04496:  BZ    449C
....................             MenuAntt=Menu; 
04498:  MOVFF  365,367
....................       }else if(RX_Buffer[3]==0x04){//04 es Tiempo de Secado 
0449C:  BRA    45AA
0449E:  MOVF   33,W
044A0:  SUBLW  04
044A2:  BNZ   44B4
....................          Menu=3; 
044A4:  MOVLW  03
044A6:  MOVWF  x65
....................          if(MenuAntt!=Menu) 
044A8:  MOVF   x65,W
044AA:  SUBWF  x67,W
044AC:  BZ    44B2
....................             MenuAntt=Menu; 
044AE:  MOVFF  365,367
....................       }else if(RX_Buffer[3]==0x05){//05 es Temperatura 
044B2:  BRA    45AA
044B4:  MOVF   33,W
044B6:  SUBLW  05
044B8:  BNZ   44CA
....................          Menu=4; 
044BA:  MOVLW  04
044BC:  MOVWF  x65
....................          if(MenuAntt!=Menu) 
044BE:  MOVF   x65,W
044C0:  SUBWF  x67,W
044C2:  BZ    44C8
....................             MenuAntt=Menu; 
044C4:  MOVFF  365,367
....................       }else if(RX_Buffer[3]==0x06){//06 es Nivel 
044C8:  BRA    45AA
044CA:  MOVF   33,W
044CC:  SUBLW  06
044CE:  BNZ   44E0
....................          Menu=5; 
044D0:  MOVLW  05
044D2:  MOVWF  x65
....................          if(MenuAntt!=Menu) 
044D4:  MOVF   x65,W
044D6:  SUBWF  x67,W
044D8:  BZ    44DE
....................             MenuAntt=Menu; 
044DA:  MOVFF  365,367
....................       }else if(RX_Buffer[3]==0x07){//07 es Test de Componentes 
044DE:  BRA    45AA
044E0:  MOVF   33,W
044E2:  SUBLW  07
044E4:  BNZ   44F6
....................          Menu=6; 
044E6:  MOVLW  06
044E8:  MOVWF  x65
....................          if(MenuAntt!=Menu) 
044EA:  MOVF   x65,W
044EC:  SUBWF  x67,W
044EE:  BZ    44F4
....................             MenuAntt=Menu; 
044F0:  MOVFF  365,367
....................       }else if(RX_Buffer[3]==0x08){//08 es Fecha y hora 
044F4:  BRA    45AA
044F6:  MOVF   33,W
044F8:  SUBLW  08
044FA:  BNZ   450C
....................          Menu=7; 
044FC:  MOVLW  07
044FE:  MOVWF  x65
....................          if(MenuAntt!=Menu) 
04500:  MOVF   x65,W
04502:  SUBWF  x67,W
04504:  BZ    450A
....................             MenuAntt=Menu; 
04506:  MOVFF  365,367
....................       }else if(RX_Buffer[3]==0x09){//09 es Ciclos Personalizados 
0450A:  BRA    45AA
0450C:  MOVF   33,W
0450E:  SUBLW  09
04510:  BNZ   4522
....................          Menu=8; 
04512:  MOVLW  08
04514:  MOVWF  x65
....................          if(MenuAntt!=Menu) 
04516:  MOVF   x65,W
04518:  SUBWF  x67,W
0451A:  BZ    4520
....................             MenuAntt=Menu; 
0451C:  MOVFF  365,367
....................       }else if(RX_Buffer[3]==0x0d){//0d es Ciclos 
04520:  BRA    45AA
04522:  MOVF   33,W
04524:  SUBLW  0D
04526:  BNZ   4538
....................          Menu=12; 
04528:  MOVLW  0C
0452A:  MOVWF  x65
....................          if(MenuAntt!=Menu) 
0452C:  MOVF   x65,W
0452E:  SUBWF  x67,W
04530:  BZ    4536
....................             MenuAntt=Menu; 
04532:  MOVFF  365,367
....................       }else if(RX_Buffer[3]==0x0f){//0f es Recibe caracteres de contrasea desde display 
04536:  BRA    45AA
04538:  MOVF   33,W
0453A:  SUBLW  0F
0453C:  BNZ   4540
....................           
....................       }else if(RX_Buffer[3]==0x1a){//1a es Menu de Funcionamiento 
0453E:  BRA    45AA
04540:  MOVF   33,W
04542:  SUBLW  1A
04544:  BNZ   4556
....................          Menu=20; 
04546:  MOVLW  14
04548:  MOVWF  x65
....................          if(MenuAntt!=Menu) 
0454A:  MOVF   x65,W
0454C:  SUBWF  x67,W
0454E:  BZ    4554
....................             MenuAntt=Menu; 
04550:  MOVFF  365,367
....................       }else if(RX_Buffer[3]==0x1b){//1b es Menu de clave correcta 
04554:  BRA    45AA
04556:  MOVF   33,W
04558:  SUBLW  1B
0455A:  BNZ   456C
....................          Menu=15; 
0455C:  MOVLW  0F
0455E:  MOVWF  x65
....................          if(MenuAntt!=Menu) 
04560:  MOVF   x65,W
04562:  SUBWF  x67,W
04564:  BZ    456A
....................             MenuAntt=Menu; 
04566:  MOVFF  365,367
....................       }else if(RX_Buffer[3]==0x1c){//1c es Menu de clave incorrecta 
0456A:  BRA    45AA
0456C:  MOVF   33,W
0456E:  SUBLW  1C
04570:  BNZ   4582
....................          Menu=16; 
04572:  MOVLW  10
04574:  MOVWF  x65
....................          if(MenuAntt!=Menu) 
04576:  MOVF   x65,W
04578:  SUBWF  x67,W
0457A:  BZ    4580
....................             MenuAntt=Menu; 
0457C:  MOVFF  365,367
....................       }else if(RX_Buffer[3]==0x2c){//2c es Menu de Configuracion de Parametros 
04580:  BRA    45AA
04582:  MOVF   33,W
04584:  SUBLW  2C
04586:  BNZ   4598
....................          Menu=100; 
04588:  MOVLW  64
0458A:  MOVWF  x65
....................          if(MenuAntt!=Menu) 
0458C:  MOVF   x65,W
0458E:  SUBWF  x67,W
04590:  BZ    4596
....................             MenuAntt=Menu; 
04592:  MOVFF  365,367
....................       }else if(RX_Buffer[3]==0xcc){//cc es Menu de Bienvenida 
04596:  BRA    45AA
04598:  MOVF   33,W
0459A:  SUBLW  CC
0459C:  BNZ   45AA
....................          Menu=240; 
0459E:  MOVLW  F0
045A0:  MOVWF  x65
....................          if(MenuAntt!=240) 
045A2:  MOVF   x67,W
045A4:  SUBLW  F0
045A6:  BZ    45AA
....................             reset_cpu(); 
045A8:  RESET
....................       } 
....................    }else{ 
045AA:  BRA    45B8
....................       for(z=0;z<RX_BUFFER_SIZE;z++){ 
045AC:  CLRF   x64
045AE:  MOVF   x64,W
045B0:  SUBLW  09
045B2:  BNC   45B8
....................             //Rx_Buffer[z]=0; 
....................             //Rx_Buffer2[z]=0; 
....................          } 
045B4:  INCF   x64,F
045B6:  BRA    45AE
....................    } 
.................... } 
045B8:  MOVLB  0
045BA:  GOTO   80C2 (RETURN)
....................  
.................... void ConfiguraCiclo(int8 este0,este1,este2,este3,secado0,secado1,secado2,secado3,liquidos,ciclo,temperatura){ 
....................    Testerilizacionp[0]=este0;Testerilizacionp[1]=este1;Testerilizacionp[2]=este2;Testerilizacionp[3]=este3; 
*
05284:  MOVFF  451,BD
05288:  MOVFF  452,BE
0528C:  MOVFF  453,BF
05290:  MOVFF  454,C0
....................    Tsecadop[0]=secado0;Tsecadop[1]=secado1;Tsecadop[2]=secado2;Tsecadop[3]=secado3; 
05294:  MOVFF  455,C6
05298:  MOVFF  456,C7
0529C:  MOVFF  457,C8
052A0:  MOVFF  458,C9
....................    Setpoint=temperatura;                
052A4:  MOVFF  45B,36C
....................    tiempo_secado=0; 
052A8:  MOVLB  3
052AA:  CLRF   x70
....................    desfoguelento=liquidos; 
052AC:  MOVLB  0
052AE:  BCF    xA5.1
052B0:  MOVLB  4
052B2:  BTFSS  x59.0
052B4:  BRA    52BC
052B6:  MOVLB  0
052B8:  BSF    xA5.1
052BA:  MOVLB  4
....................    CicloSeleccionado=ciclo; 
052BC:  MOVFF  45A,36B
....................    Testerilizacion[0]=Testerilizacionp[0];Testerilizacion[1]=Testerilizacionp[1];Testerilizacion[2]=Testerilizacionp[2]; 
052C0:  MOVFF  BD,B8
052C4:  MOVFF  BE,B9
052C8:  MOVFF  BF,BA
....................    Testerilizacion[3]=Testerilizacionp[3];Testerilizacion[4]=Testerilizacionp[4]; 
052CC:  MOVFF  C0,BB
052D0:  MOVFF  C1,BC
....................    Tsecado[0]=Tsecadop[0];Tsecado[1]=Tsecadop[1];Tsecado[2]=Tsecadop[2];Tsecado[3]=Tsecadop[3]; 
052D4:  MOVFF  C6,C2
052D8:  MOVFF  C7,C3
052DC:  MOVFF  C8,C4
052E0:  MOVFF  C9,C5
....................    Imprime=15; 
052E4:  MOVLW  0F
052E6:  MOVLB  3
052E8:  MOVWF  xB5
....................    Envio_Esclavos(); 
052EA:  MOVLB  0
052EC:  CALL   4780
....................    delay_ms(100); 
052F0:  MOVLW  64
052F2:  MOVLB  4
052F4:  MOVWF  x5C
052F6:  MOVLB  0
052F8:  CALL   1AF4
....................    Imprime=10; 
052FC:  MOVLW  0A
052FE:  MOVLB  3
05300:  MOVWF  xB5
.................... } 
05302:  MOVLB  0
05304:  RETLW  00
....................  
.................... void ActivaAlarma(int8 Tipo){ 
....................     
....................    if(tsilencio>12000){ 
*
04842:  MOVLB  3
04844:  MOVF   x9F,W
04846:  SUBLW  2D
04848:  BC    485C
0484A:  XORLW  FF
0484C:  BNZ   4854
0484E:  MOVF   x9E,W
04850:  SUBLW  E0
04852:  BC    485C
....................       tsilencio=0; 
04854:  CLRF   x9F
04856:  CLRF   x9E
....................       flagSilencio=OFF; 
04858:  MOVLB  0
0485A:  BCF    xA3.6
....................    } 
....................     
....................    if(Tipo==1){ // Alarma por Error 
0485C:  MOVLB  4
0485E:  DECFSZ x47,W
04860:  BRA    48B6
....................    if(UP || DOWN || RIGHT || LEFT) 
04862:  BSF    F93.3
04864:  BTFSS  F81.3
04866:  BRA    487A
04868:  BSF    F93.2
0486A:  BTFSS  F81.2
0486C:  BRA    487A
0486E:  BSF    F93.1
04870:  BTFSS  F81.1
04872:  BRA    487A
04874:  BSF    F93.0
04876:  BTFSC  F81.0
04878:  BRA    487E
....................       flagSilencio=ON; 
0487A:  MOVLB  0
0487C:  BSF    xA3.6
....................        
....................       if(!flagSilencio){ 
0487E:  MOVLB  0
04880:  BTFSC  xA3.6
04882:  BRA    48AC
....................          flagAlarma=1; 
04884:  BSF    xA3.1
....................          if(tbuzzer>200){ 
04886:  MOVLB  3
04888:  MOVF   x9D,F
0488A:  BNZ   4892
0488C:  MOVF   x9C,W
0488E:  SUBLW  C8
04890:  BC    48A8
....................             tbuzzer=0; 
04892:  CLRF   x9D
04894:  CLRF   x9C
....................             if(flagBuzzer) 
04896:  MOVLB  0
04898:  BTFSS  xA3.5
0489A:  BRA    48A2
....................                Buzzer_on; 
0489C:  BSF    F8C.7
0489E:  BCF    F95.7
....................             else 
048A0:  BRA    48A6
....................                Buzzer_off; 
048A2:  BCF    F8C.7
048A4:  BCF    F95.7
048A6:  MOVLB  3
....................          } 
....................       }else{ 
048A8:  BRA    48B2
048AA:  MOVLB  0
....................          Buzzer_off; 
048AC:  BCF    F8C.7
048AE:  BCF    F95.7
048B0:  MOVLB  3
....................       } 
....................    }else if(Tipo==2){ 
048B2:  BRA    4970
048B4:  MOVLB  4
048B6:  MOVF   x47,W
048B8:  SUBLW  02
048BA:  BNZ   4914
....................    if(UP || DOWN || RIGHT || LEFT) 
048BC:  BSF    F93.3
048BE:  BTFSS  F81.3
048C0:  BRA    48D4
048C2:  BSF    F93.2
048C4:  BTFSS  F81.2
048C6:  BRA    48D4
048C8:  BSF    F93.1
048CA:  BTFSS  F81.1
048CC:  BRA    48D4
048CE:  BSF    F93.0
048D0:  BTFSC  F81.0
048D2:  BRA    48DA
....................       ConteoBuzzer=21; 
048D4:  MOVLW  15
048D6:  MOVLB  3
048D8:  MOVWF  x99
....................        
....................       flagAlarma=1; 
048DA:  MOVLB  0
048DC:  BSF    xA3.1
....................       if(ConteoBuzzer<20){    
048DE:  MOVLB  3
048E0:  MOVF   x99,W
048E2:  SUBLW  13
048E4:  BNC   490C
....................          if(tbuzzer>100){ 
048E6:  MOVF   x9D,F
048E8:  BNZ   48F0
048EA:  MOVF   x9C,W
048EC:  SUBLW  64
048EE:  BC    490A
....................             tbuzzer=0; 
048F0:  CLRF   x9D
048F2:  CLRF   x9C
....................             flagBuzzer=!flagBuzzer; 
048F4:  MOVLB  0
048F6:  BTG    xA3.5
....................             if(flagBuzzer) 
048F8:  BTFSS  xA3.5
048FA:  BRA    4902
....................                Buzzer_on; 
048FC:  BSF    F8C.7
048FE:  BCF    F95.7
....................             else 
04900:  BRA    4906
....................                Buzzer_off; 
04902:  BCF    F8C.7
04904:  BCF    F95.7
....................                 
....................             ConteoBuzzer++;    
04906:  MOVLB  3
04908:  INCF   x99,F
....................          } 
....................       }else{ 
0490A:  BRA    4910
....................          Buzzer_off; 
0490C:  BCF    F8C.7
0490E:  BCF    F95.7
....................       } 
....................    }else if(Tipo==3){ 
04910:  BRA    4970
04912:  MOVLB  4
04914:  MOVF   x47,W
04916:  SUBLW  03
04918:  BNZ   4972
....................       flagAlarma=1; 
0491A:  MOVLB  0
0491C:  BSF    xA3.1
....................       if(tbuzzer<400){    
0491E:  MOVLB  3
04920:  MOVF   x9D,W
04922:  SUBLW  01
04924:  BNC   4934
04926:  BNZ   492E
04928:  MOVF   x9C,W
0492A:  SUBLW  8F
0492C:  BNC   4934
....................          Buzzer_on; 
0492E:  BSF    F8C.7
04930:  BCF    F95.7
....................       }else if(tbuzzer>400 && tbuzzer<2000){ 
04932:  BRA    4970
04934:  MOVF   x9D,W
04936:  SUBLW  00
04938:  BC    4958
0493A:  XORLW  FF
0493C:  BNZ   4944
0493E:  MOVF   x9C,W
04940:  SUBLW  90
04942:  BC    4958
04944:  MOVF   x9D,W
04946:  SUBLW  07
04948:  BNC   4958
0494A:  BNZ   4952
0494C:  MOVF   x9C,W
0494E:  SUBLW  CF
04950:  BNC   4958
....................          Buzzer_off; 
04952:  BCF    F8C.7
04954:  BCF    F95.7
....................       }else if(tbuzzer>2000){ 
04956:  BRA    4970
04958:  MOVF   x9D,W
0495A:  SUBLW  06
0495C:  BC    4970
0495E:  XORLW  FF
04960:  BNZ   4968
04962:  MOVF   x9C,W
04964:  SUBLW  D0
04966:  BC    4970
....................          Buzzer_off; 
04968:  BCF    F8C.7
0496A:  BCF    F95.7
....................          tbuzzer=0; 
0496C:  CLRF   x9D
0496E:  CLRF   x9C
04970:  MOVLB  4
....................       } 
....................    } 
.................... } 
04972:  MOVLB  0
04974:  RETLW  00
....................  
....................  
.................... void CalientaChaqueta(){ 
....................    /*if(PresionPrecamara<130){ 
....................       SSR_on; 
....................    }else if(PresionPreCamara>150){ 
....................       SSR_off; 
....................    } 
....................    */                                  
....................    Tp=50; 
....................    Tc=(Tciclo/0.005); 
....................    Controlando=1;  
.................... } 
....................  
.................... void ApagaSalidas(){ 
....................    Desfogue_off; 
*
03A20:  BSF    F8B.1
03A22:  BCF    F94.1
....................    #ifdef Generador 
....................    Paso_off; 
03A24:  BSF    F8B.0
03A26:  BCF    F94.0
....................    #else 
....................    Bomba_off; 
....................    #endif 
....................    Buzzer_off; 
03A28:  BCF    F8C.7
03A2A:  BCF    F95.7
....................    SSR_off; 
03A2C:  BCF    F8D.1
03A2E:  BCF    F96.1
....................    SSR2_off; 
03A30:  BCF    F8D.2
03A32:  BCF    F96.2
....................    Aire=OFF; 
03A34:  BCF    xA4.4
....................    Agua_off; 
03A36:  BSF    F8B.2
03A38:  BCF    F94.2
....................    Controlando=0; 
03A3A:  MOVLB  3
03A3C:  CLRF   x5D
.................... } 
03A3E:  MOVLB  0
03A40:  RETLW  00
....................  
.................... int8 extraeDecima(int8 tiempo){ 
*
05522:  MOVLB  4
05524:  CLRF   x4F
05526:  CLRF   x50
....................    int8 tmp=0,decima=0; 
....................    tmp=tiempo/10; 
05528:  MOVFF  44E,451
0552C:  MOVLW  0A
0552E:  MOVWF  x52
05530:  MOVLB  0
05532:  CALL   49D4
05536:  MOVFF  01,44F
....................    tmp=tmp*10; 
0553A:  MOVLB  4
0553C:  MOVF   x4F,W
0553E:  MULLW  0A
05540:  MOVFF  FF3,44F
....................    decima=tiempo-tmp; 
05544:  MOVF   x4F,W
05546:  SUBWF  x4E,W
05548:  MOVWF  x50
....................    return decima; 
0554A:  MOVFF  450,01
.................... } 
0554E:  MOVLB  0
05550:  RETLW  00
....................  
.................... int8 extraeDecimal(float data){ 
*
06996:  MOVLB  4
06998:  CLRF   x54
0699A:  CLRF   x53
0699C:  CLRF   x52
0699E:  CLRF   x51
069A0:  CLRF   x58
069A2:  CLRF   x57
069A4:  CLRF   x56
069A6:  CLRF   x55
....................    float entero=0; 
....................    float tmp=0.0; 
....................     
....................    entero=(int8)data; 
069A8:  MOVFF  450,45F
069AC:  MOVFF  44F,45E
069B0:  MOVFF  44E,45D
069B4:  MOVFF  44D,45C
069B8:  MOVLB  0
069BA:  CALL   41F4
069BE:  MOVLB  4
069C0:  CLRF   x5D
069C2:  MOVFF  01,45C
069C6:  MOVLB  0
069C8:  CALL   1B1C
069CC:  MOVFF  03,454
069D0:  MOVFF  02,453
069D4:  MOVFF  01,452
069D8:  MOVFF  00,451
....................    tmp=(data-entero)*10; 
069DC:  BSF    FD8.1
069DE:  MOVFF  450,45F
069E2:  MOVFF  44F,45E
069E6:  MOVFF  44E,45D
069EA:  MOVFF  44D,45C
069EE:  MOVFF  454,463
069F2:  MOVFF  453,462
069F6:  MOVFF  452,461
069FA:  MOVFF  451,460
069FE:  CALL   1CB0
06A02:  MOVFF  00,459
06A06:  MOVFF  01,45A
06A0A:  MOVFF  02,45B
06A0E:  MOVFF  03,45C
06A12:  MOVFF  03,463
06A16:  MOVFF  02,462
06A1A:  MOVFF  01,461
06A1E:  MOVFF  00,460
06A22:  MOVLB  4
06A24:  CLRF   x67
06A26:  CLRF   x66
06A28:  MOVLW  20
06A2A:  MOVWF  x65
06A2C:  MOVLW  82
06A2E:  MOVWF  x64
06A30:  MOVLB  0
06A32:  CALL   3ABC
06A36:  MOVFF  03,458
06A3A:  MOVFF  02,457
06A3E:  MOVFF  01,456
06A42:  MOVFF  00,455
....................    return (int8)tmp; 
06A46:  MOVFF  458,45F
06A4A:  MOVFF  457,45E
06A4E:  MOVFF  456,45D
06A52:  MOVFF  455,45C
06A56:  CALL   41F4
06A5A:  MOVF   01,W
.................... } 
06A5C:  GOTO   6B6E (RETURN)
....................  
.................... void actualizaTabla(){ 
....................    diaCiclos=read_ext_eeprom(2+(cicloVisto*320)); 
*
056B4:  MOVLB  4
056B6:  CLRF   x51
056B8:  MOVFF  2E9,450
056BC:  MOVLW  01
056BE:  MOVWF  x53
056C0:  MOVLW  40
056C2:  MOVWF  x52
056C4:  MOVLB  0
056C6:  CALL   3A9A
056CA:  MOVFF  02,03
056CE:  MOVF   01,W
056D0:  ADDLW  02
056D2:  MOVLB  4
056D4:  MOVWF  x47
056D6:  MOVLW  00
056D8:  ADDWFC 02,W
056DA:  MOVWF  x48
056DC:  MOVWF  x4D
056DE:  MOVFF  447,44C
056E2:  MOVLB  0
056E4:  RCALL  55BE
056E6:  MOVFF  01,3CD
....................          if(diaCiclos>31) 
056EA:  MOVLB  3
056EC:  MOVF   xCD,W
056EE:  SUBLW  1F
056F0:  BC    56F6
....................             diaCiclos=1; 
056F2:  MOVLW  01
056F4:  MOVWF  xCD
....................          mesCiclos=read_ext_eeprom(3+(cicloVisto*320)); 
056F6:  MOVLB  4
056F8:  CLRF   x51
056FA:  MOVFF  2E9,450
056FE:  MOVLW  01
05700:  MOVWF  x53
05702:  MOVLW  40
05704:  MOVWF  x52
05706:  MOVLB  0
05708:  CALL   3A9A
0570C:  MOVFF  02,03
05710:  MOVF   01,W
05712:  ADDLW  03
05714:  MOVLB  4
05716:  MOVWF  x47
05718:  MOVLW  00
0571A:  ADDWFC 02,W
0571C:  MOVWF  x48
0571E:  MOVWF  x4D
05720:  MOVFF  447,44C
05724:  MOVLB  0
05726:  RCALL  55BE
05728:  MOVFF  01,3CE
....................          if(mesCiclos>12) 
0572C:  MOVLB  3
0572E:  MOVF   xCE,W
05730:  SUBLW  0C
05732:  BC    5738
....................             mesCiclos=1; 
05734:  MOVLW  01
05736:  MOVWF  xCE
....................          yearCiclos=read_ext_eeprom(4+(cicloVisto*320)); 
05738:  MOVLB  4
0573A:  CLRF   x51
0573C:  MOVFF  2E9,450
05740:  MOVLW  01
05742:  MOVWF  x53
05744:  MOVLW  40
05746:  MOVWF  x52
05748:  MOVLB  0
0574A:  CALL   3A9A
0574E:  MOVFF  02,03
05752:  MOVF   01,W
05754:  ADDLW  04
05756:  MOVLB  4
05758:  MOVWF  x47
0575A:  MOVLW  00
0575C:  ADDWFC 02,W
0575E:  MOVWF  x48
05760:  MOVWF  x4D
05762:  MOVFF  447,44C
05766:  MOVLB  0
05768:  RCALL  55BE
0576A:  MOVFF  01,3CF
....................          if(yearCiclos>99) 
0576E:  MOVLB  3
05770:  MOVF   xCF,W
05772:  SUBLW  63
05774:  BC    577A
....................             yearCiclos=19; 
05776:  MOVLW  13
05778:  MOVWF  xCF
....................          cicloCiclos=read_ext_eeprom(1+(cicloVisto*320)); 
0577A:  MOVLB  4
0577C:  CLRF   x51
0577E:  MOVFF  2E9,450
05782:  MOVLW  01
05784:  MOVWF  x53
05786:  MOVLW  40
05788:  MOVWF  x52
0578A:  MOVLB  0
0578C:  CALL   3A9A
05790:  MOVFF  02,03
05794:  MOVF   01,W
05796:  ADDLW  01
05798:  MOVLB  4
0579A:  MOVWF  x47
0579C:  MOVLW  00
0579E:  ADDWFC 02,W
057A0:  MOVWF  x48
057A2:  MOVWF  x4D
057A4:  MOVFF  447,44C
057A8:  MOVLB  0
057AA:  RCALL  55BE
057AC:  MOVFF  01,3D1
....................          if(cicloCiclos>20) 
057B0:  MOVLB  3
057B2:  MOVF   xD1,W
057B4:  SUBLW  14
057B6:  BC    57BC
....................             cicloCiclos=1; 
057B8:  MOVLW  01
057BA:  MOVWF  xD1
....................          usuarioCiclos=read_ext_eeprom((cicloVisto*320)); 
057BC:  MOVLB  4
057BE:  CLRF   x51
057C0:  MOVFF  2E9,450
057C4:  MOVLW  01
057C6:  MOVWF  x53
057C8:  MOVLW  40
057CA:  MOVWF  x52
057CC:  MOVLB  0
057CE:  CALL   3A9A
057D2:  MOVFF  02,448
057D6:  MOVFF  01,447
057DA:  MOVFF  02,44D
057DE:  MOVFF  01,44C
057E2:  RCALL  55BE
057E4:  MOVFF  01,3D0
....................          if(usuarioCiclos>10) 
057E8:  MOVLB  3
057EA:  MOVF   xD0,W
057EC:  SUBLW  0A
057EE:  BC    57F4
....................             usuarioCiclos=1; 
057F0:  MOVLW  01
057F2:  MOVWF  xD0
....................          for(i=0;i<7;i++){//Lee Valores para completar la Tabla 
057F4:  CLRF   x68
057F6:  MOVF   x68,W
057F8:  SUBLW  06
057FA:  BTFSS  FD8.0
057FC:  BRA    5D44
....................             horaCiclos[i]=read_ext_eeprom((cicloVisto*320)+11+((cicloVisualizado+i)*9)); 
057FE:  CLRF   03
05800:  MOVF   x68,W
05802:  ADDLW  0A
05804:  MOVWF  01
05806:  MOVLW  04
05808:  ADDWFC 03,F
0580A:  MOVFF  01,447
0580E:  MOVLB  4
05810:  MOVFF  03,448
05814:  CLRF   x51
05816:  MOVFF  2E9,450
0581A:  MOVLW  01
0581C:  MOVWF  x53
0581E:  MOVLW  40
05820:  MOVWF  x52
05822:  MOVLB  0
05824:  CALL   3A9A
05828:  MOVFF  02,44A
0582C:  MOVFF  01,449
05830:  MOVLW  0B
05832:  MOVLB  4
05834:  ADDWF  x49,F
05836:  MOVLW  00
05838:  ADDWFC x4A,F
0583A:  MOVLB  3
0583C:  MOVF   x68,W
0583E:  MOVLB  2
05840:  ADDWF  xEA,W
05842:  MULLW  09
05844:  MOVF   FF3,W
05846:  MOVLB  4
05848:  ADDWF  x49,F
0584A:  MOVLW  00
0584C:  ADDWFC x4A,F
0584E:  MOVFF  44A,44D
05852:  MOVFF  449,44C
05856:  MOVLB  0
05858:  RCALL  55BE
0585A:  MOVFF  448,FEA
0585E:  MOVFF  447,FE9
05862:  MOVFF  01,FEF
....................             if(horaCiclos[i]>24) 
05866:  CLRF   03
05868:  MOVLB  3
0586A:  MOVF   x68,W
0586C:  ADDLW  0A
0586E:  MOVWF  FE9
05870:  MOVLW  04
05872:  ADDWFC 03,W
05874:  MOVWF  FEA
05876:  MOVF   FEF,W
05878:  SUBLW  18
0587A:  BC    588C
....................                horaCiclos[i]=0; 
0587C:  CLRF   03
0587E:  MOVF   x68,W
05880:  ADDLW  0A
05882:  MOVWF  FE9
05884:  MOVLW  04
05886:  ADDWFC 03,W
05888:  MOVWF  FEA
0588A:  CLRF   FEF
....................             minutoCiclos[i]=read_ext_eeprom((cicloVisto*320)+12+((cicloVisualizado+i)*9)); 
0588C:  CLRF   03
0588E:  MOVF   x68,W
05890:  ADDLW  11
05892:  MOVWF  01
05894:  MOVLW  04
05896:  ADDWFC 03,F
05898:  MOVFF  01,447
0589C:  MOVLB  4
0589E:  MOVFF  03,448
058A2:  CLRF   x51
058A4:  MOVFF  2E9,450
058A8:  MOVLW  01
058AA:  MOVWF  x53
058AC:  MOVLW  40
058AE:  MOVWF  x52
058B0:  MOVLB  0
058B2:  CALL   3A9A
058B6:  MOVFF  02,44A
058BA:  MOVFF  01,449
058BE:  MOVLW  0C
058C0:  MOVLB  4
058C2:  ADDWF  x49,F
058C4:  MOVLW  00
058C6:  ADDWFC x4A,F
058C8:  MOVLB  3
058CA:  MOVF   x68,W
058CC:  MOVLB  2
058CE:  ADDWF  xEA,W
058D0:  MULLW  09
058D2:  MOVF   FF3,W
058D4:  MOVLB  4
058D6:  ADDWF  x49,F
058D8:  MOVLW  00
058DA:  ADDWFC x4A,F
058DC:  MOVFF  44A,44D
058E0:  MOVFF  449,44C
058E4:  MOVLB  0
058E6:  RCALL  55BE
058E8:  MOVFF  448,FEA
058EC:  MOVFF  447,FE9
058F0:  MOVFF  01,FEF
....................             if(minutoCiclos[i]>59) 
058F4:  CLRF   03
058F6:  MOVLB  3
058F8:  MOVF   x68,W
058FA:  ADDLW  11
058FC:  MOVWF  FE9
058FE:  MOVLW  04
05900:  ADDWFC 03,W
05902:  MOVWF  FEA
05904:  MOVF   FEF,W
05906:  SUBLW  3B
05908:  BC    591A
....................                minutoCiclos[i]=0; 
0590A:  CLRF   03
0590C:  MOVF   x68,W
0590E:  ADDLW  11
05910:  MOVWF  FE9
05912:  MOVLW  04
05914:  ADDWFC 03,W
05916:  MOVWF  FEA
05918:  CLRF   FEF
....................             TCiclos[i]=read_ext_eeprom((cicloVisto*320)+5+((cicloVisualizado+i)*9))+inttofloat(read_ext_eeprom((cicloVisto*320)+6+((cicloVisualizado+i)*9))); 
0591A:  MOVF   x68,W
0591C:  MULLW  04
0591E:  MOVF   FF3,W
05920:  CLRF   03
05922:  ADDLW  D2
05924:  MOVWF  01
05926:  MOVLW  03
05928:  ADDWFC 03,F
0592A:  MOVFF  01,447
0592E:  MOVLB  4
05930:  MOVFF  03,448
05934:  CLRF   x51
05936:  MOVFF  2E9,450
0593A:  MOVLW  01
0593C:  MOVWF  x53
0593E:  MOVLW  40
05940:  MOVWF  x52
05942:  MOVLB  0
05944:  CALL   3A9A
05948:  MOVFF  02,44A
0594C:  MOVFF  01,449
05950:  MOVLW  05
05952:  MOVLB  4
05954:  ADDWF  x49,F
05956:  MOVLW  00
05958:  ADDWFC x4A,F
0595A:  MOVLB  3
0595C:  MOVF   x68,W
0595E:  MOVLB  2
05960:  ADDWF  xEA,W
05962:  MULLW  09
05964:  MOVF   FF3,W
05966:  MOVLB  4
05968:  ADDWF  x49,F
0596A:  MOVLW  00
0596C:  ADDWFC x4A,F
0596E:  MOVFF  44A,44D
05972:  MOVFF  449,44C
05976:  MOVLB  0
05978:  RCALL  55BE
0597A:  MOVFF  01,449
0597E:  MOVLB  4
05980:  CLRF   x51
05982:  MOVFF  2E9,450
05986:  MOVLW  01
05988:  MOVWF  x53
0598A:  MOVLW  40
0598C:  MOVWF  x52
0598E:  MOVLB  0
05990:  CALL   3A9A
05994:  MOVFF  02,44B
05998:  MOVFF  01,44A
0599C:  MOVLW  06
0599E:  MOVLB  4
059A0:  ADDWF  x4A,F
059A2:  MOVLW  00
059A4:  ADDWFC x4B,F
059A6:  MOVLB  3
059A8:  MOVF   x68,W
059AA:  MOVLB  2
059AC:  ADDWF  xEA,W
059AE:  MULLW  09
059B0:  MOVF   FF3,W
059B2:  MOVLB  4
059B4:  ADDWF  x4A,F
059B6:  MOVLW  00
059B8:  ADDWFC x4B,F
059BA:  MOVFF  44B,44D
059BE:  MOVFF  44A,44C
059C2:  MOVLB  0
059C4:  RCALL  55BE
059C6:  MOVFF  01,44A
059CA:  MOVFF  01,44B
059CE:  BRA    566E
059D0:  MOVFF  00,44A
059D4:  MOVFF  01,44B
059D8:  MOVFF  02,44C
059DC:  MOVFF  03,44D
059E0:  MOVLB  4
059E2:  CLRF   x5D
059E4:  MOVFF  449,45C
059E8:  MOVLB  0
059EA:  CALL   1B1C
059EE:  MOVFF  FEA,44F
059F2:  MOVFF  FE9,44E
059F6:  BCF    FD8.1
059F8:  MOVFF  03,45F
059FC:  MOVFF  02,45E
05A00:  MOVFF  01,45D
05A04:  MOVFF  00,45C
05A08:  MOVFF  44D,463
05A0C:  MOVFF  44C,462
05A10:  MOVFF  44B,461
05A14:  MOVFF  44A,460
05A18:  CALL   1CB0
05A1C:  MOVFF  44F,FEA
05A20:  MOVFF  44E,FE9
05A24:  MOVFF  448,FEA
05A28:  MOVFF  447,FE9
05A2C:  MOVFF  00,FEF
05A30:  MOVFF  01,FEC
05A34:  MOVFF  02,FEC
05A38:  MOVFF  03,FEC
....................             if(TCiclos[i]>150) 
05A3C:  MOVLB  3
05A3E:  MOVF   x68,W
05A40:  MULLW  04
05A42:  MOVF   FF3,W
05A44:  CLRF   03
05A46:  ADDLW  D2
05A48:  MOVWF  FE9
05A4A:  MOVLW  03
05A4C:  ADDWFC 03,W
05A4E:  MOVWF  FEA
05A50:  MOVFF  FEF,447
05A54:  MOVFF  FEC,448
05A58:  MOVFF  FEC,449
05A5C:  MOVFF  FEC,44A
05A60:  MOVLB  4
05A62:  CLRF   x4E
05A64:  CLRF   x4D
05A66:  MOVLW  16
05A68:  MOVWF  x4C
05A6A:  MOVLW  86
05A6C:  MOVWF  x4B
05A6E:  MOVFF  44A,452
05A72:  MOVFF  449,451
05A76:  MOVFF  448,450
05A7A:  MOVFF  447,44F
05A7E:  MOVLB  0
05A80:  CALL   2DF8
05A84:  BNC   5AA4
....................                TCiclos[i]=0; 
05A86:  MOVLB  3
05A88:  MOVF   x68,W
05A8A:  MULLW  04
05A8C:  MOVF   FF3,W
05A8E:  CLRF   03
05A90:  ADDLW  D2
05A92:  MOVWF  FE9
05A94:  MOVLW  03
05A96:  ADDWFC 03,W
05A98:  MOVWF  FEA
05A9A:  CLRF   FEF
05A9C:  CLRF   FEC
05A9E:  CLRF   FEC
05AA0:  CLRF   FEC
05AA2:  MOVLB  0
....................             PcCiclos[i]=make16(read_ext_eeprom((cicloVisto*320)+7+((cicloVisualizado+i)*9)),read_ext_eeprom((cicloVisto*320)+8+((cicloVisualizado+i)*9))); 
05AA4:  BCF    FD8.0
05AA6:  MOVLB  3
05AA8:  RLCF   x68,W
05AAA:  CLRF   03
05AAC:  ADDLW  EE
05AAE:  MOVWF  01
05AB0:  MOVLW  03
05AB2:  ADDWFC 03,F
05AB4:  MOVFF  01,447
05AB8:  MOVLB  4
05ABA:  MOVFF  03,448
05ABE:  CLRF   x51
05AC0:  MOVFF  2E9,450
05AC4:  MOVLW  01
05AC6:  MOVWF  x53
05AC8:  MOVLW  40
05ACA:  MOVWF  x52
05ACC:  MOVLB  0
05ACE:  CALL   3A9A
05AD2:  MOVFF  02,44A
05AD6:  MOVFF  01,449
05ADA:  MOVLW  07
05ADC:  MOVLB  4
05ADE:  ADDWF  x49,F
05AE0:  MOVLW  00
05AE2:  ADDWFC x4A,F
05AE4:  MOVLB  3
05AE6:  MOVF   x68,W
05AE8:  MOVLB  2
05AEA:  ADDWF  xEA,W
05AEC:  MULLW  09
05AEE:  MOVF   FF3,W
05AF0:  MOVLB  4
05AF2:  ADDWF  x49,F
05AF4:  MOVLW  00
05AF6:  ADDWFC x4A,F
05AF8:  MOVFF  44A,44D
05AFC:  MOVFF  449,44C
05B00:  MOVLB  0
05B02:  RCALL  55BE
05B04:  MOVFF  01,449
05B08:  MOVLB  4
05B0A:  CLRF   x51
05B0C:  MOVFF  2E9,450
05B10:  MOVLW  01
05B12:  MOVWF  x53
05B14:  MOVLW  40
05B16:  MOVWF  x52
05B18:  MOVLB  0
05B1A:  CALL   3A9A
05B1E:  MOVFF  02,44B
05B22:  MOVFF  01,44A
05B26:  MOVLW  08
05B28:  MOVLB  4
05B2A:  ADDWF  x4A,F
05B2C:  MOVLW  00
05B2E:  ADDWFC x4B,F
05B30:  MOVLB  3
05B32:  MOVF   x68,W
05B34:  MOVLB  2
05B36:  ADDWF  xEA,W
05B38:  MULLW  09
05B3A:  MOVF   FF3,W
05B3C:  MOVLB  4
05B3E:  ADDWF  x4A,F
05B40:  MOVLW  00
05B42:  ADDWFC x4B,F
05B44:  MOVFF  44B,44D
05B48:  MOVFF  44A,44C
05B4C:  MOVLB  0
05B4E:  RCALL  55BE
05B50:  MOVFF  448,FEA
05B54:  MOVFF  447,FE9
05B58:  MOVFF  449,FEC
05B5C:  MOVF   FED,F
05B5E:  MOVFF  01,FEF
....................             if(PcCiclos[i]>400) 
05B62:  BCF    FD8.0
05B64:  MOVLB  3
05B66:  RLCF   x68,W
05B68:  CLRF   03
05B6A:  ADDLW  EE
05B6C:  MOVWF  FE9
05B6E:  MOVLW  03
05B70:  ADDWFC 03,W
05B72:  MOVWF  FEA
05B74:  MOVFF  FEC,448
05B78:  MOVF   FED,F
05B7A:  MOVFF  FEF,447
05B7E:  MOVLB  4
05B80:  MOVF   x48,W
05B82:  SUBLW  00
05B84:  BC    5BAA
05B86:  XORLW  FF
05B88:  BNZ   5B90
05B8A:  MOVF   x47,W
05B8C:  SUBLW  90
05B8E:  BC    5BAA
....................                PcCiclos[i]=0; 
05B90:  BCF    FD8.0
05B92:  MOVLB  3
05B94:  RLCF   x68,W
05B96:  CLRF   03
05B98:  ADDLW  EE
05B9A:  MOVWF  FE9
05B9C:  MOVLW  03
05B9E:  ADDWFC 03,W
05BA0:  MOVWF  FEA
05BA2:  CLRF   FEC
05BA4:  MOVF   FED,F
05BA6:  CLRF   FEF
05BA8:  MOVLB  4
....................             PpcCiclos[i]=make16(read_ext_eeprom((cicloVisto*320)+9+((cicloVisualizado+i)*9)),read_ext_eeprom((cicloVisto*320)+10+((cicloVisualizado+i)*9))); 
05BAA:  BCF    FD8.0
05BAC:  MOVLB  3
05BAE:  RLCF   x68,W
05BB0:  CLRF   03
05BB2:  ADDLW  FC
05BB4:  MOVWF  01
05BB6:  MOVLW  03
05BB8:  ADDWFC 03,F
05BBA:  MOVFF  01,447
05BBE:  MOVLB  4
05BC0:  MOVFF  03,448
05BC4:  CLRF   x51
05BC6:  MOVFF  2E9,450
05BCA:  MOVLW  01
05BCC:  MOVWF  x53
05BCE:  MOVLW  40
05BD0:  MOVWF  x52
05BD2:  MOVLB  0
05BD4:  CALL   3A9A
05BD8:  MOVFF  02,44A
05BDC:  MOVFF  01,449
05BE0:  MOVLW  09
05BE2:  MOVLB  4
05BE4:  ADDWF  x49,F
05BE6:  MOVLW  00
05BE8:  ADDWFC x4A,F
05BEA:  MOVLB  3
05BEC:  MOVF   x68,W
05BEE:  MOVLB  2
05BF0:  ADDWF  xEA,W
05BF2:  MULLW  09
05BF4:  MOVF   FF3,W
05BF6:  MOVLB  4
05BF8:  ADDWF  x49,F
05BFA:  MOVLW  00
05BFC:  ADDWFC x4A,F
05BFE:  MOVFF  44A,44D
05C02:  MOVFF  449,44C
05C06:  MOVLB  0
05C08:  RCALL  55BE
05C0A:  MOVFF  01,449
05C0E:  MOVLB  4
05C10:  CLRF   x51
05C12:  MOVFF  2E9,450
05C16:  MOVLW  01
05C18:  MOVWF  x53
05C1A:  MOVLW  40
05C1C:  MOVWF  x52
05C1E:  MOVLB  0
05C20:  CALL   3A9A
05C24:  MOVFF  02,44B
05C28:  MOVFF  01,44A
05C2C:  MOVLW  0A
05C2E:  MOVLB  4
05C30:  ADDWF  x4A,F
05C32:  MOVLW  00
05C34:  ADDWFC x4B,F
05C36:  MOVLB  3
05C38:  MOVF   x68,W
05C3A:  MOVLB  2
05C3C:  ADDWF  xEA,W
05C3E:  MULLW  09
05C40:  MOVF   FF3,W
05C42:  MOVLB  4
05C44:  ADDWF  x4A,F
05C46:  MOVLW  00
05C48:  ADDWFC x4B,F
05C4A:  MOVFF  44B,44D
05C4E:  MOVFF  44A,44C
05C52:  MOVLB  0
05C54:  RCALL  55BE
05C56:  MOVFF  448,FEA
05C5A:  MOVFF  447,FE9
05C5E:  MOVFF  449,FEC
05C62:  MOVF   FED,F
05C64:  MOVFF  01,FEF
....................             if(PpcCiclos[i]>400) 
05C68:  BCF    FD8.0
05C6A:  MOVLB  3
05C6C:  RLCF   x68,W
05C6E:  CLRF   03
05C70:  ADDLW  FC
05C72:  MOVWF  FE9
05C74:  MOVLW  03
05C76:  ADDWFC 03,W
05C78:  MOVWF  FEA
05C7A:  MOVFF  FEC,448
05C7E:  MOVF   FED,F
05C80:  MOVFF  FEF,447
05C84:  MOVLB  4
05C86:  MOVF   x48,W
05C88:  SUBLW  00
05C8A:  BC    5CB0
05C8C:  XORLW  FF
05C8E:  BNZ   5C96
05C90:  MOVF   x47,W
05C92:  SUBLW  90
05C94:  BC    5CB0
....................                PpcCiclos[i]=0; 
05C96:  BCF    FD8.0
05C98:  MOVLB  3
05C9A:  RLCF   x68,W
05C9C:  CLRF   03
05C9E:  ADDLW  FC
05CA0:  MOVWF  FE9
05CA2:  MOVLW  03
05CA4:  ADDWFC 03,W
05CA6:  MOVWF  FEA
05CA8:  CLRF   FEC
05CAA:  MOVF   FED,F
05CAC:  CLRF   FEF
05CAE:  MOVLB  4
....................             ACiclos[i]=read_ext_eeprom((cicloVisto*320)+13+((cicloVisualizado+i)*9)); 
05CB0:  CLRF   03
05CB2:  MOVLB  3
05CB4:  MOVF   x68,W
05CB6:  ADDLW  18
05CB8:  MOVWF  01
05CBA:  MOVLW  04
05CBC:  ADDWFC 03,F
05CBE:  MOVFF  01,447
05CC2:  MOVLB  4
05CC4:  MOVFF  03,448
05CC8:  CLRF   x51
05CCA:  MOVFF  2E9,450
05CCE:  MOVLW  01
05CD0:  MOVWF  x53
05CD2:  MOVLW  40
05CD4:  MOVWF  x52
05CD6:  MOVLB  0
05CD8:  CALL   3A9A
05CDC:  MOVFF  02,44A
05CE0:  MOVFF  01,449
05CE4:  MOVLW  0D
05CE6:  MOVLB  4
05CE8:  ADDWF  x49,F
05CEA:  MOVLW  00
05CEC:  ADDWFC x4A,F
05CEE:  MOVLB  3
05CF0:  MOVF   x68,W
05CF2:  MOVLB  2
05CF4:  ADDWF  xEA,W
05CF6:  MULLW  09
05CF8:  MOVF   FF3,W
05CFA:  MOVLB  4
05CFC:  ADDWF  x49,F
05CFE:  MOVLW  00
05D00:  ADDWFC x4A,F
05D02:  MOVFF  44A,44D
05D06:  MOVFF  449,44C
05D0A:  MOVLB  0
05D0C:  RCALL  55BE
05D0E:  MOVFF  448,FEA
05D12:  MOVFF  447,FE9
05D16:  MOVFF  01,FEF
....................             if(ACiclos[i]>30) 
05D1A:  CLRF   03
05D1C:  MOVLB  3
05D1E:  MOVF   x68,W
05D20:  ADDLW  18
05D22:  MOVWF  FE9
05D24:  MOVLW  04
05D26:  ADDWFC 03,W
05D28:  MOVWF  FEA
05D2A:  MOVF   FEF,W
05D2C:  SUBLW  1E
05D2E:  BC    5D40
....................                ACiclos[i]=0; 
05D30:  CLRF   03
05D32:  MOVF   x68,W
05D34:  ADDLW  18
05D36:  MOVWF  FE9
05D38:  MOVLW  04
05D3A:  ADDWFC 03,W
05D3C:  MOVWF  FEA
05D3E:  CLRF   FEF
....................          } 
05D40:  INCF   x68,F
05D42:  BRA    57F6
.................... } 
05D44:  MOVLB  0
05D46:  RETLW  00
.................... void GuardaDatoEstatico(){ 
*
06770:  MOVLB  4
06772:  CLRF   x48
06774:  CLRF   x47
06776:  CLRF   x4A
06778:  CLRF   x49
....................    int16 posCiclo=0,cicloMemoria=0; 
....................    posCiclo=Ciclos/200; 
0677A:  MOVFF  384,44C
0677E:  MOVFF  383,44B
06782:  CLRF   x4E
06784:  MOVLW  C8
06786:  MOVWF  x4D
06788:  MOVLB  0
0678A:  CALL   5306
0678E:  MOVFF  02,448
06792:  MOVFF  01,447
....................    cicloMemoria=Ciclos-(posCiclo*200); 
06796:  MOVFF  448,451
0679A:  MOVFF  447,450
0679E:  MOVLB  4
067A0:  CLRF   x53
067A2:  MOVLW  C8
067A4:  MOVWF  x52
067A6:  MOVLB  0
067A8:  CALL   3A9A
067AC:  MOVF   01,W
067AE:  MOVLB  3
067B0:  SUBWF  x83,W
067B2:  MOVLB  4
067B4:  MOVWF  x49
067B6:  MOVF   02,W
067B8:  MOVLB  3
067BA:  SUBWFB x84,W
067BC:  MOVLB  4
067BE:  MOVWF  x4A
....................    if(!disp_Guarda){ 
067C0:  MOVLB  0
067C2:  BTFSC  xA4.5
067C4:  BRA    6990
....................       if(Temperatura>=85) 
067C6:  MOVLB  4
067C8:  CLRF   x4E
067CA:  CLRF   x4D
067CC:  MOVLW  2A
067CE:  MOVWF  x4C
067D0:  MOVLW  85
067D2:  MOVWF  x4B
067D4:  MOVFF  332,452
067D8:  MOVFF  331,451
067DC:  MOVFF  330,450
067E0:  MOVFF  32F,44F
067E4:  MOVLB  0
067E6:  CALL   2DF8
067EA:  BC    67EE
067EC:  BNZ   67F4
....................          Ttrampa=97; 
067EE:  MOVLW  61
067F0:  MOVLB  2
067F2:  MOVWF  xE3
....................       write_ext_eeprom(cicloMemoria*320,1); 
067F4:  MOVFF  44A,451
067F8:  MOVFF  449,450
067FC:  MOVLW  01
067FE:  MOVLB  4
06800:  MOVWF  x53
06802:  MOVLW  40
06804:  MOVWF  x52
06806:  MOVLB  0
06808:  CALL   3A9A
0680C:  MOVFF  02,44C
06810:  MOVFF  01,44B
06814:  MOVFF  02,44F
06818:  MOVFF  01,44E
0681C:  MOVLW  01
0681E:  MOVLB  4
06820:  MOVWF  x50
06822:  MOVLB  0
06824:  RCALL  6664
....................       delay_ms(10); 
06826:  MOVLW  0A
06828:  MOVLB  4
0682A:  MOVWF  x5C
0682C:  MOVLB  0
0682E:  CALL   1AF4
....................       if(!Libre) 
06832:  BTFSC  xA4.1
06834:  BRA    6870
....................          write_ext_eeprom(1+(cicloMemoria*320),CicloSeleccionado); 
06836:  MOVFF  44A,451
0683A:  MOVFF  449,450
0683E:  MOVLW  01
06840:  MOVLB  4
06842:  MOVWF  x53
06844:  MOVLW  40
06846:  MOVWF  x52
06848:  MOVLB  0
0684A:  CALL   3A9A
0684E:  MOVFF  02,03
06852:  MOVF   01,W
06854:  ADDLW  01
06856:  MOVLB  4
06858:  MOVWF  x4B
0685A:  MOVLW  00
0685C:  ADDWFC 02,W
0685E:  MOVWF  x4C
06860:  MOVWF  x4F
06862:  MOVFF  44B,44E
06866:  MOVFF  36B,450
0686A:  MOVLB  0
0686C:  RCALL  6664
....................       else 
0686E:  BRA    68B2
....................          write_ext_eeprom(1+(cicloMemoria*320),CicloLibre+4); 
06870:  MOVFF  44A,451
06874:  MOVFF  449,450
06878:  MOVLW  01
0687A:  MOVLB  4
0687C:  MOVWF  x53
0687E:  MOVLW  40
06880:  MOVWF  x52
06882:  MOVLB  0
06884:  CALL   3A9A
06888:  MOVFF  02,03
0688C:  MOVF   01,W
0688E:  ADDLW  01
06890:  MOVLB  4
06892:  MOVWF  x4B
06894:  MOVLW  00
06896:  ADDWFC 02,W
06898:  MOVWF  x4C
0689A:  MOVLW  04
0689C:  MOVLB  3
0689E:  ADDWF  x45,W
068A0:  MOVLB  4
068A2:  MOVWF  x4D
068A4:  MOVFF  44C,44F
068A8:  MOVFF  44B,44E
068AC:  MOVWF  x50
068AE:  MOVLB  0
068B0:  RCALL  6664
....................       delay_ms(10); 
068B2:  MOVLW  0A
068B4:  MOVLB  4
068B6:  MOVWF  x5C
068B8:  MOVLB  0
068BA:  CALL   1AF4
....................       write_ext_eeprom(2+(cicloMemoria*320),Dia); 
068BE:  MOVFF  44A,451
068C2:  MOVFF  449,450
068C6:  MOVLW  01
068C8:  MOVLB  4
068CA:  MOVWF  x53
068CC:  MOVLW  40
068CE:  MOVWF  x52
068D0:  MOVLB  0
068D2:  CALL   3A9A
068D6:  MOVFF  02,03
068DA:  MOVF   01,W
068DC:  ADDLW  02
068DE:  MOVLB  4
068E0:  MOVWF  x4B
068E2:  MOVLW  00
068E4:  ADDWFC 02,W
068E6:  MOVWF  x4C
068E8:  MOVWF  x4F
068EA:  MOVFF  44B,44E
068EE:  MOVFF  3A8,450
068F2:  MOVLB  0
068F4:  RCALL  6664
....................       delay_ms(10); 
068F6:  MOVLW  0A
068F8:  MOVLB  4
068FA:  MOVWF  x5C
068FC:  MOVLB  0
068FE:  CALL   1AF4
....................       write_ext_eeprom(3+(cicloMemoria*320),Mes); 
06902:  MOVFF  44A,451
06906:  MOVFF  449,450
0690A:  MOVLW  01
0690C:  MOVLB  4
0690E:  MOVWF  x53
06910:  MOVLW  40
06912:  MOVWF  x52
06914:  MOVLB  0
06916:  CALL   3A9A
0691A:  MOVFF  02,03
0691E:  MOVF   01,W
06920:  ADDLW  03
06922:  MOVLB  4
06924:  MOVWF  x4B
06926:  MOVLW  00
06928:  ADDWFC 02,W
0692A:  MOVWF  x4C
0692C:  MOVWF  x4F
0692E:  MOVFF  44B,44E
06932:  MOVFF  3A7,450
06936:  MOVLB  0
06938:  RCALL  6664
....................       delay_ms(10); 
0693A:  MOVLW  0A
0693C:  MOVLB  4
0693E:  MOVWF  x5C
06940:  MOVLB  0
06942:  CALL   1AF4
....................       write_ext_eeprom(4+(cicloMemoria*320),Year); 
06946:  MOVFF  44A,451
0694A:  MOVFF  449,450
0694E:  MOVLW  01
06950:  MOVLB  4
06952:  MOVWF  x53
06954:  MOVLW  40
06956:  MOVWF  x52
06958:  MOVLB  0
0695A:  CALL   3A9A
0695E:  MOVFF  02,03
06962:  MOVF   01,W
06964:  ADDLW  04
06966:  MOVLB  4
06968:  MOVWF  x4B
0696A:  MOVLW  00
0696C:  ADDWFC 02,W
0696E:  MOVWF  x4C
06970:  MOVWF  x4F
06972:  MOVFF  44B,44E
06976:  MOVFF  3A6,450
0697A:  MOVLB  0
0697C:  RCALL  6664
....................       delay_ms(10);  
0697E:  MOVLW  0A
06980:  MOVLB  4
06982:  MOVWF  x5C
06984:  MOVLB  0
06986:  CALL   1AF4
....................       disp_Guarda=1; 
0698A:  BSF    xA4.5
....................       posicionDato=0; 
0698C:  MOVLB  2
0698E:  CLRF   xEB
06990:  MOVLB  0
....................    }    
.................... } 
06992:  GOTO   C18A (RETURN)
....................  
.................... void GuardaDatoCiclo(){ 
*
06A60:  MOVLB  4
06A62:  CLRF   x48
06A64:  CLRF   x47
06A66:  CLRF   x4A
06A68:  CLRF   x49
....................    int16 posCiclo=0,cicloMemoria=0; 
....................    posCiclo=Ciclos/200; 
06A6A:  MOVFF  384,44C
06A6E:  MOVFF  383,44B
06A72:  CLRF   x4E
06A74:  MOVLW  C8
06A76:  MOVWF  x4D
06A78:  MOVLB  0
06A7A:  CALL   5306
06A7E:  MOVFF  02,448
06A82:  MOVFF  01,447
....................    if(!Ciclo){ 
06A86:  BTFSC  xA1.4
06A88:  BRA    6E00
....................       cicloMemoria=Ciclos-(posCiclo*200); 
06A8A:  MOVFF  448,451
06A8E:  MOVFF  447,450
06A92:  MOVLB  4
06A94:  CLRF   x53
06A96:  MOVLW  C8
06A98:  MOVWF  x52
06A9A:  MOVLB  0
06A9C:  CALL   3A9A
06AA0:  MOVF   01,W
06AA2:  MOVLB  3
06AA4:  SUBWF  x83,W
06AA6:  MOVLB  4
06AA8:  MOVWF  x49
06AAA:  MOVF   02,W
06AAC:  MOVLB  3
06AAE:  SUBWFB x84,W
06AB0:  MOVLB  4
06AB2:  MOVWF  x4A
....................       write_ext_eeprom(5+(cicloMemoria*320)+(posicionDato*9),(int8)Temperatura); 
06AB4:  MOVFF  44A,451
06AB8:  MOVFF  449,450
06ABC:  MOVLW  01
06ABE:  MOVWF  x53
06AC0:  MOVLW  40
06AC2:  MOVWF  x52
06AC4:  MOVLB  0
06AC6:  CALL   3A9A
06ACA:  MOVFF  02,03
06ACE:  MOVF   01,W
06AD0:  ADDLW  05
06AD2:  MOVLB  4
06AD4:  MOVWF  x4B
06AD6:  MOVLW  00
06AD8:  ADDWFC 02,W
06ADA:  MOVWF  x4C
06ADC:  MOVLB  2
06ADE:  MOVF   xEB,W
06AE0:  MULLW  09
06AE2:  MOVF   FF3,W
06AE4:  MOVLB  4
06AE6:  ADDWF  x4B,F
06AE8:  MOVLW  00
06AEA:  ADDWFC x4C,F
06AEC:  MOVFF  332,45F
06AF0:  MOVFF  331,45E
06AF4:  MOVFF  330,45D
06AF8:  MOVFF  32F,45C
06AFC:  MOVLB  0
06AFE:  CALL   41F4
06B02:  MOVFF  01,44D
06B06:  MOVFF  44C,44F
06B0A:  MOVFF  44B,44E
06B0E:  MOVFF  01,450
06B12:  RCALL  6664
....................       delay_ms(10); 
06B14:  MOVLW  0A
06B16:  MOVLB  4
06B18:  MOVWF  x5C
06B1A:  MOVLB  0
06B1C:  CALL   1AF4
....................       write_ext_eeprom(6+(cicloMemoria*320)+(posicionDato*9),extraeDecimal(Temperatura)); 
06B20:  MOVFF  44A,451
06B24:  MOVFF  449,450
06B28:  MOVLW  01
06B2A:  MOVLB  4
06B2C:  MOVWF  x53
06B2E:  MOVLW  40
06B30:  MOVWF  x52
06B32:  MOVLB  0
06B34:  CALL   3A9A
06B38:  MOVFF  02,03
06B3C:  MOVF   01,W
06B3E:  ADDLW  06
06B40:  MOVLB  4
06B42:  MOVWF  x4B
06B44:  MOVLW  00
06B46:  ADDWFC 02,W
06B48:  MOVWF  x4C
06B4A:  MOVLB  2
06B4C:  MOVF   xEB,W
06B4E:  MULLW  09
06B50:  MOVF   FF3,W
06B52:  MOVLB  4
06B54:  ADDWF  x4B,F
06B56:  MOVLW  00
06B58:  ADDWFC x4C,F
06B5A:  MOVFF  332,450
06B5E:  MOVFF  331,44F
06B62:  MOVFF  330,44E
06B66:  MOVFF  32F,44D
06B6A:  MOVLB  0
06B6C:  BRA    6996
06B6E:  MOVFF  01,44D
06B72:  MOVFF  44C,44F
06B76:  MOVFF  44B,44E
06B7A:  MOVFF  01,450
06B7E:  RCALL  6664
....................       delay_ms(10); 
06B80:  MOVLW  0A
06B82:  MOVLB  4
06B84:  MOVWF  x5C
06B86:  MOVLB  0
06B88:  CALL   1AF4
....................       write_ext_eeprom(7+(cicloMemoria*320)+(posicionDato*9),make8(PresionCamara,1)); 
06B8C:  MOVFF  44A,451
06B90:  MOVFF  449,450
06B94:  MOVLW  01
06B96:  MOVLB  4
06B98:  MOVWF  x53
06B9A:  MOVLW  40
06B9C:  MOVWF  x52
06B9E:  MOVLB  0
06BA0:  CALL   3A9A
06BA4:  MOVFF  02,03
06BA8:  MOVF   01,W
06BAA:  ADDLW  07
06BAC:  MOVLB  4
06BAE:  MOVWF  x4B
06BB0:  MOVLW  00
06BB2:  ADDWFC 02,W
06BB4:  MOVWF  x4C
06BB6:  MOVLB  2
06BB8:  MOVF   xEB,W
06BBA:  MULLW  09
06BBC:  MOVF   FF3,W
06BBE:  MOVLB  4
06BC0:  ADDWF  x4B,F
06BC2:  MOVLW  00
06BC4:  ADDWFC x4C,F
06BC6:  MOVFF  380,44D
06BCA:  MOVFF  44C,44F
06BCE:  MOVFF  44B,44E
06BD2:  MOVFF  380,450
06BD6:  MOVLB  0
06BD8:  RCALL  6664
....................       delay_ms(10); 
06BDA:  MOVLW  0A
06BDC:  MOVLB  4
06BDE:  MOVWF  x5C
06BE0:  MOVLB  0
06BE2:  CALL   1AF4
....................       write_ext_eeprom(8+(cicloMemoria*320)+(posicionDato*9),make8(PresionCamara,0)); 
06BE6:  MOVFF  44A,451
06BEA:  MOVFF  449,450
06BEE:  MOVLW  01
06BF0:  MOVLB  4
06BF2:  MOVWF  x53
06BF4:  MOVLW  40
06BF6:  MOVWF  x52
06BF8:  MOVLB  0
06BFA:  CALL   3A9A
06BFE:  MOVFF  02,03
06C02:  MOVF   01,W
06C04:  ADDLW  08
06C06:  MOVLB  4
06C08:  MOVWF  x4B
06C0A:  MOVLW  00
06C0C:  ADDWFC 02,W
06C0E:  MOVWF  x4C
06C10:  MOVLB  2
06C12:  MOVF   xEB,W
06C14:  MULLW  09
06C16:  MOVF   FF3,W
06C18:  MOVLB  4
06C1A:  ADDWF  x4B,F
06C1C:  MOVLW  00
06C1E:  ADDWFC x4C,F
06C20:  MOVFF  37F,44D
06C24:  MOVFF  44C,44F
06C28:  MOVFF  44B,44E
06C2C:  MOVFF  37F,450
06C30:  MOVLB  0
06C32:  RCALL  6664
....................       delay_ms(10); 
06C34:  MOVLW  0A
06C36:  MOVLB  4
06C38:  MOVWF  x5C
06C3A:  MOVLB  0
06C3C:  CALL   1AF4
....................       write_ext_eeprom(9+(cicloMemoria*320)+(posicionDato*9),make8(PresionPreCamara,1)); 
06C40:  MOVFF  44A,451
06C44:  MOVFF  449,450
06C48:  MOVLW  01
06C4A:  MOVLB  4
06C4C:  MOVWF  x53
06C4E:  MOVLW  40
06C50:  MOVWF  x52
06C52:  MOVLB  0
06C54:  CALL   3A9A
06C58:  MOVFF  02,03
06C5C:  MOVF   01,W
06C5E:  ADDLW  09
06C60:  MOVLB  4
06C62:  MOVWF  x4B
06C64:  MOVLW  00
06C66:  ADDWFC 02,W
06C68:  MOVWF  x4C
06C6A:  MOVLB  2
06C6C:  MOVF   xEB,W
06C6E:  MULLW  09
06C70:  MOVF   FF3,W
06C72:  MOVLB  4
06C74:  ADDWF  x4B,F
06C76:  MOVLW  00
06C78:  ADDWFC x4C,F
06C7A:  MOVFF  382,44D
06C7E:  MOVFF  44C,44F
06C82:  MOVFF  44B,44E
06C86:  MOVFF  382,450
06C8A:  MOVLB  0
06C8C:  RCALL  6664
....................       delay_ms(10); 
06C8E:  MOVLW  0A
06C90:  MOVLB  4
06C92:  MOVWF  x5C
06C94:  MOVLB  0
06C96:  CALL   1AF4
....................       write_ext_eeprom(10+(cicloMemoria*320)+(posicionDato*9),make8(PresionPreCamara,0)); 
06C9A:  MOVFF  44A,451
06C9E:  MOVFF  449,450
06CA2:  MOVLW  01
06CA4:  MOVLB  4
06CA6:  MOVWF  x53
06CA8:  MOVLW  40
06CAA:  MOVWF  x52
06CAC:  MOVLB  0
06CAE:  CALL   3A9A
06CB2:  MOVFF  02,03
06CB6:  MOVF   01,W
06CB8:  ADDLW  0A
06CBA:  MOVLB  4
06CBC:  MOVWF  x4B
06CBE:  MOVLW  00
06CC0:  ADDWFC 02,W
06CC2:  MOVWF  x4C
06CC4:  MOVLB  2
06CC6:  MOVF   xEB,W
06CC8:  MULLW  09
06CCA:  MOVF   FF3,W
06CCC:  MOVLB  4
06CCE:  ADDWF  x4B,F
06CD0:  MOVLW  00
06CD2:  ADDWFC x4C,F
06CD4:  MOVFF  381,44D
06CD8:  MOVFF  44C,44F
06CDC:  MOVFF  44B,44E
06CE0:  MOVFF  381,450
06CE4:  MOVLB  0
06CE6:  RCALL  6664
....................       delay_ms(10); 
06CE8:  MOVLW  0A
06CEA:  MOVLB  4
06CEC:  MOVWF  x5C
06CEE:  MOVLB  0
06CF0:  CALL   1AF4
....................       write_ext_eeprom(11+(cicloMemoria*320)+(posicionDato*9),Hora); 
06CF4:  MOVFF  44A,451
06CF8:  MOVFF  449,450
06CFC:  MOVLW  01
06CFE:  MOVLB  4
06D00:  MOVWF  x53
06D02:  MOVLW  40
06D04:  MOVWF  x52
06D06:  MOVLB  0
06D08:  CALL   3A9A
06D0C:  MOVFF  02,03
06D10:  MOVF   01,W
06D12:  ADDLW  0B
06D14:  MOVLB  4
06D16:  MOVWF  x4B
06D18:  MOVLW  00
06D1A:  ADDWFC 02,W
06D1C:  MOVWF  x4C
06D1E:  MOVLB  2
06D20:  MOVF   xEB,W
06D22:  MULLW  09
06D24:  MOVF   FF3,W
06D26:  MOVLB  4
06D28:  ADDWF  x4B,F
06D2A:  MOVLW  00
06D2C:  ADDWFC x4C,F
06D2E:  MOVFF  44C,44F
06D32:  MOVFF  44B,44E
06D36:  MOVFF  3A9,450
06D3A:  MOVLB  0
06D3C:  RCALL  6664
....................       delay_ms(10); 
06D3E:  MOVLW  0A
06D40:  MOVLB  4
06D42:  MOVWF  x5C
06D44:  MOVLB  0
06D46:  CALL   1AF4
....................       write_ext_eeprom(12+(cicloMemoria*320)+(posicionDato*9),Minuto); 
06D4A:  MOVFF  44A,451
06D4E:  MOVFF  449,450
06D52:  MOVLW  01
06D54:  MOVLB  4
06D56:  MOVWF  x53
06D58:  MOVLW  40
06D5A:  MOVWF  x52
06D5C:  MOVLB  0
06D5E:  CALL   3A9A
06D62:  MOVFF  02,03
06D66:  MOVF   01,W
06D68:  ADDLW  0C
06D6A:  MOVLB  4
06D6C:  MOVWF  x4B
06D6E:  MOVLW  00
06D70:  ADDWFC 02,W
06D72:  MOVWF  x4C
06D74:  MOVLB  2
06D76:  MOVF   xEB,W
06D78:  MULLW  09
06D7A:  MOVF   FF3,W
06D7C:  MOVLB  4
06D7E:  ADDWF  x4B,F
06D80:  MOVLW  00
06D82:  ADDWFC x4C,F
06D84:  MOVFF  44C,44F
06D88:  MOVFF  44B,44E
06D8C:  MOVFF  3AA,450
06D90:  MOVLB  0
06D92:  RCALL  6664
....................       delay_ms(10); 
06D94:  MOVLW  0A
06D96:  MOVLB  4
06D98:  MOVWF  x5C
06D9A:  MOVLB  0
06D9C:  CALL   1AF4
....................       write_ext_eeprom(13+(cicloMemoria*320)+(posicionDato*9),codigoAlarma); 
06DA0:  MOVFF  44A,451
06DA4:  MOVFF  449,450
06DA8:  MOVLW  01
06DAA:  MOVLB  4
06DAC:  MOVWF  x53
06DAE:  MOVLW  40
06DB0:  MOVWF  x52
06DB2:  MOVLB  0
06DB4:  CALL   3A9A
06DB8:  MOVFF  02,03
06DBC:  MOVF   01,W
06DBE:  ADDLW  0D
06DC0:  MOVLB  4
06DC2:  MOVWF  x4B
06DC4:  MOVLW  00
06DC6:  ADDWFC 02,W
06DC8:  MOVWF  x4C
06DCA:  MOVLB  2
06DCC:  MOVF   xEB,W
06DCE:  MULLW  09
06DD0:  MOVF   FF3,W
06DD2:  MOVLB  4
06DD4:  ADDWF  x4B,F
06DD6:  MOVLW  00
06DD8:  ADDWFC x4C,F
06DDA:  MOVFF  44C,44F
06DDE:  MOVFF  44B,44E
06DE2:  MOVFF  2ED,450
06DE6:  MOVLB  0
06DE8:  RCALL  6664
....................       delay_ms(10); 
06DEA:  MOVLW  0A
06DEC:  MOVLB  4
06DEE:  MOVWF  x5C
06DF0:  MOVLB  0
06DF2:  CALL   1AF4
....................     
....................       if(posicionDato<35) 
06DF6:  MOVLB  2
06DF8:  MOVF   xEB,W
06DFA:  SUBLW  22
06DFC:  BNC   6E00
....................          ++posicionDato; 
06DFE:  INCF   xEB,F
06E00:  MOVLB  0
....................    } 
.................... } 
06E02:  RETLW  00
....................  
.................... void incrementaCiclos(){ 
....................    if(!Ciclo){ 
06E04:  BTFSC  xA1.4
06E06:  BRA    6E8E
....................       Ciclo=ON; 
06E08:  BSF    xA1.4
....................       Ciclos++; 
06E0A:  MOVLB  3
06E0C:  INCF   x83,F
06E0E:  BTFSC  FD8.2
06E10:  INCF   x84,F
....................       CiclosL=make8(Ciclos,0); 
06E12:  MOVFF  383,369
....................       CiclosH=make8(Ciclos,1); 
06E16:  MOVFF  384,36A
....................       write_eeprom(37,CiclosL); 
06E1A:  CLRF   FAA
06E1C:  MOVLW  25
06E1E:  MOVWF  FA9
06E20:  MOVFF  369,FA8
06E24:  BCF    FA6.6
06E26:  BCF    FA6.7
06E28:  BSF    FA6.2
06E2A:  MOVF   FF2,W
06E2C:  MOVWF  00
06E2E:  BCF    FF2.6
06E30:  BCF    FF2.7
06E32:  MOVLB  F
06E34:  MOVLW  55
06E36:  MOVWF  FA7
06E38:  MOVLW  AA
06E3A:  MOVWF  FA7
06E3C:  BSF    FA6.1
06E3E:  BTFSC  FA6.1
06E40:  BRA    6E3E
06E42:  BCF    FA6.2
06E44:  MOVF   00,W
06E46:  IORWF  FF2,F
....................       delay_ms(20); 
06E48:  MOVLW  14
06E4A:  MOVLB  4
06E4C:  MOVWF  x5C
06E4E:  MOVLB  0
06E50:  CALL   1AF4
....................       write_eeprom(38,CiclosH); 
06E54:  CLRF   FAA
06E56:  MOVLW  26
06E58:  MOVWF  FA9
06E5A:  MOVFF  36A,FA8
06E5E:  BCF    FA6.6
06E60:  BCF    FA6.7
06E62:  BSF    FA6.2
06E64:  MOVF   FF2,W
06E66:  MOVWF  00
06E68:  BCF    FF2.6
06E6A:  BCF    FF2.7
06E6C:  MOVLB  F
06E6E:  MOVLW  55
06E70:  MOVWF  FA7
06E72:  MOVLW  AA
06E74:  MOVWF  FA7
06E76:  BSF    FA6.1
06E78:  BTFSC  FA6.1
06E7A:  BRA    6E78
06E7C:  BCF    FA6.2
06E7E:  MOVF   00,W
06E80:  IORWF  FF2,F
....................       delay_ms(20); 
06E82:  MOVLW  14
06E84:  MOVLB  4
06E86:  MOVWF  x5C
06E88:  MOVLB  0
06E8A:  CALL   1AF4
....................    } 
.................... } 
06E8E:  RETLW  00
....................  
.................... void exportarData(){ 
*
05D48:  MOVLB  4
05D4A:  CLRF   x48
05D4C:  CLRF   x47
05D4E:  CLRF   x49
.................... int16 posicion=0; 
.................... int8 tmp=0; 
.................... posicion=40; 
05D50:  CLRF   x48
05D52:  MOVLW  28
05D54:  MOVWF  x47
.................... direccion=0xB0; 
05D56:  MOVLW  B0
05D58:  MOVLB  0
05D5A:  MOVWF  x85
.................... //Buzzer_on; 
.................... //Inicio de Transmision 
.................... i2c_start();            // Comienzo comunicacin 
05D5C:  BSF    F94.4
05D5E:  MOVLW  05
05D60:  MOVWF  00
05D62:  DECFSZ 00,F
05D64:  BRA    5D62
05D66:  BSF    F94.3
05D68:  MOVLW  06
05D6A:  MOVWF  00
05D6C:  DECFSZ 00,F
05D6E:  BRA    5D6C
05D70:  BCF    F8B.4
05D72:  BCF    F94.4
05D74:  MOVLW  05
05D76:  MOVWF  00
05D78:  DECFSZ 00,F
05D7A:  BRA    5D78
05D7C:  BCF    F8B.3
05D7E:  BCF    F94.3
.................... i2c_write(direccion);   // Direccin del esclavo en el bus I2C 
05D80:  MOVFF  85,45D
05D84:  CALL   470A
.................... i2c_write(make8(posicion,0));    // Posicin donde se guardara el dato transmitido 
05D88:  MOVFF  447,44A
05D8C:  MOVFF  447,45D
05D90:  CALL   470A
.................... i2c_write(make8(posicion,1));    // Posicin donde se guardara el dato transmitido 
05D94:  MOVFF  448,44A
05D98:  MOVFF  448,45D
05D9C:  CALL   470A
.................... i2c_write(0xff);        // Dato a transmitir 
05DA0:  MOVLW  FF
05DA2:  MOVLB  4
05DA4:  MOVWF  x5D
05DA6:  MOVLB  0
05DA8:  CALL   470A
.................... i2c_stop(); 
05DAC:  BCF    F94.4
05DAE:  NOP   
05DB0:  BSF    F94.3
05DB2:  BTFSS  F82.3
05DB4:  BRA    5DB2
05DB6:  MOVLW  05
05DB8:  MOVWF  00
05DBA:  DECFSZ 00,F
05DBC:  BRA    5DBA
05DBE:  BRA    5DC0
05DC0:  NOP   
05DC2:  BSF    F94.4
05DC4:  MOVLW  05
05DC6:  MOVWF  00
05DC8:  DECFSZ 00,F
05DCA:  BRA    5DC8
.................... ++posicion; 
05DCC:  MOVLB  4
05DCE:  INCF   x47,F
05DD0:  BTFSC  FD8.2
05DD2:  INCF   x48,F
.................... i2c_start();            // Comienzo comunicacin 
05DD4:  BSF    F94.4
05DD6:  MOVLW  05
05DD8:  MOVWF  00
05DDA:  DECFSZ 00,F
05DDC:  BRA    5DDA
05DDE:  BSF    F94.3
05DE0:  MOVLW  06
05DE2:  MOVWF  00
05DE4:  DECFSZ 00,F
05DE6:  BRA    5DE4
05DE8:  BCF    F8B.4
05DEA:  BCF    F94.4
05DEC:  MOVLW  05
05DEE:  MOVWF  00
05DF0:  DECFSZ 00,F
05DF2:  BRA    5DF0
05DF4:  BCF    F8B.3
05DF6:  BCF    F94.3
.................... i2c_write(direccion);   // Direccin del esclavo en el bus I2C 
05DF8:  MOVFF  85,45D
05DFC:  MOVLB  0
05DFE:  CALL   470A
.................... i2c_write(make8(posicion,0));    // Posicin donde se guardara el dato transmitido 
05E02:  MOVFF  447,44A
05E06:  MOVFF  447,45D
05E0A:  CALL   470A
.................... i2c_write(make8(posicion,1));    // Posicin donde se guardara el dato transmitido 
05E0E:  MOVFF  448,44A
05E12:  MOVFF  448,45D
05E16:  CALL   470A
.................... i2c_write(0xff);        // Dato a transmitir 
05E1A:  MOVLW  FF
05E1C:  MOVLB  4
05E1E:  MOVWF  x5D
05E20:  MOVLB  0
05E22:  CALL   470A
.................... i2c_stop(); 
05E26:  BCF    F94.4
05E28:  NOP   
05E2A:  BSF    F94.3
05E2C:  BTFSS  F82.3
05E2E:  BRA    5E2C
05E30:  MOVLW  05
05E32:  MOVWF  00
05E34:  DECFSZ 00,F
05E36:  BRA    5E34
05E38:  BRA    5E3A
05E3A:  NOP   
05E3C:  BSF    F94.4
05E3E:  MOVLW  05
05E40:  MOVWF  00
05E42:  DECFSZ 00,F
05E44:  BRA    5E42
.................... ++posicion; 
05E46:  MOVLB  4
05E48:  INCF   x47,F
05E4A:  BTFSC  FD8.2
05E4C:  INCF   x48,F
.................... //Se envian 2 veces ff para indicar que se inicia la transmision. 
....................  
....................    for(i=0;i<5;i++){ 
05E4E:  MOVLB  3
05E50:  CLRF   x68
05E52:  MOVF   x68,W
05E54:  SUBLW  04
05E56:  BNC   5F0E
....................       tmp=read_ext_eeprom((cicloVisto*320)+i); 
05E58:  MOVLB  4
05E5A:  CLRF   x51
05E5C:  MOVFF  2E9,450
05E60:  MOVLW  01
05E62:  MOVWF  x53
05E64:  MOVLW  40
05E66:  MOVWF  x52
05E68:  MOVLB  0
05E6A:  CALL   3A9A
05E6E:  MOVFF  02,44B
05E72:  MOVFF  01,44A
05E76:  MOVLB  3
05E78:  MOVF   x68,W
05E7A:  MOVLB  4
05E7C:  ADDWF  x4A,F
05E7E:  MOVLW  00
05E80:  ADDWFC x4B,F
05E82:  MOVFF  44B,44D
05E86:  MOVFF  44A,44C
05E8A:  MOVLB  0
05E8C:  CALL   55BE
05E90:  MOVFF  01,449
....................       //if(tmp>250) 
....................       //   tmp=20; 
....................       i2c_start();            // Comienzo comunicacin 
05E94:  BSF    F94.4
05E96:  MOVLW  05
05E98:  MOVWF  00
05E9A:  DECFSZ 00,F
05E9C:  BRA    5E9A
05E9E:  BSF    F94.3
05EA0:  MOVLW  06
05EA2:  MOVWF  00
05EA4:  DECFSZ 00,F
05EA6:  BRA    5EA4
05EA8:  BCF    F8B.4
05EAA:  BCF    F94.4
05EAC:  MOVLW  05
05EAE:  MOVWF  00
05EB0:  DECFSZ 00,F
05EB2:  BRA    5EB0
05EB4:  BCF    F8B.3
05EB6:  BCF    F94.3
....................       i2c_write(direccion);   // Direccin del esclavo en el bus I2C 
05EB8:  MOVFF  85,45D
05EBC:  CALL   470A
....................       i2c_write(make8(posicion,0));    // Posicin donde se guardara el dato transmitido 
05EC0:  MOVFF  447,44A
05EC4:  MOVFF  447,45D
05EC8:  CALL   470A
....................       i2c_write(make8(posicion,1));    // Posicin donde se guardara el dato transmitido 
05ECC:  MOVFF  448,44A
05ED0:  MOVFF  448,45D
05ED4:  CALL   470A
....................       i2c_write(tmp);        // Dato a transmitir 
05ED8:  MOVFF  449,45D
05EDC:  CALL   470A
....................       i2c_stop();  
05EE0:  BCF    F94.4
05EE2:  NOP   
05EE4:  BSF    F94.3
05EE6:  BTFSS  F82.3
05EE8:  BRA    5EE6
05EEA:  MOVLW  05
05EEC:  MOVWF  00
05EEE:  DECFSZ 00,F
05EF0:  BRA    5EEE
05EF2:  BRA    5EF4
05EF4:  NOP   
05EF6:  BSF    F94.4
05EF8:  MOVLW  05
05EFA:  MOVWF  00
05EFC:  DECFSZ 00,F
05EFE:  BRA    5EFC
....................       ++posicion; 
05F00:  MOVLB  4
05F02:  INCF   x47,F
05F04:  BTFSC  FD8.2
05F06:  INCF   x48,F
....................    } 
05F08:  MOVLB  3
05F0A:  INCF   x68,F
05F0C:  BRA    5E52
....................    for(i=0;i<35;i++){//Lee Valores para completar la Tabla 
05F0E:  CLRF   x68
05F10:  MOVF   x68,W
05F12:  SUBLW  22
05F14:  BNC   5FEE
....................       for(j=5;j<14;j++){//Lee Valores para completar la Tabla 
05F16:  MOVLW  05
05F18:  MOVLB  2
05F1A:  MOVWF  xEC
05F1C:  MOVF   xEC,W
05F1E:  SUBLW  0D
05F20:  BNC   5FE8
....................          tmp=read_ext_eeprom((cicloVisto*320)+j+(i*9)); 
05F22:  MOVLB  4
05F24:  CLRF   x51
05F26:  MOVFF  2E9,450
05F2A:  MOVLW  01
05F2C:  MOVWF  x53
05F2E:  MOVLW  40
05F30:  MOVWF  x52
05F32:  MOVLB  0
05F34:  CALL   3A9A
05F38:  MOVFF  02,44B
05F3C:  MOVFF  01,44A
05F40:  MOVLB  2
05F42:  MOVF   xEC,W
05F44:  MOVLB  4
05F46:  ADDWF  x4A,F
05F48:  MOVLW  00
05F4A:  ADDWFC x4B,F
05F4C:  MOVLB  3
05F4E:  MOVF   x68,W
05F50:  MULLW  09
05F52:  MOVF   FF3,W
05F54:  MOVLB  4
05F56:  ADDWF  x4A,F
05F58:  MOVLW  00
05F5A:  ADDWFC x4B,F
05F5C:  MOVFF  44B,44D
05F60:  MOVFF  44A,44C
05F64:  MOVLB  0
05F66:  CALL   55BE
05F6A:  MOVFF  01,449
....................          //if(tmp>250) 
....................          //   tmp=20; 
....................          i2c_start();            // Comienzo comunicacin 
05F6E:  BSF    F94.4
05F70:  MOVLW  05
05F72:  MOVWF  00
05F74:  DECFSZ 00,F
05F76:  BRA    5F74
05F78:  BSF    F94.3
05F7A:  MOVLW  06
05F7C:  MOVWF  00
05F7E:  DECFSZ 00,F
05F80:  BRA    5F7E
05F82:  BCF    F8B.4
05F84:  BCF    F94.4
05F86:  MOVLW  05
05F88:  MOVWF  00
05F8A:  DECFSZ 00,F
05F8C:  BRA    5F8A
05F8E:  BCF    F8B.3
05F90:  BCF    F94.3
....................          i2c_write(direccion);   // Direccin del esclavo en el bus I2C 
05F92:  MOVFF  85,45D
05F96:  CALL   470A
....................          i2c_write(make8(posicion,0));    // Posicin donde se guardara el dato transmitido 
05F9A:  MOVFF  447,44A
05F9E:  MOVFF  447,45D
05FA2:  CALL   470A
....................          i2c_write(make8(posicion,1));    // Posicin donde se guardara el dato transmitido 
05FA6:  MOVFF  448,44A
05FAA:  MOVFF  448,45D
05FAE:  CALL   470A
....................          i2c_write(tmp);        // Dato a transmitir 
05FB2:  MOVFF  449,45D
05FB6:  CALL   470A
....................          i2c_stop();  
05FBA:  BCF    F94.4
05FBC:  NOP   
05FBE:  BSF    F94.3
05FC0:  BTFSS  F82.3
05FC2:  BRA    5FC0
05FC4:  MOVLW  05
05FC6:  MOVWF  00
05FC8:  DECFSZ 00,F
05FCA:  BRA    5FC8
05FCC:  BRA    5FCE
05FCE:  NOP   
05FD0:  BSF    F94.4
05FD2:  MOVLW  05
05FD4:  MOVWF  00
05FD6:  DECFSZ 00,F
05FD8:  BRA    5FD6
....................          ++posicion; 
05FDA:  MOVLB  4
05FDC:  INCF   x47,F
05FDE:  BTFSC  FD8.2
05FE0:  INCF   x48,F
....................       } 
05FE2:  MOVLB  2
05FE4:  INCF   xEC,F
05FE6:  BRA    5F1C
....................    } 
05FE8:  MOVLB  3
05FEA:  INCF   x68,F
05FEC:  BRA    5F10
....................  
.................... //Fin de Transmision 
.................... i2c_start();            // Comienzo comunicacin 
05FEE:  BSF    F94.4
05FF0:  MOVLW  05
05FF2:  MOVWF  00
05FF4:  DECFSZ 00,F
05FF6:  BRA    5FF4
05FF8:  BSF    F94.3
05FFA:  MOVLW  06
05FFC:  MOVWF  00
05FFE:  DECFSZ 00,F
06000:  BRA    5FFE
06002:  BCF    F8B.4
06004:  BCF    F94.4
06006:  MOVLW  05
06008:  MOVWF  00
0600A:  DECFSZ 00,F
0600C:  BRA    600A
0600E:  BCF    F8B.3
06010:  BCF    F94.3
.................... i2c_write(direccion);   // Direccin del esclavo en el bus I2C 
06012:  MOVFF  85,45D
06016:  MOVLB  0
06018:  CALL   470A
.................... i2c_write(make8(posicion,0));    // Posicin donde se guardara el dato transmitido 
0601C:  MOVFF  447,44A
06020:  MOVFF  447,45D
06024:  CALL   470A
.................... i2c_write(make8(posicion,1));    // Posicin donde se guardara el dato transmitido 
06028:  MOVFF  448,44A
0602C:  MOVFF  448,45D
06030:  CALL   470A
.................... i2c_write(0x1f);        // Dato a transmitir 
06034:  MOVLW  1F
06036:  MOVLB  4
06038:  MOVWF  x5D
0603A:  MOVLB  0
0603C:  CALL   470A
.................... i2c_stop(); 
06040:  BCF    F94.4
06042:  NOP   
06044:  BSF    F94.3
06046:  BTFSS  F82.3
06048:  BRA    6046
0604A:  MOVLW  05
0604C:  MOVWF  00
0604E:  DECFSZ 00,F
06050:  BRA    604E
06052:  BRA    6054
06054:  NOP   
06056:  BSF    F94.4
06058:  MOVLW  05
0605A:  MOVWF  00
0605C:  DECFSZ 00,F
0605E:  BRA    605C
.................... ++posicion; 
06060:  MOVLB  4
06062:  INCF   x47,F
06064:  BTFSC  FD8.2
06066:  INCF   x48,F
.................... i2c_start();            // Comienzo comunicacin 
06068:  BSF    F94.4
0606A:  MOVLW  05
0606C:  MOVWF  00
0606E:  DECFSZ 00,F
06070:  BRA    606E
06072:  BSF    F94.3
06074:  MOVLW  06
06076:  MOVWF  00
06078:  DECFSZ 00,F
0607A:  BRA    6078
0607C:  BCF    F8B.4
0607E:  BCF    F94.4
06080:  MOVLW  05
06082:  MOVWF  00
06084:  DECFSZ 00,F
06086:  BRA    6084
06088:  BCF    F8B.3
0608A:  BCF    F94.3
.................... i2c_write(direccion);   // Direccin del esclavo en el bus I2C 
0608C:  MOVFF  85,45D
06090:  MOVLB  0
06092:  CALL   470A
.................... i2c_write(make8(posicion,0));    // Posicin donde se guardara el dato transmitido 
06096:  MOVFF  447,44A
0609A:  MOVFF  447,45D
0609E:  CALL   470A
.................... i2c_write(make8(posicion,1));    // Posicin donde se guardara el dato transmitido 
060A2:  MOVFF  448,44A
060A6:  MOVFF  448,45D
060AA:  CALL   470A
.................... i2c_write(0x1f);        // Dato a transmitir 
060AE:  MOVLW  1F
060B0:  MOVLB  4
060B2:  MOVWF  x5D
060B4:  MOVLB  0
060B6:  CALL   470A
.................... i2c_stop(); 
060BA:  BCF    F94.4
060BC:  NOP   
060BE:  BSF    F94.3
060C0:  BTFSS  F82.3
060C2:  BRA    60C0
060C4:  MOVLW  05
060C6:  MOVWF  00
060C8:  DECFSZ 00,F
060CA:  BRA    60C8
060CC:  BRA    60CE
060CE:  NOP   
060D0:  BSF    F94.4
060D2:  MOVLW  05
060D4:  MOVWF  00
060D6:  DECFSZ 00,F
060D8:  BRA    60D6
.................... ++posicion; 
060DA:  MOVLB  4
060DC:  INCF   x47,F
060DE:  BTFSC  FD8.2
060E0:  INCF   x48,F
.................... //Se envian 2 veces 1f para indicar que se inicia la transmision. 
.................... delay_ms(200); 
060E2:  MOVLW  C8
060E4:  MOVWF  x5C
060E6:  MOVLB  0
060E8:  CALL   1AF4
.................... //Buzzer_off; 
.................... } 
060EC:  GOTO   BD5A (RETURN)
....................  
.................... void codificaAlarma(){ 
....................    if(ACiclos[i]==0){ 
060F0:  CLRF   03
060F2:  MOVLB  3
060F4:  MOVF   x68,W
060F6:  ADDLW  18
060F8:  MOVWF  FE9
060FA:  MOVLW  04
060FC:  ADDWFC 03,W
060FE:  MOVWF  FEA
06100:  MOVF   FEF,F
06102:  BNZ   6142
....................       printf("A%u.txt=\"----\"",i+1); 
06104:  MOVLW  01
06106:  ADDWF  x68,W
06108:  MOVLB  4
0610A:  MOVWF  x47
0610C:  MOVLW  41
0610E:  BTFSS  F9E.4
06110:  BRA    610E
06112:  MOVWF  FAD
06114:  MOVFF  447,44C
06118:  MOVLW  1B
0611A:  MOVWF  x4D
0611C:  MOVLB  0
0611E:  CALL   4A00
06122:  MOVLW  F9
06124:  MOVWF  FF6
06126:  MOVLW  01
06128:  MOVWF  FF7
0612A:  MOVLW  00
0612C:  MOVWF  FF8
0612E:  MOVLW  0B
06130:  MOVLB  4
06132:  MOVWF  x4C
06134:  MOVLB  0
06136:  CALL   49A2
....................       SendDataDisplay(); 
0613A:  CALL   39EA
....................    }else if(ACiclos[i]==1){ 
0613E:  BRA    665C
06140:  MOVLB  3
06142:  CLRF   03
06144:  MOVF   x68,W
06146:  ADDLW  18
06148:  MOVWF  FE9
0614A:  MOVLW  04
0614C:  ADDWFC 03,W
0614E:  MOVWF  FEA
06150:  DECFSZ FEF,W
06152:  BRA    6192
....................       printf("A%u.txt=\"Parada\"",i+1); 
06154:  MOVLW  01
06156:  ADDWF  x68,W
06158:  MOVLB  4
0615A:  MOVWF  x47
0615C:  MOVLW  41
0615E:  BTFSS  F9E.4
06160:  BRA    615E
06162:  MOVWF  FAD
06164:  MOVFF  447,44C
06168:  MOVLW  1B
0616A:  MOVWF  x4D
0616C:  MOVLB  0
0616E:  CALL   4A00
06172:  MOVLW  09
06174:  MOVWF  FF6
06176:  MOVLW  02
06178:  MOVWF  FF7
0617A:  MOVLW  00
0617C:  MOVWF  FF8
0617E:  MOVLW  0D
06180:  MOVLB  4
06182:  MOVWF  x4C
06184:  MOVLB  0
06186:  CALL   49A2
....................       SendDataDisplay(); 
0618A:  CALL   39EA
....................    }else if(ACiclos[i]==2){ 
0618E:  BRA    665C
06190:  MOVLB  3
06192:  CLRF   03
06194:  MOVF   x68,W
06196:  ADDLW  18
06198:  MOVWF  FE9
0619A:  MOVLW  04
0619C:  ADDWFC 03,W
0619E:  MOVWF  FEA
061A0:  MOVF   FEF,W
061A2:  SUBLW  02
061A4:  BNZ   61E4
....................       printf("A%u.txt=\"Puerta\"",i+1); 
061A6:  MOVLW  01
061A8:  ADDWF  x68,W
061AA:  MOVLB  4
061AC:  MOVWF  x47
061AE:  MOVLW  41
061B0:  BTFSS  F9E.4
061B2:  BRA    61B0
061B4:  MOVWF  FAD
061B6:  MOVFF  447,44C
061BA:  MOVLW  1B
061BC:  MOVWF  x4D
061BE:  MOVLB  0
061C0:  CALL   4A00
061C4:  MOVLW  1B
061C6:  MOVWF  FF6
061C8:  MOVLW  02
061CA:  MOVWF  FF7
061CC:  MOVLW  00
061CE:  MOVWF  FF8
061D0:  MOVLW  0D
061D2:  MOVLB  4
061D4:  MOVWF  x4C
061D6:  MOVLB  0
061D8:  CALL   49A2
....................       SendDataDisplay(); 
061DC:  CALL   39EA
....................    }else if(ACiclos[i]==3){ 
061E0:  BRA    665C
061E2:  MOVLB  3
061E4:  CLRF   03
061E6:  MOVF   x68,W
061E8:  ADDLW  18
061EA:  MOVWF  FE9
061EC:  MOVLW  04
061EE:  ADDWFC 03,W
061F0:  MOVWF  FEA
061F2:  MOVF   FEF,W
061F4:  SUBLW  03
061F6:  BNZ   6236
....................       printf("A%u.txt=\"Termostato\"",i+1); 
061F8:  MOVLW  01
061FA:  ADDWF  x68,W
061FC:  MOVLB  4
061FE:  MOVWF  x47
06200:  MOVLW  41
06202:  BTFSS  F9E.4
06204:  BRA    6202
06206:  MOVWF  FAD
06208:  MOVFF  447,44C
0620C:  MOVLW  1B
0620E:  MOVWF  x4D
06210:  MOVLB  0
06212:  CALL   4A00
06216:  MOVLW  2D
06218:  MOVWF  FF6
0621A:  MOVLW  02
0621C:  MOVWF  FF7
0621E:  MOVLW  00
06220:  MOVWF  FF8
06222:  MOVLW  11
06224:  MOVLB  4
06226:  MOVWF  x4C
06228:  MOVLB  0
0622A:  CALL   49A2
....................       SendDataDisplay(); 
0622E:  CALL   39EA
....................    }else if(ACiclos[i]==4){ 
06232:  BRA    665C
06234:  MOVLB  3
06236:  CLRF   03
06238:  MOVF   x68,W
0623A:  ADDLW  18
0623C:  MOVWF  FE9
0623E:  MOVLW  04
06240:  ADDWFC 03,W
06242:  MOVWF  FEA
06244:  MOVF   FEF,W
06246:  SUBLW  04
06248:  BNZ   6288
....................       printf("A%u.txt=\"SobreT\"",i+1); 
0624A:  MOVLW  01
0624C:  ADDWF  x68,W
0624E:  MOVLB  4
06250:  MOVWF  x47
06252:  MOVLW  41
06254:  BTFSS  F9E.4
06256:  BRA    6254
06258:  MOVWF  FAD
0625A:  MOVFF  447,44C
0625E:  MOVLW  1B
06260:  MOVWF  x4D
06262:  MOVLB  0
06264:  CALL   4A00
06268:  MOVLW  43
0626A:  MOVWF  FF6
0626C:  MOVLW  02
0626E:  MOVWF  FF7
06270:  MOVLW  00
06272:  MOVWF  FF8
06274:  MOVLW  0D
06276:  MOVLB  4
06278:  MOVWF  x4C
0627A:  MOVLB  0
0627C:  CALL   49A2
....................       SendDataDisplay(); 
06280:  CALL   39EA
....................    }else if(ACiclos[i]==5){ 
06284:  BRA    665C
06286:  MOVLB  3
06288:  CLRF   03
0628A:  MOVF   x68,W
0628C:  ADDLW  18
0628E:  MOVWF  FE9
06290:  MOVLW  04
06292:  ADDWFC 03,W
06294:  MOVWF  FEA
06296:  MOVF   FEF,W
06298:  SUBLW  05
0629A:  BNZ   62DA
....................       printf("A%u.txt=\"Tiempo\"",i+1); 
0629C:  MOVLW  01
0629E:  ADDWF  x68,W
062A0:  MOVLB  4
062A2:  MOVWF  x47
062A4:  MOVLW  41
062A6:  BTFSS  F9E.4
062A8:  BRA    62A6
062AA:  MOVWF  FAD
062AC:  MOVFF  447,44C
062B0:  MOVLW  1B
062B2:  MOVWF  x4D
062B4:  MOVLB  0
062B6:  CALL   4A00
062BA:  MOVLW  55
062BC:  MOVWF  FF6
062BE:  MOVLW  02
062C0:  MOVWF  FF7
062C2:  MOVLW  00
062C4:  MOVWF  FF8
062C6:  MOVLW  0D
062C8:  MOVLB  4
062CA:  MOVWF  x4C
062CC:  MOVLB  0
062CE:  CALL   49A2
....................       SendDataDisplay(); 
062D2:  CALL   39EA
....................    }else if(ACiclos[i]==6){ 
062D6:  BRA    665C
062D8:  MOVLB  3
062DA:  CLRF   03
062DC:  MOVF   x68,W
062DE:  ADDLW  18
062E0:  MOVWF  FE9
062E2:  MOVLW  04
062E4:  ADDWFC 03,W
062E6:  MOVWF  FEA
062E8:  MOVF   FEF,W
062EA:  SUBLW  06
062EC:  BNZ   632C
....................       printf("A%u.txt=\"Presion\"",i+1); 
062EE:  MOVLW  01
062F0:  ADDWF  x68,W
062F2:  MOVLB  4
062F4:  MOVWF  x47
062F6:  MOVLW  41
062F8:  BTFSS  F9E.4
062FA:  BRA    62F8
062FC:  MOVWF  FAD
062FE:  MOVFF  447,44C
06302:  MOVLW  1B
06304:  MOVWF  x4D
06306:  MOVLB  0
06308:  CALL   4A00
0630C:  MOVLW  67
0630E:  MOVWF  FF6
06310:  MOVLW  02
06312:  MOVWF  FF7
06314:  MOVLW  00
06316:  MOVWF  FF8
06318:  MOVLW  0E
0631A:  MOVLB  4
0631C:  MOVWF  x4C
0631E:  MOVLB  0
06320:  CALL   49A2
....................       SendDataDisplay(); 
06324:  CALL   39EA
....................    }else if(ACiclos[i]==7){ 
06328:  BRA    665C
0632A:  MOVLB  3
0632C:  CLRF   03
0632E:  MOVF   x68,W
06330:  ADDLW  18
06332:  MOVWF  FE9
06334:  MOVLW  04
06336:  ADDWFC 03,W
06338:  MOVWF  FEA
0633A:  MOVF   FEF,W
0633C:  SUBLW  07
0633E:  BNZ   637E
....................       printf("A%u.txt=\"ERR Ciclo\"",i+1); 
06340:  MOVLW  01
06342:  ADDWF  x68,W
06344:  MOVLB  4
06346:  MOVWF  x47
06348:  MOVLW  41
0634A:  BTFSS  F9E.4
0634C:  BRA    634A
0634E:  MOVWF  FAD
06350:  MOVFF  447,44C
06354:  MOVLW  1B
06356:  MOVWF  x4D
06358:  MOVLB  0
0635A:  CALL   4A00
0635E:  MOVLW  79
06360:  MOVWF  FF6
06362:  MOVLW  02
06364:  MOVWF  FF7
06366:  MOVLW  00
06368:  MOVWF  FF8
0636A:  MOVLW  10
0636C:  MOVLB  4
0636E:  MOVWF  x4C
06370:  MOVLB  0
06372:  CALL   49A2
....................       SendDataDisplay(); 
06376:  CALL   39EA
....................    }else if(ACiclos[i]==8){ 
0637A:  BRA    665C
0637C:  MOVLB  3
0637E:  CLRF   03
06380:  MOVF   x68,W
06382:  ADDLW  18
06384:  MOVWF  FE9
06386:  MOVLW  04
06388:  ADDWFC 03,W
0638A:  MOVWF  FEA
0638C:  MOVF   FEF,W
0638E:  SUBLW  08
06390:  BNZ   63D0
....................       printf("A%u.txt=\"Llenado\"",i+1); 
06392:  MOVLW  01
06394:  ADDWF  x68,W
06396:  MOVLB  4
06398:  MOVWF  x47
0639A:  MOVLW  41
0639C:  BTFSS  F9E.4
0639E:  BRA    639C
063A0:  MOVWF  FAD
063A2:  MOVFF  447,44C
063A6:  MOVLW  1B
063A8:  MOVWF  x4D
063AA:  MOVLB  0
063AC:  CALL   4A00
063B0:  MOVLW  8D
063B2:  MOVWF  FF6
063B4:  MOVLW  02
063B6:  MOVWF  FF7
063B8:  MOVLW  00
063BA:  MOVWF  FF8
063BC:  MOVLW  0E
063BE:  MOVLB  4
063C0:  MOVWF  x4C
063C2:  MOVLB  0
063C4:  CALL   49A2
....................       SendDataDisplay(); 
063C8:  CALL   39EA
....................    }else if(ACiclos[i]==10){ 
063CC:  BRA    665C
063CE:  MOVLB  3
063D0:  CLRF   03
063D2:  MOVF   x68,W
063D4:  ADDLW  18
063D6:  MOVWF  FE9
063D8:  MOVLW  04
063DA:  ADDWFC 03,W
063DC:  MOVWF  FEA
063DE:  MOVF   FEF,W
063E0:  SUBLW  0A
063E2:  BNZ   6422
....................       printf("A%u.txt=\"Llenando\"",i+1); 
063E4:  MOVLW  01
063E6:  ADDWF  x68,W
063E8:  MOVLB  4
063EA:  MOVWF  x47
063EC:  MOVLW  41
063EE:  BTFSS  F9E.4
063F0:  BRA    63EE
063F2:  MOVWF  FAD
063F4:  MOVFF  447,44C
063F8:  MOVLW  1B
063FA:  MOVWF  x4D
063FC:  MOVLB  0
063FE:  CALL   4A00
06402:  MOVLW  9F
06404:  MOVWF  FF6
06406:  MOVLW  02
06408:  MOVWF  FF7
0640A:  MOVLW  00
0640C:  MOVWF  FF8
0640E:  MOVLW  0F
06410:  MOVLB  4
06412:  MOVWF  x4C
06414:  MOVLB  0
06416:  CALL   49A2
....................       SendDataDisplay(); 
0641A:  CALL   39EA
....................    }else if(ACiclos[i]==11){ 
0641E:  BRA    665C
06420:  MOVLB  3
06422:  CLRF   03
06424:  MOVF   x68,W
06426:  ADDLW  18
06428:  MOVWF  FE9
0642A:  MOVLW  04
0642C:  ADDWFC 03,W
0642E:  MOVWF  FEA
06430:  MOVF   FEF,W
06432:  SUBLW  0B
06434:  BNZ   6474
....................       printf("A%u.txt=\"Vacio\"",i+1); 
06436:  MOVLW  01
06438:  ADDWF  x68,W
0643A:  MOVLB  4
0643C:  MOVWF  x47
0643E:  MOVLW  41
06440:  BTFSS  F9E.4
06442:  BRA    6440
06444:  MOVWF  FAD
06446:  MOVFF  447,44C
0644A:  MOVLW  1B
0644C:  MOVWF  x4D
0644E:  MOVLB  0
06450:  CALL   4A00
06454:  MOVLW  B3
06456:  MOVWF  FF6
06458:  MOVLW  02
0645A:  MOVWF  FF7
0645C:  MOVLW  00
0645E:  MOVWF  FF8
06460:  MOVLW  0C
06462:  MOVLB  4
06464:  MOVWF  x4C
06466:  MOVLB  0
06468:  CALL   49A2
....................       SendDataDisplay(); 
0646C:  CALL   39EA
....................    }else if(ACiclos[i]==12){ 
06470:  BRA    665C
06472:  MOVLB  3
06474:  CLRF   03
06476:  MOVF   x68,W
06478:  ADDLW  18
0647A:  MOVWF  FE9
0647C:  MOVLW  04
0647E:  ADDWFC 03,W
06480:  MOVWF  FEA
06482:  MOVF   FEF,W
06484:  SUBLW  0C
06486:  BNZ   64C6
....................       printf("A%u.txt=\"Calen\"",i+1); 
06488:  MOVLW  01
0648A:  ADDWF  x68,W
0648C:  MOVLB  4
0648E:  MOVWF  x47
06490:  MOVLW  41
06492:  BTFSS  F9E.4
06494:  BRA    6492
06496:  MOVWF  FAD
06498:  MOVFF  447,44C
0649C:  MOVLW  1B
0649E:  MOVWF  x4D
064A0:  MOVLB  0
064A2:  CALL   4A00
064A6:  MOVLW  C3
064A8:  MOVWF  FF6
064AA:  MOVLW  02
064AC:  MOVWF  FF7
064AE:  MOVLW  00
064B0:  MOVWF  FF8
064B2:  MOVLW  0C
064B4:  MOVLB  4
064B6:  MOVWF  x4C
064B8:  MOVLB  0
064BA:  CALL   49A2
....................       SendDataDisplay(); 
064BE:  CALL   39EA
....................    }else if(ACiclos[i]==13){ 
064C2:  BRA    665C
064C4:  MOVLB  3
064C6:  CLRF   03
064C8:  MOVF   x68,W
064CA:  ADDLW  18
064CC:  MOVWF  FE9
064CE:  MOVLW  04
064D0:  ADDWFC 03,W
064D2:  MOVWF  FEA
064D4:  MOVF   FEF,W
064D6:  SUBLW  0D
064D8:  BNZ   6518
....................       printf("A%u.txt=\"Desfoga\"",i+1); 
064DA:  MOVLW  01
064DC:  ADDWF  x68,W
064DE:  MOVLB  4
064E0:  MOVWF  x47
064E2:  MOVLW  41
064E4:  BTFSS  F9E.4
064E6:  BRA    64E4
064E8:  MOVWF  FAD
064EA:  MOVFF  447,44C
064EE:  MOVLW  1B
064F0:  MOVWF  x4D
064F2:  MOVLB  0
064F4:  CALL   4A00
064F8:  MOVLW  D3
064FA:  MOVWF  FF6
064FC:  MOVLW  02
064FE:  MOVWF  FF7
06500:  MOVLW  00
06502:  MOVWF  FF8
06504:  MOVLW  0E
06506:  MOVLB  4
06508:  MOVWF  x4C
0650A:  MOVLB  0
0650C:  CALL   49A2
....................       SendDataDisplay(); 
06510:  CALL   39EA
....................    }else if(ACiclos[i]==14){ 
06514:  BRA    665C
06516:  MOVLB  3
06518:  CLRF   03
0651A:  MOVF   x68,W
0651C:  ADDLW  18
0651E:  MOVWF  FE9
06520:  MOVLW  04
06522:  ADDWFC 03,W
06524:  MOVWF  FEA
06526:  MOVF   FEF,W
06528:  SUBLW  0E
0652A:  BNZ   656A
....................       printf("A%u.txt=\"Finalizado\"",i+1); 
0652C:  MOVLW  01
0652E:  ADDWF  x68,W
06530:  MOVLB  4
06532:  MOVWF  x47
06534:  MOVLW  41
06536:  BTFSS  F9E.4
06538:  BRA    6536
0653A:  MOVWF  FAD
0653C:  MOVFF  447,44C
06540:  MOVLW  1B
06542:  MOVWF  x4D
06544:  MOVLB  0
06546:  CALL   4A00
0654A:  MOVLW  E5
0654C:  MOVWF  FF6
0654E:  MOVLW  02
06550:  MOVWF  FF7
06552:  MOVLW  00
06554:  MOVWF  FF8
06556:  MOVLW  11
06558:  MOVLB  4
0655A:  MOVWF  x4C
0655C:  MOVLB  0
0655E:  CALL   49A2
....................       SendDataDisplay(); 
06562:  CALL   39EA
....................    }else if(ACiclos[i]==15){ 
06566:  BRA    665C
06568:  MOVLB  3
0656A:  CLRF   03
0656C:  MOVF   x68,W
0656E:  ADDLW  18
06570:  MOVWF  FE9
06572:  MOVLW  04
06574:  ADDWFC 03,W
06576:  MOVWF  FEA
06578:  MOVF   FEF,W
0657A:  SUBLW  0F
0657C:  BNZ   65BC
....................       printf("A%u.txt=\"Secando\"",i+1); 
0657E:  MOVLW  01
06580:  ADDWF  x68,W
06582:  MOVLB  4
06584:  MOVWF  x47
06586:  MOVLW  41
06588:  BTFSS  F9E.4
0658A:  BRA    6588
0658C:  MOVWF  FAD
0658E:  MOVFF  447,44C
06592:  MOVLW  1B
06594:  MOVWF  x4D
06596:  MOVLB  0
06598:  CALL   4A00
0659C:  MOVLW  FB
0659E:  MOVWF  FF6
065A0:  MOVLW  02
065A2:  MOVWF  FF7
065A4:  MOVLW  00
065A6:  MOVWF  FF8
065A8:  MOVLW  0E
065AA:  MOVLB  4
065AC:  MOVWF  x4C
065AE:  MOVLB  0
065B0:  CALL   49A2
....................       SendDataDisplay(); 
065B4:  CALL   39EA
....................    }else if(ACiclos[i]==16){ 
065B8:  BRA    665C
065BA:  MOVLB  3
065BC:  CLRF   03
065BE:  MOVF   x68,W
065C0:  ADDLW  18
065C2:  MOVWF  FE9
065C4:  MOVLW  04
065C6:  ADDWFC 03,W
065C8:  MOVWF  FEA
065CA:  MOVF   FEF,W
065CC:  SUBLW  10
065CE:  BNZ   660E
....................       printf("A%u.txt=\"Esterilizando\"",i+1); 
065D0:  MOVLW  01
065D2:  ADDWF  x68,W
065D4:  MOVLB  4
065D6:  MOVWF  x47
065D8:  MOVLW  41
065DA:  BTFSS  F9E.4
065DC:  BRA    65DA
065DE:  MOVWF  FAD
065E0:  MOVFF  447,44C
065E4:  MOVLW  1B
065E6:  MOVWF  x4D
065E8:  MOVLB  0
065EA:  CALL   4A00
065EE:  MOVLW  0D
065F0:  MOVWF  FF6
065F2:  MOVLW  03
065F4:  MOVWF  FF7
065F6:  MOVLW  00
065F8:  MOVWF  FF8
065FA:  MOVLW  14
065FC:  MOVLB  4
065FE:  MOVWF  x4C
06600:  MOVLB  0
06602:  CALL   49A2
....................       SendDataDisplay(); 
06606:  CALL   39EA
....................    }else if(ACiclos[i]==17){ 
0660A:  BRA    665C
0660C:  MOVLB  3
0660E:  CLRF   03
06610:  MOVF   x68,W
06612:  ADDLW  18
06614:  MOVWF  FE9
06616:  MOVLW  04
06618:  ADDWFC 03,W
0661A:  MOVWF  FEA
0661C:  MOVF   FEF,W
0661E:  SUBLW  11
06620:  BNZ   665E
....................       printf("A%u.txt=\"Enfriando\"",i+1); 
06622:  MOVLW  01
06624:  ADDWF  x68,W
06626:  MOVLB  4
06628:  MOVWF  x47
0662A:  MOVLW  41
0662C:  BTFSS  F9E.4
0662E:  BRA    662C
06630:  MOVWF  FAD
06632:  MOVFF  447,44C
06636:  MOVLW  1B
06638:  MOVWF  x4D
0663A:  MOVLB  0
0663C:  CALL   4A00
06640:  MOVLW  25
06642:  MOVWF  FF6
06644:  MOVLW  03
06646:  MOVWF  FF7
06648:  MOVLW  00
0664A:  MOVWF  FF8
0664C:  MOVLW  10
0664E:  MOVLB  4
06650:  MOVWF  x4C
06652:  MOVLB  0
06654:  CALL   49A2
....................       SendDataDisplay(); 
06658:  CALL   39EA
0665C:  MOVLB  3
....................    } 
.................... } 
0665E:  MOVLB  0
06660:  GOTO   C0FC (RETURN)
....................  
.................... #ifdef Generador 
.................... void ControlaPresionChaqueta(){ 
....................    if(Setpoint<125){ 
*
06F1E:  MOVLB  3
06F20:  MOVF   x6C,W
06F22:  SUBLW  7C
06F24:  BNC   6F82
....................       if(PresionPreCamara<110){ 
06F26:  MOVF   x82,F
06F28:  BNZ   6F3A
06F2A:  MOVF   x81,W
06F2C:  SUBLW  6D
06F2E:  BNC   6F3A
....................          SSR_on; 
06F30:  BSF    F8D.1
06F32:  BCF    F96.1
....................          SSR2_on; 
06F34:  BSF    F8D.2
06F36:  BCF    F96.2
....................       }else if(PresionPreCamara>120){ 
06F38:  BRA    6F80
06F3A:  MOVF   x82,F
06F3C:  BNZ   6F44
06F3E:  MOVF   x81,W
06F40:  SUBLW  78
06F42:  BC    6F80
....................          SSR_off; 
06F44:  BCF    F8D.1
06F46:  BCF    F96.1
....................          SSR2_off; 
06F48:  BCF    F8D.2
06F4A:  BCF    F96.2
....................          if(!Precalentamiento && guardaCiclo){ 
06F4C:  MOVLB  0
06F4E:  BTFSC  xA0.7
06F50:  BRA    6F7E
06F52:  BTFSS  xA4.6
06F54:  BRA    6F7E
....................             Precalentamiento=ON; 
06F56:  BSF    xA0.7
....................             if(DOOR){ 
06F58:  BSF    F93.6
06F5A:  BTFSC  F81.6
06F5C:  BRA    6F7E
....................                Paso_on; 
06F5E:  BCF    F8B.0
06F60:  BCF    F94.0
....................                delay_ms(1500); 
06F62:  MOVLW  06
06F64:  MOVLB  4
06F66:  MOVWF  x47
06F68:  MOVLW  FA
06F6A:  MOVWF  x5C
06F6C:  MOVLB  0
06F6E:  CALL   1AF4
06F72:  MOVLB  4
06F74:  DECFSZ x47,F
06F76:  BRA    6F68
....................                Paso_off; 
06F78:  BSF    F8B.0
06F7A:  BCF    F94.0
06F7C:  MOVLB  0
06F7E:  MOVLB  3
....................             } 
....................          } 
....................       } 
....................    }else{ 
06F80:  BRA    6FDC
....................       if(PresionPreCamara<200){ 
06F82:  MOVF   x82,F
06F84:  BNZ   6F96
06F86:  MOVF   x81,W
06F88:  SUBLW  C7
06F8A:  BNC   6F96
....................          SSR_on; 
06F8C:  BSF    F8D.1
06F8E:  BCF    F96.1
....................          SSR2_on; 
06F90:  BSF    F8D.2
06F92:  BCF    F96.2
....................       }else if(PresionPreCamara>215){ 
06F94:  BRA    6FDC
06F96:  MOVF   x82,F
06F98:  BNZ   6FA0
06F9A:  MOVF   x81,W
06F9C:  SUBLW  D7
06F9E:  BC    6FDC
....................          SSR_off; 
06FA0:  BCF    F8D.1
06FA2:  BCF    F96.1
....................          SSR2_off; 
06FA4:  BCF    F8D.2
06FA6:  BCF    F96.2
....................          if(!Precalentamiento && guardaCiclo){ 
06FA8:  MOVLB  0
06FAA:  BTFSC  xA0.7
06FAC:  BRA    6FDA
06FAE:  BTFSS  xA4.6
06FB0:  BRA    6FDA
....................             Precalentamiento=ON; 
06FB2:  BSF    xA0.7
....................             if(DOOR){ 
06FB4:  BSF    F93.6
06FB6:  BTFSC  F81.6
06FB8:  BRA    6FDA
....................                Paso_on; 
06FBA:  BCF    F8B.0
06FBC:  BCF    F94.0
....................                delay_ms(1500); 
06FBE:  MOVLW  06
06FC0:  MOVLB  4
06FC2:  MOVWF  x47
06FC4:  MOVLW  FA
06FC6:  MOVWF  x5C
06FC8:  MOVLB  0
06FCA:  CALL   1AF4
06FCE:  MOVLB  4
06FD0:  DECFSZ x47,F
06FD2:  BRA    6FC4
....................                Paso_off; 
06FD4:  BSF    F8B.0
06FD6:  BCF    F94.0
06FD8:  MOVLB  0
06FDA:  MOVLB  3
....................             } 
....................          } 
....................       } 
....................    } 
.................... } 
06FDC:  MOVLB  0
06FDE:  GOTO   C98A (RETURN)
....................  
.................... void monitoreaAgua(){  
....................    if(!guardaCiclo && CalderinLleno){ 
*
06E90:  BTFSC  xA4.6
06E92:  BRA    6E9E
06E94:  BTFSS  xA0.0
06E96:  BRA    6E9E
....................       //ControlaPresionChaqueta(); 
....................       Agua_off;       
06E98:  BSF    F8B.2
06E9A:  BCF    F94.2
....................    }else if(!guardaCiclo && !CalderinLleno){ 
06E9C:  BRA    6EC6
06E9E:  BTFSC  xA4.6
06EA0:  BRA    6EAC
06EA2:  BTFSC  xA0.0
06EA4:  BRA    6EAC
....................       Agua_on; 
06EA6:  BCF    F8B.2
06EA8:  BCF    F94.2
....................    }else if(guardaCiclo && !CalderinLleno){ 
06EAA:  BRA    6EC6
06EAC:  BTFSS  xA4.6
06EAE:  BRA    6EBA
06EB0:  BTFSC  xA0.0
06EB2:  BRA    6EBA
....................       Agua_on; 
06EB4:  BCF    F8B.2
06EB6:  BCF    F94.2
....................    }else if(guardaCiclo && CalderinLleno){ 
06EB8:  BRA    6EC6
06EBA:  BTFSS  xA4.6
06EBC:  BRA    6EC6
06EBE:  BTFSS  xA0.0
06EC0:  BRA    6EC6
....................       Agua_off; 
06EC2:  BSF    F8B.2
06EC4:  BCF    F94.2
....................    } 
....................     
....................    if(!LOW){//Si no sensa agua en el nivel alto y no se ha llenado el calderin          
06EC6:  BTFSC  xA5.4
06EC8:  BRA    6ED4
....................       SensadoNivelL=ON;  
06ECA:  BSF    xA2.0
....................       Controlando=0;    
06ECC:  MOVLB  3
06ECE:  CLRF   x5D
....................    }else{ 
06ED0:  BRA    6EDC
06ED2:  MOVLB  0
....................       NivelBajo=ON; 
06ED4:  BSF    xA3.2
....................       tNivelBajo=0; 
06ED6:  CLRF   xB3
06ED8:  CLRF   xB2
....................       SensadoNivelL=OFF; 
06EDA:  BCF    xA2.0
....................    } 
....................    
....................    if(tNivelBajo>3){ 
06EDC:  MOVLB  0
06EDE:  MOVF   xB3,F
06EE0:  BNZ   6EE8
06EE2:  MOVF   xB2,W
06EE4:  SUBLW  03
06EE6:  BC    6EF8
....................       SensadoNivelL=OFF; 
06EE8:  BCF    xA2.0
....................       NivelBajo=OFF; 
06EEA:  BCF    xA3.2
....................       TiempoSensadoNivel=0; 
06EEC:  CLRF   xAB
06EEE:  CLRF   xAA
....................       SensadoNivel=OFF; 
06EF0:  BCF    xA0.4
....................       if(!Esterilizando) 
06EF2:  BTFSC  xA0.2
06EF4:  BRA    6EF8
....................          CalderinLleno=OFF; 
06EF6:  BCF    xA0.0
....................    } 
....................    
....................    if(NivelBajo){ 
06EF8:  BTFSS  xA3.2
06EFA:  BRA    6F1A
....................       if(HIG){ 
06EFC:  BTFSS  xA5.5
06EFE:  BRA    6F14
....................          SensadoNivel=ON; 
06F00:  BSF    xA0.4
....................          if(TiempoSensadoNivel>=3){ 
06F02:  MOVF   xAB,F
06F04:  BNZ   6F0C
06F06:  MOVF   xAA,W
06F08:  SUBLW  02
06F0A:  BC    6F12
....................             SensadoNivel=OFF; 
06F0C:  BCF    xA0.4
....................             CalderinLleno=ON; 
06F0E:  BSF    xA0.0
....................             IniciaLlenado=OFF;                   
06F10:  BCF    x9F.7
....................          } 
....................       }else{ 
06F12:  BRA    6F1A
....................          SensadoNivel=OFF; 
06F14:  BCF    xA0.4
....................          TiempoSensadoNivel=0; 
06F16:  CLRF   xAB
06F18:  CLRF   xAA
....................       } 
....................    }   
.................... } 
06F1A:  GOTO   C8F4 (RETURN)
.................... #else 
.................... void enciendeBombaAgua(){ 
....................    if(tBombaAgua>120){//Enciende 120 segundos 
....................       Agua_off; 
....................       Bomba_off; 
....................       flagBombaAgua=OFF; 
....................       flagBombaAguaOff=ON; 
....................       if(tBombaAguaOff>=60){//Apaga 60 segundos 
....................          tBombaAgua=0; 
....................       } 
....................    }else{ 
....................       Agua_on; 
....................       Bomba_on; 
....................       flagBombaAgua=ON; 
....................       flagBombaAguaOff=OFF; 
....................       tBombaAguaOff=0; 
....................    } 
.................... } 
....................  
.................... void apagaBombaAgua(){ 
....................    Agua_off; 
....................    Bomba_off; 
....................    flagBombaAgua=OFF; 
....................    flagBombaAguaOff=OFF; 
....................    tBombaAguaOff=0; 
....................    tBombaAgua=0; 
.................... } 
.................... #endif 
....................  
.................... void revisePresion(){ 
....................    if(DOOR){ 
*
04E72:  BSF    F93.6
04E74:  BTFSC  F81.6
04E76:  BRA    5196
....................          if(PresionCamara>=Atmosferica+22){ 
04E78:  MOVLW  16
04E7A:  MOVLB  3
04E7C:  ADDWF  xB6,W
04E7E:  MOVF   x80,F
04E80:  BNZ   4E88
04E82:  SUBWF  x7F,W
04E84:  BTFSS  FD8.0
04E86:  BRA    4F86
....................             ActivaAlarma(3); 
04E88:  MOVLW  03
04E8A:  MOVLB  4
04E8C:  MOVWF  x47
04E8E:  MOVLB  0
04E90:  RCALL  4842
....................             if(flagBuzzer){ 
04E92:  BTFSS  xA3.5
04E94:  BRA    4F6E
....................                printf("fecha.txt=\"Pc:%03Ld kPa Pp:%03Lu kPa T:%2.1fC Hora:%02u:%02u:%02u\"",PresionCamara,PresionPrecamara,Temperatura,Hora,Minuto,Segundo); 
04E96:  MOVLW  36
04E98:  MOVWF  FF6
04E9A:  MOVLW  03
04E9C:  MOVWF  FF7
04E9E:  MOVLW  00
04EA0:  MOVWF  FF8
04EA2:  MOVLW  0E
04EA4:  MOVLB  4
04EA6:  MOVWF  x4C
04EA8:  MOVLB  0
04EAA:  RCALL  49A2
04EAC:  MOVLW  0B
04EAE:  MOVWF  FE9
04EB0:  MOVFF  380,448
04EB4:  MOVFF  37F,447
04EB8:  RCALL  4A7E
04EBA:  MOVLW  49
04EBC:  MOVWF  FF6
04EBE:  MOVLW  03
04EC0:  MOVWF  FF7
04EC2:  MOVLW  00
04EC4:  MOVWF  FF8
04EC6:  MOVLW  08
04EC8:  MOVLB  4
04ECA:  MOVWF  x4C
04ECC:  MOVLB  0
04ECE:  RCALL  49A2
04ED0:  MOVLW  0A
04ED2:  MOVWF  FE9
04ED4:  MOVFF  382,44C
04ED8:  MOVFF  381,44B
04EDC:  RCALL  4B60
04EDE:  MOVLW  56
04EE0:  MOVWF  FF6
04EE2:  MOVLW  03
04EE4:  MOVWF  FF7
04EE6:  MOVLW  00
04EE8:  MOVWF  FF8
04EEA:  MOVLW  07
04EEC:  MOVLB  4
04EEE:  MOVWF  x4C
04EF0:  MOVLB  0
04EF2:  RCALL  49A2
04EF4:  MOVLW  01
04EF6:  MOVWF  FE9
04EF8:  MOVFF  332,44F
04EFC:  MOVFF  331,44E
04F00:  MOVFF  330,44D
04F04:  MOVFF  32F,44C
04F08:  MOVLB  4
04F0A:  MOVWF  x50
04F0C:  MOVLB  0
04F0E:  RCALL  4CCE
04F10:  MOVLW  62
04F12:  MOVWF  FF6
04F14:  MOVLW  03
04F16:  MOVWF  FF7
04F18:  MOVLW  00
04F1A:  MOVWF  FF8
04F1C:  MOVLW  08
04F1E:  MOVLB  4
04F20:  MOVWF  x4C
04F22:  MOVLB  0
04F24:  RCALL  49A2
04F26:  MOVFF  3A9,44C
04F2A:  MOVLW  01
04F2C:  MOVLB  4
04F2E:  MOVWF  x4D
04F30:  MOVLB  0
04F32:  RCALL  4A00
04F34:  MOVLW  3A
04F36:  BTFSS  F9E.4
04F38:  BRA    4F36
04F3A:  MOVWF  FAD
04F3C:  MOVFF  3AA,44C
04F40:  MOVLW  01
04F42:  MOVLB  4
04F44:  MOVWF  x4D
04F46:  MOVLB  0
04F48:  RCALL  4A00
04F4A:  MOVLW  3A
04F4C:  BTFSS  F9E.4
04F4E:  BRA    4F4C
04F50:  MOVWF  FAD
04F52:  MOVFF  3AB,44C
04F56:  MOVLW  01
04F58:  MOVLB  4
04F5A:  MOVWF  x4D
04F5C:  MOVLB  0
04F5E:  RCALL  4A00
04F60:  MOVLW  22
04F62:  BTFSS  F9E.4
04F64:  BRA    4F62
04F66:  MOVWF  FAD
....................                SendDataDisplay(); 
04F68:  CALL   39EA
....................             }else{ 
04F6C:  BRA    4F82
....................                printf("fecha.txt=\"!AUTOCLAVE PRESURIZADA, NO ABRA LA PUERTA!\""); 
04F6E:  MOVLW  7A
04F70:  MOVWF  FF6
04F72:  MOVLW  03
04F74:  MOVWF  FF7
04F76:  MOVLW  00
04F78:  MOVWF  FF8
04F7A:  CALL   39B8
....................                SendDataDisplay(); 
04F7E:  CALL   39EA
....................             } 
....................          }else if(PresionCamara>Atmosferica+3 && PresionCamara<Atmosferica+22){ 
04F82:  BRA    5190
04F84:  MOVLB  3
04F86:  MOVLW  03
04F88:  ADDWF  xB6,W
04F8A:  MOVF   x80,F
04F8C:  BNZ   4F98
04F8E:  SUBWF  x7F,W
04F90:  BTFSC  FD8.2
04F92:  BRA    50A6
04F94:  BTFSS  FD8.0
04F96:  BRA    50A6
04F98:  MOVLW  16
04F9A:  ADDWF  xB6,W
04F9C:  MOVF   x80,F
04F9E:  BTFSS  FD8.2
04FA0:  BRA    50A6
04FA2:  SUBWF  x7F,W
04FA4:  BTFSC  FD8.0
04FA6:  BRA    50A6
....................             ActivaAlarma(3); 
04FA8:  MOVLW  03
04FAA:  MOVLB  4
04FAC:  MOVWF  x47
04FAE:  MOVLB  0
04FB0:  RCALL  4842
....................             if(flagBuzzer){ 
04FB2:  BTFSS  xA3.5
04FB4:  BRA    508E
....................                printf("fecha.txt=\"Pc:%03Ld kPa Pp:%03Lu kPa T:%2.1fC Hora:%02u:%02u:%02u\"",PresionCamara,PresionPrecamara,Temperatura,Hora,Minuto,Segundo); 
04FB6:  MOVLW  B2
04FB8:  MOVWF  FF6
04FBA:  MOVLW  03
04FBC:  MOVWF  FF7
04FBE:  MOVLW  00
04FC0:  MOVWF  FF8
04FC2:  MOVLW  0E
04FC4:  MOVLB  4
04FC6:  MOVWF  x4C
04FC8:  MOVLB  0
04FCA:  RCALL  49A2
04FCC:  MOVLW  0B
04FCE:  MOVWF  FE9
04FD0:  MOVFF  380,448
04FD4:  MOVFF  37F,447
04FD8:  RCALL  4A7E
04FDA:  MOVLW  C5
04FDC:  MOVWF  FF6
04FDE:  MOVLW  03
04FE0:  MOVWF  FF7
04FE2:  MOVLW  00
04FE4:  MOVWF  FF8
04FE6:  MOVLW  08
04FE8:  MOVLB  4
04FEA:  MOVWF  x4C
04FEC:  MOVLB  0
04FEE:  RCALL  49A2
04FF0:  MOVLW  0A
04FF2:  MOVWF  FE9
04FF4:  MOVFF  382,44C
04FF8:  MOVFF  381,44B
04FFC:  RCALL  4B60
04FFE:  MOVLW  D2
05000:  MOVWF  FF6
05002:  MOVLW  03
05004:  MOVWF  FF7
05006:  MOVLW  00
05008:  MOVWF  FF8
0500A:  MOVLW  07
0500C:  MOVLB  4
0500E:  MOVWF  x4C
05010:  MOVLB  0
05012:  RCALL  49A2
05014:  MOVLW  01
05016:  MOVWF  FE9
05018:  MOVFF  332,44F
0501C:  MOVFF  331,44E
05020:  MOVFF  330,44D
05024:  MOVFF  32F,44C
05028:  MOVLB  4
0502A:  MOVWF  x50
0502C:  MOVLB  0
0502E:  RCALL  4CCE
05030:  MOVLW  DE
05032:  MOVWF  FF6
05034:  MOVLW  03
05036:  MOVWF  FF7
05038:  MOVLW  00
0503A:  MOVWF  FF8
0503C:  MOVLW  08
0503E:  MOVLB  4
05040:  MOVWF  x4C
05042:  MOVLB  0
05044:  RCALL  49A2
05046:  MOVFF  3A9,44C
0504A:  MOVLW  01
0504C:  MOVLB  4
0504E:  MOVWF  x4D
05050:  MOVLB  0
05052:  RCALL  4A00
05054:  MOVLW  3A
05056:  BTFSS  F9E.4
05058:  BRA    5056
0505A:  MOVWF  FAD
0505C:  MOVFF  3AA,44C
05060:  MOVLW  01
05062:  MOVLB  4
05064:  MOVWF  x4D
05066:  MOVLB  0
05068:  RCALL  4A00
0506A:  MOVLW  3A
0506C:  BTFSS  F9E.4
0506E:  BRA    506C
05070:  MOVWF  FAD
05072:  MOVFF  3AB,44C
05076:  MOVLW  01
05078:  MOVLB  4
0507A:  MOVWF  x4D
0507C:  MOVLB  0
0507E:  RCALL  4A00
05080:  MOVLW  22
05082:  BTFSS  F9E.4
05084:  BRA    5082
05086:  MOVWF  FAD
....................                SendDataDisplay(); 
05088:  CALL   39EA
....................             }else{ 
0508C:  BRA    50A2
....................                printf("fecha.txt=\"!AUTOCLAVE PRESURIZADA, ABRA CON PRECAUCION!\""); 
0508E:  MOVLW  F6
05090:  MOVWF  FF6
05092:  MOVLW  03
05094:  MOVWF  FF7
05096:  MOVLW  00
05098:  MOVWF  FF8
0509A:  CALL   39B8
....................                SendDataDisplay(); 
0509E:  CALL   39EA
....................             } 
....................          }else if(PresionCamara<= Atmosferica+3){    
050A2:  BRA    5190
050A4:  MOVLB  3
050A6:  MOVLW  03
050A8:  ADDWF  xB6,W
050AA:  MOVF   x80,F
050AC:  BTFSS  FD8.2
050AE:  BRA    5192
050B0:  SUBWF  x7F,W
050B2:  BZ    50B6
050B4:  BC    5192
....................             printf("fecha.txt=\"Pc:%03Ld kPa Pp:%03Lu kPa T:%2.1fC Hora:%02u:%02u:%02u\"",PresionCamara,PresionPrecamara,Temperatura,Hora,Minuto,Segundo); 
050B6:  MOVLW  30
050B8:  MOVWF  FF6
050BA:  MOVLW  04
050BC:  MOVWF  FF7
050BE:  MOVLW  00
050C0:  MOVWF  FF8
050C2:  MOVLW  0E
050C4:  MOVLB  4
050C6:  MOVWF  x4C
050C8:  MOVLB  0
050CA:  RCALL  49A2
050CC:  MOVLW  0B
050CE:  MOVWF  FE9
050D0:  MOVFF  380,448
050D4:  MOVFF  37F,447
050D8:  RCALL  4A7E
050DA:  MOVLW  43
050DC:  MOVWF  FF6
050DE:  MOVLW  04
050E0:  MOVWF  FF7
050E2:  MOVLW  00
050E4:  MOVWF  FF8
050E6:  MOVLW  08
050E8:  MOVLB  4
050EA:  MOVWF  x4C
050EC:  MOVLB  0
050EE:  RCALL  49A2
050F0:  MOVLW  0A
050F2:  MOVWF  FE9
050F4:  MOVFF  382,44C
050F8:  MOVFF  381,44B
050FC:  RCALL  4B60
050FE:  MOVLW  50
05100:  MOVWF  FF6
05102:  MOVLW  04
05104:  MOVWF  FF7
05106:  MOVLW  00
05108:  MOVWF  FF8
0510A:  MOVLW  07
0510C:  MOVLB  4
0510E:  MOVWF  x4C
05110:  MOVLB  0
05112:  RCALL  49A2
05114:  MOVLW  01
05116:  MOVWF  FE9
05118:  MOVFF  332,44F
0511C:  MOVFF  331,44E
05120:  MOVFF  330,44D
05124:  MOVFF  32F,44C
05128:  MOVLB  4
0512A:  MOVWF  x50
0512C:  MOVLB  0
0512E:  RCALL  4CCE
05130:  MOVLW  5C
05132:  MOVWF  FF6
05134:  MOVLW  04
05136:  MOVWF  FF7
05138:  MOVLW  00
0513A:  MOVWF  FF8
0513C:  MOVLW  08
0513E:  MOVLB  4
05140:  MOVWF  x4C
05142:  MOVLB  0
05144:  RCALL  49A2
05146:  MOVFF  3A9,44C
0514A:  MOVLW  01
0514C:  MOVLB  4
0514E:  MOVWF  x4D
05150:  MOVLB  0
05152:  RCALL  4A00
05154:  MOVLW  3A
05156:  BTFSS  F9E.4
05158:  BRA    5156
0515A:  MOVWF  FAD
0515C:  MOVFF  3AA,44C
05160:  MOVLW  01
05162:  MOVLB  4
05164:  MOVWF  x4D
05166:  MOVLB  0
05168:  RCALL  4A00
0516A:  MOVLW  3A
0516C:  BTFSS  F9E.4
0516E:  BRA    516C
05170:  MOVWF  FAD
05172:  MOVFF  3AB,44C
05176:  MOVLW  01
05178:  MOVLB  4
0517A:  MOVWF  x4D
0517C:  MOVLB  0
0517E:  RCALL  4A00
05180:  MOVLW  22
05182:  BTFSS  F9E.4
05184:  BRA    5182
05186:  MOVWF  FAD
....................             SendDataDisplay(); 
05188:  CALL   39EA
....................             Buzzer_off; 
0518C:  BCF    F8C.7
0518E:  BCF    F95.7
05190:  MOVLB  3
....................          } 
....................       }else{ 
05192:  BRA    5280
05194:  MOVLB  0
....................             printf("fecha.txt=\"Pc:%03Ld kPa Pp:%03Lu kPa T:%2.1fC Hora:%02u:%02u:%02u\"",PresionCamara,PresionPrecamara,Temperatura,Hora,Minuto,Segundo); 
05196:  MOVLW  74
05198:  MOVWF  FF6
0519A:  MOVLW  04
0519C:  MOVWF  FF7
0519E:  MOVLW  00
051A0:  MOVWF  FF8
051A2:  MOVLW  0E
051A4:  MOVLB  4
051A6:  MOVWF  x4C
051A8:  MOVLB  0
051AA:  CALL   49A2
051AE:  MOVLW  0B
051B0:  MOVWF  FE9
051B2:  MOVFF  380,448
051B6:  MOVFF  37F,447
051BA:  RCALL  4A7E
051BC:  MOVLW  87
051BE:  MOVWF  FF6
051C0:  MOVLW  04
051C2:  MOVWF  FF7
051C4:  MOVLW  00
051C6:  MOVWF  FF8
051C8:  MOVLW  08
051CA:  MOVLB  4
051CC:  MOVWF  x4C
051CE:  MOVLB  0
051D0:  CALL   49A2
051D4:  MOVLW  0A
051D6:  MOVWF  FE9
051D8:  MOVFF  382,44C
051DC:  MOVFF  381,44B
051E0:  RCALL  4B60
051E2:  MOVLW  94
051E4:  MOVWF  FF6
051E6:  MOVLW  04
051E8:  MOVWF  FF7
051EA:  MOVLW  00
051EC:  MOVWF  FF8
051EE:  MOVLW  07
051F0:  MOVLB  4
051F2:  MOVWF  x4C
051F4:  MOVLB  0
051F6:  CALL   49A2
051FA:  MOVLW  01
051FC:  MOVWF  FE9
051FE:  MOVFF  332,44F
05202:  MOVFF  331,44E
05206:  MOVFF  330,44D
0520A:  MOVFF  32F,44C
0520E:  MOVLB  4
05210:  MOVWF  x50
05212:  MOVLB  0
05214:  RCALL  4CCE
05216:  MOVLW  A0
05218:  MOVWF  FF6
0521A:  MOVLW  04
0521C:  MOVWF  FF7
0521E:  MOVLW  00
05220:  MOVWF  FF8
05222:  MOVLW  08
05224:  MOVLB  4
05226:  MOVWF  x4C
05228:  MOVLB  0
0522A:  CALL   49A2
0522E:  MOVFF  3A9,44C
05232:  MOVLW  01
05234:  MOVLB  4
05236:  MOVWF  x4D
05238:  MOVLB  0
0523A:  CALL   4A00
0523E:  MOVLW  3A
05240:  BTFSS  F9E.4
05242:  BRA    5240
05244:  MOVWF  FAD
05246:  MOVFF  3AA,44C
0524A:  MOVLW  01
0524C:  MOVLB  4
0524E:  MOVWF  x4D
05250:  MOVLB  0
05252:  CALL   4A00
05256:  MOVLW  3A
05258:  BTFSS  F9E.4
0525A:  BRA    5258
0525C:  MOVWF  FAD
0525E:  MOVFF  3AB,44C
05262:  MOVLW  01
05264:  MOVLB  4
05266:  MOVWF  x4D
05268:  MOVLB  0
0526A:  CALL   4A00
0526E:  MOVLW  22
05270:  BTFSS  F9E.4
05272:  BRA    5270
05274:  MOVWF  FAD
....................             SendDataDisplay(); 
05276:  CALL   39EA
....................             Buzzer_off; 
0527A:  BCF    F8C.7
0527C:  BCF    F95.7
0527E:  MOVLB  3
....................           
....................       } 
.................... } 
05280:  MOVLB  0
05282:  RETLW  00
....................  
.................... void purgaAire(){ 
....................    if(PresionCamara>Atmosferica+30 && !purgo){ 
*
075E8:  MOVLW  1E
075EA:  MOVLB  3
075EC:  ADDWF  xB6,W
075EE:  MOVF   x80,F
075F0:  BNZ   75F8
075F2:  SUBWF  x7F,W
075F4:  BZ    7608
075F6:  BNC   7608
075F8:  MOVLB  0
075FA:  BTFSS  xA3.3
075FC:  BRA    7602
075FE:  MOVLB  3
07600:  BRA    7608
....................       purgaAire2=ON; 
07602:  BSF    xA3.4
....................    }else{ 
07604:  BRA    7610
07606:  MOVLB  3
....................       purgaAire2=OFF; 
07608:  MOVLB  0
0760A:  BCF    xA3.4
....................       Desfogue_off; 
0760C:  BSF    F8B.1
0760E:  BCF    F94.1
....................    } 
....................     
....................    if(purgaAire2){ 
07610:  BTFSS  xA3.4
07612:  BRA    76D8
....................       if(tPurgaAire>0 && tPurgaAire<6){ 
07614:  MOVF   xB6,F
07616:  BNZ   761C
07618:  MOVF   xB7,F
0761A:  BZ    762C
0761C:  MOVF   xB7,F
0761E:  BNZ   762C
07620:  MOVF   xB6,W
07622:  SUBLW  05
07624:  BNC   762C
....................          Desfogue_on; 
07626:  BCF    F8B.1
07628:  BCF    F94.1
....................       }else if(tPurgaAire>=6 && tPurgaAire<66){ 
0762A:  BRA    76D8
0762C:  MOVF   xB7,F
0762E:  BNZ   7636
07630:  MOVF   xB6,W
07632:  SUBLW  05
07634:  BC    7646
07636:  MOVF   xB7,F
07638:  BNZ   7646
0763A:  MOVF   xB6,W
0763C:  SUBLW  41
0763E:  BNC   7646
....................          Desfogue_off; 
07640:  BSF    F8B.1
07642:  BCF    F94.1
....................       }else if(tPurgaAire>=66 && tPurgaAire<72){ 
07644:  BRA    76D8
07646:  MOVF   xB7,F
07648:  BNZ   7650
0764A:  MOVF   xB6,W
0764C:  SUBLW  41
0764E:  BC    7660
07650:  MOVF   xB7,F
07652:  BNZ   7660
07654:  MOVF   xB6,W
07656:  SUBLW  47
07658:  BNC   7660
....................          Desfogue_on; 
0765A:  BCF    F8B.1
0765C:  BCF    F94.1
....................       }else if(tPurgaAire>=72 && tPurgaAire<132){ 
0765E:  BRA    76D8
07660:  MOVF   xB7,F
07662:  BNZ   766A
07664:  MOVF   xB6,W
07666:  SUBLW  47
07668:  BC    767A
0766A:  MOVF   xB7,F
0766C:  BNZ   767A
0766E:  MOVF   xB6,W
07670:  SUBLW  83
07672:  BNC   767A
....................          Desfogue_off; 
07674:  BSF    F8B.1
07676:  BCF    F94.1
....................       }else if(tPurgaAire>=132 && tPurgaAire<138){ 
07678:  BRA    76D8
0767A:  MOVF   xB7,F
0767C:  BNZ   7684
0767E:  MOVF   xB6,W
07680:  SUBLW  83
07682:  BC    7694
07684:  MOVF   xB7,F
07686:  BNZ   7694
07688:  MOVF   xB6,W
0768A:  SUBLW  89
0768C:  BNC   7694
....................          Desfogue_on; 
0768E:  BCF    F8B.1
07690:  BCF    F94.1
....................       }else if(tPurgaAire>=138 && tPurgaAire<198){ 
07692:  BRA    76D8
07694:  MOVF   xB7,F
07696:  BNZ   769E
07698:  MOVF   xB6,W
0769A:  SUBLW  89
0769C:  BC    76AE
0769E:  MOVF   xB7,F
076A0:  BNZ   76AE
076A2:  MOVF   xB6,W
076A4:  SUBLW  C5
076A6:  BNC   76AE
....................          Desfogue_off; 
076A8:  BSF    F8B.1
076AA:  BCF    F94.1
....................       }else if(tPurgaAire>=198 && tPurgaAire<204){ 
076AC:  BRA    76D8
076AE:  MOVF   xB7,F
076B0:  BNZ   76B8
076B2:  MOVF   xB6,W
076B4:  SUBLW  C5
076B6:  BC    76C8
076B8:  MOVF   xB7,F
076BA:  BNZ   76C8
076BC:  MOVF   xB6,W
076BE:  SUBLW  CB
076C0:  BNC   76C8
....................          Desfogue_on; 
076C2:  BCF    F8B.1
076C4:  BCF    F94.1
....................       }else if(tPurgaAire>0){ 
076C6:  BRA    76D8
076C8:  MOVF   xB6,F
076CA:  BNZ   76D0
076CC:  MOVF   xB7,F
076CE:  BZ    76D8
....................          Desfogue_off; 
076D0:  BSF    F8B.1
076D2:  BCF    F94.1
....................          purgaAire2=OFF; 
076D4:  BCF    xA3.4
....................          purgo=ON; 
076D6:  BSF    xA3.3
....................       } 
....................    } 
....................  
.................... } 
076D8:  GOTO   CAFC (RETURN)
....................  
....................  
.................... #int_rda HIGH 
.................... void serial_rx_isr(){ 
....................  
....................    Dato2=fgetc(); 
*
004B8:  BTFSS  F9E.5
004BA:  BRA    04B8
004BC:  MOVFF  FAE,363
004C0:  MOVLB  3
....................    if(Dato2==0x65){//Inicio Comunicacion 
004C2:  MOVF   x63,W
004C4:  SUBLW  65
004C6:  BNZ   04CE
....................       Inicio=1; 
004C8:  MOVLW  01
004CA:  MOVWF  x61
....................       RX_Wr_Index =0; 
004CC:  CLRF   46
....................    } 
....................    //Inicio=1; 
....................    if(Inicio==1){ 
004CE:  DECFSZ x61,W
004D0:  BRA    04E6
....................       Rx_Buffer2[RX_Wr_Index] = Dato2; 
004D2:  CLRF   03
004D4:  MOVF   46,W
004D6:  ADDLW  3B
004D8:  MOVWF  FE9
004DA:  MOVLW  00
004DC:  ADDWFC 03,W
004DE:  MOVWF  FEA
004E0:  MOVFF  363,FEF
....................       RX_Wr_Index++; 
004E4:  INCF   46,F
....................    } 
....................    if(RX_Wr_Index >= RX_BUFFER_SIZE){ 
004E6:  MOVF   46,W
004E8:  SUBLW  09
004EA:  BC    04F0
....................       RX_Wr_Index =0; 
004EC:  CLRF   46
....................       Inicio=0; 
004EE:  CLRF   x61
....................    } 
....................  
....................    if(RX_Wr_Index==0){ 
004F0:  MOVF   46,F
004F2:  BNZ   0514
....................       if(Rx_Buffer2[0]==0x65 && Rx_Buffer2[1]==0xff && Rx_Buffer2[2]==0xff && Rx_Buffer2[8]==0x00 && Rx_Buffer2[9]==0xff ){ 
004F4:  MOVF   3B,W
004F6:  SUBLW  65
004F8:  BNZ   0510
004FA:  INCFSZ 3C,W
004FC:  BRA    0510
004FE:  INCFSZ 3D,W
00500:  BRA    0510
00502:  MOVF   43,F
00504:  BNZ   0510
00506:  INCFSZ 44,W
00508:  BRA    0510
....................          Dato_Exitoso=5; 
0050A:  MOVLW  05
0050C:  MOVWF  x62
....................       }else{ 
0050E:  BRA    0514
....................          Dato_Exitoso=10; 
00510:  MOVLW  0A
00512:  MOVWF  x62
....................       } 
....................    } 
....................    //Dato_Exitoso=5; 
....................    if(Menu==20) 
00514:  MOVF   x65,W
00516:  SUBLW  14
00518:  BNZ   051E
....................      Buzzer_on; 
0051A:  BSF    F8C.7
0051C:  BCF    F95.7
.................... } 
....................  
0051E:  BCF    F9E.5
00520:  MOVLB  0
00522:  GOTO   010A
.................... #int_TIMER0 
.................... void temp0s(void){ 
....................    set_timer0(0); 
00526:  CLRF   FD7
00528:  CLRF   FD6
....................    t_exhaust++; 
0052A:  MOVLB  3
0052C:  INCF   x9A,F
0052E:  BTFSC  FD8.2
00530:  INCF   x9B,F
....................    if(DesfogueSuave){ 
00532:  MOVLB  0
00534:  BTFSS  xA0.6
00536:  BRA    0578
....................       if(Nivel<6){ 
00538:  MOVLB  3
0053A:  MOVF   x7C,F
0053C:  BNZ   0572
0053E:  MOVF   x7B,W
00540:  SUBLW  05
00542:  BNC   0572
....................          if(t_exhaust<=NivelSeleccionado) // Si el tiempo es menor o igual al tiempo de control se enciende la resistencia de lo contrario se apaga. 
00544:  MOVF   x9B,W
00546:  SUBWF  x86,W
00548:  BNC   0558
0054A:  BNZ   0552
0054C:  MOVF   x9A,W
0054E:  SUBWF  x85,W
00550:  BNC   0558
....................             Desfogue_on; 
00552:  BCF    F8B.1
00554:  BCF    F94.1
....................          else             
00556:  BRA    055C
....................             Desfogue_off; 
00558:  BSF    F8B.1
0055A:  BCF    F94.1
....................        
....................          if(t_exhaust>=60000) // Si el tiempo de control es mayor al tiempo de ciclo se reinicia tiempo de control          
0055C:  MOVF   x9B,W
0055E:  SUBLW  E9
00560:  BC    0570
00562:  XORLW  FF
00564:  BNZ   056C
00566:  MOVF   x9A,W
00568:  SUBLW  5F
0056A:  BC    0570
....................             t_exhaust=0; // tiempoctrl incrementa una unidad cada Xms, por eso se dividen los tiempos por 0.005. 
0056C:  CLRF   x9B
0056E:  CLRF   x9A
....................       }else{ 
00570:  BRA    0576
....................          Desfogue_on; 
00572:  BCF    F8B.1
00574:  BCF    F94.1
00576:  MOVLB  0
....................       } 
....................    }   
.................... } 
....................  
00578:  BCF    FF2.2
0057A:  GOTO   0074
.................... #int_TIMER1 
.................... void temp1s(void){ 
....................    set_timer1(40536); // Se repite cada 5ms 
0057E:  MOVLW  9E
00580:  MOVWF  FCF
00582:  MOVLW  58
00584:  MOVWF  FCE
....................    tiempos++; 
00586:  MOVLB  3
00588:  INCF   x73,F
0058A:  BTFSC  FD8.2
0058C:  INCF   x74,F
....................    tiempos2++; 
0058E:  INCF   x75,F
00590:  BTFSC  FD8.2
00592:  INCF   x76,F
....................    tiempos3++; 
00594:  INCF   x77,F
00596:  BTFSC  FD8.2
00598:  INCF   x78,F
....................    tiempoctrl++; 
0059A:  INCF   x79,F
0059C:  BTFSC  FD8.2
0059E:  INCF   x7A,F
....................     
....................    if(!STOP){ 
005A0:  BSF    F93.5
005A2:  BTFSS  F81.5
005A4:  BRA    05AE
....................       tStop++; 
005A6:  INCF   xA2,F
005A8:  BTFSC  FD8.2
005AA:  INCF   xA3,F
....................    }else{ 
005AC:  BRA    05B2
....................       tStop=0; 
005AE:  CLRF   xA3
005B0:  CLRF   xA2
....................    } 
....................     
....................    if(!TERM){ 
005B2:  BSF    F93.4
005B4:  BTFSS  F81.4
005B6:  BRA    05C0
....................       tTermostato++; 
005B8:  INCF   xA4,F
005BA:  BTFSC  FD8.2
005BC:  INCF   xA5,F
....................    }else{ 
005BE:  BRA    05C4
....................       tTermostato=0; 
005C0:  CLRF   xA5
005C2:  CLRF   xA4
....................    } 
....................     
....................    if(flagAlarma) 
005C4:  MOVLB  0
005C6:  BTFSS  xA3.1
005C8:  BRA    05D4
....................       tbuzzer++; 
005CA:  MOVLB  3
005CC:  INCF   x9C,F
005CE:  BTFSC  FD8.2
005D0:  INCF   x9D,F
005D2:  MOVLB  0
....................        
....................    if(flagSilencio)    
005D4:  BTFSS  xA3.6
005D6:  BRA    05E0
....................       tsilencio++; 
005D8:  MOVLB  3
005DA:  INCF   x9E,F
005DC:  BTFSC  FD8.2
005DE:  INCF   x9F,F
....................     
....................    if(Controlando==1){ 
005E0:  MOVLB  3
005E2:  DECFSZ x5D,W
005E4:  BRA    062A
....................       if(tiempoctrl<Tp){ // Si el tiempo es menor o igual al tiempo de control se enciende la resistencia de lo contrario se apaga. 
005E6:  MOVF   x7A,W
005E8:  MOVLB  0
005EA:  SUBWF  xAD,W
005EC:  BNC   060A
005EE:  BNZ   0600
005F0:  MOVF   xAC,W
005F2:  MOVLB  3
005F4:  SUBWF  x79,W
005F6:  BTFSS  FD8.0
005F8:  BRA    05FE
005FA:  MOVLB  0
005FC:  BRA    060A
005FE:  MOVLB  0
....................          SSR_on; 
00600:  BSF    F8D.1
00602:  BCF    F96.1
....................          SSR2_on; 
00604:  BSF    F8D.2
00606:  BCF    F96.2
....................       }else{          
00608:  BRA    0612
....................          SSR_off; 
0060A:  BCF    F8D.1
0060C:  BCF    F96.1
....................          SSR2_off; 
0060E:  BCF    F8D.2
00610:  BCF    F96.2
....................       } 
....................              
....................       if(tiempoctrl>=Tc) // Si el tiempo de control es mayor al tiempo de ciclo se reinicia tiempo de control 
00612:  MOVF   xAF,W
00614:  MOVLB  3
00616:  SUBWF  x7A,W
00618:  BNC   062A
0061A:  BNZ   0626
0061C:  MOVLB  0
0061E:  MOVF   xAE,W
00620:  MOVLB  3
00622:  SUBWF  x79,W
00624:  BNC   062A
....................          tiempoctrl=0;// tiempoctrl incrementa una unidad cada 5ms, por eso se dividen los tiempos por 0.005. 
00626:  CLRF   x7A
00628:  CLRF   x79
....................    } 
....................     
....................    if(tiempos>=200)  // 12000 para que incremente cada minuto, 200para que incremente cada segundo. 
0062A:  MOVF   x74,F
0062C:  BNZ   0636
0062E:  MOVF   x73,W
00630:  SUBLW  C7
00632:  BTFSC  FD8.0
00634:  BRA    079A
....................    { 
....................       if(flagTC) 
00636:  MOVLB  0
00638:  BTFSS  xA5.7
0063A:  BRA    0642
....................          TiempoControl++; 
0063C:  MOVLB  3
0063E:  INCF   x97,F
00640:  MOVLB  0
....................        
....................       if(purgaAire2) 
00642:  BTFSS  xA3.4
00644:  BRA    064C
....................          tPurgaAire++; 
00646:  INCF   xB6,F
00648:  BTFSC  FD8.2
0064A:  INCF   xB7,F
....................        
....................       if(flagAlarma) 
0064C:  BTFSS  xA3.1
0064E:  BRA    0652
....................          flagBuzzer=!flagBuzzer; 
00650:  BTG    xA3.5
....................           
....................       tiemporecta++; 
00652:  MOVLB  3
00654:  INCF   x5C,F
....................        
....................       if(flagBombaAgua) 
00656:  MOVLB  0
00658:  BTFSS  xA4.7
0065A:  BRA    0666
....................          tBombaAgua++; 
0065C:  MOVLB  3
0065E:  INCF   x87,F
00660:  BTFSC  FD8.2
00662:  INCF   x88,F
00664:  MOVLB  0
....................        
....................       if(flagBombaAguaOff) 
00666:  BTFSS  xA5.0
00668:  BRA    0674
....................          tBombaAguaOff++; 
0066A:  MOVLB  3
0066C:  INCF   x89,F
0066E:  BTFSC  FD8.2
00670:  INCF   x8A,F
00672:  MOVLB  0
....................        
....................       if(IniciaCiclo && tiempoImpresion<CalculoImpresion){ 
00674:  BTFSS  xA0.1
00676:  BRA    068A
00678:  MOVLB  3
0067A:  MOVF   x60,W
0067C:  SUBWF  x71,W
0067E:  BTFSS  FD8.0
00680:  BRA    0686
00682:  MOVLB  0
00684:  BRA    068A
....................          tiempoImpresion++; 
00686:  INCF   x71,F
....................       }else if(tiempoImpresion>=CalculoImpresion){ 
00688:  BRA    0696
0068A:  MOVLB  3
0068C:  MOVF   x60,W
0068E:  SUBWF  x71,W
00690:  BNC   0696
....................          flagImprime=1; 
00692:  BSF    x5A.0
....................          tiempoImpresion=0; 
00694:  CLRF   x71
....................       } 
....................        
....................       if(IniciaCiclo && !Esterilizando){ 
00696:  MOVLB  0
00698:  BTFSS  xA0.1
0069A:  BRA    06B0
0069C:  BTFSC  xA0.2
0069E:  BRA    06B0
....................          TiempoCiclo++; 
006A0:  INCF   xA6,F
006A2:  BTFSC  FD8.2
006A4:  INCF   xA7,F
....................          tiempoAgua++; 
006A6:  MOVLB  3
006A8:  INCF   xA0,F
006AA:  BTFSC  FD8.2
006AC:  INCF   xA1,F
006AE:  MOVLB  0
....................       } 
....................        
....................       if(IniciaLlenado && !CalderinLleno){ 
006B0:  BTFSS  x9F.7
006B2:  BRA    06BE
006B4:  BTFSC  xA0.0
006B6:  BRA    06BE
....................          TiempoLlenado++; 
006B8:  INCF   xA8,F
006BA:  BTFSC  FD8.2
006BC:  INCF   xA9,F
....................       } 
....................        
....................       if(SensadoNivel){ 
006BE:  BTFSS  xA0.4
006C0:  BRA    06C8
....................          TiempoSensadoNivel++; 
006C2:  INCF   xAA,F
006C4:  BTFSC  FD8.2
006C6:  INCF   xAB,F
....................       } 
....................        
....................       if(SensadoNivelL) 
006C8:  BTFSS  xA2.0
006CA:  BRA    06D2
....................          tNivelBajo++; 
006CC:  INCF   xB2,F
006CE:  BTFSC  FD8.2
006D0:  INCF   xB3,F
....................        
....................       if(guardaCiclo) 
006D2:  BTFSS  xA4.6
006D4:  BRA    06DC
....................          tguarda++;  
006D6:  INCF   xB0,F
006D8:  BTFSC  FD8.2
006DA:  INCF   xB1,F
....................        
....................       tiempos=0;Lectura=1;tinicio++; 
006DC:  MOVLB  3
006DE:  CLRF   x74
006E0:  CLRF   x73
006E2:  MOVLB  0
006E4:  BSF    xA5.2
006E6:  MOVLB  3
006E8:  INCF   x7D,F
006EA:  BTFSC  FD8.2
006EC:  INCF   x7E,F
....................     
....................       if(Esterilizando && !Desfogando){                
006EE:  MOVLB  0
006F0:  BTFSS  xA0.2
006F2:  BRA    0746
006F4:  BTFSC  xA0.5
006F6:  BRA    0746
....................          if(Testerilizacion[0]>0){ 
006F8:  BTFSC  xB8.7
006FA:  BRA    0706
006FC:  MOVF   xB8,W
006FE:  SUBLW  00
00700:  BC    0706
....................             Testerilizacion[0]--; 
00702:  DECF   xB8,F
....................          }else if(Testerilizacion[1]>0){ 
00704:  BRA    0746
00706:  BTFSC  xB9.7
00708:  BRA    0718
0070A:  MOVF   xB9,W
0070C:  SUBLW  00
0070E:  BC    0718
....................             Testerilizacion[1]--; 
00710:  DECF   xB9,F
....................             Testerilizacion[0]=9; 
00712:  MOVLW  09
00714:  MOVWF  xB8
....................          }else if(Testerilizacion[2]>0){ 
00716:  BRA    0746
00718:  BTFSC  xBA.7
0071A:  BRA    072E
0071C:  MOVF   xBA,W
0071E:  SUBLW  00
00720:  BC    072E
....................             Testerilizacion[2]--; 
00722:  DECF   xBA,F
....................             Testerilizacion[1]=5; 
00724:  MOVLW  05
00726:  MOVWF  xB9
....................             Testerilizacion[0]=9; 
00728:  MOVLW  09
0072A:  MOVWF  xB8
....................          }else if(Testerilizacion[3]>0){ 
0072C:  BRA    0746
0072E:  BTFSC  xBB.7
00730:  BRA    0746
00732:  MOVF   xBB,W
00734:  SUBLW  00
00736:  BC    0746
....................             Testerilizacion[3]--; 
00738:  DECF   xBB,F
....................             Testerilizacion[2]=9; 
0073A:  MOVLW  09
0073C:  MOVWF  xBA
....................             Testerilizacion[1]=5; 
0073E:  MOVLW  05
00740:  MOVWF  xB9
....................             Testerilizacion[0]=9; 
00742:  MOVLW  09
00744:  MOVWF  xB8
....................          } 
....................       } 
....................        
....................       if(Secando){ 
00746:  BTFSS  xA0.3
00748:  BRA    0798
....................          if(Tsecado[0]>0){ 
0074A:  BTFSC  xC2.7
0074C:  BRA    0758
0074E:  MOVF   xC2,W
00750:  SUBLW  00
00752:  BC    0758
....................             Tsecado[0]--; 
00754:  DECF   xC2,F
....................          }else if(Tsecado[1]>0){ 
00756:  BRA    0798
00758:  BTFSC  xC3.7
0075A:  BRA    076A
0075C:  MOVF   xC3,W
0075E:  SUBLW  00
00760:  BC    076A
....................             Tsecado[1]--; 
00762:  DECF   xC3,F
....................             Tsecado[0]=9; 
00764:  MOVLW  09
00766:  MOVWF  xC2
....................          }else if(Tsecado[2]>0){ 
00768:  BRA    0798
0076A:  BTFSC  xC4.7
0076C:  BRA    0780
0076E:  MOVF   xC4,W
00770:  SUBLW  00
00772:  BC    0780
....................             Tsecado[2]--; 
00774:  DECF   xC4,F
....................             Tsecado[1]=5; 
00776:  MOVLW  05
00778:  MOVWF  xC3
....................             Tsecado[0]=9; 
0077A:  MOVLW  09
0077C:  MOVWF  xC2
....................          }else if(Tsecado[3]>0){ 
0077E:  BRA    0798
00780:  BTFSC  xC5.7
00782:  BRA    0798
00784:  MOVF   xC5,W
00786:  SUBLW  00
00788:  BC    0798
....................             Tsecado[3]--; 
0078A:  DECF   xC5,F
....................             Tsecado[2]=9; 
0078C:  MOVLW  09
0078E:  MOVWF  xC4
....................             Tsecado[1]=5; 
00790:  MOVLW  05
00792:  MOVWF  xC3
....................             Tsecado[0]=9; 
00794:  MOVLW  09
00796:  MOVWF  xC2
00798:  MOVLB  3
....................          } 
....................       } 
....................    } 
.................... } 
....................  
0079A:  BCF    F9E.0
0079C:  MOVLB  0
0079E:  GOTO   0074
.................... void main() 
.................... { 
*
076DC:  CLRF   FF8
076DE:  BCF    FF1.2
076E0:  BCF    F9F.0
076E2:  BSF    F9F.5
076E4:  BSF    FD0.7
076E6:  BSF    07.7
076E8:  CLRF   FEA
076EA:  CLRF   FE9
076EC:  BSF    FB8.3
076EE:  MOVLW  08
076F0:  MOVWF  FAF
076F2:  MOVLW  02
076F4:  MOVWF  FB0
076F6:  MOVLW  A6
076F8:  MOVWF  FAC
076FA:  MOVLW  90
076FC:  MOVWF  FAB
076FE:  CLRF   46
07700:  CLRF   47
07702:  CLRF   48
07704:  CLRF   x62
07706:  CLRF   x63
07708:  CLRF   x84
0770A:  CLRF   x85
0770C:  CLRF   x86
0770E:  BCF    x9F.0
07710:  BCF    x9F.1
07712:  BCF    x9F.2
07714:  BCF    x9F.3
07716:  BCF    x9F.4
07718:  BCF    x9F.5
0771A:  BCF    x9F.6
0771C:  BCF    x9F.7
0771E:  BCF    xA0.0
07720:  BCF    xA0.1
07722:  BCF    xA0.2
07724:  BCF    xA0.3
07726:  BCF    xA0.4
07728:  BCF    xA0.5
0772A:  BCF    xA0.6
0772C:  BCF    xA0.7
0772E:  BCF    xA1.0
07730:  BCF    xA1.1
07732:  BCF    xA1.2
07734:  BCF    xA1.3
07736:  BCF    xA1.4
07738:  BCF    xA1.5
0773A:  BCF    xA1.6
0773C:  BCF    xA1.7
0773E:  BCF    xA2.0
07740:  BCF    xA2.1
07742:  BCF    xA2.2
07744:  BCF    xA2.3
07746:  BCF    xA2.4
07748:  BCF    xA2.5
0774A:  BCF    xA2.6
0774C:  BCF    xA2.7
0774E:  BCF    xA3.0
07750:  BCF    xA3.1
07752:  BCF    xA3.2
07754:  BCF    xA3.3
07756:  BCF    xA3.4
07758:  BCF    xA3.5
0775A:  BCF    xA3.6
0775C:  BCF    xA3.7
0775E:  BCF    xA4.0
07760:  BCF    xA4.1
07762:  BCF    xA4.2
07764:  BCF    xA4.3
07766:  BCF    xA4.4
07768:  BCF    xA4.5
0776A:  BCF    xA4.6
0776C:  BCF    xA4.7
0776E:  BCF    xA5.0
07770:  CLRF   xA7
07772:  CLRF   xA6
07774:  CLRF   xA9
07776:  CLRF   xA8
07778:  CLRF   xAB
0777A:  CLRF   xAA
0777C:  CLRF   xAD
0777E:  CLRF   xAC
07780:  CLRF   xAF
07782:  CLRF   xAE
07784:  CLRF   xB1
07786:  CLRF   xB0
07788:  CLRF   xB3
0778A:  CLRF   xB2
0778C:  CLRF   xB5
0778E:  CLRF   xB4
07790:  CLRF   xB7
07792:  CLRF   xB6
07794:  MOVLW  9A
07796:  MOVLB  2
07798:  MOVWF  xAD
0779A:  MOVLW  99
0779C:  MOVWF  xAC
0779E:  MOVLW  0D
077A0:  MOVWF  xAB
077A2:  MOVLW  86
077A4:  MOVWF  xAA
077A6:  CLRF   xB1
077A8:  CLRF   xB0
077AA:  CLRF   xAF
077AC:  MOVLW  7E
077AE:  MOVWF  xAE
077B0:  CLRF   xB5
077B2:  CLRF   xB4
077B4:  CLRF   xB3
077B6:  CLRF   xB2
077B8:  CLRF   xB9
077BA:  CLRF   xB8
077BC:  MOVLW  48
077BE:  MOVWF  xB7
077C0:  MOVLW  85
077C2:  MOVWF  xB6
077C4:  CLRF   xBD
077C6:  MOVLW  80
077C8:  MOVWF  xBC
077CA:  MOVLW  54
077CC:  MOVWF  xBB
077CE:  MOVLW  8B
077D0:  MOVWF  xBA
077D2:  CLRF   xD1
077D4:  CLRF   xD0
077D6:  CLRF   xCF
077D8:  CLRF   xCE
077DA:  CLRF   xD5
077DC:  CLRF   xD4
077DE:  CLRF   xD3
077E0:  CLRF   xD2
077E2:  CLRF   xD9
077E4:  CLRF   xD8
077E6:  CLRF   xD7
077E8:  CLRF   xD6
077EA:  CLRF   xDD
077EC:  CLRF   xDC
077EE:  CLRF   xDB
077F0:  CLRF   xDA
077F2:  CLRF   xDE
077F4:  CLRF   xDF
077F6:  CLRF   xE0
077F8:  CLRF   xE1
077FA:  MOVLW  14
077FC:  MOVWF  xE2
077FE:  CLRF   xE3
07800:  CLRF   xE4
07802:  CLRF   xE5
07804:  CLRF   xE6
07806:  CLRF   xE7
07808:  CLRF   xE8
0780A:  CLRF   xE9
0780C:  CLRF   xEA
0780E:  CLRF   xEB
07810:  CLRF   xEC
07812:  CLRF   xED
07814:  CLRF   xEE
07816:  CLRF   xF2
07818:  CLRF   xF1
0781A:  CLRF   xF0
0781C:  CLRF   xEF
0781E:  CLRF   xFA
07820:  CLRF   xF9
07822:  MOVLW  20
07824:  MOVWF  xF8
07826:  MOVLW  82
07828:  MOVWF  xF7
0782A:  CLRF   xFE
0782C:  CLRF   xFD
0782E:  CLRF   xFC
07830:  CLRF   xFB
07832:  MOVLB  3
07834:  CLRF   x02
07836:  CLRF   x01
07838:  CLRF   x00
0783A:  MOVLB  2
0783C:  CLRF   xFF
0783E:  MOVLB  3
07840:  CLRF   x06
07842:  CLRF   x05
07844:  CLRF   x04
07846:  CLRF   x03
07848:  CLRF   x0A
0784A:  CLRF   x09
0784C:  CLRF   x08
0784E:  CLRF   x07
07850:  CLRF   x0E
07852:  CLRF   x0D
07854:  CLRF   x0C
07856:  CLRF   x0B
07858:  CLRF   x12
0785A:  CLRF   x11
0785C:  MOVLW  48
0785E:  MOVWF  x10
07860:  MOVLW  83
07862:  MOVWF  x0F
07864:  CLRF   x16
07866:  CLRF   x15
07868:  MOVLW  20
0786A:  MOVWF  x14
0786C:  MOVLW  83
0786E:  MOVWF  x13
07870:  MOVLW  9A
07872:  MOVWF  x1A
07874:  MOVLW  99
07876:  MOVWF  x19
07878:  MOVLW  19
0787A:  MOVWF  x18
0787C:  MOVLW  7F
0787E:  MOVWF  x17
07880:  CLRF   x1E
07882:  CLRF   x1D
07884:  CLRF   x1C
07886:  CLRF   x1B
07888:  CLRF   x22
0788A:  CLRF   x21
0788C:  CLRF   x20
0788E:  CLRF   x1F
07890:  CLRF   x26
07892:  CLRF   x25
07894:  CLRF   x24
07896:  CLRF   x23
07898:  CLRF   x2A
0789A:  CLRF   x29
0789C:  CLRF   x28
0789E:  CLRF   x27
078A0:  CLRF   x2E
078A2:  CLRF   x2D
078A4:  CLRF   x2C
078A6:  CLRF   x2B
078A8:  CLRF   x32
078AA:  CLRF   x31
078AC:  CLRF   x30
078AE:  CLRF   x2F
078B0:  MOVLW  4A
078B2:  MOVWF  x36
078B4:  MOVLW  88
078B6:  MOVWF  x35
078B8:  MOVLW  28
078BA:  MOVWF  x34
078BC:  MOVLW  75
078BE:  MOVWF  x33
078C0:  MOVLW  E0
078C2:  MOVWF  x3A
078C4:  MOVLW  2D
078C6:  MOVWF  x39
078C8:  MOVLW  10
078CA:  MOVWF  x38
078CC:  MOVLW  75
078CE:  MOVWF  x37
078D0:  MOVLW  FF
078D2:  MOVWF  x3E
078D4:  MOVLW  21
078D6:  MOVWF  x3D
078D8:  MOVLW  15
078DA:  MOVWF  x3C
078DC:  MOVLW  80
078DE:  MOVWF  x3B
078E0:  MOVLW  82
078E2:  MOVWF  x42
078E4:  MOVLW  12
078E6:  MOVWF  x41
078E8:  MOVLW  F4
078EA:  MOVWF  x40
078EC:  MOVLW  86
078EE:  MOVWF  x3F
078F0:  CLRF   x43
078F2:  CLRF   x44
078F4:  CLRF   x45
078F6:  MOVLW  B5
078F8:  MOVWF  x49
078FA:  MOVLW  EB
078FC:  MOVWF  x48
078FE:  MOVLW  1B
07900:  MOVWF  x47
07902:  MOVLW  6B
07904:  MOVWF  x46
07906:  MOVLW  D0
07908:  MOVWF  x4D
0790A:  MOVLW  9B
0790C:  MOVWF  x4C
0790E:  MOVLW  8A
07910:  MOVWF  x4B
07912:  MOVLW  75
07914:  MOVWF  x4A
07916:  MOVLW  1A
07918:  MOVWF  x51
0791A:  MOVLW  DD
0791C:  MOVWF  x50
0791E:  MOVLW  61
07920:  MOVWF  x4F
07922:  MOVLW  7D
07924:  MOVWF  x4E
07926:  MOVLW  04
07928:  MOVWF  x55
0792A:  MOVLW  16
0792C:  MOVWF  x54
0792E:  MOVLW  02
07930:  MOVWF  x53
07932:  MOVLW  85
07934:  MOVWF  x52
07936:  CLRF   x59
07938:  CLRF   x58
0793A:  CLRF   x57
0793C:  CLRF   x56
0793E:  MOVLB  0
07940:  BCF    xA5.1
07942:  BCF    xA5.2
07944:  BCF    xA5.3
07946:  BCF    xA5.4
07948:  BCF    xA5.5
0794A:  BCF    xA5.6
0794C:  BCF    xA5.7
0794E:  MOVLB  3
07950:  BCF    x5A.0
07952:  BCF    x5A.1
07954:  CLRF   x5B
07956:  CLRF   x5C
07958:  CLRF   x5D
0795A:  MOVLW  01
0795C:  MOVWF  x5E
0795E:  MOVLW  02
07960:  MOVWF  x5F
07962:  CLRF   x60
07964:  MOVLW  01
07966:  MOVWF  x61
07968:  CLRF   x62
0796A:  CLRF   x63
0796C:  CLRF   x64
0796E:  CLRF   x65
07970:  CLRF   x66
07972:  MOVLW  F0
07974:  MOVWF  x67
07976:  CLRF   x68
07978:  CLRF   x69
0797A:  CLRF   x6A
0797C:  CLRF   x6B
0797E:  CLRF   x6C
07980:  MOVLW  01
07982:  MOVWF  x6D
07984:  MOVWF  x6E
07986:  CLRF   x6F
07988:  CLRF   x70
0798A:  CLRF   x71
0798C:  CLRF   x72
0798E:  CLRF   x74
07990:  CLRF   x73
07992:  CLRF   x76
07994:  CLRF   x75
07996:  CLRF   x78
07998:  CLRF   x77
0799A:  CLRF   x7A
0799C:  CLRF   x79
0799E:  CLRF   x7C
079A0:  CLRF   x7B
079A2:  CLRF   x7E
079A4:  CLRF   x7D
079A6:  CLRF   x80
079A8:  CLRF   x7F
079AA:  CLRF   x82
079AC:  CLRF   x81
079AE:  CLRF   x84
079B0:  CLRF   x83
079B2:  CLRF   x86
079B4:  CLRF   x85
079B6:  CLRF   x88
079B8:  CLRF   x87
079BA:  CLRF   x8A
079BC:  CLRF   x89
079BE:  CLRF   x93
079C0:  CLRF   x94
079C2:  CLRF   x95
079C4:  CLRF   x96
079C6:  CLRF   x97
079C8:  CLRF   x98
079CA:  CLRF   x99
079CC:  CLRF   x9B
079CE:  CLRF   x9A
079D0:  CLRF   x9D
079D2:  CLRF   x9C
079D4:  CLRF   x9F
079D6:  CLRF   x9E
079D8:  CLRF   xA1
079DA:  CLRF   xA0
079DC:  CLRF   xA3
079DE:  CLRF   xA2
079E0:  CLRF   xA5
079E2:  CLRF   xA4
079E4:  MOVLW  12
079E6:  MOVWF  xA6
079E8:  MOVLW  09
079EA:  MOVWF  xA7
079EC:  MOVLW  0D
079EE:  MOVWF  xA8
079F0:  CLRF   xA9
079F2:  CLRF   xAA
079F4:  CLRF   xAB
079F6:  CLRF   xAC
079F8:  CLRF   xAD
079FA:  CLRF   xAE
079FC:  CLRF   xAF
079FE:  CLRF   xB0
07A00:  CLRF   xB1
07A02:  CLRF   xB2
07A04:  CLRF   xB3
07A06:  CLRF   xB4
07A08:  CLRF   xB5
07A0A:  MOVLW  48
07A0C:  MOVWF  xB6
07A0E:  CLRF   xB7
07A10:  CLRF   xB8
07A12:  CLRF   xB9
07A14:  CLRF   xBA
07A16:  CLRF   xCD
07A18:  CLRF   xCE
07A1A:  CLRF   xCF
07A1C:  CLRF   xD0
07A1E:  CLRF   xD1
07A20:  MOVF   FC1,W
07A22:  ANDLW  C0
07A24:  IORLW  0F
07A26:  MOVWF  FC1
07A28:  MOVLW  07
07A2A:  MOVWF  FB4
07A2C:  CLRF   2A
07A2E:  CLRF   2B
07A30:  MOVLB  0
07A32:  CLRF   x87
07A34:  MOVLW  03
07A36:  MOVWF  x88
07A38:  MOVWF  x89
07A3A:  MOVLW  06
07A3C:  MOVWF  x8A
07A3E:  MOVLW  01
07A40:  MOVWF  x8B
07A42:  MOVLW  04
07A44:  MOVWF  x8C
07A46:  MOVLW  06
07A48:  MOVWF  x8D
07A4A:  MOVLW  02
07A4C:  MOVWF  x8E
07A4E:  MOVLW  05
07A50:  MOVWF  x8F
07A52:  CLRF   x90
07A54:  MOVLW  03
07A56:  MOVWF  x91
07A58:  MOVLW  05
07A5A:  MOVWF  x92
07A5C:  CLRF   x93
07A5E:  MOVLW  03
07A60:  MOVWF  x94
07A62:  MOVLW  04
07A64:  MOVWF  x95
07A66:  CLRF   x96
07A68:  MOVLW  02
07A6A:  MOVWF  x97
07A6C:  MOVLW  05
07A6E:  MOVWF  x98
07A70:  CLRF   x99
07A72:  MOVLW  03
07A74:  MOVWF  x9A
07A76:  MOVLW  06
07A78:  MOVWF  x9B
07A7A:  MOVLW  01
07A7C:  MOVWF  x9C
07A7E:  MOVLW  04
07A80:  MOVWF  x9D
07A82:  MOVLW  06
07A84:  MOVWF  x9E
07A86:  CLRF   xB8
07A88:  CLRF   xB9
07A8A:  CLRF   xBA
07A8C:  CLRF   xBB
07A8E:  CLRF   xBC
07A90:  CLRF   xBD
07A92:  CLRF   xBE
07A94:  CLRF   xBF
07A96:  CLRF   xC0
07A98:  CLRF   xC1
07A9A:  CLRF   xC2
07A9C:  CLRF   xC3
07A9E:  CLRF   xC4
07AA0:  CLRF   xC5
07AA2:  CLRF   xC6
07AA4:  CLRF   xC7
07AA6:  CLRF   xC8
07AA8:  CLRF   xC9
07AAA:  CLRF   xCA
07AAC:  CLRF   xCB
07AAE:  CLRF   xCC
07AB0:  CLRF   xCD
07AB2:  CLRF   xCE
07AB4:  CLRF   xCF
07AB6:  CLRF   xD0
07AB8:  CLRF   xD1
07ABA:  CLRF   xD2
07ABC:  CLRF   xD3
07ABE:  CLRF   xD4
07AC0:  CLRF   xD5
07AC2:  CLRF   xD6
07AC4:  CLRF   xD7
07AC6:  CLRF   xD8
07AC8:  CLRF   xD9
07ACA:  CLRF   xDA
07ACC:  CLRF   xDB
07ACE:  CLRF   xDC
07AD0:  CLRF   xDD
07AD2:  CLRF   xDE
07AD4:  CLRF   xDF
07AD6:  CLRF   xE0
07AD8:  CLRF   xE1
07ADA:  CLRF   xE2
07ADC:  CLRF   xE3
07ADE:  CLRF   xE4
07AE0:  CLRF   xE5
07AE2:  CLRF   xE6
07AE4:  CLRF   xE7
07AE6:  CLRF   xE8
07AE8:  CLRF   xE9
07AEA:  CLRF   xEA
07AEC:  CLRF   xEB
07AEE:  CLRF   xEC
07AF0:  CLRF   xED
07AF2:  CLRF   xEE
07AF4:  CLRF   xEF
07AF6:  CLRF   xF0
07AF8:  CLRF   xF1
07AFA:  CLRF   xF2
07AFC:  CLRF   xF3
07AFE:  CLRF   xF4
07B00:  CLRF   xF5
07B02:  CLRF   xF6
07B04:  CLRF   xF7
07B06:  CLRF   xF8
07B08:  CLRF   xF9
07B0A:  CLRF   xFA
07B0C:  CLRF   xFB
07B0E:  CLRF   xFC
07B10:  CLRF   xFD
07B12:  CLRF   xFE
07B14:  CLRF   xFF
07B16:  MOVLB  1
07B18:  CLRF   x00
07B1A:  CLRF   x01
07B1C:  CLRF   x02
07B1E:  CLRF   x03
07B20:  CLRF   x04
07B22:  CLRF   x05
07B24:  CLRF   x06
07B26:  CLRF   x07
07B28:  CLRF   x08
07B2A:  CLRF   x09
07B2C:  CLRF   x0A
07B2E:  CLRF   x0B
07B30:  CLRF   x0C
07B32:  CLRF   x0D
07B34:  CLRF   x0E
07B36:  CLRF   x0F
07B38:  CLRF   x10
07B3A:  CLRF   x11
07B3C:  CLRF   x12
07B3E:  CLRF   x13
07B40:  CLRF   x14
07B42:  CLRF   x15
07B44:  CLRF   x16
07B46:  CLRF   x17
07B48:  CLRF   x18
07B4A:  CLRF   x19
07B4C:  CLRF   x1A
07B4E:  CLRF   x1B
07B50:  CLRF   x1C
07B52:  CLRF   x1D
07B54:  CLRF   x1E
07B56:  CLRF   x1F
07B58:  CLRF   x20
07B5A:  CLRF   x21
07B5C:  CLRF   x22
07B5E:  CLRF   x23
07B60:  CLRF   x24
07B62:  CLRF   x25
07B64:  CLRF   x26
07B66:  CLRF   x27
07B68:  CLRF   x28
07B6A:  CLRF   x29
07B6C:  CLRF   x2A
07B6E:  CLRF   x2B
07B70:  CLRF   x2C
07B72:  CLRF   x2D
07B74:  CLRF   x2E
07B76:  CLRF   x2F
07B78:  CLRF   x30
07B7A:  CLRF   x31
07B7C:  CLRF   x32
07B7E:  CLRF   x33
07B80:  CLRF   x34
07B82:  CLRF   x35
07B84:  CLRF   x36
07B86:  CLRF   x37
07B88:  CLRF   x38
07B8A:  CLRF   x39
07B8C:  CLRF   x3A
07B8E:  CLRF   x3B
07B90:  CLRF   x3C
07B92:  CLRF   x3D
07B94:  CLRF   x3E
07B96:  CLRF   x3F
07B98:  CLRF   x40
07B9A:  CLRF   x41
07B9C:  CLRF   x42
07B9E:  CLRF   x43
07BA0:  CLRF   x44
07BA2:  CLRF   x45
07BA4:  CLRF   x46
07BA6:  CLRF   x47
07BA8:  CLRF   x48
07BAA:  CLRF   x49
07BAC:  CLRF   x4A
07BAE:  CLRF   x4B
07BB0:  CLRF   x4C
07BB2:  CLRF   x4D
07BB4:  CLRF   x4E
07BB6:  CLRF   x4F
07BB8:  CLRF   x50
07BBA:  CLRF   x51
07BBC:  CLRF   x52
07BBE:  CLRF   x53
07BC0:  CLRF   x54
07BC2:  CLRF   x55
07BC4:  CLRF   x56
07BC6:  CLRF   x57
07BC8:  CLRF   x58
07BCA:  CLRF   x59
07BCC:  CLRF   x5A
07BCE:  CLRF   x5B
07BD0:  CLRF   x5C
07BD2:  CLRF   x5D
07BD4:  CLRF   x5E
07BD6:  CLRF   x5F
07BD8:  CLRF   x60
07BDA:  CLRF   x61
07BDC:  CLRF   x62
07BDE:  CLRF   x63
07BE0:  CLRF   x64
07BE2:  CLRF   x65
07BE4:  CLRF   x66
07BE6:  CLRF   x67
07BE8:  CLRF   x68
07BEA:  CLRF   x69
07BEC:  CLRF   x6A
07BEE:  CLRF   x6B
07BF0:  CLRF   x6C
07BF2:  CLRF   x6D
07BF4:  CLRF   x6E
07BF6:  CLRF   x6F
07BF8:  CLRF   x70
07BFA:  CLRF   x71
07BFC:  CLRF   x72
07BFE:  CLRF   x73
07C00:  CLRF   x74
07C02:  CLRF   x75
07C04:  CLRF   x76
07C06:  CLRF   x77
07C08:  CLRF   x78
07C0A:  CLRF   x79
07C0C:  CLRF   x7A
07C0E:  CLRF   x7B
07C10:  CLRF   x7C
07C12:  CLRF   x7D
07C14:  CLRF   x7E
07C16:  CLRF   x7F
07C18:  CLRF   x80
07C1A:  CLRF   x81
07C1C:  CLRF   x82
07C1E:  CLRF   x83
07C20:  CLRF   x84
07C22:  CLRF   x85
07C24:  CLRF   x86
07C26:  CLRF   x87
07C28:  CLRF   x88
07C2A:  CLRF   x89
07C2C:  CLRF   x8A
07C2E:  CLRF   x8B
07C30:  CLRF   x8C
07C32:  CLRF   x8D
07C34:  CLRF   x8E
07C36:  CLRF   x8F
07C38:  CLRF   x90
07C3A:  CLRF   x91
07C3C:  CLRF   x92
07C3E:  CLRF   x93
07C40:  CLRF   x94
07C42:  CLRF   x95
07C44:  CLRF   x96
07C46:  CLRF   x97
07C48:  CLRF   x98
07C4A:  CLRF   x99
07C4C:  CLRF   x9A
07C4E:  CLRF   x9B
07C50:  CLRF   x9C
07C52:  CLRF   x9D
07C54:  CLRF   x9E
07C56:  CLRF   x9F
07C58:  CLRF   xA0
07C5A:  CLRF   xA1
07C5C:  CLRF   xA2
07C5E:  CLRF   xA3
07C60:  CLRF   xA4
07C62:  CLRF   xA5
07C64:  CLRF   xA6
07C66:  CLRF   xA7
07C68:  CLRF   xA8
07C6A:  CLRF   xA9
07C6C:  CLRF   xAA
07C6E:  CLRF   xAB
07C70:  CLRF   xAC
07C72:  CLRF   xAD
07C74:  CLRF   xAE
07C76:  CLRF   xAF
07C78:  CLRF   xB0
07C7A:  CLRF   xB1
07C7C:  CLRF   xB2
07C7E:  CLRF   xB3
07C80:  CLRF   xB4
07C82:  CLRF   xB5
07C84:  CLRF   xB6
07C86:  CLRF   xB7
07C88:  CLRF   xB8
07C8A:  CLRF   xB9
07C8C:  CLRF   xBA
07C8E:  CLRF   xBB
07C90:  CLRF   xBC
07C92:  CLRF   xBD
07C94:  CLRF   xBE
07C96:  CLRF   xBF
07C98:  CLRF   xC0
07C9A:  CLRF   xC1
07C9C:  CLRF   xC2
07C9E:  CLRF   xC3
07CA0:  CLRF   xC4
07CA2:  CLRF   xC5
07CA4:  CLRF   xC6
07CA6:  CLRF   xC7
07CA8:  CLRF   xC8
07CAA:  CLRF   xC9
07CAC:  CLRF   xCA
07CAE:  CLRF   xCB
07CB0:  CLRF   xCC
07CB2:  CLRF   xCD
07CB4:  CLRF   xCE
07CB6:  CLRF   xCF
07CB8:  CLRF   xD0
07CBA:  CLRF   xD1
07CBC:  CLRF   xD2
07CBE:  CLRF   xD3
07CC0:  CLRF   xD4
07CC2:  CLRF   xD5
07CC4:  CLRF   xD6
07CC6:  CLRF   xD7
07CC8:  CLRF   xD8
07CCA:  CLRF   xD9
07CCC:  CLRF   xDA
07CCE:  CLRF   xDB
07CD0:  CLRF   xDC
07CD2:  CLRF   xDD
07CD4:  CLRF   xDE
07CD6:  CLRF   xDF
07CD8:  CLRF   xE0
07CDA:  CLRF   xE1
07CDC:  CLRF   xE2
07CDE:  CLRF   xE3
07CE0:  CLRF   xE4
07CE2:  CLRF   xE5
07CE4:  CLRF   xE6
07CE6:  CLRF   xE7
07CE8:  CLRF   xE8
07CEA:  CLRF   xE9
07CEC:  CLRF   xEA
07CEE:  CLRF   xEB
07CF0:  CLRF   xEC
07CF2:  CLRF   xED
07CF4:  CLRF   xEE
07CF6:  CLRF   xEF
07CF8:  CLRF   xF0
07CFA:  CLRF   xF1
07CFC:  CLRF   xF2
07CFE:  CLRF   xF3
07D00:  CLRF   xF4
07D02:  CLRF   xF5
07D04:  CLRF   xF6
07D06:  CLRF   xF7
07D08:  CLRF   xF8
07D0A:  CLRF   xF9
07D0C:  CLRF   xFA
07D0E:  CLRF   xFB
07D10:  CLRF   xFC
07D12:  CLRF   xFD
07D14:  CLRF   xFE
07D16:  CLRF   xFF
07D18:  MOVLB  2
07D1A:  CLRF   x00
07D1C:  CLRF   x01
07D1E:  CLRF   x02
07D20:  CLRF   x03
07D22:  CLRF   x04
07D24:  CLRF   x05
07D26:  CLRF   x06
07D28:  CLRF   x07
07D2A:  CLRF   x08
07D2C:  CLRF   x09
07D2E:  CLRF   x0A
07D30:  CLRF   x0B
07D32:  CLRF   x0C
07D34:  CLRF   x0D
07D36:  CLRF   x0E
07D38:  CLRF   x0F
07D3A:  CLRF   x10
07D3C:  CLRF   x11
07D3E:  CLRF   x12
07D40:  CLRF   x13
07D42:  CLRF   x14
07D44:  CLRF   x15
07D46:  CLRF   x16
07D48:  CLRF   x17
07D4A:  CLRF   x18
07D4C:  CLRF   x19
07D4E:  CLRF   x1A
07D50:  CLRF   x1B
07D52:  CLRF   x1C
07D54:  CLRF   x1D
07D56:  CLRF   x1E
07D58:  CLRF   x1F
07D5A:  CLRF   x20
07D5C:  CLRF   x21
07D5E:  CLRF   x22
07D60:  CLRF   x23
07D62:  CLRF   x24
07D64:  CLRF   x25
07D66:  CLRF   x26
07D68:  CLRF   x27
07D6A:  CLRF   x28
07D6C:  CLRF   x29
07D6E:  CLRF   x2A
07D70:  CLRF   x2B
07D72:  CLRF   x2C
07D74:  CLRF   x2D
07D76:  CLRF   x2E
07D78:  CLRF   x2F
07D7A:  CLRF   x30
07D7C:  CLRF   x31
07D7E:  CLRF   x32
07D80:  CLRF   x33
07D82:  CLRF   x34
07D84:  CLRF   x35
07D86:  CLRF   x36
07D88:  CLRF   x37
07D8A:  CLRF   x38
07D8C:  CLRF   x39
07D8E:  CLRF   x3A
07D90:  CLRF   x3B
07D92:  CLRF   x3C
07D94:  CLRF   x3D
07D96:  CLRF   x3E
07D98:  CLRF   x3F
07D9A:  CLRF   x40
07D9C:  CLRF   x41
07D9E:  CLRF   x42
07DA0:  CLRF   x43
07DA2:  CLRF   x44
07DA4:  CLRF   x45
07DA6:  CLRF   x46
07DA8:  CLRF   x47
07DAA:  CLRF   x48
07DAC:  CLRF   x49
07DAE:  CLRF   x4A
07DB0:  CLRF   x4B
07DB2:  CLRF   x4C
07DB4:  CLRF   x4D
07DB6:  CLRF   x4E
07DB8:  CLRF   x4F
07DBA:  CLRF   x50
07DBC:  CLRF   x51
07DBE:  CLRF   x52
07DC0:  CLRF   x53
07DC2:  CLRF   x54
07DC4:  CLRF   x55
07DC6:  CLRF   x56
07DC8:  CLRF   x57
07DCA:  CLRF   x58
07DCC:  CLRF   x59
07DCE:  CLRF   x5A
07DD0:  CLRF   x5B
07DD2:  CLRF   x5C
07DD4:  CLRF   x5D
07DD6:  CLRF   x5E
07DD8:  CLRF   x5F
07DDA:  CLRF   x60
07DDC:  CLRF   x61
07DDE:  CLRF   x62
07DE0:  CLRF   x63
07DE2:  CLRF   x64
07DE4:  CLRF   x65
07DE6:  CLRF   x66
07DE8:  CLRF   x67
07DEA:  CLRF   x68
07DEC:  CLRF   x69
07DEE:  CLRF   x6A
07DF0:  CLRF   x6B
07DF2:  CLRF   x6C
07DF4:  CLRF   x6D
07DF6:  CLRF   x6E
07DF8:  CLRF   x6F
07DFA:  CLRF   x70
07DFC:  CLRF   x71
07DFE:  CLRF   x72
07E00:  CLRF   x73
07E02:  CLRF   x74
07E04:  CLRF   x75
07E06:  CLRF   x76
07E08:  CLRF   x77
07E0A:  CLRF   x78
07E0C:  CLRF   x79
07E0E:  CLRF   x7A
07E10:  CLRF   x7B
07E12:  CLRF   x7C
07E14:  CLRF   x7D
07E16:  CLRF   x7E
07E18:  CLRF   x7F
07E1A:  CLRF   x80
07E1C:  CLRF   x81
07E1E:  CLRF   x82
07E20:  CLRF   x83
07E22:  CLRF   x84
07E24:  CLRF   x85
07E26:  CLRF   x86
07E28:  CLRF   x87
07E2A:  CLRF   x88
07E2C:  CLRF   x89
07E2E:  CLRF   x8A
07E30:  CLRF   x8B
07E32:  CLRF   x8C
07E34:  CLRF   x8D
07E36:  CLRF   x8E
07E38:  CLRF   x8F
07E3A:  CLRF   x90
07E3C:  CLRF   x91
07E3E:  CLRF   x92
07E40:  CLRF   x93
07E42:  CLRF   x94
07E44:  CLRF   x95
07E46:  CLRF   x96
07E48:  CLRF   x97
07E4A:  CLRF   x98
07E4C:  CLRF   x99
07E4E:  CLRF   x9A
07E50:  CLRF   x9B
07E52:  CLRF   x9C
07E54:  CLRF   x9D
07E56:  CLRF   x9E
07E58:  CLRF   x9F
07E5A:  CLRF   xA0
07E5C:  CLRF   xA1
07E5E:  CLRF   xA2
07E60:  CLRF   xA3
07E62:  CLRF   xA4
07E64:  CLRF   xA5
07E66:  CLRF   xA6
07E68:  CLRF   xA7
07E6A:  CLRF   xA8
07E6C:  CLRF   xA9
07E6E:  CLRF   xBE
07E70:  CLRF   xBF
07E72:  CLRF   xC0
07E74:  CLRF   xC1
07E76:  CLRF   xC2
07E78:  CLRF   xC3
07E7A:  CLRF   xC4
07E7C:  CLRF   xC5
07E7E:  CLRF   xC6
07E80:  CLRF   xC7
07E82:  CLRF   xC8
07E84:  CLRF   xC9
07E86:  CLRF   xCA
07E88:  CLRF   xCB
07E8A:  CLRF   xCC
07E8C:  CLRF   xCD
07E8E:  MOVLB  3
07E90:  CLRF   x8B
07E92:  CLRF   x8C
07E94:  CLRF   x8D
07E96:  CLRF   x8E
07E98:  CLRF   x8F
07E9A:  CLRF   x90
07E9C:  CLRF   x91
07E9E:  CLRF   x92
07EA0:  MOVLW  19
07EA2:  MOVWF  xBB
07EA4:  MOVLW  10
07EA6:  MOVWF  xBC
07EA8:  MOVLW  16
07EAA:  MOVWF  xBD
07EAC:  MOVLW  18
07EAE:  MOVWF  xBE
07EB0:  MOVLW  17
07EB2:  MOVWF  xBF
07EB4:  MOVLW  1C
07EB6:  MOVWF  xC0
07EB8:  MOVLW  14
07EBA:  MOVWF  xC1
07EBC:  MOVLW  2E
07EBE:  MOVWF  xC2
07EC0:  MOVLW  45
07EC2:  MOVWF  xC3
07EC4:  MOVLW  22
07EC6:  MOVWF  xC4
07EC8:  MOVLW  24
07ECA:  MOVWF  xC5
07ECC:  MOVLW  12
07ECE:  MOVWF  xC6
07ED0:  MOVLW  21
07ED2:  MOVWF  xC7
07ED4:  MOVLW  20
07ED6:  MOVWF  xC8
07ED8:  MOVLW  26
07EDA:  MOVWF  xC9
07EDC:  MOVLW  13
07EDE:  MOVWF  xCA
07EE0:  MOVLW  11
07EE2:  MOVWF  xCB
07EE4:  MOVLW  44
07EE6:  MOVWF  xCC
....................     
....................    for (posicion=0;posicion<0x10;posicion++){ 
07EE8:  MOVLB  0
07EEA:  CLRF   x86
07EEC:  MOVF   x86,W
07EEE:  SUBLW  0F
07EF0:  BNC   7F06
....................       SlaveA0Tx[posicion] = 0x00; 
07EF2:  CLRF   03
07EF4:  MOVF   x86,W
07EF6:  ADDLW  64
07EF8:  MOVWF  FE9
07EFA:  MOVLW  00
07EFC:  ADDWFC 03,W
07EFE:  MOVWF  FEA
07F00:  CLRF   FEF
....................    } 
07F02:  INCF   x86,F
07F04:  BRA    7EEC
....................    setup_timer_0(RTCC_8_BIT|RTCC_DIV_1); 
07F06:  MOVLW  C8
07F08:  MOVWF  FD5
....................    enable_interrupts(INT_TIMER0); 
07F0A:  BSF    FF2.5
....................    setup_timer_1(T1_INTERNAL|T1_DIV_BY_1); 
07F0C:  MOVLW  85
07F0E:  MOVWF  FCD
....................    enable_interrupts(INT_TIMER1); 
07F10:  BSF    F9D.0
....................    setup_adc_ports(AN0_TO_AN5); 
07F12:  MOVF   FC1,W
07F14:  ANDLW  C0
07F16:  IORLW  09
07F18:  MOVWF  FC1
....................    setup_adc(ADC_CLOCK_DIV_32 ); 
07F1A:  MOVF   FC0,W
07F1C:  ANDLW  C0
07F1E:  IORLW  02
07F20:  MOVWF  FC0
07F22:  BSF    FC0.7
07F24:  BSF    FC2.0
....................    port_b_pullups(true); 
07F26:  BCF    FF1.7
....................    enable_interrupts(int_rda); 
07F28:  BSF    F9D.5
....................    setup_wdt(WDT_ON); 
07F2A:  BSF    FD1.0
....................    enable_interrupts(global); 
07F2C:  MOVLW  C0
07F2E:  IORWF  FF2,F
....................    LeeEEPROM(); 
07F30:  GOTO   1F28
....................    rtc_init(); 
07F34:  GOTO   2DA6
....................    delay_ms(1); 
07F38:  MOVLW  01
07F3A:  MOVLB  4
07F3C:  MOVWF  x5C
07F3E:  MOVLB  0
07F40:  CALL   1AF4
....................    LimitaValores(); 
07F44:  GOTO   2EC0
....................    CalculoImpresion=timpresion*60; 
07F48:  MOVLB  3
07F4A:  MOVF   x5F,W
07F4C:  MULLW  3C
07F4E:  MOVFF  FF3,360
....................    printf("page Bienvenida"); 
07F52:  MOVLW  A2
07F54:  MOVWF  FF6
07F56:  MOVLW  07
07F58:  MOVWF  FF7
07F5A:  MOVLW  00
07F5C:  MOVWF  FF8
07F5E:  MOVLB  0
07F60:  CALL   39B8
....................    SendDataDisplay(); 
07F64:  CALL   39EA
....................    printf("bkcmd=0"); 
07F68:  MOVLW  B2
07F6A:  MOVWF  FF6
07F6C:  MOVLW  07
07F6E:  MOVWF  FF7
07F70:  MOVLW  00
07F72:  MOVWF  FF8
07F74:  CALL   39B8
....................    SendDataDisplay(); 
07F78:  CALL   39EA
....................    delay_ms(1500); 
07F7C:  MOVLW  06
07F7E:  MOVLB  4
07F80:  MOVWF  x47
07F82:  MOVLW  FA
07F84:  MOVWF  x5C
07F86:  MOVLB  0
07F88:  CALL   1AF4
07F8C:  MOVLB  4
07F8E:  DECFSZ x47,F
07F90:  BRA    7F82
....................    printf("page Clave"); 
07F92:  MOVLW  BA
07F94:  MOVWF  FF6
07F96:  MOVLW  07
07F98:  MOVWF  FF7
07F9A:  MOVLW  00
07F9C:  MOVWF  FF8
07F9E:  MOVLB  0
07FA0:  CALL   39B8
....................    SendDataDisplay(); 
07FA4:  CALL   39EA
....................    ApagaSalidas(); 
07FA8:  CALL   3A20
....................    Setpoint=121; 
07FAC:  MOVLW  79
07FAE:  MOVLB  3
07FB0:  MOVWF  x6C
....................     
....................    for(i=0;i<MediaMovil;i++){ 
07FB2:  CLRF   x68
07FB4:  MOVLB  2
07FB6:  MOVF   xE2,W
07FB8:  MOVLB  3
07FBA:  SUBWF  x68,W
07FBC:  BC    802E
....................       Temperatura=LeerPT100(MediaMovil); 
07FBE:  MOVFF  2E2,447
07FC2:  MOVLB  0
07FC4:  CALL   3BB2
07FC8:  MOVFF  03,332
07FCC:  MOVFF  02,331
07FD0:  MOVFF  01,330
07FD4:  MOVFF  00,32F
....................       PresionCamara=Leer_Sensor_Presion_Camara(5); 
07FD8:  MOVLW  05
07FDA:  MOVLB  4
07FDC:  MOVWF  x47
07FDE:  MOVLB  0
07FE0:  CALL   3FF8
07FE4:  MOVFF  03,45F
07FE8:  MOVFF  02,45E
07FEC:  MOVFF  01,45D
07FF0:  MOVFF  00,45C
07FF4:  CALL   41F4
07FF8:  MOVFF  02,380
07FFC:  MOVFF  01,37F
....................       PresionPreCamara=Leer_Sensor_Presion_PreCamara(5); 
08000:  MOVLW  05
08002:  MOVLB  4
08004:  MOVWF  x47
08006:  MOVLB  0
08008:  CALL   4230
0800C:  MOVFF  03,45F
08010:  MOVFF  02,45E
08014:  MOVFF  01,45D
08018:  MOVFF  00,45C
0801C:  CALL   41F4
08020:  MOVFF  02,382
08024:  MOVFF  01,381
....................    } 
08028:  MOVLB  3
0802A:  INCF   x68,F
0802C:  BRA    7FB4
....................     
....................    if(UP && DOWN && RIGHT && LEFT)//Si oprime boton de Toma. 
0802E:  BSF    F93.3
08030:  BTFSC  F81.3
08032:  BRA    80BA
08034:  BSF    F93.2
08036:  BTFSC  F81.2
08038:  BRA    80BA
0803A:  BSF    F93.1
0803C:  BTFSC  F81.1
0803E:  BRA    80BA
08040:  BSF    F93.0
08042:  BTFSC  F81.0
08044:  BRA    80BA
....................    { 
....................       write_eeprom(37,0); 
08046:  CLRF   FAA
08048:  MOVLW  25
0804A:  MOVWF  FA9
0804C:  CLRF   FA8
0804E:  BCF    FA6.6
08050:  BCF    FA6.7
08052:  BSF    FA6.2
08054:  MOVF   FF2,W
08056:  MOVWF  00
08058:  BCF    FF2.6
0805A:  BCF    FF2.7
0805C:  MOVLB  F
0805E:  MOVLW  55
08060:  MOVWF  FA7
08062:  MOVLW  AA
08064:  MOVWF  FA7
08066:  BSF    FA6.1
08068:  BTFSC  FA6.1
0806A:  BRA    8068
0806C:  BCF    FA6.2
0806E:  MOVF   00,W
08070:  IORWF  FF2,F
....................       delay_ms(20); 
08072:  MOVLW  14
08074:  MOVLB  4
08076:  MOVWF  x5C
08078:  MOVLB  0
0807A:  CALL   1AF4
....................       write_eeprom(38,0); 
0807E:  CLRF   FAA
08080:  MOVLW  26
08082:  MOVWF  FA9
08084:  CLRF   FA8
08086:  BCF    FA6.6
08088:  BCF    FA6.7
0808A:  BSF    FA6.2
0808C:  MOVF   FF2,W
0808E:  MOVWF  00
08090:  BCF    FF2.6
08092:  BCF    FF2.7
08094:  MOVLB  F
08096:  MOVLW  55
08098:  MOVWF  FA7
0809A:  MOVLW  AA
0809C:  MOVWF  FA7
0809E:  BSF    FA6.1
080A0:  BTFSC  FA6.1
080A2:  BRA    80A0
080A4:  BCF    FA6.2
080A6:  MOVF   00,W
080A8:  IORWF  FF2,F
....................       delay_ms(20); 
080AA:  MOVLW  14
080AC:  MOVLB  4
080AE:  MOVWF  x5C
080B0:  MOVLB  0
080B2:  CALL   1AF4
....................       reset_cpu(); 
080B6:  RESET
080B8:  MOVLB  3
....................    } 
....................     
....................    #ifdef PT100Fija 
....................       Atmosferica=0; 
080BA:  CLRF   xB6
....................    #else 
....................       if(!DOOR){ 
....................          if(abs((float)PresionCamara-(float)Atmosferica)>=3 && PresionCamara<102){//Funcion de Auto Ajuste de Presion Atmosferica 
....................             Atmosferica=PresionCamara; 
....................             write_eeprom(31,Atmosferica); 
....................             delay_ms(10); 
....................             Buzzer_on; 
....................             delay_ms(1000); 
....................             Buzzer_off; 
....................          } 
....................       } 
....................    #endif 
....................    while(true) 
....................    { 
....................       LeeDisplay(); 
080BC:  MOVLB  0
080BE:  GOTO   442E
....................       Envio_Esclavos(); 
080C2:  CALL   4780
....................       delay_ms(1); 
080C6:  MOVLW  01
080C8:  MOVLB  4
080CA:  MOVWF  x5C
080CC:  MOVLB  0
080CE:  CALL   1AF4
....................       //Lectura_Esclavos(); 
....................       restart_wdt(); 
080D2:  CLRWDT
....................        
....................       if(!Esterilizando || Desfogando){ 
080D4:  BTFSS  xA0.2
080D6:  BRA    80DC
080D8:  BTFSS  xA0.5
080DA:  BRA    80E6
....................          CalculoImpresion=180; 
080DC:  MOVLW  B4
080DE:  MOVLB  3
080E0:  MOVWF  x60
....................       }else{ 
080E2:  BRA    80EC
080E4:  MOVLB  0
....................          CalculoImpresion=60; 
080E6:  MOVLW  3C
080E8:  MOVLB  3
080EA:  MOVWF  x60
....................       } 
....................        
....................       #ifdef Generador 
....................          //if(!PruebaEstados && STOP) 
....................          //   monitoreaAgua(); 
....................       #else    
....................       // Monitoreo Nivel de Agua//-------------------------------------- 
....................             if(!LOW){//Si no sensa agua en el nivel alto y no se ha llenado el calderin          
....................                TiempoSensadoNivel=0; 
....................                Controlando=0;    
....................                if(tiempoAgua<600){ 
....................                   CalderinLleno=OFF; 
....................                } 
....................                SensadoNivel=OFF; 
....................                TiempoSensadoNivel=0; 
....................                #ifdef ULKA 
....................                   if(!PruebaEstados){ 
....................                      if(PresionCamara<=((int16)Atmosferica+10) && Menu!=20 && HIG && Menu!=255){ 
....................                         enciendeBombaAgua(); 
....................                      } 
....................                      if(!HIG){ 
....................                         apagaBombaAgua(); 
....................                      } 
....................                   } 
....................                #endif 
....................             } else{ 
....................                SensadoNivel=ON; 
....................                if(TiempoSensadoNivel>5){ 
....................                   SensadoNivel=OFF; 
....................                   CalderinLleno=ON; 
....................                   IniciaLlenado=OFF;                   
....................                   #ifdef ULKA 
....................                      if(!PruebaEstados){ 
....................                         if(Menu!=20){ 
....................                            apagaBombaAgua(); 
....................                         } 
....................                      } 
....................                   #endif 
....................                } 
....................             } 
....................         #endif     
.................... // Tiempo de Grafica//-------------------------------------- 
....................       if(tiempos2>=6000){ 
080EC:  MOVF   x76,W
080EE:  SUBLW  16
080F0:  BC    8106
080F2:  XORLW  FF
080F4:  BNZ   80FC
080F6:  MOVF   x75,W
080F8:  SUBLW  6F
080FA:  BC    8106
....................          Grafica=1; 
080FC:  MOVLB  0
080FE:  BSF    xA5.3
....................          tiempos2=0; 
08100:  MOVLB  3
08102:  CLRF   x76
08104:  CLRF   x75
....................       } 
....................  
.................... // Tiempo de Muestreo//-------------------------------------- 
....................       if(tiempos3>=20){ 
08106:  MOVF   x78,F
08108:  BNZ   8112
0810A:  MOVF   x77,W
0810C:  SUBLW  13
0810E:  BTFSC  FD8.0
08110:  BRA    82D2
....................          Temperatura=LeerPt100(MediaMovil); 
08112:  MOVFF  2E2,447
08116:  MOVLB  0
08118:  CALL   3BB2
0811C:  MOVFF  03,332
08120:  MOVFF  02,331
08124:  MOVFF  01,330
08128:  MOVFF  00,32F
....................          PresionCamara=Leer_Sensor_Presion_Camara(10); 
0812C:  MOVLW  0A
0812E:  MOVLB  4
08130:  MOVWF  x47
08132:  MOVLB  0
08134:  CALL   3FF8
08138:  MOVFF  03,45F
0813C:  MOVFF  02,45E
08140:  MOVFF  01,45D
08144:  MOVFF  00,45C
08148:  CALL   41F4
0814C:  MOVFF  02,380
08150:  MOVFF  01,37F
....................          PresionPreCamara=Leer_Sensor_Presion_PreCamara(10); 
08154:  MOVLW  0A
08156:  MOVLB  4
08158:  MOVWF  x47
0815A:  MOVLB  0
0815C:  CALL   4230
08160:  MOVFF  03,45F
08164:  MOVFF  02,45E
08168:  MOVFF  01,45D
0816C:  MOVFF  00,45C
08170:  CALL   41F4
08174:  MOVFF  02,382
08178:  MOVFF  01,381
....................          rtc_get_date(Dia,Mes,Year,dow); 
....................          rtc_get_time(Hora,Minuto,Segundo); 
....................          if(sensores(2)<512) 
*
08240:  MOVLW  02
08242:  MOVLB  4
08244:  MOVWF  x50
08246:  MOVLB  0
08248:  CALL   3A42
0824C:  MOVFF  00,447
08250:  MOVFF  01,448
08254:  MOVFF  02,449
08258:  MOVFF  03,44A
0825C:  MOVFF  03,44E
08260:  MOVFF  02,44D
08264:  MOVFF  01,44C
08268:  MOVFF  00,44B
0826C:  MOVLB  4
0826E:  CLRF   x52
08270:  CLRF   x51
08272:  CLRF   x50
08274:  MOVLW  88
08276:  MOVWF  x4F
08278:  MOVLB  0
0827A:  CALL   2DF8
0827E:  BNC   8284
....................             LOW=ON; 
08280:  BSF    xA5.4
....................          else 
08282:  BRA    8286
....................             LOW=OFF; 
08284:  BCF    xA5.4
....................           
....................          if(sensores(3)<512)//3 
08286:  MOVLW  03
08288:  MOVLB  4
0828A:  MOVWF  x50
0828C:  MOVLB  0
0828E:  CALL   3A42
08292:  MOVFF  00,447
08296:  MOVFF  01,448
0829A:  MOVFF  02,449
0829E:  MOVFF  03,44A
082A2:  MOVFF  03,44E
082A6:  MOVFF  02,44D
082AA:  MOVFF  01,44C
082AE:  MOVFF  00,44B
082B2:  MOVLB  4
082B4:  CLRF   x52
082B6:  CLRF   x51
082B8:  CLRF   x50
082BA:  MOVLW  88
082BC:  MOVWF  x4F
082BE:  MOVLB  0
082C0:  CALL   2DF8
082C4:  BNC   82CA
....................             HIG=ON; 
082C6:  BSF    xA5.5
....................          else 
082C8:  BRA    82CC
....................             HIG=OFF; 
082CA:  BCF    xA5.5
....................          tiempos3=0; 
082CC:  MOVLB  3
082CE:  CLRF   x78
082D0:  CLRF   x77
....................       } 
....................        
.................... // Monitoreo Parada Emergencia//--------------------------------------       
....................       if(!STOP && !IniciaCiclo && !PruebaEstados){ 
082D2:  BSF    F93.5
082D4:  BTFSS  F81.5
082D6:  BRA    833C
082D8:  MOVLB  0
082DA:  BTFSS  xA0.1
082DC:  BRA    82E2
082DE:  MOVLB  3
082E0:  BRA    833C
082E2:  BTFSS  xA1.3
082E4:  BRA    82EA
082E6:  MOVLB  3
082E8:  BRA    833C
....................          if(!disp_Stop){ 
082EA:  BTFSC  xA5.6
082EC:  BRA    830C
....................             disp_Stop=1;Menu=255; 
082EE:  BSF    xA5.6
082F0:  MOVLW  FF
082F2:  MOVLB  3
082F4:  MOVWF  x65
....................             printf("page Emergencia"); 
082F6:  MOVLW  C6
082F8:  MOVWF  FF6
082FA:  MOVLW  07
082FC:  MOVWF  FF7
082FE:  MOVLW  00
08300:  MOVWF  FF8
08302:  MOVLB  0
08304:  CALL   39B8
....................             SendDataDisplay(); 
08308:  CALL   39EA
....................          } 
....................          Controlando=0; 
0830C:  MOVLB  3
0830E:  CLRF   x5D
....................          Desfogue_on; 
08310:  BCF    F8B.1
08312:  BCF    F94.1
....................          SSR_off; 
08314:  BCF    F8D.1
08316:  BCF    F96.1
....................          SSR2_off; 
08318:  BCF    F8D.2
0831A:  BCF    F96.2
....................          #ifdef Generador 
....................          Paso_off; 
0831C:  BSF    F8B.0
0831E:  BCF    F94.0
....................          #else 
....................          Bomba_off; 
....................          #endif 
....................          Agua_off; 
08320:  BSF    F8B.2
08322:  BCF    F94.2
....................          DesfogueSuave=OFF; 
08324:  MOVLB  0
08326:  BCF    xA0.6
....................          ActivaAlarma(1); 
08328:  MOVLW  01
0832A:  MOVLB  4
0832C:  MOVWF  x47
0832E:  MOVLB  0
08330:  CALL   4842
....................          BorraBuffer(); 
08334:  GOTO   4976
....................       }else{ 
08338:  BRA    8344
0833A:  MOVLB  3
....................          if(disp_Stop){ 
0833C:  MOVLB  0
0833E:  BTFSS  xA5.6
08340:  BRA    8344
....................             reset_cpu(); 
08342:  RESET
....................          } 
....................       }            
....................    //Buzzer_off;    
.................... //_-------------------------------------------------------------------------------------------------------------------------------------------------------- 
....................    if(Menu==240){ //Menu de Bienvenida. 
08344:  MOVLB  3
08346:  MOVF   x65,W
08348:  SUBLW  F0
0834A:  BNZ   8394
....................       printf("bkcmd=0"); 
0834C:  MOVLW  D6
0834E:  MOVWF  FF6
08350:  MOVLW  07
08352:  MOVWF  FF7
08354:  MOVLW  00
08356:  MOVWF  FF8
08358:  MOVLB  0
0835A:  CALL   39B8
....................       SendDataDisplay(); 
0835E:  CALL   39EA
....................       delay_ms(1500); 
08362:  MOVLW  06
08364:  MOVLB  4
08366:  MOVWF  x47
08368:  MOVLW  FA
0836A:  MOVWF  x5C
0836C:  MOVLB  0
0836E:  CALL   1AF4
08372:  MOVLB  4
08374:  DECFSZ x47,F
08376:  BRA    8368
....................       printf("page Clave"); 
08378:  MOVLW  DE
0837A:  MOVWF  FF6
0837C:  MOVLW  07
0837E:  MOVWF  FF7
08380:  MOVLW  00
08382:  MOVWF  FF8
08384:  MOVLB  0
08386:  CALL   39B8
....................       SendDataDisplay(); 
0838A:  CALL   39EA
....................       ApagaSalidas(); 
0838E:  CALL   3A20
08392:  MOVLB  3
....................    } 
.................... //_-------------------------------------------------------------------------------------------------------------------------------------------------------- 
....................  
.................... //_-------------------------------------------------------------------------------------------------------------------------------------------------------- 
....................     if(Menu==0){ //Menu de Contrasea de acceso. 
08394:  MOVF   x65,F
08396:  BTFSS  FD8.2
08398:  GOTO   8E0E
....................       //ApagaSalidas(); 
....................       entro=OFF; 
0839C:  MOVLB  0
0839E:  BCF    xA4.3
....................       if(Digito==1){ 
083A0:  MOVLB  2
083A2:  DECFSZ xE7,W
083A4:  BRA    83F0
....................          printf("t0.txt=\"%u\"",Contrasena[0]); 
083A6:  MOVLW  EA
083A8:  MOVWF  FF6
083AA:  MOVLW  07
083AC:  MOVWF  FF7
083AE:  MOVLW  00
083B0:  MOVWF  FF8
083B2:  MOVLW  08
083B4:  MOVLB  4
083B6:  MOVWF  x4C
083B8:  MOVLB  0
083BA:  CALL   49A2
083BE:  MOVFF  38B,44C
083C2:  MOVLW  1B
083C4:  MOVLB  4
083C6:  MOVWF  x4D
083C8:  MOVLB  0
083CA:  CALL   4A00
083CE:  MOVLW  22
083D0:  BTFSS  F9E.4
083D2:  BRA    83D0
083D4:  MOVWF  FAD
....................          SendDataDisplay(); 
083D6:  CALL   39EA
....................          printf("va0.val=1"); 
083DA:  MOVLW  F6
083DC:  MOVWF  FF6
083DE:  MOVLW  07
083E0:  MOVWF  FF7
083E2:  MOVLW  00
083E4:  MOVWF  FF8
083E6:  CALL   39B8
....................          SendDataDisplay(); 
083EA:  CALL   39EA
083EE:  MOVLB  2
....................       } 
....................        
....................       if(Digito==2){ 
083F0:  MOVF   xE7,W
083F2:  SUBLW  02
083F4:  BNZ   8450
....................          printf("t0.txt=\"%u%u\"",Contrasena[0],Contrasena[1]); 
083F6:  MOVLW  00
083F8:  MOVWF  FF6
083FA:  MOVLW  08
083FC:  MOVWF  FF7
083FE:  MOVLW  00
08400:  MOVWF  FF8
08402:  MOVLW  08
08404:  MOVLB  4
08406:  MOVWF  x4C
08408:  MOVLB  0
0840A:  CALL   49A2
0840E:  MOVFF  38B,44C
08412:  MOVLW  1B
08414:  MOVLB  4
08416:  MOVWF  x4D
08418:  MOVLB  0
0841A:  CALL   4A00
0841E:  MOVFF  38C,44C
08422:  MOVLW  1B
08424:  MOVLB  4
08426:  MOVWF  x4D
08428:  MOVLB  0
0842A:  CALL   4A00
0842E:  MOVLW  22
08430:  BTFSS  F9E.4
08432:  BRA    8430
08434:  MOVWF  FAD
....................          SendDataDisplay(); 
08436:  CALL   39EA
....................          printf("va0.val=2"); 
0843A:  MOVLW  0E
0843C:  MOVWF  FF6
0843E:  MOVLW  08
08440:  MOVWF  FF7
08442:  MOVLW  00
08444:  MOVWF  FF8
08446:  CALL   39B8
....................          SendDataDisplay(); 
0844A:  CALL   39EA
0844E:  MOVLB  2
....................       } 
....................        
....................       if(Digito==3){ 
08450:  MOVF   xE7,W
08452:  SUBLW  03
08454:  BNZ   84C0
....................          printf("t0.txt=\"%u%u%u\"",Contrasena[0],Contrasena[1],Contrasena[2]); 
08456:  MOVLW  18
08458:  MOVWF  FF6
0845A:  MOVLW  08
0845C:  MOVWF  FF7
0845E:  MOVLW  00
08460:  MOVWF  FF8
08462:  MOVLW  08
08464:  MOVLB  4
08466:  MOVWF  x4C
08468:  MOVLB  0
0846A:  CALL   49A2
0846E:  MOVFF  38B,44C
08472:  MOVLW  1B
08474:  MOVLB  4
08476:  MOVWF  x4D
08478:  MOVLB  0
0847A:  CALL   4A00
0847E:  MOVFF  38C,44C
08482:  MOVLW  1B
08484:  MOVLB  4
08486:  MOVWF  x4D
08488:  MOVLB  0
0848A:  CALL   4A00
0848E:  MOVFF  38D,44C
08492:  MOVLW  1B
08494:  MOVLB  4
08496:  MOVWF  x4D
08498:  MOVLB  0
0849A:  CALL   4A00
0849E:  MOVLW  22
084A0:  BTFSS  F9E.4
084A2:  BRA    84A0
084A4:  MOVWF  FAD
....................          SendDataDisplay(); 
084A6:  CALL   39EA
....................          printf("va0.val=3"); 
084AA:  MOVLW  28
084AC:  MOVWF  FF6
084AE:  MOVLW  08
084B0:  MOVWF  FF7
084B2:  MOVLW  00
084B4:  MOVWF  FF8
084B6:  CALL   39B8
....................          SendDataDisplay(); 
084BA:  CALL   39EA
084BE:  MOVLB  2
....................       } 
....................        
....................       if(Digito==4){ 
084C0:  MOVF   xE7,W
084C2:  SUBLW  04
084C4:  BNZ   8540
....................          printf("t0.txt=\"%u%u%u%u\"",Contrasena[0],Contrasena[1],Contrasena[2],Contrasena[3]); 
084C6:  MOVLW  32
084C8:  MOVWF  FF6
084CA:  MOVLW  08
084CC:  MOVWF  FF7
084CE:  MOVLW  00
084D0:  MOVWF  FF8
084D2:  MOVLW  08
084D4:  MOVLB  4
084D6:  MOVWF  x4C
084D8:  MOVLB  0
084DA:  CALL   49A2
084DE:  MOVFF  38B,44C
084E2:  MOVLW  1B
084E4:  MOVLB  4
084E6:  MOVWF  x4D
084E8:  MOVLB  0
084EA:  CALL   4A00
084EE:  MOVFF  38C,44C
084F2:  MOVLW  1B
084F4:  MOVLB  4
084F6:  MOVWF  x4D
084F8:  MOVLB  0
084FA:  CALL   4A00
084FE:  MOVFF  38D,44C
08502:  MOVLW  1B
08504:  MOVLB  4
08506:  MOVWF  x4D
08508:  MOVLB  0
0850A:  CALL   4A00
0850E:  MOVFF  38E,44C
08512:  MOVLW  1B
08514:  MOVLB  4
08516:  MOVWF  x4D
08518:  MOVLB  0
0851A:  CALL   4A00
0851E:  MOVLW  22
08520:  BTFSS  F9E.4
08522:  BRA    8520
08524:  MOVWF  FAD
....................          SendDataDisplay(); 
08526:  CALL   39EA
....................          printf("va0.val=4"); 
0852A:  MOVLW  44
0852C:  MOVWF  FF6
0852E:  MOVLW  08
08530:  MOVWF  FF7
08532:  MOVLW  00
08534:  MOVWF  FF8
08536:  CALL   39B8
....................          SendDataDisplay(); 
0853A:  CALL   39EA
0853E:  MOVLB  2
....................       } 
....................        
....................       if(UP){ 
08540:  BSF    F93.3
08542:  BTFSC  F81.3
08544:  BRA    858E
....................          delay_ms(100); 
08546:  MOVLW  64
08548:  MOVLB  4
0854A:  MOVWF  x5C
0854C:  MOVLB  0
0854E:  CALL   1AF4
....................          if(UP){ 
08552:  BSF    F93.3
08554:  BTFSC  F81.3
08556:  BRA    8590
....................          if(Digito==0) 
08558:  MOVLB  2
0855A:  MOVF   xE7,F
0855C:  BNZ   8562
....................             Digito=1; 
0855E:  MOVLW  01
08560:  MOVWF  xE7
....................             if(Contrasena[Digito-1]<9) 
08562:  MOVLW  01
08564:  SUBWF  xE7,W
08566:  CLRF   03
08568:  ADDLW  8B
0856A:  MOVWF  FE9
0856C:  MOVLW  03
0856E:  ADDWFC 03,W
08570:  MOVWF  FEA
08572:  BTFSC  FEF.7
08574:  BRA    857C
08576:  MOVF   FEF,W
08578:  SUBLW  08
0857A:  BNC   858E
....................                Contrasena[Digito-1]++; 
0857C:  MOVLW  01
0857E:  SUBWF  xE7,W
08580:  CLRF   03
08582:  ADDLW  8B
08584:  MOVWF  FE9
08586:  MOVLW  03
08588:  ADDWFC 03,W
0858A:  MOVWF  FEA
0858C:  INCF   FEF,F
0858E:  MOVLB  0
....................          } 
....................       } 
....................        
....................       if(DOWN){ 
08590:  BSF    F93.2
08592:  BTFSC  F81.2
08594:  BRA    85E0
....................          delay_ms(100); 
08596:  MOVLW  64
08598:  MOVLB  4
0859A:  MOVWF  x5C
0859C:  MOVLB  0
0859E:  CALL   1AF4
....................          if(Digito==0) 
085A2:  MOVLB  2
085A4:  MOVF   xE7,F
085A6:  BNZ   85AC
....................             Digito=1; 
085A8:  MOVLW  01
085AA:  MOVWF  xE7
....................          if(DOWN){ 
085AC:  BSF    F93.2
085AE:  BTFSC  F81.2
085B0:  BRA    85DE
....................             if(Contrasena[Digito-1]>0) 
085B2:  MOVLW  01
085B4:  SUBWF  xE7,W
085B6:  CLRF   03
085B8:  ADDLW  8B
085BA:  MOVWF  FE9
085BC:  MOVLW  03
085BE:  ADDWFC 03,W
085C0:  MOVWF  FEA
085C2:  BTFSC  FEF.7
085C4:  BRA    85DE
085C6:  MOVF   FEF,W
085C8:  SUBLW  00
085CA:  BC    85DE
....................                Contrasena[Digito-1]--; 
085CC:  MOVLW  01
085CE:  SUBWF  xE7,W
085D0:  CLRF   03
085D2:  ADDLW  8B
085D4:  MOVWF  FE9
085D6:  MOVLW  03
085D8:  ADDWFC 03,W
085DA:  MOVWF  FEA
085DC:  DECF   FEF,F
085DE:  MOVLB  0
....................          } 
....................       } 
....................        
....................       if(RIGHT){ 
085E0:  BSF    F93.1
085E2:  BTFSC  F81.1
085E4:  BRA    85FE
....................          delay_ms(100); 
085E6:  MOVLW  64
085E8:  MOVLB  4
085EA:  MOVWF  x5C
085EC:  MOVLB  0
085EE:  CALL   1AF4
....................          if(RIGHT){ 
085F2:  BSF    F93.1
085F4:  BTFSC  F81.1
085F6:  BRA    85FE
....................             Digito++; 
085F8:  MOVLB  2
085FA:  INCF   xE7,F
085FC:  MOVLB  0
....................          } 
....................       } 
....................        
....................       if(Digito>4){ 
085FE:  MOVLB  2
08600:  MOVF   xE7,W
08602:  SUBLW  04
08604:  BTFSC  FD8.0
08606:  BRA    8958
....................       Digito=0; 
08608:  CLRF   xE7
....................       printf("t0.txt=\"\""); 
0860A:  MOVLW  4E
0860C:  MOVWF  FF6
0860E:  MOVLW  08
08610:  MOVWF  FF7
08612:  MOVLW  00
08614:  MOVWF  FF8
08616:  MOVLB  0
08618:  CALL   39B8
....................       SendDataDisplay(); 
0861C:  CALL   39EA
....................          if(TipoClave==0){ 
08620:  MOVLB  2
08622:  MOVF   xE5,F
08624:  BTFSS  FD8.2
08626:  BRA    8776
....................             if(Contrasena[0]==3&&Contrasena[1]==8&&Contrasena[2]==9&&Contrasena[3]==2){ // Si Ingresa clave para reset general del sistema. 
08628:  MOVLB  3
0862A:  MOVF   x8B,W
0862C:  SUBLW  03
0862E:  BTFSS  FD8.2
08630:  BRA    872A
08632:  MOVF   x8C,W
08634:  SUBLW  08
08636:  BTFSS  FD8.2
08638:  BRA    872A
0863A:  MOVF   x8D,W
0863C:  SUBLW  09
0863E:  BNZ   872A
08640:  MOVF   x8E,W
08642:  SUBLW  02
08644:  BNZ   872A
....................                write_eeprom(10,0);delay_ms(20);write_eeprom(11,0);delay_ms(20);// Reestablece a contrasea de Fabrica y reinicia Programa. 
08646:  CLRF   FAA
08648:  MOVLW  0A
0864A:  MOVWF  FA9
0864C:  CLRF   FA8
0864E:  BCF    FA6.6
08650:  BCF    FA6.7
08652:  BSF    FA6.2
08654:  MOVF   FF2,W
08656:  MOVWF  00
08658:  BCF    FF2.6
0865A:  BCF    FF2.7
0865C:  MOVLB  F
0865E:  MOVLW  55
08660:  MOVWF  FA7
08662:  MOVLW  AA
08664:  MOVWF  FA7
08666:  BSF    FA6.1
08668:  BTFSC  FA6.1
0866A:  BRA    8668
0866C:  BCF    FA6.2
0866E:  MOVF   00,W
08670:  IORWF  FF2,F
08672:  MOVLW  14
08674:  MOVLB  4
08676:  MOVWF  x5C
08678:  MOVLB  0
0867A:  CALL   1AF4
0867E:  CLRF   FAA
08680:  MOVLW  0B
08682:  MOVWF  FA9
08684:  CLRF   FA8
08686:  BCF    FA6.6
08688:  BCF    FA6.7
0868A:  BSF    FA6.2
0868C:  MOVF   FF2,W
0868E:  MOVWF  00
08690:  BCF    FF2.6
08692:  BCF    FF2.7
08694:  MOVLB  F
08696:  MOVLW  55
08698:  MOVWF  FA7
0869A:  MOVLW  AA
0869C:  MOVWF  FA7
0869E:  BSF    FA6.1
086A0:  BTFSC  FA6.1
086A2:  BRA    86A0
086A4:  BCF    FA6.2
086A6:  MOVF   00,W
086A8:  IORWF  FF2,F
086AA:  MOVLW  14
086AC:  MOVLB  4
086AE:  MOVWF  x5C
086B0:  MOVLB  0
086B2:  CALL   1AF4
....................                write_eeprom(12,0);delay_ms(20);write_eeprom(13,0);delay_ms(20); 
086B6:  CLRF   FAA
086B8:  MOVLW  0C
086BA:  MOVWF  FA9
086BC:  CLRF   FA8
086BE:  BCF    FA6.6
086C0:  BCF    FA6.7
086C2:  BSF    FA6.2
086C4:  MOVF   FF2,W
086C6:  MOVWF  00
086C8:  BCF    FF2.6
086CA:  BCF    FF2.7
086CC:  MOVLB  F
086CE:  MOVLW  55
086D0:  MOVWF  FA7
086D2:  MOVLW  AA
086D4:  MOVWF  FA7
086D6:  BSF    FA6.1
086D8:  BTFSC  FA6.1
086DA:  BRA    86D8
086DC:  BCF    FA6.2
086DE:  MOVF   00,W
086E0:  IORWF  FF2,F
086E2:  MOVLW  14
086E4:  MOVLB  4
086E6:  MOVWF  x5C
086E8:  MOVLB  0
086EA:  CALL   1AF4
086EE:  CLRF   FAA
086F0:  MOVLW  0D
086F2:  MOVWF  FA9
086F4:  CLRF   FA8
086F6:  BCF    FA6.6
086F8:  BCF    FA6.7
086FA:  BSF    FA6.2
086FC:  MOVF   FF2,W
086FE:  MOVWF  00
08700:  BCF    FF2.6
08702:  BCF    FF2.7
08704:  MOVLB  F
08706:  MOVLW  55
08708:  MOVWF  FA7
0870A:  MOVLW  AA
0870C:  MOVWF  FA7
0870E:  BSF    FA6.1
08710:  BTFSC  FA6.1
08712:  BRA    8710
08714:  BCF    FA6.2
08716:  MOVF   00,W
08718:  IORWF  FF2,F
0871A:  MOVLW  14
0871C:  MOVLB  4
0871E:  MOVWF  x5C
08720:  MOVLB  0
08722:  CALL   1AF4
....................                reset_cpu(); 
08726:  RESET
08728:  MOVLB  3
....................             } 
....................              
....................             if((Contrasena[0]==Password[0])&&(Contrasena[1]==Password[1])&&(Contrasena[2]==Password[2])&&(Contrasena[3]==Password[3])){ 
0872A:  MOVF   x8F,W
0872C:  SUBWF  x8B,W
0872E:  BNZ   875C
08730:  MOVF   x90,W
08732:  SUBWF  x8C,W
08734:  BNZ   875C
08736:  MOVF   x91,W
08738:  SUBWF  x8D,W
0873A:  BNZ   875C
0873C:  MOVF   x92,W
0873E:  SUBWF  x8E,W
08740:  BNZ   875C
....................                //BorraBuffer(); 
....................                printf("page ClaveCorrecta"); 
08742:  MOVLW  58
08744:  MOVWF  FF6
08746:  MOVLW  08
08748:  MOVWF  FF7
0874A:  MOVLW  00
0874C:  MOVWF  FF8
0874E:  MOVLB  0
08750:  CALL   39B8
....................                SendDataDisplay(); 
08754:  CALL   39EA
....................             }else{ 
08758:  BRA    8772
0875A:  MOVLB  3
....................                //BorraBuffer(); 
....................                printf("page ClaveBad"); 
0875C:  MOVLW  6C
0875E:  MOVWF  FF6
08760:  MOVLW  08
08762:  MOVWF  FF7
08764:  MOVLW  00
08766:  MOVWF  FF8
08768:  MOVLB  0
0876A:  CALL   39B8
....................                SendDataDisplay(); 
0876E:  CALL   39EA
....................             }  
....................          }else if(TipoClave==1){ 
08772:  BRA    8956
08774:  MOVLB  2
08776:  DECFSZ xE5,W
08778:  BRA    87C8
....................             if(Contrasena[0]==4&&Contrasena[1]==4&&Contrasena[2]==4&&Contrasena[3]==4){ // Si Ingresa clave de Servicio Tecnico 
0877A:  MOVLB  3
0877C:  MOVF   x8B,W
0877E:  SUBLW  04
08780:  BNZ   87AE
08782:  MOVF   x8C,W
08784:  SUBLW  04
08786:  BNZ   87AE
08788:  MOVF   x8D,W
0878A:  SUBLW  04
0878C:  BNZ   87AE
0878E:  MOVF   x8E,W
08790:  SUBLW  04
08792:  BNZ   87AE
....................                printf("page Config"); 
08794:  MOVLW  7A
08796:  MOVWF  FF6
08798:  MOVLW  08
0879A:  MOVWF  FF7
0879C:  MOVLW  00
0879E:  MOVWF  FF8
087A0:  MOVLB  0
087A2:  CALL   39B8
....................                SendDataDisplay(); 
087A6:  CALL   39EA
....................             }else{ 
087AA:  BRA    87C4
087AC:  MOVLB  3
....................                printf("page MenuPrincipal"); 
087AE:  MOVLW  86
087B0:  MOVWF  FF6
087B2:  MOVLW  08
087B4:  MOVWF  FF7
087B6:  MOVLW  00
087B8:  MOVWF  FF8
087BA:  MOVLB  0
087BC:  CALL   39B8
....................                SendDataDisplay(); 
087C0:  CALL   39EA
....................             } 
....................          }else if(TipoClave==2){ 
087C4:  BRA    8956
087C6:  MOVLB  2
087C8:  MOVF   xE5,W
087CA:  SUBLW  02
087CC:  BNZ   8836
....................             if((Contrasena[0]==Password[0])&&(Contrasena[1]==Password[1])&&(Contrasena[2]==Password[2])&&(Contrasena[3]==Password[3])){ 
087CE:  MOVLB  3
087D0:  MOVF   x8F,W
087D2:  SUBWF  x8B,W
087D4:  BNZ   881C
087D6:  MOVF   x90,W
087D8:  SUBWF  x8C,W
087DA:  BNZ   881C
087DC:  MOVF   x91,W
087DE:  SUBWF  x8D,W
087E0:  BNZ   881C
087E2:  MOVF   x92,W
087E4:  SUBWF  x8E,W
087E6:  BNZ   881C
....................                printf("page Clave"); 
087E8:  MOVLW  9A
087EA:  MOVWF  FF6
087EC:  MOVLW  08
087EE:  MOVWF  FF7
087F0:  MOVLW  00
087F2:  MOVWF  FF8
087F4:  MOVLB  0
087F6:  CALL   39B8
....................                SendDataDisplay(); 
087FA:  CALL   39EA
....................                printf("titulo.txt=\"Clave Nueva\""); 
087FE:  MOVLW  A6
08800:  MOVWF  FF6
08802:  MOVLW  08
08804:  MOVWF  FF7
08806:  MOVLW  00
08808:  MOVWF  FF8
0880A:  CALL   39B8
....................                SendDataDisplay(); 
0880E:  CALL   39EA
....................                TipoClave=3; 
08812:  MOVLW  03
08814:  MOVLB  2
08816:  MOVWF  xE5
....................             }else{ 
08818:  BRA    8834
0881A:  MOVLB  3
....................                printf("page MenuPrincipal"); 
0881C:  MOVLW  C0
0881E:  MOVWF  FF6
08820:  MOVLW  08
08822:  MOVWF  FF7
08824:  MOVLW  00
08826:  MOVWF  FF8
08828:  MOVLB  0
0882A:  CALL   39B8
....................                SendDataDisplay(); 
0882E:  CALL   39EA
08832:  MOVLB  2
....................             }  
....................          }else if(TipoClave==3){ 
08834:  BRA    8958
08836:  MOVF   xE5,W
08838:  SUBLW  03
0883A:  BTFSS  FD8.2
0883C:  BRA    8958
....................             printf("titulo.txt=\"Clave Nueva\""); 
0883E:  MOVLW  D4
08840:  MOVWF  FF6
08842:  MOVLW  08
08844:  MOVWF  FF7
08846:  MOVLW  00
08848:  MOVWF  FF8
0884A:  MOVLB  0
0884C:  CALL   39B8
....................             SendDataDisplay(); 
08850:  CALL   39EA
....................             printf("page MenuPrincipal"); 
08854:  MOVLW  EE
08856:  MOVWF  FF6
08858:  MOVLW  08
0885A:  MOVWF  FF7
0885C:  MOVLW  00
0885E:  MOVWF  FF8
08860:  CALL   39B8
....................             SendDataDisplay(); 
08864:  CALL   39EA
....................             if(!GuardaEEPROM){ 
08868:  BTFSC  xA2.6
0886A:  BRA    8956
....................                write_eeprom(10,Contrasena[0]);delay_ms(20);write_eeprom(11,Contrasena[1]);delay_ms(20); 
0886C:  CLRF   FAA
0886E:  MOVLW  0A
08870:  MOVWF  FA9
08872:  MOVFF  38B,FA8
08876:  BCF    FA6.6
08878:  BCF    FA6.7
0887A:  BSF    FA6.2
0887C:  MOVF   FF2,W
0887E:  MOVWF  00
08880:  BCF    FF2.6
08882:  BCF    FF2.7
08884:  MOVLB  F
08886:  MOVLW  55
08888:  MOVWF  FA7
0888A:  MOVLW  AA
0888C:  MOVWF  FA7
0888E:  BSF    FA6.1
08890:  BTFSC  FA6.1
08892:  BRA    8890
08894:  BCF    FA6.2
08896:  MOVF   00,W
08898:  IORWF  FF2,F
0889A:  MOVLW  14
0889C:  MOVLB  4
0889E:  MOVWF  x5C
088A0:  MOVLB  0
088A2:  CALL   1AF4
088A6:  CLRF   FAA
088A8:  MOVLW  0B
088AA:  MOVWF  FA9
088AC:  MOVFF  38C,FA8
088B0:  BCF    FA6.6
088B2:  BCF    FA6.7
088B4:  BSF    FA6.2
088B6:  MOVF   FF2,W
088B8:  MOVWF  00
088BA:  BCF    FF2.6
088BC:  BCF    FF2.7
088BE:  MOVLB  F
088C0:  MOVLW  55
088C2:  MOVWF  FA7
088C4:  MOVLW  AA
088C6:  MOVWF  FA7
088C8:  BSF    FA6.1
088CA:  BTFSC  FA6.1
088CC:  BRA    88CA
088CE:  BCF    FA6.2
088D0:  MOVF   00,W
088D2:  IORWF  FF2,F
088D4:  MOVLW  14
088D6:  MOVLB  4
088D8:  MOVWF  x5C
088DA:  MOVLB  0
088DC:  CALL   1AF4
....................                write_eeprom(12,Contrasena[2]);delay_ms(20);write_eeprom(13,Contrasena[3]);delay_ms(20); 
088E0:  CLRF   FAA
088E2:  MOVLW  0C
088E4:  MOVWF  FA9
088E6:  MOVFF  38D,FA8
088EA:  BCF    FA6.6
088EC:  BCF    FA6.7
088EE:  BSF    FA6.2
088F0:  MOVF   FF2,W
088F2:  MOVWF  00
088F4:  BCF    FF2.6
088F6:  BCF    FF2.7
088F8:  MOVLB  F
088FA:  MOVLW  55
088FC:  MOVWF  FA7
088FE:  MOVLW  AA
08900:  MOVWF  FA7
08902:  BSF    FA6.1
08904:  BTFSC  FA6.1
08906:  BRA    8904
08908:  BCF    FA6.2
0890A:  MOVF   00,W
0890C:  IORWF  FF2,F
0890E:  MOVLW  14
08910:  MOVLB  4
08912:  MOVWF  x5C
08914:  MOVLB  0
08916:  CALL   1AF4
0891A:  CLRF   FAA
0891C:  MOVLW  0D
0891E:  MOVWF  FA9
08920:  MOVFF  38E,FA8
08924:  BCF    FA6.6
08926:  BCF    FA6.7
08928:  BSF    FA6.2
0892A:  MOVF   FF2,W
0892C:  MOVWF  00
0892E:  BCF    FF2.6
08930:  BCF    FF2.7
08932:  MOVLB  F
08934:  MOVLW  55
08936:  MOVWF  FA7
08938:  MOVLW  AA
0893A:  MOVWF  FA7
0893C:  BSF    FA6.1
0893E:  BTFSC  FA6.1
08940:  BRA    893E
08942:  BCF    FA6.2
08944:  MOVF   00,W
08946:  IORWF  FF2,F
08948:  MOVLW  14
0894A:  MOVLB  4
0894C:  MOVWF  x5C
0894E:  MOVLB  0
08950:  CALL   1AF4
....................                GuardaEEPROM=ON; 
08954:  BSF    xA2.6
08956:  MOVLB  2
....................             } 
....................          } 
....................       } 
....................        
....................       if(RX_Buffer[4]==0x11){//11 
08958:  MOVF   34,W
0895A:  SUBLW  11
0895C:  BNZ   897C
....................          if(TipoClave!=0){ 
0895E:  MOVF   xE5,F
08960:  BZ    897C
....................             printf("page MenuPrincipal"); 
08962:  MOVLW  02
08964:  MOVWF  FF6
08966:  MOVLW  09
08968:  MOVWF  FF7
0896A:  MOVLW  00
0896C:  MOVWF  FF8
0896E:  MOVLB  0
08970:  CALL   39B8
....................             SendDataDisplay(); 
08974:  CALL   39EA
....................             PantallaPrincipal=0; 
08978:  MOVLB  2
0897A:  CLRF   xE4
....................          } 
....................       } 
....................        
....................       if(TipoClave==3){ 
0897C:  MOVF   xE5,W
0897E:  SUBLW  03
08980:  BNZ   89AE
....................          printf("titulo.txt=\"Clave Nueva\""); 
08982:  MOVLW  16
08984:  MOVWF  FF6
08986:  MOVLW  09
08988:  MOVWF  FF7
0898A:  MOVLW  00
0898C:  MOVWF  FF8
0898E:  MOVLB  0
08990:  CALL   39B8
....................          SendDataDisplay(); 
08994:  CALL   39EA
....................          printf("doevents"); 
08998:  MOVLW  30
0899A:  MOVWF  FF6
0899C:  MOVLW  09
0899E:  MOVWF  FF7
089A0:  MOVLW  00
089A2:  MOVWF  FF8
089A4:  CALL   39B8
....................          SendDataDisplay(); 
089A8:  CALL   39EA
089AC:  MOVLB  2
....................       } 
....................        
....................       if(TipoClave==2){ 
089AE:  MOVF   xE5,W
089B0:  SUBLW  02
089B2:  BNZ   89E0
....................          printf("titulo.txt=\"Clave Actual\""); 
089B4:  MOVLW  3A
089B6:  MOVWF  FF6
089B8:  MOVLW  09
089BA:  MOVWF  FF7
089BC:  MOVLW  00
089BE:  MOVWF  FF8
089C0:  MOVLB  0
089C2:  CALL   39B8
....................          SendDataDisplay(); 
089C6:  CALL   39EA
....................          printf("doevents"); 
089CA:  MOVLW  54
089CC:  MOVWF  FF6
089CE:  MOVLW  09
089D0:  MOVWF  FF7
089D2:  MOVLW  00
089D4:  MOVWF  FF8
089D6:  CALL   39B8
....................          SendDataDisplay(); 
089DA:  CALL   39EA
089DE:  MOVLB  2
....................       } 
....................        
....................       if(TipoClave==1){ 
089E0:  DECFSZ xE5,W
089E2:  BRA    8A10
....................          printf("titulo.txt=\"Clave Tecnico\""); 
089E4:  MOVLW  5E
089E6:  MOVWF  FF6
089E8:  MOVLW  09
089EA:  MOVWF  FF7
089EC:  MOVLW  00
089EE:  MOVWF  FF8
089F0:  MOVLB  0
089F2:  CALL   39B8
....................          SendDataDisplay(); 
089F6:  CALL   39EA
....................          printf("doevents"); 
089FA:  MOVLW  7A
089FC:  MOVWF  FF6
089FE:  MOVLW  09
08A00:  MOVWF  FF7
08A02:  MOVLW  00
08A04:  MOVWF  FF8
08A06:  CALL   39B8
....................          SendDataDisplay(); 
08A0A:  CALL   39EA
08A0E:  MOVLB  2
....................       } 
....................        
....................       if(TipoClave==0){ 
08A10:  MOVF   xE5,F
08A12:  BNZ   8A2C
....................          printf("titulo.txt=\"Ingrese Contrasea\""); 
08A14:  MOVLW  84
08A16:  MOVWF  FF6
08A18:  MOVLW  09
08A1A:  MOVWF  FF7
08A1C:  MOVLW  00
08A1E:  MOVWF  FF8
08A20:  MOVLB  0
08A22:  CALL   39B8
....................          SendDataDisplay(); 
08A26:  CALL   39EA
08A2A:  MOVLB  2
....................       } 
....................       if(RX_Buffer[3]==0x0f){//0f, recibe caracteres ingresados desde el Display 
08A2C:  MOVF   33,W
08A2E:  SUBLW  0F
08A30:  BTFSS  FD8.2
08A32:  BRA    8E0C
....................          if(TipoClave==0){ 
08A34:  MOVF   xE5,F
08A36:  BTFSS  FD8.2
08A38:  BRA    8BC8
....................             if(RX_Buffer[4]==0x33&&RX_Buffer[5]==0x38&&RX_Buffer[6]==0x39&&RX_Buffer[7]==0x32){ // Si Ingresa clave para reset general del sistema. 
08A3A:  MOVF   34,W
08A3C:  SUBLW  33
08A3E:  BTFSS  FD8.2
08A40:  BRA    8B3A
08A42:  MOVF   35,W
08A44:  SUBLW  38
08A46:  BTFSS  FD8.2
08A48:  BRA    8B3A
08A4A:  MOVF   36,W
08A4C:  SUBLW  39
08A4E:  BNZ   8B3A
08A50:  MOVF   37,W
08A52:  SUBLW  32
08A54:  BNZ   8B3A
....................                write_eeprom(10,0);delay_ms(20);write_eeprom(11,0);delay_ms(20);// Reestablece a contrasea de Fabrica y reinicia Programa. 
08A56:  CLRF   FAA
08A58:  MOVLW  0A
08A5A:  MOVWF  FA9
08A5C:  CLRF   FA8
08A5E:  BCF    FA6.6
08A60:  BCF    FA6.7
08A62:  BSF    FA6.2
08A64:  MOVF   FF2,W
08A66:  MOVWF  00
08A68:  BCF    FF2.6
08A6A:  BCF    FF2.7
08A6C:  MOVLB  F
08A6E:  MOVLW  55
08A70:  MOVWF  FA7
08A72:  MOVLW  AA
08A74:  MOVWF  FA7
08A76:  BSF    FA6.1
08A78:  BTFSC  FA6.1
08A7A:  BRA    8A78
08A7C:  BCF    FA6.2
08A7E:  MOVF   00,W
08A80:  IORWF  FF2,F
08A82:  MOVLW  14
08A84:  MOVLB  4
08A86:  MOVWF  x5C
08A88:  MOVLB  0
08A8A:  CALL   1AF4
08A8E:  CLRF   FAA
08A90:  MOVLW  0B
08A92:  MOVWF  FA9
08A94:  CLRF   FA8
08A96:  BCF    FA6.6
08A98:  BCF    FA6.7
08A9A:  BSF    FA6.2
08A9C:  MOVF   FF2,W
08A9E:  MOVWF  00
08AA0:  BCF    FF2.6
08AA2:  BCF    FF2.7
08AA4:  MOVLB  F
08AA6:  MOVLW  55
08AA8:  MOVWF  FA7
08AAA:  MOVLW  AA
08AAC:  MOVWF  FA7
08AAE:  BSF    FA6.1
08AB0:  BTFSC  FA6.1
08AB2:  BRA    8AB0
08AB4:  BCF    FA6.2
08AB6:  MOVF   00,W
08AB8:  IORWF  FF2,F
08ABA:  MOVLW  14
08ABC:  MOVLB  4
08ABE:  MOVWF  x5C
08AC0:  MOVLB  0
08AC2:  CALL   1AF4
....................                write_eeprom(12,0);delay_ms(20);write_eeprom(13,0);delay_ms(20); 
08AC6:  CLRF   FAA
08AC8:  MOVLW  0C
08ACA:  MOVWF  FA9
08ACC:  CLRF   FA8
08ACE:  BCF    FA6.6
08AD0:  BCF    FA6.7
08AD2:  BSF    FA6.2
08AD4:  MOVF   FF2,W
08AD6:  MOVWF  00
08AD8:  BCF    FF2.6
08ADA:  BCF    FF2.7
08ADC:  MOVLB  F
08ADE:  MOVLW  55
08AE0:  MOVWF  FA7
08AE2:  MOVLW  AA
08AE4:  MOVWF  FA7
08AE6:  BSF    FA6.1
08AE8:  BTFSC  FA6.1
08AEA:  BRA    8AE8
08AEC:  BCF    FA6.2
08AEE:  MOVF   00,W
08AF0:  IORWF  FF2,F
08AF2:  MOVLW  14
08AF4:  MOVLB  4
08AF6:  MOVWF  x5C
08AF8:  MOVLB  0
08AFA:  CALL   1AF4
08AFE:  CLRF   FAA
08B00:  MOVLW  0D
08B02:  MOVWF  FA9
08B04:  CLRF   FA8
08B06:  BCF    FA6.6
08B08:  BCF    FA6.7
08B0A:  BSF    FA6.2
08B0C:  MOVF   FF2,W
08B0E:  MOVWF  00
08B10:  BCF    FF2.6
08B12:  BCF    FF2.7
08B14:  MOVLB  F
08B16:  MOVLW  55
08B18:  MOVWF  FA7
08B1A:  MOVLW  AA
08B1C:  MOVWF  FA7
08B1E:  BSF    FA6.1
08B20:  BTFSC  FA6.1
08B22:  BRA    8B20
08B24:  BCF    FA6.2
08B26:  MOVF   00,W
08B28:  IORWF  FF2,F
08B2A:  MOVLW  14
08B2C:  MOVLB  4
08B2E:  MOVWF  x5C
08B30:  MOVLB  0
08B32:  CALL   1AF4
....................                reset_cpu(); 
08B36:  RESET
08B38:  MOVLB  2
....................             } 
....................             if(RX_Buffer[4]>=0x30 && RX_Buffer[5]>=0x30 && RX_Buffer[6]>=0x30 && RX_Buffer[7]>=0x30 
....................             && RX_Buffer[4]<=0x39 && RX_Buffer[5]<=0x39 && RX_Buffer[6]<=0x39 && RX_Buffer[7]<=0x39){ 
08B3A:  MOVF   34,W
08B3C:  SUBLW  2F
08B3E:  BC    8BC6
08B40:  MOVF   35,W
08B42:  SUBLW  2F
08B44:  BC    8BC6
08B46:  MOVF   36,W
08B48:  SUBLW  2F
08B4A:  BC    8BC6
08B4C:  MOVF   37,W
08B4E:  SUBLW  2F
08B50:  BC    8BC6
08B52:  MOVF   34,W
08B54:  SUBLW  39
08B56:  BNC   8BC6
08B58:  MOVF   35,W
08B5A:  SUBLW  39
08B5C:  BNC   8BC6
08B5E:  MOVF   36,W
08B60:  SUBLW  39
08B62:  BNC   8BC6
08B64:  MOVF   37,W
08B66:  SUBLW  39
08B68:  BNC   8BC6
....................             if((RX_Buffer[4]==Password[0]+0x30)&&(RX_Buffer[5]==Password[1]+0x30)&&(RX_Buffer[6]==Password[2]+0x30)&&(RX_Buffer[7]==Password[3]+0x30)){ 
08B6A:  MOVLW  30
08B6C:  MOVLB  3
08B6E:  ADDWF  x8F,W
08B70:  SUBWF  34,W
08B72:  BNZ   8BAA
08B74:  MOVLW  30
08B76:  ADDWF  x90,W
08B78:  SUBWF  35,W
08B7A:  BNZ   8BAA
08B7C:  MOVLW  30
08B7E:  ADDWF  x91,W
08B80:  SUBWF  36,W
08B82:  BNZ   8BAA
08B84:  MOVLW  30
08B86:  ADDWF  x92,W
08B88:  SUBWF  37,W
08B8A:  BNZ   8BAA
....................                   printf("page ClaveCorrecta"); 
08B8C:  MOVLW  A4
08B8E:  MOVWF  FF6
08B90:  MOVLW  09
08B92:  MOVWF  FF7
08B94:  MOVLW  00
08B96:  MOVWF  FF8
08B98:  MOVLB  0
08B9A:  CALL   39B8
....................                   //printf("page MenuPrincipal"); 
....................                   SendDataDisplay(); 
08B9E:  CALL   39EA
....................                   RX_Buffer[3]=0x00;RX_Buffer2[3]=0x00;   
08BA2:  CLRF   33
08BA4:  CLRF   3E
....................                }else{ 
08BA6:  BRA    8BC4
08BA8:  MOVLB  3
....................                   printf("page ClaveBad"); 
08BAA:  MOVLW  B8
08BAC:  MOVWF  FF6
08BAE:  MOVLW  09
08BB0:  MOVWF  FF7
08BB2:  MOVLW  00
08BB4:  MOVWF  FF8
08BB6:  MOVLB  0
08BB8:  CALL   39B8
....................                   SendDataDisplay(); 
08BBC:  CALL   39EA
....................                   RX_Buffer[3]=0x00;RX_Buffer2[3]=0x00;   
08BC0:  CLRF   33
08BC2:  CLRF   3E
08BC4:  MOVLB  2
....................                }  
....................             } 
....................          }else if(TipoClave==1){ 
08BC6:  BRA    8E0C
08BC8:  DECFSZ xE5,W
08BCA:  BRA    8C18
....................             if(RX_Buffer[4]==0x34&&RX_Buffer[5]==0x34&&RX_Buffer[6]==0x34&&RX_Buffer[7]==0x34){ // Si Ingresa clave de Servicio Tecnico 
08BCC:  MOVF   34,W
08BCE:  SUBLW  34
08BD0:  BNZ   8BFE
08BD2:  MOVF   35,W
08BD4:  SUBLW  34
08BD6:  BNZ   8BFE
08BD8:  MOVF   36,W
08BDA:  SUBLW  34
08BDC:  BNZ   8BFE
08BDE:  MOVF   37,W
08BE0:  SUBLW  34
08BE2:  BNZ   8BFE
....................                printf("page Config"); 
08BE4:  MOVLW  C6
08BE6:  MOVWF  FF6
08BE8:  MOVLW  09
08BEA:  MOVWF  FF7
08BEC:  MOVLW  00
08BEE:  MOVWF  FF8
08BF0:  MOVLB  0
08BF2:  CALL   39B8
....................                SendDataDisplay(); 
08BF6:  CALL   39EA
....................             }else{ 
08BFA:  BRA    8C14
08BFC:  MOVLB  2
....................                printf("page MenuPrincipal"); 
08BFE:  MOVLW  D2
08C00:  MOVWF  FF6
08C02:  MOVLW  09
08C04:  MOVWF  FF7
08C06:  MOVLW  00
08C08:  MOVWF  FF8
08C0A:  MOVLB  0
08C0C:  CALL   39B8
....................                SendDataDisplay(); 
08C10:  CALL   39EA
....................             } 
....................          }else if(TipoClave==2){ 
08C14:  BRA    8E0A
08C16:  MOVLB  2
08C18:  MOVF   xE5,W
08C1A:  SUBLW  02
08C1C:  BNZ   8CC6
....................             if(RX_Buffer[4]>=0x30 && RX_Buffer[5]>=0x30 && RX_Buffer[6]>=0x30 && RX_Buffer[7]>=0x30 
....................             && RX_Buffer[4]<=0x39 && RX_Buffer[5]<=0x39 && RX_Buffer[6]<=0x39 && RX_Buffer[7]<=0x39){ 
08C1E:  MOVF   34,W
08C20:  SUBLW  2F
08C22:  BC    8CC4
08C24:  MOVF   35,W
08C26:  SUBLW  2F
08C28:  BC    8CC4
08C2A:  MOVF   36,W
08C2C:  SUBLW  2F
08C2E:  BC    8CC4
08C30:  MOVF   37,W
08C32:  SUBLW  2F
08C34:  BC    8CC4
08C36:  MOVF   34,W
08C38:  SUBLW  39
08C3A:  BNC   8CC4
08C3C:  MOVF   35,W
08C3E:  SUBLW  39
08C40:  BNC   8CC4
08C42:  MOVF   36,W
08C44:  SUBLW  39
08C46:  BNC   8CC4
08C48:  MOVF   37,W
08C4A:  SUBLW  39
08C4C:  BNC   8CC4
....................             if((RX_Buffer[4]==Password[0]+0x30)&&(RX_Buffer[5]==Password[1]+0x30)&&(RX_Buffer[6]==Password[2]+0x30)&&(RX_Buffer[7]==Password[3]+0x30)){ 
08C4E:  MOVLW  30
08C50:  MOVLB  3
08C52:  ADDWF  x8F,W
08C54:  SUBWF  34,W
08C56:  BNZ   8CA8
08C58:  MOVLW  30
08C5A:  ADDWF  x90,W
08C5C:  SUBWF  35,W
08C5E:  BNZ   8CA8
08C60:  MOVLW  30
08C62:  ADDWF  x91,W
08C64:  SUBWF  36,W
08C66:  BNZ   8CA8
08C68:  MOVLW  30
08C6A:  ADDWF  x92,W
08C6C:  SUBWF  37,W
08C6E:  BNZ   8CA8
....................                printf("page Clave"); 
08C70:  MOVLW  E6
08C72:  MOVWF  FF6
08C74:  MOVLW  09
08C76:  MOVWF  FF7
08C78:  MOVLW  00
08C7A:  MOVWF  FF8
08C7C:  MOVLB  0
08C7E:  CALL   39B8
....................                SendDataDisplay(); 
08C82:  CALL   39EA
....................                printf("titulo.txt=\"Clave Nueva\""); 
08C86:  MOVLW  F2
08C88:  MOVWF  FF6
08C8A:  MOVLW  09
08C8C:  MOVWF  FF7
08C8E:  MOVLW  00
08C90:  MOVWF  FF8
08C92:  CALL   39B8
....................                SendDataDisplay(); 
08C96:  CALL   39EA
....................                TipoClave=3; 
08C9A:  MOVLW  03
08C9C:  MOVLB  2
08C9E:  MOVWF  xE5
....................                RX_Buffer[3]=0x00; 
08CA0:  CLRF   33
....................                RX_Buffer2[3]=0x00; 
08CA2:  CLRF   3E
....................             }else{ 
08CA4:  BRA    8CC4
08CA6:  MOVLB  3
....................                printf("page MenuPrincipal"); 
08CA8:  MOVLW  0C
08CAA:  MOVWF  FF6
08CAC:  MOVLW  0A
08CAE:  MOVWF  FF7
08CB0:  MOVLW  00
08CB2:  MOVWF  FF8
08CB4:  MOVLB  0
08CB6:  CALL   39B8
....................                SendDataDisplay(); 
08CBA:  CALL   39EA
....................                RX_Buffer[3]=0x00; 
08CBE:  CLRF   33
....................                RX_Buffer2[3]=0x00; 
08CC0:  CLRF   3E
08CC2:  MOVLB  2
....................             }  
....................             } 
....................          }else if(TipoClave==3){ 
08CC4:  BRA    8E0C
08CC6:  MOVF   xE5,W
08CC8:  SUBLW  03
08CCA:  BTFSS  FD8.2
08CCC:  BRA    8E0C
....................             printf("titulo.txt=\"Clave Nueva\""); 
08CCE:  MOVLW  20
08CD0:  MOVWF  FF6
08CD2:  MOVLW  0A
08CD4:  MOVWF  FF7
08CD6:  MOVLW  00
08CD8:  MOVWF  FF8
08CDA:  MOVLB  0
08CDC:  CALL   39B8
....................             SendDataDisplay(); 
08CE0:  CALL   39EA
....................             printf("page MenuPrincipal"); 
08CE4:  MOVLW  3A
08CE6:  MOVWF  FF6
08CE8:  MOVLW  0A
08CEA:  MOVWF  FF7
08CEC:  MOVLW  00
08CEE:  MOVWF  FF8
08CF0:  CALL   39B8
....................             SendDataDisplay(); 
08CF4:  CALL   39EA
....................             if(!GuardaEEPROM){ 
08CF8:  BTFSC  xA2.6
08CFA:  BRA    8E06
....................                write_eeprom(10,RX_Buffer[4]-0x30);delay_ms(20);write_eeprom(11,RX_Buffer[5]-0x30);delay_ms(20); 
08CFC:  MOVLW  30
08CFE:  SUBWF  34,W
08D00:  MOVLB  4
08D02:  MOVWF  x47
08D04:  CLRF   FAA
08D06:  MOVLW  0A
08D08:  MOVWF  FA9
08D0A:  MOVFF  447,FA8
08D0E:  BCF    FA6.6
08D10:  BCF    FA6.7
08D12:  BSF    FA6.2
08D14:  MOVF   FF2,W
08D16:  MOVWF  00
08D18:  BCF    FF2.6
08D1A:  BCF    FF2.7
08D1C:  MOVLB  F
08D1E:  MOVLW  55
08D20:  MOVWF  FA7
08D22:  MOVLW  AA
08D24:  MOVWF  FA7
08D26:  BSF    FA6.1
08D28:  BTFSC  FA6.1
08D2A:  BRA    8D28
08D2C:  BCF    FA6.2
08D2E:  MOVF   00,W
08D30:  IORWF  FF2,F
08D32:  MOVLW  14
08D34:  MOVLB  4
08D36:  MOVWF  x5C
08D38:  MOVLB  0
08D3A:  CALL   1AF4
08D3E:  MOVLW  30
08D40:  SUBWF  35,W
08D42:  MOVLB  4
08D44:  MOVWF  x47
08D46:  CLRF   FAA
08D48:  MOVLW  0B
08D4A:  MOVWF  FA9
08D4C:  MOVFF  447,FA8
08D50:  BCF    FA6.6
08D52:  BCF    FA6.7
08D54:  BSF    FA6.2
08D56:  MOVF   FF2,W
08D58:  MOVWF  00
08D5A:  BCF    FF2.6
08D5C:  BCF    FF2.7
08D5E:  MOVLB  F
08D60:  MOVLW  55
08D62:  MOVWF  FA7
08D64:  MOVLW  AA
08D66:  MOVWF  FA7
08D68:  BSF    FA6.1
08D6A:  BTFSC  FA6.1
08D6C:  BRA    8D6A
08D6E:  BCF    FA6.2
08D70:  MOVF   00,W
08D72:  IORWF  FF2,F
08D74:  MOVLW  14
08D76:  MOVLB  4
08D78:  MOVWF  x5C
08D7A:  MOVLB  0
08D7C:  CALL   1AF4
....................                write_eeprom(12,RX_Buffer[6]-0x30);delay_ms(20);write_eeprom(13,RX_Buffer[7]-0x30);delay_ms(20); 
08D80:  MOVLW  30
08D82:  SUBWF  36,W
08D84:  MOVLB  4
08D86:  MOVWF  x47
08D88:  CLRF   FAA
08D8A:  MOVLW  0C
08D8C:  MOVWF  FA9
08D8E:  MOVFF  447,FA8
08D92:  BCF    FA6.6
08D94:  BCF    FA6.7
08D96:  BSF    FA6.2
08D98:  MOVF   FF2,W
08D9A:  MOVWF  00
08D9C:  BCF    FF2.6
08D9E:  BCF    FF2.7
08DA0:  MOVLB  F
08DA2:  MOVLW  55
08DA4:  MOVWF  FA7
08DA6:  MOVLW  AA
08DA8:  MOVWF  FA7
08DAA:  BSF    FA6.1
08DAC:  BTFSC  FA6.1
08DAE:  BRA    8DAC
08DB0:  BCF    FA6.2
08DB2:  MOVF   00,W
08DB4:  IORWF  FF2,F
08DB6:  MOVLW  14
08DB8:  MOVLB  4
08DBA:  MOVWF  x5C
08DBC:  MOVLB  0
08DBE:  CALL   1AF4
08DC2:  MOVLW  30
08DC4:  SUBWF  37,W
08DC6:  MOVLB  4
08DC8:  MOVWF  x47
08DCA:  CLRF   FAA
08DCC:  MOVLW  0D
08DCE:  MOVWF  FA9
08DD0:  MOVFF  447,FA8
08DD4:  BCF    FA6.6
08DD6:  BCF    FA6.7
08DD8:  BSF    FA6.2
08DDA:  MOVF   FF2,W
08DDC:  MOVWF  00
08DDE:  BCF    FF2.6
08DE0:  BCF    FF2.7
08DE2:  MOVLB  F
08DE4:  MOVLW  55
08DE6:  MOVWF  FA7
08DE8:  MOVLW  AA
08DEA:  MOVWF  FA7
08DEC:  BSF    FA6.1
08DEE:  BTFSC  FA6.1
08DF0:  BRA    8DEE
08DF2:  BCF    FA6.2
08DF4:  MOVF   00,W
08DF6:  IORWF  FF2,F
08DF8:  MOVLW  14
08DFA:  MOVLB  4
08DFC:  MOVWF  x5C
08DFE:  MOVLB  0
08E00:  CALL   1AF4
....................                GuardaEEPROM=ON; 
08E04:  BSF    xA2.6
....................             } 
....................             RX_Buffer[3]=0x00; 
08E06:  CLRF   33
....................             RX_Buffer2[3]=0x00; 
08E08:  CLRF   3E
08E0A:  MOVLB  2
08E0C:  MOVLB  3
....................          } 
....................       } 
....................     } 
.................... //_--------------------------------------------------------------------------------------------------------------------------------------------------------        
....................  
.................... //_-------------------------------------------------------------------------------------------------------------------------------------------------------- 
....................    if(Menu==1){ //Menu Principal. 
08E0E:  DECFSZ x65,W
08E10:  GOTO   96F6
....................       //printf("fecha.txt=\"T:%3.1fC Fecha:%02u/%02u/20%02u Hora: %02u:%02u:%02u\"",Temperatura,Dia,Mes,Year,Hora,Minuto,Segundo); 
....................       //SendDataDisplay(); 
....................       revisePresion(); 
08E14:  MOVLB  0
08E16:  CALL   4E72
....................       PruebaEstados=OFF; 
08E1A:  BCF    xA1.3
....................       GuardaEEPROM=OFF; 
08E1C:  BCF    xA2.6
....................       if(RX_Buffer[3]==0x0f || UP){//0f, recibe caracteres ingresados desde el Display 
08E1E:  MOVF   33,W
08E20:  SUBLW  0F
08E22:  BZ    8E2A
08E24:  BSF    F93.3
08E26:  BTFSC  F81.3
08E28:  BRA    90AE
....................          delay_ms(5); 
08E2A:  MOVLW  05
08E2C:  MOVLB  4
08E2E:  MOVWF  x5C
08E30:  MOVLB  0
08E32:  CALL   1AF4
....................          if(RX_Buffer[3]==0x0f || UP){ 
08E36:  MOVF   33,W
08E38:  SUBLW  0F
08E3A:  BZ    8E42
08E3C:  BSF    F93.3
08E3E:  BTFSC  F81.3
08E40:  BRA    90A8
....................          if(PantallaPrincipal==0){//Si esta en menu principal 
08E42:  MOVLB  2
08E44:  MOVF   xE4,F
08E46:  BTFSS  FD8.2
08E48:  BRA    90AC
....................             if(RX_Buffer[4]==0x37){//Ajustes y pasa a solicitud de password de tecnico 
08E4A:  MOVF   34,W
08E4C:  SUBLW  37
08E4E:  BNZ   8E7C
....................                printf("page Clave"); 
08E50:  MOVLW  4E
08E52:  MOVWF  FF6
08E54:  MOVLW  0A
08E56:  MOVWF  FF7
08E58:  MOVLW  00
08E5A:  MOVWF  FF8
08E5C:  MOVLB  0
08E5E:  CALL   39B8
....................                SendDataDisplay();  
08E62:  CALL   39EA
....................                Op=OFF; 
08E66:  BCF    xA2.2
....................                Op2=OFF; 
08E68:  BCF    xA2.3
....................                MenuAnt=Menu; 
08E6A:  MOVFF  365,366
....................                TipoClave=1; 
08E6E:  MOVLW  01
08E70:  MOVLB  2
08E72:  MOVWF  xE5
....................                RX_Buffer[3]=0x00; 
08E74:  CLRF   33
....................                RX_Buffer2[3]=0x00; 
08E76:  CLRF   3E
....................                Opcion=0; 
08E78:  MOVLB  3
08E7A:  CLRF   x6D
....................             }if(Opcion==9){// Datos Ciclo 
08E7C:  MOVLB  3
08E7E:  MOVF   x6D,W
08E80:  SUBLW  09
08E82:  BNZ   8EAE
....................                printf("page Ciclos"); 
08E84:  MOVLW  5A
08E86:  MOVWF  FF6
08E88:  MOVLW  0A
08E8A:  MOVWF  FF7
08E8C:  MOVLW  00
08E8E:  MOVWF  FF8
08E90:  MOVLB  0
08E92:  CALL   39B8
....................                SendDataDisplay();  
08E96:  CALL   39EA
....................                Op=OFF; 
08E9A:  BCF    xA2.2
....................                Op2=OFF; 
08E9C:  BCF    xA2.3
....................                MenuAnt=Menu; 
08E9E:  MOVFF  365,366
....................                RX_Buffer[3]=0x00; 
08EA2:  CLRF   33
....................                RX_Buffer2[3]=0x00; 
08EA4:  CLRF   3E
....................                Opcion=1; 
08EA6:  MOVLW  01
08EA8:  MOVLB  3
08EAA:  MOVWF  x6D
....................             }else if(Opcion==8){// Cambio de Clave 
08EAC:  BRA    90AA
08EAE:  MOVF   x6D,W
08EB0:  SUBLW  08
08EB2:  BNZ   8EE2
....................                printf("page Clave"); 
08EB4:  MOVLW  66
08EB6:  MOVWF  FF6
08EB8:  MOVLW  0A
08EBA:  MOVWF  FF7
08EBC:  MOVLW  00
08EBE:  MOVWF  FF8
08EC0:  MOVLB  0
08EC2:  CALL   39B8
....................                SendDataDisplay();  
08EC6:  CALL   39EA
....................                Op=OFF; 
08ECA:  BCF    xA2.2
....................                Op2=OFF; 
08ECC:  BCF    xA2.3
....................                MenuAnt=Menu; 
08ECE:  MOVFF  365,366
....................                TipoClave=2; 
08ED2:  MOVLW  02
08ED4:  MOVLB  2
08ED6:  MOVWF  xE5
....................                RX_Buffer[3]=0x00; 
08ED8:  CLRF   33
....................                RX_Buffer2[3]=0x00; 
08EDA:  CLRF   3E
....................                Opcion=0; 
08EDC:  MOVLB  3
08EDE:  CLRF   x6D
....................             }else if(Opcion==7){//Hora y Fecha 
08EE0:  BRA    90AA
08EE2:  MOVF   x6D,W
08EE4:  SUBLW  07
08EE6:  BNZ   8F24
....................                printf("page Fecha"); 
08EE8:  MOVLW  72
08EEA:  MOVWF  FF6
08EEC:  MOVLW  0A
08EEE:  MOVWF  FF7
08EF0:  MOVLW  00
08EF2:  MOVWF  FF8
08EF4:  MOVLB  0
08EF6:  CALL   39B8
....................                SendDataDisplay();      
08EFA:  CALL   39EA
....................                PantallaPrincipal=0; 
08EFE:  MOVLB  2
08F00:  CLRF   xE4
....................                MenuAnt=Menu; 
08F02:  MOVFF  365,366
....................                Op=OFF; 
08F06:  MOVLB  0
08F08:  BCF    xA2.2
....................                Op2=OFF; 
08F0A:  BCF    xA2.3
....................                DiaTx=Dia; 
08F0C:  MOVFF  3A8,3AF
....................                MesTx=Mes; 
08F10:  MOVFF  3A7,3AE
....................                YearTx=Year; 
08F14:  MOVFF  3A6,3AD
....................                HoraTx=Hora; 
08F18:  MOVFF  3A9,3B0
....................                MinutoTx=Minuto; 
08F1C:  MOVFF  3AA,3B1
....................             }else if(Opcion==6){//Test 
08F20:  BRA    90A8
08F22:  MOVLB  3
08F24:  MOVF   x6D,W
08F26:  SUBLW  06
08F28:  BNZ   8F52
....................                printf("page Test"); 
08F2A:  MOVLW  7E
08F2C:  MOVWF  FF6
08F2E:  MOVLW  0A
08F30:  MOVWF  FF7
08F32:  MOVLW  00
08F34:  MOVWF  FF8
08F36:  MOVLB  0
08F38:  CALL   39B8
....................                SendDataDisplay();      
08F3C:  CALL   39EA
....................                PantallaPrincipal=0; 
08F40:  MOVLB  2
08F42:  CLRF   xE4
....................                MenuAnt=Menu; 
08F44:  MOVFF  365,366
....................                Op=OFF; 
08F48:  MOVLB  0
08F4A:  BCF    xA2.2
....................                Op2=OFF; 
08F4C:  BCF    xA2.3
....................             }else if(Opcion==5){//Ciclo Personalizado 
08F4E:  BRA    90A8
08F50:  MOVLB  3
08F52:  MOVF   x6D,W
08F54:  SUBLW  05
08F56:  BNZ   8F7A
....................                printf("page CicloPersona"); 
08F58:  MOVLW  88
08F5A:  MOVWF  FF6
08F5C:  MOVLW  0A
08F5E:  MOVWF  FF7
08F60:  MOVLW  00
08F62:  MOVWF  FF8
08F64:  MOVLB  0
08F66:  CALL   39B8
....................                SendDataDisplay();  
08F6A:  CALL   39EA
....................                MenuAnt=Menu; 
08F6E:  MOVFF  365,366
....................                Op=OFF; 
08F72:  BCF    xA2.2
....................                Op2=OFF; 
08F74:  BCF    xA2.3
....................             }else if(Opcion==4){//LiquidosB 
08F76:  BRA    90A8
08F78:  MOVLB  3
08F7A:  MOVF   x6D,W
08F7C:  SUBLW  04
08F7E:  BNZ   8FC8
....................                printf("page Nivel"); 
08F80:  MOVLW  9A
08F82:  MOVWF  FF6
08F84:  MOVLW  0A
08F86:  MOVWF  FF7
08F88:  MOVLW  00
08F8A:  MOVWF  FF8
08F8C:  MOVLB  0
08F8E:  CALL   39B8
....................                SendDataDisplay();        
08F92:  CALL   39EA
....................                ConfiguraCiclo(0,0,0,3,0,0,0,0,1,4,121); 
08F96:  MOVLB  4
08F98:  CLRF   x51
08F9A:  CLRF   x52
08F9C:  CLRF   x53
08F9E:  MOVLW  03
08FA0:  MOVWF  x54
08FA2:  CLRF   x55
08FA4:  CLRF   x56
08FA6:  CLRF   x57
08FA8:  CLRF   x58
08FAA:  MOVLW  01
08FAC:  MOVWF  x59
08FAE:  MOVLW  04
08FB0:  MOVWF  x5A
08FB2:  MOVLW  79
08FB4:  MOVWF  x5B
08FB6:  MOVLB  0
08FB8:  CALL   5284
....................                Op=OFF; 
08FBC:  BCF    xA2.2
....................                Op2=OFF; 
08FBE:  BCF    xA2.3
....................                MenuAnt=2; 
08FC0:  MOVLW  02
08FC2:  MOVLB  3
08FC4:  MOVWF  x66
....................             }else if(Opcion==1){//LiquidosA 
08FC6:  BRA    90AA
08FC8:  DECFSZ x6D,W
08FCA:  BRA    9012
....................                printf("page Nivel"); 
08FCC:  MOVLW  A6
08FCE:  MOVWF  FF6
08FD0:  MOVLW  0A
08FD2:  MOVWF  FF7
08FD4:  MOVLW  00
08FD6:  MOVWF  FF8
08FD8:  MOVLB  0
08FDA:  CALL   39B8
....................                SendDataDisplay();        
08FDE:  CALL   39EA
....................                ConfiguraCiclo(0,0,5,1,0,0,0,0,1,1,121); 
08FE2:  MOVLB  4
08FE4:  CLRF   x51
08FE6:  CLRF   x52
08FE8:  MOVLW  05
08FEA:  MOVWF  x53
08FEC:  MOVLW  01
08FEE:  MOVWF  x54
08FF0:  CLRF   x55
08FF2:  CLRF   x56
08FF4:  CLRF   x57
08FF6:  CLRF   x58
08FF8:  MOVWF  x59
08FFA:  MOVWF  x5A
08FFC:  MOVLW  79
08FFE:  MOVWF  x5B
09000:  MOVLB  0
09002:  CALL   5284
....................                Op=OFF; 
09006:  BCF    xA2.2
....................                Op2=OFF; 
09008:  BCF    xA2.3
....................                MenuAnt=2; 
0900A:  MOVLW  02
0900C:  MOVLB  3
0900E:  MOVWF  x66
....................             }else if(Opcion==3){//Instrumental 
09010:  BRA    90AA
09012:  MOVF   x6D,W
09014:  SUBLW  03
09016:  BNZ   905C
....................                printf("page Funcionamiento"); 
09018:  MOVLW  B2
0901A:  MOVWF  FF6
0901C:  MOVLW  0A
0901E:  MOVWF  FF7
09020:  MOVLW  00
09022:  MOVWF  FF8
09024:  MOVLB  0
09026:  CALL   39B8
....................                SendDataDisplay();        
0902A:  CALL   39EA
....................                ConfiguraCiclo(0,0,0,3,0,0,0,3,0,3,121); 
0902E:  MOVLB  4
09030:  CLRF   x51
09032:  CLRF   x52
09034:  CLRF   x53
09036:  MOVLW  03
09038:  MOVWF  x54
0903A:  CLRF   x55
0903C:  CLRF   x56
0903E:  CLRF   x57
09040:  MOVWF  x58
09042:  CLRF   x59
09044:  MOVWF  x5A
09046:  MOVLW  79
09048:  MOVWF  x5B
0904A:  MOVLB  0
0904C:  CALL   5284
....................                Op=OFF; 
09050:  BCF    xA2.2
....................                Op2=OFF; 
09052:  BCF    xA2.3
....................                MenuAnt=Menu; 
09054:  MOVFF  365,366
....................                //if(Temperatura>60)TTrampa=TTrampa+5; 
....................             }else if(Opcion==2){//Caucho 
09058:  BRA    90A8
0905A:  MOVLB  3
0905C:  MOVF   x6D,W
0905E:  SUBLW  02
09060:  BNZ   90AA
....................                printf("page Funcionamiento"); 
09062:  MOVLW  C6
09064:  MOVWF  FF6
09066:  MOVLW  0A
09068:  MOVWF  FF7
0906A:  MOVLW  00
0906C:  MOVWF  FF8
0906E:  MOVLB  0
09070:  CALL   39B8
....................                SendDataDisplay();        
09074:  CALL   39EA
....................                ConfiguraCiclo(0,0,5,1,0,0,3,0,0,2,121); 
09078:  MOVLB  4
0907A:  CLRF   x51
0907C:  CLRF   x52
0907E:  MOVLW  05
09080:  MOVWF  x53
09082:  MOVLW  01
09084:  MOVWF  x54
09086:  CLRF   x55
09088:  CLRF   x56
0908A:  MOVLW  03
0908C:  MOVWF  x57
0908E:  CLRF   x58
09090:  CLRF   x59
09092:  MOVLW  02
09094:  MOVWF  x5A
09096:  MOVLW  79
09098:  MOVWF  x5B
0909A:  MOVLB  0
0909C:  CALL   5284
....................                Op=OFF; 
090A0:  BCF    xA2.2
....................                Op2=OFF; 
090A2:  BCF    xA2.3
....................                MenuAnt=Menu; 
090A4:  MOVFF  365,366
090A8:  MOVLB  3
090AA:  MOVLB  2
....................                //if(Temperatura>60)TTrampa=TTrampa+5; 
....................             } 
....................          } 
....................          } 
....................       }else if(PantallaPrincipal==0){ 
090AC:  BRA    96A8
090AE:  MOVLB  2
090B0:  MOVF   xE4,F
090B2:  BTFSS  FD8.2
090B4:  BRA    96A8
....................          if(Opcion>sizeof(iconoGrande)) 
090B6:  MOVLB  3
090B8:  MOVF   x6D,W
090BA:  SUBLW  09
090BC:  BC    90C2
....................             Opcion=1; 
090BE:  MOVLW  01
090C0:  MOVWF  x6D
....................              
....................          if(Opcion<1) 
090C2:  MOVF   x6D,F
090C4:  BNZ   90CA
....................             Opcion=sizeof(iconoGrande); 
090C6:  MOVLW  09
090C8:  MOVWF  x6D
....................           
....................          if(Opcion==1){ 
090CA:  DECFSZ x6D,W
090CC:  BRA    927A
....................             printf("bc.pic=%u",iconoGrande[Opcion-1]); 
090CE:  MOVLW  01
090D0:  SUBWF  x6D,W
090D2:  CLRF   03
090D4:  ADDLW  BB
090D6:  MOVWF  FE9
090D8:  MOVLW  03
090DA:  ADDWFC 03,W
090DC:  MOVWF  FEA
090DE:  MOVFF  FEF,447
090E2:  MOVLW  DA
090E4:  MOVWF  FF6
090E6:  MOVLW  0A
090E8:  MOVWF  FF7
090EA:  MOVLW  00
090EC:  MOVWF  FF8
090EE:  MOVLW  07
090F0:  MOVLB  4
090F2:  MOVWF  x4C
090F4:  MOVLB  0
090F6:  CALL   49A2
090FA:  MOVFF  447,44C
090FE:  MOVLW  1B
09100:  MOVLB  4
09102:  MOVWF  x4D
09104:  MOVLB  0
09106:  CALL   4A00
....................             SendDataDisplay(); 
0910A:  CALL   39EA
....................             printf("bd.pic=%u",iconoPeque[Opcion]); 
0910E:  CLRF   03
09110:  MOVLB  3
09112:  MOVF   x6D,W
09114:  ADDLW  C4
09116:  MOVWF  FE9
09118:  MOVLW  03
0911A:  ADDWFC 03,W
0911C:  MOVWF  FEA
0911E:  MOVFF  FEF,447
09122:  MOVLW  E4
09124:  MOVWF  FF6
09126:  MOVLW  0A
09128:  MOVWF  FF7
0912A:  MOVLW  00
0912C:  MOVWF  FF8
0912E:  MOVLW  07
09130:  MOVLB  4
09132:  MOVWF  x4C
09134:  MOVLB  0
09136:  CALL   49A2
0913A:  MOVFF  447,44C
0913E:  MOVLW  1B
09140:  MOVLB  4
09142:  MOVWF  x4D
09144:  MOVLB  0
09146:  CALL   4A00
....................             SendDataDisplay(); 
0914A:  CALL   39EA
....................             printf("bi.pic=%u",iconoPeque[sizeof(iconoGrande)-1]); 
0914E:  MOVLW  EE
09150:  MOVWF  FF6
09152:  MOVLW  0A
09154:  MOVWF  FF7
09156:  MOVLW  00
09158:  MOVWF  FF8
0915A:  MOVLW  07
0915C:  MOVLB  4
0915E:  MOVWF  x4C
09160:  MOVLB  0
09162:  CALL   49A2
09166:  MOVFF  3CC,44C
0916A:  MOVLW  1B
0916C:  MOVLB  4
0916E:  MOVWF  x4D
09170:  MOVLB  0
09172:  CALL   4A00
....................             SendDataDisplay(); 
09176:  CALL   39EA
....................             printf("bc.pic2=%u",iconoGrande[Opcion-1]); 
0917A:  MOVLW  01
0917C:  MOVLB  3
0917E:  SUBWF  x6D,W
09180:  CLRF   03
09182:  ADDLW  BB
09184:  MOVWF  FE9
09186:  MOVLW  03
09188:  ADDWFC 03,W
0918A:  MOVWF  FEA
0918C:  MOVFF  FEF,447
09190:  MOVLW  F8
09192:  MOVWF  FF6
09194:  MOVLW  0A
09196:  MOVWF  FF7
09198:  MOVLW  00
0919A:  MOVWF  FF8
0919C:  MOVLW  08
0919E:  MOVLB  4
091A0:  MOVWF  x4C
091A2:  MOVLB  0
091A4:  CALL   49A2
091A8:  MOVFF  447,44C
091AC:  MOVLW  1B
091AE:  MOVLB  4
091B0:  MOVWF  x4D
091B2:  MOVLB  0
091B4:  CALL   4A00
....................             SendDataDisplay(); 
091B8:  CALL   39EA
....................             printf("bd.pic2=%u",iconoPeque[Opcion]); 
091BC:  CLRF   03
091BE:  MOVLB  3
091C0:  MOVF   x6D,W
091C2:  ADDLW  C4
091C4:  MOVWF  FE9
091C6:  MOVLW  03
091C8:  ADDWFC 03,W
091CA:  MOVWF  FEA
091CC:  MOVFF  FEF,447
091D0:  MOVLW  04
091D2:  MOVWF  FF6
091D4:  MOVLW  0B
091D6:  MOVWF  FF7
091D8:  MOVLW  00
091DA:  MOVWF  FF8
091DC:  MOVLW  08
091DE:  MOVLB  4
091E0:  MOVWF  x4C
091E2:  MOVLB  0
091E4:  CALL   49A2
091E8:  MOVFF  447,44C
091EC:  MOVLW  1B
091EE:  MOVLB  4
091F0:  MOVWF  x4D
091F2:  MOVLB  0
091F4:  CALL   4A00
....................             SendDataDisplay(); 
091F8:  CALL   39EA
....................             printf("bi.pic2=%u",iconoPeque[sizeof(iconoGrande)-1]); 
091FC:  MOVLW  10
091FE:  MOVWF  FF6
09200:  MOVLW  0B
09202:  MOVWF  FF7
09204:  MOVLW  00
09206:  MOVWF  FF8
09208:  MOVLW  08
0920A:  MOVLB  4
0920C:  MOVWF  x4C
0920E:  MOVLB  0
09210:  CALL   49A2
09214:  MOVFF  3CC,44C
09218:  MOVLW  1B
0921A:  MOVLB  4
0921C:  MOVWF  x4D
0921E:  MOVLB  0
09220:  CALL   4A00
....................             SendDataDisplay(); 
09224:  CALL   39EA
....................             printf("textop.txt=\"%s\"",texto[Opcion-1]); 
09228:  MOVLW  01
0922A:  MOVLB  3
0922C:  SUBWF  x6D,W
0922E:  MULLW  14
09230:  MOVF   FF3,W
09232:  CLRF   03
09234:  MOVLB  4
09236:  MOVWF  x47
09238:  MOVLW  1C
0923A:  MOVWF  FF6
0923C:  MOVLW  0B
0923E:  MOVWF  FF7
09240:  MOVLW  00
09242:  MOVWF  FF8
09244:  MOVLW  0C
09246:  MOVWF  x4C
09248:  MOVLB  0
0924A:  CALL   49A2
0924E:  MOVLW  50
09250:  MOVWF  FF6
09252:  MOVLW  01
09254:  MOVWF  FF7
09256:  MOVLW  00
09258:  MOVWF  FF8
0925A:  MOVLB  4
0925C:  MOVF   x47,W
0925E:  ADDWF  FF6,F
09260:  MOVLW  00
09262:  ADDWFC FF7,F
09264:  MOVLB  0
09266:  CALL   39B8
0926A:  MOVLW  22
0926C:  BTFSS  F9E.4
0926E:  BRA    926C
09270:  MOVWF  FAD
....................             SendDataDisplay(); 
09272:  CALL   39EA
....................          }else if(Opcion==sizeof(iconoGrande)){ 
09276:  BRA    9606
09278:  MOVLB  3
0927A:  MOVF   x6D,W
0927C:  SUBLW  09
0927E:  BTFSS  FD8.2
09280:  BRA    9432
....................             printf("bc.pic=%u",iconoGrande[Opcion-1]); 
09282:  MOVLW  01
09284:  SUBWF  x6D,W
09286:  CLRF   03
09288:  ADDLW  BB
0928A:  MOVWF  FE9
0928C:  MOVLW  03
0928E:  ADDWFC 03,W
09290:  MOVWF  FEA
09292:  MOVFF  FEF,447
09296:  MOVLW  2C
09298:  MOVWF  FF6
0929A:  MOVLW  0B
0929C:  MOVWF  FF7
0929E:  MOVLW  00
092A0:  MOVWF  FF8
092A2:  MOVLW  07
092A4:  MOVLB  4
092A6:  MOVWF  x4C
092A8:  MOVLB  0
092AA:  CALL   49A2
092AE:  MOVFF  447,44C
092B2:  MOVLW  1B
092B4:  MOVLB  4
092B6:  MOVWF  x4D
092B8:  MOVLB  0
092BA:  CALL   4A00
....................             SendDataDisplay(); 
092BE:  CALL   39EA
....................             printf("bd.pic=%u",iconoPeque[0]); 
092C2:  MOVLW  36
092C4:  MOVWF  FF6
092C6:  MOVLW  0B
092C8:  MOVWF  FF7
092CA:  MOVLW  00
092CC:  MOVWF  FF8
092CE:  MOVLW  07
092D0:  MOVLB  4
092D2:  MOVWF  x4C
092D4:  MOVLB  0
092D6:  CALL   49A2
092DA:  MOVFF  3C4,44C
092DE:  MOVLW  1B
092E0:  MOVLB  4
092E2:  MOVWF  x4D
092E4:  MOVLB  0
092E6:  CALL   4A00
....................             SendDataDisplay(); 
092EA:  CALL   39EA
....................             printf("bi.pic=%u",iconoPeque[Opcion-2]); 
092EE:  MOVLW  02
092F0:  MOVLB  3
092F2:  SUBWF  x6D,W
092F4:  CLRF   03
092F6:  ADDLW  C4
092F8:  MOVWF  FE9
092FA:  MOVLW  03
092FC:  ADDWFC 03,W
092FE:  MOVWF  FEA
09300:  MOVFF  FEF,447
09304:  MOVLW  40
09306:  MOVWF  FF6
09308:  MOVLW  0B
0930A:  MOVWF  FF7
0930C:  MOVLW  00
0930E:  MOVWF  FF8
09310:  MOVLW  07
09312:  MOVLB  4
09314:  MOVWF  x4C
09316:  MOVLB  0
09318:  CALL   49A2
0931C:  MOVFF  447,44C
09320:  MOVLW  1B
09322:  MOVLB  4
09324:  MOVWF  x4D
09326:  MOVLB  0
09328:  CALL   4A00
....................             SendDataDisplay(); 
0932C:  CALL   39EA
....................             printf("bc.pic2=%u",iconoGrande[Opcion-1]); 
09330:  MOVLW  01
09332:  MOVLB  3
09334:  SUBWF  x6D,W
09336:  CLRF   03
09338:  ADDLW  BB
0933A:  MOVWF  FE9
0933C:  MOVLW  03
0933E:  ADDWFC 03,W
09340:  MOVWF  FEA
09342:  MOVFF  FEF,447
09346:  MOVLW  4A
09348:  MOVWF  FF6
0934A:  MOVLW  0B
0934C:  MOVWF  FF7
0934E:  MOVLW  00
09350:  MOVWF  FF8
09352:  MOVLW  08
09354:  MOVLB  4
09356:  MOVWF  x4C
09358:  MOVLB  0
0935A:  CALL   49A2
0935E:  MOVFF  447,44C
09362:  MOVLW  1B
09364:  MOVLB  4
09366:  MOVWF  x4D
09368:  MOVLB  0
0936A:  CALL   4A00
....................             SendDataDisplay(); 
0936E:  CALL   39EA
....................             printf("bd.pic2=%u",iconoPeque[0]); 
09372:  MOVLW  56
09374:  MOVWF  FF6
09376:  MOVLW  0B
09378:  MOVWF  FF7
0937A:  MOVLW  00
0937C:  MOVWF  FF8
0937E:  MOVLW  08
09380:  MOVLB  4
09382:  MOVWF  x4C
09384:  MOVLB  0
09386:  CALL   49A2
0938A:  MOVFF  3C4,44C
0938E:  MOVLW  1B
09390:  MOVLB  4
09392:  MOVWF  x4D
09394:  MOVLB  0
09396:  CALL   4A00
....................             SendDataDisplay(); 
0939A:  CALL   39EA
....................             printf("bi.pic2=%u",iconoPeque[Opcion-2]); 
0939E:  MOVLW  02
093A0:  MOVLB  3
093A2:  SUBWF  x6D,W
093A4:  CLRF   03
093A6:  ADDLW  C4
093A8:  MOVWF  FE9
093AA:  MOVLW  03
093AC:  ADDWFC 03,W
093AE:  MOVWF  FEA
093B0:  MOVFF  FEF,447
093B4:  MOVLW  62
093B6:  MOVWF  FF6
093B8:  MOVLW  0B
093BA:  MOVWF  FF7
093BC:  MOVLW  00
093BE:  MOVWF  FF8
093C0:  MOVLW  08
093C2:  MOVLB  4
093C4:  MOVWF  x4C
093C6:  MOVLB  0
093C8:  CALL   49A2
093CC:  MOVFF  447,44C
093D0:  MOVLW  1B
093D2:  MOVLB  4
093D4:  MOVWF  x4D
093D6:  MOVLB  0
093D8:  CALL   4A00
....................             SendDataDisplay(); 
093DC:  CALL   39EA
....................             printf("textop.txt=\"%s\"",texto[Opcion-1]); 
093E0:  MOVLW  01
093E2:  MOVLB  3
093E4:  SUBWF  x6D,W
093E6:  MULLW  14
093E8:  MOVF   FF3,W
093EA:  CLRF   03
093EC:  MOVLB  4
093EE:  MOVWF  x47
093F0:  MOVLW  6E
093F2:  MOVWF  FF6
093F4:  MOVLW  0B
093F6:  MOVWF  FF7
093F8:  MOVLW  00
093FA:  MOVWF  FF8
093FC:  MOVLW  0C
093FE:  MOVWF  x4C
09400:  MOVLB  0
09402:  CALL   49A2
09406:  MOVLW  50
09408:  MOVWF  FF6
0940A:  MOVLW  01
0940C:  MOVWF  FF7
0940E:  MOVLW  00
09410:  MOVWF  FF8
09412:  MOVLB  4
09414:  MOVF   x47,W
09416:  ADDWF  FF6,F
09418:  MOVLW  00
0941A:  ADDWFC FF7,F
0941C:  MOVLB  0
0941E:  CALL   39B8
09422:  MOVLW  22
09424:  BTFSS  F9E.4
09426:  BRA    9424
09428:  MOVWF  FAD
....................             SendDataDisplay(); 
0942A:  CALL   39EA
....................          }else{ 
0942E:  BRA    9606
09430:  MOVLB  3
....................             printf("bc.pic=%u",iconoGrande[Opcion-1]); 
09432:  MOVLW  01
09434:  SUBWF  x6D,W
09436:  CLRF   03
09438:  ADDLW  BB
0943A:  MOVWF  FE9
0943C:  MOVLW  03
0943E:  ADDWFC 03,W
09440:  MOVWF  FEA
09442:  MOVFF  FEF,447
09446:  MOVLW  7E
09448:  MOVWF  FF6
0944A:  MOVLW  0B
0944C:  MOVWF  FF7
0944E:  MOVLW  00
09450:  MOVWF  FF8
09452:  MOVLW  07
09454:  MOVLB  4
09456:  MOVWF  x4C
09458:  MOVLB  0
0945A:  CALL   49A2
0945E:  MOVFF  447,44C
09462:  MOVLW  1B
09464:  MOVLB  4
09466:  MOVWF  x4D
09468:  MOVLB  0
0946A:  CALL   4A00
....................             SendDataDisplay(); 
0946E:  CALL   39EA
....................             printf("bd.pic=%u",iconoPeque[Opcion]); 
09472:  CLRF   03
09474:  MOVLB  3
09476:  MOVF   x6D,W
09478:  ADDLW  C4
0947A:  MOVWF  FE9
0947C:  MOVLW  03
0947E:  ADDWFC 03,W
09480:  MOVWF  FEA
09482:  MOVFF  FEF,447
09486:  MOVLW  88
09488:  MOVWF  FF6
0948A:  MOVLW  0B
0948C:  MOVWF  FF7
0948E:  MOVLW  00
09490:  MOVWF  FF8
09492:  MOVLW  07
09494:  MOVLB  4
09496:  MOVWF  x4C
09498:  MOVLB  0
0949A:  CALL   49A2
0949E:  MOVFF  447,44C
094A2:  MOVLW  1B
094A4:  MOVLB  4
094A6:  MOVWF  x4D
094A8:  MOVLB  0
094AA:  CALL   4A00
....................             SendDataDisplay(); 
094AE:  CALL   39EA
....................             printf("bi.pic=%u",iconoPeque[Opcion-2]); 
094B2:  MOVLW  02
094B4:  MOVLB  3
094B6:  SUBWF  x6D,W
094B8:  CLRF   03
094BA:  ADDLW  C4
094BC:  MOVWF  FE9
094BE:  MOVLW  03
094C0:  ADDWFC 03,W
094C2:  MOVWF  FEA
094C4:  MOVFF  FEF,447
094C8:  MOVLW  92
094CA:  MOVWF  FF6
094CC:  MOVLW  0B
094CE:  MOVWF  FF7
094D0:  MOVLW  00
094D2:  MOVWF  FF8
094D4:  MOVLW  07
094D6:  MOVLB  4
094D8:  MOVWF  x4C
094DA:  MOVLB  0
094DC:  CALL   49A2
094E0:  MOVFF  447,44C
094E4:  MOVLW  1B
094E6:  MOVLB  4
094E8:  MOVWF  x4D
094EA:  MOVLB  0
094EC:  CALL   4A00
....................             SendDataDisplay(); 
094F0:  CALL   39EA
....................             printf("bc.pic2=%u",iconoGrande[Opcion-1]); 
094F4:  MOVLW  01
094F6:  MOVLB  3
094F8:  SUBWF  x6D,W
094FA:  CLRF   03
094FC:  ADDLW  BB
094FE:  MOVWF  FE9
09500:  MOVLW  03
09502:  ADDWFC 03,W
09504:  MOVWF  FEA
09506:  MOVFF  FEF,447
0950A:  MOVLW  9C
0950C:  MOVWF  FF6
0950E:  MOVLW  0B
09510:  MOVWF  FF7
09512:  MOVLW  00
09514:  MOVWF  FF8
09516:  MOVLW  08
09518:  MOVLB  4
0951A:  MOVWF  x4C
0951C:  MOVLB  0
0951E:  CALL   49A2
09522:  MOVFF  447,44C
09526:  MOVLW  1B
09528:  MOVLB  4
0952A:  MOVWF  x4D
0952C:  MOVLB  0
0952E:  CALL   4A00
....................             SendDataDisplay(); 
09532:  CALL   39EA
....................             printf("bd.pic2=%u",iconoPeque[Opcion]); 
09536:  CLRF   03
09538:  MOVLB  3
0953A:  MOVF   x6D,W
0953C:  ADDLW  C4
0953E:  MOVWF  FE9
09540:  MOVLW  03
09542:  ADDWFC 03,W
09544:  MOVWF  FEA
09546:  MOVFF  FEF,447
0954A:  MOVLW  A8
0954C:  MOVWF  FF6
0954E:  MOVLW  0B
09550:  MOVWF  FF7
09552:  MOVLW  00
09554:  MOVWF  FF8
09556:  MOVLW  08
09558:  MOVLB  4
0955A:  MOVWF  x4C
0955C:  MOVLB  0
0955E:  CALL   49A2
09562:  MOVFF  447,44C
09566:  MOVLW  1B
09568:  MOVLB  4
0956A:  MOVWF  x4D
0956C:  MOVLB  0
0956E:  CALL   4A00
....................             SendDataDisplay(); 
09572:  CALL   39EA
....................             printf("bi.pic2=%u",iconoPeque[Opcion-2]); 
09576:  MOVLW  02
09578:  MOVLB  3
0957A:  SUBWF  x6D,W
0957C:  CLRF   03
0957E:  ADDLW  C4
09580:  MOVWF  FE9
09582:  MOVLW  03
09584:  ADDWFC 03,W
09586:  MOVWF  FEA
09588:  MOVFF  FEF,447
0958C:  MOVLW  B4
0958E:  MOVWF  FF6
09590:  MOVLW  0B
09592:  MOVWF  FF7
09594:  MOVLW  00
09596:  MOVWF  FF8
09598:  MOVLW  08
0959A:  MOVLB  4
0959C:  MOVWF  x4C
0959E:  MOVLB  0
095A0:  CALL   49A2
095A4:  MOVFF  447,44C
095A8:  MOVLW  1B
095AA:  MOVLB  4
095AC:  MOVWF  x4D
095AE:  MOVLB  0
095B0:  CALL   4A00
....................             SendDataDisplay(); 
095B4:  CALL   39EA
....................             printf("textop.txt=\"%s\"",texto[Opcion-1]); 
095B8:  MOVLW  01
095BA:  MOVLB  3
095BC:  SUBWF  x6D,W
095BE:  MULLW  14
095C0:  MOVF   FF3,W
095C2:  CLRF   03
095C4:  MOVLB  4
095C6:  MOVWF  x47
095C8:  MOVLW  C0
095CA:  MOVWF  FF6
095CC:  MOVLW  0B
095CE:  MOVWF  FF7
095D0:  MOVLW  00
095D2:  MOVWF  FF8
095D4:  MOVLW  0C
095D6:  MOVWF  x4C
095D8:  MOVLB  0
095DA:  CALL   49A2
095DE:  MOVLW  50
095E0:  MOVWF  FF6
095E2:  MOVLW  01
095E4:  MOVWF  FF7
095E6:  MOVLW  00
095E8:  MOVWF  FF8
095EA:  MOVLB  4
095EC:  MOVF   x47,W
095EE:  ADDWF  FF6,F
095F0:  MOVLW  00
095F2:  ADDWFC FF7,F
095F4:  MOVLB  0
095F6:  CALL   39B8
095FA:  MOVLW  22
095FC:  BTFSS  F9E.4
095FE:  BRA    95FC
09600:  MOVWF  FAD
....................             SendDataDisplay(); 
09602:  CALL   39EA
....................          } 
....................           
....................          printf("ttitulo.txt=\"SELECCIONE SU CICLO\""); 
09606:  MOVLW  D0
09608:  MOVWF  FF6
0960A:  MOVLW  0B
0960C:  MOVWF  FF7
0960E:  MOVLW  00
09610:  MOVWF  FF8
09612:  CALL   39B8
....................          SendDataDisplay(); 
09616:  CALL   39EA
....................           
....................          if(RIGHT){ 
0961A:  BSF    F93.1
0961C:  BTFSC  F81.1
0961E:  BRA    9638
....................             delay_ms(20); 
09620:  MOVLW  14
09622:  MOVLB  4
09624:  MOVWF  x5C
09626:  MOVLB  0
09628:  CALL   1AF4
....................             if(RIGHT){ 
0962C:  BSF    F93.1
0962E:  BTFSC  F81.1
09630:  BRA    9638
....................                Opcion++; 
09632:  MOVLB  3
09634:  INCF   x6D,F
09636:  MOVLB  0
....................             } 
....................          } 
....................           
....................          if(LEFT){ 
09638:  BSF    F93.0
0963A:  BTFSC  F81.0
0963C:  BRA    9656
....................             delay_ms(20); 
0963E:  MOVLW  14
09640:  MOVLB  4
09642:  MOVWF  x5C
09644:  MOVLB  0
09646:  CALL   1AF4
....................             if(LEFT){ 
0964A:  BSF    F93.0
0964C:  BTFSC  F81.0
0964E:  BRA    9656
....................                Opcion--; 
09650:  MOVLB  3
09652:  DECF   x6D,F
09654:  MOVLB  0
....................             } 
....................          } 
....................           
....................          if(RX_Buffer[4]==0x0d && !Op){//Tecla Derecha Oprimida 
09656:  MOVF   34,W
09658:  SUBLW  0D
0965A:  BNZ   966A
0965C:  BTFSC  xA2.2
0965E:  BRA    966A
....................             Opcion++; 
09660:  MOVLB  3
09662:  INCF   x6D,F
....................             RX_Buffer[4]=0x00; 
09664:  CLRF   34
....................             Op=ON; 
09666:  MOVLB  0
09668:  BSF    xA2.2
....................             //BorraBuffer(); 
....................          } 
....................           
....................          if(RX_Buffer[4]==0x0c && Op){//Tecla Derecha Oprimida 
0966A:  MOVF   34,W
0966C:  SUBLW  0C
0966E:  BNZ   967E
09670:  BTFSS  xA2.2
09672:  BRA    967E
....................             Opcion++; 
09674:  MOVLB  3
09676:  INCF   x6D,F
....................             RX_Buffer[4]=0x00; 
09678:  CLRF   34
....................             Op=OFF; 
0967A:  MOVLB  0
0967C:  BCF    xA2.2
....................             //BorraBuffer(); 
....................          } 
....................           
....................          if(RX_Buffer[4]==0x0e && !Op2){//Tecla Izquierda Oprimida 
0967E:  MOVF   34,W
09680:  SUBLW  0E
09682:  BNZ   9692
09684:  BTFSC  xA2.3
09686:  BRA    9692
....................             Opcion--; 
09688:  MOVLB  3
0968A:  DECF   x6D,F
....................             RX_Buffer[4]=0x00; 
0968C:  CLRF   34
....................             Op2=ON; 
0968E:  MOVLB  0
09690:  BSF    xA2.3
....................             //BorraBuffer(); 
....................          } 
....................           
....................          if(RX_Buffer[4]==0x0f && Op2){//Tecla Izquierda Oprimida 
09692:  MOVF   34,W
09694:  SUBLW  0F
09696:  BNZ   96A6
09698:  BTFSS  xA2.3
0969A:  BRA    96A6
....................             Opcion--; 
0969C:  MOVLB  3
0969E:  DECF   x6D,F
....................             RX_Buffer[4]=0x00; 
096A0:  CLRF   34
....................             Op2=OFF; 
096A2:  MOVLB  0
096A4:  BCF    xA2.3
096A6:  MOVLB  2
....................             //BorraBuffer(); 
....................          } 
....................           
....................       } 
....................          if(RIGHT && LEFT){ 
096A8:  BSF    F93.1
096AA:  BTFSC  F81.1
096AC:  BRA    96FA
096AE:  BSF    F93.0
096B0:  BTFSC  F81.0
096B2:  BRA    96FA
....................             delay_ms(20); 
096B4:  MOVLW  14
096B6:  MOVLB  4
096B8:  MOVWF  x5C
096BA:  MOVLB  0
096BC:  CALL   1AF4
....................             if(RIGHT && LEFT){ 
096C0:  BSF    F93.1
096C2:  BTFSC  F81.1
096C4:  BRA    96F8
096C6:  BSF    F93.0
096C8:  BTFSC  F81.0
096CA:  BRA    96F8
....................                printf("page Clave"); 
096CC:  MOVLW  F2
096CE:  MOVWF  FF6
096D0:  MOVLW  0B
096D2:  MOVWF  FF7
096D4:  MOVLW  00
096D6:  MOVWF  FF8
096D8:  CALL   39B8
....................                SendDataDisplay();  
096DC:  CALL   39EA
....................                Op=OFF; 
096E0:  BCF    xA2.2
....................                Op2=OFF; 
096E2:  BCF    xA2.3
....................                MenuAnt=Menu; 
096E4:  MOVFF  365,366
....................                TipoClave=1; 
096E8:  MOVLW  01
096EA:  MOVLB  2
096EC:  MOVWF  xE5
....................                RX_Buffer[3]=0x00; 
096EE:  CLRF   33
....................                RX_Buffer2[3]=0x00; 
096F0:  CLRF   3E
....................                Opcion=0; 
096F2:  MOVLB  3
096F4:  CLRF   x6D
096F6:  MOVLB  0
096F8:  MOVLB  2
....................             } 
....................          } 
....................    } 
.................... //_--------------------------------------------------------------------------------------------------------------------------------------------------------        
....................  
.................... //_-------------------------------------------------------------------------------------------------------------------------------------------------------- 
....................     if(Menu==2){ //Menu de Tiempo Esterilizacion      
096FA:  MOVLB  3
096FC:  MOVF   x65,W
096FE:  SUBLW  02
09700:  BTFSS  FD8.2
09702:  BRA    9B30
....................       //printf("fecha.txt=\"T:%3.1fC Fecha:%02u/%02u/20%02u Hora: %02u:%02u:%02u\"",Temperatura,Dia,Mes,Year,Hora,Minuto,Segundo); 
....................       //SendDataDisplay(); 
....................       revisePresion(); 
09704:  MOVLB  0
09706:  CALL   4E72
....................          if(RX_Buffer[4]==0x0a){//Selecciono Minutos 
0970A:  MOVF   34,W
0970C:  SUBLW  0A
0970E:  BNZ   9714
....................             Minutos=ON; 
09710:  BSF    xA2.4
....................             Segundos=OFF; 
09712:  BCF    xA2.5
....................          } 
....................           
....................          if(RX_Buffer[4]==0x0b){//Selecciono Segundos 
09714:  MOVF   34,W
09716:  SUBLW  0B
09718:  BNZ   971E
....................             Segundos=ON; 
0971A:  BSF    xA2.5
....................             Minutos=OFF; 
0971C:  BCF    xA2.4
....................          }            
....................           
....................          if(RX_Buffer[4]==0x11 || LEFT){//Selecciono Regresar 
0971E:  MOVF   34,W
09720:  SUBLW  11
09722:  BZ    972A
09724:  BSF    F93.0
09726:  BTFSC  F81.0
09728:  BRA    98B4
....................             delay_ms(100); 
0972A:  MOVLW  64
0972C:  MOVLB  4
0972E:  MOVWF  x5C
09730:  MOVLB  0
09732:  CALL   1AF4
....................             if(RX_Buffer[4]==0x11 || LEFT){ 
09736:  MOVF   34,W
09738:  SUBLW  11
0973A:  BZ    9742
0973C:  BSF    F93.0
0973E:  BTFSC  F81.0
09740:  BRA    98B4
....................                Segundos=OFF; 
09742:  BCF    xA2.5
....................                Minutos=OFF; 
09744:  BCF    xA2.4
....................                printf("page CicloPersona"); 
09746:  MOVLW  FE
09748:  MOVWF  FF6
0974A:  MOVLW  0B
0974C:  MOVWF  FF7
0974E:  MOVLW  00
09750:  MOVWF  FF8
09752:  CALL   39B8
....................                SendDataDisplay();   
09756:  CALL   39EA
....................                PantallaPrincipal=1; 
0975A:  MOVLW  01
0975C:  MOVLB  2
0975E:  MOVWF  xE4
....................                Op=OFF; 
09760:  MOVLB  0
09762:  BCF    xA2.2
....................                Op2=OFF; 
09764:  BCF    xA2.3
....................                if(!GuardaEEPROM){ 
09766:  BTFSC  xA2.6
09768:  BRA    98B4
....................                   CiclosPersonalizados[CicloLibre-1].Minutoest=Testerilizacionp[2]+(Testerilizacionp[3]*10); 
0976A:  MOVLW  01
0976C:  MOVLB  3
0976E:  SUBWF  x45,W
09770:  MULLW  0A
09772:  MOVF   FF3,W
09774:  MOVLB  4
09776:  CLRF   x48
09778:  MOVWF  x47
0977A:  MOVLW  09
0977C:  ADDWF  x47,W
0977E:  MOVWF  01
09780:  MOVLW  00
09782:  ADDWFC x48,W
09784:  MOVWF  03
09786:  MOVF   01,W
09788:  ADDLW  1F
0978A:  MOVWF  FE9
0978C:  MOVLW  04
0978E:  ADDWFC 03,W
09790:  MOVWF  FEA
09792:  MOVFF  C0,449
09796:  MOVLW  0A
09798:  MOVWF  x4A
0979A:  MOVLB  0
0979C:  CALL   2E72
097A0:  MOVF   01,W
097A2:  ADDWF  xBF,W
097A4:  MOVWF  FEF
....................                   CiclosPersonalizados[CicloLibre-1].Segundoest=Testerilizacionp[0]+(Testerilizacionp[1]*10); 
097A6:  MOVLW  01
097A8:  MOVLB  3
097AA:  SUBWF  x45,W
097AC:  MULLW  0A
097AE:  MOVF   FF3,W
097B0:  MOVLB  4
097B2:  CLRF   x48
097B4:  MOVWF  x47
097B6:  MOVLW  03
097B8:  ADDWF  x47,W
097BA:  MOVWF  01
097BC:  MOVLW  00
097BE:  ADDWFC x48,W
097C0:  MOVWF  03
097C2:  MOVF   01,W
097C4:  ADDLW  1F
097C6:  MOVWF  FE9
097C8:  MOVLW  04
097CA:  ADDWFC 03,W
097CC:  MOVWF  FEA
097CE:  MOVFF  BE,449
097D2:  MOVLW  0A
097D4:  MOVWF  x4A
097D6:  MOVLB  0
097D8:  CALL   2E72
097DC:  MOVF   01,W
097DE:  ADDWF  xBD,W
097E0:  MOVWF  FEF
....................                   write_eeprom(102+((CicloLibre-1)*8),Testerilizacionp[2]+(Testerilizacionp[3]*10)); 
097E2:  MOVLW  01
097E4:  MOVLB  3
097E6:  SUBWF  x45,W
097E8:  MULLW  08
097EA:  MOVF   FF3,W
097EC:  ADDLW  66
097EE:  MOVLB  4
097F0:  MOVWF  x47
097F2:  MOVFF  C0,449
097F6:  MOVLW  0A
097F8:  MOVWF  x4A
097FA:  MOVLB  0
097FC:  CALL   2E72
09800:  MOVF   01,W
09802:  ADDWF  xBF,W
09804:  MOVLB  4
09806:  MOVWF  x48
09808:  CLRF   FAA
0980A:  MOVFF  447,FA9
0980E:  MOVFF  448,FA8
09812:  BCF    FA6.6
09814:  BCF    FA6.7
09816:  BSF    FA6.2
09818:  MOVF   FF2,W
0981A:  MOVWF  00
0981C:  BCF    FF2.6
0981E:  BCF    FF2.7
09820:  MOVLB  F
09822:  MOVLW  55
09824:  MOVWF  FA7
09826:  MOVLW  AA
09828:  MOVWF  FA7
0982A:  BSF    FA6.1
0982C:  BTFSC  FA6.1
0982E:  BRA    982C
09830:  BCF    FA6.2
09832:  MOVF   00,W
09834:  IORWF  FF2,F
....................                   delay_ms(10); 
09836:  MOVLW  0A
09838:  MOVLB  4
0983A:  MOVWF  x5C
0983C:  MOVLB  0
0983E:  CALL   1AF4
....................                   write_eeprom(103+((CicloLibre-1)*8),Testerilizacionp[0]+(Testerilizacionp[1]*10)); 
09842:  MOVLW  01
09844:  MOVLB  3
09846:  SUBWF  x45,W
09848:  MULLW  08
0984A:  MOVF   FF3,W
0984C:  ADDLW  67
0984E:  MOVLB  4
09850:  MOVWF  x47
09852:  MOVFF  BE,449
09856:  MOVLW  0A
09858:  MOVWF  x4A
0985A:  MOVLB  0
0985C:  CALL   2E72
09860:  MOVF   01,W
09862:  ADDWF  xBD,W
09864:  MOVLB  4
09866:  MOVWF  x48
09868:  CLRF   FAA
0986A:  MOVFF  447,FA9
0986E:  MOVFF  448,FA8
09872:  BCF    FA6.6
09874:  BCF    FA6.7
09876:  BSF    FA6.2
09878:  MOVF   FF2,W
0987A:  MOVWF  00
0987C:  BCF    FF2.6
0987E:  BCF    FF2.7
09880:  MOVLB  F
09882:  MOVLW  55
09884:  MOVWF  FA7
09886:  MOVLW  AA
09888:  MOVWF  FA7
0988A:  BSF    FA6.1
0988C:  BTFSC  FA6.1
0988E:  BRA    988C
09890:  BCF    FA6.2
09892:  MOVF   00,W
09894:  IORWF  FF2,F
....................                   delay_ms(10); 
09896:  MOVLW  0A
09898:  MOVLB  4
0989A:  MOVWF  x5C
0989C:  MOVLB  0
0989E:  CALL   1AF4
....................                   Testerilizacion[0]=Testerilizacionp[0]; 
098A2:  MOVFF  BD,B8
....................                   Testerilizacion[1]=Testerilizacionp[1]; 
098A6:  MOVFF  BE,B9
....................                   Testerilizacion[2]=Testerilizacionp[2]; 
098AA:  MOVFF  BF,BA
....................                   Testerilizacion[3]=Testerilizacionp[3];                   
098AE:  MOVFF  C0,BB
....................                   GuardaEEPROM=ON; 
098B2:  BSF    xA2.6
....................                } 
....................             } 
....................          } 
....................           
....................          if(RIGHT){ 
098B4:  BSF    F93.1
098B6:  BTFSC  F81.1
098B8:  BRA    992E
....................             delay_ms(100); 
098BA:  MOVLW  64
098BC:  MOVLB  4
098BE:  MOVWF  x5C
098C0:  MOVLB  0
098C2:  CALL   1AF4
....................             if(RIGHT){ 
098C6:  BSF    F93.1
098C8:  BTFSC  F81.1
098CA:  BRA    992E
....................                if(!Segundos){ 
098CC:  BTFSC  xA2.5
098CE:  BRA    98FE
....................                   Segundos=ON; 
098D0:  BSF    xA2.5
....................                   Minutos=OFF; 
098D2:  BCF    xA2.4
....................                   printf("tsecest.pco=65535"); 
098D4:  MOVLW  10
098D6:  MOVWF  FF6
098D8:  MOVLW  0C
098DA:  MOVWF  FF7
098DC:  MOVLW  00
098DE:  MOVWF  FF8
098E0:  CALL   39B8
....................                   SendDataDisplay();   
098E4:  CALL   39EA
....................                   printf("tminest.pco=0"); 
098E8:  MOVLW  22
098EA:  MOVWF  FF6
098EC:  MOVLW  0C
098EE:  MOVWF  FF7
098F0:  MOVLW  00
098F2:  MOVWF  FF8
098F4:  CALL   39B8
....................                   SendDataDisplay();   
098F8:  CALL   39EA
....................                }else if(!Minutos){ 
098FC:  BRA    992E
098FE:  BTFSC  xA2.4
09900:  BRA    992E
....................                   Segundos=OFF; 
09902:  BCF    xA2.5
....................                   Minutos=ON; 
09904:  BSF    xA2.4
....................                   printf("tsecest.pco=0"); 
09906:  MOVLW  30
09908:  MOVWF  FF6
0990A:  MOVLW  0C
0990C:  MOVWF  FF7
0990E:  MOVLW  00
09910:  MOVWF  FF8
09912:  CALL   39B8
....................                   SendDataDisplay();   
09916:  CALL   39EA
....................                   printf("tminest.pco=65535"); 
0991A:  MOVLW  3E
0991C:  MOVWF  FF6
0991E:  MOVLW  0C
09920:  MOVWF  FF7
09922:  MOVLW  00
09924:  MOVWF  FF8
09926:  CALL   39B8
....................                   SendDataDisplay();   
0992A:  CALL   39EA
....................                } 
....................             } 
....................          } 
....................           
....................          if(UP){ 
0992E:  BSF    F93.3
09930:  BTFSC  F81.3
09932:  BRA    997A
....................             delay_ms(100); 
09934:  MOVLW  64
09936:  MOVLB  4
09938:  MOVWF  x5C
0993A:  MOVLB  0
0993C:  CALL   1AF4
....................             if(UP){ 
09940:  BSF    F93.3
09942:  BTFSC  F81.3
09944:  BRA    997A
....................                if(Segundos){ 
09946:  BTFSS  xA2.5
09948:  BRA    995A
....................                   Testerilizacionp[0]++; 
0994A:  INCF   xBD,F
....................                   if(Testerilizacionp[0]>9){ 
0994C:  BTFSC  xBD.7
0994E:  BRA    995A
09950:  MOVF   xBD,W
09952:  SUBLW  09
09954:  BC    995A
....................                      Testerilizacionp[1]++; 
09956:  INCF   xBE,F
....................                      Testerilizacionp[0]=0; 
09958:  CLRF   xBD
....................                   } 
....................                } 
....................                if(Minutos){ 
0995A:  BTFSS  xA2.4
0995C:  BRA    997A
....................                   Testerilizacionp[2]++; 
0995E:  INCF   xBF,F
....................                   if(Testerilizacionp[2]>9){ 
09960:  BTFSC  xBF.7
09962:  BRA    996E
09964:  MOVF   xBF,W
09966:  SUBLW  09
09968:  BC    996E
....................                      Testerilizacionp[3]++; 
0996A:  INCF   xC0,F
....................                      Testerilizacionp[2]=0; 
0996C:  CLRF   xBF
....................                   } 
....................                   if(Testerilizacionp[3]>9){                      
0996E:  BTFSC  xC0.7
09970:  BRA    997A
09972:  MOVF   xC0,W
09974:  SUBLW  09
09976:  BC    997A
....................                      Testerilizacionp[3]=0; 
09978:  CLRF   xC0
....................                   } 
....................                }     
....................             } 
....................          } 
....................           
....................          if(DOWN){ 
0997A:  BSF    F93.2
0997C:  BTFSC  F81.2
0997E:  BRA    99C0
....................             delay_ms(100); 
09980:  MOVLW  64
09982:  MOVLB  4
09984:  MOVWF  x5C
09986:  MOVLB  0
09988:  CALL   1AF4
....................             if(DOWN){ 
0998C:  BSF    F93.2
0998E:  BTFSC  F81.2
09990:  BRA    99C0
....................                if(Segundos){ 
09992:  BTFSS  xA2.5
09994:  BRA    99A4
....................                   Testerilizacionp[0]--; 
09996:  DECF   xBD,F
....................                   if(Testerilizacionp[0]<0){ 
09998:  BTFSC  xBD.7
0999A:  BRA    999E
0999C:  BRA    99A4
....................                      Testerilizacionp[1]--; 
0999E:  DECF   xBE,F
....................                      Testerilizacionp[0]=9; 
099A0:  MOVLW  09
099A2:  MOVWF  xBD
....................                   } 
....................                } 
....................                if(Minutos){ 
099A4:  BTFSS  xA2.4
099A6:  BRA    99C0
....................                   Testerilizacionp[2]--; 
099A8:  DECF   xBF,F
....................                   if(Testerilizacionp[2]<0){ 
099AA:  BTFSC  xBF.7
099AC:  BRA    99B0
099AE:  BRA    99B6
....................                      Testerilizacionp[3]--; 
099B0:  DECF   xC0,F
....................                      Testerilizacionp[2]=9; 
099B2:  MOVLW  09
099B4:  MOVWF  xBF
....................                   } 
....................                   if(Testerilizacionp[3]<0){ 
099B6:  BTFSC  xC0.7
099B8:  BRA    99BC
099BA:  BRA    99C0
....................                      Testerilizacionp[3]=9; 
099BC:  MOVLW  09
099BE:  MOVWF  xC0
....................                   } 
....................                }     
....................             } 
....................          } 
....................           
....................          if(RX_Buffer[4]==0x0c || RX_Buffer[4]==0x0d){//Tecla Derecha Oprimida 
099C0:  MOVF   34,W
099C2:  SUBLW  0C
099C4:  BZ    99CC
099C6:  MOVF   34,W
099C8:  SUBLW  0D
099CA:  BNZ   9A04
....................             if(Segundos){ 
099CC:  BTFSS  xA2.5
099CE:  BRA    99E0
....................                Testerilizacionp[0]++; 
099D0:  INCF   xBD,F
....................                if(Testerilizacionp[0]>9){ 
099D2:  BTFSC  xBD.7
099D4:  BRA    99E0
099D6:  MOVF   xBD,W
099D8:  SUBLW  09
099DA:  BC    99E0
....................                   Testerilizacionp[1]++; 
099DC:  INCF   xBE,F
....................                   Testerilizacionp[0]=0; 
099DE:  CLRF   xBD
....................                } 
....................             } 
....................             if(Minutos){ 
099E0:  BTFSS  xA2.4
099E2:  BRA    9A00
....................                Testerilizacionp[2]++; 
099E4:  INCF   xBF,F
....................                if(Testerilizacionp[2]>9){ 
099E6:  BTFSC  xBF.7
099E8:  BRA    99F4
099EA:  MOVF   xBF,W
099EC:  SUBLW  09
099EE:  BC    99F4
....................                   Testerilizacionp[3]++; 
099F0:  INCF   xC0,F
....................                   Testerilizacionp[2]=0; 
099F2:  CLRF   xBF
....................                } 
....................                if(Testerilizacionp[3]>9){                   
099F4:  BTFSC  xC0.7
099F6:  BRA    9A00
099F8:  MOVF   xC0,W
099FA:  SUBLW  09
099FC:  BC    9A00
....................                   Testerilizacionp[3]=0; 
099FE:  CLRF   xC0
....................                } 
....................             } 
....................             RX_Buffer[4]=0x00;   
09A00:  CLRF   34
....................             RX_Buffer2[4]=0x00; 
09A02:  CLRF   3F
....................          } 
....................           
....................          if(RX_Buffer[4]==0x0f || RX_Buffer[4]==0x0e){//Tecla Izquierda Oprimida 
09A04:  MOVF   34,W
09A06:  SUBLW  0F
09A08:  BZ    9A10
09A0A:  MOVF   34,W
09A0C:  SUBLW  0E
09A0E:  BNZ   9A42
....................              
....................             if(Segundos){ 
09A10:  BTFSS  xA2.5
09A12:  BRA    9A22
....................                Testerilizacionp[0]--; 
09A14:  DECF   xBD,F
....................                if(Testerilizacionp[0]<0){ 
09A16:  BTFSC  xBD.7
09A18:  BRA    9A1C
09A1A:  BRA    9A22
....................                   Testerilizacionp[1]--; 
09A1C:  DECF   xBE,F
....................                   Testerilizacionp[0]=9; 
09A1E:  MOVLW  09
09A20:  MOVWF  xBD
....................                } 
....................             } 
....................             if(Minutos){ 
09A22:  BTFSS  xA2.4
09A24:  BRA    9A3E
....................                Testerilizacionp[2]--; 
09A26:  DECF   xBF,F
....................                if(Testerilizacionp[2]<0){ 
09A28:  BTFSC  xBF.7
09A2A:  BRA    9A2E
09A2C:  BRA    9A34
....................                   Testerilizacionp[3]--; 
09A2E:  DECF   xC0,F
....................                   Testerilizacionp[2]=9; 
09A30:  MOVLW  09
09A32:  MOVWF  xBF
....................                } 
....................                if(Testerilizacionp[3]<0){ 
09A34:  BTFSC  xC0.7
09A36:  BRA    9A3A
09A38:  BRA    9A3E
....................                   Testerilizacionp[3]=9; 
09A3A:  MOVLW  09
09A3C:  MOVWF  xC0
....................                } 
....................             } 
....................             RX_Buffer[4]=0x00;   
09A3E:  CLRF   34
....................             RX_Buffer2[4]=0x00; 
09A40:  CLRF   3F
....................          } 
....................           
....................          if(Testerilizacionp[0]<0) 
09A42:  BTFSC  xBD.7
09A44:  BRA    9A48
09A46:  BRA    9A4C
....................             Testerilizacionp[0]=9;             
09A48:  MOVLW  09
09A4A:  MOVWF  xBD
....................          if(Testerilizacionp[1]<0) 
09A4C:  BTFSC  xBE.7
09A4E:  BRA    9A52
09A50:  BRA    9A56
....................             Testerilizacionp[1]=5;             
09A52:  MOVLW  05
09A54:  MOVWF  xBE
....................          if(Testerilizacionp[2]<0) 
09A56:  BTFSC  xBF.7
09A58:  BRA    9A5C
09A5A:  BRA    9A60
....................             Testerilizacionp[2]=9;             
09A5C:  MOVLW  09
09A5E:  MOVWF  xBF
....................          if(Testerilizacionp[3]<0) 
09A60:  BTFSC  xC0.7
09A62:  BRA    9A66
09A64:  BRA    9A6A
....................             Testerilizacionp[3]=9;             
09A66:  MOVLW  09
09A68:  MOVWF  xC0
....................           
....................          if(Testerilizacionp[0]>9) 
09A6A:  BTFSC  xBD.7
09A6C:  BRA    9A76
09A6E:  MOVF   xBD,W
09A70:  SUBLW  09
09A72:  BC    9A76
....................             Testerilizacionp[0]=0;             
09A74:  CLRF   xBD
....................          if(Testerilizacionp[1]>5) 
09A76:  BTFSC  xBE.7
09A78:  BRA    9A82
09A7A:  MOVF   xBE,W
09A7C:  SUBLW  05
09A7E:  BC    9A82
....................             Testerilizacionp[1]=0;             
09A80:  CLRF   xBE
....................          if(Testerilizacionp[2]>9) 
09A82:  BTFSC  xBF.7
09A84:  BRA    9A8E
09A86:  MOVF   xBF,W
09A88:  SUBLW  09
09A8A:  BC    9A8E
....................             Testerilizacionp[2]=0;             
09A8C:  CLRF   xBF
....................          if(Testerilizacionp[3]>9) 
09A8E:  BTFSC  xC0.7
09A90:  BRA    9A9A
09A92:  MOVF   xC0,W
09A94:  SUBLW  09
09A96:  BC    9A9A
....................             Testerilizacionp[3]=0;  
09A98:  CLRF   xC0
....................              
....................          printf("tminest.txt=\"%02u\"",((Testerilizacionp[3]*10)+Testerilizacionp[2])); 
09A9A:  MOVFF  C0,449
09A9E:  MOVLW  0A
09AA0:  MOVLB  4
09AA2:  MOVWF  x4A
09AA4:  MOVLB  0
09AA6:  CALL   2E72
09AAA:  MOVF   xBF,W
09AAC:  ADDWF  01,W
09AAE:  MOVLB  4
09AB0:  MOVWF  x47
09AB2:  MOVLW  50
09AB4:  MOVWF  FF6
09AB6:  MOVLW  0C
09AB8:  MOVWF  FF7
09ABA:  MOVLW  00
09ABC:  MOVWF  FF8
09ABE:  MOVLW  0D
09AC0:  MOVWF  x4C
09AC2:  MOVLB  0
09AC4:  CALL   49A2
09AC8:  MOVFF  447,44C
09ACC:  MOVLW  01
09ACE:  MOVLB  4
09AD0:  MOVWF  x4D
09AD2:  MOVLB  0
09AD4:  CALL   4A00
09AD8:  MOVLW  22
09ADA:  BTFSS  F9E.4
09ADC:  BRA    9ADA
09ADE:  MOVWF  FAD
....................          SendDataDisplay(); 
09AE0:  CALL   39EA
....................          printf("tsecest.txt=\"%02u\"",((Testerilizacionp[1]*10)+Testerilizacionp[0])); 
09AE4:  MOVFF  BE,449
09AE8:  MOVLW  0A
09AEA:  MOVLB  4
09AEC:  MOVWF  x4A
09AEE:  MOVLB  0
09AF0:  CALL   2E72
09AF4:  MOVF   xBD,W
09AF6:  ADDWF  01,W
09AF8:  MOVLB  4
09AFA:  MOVWF  x47
09AFC:  MOVLW  64
09AFE:  MOVWF  FF6
09B00:  MOVLW  0C
09B02:  MOVWF  FF7
09B04:  MOVLW  00
09B06:  MOVWF  FF8
09B08:  MOVLW  0D
09B0A:  MOVWF  x4C
09B0C:  MOVLB  0
09B0E:  CALL   49A2
09B12:  MOVFF  447,44C
09B16:  MOVLW  01
09B18:  MOVLB  4
09B1A:  MOVWF  x4D
09B1C:  MOVLB  0
09B1E:  CALL   4A00
09B22:  MOVLW  22
09B24:  BTFSS  F9E.4
09B26:  BRA    9B24
09B28:  MOVWF  FAD
....................          SendDataDisplay(); 
09B2A:  CALL   39EA
09B2E:  MOVLB  3
....................     } 
.................... //_--------------------------------------------------------------------------------------------------------------------------------------------------------        
....................  
.................... //_-------------------------------------------------------------------------------------------------------------------------------------------------------- 
....................     if(Menu==3){ //Menu de Tiempo de Secado 
09B30:  MOVF   x65,W
09B32:  SUBLW  03
09B34:  BTFSS  FD8.2
09B36:  BRA    9F34
....................       //printf("fecha.txt=\"T:%3.1fC Fecha:%02u/%02u/20%02u Hora: %02u:%02u:%02u\"",Temperatura,Dia,Mes,Year,Hora,Minuto,Segundo); 
....................       //SendDataDisplay();             
....................       revisePresion(); 
09B38:  MOVLB  0
09B3A:  CALL   4E72
....................              
....................          if(RX_Buffer[4]==0x0a){//Selecciono Minutos 
09B3E:  MOVF   34,W
09B40:  SUBLW  0A
09B42:  BNZ   9B48
....................             Minutos=ON; 
09B44:  BSF    xA2.4
....................             Segundos=OFF; 
09B46:  BCF    xA2.5
....................          } 
....................           
....................          if(RX_Buffer[4]==0x0b){//Selecciono Segundos 
09B48:  MOVF   34,W
09B4A:  SUBLW  0B
09B4C:  BNZ   9B52
....................             Segundos=ON; 
09B4E:  BSF    xA2.5
....................             Minutos=OFF; 
09B50:  BCF    xA2.4
....................          } 
....................           
....................          if(RX_Buffer[4]==0x11 || LEFT){//Selecciono Regresar 
09B52:  MOVF   34,W
09B54:  SUBLW  11
09B56:  BZ    9B5E
09B58:  BSF    F93.0
09B5A:  BTFSC  F81.0
09B5C:  BRA    9CC8
....................             Segundos=OFF; 
09B5E:  BCF    xA2.5
....................             Minutos=OFF; 
09B60:  BCF    xA2.4
....................             printf("page CicloPersona"); 
09B62:  MOVLW  78
09B64:  MOVWF  FF6
09B66:  MOVLW  0C
09B68:  MOVWF  FF7
09B6A:  MOVLW  00
09B6C:  MOVWF  FF8
09B6E:  CALL   39B8
....................             SendDataDisplay();   
09B72:  CALL   39EA
....................             //PantallaPrincipal=1; 
....................             Op=OFF; 
09B76:  BCF    xA2.2
....................             Op2=OFF; 
09B78:  BCF    xA2.3
....................             if(!GuardaEEPROM){ 
09B7A:  BTFSC  xA2.6
09B7C:  BRA    9CC8
....................                CiclosPersonalizados[CicloLibre-1].Minutosec=Tsecadop[2]+(Tsecadop[3]*10); 
09B7E:  MOVLW  01
09B80:  MOVLB  3
09B82:  SUBWF  x45,W
09B84:  MULLW  0A
09B86:  MOVF   FF3,W
09B88:  MOVLB  4
09B8A:  CLRF   x48
09B8C:  MOVWF  x47
09B8E:  MOVLW  04
09B90:  ADDWF  x47,W
09B92:  MOVWF  01
09B94:  MOVLW  00
09B96:  ADDWFC x48,W
09B98:  MOVWF  03
09B9A:  MOVF   01,W
09B9C:  ADDLW  1F
09B9E:  MOVWF  FE9
09BA0:  MOVLW  04
09BA2:  ADDWFC 03,W
09BA4:  MOVWF  FEA
09BA6:  MOVFF  C9,449
09BAA:  MOVLW  0A
09BAC:  MOVWF  x4A
09BAE:  MOVLB  0
09BB0:  CALL   2E72
09BB4:  MOVF   01,W
09BB6:  ADDWF  xC8,W
09BB8:  MOVWF  FEF
....................                CiclosPersonalizados[CicloLibre-1].Segundosec=Tsecadop[0]+(Tsecadop[1]*10); 
09BBA:  MOVLW  01
09BBC:  MOVLB  3
09BBE:  SUBWF  x45,W
09BC0:  MULLW  0A
09BC2:  MOVF   FF3,W
09BC4:  MOVLB  4
09BC6:  CLRF   x48
09BC8:  MOVWF  x47
09BCA:  MOVLW  05
09BCC:  ADDWF  x47,W
09BCE:  MOVWF  01
09BD0:  MOVLW  00
09BD2:  ADDWFC x48,W
09BD4:  MOVWF  03
09BD6:  MOVF   01,W
09BD8:  ADDLW  1F
09BDA:  MOVWF  FE9
09BDC:  MOVLW  04
09BDE:  ADDWFC 03,W
09BE0:  MOVWF  FEA
09BE2:  MOVFF  C7,449
09BE6:  MOVLW  0A
09BE8:  MOVWF  x4A
09BEA:  MOVLB  0
09BEC:  CALL   2E72
09BF0:  MOVF   01,W
09BF2:  ADDWF  xC6,W
09BF4:  MOVWF  FEF
....................                write_eeprom(104+((CicloLibre-1)*8),Tsecadop[2]+(Tsecadop[3]*10)); 
09BF6:  MOVLW  01
09BF8:  MOVLB  3
09BFA:  SUBWF  x45,W
09BFC:  MULLW  08
09BFE:  MOVF   FF3,W
09C00:  ADDLW  68
09C02:  MOVLB  4
09C04:  MOVWF  x47
09C06:  MOVFF  C9,449
09C0A:  MOVLW  0A
09C0C:  MOVWF  x4A
09C0E:  MOVLB  0
09C10:  CALL   2E72
09C14:  MOVF   01,W
09C16:  ADDWF  xC8,W
09C18:  MOVLB  4
09C1A:  MOVWF  x48
09C1C:  CLRF   FAA
09C1E:  MOVFF  447,FA9
09C22:  MOVFF  448,FA8
09C26:  BCF    FA6.6
09C28:  BCF    FA6.7
09C2A:  BSF    FA6.2
09C2C:  MOVF   FF2,W
09C2E:  MOVWF  00
09C30:  BCF    FF2.6
09C32:  BCF    FF2.7
09C34:  MOVLB  F
09C36:  MOVLW  55
09C38:  MOVWF  FA7
09C3A:  MOVLW  AA
09C3C:  MOVWF  FA7
09C3E:  BSF    FA6.1
09C40:  BTFSC  FA6.1
09C42:  BRA    9C40
09C44:  BCF    FA6.2
09C46:  MOVF   00,W
09C48:  IORWF  FF2,F
....................                delay_ms(10); 
09C4A:  MOVLW  0A
09C4C:  MOVLB  4
09C4E:  MOVWF  x5C
09C50:  MOVLB  0
09C52:  CALL   1AF4
....................                write_eeprom(105+((CicloLibre-1)*8),Tsecadop[0]+(Tsecadop[1]*10)); 
09C56:  MOVLW  01
09C58:  MOVLB  3
09C5A:  SUBWF  x45,W
09C5C:  MULLW  08
09C5E:  MOVF   FF3,W
09C60:  ADDLW  69
09C62:  MOVLB  4
09C64:  MOVWF  x47
09C66:  MOVFF  C7,449
09C6A:  MOVLW  0A
09C6C:  MOVWF  x4A
09C6E:  MOVLB  0
09C70:  CALL   2E72
09C74:  MOVF   01,W
09C76:  ADDWF  xC6,W
09C78:  MOVLB  4
09C7A:  MOVWF  x48
09C7C:  CLRF   FAA
09C7E:  MOVFF  447,FA9
09C82:  MOVFF  448,FA8
09C86:  BCF    FA6.6
09C88:  BCF    FA6.7
09C8A:  BSF    FA6.2
09C8C:  MOVF   FF2,W
09C8E:  MOVWF  00
09C90:  BCF    FF2.6
09C92:  BCF    FF2.7
09C94:  MOVLB  F
09C96:  MOVLW  55
09C98:  MOVWF  FA7
09C9A:  MOVLW  AA
09C9C:  MOVWF  FA7
09C9E:  BSF    FA6.1
09CA0:  BTFSC  FA6.1
09CA2:  BRA    9CA0
09CA4:  BCF    FA6.2
09CA6:  MOVF   00,W
09CA8:  IORWF  FF2,F
....................                delay_ms(10); 
09CAA:  MOVLW  0A
09CAC:  MOVLB  4
09CAE:  MOVWF  x5C
09CB0:  MOVLB  0
09CB2:  CALL   1AF4
....................                Tsecado[0]=Tsecadop[0]; 
09CB6:  MOVFF  C6,C2
....................                Tsecado[1]=Tsecadop[1]; 
09CBA:  MOVFF  C7,C3
....................                Tsecado[2]=Tsecadop[2]; 
09CBE:  MOVFF  C8,C4
....................                Tsecado[3]=Tsecadop[3]; 
09CC2:  MOVFF  C9,C5
....................                GuardaEEPROM=ON; 
09CC6:  BSF    xA2.6
....................             } 
....................          } 
....................           
....................          if(RIGHT){ 
09CC8:  BSF    F93.1
09CCA:  BTFSC  F81.1
09CCC:  BRA    9D42
....................             delay_ms(100); 
09CCE:  MOVLW  64
09CD0:  MOVLB  4
09CD2:  MOVWF  x5C
09CD4:  MOVLB  0
09CD6:  CALL   1AF4
....................             if(RIGHT){ 
09CDA:  BSF    F93.1
09CDC:  BTFSC  F81.1
09CDE:  BRA    9D42
....................                if(!Segundos){ 
09CE0:  BTFSC  xA2.5
09CE2:  BRA    9D12
....................                   Segundos=ON; 
09CE4:  BSF    xA2.5
....................                   Minutos=OFF; 
09CE6:  BCF    xA2.4
....................                   printf("tminsec.pco=0"); 
09CE8:  MOVLW  8A
09CEA:  MOVWF  FF6
09CEC:  MOVLW  0C
09CEE:  MOVWF  FF7
09CF0:  MOVLW  00
09CF2:  MOVWF  FF8
09CF4:  CALL   39B8
....................                   SendDataDisplay();                    
09CF8:  CALL   39EA
....................                   printf("tsecsec.pco=65535"); 
09CFC:  MOVLW  98
09CFE:  MOVWF  FF6
09D00:  MOVLW  0C
09D02:  MOVWF  FF7
09D04:  MOVLW  00
09D06:  MOVWF  FF8
09D08:  CALL   39B8
....................                   SendDataDisplay();   
09D0C:  CALL   39EA
....................                }else if(!Minutos){ 
09D10:  BRA    9D42
09D12:  BTFSC  xA2.4
09D14:  BRA    9D42
....................                   Segundos=OFF; 
09D16:  BCF    xA2.5
....................                   Minutos=ON; 
09D18:  BSF    xA2.4
....................                   printf("tminsec.pco=65535"); 
09D1A:  MOVLW  AA
09D1C:  MOVWF  FF6
09D1E:  MOVLW  0C
09D20:  MOVWF  FF7
09D22:  MOVLW  00
09D24:  MOVWF  FF8
09D26:  CALL   39B8
....................                   SendDataDisplay();   
09D2A:  CALL   39EA
....................                   printf("tsecsec.pco=0"); 
09D2E:  MOVLW  BC
09D30:  MOVWF  FF6
09D32:  MOVLW  0C
09D34:  MOVWF  FF7
09D36:  MOVLW  00
09D38:  MOVWF  FF8
09D3A:  CALL   39B8
....................                   SendDataDisplay();   
09D3E:  CALL   39EA
....................                } 
....................             } 
....................          } 
....................           
....................          if(UP){ 
09D42:  BSF    F93.3
09D44:  BTFSC  F81.3
09D46:  BRA    9D82
....................             delay_ms(100); 
09D48:  MOVLW  64
09D4A:  MOVLB  4
09D4C:  MOVWF  x5C
09D4E:  MOVLB  0
09D50:  CALL   1AF4
....................             if(UP){ 
09D54:  BSF    F93.3
09D56:  BTFSC  F81.3
09D58:  BRA    9D82
....................                if(Segundos){ 
09D5A:  BTFSS  xA2.5
09D5C:  BRA    9D6E
....................                   Tsecadop[0]++; 
09D5E:  INCF   xC6,F
....................                   if(Tsecadop[0]>9){ 
09D60:  BTFSC  xC6.7
09D62:  BRA    9D6E
09D64:  MOVF   xC6,W
09D66:  SUBLW  09
09D68:  BC    9D6E
....................                      Tsecadop[1]++; 
09D6A:  INCF   xC7,F
....................                      Tsecadop[0]=0; 
09D6C:  CLRF   xC6
....................                   } 
....................                } 
....................                if(Minutos){ 
09D6E:  BTFSS  xA2.4
09D70:  BRA    9D82
....................                   Tsecado[2]++; 
09D72:  INCF   xC4,F
....................                   if(Tsecadop[2]>9){ 
09D74:  BTFSC  xC8.7
09D76:  BRA    9D82
09D78:  MOVF   xC8,W
09D7A:  SUBLW  09
09D7C:  BC    9D82
....................                      Tsecadop[3]++; 
09D7E:  INCF   xC9,F
....................                      Tsecadop[2]=0; 
09D80:  CLRF   xC8
....................                   } 
....................                }   
....................             } 
....................          } 
....................           
....................          if(DOWN){ 
09D82:  BSF    F93.2
09D84:  BTFSC  F81.2
09D86:  BRA    9DCC
....................             delay_ms(100); 
09D88:  MOVLW  64
09D8A:  MOVLB  4
09D8C:  MOVWF  x5C
09D8E:  MOVLB  0
09D90:  CALL   1AF4
....................             if(DOWN){ 
09D94:  BSF    F93.2
09D96:  BTFSC  F81.2
09D98:  BRA    9DCC
....................                if(Segundos){ 
09D9A:  BTFSS  xA2.5
09D9C:  BRA    9DBA
....................                   Tsecadop[0]--; 
09D9E:  DECF   xC6,F
....................                   if(Tsecadop[0]<0){ 
09DA0:  BTFSC  xC6.7
09DA2:  BRA    9DA6
09DA4:  BRA    9DAC
....................                      Tsecadop[1]--; 
09DA6:  DECF   xC7,F
....................                      Tsecadop[0]=9; 
09DA8:  MOVLW  09
09DAA:  MOVWF  xC6
....................                   } 
....................                   if(Tsecadop[1]<0){ 
09DAC:  BTFSC  xC7.7
09DAE:  BRA    9DB2
09DB0:  BRA    9DBA
....................                      Tsecadop[1]=5; 
09DB2:  MOVLW  05
09DB4:  MOVWF  xC7
....................                      Tsecadop[0]=9; 
09DB6:  MOVLW  09
09DB8:  MOVWF  xC6
....................                   } 
....................                } 
....................                if(Minutos){ 
09DBA:  BTFSS  xA2.4
09DBC:  BRA    9DCC
....................                   Tsecadop[2]--; 
09DBE:  DECF   xC8,F
....................                   if(Tsecadop[2]<0){ 
09DC0:  BTFSC  xC8.7
09DC2:  BRA    9DC6
09DC4:  BRA    9DCC
....................                      Tsecadop[3]--; 
09DC6:  DECF   xC9,F
....................                      Tsecadop[2]=9; 
09DC8:  MOVLW  09
09DCA:  MOVWF  xC8
....................                   } 
....................                }   
....................             } 
....................          } 
....................           
....................          if(RX_Buffer[4]==0x0c || RX_Buffer[4]==0x0d){//Tecla Derecha Oprimida 
09DCC:  MOVF   34,W
09DCE:  SUBLW  0C
09DD0:  BZ    9DD8
09DD2:  MOVF   34,W
09DD4:  SUBLW  0D
09DD6:  BNZ   9E04
....................             if(Segundos){ 
09DD8:  BTFSS  xA2.5
09DDA:  BRA    9DEC
....................                Tsecadop[0]++; 
09DDC:  INCF   xC6,F
....................                if(Tsecadop[0]>9){ 
09DDE:  BTFSC  xC6.7
09DE0:  BRA    9DEC
09DE2:  MOVF   xC6,W
09DE4:  SUBLW  09
09DE6:  BC    9DEC
....................                   Tsecadop[1]++; 
09DE8:  INCF   xC7,F
....................                   Tsecadop[0]=0; 
09DEA:  CLRF   xC6
....................                } 
....................             } 
....................             if(Minutos){ 
09DEC:  BTFSS  xA2.4
09DEE:  BRA    9E00
....................                Tsecadop[2]++; 
09DF0:  INCF   xC8,F
....................                if(Tsecadop[2]>9){ 
09DF2:  BTFSC  xC8.7
09DF4:  BRA    9E00
09DF6:  MOVF   xC8,W
09DF8:  SUBLW  09
09DFA:  BC    9E00
....................                   Tsecadop[3]++; 
09DFC:  INCF   xC9,F
....................                   Tsecadop[2]=0; 
09DFE:  CLRF   xC8
....................                } 
....................             } 
....................             RX_Buffer[4]=0x00;   
09E00:  CLRF   34
....................             RX_Buffer2[4]=0x00;  
09E02:  CLRF   3F
....................          } 
....................           
....................          if(RX_Buffer[4]==0x0f || RX_Buffer[4]==0x0e){//Tecla Izquierda Oprimida 
09E04:  MOVF   34,W
09E06:  SUBLW  0F
09E08:  BZ    9E10
09E0A:  MOVF   34,W
09E0C:  SUBLW  0E
09E0E:  BNZ   9E46
....................             if(Segundos){ 
09E10:  BTFSS  xA2.5
09E12:  BRA    9E30
....................                Tsecadop[0]--; 
09E14:  DECF   xC6,F
....................                if(Tsecadop[0]<0){ 
09E16:  BTFSC  xC6.7
09E18:  BRA    9E1C
09E1A:  BRA    9E22
....................                   Tsecadop[1]--; 
09E1C:  DECF   xC7,F
....................                   Tsecadop[0]=9; 
09E1E:  MOVLW  09
09E20:  MOVWF  xC6
....................                } 
....................                if(Tsecadop[1]<0){ 
09E22:  BTFSC  xC7.7
09E24:  BRA    9E28
09E26:  BRA    9E30
....................                   Tsecadop[1]=5; 
09E28:  MOVLW  05
09E2A:  MOVWF  xC7
....................                   Tsecadop[0]=9; 
09E2C:  MOVLW  09
09E2E:  MOVWF  xC6
....................                } 
....................             } 
....................             if(Minutos){ 
09E30:  BTFSS  xA2.4
09E32:  BRA    9E42
....................                Tsecadop[2]--; 
09E34:  DECF   xC8,F
....................                if(Tsecadop[2]<0){ 
09E36:  BTFSC  xC8.7
09E38:  BRA    9E3C
09E3A:  BRA    9E42
....................                   Tsecadop[3]--; 
09E3C:  DECF   xC9,F
....................                   Tsecadop[2]=9; 
09E3E:  MOVLW  09
09E40:  MOVWF  xC8
....................                } 
....................             } 
....................             RX_Buffer[4]=0x00;   
09E42:  CLRF   34
....................             RX_Buffer2[4]=0x00;             
09E44:  CLRF   3F
....................          } 
....................        
....................          if(Tsecadop[0]<0) 
09E46:  BTFSC  xC6.7
09E48:  BRA    9E4C
09E4A:  BRA    9E50
....................             Tsecadop[0]=9;             
09E4C:  MOVLW  09
09E4E:  MOVWF  xC6
....................          if(Tsecadop[1]<0) 
09E50:  BTFSC  xC7.7
09E52:  BRA    9E56
09E54:  BRA    9E5A
....................             Tsecadop[1]=5;             
09E56:  MOVLW  05
09E58:  MOVWF  xC7
....................          if(Tsecadop[2]<0) 
09E5A:  BTFSC  xC8.7
09E5C:  BRA    9E60
09E5E:  BRA    9E64
....................             Tsecadop[2]=9;             
09E60:  MOVLW  09
09E62:  MOVWF  xC8
....................          if(Tsecadop[3]<0) 
09E64:  BTFSC  xC9.7
09E66:  BRA    9E6A
09E68:  BRA    9E6E
....................             Tsecadop[3]=9;             
09E6A:  MOVLW  09
09E6C:  MOVWF  xC9
....................           
....................          if(Tsecadop[0]>9) 
09E6E:  BTFSC  xC6.7
09E70:  BRA    9E7A
09E72:  MOVF   xC6,W
09E74:  SUBLW  09
09E76:  BC    9E7A
....................             Tsecadop[0]=0;             
09E78:  CLRF   xC6
....................          if(Tsecadop[1]>5) 
09E7A:  BTFSC  xC7.7
09E7C:  BRA    9E86
09E7E:  MOVF   xC7,W
09E80:  SUBLW  05
09E82:  BC    9E86
....................             Tsecadop[1]=0;             
09E84:  CLRF   xC7
....................          if(Tsecadop[2]>9) 
09E86:  BTFSC  xC8.7
09E88:  BRA    9E92
09E8A:  MOVF   xC8,W
09E8C:  SUBLW  09
09E8E:  BC    9E92
....................             Tsecadop[2]=0;             
09E90:  CLRF   xC8
....................          if(Tsecadop[3]>9) 
09E92:  BTFSC  xC9.7
09E94:  BRA    9E9E
09E96:  MOVF   xC9,W
09E98:  SUBLW  09
09E9A:  BC    9E9E
....................             Tsecadop[3]=0; 
09E9C:  CLRF   xC9
....................              
....................       printf("tminsec.txt=\"%02u\"",((Tsecadop[3]*10)+Tsecadop[2])); 
09E9E:  MOVFF  C9,449
09EA2:  MOVLW  0A
09EA4:  MOVLB  4
09EA6:  MOVWF  x4A
09EA8:  MOVLB  0
09EAA:  CALL   2E72
09EAE:  MOVF   xC8,W
09EB0:  ADDWF  01,W
09EB2:  MOVLB  4
09EB4:  MOVWF  x47
09EB6:  MOVLW  CA
09EB8:  MOVWF  FF6
09EBA:  MOVLW  0C
09EBC:  MOVWF  FF7
09EBE:  MOVLW  00
09EC0:  MOVWF  FF8
09EC2:  MOVLW  0D
09EC4:  MOVWF  x4C
09EC6:  MOVLB  0
09EC8:  CALL   49A2
09ECC:  MOVFF  447,44C
09ED0:  MOVLW  01
09ED2:  MOVLB  4
09ED4:  MOVWF  x4D
09ED6:  MOVLB  0
09ED8:  CALL   4A00
09EDC:  MOVLW  22
09EDE:  BTFSS  F9E.4
09EE0:  BRA    9EDE
09EE2:  MOVWF  FAD
....................       SendDataDisplay(); 
09EE4:  CALL   39EA
....................       printf("tsecsec.txt=\"%02u\"",((Tsecadop[1]*10)+Tsecadop[0])); 
09EE8:  MOVFF  C7,449
09EEC:  MOVLW  0A
09EEE:  MOVLB  4
09EF0:  MOVWF  x4A
09EF2:  MOVLB  0
09EF4:  CALL   2E72
09EF8:  MOVF   xC6,W
09EFA:  ADDWF  01,W
09EFC:  MOVLB  4
09EFE:  MOVWF  x47
09F00:  MOVLW  DE
09F02:  MOVWF  FF6
09F04:  MOVLW  0C
09F06:  MOVWF  FF7
09F08:  MOVLW  00
09F0A:  MOVWF  FF8
09F0C:  MOVLW  0D
09F0E:  MOVWF  x4C
09F10:  MOVLB  0
09F12:  CALL   49A2
09F16:  MOVFF  447,44C
09F1A:  MOVLW  01
09F1C:  MOVLB  4
09F1E:  MOVWF  x4D
09F20:  MOVLB  0
09F22:  CALL   4A00
09F26:  MOVLW  22
09F28:  BTFSS  F9E.4
09F2A:  BRA    9F28
09F2C:  MOVWF  FAD
....................       SendDataDisplay(); 
09F2E:  CALL   39EA
09F32:  MOVLB  3
....................     } 
.................... //_--------------------------------------------------------------------------------------------------------------------------------------------------------        
....................  
.................... //_-------------------------------------------------------------------------------------------------------------------------------------------------------- 
....................     if(Menu==4){ //Menu de Temperatura 
09F34:  MOVF   x65,W
09F36:  SUBLW  04
09F38:  BTFSS  FD8.2
09F3A:  BRA    A08E
....................       //printf("fecha.txt=\"Fecha:%02u/%02u/20%02u    Hora: %02u:%02u\"",Dia,Mes,Year,Hora,Minuto); 
....................       //SendDataDisplay(); 
....................       revisePresion(); 
09F3C:  MOVLB  0
09F3E:  CALL   4E72
....................          if(Setpoint<Tmin) 
09F42:  MOVLB  3
09F44:  MOVF   x6C,W
09F46:  SUBLW  68
09F48:  BNC   9F4E
....................             Setpoint=Tmax; 
09F4A:  MOVLW  86
09F4C:  MOVWF  x6C
....................          if(Setpoint>Tmax) 
09F4E:  MOVF   x6C,W
09F50:  SUBLW  86
09F52:  BC    9F58
....................             Setpoint=Tmin; 
09F54:  MOVLW  69
09F56:  MOVWF  x6C
....................           
....................          if(RX_Buffer[4]==0x11 || LEFT){//Selecciono Regresar 
09F58:  MOVF   34,W
09F5A:  SUBLW  11
09F5C:  BZ    9F64
09F5E:  BSF    F93.0
09F60:  BTFSC  F81.0
09F62:  BRA    9FFC
....................             Segundos=OFF; 
09F64:  MOVLB  0
09F66:  BCF    xA2.5
....................             Minutos=OFF; 
09F68:  BCF    xA2.4
....................             printf("page CicloPersona"); 
09F6A:  MOVLW  F2
09F6C:  MOVWF  FF6
09F6E:  MOVLW  0C
09F70:  MOVWF  FF7
09F72:  MOVLW  00
09F74:  MOVWF  FF8
09F76:  CALL   39B8
....................             SendDataDisplay();   
09F7A:  CALL   39EA
....................             PantallaPrincipal=1; 
09F7E:  MOVLW  01
09F80:  MOVLB  2
09F82:  MOVWF  xE4
....................             Op=OFF; 
09F84:  MOVLB  0
09F86:  BCF    xA2.2
....................             Op2=OFF; 
09F88:  BCF    xA2.3
....................             if(!GuardaEEPROM){ 
09F8A:  BTFSC  xA2.6
09F8C:  BRA    9FFA
....................                CiclosPersonalizados[CicloLibre-1].Temperatura=Setpoint; 
09F8E:  MOVLW  01
09F90:  MOVLB  3
09F92:  SUBWF  x45,W
09F94:  MULLW  0A
09F96:  MOVF   FF3,W
09F98:  MOVLB  4
09F9A:  CLRF   x48
09F9C:  MOVWF  x47
09F9E:  MOVLW  1F
09FA0:  ADDWF  x47,W
09FA2:  MOVWF  FE9
09FA4:  MOVLW  04
09FA6:  ADDWFC x48,W
09FA8:  MOVWF  FEA
09FAA:  MOVFF  36C,FEF
....................                write_eeprom(100+((CicloLibre-1)*8),Setpoint); 
09FAE:  MOVLW  01
09FB0:  MOVLB  3
09FB2:  SUBWF  x45,W
09FB4:  MULLW  08
09FB6:  MOVF   FF3,W
09FB8:  ADDLW  64
09FBA:  MOVLB  4
09FBC:  MOVWF  x47
09FBE:  CLRF   FAA
09FC0:  MOVFF  447,FA9
09FC4:  MOVFF  36C,FA8
09FC8:  BCF    FA6.6
09FCA:  BCF    FA6.7
09FCC:  BSF    FA6.2
09FCE:  MOVF   FF2,W
09FD0:  MOVWF  00
09FD2:  BCF    FF2.6
09FD4:  BCF    FF2.7
09FD6:  MOVLB  F
09FD8:  MOVLW  55
09FDA:  MOVWF  FA7
09FDC:  MOVLW  AA
09FDE:  MOVWF  FA7
09FE0:  BSF    FA6.1
09FE2:  BTFSC  FA6.1
09FE4:  BRA    9FE2
09FE6:  BCF    FA6.2
09FE8:  MOVF   00,W
09FEA:  IORWF  FF2,F
....................                delay_ms(10); 
09FEC:  MOVLW  0A
09FEE:  MOVLB  4
09FF0:  MOVWF  x5C
09FF2:  MOVLB  0
09FF4:  CALL   1AF4
....................                GuardaEEPROM=ON; 
09FF8:  BSF    xA2.6
09FFA:  MOVLB  3
....................             } 
....................          } 
....................           
....................          if(UP){ 
09FFC:  BSF    F93.3
09FFE:  BTFSC  F81.3
0A000:  BRA    A018
....................             delay_ms(100); 
0A002:  MOVLW  64
0A004:  MOVLB  4
0A006:  MOVWF  x5C
0A008:  MOVLB  0
0A00A:  CALL   1AF4
....................             if(UP){ 
0A00E:  BSF    F93.3
0A010:  BTFSC  F81.3
0A012:  BRA    A01A
....................                Setpoint++; 
0A014:  MOVLB  3
0A016:  INCF   x6C,F
0A018:  MOVLB  0
....................             } 
....................          } 
....................           
....................          if(DOWN){ 
0A01A:  BSF    F93.2
0A01C:  BTFSC  F81.2
0A01E:  BRA    A038
....................             delay_ms(100); 
0A020:  MOVLW  64
0A022:  MOVLB  4
0A024:  MOVWF  x5C
0A026:  MOVLB  0
0A028:  CALL   1AF4
....................             if(DOWN){ 
0A02C:  BSF    F93.2
0A02E:  BTFSC  F81.2
0A030:  BRA    A038
....................                Setpoint--; 
0A032:  MOVLB  3
0A034:  DECF   x6C,F
0A036:  MOVLB  0
....................             } 
....................          } 
....................           
....................          if(RX_Buffer[4]==0x0d){//Tecla Arriba Oprimida 
0A038:  MOVF   34,W
0A03A:  SUBLW  0D
0A03C:  BNZ   A048
....................             Setpoint++; 
0A03E:  MOVLB  3
0A040:  INCF   x6C,F
....................             RX_Buffer[4]=0x00;   
0A042:  CLRF   34
....................             RX_Buffer2[4]=0x00;             
0A044:  CLRF   3F
0A046:  MOVLB  0
....................             //BorraBuffer(); 
....................          } 
....................           
....................          if(RX_Buffer[4]==0x0c){//Tecla Abajo Oprimida 
0A048:  MOVF   34,W
0A04A:  SUBLW  0C
0A04C:  BNZ   A058
....................             Setpoint--; 
0A04E:  MOVLB  3
0A050:  DECF   x6C,F
....................             RX_Buffer[4]=0x00; 
0A052:  CLRF   34
....................             RX_Buffer2[4]=0x00;             
0A054:  CLRF   3F
0A056:  MOVLB  0
....................             //BorraBuffer(); 
....................          } 
....................           
....................       printf("tsettem.txt=\"%03u\"",Setpoint); 
0A058:  MOVLW  04
0A05A:  MOVWF  FF6
0A05C:  MOVLW  0D
0A05E:  MOVWF  FF7
0A060:  MOVLW  00
0A062:  MOVWF  FF8
0A064:  MOVLW  0D
0A066:  MOVLB  4
0A068:  MOVWF  x4C
0A06A:  MOVLB  0
0A06C:  CALL   49A2
0A070:  MOVFF  36C,44C
0A074:  MOVLW  03
0A076:  MOVLB  4
0A078:  MOVWF  x4D
0A07A:  MOVLB  0
0A07C:  CALL   4A00
0A080:  MOVLW  22
0A082:  BTFSS  F9E.4
0A084:  BRA    A082
0A086:  MOVWF  FAD
....................       SendDataDisplay(); 
0A088:  CALL   39EA
0A08C:  MOVLB  3
....................     } 
.................... //_--------------------------------------------------------------------------------------------------------------------------------------------------------        
....................  
.................... //_--------------------------------------------------------------------------------------------------------------------------------------------------------       
....................    if(Menu==5){//Menu de Nivel 
0A08E:  MOVF   x65,W
0A090:  SUBLW  05
0A092:  BTFSS  FD8.2
0A094:  BRA    A26A
....................       //printf("fecha.txt=\"T:%3.1fC Fecha:%02u/%02u/20%02u Hora: %02u:%02u:%02u\"",Temperatura,Dia,Mes,Year,Hora,Minuto,Segundo); 
....................       //SendDataDisplay(); 
....................       revisePresion(); 
0A096:  MOVLB  0
0A098:  CALL   4E72
....................          if(Nivel<1) 
0A09C:  MOVLB  3
0A09E:  MOVF   x7B,F
0A0A0:  BNZ   A0AC
0A0A2:  MOVF   x7C,F
0A0A4:  BNZ   A0AC
....................             Nivel=6; 
0A0A6:  CLRF   x7C
0A0A8:  MOVLW  06
0A0AA:  MOVWF  x7B
....................          if(Nivel>6) 
0A0AC:  MOVF   x7C,F
0A0AE:  BNZ   A0B6
0A0B0:  MOVF   x7B,W
0A0B2:  SUBLW  06
0A0B4:  BC    A0BC
....................             Nivel=1; 
0A0B6:  CLRF   x7C
0A0B8:  MOVLW  01
0A0BA:  MOVWF  x7B
....................           
....................          if(RX_Buffer[4]==0x11 || LEFT){//Selecciono Regresar 
0A0BC:  MOVF   34,W
0A0BE:  SUBLW  11
0A0C0:  BZ    A0C8
0A0C2:  BSF    F93.0
0A0C4:  BTFSC  F81.0
0A0C6:  BRA    A1C4
....................             Segundos=OFF; 
0A0C8:  MOVLB  0
0A0CA:  BCF    xA2.5
....................             Minutos=OFF;             
0A0CC:  BCF    xA2.4
....................             tiempo_secado=0; 
0A0CE:  MOVLB  3
0A0D0:  CLRF   x70
....................              
....................             if(!GuardaEEPROM){     
0A0D2:  MOVLB  0
0A0D4:  BTFSC  xA2.6
0A0D6:  BRA    A170
....................                CiclosPersonalizados[CicloLibre-1].NivelDesfogue=Nivel; 
0A0D8:  MOVLW  01
0A0DA:  MOVLB  3
0A0DC:  SUBWF  x45,W
0A0DE:  MULLW  0A
0A0E0:  MOVF   FF3,W
0A0E2:  MOVLB  4
0A0E4:  CLRF   x48
0A0E6:  MOVWF  x47
0A0E8:  MOVLW  08
0A0EA:  ADDWF  x47,W
0A0EC:  MOVWF  01
0A0EE:  MOVLW  00
0A0F0:  ADDWFC x48,W
0A0F2:  MOVWF  03
0A0F4:  MOVF   01,W
0A0F6:  ADDLW  1F
0A0F8:  MOVWF  FE9
0A0FA:  MOVLW  04
0A0FC:  ADDWFC 03,W
0A0FE:  MOVWF  FEA
0A100:  MOVFF  37B,FEF
....................                write_eeprom(107+((CicloLibre-1)*8),Nivel); 
0A104:  MOVLW  01
0A106:  MOVLB  3
0A108:  SUBWF  x45,W
0A10A:  MULLW  08
0A10C:  MOVF   FF3,W
0A10E:  ADDLW  6B
0A110:  MOVLB  4
0A112:  MOVWF  x47
0A114:  CLRF   FAA
0A116:  MOVFF  447,FA9
0A11A:  MOVFF  37B,FA8
0A11E:  BCF    FA6.6
0A120:  BCF    FA6.7
0A122:  BSF    FA6.2
0A124:  MOVF   FF2,W
0A126:  MOVWF  00
0A128:  BCF    FF2.6
0A12A:  BCF    FF2.7
0A12C:  MOVLB  F
0A12E:  MOVLW  55
0A130:  MOVWF  FA7
0A132:  MOVLW  AA
0A134:  MOVWF  FA7
0A136:  BSF    FA6.1
0A138:  BTFSC  FA6.1
0A13A:  BRA    A138
0A13C:  BCF    FA6.2
0A13E:  MOVF   00,W
0A140:  IORWF  FF2,F
....................                delay_ms(20);             
0A142:  MOVLW  14
0A144:  MOVLB  4
0A146:  MOVWF  x5C
0A148:  MOVLB  0
0A14A:  CALL   1AF4
....................                NivelSeleccionado=4995*Nivel; 
0A14E:  MOVLW  13
0A150:  MOVLB  4
0A152:  MOVWF  x51
0A154:  MOVLW  83
0A156:  MOVWF  x50
0A158:  MOVFF  37C,453
0A15C:  MOVFF  37B,452
0A160:  MOVLB  0
0A162:  CALL   3A9A
0A166:  MOVFF  02,386
0A16A:  MOVFF  01,385
....................                GuardaEEPROM=ON; 
0A16E:  BSF    xA2.6
....................             } 
....................              
....................             if(Nivel<6) 
0A170:  MOVLB  3
0A172:  MOVF   x7C,F
0A174:  BNZ   A182
0A176:  MOVF   x7B,W
0A178:  SUBLW  05
0A17A:  BNC   A182
....................                desfoguelento=1; 
0A17C:  MOVLB  0
0A17E:  BSF    xA5.1
....................             else             
0A180:  BRA    A186
....................                desfoguelento=0; 
0A182:  MOVLB  0
0A184:  BCF    xA5.1
....................  
....................             if(MenuAnt==1){ 
0A186:  MOVLB  3
0A188:  DECFSZ x66,W
0A18A:  BRA    A1A6
....................                //Buzzer_on; 
....................                printf("page CicloPersona"); 
0A18C:  MOVLW  18
0A18E:  MOVWF  FF6
0A190:  MOVLW  0D
0A192:  MOVWF  FF7
0A194:  MOVLW  00
0A196:  MOVWF  FF8
0A198:  MOVLB  0
0A19A:  CALL   39B8
....................                SendDataDisplay();  
0A19E:  CALL   39EA
....................                //PantallaPrincipal=1; 
....................             }else if(MenuAnt==2){ 
0A1A2:  BRA    A1C2
0A1A4:  MOVLB  3
0A1A6:  MOVF   x66,W
0A1A8:  SUBLW  02
0A1AA:  BNZ   A1C4
....................                printf("page Funcionamiento"); 
0A1AC:  MOVLW  2A
0A1AE:  MOVWF  FF6
0A1B0:  MOVLW  0D
0A1B2:  MOVWF  FF7
0A1B4:  MOVLW  00
0A1B6:  MOVWF  FF8
0A1B8:  MOVLB  0
0A1BA:  CALL   39B8
....................                SendDataDisplay();  
0A1BE:  CALL   39EA
0A1C2:  MOVLB  3
....................                //if(Temperatura>60)TTrampa=TTrampa+5; 
....................             } 
....................          } 
....................           
....................          if(UP){ 
0A1C4:  BSF    F93.3
0A1C6:  BTFSC  F81.3
0A1C8:  BRA    A1E4
....................             delay_ms(100); 
0A1CA:  MOVLW  64
0A1CC:  MOVLB  4
0A1CE:  MOVWF  x5C
0A1D0:  MOVLB  0
0A1D2:  CALL   1AF4
....................             if(UP){ 
0A1D6:  BSF    F93.3
0A1D8:  BTFSC  F81.3
0A1DA:  BRA    A1E6
....................                Nivel++; 
0A1DC:  MOVLB  3
0A1DE:  INCF   x7B,F
0A1E0:  BTFSC  FD8.2
0A1E2:  INCF   x7C,F
0A1E4:  MOVLB  0
....................             } 
....................          } 
....................           
....................          if(DOWN){ 
0A1E6:  BSF    F93.2
0A1E8:  BTFSC  F81.2
0A1EA:  BRA    A20A
....................             delay_ms(100); 
0A1EC:  MOVLW  64
0A1EE:  MOVLB  4
0A1F0:  MOVWF  x5C
0A1F2:  MOVLB  0
0A1F4:  CALL   1AF4
....................             if(DOWN){ 
0A1F8:  BSF    F93.2
0A1FA:  BTFSC  F81.2
0A1FC:  BRA    A20A
....................                Nivel--; 
0A1FE:  MOVLB  3
0A200:  MOVF   x7B,W
0A202:  BTFSC  FD8.2
0A204:  DECF   x7C,F
0A206:  DECF   x7B,F
0A208:  MOVLB  0
....................             } 
....................          } 
....................           
....................          if(RX_Buffer[4]==0x0d){//Tecla Arriba Oprimida 
0A20A:  MOVF   34,W
0A20C:  SUBLW  0D
0A20E:  BNZ   A21E
....................             Nivel++; 
0A210:  MOVLB  3
0A212:  INCF   x7B,F
0A214:  BTFSC  FD8.2
0A216:  INCF   x7C,F
....................             RX_Buffer[4]=0x00;             
0A218:  CLRF   34
....................             RX_Buffer2[4]=0x00;             
0A21A:  CLRF   3F
0A21C:  MOVLB  0
....................             //BorraBuffer(); 
....................          } 
....................           
....................          if(RX_Buffer[4]==0x0c){//Tecla Abajo Oprimida 
0A21E:  MOVF   34,W
0A220:  SUBLW  0C
0A222:  BNZ   A234
....................             Nivel--; 
0A224:  MOVLB  3
0A226:  MOVF   x7B,W
0A228:  BTFSC  FD8.2
0A22A:  DECF   x7C,F
0A22C:  DECF   x7B,F
....................             RX_Buffer[4]=0x00; 
0A22E:  CLRF   34
....................             RX_Buffer2[4]=0x00;             
0A230:  CLRF   3F
0A232:  MOVLB  0
....................             //BorraBuffer(); 
....................          } 
....................           
....................       printf("tnivel.txt=\"%Lu\"",Nivel); 
0A234:  MOVLW  3E
0A236:  MOVWF  FF6
0A238:  MOVLW  0D
0A23A:  MOVWF  FF7
0A23C:  MOVLW  00
0A23E:  MOVWF  FF8
0A240:  MOVLW  0C
0A242:  MOVLB  4
0A244:  MOVWF  x4C
0A246:  MOVLB  0
0A248:  CALL   49A2
0A24C:  MOVLW  10
0A24E:  MOVWF  FE9
0A250:  MOVFF  37C,44C
0A254:  MOVFF  37B,44B
0A258:  CALL   4B60
0A25C:  MOVLW  22
0A25E:  BTFSS  F9E.4
0A260:  BRA    A25E
0A262:  MOVWF  FAD
....................       SendDataDisplay(); 
0A264:  CALL   39EA
0A268:  MOVLB  3
....................    } 
.................... //_--------------------------------------------------------------------------------------------------------------------------------------------------------       
....................  
.................... //_--------------------------------------------------------------------------------------------------------------------------------------------------------       
....................       if(Menu==6){ // Menu de Prueba de Componentes 
0A26A:  MOVF   x65,W
0A26C:  SUBLW  06
0A26E:  BTFSS  FD8.2
0A270:  GOTO   AA16
....................          PruebaEstados=ON; 
0A274:  MOVLB  0
0A276:  BSF    xA1.3
....................           
....................          if(RX_Buffer[4]==0x02)//Oprimio EV Desfogue 
0A278:  MOVF   34,W
0A27A:  SUBLW  02
0A27C:  BNZ   A284
....................          { 
....................             EstadoDesfogue=!EstadoDesfogue; 
0A27E:  BTG    xA1.0
....................             RX_Buffer[4]=0x00; 
0A280:  CLRF   34
....................             RX_Buffer2[4]=0x00; 
0A282:  CLRF   3F
....................          } 
....................          printf("b1.txt=\"EV Desfogue\""); 
0A284:  MOVLW  50
0A286:  MOVWF  FF6
0A288:  MOVLW  0D
0A28A:  MOVWF  FF7
0A28C:  MOVLW  00
0A28E:  MOVWF  FF8
0A290:  CALL   39B8
....................          SendDataDisplay(); 
0A294:  CALL   39EA
....................           
....................          if(EstadoDesfogue){ 
0A298:  BTFSS  xA1.0
0A29A:  BRA    A2B6
....................             printf("b1.bco=2016"); 
0A29C:  MOVLW  66
0A29E:  MOVWF  FF6
0A2A0:  MOVLW  0D
0A2A2:  MOVWF  FF7
0A2A4:  MOVLW  00
0A2A6:  MOVWF  FF8
0A2A8:  CALL   39B8
....................             SendDataDisplay();  
0A2AC:  CALL   39EA
....................             Desfogue_on; 
0A2B0:  BCF    F8B.1
0A2B2:  BCF    F94.1
....................          } 
....................          else{ 
0A2B4:  BRA    A2CE
....................             printf("b1.bco=63488"); 
0A2B6:  MOVLW  72
0A2B8:  MOVWF  FF6
0A2BA:  MOVLW  0D
0A2BC:  MOVWF  FF7
0A2BE:  MOVLW  00
0A2C0:  MOVWF  FF8
0A2C2:  CALL   39B8
....................             SendDataDisplay();  
0A2C6:  CALL   39EA
....................             Desfogue_off; 
0A2CA:  BSF    F8B.1
0A2CC:  BCF    F94.1
....................          } 
....................           
....................          printf("b0.txt=\"EV Agua\""); 
0A2CE:  MOVLW  80
0A2D0:  MOVWF  FF6
0A2D2:  MOVLW  0D
0A2D4:  MOVWF  FF7
0A2D6:  MOVLW  00
0A2D8:  MOVWF  FF8
0A2DA:  CALL   39B8
....................          SendDataDisplay(); 
0A2DE:  CALL   39EA
....................           
....................          if(RX_Buffer[4]==0x01)//Oprimio EV Agua 
0A2E2:  DECFSZ 34,W
0A2E4:  BRA    A2EC
....................          { 
....................             EstadoAgua=!EstadoAgua; 
0A2E6:  BTG    xA1.1
....................             RX_Buffer[4]=0x00; 
0A2E8:  CLRF   34
....................             RX_Buffer2[4]=0x00; 
0A2EA:  CLRF   3F
....................          } 
....................           
....................          if(EstadoAgua){ 
0A2EC:  BTFSS  xA1.1
0A2EE:  BRA    A30A
....................             printf("b0.bco=2016"); 
0A2F0:  MOVLW  92
0A2F2:  MOVWF  FF6
0A2F4:  MOVLW  0D
0A2F6:  MOVWF  FF7
0A2F8:  MOVLW  00
0A2FA:  MOVWF  FF8
0A2FC:  CALL   39B8
....................             SendDataDisplay();  
0A300:  CALL   39EA
....................             Agua_on; 
0A304:  BCF    F8B.2
0A306:  BCF    F94.2
....................          } 
....................          else{ 
0A308:  BRA    A322
....................             printf("b0.bco=63488"); 
0A30A:  MOVLW  9E
0A30C:  MOVWF  FF6
0A30E:  MOVLW  0D
0A310:  MOVWF  FF7
0A312:  MOVLW  00
0A314:  MOVWF  FF8
0A316:  CALL   39B8
....................             SendDataDisplay();  
0A31A:  CALL   39EA
....................             Agua_off; 
0A31E:  BSF    F8B.2
0A320:  BCF    F94.2
....................          } 
....................           
....................          #ifdef Generador 
....................             printf("b2.txt=\"EV Paso\"");          
0A322:  MOVLW  AC
0A324:  MOVWF  FF6
0A326:  MOVLW  0D
0A328:  MOVWF  FF7
0A32A:  MOVLW  00
0A32C:  MOVWF  FF8
0A32E:  CALL   39B8
....................             SendDataDisplay(); 
0A332:  CALL   39EA
....................             printf("b16.txt=\"High\"");          
0A336:  MOVLW  BE
0A338:  MOVWF  FF6
0A33A:  MOVLW  0D
0A33C:  MOVWF  FF7
0A33E:  MOVLW  00
0A340:  MOVWF  FF8
0A342:  CALL   39B8
....................             SendDataDisplay(); 
0A346:  CALL   39EA
....................          #endif    
....................          if(RX_Buffer[4]==0x03)//Oprimio EV Paso 
0A34A:  MOVF   34,W
0A34C:  SUBLW  03
0A34E:  BNZ   A356
....................          { 
....................             EstadoPaso=!EstadoPaso; 
0A350:  BTG    xA2.7
....................             RX_Buffer[4]=0x00; 
0A352:  CLRF   34
....................             RX_Buffer2[4]=0x00; 
0A354:  CLRF   3F
....................          } 
....................           
....................          if(EstadoPaso){ 
0A356:  BTFSS  xA2.7
0A358:  BRA    A374
....................             printf("b2.bco=2016"); 
0A35A:  MOVLW  CE
0A35C:  MOVWF  FF6
0A35E:  MOVLW  0D
0A360:  MOVWF  FF7
0A362:  MOVLW  00
0A364:  MOVWF  FF8
0A366:  CALL   39B8
....................             SendDataDisplay(); 
0A36A:  CALL   39EA
....................             #ifdef Generador 
....................             Paso_on; 
0A36E:  BCF    F8B.0
0A370:  BCF    F94.0
....................             #else 
....................             Bomba_on; 
....................             #endif 
....................          } 
....................          else{ 
0A372:  BRA    A38C
....................             printf("b2.bco=63488"); 
0A374:  MOVLW  DA
0A376:  MOVWF  FF6
0A378:  MOVLW  0D
0A37A:  MOVWF  FF7
0A37C:  MOVLW  00
0A37E:  MOVWF  FF8
0A380:  CALL   39B8
....................             SendDataDisplay();  
0A384:  CALL   39EA
....................             #ifdef Generador 
....................             Paso_off; 
0A388:  BSF    F8B.0
0A38A:  BCF    F94.0
....................             #else 
....................             Bomba_off; 
....................             #endif 
....................          } 
....................          
....................           
....................          if(RX_Buffer[4]==0x05)//Oprimio Bloqueo 
0A38C:  MOVF   34,W
0A38E:  SUBLW  05
0A390:  BNZ   A398
....................          { 
....................             EstadoAire=!EstadoAire; 
0A392:  BTG    xA1.7
....................             RX_Buffer[4]=0x00; 
0A394:  CLRF   34
....................             RX_Buffer2[4]=0x00; 
0A396:  CLRF   3F
....................          } 
....................           
....................          if(EstadoAire){ 
0A398:  BTFSS  xA1.7
0A39A:  BRA    A3B4
....................             printf("b4.bco=2016"); 
0A39C:  MOVLW  E8
0A39E:  MOVWF  FF6
0A3A0:  MOVLW  0D
0A3A2:  MOVWF  FF7
0A3A4:  MOVLW  00
0A3A6:  MOVWF  FF8
0A3A8:  CALL   39B8
....................             SendDataDisplay();  
0A3AC:  CALL   39EA
....................             Aire=ON;    
0A3B0:  BSF    xA4.4
....................          }else{ 
0A3B2:  BRA    A3CA
....................             printf("b4.bco=63488"); 
0A3B4:  MOVLW  F4
0A3B6:  MOVWF  FF6
0A3B8:  MOVLW  0D
0A3BA:  MOVWF  FF7
0A3BC:  MOVLW  00
0A3BE:  MOVWF  FF8
0A3C0:  CALL   39B8
....................             SendDataDisplay();  
0A3C4:  CALL   39EA
....................             Aire=OFF; 
0A3C8:  BCF    xA4.4
....................          } 
....................           
....................           
....................          if(RX_Buffer[4]==0x04)//Oprimio SSR1 
0A3CA:  MOVF   34,W
0A3CC:  SUBLW  04
0A3CE:  BNZ   A3D6
....................          { 
....................             EstadoSSR=!EstadoSSR; 
0A3D0:  BTG    xA1.2
....................             RX_Buffer[4]=0x00; 
0A3D2:  CLRF   34
....................             RX_Buffer2[4]=0x00; 
0A3D4:  CLRF   3F
....................          } 
....................           
....................          if(EstadoSSR){ 
0A3D6:  BTFSS  xA1.2
0A3D8:  BRA    A3F8
....................             printf("b3.bco=2016"); 
0A3DA:  MOVLW  02
0A3DC:  MOVWF  FF6
0A3DE:  MOVLW  0E
0A3E0:  MOVWF  FF7
0A3E2:  MOVLW  00
0A3E4:  MOVWF  FF8
0A3E6:  CALL   39B8
....................             SendDataDisplay();  
0A3EA:  CALL   39EA
....................             SSR_on; 
0A3EE:  BSF    F8D.1
0A3F0:  BCF    F96.1
....................             SSR2_on; 
0A3F2:  BSF    F8D.2
0A3F4:  BCF    F96.2
....................          } 
....................          else{ 
0A3F6:  BRA    A414
....................             printf("b3.bco=63488"); 
0A3F8:  MOVLW  0E
0A3FA:  MOVWF  FF6
0A3FC:  MOVLW  0E
0A3FE:  MOVWF  FF7
0A400:  MOVLW  00
0A402:  MOVWF  FF8
0A404:  CALL   39B8
....................             SendDataDisplay();  
0A408:  CALL   39EA
....................             SSR_off; 
0A40C:  BCF    F8D.1
0A40E:  BCF    F96.1
....................             SSR2_off; 
0A410:  BCF    F8D.2
0A412:  BCF    F96.2
....................          } 
....................           
....................          if(DOOR){ 
0A414:  BSF    F93.6
0A416:  BTFSC  F81.6
0A418:  BRA    A430
....................             printf("b8.bco=2016"); 
0A41A:  MOVLW  1C
0A41C:  MOVWF  FF6
0A41E:  MOVLW  0E
0A420:  MOVWF  FF7
0A422:  MOVLW  00
0A424:  MOVWF  FF8
0A426:  CALL   39B8
....................             SendDataDisplay();  
0A42A:  CALL   39EA
....................          }else{ 
0A42E:  BRA    A444
....................             printf("b8.bco=63488"); 
0A430:  MOVLW  28
0A432:  MOVWF  FF6
0A434:  MOVLW  0E
0A436:  MOVWF  FF7
0A438:  MOVLW  00
0A43A:  MOVWF  FF8
0A43C:  CALL   39B8
....................             SendDataDisplay();  
0A440:  CALL   39EA
....................          } 
....................           
....................          if(TERM){ 
0A444:  BSF    F93.4
0A446:  BTFSC  F81.4
0A448:  BRA    A460
....................             printf("b9.bco=2016"); 
0A44A:  MOVLW  36
0A44C:  MOVWF  FF6
0A44E:  MOVLW  0E
0A450:  MOVWF  FF7
0A452:  MOVLW  00
0A454:  MOVWF  FF8
0A456:  CALL   39B8
....................             SendDataDisplay();  
0A45A:  CALL   39EA
....................          }else{ 
0A45E:  BRA    A474
....................             printf("b9.bco=63488"); 
0A460:  MOVLW  42
0A462:  MOVWF  FF6
0A464:  MOVLW  0E
0A466:  MOVWF  FF7
0A468:  MOVLW  00
0A46A:  MOVWF  FF8
0A46C:  CALL   39B8
....................             SendDataDisplay();  
0A470:  CALL   39EA
....................          } 
....................           
....................          if(STOP){ 
0A474:  BSF    F93.5
0A476:  BTFSC  F81.5
0A478:  BRA    A490
....................             printf("b10.bco=2016"); 
0A47A:  MOVLW  50
0A47C:  MOVWF  FF6
0A47E:  MOVLW  0E
0A480:  MOVWF  FF7
0A482:  MOVLW  00
0A484:  MOVWF  FF8
0A486:  CALL   39B8
....................             SendDataDisplay();  
0A48A:  CALL   39EA
....................          }else{ 
0A48E:  BRA    A4A4
....................             printf("b10.bco=63488"); 
0A490:  MOVLW  5E
0A492:  MOVWF  FF6
0A494:  MOVLW  0E
0A496:  MOVWF  FF7
0A498:  MOVLW  00
0A49A:  MOVWF  FF8
0A49C:  CALL   39B8
....................             SendDataDisplay();  
0A4A0:  CALL   39EA
....................          } 
....................           
....................          /*if(PRES){ 
....................             printf("b11.bco=2016"); 
....................             SendDataDisplay();  
....................          }else{ 
....................             printf("b11.bco=63488"); 
....................             SendDataDisplay();  
....................          }*/ 
....................           
....................          if(RX_Buffer[4]==0x13)//Oprimio Buzzer 
0A4A4:  MOVF   34,W
0A4A6:  SUBLW  13
0A4A8:  BNZ   A4B0
....................          { 
....................             EstadoBuzzer=!EstadoBuzzer; 
0A4AA:  BTG    xA3.0
....................             RX_Buffer[4]=0x00; 
0A4AC:  CLRF   34
....................             RX_Buffer2[4]=0x00; 
0A4AE:  CLRF   3F
....................          } 
....................           
....................          if(EstadoBuzzer){ 
0A4B0:  BTFSS  xA3.0
0A4B2:  BRA    A4CE
....................             printf("b12.bco=2016"); 
0A4B4:  MOVLW  6C
0A4B6:  MOVWF  FF6
0A4B8:  MOVLW  0E
0A4BA:  MOVWF  FF7
0A4BC:  MOVLW  00
0A4BE:  MOVWF  FF8
0A4C0:  CALL   39B8
....................             SendDataDisplay();  
0A4C4:  CALL   39EA
....................             Buzzer_on; 
0A4C8:  BSF    F8C.7
0A4CA:  BCF    F95.7
....................          } 
....................          else{ 
0A4CC:  BRA    A4E6
....................             printf("b12.bco=63488"); 
0A4CE:  MOVLW  7A
0A4D0:  MOVWF  FF6
0A4D2:  MOVLW  0E
0A4D4:  MOVWF  FF7
0A4D6:  MOVLW  00
0A4D8:  MOVWF  FF8
0A4DA:  CALL   39B8
....................             SendDataDisplay();  
0A4DE:  CALL   39EA
....................             Buzzer_off; 
0A4E2:  BCF    F8C.7
0A4E4:  BCF    F95.7
....................          } 
....................           
....................          if(HIG){ 
0A4E6:  BTFSS  xA5.5
0A4E8:  BRA    A500
....................             printf("b16.bco=2016"); 
0A4EA:  MOVLW  88
0A4EC:  MOVWF  FF6
0A4EE:  MOVLW  0E
0A4F0:  MOVWF  FF7
0A4F2:  MOVLW  00
0A4F4:  MOVWF  FF8
0A4F6:  CALL   39B8
....................             SendDataDisplay();  
0A4FA:  CALL   39EA
....................          }else{ 
0A4FE:  BRA    A514
....................             printf("b16.bco=63488"); 
0A500:  MOVLW  96
0A502:  MOVWF  FF6
0A504:  MOVLW  0E
0A506:  MOVWF  FF7
0A508:  MOVLW  00
0A50A:  MOVWF  FF8
0A50C:  CALL   39B8
....................             SendDataDisplay();  
0A510:  CALL   39EA
....................          } 
....................           
....................          if(LOW){ 
0A514:  BTFSS  xA5.4
0A516:  BRA    A52E
....................             printf("b17.bco=2016"); 
0A518:  MOVLW  A4
0A51A:  MOVWF  FF6
0A51C:  MOVLW  0E
0A51E:  MOVWF  FF7
0A520:  MOVLW  00
0A522:  MOVWF  FF8
0A524:  CALL   39B8
....................             SendDataDisplay();  
0A528:  CALL   39EA
....................          }else{ 
0A52C:  BRA    A542
....................             printf("b17.bco=63488"); 
0A52E:  MOVLW  B2
0A530:  MOVWF  FF6
0A532:  MOVLW  0E
0A534:  MOVWF  FF7
0A536:  MOVLW  00
0A538:  MOVWF  FF8
0A53A:  CALL   39B8
....................             SendDataDisplay();  
0A53E:  CALL   39EA
....................          } 
....................           
....................          printf("b13.txt=\"ADC0:%3.0f\"",sensores(0));          
0A542:  MOVLB  4
0A544:  CLRF   x50
0A546:  MOVLB  0
0A548:  CALL   3A42
0A54C:  MOVFF  00,447
0A550:  MOVFF  01,448
0A554:  MOVFF  02,449
0A558:  MOVFF  03,44A
0A55C:  MOVLW  C0
0A55E:  MOVWF  FF6
0A560:  MOVLW  0E
0A562:  MOVWF  FF7
0A564:  MOVLW  00
0A566:  MOVWF  FF8
0A568:  MOVLW  0E
0A56A:  MOVLB  4
0A56C:  MOVWF  x4C
0A56E:  MOVLB  0
0A570:  CALL   49A2
0A574:  MOVLW  02
0A576:  MOVWF  FE9
0A578:  MOVFF  44A,44F
0A57C:  MOVFF  449,44E
0A580:  MOVFF  448,44D
0A584:  MOVFF  447,44C
0A588:  MOVLB  4
0A58A:  CLRF   x50
0A58C:  MOVLB  0
0A58E:  CALL   4CCE
0A592:  MOVLW  22
0A594:  BTFSS  F9E.4
0A596:  BRA    A594
0A598:  MOVWF  FAD
....................          SendDataDisplay(); 
0A59A:  CALL   39EA
....................          printf("b14.txt=\"ADC1:%3.0f\"",sensores(1));          
0A59E:  MOVLW  01
0A5A0:  MOVLB  4
0A5A2:  MOVWF  x50
0A5A4:  MOVLB  0
0A5A6:  CALL   3A42
0A5AA:  MOVFF  00,447
0A5AE:  MOVFF  01,448
0A5B2:  MOVFF  02,449
0A5B6:  MOVFF  03,44A
0A5BA:  MOVLW  D6
0A5BC:  MOVWF  FF6
0A5BE:  MOVLW  0E
0A5C0:  MOVWF  FF7
0A5C2:  MOVLW  00
0A5C4:  MOVWF  FF8
0A5C6:  MOVLW  0E
0A5C8:  MOVLB  4
0A5CA:  MOVWF  x4C
0A5CC:  MOVLB  0
0A5CE:  CALL   49A2
0A5D2:  MOVLW  02
0A5D4:  MOVWF  FE9
0A5D6:  MOVFF  44A,44F
0A5DA:  MOVFF  449,44E
0A5DE:  MOVFF  448,44D
0A5E2:  MOVFF  447,44C
0A5E6:  MOVLB  4
0A5E8:  CLRF   x50
0A5EA:  MOVLB  0
0A5EC:  CALL   4CCE
0A5F0:  MOVLW  22
0A5F2:  BTFSS  F9E.4
0A5F4:  BRA    A5F2
0A5F6:  MOVWF  FAD
....................          SendDataDisplay(); 
0A5F8:  CALL   39EA
....................          printf("b15.txt=\"A2:%3.0f %03Lu\"",sensores(2),PresionCamara); 
0A5FC:  MOVLW  02
0A5FE:  MOVLB  4
0A600:  MOVWF  x50
0A602:  MOVLB  0
0A604:  CALL   3A42
0A608:  MOVFF  00,447
0A60C:  MOVFF  01,448
0A610:  MOVFF  02,449
0A614:  MOVFF  03,44A
0A618:  MOVLW  EC
0A61A:  MOVWF  FF6
0A61C:  MOVLW  0E
0A61E:  MOVWF  FF7
0A620:  MOVLW  00
0A622:  MOVWF  FF8
0A624:  MOVLW  0C
0A626:  MOVLB  4
0A628:  MOVWF  x4C
0A62A:  MOVLB  0
0A62C:  CALL   49A2
0A630:  MOVLW  02
0A632:  MOVWF  FE9
0A634:  MOVFF  44A,44F
0A638:  MOVFF  449,44E
0A63C:  MOVFF  448,44D
0A640:  MOVFF  447,44C
0A644:  MOVLB  4
0A646:  CLRF   x50
0A648:  MOVLB  0
0A64A:  CALL   4CCE
0A64E:  MOVLW  20
0A650:  BTFSS  F9E.4
0A652:  BRA    A650
0A654:  MOVWF  FAD
0A656:  MOVLW  0A
0A658:  MOVWF  FE9
0A65A:  MOVFF  380,44C
0A65E:  MOVFF  37F,44B
0A662:  CALL   4B60
0A666:  MOVLW  22
0A668:  BTFSS  F9E.4
0A66A:  BRA    A668
0A66C:  MOVWF  FAD
....................          SendDataDisplay(); 
0A66E:  CALL   39EA
....................          printf("b18.txt=\"A3:%3.0f %03Lu\"",sensores(3),PresionPreCamara); 
0A672:  MOVLW  03
0A674:  MOVLB  4
0A676:  MOVWF  x50
0A678:  MOVLB  0
0A67A:  CALL   3A42
0A67E:  MOVFF  00,447
0A682:  MOVFF  01,448
0A686:  MOVFF  02,449
0A68A:  MOVFF  03,44A
0A68E:  MOVLW  06
0A690:  MOVWF  FF6
0A692:  MOVLW  0F
0A694:  MOVWF  FF7
0A696:  MOVLW  00
0A698:  MOVWF  FF8
0A69A:  MOVLW  0C
0A69C:  MOVLB  4
0A69E:  MOVWF  x4C
0A6A0:  MOVLB  0
0A6A2:  CALL   49A2
0A6A6:  MOVLW  02
0A6A8:  MOVWF  FE9
0A6AA:  MOVFF  44A,44F
0A6AE:  MOVFF  449,44E
0A6B2:  MOVFF  448,44D
0A6B6:  MOVFF  447,44C
0A6BA:  MOVLB  4
0A6BC:  CLRF   x50
0A6BE:  MOVLB  0
0A6C0:  CALL   4CCE
0A6C4:  MOVLW  20
0A6C6:  BTFSS  F9E.4
0A6C8:  BRA    A6C6
0A6CA:  MOVWF  FAD
0A6CC:  MOVLW  0A
0A6CE:  MOVWF  FE9
0A6D0:  MOVFF  382,44C
0A6D4:  MOVFF  381,44B
0A6D8:  CALL   4B60
0A6DC:  MOVLW  22
0A6DE:  BTFSS  F9E.4
0A6E0:  BRA    A6DE
0A6E2:  MOVWF  FAD
....................          SendDataDisplay(); 
0A6E4:  CALL   39EA
....................          printf("b20.txt=\"T1:%3.1f\"",Temperatura); 
0A6E8:  MOVLW  20
0A6EA:  MOVWF  FF6
0A6EC:  MOVLW  0F
0A6EE:  MOVWF  FF7
0A6F0:  MOVLW  00
0A6F2:  MOVWF  FF8
0A6F4:  MOVLW  0C
0A6F6:  MOVLB  4
0A6F8:  MOVWF  x4C
0A6FA:  MOVLB  0
0A6FC:  CALL   49A2
0A700:  MOVLW  02
0A702:  MOVWF  FE9
0A704:  MOVFF  332,44F
0A708:  MOVFF  331,44E
0A70C:  MOVFF  330,44D
0A710:  MOVFF  32F,44C
0A714:  MOVLW  01
0A716:  MOVLB  4
0A718:  MOVWF  x50
0A71A:  MOVLB  0
0A71C:  CALL   4CCE
0A720:  MOVLW  22
0A722:  BTFSS  F9E.4
0A724:  BRA    A722
0A726:  MOVWF  FAD
....................          SendDataDisplay(); 
0A728:  CALL   39EA
....................           
....................          if(RX_Buffer[4]==0x21 || LEFT){//Oprimio salir 
0A72C:  MOVF   34,W
0A72E:  SUBLW  21
0A730:  BZ    A738
0A732:  BSF    F93.0
0A734:  BTFSC  F81.0
0A736:  BRA    A784
....................             delay_ms(100); 
0A738:  MOVLW  64
0A73A:  MOVLB  4
0A73C:  MOVWF  x5C
0A73E:  MOVLB  0
0A740:  CALL   1AF4
....................             if(RX_Buffer[4]==0x21 || LEFT){ 
0A744:  MOVF   34,W
0A746:  SUBLW  21
0A748:  BZ    A750
0A74A:  BSF    F93.0
0A74C:  BTFSC  F81.0
0A74E:  BRA    A784
....................                printf("page MenuPrincipal"); 
0A750:  MOVLW  34
0A752:  MOVWF  FF6
0A754:  MOVLW  0F
0A756:  MOVWF  FF7
0A758:  MOVLW  00
0A75A:  MOVWF  FF8
0A75C:  CALL   39B8
....................                SendDataDisplay(); 
0A760:  CALL   39EA
....................                PantallaPrincipal=0; 
0A764:  MOVLB  2
0A766:  CLRF   xE4
....................                PruebaEstados=OFF;Desfogue_off;Agua_off; 
0A768:  MOVLB  0
0A76A:  BCF    xA1.3
0A76C:  BSF    F8B.1
0A76E:  BCF    F94.1
0A770:  BSF    F8B.2
0A772:  BCF    F94.2
....................                #ifdef Generador 
....................                Paso_off; 
0A774:  BSF    F8B.0
0A776:  BCF    F94.0
....................                #else 
....................                Bomba_off; 
....................                #endif 
....................                SSR_off; 
0A778:  BCF    F8D.1
0A77A:  BCF    F96.1
....................                SSR2_off; 
0A77C:  BCF    F8D.2
0A77E:  BCF    F96.2
....................                ApagaSalidas(); 
0A780:  CALL   3A20
....................                // Falta apagar Todo 
....................             } 
....................          } 
....................           
....................          if(UP){ 
0A784:  BSF    F93.3
0A786:  BTFSC  F81.3
0A788:  BRA    A8CC
....................             delay_ms(100); 
0A78A:  MOVLW  64
0A78C:  MOVLB  4
0A78E:  MOVWF  x5C
0A790:  MOVLB  0
0A792:  CALL   1AF4
....................             if(UP){ 
0A796:  BSF    F93.3
0A798:  BTFSC  F81.3
0A79A:  BRA    A8CC
....................                G1=41-sensores(2); 
0A79C:  MOVLW  02
0A79E:  MOVLB  4
0A7A0:  MOVWF  x50
0A7A2:  MOVLB  0
0A7A4:  CALL   3A42
0A7A8:  MOVFF  FEA,448
0A7AC:  MOVFF  FE9,447
0A7B0:  BSF    FD8.1
0A7B2:  MOVLB  4
0A7B4:  CLRF   x5F
0A7B6:  CLRF   x5E
0A7B8:  MOVLW  24
0A7BA:  MOVWF  x5D
0A7BC:  MOVLW  84
0A7BE:  MOVWF  x5C
0A7C0:  MOVFF  03,463
0A7C4:  MOVFF  02,462
0A7C8:  MOVFF  01,461
0A7CC:  MOVFF  00,460
0A7D0:  MOVLB  0
0A7D2:  CALL   1CB0
0A7D6:  MOVFF  448,FEA
0A7DA:  MOVFF  447,FE9
0A7DE:  MOVFF  03,45F
0A7E2:  MOVFF  02,45E
0A7E6:  MOVFF  01,45D
0A7EA:  MOVFF  00,45C
0A7EE:  CALL   41F4
0A7F2:  MOVFF  01,3B7
....................                if(G1<0) 
0A7F6:  MOVLB  3
0A7F8:  BTFSC  xB7.7
0A7FA:  BRA    A7FE
0A7FC:  BRA    A804
....................                   sg1=10; 
0A7FE:  MOVLW  0A
0A800:  MOVWF  xB9
....................                else 
0A802:  BRA    A808
....................                   sg1=5; 
0A804:  MOVLW  05
0A806:  MOVWF  xB9
....................                    
....................                write_eeprom(42,(int8)G1); 
0A808:  CLRF   FAA
0A80A:  MOVLW  2A
0A80C:  MOVWF  FA9
0A80E:  MOVFF  3B7,FA8
0A812:  BCF    FA6.6
0A814:  BCF    FA6.7
0A816:  BSF    FA6.2
0A818:  MOVF   FF2,W
0A81A:  MOVWF  00
0A81C:  BCF    FF2.6
0A81E:  BCF    FF2.7
0A820:  MOVLB  F
0A822:  MOVLW  55
0A824:  MOVWF  FA7
0A826:  MOVLW  AA
0A828:  MOVWF  FA7
0A82A:  BSF    FA6.1
0A82C:  BTFSC  FA6.1
0A82E:  BRA    A82C
0A830:  BCF    FA6.2
0A832:  MOVF   00,W
0A834:  IORWF  FF2,F
....................                delay_ms(10); 
0A836:  MOVLW  0A
0A838:  MOVLB  4
0A83A:  MOVWF  x5C
0A83C:  MOVLB  0
0A83E:  CALL   1AF4
....................                write_eeprom(44,(int8)sg1); 
0A842:  CLRF   FAA
0A844:  MOVLW  2C
0A846:  MOVWF  FA9
0A848:  MOVFF  3B9,FA8
0A84C:  BCF    FA6.6
0A84E:  BCF    FA6.7
0A850:  BSF    FA6.2
0A852:  MOVF   FF2,W
0A854:  MOVWF  00
0A856:  BCF    FF2.6
0A858:  BCF    FF2.7
0A85A:  MOVLB  F
0A85C:  MOVLW  55
0A85E:  MOVWF  FA7
0A860:  MOVLW  AA
0A862:  MOVWF  FA7
0A864:  BSF    FA6.1
0A866:  BTFSC  FA6.1
0A868:  BRA    A866
0A86A:  BCF    FA6.2
0A86C:  MOVF   00,W
0A86E:  IORWF  FF2,F
....................                delay_ms(10); 
0A870:  MOVLW  0A
0A872:  MOVLB  4
0A874:  MOVWF  x5C
0A876:  MOVLB  0
0A878:  CALL   1AF4
....................                Buzzer_on; 
0A87C:  BSF    F8C.7
0A87E:  BCF    F95.7
....................                delay_ms(1000); 
0A880:  MOVLW  04
0A882:  MOVLB  4
0A884:  MOVWF  x47
0A886:  MOVLW  FA
0A888:  MOVWF  x5C
0A88A:  MOVLB  0
0A88C:  CALL   1AF4
0A890:  MOVLB  4
0A892:  DECFSZ x47,F
0A894:  BRA    A886
....................                Buzzer_off; 
0A896:  BCF    F8C.7
0A898:  BCF    F95.7
....................                delay_ms(1000); 
0A89A:  MOVLW  04
0A89C:  MOVWF  x47
0A89E:  MOVLW  FA
0A8A0:  MOVWF  x5C
0A8A2:  MOVLB  0
0A8A4:  CALL   1AF4
0A8A8:  MOVLB  4
0A8AA:  DECFSZ x47,F
0A8AC:  BRA    A89E
....................                Buzzer_on; 
0A8AE:  BSF    F8C.7
0A8B0:  BCF    F95.7
....................                delay_ms(1000); 
0A8B2:  MOVLW  04
0A8B4:  MOVWF  x47
0A8B6:  MOVLW  FA
0A8B8:  MOVWF  x5C
0A8BA:  MOVLB  0
0A8BC:  CALL   1AF4
0A8C0:  MOVLB  4
0A8C2:  DECFSZ x47,F
0A8C4:  BRA    A8B6
....................                Buzzer_off; 
0A8C6:  BCF    F8C.7
0A8C8:  BCF    F95.7
0A8CA:  MOVLB  0
....................             } 
....................          } 
....................           
....................          if(DOWN){ 
0A8CC:  BSF    F93.2
0A8CE:  BTFSC  F81.2
0A8D0:  BRA    AA14
....................             delay_ms(100); 
0A8D2:  MOVLW  64
0A8D4:  MOVLB  4
0A8D6:  MOVWF  x5C
0A8D8:  MOVLB  0
0A8DA:  CALL   1AF4
....................             if(DOWN){ 
0A8DE:  BSF    F93.2
0A8E0:  BTFSC  F81.2
0A8E2:  BRA    AA14
....................                G2=41-sensores(3); 
0A8E4:  MOVLW  03
0A8E6:  MOVLB  4
0A8E8:  MOVWF  x50
0A8EA:  MOVLB  0
0A8EC:  CALL   3A42
0A8F0:  MOVFF  FEA,448
0A8F4:  MOVFF  FE9,447
0A8F8:  BSF    FD8.1
0A8FA:  MOVLB  4
0A8FC:  CLRF   x5F
0A8FE:  CLRF   x5E
0A900:  MOVLW  24
0A902:  MOVWF  x5D
0A904:  MOVLW  84
0A906:  MOVWF  x5C
0A908:  MOVFF  03,463
0A90C:  MOVFF  02,462
0A910:  MOVFF  01,461
0A914:  MOVFF  00,460
0A918:  MOVLB  0
0A91A:  CALL   1CB0
0A91E:  MOVFF  448,FEA
0A922:  MOVFF  447,FE9
0A926:  MOVFF  03,45F
0A92A:  MOVFF  02,45E
0A92E:  MOVFF  01,45D
0A932:  MOVFF  00,45C
0A936:  CALL   41F4
0A93A:  MOVFF  01,3B8
....................                if(G2<0) 
0A93E:  MOVLB  3
0A940:  BTFSC  xB8.7
0A942:  BRA    A946
0A944:  BRA    A94C
....................                   sg2=10; 
0A946:  MOVLW  0A
0A948:  MOVWF  xBA
....................                else 
0A94A:  BRA    A950
....................                   sg2=5; 
0A94C:  MOVLW  05
0A94E:  MOVWF  xBA
....................                    
....................                write_eeprom(43,(int8)G2); 
0A950:  CLRF   FAA
0A952:  MOVLW  2B
0A954:  MOVWF  FA9
0A956:  MOVFF  3B8,FA8
0A95A:  BCF    FA6.6
0A95C:  BCF    FA6.7
0A95E:  BSF    FA6.2
0A960:  MOVF   FF2,W
0A962:  MOVWF  00
0A964:  BCF    FF2.6
0A966:  BCF    FF2.7
0A968:  MOVLB  F
0A96A:  MOVLW  55
0A96C:  MOVWF  FA7
0A96E:  MOVLW  AA
0A970:  MOVWF  FA7
0A972:  BSF    FA6.1
0A974:  BTFSC  FA6.1
0A976:  BRA    A974
0A978:  BCF    FA6.2
0A97A:  MOVF   00,W
0A97C:  IORWF  FF2,F
....................                delay_ms(10); 
0A97E:  MOVLW  0A
0A980:  MOVLB  4
0A982:  MOVWF  x5C
0A984:  MOVLB  0
0A986:  CALL   1AF4
....................                write_eeprom(45,(int8)sg2); 
0A98A:  CLRF   FAA
0A98C:  MOVLW  2D
0A98E:  MOVWF  FA9
0A990:  MOVFF  3BA,FA8
0A994:  BCF    FA6.6
0A996:  BCF    FA6.7
0A998:  BSF    FA6.2
0A99A:  MOVF   FF2,W
0A99C:  MOVWF  00
0A99E:  BCF    FF2.6
0A9A0:  BCF    FF2.7
0A9A2:  MOVLB  F
0A9A4:  MOVLW  55
0A9A6:  MOVWF  FA7
0A9A8:  MOVLW  AA
0A9AA:  MOVWF  FA7
0A9AC:  BSF    FA6.1
0A9AE:  BTFSC  FA6.1
0A9B0:  BRA    A9AE
0A9B2:  BCF    FA6.2
0A9B4:  MOVF   00,W
0A9B6:  IORWF  FF2,F
....................                delay_ms(10); 
0A9B8:  MOVLW  0A
0A9BA:  MOVLB  4
0A9BC:  MOVWF  x5C
0A9BE:  MOVLB  0
0A9C0:  CALL   1AF4
....................                Buzzer_on; 
0A9C4:  BSF    F8C.7
0A9C6:  BCF    F95.7
....................                delay_ms(1000); 
0A9C8:  MOVLW  04
0A9CA:  MOVLB  4
0A9CC:  MOVWF  x47
0A9CE:  MOVLW  FA
0A9D0:  MOVWF  x5C
0A9D2:  MOVLB  0
0A9D4:  CALL   1AF4
0A9D8:  MOVLB  4
0A9DA:  DECFSZ x47,F
0A9DC:  BRA    A9CE
....................                Buzzer_off; 
0A9DE:  BCF    F8C.7
0A9E0:  BCF    F95.7
....................                delay_ms(1000); 
0A9E2:  MOVLW  04
0A9E4:  MOVWF  x47
0A9E6:  MOVLW  FA
0A9E8:  MOVWF  x5C
0A9EA:  MOVLB  0
0A9EC:  CALL   1AF4
0A9F0:  MOVLB  4
0A9F2:  DECFSZ x47,F
0A9F4:  BRA    A9E6
....................                Buzzer_on; 
0A9F6:  BSF    F8C.7
0A9F8:  BCF    F95.7
....................                delay_ms(1000); 
0A9FA:  MOVLW  04
0A9FC:  MOVWF  x47
0A9FE:  MOVLW  FA
0AA00:  MOVWF  x5C
0AA02:  MOVLB  0
0AA04:  CALL   1AF4
0AA08:  MOVLB  4
0AA0A:  DECFSZ x47,F
0AA0C:  BRA    A9FE
....................                Buzzer_off; 
0AA0E:  BCF    F8C.7
0AA10:  BCF    F95.7
0AA12:  MOVLB  0
0AA14:  MOVLB  3
....................             } 
....................          } 
....................      } 
.................... //_--------------------------------------------------------------------------------------------------------------------------------------------------------     
....................  
.................... //_--------------------------------------------------------------------------------------------------------------------------------------------------------       
....................       if(Menu==7){ //Menu de Configuracin de Fecha y Hora 
0AA16:  MOVF   x65,W
0AA18:  SUBLW  07
0AA1A:  BTFSS  FD8.2
0AA1C:  BRA    AE44
....................           
....................          if(RX_Buffer[4]==0x0a){//Selecciono Hora 
0AA1E:  MOVF   34,W
0AA20:  SUBLW  0A
0AA22:  BNZ   AA28
....................             Opcion=4; 
0AA24:  MOVLW  04
0AA26:  MOVWF  x6D
....................          } 
....................           
....................          if(RX_Buffer[4]==0x0b){//Selecciono Minuto 
0AA28:  MOVF   34,W
0AA2A:  SUBLW  0B
0AA2C:  BNZ   AA32
....................             Opcion=5; 
0AA2E:  MOVLW  05
0AA30:  MOVWF  x6D
....................          } 
....................           
....................          if(RX_Buffer[4]==0x0c){//Selecciono Dia 
0AA32:  MOVF   34,W
0AA34:  SUBLW  0C
0AA36:  BNZ   AA3C
....................             Opcion=1; 
0AA38:  MOVLW  01
0AA3A:  MOVWF  x6D
....................          } 
....................           
....................          if(RX_Buffer[4]==0x0d){//Selecciono Hora 
0AA3C:  MOVF   34,W
0AA3E:  SUBLW  0D
0AA40:  BNZ   AA46
....................             Opcion=2; 
0AA42:  MOVLW  02
0AA44:  MOVWF  x6D
....................          } 
....................           
....................          if(RX_Buffer[4]==0x0e){//Selecciono Year 
0AA46:  MOVF   34,W
0AA48:  SUBLW  0E
0AA4A:  BNZ   AA50
....................             Opcion=3; 
0AA4C:  MOVLW  03
0AA4E:  MOVWF  x6D
....................          } 
....................           
....................          if(RIGHT){ 
0AA50:  BSF    F93.1
0AA52:  BTFSC  F81.1
0AA54:  BRA    AA6C
....................             delay_ms(200); 
0AA56:  MOVLW  C8
0AA58:  MOVLB  4
0AA5A:  MOVWF  x5C
0AA5C:  MOVLB  0
0AA5E:  CALL   1AF4
....................             if(RIGHT){ 
0AA62:  BSF    F93.1
0AA64:  BTFSC  F81.1
0AA66:  BRA    AA6E
....................                Opcion++; 
0AA68:  MOVLB  3
0AA6A:  INCF   x6D,F
0AA6C:  MOVLB  0
....................             } 
....................          } 
....................          if(Opcion>5) 
0AA6E:  MOVLB  3
0AA70:  MOVF   x6D,W
0AA72:  SUBLW  05
0AA74:  BC    AA7A
....................             Opcion=1; 
0AA76:  MOVLW  01
0AA78:  MOVWF  x6D
....................          if(Opcion<1) 
0AA7A:  MOVF   x6D,F
0AA7C:  BNZ   AA82
....................             Opcion=5; 
0AA7E:  MOVLW  05
0AA80:  MOVWF  x6D
....................              
....................          if(RX_Buffer[4]==0x11 || LEFT){//Selecciono Regresar 
0AA82:  MOVF   34,W
0AA84:  SUBLW  11
0AA86:  BZ    AA8E
0AA88:  BSF    F93.0
0AA8A:  BTFSC  F81.0
0AA8C:  BRA    ABA6
....................             printf("page MenuPrincipal"); 
0AA8E:  MOVLW  48
0AA90:  MOVWF  FF6
0AA92:  MOVLW  0F
0AA94:  MOVWF  FF7
0AA96:  MOVLW  00
0AA98:  MOVWF  FF8
0AA9A:  MOVLB  0
0AA9C:  CALL   39B8
....................             SendDataDisplay();   
0AAA0:  CALL   39EA
....................             PantallaPrincipal=0; 
0AAA4:  MOVLB  2
0AAA6:  CLRF   xE4
....................             Op=OFF; 
0AAA8:  MOVLB  0
0AAAA:  BCF    xA2.2
....................             Op2=OFF; 
0AAAC:  BCF    xA2.3
....................              
....................             if(esBisiesto(YearTx)) 
0AAAE:  MOVFF  3AD,447
0AAB2:  CALL   534C
0AAB6:  MOVF   01,F
0AAB8:  BZ    AAD4
....................                Modulo=Bisiesto[MesTx]; 
0AABA:  CLRF   03
0AABC:  MOVLB  3
0AABE:  MOVF   xAE,W
0AAC0:  ADDLW  93
0AAC2:  MOVWF  FE9
0AAC4:  MOVLW  00
0AAC6:  ADDWFC 03,W
0AAC8:  MOVWF  FEA
0AACA:  MOVFF  FEF,2E6
0AACE:  MOVLB  2
....................             else 
0AAD0:  BRA    AAEA
0AAD2:  MOVLB  0
....................                Modulo=Regular[MesTx]; 
0AAD4:  CLRF   03
0AAD6:  MOVLB  3
0AAD8:  MOVF   xAE,W
0AADA:  ADDLW  87
0AADC:  MOVWF  FE9
0AADE:  MOVLW  00
0AAE0:  ADDWFC 03,W
0AAE2:  MOVWF  FEA
0AAE4:  MOVFF  FEF,2E6
0AAE8:  MOVLB  2
....................           
....................             dowTx=((YearTx-1)%7+((YearTx-1)/4-3*((YearTx-1)/100+1)/4)%7+Modulo+DiaTx%7)%7; 
0AAEA:  MOVLW  01
0AAEC:  MOVLB  3
0AAEE:  SUBWF  xAD,W
0AAF0:  MOVLB  4
0AAF2:  MOVWF  x48
0AAF4:  MOVWF  x51
0AAF6:  MOVLW  07
0AAF8:  MOVWF  x52
0AAFA:  MOVLB  0
0AAFC:  CALL   49D4
0AB00:  MOVFF  00,447
0AB04:  MOVLW  01
0AB06:  MOVLB  3
0AB08:  SUBWF  xAD,W
0AB0A:  MOVWF  00
0AB0C:  RRCF   00,W
0AB0E:  MOVLB  4
0AB10:  MOVWF  x48
0AB12:  RRCF   x48,F
0AB14:  MOVLW  3F
0AB16:  ANDWF  x48,F
0AB18:  MOVLW  01
0AB1A:  MOVLB  3
0AB1C:  SUBWF  xAD,W
0AB1E:  MOVLB  4
0AB20:  MOVWF  x4A
0AB22:  MOVWF  x51
0AB24:  MOVLW  64
0AB26:  MOVWF  x52
0AB28:  MOVLB  0
0AB2A:  CALL   49D4
0AB2E:  MOVLW  01
0AB30:  ADDWF  01,W
0AB32:  MULLW  03
0AB34:  MOVFF  FF3,00
0AB38:  RRCF   00,F
0AB3A:  RRCF   00,F
0AB3C:  MOVLW  3F
0AB3E:  ANDWF  00,F
0AB40:  MOVF   00,W
0AB42:  MOVLB  4
0AB44:  SUBWF  x48,W
0AB46:  MOVWF  x49
0AB48:  MOVWF  x51
0AB4A:  MOVLW  07
0AB4C:  MOVWF  x52
0AB4E:  MOVLB  0
0AB50:  CALL   49D4
0AB54:  MOVF   00,W
0AB56:  MOVLB  4
0AB58:  ADDWF  x47,W
0AB5A:  MOVLB  2
0AB5C:  ADDWF  xE6,W
0AB5E:  MOVLB  4
0AB60:  MOVWF  x47
0AB62:  MOVFF  3AF,451
0AB66:  MOVLW  07
0AB68:  MOVWF  x52
0AB6A:  MOVLB  0
0AB6C:  CALL   49D4
0AB70:  MOVF   00,W
0AB72:  MOVLB  4
0AB74:  ADDWF  x47,W
0AB76:  MOVWF  x48
0AB78:  MOVWF  x51
0AB7A:  MOVLW  07
0AB7C:  MOVWF  x52
0AB7E:  MOVLB  0
0AB80:  CALL   49D4
0AB84:  MOVFF  00,3B3
....................             rtc_set_datetime(DiaTx,MesTx,YearTx,dowTx,HoraTx,MinutoTx); 
0AB88:  MOVFF  3AF,447
0AB8C:  MOVFF  3AE,448
0AB90:  MOVFF  3AD,449
0AB94:  MOVFF  3B3,44A
0AB98:  MOVFF  3B0,44B
0AB9C:  MOVFF  3B1,44C
0ABA0:  GOTO   53D2
0ABA4:  MOVLB  3
....................          } 
....................           
....................          if((RX_Buffer[4]==0x2a)|| UP){//Tecla Arriba Oprimida 
0ABA6:  MOVF   34,W
0ABA8:  SUBLW  2A
0ABAA:  BZ    ABB2
0ABAC:  BSF    F93.3
0ABAE:  BTFSC  F81.3
0ABB0:  BRA    ACB0
....................             delay_ms(200); 
0ABB2:  MOVLW  C8
0ABB4:  MOVLB  4
0ABB6:  MOVWF  x5C
0ABB8:  MOVLB  0
0ABBA:  CALL   1AF4
....................             if((RX_Buffer[4]==0x2a)|| UP){    
0ABBE:  MOVF   34,W
0ABC0:  SUBLW  2A
0ABC2:  BZ    ABCA
0ABC4:  BSF    F93.3
0ABC6:  BTFSC  F81.3
0ABC8:  BRA    ACB2
....................                if(Opcion==1){ 
0ABCA:  MOVLB  3
0ABCC:  DECFSZ x6D,W
0ABCE:  BRA    AC5C
....................                   if(MesTx==2){ 
0ABD0:  MOVF   xAE,W
0ABD2:  SUBLW  02
0ABD4:  BNZ   AC0A
....................                      if(esBisiesto(YearTx)){ 
0ABD6:  MOVFF  3AD,447
0ABDA:  MOVLB  0
0ABDC:  CALL   534C
0ABE0:  MOVF   01,F
0ABE2:  BZ    ABF8
....................                         if(DiaTx<29) 
0ABE4:  MOVLB  3
0ABE6:  MOVF   xAF,W
0ABE8:  SUBLW  1C
0ABEA:  BNC   ABF0
....................                            DiaTx++; 
0ABEC:  INCF   xAF,F
....................                         else 
0ABEE:  BRA    ABF4
....................                            DiaTx=1;    
0ABF0:  MOVLW  01
0ABF2:  MOVWF  xAF
....................                      }else{ 
0ABF4:  BRA    AC08
0ABF6:  MOVLB  0
....................                         if(DiaTx<28) 
0ABF8:  MOVLB  3
0ABFA:  MOVF   xAF,W
0ABFC:  SUBLW  1B
0ABFE:  BNC   AC04
....................                            DiaTx++; 
0AC00:  INCF   xAF,F
....................                         else 
0AC02:  BRA    AC08
....................                            DiaTx=1;    
0AC04:  MOVLW  01
0AC06:  MOVWF  xAF
....................                      } 
....................                   }else{ 
0AC08:  BRA    AC5A
....................                      if(MesTx<=7){ 
0AC0A:  MOVF   xAE,W
0AC0C:  SUBLW  07
0AC0E:  BNC   AC36
....................                         if(MesTx % 2 ==0){ 
0AC10:  MOVF   xAE,W
0AC12:  ANDLW  01
0AC14:  BNZ   AC26
....................                            if(DiaTx<30) 
0AC16:  MOVF   xAF,W
0AC18:  SUBLW  1D
0AC1A:  BNC   AC20
....................                               DiaTx++;     
0AC1C:  INCF   xAF,F
....................                            else 
0AC1E:  BRA    AC24
....................                               DiaTx=1;    
0AC20:  MOVLW  01
0AC22:  MOVWF  xAF
....................                         }else{ 
0AC24:  BRA    AC34
....................                            if(DiaTx<31) 
0AC26:  MOVF   xAF,W
0AC28:  SUBLW  1E
0AC2A:  BNC   AC30
....................                               DiaTx++;     
0AC2C:  INCF   xAF,F
....................                            else 
0AC2E:  BRA    AC34
....................                               DiaTx=1;    
0AC30:  MOVLW  01
0AC32:  MOVWF  xAF
....................                         }     
....................                      }else{ 
0AC34:  BRA    AC5A
....................                         if(MesTx % 2 ==0){ 
0AC36:  MOVF   xAE,W
0AC38:  ANDLW  01
0AC3A:  BNZ   AC4C
....................                            if(DiaTx<31) 
0AC3C:  MOVF   xAF,W
0AC3E:  SUBLW  1E
0AC40:  BNC   AC46
....................                               DiaTx++;   
0AC42:  INCF   xAF,F
....................                            else 
0AC44:  BRA    AC4A
....................                               DiaTx=1; 
0AC46:  MOVLW  01
0AC48:  MOVWF  xAF
....................                         }else{ 
0AC4A:  BRA    AC5A
....................                            if(DiaTx<30) 
0AC4C:  MOVF   xAF,W
0AC4E:  SUBLW  1D
0AC50:  BNC   AC56
....................                               DiaTx++;     
0AC52:  INCF   xAF,F
....................                            else 
0AC54:  BRA    AC5A
....................                               DiaTx=1; 
0AC56:  MOVLW  01
0AC58:  MOVWF  xAF
....................                         }     
....................                      } 
....................                   } 
....................                }else if(Opcion==2){ 
0AC5A:  BRA    ACAC
0AC5C:  MOVF   x6D,W
0AC5E:  SUBLW  02
0AC60:  BNZ   AC72
....................                   if(MesTx<12) 
0AC62:  MOVF   xAE,W
0AC64:  SUBLW  0B
0AC66:  BNC   AC6C
....................                      MesTx++; 
0AC68:  INCF   xAE,F
....................                   else 
0AC6A:  BRA    AC70
....................                      MesTx=1; 
0AC6C:  MOVLW  01
0AC6E:  MOVWF  xAE
....................                }else if(Opcion==3){ 
0AC70:  BRA    ACAC
0AC72:  MOVF   x6D,W
0AC74:  SUBLW  03
0AC76:  BNZ   AC86
....................                   if(YearTx<99) 
0AC78:  MOVF   xAD,W
0AC7A:  SUBLW  62
0AC7C:  BNC   AC82
....................                      YearTx++; 
0AC7E:  INCF   xAD,F
....................                   else  
0AC80:  BRA    AC84
....................                      YearTx=0; 
0AC82:  CLRF   xAD
....................                }else if(Opcion==4){ 
0AC84:  BRA    ACAC
0AC86:  MOVF   x6D,W
0AC88:  SUBLW  04
0AC8A:  BNZ   AC9A
....................                   if(HoraTx<24) 
0AC8C:  MOVF   xB0,W
0AC8E:  SUBLW  17
0AC90:  BNC   AC96
....................                      HoraTx++; 
0AC92:  INCF   xB0,F
....................                   else 
0AC94:  BRA    AC98
....................                      HoraTx=0; 
0AC96:  CLRF   xB0
....................                }else if(Opcion==5){ 
0AC98:  BRA    ACAC
0AC9A:  MOVF   x6D,W
0AC9C:  SUBLW  05
0AC9E:  BNZ   ACAC
....................                   if(MinutoTx<59) 
0ACA0:  MOVF   xB1,W
0ACA2:  SUBLW  3A
0ACA4:  BNC   ACAA
....................                      MinutoTx++; 
0ACA6:  INCF   xB1,F
....................                   else 
0ACA8:  BRA    ACAC
....................                      MinutoTx=0; 
0ACAA:  CLRF   xB1
....................                } 
....................                RX_Buffer[4]=0x00; 
0ACAC:  CLRF   34
....................                RX_Buffer2[4]=0x00; 
0ACAE:  CLRF   3F
0ACB0:  MOVLB  0
....................             } 
....................          } 
....................           
....................          if(RX_Buffer[4]==0x2b || DOWN){//Tecla Abajo Oprimida 
0ACB2:  MOVF   34,W
0ACB4:  SUBLW  2B
0ACB6:  BZ    ACBE
0ACB8:  BSF    F93.2
0ACBA:  BTFSC  F81.2
0ACBC:  BRA    AD3A
....................             delay_ms(200); 
0ACBE:  MOVLW  C8
0ACC0:  MOVLB  4
0ACC2:  MOVWF  x5C
0ACC4:  MOVLB  0
0ACC6:  CALL   1AF4
....................             if(RX_Buffer[4]==0x2b || DOWN){    
0ACCA:  MOVF   34,W
0ACCC:  SUBLW  2B
0ACCE:  BZ    ACD6
0ACD0:  BSF    F93.2
0ACD2:  BTFSC  F81.2
0ACD4:  BRA    AD3A
....................                if(Opcion==1){ 
0ACD6:  MOVLB  3
0ACD8:  DECFSZ x6D,W
0ACDA:  BRA    ACE4
....................                   if(DiaTx>0) 
0ACDC:  MOVF   xAF,F
0ACDE:  BZ    ACE2
....................                      DiaTx--; 
0ACE0:  DECF   xAF,F
....................                }else if(Opcion==2){ 
0ACE2:  BRA    AD34
0ACE4:  MOVF   x6D,W
0ACE6:  SUBLW  02
0ACE8:  BNZ   ACFA
....................                   if(MesTx>1) 
0ACEA:  MOVF   xAE,W
0ACEC:  SUBLW  01
0ACEE:  BC    ACF4
....................                      MesTx--; 
0ACF0:  DECF   xAE,F
....................                   else 
0ACF2:  BRA    ACF8
....................                      MesTx=12; 
0ACF4:  MOVLW  0C
0ACF6:  MOVWF  xAE
....................                }else if(Opcion==3){ 
0ACF8:  BRA    AD34
0ACFA:  MOVF   x6D,W
0ACFC:  SUBLW  03
0ACFE:  BNZ   AD0E
....................                   if(YearTx>0) 
0AD00:  MOVF   xAD,F
0AD02:  BZ    AD08
....................                      YearTx--; 
0AD04:  DECF   xAD,F
....................                   else 
0AD06:  BRA    AD0C
....................                      YearTx=99; 
0AD08:  MOVLW  63
0AD0A:  MOVWF  xAD
....................                }else if(Opcion==4){ 
0AD0C:  BRA    AD34
0AD0E:  MOVF   x6D,W
0AD10:  SUBLW  04
0AD12:  BNZ   AD22
....................                   if(HoraTx>0) 
0AD14:  MOVF   xB0,F
0AD16:  BZ    AD1C
....................                      HoraTx--; 
0AD18:  DECF   xB0,F
....................                   else 
0AD1A:  BRA    AD20
....................                      HoraTx=23; 
0AD1C:  MOVLW  17
0AD1E:  MOVWF  xB0
....................                }else if(Opcion==5){ 
0AD20:  BRA    AD34
0AD22:  MOVF   x6D,W
0AD24:  SUBLW  05
0AD26:  BNZ   AD34
....................                   if(MinutoTx>0) 
0AD28:  MOVF   xB1,F
0AD2A:  BZ    AD30
....................                      MinutoTx--; 
0AD2C:  DECF   xB1,F
....................                   else 
0AD2E:  BRA    AD34
....................                      MinutoTx=59; 
0AD30:  MOVLW  3B
0AD32:  MOVWF  xB1
....................                } 
....................                RX_Buffer[4]=0x00; 
0AD34:  CLRF   34
....................                RX_Buffer2[4]=0x00; 
0AD36:  CLRF   3F
0AD38:  MOVLB  0
....................             } 
....................          } 
....................        
....................       printf("thora.txt=\"%02u\"",HoraTx); 
0AD3A:  MOVLW  5C
0AD3C:  MOVWF  FF6
0AD3E:  MOVLW  0F
0AD40:  MOVWF  FF7
0AD42:  MOVLW  00
0AD44:  MOVWF  FF8
0AD46:  MOVLW  0B
0AD48:  MOVLB  4
0AD4A:  MOVWF  x4C
0AD4C:  MOVLB  0
0AD4E:  CALL   49A2
0AD52:  MOVFF  3B0,44C
0AD56:  MOVLW  01
0AD58:  MOVLB  4
0AD5A:  MOVWF  x4D
0AD5C:  MOVLB  0
0AD5E:  CALL   4A00
0AD62:  MOVLW  22
0AD64:  BTFSS  F9E.4
0AD66:  BRA    AD64
0AD68:  MOVWF  FAD
....................       SendDataDisplay(); 
0AD6A:  CALL   39EA
....................       printf("tminutos.txt=\"%02u\"",MinutoTx); 
0AD6E:  MOVLW  6E
0AD70:  MOVWF  FF6
0AD72:  MOVLW  0F
0AD74:  MOVWF  FF7
0AD76:  MOVLW  00
0AD78:  MOVWF  FF8
0AD7A:  MOVLW  0E
0AD7C:  MOVLB  4
0AD7E:  MOVWF  x4C
0AD80:  MOVLB  0
0AD82:  CALL   49A2
0AD86:  MOVFF  3B1,44C
0AD8A:  MOVLW  01
0AD8C:  MOVLB  4
0AD8E:  MOVWF  x4D
0AD90:  MOVLB  0
0AD92:  CALL   4A00
0AD96:  MOVLW  22
0AD98:  BTFSS  F9E.4
0AD9A:  BRA    AD98
0AD9C:  MOVWF  FAD
....................       SendDataDisplay(); 
0AD9E:  CALL   39EA
....................       printf("tdia.txt=\"%02u\"",DiaTx); 
0ADA2:  MOVLW  82
0ADA4:  MOVWF  FF6
0ADA6:  MOVLW  0F
0ADA8:  MOVWF  FF7
0ADAA:  MOVLW  00
0ADAC:  MOVWF  FF8
0ADAE:  MOVLW  0A
0ADB0:  MOVLB  4
0ADB2:  MOVWF  x4C
0ADB4:  MOVLB  0
0ADB6:  CALL   49A2
0ADBA:  MOVFF  3AF,44C
0ADBE:  MOVLW  01
0ADC0:  MOVLB  4
0ADC2:  MOVWF  x4D
0ADC4:  MOVLB  0
0ADC6:  CALL   4A00
0ADCA:  MOVLW  22
0ADCC:  BTFSS  F9E.4
0ADCE:  BRA    ADCC
0ADD0:  MOVWF  FAD
....................       SendDataDisplay(); 
0ADD2:  CALL   39EA
....................       printf("tmes.txt=\"%02u\"",MesTx); 
0ADD6:  MOVLW  92
0ADD8:  MOVWF  FF6
0ADDA:  MOVLW  0F
0ADDC:  MOVWF  FF7
0ADDE:  MOVLW  00
0ADE0:  MOVWF  FF8
0ADE2:  MOVLW  0A
0ADE4:  MOVLB  4
0ADE6:  MOVWF  x4C
0ADE8:  MOVLB  0
0ADEA:  CALL   49A2
0ADEE:  MOVFF  3AE,44C
0ADF2:  MOVLW  01
0ADF4:  MOVLB  4
0ADF6:  MOVWF  x4D
0ADF8:  MOVLB  0
0ADFA:  CALL   4A00
0ADFE:  MOVLW  22
0AE00:  BTFSS  F9E.4
0AE02:  BRA    AE00
0AE04:  MOVWF  FAD
....................       SendDataDisplay(); 
0AE06:  CALL   39EA
....................       printf("tyear.txt=\"%02u\"",YearTx); 
0AE0A:  MOVLW  A2
0AE0C:  MOVWF  FF6
0AE0E:  MOVLW  0F
0AE10:  MOVWF  FF7
0AE12:  MOVLW  00
0AE14:  MOVWF  FF8
0AE16:  MOVLW  0B
0AE18:  MOVLB  4
0AE1A:  MOVWF  x4C
0AE1C:  MOVLB  0
0AE1E:  CALL   49A2
0AE22:  MOVFF  3AD,44C
0AE26:  MOVLW  01
0AE28:  MOVLB  4
0AE2A:  MOVWF  x4D
0AE2C:  MOVLB  0
0AE2E:  CALL   4A00
0AE32:  MOVLW  22
0AE34:  BTFSS  F9E.4
0AE36:  BRA    AE34
0AE38:  MOVWF  FAD
....................       SendDataDisplay(); 
0AE3A:  CALL   39EA
....................       LimitaDia();   
0AE3E:  GOTO   548E
0AE42:  MOVLB  3
....................     } 
.................... //_--------------------------------------------------------------------------------------------------------------------------------------------------------        
....................  
.................... //_-------------------------------------------------------------------------------------------------------------------------------------------------------- 
....................    if(Menu==8){ //Menu Ciclos Personalizados 
0AE44:  MOVF   x65,W
0AE46:  SUBLW  08
0AE48:  BTFSS  FD8.2
0AE4A:  GOTO   BBA8
....................       //printf("fecha.txt=\"T:%3.1fC Fecha:%02u/%02u/20%02u Hora: %02u:%02u:%02u\"",Temperatura,Dia,Mes,Year,Hora,Minuto,Segundo); 
....................       //SendDataDisplay(); 
....................       revisePresion(); 
0AE4E:  MOVLB  0
0AE50:  CALL   4E72
....................       GuardaEEPROM=OFF; 
0AE54:  BCF    xA2.6
....................        
....................       if(RX_Buffer[4]>0x00 && RX_Buffer[4]<0x04){//Personalizados 
0AE56:  MOVF   34,F
0AE58:  BTFSC  FD8.2
0AE5A:  BRA    B088
0AE5C:  MOVF   34,W
0AE5E:  SUBLW  03
0AE60:  BTFSS  FD8.0
0AE62:  BRA    B088
....................          printf("ciclo.txt=\"CICLO P%02u\"",RX_Buffer[4]+0x04); 
0AE64:  MOVLW  04
0AE66:  ADDWF  34,W
0AE68:  MOVLB  4
0AE6A:  MOVWF  x47
0AE6C:  MOVLW  B4
0AE6E:  MOVWF  FF6
0AE70:  MOVLW  0F
0AE72:  MOVWF  FF7
0AE74:  MOVLW  00
0AE76:  MOVWF  FF8
0AE78:  MOVLW  12
0AE7A:  MOVWF  x4C
0AE7C:  MOVLB  0
0AE7E:  CALL   49A2
0AE82:  MOVFF  447,44C
0AE86:  MOVLW  01
0AE88:  MOVLB  4
0AE8A:  MOVWF  x4D
0AE8C:  MOVLB  0
0AE8E:  CALL   4A00
0AE92:  MOVLW  22
0AE94:  BTFSS  F9E.4
0AE96:  BRA    AE94
0AE98:  MOVWF  FAD
....................          SendDataDisplay();           
0AE9A:  CALL   39EA
....................          printf("temp.txt=\"%u\"",CiclosPersonalizados[RX_Buffer[4]-1].Temperatura); 
0AE9E:  MOVLW  01
0AEA0:  SUBWF  34,W
0AEA2:  MULLW  0A
0AEA4:  MOVF   FF3,W
0AEA6:  MOVLB  4
0AEA8:  CLRF   x48
0AEAA:  MOVWF  x47
0AEAC:  MOVLW  1F
0AEAE:  ADDWF  x47,W
0AEB0:  MOVWF  FE9
0AEB2:  MOVLW  04
0AEB4:  ADDWFC x48,W
0AEB6:  MOVWF  FEA
0AEB8:  MOVFF  FEF,447
0AEBC:  MOVLW  CC
0AEBE:  MOVWF  FF6
0AEC0:  MOVLW  0F
0AEC2:  MOVWF  FF7
0AEC4:  MOVLW  00
0AEC6:  MOVWF  FF8
0AEC8:  MOVLW  0A
0AECA:  MOVWF  x4C
0AECC:  MOVLB  0
0AECE:  CALL   49A2
0AED2:  MOVFF  447,44C
0AED6:  MOVLW  1B
0AED8:  MOVLB  4
0AEDA:  MOVWF  x4D
0AEDC:  MOVLB  0
0AEDE:  CALL   4A00
0AEE2:  MOVLW  22
0AEE4:  BTFSS  F9E.4
0AEE6:  BRA    AEE4
0AEE8:  MOVWF  FAD
....................          SendDataDisplay(); 
0AEEA:  CALL   39EA
....................          printf("test.txt=\"%02u:%02u\"",CiclosPersonalizados[RX_Buffer[4]-1].Minutoest,CiclosPersonalizados[RX_Buffer[4]-1].Segundoest); 
0AEEE:  MOVLW  01
0AEF0:  SUBWF  34,W
0AEF2:  MULLW  0A
0AEF4:  MOVF   FF3,W
0AEF6:  MOVLB  4
0AEF8:  CLRF   x48
0AEFA:  MOVWF  x47
0AEFC:  MOVLW  09
0AEFE:  ADDWF  x47,W
0AF00:  MOVWF  01
0AF02:  MOVLW  00
0AF04:  ADDWFC x48,W
0AF06:  MOVWF  03
0AF08:  MOVF   01,W
0AF0A:  ADDLW  1F
0AF0C:  MOVWF  FE9
0AF0E:  MOVLW  04
0AF10:  ADDWFC 03,W
0AF12:  MOVWF  FEA
0AF14:  MOVFF  FEF,447
0AF18:  MOVLW  01
0AF1A:  SUBWF  34,W
0AF1C:  MULLW  0A
0AF1E:  MOVF   FF3,W
0AF20:  CLRF   x49
0AF22:  MOVWF  x48
0AF24:  MOVLW  03
0AF26:  ADDWF  x48,W
0AF28:  MOVWF  01
0AF2A:  MOVLW  00
0AF2C:  ADDWFC x49,W
0AF2E:  MOVWF  03
0AF30:  MOVF   01,W
0AF32:  ADDLW  1F
0AF34:  MOVWF  FE9
0AF36:  MOVLW  04
0AF38:  ADDWFC 03,W
0AF3A:  MOVWF  FEA
0AF3C:  MOVFF  FEF,448
0AF40:  MOVLW  DA
0AF42:  MOVWF  FF6
0AF44:  MOVLW  0F
0AF46:  MOVWF  FF7
0AF48:  MOVLW  00
0AF4A:  MOVWF  FF8
0AF4C:  MOVLW  0A
0AF4E:  MOVWF  x4C
0AF50:  MOVLB  0
0AF52:  CALL   49A2
0AF56:  MOVFF  447,44C
0AF5A:  MOVLW  01
0AF5C:  MOVLB  4
0AF5E:  MOVWF  x4D
0AF60:  MOVLB  0
0AF62:  CALL   4A00
0AF66:  MOVLW  3A
0AF68:  BTFSS  F9E.4
0AF6A:  BRA    AF68
0AF6C:  MOVWF  FAD
0AF6E:  MOVFF  448,44C
0AF72:  MOVLW  01
0AF74:  MOVLB  4
0AF76:  MOVWF  x4D
0AF78:  MOVLB  0
0AF7A:  CALL   4A00
0AF7E:  MOVLW  22
0AF80:  BTFSS  F9E.4
0AF82:  BRA    AF80
0AF84:  MOVWF  FAD
....................          SendDataDisplay(); 
0AF86:  CALL   39EA
....................          printf("tsec.txt=\"%02u:%02u\"",CiclosPersonalizados[RX_Buffer[4]-1].Minutosec,CiclosPersonalizados[RX_Buffer[4]-1].Segundosec); 
0AF8A:  MOVLW  01
0AF8C:  SUBWF  34,W
0AF8E:  MULLW  0A
0AF90:  MOVF   FF3,W
0AF92:  MOVLB  4
0AF94:  CLRF   x48
0AF96:  MOVWF  x47
0AF98:  MOVLW  04
0AF9A:  ADDWF  x47,W
0AF9C:  MOVWF  01
0AF9E:  MOVLW  00
0AFA0:  ADDWFC x48,W
0AFA2:  MOVWF  03
0AFA4:  MOVF   01,W
0AFA6:  ADDLW  1F
0AFA8:  MOVWF  FE9
0AFAA:  MOVLW  04
0AFAC:  ADDWFC 03,W
0AFAE:  MOVWF  FEA
0AFB0:  MOVFF  FEF,447
0AFB4:  MOVLW  01
0AFB6:  SUBWF  34,W
0AFB8:  MULLW  0A
0AFBA:  MOVF   FF3,W
0AFBC:  CLRF   x49
0AFBE:  MOVWF  x48
0AFC0:  MOVLW  05
0AFC2:  ADDWF  x48,W
0AFC4:  MOVWF  01
0AFC6:  MOVLW  00
0AFC8:  ADDWFC x49,W
0AFCA:  MOVWF  03
0AFCC:  MOVF   01,W
0AFCE:  ADDLW  1F
0AFD0:  MOVWF  FE9
0AFD2:  MOVLW  04
0AFD4:  ADDWFC 03,W
0AFD6:  MOVWF  FEA
0AFD8:  MOVFF  FEF,448
0AFDC:  MOVLW  F0
0AFDE:  MOVWF  FF6
0AFE0:  MOVLW  0F
0AFE2:  MOVWF  FF7
0AFE4:  MOVLW  00
0AFE6:  MOVWF  FF8
0AFE8:  MOVLW  0A
0AFEA:  MOVWF  x4C
0AFEC:  MOVLB  0
0AFEE:  CALL   49A2
0AFF2:  MOVFF  447,44C
0AFF6:  MOVLW  01
0AFF8:  MOVLB  4
0AFFA:  MOVWF  x4D
0AFFC:  MOVLB  0
0AFFE:  CALL   4A00
0B002:  MOVLW  3A
0B004:  BTFSS  F9E.4
0B006:  BRA    B004
0B008:  MOVWF  FAD
0B00A:  MOVFF  448,44C
0B00E:  MOVLW  01
0B010:  MOVLB  4
0B012:  MOVWF  x4D
0B014:  MOVLB  0
0B016:  CALL   4A00
0B01A:  MOVLW  22
0B01C:  BTFSS  F9E.4
0B01E:  BRA    B01C
0B020:  MOVWF  FAD
....................          SendDataDisplay(); 
0B022:  CALL   39EA
....................          printf("desfogue.txt=\"%u\"",CiclosPersonalizados[RX_Buffer[4]-1].NivelDesfogue); 
0B026:  MOVLW  01
0B028:  SUBWF  34,W
0B02A:  MULLW  0A
0B02C:  MOVF   FF3,W
0B02E:  MOVLB  4
0B030:  CLRF   x48
0B032:  MOVWF  x47
0B034:  MOVLW  08
0B036:  ADDWF  x47,W
0B038:  MOVWF  01
0B03A:  MOVLW  00
0B03C:  ADDWFC x48,W
0B03E:  MOVWF  03
0B040:  MOVF   01,W
0B042:  ADDLW  1F
0B044:  MOVWF  FE9
0B046:  MOVLW  04
0B048:  ADDWFC 03,W
0B04A:  MOVWF  FEA
0B04C:  MOVFF  FEF,447
0B050:  MOVLW  06
0B052:  MOVWF  FF6
0B054:  MOVLW  10
0B056:  MOVWF  FF7
0B058:  MOVLW  00
0B05A:  MOVWF  FF8
0B05C:  MOVLW  0E
0B05E:  MOVWF  x4C
0B060:  MOVLB  0
0B062:  CALL   49A2
0B066:  MOVFF  447,44C
0B06A:  MOVLW  1B
0B06C:  MOVLB  4
0B06E:  MOVWF  x4D
0B070:  MOVLB  0
0B072:  CALL   4A00
0B076:  MOVLW  22
0B078:  BTFSS  F9E.4
0B07A:  BRA    B078
0B07C:  MOVWF  FAD
....................          SendDataDisplay(); 
0B07E:  CALL   39EA
....................          CicloLibre=RX_Buffer[4]; 
0B082:  MOVFF  34,345
....................       }else if(CicloLibre==0x00){ 
0B086:  BRA    B334
0B088:  MOVLB  3
0B08A:  MOVF   x45,F
0B08C:  BNZ   B0F8
....................          printf("ciclo.txt=\"CICLO P--\""); 
0B08E:  MOVLW  18
0B090:  MOVWF  FF6
0B092:  MOVLW  10
0B094:  MOVWF  FF7
0B096:  MOVLW  00
0B098:  MOVWF  FF8
0B09A:  MOVLB  0
0B09C:  CALL   39B8
....................          SendDataDisplay();           
0B0A0:  CALL   39EA
....................          printf("temp.txt=\"--\""); 
0B0A4:  MOVLW  2E
0B0A6:  MOVWF  FF6
0B0A8:  MOVLW  10
0B0AA:  MOVWF  FF7
0B0AC:  MOVLW  00
0B0AE:  MOVWF  FF8
0B0B0:  CALL   39B8
....................          SendDataDisplay(); 
0B0B4:  CALL   39EA
....................          printf("test.txt=\"--:--\""); 
0B0B8:  MOVLW  3C
0B0BA:  MOVWF  FF6
0B0BC:  MOVLW  10
0B0BE:  MOVWF  FF7
0B0C0:  MOVLW  00
0B0C2:  MOVWF  FF8
0B0C4:  CALL   39B8
....................          SendDataDisplay(); 
0B0C8:  CALL   39EA
....................          printf("tsec.txt=\"--:--\""); 
0B0CC:  MOVLW  4E
0B0CE:  MOVWF  FF6
0B0D0:  MOVLW  10
0B0D2:  MOVWF  FF7
0B0D4:  MOVLW  00
0B0D6:  MOVWF  FF8
0B0D8:  CALL   39B8
....................          SendDataDisplay(); 
0B0DC:  CALL   39EA
....................          printf("desfogue.txt=\"--\""); 
0B0E0:  MOVLW  60
0B0E2:  MOVWF  FF6
0B0E4:  MOVLW  10
0B0E6:  MOVWF  FF7
0B0E8:  MOVLW  00
0B0EA:  MOVWF  FF8
0B0EC:  CALL   39B8
....................          SendDataDisplay(); 
0B0F0:  CALL   39EA
....................       }else if(CicloLibre>0 && CicloLibre<4){ 
0B0F4:  BRA    B334
0B0F6:  MOVLB  3
0B0F8:  MOVF   x45,F
0B0FA:  BTFSC  FD8.2
0B0FC:  BRA    B336
0B0FE:  MOVF   x45,W
0B100:  SUBLW  03
0B102:  BTFSS  FD8.0
0B104:  BRA    B336
....................          printf("ciclo.txt=\"CICLO P%02u\"",CicloLibre+0x04); 
0B106:  MOVLW  04
0B108:  ADDWF  x45,W
0B10A:  MOVLB  4
0B10C:  MOVWF  x47
0B10E:  MOVLW  72
0B110:  MOVWF  FF6
0B112:  MOVLW  10
0B114:  MOVWF  FF7
0B116:  MOVLW  00
0B118:  MOVWF  FF8
0B11A:  MOVLW  12
0B11C:  MOVWF  x4C
0B11E:  MOVLB  0
0B120:  CALL   49A2
0B124:  MOVFF  447,44C
0B128:  MOVLW  01
0B12A:  MOVLB  4
0B12C:  MOVWF  x4D
0B12E:  MOVLB  0
0B130:  CALL   4A00
0B134:  MOVLW  22
0B136:  BTFSS  F9E.4
0B138:  BRA    B136
0B13A:  MOVWF  FAD
....................          SendDataDisplay();           
0B13C:  CALL   39EA
....................          printf("temp.txt=\"%u\"",CiclosPersonalizados[CicloLibre-1].Temperatura); 
0B140:  MOVLW  01
0B142:  MOVLB  3
0B144:  SUBWF  x45,W
0B146:  MULLW  0A
0B148:  MOVF   FF3,W
0B14A:  MOVLB  4
0B14C:  CLRF   x48
0B14E:  MOVWF  x47
0B150:  MOVLW  1F
0B152:  ADDWF  x47,W
0B154:  MOVWF  FE9
0B156:  MOVLW  04
0B158:  ADDWFC x48,W
0B15A:  MOVWF  FEA
0B15C:  MOVFF  FEF,447
0B160:  MOVLW  8A
0B162:  MOVWF  FF6
0B164:  MOVLW  10
0B166:  MOVWF  FF7
0B168:  MOVLW  00
0B16A:  MOVWF  FF8
0B16C:  MOVLW  0A
0B16E:  MOVWF  x4C
0B170:  MOVLB  0
0B172:  CALL   49A2
0B176:  MOVFF  447,44C
0B17A:  MOVLW  1B
0B17C:  MOVLB  4
0B17E:  MOVWF  x4D
0B180:  MOVLB  0
0B182:  CALL   4A00
0B186:  MOVLW  22
0B188:  BTFSS  F9E.4
0B18A:  BRA    B188
0B18C:  MOVWF  FAD
....................          SendDataDisplay(); 
0B18E:  CALL   39EA
....................          printf("test.txt=\"%02u:%02u\"",CiclosPersonalizados[CicloLibre-1].Minutoest,CiclosPersonalizados[CicloLibre-1].Segundoest); 
0B192:  MOVLW  01
0B194:  MOVLB  3
0B196:  SUBWF  x45,W
0B198:  MULLW  0A
0B19A:  MOVF   FF3,W
0B19C:  MOVLB  4
0B19E:  CLRF   x48
0B1A0:  MOVWF  x47
0B1A2:  MOVLW  09
0B1A4:  ADDWF  x47,W
0B1A6:  MOVWF  01
0B1A8:  MOVLW  00
0B1AA:  ADDWFC x48,W
0B1AC:  MOVWF  03
0B1AE:  MOVF   01,W
0B1B0:  ADDLW  1F
0B1B2:  MOVWF  FE9
0B1B4:  MOVLW  04
0B1B6:  ADDWFC 03,W
0B1B8:  MOVWF  FEA
0B1BA:  MOVFF  FEF,447
0B1BE:  MOVLW  01
0B1C0:  MOVLB  3
0B1C2:  SUBWF  x45,W
0B1C4:  MULLW  0A
0B1C6:  MOVF   FF3,W
0B1C8:  MOVLB  4
0B1CA:  CLRF   x49
0B1CC:  MOVWF  x48
0B1CE:  MOVLW  03
0B1D0:  ADDWF  x48,W
0B1D2:  MOVWF  01
0B1D4:  MOVLW  00
0B1D6:  ADDWFC x49,W
0B1D8:  MOVWF  03
0B1DA:  MOVF   01,W
0B1DC:  ADDLW  1F
0B1DE:  MOVWF  FE9
0B1E0:  MOVLW  04
0B1E2:  ADDWFC 03,W
0B1E4:  MOVWF  FEA
0B1E6:  MOVFF  FEF,448
0B1EA:  MOVLW  98
0B1EC:  MOVWF  FF6
0B1EE:  MOVLW  10
0B1F0:  MOVWF  FF7
0B1F2:  MOVLW  00
0B1F4:  MOVWF  FF8
0B1F6:  MOVLW  0A
0B1F8:  MOVWF  x4C
0B1FA:  MOVLB  0
0B1FC:  CALL   49A2
0B200:  MOVFF  447,44C
0B204:  MOVLW  01
0B206:  MOVLB  4
0B208:  MOVWF  x4D
0B20A:  MOVLB  0
0B20C:  CALL   4A00
0B210:  MOVLW  3A
0B212:  BTFSS  F9E.4
0B214:  BRA    B212
0B216:  MOVWF  FAD
0B218:  MOVFF  448,44C
0B21C:  MOVLW  01
0B21E:  MOVLB  4
0B220:  MOVWF  x4D
0B222:  MOVLB  0
0B224:  CALL   4A00
0B228:  MOVLW  22
0B22A:  BTFSS  F9E.4
0B22C:  BRA    B22A
0B22E:  MOVWF  FAD
....................          SendDataDisplay(); 
0B230:  CALL   39EA
....................          printf("tsec.txt=\"%02u:%02u\"",CiclosPersonalizados[CicloLibre-1].Minutosec,CiclosPersonalizados[CicloLibre-1].Segundosec); 
0B234:  MOVLW  01
0B236:  MOVLB  3
0B238:  SUBWF  x45,W
0B23A:  MULLW  0A
0B23C:  MOVF   FF3,W
0B23E:  MOVLB  4
0B240:  CLRF   x48
0B242:  MOVWF  x47
0B244:  MOVLW  04
0B246:  ADDWF  x47,W
0B248:  MOVWF  01
0B24A:  MOVLW  00
0B24C:  ADDWFC x48,W
0B24E:  MOVWF  03
0B250:  MOVF   01,W
0B252:  ADDLW  1F
0B254:  MOVWF  FE9
0B256:  MOVLW  04
0B258:  ADDWFC 03,W
0B25A:  MOVWF  FEA
0B25C:  MOVFF  FEF,447
0B260:  MOVLW  01
0B262:  MOVLB  3
0B264:  SUBWF  x45,W
0B266:  MULLW  0A
0B268:  MOVF   FF3,W
0B26A:  MOVLB  4
0B26C:  CLRF   x49
0B26E:  MOVWF  x48
0B270:  MOVLW  05
0B272:  ADDWF  x48,W
0B274:  MOVWF  01
0B276:  MOVLW  00
0B278:  ADDWFC x49,W
0B27A:  MOVWF  03
0B27C:  MOVF   01,W
0B27E:  ADDLW  1F
0B280:  MOVWF  FE9
0B282:  MOVLW  04
0B284:  ADDWFC 03,W
0B286:  MOVWF  FEA
0B288:  MOVFF  FEF,448
0B28C:  MOVLW  AE
0B28E:  MOVWF  FF6
0B290:  MOVLW  10
0B292:  MOVWF  FF7
0B294:  MOVLW  00
0B296:  MOVWF  FF8
0B298:  MOVLW  0A
0B29A:  MOVWF  x4C
0B29C:  MOVLB  0
0B29E:  CALL   49A2
0B2A2:  MOVFF  447,44C
0B2A6:  MOVLW  01
0B2A8:  MOVLB  4
0B2AA:  MOVWF  x4D
0B2AC:  MOVLB  0
0B2AE:  CALL   4A00
0B2B2:  MOVLW  3A
0B2B4:  BTFSS  F9E.4
0B2B6:  BRA    B2B4
0B2B8:  MOVWF  FAD
0B2BA:  MOVFF  448,44C
0B2BE:  MOVLW  01
0B2C0:  MOVLB  4
0B2C2:  MOVWF  x4D
0B2C4:  MOVLB  0
0B2C6:  CALL   4A00
0B2CA:  MOVLW  22
0B2CC:  BTFSS  F9E.4
0B2CE:  BRA    B2CC
0B2D0:  MOVWF  FAD
....................          SendDataDisplay(); 
0B2D2:  CALL   39EA
....................          printf("desfogue.txt=\"%u\"",CiclosPersonalizados[CicloLibre-1].NivelDesfogue); 
0B2D6:  MOVLW  01
0B2D8:  MOVLB  3
0B2DA:  SUBWF  x45,W
0B2DC:  MULLW  0A
0B2DE:  MOVF   FF3,W
0B2E0:  MOVLB  4
0B2E2:  CLRF   x48
0B2E4:  MOVWF  x47
0B2E6:  MOVLW  08
0B2E8:  ADDWF  x47,W
0B2EA:  MOVWF  01
0B2EC:  MOVLW  00
0B2EE:  ADDWFC x48,W
0B2F0:  MOVWF  03
0B2F2:  MOVF   01,W
0B2F4:  ADDLW  1F
0B2F6:  MOVWF  FE9
0B2F8:  MOVLW  04
0B2FA:  ADDWFC 03,W
0B2FC:  MOVWF  FEA
0B2FE:  MOVFF  FEF,447
0B302:  MOVLW  C4
0B304:  MOVWF  FF6
0B306:  MOVLW  10
0B308:  MOVWF  FF7
0B30A:  MOVLW  00
0B30C:  MOVWF  FF8
0B30E:  MOVLW  0E
0B310:  MOVWF  x4C
0B312:  MOVLB  0
0B314:  CALL   49A2
0B318:  MOVFF  447,44C
0B31C:  MOVLW  1B
0B31E:  MOVLB  4
0B320:  MOVWF  x4D
0B322:  MOVLB  0
0B324:  CALL   4A00
0B328:  MOVLW  22
0B32A:  BTFSS  F9E.4
0B32C:  BRA    B32A
0B32E:  MOVWF  FAD
....................          SendDataDisplay(); 
0B330:  CALL   39EA
0B334:  MOVLB  3
....................       } 
....................        
....................       if(RIGHT){ 
0B336:  BSF    F93.1
0B338:  BTFSC  F81.1
0B33A:  BRA    B352
....................          delay_ms(100); 
0B33C:  MOVLW  64
0B33E:  MOVLB  4
0B340:  MOVWF  x5C
0B342:  MOVLB  0
0B344:  CALL   1AF4
....................          if(RIGHT){ 
0B348:  BSF    F93.1
0B34A:  BTFSC  F81.1
0B34C:  BRA    B354
....................             CicloLibre++; 
0B34E:  MOVLB  3
0B350:  INCF   x45,F
0B352:  MOVLB  0
....................          } 
....................       }       
....................        
....................       if(CicloLibre<1) 
0B354:  MOVLB  3
0B356:  MOVF   x45,F
0B358:  BNZ   B35E
....................          CicloLibre=1; 
0B35A:  MOVLW  01
0B35C:  MOVWF  x45
....................       if(CicloLibre>4) 
0B35E:  MOVF   x45,W
0B360:  SUBLW  04
0B362:  BC    B368
....................          CicloLibre=4; 
0B364:  MOVLW  04
0B366:  MOVWF  x45
....................        
....................       if(RX_Buffer[4]==0xa0 || LEFT){//a0, Menu Principal 
0B368:  MOVF   34,W
0B36A:  SUBLW  A0
0B36C:  BZ    B374
0B36E:  BSF    F93.0
0B370:  BTFSC  F81.0
0B372:  BRA    B3AC
....................          delay_ms(100); 
0B374:  MOVLW  64
0B376:  MOVLB  4
0B378:  MOVWF  x5C
0B37A:  MOVLB  0
0B37C:  CALL   1AF4
....................          if(RX_Buffer[4]==0xa0 || LEFT){ 
0B380:  MOVF   34,W
0B382:  SUBLW  A0
0B384:  BZ    B38C
0B386:  BSF    F93.0
0B388:  BTFSC  F81.0
0B38A:  BRA    B3AA
....................             printf("page MenuPrincipal"); 
0B38C:  MOVLW  D6
0B38E:  MOVWF  FF6
0B390:  MOVLW  10
0B392:  MOVWF  FF7
0B394:  MOVLW  00
0B396:  MOVWF  FF8
0B398:  CALL   39B8
....................             SendDataDisplay();      
0B39C:  CALL   39EA
....................             PantallaPrincipal=0; 
0B3A0:  MOVLB  2
0B3A2:  CLRF   xE4
....................             Op=OFF; 
0B3A4:  MOVLB  0
0B3A6:  BCF    xA2.2
....................             Op2=OFF; 
0B3A8:  BCF    xA2.3
0B3AA:  MOVLB  3
....................          } 
....................       } 
....................        
....................       if(RX_Buffer[4]==0x20 && CicloLibre>0){//20, Temperatura 
0B3AC:  MOVF   34,W
0B3AE:  SUBLW  20
0B3B0:  BNZ   B3EE
0B3B2:  MOVF   x45,F
0B3B4:  BZ    B3EE
....................             printf("page Temperatura"); 
0B3B6:  MOVLW  EA
0B3B8:  MOVWF  FF6
0B3BA:  MOVLW  10
0B3BC:  MOVWF  FF7
0B3BE:  MOVLW  00
0B3C0:  MOVWF  FF8
0B3C2:  MOVLB  0
0B3C4:  CALL   39B8
....................             SendDataDisplay();      
0B3C8:  CALL   39EA
....................             Setpoint=CiclosPersonalizados[CicloLibre-1].Temperatura; 
0B3CC:  MOVLW  01
0B3CE:  MOVLB  3
0B3D0:  SUBWF  x45,W
0B3D2:  MULLW  0A
0B3D4:  MOVF   FF3,W
0B3D6:  MOVLB  4
0B3D8:  CLRF   x48
0B3DA:  MOVWF  x47
0B3DC:  MOVLW  1F
0B3DE:  ADDWF  x47,W
0B3E0:  MOVWF  FE9
0B3E2:  MOVLW  04
0B3E4:  ADDWFC x48,W
0B3E6:  MOVWF  FEA
0B3E8:  MOVFF  FEF,36C
0B3EC:  MOVLB  3
....................       } 
....................        
....................       if(RX_Buffer[4]==0x30 && CicloLibre>0){//30, Test 
0B3EE:  MOVF   34,W
0B3F0:  SUBLW  30
0B3F2:  BTFSS  FD8.2
0B3F4:  BRA    B510
0B3F6:  MOVF   x45,F
0B3F8:  BTFSC  FD8.2
0B3FA:  BRA    B510
....................             printf("page TiempoEst"); 
0B3FC:  MOVLW  FC
0B3FE:  MOVWF  FF6
0B400:  MOVLW  10
0B402:  MOVWF  FF7
0B404:  MOVLW  00
0B406:  MOVWF  FF8
0B408:  MOVLB  0
0B40A:  CALL   39B8
....................             SendDataDisplay();      
0B40E:  CALL   39EA
....................             Testerilizacionp[3]=CiclosPersonalizados[CicloLibre-1].Minutoest/10; 
0B412:  MOVLW  01
0B414:  MOVLB  3
0B416:  SUBWF  x45,W
0B418:  MULLW  0A
0B41A:  MOVF   FF3,W
0B41C:  MOVLB  4
0B41E:  CLRF   x48
0B420:  MOVWF  x47
0B422:  MOVLW  09
0B424:  ADDWF  x47,W
0B426:  MOVWF  01
0B428:  MOVLW  00
0B42A:  ADDWFC x48,W
0B42C:  MOVWF  03
0B42E:  MOVF   01,W
0B430:  ADDLW  1F
0B432:  MOVWF  FE9
0B434:  MOVLW  04
0B436:  ADDWFC 03,W
0B438:  MOVWF  FEA
0B43A:  MOVFF  FEF,451
0B43E:  MOVLW  0A
0B440:  MOVWF  x52
0B442:  MOVLB  0
0B444:  CALL   49D4
0B448:  MOVFF  01,C0
....................             Testerilizacionp[2]=CiclosPersonalizados[CicloLibre-1].Minutoest-(Testerilizacionp[3]*10); 
0B44C:  MOVLW  01
0B44E:  MOVLB  3
0B450:  SUBWF  x45,W
0B452:  MULLW  0A
0B454:  MOVF   FF3,W
0B456:  MOVLB  4
0B458:  CLRF   x48
0B45A:  MOVWF  x47
0B45C:  MOVLW  09
0B45E:  ADDWF  x47,W
0B460:  MOVWF  01
0B462:  MOVLW  00
0B464:  ADDWFC x48,W
0B466:  MOVWF  03
0B468:  MOVF   01,W
0B46A:  ADDLW  1F
0B46C:  MOVWF  FE9
0B46E:  MOVLW  04
0B470:  ADDWFC 03,W
0B472:  MOVWF  FEA
0B474:  MOVFF  FEF,447
0B478:  MOVFF  C0,449
0B47C:  MOVLW  0A
0B47E:  MOVWF  x4A
0B480:  MOVLB  0
0B482:  CALL   2E72
0B486:  MOVF   01,W
0B488:  MOVLB  4
0B48A:  SUBWF  x47,W
0B48C:  MOVLB  0
0B48E:  MOVWF  xBF
....................             Testerilizacionp[1]=CiclosPersonalizados[CicloLibre-1].Segundoest/10; 
0B490:  MOVLW  01
0B492:  MOVLB  3
0B494:  SUBWF  x45,W
0B496:  MULLW  0A
0B498:  MOVF   FF3,W
0B49A:  MOVLB  4
0B49C:  CLRF   x48
0B49E:  MOVWF  x47
0B4A0:  MOVLW  03
0B4A2:  ADDWF  x47,W
0B4A4:  MOVWF  01
0B4A6:  MOVLW  00
0B4A8:  ADDWFC x48,W
0B4AA:  MOVWF  03
0B4AC:  MOVF   01,W
0B4AE:  ADDLW  1F
0B4B0:  MOVWF  FE9
0B4B2:  MOVLW  04
0B4B4:  ADDWFC 03,W
0B4B6:  MOVWF  FEA
0B4B8:  MOVFF  FEF,451
0B4BC:  MOVLW  0A
0B4BE:  MOVWF  x52
0B4C0:  MOVLB  0
0B4C2:  CALL   49D4
0B4C6:  MOVFF  01,BE
....................             Testerilizacionp[0]=CiclosPersonalizados[CicloLibre-1].Segundoest-(Testerilizacionp[1]*10); 
0B4CA:  MOVLW  01
0B4CC:  MOVLB  3
0B4CE:  SUBWF  x45,W
0B4D0:  MULLW  0A
0B4D2:  MOVF   FF3,W
0B4D4:  MOVLB  4
0B4D6:  CLRF   x48
0B4D8:  MOVWF  x47
0B4DA:  MOVLW  03
0B4DC:  ADDWF  x47,W
0B4DE:  MOVWF  01
0B4E0:  MOVLW  00
0B4E2:  ADDWFC x48,W
0B4E4:  MOVWF  03
0B4E6:  MOVF   01,W
0B4E8:  ADDLW  1F
0B4EA:  MOVWF  FE9
0B4EC:  MOVLW  04
0B4EE:  ADDWFC 03,W
0B4F0:  MOVWF  FEA
0B4F2:  MOVFF  FEF,447
0B4F6:  MOVFF  BE,449
0B4FA:  MOVLW  0A
0B4FC:  MOVWF  x4A
0B4FE:  MOVLB  0
0B500:  CALL   2E72
0B504:  MOVF   01,W
0B506:  MOVLB  4
0B508:  SUBWF  x47,W
0B50A:  MOVLB  0
0B50C:  MOVWF  xBD
0B50E:  MOVLB  3
....................       } 
....................        
....................       if(RX_Buffer[4]==0x40 && CicloLibre>0){//30, Test 
0B510:  MOVF   34,W
0B512:  SUBLW  40
0B514:  BTFSS  FD8.2
0B516:  BRA    B632
0B518:  MOVF   x45,F
0B51A:  BTFSC  FD8.2
0B51C:  BRA    B632
....................             printf("page TiempoSec"); 
0B51E:  MOVLW  0C
0B520:  MOVWF  FF6
0B522:  MOVLW  11
0B524:  MOVWF  FF7
0B526:  MOVLW  00
0B528:  MOVWF  FF8
0B52A:  MOVLB  0
0B52C:  CALL   39B8
....................             SendDataDisplay();      
0B530:  CALL   39EA
....................             Tsecadop[3]=CiclosPersonalizados[CicloLibre-1].Minutosec/10; 
0B534:  MOVLW  01
0B536:  MOVLB  3
0B538:  SUBWF  x45,W
0B53A:  MULLW  0A
0B53C:  MOVF   FF3,W
0B53E:  MOVLB  4
0B540:  CLRF   x48
0B542:  MOVWF  x47
0B544:  MOVLW  04
0B546:  ADDWF  x47,W
0B548:  MOVWF  01
0B54A:  MOVLW  00
0B54C:  ADDWFC x48,W
0B54E:  MOVWF  03
0B550:  MOVF   01,W
0B552:  ADDLW  1F
0B554:  MOVWF  FE9
0B556:  MOVLW  04
0B558:  ADDWFC 03,W
0B55A:  MOVWF  FEA
0B55C:  MOVFF  FEF,451
0B560:  MOVLW  0A
0B562:  MOVWF  x52
0B564:  MOVLB  0
0B566:  CALL   49D4
0B56A:  MOVFF  01,C9
....................             Tsecadop[2]=CiclosPersonalizados[CicloLibre-1].Minutosec-(Tsecadop[3]*10); 
0B56E:  MOVLW  01
0B570:  MOVLB  3
0B572:  SUBWF  x45,W
0B574:  MULLW  0A
0B576:  MOVF   FF3,W
0B578:  MOVLB  4
0B57A:  CLRF   x48
0B57C:  MOVWF  x47
0B57E:  MOVLW  04
0B580:  ADDWF  x47,W
0B582:  MOVWF  01
0B584:  MOVLW  00
0B586:  ADDWFC x48,W
0B588:  MOVWF  03
0B58A:  MOVF   01,W
0B58C:  ADDLW  1F
0B58E:  MOVWF  FE9
0B590:  MOVLW  04
0B592:  ADDWFC 03,W
0B594:  MOVWF  FEA
0B596:  MOVFF  FEF,447
0B59A:  MOVFF  C9,449
0B59E:  MOVLW  0A
0B5A0:  MOVWF  x4A
0B5A2:  MOVLB  0
0B5A4:  CALL   2E72
0B5A8:  MOVF   01,W
0B5AA:  MOVLB  4
0B5AC:  SUBWF  x47,W
0B5AE:  MOVLB  0
0B5B0:  MOVWF  xC8
....................             Tsecadop[1]=CiclosPersonalizados[CicloLibre-1].Segundosec/10; 
0B5B2:  MOVLW  01
0B5B4:  MOVLB  3
0B5B6:  SUBWF  x45,W
0B5B8:  MULLW  0A
0B5BA:  MOVF   FF3,W
0B5BC:  MOVLB  4
0B5BE:  CLRF   x48
0B5C0:  MOVWF  x47
0B5C2:  MOVLW  05
0B5C4:  ADDWF  x47,W
0B5C6:  MOVWF  01
0B5C8:  MOVLW  00
0B5CA:  ADDWFC x48,W
0B5CC:  MOVWF  03
0B5CE:  MOVF   01,W
0B5D0:  ADDLW  1F
0B5D2:  MOVWF  FE9
0B5D4:  MOVLW  04
0B5D6:  ADDWFC 03,W
0B5D8:  MOVWF  FEA
0B5DA:  MOVFF  FEF,451
0B5DE:  MOVLW  0A
0B5E0:  MOVWF  x52
0B5E2:  MOVLB  0
0B5E4:  CALL   49D4
0B5E8:  MOVFF  01,C7
....................             Tsecadop[0]=CiclosPersonalizados[CicloLibre-1].Segundosec-(Tsecadop[1]*10); 
0B5EC:  MOVLW  01
0B5EE:  MOVLB  3
0B5F0:  SUBWF  x45,W
0B5F2:  MULLW  0A
0B5F4:  MOVF   FF3,W
0B5F6:  MOVLB  4
0B5F8:  CLRF   x48
0B5FA:  MOVWF  x47
0B5FC:  MOVLW  05
0B5FE:  ADDWF  x47,W
0B600:  MOVWF  01
0B602:  MOVLW  00
0B604:  ADDWFC x48,W
0B606:  MOVWF  03
0B608:  MOVF   01,W
0B60A:  ADDLW  1F
0B60C:  MOVWF  FE9
0B60E:  MOVLW  04
0B610:  ADDWFC 03,W
0B612:  MOVWF  FEA
0B614:  MOVFF  FEF,447
0B618:  MOVFF  C7,449
0B61C:  MOVLW  0A
0B61E:  MOVWF  x4A
0B620:  MOVLB  0
0B622:  CALL   2E72
0B626:  MOVF   01,W
0B628:  MOVLB  4
0B62A:  SUBWF  x47,W
0B62C:  MOVLB  0
0B62E:  MOVWF  xC6
0B630:  MOVLB  3
....................       } 
....................        
....................       if(RX_Buffer[4]==0x80 && CicloLibre>0){//80, NivelDesfogue          
0B632:  MOVF   34,W
0B634:  SUBLW  80
0B636:  BNZ   B686
0B638:  MOVF   x45,F
0B63A:  BZ    B686
....................             printf("page Nivel"); 
0B63C:  MOVLW  1C
0B63E:  MOVWF  FF6
0B640:  MOVLW  11
0B642:  MOVWF  FF7
0B644:  MOVLW  00
0B646:  MOVWF  FF8
0B648:  MOVLB  0
0B64A:  CALL   39B8
....................             SendDataDisplay();      
0B64E:  CALL   39EA
....................             Nivel=CiclosPersonalizados[CicloLibre-1].NivelDesfogue;          
0B652:  MOVLW  01
0B654:  MOVLB  3
0B656:  SUBWF  x45,W
0B658:  MULLW  0A
0B65A:  MOVF   FF3,W
0B65C:  MOVLB  4
0B65E:  CLRF   x48
0B660:  MOVWF  x47
0B662:  MOVLW  08
0B664:  ADDWF  x47,W
0B666:  MOVWF  01
0B668:  MOVLW  00
0B66A:  ADDWFC x48,W
0B66C:  MOVWF  03
0B66E:  MOVF   01,W
0B670:  ADDLW  1F
0B672:  MOVWF  FE9
0B674:  MOVLW  04
0B676:  ADDWFC 03,W
0B678:  MOVWF  FEA
0B67A:  MOVF   FEF,W
0B67C:  CLRF   03
0B67E:  MOVLB  3
0B680:  MOVWF  x7B
0B682:  MOVFF  03,37C
....................       } 
....................        
....................       if((RX_Buffer[4]==0x70 || UP)&& CicloLibre>0){//70, Iniciar Ciclo 
0B686:  MOVF   34,W
0B688:  SUBLW  70
0B68A:  BZ    B692
0B68C:  BSF    F93.3
0B68E:  BTFSC  F81.3
0B690:  BRA    BBA8
0B692:  MOVF   x45,F
0B694:  BTFSC  FD8.2
0B696:  BRA    BBA8
....................          delay_ms(100); 
0B698:  MOVLW  64
0B69A:  MOVLB  4
0B69C:  MOVWF  x5C
0B69E:  MOVLB  0
0B6A0:  CALL   1AF4
....................          if((RX_Buffer[4]==0x70 || UP)&& CicloLibre>0){ 
0B6A4:  MOVF   34,W
0B6A6:  SUBLW  70
0B6A8:  BZ    B6B0
0B6AA:  BSF    F93.3
0B6AC:  BTFSC  F81.3
0B6AE:  BRA    BBA6
0B6B0:  MOVLB  3
0B6B2:  MOVF   x45,F
0B6B4:  BTFSS  FD8.2
0B6B6:  BRA    B6BC
0B6B8:  MOVLB  0
0B6BA:  BRA    BBA6
....................             printf("page Funcionamiento"); 
0B6BC:  MOVLW  28
0B6BE:  MOVWF  FF6
0B6C0:  MOVLW  11
0B6C2:  MOVWF  FF7
0B6C4:  MOVLW  00
0B6C6:  MOVWF  FF8
0B6C8:  MOVLB  0
0B6CA:  CALL   39B8
....................             SendDataDisplay();        
0B6CE:  CALL   39EA
....................             Libre=ON; 
0B6D2:  BSF    xA4.1
....................             if(CiclosPersonalizados[CicloLibre-1].NivelDesfogue>5){ 
0B6D4:  MOVLW  01
0B6D6:  MOVLB  3
0B6D8:  SUBWF  x45,W
0B6DA:  MULLW  0A
0B6DC:  MOVF   FF3,W
0B6DE:  MOVLB  4
0B6E0:  CLRF   x48
0B6E2:  MOVWF  x47
0B6E4:  MOVLW  08
0B6E6:  ADDWF  x47,W
0B6E8:  MOVWF  01
0B6EA:  MOVLW  00
0B6EC:  ADDWFC x48,W
0B6EE:  MOVWF  03
0B6F0:  MOVF   01,W
0B6F2:  ADDLW  1F
0B6F4:  MOVWF  FE9
0B6F6:  MOVLW  04
0B6F8:  ADDWFC 03,W
0B6FA:  MOVWF  FEA
0B6FC:  MOVF   FEF,W
0B6FE:  SUBLW  05
0B700:  BTFSC  FD8.0
0B702:  BRA    B932
....................                ConfiguraCiclo(extraeDecima(CiclosPersonalizados[CicloLibre-1].Segundoest), 
....................                            CiclosPersonalizados[CicloLibre-1].Segundoest/10, 
....................                            extraeDecima(CiclosPersonalizados[CicloLibre-1].Minutoest), 
....................                            CiclosPersonalizados[CicloLibre-1].Minutoest/10, 
....................                            extraeDecima(CiclosPersonalizados[CicloLibre-1].Segundosec), 
....................                            CiclosPersonalizados[CicloLibre-1].Segundosec/10, 
....................                            extraeDecima(CiclosPersonalizados[CicloLibre-1].Minutosec), 
....................                            CiclosPersonalizados[CicloLibre-1].Minutosec/10,0,CicloLibre+4,CiclosPersonalizados[CicloLibre-1].Temperatura);             
0B704:  MOVLW  01
0B706:  MOVLB  3
0B708:  SUBWF  x45,W
0B70A:  MULLW  0A
0B70C:  MOVF   FF3,W
0B70E:  MOVLB  4
0B710:  CLRF   x48
0B712:  MOVWF  x47
0B714:  MOVLW  03
0B716:  ADDWF  x47,W
0B718:  MOVWF  01
0B71A:  MOVLW  00
0B71C:  ADDWFC x48,W
0B71E:  MOVWF  03
0B720:  MOVF   01,W
0B722:  ADDLW  1F
0B724:  MOVWF  FE9
0B726:  MOVLW  04
0B728:  ADDWFC 03,W
0B72A:  MOVWF  FEA
0B72C:  MOVFF  FEF,447
0B730:  MOVFF  447,44E
0B734:  MOVLB  0
0B736:  CALL   5522
0B73A:  MOVFF  01,447
0B73E:  MOVLW  01
0B740:  MOVLB  3
0B742:  SUBWF  x45,W
0B744:  MULLW  0A
0B746:  MOVF   FF3,W
0B748:  MOVLB  4
0B74A:  CLRF   x49
0B74C:  MOVWF  x48
0B74E:  MOVLW  03
0B750:  ADDWF  x48,W
0B752:  MOVWF  01
0B754:  MOVLW  00
0B756:  ADDWFC x49,W
0B758:  MOVWF  03
0B75A:  MOVF   01,W
0B75C:  ADDLW  1F
0B75E:  MOVWF  FE9
0B760:  MOVLW  04
0B762:  ADDWFC 03,W
0B764:  MOVWF  FEA
0B766:  MOVFF  FEF,451
0B76A:  MOVLW  0A
0B76C:  MOVWF  x52
0B76E:  MOVLB  0
0B770:  CALL   49D4
0B774:  MOVFF  01,448
0B778:  MOVLW  01
0B77A:  MOVLB  3
0B77C:  SUBWF  x45,W
0B77E:  MULLW  0A
0B780:  MOVF   FF3,W
0B782:  MOVLB  4
0B784:  CLRF   x4A
0B786:  MOVWF  x49
0B788:  MOVLW  09
0B78A:  ADDWF  x49,W
0B78C:  MOVWF  01
0B78E:  MOVLW  00
0B790:  ADDWFC x4A,W
0B792:  MOVWF  03
0B794:  MOVF   01,W
0B796:  ADDLW  1F
0B798:  MOVWF  FE9
0B79A:  MOVLW  04
0B79C:  ADDWFC 03,W
0B79E:  MOVWF  FEA
0B7A0:  MOVFF  FEF,449
0B7A4:  MOVFF  449,44E
0B7A8:  MOVLB  0
0B7AA:  CALL   5522
0B7AE:  MOVFF  01,449
0B7B2:  MOVLW  01
0B7B4:  MOVLB  3
0B7B6:  SUBWF  x45,W
0B7B8:  MULLW  0A
0B7BA:  MOVF   FF3,W
0B7BC:  MOVLB  4
0B7BE:  CLRF   x4B
0B7C0:  MOVWF  x4A
0B7C2:  MOVLW  09
0B7C4:  ADDWF  x4A,W
0B7C6:  MOVWF  01
0B7C8:  MOVLW  00
0B7CA:  ADDWFC x4B,W
0B7CC:  MOVWF  03
0B7CE:  MOVF   01,W
0B7D0:  ADDLW  1F
0B7D2:  MOVWF  FE9
0B7D4:  MOVLW  04
0B7D6:  ADDWFC 03,W
0B7D8:  MOVWF  FEA
0B7DA:  MOVFF  FEF,451
0B7DE:  MOVLW  0A
0B7E0:  MOVWF  x52
0B7E2:  MOVLB  0
0B7E4:  CALL   49D4
0B7E8:  MOVFF  01,44A
0B7EC:  MOVLW  01
0B7EE:  MOVLB  3
0B7F0:  SUBWF  x45,W
0B7F2:  MULLW  0A
0B7F4:  MOVF   FF3,W
0B7F6:  MOVLB  4
0B7F8:  CLRF   x4C
0B7FA:  MOVWF  x4B
0B7FC:  MOVLW  05
0B7FE:  ADDWF  x4B,W
0B800:  MOVWF  01
0B802:  MOVLW  00
0B804:  ADDWFC x4C,W
0B806:  MOVWF  03
0B808:  MOVF   01,W
0B80A:  ADDLW  1F
0B80C:  MOVWF  FE9
0B80E:  MOVLW  04
0B810:  ADDWFC 03,W
0B812:  MOVWF  FEA
0B814:  MOVFF  FEF,44B
0B818:  MOVFF  44B,44E
0B81C:  MOVLB  0
0B81E:  CALL   5522
0B822:  MOVFF  01,44B
0B826:  MOVLW  01
0B828:  MOVLB  3
0B82A:  SUBWF  x45,W
0B82C:  MULLW  0A
0B82E:  MOVF   FF3,W
0B830:  MOVLB  4
0B832:  CLRF   x4D
0B834:  MOVWF  x4C
0B836:  MOVLW  05
0B838:  ADDWF  x4C,W
0B83A:  MOVWF  01
0B83C:  MOVLW  00
0B83E:  ADDWFC x4D,W
0B840:  MOVWF  03
0B842:  MOVF   01,W
0B844:  ADDLW  1F
0B846:  MOVWF  FE9
0B848:  MOVLW  04
0B84A:  ADDWFC 03,W
0B84C:  MOVWF  FEA
0B84E:  MOVFF  FEF,451
0B852:  MOVLW  0A
0B854:  MOVWF  x52
0B856:  MOVLB  0
0B858:  CALL   49D4
0B85C:  MOVFF  01,44C
0B860:  MOVLW  01
0B862:  MOVLB  3
0B864:  SUBWF  x45,W
0B866:  MULLW  0A
0B868:  MOVF   FF3,W
0B86A:  MOVLB  4
0B86C:  CLRF   x4E
0B86E:  MOVWF  x4D
0B870:  MOVLW  04
0B872:  ADDWF  x4D,W
0B874:  MOVWF  01
0B876:  MOVLW  00
0B878:  ADDWFC x4E,W
0B87A:  MOVWF  03
0B87C:  MOVF   01,W
0B87E:  ADDLW  1F
0B880:  MOVWF  FE9
0B882:  MOVLW  04
0B884:  ADDWFC 03,W
0B886:  MOVWF  FEA
0B888:  MOVFF  FEF,44D
0B88C:  MOVFF  44D,44E
0B890:  MOVLB  0
0B892:  CALL   5522
0B896:  MOVFF  01,44D
0B89A:  MOVLW  01
0B89C:  MOVLB  3
0B89E:  SUBWF  x45,W
0B8A0:  MULLW  0A
0B8A2:  MOVF   FF3,W
0B8A4:  MOVLB  4
0B8A6:  CLRF   x4F
0B8A8:  MOVWF  x4E
0B8AA:  MOVLW  04
0B8AC:  ADDWF  x4E,W
0B8AE:  MOVWF  01
0B8B0:  MOVLW  00
0B8B2:  ADDWFC x4F,W
0B8B4:  MOVWF  03
0B8B6:  MOVF   01,W
0B8B8:  ADDLW  1F
0B8BA:  MOVWF  FE9
0B8BC:  MOVLW  04
0B8BE:  ADDWFC 03,W
0B8C0:  MOVWF  FEA
0B8C2:  MOVFF  FEF,451
0B8C6:  MOVLW  0A
0B8C8:  MOVWF  x52
0B8CA:  MOVLB  0
0B8CC:  CALL   49D4
0B8D0:  MOVFF  01,44E
0B8D4:  MOVLW  04
0B8D6:  MOVLB  3
0B8D8:  ADDWF  x45,W
0B8DA:  MOVLB  4
0B8DC:  MOVWF  x4F
0B8DE:  MOVLW  01
0B8E0:  MOVLB  3
0B8E2:  SUBWF  x45,W
0B8E4:  MULLW  0A
0B8E6:  MOVF   FF3,W
0B8E8:  MOVLB  4
0B8EA:  CLRF   x51
0B8EC:  MOVWF  x50
0B8EE:  MOVLW  1F
0B8F0:  ADDWF  x50,W
0B8F2:  MOVWF  FE9
0B8F4:  MOVLW  04
0B8F6:  ADDWFC x51,W
0B8F8:  MOVWF  FEA
0B8FA:  MOVFF  FEF,450
0B8FE:  MOVFF  447,451
0B902:  MOVFF  448,452
0B906:  MOVFF  449,453
0B90A:  MOVFF  44A,454
0B90E:  MOVFF  44B,455
0B912:  MOVFF  44C,456
0B916:  MOVFF  44D,457
0B91A:  MOVFF  01,458
0B91E:  CLRF   x59
0B920:  MOVFF  44F,45A
0B924:  MOVFF  450,45B
0B928:  MOVLB  0
0B92A:  CALL   5284
....................             }else{ 
0B92E:  BRA    BBA6
0B930:  MOVLB  4
....................                ConfiguraCiclo(extraeDecima(CiclosPersonalizados[CicloLibre-1].Segundoest), 
....................                            CiclosPersonalizados[CicloLibre-1].Segundoest/10, 
....................                            extraeDecima(CiclosPersonalizados[CicloLibre-1].Minutoest), 
....................                            CiclosPersonalizados[CicloLibre-1].Minutoest/10, 
....................                            extraeDecima(CiclosPersonalizados[CicloLibre-1].Segundosec), 
....................                            CiclosPersonalizados[CicloLibre-1].Segundosec/10, 
....................                            extraeDecima(CiclosPersonalizados[CicloLibre-1].Minutosec), 
....................                            CiclosPersonalizados[CicloLibre-1].Minutosec/10,1,CicloLibre+4,CiclosPersonalizados[CicloLibre-1].Temperatura);             
0B932:  MOVLW  01
0B934:  MOVLB  3
0B936:  SUBWF  x45,W
0B938:  MULLW  0A
0B93A:  MOVF   FF3,W
0B93C:  MOVLB  4
0B93E:  CLRF   x48
0B940:  MOVWF  x47
0B942:  MOVLW  03
0B944:  ADDWF  x47,W
0B946:  MOVWF  01
0B948:  MOVLW  00
0B94A:  ADDWFC x48,W
0B94C:  MOVWF  03
0B94E:  MOVF   01,W
0B950:  ADDLW  1F
0B952:  MOVWF  FE9
0B954:  MOVLW  04
0B956:  ADDWFC 03,W
0B958:  MOVWF  FEA
0B95A:  MOVFF  FEF,447
0B95E:  MOVFF  447,44E
0B962:  MOVLB  0
0B964:  CALL   5522
0B968:  MOVFF  01,447
0B96C:  MOVLW  01
0B96E:  MOVLB  3
0B970:  SUBWF  x45,W
0B972:  MULLW  0A
0B974:  MOVF   FF3,W
0B976:  MOVLB  4
0B978:  CLRF   x49
0B97A:  MOVWF  x48
0B97C:  MOVLW  03
0B97E:  ADDWF  x48,W
0B980:  MOVWF  01
0B982:  MOVLW  00
0B984:  ADDWFC x49,W
0B986:  MOVWF  03
0B988:  MOVF   01,W
0B98A:  ADDLW  1F
0B98C:  MOVWF  FE9
0B98E:  MOVLW  04
0B990:  ADDWFC 03,W
0B992:  MOVWF  FEA
0B994:  MOVFF  FEF,451
0B998:  MOVLW  0A
0B99A:  MOVWF  x52
0B99C:  MOVLB  0
0B99E:  CALL   49D4
0B9A2:  MOVFF  01,448
0B9A6:  MOVLW  01
0B9A8:  MOVLB  3
0B9AA:  SUBWF  x45,W
0B9AC:  MULLW  0A
0B9AE:  MOVF   FF3,W
0B9B0:  MOVLB  4
0B9B2:  CLRF   x4A
0B9B4:  MOVWF  x49
0B9B6:  MOVLW  09
0B9B8:  ADDWF  x49,W
0B9BA:  MOVWF  01
0B9BC:  MOVLW  00
0B9BE:  ADDWFC x4A,W
0B9C0:  MOVWF  03
0B9C2:  MOVF   01,W
0B9C4:  ADDLW  1F
0B9C6:  MOVWF  FE9
0B9C8:  MOVLW  04
0B9CA:  ADDWFC 03,W
0B9CC:  MOVWF  FEA
0B9CE:  MOVFF  FEF,449
0B9D2:  MOVFF  449,44E
0B9D6:  MOVLB  0
0B9D8:  CALL   5522
0B9DC:  MOVFF  01,449
0B9E0:  MOVLW  01
0B9E2:  MOVLB  3
0B9E4:  SUBWF  x45,W
0B9E6:  MULLW  0A
0B9E8:  MOVF   FF3,W
0B9EA:  MOVLB  4
0B9EC:  CLRF   x4B
0B9EE:  MOVWF  x4A
0B9F0:  MOVLW  09
0B9F2:  ADDWF  x4A,W
0B9F4:  MOVWF  01
0B9F6:  MOVLW  00
0B9F8:  ADDWFC x4B,W
0B9FA:  MOVWF  03
0B9FC:  MOVF   01,W
0B9FE:  ADDLW  1F
0BA00:  MOVWF  FE9
0BA02:  MOVLW  04
0BA04:  ADDWFC 03,W
0BA06:  MOVWF  FEA
0BA08:  MOVFF  FEF,451
0BA0C:  MOVLW  0A
0BA0E:  MOVWF  x52
0BA10:  MOVLB  0
0BA12:  CALL   49D4
0BA16:  MOVFF  01,44A
0BA1A:  MOVLW  01
0BA1C:  MOVLB  3
0BA1E:  SUBWF  x45,W
0BA20:  MULLW  0A
0BA22:  MOVF   FF3,W
0BA24:  MOVLB  4
0BA26:  CLRF   x4C
0BA28:  MOVWF  x4B
0BA2A:  MOVLW  05
0BA2C:  ADDWF  x4B,W
0BA2E:  MOVWF  01
0BA30:  MOVLW  00
0BA32:  ADDWFC x4C,W
0BA34:  MOVWF  03
0BA36:  MOVF   01,W
0BA38:  ADDLW  1F
0BA3A:  MOVWF  FE9
0BA3C:  MOVLW  04
0BA3E:  ADDWFC 03,W
0BA40:  MOVWF  FEA
0BA42:  MOVFF  FEF,44B
0BA46:  MOVFF  44B,44E
0BA4A:  MOVLB  0
0BA4C:  CALL   5522
0BA50:  MOVFF  01,44B
0BA54:  MOVLW  01
0BA56:  MOVLB  3
0BA58:  SUBWF  x45,W
0BA5A:  MULLW  0A
0BA5C:  MOVF   FF3,W
0BA5E:  MOVLB  4
0BA60:  CLRF   x4D
0BA62:  MOVWF  x4C
0BA64:  MOVLW  05
0BA66:  ADDWF  x4C,W
0BA68:  MOVWF  01
0BA6A:  MOVLW  00
0BA6C:  ADDWFC x4D,W
0BA6E:  MOVWF  03
0BA70:  MOVF   01,W
0BA72:  ADDLW  1F
0BA74:  MOVWF  FE9
0BA76:  MOVLW  04
0BA78:  ADDWFC 03,W
0BA7A:  MOVWF  FEA
0BA7C:  MOVFF  FEF,451
0BA80:  MOVLW  0A
0BA82:  MOVWF  x52
0BA84:  MOVLB  0
0BA86:  CALL   49D4
0BA8A:  MOVFF  01,44C
0BA8E:  MOVLW  01
0BA90:  MOVLB  3
0BA92:  SUBWF  x45,W
0BA94:  MULLW  0A
0BA96:  MOVF   FF3,W
0BA98:  MOVLB  4
0BA9A:  CLRF   x4E
0BA9C:  MOVWF  x4D
0BA9E:  MOVLW  04
0BAA0:  ADDWF  x4D,W
0BAA2:  MOVWF  01
0BAA4:  MOVLW  00
0BAA6:  ADDWFC x4E,W
0BAA8:  MOVWF  03
0BAAA:  MOVF   01,W
0BAAC:  ADDLW  1F
0BAAE:  MOVWF  FE9
0BAB0:  MOVLW  04
0BAB2:  ADDWFC 03,W
0BAB4:  MOVWF  FEA
0BAB6:  MOVFF  FEF,44D
0BABA:  MOVFF  44D,44E
0BABE:  MOVLB  0
0BAC0:  CALL   5522
0BAC4:  MOVFF  01,44D
0BAC8:  MOVLW  01
0BACA:  MOVLB  3
0BACC:  SUBWF  x45,W
0BACE:  MULLW  0A
0BAD0:  MOVF   FF3,W
0BAD2:  MOVLB  4
0BAD4:  CLRF   x4F
0BAD6:  MOVWF  x4E
0BAD8:  MOVLW  04
0BADA:  ADDWF  x4E,W
0BADC:  MOVWF  01
0BADE:  MOVLW  00
0BAE0:  ADDWFC x4F,W
0BAE2:  MOVWF  03
0BAE4:  MOVF   01,W
0BAE6:  ADDLW  1F
0BAE8:  MOVWF  FE9
0BAEA:  MOVLW  04
0BAEC:  ADDWFC 03,W
0BAEE:  MOVWF  FEA
0BAF0:  MOVFF  FEF,451
0BAF4:  MOVLW  0A
0BAF6:  MOVWF  x52
0BAF8:  MOVLB  0
0BAFA:  CALL   49D4
0BAFE:  MOVFF  01,44E
0BB02:  MOVLW  04
0BB04:  MOVLB  3
0BB06:  ADDWF  x45,W
0BB08:  MOVLB  4
0BB0A:  MOVWF  x4F
0BB0C:  MOVLW  01
0BB0E:  MOVLB  3
0BB10:  SUBWF  x45,W
0BB12:  MULLW  0A
0BB14:  MOVF   FF3,W
0BB16:  MOVLB  4
0BB18:  CLRF   x51
0BB1A:  MOVWF  x50
0BB1C:  MOVLW  1F
0BB1E:  ADDWF  x50,W
0BB20:  MOVWF  FE9
0BB22:  MOVLW  04
0BB24:  ADDWFC x51,W
0BB26:  MOVWF  FEA
0BB28:  MOVFF  FEF,450
0BB2C:  MOVFF  447,451
0BB30:  MOVFF  448,452
0BB34:  MOVFF  449,453
0BB38:  MOVFF  44A,454
0BB3C:  MOVFF  44B,455
0BB40:  MOVFF  44C,456
0BB44:  MOVFF  44D,457
0BB48:  MOVFF  01,458
0BB4C:  MOVLW  01
0BB4E:  MOVWF  x59
0BB50:  MOVFF  44F,45A
0BB54:  MOVFF  450,45B
0BB58:  MOVLB  0
0BB5A:  CALL   5284
....................                NivelSeleccionado=4995*CiclosPersonalizados[CicloLibre-1].NivelDesfogue; 
0BB5E:  MOVLW  01
0BB60:  MOVLB  3
0BB62:  SUBWF  x45,W
0BB64:  MULLW  0A
0BB66:  MOVF   FF3,W
0BB68:  MOVLB  4
0BB6A:  CLRF   x48
0BB6C:  MOVWF  x47
0BB6E:  MOVLW  08
0BB70:  ADDWF  x47,W
0BB72:  MOVWF  01
0BB74:  MOVLW  00
0BB76:  ADDWFC x48,W
0BB78:  MOVWF  03
0BB7A:  MOVF   01,W
0BB7C:  ADDLW  1F
0BB7E:  MOVWF  FE9
0BB80:  MOVLW  04
0BB82:  ADDWFC 03,W
0BB84:  MOVWF  FEA
0BB86:  MOVFF  FEF,447
0BB8A:  MOVLW  13
0BB8C:  MOVWF  x51
0BB8E:  MOVLW  83
0BB90:  MOVWF  x50
0BB92:  CLRF   x53
0BB94:  MOVFF  447,452
0BB98:  MOVLB  0
0BB9A:  CALL   3A9A
0BB9E:  MOVFF  02,386
0BBA2:  MOVFF  01,385
0BBA6:  MOVLB  3
....................             } 
....................          } 
....................       } 
....................    } 
.................... //_--------------------------------------------------------------------------------------------------------------------------------------------------------        
....................  
.................... //_--------------------------------------------------------------------------------------------------------------------------------------------------------       
....................    if(Menu==12){//Menu de Visualizacion de Ciclos Realizados 
0BBA8:  MOVF   x65,W
0BBAA:  SUBLW  0C
0BBAC:  BTFSS  FD8.2
0BBAE:  BRA    C102
....................       //printf("fecha.txt=\"Fecha:%02u/%02u/20%02u    Hora: %02u:%02u\"",Dia,Mes,Year,Hora,Minuto); 
....................       //SendDataDisplay(); 
....................       GuardaEEPROM=OFF; 
0BBB0:  MOVLB  0
0BBB2:  BCF    xA2.6
....................       /*  
....................       i2c_start();            // Comienzo de la comunicacin 
....................       i2c_write(0xA0);   // Direccin del esclavo en el bus I2C 
....................       i2c_write(9);    // Posicin de donde se leer el dato en el esclavo 
....................       i2c_write(0);    // Posicin de donde se leer el dato en el esclavo 
....................       i2c_start();            // Reinicio 
....................       i2c_write(direccion+1); // Direccin del esclavo en modo lectura 
....................       dato=i2c_read(0);       // Lectura del dato 
....................       i2c_stop(); 
....................       */       
....................        
....................       if(RX_Buffer[6]==0x01){//01, Ciclos 
0BBB4:  DECFSZ 36,W
0BBB6:  BRA    BBCC
....................          printf("page MenuPrincipal"); 
0BBB8:  MOVLW  3C
0BBBA:  MOVWF  FF6
0BBBC:  MOVLW  11
0BBBE:  MOVWF  FF7
0BBC0:  MOVLW  00
0BBC2:  MOVWF  FF8
0BBC4:  CALL   39B8
....................          SendDataDisplay();      
0BBC8:  CALL   39EA
....................       } 
....................        
....................       if(RX_Buffer[6]==0x02 || LEFT){//02, Izquierda 
0BBCC:  MOVF   36,W
0BBCE:  SUBLW  02
0BBD0:  BZ    BBD8
0BBD2:  BSF    F93.0
0BBD4:  BTFSC  F81.0
0BBD6:  BRA    BC26
....................          RX_Buffer[6]=0x00;   
0BBD8:  CLRF   36
....................          RX_Buffer2[6]=0x00; 
0BBDA:  CLRF   41
....................          if(cicloVisto>0) 
0BBDC:  MOVLB  2
0BBDE:  MOVF   xE9,F
0BBE0:  BZ    BBE4
....................             cicloVisto--; 
0BBE2:  DECF   xE9,F
....................          printf("h0.val=%u",cicloVisto+1); 
0BBE4:  MOVLW  01
0BBE6:  ADDWF  xE9,W
0BBE8:  MOVLB  4
0BBEA:  MOVWF  x47
0BBEC:  MOVLW  50
0BBEE:  MOVWF  FF6
0BBF0:  MOVLW  11
0BBF2:  MOVWF  FF7
0BBF4:  MOVLW  00
0BBF6:  MOVWF  FF8
0BBF8:  MOVLW  07
0BBFA:  MOVWF  x4C
0BBFC:  MOVLB  0
0BBFE:  CALL   49A2
0BC02:  MOVFF  447,44C
0BC06:  MOVLW  1B
0BC08:  MOVLB  4
0BC0A:  MOVWF  x4D
0BC0C:  MOVLB  0
0BC0E:  CALL   4A00
....................          SendDataDisplay();      
0BC12:  CALL   39EA
....................          actualizaTabla(); 
0BC16:  CALL   56B4
....................          delay_ms(100); 
0BC1A:  MOVLW  64
0BC1C:  MOVLB  4
0BC1E:  MOVWF  x5C
0BC20:  MOVLB  0
0BC22:  CALL   1AF4
....................       } 
....................        
....................       if(RX_Buffer[6]==0x03 || UP){//03, Arriba 
0BC26:  MOVF   36,W
0BC28:  SUBLW  03
0BC2A:  BZ    BC32
0BC2C:  BSF    F93.3
0BC2E:  BTFSC  F81.3
0BC30:  BRA    BC82
....................          RX_Buffer[6]=0x00;   
0BC32:  CLRF   36
....................          RX_Buffer2[6]=0x00; 
0BC34:  CLRF   41
....................          if(cicloVisualizado<28) 
0BC36:  MOVLB  2
0BC38:  MOVF   xEA,W
0BC3A:  SUBLW  1B
0BC3C:  BNC   BC40
....................             cicloVisualizado++; 
0BC3E:  INCF   xEA,F
....................          printf("h1.val=%u",cicloVisualizado+1); 
0BC40:  MOVLW  01
0BC42:  ADDWF  xEA,W
0BC44:  MOVLB  4
0BC46:  MOVWF  x47
0BC48:  MOVLW  5A
0BC4A:  MOVWF  FF6
0BC4C:  MOVLW  11
0BC4E:  MOVWF  FF7
0BC50:  MOVLW  00
0BC52:  MOVWF  FF8
0BC54:  MOVLW  07
0BC56:  MOVWF  x4C
0BC58:  MOVLB  0
0BC5A:  CALL   49A2
0BC5E:  MOVFF  447,44C
0BC62:  MOVLW  1B
0BC64:  MOVLB  4
0BC66:  MOVWF  x4D
0BC68:  MOVLB  0
0BC6A:  CALL   4A00
....................          SendDataDisplay();     
0BC6E:  CALL   39EA
....................          actualizaTabla(); 
0BC72:  CALL   56B4
....................          delay_ms(100); 
0BC76:  MOVLW  64
0BC78:  MOVLB  4
0BC7A:  MOVWF  x5C
0BC7C:  MOVLB  0
0BC7E:  CALL   1AF4
....................          //exportarData(); 
....................       } 
....................        
....................       if(RX_Buffer[6]==0x04 || DOWN){//04, Abajo 
0BC82:  MOVF   36,W
0BC84:  SUBLW  04
0BC86:  BZ    BC8E
0BC88:  BSF    F93.2
0BC8A:  BTFSC  F81.2
0BC8C:  BRA    BCDC
....................          RX_Buffer[6]=0x00;   
0BC8E:  CLRF   36
....................          RX_Buffer2[6]=0x00; 
0BC90:  CLRF   41
....................          if(cicloVisualizado>0) 
0BC92:  MOVLB  2
0BC94:  MOVF   xEA,F
0BC96:  BZ    BC9A
....................             cicloVisualizado--; 
0BC98:  DECF   xEA,F
....................          printf("h1.val=%u",cicloVisualizado+1); 
0BC9A:  MOVLW  01
0BC9C:  ADDWF  xEA,W
0BC9E:  MOVLB  4
0BCA0:  MOVWF  x47
0BCA2:  MOVLW  64
0BCA4:  MOVWF  FF6
0BCA6:  MOVLW  11
0BCA8:  MOVWF  FF7
0BCAA:  MOVLW  00
0BCAC:  MOVWF  FF8
0BCAE:  MOVLW  07
0BCB0:  MOVWF  x4C
0BCB2:  MOVLB  0
0BCB4:  CALL   49A2
0BCB8:  MOVFF  447,44C
0BCBC:  MOVLW  1B
0BCBE:  MOVLB  4
0BCC0:  MOVWF  x4D
0BCC2:  MOVLB  0
0BCC4:  CALL   4A00
....................          SendDataDisplay();   
0BCC8:  CALL   39EA
....................          actualizaTabla(); 
0BCCC:  CALL   56B4
....................          delay_ms(100); 
0BCD0:  MOVLW  64
0BCD2:  MOVLB  4
0BCD4:  MOVWF  x5C
0BCD6:  MOVLB  0
0BCD8:  CALL   1AF4
....................          //exportarData(); 
....................       } 
....................        
....................       if(RX_Buffer[6]==0x05 || RIGHT){//05, Derecha 
0BCDC:  MOVF   36,W
0BCDE:  SUBLW  05
0BCE0:  BZ    BCE8
0BCE2:  BSF    F93.1
0BCE4:  BTFSC  F81.1
0BCE6:  BRA    BD38
....................          RX_Buffer[6]=0x00;   
0BCE8:  CLRF   36
....................          RX_Buffer2[6]=0x00; 
0BCEA:  CLRF   41
....................          if(cicloVisto<200) 
0BCEC:  MOVLB  2
0BCEE:  MOVF   xE9,W
0BCF0:  SUBLW  C7
0BCF2:  BNC   BCF6
....................             cicloVisto++; 
0BCF4:  INCF   xE9,F
....................          printf("h0.val=%u",cicloVisto+1); 
0BCF6:  MOVLW  01
0BCF8:  ADDWF  xE9,W
0BCFA:  MOVLB  4
0BCFC:  MOVWF  x47
0BCFE:  MOVLW  6E
0BD00:  MOVWF  FF6
0BD02:  MOVLW  11
0BD04:  MOVWF  FF7
0BD06:  MOVLW  00
0BD08:  MOVWF  FF8
0BD0A:  MOVLW  07
0BD0C:  MOVWF  x4C
0BD0E:  MOVLB  0
0BD10:  CALL   49A2
0BD14:  MOVFF  447,44C
0BD18:  MOVLW  1B
0BD1A:  MOVLB  4
0BD1C:  MOVWF  x4D
0BD1E:  MOVLB  0
0BD20:  CALL   4A00
....................          SendDataDisplay();   
0BD24:  CALL   39EA
....................          actualizaTabla(); 
0BD28:  CALL   56B4
....................          delay_ms(100); 
0BD2C:  MOVLW  64
0BD2E:  MOVLB  4
0BD30:  MOVWF  x5C
0BD32:  MOVLB  0
0BD34:  CALL   1AF4
....................          //exportarData(); 
....................       } 
....................        
....................       if(RX_Buffer[6]==0x06){//06, Imprime 
0BD38:  MOVF   36,W
0BD3A:  SUBLW  06
0BD3C:  BNZ   BD5A
....................          RX_Buffer[6]=0x00;   
0BD3E:  CLRF   36
....................          RX_Buffer2[6]=0x00; 
0BD40:  CLRF   41
....................          printf("t0.txt=\"!IMPRIMIENDO!\""); 
0BD42:  MOVLW  78
0BD44:  MOVWF  FF6
0BD46:  MOVLW  11
0BD48:  MOVWF  FF7
0BD4A:  MOVLW  00
0BD4C:  MOVWF  FF8
0BD4E:  CALL   39B8
....................          SendDataDisplay();  
0BD52:  CALL   39EA
....................          exportarData(); 
0BD56:  GOTO   5D48
....................       } 
....................        
....................       if(RX_Buffer[4]>0x00 || RX_Buffer[5]>0x00){ 
0BD5A:  MOVF   34,F
0BD5C:  BNZ   BD62
0BD5E:  MOVF   35,F
0BD60:  BZ    BD7E
....................          cicloVisualizado=RX_Buffer[4]-1; 
0BD62:  MOVLW  01
0BD64:  SUBWF  34,W
0BD66:  MOVLB  2
0BD68:  MOVWF  xEA
....................          cicloVisto=RX_Buffer[5]-1; 
0BD6A:  MOVLW  01
0BD6C:  SUBWF  35,W
0BD6E:  MOVWF  xE9
....................          RX_Buffer[4]=0x00; 
0BD70:  CLRF   34
....................          RX_Buffer[5]=0x00; 
0BD72:  CLRF   35
....................          RX_Buffer2[4]=0x00; 
0BD74:  CLRF   3F
....................          RX_Buffer2[5]=0x00; 
0BD76:  CLRF   40
....................          actualizaTabla(); 
0BD78:  MOVLB  0
0BD7A:  CALL   56B4
....................       } 
....................        
....................       //Imprime Valores Estaticos 
....................       printf("fecha.txt=\"%02u/%02u/%02u\"",diaCiclos,mesCiclos,yearCiclos); 
0BD7E:  MOVLW  90
0BD80:  MOVWF  FF6
0BD82:  MOVLW  11
0BD84:  MOVWF  FF7
0BD86:  MOVLW  00
0BD88:  MOVWF  FF8
0BD8A:  MOVLW  0B
0BD8C:  MOVLB  4
0BD8E:  MOVWF  x4C
0BD90:  MOVLB  0
0BD92:  CALL   49A2
0BD96:  MOVFF  3CD,44C
0BD9A:  MOVLW  01
0BD9C:  MOVLB  4
0BD9E:  MOVWF  x4D
0BDA0:  MOVLB  0
0BDA2:  CALL   4A00
0BDA6:  MOVLW  2F
0BDA8:  BTFSS  F9E.4
0BDAA:  BRA    BDA8
0BDAC:  MOVWF  FAD
0BDAE:  MOVFF  3CE,44C
0BDB2:  MOVLW  01
0BDB4:  MOVLB  4
0BDB6:  MOVWF  x4D
0BDB8:  MOVLB  0
0BDBA:  CALL   4A00
0BDBE:  MOVLW  2F
0BDC0:  BTFSS  F9E.4
0BDC2:  BRA    BDC0
0BDC4:  MOVWF  FAD
0BDC6:  MOVFF  3CF,44C
0BDCA:  MOVLW  01
0BDCC:  MOVLB  4
0BDCE:  MOVWF  x4D
0BDD0:  MOVLB  0
0BDD2:  CALL   4A00
0BDD6:  MOVLW  22
0BDD8:  BTFSS  F9E.4
0BDDA:  BRA    BDD8
0BDDC:  MOVWF  FAD
....................       SendDataDisplay(); 
0BDDE:  CALL   39EA
....................        
....................       printf("ciclo.txt=\"%02u\"",cicloCiclos); 
0BDE2:  MOVLW  AC
0BDE4:  MOVWF  FF6
0BDE6:  MOVLW  11
0BDE8:  MOVWF  FF7
0BDEA:  MOVLW  00
0BDEC:  MOVWF  FF8
0BDEE:  MOVLW  0B
0BDF0:  MOVLB  4
0BDF2:  MOVWF  x4C
0BDF4:  MOVLB  0
0BDF6:  CALL   49A2
0BDFA:  MOVFF  3D1,44C
0BDFE:  MOVLW  01
0BE00:  MOVLB  4
0BE02:  MOVWF  x4D
0BE04:  MOVLB  0
0BE06:  CALL   4A00
0BE0A:  MOVLW  22
0BE0C:  BTFSS  F9E.4
0BE0E:  BRA    BE0C
0BE10:  MOVWF  FAD
....................       SendDataDisplay(); 
0BE12:  CALL   39EA
....................        
....................       printf("t0.txt=\"Ciclo %02u\"",cicloVisto); 
0BE16:  MOVLW  BE
0BE18:  MOVWF  FF6
0BE1A:  MOVLW  11
0BE1C:  MOVWF  FF7
0BE1E:  MOVLW  00
0BE20:  MOVWF  FF8
0BE22:  MOVLW  0E
0BE24:  MOVLB  4
0BE26:  MOVWF  x4C
0BE28:  MOVLB  0
0BE2A:  CALL   49A2
0BE2E:  MOVFF  2E9,44C
0BE32:  MOVLW  01
0BE34:  MOVLB  4
0BE36:  MOVWF  x4D
0BE38:  MOVLB  0
0BE3A:  CALL   4A00
0BE3E:  MOVLW  22
0BE40:  BTFSS  F9E.4
0BE42:  BRA    BE40
0BE44:  MOVWF  FAD
....................       SendDataDisplay(); 
0BE46:  CALL   39EA
....................        
....................       printf("usuario.txt=\"---\""); 
0BE4A:  MOVLW  D2
0BE4C:  MOVWF  FF6
0BE4E:  MOVLW  11
0BE50:  MOVWF  FF7
0BE52:  MOVLW  00
0BE54:  MOVWF  FF8
0BE56:  CALL   39B8
....................       SendDataDisplay(); 
0BE5A:  CALL   39EA
....................        
....................       //Imprime Valores Dinamicos 
....................       for(i=0;i<7;i++){ 
0BE5E:  MOVLB  3
0BE60:  CLRF   x68
0BE62:  MOVF   x68,W
0BE64:  SUBLW  06
0BE66:  BTFSS  FD8.0
0BE68:  BRA    C102
....................          printf("hora%u.txt=\"%02u.  %02u:%02u\"",i+1,cicloVisualizado+i+1,horaCiclos[i],minutoCiclos[i]); 
0BE6A:  MOVLW  01
0BE6C:  ADDWF  x68,W
0BE6E:  MOVLB  4
0BE70:  MOVWF  x47
0BE72:  MOVLB  3
0BE74:  MOVF   x68,W
0BE76:  MOVLB  2
0BE78:  ADDWF  xEA,W
0BE7A:  ADDLW  01
0BE7C:  MOVLB  4
0BE7E:  MOVWF  x48
0BE80:  CLRF   03
0BE82:  MOVLB  3
0BE84:  MOVF   x68,W
0BE86:  ADDLW  0A
0BE88:  MOVWF  FE9
0BE8A:  MOVLW  04
0BE8C:  ADDWFC 03,W
0BE8E:  MOVWF  FEA
0BE90:  MOVFF  FEF,449
0BE94:  CLRF   03
0BE96:  MOVF   x68,W
0BE98:  ADDLW  11
0BE9A:  MOVWF  FE9
0BE9C:  MOVLW  04
0BE9E:  ADDWFC 03,W
0BEA0:  MOVWF  FEA
0BEA2:  MOVFF  FEF,44A
0BEA6:  MOVLW  E4
0BEA8:  MOVWF  FF6
0BEAA:  MOVLW  11
0BEAC:  MOVWF  FF7
0BEAE:  MOVLW  00
0BEB0:  MOVWF  FF8
0BEB2:  MOVLW  04
0BEB4:  MOVLB  4
0BEB6:  MOVWF  x4C
0BEB8:  MOVLB  0
0BEBA:  CALL   49A2
0BEBE:  MOVFF  447,44C
0BEC2:  MOVLW  1B
0BEC4:  MOVLB  4
0BEC6:  MOVWF  x4D
0BEC8:  MOVLB  0
0BECA:  CALL   4A00
0BECE:  MOVLW  EA
0BED0:  MOVWF  FF6
0BED2:  MOVLW  11
0BED4:  MOVWF  FF7
0BED6:  MOVLW  00
0BED8:  MOVWF  FF8
0BEDA:  MOVLW  06
0BEDC:  MOVLB  4
0BEDE:  MOVWF  x4C
0BEE0:  MOVLB  0
0BEE2:  CALL   49A2
0BEE6:  MOVFF  448,44C
0BEEA:  MOVLW  01
0BEEC:  MOVLB  4
0BEEE:  MOVWF  x4D
0BEF0:  MOVLB  0
0BEF2:  CALL   4A00
0BEF6:  MOVLW  2E
0BEF8:  BTFSS  F9E.4
0BEFA:  BRA    BEF8
0BEFC:  MOVWF  FAD
0BEFE:  MOVLW  20
0BF00:  BTFSS  F9E.4
0BF02:  BRA    BF00
0BF04:  MOVWF  FAD
0BF06:  MOVLW  20
0BF08:  BTFSS  F9E.4
0BF0A:  BRA    BF08
0BF0C:  MOVWF  FAD
0BF0E:  MOVFF  449,44C
0BF12:  MOVLW  01
0BF14:  MOVLB  4
0BF16:  MOVWF  x4D
0BF18:  MOVLB  0
0BF1A:  CALL   4A00
0BF1E:  MOVLW  3A
0BF20:  BTFSS  F9E.4
0BF22:  BRA    BF20
0BF24:  MOVWF  FAD
0BF26:  MOVFF  44A,44C
0BF2A:  MOVLW  01
0BF2C:  MOVLB  4
0BF2E:  MOVWF  x4D
0BF30:  MOVLB  0
0BF32:  CALL   4A00
0BF36:  MOVLW  22
0BF38:  BTFSS  F9E.4
0BF3A:  BRA    BF38
0BF3C:  MOVWF  FAD
....................          SendDataDisplay(); 
0BF3E:  CALL   39EA
....................          printf("T%u.txt=\"%3.1fC\"",i+1,TCiclos[i]); 
0BF42:  MOVLW  01
0BF44:  MOVLB  3
0BF46:  ADDWF  x68,W
0BF48:  MOVLB  4
0BF4A:  MOVWF  x47
0BF4C:  MOVLB  3
0BF4E:  MOVF   x68,W
0BF50:  MULLW  04
0BF52:  MOVF   FF3,W
0BF54:  CLRF   03
0BF56:  ADDLW  D2
0BF58:  MOVWF  FE9
0BF5A:  MOVLW  03
0BF5C:  ADDWFC 03,W
0BF5E:  MOVWF  FEA
0BF60:  MOVFF  FEF,448
0BF64:  MOVFF  FEC,449
0BF68:  MOVFF  FEC,44A
0BF6C:  MOVFF  FEC,44B
0BF70:  MOVLW  54
0BF72:  BTFSS  F9E.4
0BF74:  BRA    BF72
0BF76:  MOVWF  FAD
0BF78:  MOVFF  447,44C
0BF7C:  MOVLW  1B
0BF7E:  MOVLB  4
0BF80:  MOVWF  x4D
0BF82:  MOVLB  0
0BF84:  CALL   4A00
0BF88:  MOVLW  05
0BF8A:  MOVWF  FF6
0BF8C:  MOVLW  12
0BF8E:  MOVWF  FF7
0BF90:  MOVLW  00
0BF92:  MOVWF  FF8
0BF94:  MOVLW  06
0BF96:  MOVLB  4
0BF98:  MOVWF  x4C
0BF9A:  MOVLB  0
0BF9C:  CALL   49A2
0BFA0:  MOVLW  02
0BFA2:  MOVWF  FE9
0BFA4:  MOVFF  44B,44F
0BFA8:  MOVFF  44A,44E
0BFAC:  MOVFF  449,44D
0BFB0:  MOVFF  448,44C
0BFB4:  MOVLW  01
0BFB6:  MOVLB  4
0BFB8:  MOVWF  x50
0BFBA:  MOVLB  0
0BFBC:  CALL   4CCE
0BFC0:  MOVLW  B0
0BFC2:  BTFSS  F9E.4
0BFC4:  BRA    BFC2
0BFC6:  MOVWF  FAD
0BFC8:  MOVLW  43
0BFCA:  BTFSS  F9E.4
0BFCC:  BRA    BFCA
0BFCE:  MOVWF  FAD
0BFD0:  MOVLW  22
0BFD2:  BTFSS  F9E.4
0BFD4:  BRA    BFD2
0BFD6:  MOVWF  FAD
....................          SendDataDisplay(); 
0BFD8:  CALL   39EA
....................          printf("Pc%u.txt=\"%03LukPa\"",i+1,PcCiclos[i]); 
0BFDC:  MOVLW  01
0BFDE:  MOVLB  3
0BFE0:  ADDWF  x68,W
0BFE2:  MOVLB  4
0BFE4:  MOVWF  x47
0BFE6:  BCF    FD8.0
0BFE8:  MOVLB  3
0BFEA:  RLCF   x68,W
0BFEC:  CLRF   03
0BFEE:  ADDLW  EE
0BFF0:  MOVWF  FE9
0BFF2:  MOVLW  03
0BFF4:  ADDWFC 03,W
0BFF6:  MOVWF  FEA
0BFF8:  MOVFF  FEC,449
0BFFC:  MOVF   FED,F
0BFFE:  MOVFF  FEF,448
0C002:  MOVLW  50
0C004:  BTFSS  F9E.4
0C006:  BRA    C004
0C008:  MOVWF  FAD
0C00A:  MOVLW  63
0C00C:  BTFSS  F9E.4
0C00E:  BRA    C00C
0C010:  MOVWF  FAD
0C012:  MOVFF  447,44C
0C016:  MOVLW  1B
0C018:  MOVLB  4
0C01A:  MOVWF  x4D
0C01C:  MOVLB  0
0C01E:  CALL   4A00
0C022:  MOVLW  18
0C024:  MOVWF  FF6
0C026:  MOVLW  12
0C028:  MOVWF  FF7
0C02A:  MOVLW  00
0C02C:  MOVWF  FF8
0C02E:  MOVLW  06
0C030:  MOVLB  4
0C032:  MOVWF  x4C
0C034:  MOVLB  0
0C036:  CALL   49A2
0C03A:  MOVLW  0A
0C03C:  MOVWF  FE9
0C03E:  MOVFF  449,44C
0C042:  MOVFF  448,44B
0C046:  CALL   4B60
0C04A:  MOVLW  23
0C04C:  MOVWF  FF6
0C04E:  MOVLW  12
0C050:  MOVWF  FF7
0C052:  MOVLW  00
0C054:  MOVWF  FF8
0C056:  MOVLW  04
0C058:  MOVLB  4
0C05A:  MOVWF  x4C
0C05C:  MOVLB  0
0C05E:  CALL   49A2
....................          SendDataDisplay(); 
0C062:  CALL   39EA
....................          printf("Ppc%u.txt=\"%03LukPa\"",i+1,PpcCiclos[i]); 
0C066:  MOVLW  01
0C068:  MOVLB  3
0C06A:  ADDWF  x68,W
0C06C:  MOVLB  4
0C06E:  MOVWF  x47
0C070:  BCF    FD8.0
0C072:  MOVLB  3
0C074:  RLCF   x68,W
0C076:  CLRF   03
0C078:  ADDLW  FC
0C07A:  MOVWF  FE9
0C07C:  MOVLW  03
0C07E:  ADDWFC 03,W
0C080:  MOVWF  FEA
0C082:  MOVFF  FEC,449
0C086:  MOVF   FED,F
0C088:  MOVFF  FEF,448
0C08C:  MOVLW  50
0C08E:  BTFSS  F9E.4
0C090:  BRA    C08E
0C092:  MOVWF  FAD
0C094:  MOVLW  70
0C096:  BTFSS  F9E.4
0C098:  BRA    C096
0C09A:  MOVWF  FAD
0C09C:  MOVLW  63
0C09E:  BTFSS  F9E.4
0C0A0:  BRA    C09E
0C0A2:  MOVWF  FAD
0C0A4:  MOVFF  447,44C
0C0A8:  MOVLW  1B
0C0AA:  MOVLB  4
0C0AC:  MOVWF  x4D
0C0AE:  MOVLB  0
0C0B0:  CALL   4A00
0C0B4:  MOVLW  2D
0C0B6:  MOVWF  FF6
0C0B8:  MOVLW  12
0C0BA:  MOVWF  FF7
0C0BC:  MOVLW  00
0C0BE:  MOVWF  FF8
0C0C0:  MOVLW  06
0C0C2:  MOVLB  4
0C0C4:  MOVWF  x4C
0C0C6:  MOVLB  0
0C0C8:  CALL   49A2
0C0CC:  MOVLW  0A
0C0CE:  MOVWF  FE9
0C0D0:  MOVFF  449,44C
0C0D4:  MOVFF  448,44B
0C0D8:  CALL   4B60
0C0DC:  MOVLW  38
0C0DE:  MOVWF  FF6
0C0E0:  MOVLW  12
0C0E2:  MOVWF  FF7
0C0E4:  MOVLW  00
0C0E6:  MOVWF  FF8
0C0E8:  MOVLW  04
0C0EA:  MOVLB  4
0C0EC:  MOVWF  x4C
0C0EE:  MOVLB  0
0C0F0:  CALL   49A2
....................          SendDataDisplay();          
0C0F4:  CALL   39EA
....................          codificaAlarma(); 
0C0F8:  GOTO   60F0
....................       }   
0C0FC:  MOVLB  3
0C0FE:  INCF   x68,F
0C100:  BRA    BE62
....................    } 
.................... //_--------------------------------------------------------------------------------------------------------------------------------------------------------       
....................  
.................... //_--------------------------------------------------------------------------------------------------------------------------------------------------------       
....................     if(Menu==15){//Menu de Clave Correcta 
0C102:  MOVF   x65,W
0C104:  SUBLW  0F
0C106:  BNZ   C13E
....................       if(!entro){ 
0C108:  MOVLB  0
0C10A:  BTFSC  xA4.3
0C10C:  BRA    C128
....................          delay_ms(2000); 
0C10E:  MOVLW  08
0C110:  MOVLB  4
0C112:  MOVWF  x47
0C114:  MOVLW  FA
0C116:  MOVWF  x5C
0C118:  MOVLB  0
0C11A:  CALL   1AF4
0C11E:  MOVLB  4
0C120:  DECFSZ x47,F
0C122:  BRA    C114
....................          entro=ON; 
0C124:  MOVLB  0
0C126:  BSF    xA4.3
....................       } 
....................       printf("page MenuPrincipal"); 
0C128:  MOVLW  3E
0C12A:  MOVWF  FF6
0C12C:  MOVLW  12
0C12E:  MOVWF  FF7
0C130:  MOVLW  00
0C132:  MOVWF  FF8
0C134:  CALL   39B8
....................       SendDataDisplay(); 
0C138:  CALL   39EA
0C13C:  MOVLB  3
....................    } 
.................... //_--------------------------------------------------------------------------------------------------------------------------------------------------------       
....................  
.................... //_--------------------------------------------------------------------------------------------------------------------------------------------------------       
....................     if(Menu==16){//Menu de Clave InCorrecta 
0C13E:  MOVF   x65,W
0C140:  SUBLW  10
0C142:  BNZ   C17A
....................       if(!entro){ 
0C144:  MOVLB  0
0C146:  BTFSC  xA4.3
0C148:  BRA    C164
....................          delay_ms(2000); 
0C14A:  MOVLW  08
0C14C:  MOVLB  4
0C14E:  MOVWF  x47
0C150:  MOVLW  FA
0C152:  MOVWF  x5C
0C154:  MOVLB  0
0C156:  CALL   1AF4
0C15A:  MOVLB  4
0C15C:  DECFSZ x47,F
0C15E:  BRA    C150
....................          entro=ON; 
0C160:  MOVLB  0
0C162:  BSF    xA4.3
....................       } 
....................       printf("page Clave"); 
0C164:  MOVLW  52
0C166:  MOVWF  FF6
0C168:  MOVLW  12
0C16A:  MOVWF  FF7
0C16C:  MOVLW  00
0C16E:  MOVWF  FF8
0C170:  CALL   39B8
....................       SendDataDisplay(); 
0C174:  CALL   39EA
0C178:  MOVLB  3
....................    } 
.................... //_--------------------------------------------------------------------------------------------------------------------------------------------------------       
....................  
.................... //_--------------------------------------------------------------------------------------------------------------------------------------------------------     
....................    if(Menu==20){ // Este es el menu de cuando el proceso se inicio. 
0C17A:  MOVF   x65,W
0C17C:  SUBLW  14
0C17E:  BTFSS  FD8.2
0C180:  GOTO   D2E6
....................    //Lectura_Esclavos(); 
....................    GuardaDatoEstatico(); 
0C184:  MOVLB  0
0C186:  GOTO   6770
....................    guardaCiclo=ON; 
0C18A:  BSF    xA4.6
....................    if(!Libre){ 
0C18C:  BTFSC  xA4.1
0C18E:  BRA    C214
....................       printf("t2f.txt=\"%u\"",CicloSeleccionado); 
0C190:  MOVLW  5E
0C192:  MOVWF  FF6
0C194:  MOVLW  12
0C196:  MOVWF  FF7
0C198:  MOVLW  00
0C19A:  MOVWF  FF8
0C19C:  MOVLW  09
0C19E:  MOVLB  4
0C1A0:  MOVWF  x4C
0C1A2:  MOVLB  0
0C1A4:  CALL   49A2
0C1A8:  MOVFF  36B,44C
0C1AC:  MOVLW  1B
0C1AE:  MOVLB  4
0C1B0:  MOVWF  x4D
0C1B2:  MOVLB  0
0C1B4:  CALL   4A00
0C1B8:  MOVLW  22
0C1BA:  BTFSS  F9E.4
0C1BC:  BRA    C1BA
0C1BE:  MOVWF  FAD
....................       SendDataDisplay(); 
0C1C0:  CALL   39EA
....................       printf("t3f.txt=\"%s\"",texto[CicloSeleccionado-1]); 
0C1C4:  MOVLW  01
0C1C6:  MOVLB  3
0C1C8:  SUBWF  x6B,W
0C1CA:  MULLW  14
0C1CC:  MOVF   FF3,W
0C1CE:  CLRF   03
0C1D0:  MOVLB  4
0C1D2:  MOVWF  x47
0C1D4:  MOVLW  6C
0C1D6:  MOVWF  FF6
0C1D8:  MOVLW  12
0C1DA:  MOVWF  FF7
0C1DC:  MOVLW  00
0C1DE:  MOVWF  FF8
0C1E0:  MOVLW  09
0C1E2:  MOVWF  x4C
0C1E4:  MOVLB  0
0C1E6:  CALL   49A2
0C1EA:  MOVLW  50
0C1EC:  MOVWF  FF6
0C1EE:  MOVLW  01
0C1F0:  MOVWF  FF7
0C1F2:  MOVLW  00
0C1F4:  MOVWF  FF8
0C1F6:  MOVLB  4
0C1F8:  MOVF   x47,W
0C1FA:  ADDWF  FF6,F
0C1FC:  MOVLW  00
0C1FE:  ADDWFC FF7,F
0C200:  MOVLB  0
0C202:  CALL   39B8
0C206:  MOVLW  22
0C208:  BTFSS  F9E.4
0C20A:  BRA    C208
0C20C:  MOVWF  FAD
....................       SendDataDisplay(); 
0C20E:  CALL   39EA
....................    }else{ 
0C212:  BRA    C264
....................       printf("t2f.txt=\"%u\"",CicloLibre+4); 
0C214:  MOVLW  04
0C216:  MOVLB  3
0C218:  ADDWF  x45,W
0C21A:  MOVLB  4
0C21C:  MOVWF  x47
0C21E:  MOVLW  7A
0C220:  MOVWF  FF6
0C222:  MOVLW  12
0C224:  MOVWF  FF7
0C226:  MOVLW  00
0C228:  MOVWF  FF8
0C22A:  MOVLW  09
0C22C:  MOVWF  x4C
0C22E:  MOVLB  0
0C230:  CALL   49A2
0C234:  MOVFF  447,44C
0C238:  MOVLW  1B
0C23A:  MOVLB  4
0C23C:  MOVWF  x4D
0C23E:  MOVLB  0
0C240:  CALL   4A00
0C244:  MOVLW  22
0C246:  BTFSS  F9E.4
0C248:  BRA    C246
0C24A:  MOVWF  FAD
....................       SendDataDisplay(); 
0C24C:  CALL   39EA
....................       printf("t3f.txt=\"Personalizado\""); 
0C250:  MOVLW  88
0C252:  MOVWF  FF6
0C254:  MOVLW  12
0C256:  MOVWF  FF7
0C258:  MOVLW  00
0C25A:  MOVWF  FF8
0C25C:  CALL   39B8
....................       SendDataDisplay(); 
0C260:  CALL   39EA
....................    } 
....................     
....................    if(RIGHT){ 
0C264:  BSF    F93.1
0C266:  BTFSC  F81.1
0C268:  BRA    C280
....................       //glcd_init(ON); 
....................       delay_ms(1000); 
0C26A:  MOVLW  04
0C26C:  MOVLB  4
0C26E:  MOVWF  x47
0C270:  MOVLW  FA
0C272:  MOVWF  x5C
0C274:  MOVLB  0
0C276:  CALL   1AF4
0C27A:  MOVLB  4
0C27C:  DECFSZ x47,F
0C27E:  BRA    C270
....................       /*flagCalentando=OFF; 
....................       flagDesfogando=OFF; 
....................       flagEsterilizando=OFF;*/ 
....................    } 
....................     
....................    #ifdef Generador 
....................    if(PresionPreCamara>=275 || PresionCamara>=275){ 
0C280:  MOVLB  3
0C282:  MOVF   x82,W
0C284:  SUBLW  00
0C286:  BC    C292
0C288:  XORLW  FF
0C28A:  BNZ   C2A2
0C28C:  MOVF   x81,W
0C28E:  SUBLW  12
0C290:  BNC   C2A2
0C292:  MOVF   x80,W
0C294:  SUBLW  00
0C296:  BC    C2DE
0C298:  XORLW  FF
0C29A:  BNZ   C2A2
0C29C:  MOVF   x7F,W
0C29E:  SUBLW  12
0C2A0:  BC    C2DE
....................       conteoPresion++; 
0C2A2:  MOVLB  0
0C2A4:  INCF   xB4,F
0C2A6:  BTFSC  FD8.2
0C2A8:  INCF   xB5,F
....................       if(PresionPreCamara>=275 || PresionCamara>=275){ 
0C2AA:  MOVLB  3
0C2AC:  MOVF   x82,W
0C2AE:  SUBLW  00
0C2B0:  BC    C2BC
0C2B2:  XORLW  FF
0C2B4:  BNZ   C2CC
0C2B6:  MOVF   x81,W
0C2B8:  SUBLW  12
0C2BA:  BNC   C2CC
0C2BC:  MOVF   x80,W
0C2BE:  SUBLW  00
0C2C0:  BC    C2DC
0C2C2:  XORLW  FF
0C2C4:  BNZ   C2CC
0C2C6:  MOVF   x7F,W
0C2C8:  SUBLW  12
0C2CA:  BC    C2DC
....................          if(conteoPresion>=50) 
0C2CC:  MOVLB  0
0C2CE:  MOVF   xB5,F
0C2D0:  BNZ   C2D8
0C2D2:  MOVF   xB4,W
0C2D4:  SUBLW  31
0C2D6:  BC    C2DA
....................             AlarmaPresion=ON;   
0C2D8:  BSF    xA4.0
0C2DA:  MOVLB  3
....................       } 
....................    }else{ 
0C2DC:  BRA    C2E4
....................       conteoPresion=0; 
0C2DE:  MOVLB  0
0C2E0:  CLRF   xB5
0C2E2:  CLRF   xB4
....................    } 
....................    #else 
....................    if(PresionCamara>Atmosferica+275){ 
....................       AlarmaPresion=ON; 
....................    } 
....................    #endif 
....................     
....................    if(Temperatura>105 && PresionCamara<Atmosferica+10 && !Desfogando){ 
0C2E4:  MOVLB  4
0C2E6:  CLRF   x4E
0C2E8:  CLRF   x4D
0C2EA:  MOVLW  52
0C2EC:  MOVWF  x4C
0C2EE:  MOVLW  85
0C2F0:  MOVWF  x4B
0C2F2:  MOVFF  332,452
0C2F6:  MOVFF  331,451
0C2FA:  MOVFF  330,450
0C2FE:  MOVFF  32F,44F
0C302:  MOVLB  0
0C304:  CALL   2DF8
0C308:  BNC   C32C
0C30A:  MOVLW  0A
0C30C:  MOVLB  3
0C30E:  ADDWF  xB6,W
0C310:  MOVF   x80,F
0C312:  BTFSC  FD8.2
0C314:  BRA    C31A
0C316:  MOVLB  0
0C318:  BRA    C32C
0C31A:  SUBWF  x7F,W
0C31C:  BTFSS  FD8.0
0C31E:  BRA    C324
0C320:  MOVLB  0
0C322:  BRA    C32C
0C324:  MOVLB  0
0C326:  BTFSC  xA0.5
0C328:  BRA    C32C
....................       AlarmaCiclo=ON; 
0C32A:  BSF    x9F.6
....................    } 
....................     
....................    #ifdef Generador 
....................    if(TiempoCiclo>3000){ 
0C32C:  MOVF   xA7,W
0C32E:  SUBLW  0A
0C330:  BC    C366
0C332:  XORLW  FF
0C334:  BNZ   C33C
0C336:  MOVF   xA6,W
0C338:  SUBLW  B8
0C33A:  BC    C366
....................       if(TiempoCiclo>5400) 
0C33C:  MOVF   xA7,W
0C33E:  SUBLW  14
0C340:  BC    C34E
0C342:  XORLW  FF
0C344:  BNZ   C34C
0C346:  MOVF   xA6,W
0C348:  SUBLW  18
0C34A:  BC    C34E
....................          AlarmaTiempoProlongado=ON; 
0C34C:  BSF    x9F.0
....................       if(PresionPreCamara<Atmosferica+10){ 
0C34E:  MOVLW  0A
0C350:  MOVLB  3
0C352:  ADDWF  xB6,W
0C354:  MOVF   x82,F
0C356:  BNZ   C362
0C358:  SUBWF  x81,W
0C35A:  BC    C362
....................          AlarmaTiempoProlongado=ON; 
0C35C:  MOVLB  0
0C35E:  BSF    x9F.0
0C360:  MOVLB  3
....................       } 
....................    }else{ 
0C362:  BRA    C368
0C364:  MOVLB  0
....................       AlarmaTiempoProlongado=OFF; 
0C366:  BCF    x9F.0
....................    } 
....................    #else 
....................    if(TiempoCiclo>3000){ 
....................       if(TiempoCiclo>5000) 
....................          AlarmaTiempoProlongado=ON; 
....................       if(PresionCamara<Atmosferica+10){ 
....................          AlarmaTiempoProlongado=ON; 
....................       } 
....................    }else{ 
....................       AlarmaTiempoProlongado=OFF; 
....................    } 
....................    #endif 
....................     
....................    if(Temperatura>Setpoint+4.0){ 
0C368:  MOVLB  4
0C36A:  CLRF   x5D
0C36C:  MOVFF  36C,45C
0C370:  MOVLB  0
0C372:  CALL   1B1C
0C376:  BCF    FD8.1
0C378:  MOVFF  03,45F
0C37C:  MOVFF  02,45E
0C380:  MOVFF  01,45D
0C384:  MOVFF  00,45C
0C388:  MOVLB  4
0C38A:  CLRF   x63
0C38C:  CLRF   x62
0C38E:  CLRF   x61
0C390:  MOVLW  81
0C392:  MOVWF  x60
0C394:  MOVLB  0
0C396:  CALL   1CB0
0C39A:  MOVFF  03,44E
0C39E:  MOVFF  02,44D
0C3A2:  MOVFF  01,44C
0C3A6:  MOVFF  00,44B
0C3AA:  MOVFF  332,452
0C3AE:  MOVFF  331,451
0C3B2:  MOVFF  330,450
0C3B6:  MOVFF  32F,44F
0C3BA:  CALL   2DF8
0C3BE:  BNC   C3C2
....................       AlarmaSobreTemperatura=ON; 
0C3C0:  BSF    x9F.1
....................    } 
....................     
....................    if(TiempoLlenado>1800){ 
0C3C2:  MOVF   xA9,W
0C3C4:  SUBLW  06
0C3C6:  BC    C3D6
0C3C8:  XORLW  FF
0C3CA:  BNZ   C3D2
0C3CC:  MOVF   xA8,W
0C3CE:  SUBLW  08
0C3D0:  BC    C3D6
....................       AlarmaLlenado=ON; 
0C3D2:  BSF    x9F.2
....................    }else{ 
0C3D4:  BRA    C3D8
....................       AlarmaLlenado=OFF; 
0C3D6:  BCF    x9F.2
....................    } 
....................     
....................    if(tTermostato>=2000){ 
0C3D8:  MOVLB  3
0C3DA:  MOVF   xA5,W
0C3DC:  SUBLW  06
0C3DE:  BC    C3F0
0C3E0:  XORLW  FF
0C3E2:  BNZ   C3EA
0C3E4:  MOVF   xA4,W
0C3E6:  SUBLW  CF
0C3E8:  BC    C3F0
....................       AlarmaTermostato=ON; 
0C3EA:  MOVLB  0
0C3EC:  BSF    x9F.3
0C3EE:  MOVLB  3
....................    } 
....................     
....................    if(!DOOR){ 
0C3F0:  BSF    F93.6
0C3F2:  BTFSS  F81.6
0C3F4:  BRA    C40A
....................       //Desfogue_off; 
....................       //Solenoide_off; 
....................       //Agua_off; 
....................       //Bomba_off; 
....................       //Aire=OFF; 
....................       if(!Secando && !Finalizo && !Desfogando){ 
0C3F6:  MOVLB  0
0C3F8:  BTFSC  xA0.3
0C3FA:  BRA    C406
0C3FC:  BTFSC  xA3.7
0C3FE:  BRA    C406
0C400:  BTFSC  xA0.5
0C402:  BRA    C406
....................          AlarmaPuerta=ON; 
0C404:  BSF    x9F.4
....................       } 
....................    }else{ 
0C406:  BRA    C40E
0C408:  MOVLB  3
....................       AlarmaPuerta=OFF; 
0C40A:  MOVLB  0
0C40C:  BCF    x9F.4
....................    } 
....................  
....................    if(tStop>=300){ 
0C40E:  MOVLB  3
0C410:  MOVF   xA3,W
0C412:  SUBLW  00
0C414:  BC    C426
0C416:  XORLW  FF
0C418:  BNZ   C420
0C41A:  MOVF   xA2,W
0C41C:  SUBLW  2B
0C41E:  BC    C426
....................       AlarmaEmergencia=ON; 
0C420:  MOVLB  0
0C422:  BSF    x9F.5
0C424:  MOVLB  3
....................    } 
....................     
....................    if(AlarmaPuerta || AlarmaTermostato || AlarmaLlenado || AlarmaSobreTemperatura || AlarmaTiempoProlongado || AlarmaEmergencia || AlarmaPresion 
....................    || AlarmaCiclo){ 
0C426:  MOVLB  0
0C428:  BTFSC  x9F.4
0C42A:  BRA    C448
0C42C:  BTFSC  x9F.3
0C42E:  BRA    C448
0C430:  BTFSC  x9F.2
0C432:  BRA    C448
0C434:  BTFSC  x9F.1
0C436:  BRA    C448
0C438:  BTFSC  x9F.0
0C43A:  BRA    C448
0C43C:  BTFSC  x9F.5
0C43E:  BRA    C448
0C440:  BTFSC  xA4.0
0C442:  BRA    C448
0C444:  BTFSS  x9F.6
0C446:  BRA    C8C0
....................       ActivaAlarma(1); 
0C448:  MOVLW  01
0C44A:  MOVLB  4
0C44C:  MOVWF  x47
0C44E:  MOVLB  0
0C450:  CALL   4842
....................       if(AlarmaEmergencia){ 
0C454:  BTFSS  x9F.5
0C456:  BRA    C4E4
....................          printf("Funcionamiento.t4f.txt=\" Parada de Emergencia\""); 
0C458:  MOVLW  A0
0C45A:  MOVWF  FF6
0C45C:  MOVLW  12
0C45E:  MOVWF  FF7
0C460:  MOVLW  00
0C462:  MOVWF  FF8
0C464:  CALL   39B8
....................          SendDataDisplay(); 
0C468:  CALL   39EA
....................          printf("Funcionamiento.t5f.txt=\" Cancelado\""); 
0C46C:  MOVLW  D0
0C46E:  MOVWF  FF6
0C470:  MOVLW  12
0C472:  MOVWF  FF7
0C474:  MOVLW  00
0C476:  MOVWF  FF8
0C478:  CALL   39B8
....................          SendDataDisplay(); 
0C47C:  CALL   39EA
....................          Desfogue_on; 
0C480:  BCF    F8B.1
0C482:  BCF    F94.1
....................          SSR_off; 
0C484:  BCF    F8D.1
0C486:  BCF    F96.1
....................          SSR2_off; 
0C488:  BCF    F8D.2
0C48A:  BCF    F96.2
....................          Agua_off; 
0C48C:  BSF    F8B.2
0C48E:  BCF    F94.2
....................          #ifdef Generador 
....................          Paso_off; 
0C490:  BSF    F8B.0
0C492:  BCF    F94.0
....................          //monitoreaAgua(); 
....................          #else 
....................          Bomba_off; 
....................          #endif 
....................          Aire=OFF; 
0C494:  BCF    xA4.4
....................          Esterilizando=OFF; 
0C496:  BCF    xA0.2
....................          Desfogando=OFF; 
0C498:  BCF    xA0.5
....................          DesfogueSuave=OFF; 
0C49A:  BCF    xA0.6
....................          Esterilizando=OFF; 
0C49C:  BCF    xA0.2
....................          //IniciaCiclo=OFF; 
....................          Controlando=0; 
0C49E:  MOVLB  3
0C4A0:  CLRF   x5D
....................          codigoAlarma=1; 
0C4A2:  MOVLW  01
0C4A4:  MOVLB  2
0C4A6:  MOVWF  xED
....................          if(codigoAnt!=codigoAlarma){ 
0C4A8:  MOVF   xED,W
0C4AA:  SUBWF  xEE,W
0C4AC:  BZ    C4BC
....................             codigoAnt=codigoAlarma; 
0C4AE:  MOVFF  2ED,2EE
....................             GuardaDatoCiclo(); 
0C4B2:  MOVLB  0
0C4B4:  CALL   6A60
....................             incrementaCiclos(); 
0C4B8:  CALL   6E04
....................          } 
....................          if(!flagImprimir){ 
0C4BC:  MOVLB  3
0C4BE:  BTFSC  x5A.1
0C4C0:  BRA    C4E0
....................             Imprime=20; 
0C4C2:  MOVLW  14
0C4C4:  MOVWF  xB5
....................             Envio_Esclavos(); 
0C4C6:  MOVLB  0
0C4C8:  CALL   4780
....................             delay_ms(100); 
0C4CC:  MOVLW  64
0C4CE:  MOVLB  4
0C4D0:  MOVWF  x5C
0C4D2:  MOVLB  0
0C4D4:  CALL   1AF4
....................             Imprime=10; 
0C4D8:  MOVLW  0A
0C4DA:  MOVLB  3
0C4DC:  MOVWF  xB5
....................             flagImprimir=1; 
0C4DE:  BSF    x5A.1
....................          } 
....................       }else if(AlarmaPuerta){ 
0C4E0:  BRA    C8BA
0C4E2:  MOVLB  0
0C4E4:  BTFSS  x9F.4
0C4E6:  BRA    C54C
....................             codigoAlarma=2; 
0C4E8:  MOVLW  02
0C4EA:  MOVLB  2
0C4EC:  MOVWF  xED
....................             printf("Funcionamiento.t4f.txt=\" Puerta Abierta\""); 
0C4EE:  MOVLW  F4
0C4F0:  MOVWF  FF6
0C4F2:  MOVLW  12
0C4F4:  MOVWF  FF7
0C4F6:  MOVLW  00
0C4F8:  MOVWF  FF8
0C4FA:  MOVLB  0
0C4FC:  CALL   39B8
....................             SendDataDisplay(); 
0C500:  CALL   39EA
....................             printf("Funcionamiento.t5f.txt=\" Pausado\""); 
0C504:  MOVLW  1E
0C506:  MOVWF  FF6
0C508:  MOVLW  13
0C50A:  MOVWF  FF7
0C50C:  MOVLW  00
0C50E:  MOVWF  FF8
0C510:  CALL   39B8
....................             SendDataDisplay(); 
0C514:  CALL   39EA
....................             SSR_off; 
0C518:  BCF    F8D.1
0C51A:  BCF    F96.1
....................             SSR2_off; 
0C51C:  BCF    F8D.2
0C51E:  BCF    F96.2
....................             Agua_off; 
0C520:  BSF    F8B.2
0C522:  BCF    F94.2
....................             #ifdef Generador 
....................             //monitoreaAgua(); 
....................             Paso_off; 
0C524:  BSF    F8B.0
0C526:  BCF    F94.0
....................             #else 
....................             Bomba_off; 
....................             #endif 
....................             Aire=OFF; 
0C528:  BCF    xA4.4
....................             IniciaLlenado=OFF; 
0C52A:  BCF    x9F.7
....................             IniciaCiclo=OFF; 
0C52C:  BCF    xA0.1
....................             Esterilizando=OFF; 
0C52E:  BCF    xA0.2
....................             Controlando=0; 
0C530:  MOVLB  3
0C532:  CLRF   x5D
....................             if(codigoAnt!=codigoAlarma){ 
0C534:  MOVLB  2
0C536:  MOVF   xED,W
0C538:  SUBWF  xEE,W
0C53A:  BZ    C548
....................                codigoAnt=codigoAlarma; 
0C53C:  MOVFF  2ED,2EE
....................                GuardaDatoCiclo(); 
0C540:  MOVLB  0
0C542:  CALL   6A60
0C546:  MOVLB  2
....................                //incrementaCiclos(); 
....................             } 
....................       }else if(AlarmaLlenado){ 
0C548:  BRA    C8BC
0C54A:  MOVLB  0
0C54C:  BTFSS  x9F.2
0C54E:  BRA    C5DE
....................             codigoAlarma=8; 
0C550:  MOVLW  08
0C552:  MOVLB  2
0C554:  MOVWF  xED
....................             printf("Funcionamiento.t4f.txt=\" Tiempo Llenado\""); 
0C556:  MOVLW  40
0C558:  MOVWF  FF6
0C55A:  MOVLW  13
0C55C:  MOVWF  FF7
0C55E:  MOVLW  00
0C560:  MOVWF  FF8
0C562:  MOVLB  0
0C564:  CALL   39B8
....................             SendDataDisplay(); 
0C568:  CALL   39EA
....................             printf("Funcionamiento.t5f.txt=\" Cancelado\""); 
0C56C:  MOVLW  6A
0C56E:  MOVWF  FF6
0C570:  MOVLW  13
0C572:  MOVWF  FF7
0C574:  MOVLW  00
0C576:  MOVWF  FF8
0C578:  CALL   39B8
....................             SendDataDisplay(); 
0C57C:  CALL   39EA
....................             Desfogue_off; 
0C580:  BSF    F8B.1
0C582:  BCF    F94.1
....................             SSR_off; 
0C584:  BCF    F8D.1
0C586:  BCF    F96.1
....................             SSR2_off; 
0C588:  BCF    F8D.2
0C58A:  BCF    F96.2
....................             Agua_off; 
0C58C:  BSF    F8B.2
0C58E:  BCF    F94.2
....................             #ifdef Generador 
....................             Paso_off; 
0C590:  BSF    F8B.0
0C592:  BCF    F94.0
....................             //monitoreaAgua(); 
....................             #else 
....................             Bomba_off; 
....................             #endif 
....................             Aire=OFF; 
0C594:  BCF    xA4.4
....................             IniciaLlenado=OFF; 
0C596:  BCF    x9F.7
....................             IniciaCiclo=OFF; 
0C598:  BCF    xA0.1
....................             Esterilizando=OFF; 
0C59A:  BCF    xA0.2
....................             Controlando=0; 
0C59C:  MOVLB  3
0C59E:  CLRF   x5D
....................             if(codigoAnt!=codigoAlarma){ 
0C5A0:  MOVLB  2
0C5A2:  MOVF   xED,W
0C5A4:  SUBWF  xEE,W
0C5A6:  BZ    C5B6
....................                codigoAnt=codigoAlarma; 
0C5A8:  MOVFF  2ED,2EE
....................                GuardaDatoCiclo(); 
0C5AC:  MOVLB  0
0C5AE:  CALL   6A60
....................                incrementaCiclos(); 
0C5B2:  CALL   6E04
....................             } 
....................             if(!flagImprimir){ 
0C5B6:  MOVLB  3
0C5B8:  BTFSC  x5A.1
0C5BA:  BRA    C5DA
....................                Imprime=21; 
0C5BC:  MOVLW  15
0C5BE:  MOVWF  xB5
....................                Envio_Esclavos(); 
0C5C0:  MOVLB  0
0C5C2:  CALL   4780
....................                delay_ms(100); 
0C5C6:  MOVLW  64
0C5C8:  MOVLB  4
0C5CA:  MOVWF  x5C
0C5CC:  MOVLB  0
0C5CE:  CALL   1AF4
....................                Imprime=10; 
0C5D2:  MOVLW  0A
0C5D4:  MOVLB  3
0C5D6:  MOVWF  xB5
....................                flagImprimir=1; 
0C5D8:  BSF    x5A.1
....................             } 
....................       }else if(AlarmaTermostato){ // Alarma de Termostato 
0C5DA:  BRA    C8BA
0C5DC:  MOVLB  0
0C5DE:  BTFSS  x9F.3
0C5E0:  BRA    C676
....................             codigoAlarma=3; 
0C5E2:  MOVLW  03
0C5E4:  MOVLB  2
0C5E6:  MOVWF  xED
....................             tiempo_esterilizacion=0;tiempo_secado=0; 
0C5E8:  MOVLB  3
0C5EA:  CLRF   x6F
0C5EC:  CLRF   x70
....................             printf("Funcionamiento.t4f.txt=\" Termostato\""); 
0C5EE:  MOVLW  8E
0C5F0:  MOVWF  FF6
0C5F2:  MOVLW  13
0C5F4:  MOVWF  FF7
0C5F6:  MOVLW  00
0C5F8:  MOVWF  FF8
0C5FA:  MOVLB  0
0C5FC:  CALL   39B8
....................             SendDataDisplay(); 
0C600:  CALL   39EA
....................             printf("Funcionamiento.t5f.txt=\" Cancelado\""); 
0C604:  MOVLW  B4
0C606:  MOVWF  FF6
0C608:  MOVLW  13
0C60A:  MOVWF  FF7
0C60C:  MOVLW  00
0C60E:  MOVWF  FF8
0C610:  CALL   39B8
....................             SendDataDisplay(); 
0C614:  CALL   39EA
....................             Desfogue_on;             
0C618:  BCF    F8B.1
0C61A:  BCF    F94.1
....................             SSR_off; 
0C61C:  BCF    F8D.1
0C61E:  BCF    F96.1
....................             SSR2_off; 
0C620:  BCF    F8D.2
0C622:  BCF    F96.2
....................             Agua_off; 
0C624:  BSF    F8B.2
0C626:  BCF    F94.2
....................             #ifdef Generador 
....................             Paso_off; 
0C628:  BSF    F8B.0
0C62A:  BCF    F94.0
....................             #else 
....................             Bomba_off; 
....................             #endif 
....................             Aire=OFF; 
0C62C:  BCF    xA4.4
....................             Esterilizando=OFF; 
0C62E:  BCF    xA0.2
....................             Desfogando=OFF; 
0C630:  BCF    xA0.5
....................             IniciaCiclo=OFF; 
0C632:  BCF    xA0.1
....................             Controlando=0; 
0C634:  MOVLB  3
0C636:  CLRF   x5D
....................             if(codigoAnt!=codigoAlarma){ 
0C638:  MOVLB  2
0C63A:  MOVF   xED,W
0C63C:  SUBWF  xEE,W
0C63E:  BZ    C64E
....................                codigoAnt=codigoAlarma; 
0C640:  MOVFF  2ED,2EE
....................                GuardaDatoCiclo(); 
0C644:  MOVLB  0
0C646:  CALL   6A60
....................                incrementaCiclos(); 
0C64A:  CALL   6E04
....................             } 
....................             if(!flagImprimir){ 
0C64E:  MOVLB  3
0C650:  BTFSC  x5A.1
0C652:  BRA    C672
....................                Imprime=22; 
0C654:  MOVLW  16
0C656:  MOVWF  xB5
....................                Envio_Esclavos(); 
0C658:  MOVLB  0
0C65A:  CALL   4780
....................                delay_ms(100); 
0C65E:  MOVLW  64
0C660:  MOVLB  4
0C662:  MOVWF  x5C
0C664:  MOVLB  0
0C666:  CALL   1AF4
....................                Imprime=10; 
0C66A:  MOVLW  0A
0C66C:  MOVLB  3
0C66E:  MOVWF  xB5
....................                flagImprimir=1; 
0C670:  BSF    x5A.1
....................             } 
....................       }else if(AlarmaSobreTemperatura){ // Alarma de Sobre Temperatura 
0C672:  BRA    C8BA
0C674:  MOVLB  0
0C676:  BTFSS  x9F.1
0C678:  BRA    C710
....................          codigoAlarma=4; 
0C67A:  MOVLW  04
0C67C:  MOVLB  2
0C67E:  MOVWF  xED
....................          tiempo_esterilizacion=0;tiempo_secado=0; 
0C680:  MOVLB  3
0C682:  CLRF   x6F
0C684:  CLRF   x70
....................          printf("Funcionamiento.t4f.txt=\" Sobretemperatura\""); 
0C686:  MOVLW  D8
0C688:  MOVWF  FF6
0C68A:  MOVLW  13
0C68C:  MOVWF  FF7
0C68E:  MOVLW  00
0C690:  MOVWF  FF8
0C692:  MOVLB  0
0C694:  CALL   39B8
....................          SendDataDisplay(); 
0C698:  CALL   39EA
....................          printf("Funcionamiento.t5f.txt=\" Cancelado\""); 
0C69C:  MOVLW  04
0C69E:  MOVWF  FF6
0C6A0:  MOVLW  14
0C6A2:  MOVWF  FF7
0C6A4:  MOVLW  00
0C6A6:  MOVWF  FF8
0C6A8:  CALL   39B8
....................          SendDataDisplay();   
0C6AC:  CALL   39EA
....................          Desfogue_on; 
0C6B0:  BCF    F8B.1
0C6B2:  BCF    F94.1
....................          SSR_off; 
0C6B4:  BCF    F8D.1
0C6B6:  BCF    F96.1
....................          SSR2_off; 
0C6B8:  BCF    F8D.2
0C6BA:  BCF    F96.2
....................          Agua_off; 
0C6BC:  BSF    F8B.2
0C6BE:  BCF    F94.2
....................          #ifdef Generador 
....................          Paso_off; 
0C6C0:  BSF    F8B.0
0C6C2:  BCF    F94.0
....................          #else 
....................          Bomba_off; 
....................          #endif 
....................          Aire=OFF; 
0C6C4:  BCF    xA4.4
....................          Controlando=0; 
0C6C6:  MOVLB  3
0C6C8:  CLRF   x5D
....................          IniciaLlenado=OFF; 
0C6CA:  MOVLB  0
0C6CC:  BCF    x9F.7
....................          IniciaCiclo=OFF; 
0C6CE:  BCF    xA0.1
....................          Esterilizando=OFF; 
0C6D0:  BCF    xA0.2
....................          if(codigoAnt!=codigoAlarma){ 
0C6D2:  MOVLB  2
0C6D4:  MOVF   xED,W
0C6D6:  SUBWF  xEE,W
0C6D8:  BZ    C6E8
....................             codigoAnt=codigoAlarma; 
0C6DA:  MOVFF  2ED,2EE
....................             GuardaDatoCiclo(); 
0C6DE:  MOVLB  0
0C6E0:  CALL   6A60
....................             incrementaCiclos(); 
0C6E4:  CALL   6E04
....................          } 
....................          if(!flagImprimir){ 
0C6E8:  MOVLB  3
0C6EA:  BTFSC  x5A.1
0C6EC:  BRA    C70C
....................             Imprime=23; 
0C6EE:  MOVLW  17
0C6F0:  MOVWF  xB5
....................             Envio_Esclavos(); 
0C6F2:  MOVLB  0
0C6F4:  CALL   4780
....................             delay_ms(100); 
0C6F8:  MOVLW  64
0C6FA:  MOVLB  4
0C6FC:  MOVWF  x5C
0C6FE:  MOVLB  0
0C700:  CALL   1AF4
....................             Imprime=10; 
0C704:  MOVLW  0A
0C706:  MOVLB  3
0C708:  MOVWF  xB5
....................             flagImprimir=1; 
0C70A:  BSF    x5A.1
....................          } 
....................       }else if(AlarmaTiempoProlongado){ // Alarma de Error de Tiempo: Error por exceso de tiempo de calentamiento. 
0C70C:  BRA    C8BA
0C70E:  MOVLB  0
0C710:  BTFSS  x9F.0
0C712:  BRA    C7A4
....................          codigoAlarma=5; 
0C714:  MOVLW  05
0C716:  MOVLB  2
0C718:  MOVWF  xED
....................          printf("Funcionamiento.t4f.txt=\" Tiempo Prolongado\""); 
0C71A:  MOVLW  28
0C71C:  MOVWF  FF6
0C71E:  MOVLW  14
0C720:  MOVWF  FF7
0C722:  MOVLW  00
0C724:  MOVWF  FF8
0C726:  MOVLB  0
0C728:  CALL   39B8
....................          SendDataDisplay(); 
0C72C:  CALL   39EA
....................          printf("Funcionamiento.t5f.txt=\" Cancelado\""); 
0C730:  MOVLW  54
0C732:  MOVWF  FF6
0C734:  MOVLW  14
0C736:  MOVWF  FF7
0C738:  MOVLW  00
0C73A:  MOVWF  FF8
0C73C:  CALL   39B8
....................          SendDataDisplay(); 
0C740:  CALL   39EA
....................          Desfogue_on; 
0C744:  BCF    F8B.1
0C746:  BCF    F94.1
....................          SSR_off; 
0C748:  BCF    F8D.1
0C74A:  BCF    F96.1
....................          SSR2_off; 
0C74C:  BCF    F8D.2
0C74E:  BCF    F96.2
....................          Agua_off; 
0C750:  BSF    F8B.2
0C752:  BCF    F94.2
....................          #ifdef Generador 
....................          Paso_off; 
0C754:  BSF    F8B.0
0C756:  BCF    F94.0
....................          #else 
....................          Bomba_off; 
....................          #endif 
....................          Aire=OFF; 
0C758:  BCF    xA4.4
....................          Controlando=0; 
0C75A:  MOVLB  3
0C75C:  CLRF   x5D
....................          IniciaLlenado=OFF; 
0C75E:  MOVLB  0
0C760:  BCF    x9F.7
....................          IniciaCiclo=OFF; 
0C762:  BCF    xA0.1
....................          Esterilizando=OFF; 
0C764:  BCF    xA0.2
....................          if(codigoAnt!=codigoAlarma){ 
0C766:  MOVLB  2
0C768:  MOVF   xED,W
0C76A:  SUBWF  xEE,W
0C76C:  BZ    C77C
....................             codigoAnt=codigoAlarma; 
0C76E:  MOVFF  2ED,2EE
....................             GuardaDatoCiclo(); 
0C772:  MOVLB  0
0C774:  CALL   6A60
....................             incrementaCiclos(); 
0C778:  CALL   6E04
....................          } 
....................          if(!flagImprimir){ 
0C77C:  MOVLB  3
0C77E:  BTFSC  x5A.1
0C780:  BRA    C7A0
....................             Imprime=24; 
0C782:  MOVLW  18
0C784:  MOVWF  xB5
....................             Envio_Esclavos(); 
0C786:  MOVLB  0
0C788:  CALL   4780
....................             delay_ms(100); 
0C78C:  MOVLW  64
0C78E:  MOVLB  4
0C790:  MOVWF  x5C
0C792:  MOVLB  0
0C794:  CALL   1AF4
....................             Imprime=10; 
0C798:  MOVLW  0A
0C79A:  MOVLB  3
0C79C:  MOVWF  xB5
....................             flagImprimir=1; 
0C79E:  BSF    x5A.1
....................          } 
....................       }else if(AlarmaPresion){ // Alarma de Error de SobrePresion: Error por exceso de Presion. 
0C7A0:  BRA    C8BA
0C7A2:  MOVLB  0
0C7A4:  BTFSS  xA4.0
0C7A6:  BRA    C836
....................          codigoAlarma=6; 
0C7A8:  MOVLW  06
0C7AA:  MOVLB  2
0C7AC:  MOVWF  xED
....................          printf("Funcionamiento.t4f.txt=\" SobrePresin\""); 
0C7AE:  MOVLW  78
0C7B0:  MOVWF  FF6
0C7B2:  MOVLW  14
0C7B4:  MOVWF  FF7
0C7B6:  MOVLW  00
0C7B8:  MOVWF  FF8
0C7BA:  MOVLB  0
0C7BC:  CALL   39B8
....................          SendDataDisplay(); 
0C7C0:  CALL   39EA
....................          printf("Funcionamiento.t5f.txt=\" Cancelado\""); 
0C7C4:  MOVLW  A0
0C7C6:  MOVWF  FF6
0C7C8:  MOVLW  14
0C7CA:  MOVWF  FF7
0C7CC:  MOVLW  00
0C7CE:  MOVWF  FF8
0C7D0:  CALL   39B8
....................          SendDataDisplay(); 
0C7D4:  CALL   39EA
....................          Desfogue_on; 
0C7D8:  BCF    F8B.1
0C7DA:  BCF    F94.1
....................          SSR_off; 
0C7DC:  BCF    F8D.1
0C7DE:  BCF    F96.1
....................          SSR2_off; 
0C7E0:  BCF    F8D.2
0C7E2:  BCF    F96.2
....................          IniciaLlenado=OFF; 
0C7E4:  BCF    x9F.7
....................          IniciaCiclo=OFF; 
0C7E6:  BCF    xA0.1
....................          Esterilizando=OFF; 
0C7E8:  BCF    xA0.2
....................          Agua_off; 
0C7EA:  BSF    F8B.2
0C7EC:  BCF    F94.2
....................          #ifdef Generador 
....................          Paso_on; 
0C7EE:  BCF    F8B.0
0C7F0:  BCF    F94.0
....................          #else 
....................          Bomba_off; 
....................          #endif 
....................          Aire=OFF; 
0C7F2:  BCF    xA4.4
....................          Controlando=0; 
0C7F4:  MOVLB  3
0C7F6:  CLRF   x5D
....................          if(codigoAnt!=codigoAlarma){ 
0C7F8:  MOVLB  2
0C7FA:  MOVF   xED,W
0C7FC:  SUBWF  xEE,W
0C7FE:  BZ    C80E
....................             codigoAnt=codigoAlarma; 
0C800:  MOVFF  2ED,2EE
....................             GuardaDatoCiclo(); 
0C804:  MOVLB  0
0C806:  CALL   6A60
....................             incrementaCiclos(); 
0C80A:  CALL   6E04
....................          } 
....................          if(!flagImprimir){ 
0C80E:  MOVLB  3
0C810:  BTFSC  x5A.1
0C812:  BRA    C832
....................             Imprime=25; 
0C814:  MOVLW  19
0C816:  MOVWF  xB5
....................             Envio_Esclavos(); 
0C818:  MOVLB  0
0C81A:  CALL   4780
....................             delay_ms(100); 
0C81E:  MOVLW  64
0C820:  MOVLB  4
0C822:  MOVWF  x5C
0C824:  MOVLB  0
0C826:  CALL   1AF4
....................             Imprime=10; 
0C82A:  MOVLW  0A
0C82C:  MOVLB  3
0C82E:  MOVWF  xB5
....................             flagImprimir=1; 
0C830:  BSF    x5A.1
....................          } 
....................       }else if(AlarmaCiclo){ // Alarma de Error de SobrePresion: Error por exceso de Presion. 
0C832:  BRA    C8BA
0C834:  MOVLB  0
0C836:  BTFSS  x9F.6
0C838:  BRA    C8BA
....................          codigoAlarma=7; 
0C83A:  MOVLW  07
0C83C:  MOVLB  2
0C83E:  MOVWF  xED
....................          printf("Funcionamiento.t4f.txt=\" Error Ciclo\""); 
0C840:  MOVLW  C4
0C842:  MOVWF  FF6
0C844:  MOVLW  14
0C846:  MOVWF  FF7
0C848:  MOVLW  00
0C84A:  MOVWF  FF8
0C84C:  MOVLB  0
0C84E:  CALL   39B8
....................          SendDataDisplay(); 
0C852:  CALL   39EA
....................          printf("Funcionamiento.t5f.txt=\" Cancelado\""); 
0C856:  MOVLW  EA
0C858:  MOVWF  FF6
0C85A:  MOVLW  14
0C85C:  MOVWF  FF7
0C85E:  MOVLW  00
0C860:  MOVWF  FF8
0C862:  CALL   39B8
....................          SendDataDisplay(); 
0C866:  CALL   39EA
....................          Desfogue_on; 
0C86A:  BCF    F8B.1
0C86C:  BCF    F94.1
....................          SSR_off; 
0C86E:  BCF    F8D.1
0C870:  BCF    F96.1
....................          SSR2_off; 
0C872:  BCF    F8D.2
0C874:  BCF    F96.2
....................          IniciaLlenado=OFF; 
0C876:  BCF    x9F.7
....................          IniciaCiclo=OFF; 
0C878:  BCF    xA0.1
....................          Esterilizando=OFF; 
0C87A:  BCF    xA0.2
....................          Controlando=0; 
0C87C:  MOVLB  3
0C87E:  CLRF   x5D
....................          if(codigoAnt!=codigoAlarma){ 
0C880:  MOVLB  2
0C882:  MOVF   xED,W
0C884:  SUBWF  xEE,W
0C886:  BZ    C896
....................             codigoAnt=codigoAlarma; 
0C888:  MOVFF  2ED,2EE
....................             GuardaDatoCiclo(); 
0C88C:  MOVLB  0
0C88E:  CALL   6A60
....................             incrementaCiclos(); 
0C892:  CALL   6E04
....................          } 
....................          if(!flagImprimir){ 
0C896:  MOVLB  3
0C898:  BTFSC  x5A.1
0C89A:  BRA    C8BA
....................             Imprime=26; 
0C89C:  MOVLW  1A
0C89E:  MOVWF  xB5
....................             Envio_Esclavos(); 
0C8A0:  MOVLB  0
0C8A2:  CALL   4780
....................             delay_ms(100); 
0C8A6:  MOVLW  64
0C8A8:  MOVLB  4
0C8AA:  MOVWF  x5C
0C8AC:  MOVLB  0
0C8AE:  CALL   1AF4
....................             Imprime=10; 
0C8B2:  MOVLW  0A
0C8B4:  MOVLB  3
0C8B6:  MOVWF  xB5
....................             flagImprimir=1; 
0C8B8:  BSF    x5A.1
0C8BA:  MOVLB  2
....................          } 
....................       } 
....................    } 
....................    else{   
0C8BC:  BRA    CF9A
0C8BE:  MOVLB  0
....................       Buzzer_off; 
0C8C0:  BCF    F8C.7
0C8C2:  BCF    F95.7
....................       IniciaCiclo=ON; 
0C8C4:  BSF    xA0.1
....................       if(flagImprime){ 
0C8C6:  MOVLB  3
0C8C8:  BTFSS  x5A.0
0C8CA:  BRA    C8EA
....................          Imprime=5; 
0C8CC:  MOVLW  05
0C8CE:  MOVWF  xB5
....................          Envio_Esclavos(); 
0C8D0:  MOVLB  0
0C8D2:  CALL   4780
....................          delay_ms(100); 
0C8D6:  MOVLW  64
0C8D8:  MOVLB  4
0C8DA:  MOVWF  x5C
0C8DC:  MOVLB  0
0C8DE:  CALL   1AF4
....................          Imprime=10; 
0C8E2:  MOVLW  0A
0C8E4:  MOVLB  3
0C8E6:  MOVWF  xB5
....................          flagImprime=0; 
0C8E8:  BCF    x5A.0
....................       } 
....................          if(!CalderinLleno){ 
0C8EA:  MOVLB  0
0C8EC:  BTFSC  xA0.0
0C8EE:  BRA    C95A
....................             #ifdef Generador 
....................                monitoreaAgua(); 
0C8F0:  GOTO   6E90
....................                //Agua_on; 
....................                Paso_on; 
0C8F4:  BCF    F8B.0
0C8F6:  BCF    F94.0
....................                Desfogue_on; 
0C8F8:  BCF    F8B.1
0C8FA:  BCF    F94.1
....................                printf("Funcionamiento.t4f.txt=\" Ninguna\""); 
0C8FC:  MOVLW  0E
0C8FE:  MOVWF  FF6
0C900:  MOVLW  15
0C902:  MOVWF  FF7
0C904:  MOVLW  00
0C906:  MOVWF  FF8
0C908:  CALL   39B8
....................                SendDataDisplay(); 
0C90C:  CALL   39EA
....................                printf("Funcionamiento.t5f.txt=\" Llenando Generador\""); 
0C910:  MOVLW  30
0C912:  MOVWF  FF6
0C914:  MOVLW  15
0C916:  MOVWF  FF7
0C918:  MOVLW  00
0C91A:  MOVWF  FF8
0C91C:  CALL   39B8
....................                SendDataDisplay(); 
0C920:  CALL   39EA
....................             #else 
....................             #ifdef Reservorio 
....................                if(!HIG){ 
....................                   printf("Funcionamiento.t4f.txt=\" Reservorio Bajo \""); 
....................                   SendDataDisplay(); 
....................                   printf("Funcionamiento.t5f.txt=\" Llenando Camara\""); 
....................                   SendDataDisplay(); 
....................                   #ifdef ULKA               
....................                      apagaBombaAgua(); 
....................                      Desfogue_off; 
....................                   #else 
....................                      Bomba_off; 
....................                      Desfogue_off; 
....................                      Agua_on; 
....................                   #endif 
....................                }else{ 
....................                   printf("Funcionamiento.t4f.txt=\" Ninguna\""); 
....................                   SendDataDisplay(); 
....................                   printf("Funcionamiento.t5f.txt=\" Llenando Camara\""); 
....................                   SendDataDisplay(); 
....................                   #ifdef ULKA               
....................                      enciendeBombaAgua(); 
....................                      Desfogue_off; 
....................                   #else 
....................                      Bomba_on; 
....................                      Desfogue_off; 
....................                      Agua_on; 
....................                   #endif 
....................                }  
....................             #else 
....................                printf("Funcionamiento.t4f.txt=\" Ninguna\""); 
....................                SendDataDisplay(); 
....................                printf("Funcionamiento.t5f.txt=\" Nivel Bajo\""); 
....................                SendDataDisplay(); 
....................                Desfogue_off; 
....................             #endif 
....................             #endif 
....................             SSR_off; 
0C924:  BCF    F8D.1
0C926:  BCF    F96.1
....................             SSR2_off; 
0C928:  BCF    F8D.2
0C92A:  BCF    F96.2
....................             Controlando=0; 
0C92C:  MOVLB  3
0C92E:  CLRF   x5D
....................             Control=0; 
0C930:  CLRF   x5B
....................             IniciaLlenado=ON; 
0C932:  MOVLB  0
0C934:  BSF    x9F.7
....................             Controlando=0; 
0C936:  MOVLB  3
0C938:  CLRF   x5D
....................             //Desfogue_off; 
....................             Aire=ON; 
0C93A:  MOVLB  0
0C93C:  BSF    xA4.4
....................             codigoAlarma=10; 
0C93E:  MOVLW  0A
0C940:  MOVLB  2
0C942:  MOVWF  xED
....................             if(codigoAnt!=codigoAlarma){ 
0C944:  MOVF   xED,W
0C946:  SUBWF  xEE,W
0C948:  BZ    C956
....................                codigoAnt=codigoAlarma; 
0C94A:  MOVFF  2ED,2EE
....................                GuardaDatoCiclo(); 
0C94E:  MOVLB  0
0C950:  CALL   6A60
0C954:  MOVLB  2
....................             } 
....................          } 
....................          #ifdef Generador 
....................          else if(!Precalentamiento){ 
0C956:  BRA    CF9A
0C958:  MOVLB  0
0C95A:  BTFSC  xA0.7
0C95C:  BRA    C9B8
....................             printf("Funcionamiento.t4f.txt=\" Ninguna\""); 
0C95E:  MOVLW  5E
0C960:  MOVWF  FF6
0C962:  MOVLW  15
0C964:  MOVWF  FF7
0C966:  MOVLW  00
0C968:  MOVWF  FF8
0C96A:  CALL   39B8
....................             SendDataDisplay(); 
0C96E:  CALL   39EA
....................             printf("Funcionamiento.t5f.txt=\" PreCalentando\""); 
0C972:  MOVLW  80
0C974:  MOVWF  FF6
0C976:  MOVLW  15
0C978:  MOVWF  FF7
0C97A:  MOVLW  00
0C97C:  MOVWF  FF8
0C97E:  CALL   39B8
....................             SendDataDisplay(); 
0C982:  CALL   39EA
....................             ControlaPresionChaqueta();  
0C986:  GOTO   6F1E
....................             Control=0; 
0C98A:  MOVLB  3
0C98C:  CLRF   x5B
....................             Controlando=0; 
0C98E:  CLRF   x5D
....................             codigoAlarma=12; 
0C990:  MOVLW  0C
0C992:  MOVLB  2
0C994:  MOVWF  xED
....................             if(codigoAnt!=codigoAlarma){ 
0C996:  MOVF   xED,W
0C998:  SUBWF  xEE,W
0C99A:  BZ    C9A8
....................                codigoAnt=codigoAlarma; 
0C99C:  MOVFF  2ED,2EE
....................                GuardaDatoCiclo(); 
0C9A0:  MOVLB  0
0C9A2:  CALL   6A60
0C9A6:  MOVLB  2
....................             } 
....................             Agua_off; 
0C9A8:  BSF    F8B.2
0C9AA:  BCF    F94.2
....................             Paso_off; 
0C9AC:  BSF    F8B.0
0C9AE:  BCF    F94.0
....................             Desfogue_off;            
0C9B0:  BSF    F8B.1
0C9B2:  BCF    F94.1
....................          }         
....................           
....................          #endif 
....................          else{ 
0C9B4:  BRA    CF9A
0C9B6:  MOVLB  0
....................             Agua_off; 
0C9B8:  BSF    F8B.2
0C9BA:  BCF    F94.2
....................             if(Temperatura>=((float)Setpoint)){ 
0C9BC:  MOVLB  4
0C9BE:  CLRF   x5D
0C9C0:  MOVFF  36C,45C
0C9C4:  MOVLB  0
0C9C6:  CALL   1B1C
0C9CA:  MOVFF  03,44E
0C9CE:  MOVFF  02,44D
0C9D2:  MOVFF  01,44C
0C9D6:  MOVFF  00,44B
0C9DA:  MOVFF  332,452
0C9DE:  MOVFF  331,451
0C9E2:  MOVFF  330,450
0C9E6:  MOVFF  32F,44F
0C9EA:  CALL   2DF8
0C9EE:  BC    C9F2
0C9F0:  BNZ   C9F4
....................                Esterilizando=ON; 
0C9F2:  BSF    xA0.2
....................             } 
....................              
....................             if(Temperatura<((float)Setpoint-0.9) && !Desfogando){ 
0C9F4:  MOVLB  4
0C9F6:  CLRF   x5D
0C9F8:  MOVFF  36C,45C
0C9FC:  MOVLB  0
0C9FE:  CALL   1B1C
0CA02:  MOVFF  00,447
0CA06:  MOVFF  01,448
0CA0A:  MOVFF  02,449
0CA0E:  MOVFF  03,44A
0CA12:  BSF    FD8.1
0CA14:  MOVFF  03,45F
0CA18:  MOVFF  02,45E
0CA1C:  MOVFF  01,45D
0CA20:  MOVFF  00,45C
0CA24:  MOVLW  66
0CA26:  MOVLB  4
0CA28:  MOVWF  x63
0CA2A:  MOVWF  x62
0CA2C:  MOVWF  x61
0CA2E:  MOVLW  7E
0CA30:  MOVWF  x60
0CA32:  MOVLB  0
0CA34:  CALL   1CB0
0CA38:  MOVFF  332,44E
0CA3C:  MOVFF  331,44D
0CA40:  MOVFF  330,44C
0CA44:  MOVFF  32F,44B
0CA48:  MOVFF  03,452
0CA4C:  MOVFF  02,451
0CA50:  MOVFF  01,450
0CA54:  MOVFF  00,44F
0CA58:  CALL   2DF8
0CA5C:  BNC   CA64
0CA5E:  BTFSC  xA0.5
0CA60:  BRA    CA64
....................                Esterilizando=OFF; 
0CA62:  BCF    xA0.2
....................             } 
....................              
....................             if(!Esterilizando){ 
0CA64:  BTFSC  xA0.2
0CA66:  BRA    CB02
....................                codigoAlarma=12; 
0CA68:  MOVLW  0C
0CA6A:  MOVLB  2
0CA6C:  MOVWF  xED
....................                if(codigoAnt!=codigoAlarma){ 
0CA6E:  MOVF   xED,W
0CA70:  SUBWF  xEE,W
0CA72:  BZ    CA80
....................                   codigoAnt=codigoAlarma; 
0CA74:  MOVFF  2ED,2EE
....................                   GuardaDatoCiclo();                   
0CA78:  MOVLB  0
0CA7A:  CALL   6A60
0CA7E:  MOVLB  2
....................                } 
....................                printf("Funcionamiento.t4f.txt=\" Ninguna\""); 
0CA80:  MOVLW  A8
0CA82:  MOVWF  FF6
0CA84:  MOVLW  15
0CA86:  MOVWF  FF7
0CA88:  MOVLW  00
0CA8A:  MOVWF  FF8
0CA8C:  MOVLB  0
0CA8E:  CALL   39B8
....................                SendDataDisplay(); 
0CA92:  CALL   39EA
....................                printf("Funcionamiento.t5f.txt=\" Calentando\""); 
0CA96:  MOVLW  CA
0CA98:  MOVWF  FF6
0CA9A:  MOVLW  15
0CA9C:  MOVWF  FF7
0CA9E:  MOVLW  00
0CAA0:  MOVWF  FF8
0CAA2:  CALL   39B8
....................                SendDataDisplay(); 
0CAA6:  CALL   39EA
....................                Control=1; 
0CAAA:  MOVLW  01
0CAAC:  MOVLB  3
0CAAE:  MOVWF  x5B
....................                #ifdef Generador 
....................                Paso_on; 
0CAB0:  BCF    F8B.0
0CAB2:  BCF    F94.0
....................                #else 
....................                Bomba_off; 
....................                #endif 
....................                if(Temperatura<=TTrampa){ 
0CAB4:  MOVLB  4
0CAB6:  CLRF   x5D
0CAB8:  MOVFF  2E3,45C
0CABC:  MOVLB  0
0CABE:  CALL   1B1C
0CAC2:  MOVFF  332,44E
0CAC6:  MOVFF  331,44D
0CACA:  MOVFF  330,44C
0CACE:  MOVFF  32F,44B
0CAD2:  MOVFF  03,452
0CAD6:  MOVFF  02,451
0CADA:  MOVFF  01,450
0CADE:  MOVFF  00,44F
0CAE2:  CALL   2DF8
0CAE6:  BC    CAEA
0CAE8:  BNZ   CAF6
....................                   Aire=ON; 
0CAEA:  BSF    xA4.4
....................                   Controla(); 
0CAEC:  CALL   7050
....................                   #ifdef Reservorio 
....................                      Desfogue_off; 
....................                   #else 
....................                      Desfogue_on; 
0CAF0:  BCF    F8B.1
0CAF2:  BCF    F94.1
....................                   #endif 
....................                }else{ 
0CAF4:  BRA    CB00
....................                   Aire=OFF; 
0CAF6:  BCF    xA4.4
....................                   //Desfogue_off; 
....................                   purgaAire(); 
0CAF8:  GOTO   75E8
....................                   #ifdef PT100Fija 
....................                      Controla(); 
0CAFC:  CALL   7050
....................                   #else 
....................                      ControlaPresion(); 
....................                   #endif 
....................                } 
....................             }else{ 
0CB00:  BRA    CF96
....................                TiempoCiclo=0; 
0CB02:  CLRF   xA7
0CB04:  CLRF   xA6
....................                if((Testerilizacion[0]==0)&&(Testerilizacion[1]==0)&& 
....................                (Testerilizacion[2]==0)&&(Testerilizacion[3]==0)){  
0CB06:  MOVF   xB8,F
0CB08:  BTFSS  FD8.2
0CB0A:  BRA    CF42
0CB0C:  MOVF   xB9,F
0CB0E:  BTFSS  FD8.2
0CB10:  BRA    CF42
0CB12:  MOVF   xBA,F
0CB14:  BTFSS  FD8.2
0CB16:  BRA    CF42
0CB18:  MOVF   xBB,F
0CB1A:  BTFSS  FD8.2
0CB1C:  BRA    CF42
....................                   if(desfoguelento){ 
0CB1E:  BTFSS  xA5.1
0CB20:  BRA    CD16
....................                      Controlando=0; 
0CB22:  MOVLB  3
0CB24:  CLRF   x5D
....................                      if(PresionCamara<=Atmosferica+25){ 
0CB26:  MOVLW  19
0CB28:  ADDWF  xB6,W
0CB2A:  MOVF   x80,F
0CB2C:  BTFSS  FD8.2
0CB2E:  BRA    CCBA
0CB30:  SUBWF  x7F,W
0CB32:  BZ    CB38
0CB34:  BTFSC  FD8.0
0CB36:  BRA    CCBA
....................                         SSR_off; 
0CB38:  BCF    F8D.1
0CB3A:  BCF    F96.1
....................                         SSR2_off; 
0CB3C:  BCF    F8D.2
0CB3E:  BCF    F96.2
....................                         Secando=OFF; 
0CB40:  MOVLB  0
0CB42:  BCF    xA0.3
....................                         DesfogueSuave=OFF; 
0CB44:  BCF    xA0.6
....................                         Aire=OFF; 
0CB46:  BCF    xA4.4
....................                         if(PresionCamara<=Atmosferica){ 
0CB48:  MOVLB  3
0CB4A:  MOVF   x80,F
0CB4C:  BTFSS  FD8.2
0CB4E:  BRA    CC98
0CB50:  MOVF   x7F,W
0CB52:  SUBWF  xB6,W
0CB54:  BTFSS  FD8.0
0CB56:  BRA    CC98
....................                            SSR_off; 
0CB58:  BCF    F8D.1
0CB5A:  BCF    F96.1
....................                            SSR2_off; 
0CB5C:  BCF    F8D.2
0CB5E:  BCF    F96.2
....................                            if(!DOOR){ 
0CB60:  BSF    F93.6
0CB62:  BTFSS  F81.6
0CB64:  BRA    CB6C
....................                               Desfogue_off; 
0CB66:  BSF    F8B.1
0CB68:  BCF    F94.1
....................                            }else{ 
0CB6A:  BRA    CB70
....................                               Desfogue_on; 
0CB6C:  BCF    F8B.1
0CB6E:  BCF    F94.1
....................                            } 
....................                            #ifdef Generador 
....................                            Paso_off; 
0CB70:  BSF    F8B.0
0CB72:  BCF    F94.0
....................                            #endif 
....................                            if(Temperatura<=90){ 
0CB74:  MOVFF  332,44E
0CB78:  MOVFF  331,44D
0CB7C:  MOVFF  330,44C
0CB80:  MOVFF  32F,44B
0CB84:  MOVLB  4
0CB86:  CLRF   x52
0CB88:  CLRF   x51
0CB8A:  MOVLW  34
0CB8C:  MOVWF  x50
0CB8E:  MOVLW  85
0CB90:  MOVWF  x4F
0CB92:  MOVLB  0
0CB94:  CALL   2DF8
0CB98:  BC    CB9C
0CB9A:  BNZ   CBD2
....................                               ActivaAlarma(2); 
0CB9C:  MOVLW  02
0CB9E:  MOVLB  4
0CBA0:  MOVWF  x47
0CBA2:  MOVLB  0
0CBA4:  CALL   4842
....................                               printf("Funcionamiento.t4f.txt=\" Ninguna\""); 
0CBA8:  MOVLW  F0
0CBAA:  MOVWF  FF6
0CBAC:  MOVLW  15
0CBAE:  MOVWF  FF7
0CBB0:  MOVLW  00
0CBB2:  MOVWF  FF8
0CBB4:  CALL   39B8
....................                               SendDataDisplay(); 
0CBB8:  CALL   39EA
....................                               printf("Funcionamiento.t5f.txt=\" Finalizado\""); 
0CBBC:  MOVLW  12
0CBBE:  MOVWF  FF6
0CBC0:  MOVLW  16
0CBC2:  MOVWF  FF7
0CBC4:  MOVLW  00
0CBC6:  MOVWF  FF8
0CBC8:  CALL   39B8
....................                               SendDataDisplay(); 
0CBCC:  CALL   39EA
....................                               Finalizo=ON; 
0CBD0:  BSF    xA3.7
....................                            } 
....................                            codigoAlarma=14; 
0CBD2:  MOVLW  0E
0CBD4:  MOVLB  2
0CBD6:  MOVWF  xED
....................                            if(codigoAnt!=codigoAlarma){ 
0CBD8:  MOVF   xED,W
0CBDA:  SUBWF  xEE,W
0CBDC:  BZ    CBE8
....................                               codigoAnt=codigoAlarma; 
0CBDE:  MOVFF  2ED,2EE
....................                               GuardaDatoCiclo();                   
0CBE2:  MOVLB  0
0CBE4:  CALL   6A60
....................                            } 
....................                            if(!Ciclo){ 
0CBE8:  MOVLB  0
0CBEA:  BTFSC  xA1.4
0CBEC:  BRA    CC94
....................                               Ciclo=ON; 
0CBEE:  BSF    xA1.4
....................                               Ciclos++; 
0CBF0:  MOVLB  3
0CBF2:  INCF   x83,F
0CBF4:  BTFSC  FD8.2
0CBF6:  INCF   x84,F
....................                               CiclosL=make8(Ciclos,0); 
0CBF8:  MOVFF  383,369
....................                               CiclosH=make8(Ciclos,1); 
0CBFC:  MOVFF  384,36A
....................                               write_eeprom(37,CiclosL); 
0CC00:  CLRF   FAA
0CC02:  MOVLW  25
0CC04:  MOVWF  FA9
0CC06:  MOVFF  369,FA8
0CC0A:  BCF    FA6.6
0CC0C:  BCF    FA6.7
0CC0E:  BSF    FA6.2
0CC10:  MOVF   FF2,W
0CC12:  MOVWF  00
0CC14:  BCF    FF2.6
0CC16:  BCF    FF2.7
0CC18:  MOVLB  F
0CC1A:  MOVLW  55
0CC1C:  MOVWF  FA7
0CC1E:  MOVLW  AA
0CC20:  MOVWF  FA7
0CC22:  BSF    FA6.1
0CC24:  BTFSC  FA6.1
0CC26:  BRA    CC24
0CC28:  BCF    FA6.2
0CC2A:  MOVF   00,W
0CC2C:  IORWF  FF2,F
....................                               delay_ms(20); 
0CC2E:  MOVLW  14
0CC30:  MOVLB  4
0CC32:  MOVWF  x5C
0CC34:  MOVLB  0
0CC36:  CALL   1AF4
....................                               write_eeprom(38,CiclosH); 
0CC3A:  CLRF   FAA
0CC3C:  MOVLW  26
0CC3E:  MOVWF  FA9
0CC40:  MOVFF  36A,FA8
0CC44:  BCF    FA6.6
0CC46:  BCF    FA6.7
0CC48:  BSF    FA6.2
0CC4A:  MOVF   FF2,W
0CC4C:  MOVWF  00
0CC4E:  BCF    FF2.6
0CC50:  BCF    FF2.7
0CC52:  MOVLB  F
0CC54:  MOVLW  55
0CC56:  MOVWF  FA7
0CC58:  MOVLW  AA
0CC5A:  MOVWF  FA7
0CC5C:  BSF    FA6.1
0CC5E:  BTFSC  FA6.1
0CC60:  BRA    CC5E
0CC62:  BCF    FA6.2
0CC64:  MOVF   00,W
0CC66:  IORWF  FF2,F
....................                               delay_ms(20);                               
0CC68:  MOVLW  14
0CC6A:  MOVLB  4
0CC6C:  MOVWF  x5C
0CC6E:  MOVLB  0
0CC70:  CALL   1AF4
....................                               Imprime=28; 
0CC74:  MOVLW  1C
0CC76:  MOVLB  3
0CC78:  MOVWF  xB5
....................                               Envio_Esclavos(); 
0CC7A:  MOVLB  0
0CC7C:  CALL   4780
....................                               delay_ms(100); 
0CC80:  MOVLW  64
0CC82:  MOVLB  4
0CC84:  MOVWF  x5C
0CC86:  MOVLB  0
0CC88:  CALL   1AF4
....................                               Imprime=10;                               
0CC8C:  MOVLW  0A
0CC8E:  MOVLB  3
0CC90:  MOVWF  xB5
0CC92:  MOVLB  0
....................                            } 
....................                         }else if(PresionCamara>=Atmosferica+7){ 
0CC94:  BRA    CCB6
0CC96:  MOVLB  3
0CC98:  MOVLW  07
0CC9A:  ADDWF  xB6,W
0CC9C:  MOVF   x80,F
0CC9E:  BNZ   CCA4
0CCA0:  SUBWF  x7F,W
0CCA2:  BNC   CCB4
....................                            Desfogue_on; 
0CCA4:  BCF    F8B.1
0CCA6:  BCF    F94.1
....................                            #ifdef Generador 
....................                            //Paso_on; 
....................                            Paso_off; 
0CCA8:  BSF    F8B.0
0CCAA:  BCF    F94.0
....................                            #endif 
....................                            SSR_off; 
0CCAC:  BCF    F8D.1
0CCAE:  BCF    F96.1
....................                            SSR2_off; 
0CCB0:  BCF    F8D.2
0CCB2:  BCF    F96.2
0CCB4:  MOVLB  0
....................                         } 
....................                      }else{ 
0CCB6:  BRA    CD14
0CCB8:  MOVLB  3
....................                         codigoAlarma=13; 
0CCBA:  MOVLW  0D
0CCBC:  MOVLB  2
0CCBE:  MOVWF  xED
....................                         if(codigoAnt!=codigoAlarma){ 
0CCC0:  MOVF   xED,W
0CCC2:  SUBWF  xEE,W
0CCC4:  BZ    CCD0
....................                            codigoAnt=codigoAlarma; 
0CCC6:  MOVFF  2ED,2EE
....................                            GuardaDatoCiclo();                   
0CCCA:  MOVLB  0
0CCCC:  CALL   6A60
....................                         } 
....................                         Desfogando=ON; 
0CCD0:  MOVLB  0
0CCD2:  BSF    xA0.5
....................                         DesfogueSuave=ON; 
0CCD4:  BSF    xA0.6
....................                         printf("Funcionamiento.t4f.txt=\" Ninguna\""); 
0CCD6:  MOVLW  38
0CCD8:  MOVWF  FF6
0CCDA:  MOVLW  16
0CCDC:  MOVWF  FF7
0CCDE:  MOVLW  00
0CCE0:  MOVWF  FF8
0CCE2:  CALL   39B8
....................                         SendDataDisplay(); 
0CCE6:  CALL   39EA
....................                         printf("Funcionamiento.t5f.txt=\" Despresurizando\""); 
0CCEA:  MOVLW  5A
0CCEC:  MOVWF  FF6
0CCEE:  MOVLW  16
0CCF0:  MOVWF  FF7
0CCF2:  MOVLW  00
0CCF4:  MOVWF  FF8
0CCF6:  CALL   39B8
....................                         SendDataDisplay(); 
0CCFA:  CALL   39EA
....................                         Control=0; 
0CCFE:  MOVLB  3
0CD00:  CLRF   x5B
....................                         Controlando=0; 
0CD02:  CLRF   x5D
....................                         SSR_off; 
0CD04:  BCF    F8D.1
0CD06:  BCF    F96.1
....................                         SSR2_off; 
0CD08:  BCF    F8D.2
0CD0A:  BCF    F96.2
....................                         #ifdef Generador 
....................                         //Paso_on; 
....................                         Paso_off;//Modificado por que esta autoclave no tiene precamara 
0CD0C:  BSF    F8B.0
0CD0E:  BCF    F94.0
....................                         #else 
....................                         Bomba_off; 
....................                         #endif 
....................                         Aire=OFF; 
0CD10:  MOVLB  0
0CD12:  BCF    xA4.4
....................                      } 
....................                   }else{ 
0CD14:  BRA    CF3C
....................                      //SSR_off; 
....................                      Controlando=0; 
0CD16:  MOVLB  3
0CD18:  CLRF   x5D
....................                      Control=0; 
0CD1A:  CLRF   x5B
....................                      if(PresionCamara<=Atmosferica+1){ 
0CD1C:  MOVLW  01
0CD1E:  ADDWF  xB6,W
0CD20:  MOVF   x80,F
0CD22:  BTFSS  FD8.2
0CD24:  BRA    CED4
0CD26:  SUBWF  x7F,W
0CD28:  BZ    CD2E
0CD2A:  BTFSC  FD8.0
0CD2C:  BRA    CED4
....................                         if((Tsecado[0]==0)&&(Tsecado[1]==0)&&(Tsecado[2]==0)&&(Tsecado[3]==0)){ 
0CD2E:  MOVLB  0
0CD30:  MOVF   xC2,F
0CD32:  BTFSS  FD8.2
0CD34:  BRA    CE76
0CD36:  MOVF   xC3,F
0CD38:  BTFSS  FD8.2
0CD3A:  BRA    CE76
0CD3C:  MOVF   xC4,F
0CD3E:  BTFSS  FD8.2
0CD40:  BRA    CE76
0CD42:  MOVF   xC5,F
0CD44:  BTFSS  FD8.2
0CD46:  BRA    CE76
....................                            SSR_off; 
0CD48:  BCF    F8D.1
0CD4A:  BCF    F96.1
....................                            SSR2_off; 
0CD4C:  BCF    F8D.2
0CD4E:  BCF    F96.2
....................                            Secando=OFF; 
0CD50:  BCF    xA0.3
....................                            #ifdef Generador 
....................                            Paso_off; 
0CD52:  BSF    F8B.0
0CD54:  BCF    F94.0
....................                            #endif 
....................                            if(!DOOR){ 
0CD56:  BSF    F93.6
0CD58:  BTFSS  F81.6
0CD5A:  BRA    CD66
....................                               #ifdef Generador 
....................                               Paso_off; 
0CD5C:  BSF    F8B.0
0CD5E:  BCF    F94.0
....................                               #else 
....................                               Bomba_off; 
....................                               #endif 
....................                               Aire=OFF; 
0CD60:  BCF    xA4.4
....................                               Desfogue_off; 
0CD62:  BSF    F8B.1
0CD64:  BCF    F94.1
....................                            } 
....................                             
....................                            ActivaAlarma(2); 
0CD66:  MOVLW  02
0CD68:  MOVLB  4
0CD6A:  MOVWF  x47
0CD6C:  MOVLB  0
0CD6E:  CALL   4842
....................                            printf("Funcionamiento.t4f.txt=\" Ninguna\""); 
0CD72:  MOVLW  84
0CD74:  MOVWF  FF6
0CD76:  MOVLW  16
0CD78:  MOVWF  FF7
0CD7A:  MOVLW  00
0CD7C:  MOVWF  FF8
0CD7E:  CALL   39B8
....................                            SendDataDisplay(); 
0CD82:  CALL   39EA
....................                            printf("Funcionamiento.t5f.txt=\" Finalizado\""); 
0CD86:  MOVLW  A6
0CD88:  MOVWF  FF6
0CD8A:  MOVLW  16
0CD8C:  MOVWF  FF7
0CD8E:  MOVLW  00
0CD90:  MOVWF  FF8
0CD92:  CALL   39B8
....................                            SendDataDisplay(); 
0CD96:  CALL   39EA
....................                            Finalizo=ON; 
0CD9A:  BSF    xA3.7
....................                            #ifdef Generador 
....................                            Paso_off; 
0CD9C:  BSF    F8B.0
0CD9E:  BCF    F94.0
....................                            #else 
....................                            Bomba_off; 
....................                            #endif 
....................                            Aire=OFF; 
0CDA0:  BCF    xA4.4
....................                            if(DOOR){  
0CDA2:  BSF    F93.6
0CDA4:  BTFSC  F81.6
0CDA6:  BRA    CDAC
....................                               Desfogue_on; 
0CDA8:  BCF    F8B.1
0CDAA:  BCF    F94.1
....................                            } 
....................                            codigoAlarma=14; 
0CDAC:  MOVLW  0E
0CDAE:  MOVLB  2
0CDB0:  MOVWF  xED
....................                            if(codigoAnt!=codigoAlarma){ 
0CDB2:  MOVF   xED,W
0CDB4:  SUBWF  xEE,W
0CDB6:  BZ    CDC2
....................                               codigoAnt=codigoAlarma; 
0CDB8:  MOVFF  2ED,2EE
....................                               GuardaDatoCiclo();                   
0CDBC:  MOVLB  0
0CDBE:  CALL   6A60
....................                            } 
....................                            if(!Ciclo){ 
0CDC2:  MOVLB  0
0CDC4:  BTFSC  xA1.4
0CDC6:  BRA    CE72
....................                               Ciclo=ON; 
0CDC8:  BSF    xA1.4
....................                               Ciclos++; 
0CDCA:  MOVLB  3
0CDCC:  INCF   x83,F
0CDCE:  BTFSC  FD8.2
0CDD0:  INCF   x84,F
....................                               CiclosL=make8(Ciclos,0); 
0CDD2:  MOVFF  383,369
....................                               CiclosH=make8(Ciclos,1); 
0CDD6:  MOVFF  384,36A
....................                               write_eeprom(37,CiclosL); 
0CDDA:  CLRF   FAA
0CDDC:  MOVLW  25
0CDDE:  MOVWF  FA9
0CDE0:  MOVFF  369,FA8
0CDE4:  BCF    FA6.6
0CDE6:  BCF    FA6.7
0CDE8:  BSF    FA6.2
0CDEA:  MOVF   FF2,W
0CDEC:  MOVWF  00
0CDEE:  BCF    FF2.6
0CDF0:  BCF    FF2.7
0CDF2:  MOVLB  F
0CDF4:  MOVLW  55
0CDF6:  MOVWF  FA7
0CDF8:  MOVLW  AA
0CDFA:  MOVWF  FA7
0CDFC:  BSF    FA6.1
0CDFE:  BTFSC  FA6.1
0CE00:  BRA    CDFE
0CE02:  BCF    FA6.2
0CE04:  MOVF   00,W
0CE06:  IORWF  FF2,F
....................                               delay_ms(20); 
0CE08:  MOVLW  14
0CE0A:  MOVLB  4
0CE0C:  MOVWF  x5C
0CE0E:  MOVLB  0
0CE10:  CALL   1AF4
....................                               write_eeprom(38,CiclosH); 
0CE14:  CLRF   FAA
0CE16:  MOVLW  26
0CE18:  MOVWF  FA9
0CE1A:  MOVFF  36A,FA8
0CE1E:  BCF    FA6.6
0CE20:  BCF    FA6.7
0CE22:  BSF    FA6.2
0CE24:  MOVF   FF2,W
0CE26:  MOVWF  00
0CE28:  BCF    FF2.6
0CE2A:  BCF    FF2.7
0CE2C:  MOVLB  F
0CE2E:  MOVLW  55
0CE30:  MOVWF  FA7
0CE32:  MOVLW  AA
0CE34:  MOVWF  FA7
0CE36:  BSF    FA6.1
0CE38:  BTFSC  FA6.1
0CE3A:  BRA    CE38
0CE3C:  BCF    FA6.2
0CE3E:  MOVF   00,W
0CE40:  IORWF  FF2,F
....................                               delay_ms(20); 
0CE42:  MOVLW  14
0CE44:  MOVLB  4
0CE46:  MOVWF  x5C
0CE48:  MOVLB  0
0CE4A:  CALL   1AF4
....................                               if(ActivaImpresion==1){ 
0CE4E:  MOVLB  3
0CE50:  DECFSZ x5E,W
0CE52:  BRA    CE70
....................                                  Imprime=28; 
0CE54:  MOVLW  1C
0CE56:  MOVWF  xB5
....................                                  Envio_Esclavos(); 
0CE58:  MOVLB  0
0CE5A:  CALL   4780
....................                                  delay_ms(100); 
0CE5E:  MOVLW  64
0CE60:  MOVLB  4
0CE62:  MOVWF  x5C
0CE64:  MOVLB  0
0CE66:  CALL   1AF4
....................                                  Imprime=10; 
0CE6A:  MOVLW  0A
0CE6C:  MOVLB  3
0CE6E:  MOVWF  xB5
0CE70:  MOVLB  0
....................                               } 
....................                            } 
....................                            Secando=OFF; 
0CE72:  BCF    xA0.3
....................                         }else{ 
0CE74:  BRA    CED0
....................                            codigoAlarma=15; 
0CE76:  MOVLW  0F
0CE78:  MOVLB  2
0CE7A:  MOVWF  xED
....................                            if(codigoAnt!=codigoAlarma){ 
0CE7C:  MOVF   xED,W
0CE7E:  SUBWF  xEE,W
0CE80:  BZ    CE8C
....................                               codigoAnt=codigoAlarma; 
0CE82:  MOVFF  2ED,2EE
....................                               GuardaDatoCiclo();                   
0CE86:  MOVLB  0
0CE88:  CALL   6A60
....................                            } 
....................                            Secando=ON; 
0CE8C:  MOVLB  0
0CE8E:  BSF    xA0.3
....................                            printf("Funcionamiento.t4f.txt=\" Ninguna\""); 
0CE90:  MOVLW  CC
0CE92:  MOVWF  FF6
0CE94:  MOVLW  16
0CE96:  MOVWF  FF7
0CE98:  MOVLW  00
0CE9A:  MOVWF  FF8
0CE9C:  CALL   39B8
....................                            SendDataDisplay(); 
0CEA0:  CALL   39EA
....................                            printf("Funcionamiento.t5f.txt=\" Secando\""); 
0CEA4:  MOVLW  EE
0CEA6:  MOVWF  FF6
0CEA8:  MOVLW  16
0CEAA:  MOVWF  FF7
0CEAC:  MOVLW  00
0CEAE:  MOVWF  FF8
0CEB0:  CALL   39B8
....................                            SendDataDisplay();                            
0CEB4:  CALL   39EA
....................                            if(DOOR){ 
0CEB8:  BSF    F93.6
0CEBA:  BTFSC  F81.6
0CEBC:  BRA    CEC6
....................                               Aire=ON; 
0CEBE:  BSF    xA4.4
....................                               Desfogue_on; 
0CEC0:  BCF    F8B.1
0CEC2:  BCF    F94.1
....................                            }else{  
0CEC4:  BRA    CED0
....................                               #ifdef Generador 
....................                               //ControlaPresionChaqueta(); 
....................                               Paso_off; 
0CEC6:  BSF    F8B.0
0CEC8:  BCF    F94.0
....................                               #else 
....................                               //CalientaChaqueta(); 
....................                               Bomba_off; 
....................                               #endif 
....................                               Aire=OFF; 
0CECA:  BCF    xA4.4
....................                               Desfogue_off; 
0CECC:  BSF    F8B.1
0CECE:  BCF    F94.1
....................                            } 
....................                         } 
....................                      }else if(PresionCamara>Atmosferica+6){ 
0CED0:  BRA    CF3C
0CED2:  MOVLB  3
0CED4:  MOVLW  06
0CED6:  ADDWF  xB6,W
0CED8:  MOVF   x80,F
0CEDA:  BNZ   CEE2
0CEDC:  SUBWF  x7F,W
0CEDE:  BZ    CF3E
0CEE0:  BNC   CF3E
....................                         codigoAlarma=13; 
0CEE2:  MOVLW  0D
0CEE4:  MOVLB  2
0CEE6:  MOVWF  xED
....................                         if(codigoAnt!=codigoAlarma){ 
0CEE8:  MOVF   xED,W
0CEEA:  SUBWF  xEE,W
0CEEC:  BZ    CEF8
....................                            codigoAnt=codigoAlarma; 
0CEEE:  MOVFF  2ED,2EE
....................                            GuardaDatoCiclo();                   
0CEF2:  MOVLB  0
0CEF4:  CALL   6A60
....................                         } 
....................                         Desfogando=ON; 
0CEF8:  MOVLB  0
0CEFA:  BSF    xA0.5
....................                         printf("Funcionamiento.t4f.txt=\" Ninguna\""); 
0CEFC:  MOVLW  10
0CEFE:  MOVWF  FF6
0CF00:  MOVLW  17
0CF02:  MOVWF  FF7
0CF04:  MOVLW  00
0CF06:  MOVWF  FF8
0CF08:  CALL   39B8
....................                         SendDataDisplay(); 
0CF0C:  CALL   39EA
....................                         printf("Funcionamiento.t5f.txt=\" Despresurizando\""); 
0CF10:  MOVLW  32
0CF12:  MOVWF  FF6
0CF14:  MOVLW  17
0CF16:  MOVWF  FF7
0CF18:  MOVLW  00
0CF1A:  MOVWF  FF8
0CF1C:  CALL   39B8
....................                         SendDataDisplay();                         
0CF20:  CALL   39EA
....................                         Controlando=0; 
0CF24:  MOVLB  3
0CF26:  CLRF   x5D
....................                         SSR_off; 
0CF28:  BCF    F8D.1
0CF2A:  BCF    F96.1
....................                         SSR2_off; 
0CF2C:  BCF    F8D.2
0CF2E:  BCF    F96.2
....................                         #ifdef Generador 
....................                         Paso_off; 
0CF30:  BSF    F8B.0
0CF32:  BCF    F94.0
....................                         #else 
....................                         Bomba_off; 
....................                         #endif 
....................                         Aire=OFF; 
0CF34:  MOVLB  0
0CF36:  BCF    xA4.4
....................                         Desfogue_on; 
0CF38:  BCF    F8B.1
0CF3A:  BCF    F94.1
0CF3C:  MOVLB  3
....................                      } 
....................                   } 
....................                    
....................                }else{ 
0CF3E:  BRA    CF98
0CF40:  MOVLB  0
....................                   printf("Funcionamiento.t4f.txt=\" Ninguna\""); 
0CF42:  MOVLW  5C
0CF44:  MOVWF  FF6
0CF46:  MOVLW  17
0CF48:  MOVWF  FF7
0CF4A:  MOVLW  00
0CF4C:  MOVWF  FF8
0CF4E:  CALL   39B8
....................                   SendDataDisplay(); 
0CF52:  CALL   39EA
....................                   printf("Funcionamiento.t5f.txt=\" Esterilizando\""); 
0CF56:  MOVLW  7E
0CF58:  MOVWF  FF6
0CF5A:  MOVLW  17
0CF5C:  MOVWF  FF7
0CF5E:  MOVLW  00
0CF60:  MOVWF  FF8
0CF62:  CALL   39B8
....................                   SendDataDisplay(); 
0CF66:  CALL   39EA
....................                   #ifdef Generador 
....................                   Paso_on; 
0CF6A:  BCF    F8B.0
0CF6C:  BCF    F94.0
....................                   #else 
....................                   Bomba_off; 
....................                   #endif 
....................                   Aire=OFF; 
0CF6E:  BCF    xA4.4
....................                   Desfogue_off; 
0CF70:  BSF    F8B.1
0CF72:  BCF    F94.1
....................                   Control=1; 
0CF74:  MOVLW  01
0CF76:  MOVLB  3
0CF78:  MOVWF  x5B
....................                   codigoAlarma=16; 
0CF7A:  MOVLW  10
0CF7C:  MOVLB  2
0CF7E:  MOVWF  xED
....................                   if(codigoAnt!=codigoAlarma){ 
0CF80:  MOVF   xED,W
0CF82:  SUBWF  xEE,W
0CF84:  BZ    CF90
....................                      codigoAnt=codigoAlarma; 
0CF86:  MOVFF  2ED,2EE
....................                      GuardaDatoCiclo();                   
0CF8A:  MOVLB  0
0CF8C:  CALL   6A60
....................                   } 
....................                   #ifdef PT100Fija 
....................                      Controla(); 
0CF90:  MOVLB  0
0CF92:  CALL   7050
0CF96:  MOVLB  3
0CF98:  MOVLB  2
....................                   #else 
....................                      ControlaPresion(); 
....................                   #endif 
....................                } 
....................             } 
....................          } 
....................    } 
....................  
....................    if(tguarda>=180){ 
0CF9A:  MOVLB  0
0CF9C:  MOVF   xB1,F
0CF9E:  BNZ   CFA6
0CFA0:  MOVF   xB0,W
0CFA2:  SUBLW  B3
0CFA4:  BC    CFB2
....................       if(!Ciclo){ 
0CFA6:  BTFSC  xA1.4
0CFA8:  BRA    CFB2
....................          GuardaDatoCiclo(); 
0CFAA:  CALL   6A60
....................          tguarda=0; 
0CFAE:  CLRF   xB1
0CFB0:  CLRF   xB0
....................       } 
....................    } 
....................     
....................    if(Grafica==1){ 
0CFB2:  BTFSS  xA5.3
0CFB4:  BRA    CFF2
....................       printf("add 14,0,%1.0f",Temperatura); 
0CFB6:  MOVLW  A6
0CFB8:  MOVWF  FF6
0CFBA:  MOVLW  17
0CFBC:  MOVWF  FF7
0CFBE:  MOVLW  00
0CFC0:  MOVWF  FF8
0CFC2:  MOVLW  09
0CFC4:  MOVLB  4
0CFC6:  MOVWF  x4C
0CFC8:  MOVLB  0
0CFCA:  CALL   49A2
0CFCE:  MOVLW  00
0CFD0:  MOVWF  FE9
0CFD2:  MOVFF  332,44F
0CFD6:  MOVFF  331,44E
0CFDA:  MOVFF  330,44D
0CFDE:  MOVFF  32F,44C
0CFE2:  MOVLB  4
0CFE4:  CLRF   x50
0CFE6:  MOVLB  0
0CFE8:  CALL   4CCE
....................       SendDataDisplay(); 
0CFEC:  CALL   39EA
....................       //printf("add 14,1,%1.0f",PresionCamara/1.667); 
....................       //SendDataDisplay(); 
....................       //printf("add 14,0,%1.0f",Temperatura); 
....................       //SendDataDisplay(); 
....................       Grafica=0; 
0CFF0:  BCF    xA5.3
....................    } 
....................    if(Lectura==1)// Utilizado para visualizar la lectura de la temperatura 
0CFF2:  BTFSS  xA5.2
0CFF4:  BRA    D2E4
....................    {                             
....................       Lectura=0; 
0CFF6:  BCF    xA5.2
....................       printf("t6f.txt=\"%3.1fC\"",Temperatura); 
0CFF8:  MOVLW  B6
0CFFA:  MOVWF  FF6
0CFFC:  MOVLW  17
0CFFE:  MOVWF  FF7
0D000:  MOVLW  00
0D002:  MOVWF  FF8
0D004:  MOVLW  09
0D006:  MOVLB  4
0D008:  MOVWF  x4C
0D00A:  MOVLB  0
0D00C:  CALL   49A2
0D010:  MOVLW  02
0D012:  MOVWF  FE9
0D014:  MOVFF  332,44F
0D018:  MOVFF  331,44E
0D01C:  MOVFF  330,44D
0D020:  MOVFF  32F,44C
0D024:  MOVLW  01
0D026:  MOVLB  4
0D028:  MOVWF  x50
0D02A:  MOVLB  0
0D02C:  CALL   4CCE
0D030:  MOVLW  B0
0D032:  BTFSS  F9E.4
0D034:  BRA    D032
0D036:  MOVWF  FAD
0D038:  MOVLW  43
0D03A:  BTFSS  F9E.4
0D03C:  BRA    D03A
0D03E:  MOVWF  FAD
0D040:  MOVLW  22
0D042:  BTFSS  F9E.4
0D044:  BRA    D042
0D046:  MOVWF  FAD
....................       SendDataDisplay(); 
0D048:  CALL   39EA
....................       printf("Funcionamiento.t7f.txt=\"%03LukPa\"",PresionCamara); 
0D04C:  MOVLW  C8
0D04E:  MOVWF  FF6
0D050:  MOVLW  17
0D052:  MOVWF  FF7
0D054:  MOVLW  00
0D056:  MOVWF  FF8
0D058:  MOVLW  18
0D05A:  MOVLB  4
0D05C:  MOVWF  x4C
0D05E:  MOVLB  0
0D060:  CALL   49A2
0D064:  MOVLW  0A
0D066:  MOVWF  FE9
0D068:  MOVFF  380,44C
0D06C:  MOVFF  37F,44B
0D070:  CALL   4B60
0D074:  MOVLW  E5
0D076:  MOVWF  FF6
0D078:  MOVLW  17
0D07A:  MOVWF  FF7
0D07C:  MOVLW  00
0D07E:  MOVWF  FF8
0D080:  MOVLW  04
0D082:  MOVLB  4
0D084:  MOVWF  x4C
0D086:  MOVLB  0
0D088:  CALL   49A2
....................       SendDataDisplay(); 
0D08C:  CALL   39EA
....................       printf("Funcionamiento.t12f.txt=\"%03LukPa\"",PresionPreCamara); 
0D090:  MOVLW  EA
0D092:  MOVWF  FF6
0D094:  MOVLW  17
0D096:  MOVWF  FF7
0D098:  MOVLW  00
0D09A:  MOVWF  FF8
0D09C:  MOVLW  19
0D09E:  MOVLB  4
0D0A0:  MOVWF  x4C
0D0A2:  MOVLB  0
0D0A4:  CALL   49A2
0D0A8:  MOVLW  0A
0D0AA:  MOVWF  FE9
0D0AC:  MOVFF  382,44C
0D0B0:  MOVFF  381,44B
0D0B4:  CALL   4B60
0D0B8:  MOVLW  08
0D0BA:  MOVWF  FF6
0D0BC:  MOVLW  18
0D0BE:  MOVWF  FF7
0D0C0:  MOVLW  00
0D0C2:  MOVWF  FF8
0D0C4:  MOVLW  04
0D0C6:  MOVLB  4
0D0C8:  MOVWF  x4C
0D0CA:  MOVLB  0
0D0CC:  CALL   49A2
....................       //printf("Funcionamiento.t12f.txt=\"000kPa\""); 
....................       SendDataDisplay(); 
0D0D0:  CALL   39EA
....................       printf("Funcionamiento.t9f.txt=\"%03u\"",Setpoint); 
0D0D4:  MOVLW  0E
0D0D6:  MOVWF  FF6
0D0D8:  MOVLW  18
0D0DA:  MOVWF  FF7
0D0DC:  MOVLW  00
0D0DE:  MOVWF  FF8
0D0E0:  MOVLW  18
0D0E2:  MOVLB  4
0D0E4:  MOVWF  x4C
0D0E6:  MOVLB  0
0D0E8:  CALL   49A2
0D0EC:  MOVFF  36C,44C
0D0F0:  MOVLW  03
0D0F2:  MOVLB  4
0D0F4:  MOVWF  x4D
0D0F6:  MOVLB  0
0D0F8:  CALL   4A00
0D0FC:  MOVLW  22
0D0FE:  BTFSS  F9E.4
0D100:  BRA    D0FE
0D102:  MOVWF  FAD
....................       SendDataDisplay();       
0D104:  CALL   39EA
....................       printf("Funcionamiento.t10f.txt=\"%02u\"",((Testerilizacion[3]*10)+Testerilizacion[2])); 
0D108:  MOVFF  BB,449
0D10C:  MOVLW  0A
0D10E:  MOVLB  4
0D110:  MOVWF  x4A
0D112:  MOVLB  0
0D114:  CALL   2E72
0D118:  MOVF   xBA,W
0D11A:  ADDWF  01,W
0D11C:  MOVLB  4
0D11E:  MOVWF  x47
0D120:  MOVLW  2C
0D122:  MOVWF  FF6
0D124:  MOVLW  18
0D126:  MOVWF  FF7
0D128:  MOVLW  00
0D12A:  MOVWF  FF8
0D12C:  MOVLW  19
0D12E:  MOVWF  x4C
0D130:  MOVLB  0
0D132:  CALL   49A2
0D136:  MOVFF  447,44C
0D13A:  MOVLW  01
0D13C:  MOVLB  4
0D13E:  MOVWF  x4D
0D140:  MOVLB  0
0D142:  CALL   4A00
0D146:  MOVLW  22
0D148:  BTFSS  F9E.4
0D14A:  BRA    D148
0D14C:  MOVWF  FAD
....................       SendDataDisplay();       
0D14E:  CALL   39EA
....................       printf("Funcionamiento.t13f.txt=\"%02u\"",((Testerilizacion[1]*10)+Testerilizacion[0])); 
0D152:  MOVFF  B9,449
0D156:  MOVLW  0A
0D158:  MOVLB  4
0D15A:  MOVWF  x4A
0D15C:  MOVLB  0
0D15E:  CALL   2E72
0D162:  MOVF   xB8,W
0D164:  ADDWF  01,W
0D166:  MOVLB  4
0D168:  MOVWF  x47
0D16A:  MOVLW  4C
0D16C:  MOVWF  FF6
0D16E:  MOVLW  18
0D170:  MOVWF  FF7
0D172:  MOVLW  00
0D174:  MOVWF  FF8
0D176:  MOVLW  19
0D178:  MOVWF  x4C
0D17A:  MOVLB  0
0D17C:  CALL   49A2
0D180:  MOVFF  447,44C
0D184:  MOVLW  01
0D186:  MOVLB  4
0D188:  MOVWF  x4D
0D18A:  MOVLB  0
0D18C:  CALL   4A00
0D190:  MOVLW  22
0D192:  BTFSS  F9E.4
0D194:  BRA    D192
0D196:  MOVWF  FAD
....................       SendDataDisplay();       
0D198:  CALL   39EA
....................       printf("Funcionamiento.t11f.txt=\"%02u\"",((Tsecado[3]*10)+Tsecado[2])); 
0D19C:  MOVFF  C5,449
0D1A0:  MOVLW  0A
0D1A2:  MOVLB  4
0D1A4:  MOVWF  x4A
0D1A6:  MOVLB  0
0D1A8:  CALL   2E72
0D1AC:  MOVF   xC4,W
0D1AE:  ADDWF  01,W
0D1B0:  MOVLB  4
0D1B2:  MOVWF  x47
0D1B4:  MOVLW  6C
0D1B6:  MOVWF  FF6
0D1B8:  MOVLW  18
0D1BA:  MOVWF  FF7
0D1BC:  MOVLW  00
0D1BE:  MOVWF  FF8
0D1C0:  MOVLW  19
0D1C2:  MOVWF  x4C
0D1C4:  MOVLB  0
0D1C6:  CALL   49A2
0D1CA:  MOVFF  447,44C
0D1CE:  MOVLW  01
0D1D0:  MOVLB  4
0D1D2:  MOVWF  x4D
0D1D4:  MOVLB  0
0D1D6:  CALL   4A00
0D1DA:  MOVLW  22
0D1DC:  BTFSS  F9E.4
0D1DE:  BRA    D1DC
0D1E0:  MOVWF  FAD
....................       SendDataDisplay();       
0D1E2:  CALL   39EA
....................       printf("Funcionamiento.t16f.txt=\"%02u\"",((Tsecado[1]*10)+Tsecado[0])); 
0D1E6:  MOVFF  C3,449
0D1EA:  MOVLW  0A
0D1EC:  MOVLB  4
0D1EE:  MOVWF  x4A
0D1F0:  MOVLB  0
0D1F2:  CALL   2E72
0D1F6:  MOVF   xC2,W
0D1F8:  ADDWF  01,W
0D1FA:  MOVLB  4
0D1FC:  MOVWF  x47
0D1FE:  MOVLW  8C
0D200:  MOVWF  FF6
0D202:  MOVLW  18
0D204:  MOVWF  FF7
0D206:  MOVLW  00
0D208:  MOVWF  FF8
0D20A:  MOVLW  19
0D20C:  MOVWF  x4C
0D20E:  MOVLB  0
0D210:  CALL   49A2
0D214:  MOVFF  447,44C
0D218:  MOVLW  01
0D21A:  MOVLB  4
0D21C:  MOVWF  x4D
0D21E:  MOVLB  0
0D220:  CALL   4A00
0D224:  MOVLW  22
0D226:  BTFSS  F9E.4
0D228:  BRA    D226
0D22A:  MOVWF  FAD
....................       SendDataDisplay();       
0D22C:  CALL   39EA
....................        
....................       printf("fecha.txt=\"Fecha:%02u/%02u/20%02u    Hora: %02u:%02u\"",Dia,Mes,Year,Hora,Minuto); 
0D230:  MOVLW  AC
0D232:  MOVWF  FF6
0D234:  MOVLW  18
0D236:  MOVWF  FF7
0D238:  MOVLW  00
0D23A:  MOVWF  FF8
0D23C:  MOVLW  11
0D23E:  MOVLB  4
0D240:  MOVWF  x4C
0D242:  MOVLB  0
0D244:  CALL   49A2
0D248:  MOVFF  3A8,44C
0D24C:  MOVLW  01
0D24E:  MOVLB  4
0D250:  MOVWF  x4D
0D252:  MOVLB  0
0D254:  CALL   4A00
0D258:  MOVLW  2F
0D25A:  BTFSS  F9E.4
0D25C:  BRA    D25A
0D25E:  MOVWF  FAD
0D260:  MOVFF  3A7,44C
0D264:  MOVLW  01
0D266:  MOVLB  4
0D268:  MOVWF  x4D
0D26A:  MOVLB  0
0D26C:  CALL   4A00
0D270:  MOVLW  2F
0D272:  BTFSS  F9E.4
0D274:  BRA    D272
0D276:  MOVWF  FAD
0D278:  MOVLW  32
0D27A:  BTFSS  F9E.4
0D27C:  BRA    D27A
0D27E:  MOVWF  FAD
0D280:  MOVLW  30
0D282:  BTFSS  F9E.4
0D284:  BRA    D282
0D286:  MOVWF  FAD
0D288:  MOVFF  3A6,44C
0D28C:  MOVLW  01
0D28E:  MOVLB  4
0D290:  MOVWF  x4D
0D292:  MOVLB  0
0D294:  CALL   4A00
0D298:  MOVLW  CD
0D29A:  MOVWF  FF6
0D29C:  MOVLW  18
0D29E:  MOVWF  FF7
0D2A0:  MOVLW  00
0D2A2:  MOVWF  FF8
0D2A4:  MOVLW  0A
0D2A6:  MOVLB  4
0D2A8:  MOVWF  x4C
0D2AA:  MOVLB  0
0D2AC:  CALL   49A2
0D2B0:  MOVFF  3A9,44C
0D2B4:  MOVLW  01
0D2B6:  MOVLB  4
0D2B8:  MOVWF  x4D
0D2BA:  MOVLB  0
0D2BC:  CALL   4A00
0D2C0:  MOVLW  3A
0D2C2:  BTFSS  F9E.4
0D2C4:  BRA    D2C2
0D2C6:  MOVWF  FAD
0D2C8:  MOVFF  3AA,44C
0D2CC:  MOVLW  01
0D2CE:  MOVLB  4
0D2D0:  MOVWF  x4D
0D2D2:  MOVLB  0
0D2D4:  CALL   4A00
0D2D8:  MOVLW  22
0D2DA:  BTFSS  F9E.4
0D2DC:  BRA    D2DA
0D2DE:  MOVWF  FAD
....................       SendDataDisplay(); 
0D2E0:  CALL   39EA
0D2E4:  MOVLB  3
....................    } 
....................  
....................  
.................... } 
.................... //_-------------------------------------------------------------------------------------------------------------------------------------------------------- 
....................  
.................... //_-------------------------------------------------------------------------------------------------------------------------------------------------------- 
....................       if(Menu==100){ //Menu de Configuracin de Parametros de Control 
0D2E6:  MOVF   x65,W
0D2E8:  SUBLW  64
0D2EA:  BTFSS  FD8.2
0D2EC:  GOTO   E158
....................       
....................       if(Opcion2>11) 
0D2F0:  MOVF   x6E,W
0D2F2:  SUBLW  0B
0D2F4:  BC    D2FA
....................          Opcion2=1; 
0D2F6:  MOVLW  01
0D2F8:  MOVWF  x6E
....................       if(Opcion2<1) 
0D2FA:  MOVF   x6E,F
0D2FC:  BNZ   D302
....................          Opcion2=11; 
0D2FE:  MOVLW  0B
0D300:  MOVWF  x6E
....................        
....................       if(Opcion2==1){ 
0D302:  DECFSZ x6E,W
0D304:  BRA    D482
....................          printf("Config.t2c.txt=\"Proporcional\""); 
0D306:  MOVLW  E2
0D308:  MOVWF  FF6
0D30A:  MOVLW  18
0D30C:  MOVWF  FF7
0D30E:  MOVLW  00
0D310:  MOVWF  FF8
0D312:  MOVLB  0
0D314:  CALL   39B8
....................          SendDataDisplay();       
0D318:  CALL   39EA
....................          printf("t3c.txt=\"%2.0f\"",Ganancia); 
0D31C:  MOVLW  00
0D31E:  MOVWF  FF6
0D320:  MOVLW  19
0D322:  MOVWF  FF7
0D324:  MOVLW  00
0D326:  MOVWF  FF8
0D328:  MOVLW  09
0D32A:  MOVLB  4
0D32C:  MOVWF  x4C
0D32E:  MOVLB  0
0D330:  CALL   49A2
0D334:  MOVLW  01
0D336:  MOVWF  FE9
0D338:  MOVFF  312,44F
0D33C:  MOVFF  311,44E
0D340:  MOVFF  310,44D
0D344:  MOVFF  30F,44C
0D348:  MOVLB  4
0D34A:  CLRF   x50
0D34C:  MOVLB  0
0D34E:  CALL   4CCE
0D352:  MOVLW  22
0D354:  BTFSS  F9E.4
0D356:  BRA    D354
0D358:  MOVWF  FAD
....................          SendDataDisplay(); 
0D35A:  CALL   39EA
....................          if(RX_Buffer[4]==0x0a || UP){//Tecla Arriba Oprimida 
0D35E:  MOVF   34,W
0D360:  SUBLW  0A
0D362:  BZ    D36A
0D364:  BSF    F93.3
0D366:  BTFSC  F81.3
0D368:  BRA    D3BA
....................             delay_ms(20); 
0D36A:  MOVLW  14
0D36C:  MOVLB  4
0D36E:  MOVWF  x5C
0D370:  MOVLB  0
0D372:  CALL   1AF4
....................             if(RX_Buffer[4]==0x0a || UP){ 
0D376:  MOVF   34,W
0D378:  SUBLW  0A
0D37A:  BZ    D382
0D37C:  BSF    F93.3
0D37E:  BTFSC  F81.3
0D380:  BRA    D3BA
....................                Ganancia+=1.0; 
0D382:  BCF    FD8.1
0D384:  MOVFF  312,45F
0D388:  MOVFF  311,45E
0D38C:  MOVFF  310,45D
0D390:  MOVFF  30F,45C
0D394:  MOVLB  4
0D396:  CLRF   x63
0D398:  CLRF   x62
0D39A:  CLRF   x61
0D39C:  MOVLW  7F
0D39E:  MOVWF  x60
0D3A0:  MOVLB  0
0D3A2:  CALL   1CB0
0D3A6:  MOVFF  03,312
0D3AA:  MOVFF  02,311
0D3AE:  MOVFF  01,310
0D3B2:  MOVFF  00,30F
....................                RX_Buffer[4]=0x00;   
0D3B6:  CLRF   34
....................                RX_Buffer2[4]=0x00;             
0D3B8:  CLRF   3F
....................                //BorraBuffer(); 
....................             } 
....................          } 
....................              
....................          if(RX_Buffer[4]==0x0b || DOWN){//Tecla Abajo Oprimida 
0D3BA:  MOVF   34,W
0D3BC:  SUBLW  0B
0D3BE:  BZ    D3C6
0D3C0:  BSF    F93.2
0D3C2:  BTFSC  F81.2
0D3C4:  BRA    D416
....................             delay_ms(20); 
0D3C6:  MOVLW  14
0D3C8:  MOVLB  4
0D3CA:  MOVWF  x5C
0D3CC:  MOVLB  0
0D3CE:  CALL   1AF4
....................             if(RX_Buffer[4]==0x0b || DOWN){ 
0D3D2:  MOVF   34,W
0D3D4:  SUBLW  0B
0D3D6:  BZ    D3DE
0D3D8:  BSF    F93.2
0D3DA:  BTFSC  F81.2
0D3DC:  BRA    D416
....................                Ganancia-=1.0; 
0D3DE:  BSF    FD8.1
0D3E0:  MOVFF  312,45F
0D3E4:  MOVFF  311,45E
0D3E8:  MOVFF  310,45D
0D3EC:  MOVFF  30F,45C
0D3F0:  MOVLB  4
0D3F2:  CLRF   x63
0D3F4:  CLRF   x62
0D3F6:  CLRF   x61
0D3F8:  MOVLW  7F
0D3FA:  MOVWF  x60
0D3FC:  MOVLB  0
0D3FE:  CALL   1CB0
0D402:  MOVFF  03,312
0D406:  MOVFF  02,311
0D40A:  MOVFF  01,310
0D40E:  MOVFF  00,30F
....................                RX_Buffer[4]=0x00; 
0D412:  CLRF   34
....................                RX_Buffer2[4]=0x00;             
0D414:  CLRF   3F
....................                //BorraBuffer(); 
....................             } 
....................          } 
....................           
....................          if(Ganancia>40) 
0D416:  MOVLB  4
0D418:  CLRF   x4E
0D41A:  CLRF   x4D
0D41C:  MOVLW  20
0D41E:  MOVWF  x4C
0D420:  MOVLW  84
0D422:  MOVWF  x4B
0D424:  MOVFF  312,452
0D428:  MOVFF  311,451
0D42C:  MOVFF  310,450
0D430:  MOVFF  30F,44F
0D434:  MOVLB  0
0D436:  CALL   2DF8
0D43A:  BNC   D448
....................             Ganancia=1; 
0D43C:  MOVLB  3
0D43E:  CLRF   x12
0D440:  CLRF   x11
0D442:  CLRF   x10
0D444:  MOVLW  7F
0D446:  MOVWF  x0F
....................          if(Ganancia<1) 
0D448:  MOVFF  312,44E
0D44C:  MOVFF  311,44D
0D450:  MOVFF  310,44C
0D454:  MOVFF  30F,44B
0D458:  MOVLB  4
0D45A:  CLRF   x52
0D45C:  CLRF   x51
0D45E:  CLRF   x50
0D460:  MOVLW  7F
0D462:  MOVWF  x4F
0D464:  MOVLB  0
0D466:  CALL   2DF8
0D46A:  BNC   D47C
....................             Ganancia=40; 
0D46C:  MOVLB  3
0D46E:  CLRF   x12
0D470:  CLRF   x11
0D472:  MOVLW  20
0D474:  MOVWF  x10
0D476:  MOVLW  84
0D478:  MOVWF  x0F
0D47A:  MOVLB  0
....................       }else if(Opcion2==2){ 
0D47C:  GOTO   DC92
0D480:  MOVLB  3
0D482:  MOVF   x6E,W
0D484:  SUBLW  02
0D486:  BNZ   D546
....................          printf("Config.t2c.txt=\"Derivativo\""); 
0D488:  MOVLW  10
0D48A:  MOVWF  FF6
0D48C:  MOVLW  19
0D48E:  MOVWF  FF7
0D490:  MOVLW  00
0D492:  MOVWF  FF8
0D494:  MOVLB  0
0D496:  CALL   39B8
....................          SendDataDisplay();       
0D49A:  CALL   39EA
....................          printf("t3c.txt=\"%u\"",Derivativo); 
0D49E:  MOVLW  2C
0D4A0:  MOVWF  FF6
0D4A2:  MOVLW  19
0D4A4:  MOVWF  FF7
0D4A6:  MOVLW  00
0D4A8:  MOVWF  FF8
0D4AA:  MOVLW  09
0D4AC:  MOVLB  4
0D4AE:  MOVWF  x4C
0D4B0:  MOVLB  0
0D4B2:  CALL   49A2
0D4B6:  MOVFF  344,44C
0D4BA:  MOVLW  1B
0D4BC:  MOVLB  4
0D4BE:  MOVWF  x4D
0D4C0:  MOVLB  0
0D4C2:  CALL   4A00
0D4C6:  MOVLW  22
0D4C8:  BTFSS  F9E.4
0D4CA:  BRA    D4C8
0D4CC:  MOVWF  FAD
....................          SendDataDisplay(); 
0D4CE:  CALL   39EA
....................          if(RX_Buffer[4]==0x0a || UP){//Tecla Arriba Oprimida 
0D4D2:  MOVF   34,W
0D4D4:  SUBLW  0A
0D4D6:  BZ    D4DE
0D4D8:  BSF    F93.3
0D4DA:  BTFSC  F81.3
0D4DC:  BRA    D500
....................             delay_ms(20); 
0D4DE:  MOVLW  14
0D4E0:  MOVLB  4
0D4E2:  MOVWF  x5C
0D4E4:  MOVLB  0
0D4E6:  CALL   1AF4
....................             if(RX_Buffer[4]==0x0a || UP){ 
0D4EA:  MOVF   34,W
0D4EC:  SUBLW  0A
0D4EE:  BZ    D4F6
0D4F0:  BSF    F93.3
0D4F2:  BTFSC  F81.3
0D4F4:  BRA    D500
....................                Derivativo++; 
0D4F6:  MOVLB  3
0D4F8:  INCF   x44,F
....................                RX_Buffer[4]=0x00;   
0D4FA:  CLRF   34
....................                RX_Buffer2[4]=0x00;             
0D4FC:  CLRF   3F
0D4FE:  MOVLB  0
....................                //BorraBuffer(); 
....................             } 
....................          } 
....................              
....................          if(RX_Buffer[4]==0x0b || DOWN){//Tecla Abajo Oprimida 
0D500:  MOVF   34,W
0D502:  SUBLW  0B
0D504:  BZ    D50C
0D506:  BSF    F93.2
0D508:  BTFSC  F81.2
0D50A:  BRA    D52E
....................             delay_ms(20); 
0D50C:  MOVLW  14
0D50E:  MOVLB  4
0D510:  MOVWF  x5C
0D512:  MOVLB  0
0D514:  CALL   1AF4
....................             if(RX_Buffer[4]==0x0b || DOWN){ 
0D518:  MOVF   34,W
0D51A:  SUBLW  0B
0D51C:  BZ    D524
0D51E:  BSF    F93.2
0D520:  BTFSC  F81.2
0D522:  BRA    D52E
....................                Derivativo--; 
0D524:  MOVLB  3
0D526:  DECF   x44,F
....................                RX_Buffer[4]=0x00; 
0D528:  CLRF   34
....................                RX_Buffer2[4]=0x00;             
0D52A:  CLRF   3F
0D52C:  MOVLB  0
....................                //BorraBuffer(); 
....................             } 
....................          } 
....................           
....................           
....................          if(Derivativo>40) 
0D52E:  MOVLB  3
0D530:  MOVF   x44,W
0D532:  SUBLW  28
0D534:  BC    D53A
....................             Derivativo=1; 
0D536:  MOVLW  01
0D538:  MOVWF  x44
....................          if(Derivativo<1) 
0D53A:  MOVF   x44,F
0D53C:  BNZ   D542
....................             Derivativo=40; 
0D53E:  MOVLW  28
0D540:  MOVWF  x44
....................       }else if(Opcion2==3){ 
0D542:  GOTO   DC90
0D546:  MOVF   x6E,W
0D548:  SUBLW  03
0D54A:  BNZ   D608
....................          printf("Config.t2c.txt=\"Integral\""); 
0D54C:  MOVLW  3A
0D54E:  MOVWF  FF6
0D550:  MOVLW  19
0D552:  MOVWF  FF7
0D554:  MOVLW  00
0D556:  MOVWF  FF8
0D558:  MOVLB  0
0D55A:  CALL   39B8
....................          SendDataDisplay();       
0D55E:  CALL   39EA
....................          printf("t3c.txt=\"%u\"",Integral); 
0D562:  MOVLW  54
0D564:  MOVWF  FF6
0D566:  MOVLW  19
0D568:  MOVWF  FF7
0D56A:  MOVLW  00
0D56C:  MOVWF  FF8
0D56E:  MOVLW  09
0D570:  MOVLB  4
0D572:  MOVWF  x4C
0D574:  MOVLB  0
0D576:  CALL   49A2
0D57A:  MOVFF  343,44C
0D57E:  MOVLW  1B
0D580:  MOVLB  4
0D582:  MOVWF  x4D
0D584:  MOVLB  0
0D586:  CALL   4A00
0D58A:  MOVLW  22
0D58C:  BTFSS  F9E.4
0D58E:  BRA    D58C
0D590:  MOVWF  FAD
....................          SendDataDisplay(); 
0D592:  CALL   39EA
....................          if(RX_Buffer[4]==0x0a || UP){//Tecla Arriba Oprimida 
0D596:  MOVF   34,W
0D598:  SUBLW  0A
0D59A:  BZ    D5A2
0D59C:  BSF    F93.3
0D59E:  BTFSC  F81.3
0D5A0:  BRA    D5C4
....................             delay_ms(20); 
0D5A2:  MOVLW  14
0D5A4:  MOVLB  4
0D5A6:  MOVWF  x5C
0D5A8:  MOVLB  0
0D5AA:  CALL   1AF4
....................             if(RX_Buffer[4]==0x0a || UP){ 
0D5AE:  MOVF   34,W
0D5B0:  SUBLW  0A
0D5B2:  BZ    D5BA
0D5B4:  BSF    F93.3
0D5B6:  BTFSC  F81.3
0D5B8:  BRA    D5C4
....................                Integral++; 
0D5BA:  MOVLB  3
0D5BC:  INCF   x43,F
....................                RX_Buffer[4]=0x00;   
0D5BE:  CLRF   34
....................                RX_Buffer2[4]=0x00;             
0D5C0:  CLRF   3F
0D5C2:  MOVLB  0
....................                //BorraBuffer(); 
....................             } 
....................          } 
....................              
....................          if(RX_Buffer[4]==0x0b || DOWN){//Tecla Abajo Oprimida 
0D5C4:  MOVF   34,W
0D5C6:  SUBLW  0B
0D5C8:  BZ    D5D0
0D5CA:  BSF    F93.2
0D5CC:  BTFSC  F81.2
0D5CE:  BRA    D5F2
....................             delay_ms(20); 
0D5D0:  MOVLW  14
0D5D2:  MOVLB  4
0D5D4:  MOVWF  x5C
0D5D6:  MOVLB  0
0D5D8:  CALL   1AF4
....................             if(RX_Buffer[4]==0x0b || DOWN){ 
0D5DC:  MOVF   34,W
0D5DE:  SUBLW  0B
0D5E0:  BZ    D5E8
0D5E2:  BSF    F93.2
0D5E4:  BTFSC  F81.2
0D5E6:  BRA    D5F2
....................                Integral--; 
0D5E8:  MOVLB  3
0D5EA:  DECF   x43,F
....................                RX_Buffer[4]=0x00; 
0D5EC:  CLRF   34
....................                RX_Buffer2[4]=0x00;             
0D5EE:  CLRF   3F
0D5F0:  MOVLB  0
....................                //BorraBuffer(); 
....................             } 
....................          } 
....................           
....................          if(Integral>40) 
0D5F2:  MOVLB  3
0D5F4:  MOVF   x43,W
0D5F6:  SUBLW  28
0D5F8:  BC    D5FE
....................             Integral=1; 
0D5FA:  MOVLW  01
0D5FC:  MOVWF  x43
....................          if(Integral<1) 
0D5FE:  MOVF   x43,F
0D600:  BNZ   D606
....................             Integral=40; 
0D602:  MOVLW  28
0D604:  MOVWF  x43
....................       }else if(Opcion2==4){ 
0D606:  BRA    DC90
0D608:  MOVF   x6E,W
0D60A:  SUBLW  04
0D60C:  BTFSS  FD8.2
0D60E:  BRA    D78E
....................          printf("Config.t2c.txt=\"Tciclo\""); 
0D610:  MOVLW  62
0D612:  MOVWF  FF6
0D614:  MOVLW  19
0D616:  MOVWF  FF7
0D618:  MOVLW  00
0D61A:  MOVWF  FF8
0D61C:  MOVLB  0
0D61E:  CALL   39B8
....................          SendDataDisplay();       
0D622:  CALL   39EA
....................          printf("t3c.txt=\"%2.0f\"",Tciclo); 
0D626:  MOVLW  7A
0D628:  MOVWF  FF6
0D62A:  MOVLW  19
0D62C:  MOVWF  FF7
0D62E:  MOVLW  00
0D630:  MOVWF  FF8
0D632:  MOVLW  09
0D634:  MOVLB  4
0D636:  MOVWF  x4C
0D638:  MOVLB  0
0D63A:  CALL   49A2
0D63E:  MOVLW  01
0D640:  MOVWF  FE9
0D642:  MOVFF  2FA,44F
0D646:  MOVFF  2F9,44E
0D64A:  MOVFF  2F8,44D
0D64E:  MOVFF  2F7,44C
0D652:  MOVLB  4
0D654:  CLRF   x50
0D656:  MOVLB  0
0D658:  CALL   4CCE
0D65C:  MOVLW  22
0D65E:  BTFSS  F9E.4
0D660:  BRA    D65E
0D662:  MOVWF  FAD
....................          SendDataDisplay(); 
0D664:  CALL   39EA
....................          if(RX_Buffer[4]==0x0a || UP){//Tecla Arriba Oprimida 
0D668:  MOVF   34,W
0D66A:  SUBLW  0A
0D66C:  BZ    D674
0D66E:  BSF    F93.3
0D670:  BTFSC  F81.3
0D672:  BRA    D6C4
....................             delay_ms(20); 
0D674:  MOVLW  14
0D676:  MOVLB  4
0D678:  MOVWF  x5C
0D67A:  MOVLB  0
0D67C:  CALL   1AF4
....................             if(RX_Buffer[4]==0x0a || UP){ 
0D680:  MOVF   34,W
0D682:  SUBLW  0A
0D684:  BZ    D68C
0D686:  BSF    F93.3
0D688:  BTFSC  F81.3
0D68A:  BRA    D6C4
....................                Tciclo+=1.0; 
0D68C:  BCF    FD8.1
0D68E:  MOVFF  2FA,45F
0D692:  MOVFF  2F9,45E
0D696:  MOVFF  2F8,45D
0D69A:  MOVFF  2F7,45C
0D69E:  MOVLB  4
0D6A0:  CLRF   x63
0D6A2:  CLRF   x62
0D6A4:  CLRF   x61
0D6A6:  MOVLW  7F
0D6A8:  MOVWF  x60
0D6AA:  MOVLB  0
0D6AC:  CALL   1CB0
0D6B0:  MOVFF  03,2FA
0D6B4:  MOVFF  02,2F9
0D6B8:  MOVFF  01,2F8
0D6BC:  MOVFF  00,2F7
....................                RX_Buffer[4]=0x00;   
0D6C0:  CLRF   34
....................                RX_Buffer2[4]=0x00;             
0D6C2:  CLRF   3F
....................                //BorraBuffer(); 
....................             } 
....................          } 
....................              
....................          if(RX_Buffer[4]==0x0b || DOWN){//Tecla Abajo Oprimida 
0D6C4:  MOVF   34,W
0D6C6:  SUBLW  0B
0D6C8:  BZ    D6D0
0D6CA:  BSF    F93.2
0D6CC:  BTFSC  F81.2
0D6CE:  BRA    D720
....................             delay_ms(20); 
0D6D0:  MOVLW  14
0D6D2:  MOVLB  4
0D6D4:  MOVWF  x5C
0D6D6:  MOVLB  0
0D6D8:  CALL   1AF4
....................             if(RX_Buffer[4]==0x0b || DOWN){ 
0D6DC:  MOVF   34,W
0D6DE:  SUBLW  0B
0D6E0:  BZ    D6E8
0D6E2:  BSF    F93.2
0D6E4:  BTFSC  F81.2
0D6E6:  BRA    D720
....................                Tciclo-=1.0; 
0D6E8:  BSF    FD8.1
0D6EA:  MOVFF  2FA,45F
0D6EE:  MOVFF  2F9,45E
0D6F2:  MOVFF  2F8,45D
0D6F6:  MOVFF  2F7,45C
0D6FA:  MOVLB  4
0D6FC:  CLRF   x63
0D6FE:  CLRF   x62
0D700:  CLRF   x61
0D702:  MOVLW  7F
0D704:  MOVWF  x60
0D706:  MOVLB  0
0D708:  CALL   1CB0
0D70C:  MOVFF  03,2FA
0D710:  MOVFF  02,2F9
0D714:  MOVFF  01,2F8
0D718:  MOVFF  00,2F7
....................                RX_Buffer[4]=0x00; 
0D71C:  CLRF   34
....................                RX_Buffer2[4]=0x00;             
0D71E:  CLRF   3F
....................                //BorraBuffer(); 
....................             } 
....................          } 
....................           
....................          if(Tciclo>20) 
0D720:  MOVLB  4
0D722:  CLRF   x4E
0D724:  CLRF   x4D
0D726:  MOVLW  20
0D728:  MOVWF  x4C
0D72A:  MOVLW  83
0D72C:  MOVWF  x4B
0D72E:  MOVFF  2FA,452
0D732:  MOVFF  2F9,451
0D736:  MOVFF  2F8,450
0D73A:  MOVFF  2F7,44F
0D73E:  MOVLB  0
0D740:  CALL   2DF8
0D744:  BNC   D754
....................             Tciclo=5; 
0D746:  MOVLB  2
0D748:  CLRF   xFA
0D74A:  CLRF   xF9
0D74C:  MOVLW  20
0D74E:  MOVWF  xF8
0D750:  MOVLW  81
0D752:  MOVWF  xF7
....................          if(Tciclo<5) 
0D754:  MOVFF  2FA,44E
0D758:  MOVFF  2F9,44D
0D75C:  MOVFF  2F8,44C
0D760:  MOVFF  2F7,44B
0D764:  MOVLB  4
0D766:  CLRF   x52
0D768:  CLRF   x51
0D76A:  MOVLW  20
0D76C:  MOVWF  x50
0D76E:  MOVLW  81
0D770:  MOVWF  x4F
0D772:  MOVLB  0
0D774:  CALL   2DF8
0D778:  BNC   D78A
....................             Tciclo=20; 
0D77A:  MOVLB  2
0D77C:  CLRF   xFA
0D77E:  CLRF   xF9
0D780:  MOVLW  20
0D782:  MOVWF  xF8
0D784:  MOVLW  83
0D786:  MOVWF  xF7
0D788:  MOVLB  0
....................       }else if(Opcion2==5){ 
0D78A:  BRA    DC92
0D78C:  MOVLB  3
0D78E:  MOVF   x6E,W
0D790:  SUBLW  05
0D792:  BNZ   D848
....................          printf("Config.t2c.txt=\"Ajuste +\""); 
0D794:  MOVLW  8A
0D796:  MOVWF  FF6
0D798:  MOVLW  19
0D79A:  MOVWF  FF7
0D79C:  MOVLW  00
0D79E:  MOVWF  FF8
0D7A0:  MOVLB  0
0D7A2:  CALL   39B8
....................          SendDataDisplay();       
0D7A6:  CALL   39EA
....................          printf("t3c.txt=\"%u\"",Ajuste); 
0D7AA:  MOVLW  A4
0D7AC:  MOVWF  FF6
0D7AE:  MOVLW  19
0D7B0:  MOVWF  FF7
0D7B2:  MOVLW  00
0D7B4:  MOVWF  FF8
0D7B6:  MOVLW  09
0D7B8:  MOVLB  4
0D7BA:  MOVWF  x4C
0D7BC:  MOVLB  0
0D7BE:  CALL   49A2
0D7C2:  MOVFF  2E0,44C
0D7C6:  MOVLW  1B
0D7C8:  MOVLB  4
0D7CA:  MOVWF  x4D
0D7CC:  MOVLB  0
0D7CE:  CALL   4A00
0D7D2:  MOVLW  22
0D7D4:  BTFSS  F9E.4
0D7D6:  BRA    D7D4
0D7D8:  MOVWF  FAD
....................          SendDataDisplay(); 
0D7DA:  CALL   39EA
....................          if(RX_Buffer[4]==0x0a || UP){//Tecla Arriba Oprimida 
0D7DE:  MOVF   34,W
0D7E0:  SUBLW  0A
0D7E2:  BZ    D7EA
0D7E4:  BSF    F93.3
0D7E6:  BTFSC  F81.3
0D7E8:  BRA    D812
....................             delay_ms(20); 
0D7EA:  MOVLW  14
0D7EC:  MOVLB  4
0D7EE:  MOVWF  x5C
0D7F0:  MOVLB  0
0D7F2:  CALL   1AF4
....................             if(RX_Buffer[4]==0x0a || UP){ 
0D7F6:  MOVF   34,W
0D7F8:  SUBLW  0A
0D7FA:  BZ    D802
0D7FC:  BSF    F93.3
0D7FE:  BTFSC  F81.3
0D800:  BRA    D812
....................                if(Ajuste<100) 
0D802:  MOVLB  2
0D804:  MOVF   xE0,W
0D806:  SUBLW  63
0D808:  BNC   D80C
....................                   Ajuste++; 
0D80A:  INCF   xE0,F
....................                RX_Buffer[4]=0x00;   
0D80C:  CLRF   34
....................                RX_Buffer2[4]=0x00;             
0D80E:  CLRF   3F
0D810:  MOVLB  0
....................                //BorraBuffer(); 
....................             } 
....................          } 
....................              
....................          if(RX_Buffer[4]==0x0b || DOWN){//Tecla Abajo Oprimida 
0D812:  MOVF   34,W
0D814:  SUBLW  0B
0D816:  BZ    D81E
0D818:  BSF    F93.2
0D81A:  BTFSC  F81.2
0D81C:  BRA    D844
....................             delay_ms(20); 
0D81E:  MOVLW  14
0D820:  MOVLB  4
0D822:  MOVWF  x5C
0D824:  MOVLB  0
0D826:  CALL   1AF4
....................             if(RX_Buffer[4]==0x0b || DOWN){ 
0D82A:  MOVF   34,W
0D82C:  SUBLW  0B
0D82E:  BZ    D836
0D830:  BSF    F93.2
0D832:  BTFSC  F81.2
0D834:  BRA    D844
....................                if(Ajuste>0) 
0D836:  MOVLB  2
0D838:  MOVF   xE0,F
0D83A:  BZ    D83E
....................                   Ajuste--; 
0D83C:  DECF   xE0,F
....................                RX_Buffer[4]=0x00; 
0D83E:  CLRF   34
....................                RX_Buffer2[4]=0x00;             
0D840:  CLRF   3F
0D842:  MOVLB  0
....................                //BorraBuffer(); 
....................             } 
....................          } 
....................       }else if(Opcion2==6){ 
0D844:  BRA    DC92
0D846:  MOVLB  3
0D848:  MOVF   x6E,W
0D84A:  SUBLW  06
0D84C:  BNZ   D902
....................          printf("Config.t2c.txt=\"Ajuste -\""); 
0D84E:  MOVLW  B2
0D850:  MOVWF  FF6
0D852:  MOVLW  19
0D854:  MOVWF  FF7
0D856:  MOVLW  00
0D858:  MOVWF  FF8
0D85A:  MOVLB  0
0D85C:  CALL   39B8
....................          SendDataDisplay();       
0D860:  CALL   39EA
....................          printf("t3c.txt=\"%u\"",Ajusten); 
0D864:  MOVLW  CC
0D866:  MOVWF  FF6
0D868:  MOVLW  19
0D86A:  MOVWF  FF7
0D86C:  MOVLW  00
0D86E:  MOVWF  FF8
0D870:  MOVLW  09
0D872:  MOVLB  4
0D874:  MOVWF  x4C
0D876:  MOVLB  0
0D878:  CALL   49A2
0D87C:  MOVFF  2E1,44C
0D880:  MOVLW  1B
0D882:  MOVLB  4
0D884:  MOVWF  x4D
0D886:  MOVLB  0
0D888:  CALL   4A00
0D88C:  MOVLW  22
0D88E:  BTFSS  F9E.4
0D890:  BRA    D88E
0D892:  MOVWF  FAD
....................          SendDataDisplay(); 
0D894:  CALL   39EA
....................          if(RX_Buffer[4]==0x0a || UP){//Tecla Arriba Oprimida 
0D898:  MOVF   34,W
0D89A:  SUBLW  0A
0D89C:  BZ    D8A4
0D89E:  BSF    F93.3
0D8A0:  BTFSC  F81.3
0D8A2:  BRA    D8CC
....................             delay_ms(20); 
0D8A4:  MOVLW  14
0D8A6:  MOVLB  4
0D8A8:  MOVWF  x5C
0D8AA:  MOVLB  0
0D8AC:  CALL   1AF4
....................             if(RX_Buffer[4]==0x0a || UP){ 
0D8B0:  MOVF   34,W
0D8B2:  SUBLW  0A
0D8B4:  BZ    D8BC
0D8B6:  BSF    F93.3
0D8B8:  BTFSC  F81.3
0D8BA:  BRA    D8CC
....................                if(Ajusten<100) 
0D8BC:  MOVLB  2
0D8BE:  MOVF   xE1,W
0D8C0:  SUBLW  63
0D8C2:  BNC   D8C6
....................                   Ajusten++; 
0D8C4:  INCF   xE1,F
....................                RX_Buffer[4]=0x00;   
0D8C6:  CLRF   34
....................                RX_Buffer2[4]=0x00;             
0D8C8:  CLRF   3F
0D8CA:  MOVLB  0
....................                //BorraBuffer(); 
....................             } 
....................          } 
....................              
....................          if(RX_Buffer[4]==0x0b || DOWN){//Tecla Abajo Oprimida 
0D8CC:  MOVF   34,W
0D8CE:  SUBLW  0B
0D8D0:  BZ    D8D8
0D8D2:  BSF    F93.2
0D8D4:  BTFSC  F81.2
0D8D6:  BRA    D8FE
....................             delay_ms(20); 
0D8D8:  MOVLW  14
0D8DA:  MOVLB  4
0D8DC:  MOVWF  x5C
0D8DE:  MOVLB  0
0D8E0:  CALL   1AF4
....................             if(RX_Buffer[4]==0x0b || DOWN){ 
0D8E4:  MOVF   34,W
0D8E6:  SUBLW  0B
0D8E8:  BZ    D8F0
0D8EA:  BSF    F93.2
0D8EC:  BTFSC  F81.2
0D8EE:  BRA    D8FE
....................                if(Ajusten>0) 
0D8F0:  MOVLB  2
0D8F2:  MOVF   xE1,F
0D8F4:  BZ    D8F8
....................                   Ajusten--; 
0D8F6:  DECF   xE1,F
....................                RX_Buffer[4]=0x00; 
0D8F8:  CLRF   34
....................                RX_Buffer2[4]=0x00;             
0D8FA:  CLRF   3F
0D8FC:  MOVLB  0
....................                //BorraBuffer(); 
....................             } 
....................          } 
....................       }else if(Opcion2==7){ 
0D8FE:  BRA    DC92
0D900:  MOVLB  3
0D902:  MOVF   x6E,W
0D904:  SUBLW  07
0D906:  BNZ   D9BE
....................          printf("Config.t2c.txt=\"Media\""); 
0D908:  MOVLW  DA
0D90A:  MOVWF  FF6
0D90C:  MOVLW  19
0D90E:  MOVWF  FF7
0D910:  MOVLW  00
0D912:  MOVWF  FF8
0D914:  MOVLB  0
0D916:  CALL   39B8
....................          SendDataDisplay();       
0D91A:  CALL   39EA
....................          printf("t3c.txt=\"%u\"",MediaMovil); 
0D91E:  MOVLW  F2
0D920:  MOVWF  FF6
0D922:  MOVLW  19
0D924:  MOVWF  FF7
0D926:  MOVLW  00
0D928:  MOVWF  FF8
0D92A:  MOVLW  09
0D92C:  MOVLB  4
0D92E:  MOVWF  x4C
0D930:  MOVLB  0
0D932:  CALL   49A2
0D936:  MOVFF  2E2,44C
0D93A:  MOVLW  1B
0D93C:  MOVLB  4
0D93E:  MOVWF  x4D
0D940:  MOVLB  0
0D942:  CALL   4A00
0D946:  MOVLW  22
0D948:  BTFSS  F9E.4
0D94A:  BRA    D948
0D94C:  MOVWF  FAD
....................          SendDataDisplay(); 
0D94E:  CALL   39EA
....................          if(RX_Buffer[4]==0x0a || UP){//Tecla Arriba Oprimida 
0D952:  MOVF   34,W
0D954:  SUBLW  0A
0D956:  BZ    D95E
0D958:  BSF    F93.3
0D95A:  BTFSC  F81.3
0D95C:  BRA    D986
....................             delay_ms(20); 
0D95E:  MOVLW  14
0D960:  MOVLB  4
0D962:  MOVWF  x5C
0D964:  MOVLB  0
0D966:  CALL   1AF4
....................             if(RX_Buffer[4]==0x0a || UP){ 
0D96A:  MOVF   34,W
0D96C:  SUBLW  0A
0D96E:  BZ    D976
0D970:  BSF    F93.3
0D972:  BTFSC  F81.3
0D974:  BRA    D986
....................                if(MediaMovil<80) 
0D976:  MOVLB  2
0D978:  MOVF   xE2,W
0D97A:  SUBLW  4F
0D97C:  BNC   D980
....................                   MediaMovil++; 
0D97E:  INCF   xE2,F
....................                RX_Buffer[4]=0x00;   
0D980:  CLRF   34
....................                RX_Buffer2[4]=0x00;             
0D982:  CLRF   3F
0D984:  MOVLB  0
....................                //BorraBuffer(); 
....................             } 
....................          } 
....................              
....................          if(RX_Buffer[4]==0x0b || DOWN){//Tecla Abajo Oprimida 
0D986:  MOVF   34,W
0D988:  SUBLW  0B
0D98A:  BZ    D992
0D98C:  BSF    F93.2
0D98E:  BTFSC  F81.2
0D990:  BRA    D9BA
....................             delay_ms(20); 
0D992:  MOVLW  14
0D994:  MOVLB  4
0D996:  MOVWF  x5C
0D998:  MOVLB  0
0D99A:  CALL   1AF4
....................             if(RX_Buffer[4]==0x0b || DOWN){ 
0D99E:  MOVF   34,W
0D9A0:  SUBLW  0B
0D9A2:  BZ    D9AA
0D9A4:  BSF    F93.2
0D9A6:  BTFSC  F81.2
0D9A8:  BRA    D9BA
....................                if(MediaMovil>10) 
0D9AA:  MOVLB  2
0D9AC:  MOVF   xE2,W
0D9AE:  SUBLW  0A
0D9B0:  BC    D9B4
....................                   MediaMovil--; 
0D9B2:  DECF   xE2,F
....................                RX_Buffer[4]=0x00; 
0D9B4:  CLRF   34
....................                RX_Buffer2[4]=0x00;             
0D9B6:  CLRF   3F
0D9B8:  MOVLB  0
....................                //BorraBuffer(); 
....................             } 
....................          } 
....................       }else if(Opcion2==8){ 
0D9BA:  BRA    DC92
0D9BC:  MOVLB  3
0D9BE:  MOVF   x6E,W
0D9C0:  SUBLW  08
0D9C2:  BTFSS  FD8.2
0D9C4:  BRA    DB2C
....................          printf("Config.t2c.txt=\"RPT100B\""); 
0D9C6:  MOVLW  00
0D9C8:  MOVWF  FF6
0D9CA:  MOVLW  1A
0D9CC:  MOVWF  FF7
0D9CE:  MOVLW  00
0D9D0:  MOVWF  FF8
0D9D2:  MOVLB  0
0D9D4:  CALL   39B8
....................          SendDataDisplay();       
0D9D8:  CALL   39EA
....................          printf("t3c.txt=\"%2.1f\"",RPT100); 
0D9DC:  MOVLW  1A
0D9DE:  MOVWF  FF6
0D9E0:  MOVLW  1A
0D9E2:  MOVWF  FF7
0D9E4:  MOVLW  00
0D9E6:  MOVWF  FF8
0D9E8:  MOVLW  09
0D9EA:  MOVLB  4
0D9EC:  MOVWF  x4C
0D9EE:  MOVLB  0
0D9F0:  CALL   49A2
0D9F4:  MOVLW  01
0D9F6:  MOVWF  FE9
0D9F8:  MOVFF  2B1,44F
0D9FC:  MOVFF  2B0,44E
0DA00:  MOVFF  2AF,44D
0DA04:  MOVFF  2AE,44C
0DA08:  MOVLB  4
0DA0A:  MOVWF  x50
0DA0C:  MOVLB  0
0DA0E:  CALL   4CCE
0DA12:  MOVLW  22
0DA14:  BTFSS  F9E.4
0DA16:  BRA    DA14
0DA18:  MOVWF  FAD
....................          SendDataDisplay(); 
0DA1A:  CALL   39EA
....................          if(RX_Buffer[4]==0x0a || UP){//Tecla Arriba Oprimida 
0DA1E:  MOVF   34,W
0DA20:  SUBLW  0A
0DA22:  BZ    DA2A
0DA24:  BSF    F93.3
0DA26:  BTFSC  F81.3
0DA28:  BRA    DAA4
....................             delay_ms(20); 
0DA2A:  MOVLW  14
0DA2C:  MOVLB  4
0DA2E:  MOVWF  x5C
0DA30:  MOVLB  0
0DA32:  CALL   1AF4
....................             if(RX_Buffer[4]==0x0a || UP){ 
0DA36:  MOVF   34,W
0DA38:  SUBLW  0A
0DA3A:  BZ    DA42
0DA3C:  BSF    F93.3
0DA3E:  BTFSC  F81.3
0DA40:  BRA    DAA4
....................                if(RPT100<2.0) 
0DA42:  MOVFF  2B1,44E
0DA46:  MOVFF  2B0,44D
0DA4A:  MOVFF  2AF,44C
0DA4E:  MOVFF  2AE,44B
0DA52:  MOVLB  4
0DA54:  CLRF   x52
0DA56:  CLRF   x51
0DA58:  CLRF   x50
0DA5A:  MOVLW  80
0DA5C:  MOVWF  x4F
0DA5E:  MOVLB  0
0DA60:  CALL   2DF8
0DA64:  BNC   DAA0
....................                   RPT100+=0.1; 
0DA66:  BCF    FD8.1
0DA68:  MOVFF  2B1,45F
0DA6C:  MOVFF  2B0,45E
0DA70:  MOVFF  2AF,45D
0DA74:  MOVFF  2AE,45C
0DA78:  MOVLW  CD
0DA7A:  MOVLB  4
0DA7C:  MOVWF  x63
0DA7E:  MOVLW  CC
0DA80:  MOVWF  x62
0DA82:  MOVLW  4C
0DA84:  MOVWF  x61
0DA86:  MOVLW  7B
0DA88:  MOVWF  x60
0DA8A:  MOVLB  0
0DA8C:  CALL   1CB0
0DA90:  MOVFF  03,2B1
0DA94:  MOVFF  02,2B0
0DA98:  MOVFF  01,2AF
0DA9C:  MOVFF  00,2AE
....................                RX_Buffer[4]=0x00;   
0DAA0:  CLRF   34
....................                RX_Buffer2[4]=0x00;             
0DAA2:  CLRF   3F
....................                //BorraBuffer(); 
....................             } 
....................          } 
....................              
....................          if(RX_Buffer[4]==0x0b || DOWN){//Tecla Abajo Oprimida 
0DAA4:  MOVF   34,W
0DAA6:  SUBLW  0B
0DAA8:  BZ    DAB0
0DAAA:  BSF    F93.2
0DAAC:  BTFSC  F81.2
0DAAE:  BRA    DB28
....................             delay_ms(20); 
0DAB0:  MOVLW  14
0DAB2:  MOVLB  4
0DAB4:  MOVWF  x5C
0DAB6:  MOVLB  0
0DAB8:  CALL   1AF4
....................             if(RX_Buffer[4]==0x0b || DOWN){ 
0DABC:  MOVF   34,W
0DABE:  SUBLW  0B
0DAC0:  BZ    DAC8
0DAC2:  BSF    F93.2
0DAC4:  BTFSC  F81.2
0DAC6:  BRA    DB28
....................                if(RPT100>0.0) 
0DAC8:  MOVLB  4
0DACA:  CLRF   x4E
0DACC:  CLRF   x4D
0DACE:  CLRF   x4C
0DAD0:  CLRF   x4B
0DAD2:  MOVFF  2B1,452
0DAD6:  MOVFF  2B0,451
0DADA:  MOVFF  2AF,450
0DADE:  MOVFF  2AE,44F
0DAE2:  MOVLB  0
0DAE4:  CALL   2DF8
0DAE8:  BNC   DB24
....................                   RPT100-=0.1; 
0DAEA:  BSF    FD8.1
0DAEC:  MOVFF  2B1,45F
0DAF0:  MOVFF  2B0,45E
0DAF4:  MOVFF  2AF,45D
0DAF8:  MOVFF  2AE,45C
0DAFC:  MOVLW  CD
0DAFE:  MOVLB  4
0DB00:  MOVWF  x63
0DB02:  MOVLW  CC
0DB04:  MOVWF  x62
0DB06:  MOVLW  4C
0DB08:  MOVWF  x61
0DB0A:  MOVLW  7B
0DB0C:  MOVWF  x60
0DB0E:  MOVLB  0
0DB10:  CALL   1CB0
0DB14:  MOVFF  03,2B1
0DB18:  MOVFF  02,2B0
0DB1C:  MOVFF  01,2AF
0DB20:  MOVFF  00,2AE
....................                RX_Buffer[4]=0x00; 
0DB24:  CLRF   34
....................                RX_Buffer2[4]=0x00;             
0DB26:  CLRF   3F
....................                //BorraBuffer(); 
....................             } 
....................          } 
....................       }else if(Opcion2==9){ 
0DB28:  BRA    DC92
0DB2A:  MOVLB  3
0DB2C:  MOVF   x6E,W
0DB2E:  SUBLW  09
0DB30:  BNZ   DBE8
....................          printf("Config.t2c.txt=\"TTrampa\""); 
0DB32:  MOVLW  2A
0DB34:  MOVWF  FF6
0DB36:  MOVLW  1A
0DB38:  MOVWF  FF7
0DB3A:  MOVLW  00
0DB3C:  MOVWF  FF8
0DB3E:  MOVLB  0
0DB40:  CALL   39B8
....................          SendDataDisplay();       
0DB44:  CALL   39EA
....................          printf("t3c.txt=\"%02u\"",TTrampa); 
0DB48:  MOVLW  44
0DB4A:  MOVWF  FF6
0DB4C:  MOVLW  1A
0DB4E:  MOVWF  FF7
0DB50:  MOVLW  00
0DB52:  MOVWF  FF8
0DB54:  MOVLW  09
0DB56:  MOVLB  4
0DB58:  MOVWF  x4C
0DB5A:  MOVLB  0
0DB5C:  CALL   49A2
0DB60:  MOVFF  2E3,44C
0DB64:  MOVLW  01
0DB66:  MOVLB  4
0DB68:  MOVWF  x4D
0DB6A:  MOVLB  0
0DB6C:  CALL   4A00
0DB70:  MOVLW  22
0DB72:  BTFSS  F9E.4
0DB74:  BRA    DB72
0DB76:  MOVWF  FAD
....................          SendDataDisplay(); 
0DB78:  CALL   39EA
....................          if(RX_Buffer[4]==0x0a || UP){//Tecla Arriba Oprimida 
0DB7C:  MOVF   34,W
0DB7E:  SUBLW  0A
0DB80:  BZ    DB88
0DB82:  BSF    F93.3
0DB84:  BTFSC  F81.3
0DB86:  BRA    DBB0
....................             delay_ms(20); 
0DB88:  MOVLW  14
0DB8A:  MOVLB  4
0DB8C:  MOVWF  x5C
0DB8E:  MOVLB  0
0DB90:  CALL   1AF4
....................             if(RX_Buffer[4]==0x0a || UP){ 
0DB94:  MOVF   34,W
0DB96:  SUBLW  0A
0DB98:  BZ    DBA0
0DB9A:  BSF    F93.3
0DB9C:  BTFSC  F81.3
0DB9E:  BRA    DBB0
....................                if(TTrampa<100) 
0DBA0:  MOVLB  2
0DBA2:  MOVF   xE3,W
0DBA4:  SUBLW  63
0DBA6:  BNC   DBAA
....................                   TTrampa++; 
0DBA8:  INCF   xE3,F
....................                RX_Buffer[4]=0x00;   
0DBAA:  CLRF   34
....................                RX_Buffer2[4]=0x00;             
0DBAC:  CLRF   3F
0DBAE:  MOVLB  0
....................                //BorraBuffer(); 
....................             } 
....................          } 
....................              
....................          if(RX_Buffer[4]==0x0b || DOWN){//Tecla Abajo Oprimida 
0DBB0:  MOVF   34,W
0DBB2:  SUBLW  0B
0DBB4:  BZ    DBBC
0DBB6:  BSF    F93.2
0DBB8:  BTFSC  F81.2
0DBBA:  BRA    DBE4
....................             delay_ms(20); 
0DBBC:  MOVLW  14
0DBBE:  MOVLB  4
0DBC0:  MOVWF  x5C
0DBC2:  MOVLB  0
0DBC4:  CALL   1AF4
....................             if(RX_Buffer[4]==0x0b || DOWN){ 
0DBC8:  MOVF   34,W
0DBCA:  SUBLW  0B
0DBCC:  BZ    DBD4
0DBCE:  BSF    F93.2
0DBD0:  BTFSC  F81.2
0DBD2:  BRA    DBE4
....................                if(TTrampa>50) 
0DBD4:  MOVLB  2
0DBD6:  MOVF   xE3,W
0DBD8:  SUBLW  32
0DBDA:  BC    DBDE
....................                   TTrampa--; 
0DBDC:  DECF   xE3,F
....................                RX_Buffer[4]=0x00; 
0DBDE:  CLRF   34
....................                RX_Buffer2[4]=0x00;             
0DBE0:  CLRF   3F
0DBE2:  MOVLB  0
....................                //BorraBuffer(); 
....................             } 
....................          } 
....................       }else if(Opcion2==10){ 
0DBE4:  BRA    DC92
0DBE6:  MOVLB  3
0DBE8:  MOVF   x6E,W
0DBEA:  SUBLW  0A
0DBEC:  BNZ   DC3C
....................          printf("Config.t2c.txt=\"Ciclos\""); 
0DBEE:  MOVLW  54
0DBF0:  MOVWF  FF6
0DBF2:  MOVLW  1A
0DBF4:  MOVWF  FF7
0DBF6:  MOVLW  00
0DBF8:  MOVWF  FF8
0DBFA:  MOVLB  0
0DBFC:  CALL   39B8
....................          SendDataDisplay();       
0DC00:  CALL   39EA
....................          printf("t3c.txt=\"%05Lu\"",Ciclos); 
0DC04:  MOVLW  6C
0DC06:  MOVWF  FF6
0DC08:  MOVLW  1A
0DC0A:  MOVWF  FF7
0DC0C:  MOVLW  00
0DC0E:  MOVWF  FF8
0DC10:  MOVLW  09
0DC12:  MOVLB  4
0DC14:  MOVWF  x4C
0DC16:  MOVLB  0
0DC18:  CALL   49A2
0DC1C:  MOVLW  08
0DC1E:  MOVWF  FE9
0DC20:  MOVFF  384,44C
0DC24:  MOVFF  383,44B
0DC28:  CALL   4B60
0DC2C:  MOVLW  22
0DC2E:  BTFSS  F9E.4
0DC30:  BRA    DC2E
0DC32:  MOVWF  FAD
....................          SendDataDisplay(); 
0DC34:  CALL   39EA
....................       }else if(Opcion2==11){ 
0DC38:  BRA    DC92
0DC3A:  MOVLB  3
0DC3C:  MOVF   x6E,W
0DC3E:  SUBLW  0B
0DC40:  BNZ   DC90
....................          printf("Config.t2c.txt=\"Atmosferica\""); 
0DC42:  MOVLW  7C
0DC44:  MOVWF  FF6
0DC46:  MOVLW  1A
0DC48:  MOVWF  FF7
0DC4A:  MOVLW  00
0DC4C:  MOVWF  FF8
0DC4E:  MOVLB  0
0DC50:  CALL   39B8
....................          SendDataDisplay();    
0DC54:  CALL   39EA
....................          printf("t3c.txt=\"%02u\"",Atmosferica); 
0DC58:  MOVLW  9A
0DC5A:  MOVWF  FF6
0DC5C:  MOVLW  1A
0DC5E:  MOVWF  FF7
0DC60:  MOVLW  00
0DC62:  MOVWF  FF8
0DC64:  MOVLW  09
0DC66:  MOVLB  4
0DC68:  MOVWF  x4C
0DC6A:  MOVLB  0
0DC6C:  CALL   49A2
0DC70:  MOVFF  3B6,44C
0DC74:  MOVLW  01
0DC76:  MOVLB  4
0DC78:  MOVWF  x4D
0DC7A:  MOVLB  0
0DC7C:  CALL   4A00
0DC80:  MOVLW  22
0DC82:  BTFSS  F9E.4
0DC84:  BRA    DC82
0DC86:  MOVWF  FAD
....................          SendDataDisplay(); 
0DC88:  CALL   39EA
....................           
....................          #ifdef PT100Fija 
....................             Atmosferica=0; 
0DC8C:  MOVLB  3
0DC8E:  CLRF   xB6
0DC90:  MOVLB  0
....................          #else 
....................             if(RX_Buffer[4]==0x0a || UP){//Tecla Arriba Oprimida 
....................                delay_ms(20); 
....................                if(RX_Buffer[4]==0x0a || UP){ 
....................                   if(Atmosferica<100) 
....................                      Atmosferica++; 
....................                   RX_Buffer[4]=0x00;   
....................                   RX_Buffer2[4]=0x00;             
....................                   //BorraBuffer(); 
....................                } 
....................             } 
....................                 
....................             if(RX_Buffer[4]==0x0b || DOWN){//Tecla Abajo Oprimida 
....................                delay_ms(20); 
....................                if(RX_Buffer[4]==0x0b || DOWN){ 
....................                   if(Atmosferica>50) 
....................                      Atmosferica--; 
....................                   RX_Buffer[4]=0x00; 
....................                   RX_Buffer2[4]=0x00;             
....................                   //BorraBuffer(); 
....................                } 
....................             }  
....................          #endif 
....................       } 
....................        
....................       if(RX_Buffer[4]==0x0c || LEFT){//Tecla Izquierda Oprimida 
0DC92:  MOVF   34,W
0DC94:  SUBLW  0C
0DC96:  BZ    DC9E
0DC98:  BSF    F93.0
0DC9A:  BTFSC  F81.0
0DC9C:  BRA    DCC0
....................          delay_ms(20); 
0DC9E:  MOVLW  14
0DCA0:  MOVLB  4
0DCA2:  MOVWF  x5C
0DCA4:  MOVLB  0
0DCA6:  CALL   1AF4
....................          if(RX_Buffer[4]==0x0c || LEFT){ 
0DCAA:  MOVF   34,W
0DCAC:  SUBLW  0C
0DCAE:  BZ    DCB6
0DCB0:  BSF    F93.0
0DCB2:  BTFSC  F81.0
0DCB4:  BRA    DCC0
....................             Opcion2++; 
0DCB6:  MOVLB  3
0DCB8:  INCF   x6E,F
....................             RX_Buffer[4]=0x00;   
0DCBA:  CLRF   34
....................             RX_Buffer2[4]=0x00;             
0DCBC:  CLRF   3F
0DCBE:  MOVLB  0
....................             //BorraBuffer(); 
....................          } 
....................       } 
....................           
....................       if(RX_Buffer[4]==0x0d || RIGHT){//Tecla Derecha Oprimida 
0DCC0:  MOVF   34,W
0DCC2:  SUBLW  0D
0DCC4:  BZ    DCCC
0DCC6:  BSF    F93.1
0DCC8:  BTFSC  F81.1
0DCCA:  BRA    DCEE
....................          delay_ms(20); 
0DCCC:  MOVLW  14
0DCCE:  MOVLB  4
0DCD0:  MOVWF  x5C
0DCD2:  MOVLB  0
0DCD4:  CALL   1AF4
....................          if(RX_Buffer[4]==0x0d || RIGHT){ 
0DCD8:  MOVF   34,W
0DCDA:  SUBLW  0D
0DCDC:  BZ    DCE4
0DCDE:  BSF    F93.1
0DCE0:  BTFSC  F81.1
0DCE2:  BRA    DCEE
....................             Opcion2--; 
0DCE4:  MOVLB  3
0DCE6:  DECF   x6E,F
....................             RX_Buffer[4]=0x00; 
0DCE8:  CLRF   34
....................             RX_Buffer2[4]=0x00;             
0DCEA:  CLRF   3F
0DCEC:  MOVLB  0
....................             //BorraBuffer(); 
....................          } 
....................       } 
....................        
....................       if(RX_Buffer[4]==0x11 || (RIGHT && LEFT)){//Tecla Regresar 
0DCEE:  MOVF   34,W
0DCF0:  SUBLW  11
0DCF2:  BZ    DD00
0DCF4:  BSF    F93.1
0DCF6:  BTFSC  F81.1
0DCF8:  BRA    E0A2
0DCFA:  BSF    F93.0
0DCFC:  BTFSC  F81.0
0DCFE:  BRA    E0A2
....................          delay_ms(20); 
0DD00:  MOVLW  14
0DD02:  MOVLB  4
0DD04:  MOVWF  x5C
0DD06:  MOVLB  0
0DD08:  CALL   1AF4
....................          if(RX_Buffer[4]==0x11 || (RIGHT && LEFT)){ 
0DD0C:  MOVF   34,W
0DD0E:  SUBLW  11
0DD10:  BZ    DD1E
0DD12:  BSF    F93.1
0DD14:  BTFSC  F81.1
0DD16:  BRA    E0A2
0DD18:  BSF    F93.0
0DD1A:  BTFSC  F81.0
0DD1C:  BRA    E0A2
....................             if(!GuardaEEPROM){ 
0DD1E:  BTFSC  xA2.6
0DD20:  BRA    E08E
....................                write_eeprom(20,(int8)Ganancia); 
0DD22:  MOVFF  312,45F
0DD26:  MOVFF  311,45E
0DD2A:  MOVFF  310,45D
0DD2E:  MOVFF  30F,45C
0DD32:  CALL   41F4
0DD36:  MOVFF  01,447
0DD3A:  CLRF   FAA
0DD3C:  MOVLW  14
0DD3E:  MOVWF  FA9
0DD40:  MOVFF  447,FA8
0DD44:  BCF    FA6.6
0DD46:  BCF    FA6.7
0DD48:  BSF    FA6.2
0DD4A:  MOVF   FF2,W
0DD4C:  MOVWF  00
0DD4E:  BCF    FF2.6
0DD50:  BCF    FF2.7
0DD52:  MOVLB  F
0DD54:  MOVLW  55
0DD56:  MOVWF  FA7
0DD58:  MOVLW  AA
0DD5A:  MOVWF  FA7
0DD5C:  BSF    FA6.1
0DD5E:  BTFSC  FA6.1
0DD60:  BRA    DD5E
0DD62:  BCF    FA6.2
0DD64:  MOVF   00,W
0DD66:  IORWF  FF2,F
....................                delay_ms(10); 
0DD68:  MOVLW  0A
0DD6A:  MOVLB  4
0DD6C:  MOVWF  x5C
0DD6E:  MOVLB  0
0DD70:  CALL   1AF4
....................                write_eeprom(26,(int8)Integral); 
0DD74:  CLRF   FAA
0DD76:  MOVLW  1A
0DD78:  MOVWF  FA9
0DD7A:  MOVFF  343,FA8
0DD7E:  BCF    FA6.6
0DD80:  BCF    FA6.7
0DD82:  BSF    FA6.2
0DD84:  MOVF   FF2,W
0DD86:  MOVWF  00
0DD88:  BCF    FF2.6
0DD8A:  BCF    FF2.7
0DD8C:  MOVLB  F
0DD8E:  MOVLW  55
0DD90:  MOVWF  FA7
0DD92:  MOVLW  AA
0DD94:  MOVWF  FA7
0DD96:  BSF    FA6.1
0DD98:  BTFSC  FA6.1
0DD9A:  BRA    DD98
0DD9C:  BCF    FA6.2
0DD9E:  MOVF   00,W
0DDA0:  IORWF  FF2,F
....................                delay_ms(10); 
0DDA2:  MOVLW  0A
0DDA4:  MOVLB  4
0DDA6:  MOVWF  x5C
0DDA8:  MOVLB  0
0DDAA:  CALL   1AF4
....................                write_eeprom(27,(int8)Derivativo); 
0DDAE:  CLRF   FAA
0DDB0:  MOVLW  1B
0DDB2:  MOVWF  FA9
0DDB4:  MOVFF  344,FA8
0DDB8:  BCF    FA6.6
0DDBA:  BCF    FA6.7
0DDBC:  BSF    FA6.2
0DDBE:  MOVF   FF2,W
0DDC0:  MOVWF  00
0DDC2:  BCF    FF2.6
0DDC4:  BCF    FF2.7
0DDC6:  MOVLB  F
0DDC8:  MOVLW  55
0DDCA:  MOVWF  FA7
0DDCC:  MOVLW  AA
0DDCE:  MOVWF  FA7
0DDD0:  BSF    FA6.1
0DDD2:  BTFSC  FA6.1
0DDD4:  BRA    DDD2
0DDD6:  BCF    FA6.2
0DDD8:  MOVF   00,W
0DDDA:  IORWF  FF2,F
....................                delay_ms(10); 
0DDDC:  MOVLW  0A
0DDDE:  MOVLB  4
0DDE0:  MOVWF  x5C
0DDE2:  MOVLB  0
0DDE4:  CALL   1AF4
....................                write_eeprom(25,(int8)Tciclo); 
0DDE8:  MOVFF  2FA,45F
0DDEC:  MOVFF  2F9,45E
0DDF0:  MOVFF  2F8,45D
0DDF4:  MOVFF  2F7,45C
0DDF8:  CALL   41F4
0DDFC:  MOVFF  01,447
0DE00:  CLRF   FAA
0DE02:  MOVLW  19
0DE04:  MOVWF  FA9
0DE06:  MOVFF  447,FA8
0DE0A:  BCF    FA6.6
0DE0C:  BCF    FA6.7
0DE0E:  BSF    FA6.2
0DE10:  MOVF   FF2,W
0DE12:  MOVWF  00
0DE14:  BCF    FF2.6
0DE16:  BCF    FF2.7
0DE18:  MOVLB  F
0DE1A:  MOVLW  55
0DE1C:  MOVWF  FA7
0DE1E:  MOVLW  AA
0DE20:  MOVWF  FA7
0DE22:  BSF    FA6.1
0DE24:  BTFSC  FA6.1
0DE26:  BRA    DE24
0DE28:  BCF    FA6.2
0DE2A:  MOVF   00,W
0DE2C:  IORWF  FF2,F
....................                delay_ms(10); 
0DE2E:  MOVLW  0A
0DE30:  MOVLB  4
0DE32:  MOVWF  x5C
0DE34:  MOVLB  0
0DE36:  CALL   1AF4
....................                write_eeprom(21,Ajuste); 
0DE3A:  CLRF   FAA
0DE3C:  MOVLW  15
0DE3E:  MOVWF  FA9
0DE40:  MOVFF  2E0,FA8
0DE44:  BCF    FA6.6
0DE46:  BCF    FA6.7
0DE48:  BSF    FA6.2
0DE4A:  MOVF   FF2,W
0DE4C:  MOVWF  00
0DE4E:  BCF    FF2.6
0DE50:  BCF    FF2.7
0DE52:  MOVLB  F
0DE54:  MOVLW  55
0DE56:  MOVWF  FA7
0DE58:  MOVLW  AA
0DE5A:  MOVWF  FA7
0DE5C:  BSF    FA6.1
0DE5E:  BTFSC  FA6.1
0DE60:  BRA    DE5E
0DE62:  BCF    FA6.2
0DE64:  MOVF   00,W
0DE66:  IORWF  FF2,F
....................                delay_ms(10); 
0DE68:  MOVLW  0A
0DE6A:  MOVLB  4
0DE6C:  MOVWF  x5C
0DE6E:  MOVLB  0
0DE70:  CALL   1AF4
....................                write_eeprom(22,Ajusten); 
0DE74:  CLRF   FAA
0DE76:  MOVLW  16
0DE78:  MOVWF  FA9
0DE7A:  MOVFF  2E1,FA8
0DE7E:  BCF    FA6.6
0DE80:  BCF    FA6.7
0DE82:  BSF    FA6.2
0DE84:  MOVF   FF2,W
0DE86:  MOVWF  00
0DE88:  BCF    FF2.6
0DE8A:  BCF    FF2.7
0DE8C:  MOVLB  F
0DE8E:  MOVLW  55
0DE90:  MOVWF  FA7
0DE92:  MOVLW  AA
0DE94:  MOVWF  FA7
0DE96:  BSF    FA6.1
0DE98:  BTFSC  FA6.1
0DE9A:  BRA    DE98
0DE9C:  BCF    FA6.2
0DE9E:  MOVF   00,W
0DEA0:  IORWF  FF2,F
....................                delay_ms(10); 
0DEA2:  MOVLW  0A
0DEA4:  MOVLB  4
0DEA6:  MOVWF  x5C
0DEA8:  MOVLB  0
0DEAA:  CALL   1AF4
....................                write_eeprom(24,(int8)MediaMovil); 
0DEAE:  CLRF   FAA
0DEB0:  MOVLW  18
0DEB2:  MOVWF  FA9
0DEB4:  MOVFF  2E2,FA8
0DEB8:  BCF    FA6.6
0DEBA:  BCF    FA6.7
0DEBC:  BSF    FA6.2
0DEBE:  MOVF   FF2,W
0DEC0:  MOVWF  00
0DEC2:  BCF    FF2.6
0DEC4:  BCF    FF2.7
0DEC6:  MOVLB  F
0DEC8:  MOVLW  55
0DECA:  MOVWF  FA7
0DECC:  MOVLW  AA
0DECE:  MOVWF  FA7
0DED0:  BSF    FA6.1
0DED2:  BTFSC  FA6.1
0DED4:  BRA    DED2
0DED6:  BCF    FA6.2
0DED8:  MOVF   00,W
0DEDA:  IORWF  FF2,F
....................                delay_ms(10); 
0DEDC:  MOVLW  0A
0DEDE:  MOVLB  4
0DEE0:  MOVWF  x5C
0DEE2:  MOVLB  0
0DEE4:  CALL   1AF4
....................                write_eeprom(32,(int8)RPT100); 
0DEE8:  MOVFF  2B1,45F
0DEEC:  MOVFF  2B0,45E
0DEF0:  MOVFF  2AF,45D
0DEF4:  MOVFF  2AE,45C
0DEF8:  CALL   41F4
0DEFC:  MOVFF  01,447
0DF00:  CLRF   FAA
0DF02:  MOVLW  20
0DF04:  MOVWF  FA9
0DF06:  MOVFF  447,FA8
0DF0A:  BCF    FA6.6
0DF0C:  BCF    FA6.7
0DF0E:  BSF    FA6.2
0DF10:  MOVF   FF2,W
0DF12:  MOVWF  00
0DF14:  BCF    FF2.6
0DF16:  BCF    FF2.7
0DF18:  MOVLB  F
0DF1A:  MOVLW  55
0DF1C:  MOVWF  FA7
0DF1E:  MOVLW  AA
0DF20:  MOVWF  FA7
0DF22:  BSF    FA6.1
0DF24:  BTFSC  FA6.1
0DF26:  BRA    DF24
0DF28:  BCF    FA6.2
0DF2A:  MOVF   00,W
0DF2C:  IORWF  FF2,F
....................                delay_ms(10); 
0DF2E:  MOVLW  0A
0DF30:  MOVLB  4
0DF32:  MOVWF  x5C
0DF34:  MOVLB  0
0DF36:  CALL   1AF4
....................                Temporal=RPT100-((int8)RPT100); 
0DF3A:  MOVFF  2B1,45F
0DF3E:  MOVFF  2B0,45E
0DF42:  MOVFF  2AF,45D
0DF46:  MOVFF  2AE,45C
0DF4A:  CALL   41F4
0DF4E:  MOVLB  4
0DF50:  CLRF   x5D
0DF52:  MOVFF  01,45C
0DF56:  MOVLB  0
0DF58:  CALL   1B1C
0DF5C:  BSF    FD8.1
0DF5E:  MOVFF  2B1,45F
0DF62:  MOVFF  2B0,45E
0DF66:  MOVFF  2AF,45D
0DF6A:  MOVFF  2AE,45C
0DF6E:  MOVFF  03,463
0DF72:  MOVFF  02,462
0DF76:  MOVFF  01,461
0DF7A:  MOVFF  00,460
0DF7E:  CALL   1CB0
0DF82:  MOVFF  03,2B5
0DF86:  MOVFF  02,2B4
0DF8A:  MOVFF  01,2B3
0DF8E:  MOVFF  00,2B2
....................                Temporal=Temporal*10; 
0DF92:  MOVFF  2B5,463
0DF96:  MOVFF  2B4,462
0DF9A:  MOVFF  2B3,461
0DF9E:  MOVFF  2B2,460
0DFA2:  MOVLB  4
0DFA4:  CLRF   x67
0DFA6:  CLRF   x66
0DFA8:  MOVLW  20
0DFAA:  MOVWF  x65
0DFAC:  MOVLW  82
0DFAE:  MOVWF  x64
0DFB0:  MOVLB  0
0DFB2:  CALL   3ABC
0DFB6:  MOVFF  03,2B5
0DFBA:  MOVFF  02,2B4
0DFBE:  MOVFF  01,2B3
0DFC2:  MOVFF  00,2B2
....................                write_eeprom(33,(int8)Temporal); 
0DFC6:  MOVFF  2B5,45F
0DFCA:  MOVFF  2B4,45E
0DFCE:  MOVFF  2B3,45D
0DFD2:  MOVFF  2B2,45C
0DFD6:  CALL   41F4
0DFDA:  MOVFF  01,447
0DFDE:  CLRF   FAA
0DFE0:  MOVLW  21
0DFE2:  MOVWF  FA9
0DFE4:  MOVFF  447,FA8
0DFE8:  BCF    FA6.6
0DFEA:  BCF    FA6.7
0DFEC:  BSF    FA6.2
0DFEE:  MOVF   FF2,W
0DFF0:  MOVWF  00
0DFF2:  BCF    FF2.6
0DFF4:  BCF    FF2.7
0DFF6:  MOVLB  F
0DFF8:  MOVLW  55
0DFFA:  MOVWF  FA7
0DFFC:  MOVLW  AA
0DFFE:  MOVWF  FA7
0E000:  BSF    FA6.1
0E002:  BTFSC  FA6.1
0E004:  BRA    E002
0E006:  BCF    FA6.2
0E008:  MOVF   00,W
0E00A:  IORWF  FF2,F
....................                delay_ms(10); 
0E00C:  MOVLW  0A
0E00E:  MOVLB  4
0E010:  MOVWF  x5C
0E012:  MOVLB  0
0E014:  CALL   1AF4
....................                write_eeprom(39,TTrampa); 
0E018:  CLRF   FAA
0E01A:  MOVLW  27
0E01C:  MOVWF  FA9
0E01E:  MOVFF  2E3,FA8
0E022:  BCF    FA6.6
0E024:  BCF    FA6.7
0E026:  BSF    FA6.2
0E028:  MOVF   FF2,W
0E02A:  MOVWF  00
0E02C:  BCF    FF2.6
0E02E:  BCF    FF2.7
0E030:  MOVLB  F
0E032:  MOVLW  55
0E034:  MOVWF  FA7
0E036:  MOVLW  AA
0E038:  MOVWF  FA7
0E03A:  BSF    FA6.1
0E03C:  BTFSC  FA6.1
0E03E:  BRA    E03C
0E040:  BCF    FA6.2
0E042:  MOVF   00,W
0E044:  IORWF  FF2,F
....................                delay_ms(10); 
0E046:  MOVLW  0A
0E048:  MOVLB  4
0E04A:  MOVWF  x5C
0E04C:  MOVLB  0
0E04E:  CALL   1AF4
....................                write_eeprom(46,Atmosferica); 
0E052:  CLRF   FAA
0E054:  MOVLW  2E
0E056:  MOVWF  FA9
0E058:  MOVFF  3B6,FA8
0E05C:  BCF    FA6.6
0E05E:  BCF    FA6.7
0E060:  BSF    FA6.2
0E062:  MOVF   FF2,W
0E064:  MOVWF  00
0E066:  BCF    FF2.6
0E068:  BCF    FF2.7
0E06A:  MOVLB  F
0E06C:  MOVLW  55
0E06E:  MOVWF  FA7
0E070:  MOVLW  AA
0E072:  MOVWF  FA7
0E074:  BSF    FA6.1
0E076:  BTFSC  FA6.1
0E078:  BRA    E076
0E07A:  BCF    FA6.2
0E07C:  MOVF   00,W
0E07E:  IORWF  FF2,F
....................                delay_ms(10); 
0E080:  MOVLW  0A
0E082:  MOVLB  4
0E084:  MOVWF  x5C
0E086:  MOVLB  0
0E088:  CALL   1AF4
....................                GuardaEEPROM=ON; 
0E08C:  BSF    xA2.6
....................             } 
....................             printf("page MenuPrincipal"); 
0E08E:  MOVLW  AA
0E090:  MOVWF  FF6
0E092:  MOVLW  1A
0E094:  MOVWF  FF7
0E096:  MOVLW  00
0E098:  MOVWF  FF8
0E09A:  CALL   39B8
....................             SendDataDisplay(); 
0E09E:  CALL   39EA
....................             //BorraBuffer(); 
....................          } 
....................       } 
....................       printf("fecha.txt=\"Fecha:%02u/%02u/20%02u    Hora: %02u:%02u\"",Dia,Mes,Year,Hora,Minuto); 
0E0A2:  MOVLW  BE
0E0A4:  MOVWF  FF6
0E0A6:  MOVLW  1A
0E0A8:  MOVWF  FF7
0E0AA:  MOVLW  00
0E0AC:  MOVWF  FF8
0E0AE:  MOVLW  11
0E0B0:  MOVLB  4
0E0B2:  MOVWF  x4C
0E0B4:  MOVLB  0
0E0B6:  CALL   49A2
0E0BA:  MOVFF  3A8,44C
0E0BE:  MOVLW  01
0E0C0:  MOVLB  4
0E0C2:  MOVWF  x4D
0E0C4:  MOVLB  0
0E0C6:  CALL   4A00
0E0CA:  MOVLW  2F
0E0CC:  BTFSS  F9E.4
0E0CE:  BRA    E0CC
0E0D0:  MOVWF  FAD
0E0D2:  MOVFF  3A7,44C
0E0D6:  MOVLW  01
0E0D8:  MOVLB  4
0E0DA:  MOVWF  x4D
0E0DC:  MOVLB  0
0E0DE:  CALL   4A00
0E0E2:  MOVLW  2F
0E0E4:  BTFSS  F9E.4
0E0E6:  BRA    E0E4
0E0E8:  MOVWF  FAD
0E0EA:  MOVLW  32
0E0EC:  BTFSS  F9E.4
0E0EE:  BRA    E0EC
0E0F0:  MOVWF  FAD
0E0F2:  MOVLW  30
0E0F4:  BTFSS  F9E.4
0E0F6:  BRA    E0F4
0E0F8:  MOVWF  FAD
0E0FA:  MOVFF  3A6,44C
0E0FE:  MOVLW  01
0E100:  MOVLB  4
0E102:  MOVWF  x4D
0E104:  MOVLB  0
0E106:  CALL   4A00
0E10A:  MOVLW  DF
0E10C:  MOVWF  FF6
0E10E:  MOVLW  1A
0E110:  MOVWF  FF7
0E112:  MOVLW  00
0E114:  MOVWF  FF8
0E116:  MOVLW  0A
0E118:  MOVLB  4
0E11A:  MOVWF  x4C
0E11C:  MOVLB  0
0E11E:  CALL   49A2
0E122:  MOVFF  3A9,44C
0E126:  MOVLW  01
0E128:  MOVLB  4
0E12A:  MOVWF  x4D
0E12C:  MOVLB  0
0E12E:  CALL   4A00
0E132:  MOVLW  3A
0E134:  BTFSS  F9E.4
0E136:  BRA    E134
0E138:  MOVWF  FAD
0E13A:  MOVFF  3AA,44C
0E13E:  MOVLW  01
0E140:  MOVLB  4
0E142:  MOVWF  x4D
0E144:  MOVLB  0
0E146:  CALL   4A00
0E14A:  MOVLW  22
0E14C:  BTFSS  F9E.4
0E14E:  BRA    E14C
0E150:  MOVWF  FAD
....................       SendDataDisplay();  
0E152:  CALL   39EA
0E156:  MOVLB  3
....................     } 
.................... //_--------------------------------------------------------------------------------------------------------------------------------------------------------        
....................  
....................    } 
0E158:  GOTO   80BC
.................... } 
0E15C:  SLEEP 

Configuration Fuses:
   Word  1: 0200   HS NOIESO NOFCMEN
   Word  2: 1B08   NOBROWNOUT WDT BORV42 PUT WDT8192
   Word  3: 0000   NOPBADEN NOLPT1OSC NOMCLR
   Word  4: 00B0   NOSTVREN NODEBUG NOLVP NOXINST BBSIZ4K
   Word  5: C03F   NOPROTECT NOCPD NOCPB
   Word  6: E03F   NOWRT NOWRTD NOWRTC NOWRTB
   Word  7: 403F   NOEBTR NOEBTRB
