CCS PCH C Compiler, Version 4.104, 5967               03-mar.-20 12:29

               Filename: D:\Laboratorio\Autoclave\Autoclave Horizontal\Con Precamara\2019\Autoclave 120L Universidad Militar #004588099 OP201998\Firmware V4.0\NextionController\GLCD_Controller.lst

               ROM used: 60842 bytes (62%)
                         Largest free fragment is 32768
               RAM used: 1625 (49%) at main() level
                         1652 (50%) worst case
               Stack:    5 worst case (4 in main + 1 for interrupts)

*
00000:  GOTO   7434
*
00008:  GOTO   00BA
0000C:  NOP   
0000E:  NOP   
00010:  NOP   
00012:  NOP   
00014:  NOP   
00016:  NOP   
00018:  MOVWF  04
0001A:  MOVFF  FD8,05
0001E:  MOVFF  FE0,06
00022:  MOVLB  0
00024:  MOVFF  FE9,0C
00028:  MOVFF  FEA,07
0002C:  MOVFF  FE1,08
00030:  MOVFF  FE2,09
00034:  MOVFF  FD9,0A
00038:  MOVFF  FDA,0B
0003C:  MOVFF  FF3,12
00040:  MOVFF  FF4,13
00044:  MOVFF  FFA,14
00048:  MOVFF  FFB,15
0004C:  MOVFF  00,0E
00050:  MOVFF  01,0F
00054:  MOVFF  02,10
00058:  MOVFF  03,11
0005C:  BTFSS  FF2.5
0005E:  GOTO   0068
00062:  BTFSC  FF2.2
00064:  GOTO   0612
00068:  BTFSS  F9D.0
0006A:  GOTO   0074
0006E:  BTFSC  F9E.0
00070:  GOTO   065A
00074:  MOVFF  0E,00
00078:  MOVFF  0F,01
0007C:  MOVFF  10,02
00080:  MOVFF  11,03
00084:  MOVFF  0C,FE9
00088:  MOVFF  07,FEA
0008C:  BSF    07.7
0008E:  MOVFF  08,FE1
00092:  MOVFF  09,FE2
00096:  MOVFF  0A,FD9
0009A:  MOVFF  0B,FDA
0009E:  MOVFF  12,FF3
000A2:  MOVFF  13,FF4
000A6:  MOVFF  14,FFA
000AA:  MOVFF  15,FFB
000AE:  MOVF   04,W
000B0:  MOVFF  06,FE0
000B4:  MOVFF  05,FD8
000B8:  RETFIE 0
000BA:  MOVWF  17
000BC:  MOVFF  FD8,18
000C0:  MOVFF  FE0,19
000C4:  MOVLB  0
000C6:  MOVFF  FE9,1F
000CA:  MOVFF  FEA,1A
000CE:  MOVFF  FE1,1B
000D2:  MOVFF  FE2,1C
000D6:  MOVFF  FD9,1D
000DA:  MOVFF  FDA,1E
000DE:  MOVFF  FF3,25
000E2:  MOVFF  FF4,26
000E6:  MOVFF  FFA,27
000EA:  MOVFF  FFB,28
000EE:  MOVFF  00,21
000F2:  MOVFF  01,22
000F6:  MOVFF  02,23
000FA:  MOVFF  03,24
000FE:  BTFSS  F9D.5
00100:  GOTO   010A
00104:  BTFSC  F9E.5
00106:  GOTO   05AE
0010A:  MOVFF  21,00
0010E:  MOVFF  22,01
00112:  MOVFF  23,02
00116:  MOVFF  24,03
0011A:  MOVFF  1F,FE9
0011E:  MOVFF  1A,FEA
00122:  BSF    1A.7
00124:  MOVFF  1B,FE1
00128:  MOVFF  1C,FE2
0012C:  MOVFF  1D,FD9
00130:  MOVFF  1E,FDA
00134:  MOVFF  25,FF3
00138:  MOVFF  26,FF4
0013C:  MOVFF  27,FFA
00140:  MOVFF  28,FFB
00144:  MOVF   17,W
00146:  MOVFF  19,FE0
0014A:  MOVFF  18,FD8
0014E:  RETFIE 0
.................... //Falta crear menu de ajuste de variables y de norma CFR21 
.................... //Falta revisar niveles de agua con variable calderin lleno de bomba de agua 
....................  
.................... #include <18F4685.h> 
.................... //////// Standard Header file for the PIC18F4685 device //////////////// 
.................... #device PIC18F4685 
.................... #list 
....................  
.................... #device adc=10 
.................... #device HIGH_INTS=TRUE //Activamos niveles de prioridad 
.................... #fuses HS,WDT8192,NOPROTECT,NOLVP,NODEBUG,NOSTVREN,NOPUT,NOCPD,NOWRT,NOIESO,NOFCMEN,NOPBADEN,NOWRTC,NOWRTB,NOEBTR,NOEBTRB,NOCPB,NOXINST,NOLPT1OSC,NOMCLR 
.................... #use delay(clock=20000000) 
*
02128:  MOVLW  06
0212A:  MOVWF  FEA
0212C:  MOVLW  62
0212E:  MOVWF  FE9
02130:  MOVF   FEF,W
02132:  BZ    214E
02134:  MOVLW  06
02136:  MOVWF  01
02138:  CLRF   00
0213A:  DECFSZ 00,F
0213C:  BRA    213A
0213E:  DECFSZ 01,F
02140:  BRA    2138
02142:  MOVLW  7B
02144:  MOVWF  00
02146:  DECFSZ 00,F
02148:  BRA    2146
0214A:  DECFSZ FEF,F
0214C:  BRA    2134
0214E:  RETLW  00
.................... #use i2c(Master,slow,sda=PIN_C4,scl=PIN_C3) 
.................... #use rs232(baud=9600, xmit=PIN_C6, rcv=PIN_C7, bits=8, parity=N) 
*
03F62:  BTFSS  F9E.4
03F64:  BRA    3F62
03F66:  MOVWF  FAD
03F68:  RETLW  00
.................... #include <stdio.h> 
.................... /////////////////////////////////////////////////////////////////////////// 
.................... ////        (C) Copyright 1996,2003 Custom Computer Services           //// 
.................... //// This source code may only be used by licensed users of the CCS C  //// 
.................... //// compiler.  This source code may only be distributed to other      //// 
.................... //// licensed users of the CCS C compiler.  No other use, reproduction //// 
.................... //// or distribution is permitted without written permission.          //// 
.................... //// Derivative programs created using this software in object code    //// 
.................... //// form are not restricted in any way.                               //// 
.................... /////////////////////////////////////////////////////////////////////////// 
....................  
.................... #ifndef _STDIO 
.................... #define _STDIO 
.................... #include <string.h> 
.................... //////////////////////////////////////////////////////////////////////////// 
.................... ////        (C) Copyright 1996,2008 Custom Computer Services            //// 
.................... //// This source code may only be used by licensed users of the CCS C   //// 
.................... //// compiler.  This source code may only be distributed to other       //// 
.................... //// licensed users of the CCS C compiler.  No other use, reproduction  //// 
.................... //// or distribution is permitted without written permission.           //// 
.................... //// Derivative programs created using this software in object code     //// 
.................... //// form are not restricted in any way.                                //// 
.................... //////////////////////////////////////////////////////////////////////////// 
....................  
.................... #ifndef _STRING 
.................... #define _STRING 
.................... #include <stddef.h> 
.................... /////////////////////////////////////////////////////////////////////////// 
.................... ////        (C) Copyright 1996,2003 Custom Computer Services           //// 
.................... //// This source code may only be used by licensed users of the CCS C  //// 
.................... //// compiler.  This source code may only be distributed to other      //// 
.................... //// licensed users of the CCS C compiler.  No other use, reproduction //// 
.................... //// or distribution is permitted without written permission.          //// 
.................... //// Derivative programs created using this software in object code    //// 
.................... //// form are not restricted in any way.                               //// 
.................... /////////////////////////////////////////////////////////////////////////// 
....................  
.................... #ifndef _STDDEF 
....................  
.................... #define _STDDEF 
....................  
.................... #if sizeof(unsigned int8 *)==1 
.................... #define ptrdiff_t unsigned int8 
.................... #else 
.................... #define ptrdiff_t unsigned int16 
.................... #endif 
....................  
.................... #define size_t unsigned int8 
.................... #define wchar_t char 
.................... #define NULL 0 
....................  
.................... #define offsetof(s,f) (offsetofbit(s,f)/8) 
....................  
.................... #endif 
....................  
.................... #include <ctype.h> 
.................... //////////////////////////////////////////////////////////////////////////// 
.................... ////        (C) Copyright 1996,2003 Custom Computer Services            //// 
.................... //// This source code may only be used by licensed users of the CCS C   //// 
.................... //// compiler.  This source code may only be distributed to other       //// 
.................... //// licensed users of the CCS C compiler.  No other use, reproduction  //// 
.................... //// or distribution is permitted without written permission.           //// 
.................... //// Derivative programs created using this software in object code     //// 
.................... //// form are not restricted in any way.                                //// 
.................... //////////////////////////////////////////////////////////////////////////// 
....................  
.................... #ifndef _CTYPE 
.................... #define _CTYPE 
....................  
.................... #define islower(x)  isamong(x,"abcdefghijklmnopqrstuvwxyz") 
.................... #define isupper(x)  isamong(x,"ABCDEFGHIJKLMNOPQRSTUVWXYZ") 
.................... #define isalnum(x)  isamong(x,"0123456789ABCDEFGHIJKLMNOPQRSTUVWXYZabcdefghijklmnopqrstuvwxyz") 
.................... #define isalpha(x)  isamong(x,"ABCDEFGHIJKLMNOPQRSTUVWXYZabcdefghijklmnopqrstuvwxyz") 
.................... #define isdigit(x)  isamong(x,"0123456789") 
.................... #define isspace(x)  ((x)==' ') 
.................... #define isxdigit(x) isamong(x,"0123456789ABCDEFabcdef") 
.................... #define iscntrl(x)  ((x)<' ') 
.................... #define isprint(x)  ((x)>=' ') 
.................... #define isgraph(x)  ((x)>' ') 
.................... #define ispunct(x)  (((x)>' ')&&!isalnum(x)) 
....................  
.................... #endif 
....................  
....................  
....................  
....................  
....................  
.................... ////////////////////////////////////////////// 
.................... //// Uncomment the following define to    //// 
.................... //// allow some functions to use a        //// 
.................... //// quicker algorithm, but use more ROM  //// 
.................... ////                                      //// 
.................... //// #define FASTER_BUT_MORE_ROM          //// 
.................... ////////////////////////////////////////////// 
....................  
....................  
....................  
.................... /*Copying functions*/ 
.................... /* standard template: 
....................    void *memmove(void *s1, void *s2, size_t n). 
....................    Copies max of n characters safely (not following ending '\0') 
....................    from s2 in s1; if s2 has less than n characters, appends 0 */ 
....................  
.................... char *memmove(void *s1,char *s2,size_t n) 
.................... { 
....................    char *sc1; 
....................    char *sc2; 
....................    sc1=s1; 
....................    sc2=s2; 
....................    if(sc2<sc1 && sc1 <sc2 +n) 
....................       for(sc1+=n,sc2+=n;0<n;--n) 
....................          *--sc1=*--sc2; 
....................    else 
....................       for(;0<n;--n) 
....................          *sc1++=*sc2++; 
....................   return s1; 
....................   } 
....................  
.................... /* Standard template: char *strcpy(char *s1, const char *s2) 
....................    copies the string s2 including the null character to s1. 
....................    This is a compiler built in to handle the different address 
....................    spaces */ 
....................  
.................... #define strcopy strcpy 
....................  
.................... /* standard template: 
....................    char *strncpy(char *s1, const char *s2, size_t n). 
....................    Copies max of n characters (not following ending '\0') 
....................    from s2 in s1; if s2 has less than n characters, appends 0 */ 
....................  
.................... char *strncpy(char *s1, char *s2, size_t n) 
.................... { 
....................   char *s; 
....................  
....................   for (s = s1; n > 0 && *s2 != '\0'; n--) 
....................      *s++ = *s2++; 
....................   for (; n > 0; n--) 
....................      *s++ = '\0'; 
....................  
....................   return(s1); 
.................... } 
.................... /***********************************************************/ 
....................  
.................... /*concatenation functions*/ 
.................... /* standard template: char *strcat(char *s1, const char *s2) 
.................... appends s2 to s1*/ 
....................  
.................... char *strcat(char *s1, char *s2) 
.................... { 
....................    char *s; 
....................  
....................    for (s = s1; *s != '\0'; ++s); 
....................    while(*s2 != '\0') 
....................    { 
....................       *s = *s2; 
....................       ++s; 
....................       ++s2; 
....................    } 
....................  
....................    *s = '\0'; 
....................    return(s1); 
.................... } 
.................... /* standard template: char *strncat(char *s1, char *s2,size_t n) 
.................... appends not more than n characters from s2 to s1*/ 
....................  
.................... char *strncat(char *s1, char *s2, size_t n) 
.................... { 
....................    char *s; 
....................  
....................    for (s = s1; *s != '\0'; ++s); 
....................    while(*s2 != '\0' && 0<n) 
....................    { 
....................       *s = *s2; 
....................       ++s; 
....................       ++s2; 
....................       --n; 
....................    } 
....................  
....................    *s = '\0'; 
....................    return(s1); 
.................... } 
....................  
.................... /***********************************************************/ 
....................  
....................  
.................... /*comparison functions*/ 
.................... /* standard template: signed int memcmp(void *s1, void *s2). 
....................    Compares s1 & s2; returns -1 if s1<s2, 0 if s1=s2, 1 if s1>s2 */ 
....................  
.................... signed int8 memcmp(void * s1,char *s2,size_t n) 
.................... { 
.................... char *su1, *su2; 
.................... for(su1=s1, su2=s2; 0<n; ++su1, ++su2, --n) 
.................... { 
....................    if(*su1!=*su2) 
....................       return ((*su1<*su2)?-1:+1); 
.................... } 
.................... return 0; 
.................... } 
....................  
.................... /* standard template: int strcmp(const char *s1, const char *s2). 
....................    Compares s1 & s2; returns -1 if s1<s2, 0 if s1=s2, 1 if s1>s2 */ 
....................  
.................... signed int8 strcmp(char *s1, char *s2) 
.................... { 
....................    for (; *s1 == *s2; s1++, s2++) 
....................       if (*s1 == '\0') 
....................          return(0); 
....................    return((*s1 < *s2) ? -1: 1); 
.................... } 
.................... /* standard template: int strcoll(const char *s1, const char *s2). 
....................    Compares s1 & s2; returns -1 if s1<s2, 0 if s1=s2, 1 if s1>s2 */ 
....................  
.................... signed int8 strcoll(char *s1, char *s2) 
.................... { 
....................    for (; *s1 == *s2; s1++, s2++) 
....................       if (*s1 == '\0') 
....................          return(0); 
....................    return((*s1 < *s2) ? -1: 1); 
.................... } 
....................  
.................... /* standard template: 
....................    int strncmp(const char *s1, const char *s2, size_t n). 
....................    Compares max of n characters (not following 0) from s1 to s2; 
....................    returns same as strcmp */ 
....................  
.................... signed int8 strncmp(char *s1, char *s2, size_t n) 
.................... { 
....................    for (; n > 0; s1++, s2++, n--) 
....................       if (*s1 != *s2) 
....................          return((*s1 <*s2) ? -1: 1); 
....................       else if (*s1 == '\0') 
....................          return(0); 
....................    return(0); 
.................... } 
.................... /* standard template: 
....................    int strxfrm(const char *s1, const char *s2, size_t n). 
....................    transforms maximum of n characters from s2 and places them into s1*/ 
.................... size_t strxfrm(char *s1, char *s2, size_t n) 
.................... { 
....................   char *s; 
....................   unsigned int8 n1; 
....................   n1=n; 
....................   for (s = s1; n > 0 && *s2 != '\0'; n--) 
....................      *s++ = *s2++; 
....................   for (; n > 0; n--) 
....................      *s++ = '\0'; 
....................  
....................   return(n1); 
.................... } 
....................  
....................  
....................  
....................  
....................  
.................... /***********************************************************/ 
.................... /*Search functions*/ 
.................... /* standard template: void *memchr(const char *s, int c). 
....................    Finds first occurrence of c in n characters of s */ 
....................  
.................... char *memchr(void *s,unsigned int8 c,size_t n) 
.................... { 
....................    char uc; 
....................    char *su; 
....................    uc=c; 
....................    for(su=s;0<n;++su,--n) 
....................       if(*su==uc) 
....................       return su; 
....................    return NULL; 
.................... } 
....................  
.................... /* standard template: char *strchr(const char *s, int c). 
....................    Finds first occurrence of c in s */ 
....................  
.................... char *strchr(char *s, unsigned int8 c) 
.................... { 
....................    for (; *s != c; s++) 
....................       if (*s == '\0') 
....................          return(0); 
....................    return(s); 
.................... } 
.................... /* standard template: 
....................    size_t strcspn(const char *s1, const char *s2). 
....................    Computes length of max initial segment of s1 that 
....................    consists entirely of characters NOT from s2*/ 
....................  
.................... unsigned int8  strcspn(char *s1, char *s2) 
.................... { 
....................    char *sc1, *sc2; 
....................  
....................    for (sc1 = s1; *sc1 != 0; sc1++) 
....................       for (sc2 = s2; *sc2 != 0; sc2++) 
....................          if (*sc1 == *sc2) 
....................             return(sc1 - s1); 
....................    return(sc1 - s1); 
.................... } 
.................... /* standard template: 
....................    char *strpbrk(const char *s1, const char *s2). 
....................    Locates first occurence of any character from s2 in s1; 
....................    returns s1 if s2 is empty string */ 
....................  
.................... char *strpbrk(char *s1, char *s2) 
.................... { 
....................    char *sc1, *sc2; 
....................  
....................    for (sc1 = s1; *sc1 != 0; sc1++) 
....................       for (sc2 = s2; *sc2 != 0; sc2++) 
....................          if (*sc1 == *sc2) 
....................             return(sc1); 
....................    return(0); 
.................... } 
....................  
....................  
.................... /* standard template: char *strrchr(const char *s, int c). 
....................    Finds last occurrence of c in s */ 
....................  
.................... char *strrchr(char *s, unsigned int8 c) 
.................... { 
....................    char *p; 
....................  
....................    for (p = 0; ; s++) 
....................    { 
....................       if (*s == c) 
....................          p = s; 
....................       if (*s == '\0') 
....................          return(p); 
....................    } 
.................... } 
.................... /* computes length of max initial segment of s1 consisting 
....................    entirely of characters from s2 */ 
....................  
.................... unsigned int8  strspn(char *s1, char *s2) 
.................... { 
....................    char *sc1, *sc2; 
....................  
....................    for (sc1 = s1; *sc1 != 0; sc1++) 
....................       for (sc2 = s2; ; sc2++) 
....................     if (*sc2 == '\0') 
....................        return(sc1 - s1); 
....................          else if (*sc1 == *sc2) 
....................             break; 
....................    return(sc1 - s1); 
.................... } 
.................... /* standard template: 
....................    char *strstr(const char *s1, const char *s2); 
....................    Locates first occurence of character sequence s2 in s1; 
....................    returns 0 if s2 is empty string 
....................  
....................    Uncomment #define FASTER_BUT_MORE_ROM at the top of the 
....................    file to use the faster algorithm */ 
.................... char *strstr(char *s1, char *s2) 
.................... { 
....................    char *s, *t; 
....................  
....................    #ifdef FASTER_BUT_MORE_ROM 
....................    if (*s2 == '\0') 
....................          return(s1); 
....................    #endif 
....................  
....................    while (*s1) 
....................    { 
....................       for(s = s1, t = s2; *t && (*s == *t); ++s, ++t); 
....................  
....................       if (*t == '\0') 
....................          return s1; 
....................       ++s1; 
....................       #ifdef FASTER_BUT_MORE_ROM 
....................          while(*s1 != '\0' && *s1 != *s2) 
....................             ++s1; 
....................       #endif 
....................    } 
....................    return 0; 
.................... } 
....................  
.................... /* standard template: char *strtok(char *s1, const char *s2). 
....................  
....................    Finds next token in s1 delimited by a character from separator 
....................    string s2 (which can be different from call to call).  First call 
....................    starts at beginning of s1 searching for first character NOT 
....................    contained in s2; returns 0 if none is found. 
....................    If one is found, it is the start of first token (return value). 
....................    Function then searches from there for a character contained in s2. 
....................    If none is found, current token extends to end of s1, and subsequent 
....................    searches for a token will return 0.  If one is found, it is 
....................    overwritten by '\0', which terminates current token.  Function saves 
....................    pointer to following character from which next search will start. 
....................    Each subsequent call, with 0 as first argument, starts searching 
....................    from saved pointer */ 
....................  
.................... char *strtok(char *s1, char *s2) 
.................... { 
....................    char *beg, *end; 
....................    static char *save; 
....................  
....................    beg = (s1)? s1: save; 
....................    beg += strspn(beg, s2); 
....................    if (*beg == '\0') 
....................    { 
....................       *save = ' '; 
....................       return(0); 
....................    } 
....................    end = strpbrk(beg, s2); 
....................    if (*end != '\0') 
....................    { 
....................       *end = '\0'; 
....................       end++; 
....................    } 
....................    save = end; 
....................    return(beg); 
.................... } 
....................  
.................... /*****************************************************************/ 
.................... /*Miscellaneous functions*/ 
.................... /* standard template 
.................... maps error number in errnum to an error message string 
.................... Returns: Pointer to string 
.................... */ 
.................... #ifdef _ERRNO 
.................... char * strerror(unsigned int8 errnum) 
.................... { 
.................... char s[15]; 
.................... switch( errnum) 
.................... { 
.................... case 0: 
....................    strcpy(s,"no errors"); 
....................    return s; 
.................... case EDOM : 
....................    strcpy(s,"domain error"); 
....................    return s; 
.................... case ERANGE: 
....................    strcpy(s,"range error"); 
....................    return s; 
.................... } 
.................... } 
.................... #ENDIF 
.................... /* standard template: size_t strlen(const char *s). 
....................    Computes length of s1 (preceding terminating 0) */ 
....................  
.................... unsigned int8 strlen(char *s) 
.................... { 
....................    char *sc; 
....................  
....................    for (sc = s; *sc != 0; sc++); 
....................    return(sc - s); 
.................... } 
....................  
.................... /* standard template: size_t stricmp(const char *s1, const char *s2). 
....................    Compares s1 to s2 ignoring case (upper vs. lower) */ 
....................  
.................... signed int8 stricmp(char *s1, char *s2) 
.................... { 
....................  for(; *s1==*s2||(isalpha(*s1)&&isalpha(*s2)&&(*s1==*s2+32||*s2==*s1+32)); 
....................     s1++, s2++) 
....................     if (*s1 == '\0') 
....................        return(0); 
....................  return((*s1 < *s2) ? -1: 1); 
.................... } 
....................  
....................  
.................... /* standard template: char *strlwr(char *s). 
....................    Replaces uppercase letters by lowercase; 
....................    returns pointer to new string s */ 
....................  
.................... char *strlwr(char *s) 
.................... { 
....................    char *p; 
....................  
....................    for (p = s; *p != '\0'; p++) 
....................       if (*p >= 'A' && *p <='Z') 
....................          *p += 'a' - 'A'; 
....................    return(s); 
.................... } 
....................  
....................  
.................... /************************************************************/ 
....................  
....................  
.................... #endif 
....................  
.................... #ifndef getc 
.................... #define getc getch 
.................... #define getchar getch 
.................... #define puts(s) {printf(s); putchar(13); putchar(10);} 
.................... #define putc putchar 
.................... #endif 
.................... /* maps error number to an error message. Writes a sequence of characters to 
.................... stderr stream thus: if s is not null then string pointed to by s follwed by 
.................... a colon (:) and a space and the appropriate error message returned by strerror 
.................... function with argument errno 
....................  
.................... Returns: no value 
.................... */ 
....................  
.................... #ifdef _ERRNO 
.................... void perror(char *s) 
.................... { 
....................   if(s) 
....................   fprintf(STDERR,"%s: ",s); 
....................   fprintf(STDERR,"%s\r\n",strerror(errno)); 
.................... } 
.................... #endif 
.................... #endif 
....................  
.................... #include <string.h> 
.................... //////////////////////////////////////////////////////////////////////////// 
.................... ////        (C) Copyright 1996,2008 Custom Computer Services            //// 
.................... //// This source code may only be used by licensed users of the CCS C   //// 
.................... //// compiler.  This source code may only be distributed to other       //// 
.................... //// licensed users of the CCS C compiler.  No other use, reproduction  //// 
.................... //// or distribution is permitted without written permission.           //// 
.................... //// Derivative programs created using this software in object code     //// 
.................... //// form are not restricted in any way.                                //// 
.................... //////////////////////////////////////////////////////////////////////////// 
....................  
.................... #ifndef _STRING 
.................... #define _STRING 
.................... #include <stddef.h> 
.................... #include <ctype.h> 
....................  
....................  
....................  
.................... ////////////////////////////////////////////// 
.................... //// Uncomment the following define to    //// 
.................... //// allow some functions to use a        //// 
.................... //// quicker algorithm, but use more ROM  //// 
.................... ////                                      //// 
.................... //// #define FASTER_BUT_MORE_ROM          //// 
.................... ////////////////////////////////////////////// 
....................  
....................  
....................  
.................... /*Copying functions*/ 
.................... /* standard template: 
....................    void *memmove(void *s1, void *s2, size_t n). 
....................    Copies max of n characters safely (not following ending '\0') 
....................    from s2 in s1; if s2 has less than n characters, appends 0 */ 
....................  
.................... char *memmove(void *s1,char *s2,size_t n) 
.................... { 
....................    char *sc1; 
....................    char *sc2; 
....................    sc1=s1; 
....................    sc2=s2; 
....................    if(sc2<sc1 && sc1 <sc2 +n) 
....................       for(sc1+=n,sc2+=n;0<n;--n) 
....................          *--sc1=*--sc2; 
....................    else 
....................       for(;0<n;--n) 
....................          *sc1++=*sc2++; 
....................   return s1; 
....................   } 
....................  
.................... /* Standard template: char *strcpy(char *s1, const char *s2) 
....................    copies the string s2 including the null character to s1. 
....................    This is a compiler built in to handle the different address 
....................    spaces */ 
....................  
.................... #define strcopy strcpy 
....................  
.................... /* standard template: 
....................    char *strncpy(char *s1, const char *s2, size_t n). 
....................    Copies max of n characters (not following ending '\0') 
....................    from s2 in s1; if s2 has less than n characters, appends 0 */ 
....................  
.................... char *strncpy(char *s1, char *s2, size_t n) 
.................... { 
....................   char *s; 
....................  
....................   for (s = s1; n > 0 && *s2 != '\0'; n--) 
....................      *s++ = *s2++; 
....................   for (; n > 0; n--) 
....................      *s++ = '\0'; 
....................  
....................   return(s1); 
.................... } 
.................... /***********************************************************/ 
....................  
.................... /*concatenation functions*/ 
.................... /* standard template: char *strcat(char *s1, const char *s2) 
.................... appends s2 to s1*/ 
....................  
.................... char *strcat(char *s1, char *s2) 
.................... { 
....................    char *s; 
....................  
....................    for (s = s1; *s != '\0'; ++s); 
....................    while(*s2 != '\0') 
....................    { 
....................       *s = *s2; 
....................       ++s; 
....................       ++s2; 
....................    } 
....................  
....................    *s = '\0'; 
....................    return(s1); 
.................... } 
.................... /* standard template: char *strncat(char *s1, char *s2,size_t n) 
.................... appends not more than n characters from s2 to s1*/ 
....................  
.................... char *strncat(char *s1, char *s2, size_t n) 
.................... { 
....................    char *s; 
....................  
....................    for (s = s1; *s != '\0'; ++s); 
....................    while(*s2 != '\0' && 0<n) 
....................    { 
....................       *s = *s2; 
....................       ++s; 
....................       ++s2; 
....................       --n; 
....................    } 
....................  
....................    *s = '\0'; 
....................    return(s1); 
.................... } 
....................  
.................... /***********************************************************/ 
....................  
....................  
.................... /*comparison functions*/ 
.................... /* standard template: signed int memcmp(void *s1, void *s2). 
....................    Compares s1 & s2; returns -1 if s1<s2, 0 if s1=s2, 1 if s1>s2 */ 
....................  
.................... signed int8 memcmp(void * s1,char *s2,size_t n) 
.................... { 
.................... char *su1, *su2; 
.................... for(su1=s1, su2=s2; 0<n; ++su1, ++su2, --n) 
.................... { 
....................    if(*su1!=*su2) 
....................       return ((*su1<*su2)?-1:+1); 
.................... } 
.................... return 0; 
.................... } 
....................  
.................... /* standard template: int strcmp(const char *s1, const char *s2). 
....................    Compares s1 & s2; returns -1 if s1<s2, 0 if s1=s2, 1 if s1>s2 */ 
....................  
.................... signed int8 strcmp(char *s1, char *s2) 
.................... { 
....................    for (; *s1 == *s2; s1++, s2++) 
....................       if (*s1 == '\0') 
....................          return(0); 
....................    return((*s1 < *s2) ? -1: 1); 
.................... } 
.................... /* standard template: int strcoll(const char *s1, const char *s2). 
....................    Compares s1 & s2; returns -1 if s1<s2, 0 if s1=s2, 1 if s1>s2 */ 
....................  
.................... signed int8 strcoll(char *s1, char *s2) 
.................... { 
....................    for (; *s1 == *s2; s1++, s2++) 
....................       if (*s1 == '\0') 
....................          return(0); 
....................    return((*s1 < *s2) ? -1: 1); 
.................... } 
....................  
.................... /* standard template: 
....................    int strncmp(const char *s1, const char *s2, size_t n). 
....................    Compares max of n characters (not following 0) from s1 to s2; 
....................    returns same as strcmp */ 
....................  
.................... signed int8 strncmp(char *s1, char *s2, size_t n) 
.................... { 
....................    for (; n > 0; s1++, s2++, n--) 
....................       if (*s1 != *s2) 
....................          return((*s1 <*s2) ? -1: 1); 
....................       else if (*s1 == '\0') 
....................          return(0); 
....................    return(0); 
.................... } 
.................... /* standard template: 
....................    int strxfrm(const char *s1, const char *s2, size_t n). 
....................    transforms maximum of n characters from s2 and places them into s1*/ 
.................... size_t strxfrm(char *s1, char *s2, size_t n) 
.................... { 
....................   char *s; 
....................   unsigned int8 n1; 
....................   n1=n; 
....................   for (s = s1; n > 0 && *s2 != '\0'; n--) 
....................      *s++ = *s2++; 
....................   for (; n > 0; n--) 
....................      *s++ = '\0'; 
....................  
....................   return(n1); 
.................... } 
....................  
....................  
....................  
....................  
....................  
.................... /***********************************************************/ 
.................... /*Search functions*/ 
.................... /* standard template: void *memchr(const char *s, int c). 
....................    Finds first occurrence of c in n characters of s */ 
....................  
.................... char *memchr(void *s,unsigned int8 c,size_t n) 
.................... { 
....................    char uc; 
....................    char *su; 
....................    uc=c; 
....................    for(su=s;0<n;++su,--n) 
....................       if(*su==uc) 
....................       return su; 
....................    return NULL; 
.................... } 
....................  
.................... /* standard template: char *strchr(const char *s, int c). 
....................    Finds first occurrence of c in s */ 
....................  
.................... char *strchr(char *s, unsigned int8 c) 
.................... { 
....................    for (; *s != c; s++) 
....................       if (*s == '\0') 
....................          return(0); 
....................    return(s); 
.................... } 
.................... /* standard template: 
....................    size_t strcspn(const char *s1, const char *s2). 
....................    Computes length of max initial segment of s1 that 
....................    consists entirely of characters NOT from s2*/ 
....................  
.................... unsigned int8  strcspn(char *s1, char *s2) 
.................... { 
....................    char *sc1, *sc2; 
....................  
....................    for (sc1 = s1; *sc1 != 0; sc1++) 
....................       for (sc2 = s2; *sc2 != 0; sc2++) 
....................          if (*sc1 == *sc2) 
....................             return(sc1 - s1); 
....................    return(sc1 - s1); 
.................... } 
.................... /* standard template: 
....................    char *strpbrk(const char *s1, const char *s2). 
....................    Locates first occurence of any character from s2 in s1; 
....................    returns s1 if s2 is empty string */ 
....................  
.................... char *strpbrk(char *s1, char *s2) 
.................... { 
....................    char *sc1, *sc2; 
....................  
....................    for (sc1 = s1; *sc1 != 0; sc1++) 
....................       for (sc2 = s2; *sc2 != 0; sc2++) 
....................          if (*sc1 == *sc2) 
....................             return(sc1); 
....................    return(0); 
.................... } 
....................  
....................  
.................... /* standard template: char *strrchr(const char *s, int c). 
....................    Finds last occurrence of c in s */ 
....................  
.................... char *strrchr(char *s, unsigned int8 c) 
.................... { 
....................    char *p; 
....................  
....................    for (p = 0; ; s++) 
....................    { 
....................       if (*s == c) 
....................          p = s; 
....................       if (*s == '\0') 
....................          return(p); 
....................    } 
.................... } 
.................... /* computes length of max initial segment of s1 consisting 
....................    entirely of characters from s2 */ 
....................  
.................... unsigned int8  strspn(char *s1, char *s2) 
.................... { 
....................    char *sc1, *sc2; 
....................  
....................    for (sc1 = s1; *sc1 != 0; sc1++) 
....................       for (sc2 = s2; ; sc2++) 
....................     if (*sc2 == '\0') 
....................        return(sc1 - s1); 
....................          else if (*sc1 == *sc2) 
....................             break; 
....................    return(sc1 - s1); 
.................... } 
.................... /* standard template: 
....................    char *strstr(const char *s1, const char *s2); 
....................    Locates first occurence of character sequence s2 in s1; 
....................    returns 0 if s2 is empty string 
....................  
....................    Uncomment #define FASTER_BUT_MORE_ROM at the top of the 
....................    file to use the faster algorithm */ 
.................... char *strstr(char *s1, char *s2) 
.................... { 
....................    char *s, *t; 
....................  
....................    #ifdef FASTER_BUT_MORE_ROM 
....................    if (*s2 == '\0') 
....................          return(s1); 
....................    #endif 
....................  
....................    while (*s1) 
....................    { 
....................       for(s = s1, t = s2; *t && (*s == *t); ++s, ++t); 
....................  
....................       if (*t == '\0') 
....................          return s1; 
....................       ++s1; 
....................       #ifdef FASTER_BUT_MORE_ROM 
....................          while(*s1 != '\0' && *s1 != *s2) 
....................             ++s1; 
....................       #endif 
....................    } 
....................    return 0; 
.................... } 
....................  
.................... /* standard template: char *strtok(char *s1, const char *s2). 
....................  
....................    Finds next token in s1 delimited by a character from separator 
....................    string s2 (which can be different from call to call).  First call 
....................    starts at beginning of s1 searching for first character NOT 
....................    contained in s2; returns 0 if none is found. 
....................    If one is found, it is the start of first token (return value). 
....................    Function then searches from there for a character contained in s2. 
....................    If none is found, current token extends to end of s1, and subsequent 
....................    searches for a token will return 0.  If one is found, it is 
....................    overwritten by '\0', which terminates current token.  Function saves 
....................    pointer to following character from which next search will start. 
....................    Each subsequent call, with 0 as first argument, starts searching 
....................    from saved pointer */ 
....................  
.................... char *strtok(char *s1, char *s2) 
.................... { 
....................    char *beg, *end; 
....................    static char *save; 
....................  
....................    beg = (s1)? s1: save; 
....................    beg += strspn(beg, s2); 
....................    if (*beg == '\0') 
....................    { 
....................       *save = ' '; 
....................       return(0); 
....................    } 
....................    end = strpbrk(beg, s2); 
....................    if (*end != '\0') 
....................    { 
....................       *end = '\0'; 
....................       end++; 
....................    } 
....................    save = end; 
....................    return(beg); 
.................... } 
....................  
.................... /*****************************************************************/ 
.................... /*Miscellaneous functions*/ 
.................... /* standard template 
.................... maps error number in errnum to an error message string 
.................... Returns: Pointer to string 
.................... */ 
.................... #ifdef _ERRNO 
.................... char * strerror(unsigned int8 errnum) 
.................... { 
.................... char s[15]; 
.................... switch( errnum) 
.................... { 
.................... case 0: 
....................    strcpy(s,"no errors"); 
....................    return s; 
.................... case EDOM : 
....................    strcpy(s,"domain error"); 
....................    return s; 
.................... case ERANGE: 
....................    strcpy(s,"range error"); 
....................    return s; 
.................... } 
.................... } 
.................... #ENDIF 
.................... /* standard template: size_t strlen(const char *s). 
....................    Computes length of s1 (preceding terminating 0) */ 
....................  
.................... unsigned int8 strlen(char *s) 
.................... { 
....................    char *sc; 
....................  
....................    for (sc = s; *sc != 0; sc++); 
....................    return(sc - s); 
.................... } 
....................  
.................... /* standard template: size_t stricmp(const char *s1, const char *s2). 
....................    Compares s1 to s2 ignoring case (upper vs. lower) */ 
....................  
.................... signed int8 stricmp(char *s1, char *s2) 
.................... { 
....................  for(; *s1==*s2||(isalpha(*s1)&&isalpha(*s2)&&(*s1==*s2+32||*s2==*s1+32)); 
....................     s1++, s2++) 
....................     if (*s1 == '\0') 
....................        return(0); 
....................  return((*s1 < *s2) ? -1: 1); 
.................... } 
....................  
....................  
.................... /* standard template: char *strlwr(char *s). 
....................    Replaces uppercase letters by lowercase; 
....................    returns pointer to new string s */ 
....................  
.................... char *strlwr(char *s) 
.................... { 
....................    char *p; 
....................  
....................    for (p = s; *p != '\0'; p++) 
....................       if (*p >= 'A' && *p <='Z') 
....................          *p += 'a' - 'A'; 
....................    return(s); 
.................... } 
....................  
....................  
.................... /************************************************************/ 
....................  
....................  
.................... #endif 
....................  
.................... #include <stdlib.h> 
.................... /////////////////////////////////////////////////////////////////////////// 
.................... ////        (C) Copyright 1996,2007 Custom Computer Services           //// 
.................... //// This source code may only be used by licensed users of the CCS C  //// 
.................... //// compiler.  This source code may only be distributed to other      //// 
.................... //// licensed users of the CCS C compiler.  No other use, reproduction //// 
.................... //// or distribution is permitted without written permission.          //// 
.................... //// Derivative programs created using this software in object code    //// 
.................... //// form are not restricted in any way.                               //// 
.................... /////////////////////////////////////////////////////////////////////////// 
....................  
.................... #ifndef _STDLIB 
.................... #define _STDLIB 
....................  
.................... //--------------------------------------------------------------------------- 
.................... // Definitions and types 
.................... //--------------------------------------------------------------------------- 
....................  
.................... #ifndef RAND_MAX 
.................... #define RAND_MAX  32767    // The value of which is the maximum value 
....................                            // ... returned by the rand function 
.................... #endif 
....................  
....................  
.................... #IF (sizeof(int16*)>1) 
.................... #DEFINE LONG_POINTERS 1 
.................... #ELSE  
.................... #DEFINE LONG_POINTERS 0 
.................... #ENDIF 
....................  
.................... typedef struct { 
....................    signed int quot; 
....................    signed int rem; 
.................... } div_t; 
....................  
.................... typedef struct { 
....................    signed long quot; 
....................    signed long rem; 
.................... } ldiv_t; 
....................  
.................... #include <stddef.h> 
.................... /////////////////////////////////////////////////////////////////////////// 
.................... ////        (C) Copyright 1996,2003 Custom Computer Services           //// 
.................... //// This source code may only be used by licensed users of the CCS C  //// 
.................... //// compiler.  This source code may only be distributed to other      //// 
.................... //// licensed users of the CCS C compiler.  No other use, reproduction //// 
.................... //// or distribution is permitted without written permission.          //// 
.................... //// Derivative programs created using this software in object code    //// 
.................... //// form are not restricted in any way.                               //// 
.................... /////////////////////////////////////////////////////////////////////////// 
....................  
.................... #ifndef _STDDEF 
....................  
.................... #define _STDDEF 
....................  
.................... #if sizeof(unsigned int8 *)==1 
.................... #define ptrdiff_t unsigned int8 
.................... #else 
.................... #define ptrdiff_t unsigned int16 
.................... #endif 
....................  
.................... #define size_t unsigned int8 
.................... #define wchar_t char 
.................... #define NULL 0 
....................  
.................... #define offsetof(s,f) (offsetofbit(s,f)/8) 
....................  
.................... #endif 
....................  
....................  
.................... //--------------------------------------------------------------------------- 
.................... // String conversion functions 
.................... //--------------------------------------------------------------------------- 
....................  
.................... /* Standard template: signed int  atoi(char * s) 
....................  * converts the initial portion of the string s to a signed int 
....................  * returns the converted value if any, 0 otherwise 
....................  */ 
.................... signed int atoi(char *s); 
....................  
.................... /* Syntax: signed int32  atoi32(char * s) 
....................    converts the initial portion of the string s to a signed int32 
....................    returns the converted value if any, 0 otherwise*/ 
.................... #if (sizeof(long)==4) 
....................  #define atoi32(s) atol(s) 
.................... #else  
....................  signed int32 atoi32(char *s); 
.................... #endif 
....................  
.................... #if defined(__PCD__) 
.................... // The following functions only work on the 24 bit compiler 
.................... // for the 30F, 33F, 24F and 24H parts 
.................... /* Syntax: signed int48  atoi48(char * s) 
....................    converts the initial portion of the string s to a signed int48 
....................    returns the converted value if any, 0 otherwise*/ 
....................     
.................... signed int48 atoi48(char *s); 
....................  
.................... /* Syntax: signed int64  atoi64(char * s) 
....................    converts the initial portion of the string s to a signed int64 
....................    returns the converted value if any, 0 otherwise*/ 
.................... signed int64 atoi64(char *s); 
.................... #endif 
....................  
.................... /* Syntax: char *  itoa(signed int32 num, int8 base, char * s) 
....................    converts the signed int32 to a string and 
....................    returns the converted value if any, 0 otherwise*/ 
.................... char * itoa(signed int32 num, unsigned int base, char * s); 
....................  
.................... /* Standard template: signed int16  atol(char * s) 
....................  * converts the initial portion of the string s to a signed int16 
....................  * returns the converted value if any, 0 otherwise 
....................  */ 
.................... signed long atol(char *s); 
....................  
.................... /* Standard template: int16 strtoul(char * s,char *endptr,signed int base) 
....................  * converts the initial portion of the string s, represented as an 
....................  * integral value of radix base  to a signed long. 
....................  * Returns the converted value if any, 0 otherwise 
....................  * the final string is returned in the endptr, if endptr is not null 
....................  */ 
.................... signed long strtol(char *s,char *endptr, signed int base); 
....................  
.................... /* Standard template: int16 strtoul(char * s,char *endptr,signed int base) 
....................  * converts the initial portion of the string s, represented as an 
....................  * integral value of radix base to a unsigned long. 
....................  * returns the converted value if any, 0 otherwise 
....................  * the final string is returned in the endptr, if endptr is not null 
....................  */ 
.................... unsigned long strtoul(char *s,char *endptr, signed int base); 
....................  
.................... /* Standart template: float strtof(char * s,char *endptr) 
....................                       float48 strtof48(char *s,char *endptr); 
....................                       float64 strtod(char *s,char *endptr); 
....................  * converts the initial portion of the string s to a float32, float48 or float64, 
....................  * returns the converted value if any, 0 otherwise 
....................  * the final string is returned in the endptr, if endptr is not null                    
.................... */ 
.................... float strtof(char *s,char *endptr); 
.................... #if defined(__PCD__) 
.................... float48 strtof48(char *s,char *endptr); 
.................... float64 strtod(char *s,char *endptr); 
.................... #else 
.................... //provided for compatibility 
.................... #define strtof48(s, e) strtof(s, e) 
.................... #define strtod(s, e) strtof(s, e) 
.................... #endif 
....................  
.................... /* Standard template: float32 atof(char * s) 
....................  * converts the initial portion of the string s to a float. 
....................  * returns the converted value if any, 0 otherwise 
....................  */ 
.................... #define atof(s)   strtof(s, 0) 
....................  
.................... #if defined(__PCD__) 
.................... // The following functions only work on the 24 bit compiler 
.................... // for the 30F, 33F, 24F and 24H parts 
....................  
.................... /* Standard template: float48 atof48(char * s) 
....................  * converts the initial portion of the string s to a float. 
....................  * returns the converted value if any, 0 otherwise 
....................  */ 
.................... #define atof48(s) strtof48(s, 0) 
....................  
.................... /* Standard template: float64 atof64(char * s) 
....................  * converts the initial portion of the string s to a float. 
....................  * returns the converted value if any, 0 otherwise 
....................  */ 
.................... #define atof64(s) strtod(s, 0) 
.................... #endif 
....................  
.................... /* Standard template: float32 atoe(char * s) 
....................  * converts the initial portion of the string s to a float. 
....................  * returns the converted value if any, 0 otherwise 
....................  * also handles E format numbers 
....................  */ 
.................... #if !defined(__PCD__) 
.................... float atoe(char * s); 
.................... #endif 
....................  
.................... #if defined(__PCD__) 
.................... float32 atoe(char * s); 
.................... #endif 
....................  
.................... //--------------------------------------------------------------------------- 
.................... // Pseudo-random sequence generation functions 
.................... //--------------------------------------------------------------------------- 
....................  
.................... /* The rand function computes a sequence of pseudo-random integers in 
....................  * the range 0 to RAND_MAX 
....................  * 
....................  * Parameters: 
....................  *       (none) 
....................  * 
....................  * Returns: 
....................  *       The pseudo-random integer 
....................  */ 
.................... unsigned int16 rand(void); 
....................  
.................... /* The srand function uses the argument as a seed for a new sequence of 
....................  * pseudo-random numbers to be returned by subsequent calls to rand. 
....................  * 
....................  * Parameters: 
....................  *       [in] seed: The seed value to start from. You might need to pass 
....................  * 
....................  * Returns: 
....................  *       (none) 
....................  * 
....................  * Remarks 
....................  *          The srand function sets the starting point for generating 
....................  *       a series of pseudorandom integers. To reinitialize the 
....................  *       generator, use 1 as the seed argument. Any other value for 
....................  *       seed sets the generator to a random starting point. rand 
....................  *       retrieves the pseudorandom numbers that are generated. 
....................  *       Calling rand before any call to srand generates the same 
....................  *       sequence as calling srand with seed passed as 1. 
....................  *          Usually, you need to pass a time here from outer source 
....................  *       so that the numbers will be different every time you run. 
....................  */ 
.................... void srand(unsigned int32 seed); 
....................  
.................... //--------------------------------------------------------------------------- 
.................... // Memory management functions 
.................... //--------------------------------------------------------------------------- 
....................  
.................... // Comming soon 
....................  
.................... //--------------------------------------------------------------------------- 
.................... // Communication with the environment 
.................... //--------------------------------------------------------------------------- 
....................  
.................... /* The function returns 0 always 
....................  */ 
.................... signed int8 system(char *string); 
....................  
.................... //--------------------------------------------------------------------------- 
.................... // Searching and sorting utilities 
.................... //--------------------------------------------------------------------------- 
....................  
.................... /* Performs a binary search of a sorted array.. 
....................  * 
....................  * Parameters: 
....................  *       [in] key: Object to search for 
....................  *       [in] base: Pointer to base of search data 
....................  *       [in] num: Number of elements 
....................  *       [in] width: Width of elements 
....................  *       [in] compare: Function that compares two elements 
....................  * 
....................  * Returns: 
....................  *       bsearch returns a pointer to an occurrence of key in the array pointed 
....................  *       to by base. If key is not found, the function returns NULL. If the 
....................  *       array is not in order or contains duplicate records with identical keys, 
....................  *       the result is unpredictable. 
....................  */ 
.................... //void *bsearch(const void *key, const void *base, size_t num, size_t width, 
.................... //              int (*compare)(const void *, const void *)); 
....................  
.................... /* Performs the shell-metzner sort (not the quick sort algorithm). The contents 
....................  * of the array are sorted into ascending order according to a comparison 
....................  * function pointed to by compar. 
....................  * 
....................  * Parameters: 
....................  *       [in] base: Pointer to base of search data 
....................  *       [in] num: Number of elements 
....................  *       [in] width: Width of elements 
....................  *       [in] compare: Function that compares two elements 
....................  * 
....................  * Returns: 
....................  *       (none) 
....................  */ 
.................... //void *qsort(const void *base, size_t num, size_t width, 
.................... //              int (*compare)(const void *, const void *)); 
....................  
.................... //--------------------------------------------------------------------------- 
.................... // Integer arithmetic functions 
.................... //--------------------------------------------------------------------------- 
....................  
.................... #define labs abs 
....................  
.................... div_t div(signed int numer, signed int denom); 
.................... ldiv_t ldiv(signed long numer, signed long denom); 
....................  
.................... //--------------------------------------------------------------------------- 
.................... // Multibyte character functions 
.................... //--------------------------------------------------------------------------- 
....................  
.................... // Not supported 
....................  
.................... //--------------------------------------------------------------------------- 
.................... // Multibyte string functions 
.................... //--------------------------------------------------------------------------- 
....................  
.................... // Not supported 
....................  
....................  
.................... //--------------------------------------------------------------------------- 
.................... // Internal implementation 
.................... //--------------------------------------------------------------------------- 
....................  
.................... #include <stddef.h> 
.................... /////////////////////////////////////////////////////////////////////////// 
.................... ////        (C) Copyright 1996,2003 Custom Computer Services           //// 
.................... //// This source code may only be used by licensed users of the CCS C  //// 
.................... //// compiler.  This source code may only be distributed to other      //// 
.................... //// licensed users of the CCS C compiler.  No other use, reproduction //// 
.................... //// or distribution is permitted without written permission.          //// 
.................... //// Derivative programs created using this software in object code    //// 
.................... //// form are not restricted in any way.                               //// 
.................... /////////////////////////////////////////////////////////////////////////// 
....................  
.................... #ifndef _STDDEF 
....................  
.................... #define _STDDEF 
....................  
.................... #if sizeof(unsigned int8 *)==1 
.................... #define ptrdiff_t unsigned int8 
.................... #else 
.................... #define ptrdiff_t unsigned int16 
.................... #endif 
....................  
.................... #define size_t unsigned int8 
.................... #define wchar_t char 
.................... #define NULL 0 
....................  
.................... #define offsetof(s,f) (offsetofbit(s,f)/8) 
....................  
.................... #endif 
....................  
.................... #include <string.h> 
.................... //////////////////////////////////////////////////////////////////////////// 
.................... ////        (C) Copyright 1996,2008 Custom Computer Services            //// 
.................... //// This source code may only be used by licensed users of the CCS C   //// 
.................... //// compiler.  This source code may only be distributed to other       //// 
.................... //// licensed users of the CCS C compiler.  No other use, reproduction  //// 
.................... //// or distribution is permitted without written permission.           //// 
.................... //// Derivative programs created using this software in object code     //// 
.................... //// form are not restricted in any way.                                //// 
.................... //////////////////////////////////////////////////////////////////////////// 
....................  
.................... #ifndef _STRING 
.................... #define _STRING 
.................... #include <stddef.h> 
.................... #include <ctype.h> 
....................  
....................  
....................  
.................... ////////////////////////////////////////////// 
.................... //// Uncomment the following define to    //// 
.................... //// allow some functions to use a        //// 
.................... //// quicker algorithm, but use more ROM  //// 
.................... ////                                      //// 
.................... //// #define FASTER_BUT_MORE_ROM          //// 
.................... ////////////////////////////////////////////// 
....................  
....................  
....................  
.................... /*Copying functions*/ 
.................... /* standard template: 
....................    void *memmove(void *s1, void *s2, size_t n). 
....................    Copies max of n characters safely (not following ending '\0') 
....................    from s2 in s1; if s2 has less than n characters, appends 0 */ 
....................  
.................... char *memmove(void *s1,char *s2,size_t n) 
.................... { 
....................    char *sc1; 
....................    char *sc2; 
....................    sc1=s1; 
....................    sc2=s2; 
....................    if(sc2<sc1 && sc1 <sc2 +n) 
....................       for(sc1+=n,sc2+=n;0<n;--n) 
....................          *--sc1=*--sc2; 
....................    else 
....................       for(;0<n;--n) 
....................          *sc1++=*sc2++; 
....................   return s1; 
....................   } 
....................  
.................... /* Standard template: char *strcpy(char *s1, const char *s2) 
....................    copies the string s2 including the null character to s1. 
....................    This is a compiler built in to handle the different address 
....................    spaces */ 
....................  
.................... #define strcopy strcpy 
....................  
.................... /* standard template: 
....................    char *strncpy(char *s1, const char *s2, size_t n). 
....................    Copies max of n characters (not following ending '\0') 
....................    from s2 in s1; if s2 has less than n characters, appends 0 */ 
....................  
.................... char *strncpy(char *s1, char *s2, size_t n) 
.................... { 
....................   char *s; 
....................  
....................   for (s = s1; n > 0 && *s2 != '\0'; n--) 
....................      *s++ = *s2++; 
....................   for (; n > 0; n--) 
....................      *s++ = '\0'; 
....................  
....................   return(s1); 
.................... } 
.................... /***********************************************************/ 
....................  
.................... /*concatenation functions*/ 
.................... /* standard template: char *strcat(char *s1, const char *s2) 
.................... appends s2 to s1*/ 
....................  
.................... char *strcat(char *s1, char *s2) 
.................... { 
....................    char *s; 
....................  
....................    for (s = s1; *s != '\0'; ++s); 
....................    while(*s2 != '\0') 
....................    { 
....................       *s = *s2; 
....................       ++s; 
....................       ++s2; 
....................    } 
....................  
....................    *s = '\0'; 
....................    return(s1); 
.................... } 
.................... /* standard template: char *strncat(char *s1, char *s2,size_t n) 
.................... appends not more than n characters from s2 to s1*/ 
....................  
.................... char *strncat(char *s1, char *s2, size_t n) 
.................... { 
....................    char *s; 
....................  
....................    for (s = s1; *s != '\0'; ++s); 
....................    while(*s2 != '\0' && 0<n) 
....................    { 
....................       *s = *s2; 
....................       ++s; 
....................       ++s2; 
....................       --n; 
....................    } 
....................  
....................    *s = '\0'; 
....................    return(s1); 
.................... } 
....................  
.................... /***********************************************************/ 
....................  
....................  
.................... /*comparison functions*/ 
.................... /* standard template: signed int memcmp(void *s1, void *s2). 
....................    Compares s1 & s2; returns -1 if s1<s2, 0 if s1=s2, 1 if s1>s2 */ 
....................  
.................... signed int8 memcmp(void * s1,char *s2,size_t n) 
.................... { 
.................... char *su1, *su2; 
.................... for(su1=s1, su2=s2; 0<n; ++su1, ++su2, --n) 
.................... { 
....................    if(*su1!=*su2) 
....................       return ((*su1<*su2)?-1:+1); 
.................... } 
.................... return 0; 
.................... } 
....................  
.................... /* standard template: int strcmp(const char *s1, const char *s2). 
....................    Compares s1 & s2; returns -1 if s1<s2, 0 if s1=s2, 1 if s1>s2 */ 
....................  
.................... signed int8 strcmp(char *s1, char *s2) 
.................... { 
....................    for (; *s1 == *s2; s1++, s2++) 
....................       if (*s1 == '\0') 
....................          return(0); 
....................    return((*s1 < *s2) ? -1: 1); 
.................... } 
.................... /* standard template: int strcoll(const char *s1, const char *s2). 
....................    Compares s1 & s2; returns -1 if s1<s2, 0 if s1=s2, 1 if s1>s2 */ 
....................  
.................... signed int8 strcoll(char *s1, char *s2) 
.................... { 
....................    for (; *s1 == *s2; s1++, s2++) 
....................       if (*s1 == '\0') 
....................          return(0); 
....................    return((*s1 < *s2) ? -1: 1); 
.................... } 
....................  
.................... /* standard template: 
....................    int strncmp(const char *s1, const char *s2, size_t n). 
....................    Compares max of n characters (not following 0) from s1 to s2; 
....................    returns same as strcmp */ 
....................  
.................... signed int8 strncmp(char *s1, char *s2, size_t n) 
.................... { 
....................    for (; n > 0; s1++, s2++, n--) 
....................       if (*s1 != *s2) 
....................          return((*s1 <*s2) ? -1: 1); 
....................       else if (*s1 == '\0') 
....................          return(0); 
....................    return(0); 
.................... } 
.................... /* standard template: 
....................    int strxfrm(const char *s1, const char *s2, size_t n). 
....................    transforms maximum of n characters from s2 and places them into s1*/ 
.................... size_t strxfrm(char *s1, char *s2, size_t n) 
.................... { 
....................   char *s; 
....................   unsigned int8 n1; 
....................   n1=n; 
....................   for (s = s1; n > 0 && *s2 != '\0'; n--) 
....................      *s++ = *s2++; 
....................   for (; n > 0; n--) 
....................      *s++ = '\0'; 
....................  
....................   return(n1); 
.................... } 
....................  
....................  
....................  
....................  
....................  
.................... /***********************************************************/ 
.................... /*Search functions*/ 
.................... /* standard template: void *memchr(const char *s, int c). 
....................    Finds first occurrence of c in n characters of s */ 
....................  
.................... char *memchr(void *s,unsigned int8 c,size_t n) 
.................... { 
....................    char uc; 
....................    char *su; 
....................    uc=c; 
....................    for(su=s;0<n;++su,--n) 
....................       if(*su==uc) 
....................       return su; 
....................    return NULL; 
.................... } 
....................  
.................... /* standard template: char *strchr(const char *s, int c). 
....................    Finds first occurrence of c in s */ 
....................  
.................... char *strchr(char *s, unsigned int8 c) 
.................... { 
....................    for (; *s != c; s++) 
....................       if (*s == '\0') 
....................          return(0); 
....................    return(s); 
.................... } 
.................... /* standard template: 
....................    size_t strcspn(const char *s1, const char *s2). 
....................    Computes length of max initial segment of s1 that 
....................    consists entirely of characters NOT from s2*/ 
....................  
.................... unsigned int8  strcspn(char *s1, char *s2) 
.................... { 
....................    char *sc1, *sc2; 
....................  
....................    for (sc1 = s1; *sc1 != 0; sc1++) 
....................       for (sc2 = s2; *sc2 != 0; sc2++) 
....................          if (*sc1 == *sc2) 
....................             return(sc1 - s1); 
....................    return(sc1 - s1); 
.................... } 
.................... /* standard template: 
....................    char *strpbrk(const char *s1, const char *s2). 
....................    Locates first occurence of any character from s2 in s1; 
....................    returns s1 if s2 is empty string */ 
....................  
.................... char *strpbrk(char *s1, char *s2) 
.................... { 
....................    char *sc1, *sc2; 
....................  
....................    for (sc1 = s1; *sc1 != 0; sc1++) 
....................       for (sc2 = s2; *sc2 != 0; sc2++) 
....................          if (*sc1 == *sc2) 
....................             return(sc1); 
....................    return(0); 
.................... } 
....................  
....................  
.................... /* standard template: char *strrchr(const char *s, int c). 
....................    Finds last occurrence of c in s */ 
....................  
.................... char *strrchr(char *s, unsigned int8 c) 
.................... { 
....................    char *p; 
....................  
....................    for (p = 0; ; s++) 
....................    { 
....................       if (*s == c) 
....................          p = s; 
....................       if (*s == '\0') 
....................          return(p); 
....................    } 
.................... } 
.................... /* computes length of max initial segment of s1 consisting 
....................    entirely of characters from s2 */ 
....................  
.................... unsigned int8  strspn(char *s1, char *s2) 
.................... { 
....................    char *sc1, *sc2; 
....................  
....................    for (sc1 = s1; *sc1 != 0; sc1++) 
....................       for (sc2 = s2; ; sc2++) 
....................     if (*sc2 == '\0') 
....................        return(sc1 - s1); 
....................          else if (*sc1 == *sc2) 
....................             break; 
....................    return(sc1 - s1); 
.................... } 
.................... /* standard template: 
....................    char *strstr(const char *s1, const char *s2); 
....................    Locates first occurence of character sequence s2 in s1; 
....................    returns 0 if s2 is empty string 
....................  
....................    Uncomment #define FASTER_BUT_MORE_ROM at the top of the 
....................    file to use the faster algorithm */ 
.................... char *strstr(char *s1, char *s2) 
.................... { 
....................    char *s, *t; 
....................  
....................    #ifdef FASTER_BUT_MORE_ROM 
....................    if (*s2 == '\0') 
....................          return(s1); 
....................    #endif 
....................  
....................    while (*s1) 
....................    { 
....................       for(s = s1, t = s2; *t && (*s == *t); ++s, ++t); 
....................  
....................       if (*t == '\0') 
....................          return s1; 
....................       ++s1; 
....................       #ifdef FASTER_BUT_MORE_ROM 
....................          while(*s1 != '\0' && *s1 != *s2) 
....................             ++s1; 
....................       #endif 
....................    } 
....................    return 0; 
.................... } 
....................  
.................... /* standard template: char *strtok(char *s1, const char *s2). 
....................  
....................    Finds next token in s1 delimited by a character from separator 
....................    string s2 (which can be different from call to call).  First call 
....................    starts at beginning of s1 searching for first character NOT 
....................    contained in s2; returns 0 if none is found. 
....................    If one is found, it is the start of first token (return value). 
....................    Function then searches from there for a character contained in s2. 
....................    If none is found, current token extends to end of s1, and subsequent 
....................    searches for a token will return 0.  If one is found, it is 
....................    overwritten by '\0', which terminates current token.  Function saves 
....................    pointer to following character from which next search will start. 
....................    Each subsequent call, with 0 as first argument, starts searching 
....................    from saved pointer */ 
....................  
.................... char *strtok(char *s1, char *s2) 
.................... { 
....................    char *beg, *end; 
....................    static char *save; 
....................  
....................    beg = (s1)? s1: save; 
....................    beg += strspn(beg, s2); 
....................    if (*beg == '\0') 
....................    { 
....................       *save = ' '; 
....................       return(0); 
....................    } 
....................    end = strpbrk(beg, s2); 
....................    if (*end != '\0') 
....................    { 
....................       *end = '\0'; 
....................       end++; 
....................    } 
....................    save = end; 
....................    return(beg); 
.................... } 
....................  
.................... /*****************************************************************/ 
.................... /*Miscellaneous functions*/ 
.................... /* standard template 
.................... maps error number in errnum to an error message string 
.................... Returns: Pointer to string 
.................... */ 
.................... #ifdef _ERRNO 
.................... char * strerror(unsigned int8 errnum) 
.................... { 
.................... char s[15]; 
.................... switch( errnum) 
.................... { 
.................... case 0: 
....................    strcpy(s,"no errors"); 
....................    return s; 
.................... case EDOM : 
....................    strcpy(s,"domain error"); 
....................    return s; 
.................... case ERANGE: 
....................    strcpy(s,"range error"); 
....................    return s; 
.................... } 
.................... } 
.................... #ENDIF 
.................... /* standard template: size_t strlen(const char *s). 
....................    Computes length of s1 (preceding terminating 0) */ 
....................  
.................... unsigned int8 strlen(char *s) 
.................... { 
....................    char *sc; 
....................  
....................    for (sc = s; *sc != 0; sc++); 
....................    return(sc - s); 
.................... } 
....................  
.................... /* standard template: size_t stricmp(const char *s1, const char *s2). 
....................    Compares s1 to s2 ignoring case (upper vs. lower) */ 
....................  
.................... signed int8 stricmp(char *s1, char *s2) 
.................... { 
....................  for(; *s1==*s2||(isalpha(*s1)&&isalpha(*s2)&&(*s1==*s2+32||*s2==*s1+32)); 
....................     s1++, s2++) 
....................     if (*s1 == '\0') 
....................        return(0); 
....................  return((*s1 < *s2) ? -1: 1); 
.................... } 
....................  
....................  
.................... /* standard template: char *strlwr(char *s). 
....................    Replaces uppercase letters by lowercase; 
....................    returns pointer to new string s */ 
....................  
.................... char *strlwr(char *s) 
.................... { 
....................    char *p; 
....................  
....................    for (p = s; *p != '\0'; p++) 
....................       if (*p >= 'A' && *p <='Z') 
....................          *p += 'a' - 'A'; 
....................    return(s); 
.................... } 
....................  
....................  
.................... /************************************************************/ 
....................  
....................  
.................... #endif 
....................  
....................  
.................... div_t div(signed int numer, signed int denom) 
.................... { 
....................    div_t val; 
....................    val.quot = numer / denom; 
....................    val.rem = numer - (denom * val.quot); 
....................    return (val); 
.................... } 
....................  
.................... ldiv_t ldiv(signed long numer, signed long denom) 
.................... { 
....................    ldiv_t val; 
....................  
....................    val.quot = numer / denom; 
....................    val.rem = numer - (denom * val.quot); 
....................    return (val); 
.................... } 
....................  
.................... #if defined(__PCD__) 
.................... float32 atoe(char * s) 
.................... { 
....................    float32 pow10 = 1.0; 
....................    float32 result = 0.0; 
....................    unsigned int8 sign = 0; 
....................    unsigned int8 expsign = 0; 
....................    char c; 
....................    unsigned int8 ptr = 0; 
....................    unsigned int8 i; 
....................    float32 exp = 1.0; 
....................    unsigned int8 expcnt = 0; 
....................  
....................    c = s[ptr++]; 
....................  
....................    if ((c>='0' && c<='9') || c=='+' || c=='-' || c=='.' || c=='E' || c=='e') { 
....................       if(c == '-') { 
....................          sign = 1; 
....................          c = s[ptr++]; 
....................       } 
....................       if(c == '+') 
....................          c = s[ptr++]; 
....................  
....................       while((c >= '0' && c <= '9')) { 
....................          result = 10*result + c - '0'; 
....................          c = s[ptr++]; 
....................       } 
....................  
....................       if (c == '.') { 
....................          c = s[ptr++]; 
....................          while((c >= '0' && c <= '9')) { 
....................              pow10 = pow10*10; 
....................              result += (c - '0')/pow10; 
....................              c = s[ptr++]; 
....................          } 
....................       } 
....................  
....................       // Handling the exponent 
....................       if (c=='e' || c=='E') { 
....................          c = s[ptr++]; 
....................  
....................          if(c == '-') { 
....................             expsign = 1; 
....................             c = s[ptr++]; 
....................          } 
....................          if(c == '+') 
....................             c = s[ptr++]; 
....................  
....................          while((c >= '0' && c <= '9')) { 
....................             expcnt = 10*expcnt + c - '0'; 
....................             c = s[ptr++]; 
....................          } 
....................  
....................          for(i=0;i<expcnt;i++) 
....................             exp*=10; 
....................  
....................          if(expsign==1) 
....................             result/=exp; 
....................          else 
....................             result*=exp; 
....................       } 
....................    } 
....................  
....................    if (sign == 1) 
....................       result = -1*result; 
....................    return(result); 
.................... } 
.................... #endif 
....................  
.................... #if !defined(__PCD__) 
.................... float atoe(char * s) 
.................... { 
....................    float pow10 = 1.0; 
....................    float result = 0.0; 
....................    unsigned int8 sign = 0; 
....................    unsigned int8 expsign = 0; 
....................    char c; 
....................    unsigned int8 ptr = 0; 
....................    unsigned int8 i; 
....................    float exp = 1.0; 
....................    unsigned int8 expcnt = 0; 
....................  
....................    c = s[ptr++]; 
....................  
....................    if ((c>='0' && c<='9') || c=='+' || c=='-' || c=='.' || c=='E' || c=='e') { 
....................       if(c == '-') { 
....................          sign = 1; 
....................          c = s[ptr++]; 
....................       } 
....................       if(c == '+') 
....................          c = s[ptr++]; 
....................  
....................       while((c >= '0' && c <= '9')) { 
....................          result = 10*result + c - '0'; 
....................          c = s[ptr++]; 
....................       } 
....................  
....................       if (c == '.') { 
....................          c = s[ptr++]; 
....................          while((c >= '0' && c <= '9')) { 
....................              pow10 = pow10*10; 
....................              result += (c - '0')/pow10; 
....................              c = s[ptr++]; 
....................          } 
....................       } 
....................  
....................       // Handling the exponent 
....................       if (c=='e' || c=='E') { 
....................          c = s[ptr++]; 
....................  
....................          if(c == '-') { 
....................             expsign = 1; 
....................             c = s[ptr++]; 
....................          } 
....................          if(c == '+') 
....................             c = s[ptr++]; 
....................  
....................          while((c >= '0' && c <= '9')) { 
....................             expcnt = 10*expcnt + c - '0'; 
....................             c = s[ptr++]; 
....................          } 
....................  
....................          for(i=0;i<expcnt;i++) 
....................             exp*=10; 
....................  
....................          if(expsign==1) 
....................             result/=exp; 
....................          else 
....................             result*=exp; 
....................       } 
....................    } 
....................  
....................    if (sign == 1) 
....................       result = -1*result; 
....................    return(result); 
.................... } 
.................... #endif 
....................  
.................... signed int atoi(char *s) 
.................... { 
....................    signed int result; 
....................    unsigned int sign, base, index; 
....................    char c; 
....................  
....................    index = 0; 
....................    sign = 0; 
....................    base = 10; 
....................    result = 0; 
....................  
....................    if (!s) 
....................       return 0; 
....................    // Omit all preceeding alpha characters 
....................    c = s[index++]; 
....................  
....................    // increase index if either positive or negative sign is detected 
....................    if (c == '-') 
....................    { 
....................       sign = 1;         // Set the sign to negative 
....................       c = s[index++]; 
....................    } 
....................    else if (c == '+') 
....................    { 
....................       c = s[index++]; 
....................    } 
....................  
....................    if (c >= '0' && c <= '9') 
....................    { 
....................  
....................       // Check for hexa number 
....................       if (c == '0' && (s[index] == 'x' || s[index] == 'X')) 
....................       { 
....................          base = 16; 
....................          index++; 
....................          c = s[index++]; 
....................       } 
....................  
....................       // The number is a decimal number 
....................       if (base == 10) 
....................       { 
....................          while (c >= '0' && c <= '9') 
....................          { 
....................             result = 10*result + (c - '0'); 
....................             c = s[index++]; 
....................          } 
....................       } 
....................       else if (base == 16)    // The number is a hexa number 
....................       { 
....................          c = toupper(c); 
....................          while ( (c >= '0' && c <= '9') || (c >= 'A' && c<='F')) 
....................          { 
....................             if (c >= '0' && c <= '9') 
....................                result = (result << 4) + (c - '0'); 
....................             else 
....................                result = (result << 4) + (c - 'A' + 10); 
....................  
....................             c = s[index++]; 
....................             c = toupper(c); 
....................          } 
....................       } 
....................    } 
....................  
....................    if (sign == 1 && base == 10) 
....................        result = -result; 
....................  
....................    return(result); 
.................... } 
....................  
.................... signed long atol(char *s) 
.................... { 
....................    signed long result; 
....................    unsigned int sign, base, index; 
....................    char c; 
....................  
....................    index = 0; 
....................    sign = 0; 
....................    base = 10; 
....................    result = 0; 
....................  
....................    if (!s) 
....................       return 0; 
....................    c = s[index++]; 
....................  
....................    // increase index if either positive or negative sign is detected 
....................    if (c == '-') 
....................    { 
....................       sign = 1;         // Set the sign to negative 
....................       c = s[index++]; 
....................    } 
....................    else if (c == '+') 
....................    { 
....................       c = s[index++]; 
....................    } 
....................  
....................    if (c >= '0' && c <= '9') 
....................    { 
....................       if (c == '0' && (s[index] == 'x' || s[index] == 'X')) 
....................       { 
....................          base = 16; 
....................          index++; 
....................          c = s[index++]; 
....................       } 
....................  
....................       // The number is a decimal number 
....................       if (base == 10) 
....................       { 
....................          while (c >= '0' && c <= '9') 
....................          { 
....................             result = 10*result + (c - '0'); 
....................             c = s[index++]; 
....................          } 
....................       } 
....................       else if (base == 16)    // The number is a hexa number 
....................       { 
....................          c = toupper(c); 
....................          while ( (c >= '0' && c <= '9') || (c >= 'A' && c <='F')) 
....................          { 
....................             if (c >= '0' && c <= '9') 
....................                result = (result << 4) + (c - '0'); 
....................             else 
....................                result = (result << 4) + (c - 'A' + 10); 
....................  
....................             c = s[index++];c = toupper(c); 
....................          } 
....................       } 
....................    } 
....................  
....................    if (base == 10 && sign == 1) 
....................       result = -result; 
....................  
....................    return(result); 
.................... } 
....................  
.................... /* A fast routine to multiply by 10 
....................  */ 
.................... signed int32 mult_with10(int32 num) 
.................... { 
....................    return ( (num << 1) + (num << 3) ); 
.................... } 
....................  
.................... #if sizeof(long)==2 
.................... signed int32 atoi32(char *s) 
.................... { 
....................    signed int32 result; 
....................    int8 sign, base, index; 
....................    char c; 
....................  
....................    index = 0; 
....................    sign = 0; 
....................    base = 10; 
....................    result = 0; 
....................  
....................    if (!s) 
....................       return 0; 
....................    c = s[index++]; 
....................  
....................    // increase index if either positive or negative sign is detected 
....................    if (c == '-') 
....................    { 
....................       sign = 1;         // Set the sign to negative 
....................       c = s[index++]; 
....................    } 
....................    else if (c == '+') 
....................    { 
....................       c = s[index++]; 
....................    } 
....................  
....................    if (c >= '0' && c <= '9') 
....................    { 
....................       if (c == '0' && (s[index] == 'x' || s[index] == 'X')) 
....................       { 
....................          base = 16; 
....................          index++; 
....................          c = s[index++]; 
....................       } 
....................  
....................       // The number is a decimal number 
....................       if (base == 10) 
....................       { 
....................          while (c >= '0' && c <= '9') { 
....................             result = (result << 1) + (result << 3);  // result *= 10; 
....................             result += (c - '0'); 
....................             c = s[index++]; 
....................          } 
....................       } 
....................       else if (base == 16)    // The number is a hexa number 
....................       { 
....................          c = toupper(c); 
....................          while ((c >= '0' && c <= '9') || (c >= 'A' && c <='F')) 
....................          { 
....................             if (c >= '0' && c <= '9') 
....................                result = (result << 4) + (c - '0'); 
....................             else 
....................                result = (result << 4) + (c - 'A' + 10); 
....................  
....................             c = s[index++];c = toupper(c); 
....................          } 
....................       } 
....................    } 
....................  
....................    if (base == 10 && sign == 1) 
....................       result = -result; 
....................  
....................    return(result); 
.................... } 
.................... #endif 
....................  
.................... #if defined(__PCD__) 
....................  
.................... signed int48 atoi48(char *s) 
.................... { 
....................    signed int48 result; 
....................    int8 sign, base, index; 
....................    char c; 
....................  
....................    index = 0; 
....................    sign = 0; 
....................    base = 10; 
....................    result = 0; 
....................  
....................    if (!s) 
....................       return 0; 
....................    c = s[index++]; 
....................  
....................    // increase index if either positive or negative sign is detected 
....................    if (c == '-') 
....................    { 
....................       sign = 1;         // Set the sign to negative 
....................       c = s[index++]; 
....................    } 
....................    else if (c == '+') 
....................    { 
....................       c = s[index++]; 
....................    } 
....................  
....................    if (c >= '0' && c <= '9') 
....................    { 
....................       if (c == '0' && (s[index] == 'x' || s[index] == 'X')) 
....................       { 
....................          base = 16; 
....................          index++; 
....................          c = s[index++]; 
....................       } 
....................  
....................       // The number is a decimal number 
....................       if (base == 10) 
....................       { 
....................          while (c >= '0' && c <= '9') { 
....................             result = (result << 1) + (result << 3);  // result *= 10; 
....................             result += (c - '0'); 
....................             c = s[index++]; 
....................          } 
....................       } 
....................       else if (base == 16)    // The number is a hexa number 
....................       { 
....................          c = toupper(c); 
....................          while ((c >= '0' && c <= '9') || (c >= 'A' && c <='F')) 
....................          { 
....................             if (c >= '0' && c <= '9') 
....................                result = (result << 4) + (c - '0'); 
....................             else 
....................                result = (result << 4) + (c - 'A' + 10); 
....................  
....................             c = s[index++];c = toupper(c); 
....................          } 
....................       } 
....................    } 
....................  
....................    if (base == 10 && sign == 1) 
....................       result = -result; 
....................  
....................    return(result); 
.................... } 
....................  
.................... signed int64 atoi64(char *s) 
.................... { 
....................    signed int64 result; 
....................    int8 sign, base, index; 
....................    char c; 
....................  
....................    index = 0; 
....................    sign = 0; 
....................    base = 10; 
....................    result = 0; 
....................  
....................    if (!s) 
....................       return 0; 
....................    c = s[index++]; 
....................  
....................    // increase index if either positive or negative sign is detected 
....................    if (c == '-') 
....................    { 
....................       sign = 1;         // Set the sign to negative 
....................       c = s[index++]; 
....................    } 
....................    else if (c == '+') 
....................    { 
....................       c = s[index++]; 
....................    } 
....................  
....................    if (c >= '0' && c <= '9') 
....................    { 
....................       if (c == '0' && (s[index] == 'x' || s[index] == 'X')) 
....................       { 
....................          base = 16; 
....................          index++; 
....................          c = s[index++]; 
....................       } 
....................  
....................       // The number is a decimal number 
....................       if (base == 10) 
....................       { 
....................          while (c >= '0' && c <= '9') { 
....................             result = (result << 1) + (result << 3);  // result *= 10; 
....................             result += (c - '0'); 
....................             c = s[index++]; 
....................          } 
....................       } 
....................       else if (base == 16)    // The number is a hexa number 
....................       { 
....................          c = toupper(c); 
....................          while ((c >= '0' && c <= '9') || (c >= 'A' && c <='F')) 
....................          { 
....................             if (c >= '0' && c <= '9') 
....................                result = (result << 4) + (c - '0'); 
....................             else 
....................                result = (result << 4) + (c - 'A' + 10); 
....................  
....................             c = s[index++];c = toupper(c); 
....................          } 
....................       } 
....................    } 
....................  
....................    if (base == 10 && sign == 1) 
....................       result = -result; 
....................  
....................    return(result); 
.................... } 
.................... #endif 
....................  
.................... char * itoa(signed int32 num, unsigned int base, char * s) 
.................... { 
....................      unsigned int32 temp=1; 
....................      unsigned int8 i,sign=0,cnt=0; 
....................      char c; 
....................  
....................      if(num<0) { 
....................          sign=1;        // Check for negative number 
....................          num*=-1; 
....................      } 
....................  
....................      while(temp>0) { 
....................          temp=(num/base); 
....................          s[cnt]=(num%base)+'0';    // Conversion 
....................  
....................          if(s[cnt]>0x39) 
....................             s[cnt]+=0x7; 
....................  
....................          cnt++; 
....................          num=temp; 
....................      } 
....................  
....................      if(sign==1) { 
....................          s[cnt]=0x2D;      // Negative sign 
....................          cnt++; 
....................      } 
....................  
....................      for(i = 0;i<(int8)(cnt/2);i++) { 
....................  
....................          c=s[i]; 
....................          s[i]=s[cnt-i-1];        // Reverse the number 
....................          s[cnt-i-1]=c; 
....................      } 
....................      s[cnt]='\0';     // End the string 
....................      return s; 
.................... } 
....................  
.................... float strtof(char *s, char *endptr) 
.................... { 
....................    float pow10 = 1.0; 
....................    float result = 0.0; 
....................    int1 skip = 1, sign = 0, point = 0; 
....................    char c; 
....................    unsigned int8 ptr = 0; 
....................  
....................    if (!s) 
....................       return 0; 
....................  
....................    for(c=s[ptr++]; c!=0; c=s[ptr++]) 
....................    { 
....................       if (skip && !isspace(c)) 
....................       { 
....................          skip = 0; 
....................          if (c == '+') 
....................          { 
....................             sign = 0; 
....................             continue; 
....................          }             
....................          else if (c == '-') 
....................          { 
....................             sign = 1; 
....................             continue; 
....................          } 
....................       } 
....................       if (!skip && (c == '.') && !point) 
....................          point = 1; 
....................       else if (!skip && isdigit(c)) 
....................       { 
....................          c -= '0'; 
....................          if (point) 
....................          { 
....................             pow10 = pow10 * 10.0; 
....................             result += (float)c / pow10;    
....................          } 
....................          else 
....................          { 
....................             result = 10.0 * result + (float)c; 
....................          } 
....................       } 
....................       else if (!skip) 
....................          break; 
....................    } 
....................  
....................    if (sign) 
....................       result = -1*result; 
....................        
....................    if(endptr) 
....................    { 
....................       if (ptr) { 
....................          ptr--; 
....................        #IF LONG_POINTERS  
....................          *((long *)endptr)= s+ptr;  
....................        #ELSE 
....................          *((char *)endptr)=s+ptr; 
....................        #ENDIF 
....................       } 
....................       else 
....................       { 
....................       #IF LONG_POINTERS 
....................       *((long *)endptr)= s;  
....................       #ELSE 
....................       *((char *)endptr)=s; 
....................       #ENDIF 
....................       } 
....................    } 
....................  
....................    return(result); 
.................... } 
....................  
.................... #if defined(__PCD__) 
.................... float48 strtof48(char *s, char *endptr) 
.................... { 
....................    float48 pow10 = 1.0; 
....................    float48 result = 0.0; 
....................    int1 skip = 1, sign = 0, point = 0; 
....................    char c; 
....................    unsigned int8 ptr = 0; 
....................  
....................    if (!s) 
....................       return 0; 
....................  
....................    for(c=s[ptr++]; c!=0; c=s[ptr++]) 
....................    { 
....................       if (skip && !isspace(c)) 
....................       { 
....................          skip = 0; 
....................          if (c == '+') 
....................          { 
....................             sign = 0; 
....................             continue; 
....................          }             
....................          else if (c == '-') 
....................          { 
....................             sign = 1; 
....................             continue; 
....................          } 
....................       } 
....................       if (!skip && (c == '.') && !point) 
....................          point = 1; 
....................       else if (!skip && isdigit(c)) 
....................       { 
....................          c -= '0'; 
....................          if (point) 
....................          { 
....................             pow10 = pow10 * 10.0; 
....................             result += (float48)c / pow10;    
....................          } 
....................          else 
....................          { 
....................             result = 10.0 * result + (float48)c; 
....................          } 
....................       } 
....................       else if (!skip) 
....................          break; 
....................    } 
....................  
....................    if (sign) 
....................       result = -1*result; 
....................        
....................    if(endptr) 
....................    { 
....................       if (ptr) { 
....................          ptr--; 
....................        #IF LONG_POINTERS  
....................          *((long *)endptr)= s+ptr;  
....................        #ELSE 
....................          *((char *)endptr)=s+ptr; 
....................        #ENDIF 
....................       } 
....................       else 
....................       { 
....................       #IF LONG_POINTERS 
....................       *((long *)endptr)= s;  
....................       #ELSE 
....................       *((char *)endptr)=s; 
....................       #ENDIF 
....................       } 
....................    } 
....................  
....................    return(result); 
.................... } 
....................  
.................... float64 strtod(char *s, char *endptr) 
.................... { 
....................    float64 pow10 = 1.0; 
....................    float64 result = 0.0; 
....................    int1 skip = 1, sign = 0, point = 0; 
....................    char c; 
....................    unsigned int8 ptr = 0; 
....................  
....................    if (!s) 
....................       return 0; 
....................  
....................    for(c=s[ptr++]; c!=0; c=s[ptr++]) 
....................    { 
....................       if (skip && !isspace(c)) 
....................       { 
....................          skip = 0; 
....................          if (c == '+') 
....................          { 
....................             sign = 0; 
....................             continue; 
....................          }             
....................          else if (c == '-') 
....................          { 
....................             sign = 1; 
....................             continue; 
....................          } 
....................       } 
....................       if (!skip && (c == '.') && !point) 
....................          point = 1; 
....................       else if (!skip && isdigit(c)) 
....................       { 
....................          c -= '0'; 
....................          if (point) 
....................          { 
....................             pow10 = pow10 * 10.0; 
....................             result += (float64)c / pow10;    
....................          } 
....................          else 
....................          { 
....................             result = 10.0 * result + (float64)c; 
....................          } 
....................       } 
....................       else if (!skip) 
....................          break; 
....................    } 
....................  
....................    if (sign) 
....................       result = -1*result; 
....................        
....................    if(endptr) 
....................    { 
....................       if (ptr) { 
....................          ptr--; 
....................        #IF LONG_POINTERS  
....................          *((long *)endptr)= s+ptr;  
....................        #ELSE 
....................          *((char *)endptr)=s+ptr; 
....................        #ENDIF 
....................       } 
....................       else 
....................       { 
....................       #IF LONG_POINTERS 
....................       *((long *)endptr)= s;  
....................       #ELSE 
....................       *((char *)endptr)=s; 
....................       #ENDIF 
....................       } 
....................    } 
....................  
....................    return(result); 
.................... } 
.................... #endif 
....................  
.................... unsigned long strtoul(char *s, char *endptr, signed int base) 
.................... { 
....................    char *sc,*s1,*sd; 
....................    unsigned long x=0; 
....................    char sign; 
....................    char digits[]="0123456789abcdefghijklmnopqstuvwxyz"; 
....................    for(sc=s;isspace(*sc);++sc); 
....................    sign=*sc=='-'||*sc=='+'?*sc++:'+'; 
....................    if(sign=='-' || base <0 || base ==1|| base >36) // invalid base 
....................    goto StrtoulGO; 
....................  
....................    else if (base) 
....................    { 
....................       if(base==16 && *sc =='0'&&(sc[1]=='x' || sc[1]=='X')) 
....................          sc+=2; 
....................       if(base==8 && *sc =='0') 
....................          sc+=1; 
....................       if(base==2 && *sc =='0'&&sc[1]=='b') 
....................          sc+=2; 
....................  
....................    } 
....................    else if(*sc!='0') // base is 0, find base 
....................       base=10; 
....................    else if (sc[1]=='x' || sc[1]=='X') 
....................       base =16,sc+=2; 
....................    else if(sc[1]=='b') 
....................       base=2,sc+=2; 
....................    else 
....................       base=8; 
....................    for (s1=sc;*sc=='0';++sc);// skip leading zeroes 
....................    sd=memchr(digits,tolower(*sc),base); 
....................    for(; sd!=0; ) 
....................    { 
....................       x=x*base+(int16)(sd-digits); 
....................       ++sc; 
....................       sd=memchr(digits,tolower(*sc),base); 
....................    } 
....................    if(s1==sc) 
....................    { 
....................    StrtoulGO: 
....................       if (endptr) 
....................       { 
....................          #IF LONG_POINTERS 
....................          *((long *)endptr)= s;  
....................          #ELSE 
....................          *((char *)endptr)=s; 
....................          #ENDIF 
....................          } 
....................    return 0; 
....................    } 
....................    if (endptr) 
....................    { 
....................          #IF LONG_POINTERS 
....................          *((long *)endptr)= sc;  
....................          #ELSE 
....................          *((char *)endptr)=sc;  
....................          #ENDIF 
....................    } 
....................    return x; 
.................... } 
....................  
....................  
.................... signed long strtol(char *s,char *endptr, signed int base) 
.................... { 
....................    char *sc,*s1,*sd; 
....................    signed long x=0; 
....................    char sign; 
....................    char digits[]="0123456789abcdefghijklmnopqstuvwxyz"; 
....................    for(sc=s;isspace(*sc);++sc); 
....................    sign=*sc=='-'||*sc=='+'?*sc++:'+'; 
....................    if (base <0 || base ==1|| base >36) // invalid base 
....................    goto StrtolGO; 
....................    else if (base) 
....................    { 
....................       if(base==16 && *sc =='0'&&(sc[1]=='x' || sc[1]=='X')) 
....................          sc+=2; 
....................       if(base==8 && *sc =='0') 
....................          sc+=1; 
....................       if(base==2 && *sc =='0'&&sc[1]=='b') 
....................          sc+=2; 
....................  
....................    } 
....................    else if(*sc!='0') // base is 0, find base 
....................       base=10; 
....................    else if (sc[1]=='x' || sc[1]=='X') 
....................       base =16,sc+=2; 
....................    else if(sc[1]=='b') 
....................       base=2,sc+=2; 
....................    else 
....................       base=8; 
....................    for (s1=sc;*sc=='0';++sc);// skip leading zeroes 
....................  
....................    sd=memchr(digits,tolower(*sc),base); 
....................    for(;sd!=0;) 
....................    { 
....................       x=x*base+(int16)(sd-digits); 
....................       ++sc; 
....................       sd=memchr(digits,tolower(*sc),base); 
....................    } 
....................    if(s1==sc) 
....................    { 
....................    StrtolGO: 
....................       if (endptr) 
....................       { 
....................          #IF LONG_POINTERS 
....................          *((long *)endptr)= s;  
....................          #ELSE 
....................          *((char *)endptr)=s; 
....................          #ENDIF 
....................       } 
....................    return 0; 
....................    } 
....................    if(sign=='-') 
....................       x  =-x; 
....................    if (endptr) 
....................    { 
....................         #IF LONG_POINTERS 
....................          *((long *)endptr)= sc;  
....................         #ELSE 
....................         *((char *)endptr)=sc; 
....................         #ENDIF 
....................    } 
....................    return x; 
.................... } 
....................  
.................... signed int8 system(char *string) 
.................... { 
....................    return 0; 
.................... } 
....................  
.................... int8 mblen(char *s,size_t n) 
.................... { 
....................    return strlen(s); 
.................... } 
....................  
.................... int8 mbtowc(wchar_t *pwc,char *s,size_t n) 
.................... { 
....................    *pwc=*s; 
....................    return 1; 
.................... } 
....................  
.................... int8 wctomb(char *s,wchar_t wchar) 
.................... { 
....................    *s=wchar; 
....................    return 1; 
.................... } 
....................  
.................... size_t mbstowcs(wchar_t *pwcs,char *s,size_t n) 
.................... { 
....................    strncpy(pwcs,s,n); 
....................    return strlen(pwcs); 
.................... } 
....................  
.................... size_t wcstombs(char *s,wchar_t *pwcs,size_t n) 
.................... { 
....................    strncpy(s,pwcs,n); 
....................    return strlen(s); 
.................... } 
....................  
.................... //--------------------------------------------------------------------------- 
.................... // The random number implementation 
.................... //--------------------------------------------------------------------------- 
....................  
.................... unsigned int32 _Randseed; 
....................  
.................... unsigned int16 rand(void) 
.................... { 
....................    _Randseed = _Randseed * 1103515245 + 12345; 
....................    return ((unsigned int16)(_Randseed >> 16) % RAND_MAX); 
.................... } 
....................  
.................... void srand(unsigned int32 seed) 
.................... { 
....................    _Randseed = seed; 
.................... } 
....................  
.................... //--------------------------------------------------------------------------- 
.................... // Searching and sorting utilities implementation 
.................... //--------------------------------------------------------------------------- 
....................  
.................... #if !defined(__PCD__) 
.................... typedef signed int8 (*_Cmpfun)(char * p1,char * p2);  
.................... #else  
.................... typedef signed int16 (*_Cmpfun)(char * p1,char * p2);  
.................... #endif 
....................  
....................  
....................  
.................... void qsort(char * qdata, unsigned int qitems, unsigned int qsize, _Cmpfun cmp) { 
....................    unsigned int m,j,i,l; 
....................    int1 done; 
....................    unsigned int8 t[16]; 
....................  
....................    m = qitems/2; 
....................    while( m > 0 ) { 
....................      for(j=0; j<(qitems-m); ++j) { 
....................         i = j; 
....................         do 
....................         { 
....................            done=1; 
....................            l = i+m; 
....................            if( (*cmp)(qdata+i*qsize, qdata+l*qsize) > 0 ) { 
....................               memcpy(t, qdata+i*qsize, qsize); 
....................               memcpy(qdata+i*qsize, qdata+l*qsize, qsize); 
....................               memcpy(qdata+l*qsize, t, qsize); 
....................               if(m <= i) 
....................                 i -= m; 
....................                 done = 0; 
....................            } 
....................         } while(!done); 
....................      } 
....................      m = m/2; 
....................    } 
.................... } 
....................  
....................  
.................... char *bsearch(char *key, char *base, size_t num, size_t width,_Cmpfun cmp) 
.................... { 
....................    char *p, *q; 
....................    size_t n; 
....................    size_t pivot; 
....................    signed int val; 
....................  
....................    p = base; 
....................    n = num; 
....................  
....................    while (n > 0) 
....................    { 
....................       pivot = n >> 1; 
....................       q = p + width * pivot; 
....................  
....................       val = (*cmp)(key, q); 
....................  
....................       if (val < 0) 
....................          n = pivot; 
....................       else if (val == 0) 
....................          return ((char *)q); 
....................       else { 
....................          p = q + width; 
....................          n -= pivot + 1; 
....................       } 
....................    } 
....................  
....................    return NULL;      // There's no match 
.................... } 
....................  
....................  
.................... #endif 
....................  
.................... //#include <DS1302.c> 
.................... #include <24512.c> 
.................... /////////////////////////////////////////////////////////////////////////// 
.................... ////   Library for a 24LC512 serial EEPROM                             //// 
.................... ////                                                                   //// 
.................... ////   init_ext_eeprom();    Call before the other functions are used  //// 
.................... ////                                                                   //// 
.................... ////   write_ext_eeprom(a, d);  Write the byte d to the address a      //// 
.................... ////                                                                   //// 
.................... ////   d = read_ext_eeprom(a);   Read the byte d from the address a    //// 
.................... ////                                                                   //// 
.................... ////   The main program may define eeprom_sda                          //// 
.................... ////   and eeprom_scl to override the defaults below.                  //// 
.................... ////                                                                   //// 
.................... /////////////////////////////////////////////////////////////////////////// 
.................... ////        (C) Copyright 1996,2003 Custom Computer Services           //// 
.................... //// This source code may only be used by licensed users of the CCS C  //// 
.................... //// compiler.  This source code may only be distributed to other      //// 
.................... //// licensed users of the CCS C compiler.  No other use, reproduction //// 
.................... //// or distribution is permitted without written permission.          //// 
.................... //// Derivative programs created using this software in object code    //// 
.................... //// form are not restricted in any way.                               //// 
.................... /////////////////////////////////////////////////////////////////////////// 
....................  
.................... #ifndef EEPROM_SDA 
....................  
.................... #define EEPROM_SDA  PIN_C4 
.................... #define EEPROM_SCL  PIN_C3 
....................  
.................... #endif 
....................  
.................... #use i2c(master, sda=EEPROM_SDA, scl=EEPROM_SCL) 
*
021E6:  MOVLW  08
021E8:  MOVWF  01
021EA:  MOVLW  05
021EC:  MOVWF  00
021EE:  DECFSZ 00,F
021F0:  BRA    21EE
021F2:  BCF    F8B.3
021F4:  BCF    F94.3
021F6:  MOVLW  06
021F8:  MOVWF  00
021FA:  DECFSZ 00,F
021FC:  BRA    21FA
021FE:  MOVLB  6
02200:  RLCF   x63,F
02202:  BCF    F8B.4
02204:  BTFSC  FD8.0
02206:  BSF    F94.4
02208:  BTFSS  FD8.0
0220A:  BCF    F94.4
0220C:  BSF    F94.3
0220E:  BTFSS  F82.3
02210:  BRA    220E
02212:  DECFSZ 01,F
02214:  BRA    2218
02216:  BRA    221C
02218:  MOVLB  0
0221A:  BRA    21EA
0221C:  MOVLW  05
0221E:  MOVWF  00
02220:  DECFSZ 00,F
02222:  BRA    2220
02224:  BCF    F8B.3
02226:  BCF    F94.3
02228:  NOP   
0222A:  BSF    F94.4
0222C:  MOVLW  06
0222E:  MOVWF  00
02230:  DECFSZ 00,F
02232:  BRA    2230
02234:  MOVLW  06
02236:  MOVWF  00
02238:  DECFSZ 00,F
0223A:  BRA    2238
0223C:  BSF    F94.3
0223E:  BTFSS  F82.3
02240:  BRA    223E
02242:  CLRF   01
02244:  MOVLW  06
02246:  MOVWF  00
02248:  DECFSZ 00,F
0224A:  BRA    2248
0224C:  BTFSC  F82.4
0224E:  BSF    01.0
02250:  BCF    F8B.3
02252:  BCF    F94.3
02254:  BCF    F8B.4
02256:  BCF    F94.4
02258:  MOVLB  0
0225A:  RETLW  00
0225C:  MOVLW  08
0225E:  MOVLB  6
02260:  MOVWF  x59
02262:  MOVFF  00,65A
02266:  BSF    F94.4
02268:  MOVLW  06
0226A:  MOVWF  00
0226C:  DECFSZ 00,F
0226E:  BRA    226C
02270:  BSF    F94.3
02272:  BTFSS  F82.3
02274:  BRA    2272
02276:  BTFSC  F82.4
02278:  BSF    FD8.0
0227A:  BTFSS  F82.4
0227C:  BCF    FD8.0
0227E:  RLCF   01,F
02280:  MOVLW  05
02282:  MOVWF  00
02284:  DECFSZ 00,F
02286:  BRA    2284
02288:  BCF    F94.3
0228A:  BCF    F8B.3
0228C:  DECFSZ x59,F
0228E:  BRA    2266
02290:  BSF    F94.4
02292:  MOVLW  06
02294:  MOVWF  00
02296:  DECFSZ 00,F
02298:  BRA    2296
0229A:  BCF    F8B.4
0229C:  MOVF   x5A,W
0229E:  BTFSS  FD8.2
022A0:  BCF    F94.4
022A2:  NOP   
022A4:  BSF    F94.3
022A6:  BTFSS  F82.3
022A8:  BRA    22A6
022AA:  MOVLW  05
022AC:  MOVWF  00
022AE:  DECFSZ 00,F
022B0:  BRA    22AE
022B2:  BCF    F8B.3
022B4:  BCF    F94.3
022B6:  MOVLW  06
022B8:  MOVWF  00
022BA:  DECFSZ 00,F
022BC:  BRA    22BA
022BE:  BCF    F8B.4
022C0:  BCF    F94.4
022C2:  MOVLB  0
022C4:  RETLW  00
....................  
.................... #define EEPROM_ADDRESS long int 
.................... #define EEPROM_SIZE   65535 
....................  
.................... void init_ext_eeprom() 
.................... { 
....................    output_float(EEPROM_SCL); 
....................    output_float(EEPROM_SDA); 
....................  
.................... } 
....................  
.................... void write_ext_eeprom(long int address, BYTE data) 
.................... { 
....................    short int status; 
....................    i2c_start(); 
*
06622:  BSF    F94.4
06624:  MOVLW  05
06626:  MOVWF  00
06628:  DECFSZ 00,F
0662A:  BRA    6628
0662C:  BSF    F94.3
0662E:  MOVLW  06
06630:  MOVWF  00
06632:  DECFSZ 00,F
06634:  BRA    6632
06636:  BCF    F8B.4
06638:  BCF    F94.4
0663A:  MOVLW  05
0663C:  MOVWF  00
0663E:  DECFSZ 00,F
06640:  BRA    663E
06642:  BCF    F8B.3
06644:  BCF    F94.3
....................    i2c_write(0xa0); 
06646:  MOVLW  A0
06648:  MOVLB  6
0664A:  MOVWF  x63
0664C:  MOVLB  0
0664E:  CALL   21E6
....................    i2c_write(address>>8); 
06652:  MOVFF  658,65B
06656:  MOVLB  6
06658:  CLRF   x5C
0665A:  MOVFF  658,663
0665E:  MOVLB  0
06660:  CALL   21E6
....................    i2c_write(address); 
06664:  MOVFF  657,663
06668:  CALL   21E6
....................    i2c_write(data); 
0666C:  MOVFF  659,663
06670:  CALL   21E6
....................    i2c_stop(); 
06674:  BCF    F94.4
06676:  NOP   
06678:  BSF    F94.3
0667A:  BTFSS  F82.3
0667C:  BRA    667A
0667E:  MOVLW  05
06680:  MOVWF  00
06682:  DECFSZ 00,F
06684:  BRA    6682
06686:  BRA    6688
06688:  NOP   
0668A:  BSF    F94.4
0668C:  MOVLW  05
0668E:  MOVWF  00
06690:  DECFSZ 00,F
06692:  BRA    6690
....................    i2c_start(); 
06694:  BSF    F94.4
06696:  MOVLW  05
06698:  MOVWF  00
0669A:  DECFSZ 00,F
0669C:  BRA    669A
0669E:  BSF    F94.3
066A0:  MOVLW  06
066A2:  MOVWF  00
066A4:  DECFSZ 00,F
066A6:  BRA    66A4
066A8:  BCF    F8B.4
066AA:  BCF    F94.4
066AC:  MOVLW  05
066AE:  MOVWF  00
066B0:  DECFSZ 00,F
066B2:  BRA    66B0
066B4:  BCF    F8B.3
066B6:  BCF    F94.3
....................    status=i2c_write(0xa0); 
066B8:  MOVLW  A0
066BA:  MOVLB  6
066BC:  MOVWF  x63
066BE:  MOVLB  0
066C0:  CALL   21E6
066C4:  MOVF   01,W
066C6:  MOVLB  6
066C8:  BCF    x5A.0
066CA:  BTFSC  01.0
066CC:  BSF    x5A.0
....................    while(status==1) 
....................    { 
066CE:  BTFSS  x5A.0
066D0:  BRA    6710
....................       i2c_start(); 
066D2:  BSF    F94.4
066D4:  MOVLW  05
066D6:  MOVWF  00
066D8:  DECFSZ 00,F
066DA:  BRA    66D8
066DC:  BSF    F94.3
066DE:  MOVLW  06
066E0:  MOVWF  00
066E2:  DECFSZ 00,F
066E4:  BRA    66E2
066E6:  BTFSS  F82.3
066E8:  BRA    66E6
066EA:  BCF    F8B.4
066EC:  BCF    F94.4
066EE:  MOVLW  05
066F0:  MOVWF  00
066F2:  DECFSZ 00,F
066F4:  BRA    66F2
066F6:  BCF    F8B.3
066F8:  BCF    F94.3
....................       status=i2c_write(0xa0); 
066FA:  MOVLW  A0
066FC:  MOVWF  x63
066FE:  MOVLB  0
06700:  CALL   21E6
06704:  MOVF   01,W
06706:  MOVLB  6
06708:  BCF    x5A.0
0670A:  BTFSC  01.0
0670C:  BSF    x5A.0
....................    } 
0670E:  BRA    66CE
....................    i2c_stop(); 
06710:  BCF    F94.4
06712:  NOP   
06714:  BSF    F94.3
06716:  BTFSS  F82.3
06718:  BRA    6716
0671A:  MOVLW  05
0671C:  MOVWF  00
0671E:  DECFSZ 00,F
06720:  BRA    671E
06722:  BRA    6724
06724:  NOP   
06726:  BSF    F94.4
06728:  MOVLW  05
0672A:  MOVWF  00
0672C:  DECFSZ 00,F
0672E:  BRA    672C
.................... } 
06730:  MOVLB  0
06732:  RETLW  00
....................  
.................... BYTE read_ext_eeprom(long int address) { 
....................    BYTE data; 
....................    i2c_start(); 
*
022C6:  BSF    F94.4
022C8:  MOVLW  05
022CA:  MOVWF  00
022CC:  DECFSZ 00,F
022CE:  BRA    22CC
022D0:  BSF    F94.3
022D2:  MOVLW  06
022D4:  MOVWF  00
022D6:  DECFSZ 00,F
022D8:  BRA    22D6
022DA:  BCF    F8B.4
022DC:  BCF    F94.4
022DE:  MOVLW  05
022E0:  MOVWF  00
022E2:  DECFSZ 00,F
022E4:  BRA    22E2
022E6:  BCF    F8B.3
022E8:  BCF    F94.3
....................    i2c_write(0xa0); 
022EA:  MOVLW  A0
022EC:  MOVLB  6
022EE:  MOVWF  x63
022F0:  MOVLB  0
022F2:  RCALL  21E6
....................    i2c_write(address>>8); 
022F4:  MOVFF  656,658
022F8:  MOVLB  6
022FA:  CLRF   x59
022FC:  MOVFF  656,663
02300:  MOVLB  0
02302:  RCALL  21E6
....................    i2c_write(address); 
02304:  MOVFF  655,663
02308:  RCALL  21E6
....................    i2c_start(); 
0230A:  BSF    F94.4
0230C:  MOVLW  05
0230E:  MOVWF  00
02310:  DECFSZ 00,F
02312:  BRA    2310
02314:  BSF    F94.3
02316:  MOVLW  06
02318:  MOVWF  00
0231A:  DECFSZ 00,F
0231C:  BRA    231A
0231E:  BTFSS  F82.3
02320:  BRA    231E
02322:  BCF    F8B.4
02324:  BCF    F94.4
02326:  MOVLW  05
02328:  MOVWF  00
0232A:  DECFSZ 00,F
0232C:  BRA    232A
0232E:  BCF    F8B.3
02330:  BCF    F94.3
....................    i2c_write(0xa1); 
02332:  MOVLW  A1
02334:  MOVLB  6
02336:  MOVWF  x63
02338:  MOVLB  0
0233A:  RCALL  21E6
....................    data=i2c_read(0); 
0233C:  CLRF   00
0233E:  RCALL  225C
02340:  MOVFF  01,657
....................    i2c_stop(); 
02344:  BCF    F94.4
02346:  NOP   
02348:  BSF    F94.3
0234A:  BTFSS  F82.3
0234C:  BRA    234A
0234E:  MOVLW  05
02350:  MOVWF  00
02352:  DECFSZ 00,F
02354:  BRA    2352
02356:  BRA    2358
02358:  NOP   
0235A:  BSF    F94.4
0235C:  MOVLW  05
0235E:  MOVWF  00
02360:  DECFSZ 00,F
02362:  BRA    2360
....................    return(data); 
02364:  MOVLB  6
02366:  MOVFF  657,01
.................... } 
0236A:  MOVLB  0
0236C:  RETLW  00
....................  
....................  
.................... #define   LOW           !input(PIN_B0) 
.................... #define   HIG           !input(PIN_B1) 
.................... #define   LOWB          !input(PIN_B2) 
.................... #define   DOOR          !input(PIN_B3) 
.................... #define   STOP          !input(PIN_B4) 
.................... #define   TERM          !input(PIN_B5) 
.................... #define   PRES          input(PIN_B6) 
.................... #define   BLOQUEO       !input(PIN_B7) 
....................  
.................... #define   Suministro_on    output_bit(PIN_D1,0) 
.................... #define   Suministro_off   output_bit(PIN_D1,1) 
....................  
.................... #define   Desfogue_on      output_bit(PIN_D0,0) 
.................... #define   Desfogue_off     output_bit(PIN_D0,1) 
....................  
.................... #define   Paso_on          output_bit(PIN_C2,0) 
.................... #define   Paso_off         output_bit(PIN_C2,1) 
....................  
.................... #define   Vacio_on         output_bit(PIN_C1,0) 
.................... #define   Vacio_off        output_bit(PIN_C1,1) 
....................  
.................... #define   Aire_on          output_bit(PIN_C0,0) 
.................... #define   Aire_off         output_bit(PIN_C0,1) 
....................  
.................... #define   BombaVacio_on    output_bit(PIN_D2,0) 
.................... #define   BombaVacio_off   output_bit(PIN_D2,1) 
....................  
.................... #define   Agua_on          output_bit(PIN_D3,0) 
.................... #define   Agua_off         output_bit(PIN_D3,1) 
....................  
.................... #define   Agua2_on         output_bit(PIN_C5,0) 
.................... #define   Agua2_off        output_bit(PIN_C5,1) 
....................  
.................... #define   Cilindro1_on     output_bit(PIN_D7,1) 
.................... #define   Cilindro1_off    output_bit(PIN_D7,0) 
....................  
.................... #define   Cilindro2_on     output_bit(PIN_D6,1) 
.................... #define   Cilindro2_off    output_bit(PIN_D6,0) 
....................  
.................... #define   Empaque_on       output_bit(PIN_D5,1) 
.................... #define   Empaque_off      output_bit(PIN_D5,0) 
....................  
.................... #define   Aux_on           output_bit(PIN_D4,1) 
.................... #define   Aux_off          output_bit(PIN_D4,0) 
....................  
.................... #define   SSR_on           output_bit(PIN_E1,1) 
.................... #define   SSR_off          output_bit(PIN_E1,0) 
....................  
.................... #define   SSR2_on          output_bit(PIN_E2,1) 
.................... #define   SSR2_off         output_bit(PIN_E2,0) 
....................  
.................... #define OFF 0 
.................... #define ON  1 
.................... #define RX_BUFFER_SIZE  10 
.................... char Rx_Buffer[RX_BUFFER_SIZE+1]; 
.................... char Rx_Buffer2[RX_BUFFER_SIZE+1]; 
.................... char RX_Wr_Index=0; 
....................  
.................... //Comunicacion//------------------------ 
.................... byte txbuf[0X20]; 
.................... byte SlaveA0Tx[0X20]; 
.................... byte dato=0;            //Contendr la informacin a enviar o recibir 
.................... byte direccion=0;       //Contendr la direccin del esclavo en el bus I2C 
.................... byte posicion=0;        //Contendr la posicin en el buffer de memoria del esclavo donde se almacenar o de donde se recuperar el dato 
.................... //byte ByteConfig1=0,ByteConfig2=0,ByteConfig3=0; 
....................  
.................... /* Tabla de Modulos, Primera Fila Ao Regular y el siguiente ao Bisiesto 
.................... E   F   M   A   M   J   J   A   S   O   N   D 
.................... 0   3   3   6   1   4   6   2   5   0   3   5 
.................... 0   3   4   0   2   5   0   3   6   1   4   6 
.................... */ 
.................... int8 Regular[12]={0,3,3,6,1,4,6,2,5,0,3,5}; 
.................... int8 Bisiesto[12]={0,3,4,0,2,5,0,3,6,1,4,6}; 
....................  
.................... //Alarmas//--------------------- 
.................... short AlarmaTiempoProlongado=OFF,AlarmaSobreTemperatura=OFF,AlarmaTermostato=OFF,AlarmaPuerta=OFF,AlarmaEmergencia=OFF,AlarmaVacio=OFF; 
.................... short AlarmaBomba=OFF,guardaCiclo=OFF,Cilindro=OFF,AlarmaLlenado=OFF,pulsoSubir=OFF,pulsoBajar=OFF,AlarmaEmpaque=OFF; 
.................... int16 TiempoVacio=600; 
....................  
.................... //Banderas//-------------------- 
.................... short IniciaLlenado=OFF,IniciaCiclo=OFF,Esterilizando=OFF,Secando=OFF,SensadoNivel=OFF,Desfogando=OFF,DesfogueSuave=OFF,CalderinLleno=OFF,abrirPuerta=OFF,cerro=OFF,vacioEmpaque=OFF; 
.................... short EstadoDesfogue=OFF,EstadoSuministro=OFF,EstadoAire=OFF,PruebaEstados=OFF,disp_Guarda=OFF,Ciclo=OFF,EstadoAgua2=OFF,EstadoAux=OFF; 
.................... short Op=OFF,Op2=OFF,Minutos=OFF,Segundos=OFF,GuardaEEPROM=OFF,EstadoPaso=OFF,EstadoVacio=OFF,EstadoBuzzer=OFF,flagAlarma=OFF; 
.................... short flagBuzzer=OFF,flagSilencio=OFF,Finalizo=OFF,AlarmaPresion=OFF,EstadoACierre=OFF,EstadoBomba=OFF,Libre=OFF,ingreso=OFF,Fugas=OFF; 
.................... short PreCalentamiento=OFF,IniciaVacio=OFF,IniciaVacio2=OFF,Vacio=OFF,flag_vac=OFF,flag_vacio=OFF,flag_pulso=OFF,EstadoAireBomba=OFF; 
.................... short SensadoNivelL=OFF,NivelBajo=OFF,onBomba=OFF,flagBombaAgua=OFF,flagBombaAguaOff=OFF,flagImprimir=OFF,entro=OFF; 
.................... short EstadoEmpaque=OFF,EstadoSSR1=OFF,EstadoSSR2=OFF,ReservorioLleno=OFF,SensadoNivelR=OFF; 
....................  
.................... //Tiempos//--------------------- 
.................... int16 TiempoCiclo=0,TiempoSensadoNivel=0,Tp=0,Tc=0,tguarda=0,tNivelBajo=0,TiempoLlenado=0,tVacioEmpaque=0,tEmpaque=OFF; 
.................... int8 sEst=0,mEst=0,sSec=0,mSec=0,sEstp=0,mEstp=0,sSecp=0,mSecp=0;// Tiempo transcurrido 
....................  
.................... //Control//------------------------ 
.................... float PromPresion[20]={0.0,0.0,0.0,0.0,0.0,0.0,0.0,0.0,0.0,0.0,0.0,0.0,0.0,0.0,0.0,0.0,0.0,0.0,0.0,0.0}; 
.................... float PromPresionp[20]={0.0,0.0,0.0,0.0,0.0,0.0,0.0,0.0,0.0,0.0,0.0,0.0,0.0,0.0,0.0,0.0,0.0,0.0,0.0,0.0}; 
.................... float Temporal=0.0,Aumento=0.0,tmp2=0.0; 
.................... float K=0.0012858; 
.................... float R10=6765,AN=0,BN=0; 
.................... float X[2]={0.0,0.0}; 
.................... float promediopresion=0.0,promediopresionp=0.0; 
.................... int8 h=0,l=0,MediaMovil=20,PantallaPrincipal=0,TipoClave=0,Modulo=0,TiempoSensadoNivelR=0; 
.................... float V0=0.0,Pt,Tciclo=10.0,Tpulso=0.0,error=0.0,Prom=0.0,Temperature=0.0,tmp=0.0,Ganancia=25.0,Ganancia2=20.0,desvio=1.0; 
.................... float V1=0.0,Presion=0.0,V2=0.0,Presionp=0.0; 
.................... float Temperatura=0.0,Temperatura2=0.0; 
.................... float a=0.0011,b=2.3302,c=-244.0723; 
.................... int8 Integral=0,Derivativo=0,CicloLibre=0; 
....................  
.................... //Varios//-------------------------------- 
.................... short desfoguelento=0,Lectura=0,Grafica=0; 
.................... short disp_Stop=0,flagTC=0,flagImprime=0; 
.................... int8 Control=0,tiemporecta=0,Controlando=0,timpresion=2,CalculoImpresion=0,Inicio=1,Dato_Exitoso=0,Dato2=0; 
.................... int8 Menu=0, MenuAnt=0,MenuAntt=240,i=0,CiclosL=0,CiclosH=0,CicloSeleccionado=0,Tapertura=0; 
.................... int16 CantidadPulsos=4,PresionFinal=0; 
.................... int8 Setpoint=0,Opcion=1,Opcion2=1,tiempo_esterilizacion=0,tiempo_secado=0; 
.................... int16 tiempos=0,tiempos2=0,tiempos3=0,tiempoctrl=0,Nivel=0,tinicio=0,PresionCamara=0,PresionPreCamara=0,Ciclos=0,tbomba=0,tvacio=0,tiempoImpresion=0,t_exhaust=0,NivelSeleccionado=0; 
.................... signed int  Password[4]={0,0,0,0};        // Contrasena Almacenada de 4 digitos 
.................... int8 r=0,t=0,r22=0,t2=0,NivelDes=0; 
.................... int8 y=0,ConteoBuzzer=0,posicionDato=0,codigoAlarma=0,codigoAnt=0,codigoUsuario2=0; 
.................... int16 tbuzzer=0,tsilencio=0,TiempoControl=0; 
.................... int8 Year=18,Mes=9,Dia=13,Hora=0,Minuto=0,Segundo=0,dow=0,cicloVisualizado=0,cicloVisto=0,NivelVacio=25,Atmosferica=75,PulsoPositivo=10,PulsosVacio=0; 
.................... int8 YearTx=0,MesTx=0,DiaTx=0,HoraTx=0,MinutoTx=0,SegundoTx=0,dowTx=0,SetTime=0,Imprime=0,Pulsos=0,j=0,codigoUsuario=0,codigoUsuarioant=0; 
.................... signed int8 G1=0,G2=0,sg1=0,sg2=0; 
.................... const char Texto[12][24]={"TEXTIL & INSTRUMENTAL","CAUCHO","CONTENEDORES","RAPID","NO ENVUELTOS 121","ENVUELTO 121", 
.................... "ENVUELTO 134","PRION","BOWIE & DICK","TEST DE FUGAS","TEST DE COMPONENTES","HORA Y FECHA"}; 
....................  
.................... //Textil & Instrumental 134C, 5m,15m 
.................... //Prion 134C, 20m,15m 
.................... //Caucho 121C, 25m,15m 
.................... //Contenedores 134C, 5m,25m 
.................... //Rapid 134C, 5m,8m 
....................  
.................... char usuario[20]; 
.................... float TCiclos[7]; 
.................... int16 PcCiclos[7]; 
.................... int16 PpcCiclos[7]; 
.................... int8 horaCiclos[7]; 
.................... int8 minutoCiclos[7]; 
.................... int8 ACiclos[7]; 
.................... int8 diaCiclos=0,mesCiclos=0,yearCiclos=0,usuarioCiclos=0,cicloCiclos=0; 
.................... short estados[30]={0,0,0,0,0,0,0,0,0,0,0,0,0,0,0,0,0,0,0,0,0,0,0,0,0,0,0,0,0,0}; 
....................  
.................... typedef struct{ 
....................    int8 Password[4]; 
.................... }Claves; 
....................  
.................... typedef struct{ 
....................    int8 Temperatura; 
....................    int8 Minutoest; 
....................    int8 Segundoest; 
....................    int8 Minutosec; 
....................    int8 Segundosec; 
....................    int8 PulsosVacio; 
....................    int8 NivelVacio; 
....................    int8 NivelDesfogue; 
.................... }Personalizado; 
....................  
.................... typedef struct{ 
....................    float BN; 
....................    float AN; 
....................    float V0; 
....................    float Pt; 
....................    float RPT100; 
....................    int8 l; 
....................    int8 h; 
....................    float Prom; 
....................    float Temperature; 
....................    int8 Ajuste; 
....................    int8 Ajusten; 
....................    float promedio[80]; 
....................    float Gain; 
.................... }SensorPT100; 
....................  
.................... SensorPT100 Sensor[2]; 
.................... Personalizado CiclosPersonalizados[20]; 
.................... Claves Clave[10]; 
....................  
.................... #include "Funciones.h" 
....................  
.................... void BorraBuffer(void){ 
.................... RX_Buffer[0]=0; 
*
0560C:  CLRF   30
.................... RX_Buffer[1]=0; 
0560E:  CLRF   31
.................... RX_Buffer[2]=0; 
05610:  CLRF   32
.................... RX_Buffer[3]=0; 
05612:  CLRF   33
.................... RX_Buffer[4]=0; 
05614:  CLRF   34
.................... RX_Buffer[5]=0; 
05616:  CLRF   35
.................... RX_Buffer[6]=0; 
05618:  CLRF   36
.................... RX_Buffer[7]=0; 
0561A:  CLRF   37
.................... RX_Buffer[8]=0; 
0561C:  CLRF   38
.................... RX_Buffer[9]=0; 
0561E:  CLRF   39
....................  
.................... RX_Buffer2[0]=0; 
05620:  CLRF   3B
.................... RX_Buffer2[1]=0; 
05622:  CLRF   3C
.................... RX_Buffer2[2]=0; 
05624:  CLRF   3D
.................... RX_Buffer2[3]=0; 
05626:  CLRF   3E
.................... RX_Buffer2[4]=0; 
05628:  CLRF   3F
.................... RX_Buffer2[5]=0; 
0562A:  CLRF   40
.................... RX_Buffer2[6]=0; 
0562C:  CLRF   41
.................... RX_Buffer2[7]=0; 
0562E:  CLRF   42
.................... RX_Buffer2[8]=0; 
05630:  CLRF   43
.................... RX_Buffer2[9]=0; 
05632:  CLRF   44
.................... } 
05634:  GOTO   56A2 (RETURN)
....................  
.................... void SendDataDisplay(void){ 
.................... delay_us(10); 
*
03F6A:  MOVLW  10
03F6C:  MOVWF  00
03F6E:  DECFSZ 00,F
03F70:  BRA    3F6E
03F72:  NOP   
.................... putc(0xFF); 
03F74:  MOVLW  FF
03F76:  RCALL  3F62
.................... delay_us(10); 
03F78:  MOVLW  10
03F7A:  MOVWF  00
03F7C:  DECFSZ 00,F
03F7E:  BRA    3F7C
03F80:  NOP   
.................... putc(0xFF); 
03F82:  MOVLW  FF
03F84:  RCALL  3F62
.................... delay_us(10); 
03F86:  MOVLW  10
03F88:  MOVWF  00
03F8A:  DECFSZ 00,F
03F8C:  BRA    3F8A
03F8E:  NOP   
.................... putc(0xFF); 
03F90:  MOVLW  FF
03F92:  RCALL  3F62
.................... delay_us(10); 
03F94:  MOVLW  10
03F96:  MOVWF  00
03F98:  DECFSZ 00,F
03F9A:  BRA    3F98
03F9C:  NOP   
.................... } 
03F9E:  RETLW  00
....................  
.................... short esBisiesto(int8 year) { 
....................      return ((year % 4 == 0 && year % 100 != 0) || year % 400 == 0); 
*
05B86:  MOVLB  6
05B88:  MOVF   x50,W
05B8A:  ANDLW  03
05B8C:  BNZ   5BA0
05B8E:  MOVFF  650,657
05B92:  MOVLW  64
05B94:  MOVWF  x58
05B96:  MOVLB  0
05B98:  RCALL  5972
05B9A:  MOVF   00,F
05B9C:  BNZ   5BCE
05B9E:  MOVLB  6
05BA0:  CLRF   x55
05BA2:  MOVFF  650,654
05BA6:  MOVLW  01
05BA8:  MOVWF  x57
05BAA:  MOVLW  90
05BAC:  MOVWF  x56
05BAE:  MOVLB  0
05BB0:  RCALL  5B40
05BB2:  MOVFF  00,651
05BB6:  MOVLB  6
05BB8:  MOVFF  03,652
05BBC:  MOVF   x51,F
05BBE:  BNZ   5BCA
05BC0:  MOVF   x52,F
05BC2:  BTFSS  FD8.2
05BC4:  BRA    5BCA
05BC6:  MOVLB  0
05BC8:  BRA    5BCE
05BCA:  MOVLW  00
05BCC:  BRA    5BD2
05BCE:  MOVLW  01
05BD0:  MOVLB  6
05BD2:  MOVWF  01
.................... } 
05BD4:  MOVLB  0
05BD6:  RETLW  00
....................  
.................... void LimitaDia(){ 
....................    if(MesTx>12) 
05BD8:  MOVLB  2
05BDA:  MOVF   x46,W
05BDC:  SUBLW  0C
05BDE:  BC    5BE4
....................       MesTx=10; 
05BE0:  MOVLW  0A
05BE2:  MOVWF  x46
....................    if(DiaTx>31) 
05BE4:  MOVF   x47,W
05BE6:  SUBLW  1F
05BE8:  BC    5BEE
....................       DiaTx=16; 
05BEA:  MOVLW  10
05BEC:  MOVWF  x47
....................    if(YearTx>99) 
05BEE:  MOVF   x45,W
05BF0:  SUBLW  63
05BF2:  BC    5BF8
....................       YearTx=18;    
05BF4:  MOVLW  12
05BF6:  MOVWF  x45
....................    if(HoraTx>24) 
05BF8:  MOVF   x48,W
05BFA:  SUBLW  18
05BFC:  BC    5C02
....................       HoraTx=11;       
05BFE:  MOVLW  0B
05C00:  MOVWF  x48
....................    if(MinutoTx>59) 
05C02:  MOVF   x49,W
05C04:  SUBLW  3B
05C06:  BC    5C0C
....................       MinutoTx=30;       
05C08:  MOVLW  1E
05C0A:  MOVWF  x49
....................     
....................       if(MesTx==2){ 
05C0C:  MOVF   x46,W
05C0E:  SUBLW  02
05C10:  BNZ   5C3C
....................          if(esBisiesto(YearTx)){ 
05C12:  MOVFF  245,650
05C16:  MOVLB  0
05C18:  RCALL  5B86
05C1A:  MOVF   01,F
05C1C:  BZ    5C2E
....................             if(DiaTx>29){ 
05C1E:  MOVLB  2
05C20:  MOVF   x47,W
05C22:  SUBLW  1D
05C24:  BC    5C2A
....................                DiaTx=29; 
05C26:  MOVLW  1D
05C28:  MOVWF  x47
....................                //glcd_fillScreen(OFF); 
....................             } 
....................          }else{ 
05C2A:  BRA    5C3A
05C2C:  MOVLB  0
....................             if(DiaTx>28){ 
05C2E:  MOVLB  2
05C30:  MOVF   x47,W
05C32:  SUBLW  1C
05C34:  BC    5C3A
....................                DiaTx=28; 
05C36:  MOVLW  1C
05C38:  MOVWF  x47
....................                //glcd_fillScreen(OFF); 
....................             } 
....................          } 
....................       }else{ 
05C3A:  BRA    5C66
....................          if(MesTx<=7){ 
05C3C:  MOVF   x46,W
05C3E:  SUBLW  07
05C40:  BNC   5C54
....................             if(MesTx % 2 ==0){ 
05C42:  MOVF   x46,W
05C44:  ANDLW  01
05C46:  BNZ   5C52
....................                if(DiaTx>30){ 
05C48:  MOVF   x47,W
05C4A:  SUBLW  1E
05C4C:  BC    5C52
....................                   DiaTx=30;  
05C4E:  MOVLW  1E
05C50:  MOVWF  x47
....................                   //glcd_fillScreen(OFF); 
....................                } 
....................             } 
....................          }else{ 
05C52:  BRA    5C66
....................             if(MesTx % 2 ==1){ 
05C54:  MOVF   x46,W
05C56:  ANDLW  01
05C58:  SUBLW  01
05C5A:  BNZ   5C66
....................                if(DiaTx>30){ 
05C5C:  MOVF   x47,W
05C5E:  SUBLW  1E
05C60:  BC    5C66
....................                   DiaTx=30;  
05C62:  MOVLW  1E
05C64:  MOVWF  x47
....................                   //glcd_fillScreen(OFF); 
....................                } 
....................             } 
....................          } 
....................       } 
.................... } 
05C66:  MOVLB  0
05C68:  GOTO   A06C (RETURN)
....................  
.................... void ActualizaRecta(){ 
....................    X[y]=Temperature; 
*
06E72:  MOVLB  2
06E74:  MOVF   x2C,W
06E76:  MULLW  04
06E78:  MOVF   FF3,W
06E7A:  CLRF   03
06E7C:  ADDLW  83
06E7E:  MOVWF  FE9
06E80:  MOVLW  01
06E82:  ADDWFC 03,W
06E84:  MOVWF  FEA
06E86:  MOVFF  1B2,FEF
06E8A:  MOVFF  1B3,FEC
06E8E:  MOVFF  1B4,FEC
06E92:  MOVFF  1B5,FEC
....................    y++; 
06E96:  INCF   x2C,F
....................    if(y>=2){ 
06E98:  MOVF   x2C,W
06E9A:  SUBLW  01
06E9C:  BC    6EDA
....................       y=0; 
06E9E:  CLRF   x2C
....................       Aumento=X[1]-X[0]; 
06EA0:  BSF    FD8.1
06EA2:  MOVFF  18A,665
06EA6:  MOVFF  189,664
06EAA:  MOVFF  188,663
06EAE:  MOVFF  187,662
06EB2:  MOVFF  186,669
06EB6:  MOVFF  185,668
06EBA:  MOVFF  184,667
06EBE:  MOVFF  183,666
06EC2:  MOVLB  0
06EC4:  CALL   250C
06EC8:  MOVFF  03,16E
06ECC:  MOVFF  02,16D
06ED0:  MOVFF  01,16C
06ED4:  MOVFF  00,16B
06ED8:  MOVLB  2
....................    } 
.................... } 
06EDA:  MOVLB  0
06EDC:  GOTO   6F58 (RETURN)
....................  
.................... // Funcion para conversor analogo-digital 
.................... float sensores(int x){ 
.................... float y;set_adc_channel(x);delay_ms(1);y=read_adc();return (y); 
*
03FC4:  MOVLB  6
03FC6:  RLCF   x56,W
03FC8:  MOVWF  00
03FCA:  RLCF   00,F
03FCC:  MOVLW  FC
03FCE:  ANDWF  00,F
03FD0:  MOVFF  00,01
03FD4:  MOVF   FC2,W
03FD6:  ANDLW  C3
03FD8:  IORWF  00,W
03FDA:  MOVWF  FC2
03FDC:  MOVLW  01
03FDE:  MOVWF  x62
03FE0:  MOVLB  0
03FE2:  CALL   2128
03FE6:  BSF    FC2.1
03FE8:  BTFSC  FC2.1
03FEA:  BRA    3FE8
03FEC:  MOVFF  FC4,663
03FF0:  MOVFF  FC3,662
03FF4:  MOVLB  0
03FF6:  CALL   20F2
03FFA:  MOVFF  03,65A
03FFE:  MOVFF  02,659
04002:  MOVFF  01,658
04006:  MOVFF  00,657
0400A:  MOVFF  657,00
0400E:  MOVFF  658,01
04012:  MOVFF  659,02
04016:  MOVFF  65A,03
.................... } 
0401A:  RETLW  00
....................  
.................... float LeerPT100(int8 canal,int media) 
.................... { 
....................    Prom=0.0;  
*
04112:  MOVLB  1
04114:  CLRF   xB1
04116:  CLRF   xB0
04118:  CLRF   xAF
0411A:  CLRF   xAE
....................    Sensor[canal].V0 = sensores(canal);   //Lectura de Divisor de Voltaje de PT100 con resistencia de 6.18k (+-2%) 
0411C:  MOVLB  6
0411E:  CLRF   x5B
04120:  MOVFF  652,65A
04124:  MOVLW  01
04126:  MOVWF  x5D
04128:  MOVLW  64
0412A:  MOVWF  x5C
0412C:  MOVLB  0
0412E:  CALL   21C4
04132:  MOVFF  01,654
04136:  MOVLW  08
04138:  MOVLB  6
0413A:  ADDWF  01,W
0413C:  MOVWF  01
0413E:  MOVLW  00
04140:  ADDWFC 02,W
04142:  MOVWF  03
04144:  MOVF   01,W
04146:  ADDLW  C0
04148:  MOVWF  01
0414A:  MOVLW  02
0414C:  ADDWFC 03,F
0414E:  MOVFF  01,654
04152:  MOVFF  03,655
04156:  MOVFF  652,656
0415A:  MOVLB  0
0415C:  RCALL  3FC4
0415E:  MOVFF  655,FEA
04162:  MOVFF  654,FE9
04166:  MOVFF  00,FEF
0416A:  MOVFF  01,FEC
0416E:  MOVFF  02,FEC
04172:  MOVFF  03,FEC
....................    Sensor[canal].V0 = Sensor[canal].V0/Sensor[canal].Gain; // Se elimina la ganancia 
04176:  MOVLB  6
04178:  CLRF   x5B
0417A:  MOVFF  652,65A
0417E:  MOVLW  01
04180:  MOVWF  x5D
04182:  MOVLW  64
04184:  MOVWF  x5C
04186:  MOVLB  0
04188:  CALL   21C4
0418C:  MOVFF  01,654
04190:  MOVLW  08
04192:  MOVLB  6
04194:  ADDWF  01,W
04196:  MOVWF  01
04198:  MOVLW  00
0419A:  ADDWFC 02,W
0419C:  MOVWF  03
0419E:  MOVF   01,W
041A0:  ADDLW  C0
041A2:  MOVWF  01
041A4:  MOVLW  02
041A6:  ADDWFC 03,F
041A8:  MOVFF  01,654
041AC:  MOVFF  03,655
041B0:  CLRF   x5B
041B2:  MOVFF  652,65A
041B6:  MOVLW  01
041B8:  MOVWF  x5D
041BA:  MOVLW  64
041BC:  MOVWF  x5C
041BE:  MOVLB  0
041C0:  CALL   21C4
041C4:  MOVFF  01,656
041C8:  MOVLW  08
041CA:  MOVLB  6
041CC:  ADDWF  01,W
041CE:  MOVWF  01
041D0:  MOVLW  00
041D2:  ADDWFC 02,W
041D4:  MOVWF  03
041D6:  MOVF   01,W
041D8:  ADDLW  C0
041DA:  MOVWF  FE9
041DC:  MOVLW  02
041DE:  ADDWFC 03,W
041E0:  MOVWF  FEA
041E2:  MOVFF  FEF,656
041E6:  MOVFF  FEC,657
041EA:  MOVFF  FEC,658
041EE:  MOVFF  FEC,659
041F2:  CLRF   x5B
041F4:  MOVFF  652,65A
041F8:  MOVLW  01
041FA:  MOVWF  x5D
041FC:  MOVLW  64
041FE:  MOVWF  x5C
04200:  MOVLB  0
04202:  CALL   21C4
04206:  MOVFF  02,65B
0420A:  MOVFF  01,65A
0420E:  MOVLW  60
04210:  MOVLB  6
04212:  ADDWF  01,W
04214:  MOVWF  01
04216:  MOVLW  01
04218:  ADDWFC 02,W
0421A:  MOVWF  03
0421C:  MOVF   01,W
0421E:  ADDLW  C0
04220:  MOVWF  FE9
04222:  MOVLW  02
04224:  ADDWFC 03,W
04226:  MOVWF  FEA
04228:  MOVFF  FEF,00
0422C:  MOVFF  FEC,01
04230:  MOVFF  FEC,02
04234:  MOVFF  FEC,03
04238:  MOVFF  659,65F
0423C:  MOVFF  658,65E
04240:  MOVFF  657,65D
04244:  MOVFF  656,65C
04248:  MOVFF  03,663
0424C:  MOVFF  02,662
04250:  MOVFF  01,661
04254:  MOVFF  00,660
04258:  MOVLB  0
0425A:  CALL   236E
0425E:  MOVFF  655,FEA
04262:  MOVFF  654,FE9
04266:  MOVFF  00,FEF
0426A:  MOVFF  01,FEC
0426E:  MOVFF  02,FEC
04272:  MOVFF  03,FEC
....................    Sensor[canal].V0 = Sensor[canal].V0+14.96; // Se suma voltaje de divisor fijo 
04276:  MOVLB  6
04278:  CLRF   x5B
0427A:  MOVFF  652,65A
0427E:  MOVLW  01
04280:  MOVWF  x5D
04282:  MOVLW  64
04284:  MOVWF  x5C
04286:  MOVLB  0
04288:  CALL   21C4
0428C:  MOVFF  01,654
04290:  MOVLW  08
04292:  MOVLB  6
04294:  ADDWF  01,W
04296:  MOVWF  01
04298:  MOVLW  00
0429A:  ADDWFC 02,W
0429C:  MOVWF  03
0429E:  MOVF   01,W
042A0:  ADDLW  C0
042A2:  MOVWF  01
042A4:  MOVLW  02
042A6:  ADDWFC 03,F
042A8:  MOVFF  01,654
042AC:  MOVFF  03,655
042B0:  CLRF   x5B
042B2:  MOVFF  652,65A
042B6:  MOVLW  01
042B8:  MOVWF  x5D
042BA:  MOVLW  64
042BC:  MOVWF  x5C
042BE:  MOVLB  0
042C0:  CALL   21C4
042C4:  MOVFF  01,656
042C8:  MOVLW  08
042CA:  MOVLB  6
042CC:  ADDWF  01,W
042CE:  MOVWF  01
042D0:  MOVLW  00
042D2:  ADDWFC 02,W
042D4:  MOVWF  03
042D6:  MOVF   01,W
042D8:  ADDLW  C0
042DA:  MOVWF  FE9
042DC:  MOVLW  02
042DE:  ADDWFC 03,W
042E0:  MOVWF  FEA
042E2:  MOVFF  FEF,656
042E6:  MOVFF  FEC,657
042EA:  MOVFF  FEC,658
042EE:  MOVFF  FEC,659
042F2:  MOVFF  FEA,65B
042F6:  MOVFF  FE9,65A
042FA:  BCF    FD8.1
042FC:  MOVFF  659,665
04300:  MOVFF  658,664
04304:  MOVFF  657,663
04308:  MOVFF  656,662
0430C:  MOVLW  29
0430E:  MOVWF  x69
04310:  MOVLW  5C
04312:  MOVWF  x68
04314:  MOVLW  6F
04316:  MOVWF  x67
04318:  MOVLW  82
0431A:  MOVWF  x66
0431C:  MOVLB  0
0431E:  CALL   250C
04322:  MOVFF  65B,FEA
04326:  MOVFF  65A,FE9
0432A:  MOVFF  655,FEA
0432E:  MOVFF  654,FE9
04332:  MOVFF  00,FEF
04336:  MOVFF  01,FEC
0433A:  MOVFF  02,FEC
0433E:  MOVFF  03,FEC
....................    //Sensor[canal].BN=(Sensor[canal].V0*(R8+R9))+(1023*R9); 
....................    Sensor[canal].Pt = R10/((1023/Sensor[canal].V0)-1); 
04342:  MOVLB  6
04344:  CLRF   x5B
04346:  MOVFF  652,65A
0434A:  MOVLW  01
0434C:  MOVWF  x5D
0434E:  MOVLW  64
04350:  MOVWF  x5C
04352:  MOVLB  0
04354:  CALL   21C4
04358:  MOVFF  01,654
0435C:  MOVLW  0C
0435E:  MOVLB  6
04360:  ADDWF  01,W
04362:  MOVWF  01
04364:  MOVLW  00
04366:  ADDWFC 02,W
04368:  MOVWF  03
0436A:  MOVF   01,W
0436C:  ADDLW  C0
0436E:  MOVWF  01
04370:  MOVLW  02
04372:  ADDWFC 03,F
04374:  MOVFF  01,654
04378:  MOVFF  03,655
0437C:  CLRF   x5B
0437E:  MOVFF  652,65A
04382:  MOVLW  01
04384:  MOVWF  x5D
04386:  MOVLW  64
04388:  MOVWF  x5C
0438A:  MOVLB  0
0438C:  CALL   21C4
04390:  MOVFF  02,657
04394:  MOVFF  01,656
04398:  MOVLW  08
0439A:  MOVLB  6
0439C:  ADDWF  01,W
0439E:  MOVWF  01
043A0:  MOVLW  00
043A2:  ADDWFC 02,W
043A4:  MOVWF  03
043A6:  MOVF   01,W
043A8:  ADDLW  C0
043AA:  MOVWF  FE9
043AC:  MOVLW  02
043AE:  ADDWFC 03,W
043B0:  MOVWF  FEA
043B2:  MOVFF  FEF,00
043B6:  MOVFF  FEC,01
043BA:  MOVFF  FEC,02
043BE:  MOVFF  FEC,03
043C2:  CLRF   x5F
043C4:  MOVLW  C0
043C6:  MOVWF  x5E
043C8:  MOVLW  7F
043CA:  MOVWF  x5D
043CC:  MOVLW  88
043CE:  MOVWF  x5C
043D0:  MOVFF  03,663
043D4:  MOVFF  02,662
043D8:  MOVFF  01,661
043DC:  MOVFF  00,660
043E0:  MOVLB  0
043E2:  CALL   236E
043E6:  MOVFF  00,656
043EA:  MOVFF  01,657
043EE:  MOVFF  02,658
043F2:  MOVFF  03,659
043F6:  MOVFF  FEA,65B
043FA:  MOVFF  FE9,65A
043FE:  BSF    FD8.1
04400:  MOVFF  03,665
04404:  MOVFF  02,664
04408:  MOVFF  01,663
0440C:  MOVFF  00,662
04410:  MOVLB  6
04412:  CLRF   x69
04414:  CLRF   x68
04416:  CLRF   x67
04418:  MOVLW  7F
0441A:  MOVWF  x66
0441C:  MOVLB  0
0441E:  CALL   250C
04422:  MOVFF  65B,FEA
04426:  MOVFF  65A,FE9
0442A:  MOVFF  17A,65F
0442E:  MOVFF  179,65E
04432:  MOVFF  178,65D
04436:  MOVFF  177,65C
0443A:  MOVFF  03,663
0443E:  MOVFF  02,662
04442:  MOVFF  01,661
04446:  MOVFF  00,660
0444A:  CALL   236E
0444E:  MOVFF  655,FEA
04452:  MOVFF  654,FE9
04456:  MOVFF  00,FEF
0445A:  MOVFF  01,FEC
0445E:  MOVFF  02,FEC
04462:  MOVFF  03,FEC
....................    //Sensor[canal].Pt=Sensor[canal].Pt-Sensor[canal].RPT100; //Ajuste de impedancia de cableado de PT100    
....................              
....................    if(Sensor[canal].l>(media-1)) 
04466:  MOVLB  6
04468:  CLRF   x5B
0446A:  MOVFF  652,65A
0446E:  MOVLW  01
04470:  MOVWF  x5D
04472:  MOVLW  64
04474:  MOVWF  x5C
04476:  MOVLB  0
04478:  CALL   21C4
0447C:  MOVFF  02,655
04480:  MOVFF  01,654
04484:  MOVLW  14
04486:  MOVLB  6
04488:  ADDWF  01,W
0448A:  MOVWF  01
0448C:  MOVLW  00
0448E:  ADDWFC 02,W
04490:  MOVWF  03
04492:  MOVF   01,W
04494:  ADDLW  C0
04496:  MOVWF  FE9
04498:  MOVLW  02
0449A:  ADDWFC 03,W
0449C:  MOVWF  FEA
0449E:  MOVFF  FEF,654
044A2:  MOVLW  01
044A4:  SUBWF  x53,W
044A6:  SUBWF  x54,W
044A8:  BZ    44E0
044AA:  BNC   44E0
....................    {Sensor[canal].l=0;} 
044AC:  CLRF   x5B
044AE:  MOVFF  652,65A
044B2:  MOVLW  01
044B4:  MOVWF  x5D
044B6:  MOVLW  64
044B8:  MOVWF  x5C
044BA:  MOVLB  0
044BC:  CALL   21C4
044C0:  MOVFF  01,654
044C4:  MOVLW  14
044C6:  MOVLB  6
044C8:  ADDWF  01,W
044CA:  MOVWF  01
044CC:  MOVLW  00
044CE:  ADDWFC 02,W
044D0:  MOVWF  03
044D2:  MOVF   01,W
044D4:  ADDLW  C0
044D6:  MOVWF  FE9
044D8:  MOVLW  02
044DA:  ADDWFC 03,W
044DC:  MOVWF  FEA
044DE:  CLRF   FEF
....................     
....................    Sensor[canal].promedio[Sensor[canal].l]=Sensor[canal].Pt;Sensor[canal].l++; 
044E0:  CLRF   x5B
044E2:  MOVFF  652,65A
044E6:  MOVLW  01
044E8:  MOVWF  x5D
044EA:  MOVLW  64
044EC:  MOVWF  x5C
044EE:  MOVLB  0
044F0:  CALL   21C4
044F4:  MOVFF  02,655
044F8:  MOVFF  01,654
044FC:  MOVLW  20
044FE:  MOVLB  6
04500:  ADDWF  x54,F
04502:  MOVLW  00
04504:  ADDWFC x55,F
04506:  CLRF   x5B
04508:  MOVFF  652,65A
0450C:  MOVLW  01
0450E:  MOVWF  x5D
04510:  MOVLW  64
04512:  MOVWF  x5C
04514:  MOVLB  0
04516:  CALL   21C4
0451A:  MOVFF  02,657
0451E:  MOVFF  01,656
04522:  MOVLW  14
04524:  MOVLB  6
04526:  ADDWF  01,W
04528:  MOVWF  01
0452A:  MOVLW  00
0452C:  ADDWFC 02,W
0452E:  MOVWF  03
04530:  MOVF   01,W
04532:  ADDLW  C0
04534:  MOVWF  FE9
04536:  MOVLW  02
04538:  ADDWFC 03,W
0453A:  MOVWF  FEA
0453C:  CLRF   x5B
0453E:  MOVFF  FEF,65A
04542:  CLRF   x5D
04544:  MOVLW  04
04546:  MOVWF  x5C
04548:  MOVLB  0
0454A:  CALL   21C4
0454E:  MOVFF  02,03
04552:  MOVF   01,W
04554:  MOVLB  6
04556:  ADDWF  x54,W
04558:  MOVWF  01
0455A:  MOVF   x55,W
0455C:  ADDWFC 03,F
0455E:  MOVF   01,W
04560:  ADDLW  C0
04562:  MOVWF  01
04564:  MOVLW  02
04566:  ADDWFC 03,F
04568:  MOVFF  01,654
0456C:  MOVFF  03,655
04570:  CLRF   x5B
04572:  MOVFF  652,65A
04576:  MOVLW  01
04578:  MOVWF  x5D
0457A:  MOVLW  64
0457C:  MOVWF  x5C
0457E:  MOVLB  0
04580:  CALL   21C4
04584:  MOVFF  02,657
04588:  MOVFF  01,656
0458C:  MOVLW  0C
0458E:  MOVLB  6
04590:  ADDWF  01,W
04592:  MOVWF  01
04594:  MOVLW  00
04596:  ADDWFC 02,W
04598:  MOVWF  03
0459A:  MOVF   01,W
0459C:  ADDLW  C0
0459E:  MOVWF  FE9
045A0:  MOVLW  02
045A2:  ADDWFC 03,W
045A4:  MOVWF  FEA
045A6:  MOVFF  FEF,00
045AA:  MOVFF  FEC,01
045AE:  MOVFF  FEC,02
045B2:  MOVFF  FEC,03
045B6:  MOVFF  655,FEA
045BA:  MOVFF  654,FE9
045BE:  MOVFF  00,FEF
045C2:  MOVFF  01,FEC
045C6:  MOVFF  02,FEC
045CA:  MOVFF  03,FEC
045CE:  CLRF   x5B
045D0:  MOVFF  652,65A
045D4:  MOVLW  01
045D6:  MOVWF  x5D
045D8:  MOVLW  64
045DA:  MOVWF  x5C
045DC:  MOVLB  0
045DE:  CALL   21C4
045E2:  MOVFF  01,654
045E6:  MOVLW  14
045E8:  MOVLB  6
045EA:  ADDWF  01,W
045EC:  MOVWF  01
045EE:  MOVLW  00
045F0:  ADDWFC 02,W
045F2:  MOVWF  03
045F4:  MOVF   01,W
045F6:  ADDLW  C0
045F8:  MOVWF  FE9
045FA:  MOVLW  02
045FC:  ADDWFC 03,W
045FE:  MOVWF  FEA
04600:  INCF   FEF,F
....................           
....................    for(Sensor[canal].h=0;Sensor[canal].h<media;Sensor[canal].h++) 
04602:  CLRF   x5B
04604:  MOVFF  652,65A
04608:  MOVLW  01
0460A:  MOVWF  x5D
0460C:  MOVLW  64
0460E:  MOVWF  x5C
04610:  MOVLB  0
04612:  CALL   21C4
04616:  MOVFF  02,655
0461A:  MOVFF  01,654
0461E:  MOVLW  15
04620:  MOVLB  6
04622:  ADDWF  01,W
04624:  MOVWF  01
04626:  MOVLW  00
04628:  ADDWFC 02,W
0462A:  MOVWF  03
0462C:  MOVF   01,W
0462E:  ADDLW  C0
04630:  MOVWF  FE9
04632:  MOVLW  02
04634:  ADDWFC 03,W
04636:  MOVWF  FEA
04638:  CLRF   FEF
0463A:  CLRF   x5B
0463C:  MOVFF  652,65A
04640:  MOVLW  01
04642:  MOVWF  x5D
04644:  MOVLW  64
04646:  MOVWF  x5C
04648:  MOVLB  0
0464A:  CALL   21C4
0464E:  MOVFF  02,655
04652:  MOVFF  01,654
04656:  MOVLW  15
04658:  MOVLB  6
0465A:  ADDWF  01,W
0465C:  MOVWF  01
0465E:  MOVLW  00
04660:  ADDWFC 02,W
04662:  MOVWF  03
04664:  MOVF   01,W
04666:  ADDLW  C0
04668:  MOVWF  FE9
0466A:  MOVLW  02
0466C:  ADDWFC 03,W
0466E:  MOVWF  FEA
04670:  MOVF   x53,W
04672:  SUBWF  FEF,W
04674:  BTFSC  FD8.0
04676:  BRA    4796
....................    { 
....................       Prom+=Sensor[canal].promedio[Sensor[canal].h]; 
04678:  CLRF   x5B
0467A:  MOVFF  652,65A
0467E:  MOVLW  01
04680:  MOVWF  x5D
04682:  MOVLW  64
04684:  MOVWF  x5C
04686:  MOVLB  0
04688:  CALL   21C4
0468C:  MOVFF  02,655
04690:  MOVFF  01,654
04694:  MOVLW  20
04696:  MOVLB  6
04698:  ADDWF  x54,F
0469A:  MOVLW  00
0469C:  ADDWFC x55,F
0469E:  CLRF   x5B
046A0:  MOVFF  652,65A
046A4:  MOVLW  01
046A6:  MOVWF  x5D
046A8:  MOVLW  64
046AA:  MOVWF  x5C
046AC:  MOVLB  0
046AE:  CALL   21C4
046B2:  MOVFF  02,657
046B6:  MOVFF  01,656
046BA:  MOVLW  15
046BC:  MOVLB  6
046BE:  ADDWF  01,W
046C0:  MOVWF  01
046C2:  MOVLW  00
046C4:  ADDWFC 02,W
046C6:  MOVWF  03
046C8:  MOVF   01,W
046CA:  ADDLW  C0
046CC:  MOVWF  FE9
046CE:  MOVLW  02
046D0:  ADDWFC 03,W
046D2:  MOVWF  FEA
046D4:  CLRF   x5B
046D6:  MOVFF  FEF,65A
046DA:  CLRF   x5D
046DC:  MOVLW  04
046DE:  MOVWF  x5C
046E0:  MOVLB  0
046E2:  CALL   21C4
046E6:  MOVFF  02,03
046EA:  MOVF   01,W
046EC:  MOVLB  6
046EE:  ADDWF  x54,W
046F0:  MOVWF  01
046F2:  MOVF   x55,W
046F4:  ADDWFC 03,F
046F6:  MOVF   01,W
046F8:  ADDLW  C0
046FA:  MOVWF  FE9
046FC:  MOVLW  02
046FE:  ADDWFC 03,W
04700:  MOVWF  FEA
04702:  MOVFF  FEF,00
04706:  MOVFF  FEC,01
0470A:  MOVFF  FEC,02
0470E:  MOVFF  FEC,03
04712:  MOVFF  FEA,655
04716:  MOVFF  FE9,654
0471A:  BCF    FD8.1
0471C:  MOVFF  1B1,665
04720:  MOVFF  1B0,664
04724:  MOVFF  1AF,663
04728:  MOVFF  1AE,662
0472C:  MOVFF  03,669
04730:  MOVFF  02,668
04734:  MOVFF  01,667
04738:  MOVFF  00,666
0473C:  MOVLB  0
0473E:  CALL   250C
04742:  MOVFF  655,FEA
04746:  MOVFF  654,FE9
0474A:  MOVFF  03,1B1
0474E:  MOVFF  02,1B0
04752:  MOVFF  01,1AF
04756:  MOVFF  00,1AE
....................    }  
0475A:  MOVLB  6
0475C:  CLRF   x5B
0475E:  MOVFF  652,65A
04762:  MOVLW  01
04764:  MOVWF  x5D
04766:  MOVLW  64
04768:  MOVWF  x5C
0476A:  MOVLB  0
0476C:  CALL   21C4
04770:  MOVFF  02,655
04774:  MOVFF  01,654
04778:  MOVLW  15
0477A:  MOVLB  6
0477C:  ADDWF  01,W
0477E:  MOVWF  01
04780:  MOVLW  00
04782:  ADDWFC 02,W
04784:  MOVWF  03
04786:  MOVF   01,W
04788:  ADDLW  C0
0478A:  MOVWF  FE9
0478C:  MOVLW  02
0478E:  ADDWFC 03,W
04790:  MOVWF  FEA
04792:  INCF   FEF,F
04794:  BRA    463A
....................    Prom=Prom/media;    
04796:  CLRF   x63
04798:  MOVFF  653,662
0479C:  MOVLB  0
0479E:  CALL   20F2
047A2:  MOVFF  1B1,65F
047A6:  MOVFF  1B0,65E
047AA:  MOVFF  1AF,65D
047AE:  MOVFF  1AE,65C
047B2:  MOVFF  03,663
047B6:  MOVFF  02,662
047BA:  MOVFF  01,661
047BE:  MOVFF  00,660
047C2:  CALL   236E
047C6:  MOVFF  03,1B1
047CA:  MOVFF  02,1B0
047CE:  MOVFF  01,1AF
047D2:  MOVFF  00,1AE
....................    //Temperature=(Prom-100.0)/(0.385);  // Ecuacin determinada por linealizacin en Matlab. Revisar este polinomio.   
....................    Temperature=((Prom*Prom)*a)+(Prom*b)+c;  // Ecuacin determinada por linealizacin en Matlab. Revisar este polinomio. 
047D6:  MOVFF  1B1,669
047DA:  MOVFF  1B0,668
047DE:  MOVFF  1AF,667
047E2:  MOVFF  1AE,666
047E6:  MOVFF  1B1,66D
047EA:  MOVFF  1B0,66C
047EE:  MOVFF  1AF,66B
047F2:  MOVFF  1AE,66A
047F6:  RCALL  401C
047F8:  MOVFF  00,654
047FC:  MOVFF  01,655
04800:  MOVFF  02,656
04804:  MOVFF  03,657
04808:  MOVFF  03,669
0480C:  MOVFF  02,668
04810:  MOVFF  01,667
04814:  MOVFF  00,666
04818:  MOVFF  1E1,66D
0481C:  MOVFF  1E0,66C
04820:  MOVFF  1DF,66B
04824:  MOVFF  1DE,66A
04828:  CALL   401C
0482C:  MOVFF  00,654
04830:  MOVFF  01,655
04834:  MOVFF  02,656
04838:  MOVFF  03,657
0483C:  MOVFF  1B1,669
04840:  MOVFF  1B0,668
04844:  MOVFF  1AF,667
04848:  MOVFF  1AE,666
0484C:  MOVFF  1E5,66D
04850:  MOVFF  1E4,66C
04854:  MOVFF  1E3,66B
04858:  MOVFF  1E2,66A
0485C:  CALL   401C
04860:  BCF    FD8.1
04862:  MOVFF  657,665
04866:  MOVFF  656,664
0486A:  MOVFF  655,663
0486E:  MOVFF  654,662
04872:  MOVFF  03,669
04876:  MOVFF  02,668
0487A:  MOVFF  01,667
0487E:  MOVFF  00,666
04882:  CALL   250C
04886:  MOVFF  00,654
0488A:  MOVFF  01,655
0488E:  MOVFF  02,656
04892:  MOVFF  03,657
04896:  BCF    FD8.1
04898:  MOVFF  03,665
0489C:  MOVFF  02,664
048A0:  MOVFF  01,663
048A4:  MOVFF  00,662
048A8:  MOVFF  1E9,669
048AC:  MOVFF  1E8,668
048B0:  MOVFF  1E7,667
048B4:  MOVFF  1E6,666
048B8:  CALL   250C
048BC:  MOVFF  03,1B5
048C0:  MOVFF  02,1B4
048C4:  MOVFF  01,1B3
048C8:  MOVFF  00,1B2
....................    Temperature+=((float)Sensor[canal].Ajuste-(float)Sensor[canal].Ajusten); 
048CC:  MOVLB  6
048CE:  CLRF   x5B
048D0:  MOVFF  652,65A
048D4:  MOVLW  01
048D6:  MOVWF  x5D
048D8:  MOVLW  64
048DA:  MOVWF  x5C
048DC:  MOVLB  0
048DE:  CALL   21C4
048E2:  MOVFF  02,655
048E6:  MOVFF  01,654
048EA:  MOVLW  1E
048EC:  MOVLB  6
048EE:  ADDWF  01,W
048F0:  MOVWF  01
048F2:  MOVLW  00
048F4:  ADDWFC 02,W
048F6:  MOVWF  03
048F8:  MOVF   01,W
048FA:  ADDLW  C0
048FC:  MOVWF  FE9
048FE:  MOVLW  02
04900:  ADDWFC 03,W
04902:  MOVWF  FEA
04904:  MOVF   FEF,W
04906:  CLRF   x63
04908:  MOVWF  x62
0490A:  MOVLB  0
0490C:  CALL   20F2
04910:  MOVFF  00,654
04914:  MOVFF  01,655
04918:  MOVFF  02,656
0491C:  MOVFF  03,657
04920:  MOVLB  6
04922:  CLRF   x5B
04924:  MOVFF  652,65A
04928:  MOVLW  01
0492A:  MOVWF  x5D
0492C:  MOVLW  64
0492E:  MOVWF  x5C
04930:  MOVLB  0
04932:  CALL   21C4
04936:  MOVFF  02,659
0493A:  MOVFF  01,658
0493E:  MOVLW  1F
04940:  MOVLB  6
04942:  ADDWF  01,W
04944:  MOVWF  01
04946:  MOVLW  00
04948:  ADDWFC 02,W
0494A:  MOVWF  03
0494C:  MOVF   01,W
0494E:  ADDLW  C0
04950:  MOVWF  FE9
04952:  MOVLW  02
04954:  ADDWFC 03,W
04956:  MOVWF  FEA
04958:  MOVF   FEF,W
0495A:  CLRF   x63
0495C:  MOVWF  x62
0495E:  MOVLB  0
04960:  CALL   20F2
04964:  MOVFF  FEA,659
04968:  MOVFF  FE9,658
0496C:  BSF    FD8.1
0496E:  MOVFF  657,665
04972:  MOVFF  656,664
04976:  MOVFF  655,663
0497A:  MOVFF  654,662
0497E:  MOVFF  03,669
04982:  MOVFF  02,668
04986:  MOVFF  01,667
0498A:  MOVFF  00,666
0498E:  CALL   250C
04992:  MOVFF  659,FEA
04996:  MOVFF  658,FE9
0499A:  MOVFF  FEA,655
0499E:  MOVFF  FE9,654
049A2:  BCF    FD8.1
049A4:  MOVFF  1B5,665
049A8:  MOVFF  1B4,664
049AC:  MOVFF  1B3,663
049B0:  MOVFF  1B2,662
049B4:  MOVFF  03,669
049B8:  MOVFF  02,668
049BC:  MOVFF  01,667
049C0:  MOVFF  00,666
049C4:  CALL   250C
049C8:  MOVFF  655,FEA
049CC:  MOVFF  654,FE9
049D0:  MOVFF  03,1B5
049D4:  MOVFF  02,1B4
049D8:  MOVFF  01,1B3
049DC:  MOVFF  00,1B2
....................     
....................    return Temperature; 
049E0:  MOVFF  1B2,00
049E4:  MOVFF  1B3,01
049E8:  MOVFF  1B4,02
049EC:  MOVFF  1B5,03
.................... } 
049F0:  RETLW  00
....................  
.................... float Leer_Sensor_Presion_Camara(int8 media){ 
....................    promediopresion=0.0; 
049F2:  MOVLB  1
049F4:  CLRF   x8E
049F6:  CLRF   x8D
049F8:  CLRF   x8C
049FA:  CLRF   x8B
....................    V1 = sensores(5);   //Lectura de Divisor de Voltaje de PT100 con resistencia de 1k (+-10%) 
049FC:  MOVLW  05
049FE:  MOVLB  6
04A00:  MOVWF  x56
04A02:  MOVLB  0
04A04:  CALL   3FC4
04A08:  MOVFF  03,1C9
04A0C:  MOVFF  02,1C8
04A10:  MOVFF  01,1C7
04A14:  MOVFF  00,1C6
....................    //V1 = V1*(5.0/1024.0); 
....................    //Presion=(V1-0.2)/(K); 
....................    Presion=(((V1)/1023)-0.04)/K; 
04A18:  MOVFF  1C9,65F
04A1C:  MOVFF  1C8,65E
04A20:  MOVFF  1C7,65D
04A24:  MOVFF  1C6,65C
04A28:  MOVLB  6
04A2A:  CLRF   x63
04A2C:  MOVLW  C0
04A2E:  MOVWF  x62
04A30:  MOVLW  7F
04A32:  MOVWF  x61
04A34:  MOVLW  88
04A36:  MOVWF  x60
04A38:  MOVLB  0
04A3A:  CALL   236E
04A3E:  MOVFF  00,653
04A42:  MOVFF  01,654
04A46:  MOVFF  02,655
04A4A:  MOVFF  03,656
04A4E:  BSF    FD8.1
04A50:  MOVFF  03,665
04A54:  MOVFF  02,664
04A58:  MOVFF  01,663
04A5C:  MOVFF  00,662
04A60:  MOVLW  0A
04A62:  MOVLB  6
04A64:  MOVWF  x69
04A66:  MOVLW  D7
04A68:  MOVWF  x68
04A6A:  MOVLW  23
04A6C:  MOVWF  x67
04A6E:  MOVLW  7A
04A70:  MOVWF  x66
04A72:  MOVLB  0
04A74:  CALL   250C
04A78:  MOVFF  00,653
04A7C:  MOVFF  01,654
04A80:  MOVFF  02,655
04A84:  MOVFF  03,656
04A88:  MOVFF  03,65F
04A8C:  MOVFF  02,65E
04A90:  MOVFF  01,65D
04A94:  MOVFF  00,65C
04A98:  MOVFF  176,663
04A9C:  MOVFF  175,662
04AA0:  MOVFF  174,661
04AA4:  MOVFF  173,660
04AA8:  CALL   236E
04AAC:  MOVFF  03,1CD
04AB0:  MOVFF  02,1CC
04AB4:  MOVFF  01,1CB
04AB8:  MOVFF  00,1CA
....................     
....................    if(Presion<0.0) 
04ABC:  MOVFF  1CD,657
04AC0:  MOVFF  1CC,656
04AC4:  MOVFF  1CB,655
04AC8:  MOVFF  1CA,654
04ACC:  MOVLB  6
04ACE:  CLRF   x5B
04AD0:  CLRF   x5A
04AD2:  CLRF   x59
04AD4:  CLRF   x58
04AD6:  MOVLB  0
04AD8:  CALL   2784
04ADC:  BNC   4AE8
....................       Presion=0.0; 
04ADE:  MOVLB  1
04AE0:  CLRF   xCD
04AE2:  CLRF   xCC
04AE4:  CLRF   xCB
04AE6:  CLRF   xCA
....................     
....................    if(r>media-1) 
04AE8:  MOVLW  01
04AEA:  MOVLB  6
04AEC:  SUBWF  x52,W
04AEE:  MOVLB  2
04AF0:  SUBWF  x27,W
04AF2:  BZ    4AF8
04AF4:  BNC   4AF8
....................       r=0; 
04AF6:  CLRF   x27
....................    PromPresion[r]=Presion;r++; 
04AF8:  MOVF   x27,W
04AFA:  MULLW  04
04AFC:  MOVF   FF3,W
04AFE:  CLRF   03
04B00:  ADDLW  C7
04B02:  MOVWF  FE9
04B04:  MOVLW  00
04B06:  ADDWFC 03,W
04B08:  MOVWF  FEA
04B0A:  MOVFF  1CA,FEF
04B0E:  MOVFF  1CB,FEC
04B12:  MOVFF  1CC,FEC
04B16:  MOVFF  1CD,FEC
04B1A:  INCF   x27,F
....................           
....................    for(t=0;t<=(media-1);t++) 
04B1C:  CLRF   x28
04B1E:  MOVLW  01
04B20:  MOVLB  6
04B22:  SUBWF  x52,W
04B24:  MOVLB  2
04B26:  SUBWF  x28,W
04B28:  BZ    4B2C
04B2A:  BC    4B9C
....................       promediopresion+=PromPresion[t]; 
04B2C:  MOVF   x28,W
04B2E:  MULLW  04
04B30:  MOVF   FF3,W
04B32:  CLRF   03
04B34:  ADDLW  C7
04B36:  MOVWF  FE9
04B38:  MOVLW  00
04B3A:  ADDWFC 03,W
04B3C:  MOVWF  FEA
04B3E:  MOVFF  FEF,00
04B42:  MOVFF  FEC,01
04B46:  MOVFF  FEC,02
04B4A:  MOVFF  FEC,03
04B4E:  MOVFF  FEA,654
04B52:  MOVFF  FE9,653
04B56:  BCF    FD8.1
04B58:  MOVFF  18E,665
04B5C:  MOVFF  18D,664
04B60:  MOVFF  18C,663
04B64:  MOVFF  18B,662
04B68:  MOVFF  03,669
04B6C:  MOVFF  02,668
04B70:  MOVFF  01,667
04B74:  MOVFF  00,666
04B78:  MOVLB  0
04B7A:  CALL   250C
04B7E:  MOVFF  654,FEA
04B82:  MOVFF  653,FE9
04B86:  MOVFF  03,18E
04B8A:  MOVFF  02,18D
04B8E:  MOVFF  01,18C
04B92:  MOVFF  00,18B
04B96:  MOVLB  2
04B98:  INCF   x28,F
04B9A:  BRA    4B1E
....................      
....................    promediopresion=promediopresion/media;    
04B9C:  MOVLB  6
04B9E:  CLRF   x63
04BA0:  MOVFF  652,662
04BA4:  MOVLB  0
04BA6:  CALL   20F2
04BAA:  MOVFF  18E,65F
04BAE:  MOVFF  18D,65E
04BB2:  MOVFF  18C,65D
04BB6:  MOVFF  18B,65C
04BBA:  MOVFF  03,663
04BBE:  MOVFF  02,662
04BC2:  MOVFF  01,661
04BC6:  MOVFF  00,660
04BCA:  CALL   236E
04BCE:  MOVFF  03,18E
04BD2:  MOVFF  02,18D
04BD6:  MOVFF  01,18C
04BDA:  MOVFF  00,18B
....................     
....................    return promediopresion; 
04BDE:  MOVFF  18B,00
04BE2:  MOVFF  18C,01
04BE6:  MOVFF  18D,02
04BEA:  MOVFF  18E,03
.................... } 
04BEE:  RETLW  00
....................  
.................... float Leer_Sensor_Presion_PreCamara(int8 media){ 
....................    promediopresionp=0.0; 
*
04C2C:  MOVLB  1
04C2E:  CLRF   x92
04C30:  CLRF   x91
04C32:  CLRF   x90
04C34:  CLRF   x8F
....................    V2 = sensores(4);   //Lectura de Divisor de Voltaje de PT100 con resistencia de 1k (+-10%) 
04C36:  MOVLW  04
04C38:  MOVLB  6
04C3A:  MOVWF  x56
04C3C:  MOVLB  0
04C3E:  CALL   3FC4
04C42:  MOVFF  03,1D1
04C46:  MOVFF  02,1D0
04C4A:  MOVFF  01,1CF
04C4E:  MOVFF  00,1CE
....................    //V2 = V2*(5.0/1024.0); 
....................    //Presionp=(V2-0.2)/(K); 
....................    Presionp=(((V2)/1023)-0.04)/K; 
04C52:  MOVFF  1D1,65F
04C56:  MOVFF  1D0,65E
04C5A:  MOVFF  1CF,65D
04C5E:  MOVFF  1CE,65C
04C62:  MOVLB  6
04C64:  CLRF   x63
04C66:  MOVLW  C0
04C68:  MOVWF  x62
04C6A:  MOVLW  7F
04C6C:  MOVWF  x61
04C6E:  MOVLW  88
04C70:  MOVWF  x60
04C72:  MOVLB  0
04C74:  CALL   236E
04C78:  MOVFF  00,653
04C7C:  MOVFF  01,654
04C80:  MOVFF  02,655
04C84:  MOVFF  03,656
04C88:  BSF    FD8.1
04C8A:  MOVFF  03,665
04C8E:  MOVFF  02,664
04C92:  MOVFF  01,663
04C96:  MOVFF  00,662
04C9A:  MOVLW  0A
04C9C:  MOVLB  6
04C9E:  MOVWF  x69
04CA0:  MOVLW  D7
04CA2:  MOVWF  x68
04CA4:  MOVLW  23
04CA6:  MOVWF  x67
04CA8:  MOVLW  7A
04CAA:  MOVWF  x66
04CAC:  MOVLB  0
04CAE:  CALL   250C
04CB2:  MOVFF  00,653
04CB6:  MOVFF  01,654
04CBA:  MOVFF  02,655
04CBE:  MOVFF  03,656
04CC2:  MOVFF  03,65F
04CC6:  MOVFF  02,65E
04CCA:  MOVFF  01,65D
04CCE:  MOVFF  00,65C
04CD2:  MOVFF  176,663
04CD6:  MOVFF  175,662
04CDA:  MOVFF  174,661
04CDE:  MOVFF  173,660
04CE2:  CALL   236E
04CE6:  MOVFF  03,1D5
04CEA:  MOVFF  02,1D4
04CEE:  MOVFF  01,1D3
04CF2:  MOVFF  00,1D2
....................     
....................    if(Presionp<0.0) 
04CF6:  MOVFF  1D5,657
04CFA:  MOVFF  1D4,656
04CFE:  MOVFF  1D3,655
04D02:  MOVFF  1D2,654
04D06:  MOVLB  6
04D08:  CLRF   x5B
04D0A:  CLRF   x5A
04D0C:  CLRF   x59
04D0E:  CLRF   x58
04D10:  MOVLB  0
04D12:  CALL   2784
04D16:  BNC   4D22
....................       Presionp=0.0; 
04D18:  MOVLB  1
04D1A:  CLRF   xD5
04D1C:  CLRF   xD4
04D1E:  CLRF   xD3
04D20:  CLRF   xD2
....................     
....................    if(r22>media-1) 
04D22:  MOVLW  01
04D24:  MOVLB  6
04D26:  SUBWF  x52,W
04D28:  MOVLB  2
04D2A:  SUBWF  x29,W
04D2C:  BZ    4D32
04D2E:  BNC   4D32
....................       r22=0; 
04D30:  CLRF   x29
....................    PromPresionp[r22]=Presionp;r22++; 
04D32:  MOVF   x29,W
04D34:  MULLW  04
04D36:  MOVF   FF3,W
04D38:  CLRF   03
04D3A:  ADDLW  17
04D3C:  MOVWF  FE9
04D3E:  MOVLW  01
04D40:  ADDWFC 03,W
04D42:  MOVWF  FEA
04D44:  MOVFF  1D2,FEF
04D48:  MOVFF  1D3,FEC
04D4C:  MOVFF  1D4,FEC
04D50:  MOVFF  1D5,FEC
04D54:  INCF   x29,F
....................           
....................    for(t2=0;t2<=(media-1);t2++) 
04D56:  CLRF   x2A
04D58:  MOVLW  01
04D5A:  MOVLB  6
04D5C:  SUBWF  x52,W
04D5E:  MOVLB  2
04D60:  SUBWF  x2A,W
04D62:  BZ    4D66
04D64:  BC    4DD6
....................       promediopresionp+=PromPresionp[t2];  
04D66:  MOVF   x2A,W
04D68:  MULLW  04
04D6A:  MOVF   FF3,W
04D6C:  CLRF   03
04D6E:  ADDLW  17
04D70:  MOVWF  FE9
04D72:  MOVLW  01
04D74:  ADDWFC 03,W
04D76:  MOVWF  FEA
04D78:  MOVFF  FEF,00
04D7C:  MOVFF  FEC,01
04D80:  MOVFF  FEC,02
04D84:  MOVFF  FEC,03
04D88:  MOVFF  FEA,654
04D8C:  MOVFF  FE9,653
04D90:  BCF    FD8.1
04D92:  MOVFF  192,665
04D96:  MOVFF  191,664
04D9A:  MOVFF  190,663
04D9E:  MOVFF  18F,662
04DA2:  MOVFF  03,669
04DA6:  MOVFF  02,668
04DAA:  MOVFF  01,667
04DAE:  MOVFF  00,666
04DB2:  MOVLB  0
04DB4:  CALL   250C
04DB8:  MOVFF  654,FEA
04DBC:  MOVFF  653,FE9
04DC0:  MOVFF  03,192
04DC4:  MOVFF  02,191
04DC8:  MOVFF  01,190
04DCC:  MOVFF  00,18F
04DD0:  MOVLB  2
04DD2:  INCF   x2A,F
04DD4:  BRA    4D58
....................        
....................    promediopresionp=promediopresionp/media;    
04DD6:  MOVLB  6
04DD8:  CLRF   x63
04DDA:  MOVFF  652,662
04DDE:  MOVLB  0
04DE0:  CALL   20F2
04DE4:  MOVFF  192,65F
04DE8:  MOVFF  191,65E
04DEC:  MOVFF  190,65D
04DF0:  MOVFF  18F,65C
04DF4:  MOVFF  03,663
04DF8:  MOVFF  02,662
04DFC:  MOVFF  01,661
04E00:  MOVFF  00,660
04E04:  CALL   236E
04E08:  MOVFF  03,192
04E0C:  MOVFF  02,191
04E10:  MOVFF  01,190
04E14:  MOVFF  00,18F
....................     
....................    return promediopresionp; 
04E18:  MOVFF  18F,00
04E1C:  MOVFF  190,01
04E20:  MOVFF  191,02
04E24:  MOVFF  192,03
.................... } 
04E28:  RETLW  00
....................  
.................... void Controla(){ 
....................    if(tiemporecta>=Derivativo/2.0){ 
*
06EE0:  MOVLB  6
06EE2:  CLRF   x63
06EE4:  MOVFF  1EB,662
06EE8:  MOVLB  0
06EEA:  CALL   20F2
06EEE:  MOVFF  03,65F
06EF2:  MOVFF  02,65E
06EF6:  MOVFF  01,65D
06EFA:  MOVFF  00,65C
06EFE:  MOVLB  6
06F00:  CLRF   x63
06F02:  CLRF   x62
06F04:  CLRF   x61
06F06:  MOVLW  80
06F08:  MOVWF  x60
06F0A:  MOVLB  0
06F0C:  CALL   236E
06F10:  MOVFF  00,650
06F14:  MOVFF  01,651
06F18:  MOVFF  02,652
06F1C:  MOVFF  03,653
06F20:  MOVLB  6
06F22:  CLRF   x63
06F24:  MOVFF  1EF,662
06F28:  MOVLB  0
06F2A:  CALL   20F2
06F2E:  MOVFF  653,657
06F32:  MOVFF  652,656
06F36:  MOVFF  651,655
06F3A:  MOVFF  650,654
06F3E:  MOVFF  03,65B
06F42:  MOVFF  02,65A
06F46:  MOVFF  01,659
06F4A:  MOVFF  00,658
06F4E:  CALL   2784
06F52:  BC    6F56
06F54:  BNZ   6F5C
....................       ActualizaRecta(); 
06F56:  BRA    6E72
....................       tiemporecta=0; 
06F58:  MOVLB  1
06F5A:  CLRF   xEF
....................    }  
.................... //-------------------------------Control de Calentamiento------------------------------------------------------------//          
....................    error=desvio+Setpoint-Temperatura;      // Clculo del error ****** 
06F5C:  MOVLB  6
06F5E:  CLRF   x63
06F60:  MOVFF  202,662
06F64:  MOVLB  0
06F66:  CALL   20F2
06F6A:  BCF    FD8.1
06F6C:  MOVFF  1C5,665
06F70:  MOVFF  1C4,664
06F74:  MOVFF  1C3,663
06F78:  MOVFF  1C2,662
06F7C:  MOVFF  03,669
06F80:  MOVFF  02,668
06F84:  MOVFF  01,667
06F88:  MOVFF  00,666
06F8C:  CALL   250C
06F90:  MOVFF  00,650
06F94:  MOVFF  01,651
06F98:  MOVFF  02,652
06F9C:  MOVFF  03,653
06FA0:  BSF    FD8.1
06FA2:  MOVFF  03,665
06FA6:  MOVFF  02,664
06FAA:  MOVFF  01,663
06FAE:  MOVFF  00,662
06FB2:  MOVFF  1D9,669
06FB6:  MOVFF  1D8,668
06FBA:  MOVFF  1D7,667
06FBE:  MOVFF  1D6,666
06FC2:  CALL   250C
06FC6:  MOVFF  03,1AD
06FCA:  MOVFF  02,1AC
06FCE:  MOVFF  01,1AB
06FD2:  MOVFF  00,1AA
....................     
....................    if(error>1.0 && error<30 && Aumento<0.3){ 
06FD6:  MOVLB  6
06FD8:  CLRF   x57
06FDA:  CLRF   x56
06FDC:  CLRF   x55
06FDE:  MOVLW  7F
06FE0:  MOVWF  x54
06FE2:  MOVFF  1AD,65B
06FE6:  MOVFF  1AC,65A
06FEA:  MOVFF  1AB,659
06FEE:  MOVFF  1AA,658
06FF2:  MOVLB  0
06FF4:  CALL   2784
06FF8:  BTFSS  FD8.0
06FFA:  BRA    71E4
06FFC:  MOVFF  1AD,657
07000:  MOVFF  1AC,656
07004:  MOVFF  1AB,655
07008:  MOVFF  1AA,654
0700C:  MOVLB  6
0700E:  CLRF   x5B
07010:  CLRF   x5A
07012:  MOVLW  70
07014:  MOVWF  x59
07016:  MOVLW  83
07018:  MOVWF  x58
0701A:  MOVLB  0
0701C:  CALL   2784
07020:  BTFSS  FD8.0
07022:  BRA    71E4
07024:  MOVFF  16E,657
07028:  MOVFF  16D,656
0702C:  MOVFF  16C,655
07030:  MOVFF  16B,654
07034:  MOVLW  9A
07036:  MOVLB  6
07038:  MOVWF  x5B
0703A:  MOVLW  99
0703C:  MOVWF  x5A
0703E:  MOVLW  19
07040:  MOVWF  x59
07042:  MOVLW  7D
07044:  MOVWF  x58
07046:  MOVLB  0
07048:  CALL   2784
0704C:  BTFSS  FD8.0
0704E:  BRA    71E4
....................       if(Tpulso<7.0){ 
07050:  MOVFF  1A9,657
07054:  MOVFF  1A8,656
07058:  MOVFF  1A7,655
0705C:  MOVFF  1A6,654
07060:  MOVLB  6
07062:  CLRF   x5B
07064:  CLRF   x5A
07066:  MOVLW  60
07068:  MOVWF  x59
0706A:  MOVLW  81
0706C:  MOVWF  x58
0706E:  MOVLB  0
07070:  CALL   2784
07074:  BTFSS  FD8.0
07076:  BRA    71DE
....................          flagTC=1; 
07078:  MOVLB  1
0707A:  BSF    xED.2
....................          if(TiempoControl>=Derivativo){ 
0707C:  MOVLB  2
0707E:  MOVF   x37,F
07080:  BNZ   708E
07082:  MOVLB  1
07084:  MOVF   xEB,W
07086:  MOVLB  2
07088:  SUBWF  x36,W
0708A:  BTFSS  FD8.0
0708C:  BRA    71DA
....................             TiempoControl=0; 
0708E:  CLRF   x37
07090:  CLRF   x36
....................             if(Aumento<-0.5){ 
07092:  MOVFF  16E,657
07096:  MOVFF  16D,656
0709A:  MOVFF  16C,655
0709E:  MOVFF  16B,654
070A2:  MOVLB  6
070A4:  CLRF   x5B
070A6:  CLRF   x5A
070A8:  MOVLW  80
070AA:  MOVWF  x59
070AC:  MOVLW  7E
070AE:  MOVWF  x58
070B0:  MOVLB  0
070B2:  CALL   2784
070B6:  BNC   7102
....................                Ganancia+=Integral+1; 
070B8:  MOVLW  01
070BA:  MOVLB  1
070BC:  ADDWF  xEA,W
070BE:  MOVLB  6
070C0:  CLRF   x63
070C2:  MOVWF  x62
070C4:  MOVLB  0
070C6:  CALL   20F2
070CA:  BCF    FD8.1
070CC:  MOVFF  1BD,665
070D0:  MOVFF  1BC,664
070D4:  MOVFF  1BB,663
070D8:  MOVFF  1BA,662
070DC:  MOVFF  03,669
070E0:  MOVFF  02,668
070E4:  MOVFF  01,667
070E8:  MOVFF  00,666
070EC:  CALL   250C
070F0:  MOVFF  03,1BD
070F4:  MOVFF  02,1BC
070F8:  MOVFF  01,1BB
070FC:  MOVFF  00,1BA
....................             }else{ 
07100:  BRA    71D8
....................                if(Aumento<-0.1){ 
07102:  MOVFF  16E,657
07106:  MOVFF  16D,656
0710A:  MOVFF  16C,655
0710E:  MOVFF  16B,654
07112:  MOVLW  CD
07114:  MOVLB  6
07116:  MOVWF  x5B
07118:  MOVLW  CC
0711A:  MOVWF  x5A
0711C:  MOVWF  x59
0711E:  MOVLW  7B
07120:  MOVWF  x58
07122:  MOVLB  0
07124:  CALL   2784
07128:  BNC   7194
....................                   Ganancia+=Integral+0.5; 
0712A:  MOVLB  6
0712C:  CLRF   x63
0712E:  MOVFF  1EA,662
07132:  MOVLB  0
07134:  CALL   20F2
07138:  BCF    FD8.1
0713A:  MOVFF  03,665
0713E:  MOVFF  02,664
07142:  MOVFF  01,663
07146:  MOVFF  00,662
0714A:  MOVLB  6
0714C:  CLRF   x69
0714E:  CLRF   x68
07150:  CLRF   x67
07152:  MOVLW  7E
07154:  MOVWF  x66
07156:  MOVLB  0
07158:  CALL   250C
0715C:  BCF    FD8.1
0715E:  MOVFF  1BD,665
07162:  MOVFF  1BC,664
07166:  MOVFF  1BB,663
0716A:  MOVFF  1BA,662
0716E:  MOVFF  03,669
07172:  MOVFF  02,668
07176:  MOVFF  01,667
0717A:  MOVFF  00,666
0717E:  CALL   250C
07182:  MOVFF  03,1BD
07186:  MOVFF  02,1BC
0718A:  MOVFF  01,1BB
0718E:  MOVFF  00,1BA
....................                }else{ 
07192:  BRA    71D8
....................                   Ganancia+=Integral; 
07194:  MOVLB  6
07196:  CLRF   x63
07198:  MOVFF  1EA,662
0719C:  MOVLB  0
0719E:  CALL   20F2
071A2:  BCF    FD8.1
071A4:  MOVFF  1BD,665
071A8:  MOVFF  1BC,664
071AC:  MOVFF  1BB,663
071B0:  MOVFF  1BA,662
071B4:  MOVFF  03,669
071B8:  MOVFF  02,668
071BC:  MOVFF  01,667
071C0:  MOVFF  00,666
071C4:  CALL   250C
071C8:  MOVFF  03,1BD
071CC:  MOVFF  02,1BC
071D0:  MOVFF  01,1BB
071D4:  MOVFF  00,1BA
071D8:  MOVLB  2
....................                } 
....................             } 
....................          } 
....................       }else{ 
071DA:  BRA    71E4
071DC:  MOVLB  0
....................          flagTC=0; 
071DE:  MOVLB  1
071E0:  BCF    xED.2
071E2:  MOVLB  2
....................       } 
....................    } 
....................     
....................    if(error<-0.3) 
071E4:  MOVFF  1AD,657
071E8:  MOVFF  1AC,656
071EC:  MOVFF  1AB,655
071F0:  MOVFF  1AA,654
071F4:  MOVLW  9A
071F6:  MOVLB  6
071F8:  MOVWF  x5B
071FA:  MOVLW  99
071FC:  MOVWF  x5A
071FE:  MOVWF  x59
07200:  MOVLW  7D
07202:  MOVWF  x58
07204:  MOVLB  0
07206:  CALL   2784
0720A:  BNC   721C
....................       Ganancia=Ganancia2; 
0720C:  MOVFF  1C1,1BD
07210:  MOVFF  1C0,1BC
07214:  MOVFF  1BF,1BB
07218:  MOVFF  1BE,1BA
....................     
....................    if(Ganancia<1) 
0721C:  MOVFF  1BD,657
07220:  MOVFF  1BC,656
07224:  MOVFF  1BB,655
07228:  MOVFF  1BA,654
0722C:  MOVLB  6
0722E:  CLRF   x5B
07230:  CLRF   x5A
07232:  CLRF   x59
07234:  MOVLW  7F
07236:  MOVWF  x58
07238:  MOVLB  0
0723A:  CALL   2784
0723E:  BNC   724C
....................       Ganancia=1; 
07240:  MOVLB  1
07242:  CLRF   xBD
07244:  CLRF   xBC
07246:  CLRF   xBB
07248:  MOVLW  7F
0724A:  MOVWF  xBA
....................     
....................    if(error<0.0)     // Anti Wind_DOWN     
0724C:  MOVFF  1AD,657
07250:  MOVFF  1AC,656
07254:  MOVFF  1AB,655
07258:  MOVFF  1AA,654
0725C:  MOVLB  6
0725E:  CLRF   x5B
07260:  CLRF   x5A
07262:  CLRF   x59
07264:  CLRF   x58
07266:  MOVLB  0
07268:  CALL   2784
0726C:  BNC   727A
....................       error=0.0; 
0726E:  MOVLB  1
07270:  CLRF   xAD
07272:  CLRF   xAC
07274:  CLRF   xAB
07276:  CLRF   xAA
07278:  MOVLB  0
....................    //tmp=(Setpoint-Prom)*Ganancia;  // Control Proporcional. 
....................    tmp=error*Ganancia;  // Control Proporcional. 
0727A:  MOVFF  1AD,669
0727E:  MOVFF  1AC,668
07282:  MOVFF  1AB,667
07286:  MOVFF  1AA,666
0728A:  MOVFF  1BD,66D
0728E:  MOVFF  1BC,66C
07292:  MOVFF  1BB,66B
07296:  MOVFF  1BA,66A
0729A:  CALL   401C
0729E:  MOVFF  03,1B9
072A2:  MOVFF  02,1B8
072A6:  MOVFF  01,1B7
072AA:  MOVFF  00,1B6
....................           
....................    if(tmp>Setpoint)   // Anti Wind-UP       
072AE:  MOVLB  6
072B0:  CLRF   x63
072B2:  MOVFF  202,662
072B6:  MOVLB  0
072B8:  CALL   20F2
072BC:  MOVFF  03,657
072C0:  MOVFF  02,656
072C4:  MOVFF  01,655
072C8:  MOVFF  00,654
072CC:  MOVFF  1B9,65B
072D0:  MOVFF  1B8,65A
072D4:  MOVFF  1B7,659
072D8:  MOVFF  1B6,658
072DC:  CALL   2784
072E0:  BNC   7300
....................       tmp=Setpoint; 
072E2:  MOVLB  6
072E4:  CLRF   x63
072E6:  MOVFF  202,662
072EA:  MOVLB  0
072EC:  CALL   20F2
072F0:  MOVFF  03,1B9
072F4:  MOVFF  02,1B8
072F8:  MOVFF  01,1B7
072FC:  MOVFF  00,1B6
....................                 
....................    if(tmp<0.0)     // Anti Wind_DOWN     
07300:  MOVFF  1B9,657
07304:  MOVFF  1B8,656
07308:  MOVFF  1B7,655
0730C:  MOVFF  1B6,654
07310:  MOVLB  6
07312:  CLRF   x5B
07314:  CLRF   x5A
07316:  CLRF   x59
07318:  CLRF   x58
0731A:  MOVLB  0
0731C:  CALL   2784
07320:  BNC   732C
....................       tmp=0.0; 
07322:  MOVLB  1
07324:  CLRF   xB9
07326:  CLRF   xB8
07328:  CLRF   xB7
0732A:  CLRF   xB6
....................     
....................    // Tpulso(t)= Tciclo*(y(t)-ymin)/(ymax - ymin); calculo de ciclo util para control de resistencia.ymax=140.ymin=0; 
....................    // Tpulso es float, hay que pasar ese ciclo a una salida de un puerto usando el TMR1. 
....................    tmp2=(tmp/Setpoint); 
0732C:  MOVLB  6
0732E:  CLRF   x63
07330:  MOVFF  202,662
07334:  MOVLB  0
07336:  CALL   20F2
0733A:  MOVFF  1B9,65F
0733E:  MOVFF  1B8,65E
07342:  MOVFF  1B7,65D
07346:  MOVFF  1B6,65C
0734A:  MOVFF  03,663
0734E:  MOVFF  02,662
07352:  MOVFF  01,661
07356:  MOVFF  00,660
0735A:  CALL   236E
0735E:  MOVFF  03,172
07362:  MOVFF  02,171
07366:  MOVFF  01,170
0736A:  MOVFF  00,16F
....................    //if(tmp2>0.8) 
....................    //tmp2=0.8; 
....................    Tpulso=tmp2*Tciclo;   
0736E:  MOVFF  172,669
07372:  MOVFF  171,668
07376:  MOVFF  170,667
0737A:  MOVFF  16F,666
0737E:  MOVFF  1A5,66D
07382:  MOVFF  1A4,66C
07386:  MOVFF  1A3,66B
0738A:  MOVFF  1A2,66A
0738E:  CALL   401C
07392:  MOVFF  03,1A9
07396:  MOVFF  02,1A8
0739A:  MOVFF  01,1A7
0739E:  MOVFF  00,1A6
....................                                        
....................    Tp=(Tpulso/0.005); 
073A2:  MOVFF  1A9,65F
073A6:  MOVFF  1A8,65E
073AA:  MOVFF  1A7,65D
073AE:  MOVFF  1A6,65C
073B2:  MOVLW  0A
073B4:  MOVLB  6
073B6:  MOVWF  x63
073B8:  MOVLW  D7
073BA:  MOVWF  x62
073BC:  MOVLW  23
073BE:  MOVWF  x61
073C0:  MOVLW  77
073C2:  MOVWF  x60
073C4:  MOVLB  0
073C6:  CALL   236E
073CA:  MOVFF  03,665
073CE:  MOVFF  02,664
073D2:  MOVFF  01,663
073D6:  MOVFF  00,662
073DA:  CALL   4BF0
073DE:  MOVFF  02,B2
073E2:  MOVFF  01,B1
....................    Tc=(Tciclo/0.005); 
073E6:  MOVFF  1A5,65F
073EA:  MOVFF  1A4,65E
073EE:  MOVFF  1A3,65D
073F2:  MOVFF  1A2,65C
073F6:  MOVLW  0A
073F8:  MOVLB  6
073FA:  MOVWF  x63
073FC:  MOVLW  D7
073FE:  MOVWF  x62
07400:  MOVLW  23
07402:  MOVWF  x61
07404:  MOVLW  77
07406:  MOVWF  x60
07408:  MOVLB  0
0740A:  CALL   236E
0740E:  MOVFF  03,665
07412:  MOVFF  02,664
07416:  MOVFF  01,663
0741A:  MOVFF  00,662
0741E:  CALL   4BF0
07422:  MOVFF  02,B4
07426:  MOVFF  01,B3
....................    Controlando=1;    
0742A:  MOVLW  01
0742C:  MOVLB  1
0742E:  MOVWF  xF0
.................... //--------------------------------------------------------------------------------------------------------------------//    
.................... } 
07430:  MOVLB  0
07432:  RETLW  00
....................  
.................... void Envio_I2C(direccion, posicion, dato){ 
....................  
....................    i2c_start();            // Comienzo comunicacin 
....................    i2c_write(direccion);   // Direccin del esclavo en el bus I2C 
....................    i2c_write(posicion);    // Posicin donde se guardara el dato transmitido 
....................    i2c_write(dato);        // Dato a transmitir 
....................    i2c_stop();             // Fin comunicacin 
....................  } 
....................  
.................... void Lectura_I2C (byte direccion, byte posicion, byte &dato) { 
....................  
....................    i2c_start();            // Comienzo de la comunicacin 
....................    i2c_write(direccion);   // Direccin del esclavo en el bus I2C 
....................    i2c_write(posicion);    // Posicin de donde se leer el dato en el esclavo 
....................    i2c_start();            // Reinicio 
....................    i2c_write(direccion+1); // Direccin del esclavo en modo lectura 
....................    dato=i2c_read(0);       // Lectura del dato 
....................    i2c_stop();             // Fin comunicacin 
.................... } 
....................  
.................... void Carga_Vector(void){ 
....................    SlaveA0Tx[0]=(int8)Temperatura; 
*
050FA:  MOVFF  1D9,665
050FE:  MOVFF  1D8,664
05102:  MOVFF  1D7,663
05106:  MOVFF  1D6,662
0510A:  RCALL  4BF0
0510C:  MOVFF  01,67
....................    SlaveA0Tx[1]=(Temperatura-((int8)Temperatura))*10; 
05110:  MOVFF  1D9,665
05114:  MOVFF  1D8,664
05118:  MOVFF  1D7,663
0511C:  MOVFF  1D6,662
05120:  RCALL  4BF0
05122:  MOVLB  6
05124:  CLRF   x63
05126:  MOVFF  01,662
0512A:  MOVLB  0
0512C:  CALL   20F2
05130:  BSF    FD8.1
05132:  MOVFF  1D9,665
05136:  MOVFF  1D8,664
0513A:  MOVFF  1D7,663
0513E:  MOVFF  1D6,662
05142:  MOVFF  03,669
05146:  MOVFF  02,668
0514A:  MOVFF  01,667
0514E:  MOVFF  00,666
05152:  CALL   250C
05156:  MOVFF  00,662
0515A:  MOVFF  01,663
0515E:  MOVFF  02,664
05162:  MOVFF  03,665
05166:  MOVFF  03,669
0516A:  MOVFF  02,668
0516E:  MOVFF  01,667
05172:  MOVFF  00,666
05176:  MOVLB  6
05178:  CLRF   x6D
0517A:  CLRF   x6C
0517C:  MOVLW  20
0517E:  MOVWF  x6B
05180:  MOVLW  82
05182:  MOVWF  x6A
05184:  MOVLB  0
05186:  CALL   401C
0518A:  MOVFF  03,665
0518E:  MOVFF  02,664
05192:  MOVFF  01,663
05196:  MOVFF  00,662
0519A:  RCALL  4BF0
0519C:  MOVFF  01,68
....................    SlaveA0Tx[2]=make8((int16)PresionCamara,0); 
051A0:  MOVFF  213,69
051A4:  MOVLB  0
....................    SlaveA0Tx[3]=make8((int16)PresionCamara,1); 
051A6:  MOVFF  214,6A
051AA:  MOVLB  0
....................    SlaveA0Tx[4]=make8((int16)PresionPreCamara,0); 
051AC:  MOVFF  215,6B
051B0:  MOVLB  0
....................    SlaveA0Tx[5]=make8((int16)PresionPreCamara,1); 
051B2:  MOVFF  216,6C
051B6:  MOVLB  0
....................    SlaveA0Tx[6]=(int8)Tpulso*10; 
051B8:  MOVFF  1A9,665
051BC:  MOVFF  1A8,664
051C0:  MOVFF  1A7,663
051C4:  MOVFF  1A6,662
051C8:  RCALL  4BF0
051CA:  MOVF   01,W
051CC:  MULLW  0A
051CE:  MOVFF  FF3,6D
....................    SlaveA0Tx[7]=HIG; 
051D2:  BSF    F93.1
051D4:  CLRF   x6E
051D6:  BTFSS  F81.1
051D8:  INCF   x6E,F
....................    SlaveA0Tx[8]=LOW; 
051DA:  BSF    F93.0
051DC:  CLRF   x6F
051DE:  BTFSS  F81.0
051E0:  INCF   x6F,F
....................    SlaveA0Tx[9]=TERM; 
051E2:  BSF    F93.5
051E4:  CLRF   x70
051E6:  BTFSS  F81.5
051E8:  INCF   x70,F
....................    SlaveA0Tx[10]=DOOR; 
051EA:  BSF    F93.3
051EC:  CLRF   x71
051EE:  BTFSS  F81.3
051F0:  INCF   x71,F
....................    SlaveA0Tx[11]=STOP; 
051F2:  BSF    F93.4
051F4:  CLRF   x72
051F6:  BTFSS  F81.4
051F8:  INCF   x72,F
....................    SlaveA0Tx[12]=(int8)error; 
051FA:  MOVFF  1AD,665
051FE:  MOVFF  1AC,664
05202:  MOVFF  1AB,663
05206:  MOVFF  1AA,662
0520A:  RCALL  4BF0
0520C:  MOVFF  01,73
....................    SlaveA0Tx[13]=CicloSeleccionado; 
05210:  MOVFF  1FC,74
....................    SlaveA0Tx[14]=SetTime; 
05214:  MOVFF  24C,75
....................    SlaveA0Tx[15]=DiaTx; 
05218:  MOVFF  247,76
....................    SlaveA0Tx[16]=MesTx; 
0521C:  MOVFF  246,77
....................    SlaveA0Tx[17]=YearTx; 
05220:  MOVFF  245,78
....................    SlaveA0Tx[18]=HoraTx; 
05224:  MOVFF  248,79
....................    SlaveA0Tx[19]=MinutoTx; 
05228:  MOVFF  249,7A
....................    SlaveA0Tx[20]=SegundoTx; 
0522C:  MOVFF  24A,7B
....................    SlaveA0Tx[21]=Imprime; 
05230:  MOVFF  24D,7C
....................    SlaveA0Tx[22]=make8(Ciclos,0); 
05234:  MOVFF  217,7D
05238:  MOVLB  0
....................    SlaveA0Tx[23]=make8(Ciclos,1); 
0523A:  MOVFF  218,7E
0523E:  MOVLB  0
....................    SlaveA0Tx[24]=EstadoBuzzer; 
05240:  CLRF   x7F
05242:  BTFSC  xA8.7
05244:  INCF   x7F,F
....................    SlaveA0Tx[25]=codigoAlarma; 
05246:  MOVFF  22F,80
.................... } 
0524A:  GOTO   5250 (RETURN)
....................  
.................... void Lee_Vector(void){ 
....................    //Dia=txbuf[0]; 
....................    if(txbuf[8]==44){  
*
052E6:  MOVF   4F,W
052E8:  SUBLW  2C
052EA:  BNZ   5308
....................       Mes=txbuf[1]; 
052EC:  MOVFF  48,239
....................       Year=txbuf[2]; 
052F0:  MOVFF  49,238
....................       Hora=txbuf[3]; 
052F4:  MOVFF  4A,23B
....................       Minuto=txbuf[4]; 
052F8:  MOVFF  4B,23C
....................       Segundo=txbuf[5]; 
052FC:  MOVFF  4C,23D
....................       dow=txbuf[6]; 
05300:  MOVFF  4D,23E
....................       Dia=txbuf[7]; 
05304:  MOVFF  4E,23A
....................    } 
.................... } 
05308:  GOTO   53DC (RETURN)
....................  
.................... void Envio_Esclavos(void){ 
....................    Carga_Vector(); 
*
0524E:  BRA    50FA
....................    for(i=0;i<26;i++) 
05250:  MOVLB  1
05252:  CLRF   xF9
05254:  MOVF   xF9,W
05256:  SUBLW  19
05258:  BNC   52E2
....................    { 
....................       direccion=0xB0; 
0525A:  MOVLW  B0
0525C:  MOVLB  0
0525E:  MOVWF  x88
....................       //Envio_I2C(direccion,i,SlaveA0Tx[i]); 
....................       i2c_start();            // Comienzo comunicacin 
05260:  BSF    F94.4
05262:  MOVLW  05
05264:  MOVWF  00
05266:  DECFSZ 00,F
05268:  BRA    5266
0526A:  BSF    F94.3
0526C:  MOVLW  06
0526E:  MOVWF  00
05270:  DECFSZ 00,F
05272:  BRA    5270
05274:  BCF    F8B.4
05276:  BCF    F94.4
05278:  MOVLW  05
0527A:  MOVWF  00
0527C:  DECFSZ 00,F
0527E:  BRA    527C
05280:  BCF    F8B.3
05282:  BCF    F94.3
....................       i2c_write(direccion);   // Direccin del esclavo en el bus I2C 
05284:  MOVFF  88,663
05288:  CALL   21E6
....................       i2c_write(i);   // Direccin del esclavo en el bus I2C 
0528C:  MOVFF  1F9,663
05290:  CALL   21E6
....................       i2c_write(0);    // Posicin donde se guardara el dato transmitido 
05294:  MOVLB  6
05296:  CLRF   x63
05298:  MOVLB  0
0529A:  CALL   21E6
....................       i2c_write(SlaveA0Tx[i]); // Dato a transmitir 
0529E:  CLRF   03
052A0:  MOVLB  1
052A2:  MOVF   xF9,W
052A4:  ADDLW  67
052A6:  MOVWF  FE9
052A8:  MOVLW  00
052AA:  ADDWFC 03,W
052AC:  MOVWF  FEA
052AE:  MOVFF  FEF,662
052B2:  MOVFF  662,663
052B6:  MOVLB  0
052B8:  CALL   21E6
....................       i2c_stop();  
052BC:  BCF    F94.4
052BE:  NOP   
052C0:  BSF    F94.3
052C2:  BTFSS  F82.3
052C4:  BRA    52C2
052C6:  MOVLW  05
052C8:  MOVWF  00
052CA:  DECFSZ 00,F
052CC:  BRA    52CA
052CE:  BRA    52D0
052D0:  NOP   
052D2:  BSF    F94.4
052D4:  MOVLW  05
052D6:  MOVWF  00
052D8:  DECFSZ 00,F
052DA:  BRA    52D8
....................    }  
052DC:  MOVLB  1
052DE:  INCF   xF9,F
052E0:  BRA    5254
.................... } 
052E2:  MOVLB  0
052E4:  RETLW  00
.................... void Lectura_Esclavos(void){ 
....................    for(i=0;i<9;i++){ 
*
0530C:  MOVLB  1
0530E:  CLRF   xF9
05310:  MOVF   xF9,W
05312:  SUBLW  08
05314:  BNC   53D8
....................       direccion=0xB0;                        //Direccin en el bus I2c 
05316:  MOVLW  B0
05318:  MOVLB  0
0531A:  MOVWF  x88
....................       posicion=i;                         //Posicin de memoria a leer 
0531C:  MOVFF  1F9,89
....................       //Lectura_I2C(direccion, posicion, dato);    //Lectura por I2C 
....................       i2c_start();            // Comienzo de la comunicacin 
05320:  BSF    F94.4
05322:  MOVLW  05
05324:  MOVWF  00
05326:  DECFSZ 00,F
05328:  BRA    5326
0532A:  BSF    F94.3
0532C:  MOVLW  06
0532E:  MOVWF  00
05330:  DECFSZ 00,F
05332:  BRA    5330
05334:  BCF    F8B.4
05336:  BCF    F94.4
05338:  MOVLW  05
0533A:  MOVWF  00
0533C:  DECFSZ 00,F
0533E:  BRA    533C
05340:  BCF    F8B.3
05342:  BCF    F94.3
....................       i2c_write(direccion);   // Direccin del esclavo en el bus I2C 
05344:  MOVFF  88,663
05348:  CALL   21E6
....................       i2c_write(i);    // Posicin de donde se leer el dato en el esclavo 
0534C:  MOVFF  1F9,663
05350:  CALL   21E6
....................       i2c_write(0);    // Posicin de donde se leer el dato en el esclavo 
05354:  MOVLB  6
05356:  CLRF   x63
05358:  MOVLB  0
0535A:  CALL   21E6
....................       i2c_start();            // Reinicio 
0535E:  BSF    F94.4
05360:  MOVLW  05
05362:  MOVWF  00
05364:  DECFSZ 00,F
05366:  BRA    5364
05368:  BSF    F94.3
0536A:  MOVLW  06
0536C:  MOVWF  00
0536E:  DECFSZ 00,F
05370:  BRA    536E
05372:  BTFSS  F82.3
05374:  BRA    5372
05376:  BCF    F8B.4
05378:  BCF    F94.4
0537A:  MOVLW  05
0537C:  MOVWF  00
0537E:  DECFSZ 00,F
05380:  BRA    537E
05382:  BCF    F8B.3
05384:  BCF    F94.3
....................       i2c_write(direccion+1); // Direccin del esclavo en modo lectura 
05386:  MOVLW  01
05388:  ADDWF  x88,W
0538A:  MOVLB  6
0538C:  MOVWF  x50
0538E:  MOVWF  x63
05390:  MOVLB  0
05392:  CALL   21E6
....................       dato=i2c_read(0);       // Lectura del dato 
05396:  CLRF   00
05398:  CALL   225C
0539C:  MOVFF  01,87
....................       i2c_stop();   
053A0:  BCF    F94.4
053A2:  NOP   
053A4:  BSF    F94.3
053A6:  BTFSS  F82.3
053A8:  BRA    53A6
053AA:  MOVLW  05
053AC:  MOVWF  00
053AE:  DECFSZ 00,F
053B0:  BRA    53AE
053B2:  BRA    53B4
053B4:  NOP   
053B6:  BSF    F94.4
053B8:  MOVLW  05
053BA:  MOVWF  00
053BC:  DECFSZ 00,F
053BE:  BRA    53BC
....................       txbuf[i]=(int8)dato; 
053C0:  CLRF   03
053C2:  MOVLB  1
053C4:  MOVF   xF9,W
053C6:  ADDLW  47
053C8:  MOVWF  FE9
053CA:  MOVLW  00
053CC:  ADDWFC 03,W
053CE:  MOVWF  FEA
053D0:  MOVFF  87,FEF
....................    } 
053D4:  INCF   xF9,F
053D6:  BRA    5310
....................    Lee_Vector(); 
053D8:  MOVLB  0
053DA:  BRA    52E6
.................... } 
053DC:  GOTO   7ABC (RETURN)
....................  
.................... int8 extraeDecimal(float data){ 
*
06922:  MOVLB  6
06924:  CLRF   x5D
06926:  CLRF   x5C
06928:  CLRF   x5B
0692A:  CLRF   x5A
0692C:  CLRF   x61
0692E:  CLRF   x60
06930:  CLRF   x5F
06932:  CLRF   x5E
....................    float entero=0; 
....................    float tmp=0.0; 
....................     
....................    entero=(int8)data; 
06934:  MOVFF  659,665
06938:  MOVFF  658,664
0693C:  MOVFF  657,663
06940:  MOVFF  656,662
06944:  MOVLB  0
06946:  CALL   4BF0
0694A:  MOVLB  6
0694C:  CLRF   x63
0694E:  MOVFF  01,662
06952:  MOVLB  0
06954:  CALL   20F2
06958:  MOVFF  03,65D
0695C:  MOVFF  02,65C
06960:  MOVFF  01,65B
06964:  MOVFF  00,65A
....................    tmp=(data-entero)*10; 
06968:  BSF    FD8.1
0696A:  MOVFF  659,665
0696E:  MOVFF  658,664
06972:  MOVFF  657,663
06976:  MOVFF  656,662
0697A:  MOVFF  65D,669
0697E:  MOVFF  65C,668
06982:  MOVFF  65B,667
06986:  MOVFF  65A,666
0698A:  CALL   250C
0698E:  MOVFF  00,662
06992:  MOVFF  01,663
06996:  MOVFF  02,664
0699A:  MOVFF  03,665
0699E:  MOVFF  03,669
069A2:  MOVFF  02,668
069A6:  MOVFF  01,667
069AA:  MOVFF  00,666
069AE:  MOVLB  6
069B0:  CLRF   x6D
069B2:  CLRF   x6C
069B4:  MOVLW  20
069B6:  MOVWF  x6B
069B8:  MOVLW  82
069BA:  MOVWF  x6A
069BC:  MOVLB  0
069BE:  CALL   401C
069C2:  MOVFF  03,661
069C6:  MOVFF  02,660
069CA:  MOVFF  01,65F
069CE:  MOVFF  00,65E
....................    return (int8)tmp; 
069D2:  MOVFF  661,665
069D6:  MOVFF  660,664
069DA:  MOVFF  65F,663
069DE:  MOVFF  65E,662
069E2:  CALL   4BF0
069E6:  MOVF   01,W
.................... } 
069E8:  GOTO   6AFA (RETURN)
....................  
.................... float inttofloat(int8 decimal){ 
....................    float tmp; 
....................    tmp=decimal; 
*
024CC:  MOVLB  6
024CE:  CLRF   x63
024D0:  MOVFF  654,662
024D4:  MOVLB  0
024D6:  RCALL  20F2
024D8:  MOVFF  03,658
024DC:  MOVFF  02,657
024E0:  MOVFF  01,656
024E4:  MOVFF  00,655
....................    return tmp/10; 
024E8:  MOVFF  658,65F
024EC:  MOVFF  657,65E
024F0:  MOVFF  656,65D
024F4:  MOVFF  655,65C
024F8:  MOVLB  6
024FA:  CLRF   x63
024FC:  CLRF   x62
024FE:  MOVLW  20
02500:  MOVWF  x61
02502:  MOVLW  82
02504:  MOVWF  x60
02506:  MOVLB  0
02508:  RCALL  236E
.................... } 
0250A:  RETLW  00
....................  
.................... void LeeEEPROM(){ 
.................... //Lectura EEPROM//-------------------------- 
....................    Ganancia=read_eeprom(20); 
*
027FE:  MOVFF  FF2,650
02802:  BCF    FF2.6
02804:  BCF    FF2.7
02806:  CLRF   FAA
02808:  MOVLW  14
0280A:  MOVWF  FA9
0280C:  BCF    FA6.6
0280E:  BCF    FA6.7
02810:  BSF    FA6.0
02812:  MOVF   FA8,W
02814:  MOVLB  6
02816:  BTFSC  x50.6
02818:  BSF    FF2.6
0281A:  BTFSC  x50.7
0281C:  BSF    FF2.7
0281E:  CLRF   x63
02820:  MOVWF  x62
02822:  MOVLB  0
02824:  RCALL  20F2
02826:  MOVFF  03,1BD
0282A:  MOVFF  02,1BC
0282E:  MOVFF  01,1BB
02832:  MOVFF  00,1BA
....................    delay_ms(10); 
02836:  MOVLW  0A
02838:  MOVLB  6
0283A:  MOVWF  x62
0283C:  MOVLB  0
0283E:  RCALL  2128
....................    Sensor[0].Ajuste=read_eeprom(21); 
02840:  MOVFF  FF2,650
02844:  BCF    FF2.6
02846:  BCF    FF2.7
02848:  CLRF   FAA
0284A:  MOVLW  15
0284C:  MOVWF  FA9
0284E:  BCF    FA6.6
02850:  BCF    FA6.7
02852:  BSF    FA6.0
02854:  MOVF   FA8,W
02856:  MOVLB  6
02858:  BTFSC  x50.6
0285A:  BSF    FF2.6
0285C:  BTFSC  x50.7
0285E:  BSF    FF2.7
02860:  MOVLB  2
02862:  MOVWF  xDE
....................    delay_ms(10); 
02864:  MOVLW  0A
02866:  MOVLB  6
02868:  MOVWF  x62
0286A:  MOVLB  0
0286C:  RCALL  2128
....................    Sensor[0].Ajusten=read_eeprom(22); 
0286E:  MOVFF  FF2,650
02872:  BCF    FF2.6
02874:  BCF    FF2.7
02876:  CLRF   FAA
02878:  MOVLW  16
0287A:  MOVWF  FA9
0287C:  BCF    FA6.6
0287E:  BCF    FA6.7
02880:  BSF    FA6.0
02882:  MOVF   FA8,W
02884:  MOVLB  6
02886:  BTFSC  x50.6
02888:  BSF    FF2.6
0288A:  BTFSC  x50.7
0288C:  BSF    FF2.7
0288E:  MOVLB  2
02890:  MOVWF  xDF
....................    delay_ms(10); 
02892:  MOVLW  0A
02894:  MOVLB  6
02896:  MOVWF  x62
02898:  MOVLB  0
0289A:  RCALL  2128
....................    Sensor[1].Ajuste=read_eeprom(23); 
0289C:  MOVFF  FF2,650
028A0:  BCF    FF2.6
028A2:  BCF    FF2.7
028A4:  CLRF   FAA
028A6:  MOVLW  17
028A8:  MOVWF  FA9
028AA:  BCF    FA6.6
028AC:  BCF    FA6.7
028AE:  BSF    FA6.0
028B0:  MOVF   FA8,W
028B2:  MOVLB  6
028B4:  BTFSC  x50.6
028B6:  BSF    FF2.6
028B8:  BTFSC  x50.7
028BA:  BSF    FF2.7
028BC:  MOVLB  4
028BE:  MOVWF  x42
....................    delay_ms(10); 
028C0:  MOVLW  0A
028C2:  MOVLB  6
028C4:  MOVWF  x62
028C6:  MOVLB  0
028C8:  RCALL  2128
....................    Sensor[1].Ajusten=read_eeprom(24); 
028CA:  MOVFF  FF2,650
028CE:  BCF    FF2.6
028D0:  BCF    FF2.7
028D2:  CLRF   FAA
028D4:  MOVLW  18
028D6:  MOVWF  FA9
028D8:  BCF    FA6.6
028DA:  BCF    FA6.7
028DC:  BSF    FA6.0
028DE:  MOVF   FA8,W
028E0:  MOVLB  6
028E2:  BTFSC  x50.6
028E4:  BSF    FF2.6
028E6:  BTFSC  x50.7
028E8:  BSF    FF2.7
028EA:  MOVLB  4
028EC:  MOVWF  x43
....................    delay_ms(10);    
028EE:  MOVLW  0A
028F0:  MOVLB  6
028F2:  MOVWF  x62
028F4:  MOVLB  0
028F6:  RCALL  2128
....................    MediaMovil=read_eeprom(25); 
028F8:  MOVFF  FF2,650
028FC:  BCF    FF2.6
028FE:  BCF    FF2.7
02900:  CLRF   FAA
02902:  MOVLW  19
02904:  MOVWF  FA9
02906:  BCF    FA6.6
02908:  BCF    FA6.7
0290A:  BSF    FA6.0
0290C:  MOVF   FA8,W
0290E:  MOVLB  6
02910:  BTFSC  x50.6
02912:  BSF    FF2.6
02914:  BTFSC  x50.7
02916:  BSF    FF2.7
02918:  MOVLB  1
0291A:  MOVWF  x95
....................    delay_ms(10); 
0291C:  MOVLW  0A
0291E:  MOVLB  6
02920:  MOVWF  x62
02922:  MOVLB  0
02924:  RCALL  2128
....................    Tciclo=read_eeprom(26); 
02926:  MOVFF  FF2,650
0292A:  BCF    FF2.6
0292C:  BCF    FF2.7
0292E:  CLRF   FAA
02930:  MOVLW  1A
02932:  MOVWF  FA9
02934:  BCF    FA6.6
02936:  BCF    FA6.7
02938:  BSF    FA6.0
0293A:  MOVF   FA8,W
0293C:  MOVLB  6
0293E:  BTFSC  x50.6
02940:  BSF    FF2.6
02942:  BTFSC  x50.7
02944:  BSF    FF2.7
02946:  CLRF   x63
02948:  MOVWF  x62
0294A:  MOVLB  0
0294C:  CALL   20F2
02950:  MOVFF  03,1A5
02954:  MOVFF  02,1A4
02958:  MOVFF  01,1A3
0295C:  MOVFF  00,1A2
....................    delay_ms(10); 
02960:  MOVLW  0A
02962:  MOVLB  6
02964:  MOVWF  x62
02966:  MOVLB  0
02968:  CALL   2128
....................    Integral=read_eeprom(27); 
0296C:  MOVFF  FF2,650
02970:  BCF    FF2.6
02972:  BCF    FF2.7
02974:  CLRF   FAA
02976:  MOVLW  1B
02978:  MOVWF  FA9
0297A:  BCF    FA6.6
0297C:  BCF    FA6.7
0297E:  BSF    FA6.0
02980:  MOVF   FA8,W
02982:  MOVLB  6
02984:  BTFSC  x50.6
02986:  BSF    FF2.6
02988:  BTFSC  x50.7
0298A:  BSF    FF2.7
0298C:  MOVLB  1
0298E:  MOVWF  xEA
....................    delay_ms(10); 
02990:  MOVLW  0A
02992:  MOVLB  6
02994:  MOVWF  x62
02996:  MOVLB  0
02998:  CALL   2128
....................    Derivativo=read_eeprom(28); 
0299C:  MOVFF  FF2,650
029A0:  BCF    FF2.6
029A2:  BCF    FF2.7
029A4:  CLRF   FAA
029A6:  MOVLW  1C
029A8:  MOVWF  FA9
029AA:  BCF    FA6.6
029AC:  BCF    FA6.7
029AE:  BSF    FA6.0
029B0:  MOVF   FA8,W
029B2:  MOVLB  6
029B4:  BTFSC  x50.6
029B6:  BSF    FF2.6
029B8:  BTFSC  x50.7
029BA:  BSF    FF2.7
029BC:  MOVLB  1
029BE:  MOVWF  xEB
....................    delay_ms(10); 
029C0:  MOVLW  0A
029C2:  MOVLB  6
029C4:  MOVWF  x62
029C6:  MOVLB  0
029C8:  CALL   2128
....................    Atmosferica=read_eeprom(31); 
029CC:  MOVFF  FF2,650
029D0:  BCF    FF2.6
029D2:  BCF    FF2.7
029D4:  CLRF   FAA
029D6:  MOVLW  1F
029D8:  MOVWF  FA9
029DA:  BCF    FA6.6
029DC:  BCF    FA6.7
029DE:  BSF    FA6.0
029E0:  MOVF   FA8,W
029E2:  MOVLB  6
029E4:  BTFSC  x50.6
029E6:  BSF    FF2.6
029E8:  BTFSC  x50.7
029EA:  BSF    FF2.7
029EC:  MOVLB  2
029EE:  MOVWF  x42
....................    delay_ms(10); 
029F0:  MOVLW  0A
029F2:  MOVLB  6
029F4:  MOVWF  x62
029F6:  MOVLB  0
029F8:  CALL   2128
....................    Tapertura=read_eeprom(32); 
029FC:  MOVFF  FF2,650
02A00:  BCF    FF2.6
02A02:  BCF    FF2.7
02A04:  CLRF   FAA
02A06:  MOVLW  20
02A08:  MOVWF  FA9
02A0A:  BCF    FA6.6
02A0C:  BCF    FA6.7
02A0E:  BSF    FA6.0
02A10:  MOVF   FA8,W
02A12:  MOVLB  6
02A14:  BTFSC  x50.6
02A16:  BSF    FF2.6
02A18:  BTFSC  x50.7
02A1A:  BSF    FF2.7
02A1C:  MOVLB  1
02A1E:  MOVWF  xFD
....................    delay_ms(10); 
02A20:  MOVLW  0A
02A22:  MOVLB  6
02A24:  MOVWF  x62
02A26:  MOVLB  0
02A28:  CALL   2128
....................    CiclosL=read_eeprom(37); 
02A2C:  MOVFF  FF2,650
02A30:  BCF    FF2.6
02A32:  BCF    FF2.7
02A34:  CLRF   FAA
02A36:  MOVLW  25
02A38:  MOVWF  FA9
02A3A:  BCF    FA6.6
02A3C:  BCF    FA6.7
02A3E:  BSF    FA6.0
02A40:  MOVF   FA8,W
02A42:  MOVLB  6
02A44:  BTFSC  x50.6
02A46:  BSF    FF2.6
02A48:  BTFSC  x50.7
02A4A:  BSF    FF2.7
02A4C:  MOVLB  1
02A4E:  MOVWF  xFA
....................    delay_ms(10); 
02A50:  MOVLW  0A
02A52:  MOVLB  6
02A54:  MOVWF  x62
02A56:  MOVLB  0
02A58:  CALL   2128
....................    CiclosH=read_eeprom(38); 
02A5C:  MOVFF  FF2,650
02A60:  BCF    FF2.6
02A62:  BCF    FF2.7
02A64:  CLRF   FAA
02A66:  MOVLW  26
02A68:  MOVWF  FA9
02A6A:  BCF    FA6.6
02A6C:  BCF    FA6.7
02A6E:  BSF    FA6.0
02A70:  MOVF   FA8,W
02A72:  MOVLB  6
02A74:  BTFSC  x50.6
02A76:  BSF    FF2.6
02A78:  BTFSC  x50.7
02A7A:  BSF    FF2.7
02A7C:  MOVLB  1
02A7E:  MOVWF  xFB
....................    delay_ms(10); 
02A80:  MOVLW  0A
02A82:  MOVLB  6
02A84:  MOVWF  x62
02A86:  MOVLB  0
02A88:  CALL   2128
....................    Ciclos=make16(CiclosH,CiclosL); 
02A8C:  MOVFF  1FB,218
02A90:  MOVFF  1FA,217
....................    delay_ms(10); 
02A94:  MOVLW  0A
02A96:  MOVLB  6
02A98:  MOVWF  x62
02A9A:  MOVLB  0
02A9C:  CALL   2128
....................    G1=read_eeprom(42); 
02AA0:  MOVFF  FF2,650
02AA4:  BCF    FF2.6
02AA6:  BCF    FF2.7
02AA8:  CLRF   FAA
02AAA:  MOVLW  2A
02AAC:  MOVWF  FA9
02AAE:  BCF    FA6.6
02AB0:  BCF    FA6.7
02AB2:  BSF    FA6.0
02AB4:  MOVF   FA8,W
02AB6:  MOVLB  6
02AB8:  BTFSC  x50.6
02ABA:  BSF    FF2.6
02ABC:  BTFSC  x50.7
02ABE:  BSF    FF2.7
02AC0:  MOVLB  2
02AC2:  MOVWF  x52
....................    delay_ms(10); 
02AC4:  MOVLW  0A
02AC6:  MOVLB  6
02AC8:  MOVWF  x62
02ACA:  MOVLB  0
02ACC:  CALL   2128
....................    G2=read_eeprom(43); 
02AD0:  MOVFF  FF2,650
02AD4:  BCF    FF2.6
02AD6:  BCF    FF2.7
02AD8:  CLRF   FAA
02ADA:  MOVLW  2B
02ADC:  MOVWF  FA9
02ADE:  BCF    FA6.6
02AE0:  BCF    FA6.7
02AE2:  BSF    FA6.0
02AE4:  MOVF   FA8,W
02AE6:  MOVLB  6
02AE8:  BTFSC  x50.6
02AEA:  BSF    FF2.6
02AEC:  BTFSC  x50.7
02AEE:  BSF    FF2.7
02AF0:  MOVLB  2
02AF2:  MOVWF  x53
....................    delay_ms(10); 
02AF4:  MOVLW  0A
02AF6:  MOVLB  6
02AF8:  MOVWF  x62
02AFA:  MOVLB  0
02AFC:  CALL   2128
....................    sg1=read_eeprom(44); 
02B00:  MOVFF  FF2,650
02B04:  BCF    FF2.6
02B06:  BCF    FF2.7
02B08:  CLRF   FAA
02B0A:  MOVLW  2C
02B0C:  MOVWF  FA9
02B0E:  BCF    FA6.6
02B10:  BCF    FA6.7
02B12:  BSF    FA6.0
02B14:  MOVF   FA8,W
02B16:  MOVLB  6
02B18:  BTFSC  x50.6
02B1A:  BSF    FF2.6
02B1C:  BTFSC  x50.7
02B1E:  BSF    FF2.7
02B20:  MOVLB  2
02B22:  MOVWF  x54
....................    delay_ms(10); 
02B24:  MOVLW  0A
02B26:  MOVLB  6
02B28:  MOVWF  x62
02B2A:  MOVLB  0
02B2C:  CALL   2128
....................    sg2=read_eeprom(45); 
02B30:  MOVFF  FF2,650
02B34:  BCF    FF2.6
02B36:  BCF    FF2.7
02B38:  CLRF   FAA
02B3A:  MOVLW  2D
02B3C:  MOVWF  FA9
02B3E:  BCF    FA6.6
02B40:  BCF    FA6.7
02B42:  BSF    FA6.0
02B44:  MOVF   FA8,W
02B46:  MOVLB  6
02B48:  BTFSC  x50.6
02B4A:  BSF    FF2.6
02B4C:  BTFSC  x50.7
02B4E:  BSF    FF2.7
02B50:  MOVLB  2
02B52:  MOVWF  x55
....................     
....................    for(i=0;i<30;i++){ 
02B54:  MOVLB  1
02B56:  CLRF   xF9
02B58:  MOVF   xF9,W
02B5A:  SUBLW  1D
02B5C:  BNC   2BD6
....................       estados[i]=read_eeprom(i+50); 
02B5E:  MOVLW  32
02B60:  ADDWF  xF9,W
02B62:  MOVLB  6
02B64:  MOVWF  x50
02B66:  MOVFF  FF2,651
02B6A:  BCF    FF2.6
02B6C:  BCF    FF2.7
02B6E:  CLRF   FAA
02B70:  MOVFF  650,FA9
02B74:  BCF    FA6.6
02B76:  BCF    FA6.7
02B78:  BSF    FA6.0
02B7A:  MOVF   FA8,W
02B7C:  BTFSC  x51.6
02B7E:  BSF    FF2.6
02B80:  BTFSC  x51.7
02B82:  BSF    FF2.7
02B84:  MOVFF  1F9,652
02B88:  MOVWF  x53
02B8A:  MOVLW  02
02B8C:  MOVWF  x55
02B8E:  MOVLW  BC
02B90:  MOVWF  x54
02B92:  MOVLB  0
02B94:  CALL   2150
....................       if(estados[i]>1) 
02B98:  MOVFF  1F9,651
02B9C:  MOVLW  02
02B9E:  MOVLB  6
02BA0:  MOVWF  x53
02BA2:  MOVLW  BC
02BA4:  MOVWF  x52
02BA6:  MOVLB  0
02BA8:  CALL   2192
02BAC:  MOVLW  00
02BAE:  BTFSC  01.0
02BB0:  MOVLW  01
02BB2:  ANDLW  01
02BB4:  SUBLW  01
02BB6:  BC    2BD0
....................          estados[i]=1; 
02BB8:  MOVFF  1F9,652
02BBC:  MOVLW  01
02BBE:  MOVLB  6
02BC0:  MOVWF  x53
02BC2:  MOVLW  02
02BC4:  MOVWF  x55
02BC6:  MOVLW  BC
02BC8:  MOVWF  x54
02BCA:  MOVLB  0
02BCC:  CALL   2150
....................    } 
02BD0:  MOVLB  1
02BD2:  INCF   xF9,F
02BD4:  BRA    2B58
....................     
....................    for(i=0;i<20;i++){//Lee valores almacenados de ciclos personalizados 
02BD6:  CLRF   xF9
02BD8:  MOVF   xF9,W
02BDA:  SUBLW  13
02BDC:  BTFSS  FD8.0
02BDE:  BRA    31AC
....................       CiclosPersonalizados[i].Temperatura=read_eeprom(100+(i*8));  
02BE0:  MOVF   xF9,W
02BE2:  MULLW  08
02BE4:  MOVF   FF3,W
02BE6:  MOVLB  6
02BE8:  CLRF   x51
02BEA:  MOVWF  x50
02BEC:  MOVLW  88
02BEE:  ADDWF  x50,W
02BF0:  MOVWF  FE9
02BF2:  MOVLW  05
02BF4:  ADDWFC x51,W
02BF6:  MOVWF  FEA
02BF8:  MOVLB  1
02BFA:  MOVF   xF9,W
02BFC:  MULLW  08
02BFE:  MOVF   FF3,W
02C00:  ADDLW  64
02C02:  MOVLB  6
02C04:  MOVWF  x52
02C06:  MOVFF  FF2,653
02C0A:  BCF    FF2.6
02C0C:  BCF    FF2.7
02C0E:  CLRF   FAA
02C10:  MOVFF  652,FA9
02C14:  BCF    FA6.6
02C16:  BCF    FA6.7
02C18:  BSF    FA6.0
02C1A:  MOVF   FA8,W
02C1C:  BTFSC  x53.6
02C1E:  BSF    FF2.6
02C20:  BTFSC  x53.7
02C22:  BSF    FF2.7
02C24:  MOVWF  FEF
....................       CiclosPersonalizados[i].Minutoest=read_eeprom(101+(i*8));  
02C26:  MOVLB  1
02C28:  MOVF   xF9,W
02C2A:  MULLW  08
02C2C:  MOVF   FF3,W
02C2E:  MOVLB  6
02C30:  CLRF   x51
02C32:  MOVWF  x50
02C34:  MOVLW  01
02C36:  ADDWF  x50,W
02C38:  MOVWF  01
02C3A:  MOVLW  00
02C3C:  ADDWFC x51,W
02C3E:  MOVWF  03
02C40:  MOVF   01,W
02C42:  ADDLW  88
02C44:  MOVWF  FE9
02C46:  MOVLW  05
02C48:  ADDWFC 03,W
02C4A:  MOVWF  FEA
02C4C:  MOVLB  1
02C4E:  MOVF   xF9,W
02C50:  MULLW  08
02C52:  MOVF   FF3,W
02C54:  ADDLW  65
02C56:  MOVLB  6
02C58:  MOVWF  x52
02C5A:  MOVFF  FF2,653
02C5E:  BCF    FF2.6
02C60:  BCF    FF2.7
02C62:  CLRF   FAA
02C64:  MOVFF  652,FA9
02C68:  BCF    FA6.6
02C6A:  BCF    FA6.7
02C6C:  BSF    FA6.0
02C6E:  MOVF   FA8,W
02C70:  BTFSC  x53.6
02C72:  BSF    FF2.6
02C74:  BTFSC  x53.7
02C76:  BSF    FF2.7
02C78:  MOVWF  FEF
....................       CiclosPersonalizados[i].Segundoest=read_eeprom(102+(i*8));  
02C7A:  MOVLB  1
02C7C:  MOVF   xF9,W
02C7E:  MULLW  08
02C80:  MOVF   FF3,W
02C82:  MOVLB  6
02C84:  CLRF   x51
02C86:  MOVWF  x50
02C88:  MOVLW  02
02C8A:  ADDWF  x50,W
02C8C:  MOVWF  01
02C8E:  MOVLW  00
02C90:  ADDWFC x51,W
02C92:  MOVWF  03
02C94:  MOVF   01,W
02C96:  ADDLW  88
02C98:  MOVWF  FE9
02C9A:  MOVLW  05
02C9C:  ADDWFC 03,W
02C9E:  MOVWF  FEA
02CA0:  MOVLB  1
02CA2:  MOVF   xF9,W
02CA4:  MULLW  08
02CA6:  MOVF   FF3,W
02CA8:  ADDLW  66
02CAA:  MOVLB  6
02CAC:  MOVWF  x52
02CAE:  MOVFF  FF2,653
02CB2:  BCF    FF2.6
02CB4:  BCF    FF2.7
02CB6:  CLRF   FAA
02CB8:  MOVFF  652,FA9
02CBC:  BCF    FA6.6
02CBE:  BCF    FA6.7
02CC0:  BSF    FA6.0
02CC2:  MOVF   FA8,W
02CC4:  BTFSC  x53.6
02CC6:  BSF    FF2.6
02CC8:  BTFSC  x53.7
02CCA:  BSF    FF2.7
02CCC:  MOVWF  FEF
....................       CiclosPersonalizados[i].Minutosec=read_eeprom(103+(i*8));  
02CCE:  MOVLB  1
02CD0:  MOVF   xF9,W
02CD2:  MULLW  08
02CD4:  MOVF   FF3,W
02CD6:  MOVLB  6
02CD8:  CLRF   x51
02CDA:  MOVWF  x50
02CDC:  MOVLW  03
02CDE:  ADDWF  x50,W
02CE0:  MOVWF  01
02CE2:  MOVLW  00
02CE4:  ADDWFC x51,W
02CE6:  MOVWF  03
02CE8:  MOVF   01,W
02CEA:  ADDLW  88
02CEC:  MOVWF  FE9
02CEE:  MOVLW  05
02CF0:  ADDWFC 03,W
02CF2:  MOVWF  FEA
02CF4:  MOVLB  1
02CF6:  MOVF   xF9,W
02CF8:  MULLW  08
02CFA:  MOVF   FF3,W
02CFC:  ADDLW  67
02CFE:  MOVLB  6
02D00:  MOVWF  x52
02D02:  MOVFF  FF2,653
02D06:  BCF    FF2.6
02D08:  BCF    FF2.7
02D0A:  CLRF   FAA
02D0C:  MOVFF  652,FA9
02D10:  BCF    FA6.6
02D12:  BCF    FA6.7
02D14:  BSF    FA6.0
02D16:  MOVF   FA8,W
02D18:  BTFSC  x53.6
02D1A:  BSF    FF2.6
02D1C:  BTFSC  x53.7
02D1E:  BSF    FF2.7
02D20:  MOVWF  FEF
....................       CiclosPersonalizados[i].Segundosec=read_eeprom(104+(i*8));  
02D22:  MOVLB  1
02D24:  MOVF   xF9,W
02D26:  MULLW  08
02D28:  MOVF   FF3,W
02D2A:  MOVLB  6
02D2C:  CLRF   x51
02D2E:  MOVWF  x50
02D30:  MOVLW  04
02D32:  ADDWF  x50,W
02D34:  MOVWF  01
02D36:  MOVLW  00
02D38:  ADDWFC x51,W
02D3A:  MOVWF  03
02D3C:  MOVF   01,W
02D3E:  ADDLW  88
02D40:  MOVWF  FE9
02D42:  MOVLW  05
02D44:  ADDWFC 03,W
02D46:  MOVWF  FEA
02D48:  MOVLB  1
02D4A:  MOVF   xF9,W
02D4C:  MULLW  08
02D4E:  MOVF   FF3,W
02D50:  ADDLW  68
02D52:  MOVLB  6
02D54:  MOVWF  x52
02D56:  MOVFF  FF2,653
02D5A:  BCF    FF2.6
02D5C:  BCF    FF2.7
02D5E:  CLRF   FAA
02D60:  MOVFF  652,FA9
02D64:  BCF    FA6.6
02D66:  BCF    FA6.7
02D68:  BSF    FA6.0
02D6A:  MOVF   FA8,W
02D6C:  BTFSC  x53.6
02D6E:  BSF    FF2.6
02D70:  BTFSC  x53.7
02D72:  BSF    FF2.7
02D74:  MOVWF  FEF
....................       CiclosPersonalizados[i].PulsosVacio=read_eeprom(105+(i*8));  
02D76:  MOVLB  1
02D78:  MOVF   xF9,W
02D7A:  MULLW  08
02D7C:  MOVF   FF3,W
02D7E:  MOVLB  6
02D80:  CLRF   x51
02D82:  MOVWF  x50
02D84:  MOVLW  05
02D86:  ADDWF  x50,W
02D88:  MOVWF  01
02D8A:  MOVLW  00
02D8C:  ADDWFC x51,W
02D8E:  MOVWF  03
02D90:  MOVF   01,W
02D92:  ADDLW  88
02D94:  MOVWF  FE9
02D96:  MOVLW  05
02D98:  ADDWFC 03,W
02D9A:  MOVWF  FEA
02D9C:  MOVLB  1
02D9E:  MOVF   xF9,W
02DA0:  MULLW  08
02DA2:  MOVF   FF3,W
02DA4:  ADDLW  69
02DA6:  MOVLB  6
02DA8:  MOVWF  x52
02DAA:  MOVFF  FF2,653
02DAE:  BCF    FF2.6
02DB0:  BCF    FF2.7
02DB2:  CLRF   FAA
02DB4:  MOVFF  652,FA9
02DB8:  BCF    FA6.6
02DBA:  BCF    FA6.7
02DBC:  BSF    FA6.0
02DBE:  MOVF   FA8,W
02DC0:  BTFSC  x53.6
02DC2:  BSF    FF2.6
02DC4:  BTFSC  x53.7
02DC6:  BSF    FF2.7
02DC8:  MOVWF  FEF
....................       CiclosPersonalizados[i].NivelVacio=read_eeprom(106+(i*8));  
02DCA:  MOVLB  1
02DCC:  MOVF   xF9,W
02DCE:  MULLW  08
02DD0:  MOVF   FF3,W
02DD2:  MOVLB  6
02DD4:  CLRF   x51
02DD6:  MOVWF  x50
02DD8:  MOVLW  06
02DDA:  ADDWF  x50,W
02DDC:  MOVWF  01
02DDE:  MOVLW  00
02DE0:  ADDWFC x51,W
02DE2:  MOVWF  03
02DE4:  MOVF   01,W
02DE6:  ADDLW  88
02DE8:  MOVWF  FE9
02DEA:  MOVLW  05
02DEC:  ADDWFC 03,W
02DEE:  MOVWF  FEA
02DF0:  MOVLB  1
02DF2:  MOVF   xF9,W
02DF4:  MULLW  08
02DF6:  MOVF   FF3,W
02DF8:  ADDLW  6A
02DFA:  MOVLB  6
02DFC:  MOVWF  x52
02DFE:  MOVFF  FF2,653
02E02:  BCF    FF2.6
02E04:  BCF    FF2.7
02E06:  CLRF   FAA
02E08:  MOVFF  652,FA9
02E0C:  BCF    FA6.6
02E0E:  BCF    FA6.7
02E10:  BSF    FA6.0
02E12:  MOVF   FA8,W
02E14:  BTFSC  x53.6
02E16:  BSF    FF2.6
02E18:  BTFSC  x53.7
02E1A:  BSF    FF2.7
02E1C:  MOVWF  FEF
....................       CiclosPersonalizados[i].NivelDesfogue=read_eeprom(107+(i*8));  
02E1E:  MOVLB  1
02E20:  MOVF   xF9,W
02E22:  MULLW  08
02E24:  MOVF   FF3,W
02E26:  MOVLB  6
02E28:  CLRF   x51
02E2A:  MOVWF  x50
02E2C:  MOVLW  07
02E2E:  ADDWF  x50,W
02E30:  MOVWF  01
02E32:  MOVLW  00
02E34:  ADDWFC x51,W
02E36:  MOVWF  03
02E38:  MOVF   01,W
02E3A:  ADDLW  88
02E3C:  MOVWF  FE9
02E3E:  MOVLW  05
02E40:  ADDWFC 03,W
02E42:  MOVWF  FEA
02E44:  MOVLB  1
02E46:  MOVF   xF9,W
02E48:  MULLW  08
02E4A:  MOVF   FF3,W
02E4C:  ADDLW  6B
02E4E:  MOVLB  6
02E50:  MOVWF  x52
02E52:  MOVFF  FF2,653
02E56:  BCF    FF2.6
02E58:  BCF    FF2.7
02E5A:  CLRF   FAA
02E5C:  MOVFF  652,FA9
02E60:  BCF    FA6.6
02E62:  BCF    FA6.7
02E64:  BSF    FA6.0
02E66:  MOVF   FA8,W
02E68:  BTFSC  x53.6
02E6A:  BSF    FF2.6
02E6C:  BTFSC  x53.7
02E6E:  BSF    FF2.7
02E70:  MOVWF  FEF
....................        
....................       if(CiclosPersonalizados[i].Temperatura>134 || CiclosPersonalizados[i].Temperatura<105) 
02E72:  MOVLB  1
02E74:  MOVF   xF9,W
02E76:  MULLW  08
02E78:  MOVF   FF3,W
02E7A:  MOVLB  6
02E7C:  CLRF   x51
02E7E:  MOVWF  x50
02E80:  MOVLW  88
02E82:  ADDWF  x50,W
02E84:  MOVWF  FE9
02E86:  MOVLW  05
02E88:  ADDWFC x51,W
02E8A:  MOVWF  FEA
02E8C:  MOVF   FEF,W
02E8E:  SUBLW  86
02E90:  BNC   2EB2
02E92:  MOVLB  1
02E94:  MOVF   xF9,W
02E96:  MULLW  08
02E98:  MOVF   FF3,W
02E9A:  MOVLB  6
02E9C:  CLRF   x51
02E9E:  MOVWF  x50
02EA0:  MOVLW  88
02EA2:  ADDWF  x50,W
02EA4:  MOVWF  FE9
02EA6:  MOVLW  05
02EA8:  ADDWFC x51,W
02EAA:  MOVWF  FEA
02EAC:  MOVF   FEF,W
02EAE:  SUBLW  68
02EB0:  BNC   2ED0
....................          CiclosPersonalizados[i].Temperatura=121; 
02EB2:  MOVLB  1
02EB4:  MOVF   xF9,W
02EB6:  MULLW  08
02EB8:  MOVF   FF3,W
02EBA:  MOVLB  6
02EBC:  CLRF   x51
02EBE:  MOVWF  x50
02EC0:  MOVLW  88
02EC2:  ADDWF  x50,W
02EC4:  MOVWF  FE9
02EC6:  MOVLW  05
02EC8:  ADDWFC x51,W
02ECA:  MOVWF  FEA
02ECC:  MOVLW  79
02ECE:  MOVWF  FEF
....................       if(CiclosPersonalizados[i].Minutoest>99 || CiclosPersonalizados[i].Minutoest<1) 
02ED0:  MOVLB  1
02ED2:  MOVF   xF9,W
02ED4:  MULLW  08
02ED6:  MOVF   FF3,W
02ED8:  MOVLB  6
02EDA:  CLRF   x51
02EDC:  MOVWF  x50
02EDE:  MOVLW  01
02EE0:  ADDWF  x50,W
02EE2:  MOVWF  01
02EE4:  MOVLW  00
02EE6:  ADDWFC x51,W
02EE8:  MOVWF  03
02EEA:  MOVF   01,W
02EEC:  ADDLW  88
02EEE:  MOVWF  FE9
02EF0:  MOVLW  05
02EF2:  ADDWFC 03,W
02EF4:  MOVWF  FEA
02EF6:  MOVF   FEF,W
02EF8:  SUBLW  63
02EFA:  BNC   2F26
02EFC:  MOVLB  1
02EFE:  MOVF   xF9,W
02F00:  MULLW  08
02F02:  MOVF   FF3,W
02F04:  MOVLB  6
02F06:  CLRF   x51
02F08:  MOVWF  x50
02F0A:  MOVLW  01
02F0C:  ADDWF  x50,W
02F0E:  MOVWF  01
02F10:  MOVLW  00
02F12:  ADDWFC x51,W
02F14:  MOVWF  03
02F16:  MOVF   01,W
02F18:  ADDLW  88
02F1A:  MOVWF  FE9
02F1C:  MOVLW  05
02F1E:  ADDWFC 03,W
02F20:  MOVWF  FEA
02F22:  MOVF   FEF,F
02F24:  BNZ   2F50
....................          CiclosPersonalizados[i].Minutoest=3; 
02F26:  MOVLB  1
02F28:  MOVF   xF9,W
02F2A:  MULLW  08
02F2C:  MOVF   FF3,W
02F2E:  MOVLB  6
02F30:  CLRF   x51
02F32:  MOVWF  x50
02F34:  MOVLW  01
02F36:  ADDWF  x50,W
02F38:  MOVWF  01
02F3A:  MOVLW  00
02F3C:  ADDWFC x51,W
02F3E:  MOVWF  03
02F40:  MOVF   01,W
02F42:  ADDLW  88
02F44:  MOVWF  FE9
02F46:  MOVLW  05
02F48:  ADDWFC 03,W
02F4A:  MOVWF  FEA
02F4C:  MOVLW  03
02F4E:  MOVWF  FEF
....................       if(CiclosPersonalizados[i].Minutosec>99 || CiclosPersonalizados[i].Minutosec<1) 
02F50:  MOVLB  1
02F52:  MOVF   xF9,W
02F54:  MULLW  08
02F56:  MOVF   FF3,W
02F58:  MOVLB  6
02F5A:  CLRF   x51
02F5C:  MOVWF  x50
02F5E:  MOVLW  03
02F60:  ADDWF  x50,W
02F62:  MOVWF  01
02F64:  MOVLW  00
02F66:  ADDWFC x51,W
02F68:  MOVWF  03
02F6A:  MOVF   01,W
02F6C:  ADDLW  88
02F6E:  MOVWF  FE9
02F70:  MOVLW  05
02F72:  ADDWFC 03,W
02F74:  MOVWF  FEA
02F76:  MOVF   FEF,W
02F78:  SUBLW  63
02F7A:  BNC   2FA6
02F7C:  MOVLB  1
02F7E:  MOVF   xF9,W
02F80:  MULLW  08
02F82:  MOVF   FF3,W
02F84:  MOVLB  6
02F86:  CLRF   x51
02F88:  MOVWF  x50
02F8A:  MOVLW  03
02F8C:  ADDWF  x50,W
02F8E:  MOVWF  01
02F90:  MOVLW  00
02F92:  ADDWFC x51,W
02F94:  MOVWF  03
02F96:  MOVF   01,W
02F98:  ADDLW  88
02F9A:  MOVWF  FE9
02F9C:  MOVLW  05
02F9E:  ADDWFC 03,W
02FA0:  MOVWF  FEA
02FA2:  MOVF   FEF,F
02FA4:  BNZ   2FD0
....................          CiclosPersonalizados[i].Minutosec=1;    
02FA6:  MOVLB  1
02FA8:  MOVF   xF9,W
02FAA:  MULLW  08
02FAC:  MOVF   FF3,W
02FAE:  MOVLB  6
02FB0:  CLRF   x51
02FB2:  MOVWF  x50
02FB4:  MOVLW  03
02FB6:  ADDWF  x50,W
02FB8:  MOVWF  01
02FBA:  MOVLW  00
02FBC:  ADDWFC x51,W
02FBE:  MOVWF  03
02FC0:  MOVF   01,W
02FC2:  ADDLW  88
02FC4:  MOVWF  FE9
02FC6:  MOVLW  05
02FC8:  ADDWFC 03,W
02FCA:  MOVWF  FEA
02FCC:  MOVLW  01
02FCE:  MOVWF  FEF
....................       if(CiclosPersonalizados[i].Segundoest>59) 
02FD0:  MOVLB  1
02FD2:  MOVF   xF9,W
02FD4:  MULLW  08
02FD6:  MOVF   FF3,W
02FD8:  MOVLB  6
02FDA:  CLRF   x51
02FDC:  MOVWF  x50
02FDE:  MOVLW  02
02FE0:  ADDWF  x50,W
02FE2:  MOVWF  01
02FE4:  MOVLW  00
02FE6:  ADDWFC x51,W
02FE8:  MOVWF  03
02FEA:  MOVF   01,W
02FEC:  ADDLW  88
02FEE:  MOVWF  FE9
02FF0:  MOVLW  05
02FF2:  ADDWFC 03,W
02FF4:  MOVWF  FEA
02FF6:  MOVF   FEF,W
02FF8:  SUBLW  3B
02FFA:  BC    3024
....................          CiclosPersonalizados[i].Segundoest=0; 
02FFC:  MOVLB  1
02FFE:  MOVF   xF9,W
03000:  MULLW  08
03002:  MOVF   FF3,W
03004:  MOVLB  6
03006:  CLRF   x51
03008:  MOVWF  x50
0300A:  MOVLW  02
0300C:  ADDWF  x50,W
0300E:  MOVWF  01
03010:  MOVLW  00
03012:  ADDWFC x51,W
03014:  MOVWF  03
03016:  MOVF   01,W
03018:  ADDLW  88
0301A:  MOVWF  FE9
0301C:  MOVLW  05
0301E:  ADDWFC 03,W
03020:  MOVWF  FEA
03022:  CLRF   FEF
....................       if(CiclosPersonalizados[i].Segundosec>59) 
03024:  MOVLB  1
03026:  MOVF   xF9,W
03028:  MULLW  08
0302A:  MOVF   FF3,W
0302C:  MOVLB  6
0302E:  CLRF   x51
03030:  MOVWF  x50
03032:  MOVLW  04
03034:  ADDWF  x50,W
03036:  MOVWF  01
03038:  MOVLW  00
0303A:  ADDWFC x51,W
0303C:  MOVWF  03
0303E:  MOVF   01,W
03040:  ADDLW  88
03042:  MOVWF  FE9
03044:  MOVLW  05
03046:  ADDWFC 03,W
03048:  MOVWF  FEA
0304A:  MOVF   FEF,W
0304C:  SUBLW  3B
0304E:  BC    3078
....................          CiclosPersonalizados[i].Segundosec=0;       
03050:  MOVLB  1
03052:  MOVF   xF9,W
03054:  MULLW  08
03056:  MOVF   FF3,W
03058:  MOVLB  6
0305A:  CLRF   x51
0305C:  MOVWF  x50
0305E:  MOVLW  04
03060:  ADDWF  x50,W
03062:  MOVWF  01
03064:  MOVLW  00
03066:  ADDWFC x51,W
03068:  MOVWF  03
0306A:  MOVF   01,W
0306C:  ADDLW  88
0306E:  MOVWF  FE9
03070:  MOVLW  05
03072:  ADDWFC 03,W
03074:  MOVWF  FEA
03076:  CLRF   FEF
....................       if(CiclosPersonalizados[i].PulsosVacio>15) 
03078:  MOVLB  1
0307A:  MOVF   xF9,W
0307C:  MULLW  08
0307E:  MOVF   FF3,W
03080:  MOVLB  6
03082:  CLRF   x51
03084:  MOVWF  x50
03086:  MOVLW  05
03088:  ADDWF  x50,W
0308A:  MOVWF  01
0308C:  MOVLW  00
0308E:  ADDWFC x51,W
03090:  MOVWF  03
03092:  MOVF   01,W
03094:  ADDLW  88
03096:  MOVWF  FE9
03098:  MOVLW  05
0309A:  ADDWFC 03,W
0309C:  MOVWF  FEA
0309E:  MOVF   FEF,W
030A0:  SUBLW  0F
030A2:  BC    30CE
....................          CiclosPersonalizados[i].PulsosVacio=4; 
030A4:  MOVLB  1
030A6:  MOVF   xF9,W
030A8:  MULLW  08
030AA:  MOVF   FF3,W
030AC:  MOVLB  6
030AE:  CLRF   x51
030B0:  MOVWF  x50
030B2:  MOVLW  05
030B4:  ADDWF  x50,W
030B6:  MOVWF  01
030B8:  MOVLW  00
030BA:  ADDWFC x51,W
030BC:  MOVWF  03
030BE:  MOVF   01,W
030C0:  ADDLW  88
030C2:  MOVWF  FE9
030C4:  MOVLW  05
030C6:  ADDWFC 03,W
030C8:  MOVWF  FEA
030CA:  MOVLW  04
030CC:  MOVWF  FEF
....................       if(CiclosPersonalizados[i].NivelVacio>100 || CiclosPersonalizados[i].NivelVacio<10) 
030CE:  MOVLB  1
030D0:  MOVF   xF9,W
030D2:  MULLW  08
030D4:  MOVF   FF3,W
030D6:  MOVLB  6
030D8:  CLRF   x51
030DA:  MOVWF  x50
030DC:  MOVLW  06
030DE:  ADDWF  x50,W
030E0:  MOVWF  01
030E2:  MOVLW  00
030E4:  ADDWFC x51,W
030E6:  MOVWF  03
030E8:  MOVF   01,W
030EA:  ADDLW  88
030EC:  MOVWF  FE9
030EE:  MOVLW  05
030F0:  ADDWFC 03,W
030F2:  MOVWF  FEA
030F4:  MOVF   FEF,W
030F6:  SUBLW  64
030F8:  BNC   3126
030FA:  MOVLB  1
030FC:  MOVF   xF9,W
030FE:  MULLW  08
03100:  MOVF   FF3,W
03102:  MOVLB  6
03104:  CLRF   x51
03106:  MOVWF  x50
03108:  MOVLW  06
0310A:  ADDWF  x50,W
0310C:  MOVWF  01
0310E:  MOVLW  00
03110:  ADDWFC x51,W
03112:  MOVWF  03
03114:  MOVF   01,W
03116:  ADDLW  88
03118:  MOVWF  FE9
0311A:  MOVLW  05
0311C:  ADDWFC 03,W
0311E:  MOVWF  FEA
03120:  MOVF   FEF,W
03122:  SUBLW  09
03124:  BNC   3150
....................          CiclosPersonalizados[i].NivelVacio=25;    
03126:  MOVLB  1
03128:  MOVF   xF9,W
0312A:  MULLW  08
0312C:  MOVF   FF3,W
0312E:  MOVLB  6
03130:  CLRF   x51
03132:  MOVWF  x50
03134:  MOVLW  06
03136:  ADDWF  x50,W
03138:  MOVWF  01
0313A:  MOVLW  00
0313C:  ADDWFC x51,W
0313E:  MOVWF  03
03140:  MOVF   01,W
03142:  ADDLW  88
03144:  MOVWF  FE9
03146:  MOVLW  05
03148:  ADDWFC 03,W
0314A:  MOVWF  FEA
0314C:  MOVLW  19
0314E:  MOVWF  FEF
....................       if(CiclosPersonalizados[i].NivelDesfogue>6) 
03150:  MOVLB  1
03152:  MOVF   xF9,W
03154:  MULLW  08
03156:  MOVF   FF3,W
03158:  MOVLB  6
0315A:  CLRF   x51
0315C:  MOVWF  x50
0315E:  MOVLW  07
03160:  ADDWF  x50,W
03162:  MOVWF  01
03164:  MOVLW  00
03166:  ADDWFC x51,W
03168:  MOVWF  03
0316A:  MOVF   01,W
0316C:  ADDLW  88
0316E:  MOVWF  FE9
03170:  MOVLW  05
03172:  ADDWFC 03,W
03174:  MOVWF  FEA
03176:  MOVF   FEF,W
03178:  SUBLW  06
0317A:  BC    31A6
....................          CiclosPersonalizados[i].NivelDesfogue=6; 
0317C:  MOVLB  1
0317E:  MOVF   xF9,W
03180:  MULLW  08
03182:  MOVF   FF3,W
03184:  MOVLB  6
03186:  CLRF   x51
03188:  MOVWF  x50
0318A:  MOVLW  07
0318C:  ADDWF  x50,W
0318E:  MOVWF  01
03190:  MOVLW  00
03192:  ADDWFC x51,W
03194:  MOVWF  03
03196:  MOVF   01,W
03198:  ADDLW  88
0319A:  MOVWF  FE9
0319C:  MOVLW  05
0319E:  ADDWFC 03,W
031A0:  MOVWF  FEA
031A2:  MOVLW  06
031A4:  MOVWF  FEF
....................    } 
031A6:  MOVLB  1
031A8:  INCF   xF9,F
031AA:  BRA    2BD8
....................     
....................    for(i=0;i<10;i++){//Lee contraseas de usuarios 
031AC:  CLRF   xF9
031AE:  MOVF   xF9,W
031B0:  SUBLW  09
031B2:  BNC   3294
....................       for(j=0;j<4;j++){ 
031B4:  MOVLB  2
031B6:  CLRF   x4F
031B8:  MOVF   x4F,W
031BA:  SUBLW  03
031BC:  BNC   328E
....................          Clave[i].Password[j]=read_eeprom((300+j)+(i*4)); 
031BE:  MOVLB  1
031C0:  MOVF   xF9,W
031C2:  MULLW  04
031C4:  MOVF   FF3,W
031C6:  MOVLB  6
031C8:  CLRF   x51
031CA:  MOVWF  x50
031CC:  CLRF   03
031CE:  MOVLB  2
031D0:  MOVF   x4F,W
031D2:  MOVLB  6
031D4:  ADDWF  x50,W
031D6:  MOVWF  01
031D8:  MOVF   x51,W
031DA:  ADDWFC 03,F
031DC:  MOVF   01,W
031DE:  ADDLW  28
031E0:  MOVWF  FE9
031E2:  MOVLW  06
031E4:  ADDWFC 03,W
031E6:  MOVWF  FEA
031E8:  MOVLW  2C
031EA:  MOVLB  2
031EC:  ADDWF  x4F,W
031EE:  MOVLB  6
031F0:  MOVWF  x52
031F2:  MOVLW  01
031F4:  MOVWF  x53
031F6:  BTFSC  FD8.0
031F8:  INCF   x53,F
031FA:  MOVLB  1
031FC:  MOVF   xF9,W
031FE:  MULLW  04
03200:  MOVF   FF3,W
03202:  MOVLB  6
03204:  ADDWF  x52,F
03206:  MOVLW  00
03208:  ADDWFC x53,F
0320A:  MOVFF  FF2,654
0320E:  BCF    FF2.6
03210:  BCF    FF2.7
03212:  MOVFF  653,FAA
03216:  MOVFF  652,FA9
0321A:  BCF    FA6.6
0321C:  BCF    FA6.7
0321E:  BSF    FA6.0
03220:  MOVF   FA8,W
03222:  BTFSC  x54.6
03224:  BSF    FF2.6
03226:  BTFSC  x54.7
03228:  BSF    FF2.7
0322A:  MOVWF  FEF
....................          if(Clave[i].Password[j]>9) 
0322C:  MOVLB  1
0322E:  MOVF   xF9,W
03230:  MULLW  04
03232:  MOVF   FF3,W
03234:  MOVLB  6
03236:  CLRF   x51
03238:  MOVWF  x50
0323A:  CLRF   03
0323C:  MOVLB  2
0323E:  MOVF   x4F,W
03240:  MOVLB  6
03242:  ADDWF  x50,W
03244:  MOVWF  01
03246:  MOVF   x51,W
03248:  ADDWFC 03,F
0324A:  MOVF   01,W
0324C:  ADDLW  28
0324E:  MOVWF  FE9
03250:  MOVLW  06
03252:  ADDWFC 03,W
03254:  MOVWF  FEA
03256:  MOVF   FEF,W
03258:  SUBLW  09
0325A:  BC    3288
....................             Clave[i].Password[j]=0; 
0325C:  MOVLB  1
0325E:  MOVF   xF9,W
03260:  MULLW  04
03262:  MOVF   FF3,W
03264:  MOVLB  6
03266:  CLRF   x51
03268:  MOVWF  x50
0326A:  CLRF   03
0326C:  MOVLB  2
0326E:  MOVF   x4F,W
03270:  MOVLB  6
03272:  ADDWF  x50,W
03274:  MOVWF  01
03276:  MOVF   x51,W
03278:  ADDWFC 03,F
0327A:  MOVF   01,W
0327C:  ADDLW  28
0327E:  MOVWF  FE9
03280:  MOVLW  06
03282:  ADDWFC 03,W
03284:  MOVWF  FEA
03286:  CLRF   FEF
....................       } 
03288:  MOVLB  2
0328A:  INCF   x4F,F
0328C:  BRA    31B8
....................    } 
0328E:  MOVLB  1
03290:  INCF   xF9,F
03292:  BRA    31AE
....................     
....................    diaCiclos=read_ext_eeprom(2+(cicloVisto*320)); 
03294:  MOVLB  6
03296:  CLRF   x5B
03298:  MOVFF  240,65A
0329C:  MOVLW  01
0329E:  MOVWF  x5D
032A0:  MOVLW  40
032A2:  MOVWF  x5C
032A4:  MOVLB  0
032A6:  CALL   21C4
032AA:  MOVFF  02,03
032AE:  MOVF   01,W
032B0:  ADDLW  02
032B2:  MOVLB  6
032B4:  MOVWF  x50
032B6:  MOVLW  00
032B8:  ADDWFC 02,W
032BA:  MOVWF  x51
032BC:  MOVWF  x56
032BE:  MOVFF  650,655
032C2:  MOVLB  0
032C4:  CALL   22C6
032C8:  MOVFF  01,2B7
....................    if(diaCiclos>31) 
032CC:  MOVLB  2
032CE:  MOVF   xB7,W
032D0:  SUBLW  1F
032D2:  BC    32D8
....................       diaCiclos=1; 
032D4:  MOVLW  01
032D6:  MOVWF  xB7
....................    mesCiclos=read_ext_eeprom(3+(cicloVisto*320)); 
032D8:  MOVLB  6
032DA:  CLRF   x5B
032DC:  MOVFF  240,65A
032E0:  MOVLW  01
032E2:  MOVWF  x5D
032E4:  MOVLW  40
032E6:  MOVWF  x5C
032E8:  MOVLB  0
032EA:  CALL   21C4
032EE:  MOVFF  02,03
032F2:  MOVF   01,W
032F4:  ADDLW  03
032F6:  MOVLB  6
032F8:  MOVWF  x50
032FA:  MOVLW  00
032FC:  ADDWFC 02,W
032FE:  MOVWF  x51
03300:  MOVWF  x56
03302:  MOVFF  650,655
03306:  MOVLB  0
03308:  CALL   22C6
0330C:  MOVFF  01,2B8
....................    if(mesCiclos>12) 
03310:  MOVLB  2
03312:  MOVF   xB8,W
03314:  SUBLW  0C
03316:  BC    331C
....................       mesCiclos=1; 
03318:  MOVLW  01
0331A:  MOVWF  xB8
....................    yearCiclos=read_ext_eeprom(4+(cicloVisto*320)); 
0331C:  MOVLB  6
0331E:  CLRF   x5B
03320:  MOVFF  240,65A
03324:  MOVLW  01
03326:  MOVWF  x5D
03328:  MOVLW  40
0332A:  MOVWF  x5C
0332C:  MOVLB  0
0332E:  CALL   21C4
03332:  MOVFF  02,03
03336:  MOVF   01,W
03338:  ADDLW  04
0333A:  MOVLB  6
0333C:  MOVWF  x50
0333E:  MOVLW  00
03340:  ADDWFC 02,W
03342:  MOVWF  x51
03344:  MOVWF  x56
03346:  MOVFF  650,655
0334A:  MOVLB  0
0334C:  CALL   22C6
03350:  MOVFF  01,2B9
....................    if(yearCiclos>99) 
03354:  MOVLB  2
03356:  MOVF   xB9,W
03358:  SUBLW  63
0335A:  BC    3360
....................       yearCiclos=19; 
0335C:  MOVLW  13
0335E:  MOVWF  xB9
....................    cicloCiclos=read_ext_eeprom(1+(cicloVisto*320)); 
03360:  MOVLB  6
03362:  CLRF   x5B
03364:  MOVFF  240,65A
03368:  MOVLW  01
0336A:  MOVWF  x5D
0336C:  MOVLW  40
0336E:  MOVWF  x5C
03370:  MOVLB  0
03372:  CALL   21C4
03376:  MOVFF  02,03
0337A:  MOVF   01,W
0337C:  ADDLW  01
0337E:  MOVLB  6
03380:  MOVWF  x50
03382:  MOVLW  00
03384:  ADDWFC 02,W
03386:  MOVWF  x51
03388:  MOVWF  x56
0338A:  MOVFF  650,655
0338E:  MOVLB  0
03390:  CALL   22C6
03394:  MOVFF  01,2BB
....................    if(cicloCiclos>20) 
03398:  MOVLB  2
0339A:  MOVF   xBB,W
0339C:  SUBLW  14
0339E:  BC    33A4
....................       cicloCiclos=1; 
033A0:  MOVLW  01
033A2:  MOVWF  xBB
....................    usuarioCiclos=read_ext_eeprom((cicloVisto*320)); 
033A4:  MOVLB  6
033A6:  CLRF   x5B
033A8:  MOVFF  240,65A
033AC:  MOVLW  01
033AE:  MOVWF  x5D
033B0:  MOVLW  40
033B2:  MOVWF  x5C
033B4:  MOVLB  0
033B6:  CALL   21C4
033BA:  MOVFF  02,651
033BE:  MOVFF  01,650
033C2:  MOVFF  02,656
033C6:  MOVFF  01,655
033CA:  CALL   22C6
033CE:  MOVFF  01,2BA
....................    if(usuarioCiclos>10) 
033D2:  MOVLB  2
033D4:  MOVF   xBA,W
033D6:  SUBLW  0A
033D8:  BC    33DE
....................       usuarioCiclos=1; 
033DA:  MOVLW  01
033DC:  MOVWF  xBA
....................    for(i=0;i<7;i++){//Lee Valores para completar la Tabla 
033DE:  MOVLB  1
033E0:  CLRF   xF9
033E2:  MOVF   xF9,W
033E4:  SUBLW  06
033E6:  BTFSS  FD8.0
033E8:  BRA    3944
....................       horaCiclos[i]=read_ext_eeprom((cicloVisto*320)+11+((cicloVisualizado+i)*9)); 
033EA:  CLRF   03
033EC:  MOVF   xF9,W
033EE:  ADDLW  A2
033F0:  MOVWF  01
033F2:  MOVLW  02
033F4:  ADDWFC 03,F
033F6:  MOVFF  01,650
033FA:  MOVLB  6
033FC:  MOVFF  03,651
03400:  CLRF   x5B
03402:  MOVFF  240,65A
03406:  MOVLW  01
03408:  MOVWF  x5D
0340A:  MOVLW  40
0340C:  MOVWF  x5C
0340E:  MOVLB  0
03410:  CALL   21C4
03414:  MOVFF  02,653
03418:  MOVFF  01,652
0341C:  MOVLW  0B
0341E:  MOVLB  6
03420:  ADDWF  x52,F
03422:  MOVLW  00
03424:  ADDWFC x53,F
03426:  MOVLB  1
03428:  MOVF   xF9,W
0342A:  MOVLB  2
0342C:  ADDWF  x3F,W
0342E:  MULLW  09
03430:  MOVF   FF3,W
03432:  MOVLB  6
03434:  ADDWF  x52,F
03436:  MOVLW  00
03438:  ADDWFC x53,F
0343A:  MOVFF  653,656
0343E:  MOVFF  652,655
03442:  MOVLB  0
03444:  CALL   22C6
03448:  MOVFF  651,FEA
0344C:  MOVFF  650,FE9
03450:  MOVFF  01,FEF
....................       if(horaCiclos[i]>24) 
03454:  CLRF   03
03456:  MOVLB  1
03458:  MOVF   xF9,W
0345A:  ADDLW  A2
0345C:  MOVWF  FE9
0345E:  MOVLW  02
03460:  ADDWFC 03,W
03462:  MOVWF  FEA
03464:  MOVF   FEF,W
03466:  SUBLW  18
03468:  BC    347A
....................          horaCiclos[i]=0; 
0346A:  CLRF   03
0346C:  MOVF   xF9,W
0346E:  ADDLW  A2
03470:  MOVWF  FE9
03472:  MOVLW  02
03474:  ADDWFC 03,W
03476:  MOVWF  FEA
03478:  CLRF   FEF
....................       minutoCiclos[i]=read_ext_eeprom((cicloVisto*320)+12+((cicloVisualizado+i)*9)); 
0347A:  CLRF   03
0347C:  MOVF   xF9,W
0347E:  ADDLW  A9
03480:  MOVWF  01
03482:  MOVLW  02
03484:  ADDWFC 03,F
03486:  MOVFF  01,650
0348A:  MOVLB  6
0348C:  MOVFF  03,651
03490:  CLRF   x5B
03492:  MOVFF  240,65A
03496:  MOVLW  01
03498:  MOVWF  x5D
0349A:  MOVLW  40
0349C:  MOVWF  x5C
0349E:  MOVLB  0
034A0:  CALL   21C4
034A4:  MOVFF  02,653
034A8:  MOVFF  01,652
034AC:  MOVLW  0C
034AE:  MOVLB  6
034B0:  ADDWF  x52,F
034B2:  MOVLW  00
034B4:  ADDWFC x53,F
034B6:  MOVLB  1
034B8:  MOVF   xF9,W
034BA:  MOVLB  2
034BC:  ADDWF  x3F,W
034BE:  MULLW  09
034C0:  MOVF   FF3,W
034C2:  MOVLB  6
034C4:  ADDWF  x52,F
034C6:  MOVLW  00
034C8:  ADDWFC x53,F
034CA:  MOVFF  653,656
034CE:  MOVFF  652,655
034D2:  MOVLB  0
034D4:  CALL   22C6
034D8:  MOVFF  651,FEA
034DC:  MOVFF  650,FE9
034E0:  MOVFF  01,FEF
....................       if(minutoCiclos[i]>59) 
034E4:  CLRF   03
034E6:  MOVLB  1
034E8:  MOVF   xF9,W
034EA:  ADDLW  A9
034EC:  MOVWF  FE9
034EE:  MOVLW  02
034F0:  ADDWFC 03,W
034F2:  MOVWF  FEA
034F4:  MOVF   FEF,W
034F6:  SUBLW  3B
034F8:  BC    350A
....................          minutoCiclos[i]=0; 
034FA:  CLRF   03
034FC:  MOVF   xF9,W
034FE:  ADDLW  A9
03500:  MOVWF  FE9
03502:  MOVLW  02
03504:  ADDWFC 03,W
03506:  MOVWF  FEA
03508:  CLRF   FEF
....................       TCiclos[i]=read_ext_eeprom((cicloVisto*320)+5+((cicloVisualizado+i)*9))+inttofloat(read_ext_eeprom((cicloVisto*320)+6+((cicloVisualizado+i)*9))); 
0350A:  MOVF   xF9,W
0350C:  MULLW  04
0350E:  MOVF   FF3,W
03510:  CLRF   03
03512:  ADDLW  6A
03514:  MOVWF  01
03516:  MOVLW  02
03518:  ADDWFC 03,F
0351A:  MOVFF  01,650
0351E:  MOVLB  6
03520:  MOVFF  03,651
03524:  CLRF   x5B
03526:  MOVFF  240,65A
0352A:  MOVLW  01
0352C:  MOVWF  x5D
0352E:  MOVLW  40
03530:  MOVWF  x5C
03532:  MOVLB  0
03534:  CALL   21C4
03538:  MOVFF  02,653
0353C:  MOVFF  01,652
03540:  MOVLW  05
03542:  MOVLB  6
03544:  ADDWF  x52,F
03546:  MOVLW  00
03548:  ADDWFC x53,F
0354A:  MOVLB  1
0354C:  MOVF   xF9,W
0354E:  MOVLB  2
03550:  ADDWF  x3F,W
03552:  MULLW  09
03554:  MOVF   FF3,W
03556:  MOVLB  6
03558:  ADDWF  x52,F
0355A:  MOVLW  00
0355C:  ADDWFC x53,F
0355E:  MOVFF  653,656
03562:  MOVFF  652,655
03566:  MOVLB  0
03568:  CALL   22C6
0356C:  MOVFF  01,652
03570:  MOVLB  6
03572:  CLRF   x5B
03574:  MOVFF  240,65A
03578:  MOVLW  01
0357A:  MOVWF  x5D
0357C:  MOVLW  40
0357E:  MOVWF  x5C
03580:  MOVLB  0
03582:  CALL   21C4
03586:  MOVFF  02,654
0358A:  MOVFF  01,653
0358E:  MOVLW  06
03590:  MOVLB  6
03592:  ADDWF  x53,F
03594:  MOVLW  00
03596:  ADDWFC x54,F
03598:  MOVLB  1
0359A:  MOVF   xF9,W
0359C:  MOVLB  2
0359E:  ADDWF  x3F,W
035A0:  MULLW  09
035A2:  MOVF   FF3,W
035A4:  MOVLB  6
035A6:  ADDWF  x53,F
035A8:  MOVLW  00
035AA:  ADDWFC x54,F
035AC:  MOVFF  654,656
035B0:  MOVFF  653,655
035B4:  MOVLB  0
035B6:  CALL   22C6
035BA:  MOVFF  01,653
035BE:  MOVFF  01,654
035C2:  CALL   24CC
035C6:  MOVFF  00,653
035CA:  MOVFF  01,654
035CE:  MOVFF  02,655
035D2:  MOVFF  03,656
035D6:  MOVLB  6
035D8:  CLRF   x63
035DA:  MOVFF  652,662
035DE:  MOVLB  0
035E0:  CALL   20F2
035E4:  MOVFF  FEA,658
035E8:  MOVFF  FE9,657
035EC:  BCF    FD8.1
035EE:  MOVFF  03,665
035F2:  MOVFF  02,664
035F6:  MOVFF  01,663
035FA:  MOVFF  00,662
035FE:  MOVFF  656,669
03602:  MOVFF  655,668
03606:  MOVFF  654,667
0360A:  MOVFF  653,666
0360E:  CALL   250C
03612:  MOVFF  658,FEA
03616:  MOVFF  657,FE9
0361A:  MOVFF  651,FEA
0361E:  MOVFF  650,FE9
03622:  MOVFF  00,FEF
03626:  MOVFF  01,FEC
0362A:  MOVFF  02,FEC
0362E:  MOVFF  03,FEC
....................       if(TCiclos[i]>200) 
03632:  MOVLB  1
03634:  MOVF   xF9,W
03636:  MULLW  04
03638:  MOVF   FF3,W
0363A:  CLRF   03
0363C:  ADDLW  6A
0363E:  MOVWF  FE9
03640:  MOVLW  02
03642:  ADDWFC 03,W
03644:  MOVWF  FEA
03646:  MOVFF  FEF,650
0364A:  MOVFF  FEC,651
0364E:  MOVFF  FEC,652
03652:  MOVFF  FEC,653
03656:  MOVLB  6
03658:  CLRF   x57
0365A:  CLRF   x56
0365C:  MOVLW  48
0365E:  MOVWF  x55
03660:  MOVLW  86
03662:  MOVWF  x54
03664:  MOVFF  653,65B
03668:  MOVFF  652,65A
0366C:  MOVFF  651,659
03670:  MOVFF  650,658
03674:  MOVLB  0
03676:  CALL   2784
0367A:  BNC   369A
....................          TCiclos[i]=0; 
0367C:  MOVLB  1
0367E:  MOVF   xF9,W
03680:  MULLW  04
03682:  MOVF   FF3,W
03684:  CLRF   03
03686:  ADDLW  6A
03688:  MOVWF  FE9
0368A:  MOVLW  02
0368C:  ADDWFC 03,W
0368E:  MOVWF  FEA
03690:  CLRF   FEF
03692:  CLRF   FEC
03694:  CLRF   FEC
03696:  CLRF   FEC
03698:  MOVLB  0
....................       PcCiclos[i]=make16(read_ext_eeprom((cicloVisto*320)+7+((cicloVisualizado+i)*9)),read_ext_eeprom((cicloVisto*320)+8+((cicloVisualizado+i)*9))); 
0369A:  BCF    FD8.0
0369C:  MOVLB  1
0369E:  RLCF   xF9,W
036A0:  CLRF   03
036A2:  ADDLW  86
036A4:  MOVWF  01
036A6:  MOVLW  02
036A8:  ADDWFC 03,F
036AA:  MOVFF  01,650
036AE:  MOVLB  6
036B0:  MOVFF  03,651
036B4:  CLRF   x5B
036B6:  MOVFF  240,65A
036BA:  MOVLW  01
036BC:  MOVWF  x5D
036BE:  MOVLW  40
036C0:  MOVWF  x5C
036C2:  MOVLB  0
036C4:  CALL   21C4
036C8:  MOVFF  02,653
036CC:  MOVFF  01,652
036D0:  MOVLW  07
036D2:  MOVLB  6
036D4:  ADDWF  x52,F
036D6:  MOVLW  00
036D8:  ADDWFC x53,F
036DA:  MOVLB  1
036DC:  MOVF   xF9,W
036DE:  MOVLB  2
036E0:  ADDWF  x3F,W
036E2:  MULLW  09
036E4:  MOVF   FF3,W
036E6:  MOVLB  6
036E8:  ADDWF  x52,F
036EA:  MOVLW  00
036EC:  ADDWFC x53,F
036EE:  MOVFF  653,656
036F2:  MOVFF  652,655
036F6:  MOVLB  0
036F8:  CALL   22C6
036FC:  MOVFF  01,652
03700:  MOVLB  6
03702:  CLRF   x5B
03704:  MOVFF  240,65A
03708:  MOVLW  01
0370A:  MOVWF  x5D
0370C:  MOVLW  40
0370E:  MOVWF  x5C
03710:  MOVLB  0
03712:  CALL   21C4
03716:  MOVFF  02,654
0371A:  MOVFF  01,653
0371E:  MOVLW  08
03720:  MOVLB  6
03722:  ADDWF  x53,F
03724:  MOVLW  00
03726:  ADDWFC x54,F
03728:  MOVLB  1
0372A:  MOVF   xF9,W
0372C:  MOVLB  2
0372E:  ADDWF  x3F,W
03730:  MULLW  09
03732:  MOVF   FF3,W
03734:  MOVLB  6
03736:  ADDWF  x53,F
03738:  MOVLW  00
0373A:  ADDWFC x54,F
0373C:  MOVFF  654,656
03740:  MOVFF  653,655
03744:  MOVLB  0
03746:  CALL   22C6
0374A:  MOVFF  651,FEA
0374E:  MOVFF  650,FE9
03752:  MOVFF  652,FEC
03756:  MOVF   FED,F
03758:  MOVFF  01,FEF
....................       if(PcCiclos[i]>500) 
0375C:  BCF    FD8.0
0375E:  MOVLB  1
03760:  RLCF   xF9,W
03762:  CLRF   03
03764:  ADDLW  86
03766:  MOVWF  FE9
03768:  MOVLW  02
0376A:  ADDWFC 03,W
0376C:  MOVWF  FEA
0376E:  MOVFF  FEC,651
03772:  MOVF   FED,F
03774:  MOVFF  FEF,650
03778:  MOVLB  6
0377A:  MOVF   x51,W
0377C:  SUBLW  00
0377E:  BC    37A4
03780:  XORLW  FF
03782:  BNZ   378A
03784:  MOVF   x50,W
03786:  SUBLW  F4
03788:  BC    37A4
....................          PcCiclos[i]=0; 
0378A:  BCF    FD8.0
0378C:  MOVLB  1
0378E:  RLCF   xF9,W
03790:  CLRF   03
03792:  ADDLW  86
03794:  MOVWF  FE9
03796:  MOVLW  02
03798:  ADDWFC 03,W
0379A:  MOVWF  FEA
0379C:  CLRF   FEC
0379E:  MOVF   FED,F
037A0:  CLRF   FEF
037A2:  MOVLB  6
....................       PpcCiclos[i]=make16(read_ext_eeprom((cicloVisto*320)+9+((cicloVisualizado+i)*9)),read_ext_eeprom((cicloVisto*320)+10+((cicloVisualizado+i)*9))); 
037A4:  BCF    FD8.0
037A6:  MOVLB  1
037A8:  RLCF   xF9,W
037AA:  CLRF   03
037AC:  ADDLW  94
037AE:  MOVWF  01
037B0:  MOVLW  02
037B2:  ADDWFC 03,F
037B4:  MOVFF  01,650
037B8:  MOVLB  6
037BA:  MOVFF  03,651
037BE:  CLRF   x5B
037C0:  MOVFF  240,65A
037C4:  MOVLW  01
037C6:  MOVWF  x5D
037C8:  MOVLW  40
037CA:  MOVWF  x5C
037CC:  MOVLB  0
037CE:  CALL   21C4
037D2:  MOVFF  02,653
037D6:  MOVFF  01,652
037DA:  MOVLW  09
037DC:  MOVLB  6
037DE:  ADDWF  x52,F
037E0:  MOVLW  00
037E2:  ADDWFC x53,F
037E4:  MOVLB  1
037E6:  MOVF   xF9,W
037E8:  MOVLB  2
037EA:  ADDWF  x3F,W
037EC:  MULLW  09
037EE:  MOVF   FF3,W
037F0:  MOVLB  6
037F2:  ADDWF  x52,F
037F4:  MOVLW  00
037F6:  ADDWFC x53,F
037F8:  MOVFF  653,656
037FC:  MOVFF  652,655
03800:  MOVLB  0
03802:  CALL   22C6
03806:  MOVFF  01,652
0380A:  MOVLB  6
0380C:  CLRF   x5B
0380E:  MOVFF  240,65A
03812:  MOVLW  01
03814:  MOVWF  x5D
03816:  MOVLW  40
03818:  MOVWF  x5C
0381A:  MOVLB  0
0381C:  CALL   21C4
03820:  MOVFF  02,654
03824:  MOVFF  01,653
03828:  MOVLW  0A
0382A:  MOVLB  6
0382C:  ADDWF  x53,F
0382E:  MOVLW  00
03830:  ADDWFC x54,F
03832:  MOVLB  1
03834:  MOVF   xF9,W
03836:  MOVLB  2
03838:  ADDWF  x3F,W
0383A:  MULLW  09
0383C:  MOVF   FF3,W
0383E:  MOVLB  6
03840:  ADDWF  x53,F
03842:  MOVLW  00
03844:  ADDWFC x54,F
03846:  MOVFF  654,656
0384A:  MOVFF  653,655
0384E:  MOVLB  0
03850:  CALL   22C6
03854:  MOVFF  651,FEA
03858:  MOVFF  650,FE9
0385C:  MOVFF  652,FEC
03860:  MOVF   FED,F
03862:  MOVFF  01,FEF
....................       if(PpcCiclos[i]>500) 
03866:  BCF    FD8.0
03868:  MOVLB  1
0386A:  RLCF   xF9,W
0386C:  CLRF   03
0386E:  ADDLW  94
03870:  MOVWF  FE9
03872:  MOVLW  02
03874:  ADDWFC 03,W
03876:  MOVWF  FEA
03878:  MOVFF  FEC,651
0387C:  MOVF   FED,F
0387E:  MOVFF  FEF,650
03882:  MOVLB  6
03884:  MOVF   x51,W
03886:  SUBLW  00
03888:  BC    38AE
0388A:  XORLW  FF
0388C:  BNZ   3894
0388E:  MOVF   x50,W
03890:  SUBLW  F4
03892:  BC    38AE
....................          PpcCiclos[i]=0; 
03894:  BCF    FD8.0
03896:  MOVLB  1
03898:  RLCF   xF9,W
0389A:  CLRF   03
0389C:  ADDLW  94
0389E:  MOVWF  FE9
038A0:  MOVLW  02
038A2:  ADDWFC 03,W
038A4:  MOVWF  FEA
038A6:  CLRF   FEC
038A8:  MOVF   FED,F
038AA:  CLRF   FEF
038AC:  MOVLB  6
....................       ACiclos[i]=read_ext_eeprom((cicloVisto*320)+13+((cicloVisualizado+i)*9)); 
038AE:  CLRF   03
038B0:  MOVLB  1
038B2:  MOVF   xF9,W
038B4:  ADDLW  B0
038B6:  MOVWF  01
038B8:  MOVLW  02
038BA:  ADDWFC 03,F
038BC:  MOVFF  01,650
038C0:  MOVLB  6
038C2:  MOVFF  03,651
038C6:  CLRF   x5B
038C8:  MOVFF  240,65A
038CC:  MOVLW  01
038CE:  MOVWF  x5D
038D0:  MOVLW  40
038D2:  MOVWF  x5C
038D4:  MOVLB  0
038D6:  CALL   21C4
038DA:  MOVFF  02,653
038DE:  MOVFF  01,652
038E2:  MOVLW  0D
038E4:  MOVLB  6
038E6:  ADDWF  x52,F
038E8:  MOVLW  00
038EA:  ADDWFC x53,F
038EC:  MOVLB  1
038EE:  MOVF   xF9,W
038F0:  MOVLB  2
038F2:  ADDWF  x3F,W
038F4:  MULLW  09
038F6:  MOVF   FF3,W
038F8:  MOVLB  6
038FA:  ADDWF  x52,F
038FC:  MOVLW  00
038FE:  ADDWFC x53,F
03900:  MOVFF  653,656
03904:  MOVFF  652,655
03908:  MOVLB  0
0390A:  CALL   22C6
0390E:  MOVFF  651,FEA
03912:  MOVFF  650,FE9
03916:  MOVFF  01,FEF
....................       if(ACiclos[i]>30) 
0391A:  CLRF   03
0391C:  MOVLB  1
0391E:  MOVF   xF9,W
03920:  ADDLW  B0
03922:  MOVWF  FE9
03924:  MOVLW  02
03926:  ADDWFC 03,W
03928:  MOVWF  FEA
0392A:  MOVF   FEF,W
0392C:  SUBLW  1E
0392E:  BC    3940
....................          ACiclos[i]=0; 
03930:  CLRF   03
03932:  MOVF   xF9,W
03934:  ADDLW  B0
03936:  MOVWF  FE9
03938:  MOVLW  02
0393A:  ADDWFC 03,W
0393C:  MOVWF  FEA
0393E:  CLRF   FEF
....................    } 
03940:  INCF   xF9,F
03942:  BRA    33E2
.................... } 
03944:  MOVLB  0
03946:  GOTO   7946 (RETURN)
....................  
.................... void LimitaValores(){ 
....................    if(Ganancia>20.0){ 
*
03998:  MOVLB  6
0399A:  CLRF   x57
0399C:  CLRF   x56
0399E:  MOVLW  20
039A0:  MOVWF  x55
039A2:  MOVLW  83
039A4:  MOVWF  x54
039A6:  MOVFF  1BD,65B
039AA:  MOVFF  1BC,65A
039AE:  MOVFF  1BB,659
039B2:  MOVFF  1BA,658
039B6:  MOVLB  0
039B8:  CALL   2784
039BC:  BNC   3A06
....................       Ganancia=15.0; 
039BE:  MOVLB  1
039C0:  CLRF   xBD
039C2:  CLRF   xBC
039C4:  MOVLW  70
039C6:  MOVWF  xBB
039C8:  MOVLW  82
039CA:  MOVWF  xBA
....................       write_eeprom(20,15); 
039CC:  CLRF   FAA
039CE:  MOVLW  14
039D0:  MOVWF  FA9
039D2:  MOVLW  0F
039D4:  MOVWF  FA8
039D6:  BCF    FA6.6
039D8:  BCF    FA6.7
039DA:  BSF    FA6.2
039DC:  MOVF   FF2,W
039DE:  MOVWF  00
039E0:  BCF    FF2.6
039E2:  BCF    FF2.7
039E4:  MOVLB  F
039E6:  MOVLW  55
039E8:  MOVWF  FA7
039EA:  MOVLW  AA
039EC:  MOVWF  FA7
039EE:  BSF    FA6.1
039F0:  BTFSC  FA6.1
039F2:  BRA    39F0
039F4:  BCF    FA6.2
039F6:  MOVF   00,W
039F8:  IORWF  FF2,F
....................       delay_ms(10); 
039FA:  MOVLW  0A
039FC:  MOVLB  6
039FE:  MOVWF  x62
03A00:  MOVLB  0
03A02:  CALL   2128
....................    } 
....................    if(Sensor[0].Ajuste>20){ 
03A06:  MOVLB  2
03A08:  MOVF   xDE,W
03A0A:  SUBLW  14
03A0C:  BC    3A4A
....................       Sensor[0].Ajuste=0; 
03A0E:  CLRF   xDE
....................       write_eeprom(21,0); 
03A10:  CLRF   FAA
03A12:  MOVLW  15
03A14:  MOVWF  FA9
03A16:  CLRF   FA8
03A18:  BCF    FA6.6
03A1A:  BCF    FA6.7
03A1C:  BSF    FA6.2
03A1E:  MOVF   FF2,W
03A20:  MOVWF  00
03A22:  BCF    FF2.6
03A24:  BCF    FF2.7
03A26:  MOVLB  F
03A28:  MOVLW  55
03A2A:  MOVWF  FA7
03A2C:  MOVLW  AA
03A2E:  MOVWF  FA7
03A30:  BSF    FA6.1
03A32:  BTFSC  FA6.1
03A34:  BRA    3A32
03A36:  BCF    FA6.2
03A38:  MOVF   00,W
03A3A:  IORWF  FF2,F
....................       delay_ms(10); 
03A3C:  MOVLW  0A
03A3E:  MOVLB  6
03A40:  MOVWF  x62
03A42:  MOVLB  0
03A44:  CALL   2128
03A48:  MOVLB  2
....................    } 
....................    if(Sensor[0].Ajusten>20){ 
03A4A:  MOVF   xDF,W
03A4C:  SUBLW  14
03A4E:  BC    3A8A
....................       Sensor[0].Ajusten=0; 
03A50:  CLRF   xDF
....................       write_eeprom(22,0); 
03A52:  CLRF   FAA
03A54:  MOVLW  16
03A56:  MOVWF  FA9
03A58:  CLRF   FA8
03A5A:  BCF    FA6.6
03A5C:  BCF    FA6.7
03A5E:  BSF    FA6.2
03A60:  MOVF   FF2,W
03A62:  MOVWF  00
03A64:  BCF    FF2.6
03A66:  BCF    FF2.7
03A68:  MOVLB  F
03A6A:  MOVLW  55
03A6C:  MOVWF  FA7
03A6E:  MOVLW  AA
03A70:  MOVWF  FA7
03A72:  BSF    FA6.1
03A74:  BTFSC  FA6.1
03A76:  BRA    3A74
03A78:  BCF    FA6.2
03A7A:  MOVF   00,W
03A7C:  IORWF  FF2,F
....................       delay_ms(10); 
03A7E:  MOVLW  0A
03A80:  MOVLB  6
03A82:  MOVWF  x62
03A84:  MOVLB  0
03A86:  CALL   2128
....................    } 
....................    if(Sensor[1].Ajuste>20){ 
03A8A:  MOVLB  4
03A8C:  MOVF   x42,W
03A8E:  SUBLW  14
03A90:  BC    3ACE
....................       Sensor[1].Ajuste=0; 
03A92:  CLRF   x42
....................       write_eeprom(23,0); 
03A94:  CLRF   FAA
03A96:  MOVLW  17
03A98:  MOVWF  FA9
03A9A:  CLRF   FA8
03A9C:  BCF    FA6.6
03A9E:  BCF    FA6.7
03AA0:  BSF    FA6.2
03AA2:  MOVF   FF2,W
03AA4:  MOVWF  00
03AA6:  BCF    FF2.6
03AA8:  BCF    FF2.7
03AAA:  MOVLB  F
03AAC:  MOVLW  55
03AAE:  MOVWF  FA7
03AB0:  MOVLW  AA
03AB2:  MOVWF  FA7
03AB4:  BSF    FA6.1
03AB6:  BTFSC  FA6.1
03AB8:  BRA    3AB6
03ABA:  BCF    FA6.2
03ABC:  MOVF   00,W
03ABE:  IORWF  FF2,F
....................       delay_ms(10); 
03AC0:  MOVLW  0A
03AC2:  MOVLB  6
03AC4:  MOVWF  x62
03AC6:  MOVLB  0
03AC8:  CALL   2128
03ACC:  MOVLB  4
....................    } 
....................    if(Sensor[1].Ajusten>20){ 
03ACE:  MOVF   x43,W
03AD0:  SUBLW  14
03AD2:  BC    3B0E
....................       Sensor[1].Ajusten=0; 
03AD4:  CLRF   x43
....................       write_eeprom(24,0); 
03AD6:  CLRF   FAA
03AD8:  MOVLW  18
03ADA:  MOVWF  FA9
03ADC:  CLRF   FA8
03ADE:  BCF    FA6.6
03AE0:  BCF    FA6.7
03AE2:  BSF    FA6.2
03AE4:  MOVF   FF2,W
03AE6:  MOVWF  00
03AE8:  BCF    FF2.6
03AEA:  BCF    FF2.7
03AEC:  MOVLB  F
03AEE:  MOVLW  55
03AF0:  MOVWF  FA7
03AF2:  MOVLW  AA
03AF4:  MOVWF  FA7
03AF6:  BSF    FA6.1
03AF8:  BTFSC  FA6.1
03AFA:  BRA    3AF8
03AFC:  BCF    FA6.2
03AFE:  MOVF   00,W
03B00:  IORWF  FF2,F
....................       delay_ms(10); 
03B02:  MOVLW  0A
03B04:  MOVLB  6
03B06:  MOVWF  x62
03B08:  MOVLB  0
03B0A:  CALL   2128
....................    } 
....................    if(MediaMovil>80){ 
03B0E:  MOVLB  1
03B10:  MOVF   x95,W
03B12:  SUBLW  50
03B14:  BC    3B54
....................       MediaMovil=40; 
03B16:  MOVLW  28
03B18:  MOVWF  x95
....................       write_eeprom(25,40); 
03B1A:  CLRF   FAA
03B1C:  MOVLW  19
03B1E:  MOVWF  FA9
03B20:  MOVLW  28
03B22:  MOVWF  FA8
03B24:  BCF    FA6.6
03B26:  BCF    FA6.7
03B28:  BSF    FA6.2
03B2A:  MOVF   FF2,W
03B2C:  MOVWF  00
03B2E:  BCF    FF2.6
03B30:  BCF    FF2.7
03B32:  MOVLB  F
03B34:  MOVLW  55
03B36:  MOVWF  FA7
03B38:  MOVLW  AA
03B3A:  MOVWF  FA7
03B3C:  BSF    FA6.1
03B3E:  BTFSC  FA6.1
03B40:  BRA    3B3E
03B42:  BCF    FA6.2
03B44:  MOVF   00,W
03B46:  IORWF  FF2,F
....................       delay_ms(10); 
03B48:  MOVLW  0A
03B4A:  MOVLB  6
03B4C:  MOVWF  x62
03B4E:  MOVLB  0
03B50:  CALL   2128
....................    } 
....................    if(Tciclo>10){ 
03B54:  MOVLB  6
03B56:  CLRF   x57
03B58:  CLRF   x56
03B5A:  MOVLW  20
03B5C:  MOVWF  x55
03B5E:  MOVLW  82
03B60:  MOVWF  x54
03B62:  MOVFF  1A5,65B
03B66:  MOVFF  1A4,65A
03B6A:  MOVFF  1A3,659
03B6E:  MOVFF  1A2,658
03B72:  MOVLB  0
03B74:  CALL   2784
03B78:  BNC   3BC2
....................       Tciclo=10; 
03B7A:  MOVLB  1
03B7C:  CLRF   xA5
03B7E:  CLRF   xA4
03B80:  MOVLW  20
03B82:  MOVWF  xA3
03B84:  MOVLW  82
03B86:  MOVWF  xA2
....................       write_eeprom(26,10); 
03B88:  CLRF   FAA
03B8A:  MOVLW  1A
03B8C:  MOVWF  FA9
03B8E:  MOVLW  0A
03B90:  MOVWF  FA8
03B92:  BCF    FA6.6
03B94:  BCF    FA6.7
03B96:  BSF    FA6.2
03B98:  MOVF   FF2,W
03B9A:  MOVWF  00
03B9C:  BCF    FF2.6
03B9E:  BCF    FF2.7
03BA0:  MOVLB  F
03BA2:  MOVLW  55
03BA4:  MOVWF  FA7
03BA6:  MOVLW  AA
03BA8:  MOVWF  FA7
03BAA:  BSF    FA6.1
03BAC:  BTFSC  FA6.1
03BAE:  BRA    3BAC
03BB0:  BCF    FA6.2
03BB2:  MOVF   00,W
03BB4:  IORWF  FF2,F
....................       delay_ms(10); 
03BB6:  MOVLW  0A
03BB8:  MOVLB  6
03BBA:  MOVWF  x62
03BBC:  MOVLB  0
03BBE:  CALL   2128
....................    } 
....................    if(Sensor[0].RPT100>2.0){ 
03BC2:  MOVLB  6
03BC4:  CLRF   x57
03BC6:  CLRF   x56
03BC8:  CLRF   x55
03BCA:  MOVLW  80
03BCC:  MOVWF  x54
03BCE:  MOVFF  2D3,65B
03BD2:  MOVFF  2D2,65A
03BD6:  MOVFF  2D1,659
03BDA:  MOVFF  2D0,658
03BDE:  MOVLB  0
03BE0:  CALL   2784
03BE4:  BNC   3C64
....................       Sensor[0].RPT100=0.5; 
03BE6:  MOVLB  2
03BE8:  CLRF   xD3
03BEA:  CLRF   xD2
03BEC:  CLRF   xD1
03BEE:  MOVLW  7E
03BF0:  MOVWF  xD0
....................       write_eeprom(28,0); 
03BF2:  CLRF   FAA
03BF4:  MOVLW  1C
03BF6:  MOVWF  FA9
03BF8:  CLRF   FA8
03BFA:  BCF    FA6.6
03BFC:  BCF    FA6.7
03BFE:  BSF    FA6.2
03C00:  MOVF   FF2,W
03C02:  MOVWF  00
03C04:  BCF    FF2.6
03C06:  BCF    FF2.7
03C08:  MOVLB  F
03C0A:  MOVLW  55
03C0C:  MOVWF  FA7
03C0E:  MOVLW  AA
03C10:  MOVWF  FA7
03C12:  BSF    FA6.1
03C14:  BTFSC  FA6.1
03C16:  BRA    3C14
03C18:  BCF    FA6.2
03C1A:  MOVF   00,W
03C1C:  IORWF  FF2,F
....................       delay_ms(10); 
03C1E:  MOVLW  0A
03C20:  MOVLB  6
03C22:  MOVWF  x62
03C24:  MOVLB  0
03C26:  CALL   2128
....................       write_eeprom(27,5); 
03C2A:  CLRF   FAA
03C2C:  MOVLW  1B
03C2E:  MOVWF  FA9
03C30:  MOVLW  05
03C32:  MOVWF  FA8
03C34:  BCF    FA6.6
03C36:  BCF    FA6.7
03C38:  BSF    FA6.2
03C3A:  MOVF   FF2,W
03C3C:  MOVWF  00
03C3E:  BCF    FF2.6
03C40:  BCF    FF2.7
03C42:  MOVLB  F
03C44:  MOVLW  55
03C46:  MOVWF  FA7
03C48:  MOVLW  AA
03C4A:  MOVWF  FA7
03C4C:  BSF    FA6.1
03C4E:  BTFSC  FA6.1
03C50:  BRA    3C4E
03C52:  BCF    FA6.2
03C54:  MOVF   00,W
03C56:  IORWF  FF2,F
....................       delay_ms(10); 
03C58:  MOVLW  0A
03C5A:  MOVLB  6
03C5C:  MOVWF  x62
03C5E:  MOVLB  0
03C60:  CALL   2128
....................    } 
....................    if(Sensor[1].RPT100>2.0){ 
03C64:  MOVLB  6
03C66:  CLRF   x57
03C68:  CLRF   x56
03C6A:  CLRF   x55
03C6C:  MOVLW  80
03C6E:  MOVWF  x54
03C70:  MOVFF  437,65B
03C74:  MOVFF  436,65A
03C78:  MOVFF  435,659
03C7C:  MOVFF  434,658
03C80:  MOVLB  0
03C82:  CALL   2784
03C86:  BNC   3D06
....................       Sensor[1].RPT100=0.5; 
03C88:  MOVLB  4
03C8A:  CLRF   x37
03C8C:  CLRF   x36
03C8E:  CLRF   x35
03C90:  MOVLW  7E
03C92:  MOVWF  x34
....................       write_eeprom(30,0); 
03C94:  CLRF   FAA
03C96:  MOVLW  1E
03C98:  MOVWF  FA9
03C9A:  CLRF   FA8
03C9C:  BCF    FA6.6
03C9E:  BCF    FA6.7
03CA0:  BSF    FA6.2
03CA2:  MOVF   FF2,W
03CA4:  MOVWF  00
03CA6:  BCF    FF2.6
03CA8:  BCF    FF2.7
03CAA:  MOVLB  F
03CAC:  MOVLW  55
03CAE:  MOVWF  FA7
03CB0:  MOVLW  AA
03CB2:  MOVWF  FA7
03CB4:  BSF    FA6.1
03CB6:  BTFSC  FA6.1
03CB8:  BRA    3CB6
03CBA:  BCF    FA6.2
03CBC:  MOVF   00,W
03CBE:  IORWF  FF2,F
....................       delay_ms(10); 
03CC0:  MOVLW  0A
03CC2:  MOVLB  6
03CC4:  MOVWF  x62
03CC6:  MOVLB  0
03CC8:  CALL   2128
....................       write_eeprom(29,5); 
03CCC:  CLRF   FAA
03CCE:  MOVLW  1D
03CD0:  MOVWF  FA9
03CD2:  MOVLW  05
03CD4:  MOVWF  FA8
03CD6:  BCF    FA6.6
03CD8:  BCF    FA6.7
03CDA:  BSF    FA6.2
03CDC:  MOVF   FF2,W
03CDE:  MOVWF  00
03CE0:  BCF    FF2.6
03CE2:  BCF    FF2.7
03CE4:  MOVLB  F
03CE6:  MOVLW  55
03CE8:  MOVWF  FA7
03CEA:  MOVLW  AA
03CEC:  MOVWF  FA7
03CEE:  BSF    FA6.1
03CF0:  BTFSC  FA6.1
03CF2:  BRA    3CF0
03CF4:  BCF    FA6.2
03CF6:  MOVF   00,W
03CF8:  IORWF  FF2,F
....................       delay_ms(10); 
03CFA:  MOVLW  0A
03CFC:  MOVLB  6
03CFE:  MOVWF  x62
03D00:  MOVLB  0
03D02:  CALL   2128
....................    } 
....................    if(Atmosferica>100){ 
03D06:  MOVLB  2
03D08:  MOVF   x42,W
03D0A:  SUBLW  64
03D0C:  BC    3D4C
....................       Atmosferica=69; 
03D0E:  MOVLW  45
03D10:  MOVWF  x42
....................       write_eeprom(31,69); 
03D12:  CLRF   FAA
03D14:  MOVLW  1F
03D16:  MOVWF  FA9
03D18:  MOVLW  45
03D1A:  MOVWF  FA8
03D1C:  BCF    FA6.6
03D1E:  BCF    FA6.7
03D20:  BSF    FA6.2
03D22:  MOVF   FF2,W
03D24:  MOVWF  00
03D26:  BCF    FF2.6
03D28:  BCF    FF2.7
03D2A:  MOVLB  F
03D2C:  MOVLW  55
03D2E:  MOVWF  FA7
03D30:  MOVLW  AA
03D32:  MOVWF  FA7
03D34:  BSF    FA6.1
03D36:  BTFSC  FA6.1
03D38:  BRA    3D36
03D3A:  BCF    FA6.2
03D3C:  MOVF   00,W
03D3E:  IORWF  FF2,F
....................       delay_ms(10); 
03D40:  MOVLW  0A
03D42:  MOVLB  6
03D44:  MOVWF  x62
03D46:  MOVLB  0
03D48:  CALL   2128
....................    } 
....................    if(Tapertura>100){ 
03D4C:  MOVLB  1
03D4E:  MOVF   xFD,W
03D50:  SUBLW  64
03D52:  BC    3D92
....................       Tapertura=85; 
03D54:  MOVLW  55
03D56:  MOVWF  xFD
....................       write_eeprom(32,85); 
03D58:  CLRF   FAA
03D5A:  MOVLW  20
03D5C:  MOVWF  FA9
03D5E:  MOVLW  55
03D60:  MOVWF  FA8
03D62:  BCF    FA6.6
03D64:  BCF    FA6.7
03D66:  BSF    FA6.2
03D68:  MOVF   FF2,W
03D6A:  MOVWF  00
03D6C:  BCF    FF2.6
03D6E:  BCF    FF2.7
03D70:  MOVLB  F
03D72:  MOVLW  55
03D74:  MOVWF  FA7
03D76:  MOVLW  AA
03D78:  MOVWF  FA7
03D7A:  BSF    FA6.1
03D7C:  BTFSC  FA6.1
03D7E:  BRA    3D7C
03D80:  BCF    FA6.2
03D82:  MOVF   00,W
03D84:  IORWF  FF2,F
....................       delay_ms(10); 
03D86:  MOVLW  0A
03D88:  MOVLB  6
03D8A:  MOVWF  x62
03D8C:  MOVLB  0
03D8E:  CALL   2128
....................    } 
....................    if(Ciclos>60000){ 
03D92:  MOVLB  2
03D94:  MOVF   x18,W
03D96:  SUBLW  E9
03D98:  BC    3E1A
03D9A:  XORLW  FF
03D9C:  BNZ   3DA4
03D9E:  MOVF   x17,W
03DA0:  SUBLW  60
03DA2:  BC    3E1A
....................       Ciclos=0; 
03DA4:  CLRF   x18
03DA6:  CLRF   x17
....................       write_eeprom(37,0); 
03DA8:  CLRF   FAA
03DAA:  MOVLW  25
03DAC:  MOVWF  FA9
03DAE:  CLRF   FA8
03DB0:  BCF    FA6.6
03DB2:  BCF    FA6.7
03DB4:  BSF    FA6.2
03DB6:  MOVF   FF2,W
03DB8:  MOVWF  00
03DBA:  BCF    FF2.6
03DBC:  BCF    FF2.7
03DBE:  MOVLB  F
03DC0:  MOVLW  55
03DC2:  MOVWF  FA7
03DC4:  MOVLW  AA
03DC6:  MOVWF  FA7
03DC8:  BSF    FA6.1
03DCA:  BTFSC  FA6.1
03DCC:  BRA    3DCA
03DCE:  BCF    FA6.2
03DD0:  MOVF   00,W
03DD2:  IORWF  FF2,F
....................       delay_ms(10); 
03DD4:  MOVLW  0A
03DD6:  MOVLB  6
03DD8:  MOVWF  x62
03DDA:  MOVLB  0
03DDC:  CALL   2128
....................       write_eeprom(38,0); 
03DE0:  CLRF   FAA
03DE2:  MOVLW  26
03DE4:  MOVWF  FA9
03DE6:  CLRF   FA8
03DE8:  BCF    FA6.6
03DEA:  BCF    FA6.7
03DEC:  BSF    FA6.2
03DEE:  MOVF   FF2,W
03DF0:  MOVWF  00
03DF2:  BCF    FF2.6
03DF4:  BCF    FF2.7
03DF6:  MOVLB  F
03DF8:  MOVLW  55
03DFA:  MOVWF  FA7
03DFC:  MOVLW  AA
03DFE:  MOVWF  FA7
03E00:  BSF    FA6.1
03E02:  BTFSC  FA6.1
03E04:  BRA    3E02
03E06:  BCF    FA6.2
03E08:  MOVF   00,W
03E0A:  IORWF  FF2,F
....................       delay_ms(10); 
03E0C:  MOVLW  0A
03E0E:  MOVLB  6
03E10:  MOVWF  x62
03E12:  MOVLB  0
03E14:  CALL   2128
03E18:  MOVLB  2
....................    } 
....................    if(sg1==10){ 
03E1A:  MOVF   x54,W
03E1C:  SUBLW  0A
03E1E:  BNZ   3E34
....................       G1=G1*(-1); 
03E20:  MOVFF  252,650
03E24:  MOVLW  FF
03E26:  MOVLB  6
03E28:  MOVWF  x51
03E2A:  MOVLB  0
03E2C:  RCALL  394A
03E2E:  MOVFF  01,252
03E32:  MOVLB  2
....................    } 
....................    if(sg2==10){ 
03E34:  MOVF   x55,W
03E36:  SUBLW  0A
03E38:  BNZ   3E4C
....................       G2=G2*(-1); 
03E3A:  MOVFF  253,650
03E3E:  MOVLW  FF
03E40:  MOVLB  6
03E42:  MOVWF  x51
03E44:  MOVLB  0
03E46:  RCALL  394A
03E48:  MOVFF  01,253
....................    } 
....................    if(Integral>10.0){ 
03E4C:  MOVLB  6
03E4E:  CLRF   x63
03E50:  MOVFF  1EA,662
03E54:  MOVLB  0
03E56:  CALL   20F2
03E5A:  MOVLB  6
03E5C:  CLRF   x57
03E5E:  CLRF   x56
03E60:  MOVLW  20
03E62:  MOVWF  x55
03E64:  MOVLW  82
03E66:  MOVWF  x54
03E68:  MOVFF  03,65B
03E6C:  MOVFF  02,65A
03E70:  MOVFF  01,659
03E74:  MOVFF  00,658
03E78:  MOVLB  0
03E7A:  CALL   2784
03E7E:  BNC   3EC0
....................       Integral=1.0; 
03E80:  MOVLW  01
03E82:  MOVLB  1
03E84:  MOVWF  xEA
....................       write_eeprom(27,1); 
03E86:  CLRF   FAA
03E88:  MOVLW  1B
03E8A:  MOVWF  FA9
03E8C:  MOVLW  01
03E8E:  MOVWF  FA8
03E90:  BCF    FA6.6
03E92:  BCF    FA6.7
03E94:  BSF    FA6.2
03E96:  MOVF   FF2,W
03E98:  MOVWF  00
03E9A:  BCF    FF2.6
03E9C:  BCF    FF2.7
03E9E:  MOVLB  F
03EA0:  MOVLW  55
03EA2:  MOVWF  FA7
03EA4:  MOVLW  AA
03EA6:  MOVWF  FA7
03EA8:  BSF    FA6.1
03EAA:  BTFSC  FA6.1
03EAC:  BRA    3EAA
03EAE:  BCF    FA6.2
03EB0:  MOVF   00,W
03EB2:  IORWF  FF2,F
....................       delay_ms(10); 
03EB4:  MOVLW  0A
03EB6:  MOVLB  6
03EB8:  MOVWF  x62
03EBA:  MOVLB  0
03EBC:  CALL   2128
....................    } 
....................    if(Derivativo>90.0){ 
03EC0:  MOVLB  6
03EC2:  CLRF   x63
03EC4:  MOVFF  1EB,662
03EC8:  MOVLB  0
03ECA:  CALL   20F2
03ECE:  MOVLB  6
03ED0:  CLRF   x57
03ED2:  CLRF   x56
03ED4:  MOVLW  34
03ED6:  MOVWF  x55
03ED8:  MOVLW  85
03EDA:  MOVWF  x54
03EDC:  MOVFF  03,65B
03EE0:  MOVFF  02,65A
03EE4:  MOVFF  01,659
03EE8:  MOVFF  00,658
03EEC:  MOVLB  0
03EEE:  CALL   2784
03EF2:  BNC   3F34
....................       Derivativo=15.0; 
03EF4:  MOVLW  0F
03EF6:  MOVLB  1
03EF8:  MOVWF  xEB
....................       write_eeprom(28,15); 
03EFA:  CLRF   FAA
03EFC:  MOVLW  1C
03EFE:  MOVWF  FA9
03F00:  MOVLW  0F
03F02:  MOVWF  FA8
03F04:  BCF    FA6.6
03F06:  BCF    FA6.7
03F08:  BSF    FA6.2
03F0A:  MOVF   FF2,W
03F0C:  MOVWF  00
03F0E:  BCF    FF2.6
03F10:  BCF    FF2.7
03F12:  MOVLB  F
03F14:  MOVLW  55
03F16:  MOVWF  FA7
03F18:  MOVLW  AA
03F1A:  MOVWF  FA7
03F1C:  BSF    FA6.1
03F1E:  BTFSC  FA6.1
03F20:  BRA    3F1E
03F22:  BCF    FA6.2
03F24:  MOVF   00,W
03F26:  IORWF  FF2,F
....................       delay_ms(10); 
03F28:  MOVLW  0A
03F2A:  MOVLB  6
03F2C:  MOVWF  x62
03F2E:  MOVLB  0
03F30:  CALL   2128
....................    } 
.................... } 
03F34:  GOTO   7956 (RETURN)
....................  
.................... void LeeDisplay(void){ 
....................    if(Dato_Exitoso==5){ 
*
04F0A:  MOVLB  1
04F0C:  MOVF   xF4,W
04F0E:  SUBLW  05
04F10:  BTFSS  FD8.2
04F12:  BRA    50F4
....................          RX_Buffer[0]=RX_Buffer2[0]; 
04F14:  MOVFF  3B,30
....................          RX_Buffer[1]=RX_Buffer2[1]; 
04F18:  MOVFF  3C,31
....................          RX_Buffer[2]=RX_Buffer2[2]; 
04F1C:  MOVFF  3D,32
....................          RX_Buffer[3]=RX_Buffer2[3]; 
04F20:  MOVFF  3E,33
....................          RX_Buffer[4]=RX_Buffer2[4]; 
04F24:  MOVFF  3F,34
....................          RX_Buffer[5]=RX_Buffer2[5]; 
04F28:  MOVFF  40,35
....................          RX_Buffer[6]=RX_Buffer2[6]; 
04F2C:  MOVFF  41,36
....................          RX_Buffer[7]=RX_Buffer2[7]; 
04F30:  MOVFF  42,37
....................          RX_Buffer[8]=RX_Buffer2[8]; 
04F34:  MOVFF  43,38
....................          RX_Buffer[9]=RX_Buffer2[9]; 
04F38:  MOVFF  44,39
....................           
....................       if(RX_Buffer[3]==0x01){// Pregunta por la pagina en la que esta el display,01 es Contrasea de Acceso 
04F3C:  DECFSZ 33,W
04F3E:  BRA    4F4E
....................          Menu=0; 
04F40:  CLRF   xF6
....................          if(MenuAntt!=Menu) 
04F42:  MOVF   xF6,W
04F44:  SUBWF  xF8,W
04F46:  BZ    4F4C
....................             MenuAntt=Menu; 
04F48:  MOVFF  1F6,1F8
....................       }else if(RX_Buffer[3]==0x02){//02 es Ciclos Fijos 
04F4C:  BRA    50F4
04F4E:  MOVF   33,W
04F50:  SUBLW  02
04F52:  BNZ   4F64
....................          Menu=1; 
04F54:  MOVLW  01
04F56:  MOVWF  xF6
....................          if(MenuAntt!=Menu) 
04F58:  MOVF   xF6,W
04F5A:  SUBWF  xF8,W
04F5C:  BZ    4F62
....................             MenuAntt=Menu; 
04F5E:  MOVFF  1F6,1F8
....................       }else if(RX_Buffer[3]==0x03){//03 es Tiempo Esterilizacion 
04F62:  BRA    50F4
04F64:  MOVF   33,W
04F66:  SUBLW  03
04F68:  BNZ   4F7A
....................          Menu=2; 
04F6A:  MOVLW  02
04F6C:  MOVWF  xF6
....................          if(MenuAntt!=Menu) 
04F6E:  MOVF   xF6,W
04F70:  SUBWF  xF8,W
04F72:  BZ    4F78
....................             MenuAntt=Menu; 
04F74:  MOVFF  1F6,1F8
....................       }else if(RX_Buffer[3]==0x04){//04 es Tiempo de Secado 
04F78:  BRA    50F4
04F7A:  MOVF   33,W
04F7C:  SUBLW  04
04F7E:  BNZ   4F90
....................          Menu=3; 
04F80:  MOVLW  03
04F82:  MOVWF  xF6
....................          if(MenuAntt!=Menu) 
04F84:  MOVF   xF6,W
04F86:  SUBWF  xF8,W
04F88:  BZ    4F8E
....................             MenuAntt=Menu; 
04F8A:  MOVFF  1F6,1F8
....................       }else if(RX_Buffer[3]==0x05){//05 es Temperatura 
04F8E:  BRA    50F4
04F90:  MOVF   33,W
04F92:  SUBLW  05
04F94:  BNZ   4FA6
....................          Menu=4; 
04F96:  MOVLW  04
04F98:  MOVWF  xF6
....................          if(MenuAntt!=Menu) 
04F9A:  MOVF   xF6,W
04F9C:  SUBWF  xF8,W
04F9E:  BZ    4FA4
....................             MenuAntt=Menu; 
04FA0:  MOVFF  1F6,1F8
....................       }else if(RX_Buffer[3]==0x06){//06 es Nivel de Vacio 
04FA4:  BRA    50F4
04FA6:  MOVF   33,W
04FA8:  SUBLW  06
04FAA:  BNZ   4FBC
....................          Menu=5; 
04FAC:  MOVLW  05
04FAE:  MOVWF  xF6
....................          if(MenuAntt!=Menu) 
04FB0:  MOVF   xF6,W
04FB2:  SUBWF  xF8,W
04FB4:  BZ    4FBA
....................             MenuAntt=Menu; 
04FB6:  MOVFF  1F6,1F8
....................       }else if(RX_Buffer[3]==0x07){//07 es Test de Componentes 
04FBA:  BRA    50F4
04FBC:  MOVF   33,W
04FBE:  SUBLW  07
04FC0:  BNZ   4FD2
....................          Menu=6; 
04FC2:  MOVLW  06
04FC4:  MOVWF  xF6
....................          if(MenuAntt!=Menu) 
04FC6:  MOVF   xF6,W
04FC8:  SUBWF  xF8,W
04FCA:  BZ    4FD0
....................             MenuAntt=Menu; 
04FCC:  MOVFF  1F6,1F8
....................       }else if(RX_Buffer[3]==0x08){//08 es Fecha y hora 
04FD0:  BRA    50F4
04FD2:  MOVF   33,W
04FD4:  SUBLW  08
04FD6:  BNZ   4FE8
....................          Menu=7; 
04FD8:  MOVLW  07
04FDA:  MOVWF  xF6
....................          if(MenuAntt!=Menu) 
04FDC:  MOVF   xF6,W
04FDE:  SUBWF  xF8,W
04FE0:  BZ    4FE6
....................             MenuAntt=Menu; 
04FE2:  MOVFF  1F6,1F8
....................       }else if(RX_Buffer[3]==0x09){//09 es Ciclos Personalizados 
04FE6:  BRA    50F4
04FE8:  MOVF   33,W
04FEA:  SUBLW  09
04FEC:  BNZ   4FFE
....................          Menu=8; 
04FEE:  MOVLW  08
04FF0:  MOVWF  xF6
....................          if(MenuAntt!=Menu) 
04FF2:  MOVF   xF6,W
04FF4:  SUBWF  xF8,W
04FF6:  BZ    4FFC
....................             MenuAntt=Menu; 
04FF8:  MOVFF  1F6,1F8
....................       }else if(RX_Buffer[3]==0x0a){//0a es Pulsos de Vacio 
04FFC:  BRA    50F4
04FFE:  MOVF   33,W
05000:  SUBLW  0A
05002:  BNZ   5014
....................          Menu=9; 
05004:  MOVLW  09
05006:  MOVWF  xF6
....................          if(MenuAntt!=Menu) 
05008:  MOVF   xF6,W
0500A:  SUBWF  xF8,W
0500C:  BZ    5012
....................             MenuAntt=Menu; 
0500E:  MOVFF  1F6,1F8
....................       }else if(RX_Buffer[3]==0x0b){//0b es Usuarios 
05012:  BRA    50F4
05014:  MOVF   33,W
05016:  SUBLW  0B
05018:  BNZ   502A
....................          Menu=10; 
0501A:  MOVLW  0A
0501C:  MOVWF  xF6
....................          if(MenuAntt!=Menu) 
0501E:  MOVF   xF6,W
05020:  SUBWF  xF8,W
05022:  BZ    5028
....................             MenuAntt=Menu; 
05024:  MOVFF  1F6,1F8
....................       }else if(RX_Buffer[3]==0x0c){//0c es Configuraciones 
05028:  BRA    50F4
0502A:  MOVF   33,W
0502C:  SUBLW  0C
0502E:  BNZ   5040
....................          Menu=11; 
05030:  MOVLW  0B
05032:  MOVWF  xF6
....................          if(MenuAntt!=Menu) 
05034:  MOVF   xF6,W
05036:  SUBWF  xF8,W
05038:  BZ    503E
....................             MenuAntt=Menu; 
0503A:  MOVFF  1F6,1F8
....................       }else if(RX_Buffer[3]==0x0d){//0d es Ciclos 
0503E:  BRA    50F4
05040:  MOVF   33,W
05042:  SUBLW  0D
05044:  BNZ   5056
....................          Menu=12; 
05046:  MOVLW  0C
05048:  MOVWF  xF6
....................          if(MenuAntt!=Menu) 
0504A:  MOVF   xF6,W
0504C:  SUBWF  xF8,W
0504E:  BZ    5054
....................             MenuAntt=Menu; 
05050:  MOVFF  1F6,1F8
....................       }else if(RX_Buffer[3]==0x0e){//0d es Activacion de Ciclos 
05054:  BRA    50F4
05056:  MOVF   33,W
05058:  SUBLW  0E
0505A:  BNZ   506C
....................          Menu=14; 
0505C:  MOVLW  0E
0505E:  MOVWF  xF6
....................          if(MenuAntt!=Menu) 
05060:  MOVF   xF6,W
05062:  SUBWF  xF8,W
05064:  BZ    506A
....................             MenuAntt=Menu; 
05066:  MOVFF  1F6,1F8
....................       }else if(RX_Buffer[3]==0x10){//10 es Nivel de Desfogue 
0506A:  BRA    50F4
0506C:  MOVF   33,W
0506E:  SUBLW  10
05070:  BNZ   5082
....................          Menu=13; 
05072:  MOVLW  0D
05074:  MOVWF  xF6
....................          if(MenuAntt!=Menu) 
05076:  MOVF   xF6,W
05078:  SUBWF  xF8,W
0507A:  BZ    5080
....................             MenuAntt=Menu; 
0507C:  MOVFF  1F6,1F8
....................       }else if(RX_Buffer[3]==0x0f){//0f es Recibe caracteres de contrasea desde display 
05080:  BRA    50F4
05082:  MOVF   33,W
05084:  SUBLW  0F
05086:  BNZ   508A
....................           
....................       }else if(RX_Buffer[3]==0x1a){//1a es Menu de Funcionamiento 
05088:  BRA    50F4
0508A:  MOVF   33,W
0508C:  SUBLW  1A
0508E:  BNZ   50A0
....................          Menu=20; 
05090:  MOVLW  14
05092:  MOVWF  xF6
....................          if(MenuAntt!=Menu) 
05094:  MOVF   xF6,W
05096:  SUBWF  xF8,W
05098:  BZ    509E
....................             MenuAntt=Menu; 
0509A:  MOVFF  1F6,1F8
....................       }else if(RX_Buffer[3]==0x1b){//1b es Menu de clave correcta 
0509E:  BRA    50F4
050A0:  MOVF   33,W
050A2:  SUBLW  1B
050A4:  BNZ   50B6
....................          Menu=15; 
050A6:  MOVLW  0F
050A8:  MOVWF  xF6
....................          if(MenuAntt!=Menu) 
050AA:  MOVF   xF6,W
050AC:  SUBWF  xF8,W
050AE:  BZ    50B4
....................             MenuAntt=Menu; 
050B0:  MOVFF  1F6,1F8
....................       }else if(RX_Buffer[3]==0x1c){//1c es Menu de clave incorrecta 
050B4:  BRA    50F4
050B6:  MOVF   33,W
050B8:  SUBLW  1C
050BA:  BNZ   50CC
....................          Menu=16; 
050BC:  MOVLW  10
050BE:  MOVWF  xF6
....................          if(MenuAntt!=Menu) 
050C0:  MOVF   xF6,W
050C2:  SUBWF  xF8,W
050C4:  BZ    50CA
....................             MenuAntt=Menu; 
050C6:  MOVFF  1F6,1F8
....................       }else if(RX_Buffer[3]==0x2c){//2c es Menu de Configuracion de Parametros 
050CA:  BRA    50F4
050CC:  MOVF   33,W
050CE:  SUBLW  2C
050D0:  BNZ   50E2
....................          Menu=100; 
050D2:  MOVLW  64
050D4:  MOVWF  xF6
....................          if(MenuAntt!=Menu) 
050D6:  MOVF   xF6,W
050D8:  SUBWF  xF8,W
050DA:  BZ    50E0
....................             MenuAntt=Menu; 
050DC:  MOVFF  1F6,1F8
....................       }else if(RX_Buffer[3]==0xcc){//cc es Menu de Bienvenida 
050E0:  BRA    50F4
050E2:  MOVF   33,W
050E4:  SUBLW  CC
050E6:  BNZ   50F4
....................          Menu=240; 
050E8:  MOVLW  F0
050EA:  MOVWF  xF6
....................          if(MenuAntt!=240) 
050EC:  MOVF   xF8,W
050EE:  SUBLW  F0
050F0:  BZ    50F4
....................             reset_cpu(); 
050F2:  RESET
....................       } 
....................    } 
.................... } 
050F4:  MOVLB  0
050F6:  GOTO   7AA8 (RETURN)
....................  
.................... void ConfiguraCiclo(int8 segest,minest,segsec,minsec,liquidos,ciclo,temperatura,pulsos,nvacio,fug){ 
....................    sEstp=segest; 
*
05A1C:  MOVFF  658,C3
....................    mEstp=minest; 
05A20:  MOVFF  659,C4
....................    sSecp=segsec; 
05A24:  MOVFF  65A,C5
....................    mSecp=minsec; 
05A28:  MOVFF  65B,C6
....................    Setpoint=temperatura;                
05A2C:  MOVFF  65E,202
....................    tiempo_secado=0; 
05A30:  MOVLB  2
05A32:  CLRF   x06
....................    desfoguelento=liquidos; 
05A34:  MOVLB  0
05A36:  BCF    xAC.6
05A38:  MOVLB  6
05A3A:  BTFSS  x5C.0
05A3C:  BRA    5A44
05A3E:  MOVLB  0
05A40:  BSF    xAC.6
05A42:  MOVLB  6
....................    CicloSeleccionado=ciclo; 
05A44:  MOVFF  65D,1FC
....................    sEst=sEstp; 
05A48:  MOVFF  C3,BF
....................    mEst=mEstp; 
05A4C:  MOVFF  C4,C0
....................    sSec=sSecp; 
05A50:  MOVFF  C5,C1
....................    mSec=mSecp; 
05A54:  MOVFF  C6,C2
....................    CantidadPulsos=pulsos; 
05A58:  MOVLB  1
05A5A:  CLRF   xFF
05A5C:  MOVFF  65F,1FE
....................    NivelVacio=nvacio; 
05A60:  MOVFF  660,241
....................    Fugas=fug; 
05A64:  MOVLB  0
05A66:  BCF    xAA.1
05A68:  MOVLB  6
05A6A:  BTFSS  x61.0
05A6C:  BRA    5A74
05A6E:  MOVLB  0
05A70:  BSF    xAA.1
05A72:  MOVLB  6
....................    //TiempoVacio=CantidadPulsos*180; 
....................    Imprime=15; 
05A74:  MOVLW  0F
05A76:  MOVLB  2
05A78:  MOVWF  x4D
....................    Envio_Esclavos(); 
05A7A:  MOVLB  0
05A7C:  CALL   524E
....................    delay_ms(10); 
05A80:  MOVLW  0A
05A82:  MOVLB  6
05A84:  MOVWF  x62
05A86:  MOVLB  0
05A88:  CALL   2128
....................    Imprime=10; 
05A8C:  MOVLW  0A
05A8E:  MOVLB  2
05A90:  MOVWF  x4D
.................... } 
05A92:  MOVLB  0
05A94:  RETLW  00
....................  
.................... void ActivaAlarma(int8 Tipo){ 
....................     
....................    if(tsilencio>12000){ 
*
05578:  MOVLB  2
0557A:  MOVF   x35,W
0557C:  SUBLW  2D
0557E:  BC    5592
05580:  XORLW  FF
05582:  BNZ   558A
05584:  MOVF   x34,W
05586:  SUBLW  E0
05588:  BC    5592
....................       tsilencio=0; 
0558A:  CLRF   x35
0558C:  CLRF   x34
....................       flagSilencio=OFF; 
0558E:  MOVLB  0
05590:  BCF    xA9.2
....................    } 
....................     
....................    if(Tipo==1){ // Alarma por Error 
05592:  MOVLB  6
05594:  DECFSZ x50,W
05596:  BRA    55CC
....................        
....................       if(!flagSilencio){ 
05598:  MOVLB  0
0559A:  BTFSC  xA9.2
0559C:  BRA    55C4
....................          flagAlarma=1; 
0559E:  BSF    xA9.0
....................          if(tbuzzer>200){ 
055A0:  MOVLB  2
055A2:  MOVF   x33,F
055A4:  BNZ   55AC
055A6:  MOVF   x32,W
055A8:  SUBLW  C8
055AA:  BC    55C0
....................             tbuzzer=0; 
055AC:  CLRF   x33
055AE:  CLRF   x32
....................             flagBuzzer=!flagBuzzer; 
055B0:  MOVLB  0
055B2:  BTG    xA9.1
....................             if(flagBuzzer) 
055B4:  BTFSS  xA9.1
055B6:  BRA    55BC
....................                EstadoBuzzer=ON; 
055B8:  BSF    xA8.7
....................             else 
055BA:  BRA    55BE
....................                EstadoBuzzer=OFF; 
055BC:  BCF    xA8.7
055BE:  MOVLB  2
....................          } 
....................       }else{ 
055C0:  BRA    55C8
055C2:  MOVLB  0
....................          EstadoBuzzer=OFF; 
055C4:  BCF    xA8.7
055C6:  MOVLB  2
....................       } 
....................    }else if(Tipo==2){  
055C8:  BRA    5606
055CA:  MOVLB  6
055CC:  MOVF   x50,W
055CE:  SUBLW  02
055D0:  BNZ   5608
....................       flagAlarma=1; 
055D2:  MOVLB  0
055D4:  BSF    xA9.0
....................       if(ConteoBuzzer<20){    
055D6:  MOVLB  2
055D8:  MOVF   x2D,W
055DA:  SUBLW  13
055DC:  BNC   5600
....................          if(tbuzzer>100){ 
055DE:  MOVF   x33,F
055E0:  BNZ   55E8
055E2:  MOVF   x32,W
055E4:  SUBLW  64
055E6:  BC    55FE
....................             tbuzzer=0; 
055E8:  CLRF   x33
055EA:  CLRF   x32
....................             flagBuzzer=!flagBuzzer; 
055EC:  MOVLB  0
055EE:  BTG    xA9.1
....................             if(flagBuzzer) 
055F0:  BTFSS  xA9.1
055F2:  BRA    55F8
....................                EstadoBuzzer=ON; 
055F4:  BSF    xA8.7
....................             else 
055F6:  BRA    55FA
....................                EstadoBuzzer=OFF; 
055F8:  BCF    xA8.7
....................                 
....................             ConteoBuzzer++;    
055FA:  MOVLB  2
055FC:  INCF   x2D,F
....................          } 
....................       }else{ 
055FE:  BRA    5606
....................          EstadoBuzzer=OFF; 
05600:  MOVLB  0
05602:  BCF    xA8.7
05604:  MOVLB  2
05606:  MOVLB  6
....................       } 
....................    } 
.................... } 
05608:  MOVLB  0
0560A:  RETLW  00
....................  
.................... void ApagaSalidas(){ 
....................    Desfogue_off; 
*
03FA0:  BSF    F8C.0
03FA2:  BCF    F95.0
....................    Paso_off; 
03FA4:  BSF    F8B.2
03FA6:  BCF    F94.2
....................    Vacio_off; 
03FA8:  BSF    F8B.1
03FAA:  BCF    F94.1
....................    Aire_off; 
03FAC:  BSF    F8B.0
03FAE:  BCF    F94.0
....................    //Suministro_off; 
....................    BombaVacio_off; 
03FB0:  BSF    F8C.2
03FB2:  BCF    F95.2
....................    //Buzzer_off; 
....................    Agua_off; 
03FB4:  BSF    F8C.3
03FB6:  BCF    F95.3
....................    Agua2_off; 
03FB8:  BSF    F8B.5
03FBA:  BCF    F94.5
....................    Controlando=0; 
03FBC:  MOVLB  1
03FBE:  CLRF   xF0
.................... } 
03FC0:  MOVLB  0
03FC2:  RETLW  00
....................  
.................... void ControlaPresion(){ 
....................    if(Setpoint<125){ 
*
06E20:  MOVLB  2
06E22:  MOVF   x02,W
06E24:  SUBLW  7C
06E26:  BNC   6E4C
....................       if(PresionPrecamara>=140){ 
06E28:  MOVF   x16,F
06E2A:  BNZ   6E32
06E2C:  MOVF   x15,W
06E2E:  SUBLW  8B
06E30:  BC    6E3C
....................          SSR_off; 
06E32:  BCF    F8D.1
06E34:  BCF    F96.1
....................          Precalentamiento=ON; 
06E36:  MOVLB  0
06E38:  BSF    xAA.2
06E3A:  MOVLB  2
....................       } 
....................       if(PresionPrecamara<130) 
06E3C:  MOVF   x16,F
06E3E:  BNZ   6E4A
06E40:  MOVF   x15,W
06E42:  SUBLW  81
06E44:  BNC   6E4A
....................          SSR_on; 
06E46:  BSF    F8D.1
06E48:  BCF    F96.1
....................    }else{ 
06E4A:  BRA    6E6E
....................       if(PresionPrecamara>=200){ 
06E4C:  MOVF   x16,F
06E4E:  BNZ   6E56
06E50:  MOVF   x15,W
06E52:  SUBLW  C7
06E54:  BC    6E60
....................          SSR_off; 
06E56:  BCF    F8D.1
06E58:  BCF    F96.1
....................          Precalentamiento=ON; 
06E5A:  MOVLB  0
06E5C:  BSF    xAA.2
06E5E:  MOVLB  2
....................       } 
....................       if(PresionPrecamara<190) 
06E60:  MOVF   x16,F
06E62:  BNZ   6E6E
06E64:  MOVF   x15,W
06E66:  SUBLW  BD
06E68:  BNC   6E6E
....................          SSR_on; 
06E6A:  BSF    F8D.1
06E6C:  BCF    F96.1
....................    } 
.................... } 
06E6E:  MOVLB  0
06E70:  RETLW  00
....................  
.................... void GuardaDatoEstatico(){ 
*
06734:  MOVLB  6
06736:  CLRF   x51
06738:  CLRF   x50
0673A:  CLRF   x53
0673C:  CLRF   x52
....................    int16 posCiclo=0,cicloMemoria=0; 
....................    posCiclo=Ciclos/200; 
0673E:  MOVFF  218,655
06742:  MOVFF  217,654
06746:  CLRF   x57
06748:  MOVLW  C8
0674A:  MOVWF  x56
0674C:  MOVLB  0
0674E:  CALL   5B40
06752:  MOVFF  02,651
06756:  MOVFF  01,650
....................    cicloMemoria=Ciclos-(posCiclo*200); 
0675A:  MOVFF  651,65B
0675E:  MOVFF  650,65A
06762:  MOVLB  6
06764:  CLRF   x5D
06766:  MOVLW  C8
06768:  MOVWF  x5C
0676A:  MOVLB  0
0676C:  CALL   21C4
06770:  MOVF   01,W
06772:  MOVLB  2
06774:  SUBWF  x17,W
06776:  MOVLB  6
06778:  MOVWF  x52
0677A:  MOVF   02,W
0677C:  MOVLB  2
0677E:  SUBWFB x18,W
06780:  MOVLB  6
06782:  MOVWF  x53
....................    if(!disp_Guarda){ 
06784:  MOVLB  0
06786:  BTFSC  xA7.4
06788:  BRA    691E
....................       write_ext_eeprom(cicloMemoria*320,codigoUsuario); 
0678A:  MOVFF  653,65B
0678E:  MOVFF  652,65A
06792:  MOVLW  01
06794:  MOVLB  6
06796:  MOVWF  x5D
06798:  MOVLW  40
0679A:  MOVWF  x5C
0679C:  MOVLB  0
0679E:  CALL   21C4
067A2:  MOVFF  02,655
067A6:  MOVFF  01,654
067AA:  MOVFF  02,658
067AE:  MOVFF  01,657
067B2:  MOVFF  250,659
067B6:  RCALL  6622
....................       delay_ms(10); 
067B8:  MOVLW  0A
067BA:  MOVLB  6
067BC:  MOVWF  x62
067BE:  MOVLB  0
067C0:  CALL   2128
....................       if(!Libre) 
067C4:  BTFSC  xA9.7
067C6:  BRA    6802
....................          write_ext_eeprom(1+(cicloMemoria*320),CicloSeleccionado); 
067C8:  MOVFF  653,65B
067CC:  MOVFF  652,65A
067D0:  MOVLW  01
067D2:  MOVLB  6
067D4:  MOVWF  x5D
067D6:  MOVLW  40
067D8:  MOVWF  x5C
067DA:  MOVLB  0
067DC:  CALL   21C4
067E0:  MOVFF  02,03
067E4:  MOVF   01,W
067E6:  ADDLW  01
067E8:  MOVLB  6
067EA:  MOVWF  x54
067EC:  MOVLW  00
067EE:  ADDWFC 02,W
067F0:  MOVWF  x55
067F2:  MOVWF  x58
067F4:  MOVFF  654,657
067F8:  MOVFF  1FC,659
067FC:  MOVLB  0
067FE:  RCALL  6622
....................       else 
06800:  BRA    6844
....................          write_ext_eeprom(1+(cicloMemoria*320),CicloLibre+10); 
06802:  MOVFF  653,65B
06806:  MOVFF  652,65A
0680A:  MOVLW  01
0680C:  MOVLB  6
0680E:  MOVWF  x5D
06810:  MOVLW  40
06812:  MOVWF  x5C
06814:  MOVLB  0
06816:  CALL   21C4
0681A:  MOVFF  02,03
0681E:  MOVF   01,W
06820:  ADDLW  01
06822:  MOVLB  6
06824:  MOVWF  x54
06826:  MOVLW  00
06828:  ADDWFC 02,W
0682A:  MOVWF  x55
0682C:  MOVLW  0A
0682E:  MOVLB  1
06830:  ADDWF  xEC,W
06832:  MOVLB  6
06834:  MOVWF  x56
06836:  MOVFF  655,658
0683A:  MOVFF  654,657
0683E:  MOVWF  x59
06840:  MOVLB  0
06842:  RCALL  6622
....................       delay_ms(10); 
06844:  MOVLW  0A
06846:  MOVLB  6
06848:  MOVWF  x62
0684A:  MOVLB  0
0684C:  CALL   2128
....................       write_ext_eeprom(2+(cicloMemoria*320),Dia); 
06850:  MOVFF  653,65B
06854:  MOVFF  652,65A
06858:  MOVLW  01
0685A:  MOVLB  6
0685C:  MOVWF  x5D
0685E:  MOVLW  40
06860:  MOVWF  x5C
06862:  MOVLB  0
06864:  CALL   21C4
06868:  MOVFF  02,03
0686C:  MOVF   01,W
0686E:  ADDLW  02
06870:  MOVLB  6
06872:  MOVWF  x54
06874:  MOVLW  00
06876:  ADDWFC 02,W
06878:  MOVWF  x55
0687A:  MOVWF  x58
0687C:  MOVFF  654,657
06880:  MOVFF  23A,659
06884:  MOVLB  0
06886:  RCALL  6622
....................       delay_ms(10); 
06888:  MOVLW  0A
0688A:  MOVLB  6
0688C:  MOVWF  x62
0688E:  MOVLB  0
06890:  CALL   2128
....................       write_ext_eeprom(3+(cicloMemoria*320),Mes); 
06894:  MOVFF  653,65B
06898:  MOVFF  652,65A
0689C:  MOVLW  01
0689E:  MOVLB  6
068A0:  MOVWF  x5D
068A2:  MOVLW  40
068A4:  MOVWF  x5C
068A6:  MOVLB  0
068A8:  CALL   21C4
068AC:  MOVFF  02,03
068B0:  MOVF   01,W
068B2:  ADDLW  03
068B4:  MOVLB  6
068B6:  MOVWF  x54
068B8:  MOVLW  00
068BA:  ADDWFC 02,W
068BC:  MOVWF  x55
068BE:  MOVWF  x58
068C0:  MOVFF  654,657
068C4:  MOVFF  239,659
068C8:  MOVLB  0
068CA:  RCALL  6622
....................       delay_ms(10); 
068CC:  MOVLW  0A
068CE:  MOVLB  6
068D0:  MOVWF  x62
068D2:  MOVLB  0
068D4:  CALL   2128
....................       write_ext_eeprom(4+(cicloMemoria*320),Year); 
068D8:  MOVFF  653,65B
068DC:  MOVFF  652,65A
068E0:  MOVLW  01
068E2:  MOVLB  6
068E4:  MOVWF  x5D
068E6:  MOVLW  40
068E8:  MOVWF  x5C
068EA:  MOVLB  0
068EC:  CALL   21C4
068F0:  MOVFF  02,03
068F4:  MOVF   01,W
068F6:  ADDLW  04
068F8:  MOVLB  6
068FA:  MOVWF  x54
068FC:  MOVLW  00
068FE:  ADDWFC 02,W
06900:  MOVWF  x55
06902:  MOVWF  x58
06904:  MOVFF  654,657
06908:  MOVFF  238,659
0690C:  MOVLB  0
0690E:  RCALL  6622
....................       delay_ms(10);  
06910:  MOVLW  0A
06912:  MOVLB  6
06914:  MOVWF  x62
06916:  MOVLB  0
06918:  CALL   2128
....................       disp_Guarda=1; 
0691C:  BSF    xA7.4
....................    }    
.................... } 
0691E:  GOTO   C936 (RETURN)
....................  
.................... void GuardaDatoCiclo(){ 
*
069EC:  MOVLB  6
069EE:  CLRF   x51
069F0:  CLRF   x50
069F2:  CLRF   x53
069F4:  CLRF   x52
....................    int16 posCiclo=0,cicloMemoria=0; 
....................    posCiclo=Ciclos/200; 
069F6:  MOVFF  218,655
069FA:  MOVFF  217,654
069FE:  CLRF   x57
06A00:  MOVLW  C8
06A02:  MOVWF  x56
06A04:  MOVLB  0
06A06:  CALL   5B40
06A0A:  MOVFF  02,651
06A0E:  MOVFF  01,650
....................    if(!Ciclo){ 
06A12:  BTFSC  xA7.5
06A14:  BRA    6D8C
....................       cicloMemoria=Ciclos-(posCiclo*200); 
06A16:  MOVFF  651,65B
06A1A:  MOVFF  650,65A
06A1E:  MOVLB  6
06A20:  CLRF   x5D
06A22:  MOVLW  C8
06A24:  MOVWF  x5C
06A26:  MOVLB  0
06A28:  CALL   21C4
06A2C:  MOVF   01,W
06A2E:  MOVLB  2
06A30:  SUBWF  x17,W
06A32:  MOVLB  6
06A34:  MOVWF  x52
06A36:  MOVF   02,W
06A38:  MOVLB  2
06A3A:  SUBWFB x18,W
06A3C:  MOVLB  6
06A3E:  MOVWF  x53
....................       write_ext_eeprom(5+(cicloMemoria*320)+(posicionDato*9),(int8)Temperatura); 
06A40:  MOVFF  653,65B
06A44:  MOVFF  652,65A
06A48:  MOVLW  01
06A4A:  MOVWF  x5D
06A4C:  MOVLW  40
06A4E:  MOVWF  x5C
06A50:  MOVLB  0
06A52:  CALL   21C4
06A56:  MOVFF  02,03
06A5A:  MOVF   01,W
06A5C:  ADDLW  05
06A5E:  MOVLB  6
06A60:  MOVWF  x54
06A62:  MOVLW  00
06A64:  ADDWFC 02,W
06A66:  MOVWF  x55
06A68:  MOVLB  2
06A6A:  MOVF   x2E,W
06A6C:  MULLW  09
06A6E:  MOVF   FF3,W
06A70:  MOVLB  6
06A72:  ADDWF  x54,F
06A74:  MOVLW  00
06A76:  ADDWFC x55,F
06A78:  MOVFF  1D9,665
06A7C:  MOVFF  1D8,664
06A80:  MOVFF  1D7,663
06A84:  MOVFF  1D6,662
06A88:  MOVLB  0
06A8A:  CALL   4BF0
06A8E:  MOVFF  01,656
06A92:  MOVFF  655,658
06A96:  MOVFF  654,657
06A9A:  MOVFF  01,659
06A9E:  RCALL  6622
....................       delay_ms(10); 
06AA0:  MOVLW  0A
06AA2:  MOVLB  6
06AA4:  MOVWF  x62
06AA6:  MOVLB  0
06AA8:  CALL   2128
....................       write_ext_eeprom(6+(cicloMemoria*320)+(posicionDato*9),extraeDecimal(Temperatura)); 
06AAC:  MOVFF  653,65B
06AB0:  MOVFF  652,65A
06AB4:  MOVLW  01
06AB6:  MOVLB  6
06AB8:  MOVWF  x5D
06ABA:  MOVLW  40
06ABC:  MOVWF  x5C
06ABE:  MOVLB  0
06AC0:  CALL   21C4
06AC4:  MOVFF  02,03
06AC8:  MOVF   01,W
06ACA:  ADDLW  06
06ACC:  MOVLB  6
06ACE:  MOVWF  x54
06AD0:  MOVLW  00
06AD2:  ADDWFC 02,W
06AD4:  MOVWF  x55
06AD6:  MOVLB  2
06AD8:  MOVF   x2E,W
06ADA:  MULLW  09
06ADC:  MOVF   FF3,W
06ADE:  MOVLB  6
06AE0:  ADDWF  x54,F
06AE2:  MOVLW  00
06AE4:  ADDWFC x55,F
06AE6:  MOVFF  1D9,659
06AEA:  MOVFF  1D8,658
06AEE:  MOVFF  1D7,657
06AF2:  MOVFF  1D6,656
06AF6:  MOVLB  0
06AF8:  BRA    6922
06AFA:  MOVFF  01,656
06AFE:  MOVFF  655,658
06B02:  MOVFF  654,657
06B06:  MOVFF  01,659
06B0A:  RCALL  6622
....................       delay_ms(10); 
06B0C:  MOVLW  0A
06B0E:  MOVLB  6
06B10:  MOVWF  x62
06B12:  MOVLB  0
06B14:  CALL   2128
....................       write_ext_eeprom(7+(cicloMemoria*320)+(posicionDato*9),make8(PresionCamara,1)); 
06B18:  MOVFF  653,65B
06B1C:  MOVFF  652,65A
06B20:  MOVLW  01
06B22:  MOVLB  6
06B24:  MOVWF  x5D
06B26:  MOVLW  40
06B28:  MOVWF  x5C
06B2A:  MOVLB  0
06B2C:  CALL   21C4
06B30:  MOVFF  02,03
06B34:  MOVF   01,W
06B36:  ADDLW  07
06B38:  MOVLB  6
06B3A:  MOVWF  x54
06B3C:  MOVLW  00
06B3E:  ADDWFC 02,W
06B40:  MOVWF  x55
06B42:  MOVLB  2
06B44:  MOVF   x2E,W
06B46:  MULLW  09
06B48:  MOVF   FF3,W
06B4A:  MOVLB  6
06B4C:  ADDWF  x54,F
06B4E:  MOVLW  00
06B50:  ADDWFC x55,F
06B52:  MOVFF  214,656
06B56:  MOVFF  655,658
06B5A:  MOVFF  654,657
06B5E:  MOVFF  214,659
06B62:  MOVLB  0
06B64:  RCALL  6622
....................       delay_ms(10); 
06B66:  MOVLW  0A
06B68:  MOVLB  6
06B6A:  MOVWF  x62
06B6C:  MOVLB  0
06B6E:  CALL   2128
....................       write_ext_eeprom(8+(cicloMemoria*320)+(posicionDato*9),make8(PresionCamara,0)); 
06B72:  MOVFF  653,65B
06B76:  MOVFF  652,65A
06B7A:  MOVLW  01
06B7C:  MOVLB  6
06B7E:  MOVWF  x5D
06B80:  MOVLW  40
06B82:  MOVWF  x5C
06B84:  MOVLB  0
06B86:  CALL   21C4
06B8A:  MOVFF  02,03
06B8E:  MOVF   01,W
06B90:  ADDLW  08
06B92:  MOVLB  6
06B94:  MOVWF  x54
06B96:  MOVLW  00
06B98:  ADDWFC 02,W
06B9A:  MOVWF  x55
06B9C:  MOVLB  2
06B9E:  MOVF   x2E,W
06BA0:  MULLW  09
06BA2:  MOVF   FF3,W
06BA4:  MOVLB  6
06BA6:  ADDWF  x54,F
06BA8:  MOVLW  00
06BAA:  ADDWFC x55,F
06BAC:  MOVFF  213,656
06BB0:  MOVFF  655,658
06BB4:  MOVFF  654,657
06BB8:  MOVFF  213,659
06BBC:  MOVLB  0
06BBE:  RCALL  6622
....................       delay_ms(10); 
06BC0:  MOVLW  0A
06BC2:  MOVLB  6
06BC4:  MOVWF  x62
06BC6:  MOVLB  0
06BC8:  CALL   2128
....................       write_ext_eeprom(9+(cicloMemoria*320)+(posicionDato*9),make8(PresionPreCamara,1)); 
06BCC:  MOVFF  653,65B
06BD0:  MOVFF  652,65A
06BD4:  MOVLW  01
06BD6:  MOVLB  6
06BD8:  MOVWF  x5D
06BDA:  MOVLW  40
06BDC:  MOVWF  x5C
06BDE:  MOVLB  0
06BE0:  CALL   21C4
06BE4:  MOVFF  02,03
06BE8:  MOVF   01,W
06BEA:  ADDLW  09
06BEC:  MOVLB  6
06BEE:  MOVWF  x54
06BF0:  MOVLW  00
06BF2:  ADDWFC 02,W
06BF4:  MOVWF  x55
06BF6:  MOVLB  2
06BF8:  MOVF   x2E,W
06BFA:  MULLW  09
06BFC:  MOVF   FF3,W
06BFE:  MOVLB  6
06C00:  ADDWF  x54,F
06C02:  MOVLW  00
06C04:  ADDWFC x55,F
06C06:  MOVFF  216,656
06C0A:  MOVFF  655,658
06C0E:  MOVFF  654,657
06C12:  MOVFF  216,659
06C16:  MOVLB  0
06C18:  RCALL  6622
....................       delay_ms(10); 
06C1A:  MOVLW  0A
06C1C:  MOVLB  6
06C1E:  MOVWF  x62
06C20:  MOVLB  0
06C22:  CALL   2128
....................       write_ext_eeprom(10+(cicloMemoria*320)+(posicionDato*9),make8(PresionPreCamara,0)); 
06C26:  MOVFF  653,65B
06C2A:  MOVFF  652,65A
06C2E:  MOVLW  01
06C30:  MOVLB  6
06C32:  MOVWF  x5D
06C34:  MOVLW  40
06C36:  MOVWF  x5C
06C38:  MOVLB  0
06C3A:  CALL   21C4
06C3E:  MOVFF  02,03
06C42:  MOVF   01,W
06C44:  ADDLW  0A
06C46:  MOVLB  6
06C48:  MOVWF  x54
06C4A:  MOVLW  00
06C4C:  ADDWFC 02,W
06C4E:  MOVWF  x55
06C50:  MOVLB  2
06C52:  MOVF   x2E,W
06C54:  MULLW  09
06C56:  MOVF   FF3,W
06C58:  MOVLB  6
06C5A:  ADDWF  x54,F
06C5C:  MOVLW  00
06C5E:  ADDWFC x55,F
06C60:  MOVFF  215,656
06C64:  MOVFF  655,658
06C68:  MOVFF  654,657
06C6C:  MOVFF  215,659
06C70:  MOVLB  0
06C72:  RCALL  6622
....................       delay_ms(10); 
06C74:  MOVLW  0A
06C76:  MOVLB  6
06C78:  MOVWF  x62
06C7A:  MOVLB  0
06C7C:  CALL   2128
....................       write_ext_eeprom(11+(cicloMemoria*320)+(posicionDato*9),Hora); 
06C80:  MOVFF  653,65B
06C84:  MOVFF  652,65A
06C88:  MOVLW  01
06C8A:  MOVLB  6
06C8C:  MOVWF  x5D
06C8E:  MOVLW  40
06C90:  MOVWF  x5C
06C92:  MOVLB  0
06C94:  CALL   21C4
06C98:  MOVFF  02,03
06C9C:  MOVF   01,W
06C9E:  ADDLW  0B
06CA0:  MOVLB  6
06CA2:  MOVWF  x54
06CA4:  MOVLW  00
06CA6:  ADDWFC 02,W
06CA8:  MOVWF  x55
06CAA:  MOVLB  2
06CAC:  MOVF   x2E,W
06CAE:  MULLW  09
06CB0:  MOVF   FF3,W
06CB2:  MOVLB  6
06CB4:  ADDWF  x54,F
06CB6:  MOVLW  00
06CB8:  ADDWFC x55,F
06CBA:  MOVFF  655,658
06CBE:  MOVFF  654,657
06CC2:  MOVFF  23B,659
06CC6:  MOVLB  0
06CC8:  RCALL  6622
....................       delay_ms(10); 
06CCA:  MOVLW  0A
06CCC:  MOVLB  6
06CCE:  MOVWF  x62
06CD0:  MOVLB  0
06CD2:  CALL   2128
....................       write_ext_eeprom(12+(cicloMemoria*320)+(posicionDato*9),Minuto); 
06CD6:  MOVFF  653,65B
06CDA:  MOVFF  652,65A
06CDE:  MOVLW  01
06CE0:  MOVLB  6
06CE2:  MOVWF  x5D
06CE4:  MOVLW  40
06CE6:  MOVWF  x5C
06CE8:  MOVLB  0
06CEA:  CALL   21C4
06CEE:  MOVFF  02,03
06CF2:  MOVF   01,W
06CF4:  ADDLW  0C
06CF6:  MOVLB  6
06CF8:  MOVWF  x54
06CFA:  MOVLW  00
06CFC:  ADDWFC 02,W
06CFE:  MOVWF  x55
06D00:  MOVLB  2
06D02:  MOVF   x2E,W
06D04:  MULLW  09
06D06:  MOVF   FF3,W
06D08:  MOVLB  6
06D0A:  ADDWF  x54,F
06D0C:  MOVLW  00
06D0E:  ADDWFC x55,F
06D10:  MOVFF  655,658
06D14:  MOVFF  654,657
06D18:  MOVFF  23C,659
06D1C:  MOVLB  0
06D1E:  RCALL  6622
....................       delay_ms(10); 
06D20:  MOVLW  0A
06D22:  MOVLB  6
06D24:  MOVWF  x62
06D26:  MOVLB  0
06D28:  CALL   2128
....................       write_ext_eeprom(13+(cicloMemoria*320)+(posicionDato*9),codigoAlarma); 
06D2C:  MOVFF  653,65B
06D30:  MOVFF  652,65A
06D34:  MOVLW  01
06D36:  MOVLB  6
06D38:  MOVWF  x5D
06D3A:  MOVLW  40
06D3C:  MOVWF  x5C
06D3E:  MOVLB  0
06D40:  CALL   21C4
06D44:  MOVFF  02,03
06D48:  MOVF   01,W
06D4A:  ADDLW  0D
06D4C:  MOVLB  6
06D4E:  MOVWF  x54
06D50:  MOVLW  00
06D52:  ADDWFC 02,W
06D54:  MOVWF  x55
06D56:  MOVLB  2
06D58:  MOVF   x2E,W
06D5A:  MULLW  09
06D5C:  MOVF   FF3,W
06D5E:  MOVLB  6
06D60:  ADDWF  x54,F
06D62:  MOVLW  00
06D64:  ADDWFC x55,F
06D66:  MOVFF  655,658
06D6A:  MOVFF  654,657
06D6E:  MOVFF  22F,659
06D72:  MOVLB  0
06D74:  RCALL  6622
....................       delay_ms(10); 
06D76:  MOVLW  0A
06D78:  MOVLB  6
06D7A:  MOVWF  x62
06D7C:  MOVLB  0
06D7E:  CALL   2128
....................     
....................       if(posicionDato<35) 
06D82:  MOVLB  2
06D84:  MOVF   x2E,W
06D86:  SUBLW  22
06D88:  BNC   6D8C
....................          ++posicionDato; 
06D8A:  INCF   x2E,F
06D8C:  MOVLB  0
....................    } 
.................... } 
06D8E:  RETLW  00
....................  
.................... void incrementaCiclos(){ 
....................    if(!Ciclo){ 
06D90:  BTFSC  xA7.5
06D92:  BRA    6E1E
....................       Ciclo=ON; 
06D94:  BSF    xA7.5
....................       Ciclos++; 
06D96:  MOVLB  2
06D98:  INCF   x17,F
06D9A:  BTFSC  FD8.2
06D9C:  INCF   x18,F
....................       CiclosL=make8(Ciclos,0); 
06D9E:  MOVFF  217,1FA
06DA2:  MOVLB  1
....................       CiclosH=make8(Ciclos,1); 
06DA4:  MOVFF  218,1FB
06DA8:  MOVLB  1
....................       write_eeprom(37,CiclosL); 
06DAA:  CLRF   FAA
06DAC:  MOVLW  25
06DAE:  MOVWF  FA9
06DB0:  MOVFF  1FA,FA8
06DB4:  BCF    FA6.6
06DB6:  BCF    FA6.7
06DB8:  BSF    FA6.2
06DBA:  MOVF   FF2,W
06DBC:  MOVWF  00
06DBE:  BCF    FF2.6
06DC0:  BCF    FF2.7
06DC2:  MOVLB  F
06DC4:  MOVLW  55
06DC6:  MOVWF  FA7
06DC8:  MOVLW  AA
06DCA:  MOVWF  FA7
06DCC:  BSF    FA6.1
06DCE:  BTFSC  FA6.1
06DD0:  BRA    6DCE
06DD2:  BCF    FA6.2
06DD4:  MOVF   00,W
06DD6:  IORWF  FF2,F
....................       delay_ms(20); 
06DD8:  MOVLW  14
06DDA:  MOVLB  6
06DDC:  MOVWF  x62
06DDE:  MOVLB  0
06DE0:  CALL   2128
....................       write_eeprom(38,CiclosH); 
06DE4:  CLRF   FAA
06DE6:  MOVLW  26
06DE8:  MOVWF  FA9
06DEA:  MOVFF  1FB,FA8
06DEE:  BCF    FA6.6
06DF0:  BCF    FA6.7
06DF2:  BSF    FA6.2
06DF4:  MOVF   FF2,W
06DF6:  MOVWF  00
06DF8:  BCF    FF2.6
06DFA:  BCF    FF2.7
06DFC:  MOVLB  F
06DFE:  MOVLW  55
06E00:  MOVWF  FA7
06E02:  MOVLW  AA
06E04:  MOVWF  FA7
06E06:  BSF    FA6.1
06E08:  BTFSC  FA6.1
06E0A:  BRA    6E08
06E0C:  BCF    FA6.2
06E0E:  MOVF   00,W
06E10:  IORWF  FF2,F
....................       delay_ms(20); 
06E12:  MOVLW  14
06E14:  MOVLB  6
06E16:  MOVWF  x62
06E18:  MOVLB  0
06E1A:  CALL   2128
....................    } 
.................... } 
06E1E:  RETLW  00
....................  
.................... void exportarData(){ 
*
05C6C:  MOVLB  6
05C6E:  CLRF   x51
05C70:  CLRF   x50
05C72:  CLRF   x52
.................... int16 posicion=0; 
.................... int8 tmp=0; 
.................... posicion=40; 
05C74:  CLRF   x51
05C76:  MOVLW  28
05C78:  MOVWF  x50
.................... direccion=0xB0; 
05C7A:  MOVLW  B0
05C7C:  MOVLB  0
05C7E:  MOVWF  x88
.................... //Buzzer_on; 
.................... //Inicio de Transmision 
.................... i2c_start();            // Comienzo comunicacin 
05C80:  BSF    F94.4
05C82:  MOVLW  05
05C84:  MOVWF  00
05C86:  DECFSZ 00,F
05C88:  BRA    5C86
05C8A:  BSF    F94.3
05C8C:  MOVLW  06
05C8E:  MOVWF  00
05C90:  DECFSZ 00,F
05C92:  BRA    5C90
05C94:  BCF    F8B.4
05C96:  BCF    F94.4
05C98:  MOVLW  05
05C9A:  MOVWF  00
05C9C:  DECFSZ 00,F
05C9E:  BRA    5C9C
05CA0:  BCF    F8B.3
05CA2:  BCF    F94.3
.................... i2c_write(direccion);   // Direccin del esclavo en el bus I2C 
05CA4:  MOVFF  88,663
05CA8:  CALL   21E6
.................... i2c_write(make8(posicion,0));    // Posicin donde se guardara el dato transmitido 
05CAC:  MOVFF  650,653
05CB0:  MOVFF  650,663
05CB4:  CALL   21E6
.................... i2c_write(make8(posicion,1));    // Posicin donde se guardara el dato transmitido 
05CB8:  MOVFF  651,653
05CBC:  MOVFF  651,663
05CC0:  CALL   21E6
.................... i2c_write(0xff);        // Dato a transmitir 
05CC4:  MOVLW  FF
05CC6:  MOVLB  6
05CC8:  MOVWF  x63
05CCA:  MOVLB  0
05CCC:  CALL   21E6
.................... i2c_stop(); 
05CD0:  BCF    F94.4
05CD2:  NOP   
05CD4:  BSF    F94.3
05CD6:  BTFSS  F82.3
05CD8:  BRA    5CD6
05CDA:  MOVLW  05
05CDC:  MOVWF  00
05CDE:  DECFSZ 00,F
05CE0:  BRA    5CDE
05CE2:  BRA    5CE4
05CE4:  NOP   
05CE6:  BSF    F94.4
05CE8:  MOVLW  05
05CEA:  MOVWF  00
05CEC:  DECFSZ 00,F
05CEE:  BRA    5CEC
.................... ++posicion; 
05CF0:  MOVLB  6
05CF2:  INCF   x50,F
05CF4:  BTFSC  FD8.2
05CF6:  INCF   x51,F
.................... i2c_start();            // Comienzo comunicacin 
05CF8:  BSF    F94.4
05CFA:  MOVLW  05
05CFC:  MOVWF  00
05CFE:  DECFSZ 00,F
05D00:  BRA    5CFE
05D02:  BSF    F94.3
05D04:  MOVLW  06
05D06:  MOVWF  00
05D08:  DECFSZ 00,F
05D0A:  BRA    5D08
05D0C:  BCF    F8B.4
05D0E:  BCF    F94.4
05D10:  MOVLW  05
05D12:  MOVWF  00
05D14:  DECFSZ 00,F
05D16:  BRA    5D14
05D18:  BCF    F8B.3
05D1A:  BCF    F94.3
.................... i2c_write(direccion);   // Direccin del esclavo en el bus I2C 
05D1C:  MOVFF  88,663
05D20:  MOVLB  0
05D22:  CALL   21E6
.................... i2c_write(make8(posicion,0));    // Posicin donde se guardara el dato transmitido 
05D26:  MOVFF  650,653
05D2A:  MOVFF  650,663
05D2E:  CALL   21E6
.................... i2c_write(make8(posicion,1));    // Posicin donde se guardara el dato transmitido 
05D32:  MOVFF  651,653
05D36:  MOVFF  651,663
05D3A:  CALL   21E6
.................... i2c_write(0xff);        // Dato a transmitir 
05D3E:  MOVLW  FF
05D40:  MOVLB  6
05D42:  MOVWF  x63
05D44:  MOVLB  0
05D46:  CALL   21E6
.................... i2c_stop(); 
05D4A:  BCF    F94.4
05D4C:  NOP   
05D4E:  BSF    F94.3
05D50:  BTFSS  F82.3
05D52:  BRA    5D50
05D54:  MOVLW  05
05D56:  MOVWF  00
05D58:  DECFSZ 00,F
05D5A:  BRA    5D58
05D5C:  BRA    5D5E
05D5E:  NOP   
05D60:  BSF    F94.4
05D62:  MOVLW  05
05D64:  MOVWF  00
05D66:  DECFSZ 00,F
05D68:  BRA    5D66
.................... ++posicion; 
05D6A:  MOVLB  6
05D6C:  INCF   x50,F
05D6E:  BTFSC  FD8.2
05D70:  INCF   x51,F
.................... //Se envian 2 veces ff para indicar que se inicia la transmision. 
....................  
....................    for(i=0;i<5;i++){ 
05D72:  MOVLB  1
05D74:  CLRF   xF9
05D76:  MOVF   xF9,W
05D78:  SUBLW  04
05D7A:  BNC   5E32
....................       tmp=read_ext_eeprom((cicloVisto*320)+i); 
05D7C:  MOVLB  6
05D7E:  CLRF   x5B
05D80:  MOVFF  240,65A
05D84:  MOVLW  01
05D86:  MOVWF  x5D
05D88:  MOVLW  40
05D8A:  MOVWF  x5C
05D8C:  MOVLB  0
05D8E:  CALL   21C4
05D92:  MOVFF  02,654
05D96:  MOVFF  01,653
05D9A:  MOVLB  1
05D9C:  MOVF   xF9,W
05D9E:  MOVLB  6
05DA0:  ADDWF  x53,F
05DA2:  MOVLW  00
05DA4:  ADDWFC x54,F
05DA6:  MOVFF  654,656
05DAA:  MOVFF  653,655
05DAE:  MOVLB  0
05DB0:  CALL   22C6
05DB4:  MOVFF  01,652
....................       //if(tmp>250) 
....................       //   tmp=20; 
....................       i2c_start();            // Comienzo comunicacin 
05DB8:  BSF    F94.4
05DBA:  MOVLW  05
05DBC:  MOVWF  00
05DBE:  DECFSZ 00,F
05DC0:  BRA    5DBE
05DC2:  BSF    F94.3
05DC4:  MOVLW  06
05DC6:  MOVWF  00
05DC8:  DECFSZ 00,F
05DCA:  BRA    5DC8
05DCC:  BCF    F8B.4
05DCE:  BCF    F94.4
05DD0:  MOVLW  05
05DD2:  MOVWF  00
05DD4:  DECFSZ 00,F
05DD6:  BRA    5DD4
05DD8:  BCF    F8B.3
05DDA:  BCF    F94.3
....................       i2c_write(direccion);   // Direccin del esclavo en el bus I2C 
05DDC:  MOVFF  88,663
05DE0:  CALL   21E6
....................       i2c_write(make8(posicion,0));    // Posicin donde se guardara el dato transmitido 
05DE4:  MOVFF  650,653
05DE8:  MOVFF  650,663
05DEC:  CALL   21E6
....................       i2c_write(make8(posicion,1));    // Posicin donde se guardara el dato transmitido 
05DF0:  MOVFF  651,653
05DF4:  MOVFF  651,663
05DF8:  CALL   21E6
....................       i2c_write(tmp);        // Dato a transmitir 
05DFC:  MOVFF  652,663
05E00:  CALL   21E6
....................       i2c_stop();  
05E04:  BCF    F94.4
05E06:  NOP   
05E08:  BSF    F94.3
05E0A:  BTFSS  F82.3
05E0C:  BRA    5E0A
05E0E:  MOVLW  05
05E10:  MOVWF  00
05E12:  DECFSZ 00,F
05E14:  BRA    5E12
05E16:  BRA    5E18
05E18:  NOP   
05E1A:  BSF    F94.4
05E1C:  MOVLW  05
05E1E:  MOVWF  00
05E20:  DECFSZ 00,F
05E22:  BRA    5E20
....................       ++posicion; 
05E24:  MOVLB  6
05E26:  INCF   x50,F
05E28:  BTFSC  FD8.2
05E2A:  INCF   x51,F
....................    } 
05E2C:  MOVLB  1
05E2E:  INCF   xF9,F
05E30:  BRA    5D76
....................    for(i=0;i<35;i++){//Lee Valores para completar la Tabla 
05E32:  CLRF   xF9
05E34:  MOVF   xF9,W
05E36:  SUBLW  22
05E38:  BNC   5F12
....................       for(j=5;j<14;j++){//Lee Valores para completar la Tabla 
05E3A:  MOVLW  05
05E3C:  MOVLB  2
05E3E:  MOVWF  x4F
05E40:  MOVF   x4F,W
05E42:  SUBLW  0D
05E44:  BNC   5F0C
....................          tmp=read_ext_eeprom((cicloVisto*320)+j+(i*9)); 
05E46:  MOVLB  6
05E48:  CLRF   x5B
05E4A:  MOVFF  240,65A
05E4E:  MOVLW  01
05E50:  MOVWF  x5D
05E52:  MOVLW  40
05E54:  MOVWF  x5C
05E56:  MOVLB  0
05E58:  CALL   21C4
05E5C:  MOVFF  02,654
05E60:  MOVFF  01,653
05E64:  MOVLB  2
05E66:  MOVF   x4F,W
05E68:  MOVLB  6
05E6A:  ADDWF  x53,F
05E6C:  MOVLW  00
05E6E:  ADDWFC x54,F
05E70:  MOVLB  1
05E72:  MOVF   xF9,W
05E74:  MULLW  09
05E76:  MOVF   FF3,W
05E78:  MOVLB  6
05E7A:  ADDWF  x53,F
05E7C:  MOVLW  00
05E7E:  ADDWFC x54,F
05E80:  MOVFF  654,656
05E84:  MOVFF  653,655
05E88:  MOVLB  0
05E8A:  CALL   22C6
05E8E:  MOVFF  01,652
....................          //if(tmp>250) 
....................          //   tmp=20; 
....................          i2c_start();            // Comienzo comunicacin 
05E92:  BSF    F94.4
05E94:  MOVLW  05
05E96:  MOVWF  00
05E98:  DECFSZ 00,F
05E9A:  BRA    5E98
05E9C:  BSF    F94.3
05E9E:  MOVLW  06
05EA0:  MOVWF  00
05EA2:  DECFSZ 00,F
05EA4:  BRA    5EA2
05EA6:  BCF    F8B.4
05EA8:  BCF    F94.4
05EAA:  MOVLW  05
05EAC:  MOVWF  00
05EAE:  DECFSZ 00,F
05EB0:  BRA    5EAE
05EB2:  BCF    F8B.3
05EB4:  BCF    F94.3
....................          i2c_write(direccion);   // Direccin del esclavo en el bus I2C 
05EB6:  MOVFF  88,663
05EBA:  CALL   21E6
....................          i2c_write(make8(posicion,0));    // Posicin donde se guardara el dato transmitido 
05EBE:  MOVFF  650,653
05EC2:  MOVFF  650,663
05EC6:  CALL   21E6
....................          i2c_write(make8(posicion,1));    // Posicin donde se guardara el dato transmitido 
05ECA:  MOVFF  651,653
05ECE:  MOVFF  651,663
05ED2:  CALL   21E6
....................          i2c_write(tmp);        // Dato a transmitir 
05ED6:  MOVFF  652,663
05EDA:  CALL   21E6
....................          i2c_stop();  
05EDE:  BCF    F94.4
05EE0:  NOP   
05EE2:  BSF    F94.3
05EE4:  BTFSS  F82.3
05EE6:  BRA    5EE4
05EE8:  MOVLW  05
05EEA:  MOVWF  00
05EEC:  DECFSZ 00,F
05EEE:  BRA    5EEC
05EF0:  BRA    5EF2
05EF2:  NOP   
05EF4:  BSF    F94.4
05EF6:  MOVLW  05
05EF8:  MOVWF  00
05EFA:  DECFSZ 00,F
05EFC:  BRA    5EFA
....................          ++posicion; 
05EFE:  MOVLB  6
05F00:  INCF   x50,F
05F02:  BTFSC  FD8.2
05F04:  INCF   x51,F
....................       } 
05F06:  MOVLB  2
05F08:  INCF   x4F,F
05F0A:  BRA    5E40
....................    } 
05F0C:  MOVLB  1
05F0E:  INCF   xF9,F
05F10:  BRA    5E34
....................  
.................... //Fin de Transmision 
.................... i2c_start();            // Comienzo comunicacin 
05F12:  BSF    F94.4
05F14:  MOVLW  05
05F16:  MOVWF  00
05F18:  DECFSZ 00,F
05F1A:  BRA    5F18
05F1C:  BSF    F94.3
05F1E:  MOVLW  06
05F20:  MOVWF  00
05F22:  DECFSZ 00,F
05F24:  BRA    5F22
05F26:  BCF    F8B.4
05F28:  BCF    F94.4
05F2A:  MOVLW  05
05F2C:  MOVWF  00
05F2E:  DECFSZ 00,F
05F30:  BRA    5F2E
05F32:  BCF    F8B.3
05F34:  BCF    F94.3
.................... i2c_write(direccion);   // Direccin del esclavo en el bus I2C 
05F36:  MOVFF  88,663
05F3A:  MOVLB  0
05F3C:  CALL   21E6
.................... i2c_write(make8(posicion,0));    // Posicin donde se guardara el dato transmitido 
05F40:  MOVFF  650,653
05F44:  MOVFF  650,663
05F48:  CALL   21E6
.................... i2c_write(make8(posicion,1));    // Posicin donde se guardara el dato transmitido 
05F4C:  MOVFF  651,653
05F50:  MOVFF  651,663
05F54:  CALL   21E6
.................... i2c_write(0x1f);        // Dato a transmitir 
05F58:  MOVLW  1F
05F5A:  MOVLB  6
05F5C:  MOVWF  x63
05F5E:  MOVLB  0
05F60:  CALL   21E6
.................... i2c_stop(); 
05F64:  BCF    F94.4
05F66:  NOP   
05F68:  BSF    F94.3
05F6A:  BTFSS  F82.3
05F6C:  BRA    5F6A
05F6E:  MOVLW  05
05F70:  MOVWF  00
05F72:  DECFSZ 00,F
05F74:  BRA    5F72
05F76:  BRA    5F78
05F78:  NOP   
05F7A:  BSF    F94.4
05F7C:  MOVLW  05
05F7E:  MOVWF  00
05F80:  DECFSZ 00,F
05F82:  BRA    5F80
.................... ++posicion; 
05F84:  MOVLB  6
05F86:  INCF   x50,F
05F88:  BTFSC  FD8.2
05F8A:  INCF   x51,F
.................... i2c_start();            // Comienzo comunicacin 
05F8C:  BSF    F94.4
05F8E:  MOVLW  05
05F90:  MOVWF  00
05F92:  DECFSZ 00,F
05F94:  BRA    5F92
05F96:  BSF    F94.3
05F98:  MOVLW  06
05F9A:  MOVWF  00
05F9C:  DECFSZ 00,F
05F9E:  BRA    5F9C
05FA0:  BCF    F8B.4
05FA2:  BCF    F94.4
05FA4:  MOVLW  05
05FA6:  MOVWF  00
05FA8:  DECFSZ 00,F
05FAA:  BRA    5FA8
05FAC:  BCF    F8B.3
05FAE:  BCF    F94.3
.................... i2c_write(direccion);   // Direccin del esclavo en el bus I2C 
05FB0:  MOVFF  88,663
05FB4:  MOVLB  0
05FB6:  CALL   21E6
.................... i2c_write(make8(posicion,0));    // Posicin donde se guardara el dato transmitido 
05FBA:  MOVFF  650,653
05FBE:  MOVFF  650,663
05FC2:  CALL   21E6
.................... i2c_write(make8(posicion,1));    // Posicin donde se guardara el dato transmitido 
05FC6:  MOVFF  651,653
05FCA:  MOVFF  651,663
05FCE:  CALL   21E6
.................... i2c_write(0x1f);        // Dato a transmitir 
05FD2:  MOVLW  1F
05FD4:  MOVLB  6
05FD6:  MOVWF  x63
05FD8:  MOVLB  0
05FDA:  CALL   21E6
.................... i2c_stop(); 
05FDE:  BCF    F94.4
05FE0:  NOP   
05FE2:  BSF    F94.3
05FE4:  BTFSS  F82.3
05FE6:  BRA    5FE4
05FE8:  MOVLW  05
05FEA:  MOVWF  00
05FEC:  DECFSZ 00,F
05FEE:  BRA    5FEC
05FF0:  BRA    5FF2
05FF2:  NOP   
05FF4:  BSF    F94.4
05FF6:  MOVLW  05
05FF8:  MOVWF  00
05FFA:  DECFSZ 00,F
05FFC:  BRA    5FFA
.................... ++posicion; 
05FFE:  MOVLB  6
06000:  INCF   x50,F
06002:  BTFSC  FD8.2
06004:  INCF   x51,F
.................... //Se envian 2 veces 1f para indicar que se inicia la transmision. 
.................... delay_ms(200); 
06006:  MOVLW  C8
06008:  MOVWF  x62
0600A:  MOVLB  0
0600C:  CALL   2128
.................... //Buzzer_off; 
.................... } 
06010:  GOTO   B976 (RETURN)
....................  
.................... void codificaAlarma(){ 
....................    if(ACiclos[i]==0){ 
06014:  CLRF   03
06016:  MOVLB  1
06018:  MOVF   xF9,W
0601A:  ADDLW  B0
0601C:  MOVWF  FE9
0601E:  MOVLW  02
06020:  ADDWFC 03,W
06022:  MOVWF  FEA
06024:  MOVF   FEF,F
06026:  BNZ   6064
....................       printf("A%u.txt=\"----\"",i+1); 
06028:  MOVLW  01
0602A:  ADDWF  xF9,W
0602C:  MOVLB  6
0602E:  MOVWF  x50
06030:  MOVLW  41
06032:  BTFSS  F9E.4
06034:  BRA    6032
06036:  MOVWF  FAD
06038:  MOVFF  650,655
0603C:  MOVLW  1B
0603E:  MOVWF  x56
06040:  MOVLB  0
06042:  RCALL  599E
06044:  MOVLW  3F
06046:  MOVWF  FF6
06048:  MOVLW  04
0604A:  MOVWF  FF7
0604C:  MOVLW  00
0604E:  MOVWF  FF8
06050:  MOVLW  0B
06052:  MOVLB  6
06054:  MOVWF  x55
06056:  MOVLB  0
06058:  CALL   56B2
....................       SendDataDisplay(); 
0605C:  CALL   3F6A
....................    }else if(ACiclos[i]==1){ 
06060:  BRA    661A
06062:  MOVLB  1
06064:  CLRF   03
06066:  MOVF   xF9,W
06068:  ADDLW  B0
0606A:  MOVWF  FE9
0606C:  MOVLW  02
0606E:  ADDWFC 03,W
06070:  MOVWF  FEA
06072:  DECFSZ FEF,W
06074:  BRA    60B2
....................       printf("A%u.txt=\"Parada\"",i+1); 
06076:  MOVLW  01
06078:  ADDWF  xF9,W
0607A:  MOVLB  6
0607C:  MOVWF  x50
0607E:  MOVLW  41
06080:  BTFSS  F9E.4
06082:  BRA    6080
06084:  MOVWF  FAD
06086:  MOVFF  650,655
0608A:  MOVLW  1B
0608C:  MOVWF  x56
0608E:  MOVLB  0
06090:  RCALL  599E
06092:  MOVLW  4F
06094:  MOVWF  FF6
06096:  MOVLW  04
06098:  MOVWF  FF7
0609A:  MOVLW  00
0609C:  MOVWF  FF8
0609E:  MOVLW  0D
060A0:  MOVLB  6
060A2:  MOVWF  x55
060A4:  MOVLB  0
060A6:  CALL   56B2
....................       SendDataDisplay(); 
060AA:  CALL   3F6A
....................    }else if(ACiclos[i]==2){ 
060AE:  BRA    661A
060B0:  MOVLB  1
060B2:  CLRF   03
060B4:  MOVF   xF9,W
060B6:  ADDLW  B0
060B8:  MOVWF  FE9
060BA:  MOVLW  02
060BC:  ADDWFC 03,W
060BE:  MOVWF  FEA
060C0:  MOVF   FEF,W
060C2:  SUBLW  02
060C4:  BNZ   6102
....................       printf("A%u.txt=\"Puerta\"",i+1); 
060C6:  MOVLW  01
060C8:  ADDWF  xF9,W
060CA:  MOVLB  6
060CC:  MOVWF  x50
060CE:  MOVLW  41
060D0:  BTFSS  F9E.4
060D2:  BRA    60D0
060D4:  MOVWF  FAD
060D6:  MOVFF  650,655
060DA:  MOVLW  1B
060DC:  MOVWF  x56
060DE:  MOVLB  0
060E0:  RCALL  599E
060E2:  MOVLW  61
060E4:  MOVWF  FF6
060E6:  MOVLW  04
060E8:  MOVWF  FF7
060EA:  MOVLW  00
060EC:  MOVWF  FF8
060EE:  MOVLW  0D
060F0:  MOVLB  6
060F2:  MOVWF  x55
060F4:  MOVLB  0
060F6:  CALL   56B2
....................       SendDataDisplay(); 
060FA:  CALL   3F6A
....................    }else if(ACiclos[i]==3){ 
060FE:  BRA    661A
06100:  MOVLB  1
06102:  CLRF   03
06104:  MOVF   xF9,W
06106:  ADDLW  B0
06108:  MOVWF  FE9
0610A:  MOVLW  02
0610C:  ADDWFC 03,W
0610E:  MOVWF  FEA
06110:  MOVF   FEF,W
06112:  SUBLW  03
06114:  BNZ   6152
....................       printf("A%u.txt=\"Termostato\"",i+1); 
06116:  MOVLW  01
06118:  ADDWF  xF9,W
0611A:  MOVLB  6
0611C:  MOVWF  x50
0611E:  MOVLW  41
06120:  BTFSS  F9E.4
06122:  BRA    6120
06124:  MOVWF  FAD
06126:  MOVFF  650,655
0612A:  MOVLW  1B
0612C:  MOVWF  x56
0612E:  MOVLB  0
06130:  RCALL  599E
06132:  MOVLW  73
06134:  MOVWF  FF6
06136:  MOVLW  04
06138:  MOVWF  FF7
0613A:  MOVLW  00
0613C:  MOVWF  FF8
0613E:  MOVLW  11
06140:  MOVLB  6
06142:  MOVWF  x55
06144:  MOVLB  0
06146:  CALL   56B2
....................       SendDataDisplay(); 
0614A:  CALL   3F6A
....................    }else if(ACiclos[i]==4){ 
0614E:  BRA    661A
06150:  MOVLB  1
06152:  CLRF   03
06154:  MOVF   xF9,W
06156:  ADDLW  B0
06158:  MOVWF  FE9
0615A:  MOVLW  02
0615C:  ADDWFC 03,W
0615E:  MOVWF  FEA
06160:  MOVF   FEF,W
06162:  SUBLW  04
06164:  BNZ   61A2
....................       printf("A%u.txt=\"SobreT\"",i+1); 
06166:  MOVLW  01
06168:  ADDWF  xF9,W
0616A:  MOVLB  6
0616C:  MOVWF  x50
0616E:  MOVLW  41
06170:  BTFSS  F9E.4
06172:  BRA    6170
06174:  MOVWF  FAD
06176:  MOVFF  650,655
0617A:  MOVLW  1B
0617C:  MOVWF  x56
0617E:  MOVLB  0
06180:  RCALL  599E
06182:  MOVLW  89
06184:  MOVWF  FF6
06186:  MOVLW  04
06188:  MOVWF  FF7
0618A:  MOVLW  00
0618C:  MOVWF  FF8
0618E:  MOVLW  0D
06190:  MOVLB  6
06192:  MOVWF  x55
06194:  MOVLB  0
06196:  CALL   56B2
....................       SendDataDisplay(); 
0619A:  CALL   3F6A
....................    }else if(ACiclos[i]==5){ 
0619E:  BRA    661A
061A0:  MOVLB  1
061A2:  CLRF   03
061A4:  MOVF   xF9,W
061A6:  ADDLW  B0
061A8:  MOVWF  FE9
061AA:  MOVLW  02
061AC:  ADDWFC 03,W
061AE:  MOVWF  FEA
061B0:  MOVF   FEF,W
061B2:  SUBLW  05
061B4:  BNZ   61F4
....................       printf("A%u.txt=\"Tiempo\"",i+1); 
061B6:  MOVLW  01
061B8:  ADDWF  xF9,W
061BA:  MOVLB  6
061BC:  MOVWF  x50
061BE:  MOVLW  41
061C0:  BTFSS  F9E.4
061C2:  BRA    61C0
061C4:  MOVWF  FAD
061C6:  MOVFF  650,655
061CA:  MOVLW  1B
061CC:  MOVWF  x56
061CE:  MOVLB  0
061D0:  CALL   599E
061D4:  MOVLW  9B
061D6:  MOVWF  FF6
061D8:  MOVLW  04
061DA:  MOVWF  FF7
061DC:  MOVLW  00
061DE:  MOVWF  FF8
061E0:  MOVLW  0D
061E2:  MOVLB  6
061E4:  MOVWF  x55
061E6:  MOVLB  0
061E8:  CALL   56B2
....................       SendDataDisplay(); 
061EC:  CALL   3F6A
....................    }else if(ACiclos[i]==6){ 
061F0:  BRA    661A
061F2:  MOVLB  1
061F4:  CLRF   03
061F6:  MOVF   xF9,W
061F8:  ADDLW  B0
061FA:  MOVWF  FE9
061FC:  MOVLW  02
061FE:  ADDWFC 03,W
06200:  MOVWF  FEA
06202:  MOVF   FEF,W
06204:  SUBLW  06
06206:  BNZ   6246
....................       printf("A%u.txt=\"Presion\"",i+1); 
06208:  MOVLW  01
0620A:  ADDWF  xF9,W
0620C:  MOVLB  6
0620E:  MOVWF  x50
06210:  MOVLW  41
06212:  BTFSS  F9E.4
06214:  BRA    6212
06216:  MOVWF  FAD
06218:  MOVFF  650,655
0621C:  MOVLW  1B
0621E:  MOVWF  x56
06220:  MOVLB  0
06222:  CALL   599E
06226:  MOVLW  AD
06228:  MOVWF  FF6
0622A:  MOVLW  04
0622C:  MOVWF  FF7
0622E:  MOVLW  00
06230:  MOVWF  FF8
06232:  MOVLW  0E
06234:  MOVLB  6
06236:  MOVWF  x55
06238:  MOVLB  0
0623A:  CALL   56B2
....................       SendDataDisplay(); 
0623E:  CALL   3F6A
....................    }else if(ACiclos[i]==7){ 
06242:  BRA    661A
06244:  MOVLB  1
06246:  CLRF   03
06248:  MOVF   xF9,W
0624A:  ADDLW  B0
0624C:  MOVWF  FE9
0624E:  MOVLW  02
06250:  ADDWFC 03,W
06252:  MOVWF  FEA
06254:  MOVF   FEF,W
06256:  SUBLW  07
06258:  BNZ   6298
....................       printf("A%u.txt=\"Bomba\"",i+1); 
0625A:  MOVLW  01
0625C:  ADDWF  xF9,W
0625E:  MOVLB  6
06260:  MOVWF  x50
06262:  MOVLW  41
06264:  BTFSS  F9E.4
06266:  BRA    6264
06268:  MOVWF  FAD
0626A:  MOVFF  650,655
0626E:  MOVLW  1B
06270:  MOVWF  x56
06272:  MOVLB  0
06274:  CALL   599E
06278:  MOVLW  BF
0627A:  MOVWF  FF6
0627C:  MOVLW  04
0627E:  MOVWF  FF7
06280:  MOVLW  00
06282:  MOVWF  FF8
06284:  MOVLW  0C
06286:  MOVLB  6
06288:  MOVWF  x55
0628A:  MOVLB  0
0628C:  CALL   56B2
....................       SendDataDisplay(); 
06290:  CALL   3F6A
....................    }else if(ACiclos[i]==8){ 
06294:  BRA    661A
06296:  MOVLB  1
06298:  CLRF   03
0629A:  MOVF   xF9,W
0629C:  ADDLW  B0
0629E:  MOVWF  FE9
062A0:  MOVLW  02
062A2:  ADDWFC 03,W
062A4:  MOVWF  FEA
062A6:  MOVF   FEF,W
062A8:  SUBLW  08
062AA:  BNZ   62EA
....................       printf("A%u.txt=\"ErrorVacio\"",i+1); 
062AC:  MOVLW  01
062AE:  ADDWF  xF9,W
062B0:  MOVLB  6
062B2:  MOVWF  x50
062B4:  MOVLW  41
062B6:  BTFSS  F9E.4
062B8:  BRA    62B6
062BA:  MOVWF  FAD
062BC:  MOVFF  650,655
062C0:  MOVLW  1B
062C2:  MOVWF  x56
062C4:  MOVLB  0
062C6:  CALL   599E
062CA:  MOVLW  CF
062CC:  MOVWF  FF6
062CE:  MOVLW  04
062D0:  MOVWF  FF7
062D2:  MOVLW  00
062D4:  MOVWF  FF8
062D6:  MOVLW  11
062D8:  MOVLB  6
062DA:  MOVWF  x55
062DC:  MOVLB  0
062DE:  CALL   56B2
....................       SendDataDisplay(); 
062E2:  CALL   3F6A
....................    }else if(ACiclos[i]==9){ 
062E6:  BRA    661A
062E8:  MOVLB  1
062EA:  CLRF   03
062EC:  MOVF   xF9,W
062EE:  ADDLW  B0
062F0:  MOVWF  FE9
062F2:  MOVLW  02
062F4:  ADDWFC 03,W
062F6:  MOVWF  FEA
062F8:  MOVF   FEF,W
062FA:  SUBLW  09
062FC:  BNZ   633C
....................       printf("A%u.txt=\"Llenado\"",i+1); 
062FE:  MOVLW  01
06300:  ADDWF  xF9,W
06302:  MOVLB  6
06304:  MOVWF  x50
06306:  MOVLW  41
06308:  BTFSS  F9E.4
0630A:  BRA    6308
0630C:  MOVWF  FAD
0630E:  MOVFF  650,655
06312:  MOVLW  1B
06314:  MOVWF  x56
06316:  MOVLB  0
06318:  CALL   599E
0631C:  MOVLW  E5
0631E:  MOVWF  FF6
06320:  MOVLW  04
06322:  MOVWF  FF7
06324:  MOVLW  00
06326:  MOVWF  FF8
06328:  MOVLW  0E
0632A:  MOVLB  6
0632C:  MOVWF  x55
0632E:  MOVLB  0
06330:  CALL   56B2
....................       SendDataDisplay(); 
06334:  CALL   3F6A
....................    }else if(ACiclos[i]==10){ 
06338:  BRA    661A
0633A:  MOVLB  1
0633C:  CLRF   03
0633E:  MOVF   xF9,W
06340:  ADDLW  B0
06342:  MOVWF  FE9
06344:  MOVLW  02
06346:  ADDWFC 03,W
06348:  MOVWF  FEA
0634A:  MOVF   FEF,W
0634C:  SUBLW  0A
0634E:  BNZ   638E
....................       printf("A%u.txt=\"PreCale\"",i+1); 
06350:  MOVLW  01
06352:  ADDWF  xF9,W
06354:  MOVLB  6
06356:  MOVWF  x50
06358:  MOVLW  41
0635A:  BTFSS  F9E.4
0635C:  BRA    635A
0635E:  MOVWF  FAD
06360:  MOVFF  650,655
06364:  MOVLW  1B
06366:  MOVWF  x56
06368:  MOVLB  0
0636A:  CALL   599E
0636E:  MOVLW  F7
06370:  MOVWF  FF6
06372:  MOVLW  04
06374:  MOVWF  FF7
06376:  MOVLW  00
06378:  MOVWF  FF8
0637A:  MOVLW  0E
0637C:  MOVLB  6
0637E:  MOVWF  x55
06380:  MOVLB  0
06382:  CALL   56B2
....................       SendDataDisplay(); 
06386:  CALL   3F6A
....................    }else if(ACiclos[i]==11){ 
0638A:  BRA    661A
0638C:  MOVLB  1
0638E:  CLRF   03
06390:  MOVF   xF9,W
06392:  ADDLW  B0
06394:  MOVWF  FE9
06396:  MOVLW  02
06398:  ADDWFC 03,W
0639A:  MOVWF  FEA
0639C:  MOVF   FEF,W
0639E:  SUBLW  0B
063A0:  BNZ   63E0
....................       printf("A%u.txt=\"Vacio\"",i+1); 
063A2:  MOVLW  01
063A4:  ADDWF  xF9,W
063A6:  MOVLB  6
063A8:  MOVWF  x50
063AA:  MOVLW  41
063AC:  BTFSS  F9E.4
063AE:  BRA    63AC
063B0:  MOVWF  FAD
063B2:  MOVFF  650,655
063B6:  MOVLW  1B
063B8:  MOVWF  x56
063BA:  MOVLB  0
063BC:  CALL   599E
063C0:  MOVLW  09
063C2:  MOVWF  FF6
063C4:  MOVLW  05
063C6:  MOVWF  FF7
063C8:  MOVLW  00
063CA:  MOVWF  FF8
063CC:  MOVLW  0C
063CE:  MOVLB  6
063D0:  MOVWF  x55
063D2:  MOVLB  0
063D4:  CALL   56B2
....................       SendDataDisplay(); 
063D8:  CALL   3F6A
....................    }else if(ACiclos[i]==12){ 
063DC:  BRA    661A
063DE:  MOVLB  1
063E0:  CLRF   03
063E2:  MOVF   xF9,W
063E4:  ADDLW  B0
063E6:  MOVWF  FE9
063E8:  MOVLW  02
063EA:  ADDWFC 03,W
063EC:  MOVWF  FEA
063EE:  MOVF   FEF,W
063F0:  SUBLW  0C
063F2:  BNZ   6432
....................       printf("A%u.txt=\"Calen\"",i+1); 
063F4:  MOVLW  01
063F6:  ADDWF  xF9,W
063F8:  MOVLB  6
063FA:  MOVWF  x50
063FC:  MOVLW  41
063FE:  BTFSS  F9E.4
06400:  BRA    63FE
06402:  MOVWF  FAD
06404:  MOVFF  650,655
06408:  MOVLW  1B
0640A:  MOVWF  x56
0640C:  MOVLB  0
0640E:  CALL   599E
06412:  MOVLW  19
06414:  MOVWF  FF6
06416:  MOVLW  05
06418:  MOVWF  FF7
0641A:  MOVLW  00
0641C:  MOVWF  FF8
0641E:  MOVLW  0C
06420:  MOVLB  6
06422:  MOVWF  x55
06424:  MOVLB  0
06426:  CALL   56B2
....................       SendDataDisplay(); 
0642A:  CALL   3F6A
....................    }else if(ACiclos[i]==13){ 
0642E:  BRA    661A
06430:  MOVLB  1
06432:  CLRF   03
06434:  MOVF   xF9,W
06436:  ADDLW  B0
06438:  MOVWF  FE9
0643A:  MOVLW  02
0643C:  ADDWFC 03,W
0643E:  MOVWF  FEA
06440:  MOVF   FEF,W
06442:  SUBLW  0D
06444:  BNZ   6484
....................       printf("A%u.txt=\"Desfoga\"",i+1); 
06446:  MOVLW  01
06448:  ADDWF  xF9,W
0644A:  MOVLB  6
0644C:  MOVWF  x50
0644E:  MOVLW  41
06450:  BTFSS  F9E.4
06452:  BRA    6450
06454:  MOVWF  FAD
06456:  MOVFF  650,655
0645A:  MOVLW  1B
0645C:  MOVWF  x56
0645E:  MOVLB  0
06460:  CALL   599E
06464:  MOVLW  29
06466:  MOVWF  FF6
06468:  MOVLW  05
0646A:  MOVWF  FF7
0646C:  MOVLW  00
0646E:  MOVWF  FF8
06470:  MOVLW  0E
06472:  MOVLB  6
06474:  MOVWF  x55
06476:  MOVLB  0
06478:  CALL   56B2
....................       SendDataDisplay(); 
0647C:  CALL   3F6A
....................    }else if(ACiclos[i]==14){ 
06480:  BRA    661A
06482:  MOVLB  1
06484:  CLRF   03
06486:  MOVF   xF9,W
06488:  ADDLW  B0
0648A:  MOVWF  FE9
0648C:  MOVLW  02
0648E:  ADDWFC 03,W
06490:  MOVWF  FEA
06492:  MOVF   FEF,W
06494:  SUBLW  0E
06496:  BNZ   64D6
....................       printf("A%u.txt=\"Finalizado\"",i+1); 
06498:  MOVLW  01
0649A:  ADDWF  xF9,W
0649C:  MOVLB  6
0649E:  MOVWF  x50
064A0:  MOVLW  41
064A2:  BTFSS  F9E.4
064A4:  BRA    64A2
064A6:  MOVWF  FAD
064A8:  MOVFF  650,655
064AC:  MOVLW  1B
064AE:  MOVWF  x56
064B0:  MOVLB  0
064B2:  CALL   599E
064B6:  MOVLW  3B
064B8:  MOVWF  FF6
064BA:  MOVLW  05
064BC:  MOVWF  FF7
064BE:  MOVLW  00
064C0:  MOVWF  FF8
064C2:  MOVLW  11
064C4:  MOVLB  6
064C6:  MOVWF  x55
064C8:  MOVLB  0
064CA:  CALL   56B2
....................       SendDataDisplay(); 
064CE:  CALL   3F6A
....................    }else if(ACiclos[i]==15){ 
064D2:  BRA    661A
064D4:  MOVLB  1
064D6:  CLRF   03
064D8:  MOVF   xF9,W
064DA:  ADDLW  B0
064DC:  MOVWF  FE9
064DE:  MOVLW  02
064E0:  ADDWFC 03,W
064E2:  MOVWF  FEA
064E4:  MOVF   FEF,W
064E6:  SUBLW  0F
064E8:  BNZ   6528
....................       printf("A%u.txt=\"Secando\"",i+1); 
064EA:  MOVLW  01
064EC:  ADDWF  xF9,W
064EE:  MOVLB  6
064F0:  MOVWF  x50
064F2:  MOVLW  41
064F4:  BTFSS  F9E.4
064F6:  BRA    64F4
064F8:  MOVWF  FAD
064FA:  MOVFF  650,655
064FE:  MOVLW  1B
06500:  MOVWF  x56
06502:  MOVLB  0
06504:  CALL   599E
06508:  MOVLW  51
0650A:  MOVWF  FF6
0650C:  MOVLW  05
0650E:  MOVWF  FF7
06510:  MOVLW  00
06512:  MOVWF  FF8
06514:  MOVLW  0E
06516:  MOVLB  6
06518:  MOVWF  x55
0651A:  MOVLB  0
0651C:  CALL   56B2
....................       SendDataDisplay(); 
06520:  CALL   3F6A
....................    }else if(ACiclos[i]==16){ 
06524:  BRA    661A
06526:  MOVLB  1
06528:  CLRF   03
0652A:  MOVF   xF9,W
0652C:  ADDLW  B0
0652E:  MOVWF  FE9
06530:  MOVLW  02
06532:  ADDWFC 03,W
06534:  MOVWF  FEA
06536:  MOVF   FEF,W
06538:  SUBLW  10
0653A:  BNZ   657A
....................       printf("A%u.txt=\"Esterilizando\"",i+1); 
0653C:  MOVLW  01
0653E:  ADDWF  xF9,W
06540:  MOVLB  6
06542:  MOVWF  x50
06544:  MOVLW  41
06546:  BTFSS  F9E.4
06548:  BRA    6546
0654A:  MOVWF  FAD
0654C:  MOVFF  650,655
06550:  MOVLW  1B
06552:  MOVWF  x56
06554:  MOVLB  0
06556:  CALL   599E
0655A:  MOVLW  63
0655C:  MOVWF  FF6
0655E:  MOVLW  05
06560:  MOVWF  FF7
06562:  MOVLW  00
06564:  MOVWF  FF8
06566:  MOVLW  14
06568:  MOVLB  6
0656A:  MOVWF  x55
0656C:  MOVLB  0
0656E:  CALL   56B2
....................       SendDataDisplay(); 
06572:  CALL   3F6A
....................    }else if(ACiclos[i]==17){ 
06576:  BRA    661A
06578:  MOVLB  1
0657A:  CLRF   03
0657C:  MOVF   xF9,W
0657E:  ADDLW  B0
06580:  MOVWF  FE9
06582:  MOVLW  02
06584:  ADDWFC 03,W
06586:  MOVWF  FEA
06588:  MOVF   FEF,W
0658A:  SUBLW  11
0658C:  BNZ   65CC
....................       printf("A%u.txt=\"Llenando\"",i+1); 
0658E:  MOVLW  01
06590:  ADDWF  xF9,W
06592:  MOVLB  6
06594:  MOVWF  x50
06596:  MOVLW  41
06598:  BTFSS  F9E.4
0659A:  BRA    6598
0659C:  MOVWF  FAD
0659E:  MOVFF  650,655
065A2:  MOVLW  1B
065A4:  MOVWF  x56
065A6:  MOVLB  0
065A8:  CALL   599E
065AC:  MOVLW  7B
065AE:  MOVWF  FF6
065B0:  MOVLW  05
065B2:  MOVWF  FF7
065B4:  MOVLW  00
065B6:  MOVWF  FF8
065B8:  MOVLW  0F
065BA:  MOVLB  6
065BC:  MOVWF  x55
065BE:  MOVLB  0
065C0:  CALL   56B2
....................       SendDataDisplay(); 
065C4:  CALL   3F6A
....................    }else if(ACiclos[i]==30){ 
065C8:  BRA    661A
065CA:  MOVLB  1
065CC:  CLRF   03
065CE:  MOVF   xF9,W
065D0:  ADDLW  B0
065D2:  MOVWF  FE9
065D4:  MOVLW  02
065D6:  ADDWFC 03,W
065D8:  MOVWF  FEA
065DA:  MOVF   FEF,W
065DC:  SUBLW  1E
065DE:  BNZ   661C
....................       printf("A%u.txt=\"Empaque\"",i+1); 
065E0:  MOVLW  01
065E2:  ADDWF  xF9,W
065E4:  MOVLB  6
065E6:  MOVWF  x50
065E8:  MOVLW  41
065EA:  BTFSS  F9E.4
065EC:  BRA    65EA
065EE:  MOVWF  FAD
065F0:  MOVFF  650,655
065F4:  MOVLW  1B
065F6:  MOVWF  x56
065F8:  MOVLB  0
065FA:  CALL   599E
065FE:  MOVLW  8F
06600:  MOVWF  FF6
06602:  MOVLW  05
06604:  MOVWF  FF7
06606:  MOVLW  00
06608:  MOVWF  FF8
0660A:  MOVLW  0E
0660C:  MOVLB  6
0660E:  MOVWF  x55
06610:  MOVLB  0
06612:  CALL   56B2
....................       SendDataDisplay(); 
06616:  CALL   3F6A
0661A:  MOVLB  1
....................    } 
.................... } 
0661C:  MOVLB  0
0661E:  GOTO   C432 (RETURN)
....................  
.................... void sistemaBloqueo(short activa){ 
....................    if(activa && DOOR){ 
....................       output_bit(PIN_C1,1); 
....................       output_bit(PIN_C2,0); 
....................       Cilindro=ON; 
....................    }else if(!activa){ 
....................       output_bit(PIN_C1,0); 
....................       output_bit(PIN_C2,1); 
....................    } 
.................... } 
....................  
.................... void graficaCurva(int16 tGrafica){ 
....................    if(tiempos2>=tGrafica){ 
*
053E0:  MOVLB  6
053E2:  MOVF   x51,W
053E4:  MOVLB  2
053E6:  SUBWF  x0A,W
053E8:  BNC   5400
053EA:  BNZ   53F6
053EC:  MOVLB  6
053EE:  MOVF   x50,W
053F0:  MOVLB  2
053F2:  SUBWF  x09,W
053F4:  BNC   5400
....................       Grafica=1; 
053F6:  MOVLB  1
053F8:  BSF    xED.0
....................       tiempos2=0; 
053FA:  MOVLB  2
053FC:  CLRF   x0A
053FE:  CLRF   x09
....................    } 
.................... } 
05400:  MOVLB  0
05402:  GOTO   7AE6 (RETURN)
....................  
.................... void muestreo(int16 tmuestreo){ 
....................    if(tiempos3>=tmuestreo){ 
05406:  MOVLB  6
05408:  MOVF   x51,W
0540A:  MOVLB  2
0540C:  SUBWF  x0C,W
0540E:  BNC   54B0
05410:  BNZ   541C
05412:  MOVLB  6
05414:  MOVF   x50,W
05416:  MOVLB  2
05418:  SUBWF  x0B,W
0541A:  BNC   54B0
....................       Temperatura=LeerPt100(0,MediaMovil); 
0541C:  MOVLB  6
0541E:  CLRF   x52
05420:  MOVFF  195,653
05424:  MOVLB  0
05426:  CALL   4112
0542A:  MOVFF  03,1D9
0542E:  MOVFF  02,1D8
05432:  MOVFF  01,1D7
05436:  MOVFF  00,1D6
....................       Temperatura2=LeerPt100(1,MediaMovil); 
0543A:  MOVLW  01
0543C:  MOVLB  6
0543E:  MOVWF  x52
05440:  MOVFF  195,653
05444:  MOVLB  0
05446:  CALL   4112
0544A:  MOVFF  03,1DD
0544E:  MOVFF  02,1DC
05452:  MOVFF  01,1DB
05456:  MOVFF  00,1DA
....................       PresionCamara=Leer_Sensor_Presion_Camara(10); 
0545A:  MOVLW  0A
0545C:  MOVLB  6
0545E:  MOVWF  x52
05460:  MOVLB  0
05462:  CALL   49F2
05466:  MOVFF  03,665
0546A:  MOVFF  02,664
0546E:  MOVFF  01,663
05472:  MOVFF  00,662
05476:  CALL   4BF0
0547A:  MOVFF  02,214
0547E:  MOVFF  01,213
....................       PresionPreCamara=Leer_Sensor_Presion_PreCamara(10); 
05482:  MOVLW  0A
05484:  MOVLB  6
05486:  MOVWF  x52
05488:  MOVLB  0
0548A:  CALL   4C2C
0548E:  MOVFF  03,665
05492:  MOVFF  02,664
05496:  MOVFF  01,663
0549A:  MOVFF  00,662
0549E:  CALL   4BF0
054A2:  MOVFF  02,216
054A6:  MOVFF  01,215
....................       tiempos3=0; 
054AA:  MOVLB  2
054AC:  CLRF   x0C
054AE:  CLRF   x0B
....................    } 
.................... } 
054B0:  MOVLB  0
054B2:  GOTO   7AF4 (RETURN)
....................  
.................... void monitoreaAgua(){ 
....................    if(LOWB){ 
054B6:  BSF    F93.2
054B8:  BTFSC  F81.2
054BA:  BRA    54D2
....................       SensadoNivelR=ON; 
054BC:  BSF    xAC.5
....................       if(TiempoSensadoNivelR>2){ 
054BE:  MOVLB  1
054C0:  MOVF   x99,W
054C2:  SUBLW  02
054C4:  BC    54CE
....................          SensadoNivelR=OFF; 
054C6:  MOVLB  0
054C8:  BCF    xAC.5
....................          ReservorioLleno=ON; 
054CA:  BSF    xAC.4
054CC:  MOVLB  1
....................       } 
....................    }else{ 
054CE:  BRA    54DE
054D0:  MOVLB  0
....................       SensadoNivelR=OFF; 
054D2:  BCF    xAC.5
....................       TiempoSensadoNivelR=0; 
054D4:  MOVLB  1
054D6:  CLRF   x99
....................       ReservorioLleno=OFF; 
054D8:  MOVLB  0
054DA:  BCF    xAC.4
054DC:  MOVLB  1
....................    } 
....................     
....................    if(!LOW){//Si no sensa agua en el nivel alto y no se ha llenado el calderin 
054DE:  BSF    F93.0
054E0:  BTFSS  F81.0
054E2:  BRA    54EE
....................       SensadoNivelL=ON;  
054E4:  MOVLB  0
054E6:  BSF    xAB.2
....................       Controlando=0;   
054E8:  MOVLB  1
054EA:  CLRF   xF0
....................    }else{ 
054EC:  BRA    54F8
....................       NivelBajo=ON; 
054EE:  MOVLB  0
054F0:  BSF    xAB.3
....................       tNivelBajo=0; 
054F2:  CLRF   xB8
054F4:  CLRF   xB7
....................       SensadoNivelL=OFF; 
054F6:  BCF    xAB.2
....................    } 
....................    
....................    if(tNivelBajo>3){ 
054F8:  MOVLB  0
054FA:  MOVF   xB8,F
054FC:  BNZ   5504
054FE:  MOVF   xB7,W
05500:  SUBLW  03
05502:  BC    5510
....................       SensadoNivelL=OFF; 
05504:  BCF    xAB.2
....................       NivelBajo=OFF; 
05506:  BCF    xAB.3
....................       TiempoSensadoNivel=0; 
05508:  CLRF   xB0
0550A:  CLRF   xAF
....................       SensadoNivel=OFF; 
0550C:  BCF    xA6.1
....................       CalderinLleno=OFF; 
0550E:  BCF    xA6.4
....................    } 
....................    
....................    if(!PruebaEstados){ 
05510:  BTFSC  xA7.3
05512:  BRA    5572
....................       if(NivelBajo){ 
05514:  BTFSS  xAB.3
05516:  BRA    554C
....................          if(HIG){ 
05518:  BSF    F93.1
0551A:  BTFSC  F81.1
0551C:  BRA    5536
....................             SensadoNivel=ON; 
0551E:  BSF    xA6.1
....................             if(TiempoSensadoNivel>2){ 
05520:  MOVF   xB0,F
05522:  BNZ   552A
05524:  MOVF   xAF,W
05526:  SUBLW  02
05528:  BC    5534
....................                SensadoNivel=OFF; 
0552A:  BCF    xA6.1
....................                CalderinLleno=ON; 
0552C:  BSF    xA6.4
....................                IniciaLlenado=OFF;                   
0552E:  BCF    xA3.5
....................                Agua_off; 
05530:  BSF    F8C.3
05532:  BCF    F95.3
....................             } 
....................          }else{ 
05534:  BRA    554A
....................             SensadoNivel=OFF; 
05536:  BCF    xA6.1
....................             TiempoSensadoNivel=0; 
05538:  CLRF   xB0
0553A:  CLRF   xAF
....................             if(!AlarmaLlenado && !CalderinLleno)    
0553C:  BTFSC  xA3.1
0553E:  BRA    5548
05540:  BTFSC  xA6.4
05542:  BRA    5548
....................                Agua_on; 
05544:  BCF    F8C.3
05546:  BCF    F95.3
....................             IniciaLlenado=ON; 
05548:  BSF    xA3.5
....................          } 
....................       }else{ 
0554A:  BRA    5556
....................          if(!AlarmaLlenado) 
0554C:  BTFSC  xA3.1
0554E:  BRA    5554
....................             Agua_on; 
05550:  BCF    F8C.3
05552:  BCF    F95.3
....................          IniciaLlenado=ON; 
05554:  BSF    xA3.5
....................       } 
....................        
....................       if(TiempoLlenado>600){ 
05556:  MOVF   xBA,W
05558:  SUBLW  01
0555A:  BC    556E
0555C:  XORLW  FF
0555E:  BNZ   5566
05560:  MOVF   xB9,W
05562:  SUBLW  58
05564:  BC    556E
....................          AlarmaLlenado=ON; 
05566:  BSF    xA3.1
....................          Agua_off; 
05568:  BSF    F8C.3
0556A:  BCF    F95.3
....................       }else{ 
0556C:  BRA    5570
....................          AlarmaLlenado=OFF; 
0556E:  BCF    xA3.1
....................       } 
....................    }else{ 
05570:  BRA    5574
....................       IniciaLlenado=OFF; 
05572:  BCF    xA3.5
....................    } 
.................... } 
05574:  GOTO   7AF8 (RETURN)
....................  
.................... void monitoreaStop(){ 
....................       if(!STOP && !IniciaCiclo && !PruebaEstados){ 
*
05638:  BSF    F93.4
0563A:  BTFSS  F81.4
0563C:  BRA    56A4
0563E:  BTFSC  xA3.6
05640:  BRA    56A4
05642:  BTFSC  xA7.3
05644:  BRA    56A4
....................          if(!disp_Stop){ 
05646:  MOVLB  1
05648:  BTFSC  xED.1
0564A:  BRA    5652
....................             disp_Stop=1;Menu=255; 
0564C:  BSF    xED.1
0564E:  MOVLW  FF
05650:  MOVWF  xF6
....................          } 
....................          Controlando=0; 
05652:  CLRF   xF0
....................          Desfogue_on; 
05654:  BCF    F8C.0
05656:  BCF    F95.0
....................          Paso_off; 
05658:  BSF    F8B.2
0565A:  BCF    F94.2
....................          //Suministro_off; 
....................          if(PresionCamara<Atmosferica) 
0565C:  MOVLB  2
0565E:  MOVF   x14,F
05660:  BNZ   566E
05662:  MOVF   x42,W
05664:  SUBWF  x13,W
05666:  BC    566E
....................             Aire_on; 
05668:  BCF    F8B.0
0566A:  BCF    F94.0
....................          else 
0566C:  BRA    5672
....................             Aire_off; 
0566E:  BSF    F8B.0
05670:  BCF    F94.0
....................          Vacio_off;    
05672:  BSF    F8B.1
05674:  BCF    F94.1
....................          Agua_off; 
05676:  BSF    F8C.3
05678:  BCF    F95.3
....................          BombaVacio_off; 
0567A:  BSF    F8C.2
0567C:  BCF    F95.2
....................          DesfogueSuave=OFF; 
0567E:  MOVLB  0
05680:  BCF    xA6.3
....................          printf("page Emergencia"); 
05682:  MOVLW  9E
05684:  MOVWF  FF6
05686:  MOVLW  05
05688:  MOVWF  FF7
0568A:  MOVLW  00
0568C:  MOVWF  FF8
0568E:  CALL   3F38
....................          SendDataDisplay(); 
05692:  CALL   3F6A
....................          ActivaAlarma(1); 
05696:  MOVLW  01
05698:  MOVLB  6
0569A:  MOVWF  x50
0569C:  MOVLB  0
0569E:  RCALL  5578
....................          BorraBuffer(); 
056A0:  BRA    560C
....................       }else{ 
056A2:  BRA    56AC
....................          if(disp_Stop){ 
056A4:  MOVLB  1
056A6:  BTFSS  xED.1
056A8:  BRA    56AC
....................             reset_cpu(); 
056AA:  RESET
056AC:  MOVLB  0
....................          } 
....................       }           
.................... } 
056AE:  GOTO   7AFC (RETURN)
....................  
.................... void cierraPuerta(){// Aadir logica de puertas 
....................    abrirPuerta=OFF; 
*
04EA2:  BCF    xA6.5
....................    tVacioEmpaque=0; 
04EA4:  CLRF   xBC
04EA6:  CLRF   xBB
....................    pulsoBajar=OFF; 
04EA8:  BCF    xA3.3
....................    if(!BLOQUEO){ 
04EAA:  BSF    F93.7
04EAC:  BTFSS  F81.7
04EAE:  BRA    4EEC
....................       Cilindro1_off; 
04EB0:  BCF    F8C.7
04EB2:  BCF    F95.7
....................       Cilindro2_off; 
04EB4:  BCF    F8C.6
04EB6:  BCF    F95.6
....................       estadoACierre=ON; 
04EB8:  BSF    xA9.5
....................       if(DOOR){ 
04EBA:  BSF    F93.3
04EBC:  BTFSC  F81.3
04EBE:  BRA    4EE4
....................          if(!EstadoEmpaque){ 
04EC0:  BTFSC  xAC.1
04EC2:  BRA    4EDE
....................             EstadoEmpaque=ON; 
04EC4:  BSF    xAC.1
....................             delay_ms(800); 
04EC6:  MOVLW  04
04EC8:  MOVLB  6
04ECA:  MOVWF  x50
04ECC:  MOVLW  C8
04ECE:  MOVWF  x62
04ED0:  MOVLB  0
04ED2:  CALL   2128
04ED6:  MOVLB  6
04ED8:  DECFSZ x50,F
04EDA:  BRA    4ECC
04EDC:  MOVLB  0
....................          } 
....................          Empaque_on; 
04EDE:  BSF    F8C.5
04EE0:  BCF    F95.5
....................          //cerroLimpio=ON; 
....................       }else{ 
04EE2:  BRA    4EEA
....................          Empaque_off; 
04EE4:  BCF    F8C.5
04EE6:  BCF    F95.5
....................          EstadoEmpaque=OFF; 
04EE8:  BCF    xAC.1
....................       } 
....................    }else{ 
04EEA:  BRA    4EFE
....................       if(!DOOR){ 
04EEC:  BSF    F93.3
04EEE:  BTFSS  F81.3
04EF0:  BRA    4EFE
....................          Cilindro1_on; 
04EF2:  BSF    F8C.7
04EF4:  BCF    F95.7
....................          Cilindro2_on; 
04EF6:  BSF    F8C.6
04EF8:  BCF    F95.6
....................          estadoACierre=OFF; 
04EFA:  BCF    xA9.5
....................          pulsoSubir=OFF; 
04EFC:  BCF    xA3.2
....................       } 
....................    } 
....................    Aux_off; 
04EFE:  BCF    F8C.4
04F00:  BCF    F95.4
....................    Suministro_on; 
04F02:  BCF    F8C.1
04F04:  BCF    F95.1
....................    estadoSuministro=ON; 
04F06:  BSF    xA7.1
.................... } 
04F08:  RETLW  00
....................  
.................... void abrePuerta(){ 
....................    abrirPuerta=ON; 
*
04E2A:  BSF    xA6.5
....................    pulsoSubir=OFF; 
04E2C:  BCF    xA3.2
....................    if(PresionCamara<=Atmosferica+15 && PresionCamara>Atmosferica-10){ 
04E2E:  MOVLW  0F
04E30:  MOVLB  2
04E32:  ADDWF  x42,W
04E34:  MOVF   x14,F
04E36:  BNZ   4E98
04E38:  SUBWF  x13,W
04E3A:  BZ    4E3E
04E3C:  BC    4E98
04E3E:  MOVLW  0A
04E40:  SUBWF  x42,W
04E42:  MOVF   x14,F
04E44:  BNZ   4E4C
04E46:  SUBWF  x13,W
04E48:  BZ    4E98
04E4A:  BNC   4E98
....................       Empaque_off; 
04E4C:  BCF    F8C.5
04E4E:  BCF    F95.5
....................       EstadoEmpaque=OFF; 
04E50:  MOVLB  0
04E52:  BCF    xAC.1
....................       Aux_on; 
04E54:  BSF    F8C.4
04E56:  BCF    F95.4
....................       if(DOOR){ 
04E58:  BSF    F93.3
04E5A:  BTFSC  F81.3
04E5C:  BRA    4E82
....................          if(tVacioEmpaque>=10){ 
04E5E:  MOVF   xBC,F
04E60:  BNZ   4E68
04E62:  MOVF   xBB,W
04E64:  SUBLW  09
04E66:  BC    4E7A
....................             Cilindro1_on; 
04E68:  BSF    F8C.7
04E6A:  BCF    F95.7
....................             Cilindro2_on; 
04E6C:  BSF    F8C.6
04E6E:  BCF    F95.6
....................             cerro=OFF; 
04E70:  BCF    xA6.6
....................             vacioEmpaque=OFF; 
04E72:  BCF    xA6.7
....................             BombaVacio_off; 
04E74:  BSF    F8C.2
04E76:  BCF    F95.2
....................          }else{ 
04E78:  BRA    4E80
....................             BombaVacio_on; 
04E7A:  BCF    F8C.2
04E7C:  BCF    F95.2
....................             vacioEmpaque=ON; 
04E7E:  BSF    xA6.7
....................          } 
....................       }else{ 
04E80:  BRA    4E96
....................          Cilindro1_on; 
04E82:  BSF    F8C.7
04E84:  BCF    F95.7
....................          Cilindro2_on; 
04E86:  BSF    F8C.6
04E88:  BCF    F95.6
....................          estadoACierre=OFF; 
04E8A:  BCF    xA9.5
....................          cerro=OFF; 
04E8C:  BCF    xA6.6
....................          vacioEmpaque=OFF; 
04E8E:  BCF    xA6.7
....................          BombaVacio_off; 
04E90:  BSF    F8C.2
04E92:  BCF    F95.2
....................          pulsoBajar=OFF; 
04E94:  BCF    xA3.3
04E96:  MOVLB  2
....................       } 
....................    } 
....................    Suministro_on; 
04E98:  BCF    F8C.1
04E9A:  BCF    F95.1
....................    estadoSuministro=ON; 
04E9C:  MOVLB  0
04E9E:  BSF    xA7.1
.................... } 
04EA0:  RETLW  00
....................  
....................  
....................  
.................... #int_rda HIGH 
.................... void serial_rx_isr(){ 
....................    Dato2=fgetc(); 
*
005AE:  BTFSS  F9E.5
005B0:  BRA    05AE
005B2:  MOVFF  FAE,1F5
005B6:  MOVLB  1
....................    if(Dato2==0x65){//Inicio Comunicacion 
005B8:  MOVF   xF5,W
005BA:  SUBLW  65
005BC:  BNZ   05C4
....................       Inicio=1; 
005BE:  MOVLW  01
005C0:  MOVWF  xF3
....................       RX_Wr_Index =0; 
005C2:  CLRF   46
....................    } 
....................     
....................    if(Inicio==1){ 
005C4:  DECFSZ xF3,W
005C6:  BRA    05DC
....................       Rx_Buffer2[RX_Wr_Index] = Dato2; 
005C8:  CLRF   03
005CA:  MOVF   46,W
005CC:  ADDLW  3B
005CE:  MOVWF  FE9
005D0:  MOVLW  00
005D2:  ADDWFC 03,W
005D4:  MOVWF  FEA
005D6:  MOVFF  1F5,FEF
....................       RX_Wr_Index++; 
005DA:  INCF   46,F
....................    } 
....................    if(RX_Wr_Index >= RX_BUFFER_SIZE){ 
005DC:  MOVF   46,W
005DE:  SUBLW  09
005E0:  BC    05E6
....................       RX_Wr_Index =0; 
005E2:  CLRF   46
....................       Inicio=0; 
005E4:  CLRF   xF3
....................    } 
....................  
....................    if(RX_Wr_Index==0){ 
005E6:  MOVF   46,F
005E8:  BNZ   060A
....................       if(Rx_Buffer2[0]==0x65 && Rx_Buffer2[1]==0xff && Rx_Buffer2[2]==0xff && Rx_Buffer2[8]==0x00 && Rx_Buffer2[9]==0xff ){ 
005EA:  MOVF   3B,W
005EC:  SUBLW  65
005EE:  BNZ   0606
005F0:  INCFSZ 3C,W
005F2:  BRA    0606
005F4:  INCFSZ 3D,W
005F6:  BRA    0606
005F8:  MOVF   43,F
005FA:  BNZ   0606
005FC:  INCFSZ 44,W
005FE:  BRA    0606
....................          Dato_Exitoso=5; 
00600:  MOVLW  05
00602:  MOVWF  xF4
....................       }else{ 
00604:  BRA    060A
....................          Dato_Exitoso=10; 
00606:  MOVLW  0A
00608:  MOVWF  xF4
....................       } 
....................    } 
.................... } 
....................  
0060A:  BCF    F9E.5
0060C:  MOVLB  0
0060E:  GOTO   010A
.................... #int_TIMER0 
.................... void temp0s(void){ 
....................    set_timer0(0); 
00612:  CLRF   FD7
00614:  CLRF   FD6
....................    t_exhaust++; 
00616:  MOVLB  2
00618:  INCF   x1F,F
0061A:  BTFSC  FD8.2
0061C:  INCF   x20,F
....................    if(DesfogueSuave){ 
0061E:  MOVLB  0
00620:  BTFSS  xA6.3
00622:  BRA    0654
....................          if(t_exhaust<=NivelSeleccionado){ // Si el tiempo es menor o igual al tiempo de control se enciende la resistencia de lo contrario se apaga. 
00624:  MOVLB  2
00626:  MOVF   x20,W
00628:  SUBWF  x22,W
0062A:  BNC   063A
0062C:  BNZ   0634
0062E:  MOVF   x1F,W
00630:  SUBWF  x21,W
00632:  BNC   063A
....................             Desfogue_on; 
00634:  BCF    F8C.0
00636:  BCF    F95.0
....................          }else{             
00638:  BRA    063E
....................             Desfogue_off; 
0063A:  BSF    F8C.0
0063C:  BCF    F95.0
....................          }    
....................        
....................          if(t_exhaust>=60000){ // Si el tiempo de control es mayor al tiempo de ciclo se reinicia tiempo de control 
0063E:  MOVF   x20,W
00640:  SUBLW  E9
00642:  BC    0652
00644:  XORLW  FF
00646:  BNZ   064E
00648:  MOVF   x1F,W
0064A:  SUBLW  5F
0064C:  BC    0652
....................             t_exhaust=0; 
0064E:  CLRF   x20
00650:  CLRF   x1F
00652:  MOVLB  0
....................          } // tiempoctrl incrementa una unidad cada Xms, por eso se dividen los tiempos por 0.005. 
....................    }   
.................... } 
....................  
00654:  BCF    FF2.2
00656:  GOTO   0074
.................... #int_TIMER1 
.................... void temp1s(void){ 
....................    set_timer1(40536); // Se repite cada 5ms 
0065A:  MOVLW  9E
0065C:  MOVWF  FCF
0065E:  MOVLW  58
00660:  MOVWF  FCE
....................    tiempos++; 
00662:  MOVLB  2
00664:  INCF   x07,F
00666:  BTFSC  FD8.2
00668:  INCF   x08,F
....................    tiempos2++; 
0066A:  INCF   x09,F
0066C:  BTFSC  FD8.2
0066E:  INCF   x0A,F
....................    tiempos3++; 
00670:  INCF   x0B,F
00672:  BTFSC  FD8.2
00674:  INCF   x0C,F
....................    tiempoctrl++; 
00676:  INCF   x0D,F
00678:  BTFSC  FD8.2
0067A:  INCF   x0E,F
....................     
....................    if(flagAlarma) 
0067C:  MOVLB  0
0067E:  BTFSS  xA9.0
00680:  BRA    068C
....................       tbuzzer++; 
00682:  MOVLB  2
00684:  INCF   x32,F
00686:  BTFSC  FD8.2
00688:  INCF   x33,F
0068A:  MOVLB  0
....................        
....................    if(flagSilencio)    
0068C:  BTFSS  xA9.2
0068E:  BRA    0698
....................       tsilencio++; 
00690:  MOVLB  2
00692:  INCF   x34,F
00694:  BTFSC  FD8.2
00696:  INCF   x35,F
....................        
....................    if(Controlando==1){ 
00698:  MOVLB  1
0069A:  DECFSZ xF0,W
0069C:  BRA    06DC
....................       if(tiempoctrl<Tp) // Si el tiempo es menor o igual al tiempo de control se enciende la resistencia de lo contrario se apaga. 
0069E:  MOVLB  2
006A0:  MOVF   x0E,W
006A2:  MOVLB  0
006A4:  SUBWF  xB2,W
006A6:  BNC   06C0
006A8:  BNZ   06BA
006AA:  MOVF   xB1,W
006AC:  MOVLB  2
006AE:  SUBWF  x0D,W
006B0:  BTFSS  FD8.0
006B2:  BRA    06B8
006B4:  MOVLB  0
006B6:  BRA    06C0
006B8:  MOVLB  0
....................          SSR_on; 
006BA:  BSF    F8D.1
006BC:  BCF    F96.1
....................       else          
006BE:  BRA    06C4
....................          SSR_off; 
006C0:  BCF    F8D.1
006C2:  BCF    F96.1
....................              
....................       if(tiempoctrl>=Tc) // Si el tiempo de control es mayor al tiempo de ciclo se reinicia tiempo de control 
006C4:  MOVF   xB4,W
006C6:  MOVLB  2
006C8:  SUBWF  x0E,W
006CA:  BNC   06DC
006CC:  BNZ   06D8
006CE:  MOVLB  0
006D0:  MOVF   xB3,W
006D2:  MOVLB  2
006D4:  SUBWF  x0D,W
006D6:  BNC   06DC
....................          tiempoctrl=0;// tiempoctrl incrementa una unidad cada 5ms, por eso se dividen los tiempos por 0.005. 
006D8:  CLRF   x0E
006DA:  CLRF   x0D
....................    } 
....................  
....................    if(tiempos>=200){  // 12000 para que incremente cada minuto, 200para que incremente cada segundo. 
006DC:  MOVLB  2
006DE:  MOVF   x08,F
006E0:  BNZ   06EA
006E2:  MOVF   x07,W
006E4:  SUBLW  C7
006E6:  BTFSC  FD8.0
006E8:  BRA    081C
....................        
....................       if(flagTC) 
006EA:  MOVLB  1
006EC:  BTFSS  xED.2
006EE:  BRA    06FA
....................          TiempoControl++; 
006F0:  MOVLB  2
006F2:  INCF   x36,F
006F4:  BTFSC  FD8.2
006F6:  INCF   x37,F
006F8:  MOVLB  1
....................       tiemporecta++; 
006FA:  INCF   xEF,F
....................        
....................       if(IniciaCiclo && tiempoImpresion<CalculoImpresion){ 
006FC:  MOVLB  0
006FE:  BTFSS  xA3.6
00700:  BRA    0726
00702:  MOVLB  2
00704:  MOVF   x1E,F
00706:  BTFSC  FD8.2
00708:  BRA    070E
0070A:  MOVLB  0
0070C:  BRA    0726
0070E:  MOVLB  1
00710:  MOVF   xF2,W
00712:  MOVLB  2
00714:  SUBWF  x1D,W
00716:  BTFSS  FD8.0
00718:  BRA    071E
0071A:  MOVLB  0
0071C:  BRA    0726
....................          tiempoImpresion++; 
0071E:  INCF   x1D,F
00720:  BTFSC  FD8.2
00722:  INCF   x1E,F
....................       }else if(tiempoImpresion>=CalculoImpresion){ 
00724:  BRA    0740
00726:  MOVLB  2
00728:  MOVF   x1E,F
0072A:  BNZ   0736
0072C:  MOVLB  1
0072E:  MOVF   xF2,W
00730:  MOVLB  2
00732:  SUBWF  x1D,W
00734:  BNC   0740
....................          flagImprime=1; 
00736:  MOVLB  1
00738:  BSF    xED.3
....................          tiempoImpresion=0; 
0073A:  MOVLB  2
0073C:  CLRF   x1E
0073E:  CLRF   x1D
....................       } 
....................        
....................       if(vacioEmpaque) 
00740:  MOVLB  0
00742:  BTFSS  xA6.7
00744:  BRA    074E
....................          tVacioEmpaque++; 
00746:  INCF   xBB,F
00748:  BTFSC  FD8.2
0074A:  INCF   xBC,F
....................       else 
0074C:  BRA    0752
....................          tVacioEmpaque=0; 
0074E:  CLRF   xBC
00750:  CLRF   xBB
....................           
....................       if(EstadoEmpaque && !PRES) 
00752:  BTFSS  xAC.1
00754:  BRA    0764
00756:  BSF    F93.6
00758:  BTFSC  F81.6
0075A:  BRA    0764
....................          tEmpaque++; 
0075C:  INCF   xBD,F
0075E:  BTFSC  FD8.2
00760:  INCF   xBE,F
....................       else 
00762:  BRA    0768
....................          tEmpaque=0; 
00764:  CLRF   xBE
00766:  CLRF   xBD
....................        
....................       if(IniciaLlenado && !CalderinLleno) 
00768:  BTFSS  xA3.5
0076A:  BRA    0776
0076C:  BTFSC  xA6.4
0076E:  BRA    0776
....................          TiempoLlenado++; 
00770:  INCF   xB9,F
00772:  BTFSC  FD8.2
00774:  INCF   xBA,F
....................        
....................       if(SensadoNivel) 
00776:  BTFSS  xA6.1
00778:  BRA    0780
....................          TiempoSensadoNivel++; 
0077A:  INCF   xAF,F
0077C:  BTFSC  FD8.2
0077E:  INCF   xB0,F
....................           
....................       if(SensadoNivelR) 
00780:  BTFSS  xAC.5
00782:  BRA    078A
....................          TiempoSensadoNivelR++;    
00784:  MOVLB  1
00786:  INCF   x99,F
00788:  MOVLB  0
....................        
....................       if(guardaCiclo) 
0078A:  BTFSS  xA2.7
0078C:  BRA    0794
....................          tguarda++; 
0078E:  INCF   xB5,F
00790:  BTFSC  FD8.2
00792:  INCF   xB6,F
....................        
....................       if(IniciaCiclo && !Esterilizando && DOOR) 
00794:  BTFSS  xA3.6
00796:  BRA    07A8
00798:  BTFSC  xA3.7
0079A:  BRA    07A8
0079C:  BSF    F93.3
0079E:  BTFSC  F81.3
007A0:  BRA    07A8
....................          TiempoCiclo++; 
007A2:  INCF   xAD,F
007A4:  BTFSC  FD8.2
007A6:  INCF   xAE,F
....................        
....................       if(SensadoNivel) 
007A8:  BTFSS  xA6.1
007AA:  BRA    07B2
....................          TiempoSensadoNivel++; 
007AC:  INCF   xAF,F
007AE:  BTFSC  FD8.2
007B0:  INCF   xB0,F
....................           
....................       if(SensadoNivelL) 
007B2:  BTFSS  xAB.2
007B4:  BRA    07BC
....................          tNivelBajo++; 
007B6:  INCF   xB7,F
007B8:  BTFSC  FD8.2
007BA:  INCF   xB8,F
....................        
....................       if(IniciaVacio) 
007BC:  BTFSS  xAA.3
007BE:  BRA    07CA
....................          tvacio++;          
007C0:  MOVLB  2
007C2:  INCF   x1B,F
007C4:  BTFSC  FD8.2
007C6:  INCF   x1C,F
007C8:  MOVLB  0
....................        
....................       if(IniciaVacio2) 
007CA:  BTFSS  xAA.4
007CC:  BRA    07D6
....................          tbomba++; 
007CE:  MOVLB  2
007D0:  INCF   x19,F
007D2:  BTFSC  FD8.2
007D4:  INCF   x1A,F
....................       
....................       tiempos=0;Lectura=1;tinicio++; 
007D6:  MOVLB  2
007D8:  CLRF   x08
007DA:  CLRF   x07
007DC:  MOVLB  0
007DE:  BSF    xAC.7
007E0:  MOVLB  2
007E2:  INCF   x11,F
007E4:  BTFSC  FD8.2
007E6:  INCF   x12,F
....................     
....................       if(Esterilizando && !Desfogando){                
007E8:  MOVLB  0
007EA:  BTFSS  xA3.7
007EC:  BRA    0804
007EE:  BTFSC  xA6.2
007F0:  BRA    0804
....................          if(sEst>0){ 
007F2:  MOVF   xBF,F
007F4:  BZ    07FA
....................             sEst--; 
007F6:  DECF   xBF,F
....................          }else if(mEst>0){ 
007F8:  BRA    0804
007FA:  MOVF   xC0,F
007FC:  BZ    0804
....................             mEst--; 
007FE:  DECF   xC0,F
....................             sEst=59; 
00800:  MOVLW  3B
00802:  MOVWF  xBF
....................          } 
....................       } 
....................       if(Secando){ 
00804:  BTFSS  xA6.0
00806:  BRA    081A
....................          if(sSec>0){ 
00808:  MOVF   xC1,F
0080A:  BZ    0810
....................             sSec--; 
0080C:  DECF   xC1,F
....................          }else if(mSec>0){ 
0080E:  BRA    081A
00810:  MOVF   xC2,F
00812:  BZ    081A
....................             mSec--; 
00814:  DECF   xC2,F
....................             sSec=59; 
00816:  MOVLW  3B
00818:  MOVWF  xC1
0081A:  MOVLB  2
....................          } 
....................       } 
....................    } 
.................... } 
....................  
0081C:  BCF    F9E.0
0081E:  MOVLB  0
00820:  GOTO   0074
.................... void main() 
.................... { 
*
07434:  CLRF   FF8
07436:  BCF    FF1.2
07438:  BCF    F9F.0
0743A:  BSF    F9F.5
0743C:  BSF    FD0.7
0743E:  BSF    07.7
07440:  CLRF   FEA
07442:  CLRF   FE9
07444:  BSF    FB8.3
07446:  MOVLW  08
07448:  MOVWF  FAF
0744A:  MOVLW  02
0744C:  MOVWF  FB0
0744E:  MOVLW  A6
07450:  MOVWF  FAC
07452:  MOVLW  90
07454:  MOVWF  FAB
07456:  CLRF   46
07458:  CLRF   x87
0745A:  CLRF   x88
0745C:  CLRF   x89
0745E:  BCF    xA2.0
07460:  BCF    xA2.1
07462:  BCF    xA2.2
07464:  BCF    xA2.3
07466:  BCF    xA2.4
07468:  BCF    xA2.5
0746A:  BCF    xA2.6
0746C:  BCF    xA2.7
0746E:  BCF    xA3.0
07470:  BCF    xA3.1
07472:  BCF    xA3.2
07474:  BCF    xA3.3
07476:  BCF    xA3.4
07478:  MOVLW  02
0747A:  MOVWF  xA5
0747C:  MOVLW  58
0747E:  MOVWF  xA4
07480:  BCF    xA3.5
07482:  BCF    xA3.6
07484:  BCF    xA3.7
07486:  BCF    xA6.0
07488:  BCF    xA6.1
0748A:  BCF    xA6.2
0748C:  BCF    xA6.3
0748E:  BCF    xA6.4
07490:  BCF    xA6.5
07492:  BCF    xA6.6
07494:  BCF    xA6.7
07496:  BCF    xA7.0
07498:  BCF    xA7.1
0749A:  BCF    xA7.2
0749C:  BCF    xA7.3
0749E:  BCF    xA7.4
074A0:  BCF    xA7.5
074A2:  BCF    xA7.6
074A4:  BCF    xA7.7
074A6:  BCF    xA8.0
074A8:  BCF    xA8.1
074AA:  BCF    xA8.2
074AC:  BCF    xA8.3
074AE:  BCF    xA8.4
074B0:  BCF    xA8.5
074B2:  BCF    xA8.6
074B4:  BCF    xA8.7
074B6:  BCF    xA9.0
074B8:  BCF    xA9.1
074BA:  BCF    xA9.2
074BC:  BCF    xA9.3
074BE:  BCF    xA9.4
074C0:  BCF    xA9.5
074C2:  BCF    xA9.6
074C4:  BCF    xA9.7
074C6:  BCF    xAA.0
074C8:  BCF    xAA.1
074CA:  BCF    xAA.2
074CC:  BCF    xAA.3
074CE:  BCF    xAA.4
074D0:  BCF    xAA.5
074D2:  BCF    xAA.6
074D4:  BCF    xAA.7
074D6:  BCF    xAB.0
074D8:  BCF    xAB.1
074DA:  BCF    xAB.2
074DC:  BCF    xAB.3
074DE:  BCF    xAB.4
074E0:  BCF    xAB.5
074E2:  BCF    xAB.6
074E4:  BCF    xAB.7
074E6:  BCF    xAC.0
074E8:  BCF    xAC.1
074EA:  BCF    xAC.2
074EC:  BCF    xAC.3
074EE:  BCF    xAC.4
074F0:  BCF    xAC.5
074F2:  CLRF   xAE
074F4:  CLRF   xAD
074F6:  CLRF   xB0
074F8:  CLRF   xAF
074FA:  CLRF   xB2
074FC:  CLRF   xB1
074FE:  CLRF   xB4
07500:  CLRF   xB3
07502:  CLRF   xB6
07504:  CLRF   xB5
07506:  CLRF   xB8
07508:  CLRF   xB7
0750A:  CLRF   xBA
0750C:  CLRF   xB9
0750E:  CLRF   xBC
07510:  CLRF   xBB
07512:  CLRF   xBE
07514:  CLRF   xBD
07516:  CLRF   xBF
07518:  CLRF   xC0
0751A:  CLRF   xC1
0751C:  CLRF   xC2
0751E:  CLRF   xC3
07520:  CLRF   xC4
07522:  CLRF   xC5
07524:  CLRF   xC6
07526:  MOVLB  1
07528:  CLRF   x6A
0752A:  CLRF   x69
0752C:  CLRF   x68
0752E:  CLRF   x67
07530:  CLRF   x6E
07532:  CLRF   x6D
07534:  CLRF   x6C
07536:  CLRF   x6B
07538:  CLRF   x72
0753A:  CLRF   x71
0753C:  CLRF   x70
0753E:  CLRF   x6F
07540:  MOVLW  4A
07542:  MOVWF  x76
07544:  MOVLW  88
07546:  MOVWF  x75
07548:  MOVLW  28
0754A:  MOVWF  x74
0754C:  MOVLW  75
0754E:  MOVWF  x73
07550:  CLRF   x7A
07552:  MOVLW  68
07554:  MOVWF  x79
07556:  MOVLW  53
07558:  MOVWF  x78
0755A:  MOVLW  8B
0755C:  MOVWF  x77
0755E:  CLRF   x7E
07560:  CLRF   x7D
07562:  CLRF   x7C
07564:  CLRF   x7B
07566:  CLRF   x82
07568:  CLRF   x81
0756A:  CLRF   x80
0756C:  CLRF   x7F
0756E:  CLRF   x8E
07570:  CLRF   x8D
07572:  CLRF   x8C
07574:  CLRF   x8B
07576:  CLRF   x92
07578:  CLRF   x91
0757A:  CLRF   x90
0757C:  CLRF   x8F
0757E:  CLRF   x93
07580:  CLRF   x94
07582:  MOVLW  14
07584:  MOVWF  x95
07586:  CLRF   x96
07588:  CLRF   x97
0758A:  CLRF   x98
0758C:  CLRF   x99
0758E:  CLRF   x9D
07590:  CLRF   x9C
07592:  CLRF   x9B
07594:  CLRF   x9A
07596:  CLRF   xA5
07598:  CLRF   xA4
0759A:  MOVLW  20
0759C:  MOVWF  xA3
0759E:  MOVLW  82
075A0:  MOVWF  xA2
075A2:  CLRF   xA9
075A4:  CLRF   xA8
075A6:  CLRF   xA7
075A8:  CLRF   xA6
075AA:  CLRF   xAD
075AC:  CLRF   xAC
075AE:  CLRF   xAB
075B0:  CLRF   xAA
075B2:  CLRF   xB1
075B4:  CLRF   xB0
075B6:  CLRF   xAF
075B8:  CLRF   xAE
075BA:  CLRF   xB5
075BC:  CLRF   xB4
075BE:  CLRF   xB3
075C0:  CLRF   xB2
075C2:  CLRF   xB9
075C4:  CLRF   xB8
075C6:  CLRF   xB7
075C8:  CLRF   xB6
075CA:  CLRF   xBD
075CC:  CLRF   xBC
075CE:  MOVLW  48
075D0:  MOVWF  xBB
075D2:  MOVLW  83
075D4:  MOVWF  xBA
075D6:  CLRF   xC1
075D8:  CLRF   xC0
075DA:  MOVLW  20
075DC:  MOVWF  xBF
075DE:  MOVLW  83
075E0:  MOVWF  xBE
075E2:  CLRF   xC5
075E4:  CLRF   xC4
075E6:  CLRF   xC3
075E8:  MOVLW  7F
075EA:  MOVWF  xC2
075EC:  CLRF   xC9
075EE:  CLRF   xC8
075F0:  CLRF   xC7
075F2:  CLRF   xC6
075F4:  CLRF   xCD
075F6:  CLRF   xCC
075F8:  CLRF   xCB
075FA:  CLRF   xCA
075FC:  CLRF   xD1
075FE:  CLRF   xD0
07600:  CLRF   xCF
07602:  CLRF   xCE
07604:  CLRF   xD5
07606:  CLRF   xD4
07608:  CLRF   xD3
0760A:  CLRF   xD2
0760C:  CLRF   xD9
0760E:  CLRF   xD8
07610:  CLRF   xD7
07612:  CLRF   xD6
07614:  CLRF   xDD
07616:  CLRF   xDC
07618:  CLRF   xDB
0761A:  CLRF   xDA
0761C:  MOVLW  E0
0761E:  MOVWF  xE1
07620:  MOVLW  2D
07622:  MOVWF  xE0
07624:  MOVLW  10
07626:  MOVWF  xDF
07628:  MOVLW  75
0762A:  MOVWF  xDE
0762C:  MOVLW  FF
0762E:  MOVWF  xE5
07630:  MOVLW  21
07632:  MOVWF  xE4
07634:  MOVLW  15
07636:  MOVWF  xE3
07638:  MOVLW  80
0763A:  MOVWF  xE2
0763C:  MOVLW  82
0763E:  MOVWF  xE9
07640:  MOVLW  12
07642:  MOVWF  xE8
07644:  MOVLW  F4
07646:  MOVWF  xE7
07648:  MOVLW  86
0764A:  MOVWF  xE6
0764C:  CLRF   xEA
0764E:  CLRF   xEB
07650:  CLRF   xEC
07652:  MOVLB  0
07654:  BCF    xAC.6
07656:  BCF    xAC.7
07658:  MOVLB  1
0765A:  BCF    xED.0
0765C:  BCF    xED.1
0765E:  BCF    xED.2
07660:  BCF    xED.3
07662:  CLRF   xEE
07664:  CLRF   xEF
07666:  CLRF   xF0
07668:  MOVLW  02
0766A:  MOVWF  xF1
0766C:  CLRF   xF2
0766E:  MOVLW  01
07670:  MOVWF  xF3
07672:  CLRF   xF4
07674:  CLRF   xF5
07676:  CLRF   xF6
07678:  CLRF   xF7
0767A:  MOVLW  F0
0767C:  MOVWF  xF8
0767E:  CLRF   xF9
07680:  CLRF   xFA
07682:  CLRF   xFB
07684:  CLRF   xFC
07686:  CLRF   xFD
07688:  CLRF   xFF
0768A:  MOVLW  04
0768C:  MOVWF  xFE
0768E:  MOVLB  2
07690:  CLRF   x01
07692:  CLRF   x00
07694:  CLRF   x02
07696:  MOVLW  01
07698:  MOVWF  x03
0769A:  MOVWF  x04
0769C:  CLRF   x05
0769E:  CLRF   x06
076A0:  CLRF   x08
076A2:  CLRF   x07
076A4:  CLRF   x0A
076A6:  CLRF   x09
076A8:  CLRF   x0C
076AA:  CLRF   x0B
076AC:  CLRF   x0E
076AE:  CLRF   x0D
076B0:  CLRF   x10
076B2:  CLRF   x0F
076B4:  CLRF   x12
076B6:  CLRF   x11
076B8:  CLRF   x14
076BA:  CLRF   x13
076BC:  CLRF   x16
076BE:  CLRF   x15
076C0:  CLRF   x18
076C2:  CLRF   x17
076C4:  CLRF   x1A
076C6:  CLRF   x19
076C8:  CLRF   x1C
076CA:  CLRF   x1B
076CC:  CLRF   x1E
076CE:  CLRF   x1D
076D0:  CLRF   x20
076D2:  CLRF   x1F
076D4:  CLRF   x22
076D6:  CLRF   x21
076D8:  CLRF   x27
076DA:  CLRF   x28
076DC:  CLRF   x29
076DE:  CLRF   x2A
076E0:  CLRF   x2B
076E2:  CLRF   x2C
076E4:  CLRF   x2D
076E6:  CLRF   x2E
076E8:  CLRF   x2F
076EA:  CLRF   x30
076EC:  CLRF   x31
076EE:  CLRF   x33
076F0:  CLRF   x32
076F2:  CLRF   x35
076F4:  CLRF   x34
076F6:  CLRF   x37
076F8:  CLRF   x36
076FA:  MOVLW  12
076FC:  MOVWF  x38
076FE:  MOVLW  09
07700:  MOVWF  x39
07702:  MOVLW  0D
07704:  MOVWF  x3A
07706:  CLRF   x3B
07708:  CLRF   x3C
0770A:  CLRF   x3D
0770C:  CLRF   x3E
0770E:  CLRF   x3F
07710:  CLRF   x40
07712:  MOVLW  19
07714:  MOVWF  x41
07716:  MOVLW  4B
07718:  MOVWF  x42
0771A:  MOVLW  0A
0771C:  MOVWF  x43
0771E:  CLRF   x44
07720:  CLRF   x45
07722:  CLRF   x46
07724:  CLRF   x47
07726:  CLRF   x48
07728:  CLRF   x49
0772A:  CLRF   x4A
0772C:  CLRF   x4B
0772E:  CLRF   x4C
07730:  CLRF   x4D
07732:  CLRF   x4E
07734:  CLRF   x4F
07736:  CLRF   x50
07738:  CLRF   x51
0773A:  CLRF   x52
0773C:  CLRF   x53
0773E:  CLRF   x54
07740:  CLRF   x55
07742:  CLRF   xB7
07744:  CLRF   xB8
07746:  CLRF   xB9
07748:  CLRF   xBA
0774A:  CLRF   xBB
0774C:  MOVF   FC1,W
0774E:  ANDLW  C0
07750:  IORLW  0F
07752:  MOVWF  FC1
07754:  MOVLW  07
07756:  MOVWF  FB4
07758:  CLRF   2A
0775A:  CLRF   2B
0775C:  MOVLB  0
0775E:  CLRF   x8A
07760:  MOVLW  03
07762:  MOVWF  x8B
07764:  MOVWF  x8C
07766:  MOVLW  06
07768:  MOVWF  x8D
0776A:  MOVLW  01
0776C:  MOVWF  x8E
0776E:  MOVLW  04
07770:  MOVWF  x8F
07772:  MOVLW  06
07774:  MOVWF  x90
07776:  MOVLW  02
07778:  MOVWF  x91
0777A:  MOVLW  05
0777C:  MOVWF  x92
0777E:  CLRF   x93
07780:  MOVLW  03
07782:  MOVWF  x94
07784:  MOVLW  05
07786:  MOVWF  x95
07788:  CLRF   x96
0778A:  MOVLW  03
0778C:  MOVWF  x97
0778E:  MOVLW  04
07790:  MOVWF  x98
07792:  CLRF   x99
07794:  MOVLW  02
07796:  MOVWF  x9A
07798:  MOVLW  05
0779A:  MOVWF  x9B
0779C:  CLRF   x9C
0779E:  MOVLW  03
077A0:  MOVWF  x9D
077A2:  MOVLW  06
077A4:  MOVWF  x9E
077A6:  MOVLW  01
077A8:  MOVWF  x9F
077AA:  MOVLW  04
077AC:  MOVWF  xA0
077AE:  MOVLW  06
077B0:  MOVWF  xA1
077B2:  CLRF   xC7
077B4:  CLRF   xC8
077B6:  CLRF   xC9
077B8:  CLRF   xCA
077BA:  CLRF   xCB
077BC:  CLRF   xCC
077BE:  CLRF   xCD
077C0:  CLRF   xCE
077C2:  CLRF   xCF
077C4:  CLRF   xD0
077C6:  CLRF   xD1
077C8:  CLRF   xD2
077CA:  CLRF   xD3
077CC:  CLRF   xD4
077CE:  CLRF   xD5
077D0:  CLRF   xD6
077D2:  CLRF   xD7
077D4:  CLRF   xD8
077D6:  CLRF   xD9
077D8:  CLRF   xDA
077DA:  CLRF   xDB
077DC:  CLRF   xDC
077DE:  CLRF   xDD
077E0:  CLRF   xDE
077E2:  CLRF   xDF
077E4:  CLRF   xE0
077E6:  CLRF   xE1
077E8:  CLRF   xE2
077EA:  CLRF   xE3
077EC:  CLRF   xE4
077EE:  CLRF   xE5
077F0:  CLRF   xE6
077F2:  CLRF   xE7
077F4:  CLRF   xE8
077F6:  CLRF   xE9
077F8:  CLRF   xEA
077FA:  CLRF   xEB
077FC:  CLRF   xEC
077FE:  CLRF   xED
07800:  CLRF   xEE
07802:  CLRF   xEF
07804:  CLRF   xF0
07806:  CLRF   xF1
07808:  CLRF   xF2
0780A:  CLRF   xF3
0780C:  CLRF   xF4
0780E:  CLRF   xF5
07810:  CLRF   xF6
07812:  CLRF   xF7
07814:  CLRF   xF8
07816:  CLRF   xF9
07818:  CLRF   xFA
0781A:  CLRF   xFB
0781C:  CLRF   xFC
0781E:  CLRF   xFD
07820:  CLRF   xFE
07822:  CLRF   xFF
07824:  MOVLB  1
07826:  CLRF   x00
07828:  CLRF   x01
0782A:  CLRF   x02
0782C:  CLRF   x03
0782E:  CLRF   x04
07830:  CLRF   x05
07832:  CLRF   x06
07834:  CLRF   x07
07836:  CLRF   x08
07838:  CLRF   x09
0783A:  CLRF   x0A
0783C:  CLRF   x0B
0783E:  CLRF   x0C
07840:  CLRF   x0D
07842:  CLRF   x0E
07844:  CLRF   x0F
07846:  CLRF   x10
07848:  CLRF   x11
0784A:  CLRF   x12
0784C:  CLRF   x13
0784E:  CLRF   x14
07850:  CLRF   x15
07852:  CLRF   x16
07854:  CLRF   x17
07856:  CLRF   x18
07858:  CLRF   x19
0785A:  CLRF   x1A
0785C:  CLRF   x1B
0785E:  CLRF   x1C
07860:  CLRF   x1D
07862:  CLRF   x1E
07864:  CLRF   x1F
07866:  CLRF   x20
07868:  CLRF   x21
0786A:  CLRF   x22
0786C:  CLRF   x23
0786E:  CLRF   x24
07870:  CLRF   x25
07872:  CLRF   x26
07874:  CLRF   x27
07876:  CLRF   x28
07878:  CLRF   x29
0787A:  CLRF   x2A
0787C:  CLRF   x2B
0787E:  CLRF   x2C
07880:  CLRF   x2D
07882:  CLRF   x2E
07884:  CLRF   x2F
07886:  CLRF   x30
07888:  CLRF   x31
0788A:  CLRF   x32
0788C:  CLRF   x33
0788E:  CLRF   x34
07890:  CLRF   x35
07892:  CLRF   x36
07894:  CLRF   x37
07896:  CLRF   x38
07898:  CLRF   x39
0789A:  CLRF   x3A
0789C:  CLRF   x3B
0789E:  CLRF   x3C
078A0:  CLRF   x3D
078A2:  CLRF   x3E
078A4:  CLRF   x3F
078A6:  CLRF   x40
078A8:  CLRF   x41
078AA:  CLRF   x42
078AC:  CLRF   x43
078AE:  CLRF   x44
078B0:  CLRF   x45
078B2:  CLRF   x46
078B4:  CLRF   x47
078B6:  CLRF   x48
078B8:  CLRF   x49
078BA:  CLRF   x4A
078BC:  CLRF   x4B
078BE:  CLRF   x4C
078C0:  CLRF   x4D
078C2:  CLRF   x4E
078C4:  CLRF   x4F
078C6:  CLRF   x50
078C8:  CLRF   x51
078CA:  CLRF   x52
078CC:  CLRF   x53
078CE:  CLRF   x54
078D0:  CLRF   x55
078D2:  CLRF   x56
078D4:  CLRF   x57
078D6:  CLRF   x58
078D8:  CLRF   x59
078DA:  CLRF   x5A
078DC:  CLRF   x5B
078DE:  CLRF   x5C
078E0:  CLRF   x5D
078E2:  CLRF   x5E
078E4:  CLRF   x5F
078E6:  CLRF   x60
078E8:  CLRF   x61
078EA:  CLRF   x62
078EC:  CLRF   x63
078EE:  CLRF   x64
078F0:  CLRF   x65
078F2:  CLRF   x66
078F4:  CLRF   x83
078F6:  CLRF   x84
078F8:  CLRF   x85
078FA:  CLRF   x86
078FC:  CLRF   x87
078FE:  CLRF   x88
07900:  CLRF   x89
07902:  CLRF   x8A
07904:  MOVLB  2
07906:  CLRF   x23
07908:  CLRF   x24
0790A:  CLRF   x25
0790C:  CLRF   x26
0790E:  CLRF   xBC
07910:  CLRF   xBD
07912:  CLRF   xBE
07914:  CLRF   xBF
....................    setup_timer_0(RTCC_8_BIT|RTCC_DIV_1); 
07916:  MOVLW  C8
07918:  MOVWF  FD5
....................    enable_interrupts(INT_TIMER0); 
0791A:  BSF    FF2.5
....................    setup_timer_1(T1_INTERNAL|T1_DIV_BY_1); 
0791C:  MOVLW  85
0791E:  MOVWF  FCD
....................    enable_interrupts(INT_TIMER1); 
07920:  BSF    F9D.0
....................    setup_adc(ADC_CLOCK_DIV_64); 
07922:  MOVF   FC0,W
07924:  ANDLW  C0
07926:  IORLW  06
07928:  MOVWF  FC0
0792A:  BSF    FC0.7
0792C:  BSF    FC2.0
....................    setup_adc_ports(AN0_TO_AN5); 
0792E:  MOVF   FC1,W
07930:  ANDLW  C0
07932:  IORLW  09
07934:  MOVWF  FC1
....................    port_b_pullups(true); 
07936:  BCF    FF1.7
....................    enable_interrupts(int_rda); 
07938:  BSF    F9D.5
....................    setup_wdt(WDT_ON); 
0793A:  BSF    FD1.0
....................    enable_interrupts(global); 
0793C:  MOVLW  C0
0793E:  IORWF  FF2,F
....................    LeeEEPROM(); 
07940:  MOVLB  0
07942:  GOTO   27FE
....................    //rtc_init(); 
....................    delay_ms(1); 
07946:  MOVLW  01
07948:  MOVLB  6
0794A:  MOVWF  x62
0794C:  MOVLB  0
0794E:  CALL   2128
....................    LimitaValores(); 
07952:  GOTO   3998
....................    printf("page Bienvenida"); 
07956:  MOVLW  24
07958:  MOVWF  FF6
0795A:  MOVLW  08
0795C:  MOVWF  FF7
0795E:  MOVLW  00
07960:  MOVWF  FF8
07962:  CALL   3F38
....................    SendDataDisplay(); 
07966:  CALL   3F6A
....................    printf("bkcmd=0"); 
0796A:  MOVLW  34
0796C:  MOVWF  FF6
0796E:  MOVLW  08
07970:  MOVWF  FF7
07972:  MOVLW  00
07974:  MOVWF  FF8
07976:  CALL   3F38
....................    SendDataDisplay(); 
0797A:  CALL   3F6A
....................    delay_ms(3500);  
0797E:  MOVLW  0E
07980:  MOVLB  6
07982:  MOVWF  x50
07984:  MOVLW  FA
07986:  MOVWF  x62
07988:  MOVLB  0
0798A:  CALL   2128
0798E:  MOVLB  6
07990:  DECFSZ x50,F
07992:  BRA    7984
....................    printf("page Usuarios"); 
07994:  MOVLW  3C
07996:  MOVWF  FF6
07998:  MOVLW  08
0799A:  MOVWF  FF7
0799C:  MOVLW  00
0799E:  MOVWF  FF8
079A0:  MOVLB  0
079A2:  CALL   3F38
....................    SendDataDisplay(); 
079A6:  CALL   3F6A
....................    ApagaSalidas(); 
079AA:  CALL   3FA0
....................    //TiempoVacio=CantidadPulsos*360;  
....................    TiempoVacio=360;  
079AE:  MOVLW  01
079B0:  MOVWF  xA5
079B2:  MOVLW  68
079B4:  MOVWF  xA4
....................    Sensor[0].Gain=107.74; 
079B6:  MOVLW  E1
079B8:  MOVLB  4
079BA:  MOVWF  x23
079BC:  MOVLW  7A
079BE:  MOVWF  x22
079C0:  MOVLW  57
079C2:  MOVWF  x21
079C4:  MOVLW  85
079C6:  MOVWF  x20
....................    Sensor[1].Gain=107.74; 
079C8:  MOVLW  E1
079CA:  MOVLB  5
079CC:  MOVWF  x87
079CE:  MOVLW  7A
079D0:  MOVWF  x86
079D2:  MOVLW  57
079D4:  MOVWF  x85
079D6:  MOVLW  85
079D8:  MOVWF  x84
....................    Imprime=10; 
079DA:  MOVLW  0A
079DC:  MOVLB  2
079DE:  MOVWF  x4D
....................    CalculoImpresion=timpresion*60; 
079E0:  MOVLB  1
079E2:  MOVF   xF1,W
079E4:  MULLW  3C
079E6:  MOVFF  FF3,1F2
....................     
....................    for(i=0;i<MediaMovil;i++){ 
079EA:  CLRF   xF9
079EC:  MOVF   x95,W
079EE:  SUBWF  xF9,W
079F0:  BC    7A86
....................       Temperatura=LeerPT100(0,MediaMovil); 
079F2:  MOVLB  6
079F4:  CLRF   x52
079F6:  MOVFF  195,653
079FA:  MOVLB  0
079FC:  CALL   4112
07A00:  MOVFF  03,1D9
07A04:  MOVFF  02,1D8
07A08:  MOVFF  01,1D7
07A0C:  MOVFF  00,1D6
....................       Temperatura2=LeerPT100(1,MediaMovil); 
07A10:  MOVLW  01
07A12:  MOVLB  6
07A14:  MOVWF  x52
07A16:  MOVFF  195,653
07A1A:  MOVLB  0
07A1C:  CALL   4112
07A20:  MOVFF  03,1DD
07A24:  MOVFF  02,1DC
07A28:  MOVFF  01,1DB
07A2C:  MOVFF  00,1DA
....................       PresionCamara=Leer_Sensor_Presion_Camara(10); 
07A30:  MOVLW  0A
07A32:  MOVLB  6
07A34:  MOVWF  x52
07A36:  MOVLB  0
07A38:  CALL   49F2
07A3C:  MOVFF  03,665
07A40:  MOVFF  02,664
07A44:  MOVFF  01,663
07A48:  MOVFF  00,662
07A4C:  CALL   4BF0
07A50:  MOVFF  02,214
07A54:  MOVFF  01,213
....................       PresionPreCamara=Leer_Sensor_Presion_PreCamara(10); 
07A58:  MOVLW  0A
07A5A:  MOVLB  6
07A5C:  MOVWF  x52
07A5E:  MOVLB  0
07A60:  CALL   4C2C
07A64:  MOVFF  03,665
07A68:  MOVFF  02,664
07A6C:  MOVFF  01,663
07A70:  MOVFF  00,662
07A74:  CALL   4BF0
07A78:  MOVFF  02,216
07A7C:  MOVFF  01,215
....................    } 
07A80:  MOVLB  1
07A82:  INCF   xF9,F
07A84:  BRA    79EC
....................     
....................    if(!DOOR){ 
07A86:  BSF    F93.3
07A88:  BTFSS  F81.3
07A8A:  BRA    7A96
....................       abrePuerta(); 
07A8C:  MOVLB  0
07A8E:  CALL   4E2A
....................    }else{ 
07A92:  BRA    7A9C
07A94:  MOVLB  1
....................       cierraPuerta(); 
07A96:  MOVLB  0
07A98:  CALL   4EA2
....................    } 
....................    Aux_off; 
07A9C:  BCF    F8C.4
07A9E:  BCF    F95.4
....................    ApagaSalidas(); 
07AA0:  CALL   3FA0
....................     
....................    while(true) 
....................    { 
....................       LeeDisplay(); 
07AA4:  GOTO   4F0A
....................       Envio_Esclavos(); 
07AA8:  CALL   524E
....................       delay_ms(1); 
07AAC:  MOVLW  01
07AAE:  MOVLB  6
07AB0:  MOVWF  x62
07AB2:  MOVLB  0
07AB4:  CALL   2128
....................       Lectura_Esclavos(); 
07AB8:  GOTO   530C
....................       restart_wdt(); 
07ABC:  CLRWDT
....................       if(!Esterilizando || Desfogando){ 
07ABE:  BTFSS  xA3.7
07AC0:  BRA    7AC6
07AC2:  BTFSS  xA6.2
07AC4:  BRA    7AD0
....................          CalculoImpresion=180; 
07AC6:  MOVLW  B4
07AC8:  MOVLB  1
07ACA:  MOVWF  xF2
....................       }else{ 
07ACC:  BRA    7AD6
07ACE:  MOVLB  0
....................          CalculoImpresion=60; 
07AD0:  MOVLW  3C
07AD2:  MOVLB  1
07AD4:  MOVWF  xF2
....................       } 
....................        
....................       graficaCurva(2000); 
07AD6:  MOVLW  07
07AD8:  MOVLB  6
07ADA:  MOVWF  x51
07ADC:  MOVLW  D0
07ADE:  MOVWF  x50
07AE0:  MOVLB  0
07AE2:  GOTO   53E0
....................       muestreo(40); 
07AE6:  MOVLB  6
07AE8:  CLRF   x51
07AEA:  MOVLW  28
07AEC:  MOVWF  x50
07AEE:  MOVLB  0
07AF0:  GOTO   5406
....................       monitoreaAgua(); 
07AF4:  GOTO   54B6
....................       monitoreaStop(); 
07AF8:  GOTO   5638
....................        
....................       if(Menu!=20 && !PruebaEstados){ 
07AFC:  MOVLB  1
07AFE:  MOVF   xF6,W
07B00:  SUBLW  14
07B02:  BZ    7B1E
07B04:  MOVLB  0
07B06:  BTFSS  xA7.3
07B08:  BRA    7B0E
07B0A:  MOVLB  1
07B0C:  BRA    7B1E
....................          if(!DOOR){ 
07B0E:  BSF    F93.3
07B10:  BTFSS  F81.3
07B12:  BRA    7B1A
....................             abrePuerta(); 
07B14:  CALL   4E2A
....................          }else{ 
07B18:  BRA    7B1E
....................             cierraPuerta(); 
07B1A:  CALL   4EA2
....................          } 
....................       } 
....................           
....................       if(PresionCamara>Atmosferica+15){ 
07B1E:  MOVLW  0F
07B20:  MOVLB  2
07B22:  ADDWF  x42,W
07B24:  MOVF   x14,F
07B26:  BNZ   7B2E
07B28:  SUBWF  x13,W
07B2A:  BZ    7B34
07B2C:  BNC   7B34
....................          cierraPuerta();          
07B2E:  MOVLB  0
07B30:  CALL   4EA2
....................       } 
....................  
.................... //_-------------------------------------------------------------------------------------------------------------------------------------------------------- 
....................    if(Menu==240){ //Menu de Bienvenida. 
07B34:  MOVLB  1
07B36:  MOVF   xF6,W
07B38:  SUBLW  F0
07B3A:  BNZ   7B74
....................       printf("bkcmd=0"); 
07B3C:  MOVLW  4A
07B3E:  MOVWF  FF6
07B40:  MOVLW  08
07B42:  MOVWF  FF7
07B44:  MOVLW  00
07B46:  MOVWF  FF8
07B48:  MOVLB  0
07B4A:  CALL   3F38
....................       SendDataDisplay(); 
07B4E:  CALL   3F6A
....................       delay_ms(100); 
07B52:  MOVLW  64
07B54:  MOVLB  6
07B56:  MOVWF  x62
07B58:  MOVLB  0
07B5A:  CALL   2128
....................       printf("page Usuarios"); 
07B5E:  MOVLW  52
07B60:  MOVWF  FF6
07B62:  MOVLW  08
07B64:  MOVWF  FF7
07B66:  MOVLW  00
07B68:  MOVWF  FF8
07B6A:  CALL   3F38
....................       SendDataDisplay(); 
07B6E:  CALL   3F6A
07B72:  MOVLB  1
....................       //ApagaSalidas(); 
....................    } 
.................... //_-------------------------------------------------------------------------------------------------------------------------------------------------------- 
....................  
.................... //_-------------------------------------------------------------------------------------------------------------------------------------------------------- 
....................     if(Menu==0){ //Menu de Contrasea de acceso. 
07B74:  MOVF   xF6,F
07B76:  BTFSS  FD8.2
07B78:  BRA    819A
....................       entro=OFF; 
07B7A:  MOVLB  0
07B7C:  BCF    xAC.0
....................       //ApagaSalidas(); 
....................       //printf("bkcmd=0"); 
....................       //SendDataDisplay(); 
....................       if(RX_Buffer[4]==0x11){//11 
07B7E:  MOVF   34,W
07B80:  SUBLW  11
07B82:  BNZ   7BA4
....................          if(TipoClave!=0){ 
07B84:  MOVLB  1
07B86:  MOVF   x97,F
07B88:  BZ    7BA4
....................             printf("page Menu"); 
07B8A:  MOVLW  60
07B8C:  MOVWF  FF6
07B8E:  MOVLW  08
07B90:  MOVWF  FF7
07B92:  MOVLW  00
07B94:  MOVWF  FF8
07B96:  MOVLB  0
07B98:  CALL   3F38
....................             SendDataDisplay(); 
07B9C:  CALL   3F6A
....................             PantallaPrincipal=0; 
07BA0:  MOVLB  1
07BA2:  CLRF   x96
....................          } 
....................       } 
....................        
....................       if(TipoClave==3){ 
07BA4:  MOVLB  1
07BA6:  MOVF   x97,W
07BA8:  SUBLW  03
07BAA:  BNZ   7BC4
....................          printf("titulo.txt=\"Clave Nueva\""); 
07BAC:  MOVLW  6A
07BAE:  MOVWF  FF6
07BB0:  MOVLW  08
07BB2:  MOVWF  FF7
07BB4:  MOVLW  00
07BB6:  MOVWF  FF8
07BB8:  MOVLB  0
07BBA:  CALL   3F38
....................          SendDataDisplay(); 
07BBE:  CALL   3F6A
07BC2:  MOVLB  1
....................       } 
....................        
....................       if(TipoClave==2){ 
07BC4:  MOVF   x97,W
07BC6:  SUBLW  02
07BC8:  BNZ   7BE2
....................          printf("titulo.txt=\"Clave Actual\""); 
07BCA:  MOVLW  84
07BCC:  MOVWF  FF6
07BCE:  MOVLW  08
07BD0:  MOVWF  FF7
07BD2:  MOVLW  00
07BD4:  MOVWF  FF8
07BD6:  MOVLB  0
07BD8:  CALL   3F38
....................          SendDataDisplay();         
07BDC:  CALL   3F6A
07BE0:  MOVLB  1
....................       } 
....................        
....................       if(TipoClave==1){ 
07BE2:  DECFSZ x97,W
07BE4:  BRA    7BFE
....................          printf("titulo.txt=\"Clave Tecnico\""); 
07BE6:  MOVLW  9E
07BE8:  MOVWF  FF6
07BEA:  MOVLW  08
07BEC:  MOVWF  FF7
07BEE:  MOVLW  00
07BF0:  MOVWF  FF8
07BF2:  MOVLB  0
07BF4:  CALL   3F38
....................          SendDataDisplay(); 
07BF8:  CALL   3F6A
07BFC:  MOVLB  1
....................       } 
....................        
....................       if(TipoClave==0){ 
07BFE:  MOVF   x97,F
07C00:  BNZ   7C34
....................          printf("titulo.txt=\"%s\"",usuario); 
07C02:  MOVLW  BA
07C04:  MOVWF  FF6
07C06:  MOVLW  08
07C08:  MOVWF  FF7
07C0A:  MOVLW  00
07C0C:  MOVWF  FF8
07C0E:  MOVLW  0C
07C10:  MOVLB  6
07C12:  MOVWF  x55
07C14:  MOVLB  0
07C16:  CALL   56B2
07C1A:  MOVLW  02
07C1C:  MOVWF  FEA
07C1E:  MOVLW  56
07C20:  MOVWF  FE9
07C22:  CALL   56E4
07C26:  MOVLW  22
07C28:  BTFSS  F9E.4
07C2A:  BRA    7C28
07C2C:  MOVWF  FAD
....................          SendDataDisplay(); 
07C2E:  CALL   3F6A
07C32:  MOVLB  1
....................       } 
....................        
....................       if(RX_Buffer[4]==0x11){//11, Regresar 
07C34:  MOVF   34,W
07C36:  SUBLW  11
07C38:  BNZ   7C70
....................          if(TipoClave==1){ 
07C3A:  DECFSZ x97,W
07C3C:  BRA    7C58
....................             printf("page Ajustes"); 
07C3E:  MOVLW  CA
07C40:  MOVWF  FF6
07C42:  MOVLW  08
07C44:  MOVWF  FF7
07C46:  MOVLW  00
07C48:  MOVWF  FF8
07C4A:  MOVLB  0
07C4C:  CALL   3F38
....................             SendDataDisplay();        
07C50:  CALL   3F6A
....................          }else{ 
07C54:  BRA    7C6E
07C56:  MOVLB  1
....................             printf("page Usuarios"); 
07C58:  MOVLW  D8
07C5A:  MOVWF  FF6
07C5C:  MOVLW  08
07C5E:  MOVWF  FF7
07C60:  MOVLW  00
07C62:  MOVWF  FF8
07C64:  MOVLB  0
07C66:  CALL   3F38
....................             SendDataDisplay();        
07C6A:  CALL   3F6A
07C6E:  MOVLB  1
....................          } 
....................       } 
....................        
....................       if(RX_Buffer[3]==0x0f){//0f, recibe caracteres ingresados desde el Display 
07C70:  MOVF   33,W
07C72:  SUBLW  0F
07C74:  BTFSS  FD8.2
07C76:  BRA    819A
....................          delay_ms(800); 
07C78:  MOVLW  04
07C7A:  MOVLB  6
07C7C:  MOVWF  x50
07C7E:  MOVLW  C8
07C80:  MOVWF  x62
07C82:  MOVLB  0
07C84:  CALL   2128
07C88:  MOVLB  6
07C8A:  DECFSZ x50,F
07C8C:  BRA    7C7E
....................          if(TipoClave==0){ 
07C8E:  MOVLB  1
07C90:  MOVF   x97,F
07C92:  BTFSS  FD8.2
07C94:  BRA    7E42
....................             if(RX_Buffer[4]==0x33&&RX_Buffer[5]==0x38&&RX_Buffer[6]==0x39&&RX_Buffer[7]==0x32 &&RX_Buffer[8]==0x00 &&RX_Buffer[9]==0xff){ // Si Ingresa clave para reset general del sistema. 
07C96:  MOVF   34,W
07C98:  SUBLW  33
07C9A:  BNZ   7D10
07C9C:  MOVF   35,W
07C9E:  SUBLW  38
07CA0:  BNZ   7D10
07CA2:  MOVF   36,W
07CA4:  SUBLW  39
07CA6:  BNZ   7D10
07CA8:  MOVF   37,W
07CAA:  SUBLW  32
07CAC:  BNZ   7D10
07CAE:  MOVF   38,F
07CB0:  BNZ   7D10
07CB2:  INCFSZ 39,W
07CB4:  BRA    7D10
....................                for(i=0;i<40;i++){//Lee contraseas de usuarios 
07CB6:  CLRF   xF9
07CB8:  MOVF   xF9,W
07CBA:  SUBLW  27
07CBC:  BNC   7D0E
....................                   write_eeprom(300+i,0);delay_ms(20); 
07CBE:  MOVLW  2C
07CC0:  ADDWF  xF9,W
07CC2:  MOVLB  6
07CC4:  MOVWF  x50
07CC6:  MOVLW  01
07CC8:  MOVWF  x51
07CCA:  BTFSC  FD8.0
07CCC:  INCF   x51,F
07CCE:  MOVFF  651,FAA
07CD2:  MOVFF  650,FA9
07CD6:  CLRF   FA8
07CD8:  BCF    FA6.6
07CDA:  BCF    FA6.7
07CDC:  BSF    FA6.2
07CDE:  MOVF   FF2,W
07CE0:  MOVWF  00
07CE2:  BCF    FF2.6
07CE4:  BCF    FF2.7
07CE6:  MOVLB  F
07CE8:  MOVLW  55
07CEA:  MOVWF  FA7
07CEC:  MOVLW  AA
07CEE:  MOVWF  FA7
07CF0:  BSF    FA6.1
07CF2:  BTFSC  FA6.1
07CF4:  BRA    7CF2
07CF6:  BCF    FA6.2
07CF8:  MOVF   00,W
07CFA:  IORWF  FF2,F
07CFC:  MOVLW  14
07CFE:  MOVLB  6
07D00:  MOVWF  x62
07D02:  MOVLB  0
07D04:  CALL   2128
....................                } 
07D08:  MOVLB  1
07D0A:  INCF   xF9,F
07D0C:  BRA    7CB8
....................                reset_cpu(); 
07D0E:  RESET
....................             } 
....................              
....................             if(RX_Buffer[4]>=0x30 && RX_Buffer[5]>=0x30 && RX_Buffer[6]>=0x30 && RX_Buffer[7]>=0x30 
....................             && RX_Buffer[4]<=0x39 && RX_Buffer[5]<=0x39 && RX_Buffer[6]<=0x39 && RX_Buffer[7]<=0x39){ 
07D10:  MOVF   34,W
07D12:  SUBLW  2F
07D14:  BTFSC  FD8.0
07D16:  BRA    7E40
07D18:  MOVF   35,W
07D1A:  SUBLW  2F
07D1C:  BTFSC  FD8.0
07D1E:  BRA    7E40
07D20:  MOVF   36,W
07D22:  SUBLW  2F
07D24:  BTFSC  FD8.0
07D26:  BRA    7E40
07D28:  MOVF   37,W
07D2A:  SUBLW  2F
07D2C:  BTFSC  FD8.0
07D2E:  BRA    7E40
07D30:  MOVF   34,W
07D32:  SUBLW  39
07D34:  BTFSS  FD8.0
07D36:  BRA    7E40
07D38:  MOVF   35,W
07D3A:  SUBLW  39
07D3C:  BTFSS  FD8.0
07D3E:  BRA    7E40
07D40:  MOVF   36,W
07D42:  SUBLW  39
07D44:  BTFSS  FD8.0
07D46:  BRA    7E40
07D48:  MOVF   37,W
07D4A:  SUBLW  39
07D4C:  BTFSS  FD8.0
07D4E:  BRA    7E40
....................                if((RX_Buffer[4]==Clave[codigoUsuario].Password[0]+0x30)&&(RX_Buffer[5]==Clave[codigoUsuario].Password[1]+0x30)&& 
....................                (RX_Buffer[6]==Clave[codigoUsuario].Password[2]+0x30)&&(RX_Buffer[7]==Clave[codigoUsuario].Password[3]+0x30) 
....................                &&RX_Buffer[8]==0x00 &&RX_Buffer[9]==0xff){ 
07D50:  MOVLB  2
07D52:  MOVF   x50,W
07D54:  MULLW  04
07D56:  MOVF   FF3,W
07D58:  MOVLB  6
07D5A:  CLRF   x51
07D5C:  MOVWF  x50
07D5E:  MOVLW  28
07D60:  ADDWF  x50,W
07D62:  MOVWF  FE9
07D64:  MOVLW  06
07D66:  ADDWFC x51,W
07D68:  MOVWF  FEA
07D6A:  MOVLW  30
07D6C:  ADDWF  FEF,W
07D6E:  SUBWF  34,W
07D70:  BNZ   7E24
07D72:  MOVLB  2
07D74:  MOVF   x50,W
07D76:  MULLW  04
07D78:  MOVF   FF3,W
07D7A:  MOVLB  6
07D7C:  CLRF   x51
07D7E:  MOVWF  x50
07D80:  MOVLW  01
07D82:  ADDWF  x50,W
07D84:  MOVWF  01
07D86:  MOVLW  00
07D88:  ADDWFC x51,W
07D8A:  MOVWF  03
07D8C:  MOVF   01,W
07D8E:  ADDLW  28
07D90:  MOVWF  FE9
07D92:  MOVLW  06
07D94:  ADDWFC 03,W
07D96:  MOVWF  FEA
07D98:  MOVLW  30
07D9A:  ADDWF  FEF,W
07D9C:  SUBWF  35,W
07D9E:  BNZ   7E24
07DA0:  MOVLB  2
07DA2:  MOVF   x50,W
07DA4:  MULLW  04
07DA6:  MOVF   FF3,W
07DA8:  MOVLB  6
07DAA:  CLRF   x51
07DAC:  MOVWF  x50
07DAE:  MOVLW  02
07DB0:  ADDWF  x50,W
07DB2:  MOVWF  01
07DB4:  MOVLW  00
07DB6:  ADDWFC x51,W
07DB8:  MOVWF  03
07DBA:  MOVF   01,W
07DBC:  ADDLW  28
07DBE:  MOVWF  FE9
07DC0:  MOVLW  06
07DC2:  ADDWFC 03,W
07DC4:  MOVWF  FEA
07DC6:  MOVLW  30
07DC8:  ADDWF  FEF,W
07DCA:  SUBWF  36,W
07DCC:  BNZ   7E24
07DCE:  MOVLB  2
07DD0:  MOVF   x50,W
07DD2:  MULLW  04
07DD4:  MOVF   FF3,W
07DD6:  MOVLB  6
07DD8:  CLRF   x51
07DDA:  MOVWF  x50
07DDC:  MOVLW  03
07DDE:  ADDWF  x50,W
07DE0:  MOVWF  01
07DE2:  MOVLW  00
07DE4:  ADDWFC x51,W
07DE6:  MOVWF  03
07DE8:  MOVF   01,W
07DEA:  ADDLW  28
07DEC:  MOVWF  FE9
07DEE:  MOVLW  06
07DF0:  ADDWFC 03,W
07DF2:  MOVWF  FEA
07DF4:  MOVLW  30
07DF6:  ADDWF  FEF,W
07DF8:  SUBWF  37,W
07DFA:  BNZ   7E24
07DFC:  MOVF   38,F
07DFE:  BNZ   7E24
07E00:  INCFSZ 39,W
07E02:  BRA    7E24
....................                   printf("page ClaveCorrecta"); 
07E04:  MOVLW  E6
07E06:  MOVWF  FF6
07E08:  MOVLW  08
07E0A:  MOVWF  FF7
07E0C:  MOVLW  00
07E0E:  MOVWF  FF8
07E10:  MOVLB  0
07E12:  CALL   3F38
....................                   SendDataDisplay(); 
07E16:  CALL   3F6A
....................                   ingreso=ON; 
07E1A:  BSF    xAA.0
....................                   RX_Buffer[3]=0x00;RX_Buffer2[3]=0x00;   
07E1C:  CLRF   33
07E1E:  CLRF   3E
....................                }else{ 
07E20:  BRA    7E3E
07E22:  MOVLB  6
....................                   printf("page ClaveBad"); 
07E24:  MOVLW  FA
07E26:  MOVWF  FF6
07E28:  MOVLW  08
07E2A:  MOVWF  FF7
07E2C:  MOVLW  00
07E2E:  MOVWF  FF8
07E30:  MOVLB  0
07E32:  CALL   3F38
....................                   SendDataDisplay(); 
07E36:  CALL   3F6A
....................                   RX_Buffer[3]=0x00;RX_Buffer2[3]=0x00;   
07E3A:  CLRF   33
07E3C:  CLRF   3E
07E3E:  MOVLB  1
....................                }  
....................             } 
....................          }else if(TipoClave==1){ 
07E40:  BRA    819A
07E42:  DECFSZ x97,W
07E44:  BRA    7EA2
....................             if(RX_Buffer[4]==0x34&&RX_Buffer[5]==0x34&&RX_Buffer[6]==0x34&&RX_Buffer[7]==0x34&&RX_Buffer[8]==0x00 &&RX_Buffer[9]==0xff){ // Si Ingresa clave de Servicio Tecnico 
07E46:  MOVF   34,W
07E48:  SUBLW  34
07E4A:  BNZ   7E84
07E4C:  MOVF   35,W
07E4E:  SUBLW  34
07E50:  BNZ   7E84
07E52:  MOVF   36,W
07E54:  SUBLW  34
07E56:  BNZ   7E84
07E58:  MOVF   37,W
07E5A:  SUBLW  34
07E5C:  BNZ   7E84
07E5E:  MOVF   38,F
07E60:  BNZ   7E84
07E62:  INCFSZ 39,W
07E64:  BRA    7E84
....................                printf("page Config"); 
07E66:  MOVLW  08
07E68:  MOVWF  FF6
07E6A:  MOVLW  09
07E6C:  MOVWF  FF7
07E6E:  MOVLW  00
07E70:  MOVWF  FF8
07E72:  MOVLB  0
07E74:  CALL   3F38
....................                SendDataDisplay(); 
07E78:  CALL   3F6A
....................                RX_Buffer[3]=0x00;RX_Buffer2[3]=0x00;   
07E7C:  CLRF   33
07E7E:  CLRF   3E
....................             }else{ 
07E80:  BRA    7E9E
07E82:  MOVLB  1
....................                printf("page Menu"); 
07E84:  MOVLW  14
07E86:  MOVWF  FF6
07E88:  MOVLW  09
07E8A:  MOVWF  FF7
07E8C:  MOVLW  00
07E8E:  MOVWF  FF8
07E90:  MOVLB  0
07E92:  CALL   3F38
....................                SendDataDisplay(); 
07E96:  CALL   3F6A
....................                RX_Buffer[3]=0x00;RX_Buffer2[3]=0x00;   
07E9A:  CLRF   33
07E9C:  CLRF   3E
....................             } 
....................          }else if(TipoClave==2){ 
07E9E:  BRA    8198
07EA0:  MOVLB  1
07EA2:  MOVF   x97,W
07EA4:  SUBLW  02
07EA6:  BTFSS  FD8.2
07EA8:  BRA    7FF8
....................             if(RX_Buffer[4]>=0x30 && RX_Buffer[5]>=0x30 && RX_Buffer[6]>=0x30 && RX_Buffer[7]>=0x30 
....................             && RX_Buffer[4]<=0x39 && RX_Buffer[5]<=0x39 && RX_Buffer[6]<=0x39 && RX_Buffer[7]<=0x39){ 
07EAA:  MOVF   34,W
07EAC:  SUBLW  2F
07EAE:  BTFSC  FD8.0
07EB0:  BRA    7FF6
07EB2:  MOVF   35,W
07EB4:  SUBLW  2F
07EB6:  BTFSC  FD8.0
07EB8:  BRA    7FF6
07EBA:  MOVF   36,W
07EBC:  SUBLW  2F
07EBE:  BTFSC  FD8.0
07EC0:  BRA    7FF6
07EC2:  MOVF   37,W
07EC4:  SUBLW  2F
07EC6:  BTFSC  FD8.0
07EC8:  BRA    7FF6
07ECA:  MOVF   34,W
07ECC:  SUBLW  39
07ECE:  BTFSS  FD8.0
07ED0:  BRA    7FF6
07ED2:  MOVF   35,W
07ED4:  SUBLW  39
07ED6:  BTFSS  FD8.0
07ED8:  BRA    7FF6
07EDA:  MOVF   36,W
07EDC:  SUBLW  39
07EDE:  BTFSS  FD8.0
07EE0:  BRA    7FF6
07EE2:  MOVF   37,W
07EE4:  SUBLW  39
07EE6:  BTFSS  FD8.0
07EE8:  BRA    7FF6
....................                if((RX_Buffer[4]==Clave[codigoUsuario2].Password[0]+0x30)&&(RX_Buffer[5]==Clave[codigoUsuario2].Password[1]+0x30)&& 
....................                (RX_Buffer[6]==Clave[codigoUsuario2].Password[2]+0x30)&&(RX_Buffer[7]==Clave[codigoUsuario2].Password[3]+0x30) 
....................                &&RX_Buffer[8]==0x00 &&RX_Buffer[9]==0xff){ 
07EEA:  MOVLB  2
07EEC:  MOVF   x31,W
07EEE:  MULLW  04
07EF0:  MOVF   FF3,W
07EF2:  MOVLB  6
07EF4:  CLRF   x51
07EF6:  MOVWF  x50
07EF8:  MOVLW  28
07EFA:  ADDWF  x50,W
07EFC:  MOVWF  FE9
07EFE:  MOVLW  06
07F00:  ADDWFC x51,W
07F02:  MOVWF  FEA
07F04:  MOVLW  30
07F06:  ADDWF  FEF,W
07F08:  SUBWF  34,W
07F0A:  BNZ   7FD6
07F0C:  MOVLB  2
07F0E:  MOVF   x31,W
07F10:  MULLW  04
07F12:  MOVF   FF3,W
07F14:  MOVLB  6
07F16:  CLRF   x51
07F18:  MOVWF  x50
07F1A:  MOVLW  01
07F1C:  ADDWF  x50,W
07F1E:  MOVWF  01
07F20:  MOVLW  00
07F22:  ADDWFC x51,W
07F24:  MOVWF  03
07F26:  MOVF   01,W
07F28:  ADDLW  28
07F2A:  MOVWF  FE9
07F2C:  MOVLW  06
07F2E:  ADDWFC 03,W
07F30:  MOVWF  FEA
07F32:  MOVLW  30
07F34:  ADDWF  FEF,W
07F36:  SUBWF  35,W
07F38:  BNZ   7FD6
07F3A:  MOVLB  2
07F3C:  MOVF   x31,W
07F3E:  MULLW  04
07F40:  MOVF   FF3,W
07F42:  MOVLB  6
07F44:  CLRF   x51
07F46:  MOVWF  x50
07F48:  MOVLW  02
07F4A:  ADDWF  x50,W
07F4C:  MOVWF  01
07F4E:  MOVLW  00
07F50:  ADDWFC x51,W
07F52:  MOVWF  03
07F54:  MOVF   01,W
07F56:  ADDLW  28
07F58:  MOVWF  FE9
07F5A:  MOVLW  06
07F5C:  ADDWFC 03,W
07F5E:  MOVWF  FEA
07F60:  MOVLW  30
07F62:  ADDWF  FEF,W
07F64:  SUBWF  36,W
07F66:  BNZ   7FD6
07F68:  MOVLB  2
07F6A:  MOVF   x31,W
07F6C:  MULLW  04
07F6E:  MOVF   FF3,W
07F70:  MOVLB  6
07F72:  CLRF   x51
07F74:  MOVWF  x50
07F76:  MOVLW  03
07F78:  ADDWF  x50,W
07F7A:  MOVWF  01
07F7C:  MOVLW  00
07F7E:  ADDWFC x51,W
07F80:  MOVWF  03
07F82:  MOVF   01,W
07F84:  ADDLW  28
07F86:  MOVWF  FE9
07F88:  MOVLW  06
07F8A:  ADDWFC 03,W
07F8C:  MOVWF  FEA
07F8E:  MOVLW  30
07F90:  ADDWF  FEF,W
07F92:  SUBWF  37,W
07F94:  BNZ   7FD6
07F96:  MOVF   38,F
07F98:  BNZ   7FD6
07F9A:  INCFSZ 39,W
07F9C:  BRA    7FD6
....................                   printf("page Clave"); 
07F9E:  MOVLW  1E
07FA0:  MOVWF  FF6
07FA2:  MOVLW  09
07FA4:  MOVWF  FF7
07FA6:  MOVLW  00
07FA8:  MOVWF  FF8
07FAA:  MOVLB  0
07FAC:  CALL   3F38
....................                   SendDataDisplay(); 
07FB0:  CALL   3F6A
....................                   printf("titulo.txt=\"Clave Nueva\""); 
07FB4:  MOVLW  2A
07FB6:  MOVWF  FF6
07FB8:  MOVLW  09
07FBA:  MOVWF  FF7
07FBC:  MOVLW  00
07FBE:  MOVWF  FF8
07FC0:  CALL   3F38
....................                   SendDataDisplay(); 
07FC4:  CALL   3F6A
....................                   TipoClave=3; 
07FC8:  MOVLW  03
07FCA:  MOVLB  1
07FCC:  MOVWF  x97
....................                   RX_Buffer[3]=0x00; 
07FCE:  CLRF   33
....................                   RX_Buffer2[3]=0x00; 
07FD0:  CLRF   3E
....................                }else{ 
07FD2:  BRA    7FF6
07FD4:  MOVLB  6
....................                   printf("page Menu"); 
07FD6:  MOVLW  44
07FD8:  MOVWF  FF6
07FDA:  MOVLW  09
07FDC:  MOVWF  FF7
07FDE:  MOVLW  00
07FE0:  MOVWF  FF8
07FE2:  MOVLB  0
07FE4:  CALL   3F38
....................                   SendDataDisplay(); 
07FE8:  CALL   3F6A
....................                   RX_Buffer[3]=0x00; 
07FEC:  CLRF   33
....................                   RX_Buffer2[3]=0x00; 
07FEE:  CLRF   3E
....................                   codigoUsuario=codigoUsuarioant; 
07FF0:  MOVFF  251,250
07FF4:  MOVLB  1
....................                }  
....................             } 
....................          }else if(TipoClave==3){ 
07FF6:  BRA    819A
07FF8:  MOVF   x97,W
07FFA:  SUBLW  03
07FFC:  BTFSS  FD8.2
07FFE:  BRA    819A
....................             printf("titulo.txt=\"Clave Nueva\""); 
08000:  MOVLW  4E
08002:  MOVWF  FF6
08004:  MOVLW  09
08006:  MOVWF  FF7
08008:  MOVLW  00
0800A:  MOVWF  FF8
0800C:  MOVLB  0
0800E:  CALL   3F38
....................             SendDataDisplay(); 
08012:  CALL   3F6A
....................             printf("page Menu"); 
08016:  MOVLW  68
08018:  MOVWF  FF6
0801A:  MOVLW  09
0801C:  MOVWF  FF7
0801E:  MOVLW  00
08020:  MOVWF  FF8
08022:  CALL   3F38
....................             SendDataDisplay(); 
08026:  CALL   3F6A
....................             if(!GuardaEEPROM){ 
0802A:  BTFSC  xA8.4
0802C:  BRA    8194
....................                write_eeprom(300+(codigoUsuario2*4),RX_Buffer[4]-0x30);delay_ms(20); 
0802E:  MOVLB  2
08030:  MOVF   x31,W
08032:  MULLW  04
08034:  MOVF   FF3,W
08036:  ADDLW  2C
08038:  MOVLB  6
0803A:  MOVWF  x50
0803C:  MOVLW  01
0803E:  MOVWF  x51
08040:  BTFSC  FD8.0
08042:  INCF   x51,F
08044:  MOVLW  30
08046:  SUBWF  34,W
08048:  MOVWF  x52
0804A:  MOVFF  651,FAA
0804E:  MOVFF  650,FA9
08052:  MOVFF  652,FA8
08056:  BCF    FA6.6
08058:  BCF    FA6.7
0805A:  BSF    FA6.2
0805C:  MOVF   FF2,W
0805E:  MOVWF  00
08060:  BCF    FF2.6
08062:  BCF    FF2.7
08064:  MOVLB  F
08066:  MOVLW  55
08068:  MOVWF  FA7
0806A:  MOVLW  AA
0806C:  MOVWF  FA7
0806E:  BSF    FA6.1
08070:  BTFSC  FA6.1
08072:  BRA    8070
08074:  BCF    FA6.2
08076:  MOVF   00,W
08078:  IORWF  FF2,F
0807A:  MOVLW  14
0807C:  MOVLB  6
0807E:  MOVWF  x62
08080:  MOVLB  0
08082:  CALL   2128
....................                write_eeprom(301+(codigoUsuario2*4),RX_Buffer[5]-0x30);delay_ms(20); 
08086:  MOVLB  2
08088:  MOVF   x31,W
0808A:  MULLW  04
0808C:  MOVF   FF3,W
0808E:  ADDLW  2D
08090:  MOVLB  6
08092:  MOVWF  x50
08094:  MOVLW  01
08096:  MOVWF  x51
08098:  BTFSC  FD8.0
0809A:  INCF   x51,F
0809C:  MOVLW  30
0809E:  SUBWF  35,W
080A0:  MOVWF  x52
080A2:  MOVFF  651,FAA
080A6:  MOVFF  650,FA9
080AA:  MOVFF  652,FA8
080AE:  BCF    FA6.6
080B0:  BCF    FA6.7
080B2:  BSF    FA6.2
080B4:  MOVF   FF2,W
080B6:  MOVWF  00
080B8:  BCF    FF2.6
080BA:  BCF    FF2.7
080BC:  MOVLB  F
080BE:  MOVLW  55
080C0:  MOVWF  FA7
080C2:  MOVLW  AA
080C4:  MOVWF  FA7
080C6:  BSF    FA6.1
080C8:  BTFSC  FA6.1
080CA:  BRA    80C8
080CC:  BCF    FA6.2
080CE:  MOVF   00,W
080D0:  IORWF  FF2,F
080D2:  MOVLW  14
080D4:  MOVLB  6
080D6:  MOVWF  x62
080D8:  MOVLB  0
080DA:  CALL   2128
....................                write_eeprom(302+(codigoUsuario2*4),RX_Buffer[6]-0x30);delay_ms(20); 
080DE:  MOVLB  2
080E0:  MOVF   x31,W
080E2:  MULLW  04
080E4:  MOVF   FF3,W
080E6:  ADDLW  2E
080E8:  MOVLB  6
080EA:  MOVWF  x50
080EC:  MOVLW  01
080EE:  MOVWF  x51
080F0:  BTFSC  FD8.0
080F2:  INCF   x51,F
080F4:  MOVLW  30
080F6:  SUBWF  36,W
080F8:  MOVWF  x52
080FA:  MOVFF  651,FAA
080FE:  MOVFF  650,FA9
08102:  MOVFF  652,FA8
08106:  BCF    FA6.6
08108:  BCF    FA6.7
0810A:  BSF    FA6.2
0810C:  MOVF   FF2,W
0810E:  MOVWF  00
08110:  BCF    FF2.6
08112:  BCF    FF2.7
08114:  MOVLB  F
08116:  MOVLW  55
08118:  MOVWF  FA7
0811A:  MOVLW  AA
0811C:  MOVWF  FA7
0811E:  BSF    FA6.1
08120:  BTFSC  FA6.1
08122:  BRA    8120
08124:  BCF    FA6.2
08126:  MOVF   00,W
08128:  IORWF  FF2,F
0812A:  MOVLW  14
0812C:  MOVLB  6
0812E:  MOVWF  x62
08130:  MOVLB  0
08132:  CALL   2128
....................                write_eeprom(303+(codigoUsuario2*4),RX_Buffer[7]-0x30);delay_ms(20); 
08136:  MOVLB  2
08138:  MOVF   x31,W
0813A:  MULLW  04
0813C:  MOVF   FF3,W
0813E:  ADDLW  2F
08140:  MOVLB  6
08142:  MOVWF  x50
08144:  MOVLW  01
08146:  MOVWF  x51
08148:  BTFSC  FD8.0
0814A:  INCF   x51,F
0814C:  MOVLW  30
0814E:  SUBWF  37,W
08150:  MOVWF  x52
08152:  MOVFF  651,FAA
08156:  MOVFF  650,FA9
0815A:  MOVFF  652,FA8
0815E:  BCF    FA6.6
08160:  BCF    FA6.7
08162:  BSF    FA6.2
08164:  MOVF   FF2,W
08166:  MOVWF  00
08168:  BCF    FF2.6
0816A:  BCF    FF2.7
0816C:  MOVLB  F
0816E:  MOVLW  55
08170:  MOVWF  FA7
08172:  MOVLW  AA
08174:  MOVWF  FA7
08176:  BSF    FA6.1
08178:  BTFSC  FA6.1
0817A:  BRA    8178
0817C:  BCF    FA6.2
0817E:  MOVF   00,W
08180:  IORWF  FF2,F
08182:  MOVLW  14
08184:  MOVLB  6
08186:  MOVWF  x62
08188:  MOVLB  0
0818A:  CALL   2128
....................                GuardaEEPROM=ON; 
0818E:  BSF    xA8.4
....................                codigoUsuario=codigoUsuarioant; 
08190:  MOVFF  251,250
....................             } 
....................             RX_Buffer[3]=0x00; 
08194:  CLRF   33
....................             RX_Buffer2[3]=0x00; 
08196:  CLRF   3E
08198:  MOVLB  1
....................          } 
....................       } 
....................     } 
.................... //_--------------------------------------------------------------------------------------------------------------------------------------------------------        
....................  
.................... //_-------------------------------------------------------------------------------------------------------------------------------------------------------- 
....................    if(Menu==1){ //Menu Principal. 
0819A:  DECFSZ xF6,W
0819C:  GOTO   894C
....................       printf("fecha.txt=\"T:%2.1fC Fecha:%02u/%02u/20%02u Hora:%02u:%02u:%02u\"",Temperatura,Dia,Mes,Year,Hora,Minuto,Segundo); 
081A0:  MOVLW  72
081A2:  MOVWF  FF6
081A4:  MOVLW  09
081A6:  MOVWF  FF7
081A8:  MOVLW  00
081AA:  MOVWF  FF8
081AC:  MOVLW  0D
081AE:  MOVLB  6
081B0:  MOVWF  x55
081B2:  MOVLB  0
081B4:  CALL   56B2
081B8:  MOVLW  01
081BA:  MOVWF  FE9
081BC:  MOVFF  1D9,658
081C0:  MOVFF  1D8,657
081C4:  MOVFF  1D7,656
081C8:  MOVFF  1D6,655
081CC:  MOVLB  6
081CE:  MOVWF  x59
081D0:  MOVLB  0
081D2:  CALL   57CE
081D6:  MOVLW  84
081D8:  MOVWF  FF6
081DA:  MOVLW  09
081DC:  MOVWF  FF7
081DE:  MOVLW  00
081E0:  MOVWF  FF8
081E2:  MOVLW  09
081E4:  MOVLB  6
081E6:  MOVWF  x55
081E8:  MOVLB  0
081EA:  CALL   56B2
081EE:  MOVFF  23A,655
081F2:  MOVLW  01
081F4:  MOVLB  6
081F6:  MOVWF  x56
081F8:  MOVLB  0
081FA:  CALL   599E
081FE:  MOVLW  2F
08200:  BTFSS  F9E.4
08202:  BRA    8200
08204:  MOVWF  FAD
08206:  MOVFF  239,655
0820A:  MOVLW  01
0820C:  MOVLB  6
0820E:  MOVWF  x56
08210:  MOVLB  0
08212:  CALL   599E
08216:  MOVLW  2F
08218:  BTFSS  F9E.4
0821A:  BRA    8218
0821C:  MOVWF  FAD
0821E:  MOVLW  32
08220:  BTFSS  F9E.4
08222:  BRA    8220
08224:  MOVWF  FAD
08226:  MOVLW  30
08228:  BTFSS  F9E.4
0822A:  BRA    8228
0822C:  MOVWF  FAD
0822E:  MOVFF  238,655
08232:  MOVLW  01
08234:  MOVLB  6
08236:  MOVWF  x56
08238:  MOVLB  0
0823A:  CALL   599E
0823E:  MOVLW  9D
08240:  MOVWF  FF6
08242:  MOVLW  09
08244:  MOVWF  FF7
08246:  MOVLW  00
08248:  MOVWF  FF8
0824A:  MOVLW  06
0824C:  MOVLB  6
0824E:  MOVWF  x55
08250:  MOVLB  0
08252:  CALL   56B2
08256:  MOVFF  23B,655
0825A:  MOVLW  01
0825C:  MOVLB  6
0825E:  MOVWF  x56
08260:  MOVLB  0
08262:  CALL   599E
08266:  MOVLW  3A
08268:  BTFSS  F9E.4
0826A:  BRA    8268
0826C:  MOVWF  FAD
0826E:  MOVFF  23C,655
08272:  MOVLW  01
08274:  MOVLB  6
08276:  MOVWF  x56
08278:  MOVLB  0
0827A:  CALL   599E
0827E:  MOVLW  3A
08280:  BTFSS  F9E.4
08282:  BRA    8280
08284:  MOVWF  FAD
08286:  MOVFF  23D,655
0828A:  MOVLW  01
0828C:  MOVLB  6
0828E:  MOVWF  x56
08290:  MOVLB  0
08292:  CALL   599E
08296:  MOVLW  22
08298:  BTFSS  F9E.4
0829A:  BRA    8298
0829C:  MOVWF  FAD
....................       SendDataDisplay(); 
0829E:  CALL   3F6A
....................       GuardaEEPROM=OFF; 
082A2:  BCF    xA8.4
....................       printf("tuser.txt=\"%s\"",usuario); 
082A4:  MOVLW  B4
082A6:  MOVWF  FF6
082A8:  MOVLW  09
082AA:  MOVWF  FF7
082AC:  MOVLW  00
082AE:  MOVWF  FF8
082B0:  MOVLW  0B
082B2:  MOVLB  6
082B4:  MOVWF  x55
082B6:  MOVLB  0
082B8:  CALL   56B2
082BC:  MOVLW  02
082BE:  MOVWF  FEA
082C0:  MOVLW  56
082C2:  MOVWF  FE9
082C4:  CALL   56E4
082C8:  MOVLW  22
082CA:  BTFSS  F9E.4
082CC:  BRA    82CA
082CE:  MOVWF  FAD
....................       SendDataDisplay(); 
082D0:  CALL   3F6A
....................       codigoUsuarioant=codigoUsuario; 
082D4:  MOVFF  250,251
....................        
....................       if(RX_Buffer[4]==0x01 && RX_Buffer[5]==0x0f && estados[19+RX_Buffer[4]]){//01, Textil & Instrumental 
082D8:  DECFSZ 34,W
082DA:  BRA    8370
082DC:  MOVF   35,W
082DE:  SUBLW  0F
082E0:  BNZ   8370
082E2:  MOVLW  13
082E4:  ADDWF  34,W
082E6:  MOVLB  6
082E8:  MOVWF  x51
082EA:  MOVLW  02
082EC:  MOVWF  x53
082EE:  MOVLW  BC
082F0:  MOVWF  x52
082F2:  MOVLB  0
082F4:  CALL   2192
082F8:  BTFSS  01.0
082FA:  BRA    8370
....................          delay_ms(5); 
082FC:  MOVLW  05
082FE:  MOVLB  6
08300:  MOVWF  x62
08302:  MOVLB  0
08304:  CALL   2128
....................          if(RX_Buffer[4]==0x01 && RX_Buffer[5]==0x0f && estados[19+RX_Buffer[4]]){//01, Textil & Instrumental 
08308:  DECFSZ 34,W
0830A:  BRA    8370
0830C:  MOVF   35,W
0830E:  SUBLW  0F
08310:  BNZ   8370
08312:  MOVLW  13
08314:  ADDWF  34,W
08316:  MOVLB  6
08318:  MOVWF  x51
0831A:  MOVLW  02
0831C:  MOVWF  x53
0831E:  MOVLW  BC
08320:  MOVWF  x52
08322:  MOVLB  0
08324:  CALL   2192
08328:  BTFSS  01.0
0832A:  BRA    8370
....................             printf("page Funcionamiento"); 
0832C:  MOVLW  C4
0832E:  MOVWF  FF6
08330:  MOVLW  09
08332:  MOVWF  FF7
08334:  MOVLW  00
08336:  MOVWF  FF8
08338:  CALL   3F38
....................             SendDataDisplay(); 
0833C:  CALL   3F6A
....................             ConfiguraCiclo(0,5,0,15,0,1,134,7,25,0); 
08340:  MOVLB  6
08342:  CLRF   x58
08344:  MOVLW  05
08346:  MOVWF  x59
08348:  CLRF   x5A
0834A:  MOVLW  0F
0834C:  MOVWF  x5B
0834E:  CLRF   x5C
08350:  MOVLW  01
08352:  MOVWF  x5D
08354:  MOVLW  86
08356:  MOVWF  x5E
08358:  MOVLW  07
0835A:  MOVWF  x5F
0835C:  MOVLW  19
0835E:  MOVWF  x60
08360:  CLRF   x61
08362:  MOVLB  0
08364:  CALL   5A1C
....................             Op=OFF; 
08368:  BCF    xA8.0
....................             Op2=OFF; 
0836A:  BCF    xA8.1
....................             MenuAnt=Menu; 
0836C:  MOVFF  1F6,1F7
....................             //TiempoVacio=CantidadPulsos*180; 
....................          } 
....................       } 
....................        
....................       if(RX_Buffer[4]==0x02 && RX_Buffer[5]==0x0f && estados[19+RX_Buffer[4]]){//02, Caucho 
08370:  MOVF   34,W
08372:  SUBLW  02
08374:  BNZ   840C
08376:  MOVF   35,W
08378:  SUBLW  0F
0837A:  BNZ   840C
0837C:  MOVLW  13
0837E:  ADDWF  34,W
08380:  MOVLB  6
08382:  MOVWF  x51
08384:  MOVLW  02
08386:  MOVWF  x53
08388:  MOVLW  BC
0838A:  MOVWF  x52
0838C:  MOVLB  0
0838E:  CALL   2192
08392:  BTFSS  01.0
08394:  BRA    840C
....................          delay_ms(5); 
08396:  MOVLW  05
08398:  MOVLB  6
0839A:  MOVWF  x62
0839C:  MOVLB  0
0839E:  CALL   2128
....................          if(RX_Buffer[4]==0x02 && RX_Buffer[5]==0x0f && estados[19+RX_Buffer[4]]){ 
083A2:  MOVF   34,W
083A4:  SUBLW  02
083A6:  BNZ   840C
083A8:  MOVF   35,W
083AA:  SUBLW  0F
083AC:  BNZ   840C
083AE:  MOVLW  13
083B0:  ADDWF  34,W
083B2:  MOVLB  6
083B4:  MOVWF  x51
083B6:  MOVLW  02
083B8:  MOVWF  x53
083BA:  MOVLW  BC
083BC:  MOVWF  x52
083BE:  MOVLB  0
083C0:  CALL   2192
083C4:  BTFSS  01.0
083C6:  BRA    840C
....................             printf("page Funcionamiento"); 
083C8:  MOVLW  D8
083CA:  MOVWF  FF6
083CC:  MOVLW  09
083CE:  MOVWF  FF7
083D0:  MOVLW  00
083D2:  MOVWF  FF8
083D4:  CALL   3F38
....................             SendDataDisplay();        
083D8:  CALL   3F6A
....................             ConfiguraCiclo(0,25,0,15,0,2,121,7,25,0);             
083DC:  MOVLB  6
083DE:  CLRF   x58
083E0:  MOVLW  19
083E2:  MOVWF  x59
083E4:  CLRF   x5A
083E6:  MOVLW  0F
083E8:  MOVWF  x5B
083EA:  CLRF   x5C
083EC:  MOVLW  02
083EE:  MOVWF  x5D
083F0:  MOVLW  79
083F2:  MOVWF  x5E
083F4:  MOVLW  07
083F6:  MOVWF  x5F
083F8:  MOVLW  19
083FA:  MOVWF  x60
083FC:  CLRF   x61
083FE:  MOVLB  0
08400:  CALL   5A1C
....................             Op=OFF; 
08404:  BCF    xA8.0
....................             Op2=OFF; 
08406:  BCF    xA8.1
....................             MenuAnt=Menu; 
08408:  MOVFF  1F6,1F7
....................             //TiempoVacio=CantidadPulsos*180; 
....................          } 
....................       } 
....................        
....................       if(RX_Buffer[4]==0x03  && RX_Buffer[5]==0x0f && estados[19+RX_Buffer[4]]){//03, Contenedores  
0840C:  MOVF   34,W
0840E:  SUBLW  03
08410:  BNZ   84A8
08412:  MOVF   35,W
08414:  SUBLW  0F
08416:  BNZ   84A8
08418:  MOVLW  13
0841A:  ADDWF  34,W
0841C:  MOVLB  6
0841E:  MOVWF  x51
08420:  MOVLW  02
08422:  MOVWF  x53
08424:  MOVLW  BC
08426:  MOVWF  x52
08428:  MOVLB  0
0842A:  CALL   2192
0842E:  BTFSS  01.0
08430:  BRA    84A8
....................          delay_ms(5); 
08432:  MOVLW  05
08434:  MOVLB  6
08436:  MOVWF  x62
08438:  MOVLB  0
0843A:  CALL   2128
....................          if(RX_Buffer[4]==0x03 && RX_Buffer[5]==0x0f && estados[19+RX_Buffer[4]]){ 
0843E:  MOVF   34,W
08440:  SUBLW  03
08442:  BNZ   84A8
08444:  MOVF   35,W
08446:  SUBLW  0F
08448:  BNZ   84A8
0844A:  MOVLW  13
0844C:  ADDWF  34,W
0844E:  MOVLB  6
08450:  MOVWF  x51
08452:  MOVLW  02
08454:  MOVWF  x53
08456:  MOVLW  BC
08458:  MOVWF  x52
0845A:  MOVLB  0
0845C:  CALL   2192
08460:  BTFSS  01.0
08462:  BRA    84A8
....................             printf("page Funcionamiento"); 
08464:  MOVLW  EC
08466:  MOVWF  FF6
08468:  MOVLW  09
0846A:  MOVWF  FF7
0846C:  MOVLW  00
0846E:  MOVWF  FF8
08470:  CALL   3F38
....................             SendDataDisplay();      
08474:  CALL   3F6A
....................             ConfiguraCiclo(0,5,0,25,0,3,121,7,25,0);   
08478:  MOVLB  6
0847A:  CLRF   x58
0847C:  MOVLW  05
0847E:  MOVWF  x59
08480:  CLRF   x5A
08482:  MOVLW  19
08484:  MOVWF  x5B
08486:  CLRF   x5C
08488:  MOVLW  03
0848A:  MOVWF  x5D
0848C:  MOVLW  79
0848E:  MOVWF  x5E
08490:  MOVLW  07
08492:  MOVWF  x5F
08494:  MOVLW  19
08496:  MOVWF  x60
08498:  CLRF   x61
0849A:  MOVLB  0
0849C:  CALL   5A1C
....................             Op=OFF; 
084A0:  BCF    xA8.0
....................             Op2=OFF; 
084A2:  BCF    xA8.1
....................             MenuAnt=Menu; 
084A4:  MOVFF  1F6,1F7
....................             //TiempoVacio=CantidadPulsos*180; 
....................          } 
....................       } 
....................        
....................       if(RX_Buffer[4]==0x04 && RX_Buffer[5]==0x0f && estados[19+RX_Buffer[4]]){//04, Rapid 
084A8:  MOVF   34,W
084AA:  SUBLW  04
084AC:  BNZ   8544
084AE:  MOVF   35,W
084B0:  SUBLW  0F
084B2:  BNZ   8544
084B4:  MOVLW  13
084B6:  ADDWF  34,W
084B8:  MOVLB  6
084BA:  MOVWF  x51
084BC:  MOVLW  02
084BE:  MOVWF  x53
084C0:  MOVLW  BC
084C2:  MOVWF  x52
084C4:  MOVLB  0
084C6:  CALL   2192
084CA:  BTFSS  01.0
084CC:  BRA    8544
....................          delay_ms(5); 
084CE:  MOVLW  05
084D0:  MOVLB  6
084D2:  MOVWF  x62
084D4:  MOVLB  0
084D6:  CALL   2128
....................          if(RX_Buffer[4]==0x04 && RX_Buffer[5]==0x0f && estados[19+RX_Buffer[4]]){ 
084DA:  MOVF   34,W
084DC:  SUBLW  04
084DE:  BNZ   8544
084E0:  MOVF   35,W
084E2:  SUBLW  0F
084E4:  BNZ   8544
084E6:  MOVLW  13
084E8:  ADDWF  34,W
084EA:  MOVLB  6
084EC:  MOVWF  x51
084EE:  MOVLW  02
084F0:  MOVWF  x53
084F2:  MOVLW  BC
084F4:  MOVWF  x52
084F6:  MOVLB  0
084F8:  CALL   2192
084FC:  BTFSS  01.0
084FE:  BRA    8544
....................             printf("page Funcionamiento"); 
08500:  MOVLW  00
08502:  MOVWF  FF6
08504:  MOVLW  0A
08506:  MOVWF  FF7
08508:  MOVLW  00
0850A:  MOVWF  FF8
0850C:  CALL   3F38
....................             SendDataDisplay();        
08510:  CALL   3F6A
....................             ConfiguraCiclo(0,5,0,8,0,4,134,7,25,0);   
08514:  MOVLB  6
08516:  CLRF   x58
08518:  MOVLW  05
0851A:  MOVWF  x59
0851C:  CLRF   x5A
0851E:  MOVLW  08
08520:  MOVWF  x5B
08522:  CLRF   x5C
08524:  MOVLW  04
08526:  MOVWF  x5D
08528:  MOVLW  86
0852A:  MOVWF  x5E
0852C:  MOVLW  07
0852E:  MOVWF  x5F
08530:  MOVLW  19
08532:  MOVWF  x60
08534:  CLRF   x61
08536:  MOVLB  0
08538:  CALL   5A1C
....................             Op=OFF; 
0853C:  BCF    xA8.0
....................             Op2=OFF; 
0853E:  BCF    xA8.1
....................             MenuAnt=Menu; 
08540:  MOVFF  1F6,1F7
....................             //TiempoVacio=CantidadPulsos*180; 
....................          } 
....................       } 
....................        
....................       if(RX_Buffer[4]==0x05 && RX_Buffer[5]==0x0f && estados[19+RX_Buffer[4]]){//05, No Envueltos 121 
08544:  MOVF   34,W
08546:  SUBLW  05
08548:  BNZ   85E2
0854A:  MOVF   35,W
0854C:  SUBLW  0F
0854E:  BNZ   85E2
08550:  MOVLW  13
08552:  ADDWF  34,W
08554:  MOVLB  6
08556:  MOVWF  x51
08558:  MOVLW  02
0855A:  MOVWF  x53
0855C:  MOVLW  BC
0855E:  MOVWF  x52
08560:  MOVLB  0
08562:  CALL   2192
08566:  BTFSS  01.0
08568:  BRA    85E2
....................          delay_ms(5); 
0856A:  MOVLW  05
0856C:  MOVLB  6
0856E:  MOVWF  x62
08570:  MOVLB  0
08572:  CALL   2128
....................          if(RX_Buffer[4]==0x05 && RX_Buffer[5]==0x0f && estados[19+RX_Buffer[4]]){ 
08576:  MOVF   34,W
08578:  SUBLW  05
0857A:  BNZ   85E2
0857C:  MOVF   35,W
0857E:  SUBLW  0F
08580:  BNZ   85E2
08582:  MOVLW  13
08584:  ADDWF  34,W
08586:  MOVLB  6
08588:  MOVWF  x51
0858A:  MOVLW  02
0858C:  MOVWF  x53
0858E:  MOVLW  BC
08590:  MOVWF  x52
08592:  MOVLB  0
08594:  CALL   2192
08598:  BTFSS  01.0
0859A:  BRA    85E2
....................             printf("page Funcionamiento"); 
0859C:  MOVLW  14
0859E:  MOVWF  FF6
085A0:  MOVLW  0A
085A2:  MOVWF  FF7
085A4:  MOVLW  00
085A6:  MOVWF  FF8
085A8:  CALL   3F38
....................             SendDataDisplay();        
085AC:  CALL   3F6A
....................             ConfiguraCiclo(0,15,0,2,0,5,121,7,25,0);   
085B0:  MOVLB  6
085B2:  CLRF   x58
085B4:  MOVLW  0F
085B6:  MOVWF  x59
085B8:  CLRF   x5A
085BA:  MOVLW  02
085BC:  MOVWF  x5B
085BE:  CLRF   x5C
085C0:  MOVLW  05
085C2:  MOVWF  x5D
085C4:  MOVLW  79
085C6:  MOVWF  x5E
085C8:  MOVLW  07
085CA:  MOVWF  x5F
085CC:  MOVLW  19
085CE:  MOVWF  x60
085D0:  CLRF   x61
085D2:  MOVLB  0
085D4:  CALL   5A1C
....................             Op=OFF; 
085D8:  BCF    xA8.0
....................             Op2=OFF; 
085DA:  BCF    xA8.1
....................             MenuAnt=Menu; 
085DC:  MOVFF  1F6,1F7
....................             Fugas=OFF; 
085E0:  BCF    xAA.1
....................             //TiempoVacio=CantidadPulsos*180; 
....................          } 
....................       } 
....................        
....................       if(RX_Buffer[4]==0x06 && RX_Buffer[5]==0x0f && estados[19+RX_Buffer[4]]){//06, Envuelto 121 
085E2:  MOVF   34,W
085E4:  SUBLW  06
085E6:  BNZ   867E
085E8:  MOVF   35,W
085EA:  SUBLW  0F
085EC:  BNZ   867E
085EE:  MOVLW  13
085F0:  ADDWF  34,W
085F2:  MOVLB  6
085F4:  MOVWF  x51
085F6:  MOVLW  02
085F8:  MOVWF  x53
085FA:  MOVLW  BC
085FC:  MOVWF  x52
085FE:  MOVLB  0
08600:  CALL   2192
08604:  BTFSS  01.0
08606:  BRA    867E
....................          delay_ms(5); 
08608:  MOVLW  05
0860A:  MOVLB  6
0860C:  MOVWF  x62
0860E:  MOVLB  0
08610:  CALL   2128
....................          if(RX_Buffer[4]==0x06 && RX_Buffer[5]==0x0f && estados[19+RX_Buffer[4]]){ 
08614:  MOVF   34,W
08616:  SUBLW  06
08618:  BNZ   867E
0861A:  MOVF   35,W
0861C:  SUBLW  0F
0861E:  BNZ   867E
08620:  MOVLW  13
08622:  ADDWF  34,W
08624:  MOVLB  6
08626:  MOVWF  x51
08628:  MOVLW  02
0862A:  MOVWF  x53
0862C:  MOVLW  BC
0862E:  MOVWF  x52
08630:  MOVLB  0
08632:  CALL   2192
08636:  BTFSS  01.0
08638:  BRA    867E
....................             printf("page Funcionamiento"); 
0863A:  MOVLW  28
0863C:  MOVWF  FF6
0863E:  MOVLW  0A
08640:  MOVWF  FF7
08642:  MOVLW  00
08644:  MOVWF  FF8
08646:  CALL   3F38
....................             SendDataDisplay();        
0864A:  CALL   3F6A
....................             ConfiguraCiclo(0,15,0,20,0,6,121,7,25,0);   
0864E:  MOVLB  6
08650:  CLRF   x58
08652:  MOVLW  0F
08654:  MOVWF  x59
08656:  CLRF   x5A
08658:  MOVLW  14
0865A:  MOVWF  x5B
0865C:  CLRF   x5C
0865E:  MOVLW  06
08660:  MOVWF  x5D
08662:  MOVLW  79
08664:  MOVWF  x5E
08666:  MOVLW  07
08668:  MOVWF  x5F
0866A:  MOVLW  19
0866C:  MOVWF  x60
0866E:  CLRF   x61
08670:  MOVLB  0
08672:  CALL   5A1C
....................             Op=OFF; 
08676:  BCF    xA8.0
....................             Op2=OFF; 
08678:  BCF    xA8.1
....................             MenuAnt=Menu; 
0867A:  MOVFF  1F6,1F7
....................             //TiempoVacio=CantidadPulsos*180; 
....................          } 
....................       } 
....................        
....................       if(RX_Buffer[4]==0x07 && RX_Buffer[5]==0x0f && estados[19+RX_Buffer[4]]){//07, Envuelto Doble 2 
0867E:  MOVF   34,W
08680:  SUBLW  07
08682:  BNZ   871A
08684:  MOVF   35,W
08686:  SUBLW  0F
08688:  BNZ   871A
0868A:  MOVLW  13
0868C:  ADDWF  34,W
0868E:  MOVLB  6
08690:  MOVWF  x51
08692:  MOVLW  02
08694:  MOVWF  x53
08696:  MOVLW  BC
08698:  MOVWF  x52
0869A:  MOVLB  0
0869C:  CALL   2192
086A0:  BTFSS  01.0
086A2:  BRA    871A
....................          delay_ms(5); 
086A4:  MOVLW  05
086A6:  MOVLB  6
086A8:  MOVWF  x62
086AA:  MOVLB  0
086AC:  CALL   2128
....................          if(RX_Buffer[4]==0x07 && RX_Buffer[5]==0x0f && estados[19+RX_Buffer[4]]){ 
086B0:  MOVF   34,W
086B2:  SUBLW  07
086B4:  BNZ   871A
086B6:  MOVF   35,W
086B8:  SUBLW  0F
086BA:  BNZ   871A
086BC:  MOVLW  13
086BE:  ADDWF  34,W
086C0:  MOVLB  6
086C2:  MOVWF  x51
086C4:  MOVLW  02
086C6:  MOVWF  x53
086C8:  MOVLW  BC
086CA:  MOVWF  x52
086CC:  MOVLB  0
086CE:  CALL   2192
086D2:  BTFSS  01.0
086D4:  BRA    871A
....................             printf("page Funcionamiento"); 
086D6:  MOVLW  3C
086D8:  MOVWF  FF6
086DA:  MOVLW  0A
086DC:  MOVWF  FF7
086DE:  MOVLW  00
086E0:  MOVWF  FF8
086E2:  CALL   3F38
....................             SendDataDisplay();        
086E6:  CALL   3F6A
....................             ConfiguraCiclo(0,7,0,30,0,7,134,7,25,0);   
086EA:  MOVLB  6
086EC:  CLRF   x58
086EE:  MOVLW  07
086F0:  MOVWF  x59
086F2:  CLRF   x5A
086F4:  MOVLW  1E
086F6:  MOVWF  x5B
086F8:  CLRF   x5C
086FA:  MOVLW  07
086FC:  MOVWF  x5D
086FE:  MOVLW  86
08700:  MOVWF  x5E
08702:  MOVLW  07
08704:  MOVWF  x5F
08706:  MOVLW  19
08708:  MOVWF  x60
0870A:  CLRF   x61
0870C:  MOVLB  0
0870E:  CALL   5A1C
....................             Op=OFF; 
08712:  BCF    xA8.0
....................             Op2=OFF; 
08714:  BCF    xA8.1
....................             MenuAnt=Menu; 
08716:  MOVFF  1F6,1F7
....................             //TiempoVacio=CantidadPulsos*180; 
....................          } 
....................       } 
....................        
....................       if(RX_Buffer[4]==0x08 && RX_Buffer[5]==0x0f && estados[19+RX_Buffer[4]]){//08, Prion 
0871A:  MOVF   34,W
0871C:  SUBLW  08
0871E:  BNZ   87B6
08720:  MOVF   35,W
08722:  SUBLW  0F
08724:  BNZ   87B6
08726:  MOVLW  13
08728:  ADDWF  34,W
0872A:  MOVLB  6
0872C:  MOVWF  x51
0872E:  MOVLW  02
08730:  MOVWF  x53
08732:  MOVLW  BC
08734:  MOVWF  x52
08736:  MOVLB  0
08738:  CALL   2192
0873C:  BTFSS  01.0
0873E:  BRA    87B6
....................          delay_ms(5); 
08740:  MOVLW  05
08742:  MOVLB  6
08744:  MOVWF  x62
08746:  MOVLB  0
08748:  CALL   2128
....................          if(RX_Buffer[4]==0x08 && RX_Buffer[5]==0x0f && estados[19+RX_Buffer[4]]){ 
0874C:  MOVF   34,W
0874E:  SUBLW  08
08750:  BNZ   87B6
08752:  MOVF   35,W
08754:  SUBLW  0F
08756:  BNZ   87B6
08758:  MOVLW  13
0875A:  ADDWF  34,W
0875C:  MOVLB  6
0875E:  MOVWF  x51
08760:  MOVLW  02
08762:  MOVWF  x53
08764:  MOVLW  BC
08766:  MOVWF  x52
08768:  MOVLB  0
0876A:  CALL   2192
0876E:  BTFSS  01.0
08770:  BRA    87B6
....................             printf("page Funcionamiento"); 
08772:  MOVLW  50
08774:  MOVWF  FF6
08776:  MOVLW  0A
08778:  MOVWF  FF7
0877A:  MOVLW  00
0877C:  MOVWF  FF8
0877E:  CALL   3F38
....................             SendDataDisplay();        
08782:  CALL   3F6A
....................             ConfiguraCiclo(0,20,0,15,0,8,134,7,25,0);   
08786:  MOVLB  6
08788:  CLRF   x58
0878A:  MOVLW  14
0878C:  MOVWF  x59
0878E:  CLRF   x5A
08790:  MOVLW  0F
08792:  MOVWF  x5B
08794:  CLRF   x5C
08796:  MOVLW  08
08798:  MOVWF  x5D
0879A:  MOVLW  86
0879C:  MOVWF  x5E
0879E:  MOVLW  07
087A0:  MOVWF  x5F
087A2:  MOVLW  19
087A4:  MOVWF  x60
087A6:  CLRF   x61
087A8:  MOVLB  0
087AA:  CALL   5A1C
....................             Op=OFF; 
087AE:  BCF    xA8.0
....................             Op2=OFF; 
087B0:  BCF    xA8.1
....................             MenuAnt=Menu; 
087B2:  MOVFF  1F6,1F7
....................             //TiempoVacio=CantidadPulsos*180; 
....................          } 
....................       } 
....................        
....................       if(RX_Buffer[4]==0x09 && RX_Buffer[5]==0x0f && estados[19+RX_Buffer[4]]){//09, Bowie & Dick 
087B6:  MOVF   34,W
087B8:  SUBLW  09
087BA:  BNZ   8854
087BC:  MOVF   35,W
087BE:  SUBLW  0F
087C0:  BNZ   8854
087C2:  MOVLW  13
087C4:  ADDWF  34,W
087C6:  MOVLB  6
087C8:  MOVWF  x51
087CA:  MOVLW  02
087CC:  MOVWF  x53
087CE:  MOVLW  BC
087D0:  MOVWF  x52
087D2:  MOVLB  0
087D4:  CALL   2192
087D8:  BTFSS  01.0
087DA:  BRA    8854
....................          delay_ms(5); 
087DC:  MOVLW  05
087DE:  MOVLB  6
087E0:  MOVWF  x62
087E2:  MOVLB  0
087E4:  CALL   2128
....................          if(RX_Buffer[4]==0x09 && RX_Buffer[5]==0x0f && estados[19+RX_Buffer[4]]){ 
087E8:  MOVF   34,W
087EA:  SUBLW  09
087EC:  BNZ   8854
087EE:  MOVF   35,W
087F0:  SUBLW  0F
087F2:  BNZ   8854
087F4:  MOVLW  13
087F6:  ADDWF  34,W
087F8:  MOVLB  6
087FA:  MOVWF  x51
087FC:  MOVLW  02
087FE:  MOVWF  x53
08800:  MOVLW  BC
08802:  MOVWF  x52
08804:  MOVLB  0
08806:  CALL   2192
0880A:  BTFSS  01.0
0880C:  BRA    8854
....................             printf("page Funcionamiento"); 
0880E:  MOVLW  64
08810:  MOVWF  FF6
08812:  MOVLW  0A
08814:  MOVWF  FF7
08816:  MOVLW  00
08818:  MOVWF  FF8
0881A:  CALL   3F38
....................             SendDataDisplay();        
0881E:  CALL   3F6A
....................             ConfiguraCiclo(30,3,0,1,0,9,134,7,25,0);   
08822:  MOVLW  1E
08824:  MOVLB  6
08826:  MOVWF  x58
08828:  MOVLW  03
0882A:  MOVWF  x59
0882C:  CLRF   x5A
0882E:  MOVLW  01
08830:  MOVWF  x5B
08832:  CLRF   x5C
08834:  MOVLW  09
08836:  MOVWF  x5D
08838:  MOVLW  86
0883A:  MOVWF  x5E
0883C:  MOVLW  07
0883E:  MOVWF  x5F
08840:  MOVLW  19
08842:  MOVWF  x60
08844:  CLRF   x61
08846:  MOVLB  0
08848:  CALL   5A1C
....................             Op=OFF; 
0884C:  BCF    xA8.0
....................             Op2=OFF; 
0884E:  BCF    xA8.1
....................             MenuAnt=Menu; 
08850:  MOVFF  1F6,1F7
....................             //TiempoVacio=CantidadPulsos*180; 
....................          } 
....................       } 
....................        
....................       if(RX_Buffer[4]==0x0a && RX_Buffer[5]==0x0f && estados[19+RX_Buffer[4]]){//0a, Test de Fugas 
08854:  MOVF   34,W
08856:  SUBLW  0A
08858:  BNZ   88EC
0885A:  MOVF   35,W
0885C:  SUBLW  0F
0885E:  BNZ   88EC
08860:  MOVLW  13
08862:  ADDWF  34,W
08864:  MOVLB  6
08866:  MOVWF  x51
08868:  MOVLW  02
0886A:  MOVWF  x53
0886C:  MOVLW  BC
0886E:  MOVWF  x52
08870:  MOVLB  0
08872:  CALL   2192
08876:  BTFSS  01.0
08878:  BRA    88EC
....................          delay_ms(5); 
0887A:  MOVLW  05
0887C:  MOVLB  6
0887E:  MOVWF  x62
08880:  MOVLB  0
08882:  CALL   2128
....................          if(RX_Buffer[4]==0x0a && RX_Buffer[5]==0x0f && estados[19+RX_Buffer[4]]){ 
08886:  MOVF   34,W
08888:  SUBLW  0A
0888A:  BNZ   88EC
0888C:  MOVF   35,W
0888E:  SUBLW  0F
08890:  BNZ   88EC
08892:  MOVLW  13
08894:  ADDWF  34,W
08896:  MOVLB  6
08898:  MOVWF  x51
0889A:  MOVLW  02
0889C:  MOVWF  x53
0889E:  MOVLW  BC
088A0:  MOVWF  x52
088A2:  MOVLB  0
088A4:  CALL   2192
088A8:  BTFSS  01.0
088AA:  BRA    88EC
....................             printf("page Funcionamiento"); 
088AC:  MOVLW  78
088AE:  MOVWF  FF6
088B0:  MOVLW  0A
088B2:  MOVWF  FF7
088B4:  MOVLW  00
088B6:  MOVWF  FF8
088B8:  CALL   3F38
....................             SendDataDisplay();        
088BC:  CALL   3F6A
....................             ConfiguraCiclo(0,20,0,0,0,10,30,1,17,1); 
088C0:  MOVLB  6
088C2:  CLRF   x58
088C4:  MOVLW  14
088C6:  MOVWF  x59
088C8:  CLRF   x5A
088CA:  CLRF   x5B
088CC:  CLRF   x5C
088CE:  MOVLW  0A
088D0:  MOVWF  x5D
088D2:  MOVLW  1E
088D4:  MOVWF  x5E
088D6:  MOVLW  01
088D8:  MOVWF  x5F
088DA:  MOVLW  11
088DC:  MOVWF  x60
088DE:  MOVLW  01
088E0:  MOVWF  x61
088E2:  MOVLB  0
088E4:  CALL   5A1C
....................             MenuAnt=Menu; 
088E8:  MOVFF  1F6,1F7
....................             //TiempoVacio=CantidadPulsos*180; 
....................          } 
....................       } 
....................        
....................       if(RX_Buffer[4]==0xa0){//a0, Ciclos Fijos 
088EC:  MOVF   34,W
088EE:  SUBLW  A0
088F0:  BNZ   8906
....................          printf("page Menu"); 
088F2:  MOVLW  8C
088F4:  MOVWF  FF6
088F6:  MOVLW  0A
088F8:  MOVWF  FF7
088FA:  MOVLW  00
088FC:  MOVWF  FF8
088FE:  CALL   3F38
....................          SendDataDisplay();      
08902:  CALL   3F6A
....................       } 
....................        
....................       if(RX_Buffer[4]==0xb0){//b0, Personalizados 
08906:  MOVF   34,W
08908:  SUBLW  B0
0890A:  BNZ   8920
....................          printf("page CicloPersona"); 
0890C:  MOVLW  96
0890E:  MOVWF  FF6
08910:  MOVLW  0A
08912:  MOVWF  FF7
08914:  MOVLW  00
08916:  MOVWF  FF8
08918:  CALL   3F38
....................          SendDataDisplay();      
0891C:  CALL   3F6A
....................       } 
....................        
....................       if(RX_Buffer[4]==0xc0){//c0, Configuraciones 
08920:  MOVF   34,W
08922:  SUBLW  C0
08924:  BNZ   8948
....................          if(codigoUsuario==0 || codigoUsuario==9){        
08926:  MOVLB  2
08928:  MOVF   x50,F
0892A:  BZ    8932
0892C:  MOVF   x50,W
0892E:  SUBLW  09
08930:  BNZ   894A
....................             printf("page Ajustes"); 
08932:  MOVLW  A8
08934:  MOVWF  FF6
08936:  MOVLW  0A
08938:  MOVWF  FF7
0893A:  MOVLW  00
0893C:  MOVWF  FF8
0893E:  MOVLB  0
08940:  CALL   3F38
....................             SendDataDisplay();      
08944:  CALL   3F6A
08948:  MOVLB  2
0894A:  MOVLB  1
....................          } 
....................       } 
....................    } 
.................... //_--------------------------------------------------------------------------------------------------------------------------------------------------------        
....................  
.................... //_-------------------------------------------------------------------------------------------------------------------------------------------------------- 
....................       if(Menu==2){ //Menu de Tiempo Esterilizacion      
0894C:  MOVF   xF6,W
0894E:  SUBLW  02
08950:  BTFSS  FD8.2
08952:  BRA    8C44
....................          printf("fecha.txt=\"T:%2.1fC Fecha:%02u/%02u/20%02u Hora:%02u:%02u:%02u\"",Temperatura,Dia,Mes,Year,Hora,Minuto,Segundo); 
08954:  MOVLW  B6
08956:  MOVWF  FF6
08958:  MOVLW  0A
0895A:  MOVWF  FF7
0895C:  MOVLW  00
0895E:  MOVWF  FF8
08960:  MOVLW  0D
08962:  MOVLB  6
08964:  MOVWF  x55
08966:  MOVLB  0
08968:  CALL   56B2
0896C:  MOVLW  01
0896E:  MOVWF  FE9
08970:  MOVFF  1D9,658
08974:  MOVFF  1D8,657
08978:  MOVFF  1D7,656
0897C:  MOVFF  1D6,655
08980:  MOVLB  6
08982:  MOVWF  x59
08984:  MOVLB  0
08986:  CALL   57CE
0898A:  MOVLW  C8
0898C:  MOVWF  FF6
0898E:  MOVLW  0A
08990:  MOVWF  FF7
08992:  MOVLW  00
08994:  MOVWF  FF8
08996:  MOVLW  09
08998:  MOVLB  6
0899A:  MOVWF  x55
0899C:  MOVLB  0
0899E:  CALL   56B2
089A2:  MOVFF  23A,655
089A6:  MOVLW  01
089A8:  MOVLB  6
089AA:  MOVWF  x56
089AC:  MOVLB  0
089AE:  CALL   599E
089B2:  MOVLW  2F
089B4:  BTFSS  F9E.4
089B6:  BRA    89B4
089B8:  MOVWF  FAD
089BA:  MOVFF  239,655
089BE:  MOVLW  01
089C0:  MOVLB  6
089C2:  MOVWF  x56
089C4:  MOVLB  0
089C6:  CALL   599E
089CA:  MOVLW  2F
089CC:  BTFSS  F9E.4
089CE:  BRA    89CC
089D0:  MOVWF  FAD
089D2:  MOVLW  32
089D4:  BTFSS  F9E.4
089D6:  BRA    89D4
089D8:  MOVWF  FAD
089DA:  MOVLW  30
089DC:  BTFSS  F9E.4
089DE:  BRA    89DC
089E0:  MOVWF  FAD
089E2:  MOVFF  238,655
089E6:  MOVLW  01
089E8:  MOVLB  6
089EA:  MOVWF  x56
089EC:  MOVLB  0
089EE:  CALL   599E
089F2:  MOVLW  E1
089F4:  MOVWF  FF6
089F6:  MOVLW  0A
089F8:  MOVWF  FF7
089FA:  MOVLW  00
089FC:  MOVWF  FF8
089FE:  MOVLW  06
08A00:  MOVLB  6
08A02:  MOVWF  x55
08A04:  MOVLB  0
08A06:  CALL   56B2
08A0A:  MOVFF  23B,655
08A0E:  MOVLW  01
08A10:  MOVLB  6
08A12:  MOVWF  x56
08A14:  MOVLB  0
08A16:  CALL   599E
08A1A:  MOVLW  3A
08A1C:  BTFSS  F9E.4
08A1E:  BRA    8A1C
08A20:  MOVWF  FAD
08A22:  MOVFF  23C,655
08A26:  MOVLW  01
08A28:  MOVLB  6
08A2A:  MOVWF  x56
08A2C:  MOVLB  0
08A2E:  CALL   599E
08A32:  MOVLW  3A
08A34:  BTFSS  F9E.4
08A36:  BRA    8A34
08A38:  MOVWF  FAD
08A3A:  MOVFF  23D,655
08A3E:  MOVLW  01
08A40:  MOVLB  6
08A42:  MOVWF  x56
08A44:  MOVLB  0
08A46:  CALL   599E
08A4A:  MOVLW  22
08A4C:  BTFSS  F9E.4
08A4E:  BRA    8A4C
08A50:  MOVWF  FAD
....................          SendDataDisplay(); 
08A52:  CALL   3F6A
....................          if(RX_Buffer[4]==0x0a){//Selecciono Minutos 
08A56:  MOVF   34,W
08A58:  SUBLW  0A
08A5A:  BNZ   8A60
....................             Minutos=ON; 
08A5C:  BSF    xA8.2
....................             Segundos=OFF; 
08A5E:  BCF    xA8.3
....................          } 
....................           
....................          if(RX_Buffer[4]==0x0b){//Selecciono Segundos 
08A60:  MOVF   34,W
08A62:  SUBLW  0B
08A64:  BNZ   8A6A
....................             Segundos=ON; 
08A66:  BSF    xA8.3
....................             Minutos=OFF; 
08A68:  BCF    xA8.2
....................          }            
....................           
....................          if(RX_Buffer[4]==0x11){//Selecciono Regresar             
08A6A:  MOVF   34,W
08A6C:  SUBLW  11
08A6E:  BTFSS  FD8.2
08A70:  BRA    8B84
....................                Segundos=OFF; 
08A72:  BCF    xA8.3
....................                Minutos=OFF; 
08A74:  BCF    xA8.2
....................                printf("page CicloPersona"); 
08A76:  MOVLW  F8
08A78:  MOVWF  FF6
08A7A:  MOVLW  0A
08A7C:  MOVWF  FF7
08A7E:  MOVLW  00
08A80:  MOVWF  FF8
08A82:  CALL   3F38
....................                SendDataDisplay();   
08A86:  CALL   3F6A
....................                if(!GuardaEEPROM){ 
08A8A:  BTFSC  xA8.4
08A8C:  BRA    8B84
....................                   CiclosPersonalizados[CicloLibre-1].Minutoest=mEstp; 
08A8E:  MOVLW  01
08A90:  MOVLB  1
08A92:  SUBWF  xEC,W
08A94:  MULLW  08
08A96:  MOVF   FF3,W
08A98:  MOVLB  6
08A9A:  CLRF   x51
08A9C:  MOVWF  x50
08A9E:  MOVLW  01
08AA0:  ADDWF  x50,W
08AA2:  MOVWF  01
08AA4:  MOVLW  00
08AA6:  ADDWFC x51,W
08AA8:  MOVWF  03
08AAA:  MOVF   01,W
08AAC:  ADDLW  88
08AAE:  MOVWF  FE9
08AB0:  MOVLW  05
08AB2:  ADDWFC 03,W
08AB4:  MOVWF  FEA
08AB6:  MOVFF  C4,FEF
....................                   CiclosPersonalizados[CicloLibre-1].Segundoest=sEstp; 
08ABA:  MOVLW  01
08ABC:  MOVLB  1
08ABE:  SUBWF  xEC,W
08AC0:  MULLW  08
08AC2:  MOVF   FF3,W
08AC4:  MOVLB  6
08AC6:  CLRF   x51
08AC8:  MOVWF  x50
08ACA:  MOVLW  02
08ACC:  ADDWF  x50,W
08ACE:  MOVWF  01
08AD0:  MOVLW  00
08AD2:  ADDWFC x51,W
08AD4:  MOVWF  03
08AD6:  MOVF   01,W
08AD8:  ADDLW  88
08ADA:  MOVWF  FE9
08ADC:  MOVLW  05
08ADE:  ADDWFC 03,W
08AE0:  MOVWF  FEA
08AE2:  MOVFF  C3,FEF
....................                   write_eeprom(101+((CicloLibre-1)*8),mEstp); 
08AE6:  MOVLW  01
08AE8:  MOVLB  1
08AEA:  SUBWF  xEC,W
08AEC:  MULLW  08
08AEE:  MOVF   FF3,W
08AF0:  ADDLW  65
08AF2:  MOVLB  6
08AF4:  MOVWF  x50
08AF6:  CLRF   FAA
08AF8:  MOVFF  650,FA9
08AFC:  MOVFF  C4,FA8
08B00:  BCF    FA6.6
08B02:  BCF    FA6.7
08B04:  BSF    FA6.2
08B06:  MOVF   FF2,W
08B08:  MOVWF  00
08B0A:  BCF    FF2.6
08B0C:  BCF    FF2.7
08B0E:  MOVLB  F
08B10:  MOVLW  55
08B12:  MOVWF  FA7
08B14:  MOVLW  AA
08B16:  MOVWF  FA7
08B18:  BSF    FA6.1
08B1A:  BTFSC  FA6.1
08B1C:  BRA    8B1A
08B1E:  BCF    FA6.2
08B20:  MOVF   00,W
08B22:  IORWF  FF2,F
....................                   delay_ms(10); 
08B24:  MOVLW  0A
08B26:  MOVLB  6
08B28:  MOVWF  x62
08B2A:  MOVLB  0
08B2C:  CALL   2128
....................                   write_eeprom(102+((CicloLibre-1)*8),sEstp); 
08B30:  MOVLW  01
08B32:  MOVLB  1
08B34:  SUBWF  xEC,W
08B36:  MULLW  08
08B38:  MOVF   FF3,W
08B3A:  ADDLW  66
08B3C:  MOVLB  6
08B3E:  MOVWF  x50
08B40:  CLRF   FAA
08B42:  MOVFF  650,FA9
08B46:  MOVFF  C3,FA8
08B4A:  BCF    FA6.6
08B4C:  BCF    FA6.7
08B4E:  BSF    FA6.2
08B50:  MOVF   FF2,W
08B52:  MOVWF  00
08B54:  BCF    FF2.6
08B56:  BCF    FF2.7
08B58:  MOVLB  F
08B5A:  MOVLW  55
08B5C:  MOVWF  FA7
08B5E:  MOVLW  AA
08B60:  MOVWF  FA7
08B62:  BSF    FA6.1
08B64:  BTFSC  FA6.1
08B66:  BRA    8B64
08B68:  BCF    FA6.2
08B6A:  MOVF   00,W
08B6C:  IORWF  FF2,F
....................                   delay_ms(10); 
08B6E:  MOVLW  0A
08B70:  MOVLB  6
08B72:  MOVWF  x62
08B74:  MOVLB  0
08B76:  CALL   2128
....................                   mEst=mEstp; 
08B7A:  MOVFF  C4,C0
....................                   sEst=sEstp; 
08B7E:  MOVFF  C3,BF
....................                   GuardaEEPROM=ON; 
08B82:  BSF    xA8.4
....................                } 
....................          } 
....................           
....................          if(RX_Buffer[4]==0x0c || RX_Buffer[4]==0x0d){//Tecla arriba Oprimida 
08B84:  MOVF   34,W
08B86:  SUBLW  0C
08B88:  BZ    8B90
08B8A:  MOVF   34,W
08B8C:  SUBLW  0D
08B8E:  BNZ   8BA0
....................             if(Segundos){ 
08B90:  BTFSS  xA8.3
08B92:  BRA    8B96
....................                sEstp++; 
08B94:  INCF   xC3,F
....................             } 
....................             if(Minutos){ 
08B96:  BTFSS  xA8.2
08B98:  BRA    8B9C
....................                mEstp++; 
08B9A:  INCF   xC4,F
....................             }   
....................             RX_Buffer[4]=0x00;   
08B9C:  CLRF   34
....................             RX_Buffer2[4]=0x00; 
08B9E:  CLRF   3F
....................          } 
....................           
....................          if(RX_Buffer[4]==0x0f || RX_Buffer[4]==0x0e){//Tecla abajo oprimida 
08BA0:  MOVF   34,W
08BA2:  SUBLW  0F
08BA4:  BZ    8BAC
08BA6:  MOVF   34,W
08BA8:  SUBLW  0E
08BAA:  BNZ   8BC0
....................             if(Segundos && sEstp>0){ 
08BAC:  BTFSS  xA8.3
08BAE:  BRA    8BB6
08BB0:  MOVF   xC3,F
08BB2:  BZ    8BB6
....................                sEstp--; 
08BB4:  DECF   xC3,F
....................             } 
....................             if(Minutos){ 
08BB6:  BTFSS  xA8.2
08BB8:  BRA    8BBC
....................                mEstp--; 
08BBA:  DECF   xC4,F
....................             } 
....................             RX_Buffer[4]=0x00;   
08BBC:  CLRF   34
....................             RX_Buffer2[4]=0x00; 
08BBE:  CLRF   3F
....................          } 
....................           
....................          if(mEstp<1)mEstp=99; 
08BC0:  MOVF   xC4,F
08BC2:  BNZ   8BC8
08BC4:  MOVLW  63
08BC6:  MOVWF  xC4
....................          if(mEstp>99)mEstp=1; 
08BC8:  MOVF   xC4,W
08BCA:  SUBLW  63
08BCC:  BC    8BD2
08BCE:  MOVLW  01
08BD0:  MOVWF  xC4
....................          if(sEstp>59)sEstp=0; 
08BD2:  MOVF   xC3,W
08BD4:  SUBLW  3B
08BD6:  BTFSS  FD8.0
08BD8:  CLRF   xC3
....................              
....................          printf("tminest.txt=\"%02u\"",mEstp); 
08BDA:  MOVLW  0A
08BDC:  MOVWF  FF6
08BDE:  MOVLW  0B
08BE0:  MOVWF  FF7
08BE2:  MOVLW  00
08BE4:  MOVWF  FF8
08BE6:  MOVLW  0D
08BE8:  MOVLB  6
08BEA:  MOVWF  x55
08BEC:  MOVLB  0
08BEE:  CALL   56B2
08BF2:  MOVFF  C4,655
08BF6:  MOVLW  01
08BF8:  MOVLB  6
08BFA:  MOVWF  x56
08BFC:  MOVLB  0
08BFE:  CALL   599E
08C02:  MOVLW  22
08C04:  BTFSS  F9E.4
08C06:  BRA    8C04
08C08:  MOVWF  FAD
....................          SendDataDisplay(); 
08C0A:  CALL   3F6A
....................          printf("tsecest.txt=\"%02u\"",sEstp); 
08C0E:  MOVLW  1E
08C10:  MOVWF  FF6
08C12:  MOVLW  0B
08C14:  MOVWF  FF7
08C16:  MOVLW  00
08C18:  MOVWF  FF8
08C1A:  MOVLW  0D
08C1C:  MOVLB  6
08C1E:  MOVWF  x55
08C20:  MOVLB  0
08C22:  CALL   56B2
08C26:  MOVFF  C3,655
08C2A:  MOVLW  01
08C2C:  MOVLB  6
08C2E:  MOVWF  x56
08C30:  MOVLB  0
08C32:  CALL   599E
08C36:  MOVLW  22
08C38:  BTFSS  F9E.4
08C3A:  BRA    8C38
08C3C:  MOVWF  FAD
....................          SendDataDisplay(); 
08C3E:  CALL   3F6A
08C42:  MOVLB  1
....................     } 
.................... //_--------------------------------------------------------------------------------------------------------------------------------------------------------        
....................  
.................... //_-------------------------------------------------------------------------------------------------------------------------------------------------------- 
....................     if(Menu==3){ //Menu de Tiempo de Secado 
08C44:  MOVF   xF6,W
08C46:  SUBLW  03
08C48:  BTFSS  FD8.2
08C4A:  BRA    8F3C
....................       printf("fecha.txt=\"T:%2.1fC Fecha:%02u/%02u/20%02u Hora:%02u:%02u:%02u\"",Temperatura,Dia,Mes,Year,Hora,Minuto,Segundo); 
08C4C:  MOVLW  32
08C4E:  MOVWF  FF6
08C50:  MOVLW  0B
08C52:  MOVWF  FF7
08C54:  MOVLW  00
08C56:  MOVWF  FF8
08C58:  MOVLW  0D
08C5A:  MOVLB  6
08C5C:  MOVWF  x55
08C5E:  MOVLB  0
08C60:  CALL   56B2
08C64:  MOVLW  01
08C66:  MOVWF  FE9
08C68:  MOVFF  1D9,658
08C6C:  MOVFF  1D8,657
08C70:  MOVFF  1D7,656
08C74:  MOVFF  1D6,655
08C78:  MOVLB  6
08C7A:  MOVWF  x59
08C7C:  MOVLB  0
08C7E:  CALL   57CE
08C82:  MOVLW  44
08C84:  MOVWF  FF6
08C86:  MOVLW  0B
08C88:  MOVWF  FF7
08C8A:  MOVLW  00
08C8C:  MOVWF  FF8
08C8E:  MOVLW  09
08C90:  MOVLB  6
08C92:  MOVWF  x55
08C94:  MOVLB  0
08C96:  CALL   56B2
08C9A:  MOVFF  23A,655
08C9E:  MOVLW  01
08CA0:  MOVLB  6
08CA2:  MOVWF  x56
08CA4:  MOVLB  0
08CA6:  CALL   599E
08CAA:  MOVLW  2F
08CAC:  BTFSS  F9E.4
08CAE:  BRA    8CAC
08CB0:  MOVWF  FAD
08CB2:  MOVFF  239,655
08CB6:  MOVLW  01
08CB8:  MOVLB  6
08CBA:  MOVWF  x56
08CBC:  MOVLB  0
08CBE:  CALL   599E
08CC2:  MOVLW  2F
08CC4:  BTFSS  F9E.4
08CC6:  BRA    8CC4
08CC8:  MOVWF  FAD
08CCA:  MOVLW  32
08CCC:  BTFSS  F9E.4
08CCE:  BRA    8CCC
08CD0:  MOVWF  FAD
08CD2:  MOVLW  30
08CD4:  BTFSS  F9E.4
08CD6:  BRA    8CD4
08CD8:  MOVWF  FAD
08CDA:  MOVFF  238,655
08CDE:  MOVLW  01
08CE0:  MOVLB  6
08CE2:  MOVWF  x56
08CE4:  MOVLB  0
08CE6:  CALL   599E
08CEA:  MOVLW  5D
08CEC:  MOVWF  FF6
08CEE:  MOVLW  0B
08CF0:  MOVWF  FF7
08CF2:  MOVLW  00
08CF4:  MOVWF  FF8
08CF6:  MOVLW  06
08CF8:  MOVLB  6
08CFA:  MOVWF  x55
08CFC:  MOVLB  0
08CFE:  CALL   56B2
08D02:  MOVFF  23B,655
08D06:  MOVLW  01
08D08:  MOVLB  6
08D0A:  MOVWF  x56
08D0C:  MOVLB  0
08D0E:  CALL   599E
08D12:  MOVLW  3A
08D14:  BTFSS  F9E.4
08D16:  BRA    8D14
08D18:  MOVWF  FAD
08D1A:  MOVFF  23C,655
08D1E:  MOVLW  01
08D20:  MOVLB  6
08D22:  MOVWF  x56
08D24:  MOVLB  0
08D26:  CALL   599E
08D2A:  MOVLW  3A
08D2C:  BTFSS  F9E.4
08D2E:  BRA    8D2C
08D30:  MOVWF  FAD
08D32:  MOVFF  23D,655
08D36:  MOVLW  01
08D38:  MOVLB  6
08D3A:  MOVWF  x56
08D3C:  MOVLB  0
08D3E:  CALL   599E
08D42:  MOVLW  22
08D44:  BTFSS  F9E.4
08D46:  BRA    8D44
08D48:  MOVWF  FAD
....................       SendDataDisplay();             
08D4A:  CALL   3F6A
....................              
....................          if(RX_Buffer[4]==0x0a){//Selecciono Minutos 
08D4E:  MOVF   34,W
08D50:  SUBLW  0A
08D52:  BNZ   8D58
....................             Minutos=ON; 
08D54:  BSF    xA8.2
....................             Segundos=OFF; 
08D56:  BCF    xA8.3
....................          } 
....................           
....................          if(RX_Buffer[4]==0x0b){//Selecciono Segundos 
08D58:  MOVF   34,W
08D5A:  SUBLW  0B
08D5C:  BNZ   8D62
....................             Segundos=ON; 
08D5E:  BSF    xA8.3
....................             Minutos=OFF; 
08D60:  BCF    xA8.2
....................          } 
....................           
....................          if(RX_Buffer[4]==0x11){//Selecciono Regresar 
08D62:  MOVF   34,W
08D64:  SUBLW  11
08D66:  BTFSS  FD8.2
08D68:  BRA    8E7C
....................             Segundos=OFF; 
08D6A:  BCF    xA8.3
....................             Minutos=OFF; 
08D6C:  BCF    xA8.2
....................             printf("page CicloPersona"); 
08D6E:  MOVLW  74
08D70:  MOVWF  FF6
08D72:  MOVLW  0B
08D74:  MOVWF  FF7
08D76:  MOVLW  00
08D78:  MOVWF  FF8
08D7A:  CALL   3F38
....................             SendDataDisplay();   
08D7E:  CALL   3F6A
....................             if(!GuardaEEPROM){ 
08D82:  BTFSC  xA8.4
08D84:  BRA    8E7C
....................                CiclosPersonalizados[CicloLibre-1].Minutosec=mSecp; 
08D86:  MOVLW  01
08D88:  MOVLB  1
08D8A:  SUBWF  xEC,W
08D8C:  MULLW  08
08D8E:  MOVF   FF3,W
08D90:  MOVLB  6
08D92:  CLRF   x51
08D94:  MOVWF  x50
08D96:  MOVLW  03
08D98:  ADDWF  x50,W
08D9A:  MOVWF  01
08D9C:  MOVLW  00
08D9E:  ADDWFC x51,W
08DA0:  MOVWF  03
08DA2:  MOVF   01,W
08DA4:  ADDLW  88
08DA6:  MOVWF  FE9
08DA8:  MOVLW  05
08DAA:  ADDWFC 03,W
08DAC:  MOVWF  FEA
08DAE:  MOVFF  C6,FEF
....................                CiclosPersonalizados[CicloLibre-1].Segundosec=sSecp; 
08DB2:  MOVLW  01
08DB4:  MOVLB  1
08DB6:  SUBWF  xEC,W
08DB8:  MULLW  08
08DBA:  MOVF   FF3,W
08DBC:  MOVLB  6
08DBE:  CLRF   x51
08DC0:  MOVWF  x50
08DC2:  MOVLW  04
08DC4:  ADDWF  x50,W
08DC6:  MOVWF  01
08DC8:  MOVLW  00
08DCA:  ADDWFC x51,W
08DCC:  MOVWF  03
08DCE:  MOVF   01,W
08DD0:  ADDLW  88
08DD2:  MOVWF  FE9
08DD4:  MOVLW  05
08DD6:  ADDWFC 03,W
08DD8:  MOVWF  FEA
08DDA:  MOVFF  C5,FEF
....................                write_eeprom(103+((CicloLibre-1)*8),mSecp); 
08DDE:  MOVLW  01
08DE0:  MOVLB  1
08DE2:  SUBWF  xEC,W
08DE4:  MULLW  08
08DE6:  MOVF   FF3,W
08DE8:  ADDLW  67
08DEA:  MOVLB  6
08DEC:  MOVWF  x50
08DEE:  CLRF   FAA
08DF0:  MOVFF  650,FA9
08DF4:  MOVFF  C6,FA8
08DF8:  BCF    FA6.6
08DFA:  BCF    FA6.7
08DFC:  BSF    FA6.2
08DFE:  MOVF   FF2,W
08E00:  MOVWF  00
08E02:  BCF    FF2.6
08E04:  BCF    FF2.7
08E06:  MOVLB  F
08E08:  MOVLW  55
08E0A:  MOVWF  FA7
08E0C:  MOVLW  AA
08E0E:  MOVWF  FA7
08E10:  BSF    FA6.1
08E12:  BTFSC  FA6.1
08E14:  BRA    8E12
08E16:  BCF    FA6.2
08E18:  MOVF   00,W
08E1A:  IORWF  FF2,F
....................                delay_ms(10); 
08E1C:  MOVLW  0A
08E1E:  MOVLB  6
08E20:  MOVWF  x62
08E22:  MOVLB  0
08E24:  CALL   2128
....................                write_eeprom(104+((CicloLibre-1)*8),sSecp); 
08E28:  MOVLW  01
08E2A:  MOVLB  1
08E2C:  SUBWF  xEC,W
08E2E:  MULLW  08
08E30:  MOVF   FF3,W
08E32:  ADDLW  68
08E34:  MOVLB  6
08E36:  MOVWF  x50
08E38:  CLRF   FAA
08E3A:  MOVFF  650,FA9
08E3E:  MOVFF  C5,FA8
08E42:  BCF    FA6.6
08E44:  BCF    FA6.7
08E46:  BSF    FA6.2
08E48:  MOVF   FF2,W
08E4A:  MOVWF  00
08E4C:  BCF    FF2.6
08E4E:  BCF    FF2.7
08E50:  MOVLB  F
08E52:  MOVLW  55
08E54:  MOVWF  FA7
08E56:  MOVLW  AA
08E58:  MOVWF  FA7
08E5A:  BSF    FA6.1
08E5C:  BTFSC  FA6.1
08E5E:  BRA    8E5C
08E60:  BCF    FA6.2
08E62:  MOVF   00,W
08E64:  IORWF  FF2,F
....................                delay_ms(10); 
08E66:  MOVLW  0A
08E68:  MOVLB  6
08E6A:  MOVWF  x62
08E6C:  MOVLB  0
08E6E:  CALL   2128
....................                mSec=mSecp; 
08E72:  MOVFF  C6,C2
....................                sSec=sSecp; 
08E76:  MOVFF  C5,C1
....................                GuardaEEPROM=ON; 
08E7A:  BSF    xA8.4
....................             } 
....................          } 
....................           
....................          if(RX_Buffer[4]==0x0c || RX_Buffer[4]==0x0d){//Tecla Derecha Oprimida 
08E7C:  MOVF   34,W
08E7E:  SUBLW  0C
08E80:  BZ    8E88
08E82:  MOVF   34,W
08E84:  SUBLW  0D
08E86:  BNZ   8E98
....................             if(Segundos){ 
08E88:  BTFSS  xA8.3
08E8A:  BRA    8E8E
....................                sSecp++; 
08E8C:  INCF   xC5,F
....................             } 
....................             if(Minutos){ 
08E8E:  BTFSS  xA8.2
08E90:  BRA    8E94
....................                mSecp++; 
08E92:  INCF   xC6,F
....................             }   
....................             RX_Buffer[4]=0x00;   
08E94:  CLRF   34
....................             RX_Buffer2[4]=0x00;  
08E96:  CLRF   3F
....................          } 
....................           
....................          if(RX_Buffer[4]==0x0f || RX_Buffer[4]==0x0e){//Tecla Izquierda Oprimida 
08E98:  MOVF   34,W
08E9A:  SUBLW  0F
08E9C:  BZ    8EA4
08E9E:  MOVF   34,W
08EA0:  SUBLW  0E
08EA2:  BNZ   8EB8
....................             if(Segundos && sSecp>0){ 
08EA4:  BTFSS  xA8.3
08EA6:  BRA    8EAE
08EA8:  MOVF   xC5,F
08EAA:  BZ    8EAE
....................                sSecp--; 
08EAC:  DECF   xC5,F
....................             } 
....................             if(Minutos){ 
08EAE:  BTFSS  xA8.2
08EB0:  BRA    8EB4
....................                mSecp--; 
08EB2:  DECF   xC6,F
....................             }  
....................             RX_Buffer[4]=0x00;   
08EB4:  CLRF   34
....................             RX_Buffer2[4]=0x00;             
08EB6:  CLRF   3F
....................          } 
....................          if(mSecp<1)mSecp=99; 
08EB8:  MOVF   xC6,F
08EBA:  BNZ   8EC0
08EBC:  MOVLW  63
08EBE:  MOVWF  xC6
....................          if(mSecp>99)mSecp=1; 
08EC0:  MOVF   xC6,W
08EC2:  SUBLW  63
08EC4:  BC    8ECA
08EC6:  MOVLW  01
08EC8:  MOVWF  xC6
....................          if(sSecp>59)mSecp=0; 
08ECA:  MOVF   xC5,W
08ECC:  SUBLW  3B
08ECE:  BTFSS  FD8.0
08ED0:  CLRF   xC6
....................              
....................       printf("tminsec.txt=\"%02u\"",mSecp); 
08ED2:  MOVLW  86
08ED4:  MOVWF  FF6
08ED6:  MOVLW  0B
08ED8:  MOVWF  FF7
08EDA:  MOVLW  00
08EDC:  MOVWF  FF8
08EDE:  MOVLW  0D
08EE0:  MOVLB  6
08EE2:  MOVWF  x55
08EE4:  MOVLB  0
08EE6:  CALL   56B2
08EEA:  MOVFF  C6,655
08EEE:  MOVLW  01
08EF0:  MOVLB  6
08EF2:  MOVWF  x56
08EF4:  MOVLB  0
08EF6:  CALL   599E
08EFA:  MOVLW  22
08EFC:  BTFSS  F9E.4
08EFE:  BRA    8EFC
08F00:  MOVWF  FAD
....................       SendDataDisplay(); 
08F02:  CALL   3F6A
....................       printf("tsecsec.txt=\"%02u\"",sSecp); 
08F06:  MOVLW  9A
08F08:  MOVWF  FF6
08F0A:  MOVLW  0B
08F0C:  MOVWF  FF7
08F0E:  MOVLW  00
08F10:  MOVWF  FF8
08F12:  MOVLW  0D
08F14:  MOVLB  6
08F16:  MOVWF  x55
08F18:  MOVLB  0
08F1A:  CALL   56B2
08F1E:  MOVFF  C5,655
08F22:  MOVLW  01
08F24:  MOVLB  6
08F26:  MOVWF  x56
08F28:  MOVLB  0
08F2A:  CALL   599E
08F2E:  MOVLW  22
08F30:  BTFSS  F9E.4
08F32:  BRA    8F30
08F34:  MOVWF  FAD
....................       SendDataDisplay(); 
08F36:  CALL   3F6A
08F3A:  MOVLB  1
....................     } 
.................... //_--------------------------------------------------------------------------------------------------------------------------------------------------------        
....................  
.................... //_-------------------------------------------------------------------------------------------------------------------------------------------------------- 
....................     if(Menu==4){ //Menu de Temperatura 
08F3C:  MOVF   xF6,W
08F3E:  SUBLW  04
08F40:  BTFSS  FD8.2
08F42:  BRA    9148
....................       printf("fecha.txt=\"T:%2.1fC Fecha:%02u/%02u/20%02u Hora:%02u:%02u:%02u\"",Temperatura,Dia,Mes,Year,Hora,Minuto,Segundo); 
08F44:  MOVLW  AE
08F46:  MOVWF  FF6
08F48:  MOVLW  0B
08F4A:  MOVWF  FF7
08F4C:  MOVLW  00
08F4E:  MOVWF  FF8
08F50:  MOVLW  0D
08F52:  MOVLB  6
08F54:  MOVWF  x55
08F56:  MOVLB  0
08F58:  CALL   56B2
08F5C:  MOVLW  01
08F5E:  MOVWF  FE9
08F60:  MOVFF  1D9,658
08F64:  MOVFF  1D8,657
08F68:  MOVFF  1D7,656
08F6C:  MOVFF  1D6,655
08F70:  MOVLB  6
08F72:  MOVWF  x59
08F74:  MOVLB  0
08F76:  CALL   57CE
08F7A:  MOVLW  C0
08F7C:  MOVWF  FF6
08F7E:  MOVLW  0B
08F80:  MOVWF  FF7
08F82:  MOVLW  00
08F84:  MOVWF  FF8
08F86:  MOVLW  09
08F88:  MOVLB  6
08F8A:  MOVWF  x55
08F8C:  MOVLB  0
08F8E:  CALL   56B2
08F92:  MOVFF  23A,655
08F96:  MOVLW  01
08F98:  MOVLB  6
08F9A:  MOVWF  x56
08F9C:  MOVLB  0
08F9E:  CALL   599E
08FA2:  MOVLW  2F
08FA4:  BTFSS  F9E.4
08FA6:  BRA    8FA4
08FA8:  MOVWF  FAD
08FAA:  MOVFF  239,655
08FAE:  MOVLW  01
08FB0:  MOVLB  6
08FB2:  MOVWF  x56
08FB4:  MOVLB  0
08FB6:  CALL   599E
08FBA:  MOVLW  2F
08FBC:  BTFSS  F9E.4
08FBE:  BRA    8FBC
08FC0:  MOVWF  FAD
08FC2:  MOVLW  32
08FC4:  BTFSS  F9E.4
08FC6:  BRA    8FC4
08FC8:  MOVWF  FAD
08FCA:  MOVLW  30
08FCC:  BTFSS  F9E.4
08FCE:  BRA    8FCC
08FD0:  MOVWF  FAD
08FD2:  MOVFF  238,655
08FD6:  MOVLW  01
08FD8:  MOVLB  6
08FDA:  MOVWF  x56
08FDC:  MOVLB  0
08FDE:  CALL   599E
08FE2:  MOVLW  D9
08FE4:  MOVWF  FF6
08FE6:  MOVLW  0B
08FE8:  MOVWF  FF7
08FEA:  MOVLW  00
08FEC:  MOVWF  FF8
08FEE:  MOVLW  06
08FF0:  MOVLB  6
08FF2:  MOVWF  x55
08FF4:  MOVLB  0
08FF6:  CALL   56B2
08FFA:  MOVFF  23B,655
08FFE:  MOVLW  01
09000:  MOVLB  6
09002:  MOVWF  x56
09004:  MOVLB  0
09006:  CALL   599E
0900A:  MOVLW  3A
0900C:  BTFSS  F9E.4
0900E:  BRA    900C
09010:  MOVWF  FAD
09012:  MOVFF  23C,655
09016:  MOVLW  01
09018:  MOVLB  6
0901A:  MOVWF  x56
0901C:  MOVLB  0
0901E:  CALL   599E
09022:  MOVLW  3A
09024:  BTFSS  F9E.4
09026:  BRA    9024
09028:  MOVWF  FAD
0902A:  MOVFF  23D,655
0902E:  MOVLW  01
09030:  MOVLB  6
09032:  MOVWF  x56
09034:  MOVLB  0
09036:  CALL   599E
0903A:  MOVLW  22
0903C:  BTFSS  F9E.4
0903E:  BRA    903C
09040:  MOVWF  FAD
....................       SendDataDisplay(); 
09042:  CALL   3F6A
....................          if(Setpoint<105) 
09046:  MOVLB  2
09048:  MOVF   x02,W
0904A:  SUBLW  68
0904C:  BNC   9052
....................             Setpoint=134; 
0904E:  MOVLW  86
09050:  MOVWF  x02
....................          if(Setpoint>134) 
09052:  MOVF   x02,W
09054:  SUBLW  86
09056:  BC    905C
....................             Setpoint=105; 
09058:  MOVLW  69
0905A:  MOVWF  x02
....................           
....................          if(RX_Buffer[4]==0x11){//Selecciono Regresar 
0905C:  MOVF   34,W
0905E:  SUBLW  11
09060:  BNZ   90FA
....................             Segundos=OFF; 
09062:  MOVLB  0
09064:  BCF    xA8.3
....................             Minutos=OFF; 
09066:  BCF    xA8.2
....................             printf("page CicloPersona"); 
09068:  MOVLW  F0
0906A:  MOVWF  FF6
0906C:  MOVLW  0B
0906E:  MOVWF  FF7
09070:  MOVLW  00
09072:  MOVWF  FF8
09074:  CALL   3F38
....................             SendDataDisplay();   
09078:  CALL   3F6A
....................             PantallaPrincipal=1; 
0907C:  MOVLW  01
0907E:  MOVLB  1
09080:  MOVWF  x96
....................             Op=OFF; 
09082:  MOVLB  0
09084:  BCF    xA8.0
....................             Op2=OFF; 
09086:  BCF    xA8.1
....................             if(!GuardaEEPROM){ 
09088:  BTFSC  xA8.4
0908A:  BRA    90F8
....................                CiclosPersonalizados[CicloLibre-1].Temperatura=Setpoint; 
0908C:  MOVLW  01
0908E:  MOVLB  1
09090:  SUBWF  xEC,W
09092:  MULLW  08
09094:  MOVF   FF3,W
09096:  MOVLB  6
09098:  CLRF   x51
0909A:  MOVWF  x50
0909C:  MOVLW  88
0909E:  ADDWF  x50,W
090A0:  MOVWF  FE9
090A2:  MOVLW  05
090A4:  ADDWFC x51,W
090A6:  MOVWF  FEA
090A8:  MOVFF  202,FEF
....................                write_eeprom(100+((CicloLibre-1)*8),Setpoint); 
090AC:  MOVLW  01
090AE:  MOVLB  1
090B0:  SUBWF  xEC,W
090B2:  MULLW  08
090B4:  MOVF   FF3,W
090B6:  ADDLW  64
090B8:  MOVLB  6
090BA:  MOVWF  x50
090BC:  CLRF   FAA
090BE:  MOVFF  650,FA9
090C2:  MOVFF  202,FA8
090C6:  BCF    FA6.6
090C8:  BCF    FA6.7
090CA:  BSF    FA6.2
090CC:  MOVF   FF2,W
090CE:  MOVWF  00
090D0:  BCF    FF2.6
090D2:  BCF    FF2.7
090D4:  MOVLB  F
090D6:  MOVLW  55
090D8:  MOVWF  FA7
090DA:  MOVLW  AA
090DC:  MOVWF  FA7
090DE:  BSF    FA6.1
090E0:  BTFSC  FA6.1
090E2:  BRA    90E0
090E4:  BCF    FA6.2
090E6:  MOVF   00,W
090E8:  IORWF  FF2,F
....................                delay_ms(10); 
090EA:  MOVLW  0A
090EC:  MOVLB  6
090EE:  MOVWF  x62
090F0:  MOVLB  0
090F2:  CALL   2128
....................                GuardaEEPROM=ON; 
090F6:  BSF    xA8.4
090F8:  MOVLB  2
....................             } 
....................          } 
....................           
....................          if(RX_Buffer[4]==0x0d){//Tecla Arriba Oprimida 
090FA:  MOVF   34,W
090FC:  SUBLW  0D
090FE:  BNZ   9106
....................             Setpoint++; 
09100:  INCF   x02,F
....................             RX_Buffer[4]=0x00;   
09102:  CLRF   34
....................             RX_Buffer2[4]=0x00;             
09104:  CLRF   3F
....................             //BorraBuffer(); 
....................          } 
....................           
....................          if(RX_Buffer[4]==0x0c){//Tecla Abajo Oprimida 
09106:  MOVF   34,W
09108:  SUBLW  0C
0910A:  BNZ   9112
....................             Setpoint--; 
0910C:  DECF   x02,F
....................             RX_Buffer[4]=0x00; 
0910E:  CLRF   34
....................             RX_Buffer2[4]=0x00;             
09110:  CLRF   3F
....................             //BorraBuffer(); 
....................          } 
....................           
....................       printf("tsettem.txt=\"%03u\"",Setpoint); 
09112:  MOVLW  02
09114:  MOVWF  FF6
09116:  MOVLW  0C
09118:  MOVWF  FF7
0911A:  MOVLW  00
0911C:  MOVWF  FF8
0911E:  MOVLW  0D
09120:  MOVLB  6
09122:  MOVWF  x55
09124:  MOVLB  0
09126:  CALL   56B2
0912A:  MOVFF  202,655
0912E:  MOVLW  03
09130:  MOVLB  6
09132:  MOVWF  x56
09134:  MOVLB  0
09136:  CALL   599E
0913A:  MOVLW  22
0913C:  BTFSS  F9E.4
0913E:  BRA    913C
09140:  MOVWF  FAD
....................       SendDataDisplay(); 
09142:  CALL   3F6A
09146:  MOVLB  1
....................     } 
.................... //_--------------------------------------------------------------------------------------------------------------------------------------------------------        
....................  
.................... //_--------------------------------------------------------------------------------------------------------------------------------------------------------       
....................     if(Menu==5){//Menu de Nivel de Vacio 
09148:  MOVF   xF6,W
0914A:  SUBLW  05
0914C:  BTFSS  FD8.2
0914E:  BRA    9370
....................       printf("fecha.txt=\"T:%2.1fC Fecha:%02u/%02u/20%02u Hora:%02u:%02u:%02u\"",Temperatura,Dia,Mes,Year,Hora,Minuto,Segundo); 
09150:  MOVLW  16
09152:  MOVWF  FF6
09154:  MOVLW  0C
09156:  MOVWF  FF7
09158:  MOVLW  00
0915A:  MOVWF  FF8
0915C:  MOVLW  0D
0915E:  MOVLB  6
09160:  MOVWF  x55
09162:  MOVLB  0
09164:  CALL   56B2
09168:  MOVLW  01
0916A:  MOVWF  FE9
0916C:  MOVFF  1D9,658
09170:  MOVFF  1D8,657
09174:  MOVFF  1D7,656
09178:  MOVFF  1D6,655
0917C:  MOVLB  6
0917E:  MOVWF  x59
09180:  MOVLB  0
09182:  CALL   57CE
09186:  MOVLW  28
09188:  MOVWF  FF6
0918A:  MOVLW  0C
0918C:  MOVWF  FF7
0918E:  MOVLW  00
09190:  MOVWF  FF8
09192:  MOVLW  09
09194:  MOVLB  6
09196:  MOVWF  x55
09198:  MOVLB  0
0919A:  CALL   56B2
0919E:  MOVFF  23A,655
091A2:  MOVLW  01
091A4:  MOVLB  6
091A6:  MOVWF  x56
091A8:  MOVLB  0
091AA:  CALL   599E
091AE:  MOVLW  2F
091B0:  BTFSS  F9E.4
091B2:  BRA    91B0
091B4:  MOVWF  FAD
091B6:  MOVFF  239,655
091BA:  MOVLW  01
091BC:  MOVLB  6
091BE:  MOVWF  x56
091C0:  MOVLB  0
091C2:  CALL   599E
091C6:  MOVLW  2F
091C8:  BTFSS  F9E.4
091CA:  BRA    91C8
091CC:  MOVWF  FAD
091CE:  MOVLW  32
091D0:  BTFSS  F9E.4
091D2:  BRA    91D0
091D4:  MOVWF  FAD
091D6:  MOVLW  30
091D8:  BTFSS  F9E.4
091DA:  BRA    91D8
091DC:  MOVWF  FAD
091DE:  MOVFF  238,655
091E2:  MOVLW  01
091E4:  MOVLB  6
091E6:  MOVWF  x56
091E8:  MOVLB  0
091EA:  CALL   599E
091EE:  MOVLW  41
091F0:  MOVWF  FF6
091F2:  MOVLW  0C
091F4:  MOVWF  FF7
091F6:  MOVLW  00
091F8:  MOVWF  FF8
091FA:  MOVLW  06
091FC:  MOVLB  6
091FE:  MOVWF  x55
09200:  MOVLB  0
09202:  CALL   56B2
09206:  MOVFF  23B,655
0920A:  MOVLW  01
0920C:  MOVLB  6
0920E:  MOVWF  x56
09210:  MOVLB  0
09212:  CALL   599E
09216:  MOVLW  3A
09218:  BTFSS  F9E.4
0921A:  BRA    9218
0921C:  MOVWF  FAD
0921E:  MOVFF  23C,655
09222:  MOVLW  01
09224:  MOVLB  6
09226:  MOVWF  x56
09228:  MOVLB  0
0922A:  CALL   599E
0922E:  MOVLW  3A
09230:  BTFSS  F9E.4
09232:  BRA    9230
09234:  MOVWF  FAD
09236:  MOVFF  23D,655
0923A:  MOVLW  01
0923C:  MOVLB  6
0923E:  MOVWF  x56
09240:  MOVLB  0
09242:  CALL   599E
09246:  MOVLW  22
09248:  BTFSS  F9E.4
0924A:  BRA    9248
0924C:  MOVWF  FAD
....................       SendDataDisplay(); 
0924E:  CALL   3F6A
....................          if(Nivel<25) 
09252:  MOVLB  2
09254:  MOVF   x10,F
09256:  BNZ   9264
09258:  MOVF   x0F,W
0925A:  SUBLW  18
0925C:  BNC   9264
....................             Nivel=100; 
0925E:  CLRF   x10
09260:  MOVLW  64
09262:  MOVWF  x0F
....................          if(Nivel>100) 
09264:  MOVF   x10,F
09266:  BNZ   926E
09268:  MOVF   x0F,W
0926A:  SUBLW  64
0926C:  BC    9274
....................             Nivel=25; 
0926E:  CLRF   x10
09270:  MOVLW  19
09272:  MOVWF  x0F
....................           
....................          if(RX_Buffer[4]==0x11){//Selecciono Regresar 
09274:  MOVF   34,W
09276:  SUBLW  11
09278:  BNZ   9318
....................             Segundos=OFF; 
0927A:  MOVLB  0
0927C:  BCF    xA8.3
....................             Minutos=OFF;             
0927E:  BCF    xA8.2
....................             tiempo_secado=0; 
09280:  MOVLB  2
09282:  CLRF   x06
....................             printf("page CicloPersona"); 
09284:  MOVLW  58
09286:  MOVWF  FF6
09288:  MOVLW  0C
0928A:  MOVWF  FF7
0928C:  MOVLW  00
0928E:  MOVWF  FF8
09290:  MOVLB  0
09292:  CALL   3F38
....................             SendDataDisplay();   
09296:  CALL   3F6A
....................             if(!GuardaEEPROM){     
0929A:  BTFSC  xA8.4
0929C:  BRA    9316
....................                CiclosPersonalizados[CicloLibre-1].NivelVacio=Nivel; 
0929E:  MOVLW  01
092A0:  MOVLB  1
092A2:  SUBWF  xEC,W
092A4:  MULLW  08
092A6:  MOVF   FF3,W
092A8:  MOVLB  6
092AA:  CLRF   x51
092AC:  MOVWF  x50
092AE:  MOVLW  06
092B0:  ADDWF  x50,W
092B2:  MOVWF  01
092B4:  MOVLW  00
092B6:  ADDWFC x51,W
092B8:  MOVWF  03
092BA:  MOVF   01,W
092BC:  ADDLW  88
092BE:  MOVWF  FE9
092C0:  MOVLW  05
092C2:  ADDWFC 03,W
092C4:  MOVWF  FEA
092C6:  MOVFF  20F,FEF
....................                write_eeprom(106+((CicloLibre-1)*8),Nivel); 
092CA:  MOVLW  01
092CC:  MOVLB  1
092CE:  SUBWF  xEC,W
092D0:  MULLW  08
092D2:  MOVF   FF3,W
092D4:  ADDLW  6A
092D6:  MOVLB  6
092D8:  MOVWF  x50
092DA:  CLRF   FAA
092DC:  MOVFF  650,FA9
092E0:  MOVFF  20F,FA8
092E4:  BCF    FA6.6
092E6:  BCF    FA6.7
092E8:  BSF    FA6.2
092EA:  MOVF   FF2,W
092EC:  MOVWF  00
092EE:  BCF    FF2.6
092F0:  BCF    FF2.7
092F2:  MOVLB  F
092F4:  MOVLW  55
092F6:  MOVWF  FA7
092F8:  MOVLW  AA
092FA:  MOVWF  FA7
092FC:  BSF    FA6.1
092FE:  BTFSC  FA6.1
09300:  BRA    92FE
09302:  BCF    FA6.2
09304:  MOVF   00,W
09306:  IORWF  FF2,F
....................                delay_ms(20);             
09308:  MOVLW  14
0930A:  MOVLB  6
0930C:  MOVWF  x62
0930E:  MOVLB  0
09310:  CALL   2128
....................                GuardaEEPROM=ON; 
09314:  BSF    xA8.4
09316:  MOVLB  2
....................             } 
....................          } 
....................           
....................          if(RX_Buffer[4]==0x0d){//Tecla Arriba Oprimida 
09318:  MOVF   34,W
0931A:  SUBLW  0D
0931C:  BNZ   9328
....................             Nivel++; 
0931E:  INCF   x0F,F
09320:  BTFSC  FD8.2
09322:  INCF   x10,F
....................             RX_Buffer[4]=0x00;             
09324:  CLRF   34
....................             RX_Buffer2[4]=0x00;             
09326:  CLRF   3F
....................             //BorraBuffer(); 
....................          } 
....................           
....................          if(RX_Buffer[4]==0x0c){//Tecla Abajo Oprimida 
09328:  MOVF   34,W
0932A:  SUBLW  0C
0932C:  BNZ   933A
....................             Nivel--; 
0932E:  MOVF   x0F,W
09330:  BTFSC  FD8.2
09332:  DECF   x10,F
09334:  DECF   x0F,F
....................             RX_Buffer[4]=0x00; 
09336:  CLRF   34
....................             RX_Buffer2[4]=0x00;             
09338:  CLRF   3F
....................             //BorraBuffer(); 
....................          } 
....................           
....................       printf("tnivel.txt=\"%Lu\"",Nivel); 
0933A:  MOVLW  6A
0933C:  MOVWF  FF6
0933E:  MOVLW  0C
09340:  MOVWF  FF7
09342:  MOVLW  00
09344:  MOVWF  FF8
09346:  MOVLW  0C
09348:  MOVLB  6
0934A:  MOVWF  x55
0934C:  MOVLB  0
0934E:  CALL   56B2
09352:  MOVLW  10
09354:  MOVWF  FE9
09356:  MOVFF  210,655
0935A:  MOVFF  20F,654
0935E:  CALL   5A96
09362:  MOVLW  22
09364:  BTFSS  F9E.4
09366:  BRA    9364
09368:  MOVWF  FAD
....................       SendDataDisplay(); 
0936A:  CALL   3F6A
0936E:  MOVLB  1
....................    } 
.................... //_--------------------------------------------------------------------------------------------------------------------------------------------------------       
....................  
.................... //_--------------------------------------------------------------------------------------------------------------------------------------------------------       
....................     if(Menu==6){ // Menu de Prueba de Componentes 
09370:  MOVF   xF6,W
09372:  SUBLW  06
09374:  BTFSS  FD8.2
09376:  GOTO   9C92
....................          PruebaEstados=ON; 
0937A:  MOVLB  0
0937C:  BSF    xA7.3
....................           
....................          if(RX_Buffer[4]==0x01){//Oprimio EV Suministro 
0937E:  DECFSZ 34,W
09380:  BRA    9388
....................             EstadoSuministro=!EstadoSuministro; 
09382:  BTG    xA7.1
....................             RX_Buffer[4]=0x00; 
09384:  CLRF   34
....................             RX_Buffer2[4]=0x00; 
09386:  CLRF   3F
....................          } 
....................           
....................          if(EstadoSuministro){ 
09388:  BTFSS  xA7.1
0938A:  BRA    93A6
....................             printf("b0.bco=2016"); 
0938C:  MOVLW  7C
0938E:  MOVWF  FF6
09390:  MOVLW  0C
09392:  MOVWF  FF7
09394:  MOVLW  00
09396:  MOVWF  FF8
09398:  CALL   3F38
....................             SendDataDisplay();  
0939C:  CALL   3F6A
....................             Suministro_on; 
093A0:  BCF    F8C.1
093A2:  BCF    F95.1
....................          }else{ 
093A4:  BRA    93BE
....................             printf("b0.bco=63488"); 
093A6:  MOVLW  88
093A8:  MOVWF  FF6
093AA:  MOVLW  0C
093AC:  MOVWF  FF7
093AE:  MOVLW  00
093B0:  MOVWF  FF8
093B2:  CALL   3F38
....................             SendDataDisplay();  
093B6:  CALL   3F6A
....................             Suministro_off; 
093BA:  BSF    F8C.1
093BC:  BCF    F95.1
....................          } 
....................           
....................          if(RX_Buffer[4]==0x02){//Oprimio EV Desfogue 
093BE:  MOVF   34,W
093C0:  SUBLW  02
093C2:  BNZ   93CA
....................             EstadoDesfogue=!EstadoDesfogue; 
093C4:  BTG    xA7.0
....................             RX_Buffer[4]=0x00; 
093C6:  CLRF   34
....................             RX_Buffer2[4]=0x00; 
093C8:  CLRF   3F
....................          } 
....................           
....................          if(EstadoDesfogue){ 
093CA:  BTFSS  xA7.0
093CC:  BRA    93E8
....................             printf("b1.bco=2016"); 
093CE:  MOVLW  96
093D0:  MOVWF  FF6
093D2:  MOVLW  0C
093D4:  MOVWF  FF7
093D6:  MOVLW  00
093D8:  MOVWF  FF8
093DA:  CALL   3F38
....................             SendDataDisplay();  
093DE:  CALL   3F6A
....................             Desfogue_on; 
093E2:  BCF    F8C.0
093E4:  BCF    F95.0
....................          }else{ 
093E6:  BRA    9400
....................             printf("b1.bco=63488"); 
093E8:  MOVLW  A2
093EA:  MOVWF  FF6
093EC:  MOVLW  0C
093EE:  MOVWF  FF7
093F0:  MOVLW  00
093F2:  MOVWF  FF8
093F4:  CALL   3F38
....................             SendDataDisplay();  
093F8:  CALL   3F6A
....................             Desfogue_off; 
093FC:  BSF    F8C.0
093FE:  BCF    F95.0
....................          } 
....................           
....................          if(RX_Buffer[4]==0x03){//Oprimio EV Paso 
09400:  MOVF   34,W
09402:  SUBLW  03
09404:  BNZ   940C
....................             EstadoPaso=!EstadoPaso; 
09406:  BTG    xA8.5
....................             RX_Buffer[4]=0x00; 
09408:  CLRF   34
....................             RX_Buffer2[4]=0x00; 
0940A:  CLRF   3F
....................          } 
....................           
....................          if(EstadoPaso){ 
0940C:  BTFSS  xA8.5
0940E:  BRA    942A
....................             printf("b2.bco=2016"); 
09410:  MOVLW  B0
09412:  MOVWF  FF6
09414:  MOVLW  0C
09416:  MOVWF  FF7
09418:  MOVLW  00
0941A:  MOVWF  FF8
0941C:  CALL   3F38
....................             SendDataDisplay();  
09420:  CALL   3F6A
....................             Paso_on; 
09424:  BCF    F8B.2
09426:  BCF    F94.2
....................          }else{ 
09428:  BRA    9442
....................             printf("b2.bco=63488"); 
0942A:  MOVLW  BC
0942C:  MOVWF  FF6
0942E:  MOVLW  0C
09430:  MOVWF  FF7
09432:  MOVLW  00
09434:  MOVWF  FF8
09436:  CALL   3F38
....................             SendDataDisplay();  
0943A:  CALL   3F6A
....................             Paso_off; 
0943E:  BSF    F8B.2
09440:  BCF    F94.2
....................          } 
....................          
....................          if(RX_Buffer[4]==0x04){//Oprimio Vacio 
09442:  MOVF   34,W
09444:  SUBLW  04
09446:  BNZ   944E
....................             EstadoVacio=!EstadoVacio; 
09448:  BTG    xA8.6
....................             RX_Buffer[4]=0x00; 
0944A:  CLRF   34
....................             RX_Buffer2[4]=0x00; 
0944C:  CLRF   3F
....................          } 
....................           
....................          if(EstadoVacio){ 
0944E:  BTFSS  xA8.6
09450:  BRA    946C
....................             printf("b3.bco=2016"); 
09452:  MOVLW  CA
09454:  MOVWF  FF6
09456:  MOVLW  0C
09458:  MOVWF  FF7
0945A:  MOVLW  00
0945C:  MOVWF  FF8
0945E:  CALL   3F38
....................             SendDataDisplay();  
09462:  CALL   3F6A
....................             Vacio_on; 
09466:  BCF    F8B.1
09468:  BCF    F94.1
....................          }else{ 
0946A:  BRA    9484
....................             printf("b3.bco=63488"); 
0946C:  MOVLW  D6
0946E:  MOVWF  FF6
09470:  MOVLW  0C
09472:  MOVWF  FF7
09474:  MOVLW  00
09476:  MOVWF  FF8
09478:  CALL   3F38
....................             SendDataDisplay();  
0947C:  CALL   3F6A
....................             Vacio_off; 
09480:  BSF    F8B.1
09482:  BCF    F94.1
....................          } 
....................           
....................          if(RX_Buffer[4]==0x05){//Oprimio Aire 
09484:  MOVF   34,W
09486:  SUBLW  05
09488:  BNZ   9490
....................             EstadoAire=!EstadoAire; 
0948A:  BTG    xA7.2
....................             RX_Buffer[4]=0x00; 
0948C:  CLRF   34
....................             RX_Buffer2[4]=0x00; 
0948E:  CLRF   3F
....................          } 
....................           
....................          if(EstadoAire){ 
09490:  BTFSS  xA7.2
09492:  BRA    94AE
....................             printf("b4.bco=2016"); 
09494:  MOVLW  E4
09496:  MOVWF  FF6
09498:  MOVLW  0C
0949A:  MOVWF  FF7
0949C:  MOVLW  00
0949E:  MOVWF  FF8
094A0:  CALL   3F38
....................             SendDataDisplay();  
094A4:  CALL   3F6A
....................             Aire_on; 
094A8:  BCF    F8B.0
094AA:  BCF    F94.0
....................          }else{ 
094AC:  BRA    94C6
....................             printf("b4.bco=63488"); 
094AE:  MOVLW  F0
094B0:  MOVWF  FF6
094B2:  MOVLW  0C
094B4:  MOVWF  FF7
094B6:  MOVLW  00
094B8:  MOVWF  FF8
094BA:  CALL   3F38
....................             SendDataDisplay();  
094BE:  CALL   3F6A
....................             Aire_off; 
094C2:  BSF    F8B.0
094C4:  BCF    F94.0
....................          } 
....................           
....................          if(RX_Buffer[4]==0x06){//Oprimio Bomba Vacio 
094C6:  MOVF   34,W
094C8:  SUBLW  06
094CA:  BNZ   94D2
....................             EstadoBomba=!EstadoBomba; 
094CC:  BTG    xA9.6
....................             RX_Buffer[4]=0x00; 
094CE:  CLRF   34
....................             RX_Buffer2[4]=0x00; 
094D0:  CLRF   3F
....................          } 
....................           
....................          if(EstadoBomba){ 
094D2:  BTFSS  xA9.6
094D4:  BRA    94FA
....................             printf("b5.bco=2016"); 
094D6:  MOVLW  FE
094D8:  MOVWF  FF6
094DA:  MOVLW  0C
094DC:  MOVWF  FF7
094DE:  MOVLW  00
094E0:  MOVWF  FF8
094E2:  CALL   3F38
....................             SendDataDisplay();  
094E6:  CALL   3F6A
....................             if(ReservorioLleno) 
094EA:  BTFSS  xAC.4
094EC:  BRA    94F4
....................                BombaVacio_on; 
094EE:  BCF    F8C.2
094F0:  BCF    F95.2
....................             else 
094F2:  BRA    94F8
....................                BombaVacio_off; 
094F4:  BSF    F8C.2
094F6:  BCF    F95.2
....................          }else{ 
094F8:  BRA    9512
....................             printf("b5.bco=63488"); 
094FA:  MOVLW  0A
094FC:  MOVWF  FF6
094FE:  MOVLW  0D
09500:  MOVWF  FF7
09502:  MOVLW  00
09504:  MOVWF  FF8
09506:  CALL   3F38
....................             SendDataDisplay();  
0950A:  CALL   3F6A
....................             BombaVacio_off; 
0950E:  BSF    F8C.2
09510:  BCF    F95.2
....................          } 
....................           
....................          if(RX_Buffer[4]==0x07){//Oprimio EV Agua 
09512:  MOVF   34,W
09514:  SUBLW  07
09516:  BNZ   951E
....................             EstadoAireBomba=!EstadoAireBomba; 
09518:  BTG    xAB.1
....................             RX_Buffer[4]=0x00; 
0951A:  CLRF   34
....................             RX_Buffer2[4]=0x00; 
0951C:  CLRF   3F
....................          } 
....................           
....................          if(EstadoAireBomba){ 
0951E:  BTFSS  xAB.1
09520:  BRA    953C
....................             printf("b6.bco=2016"); 
09522:  MOVLW  18
09524:  MOVWF  FF6
09526:  MOVLW  0D
09528:  MOVWF  FF7
0952A:  MOVLW  00
0952C:  MOVWF  FF8
0952E:  CALL   3F38
....................             SendDataDisplay();  
09532:  CALL   3F6A
....................             Agua_on; 
09536:  BCF    F8C.3
09538:  BCF    F95.3
....................          }else{ 
0953A:  BRA    9554
....................             printf("b6.bco=63488"); 
0953C:  MOVLW  24
0953E:  MOVWF  FF6
09540:  MOVLW  0D
09542:  MOVWF  FF7
09544:  MOVLW  00
09546:  MOVWF  FF8
09548:  CALL   3F38
....................             SendDataDisplay();  
0954C:  CALL   3F6A
....................             Agua_off; 
09550:  BSF    F8C.3
09552:  BCF    F95.3
....................          } 
....................           
....................          if(RX_Buffer[4]==0x08){//Oprimio EV Agua2 
09554:  MOVF   34,W
09556:  SUBLW  08
09558:  BNZ   9560
....................             EstadoAgua2=!EstadoAgua2; 
0955A:  BTG    xA7.6
....................             RX_Buffer[4]=0x00; 
0955C:  CLRF   34
....................             RX_Buffer2[4]=0x00; 
0955E:  CLRF   3F
....................          } 
....................           
....................          if(EstadoAgua2){ 
09560:  BTFSS  xA7.6
09562:  BRA    957E
....................             printf("b7.bco=2016"); 
09564:  MOVLW  32
09566:  MOVWF  FF6
09568:  MOVLW  0D
0956A:  MOVWF  FF7
0956C:  MOVLW  00
0956E:  MOVWF  FF8
09570:  CALL   3F38
....................             SendDataDisplay();  
09574:  CALL   3F6A
....................             Agua2_on; 
09578:  BCF    F8B.5
0957A:  BCF    F94.5
....................          }else{ 
0957C:  BRA    9596
....................             printf("b7.bco=63488"); 
0957E:  MOVLW  3E
09580:  MOVWF  FF6
09582:  MOVLW  0D
09584:  MOVWF  FF7
09586:  MOVLW  00
09588:  MOVWF  FF8
0958A:  CALL   3F38
....................             SendDataDisplay();  
0958E:  CALL   3F6A
....................             Agua2_off; 
09592:  BSF    F8B.5
09594:  BCF    F94.5
....................          } 
....................           
....................          if(RX_Buffer[4]==0x09){//Oprimio Abrir Cierre 
09596:  MOVF   34,W
09598:  SUBLW  09
0959A:  BNZ   95A2
....................             EstadoACierre=!EstadoACierre; 
0959C:  BTG    xA9.5
....................             RX_Buffer[4]=0x00; 
0959E:  CLRF   34
....................             RX_Buffer2[4]=0x00; 
095A0:  CLRF   3F
....................          } 
....................           
....................          if(EstadoACierre){ 
095A2:  BTFSS  xA9.5
095A4:  BRA    95C4
....................             printf("b12.bco=2016"); 
095A6:  MOVLW  4C
095A8:  MOVWF  FF6
095AA:  MOVLW  0D
095AC:  MOVWF  FF7
095AE:  MOVLW  00
095B0:  MOVWF  FF8
095B2:  CALL   3F38
....................             SendDataDisplay();  
095B6:  CALL   3F6A
....................             Cilindro1_off; 
095BA:  BCF    F8C.7
095BC:  BCF    F95.7
....................             Cilindro2_off; 
095BE:  BCF    F8C.6
095C0:  BCF    F95.6
....................          }else{ 
095C2:  BRA    95E0
....................             printf("b12.bco=63488"); 
095C4:  MOVLW  5A
095C6:  MOVWF  FF6
095C8:  MOVLW  0D
095CA:  MOVWF  FF7
095CC:  MOVLW  00
095CE:  MOVWF  FF8
095D0:  CALL   3F38
....................             SendDataDisplay();  
095D4:  CALL   3F6A
....................             Cilindro1_on; 
095D8:  BSF    F8C.7
095DA:  BCF    F95.7
....................             Cilindro2_on; 
095DC:  BSF    F8C.6
095DE:  BCF    F95.6
....................          } 
....................           
....................          if(RX_Buffer[4]==0x0a){//Oprimio Empaque 
095E0:  MOVF   34,W
095E2:  SUBLW  0A
095E4:  BNZ   95EC
....................             EstadoEmpaque=!EstadoEmpaque; 
095E6:  BTG    xAC.1
....................             RX_Buffer[4]=0x00; 
095E8:  CLRF   34
....................             RX_Buffer2[4]=0x00; 
095EA:  CLRF   3F
....................          } 
....................           
....................          if(EstadoEmpaque){ 
095EC:  BTFSS  xAC.1
095EE:  BRA    960A
....................             printf("b16.bco=2016"); 
095F0:  MOVLW  68
095F2:  MOVWF  FF6
095F4:  MOVLW  0D
095F6:  MOVWF  FF7
095F8:  MOVLW  00
095FA:  MOVWF  FF8
095FC:  CALL   3F38
....................             SendDataDisplay();  
09600:  CALL   3F6A
....................             Empaque_on;             
09604:  BSF    F8C.5
09606:  BCF    F95.5
....................          }else{ 
09608:  BRA    9622
....................             printf("b16.bco=63488"); 
0960A:  MOVLW  76
0960C:  MOVWF  FF6
0960E:  MOVLW  0D
09610:  MOVWF  FF7
09612:  MOVLW  00
09614:  MOVWF  FF8
09616:  CALL   3F38
....................             SendDataDisplay();  
0961A:  CALL   3F6A
....................             Empaque_off; 
0961E:  BCF    F8C.5
09620:  BCF    F95.5
....................          } 
....................           
....................          if(RX_Buffer[4]==0x0b){//Oprimio SSR1 
09622:  MOVF   34,W
09624:  SUBLW  0B
09626:  BNZ   962E
....................             EstadoSSR1=!EstadoSSR1; 
09628:  BTG    xAC.2
....................             RX_Buffer[4]=0x00; 
0962A:  CLRF   34
....................             RX_Buffer2[4]=0x00; 
0962C:  CLRF   3F
....................          } 
....................           
....................          if(EstadoSSR1){ 
0962E:  BTFSS  xAC.2
09630:  BRA    964C
....................             printf("b17.bco=2016"); 
09632:  MOVLW  84
09634:  MOVWF  FF6
09636:  MOVLW  0D
09638:  MOVWF  FF7
0963A:  MOVLW  00
0963C:  MOVWF  FF8
0963E:  CALL   3F38
....................             SendDataDisplay();  
09642:  CALL   3F6A
....................             SSR_on;             
09646:  BSF    F8D.1
09648:  BCF    F96.1
....................          }else{ 
0964A:  BRA    9664
....................             printf("b17.bco=63488"); 
0964C:  MOVLW  92
0964E:  MOVWF  FF6
09650:  MOVLW  0D
09652:  MOVWF  FF7
09654:  MOVLW  00
09656:  MOVWF  FF8
09658:  CALL   3F38
....................             SendDataDisplay();  
0965C:  CALL   3F6A
....................             SSR_off; 
09660:  BCF    F8D.1
09662:  BCF    F96.1
....................          } 
....................           
....................          if(RX_Buffer[4]==0x0c){//Oprimio SSR2 
09664:  MOVF   34,W
09666:  SUBLW  0C
09668:  BNZ   9670
....................             EstadoSSR2=!EstadoSSR2; 
0966A:  BTG    xAC.3
....................             RX_Buffer[4]=0x00; 
0966C:  CLRF   34
....................             RX_Buffer2[4]=0x00; 
0966E:  CLRF   3F
....................          } 
....................           
....................          if(EstadoSSR2){ 
09670:  BTFSS  xAC.3
09672:  BRA    968E
....................             printf("b25.bco=2016"); 
09674:  MOVLW  A0
09676:  MOVWF  FF6
09678:  MOVLW  0D
0967A:  MOVWF  FF7
0967C:  MOVLW  00
0967E:  MOVWF  FF8
09680:  CALL   3F38
....................             SendDataDisplay();  
09684:  CALL   3F6A
....................             SSR2_on;             
09688:  BSF    F8D.2
0968A:  BCF    F96.2
....................          }else{ 
0968C:  BRA    96A6
....................             printf("b25.bco=63488"); 
0968E:  MOVLW  AE
09690:  MOVWF  FF6
09692:  MOVLW  0D
09694:  MOVWF  FF7
09696:  MOVLW  00
09698:  MOVWF  FF8
0969A:  CALL   3F38
....................             SendDataDisplay();  
0969E:  CALL   3F6A
....................             SSR2_off; 
096A2:  BCF    F8D.2
096A4:  BCF    F96.2
....................          } 
....................           
....................          if(RX_Buffer[4]==0x0d){//Oprimio Aux 
096A6:  MOVF   34,W
096A8:  SUBLW  0D
096AA:  BNZ   96B2
....................             EstadoAux=!EstadoAux; 
096AC:  BTG    xA7.7
....................             RX_Buffer[4]=0x00; 
096AE:  CLRF   34
....................             RX_Buffer2[4]=0x00; 
096B0:  CLRF   3F
....................          } 
....................           
....................          if(EstadoAux){ 
096B2:  BTFSS  xA7.7
096B4:  BRA    96D0
....................             printf("b26.bco=2016"); 
096B6:  MOVLW  BC
096B8:  MOVWF  FF6
096BA:  MOVLW  0D
096BC:  MOVWF  FF7
096BE:  MOVLW  00
096C0:  MOVWF  FF8
096C2:  CALL   3F38
....................             SendDataDisplay();  
096C6:  CALL   3F6A
....................             Aux_on;             
096CA:  BSF    F8C.4
096CC:  BCF    F95.4
....................          }else{ 
096CE:  BRA    96E8
....................             printf("b26.bco=63488"); 
096D0:  MOVLW  CA
096D2:  MOVWF  FF6
096D4:  MOVLW  0D
096D6:  MOVWF  FF7
096D8:  MOVLW  00
096DA:  MOVWF  FF8
096DC:  CALL   3F38
....................             SendDataDisplay();  
096E0:  CALL   3F6A
....................             Aux_off; 
096E4:  BCF    F8C.4
096E6:  BCF    F95.4
....................          } 
....................           
....................          if(DOOR){ 
096E8:  BSF    F93.3
096EA:  BTFSC  F81.3
096EC:  BRA    9704
....................             printf("b8.bco=2016"); 
096EE:  MOVLW  D8
096F0:  MOVWF  FF6
096F2:  MOVLW  0D
096F4:  MOVWF  FF7
096F6:  MOVLW  00
096F8:  MOVWF  FF8
096FA:  CALL   3F38
....................             SendDataDisplay();  
096FE:  CALL   3F6A
....................          }else{ 
09702:  BRA    9718
....................             printf("b8.bco=63488"); 
09704:  MOVLW  E4
09706:  MOVWF  FF6
09708:  MOVLW  0D
0970A:  MOVWF  FF7
0970C:  MOVLW  00
0970E:  MOVWF  FF8
09710:  CALL   3F38
....................             SendDataDisplay();  
09714:  CALL   3F6A
....................          } 
....................           
....................          if(TERM){ 
09718:  BSF    F93.5
0971A:  BTFSC  F81.5
0971C:  BRA    9734
....................             printf("b9.bco=2016"); 
0971E:  MOVLW  F2
09720:  MOVWF  FF6
09722:  MOVLW  0D
09724:  MOVWF  FF7
09726:  MOVLW  00
09728:  MOVWF  FF8
0972A:  CALL   3F38
....................             SendDataDisplay();  
0972E:  CALL   3F6A
....................          }else{ 
09732:  BRA    9748
....................             printf("b9.bco=63488"); 
09734:  MOVLW  FE
09736:  MOVWF  FF6
09738:  MOVLW  0D
0973A:  MOVWF  FF7
0973C:  MOVLW  00
0973E:  MOVWF  FF8
09740:  CALL   3F38
....................             SendDataDisplay();  
09744:  CALL   3F6A
....................          } 
....................           
....................          if(STOP){ 
09748:  BSF    F93.4
0974A:  BTFSC  F81.4
0974C:  BRA    9764
....................             printf("b10.bco=2016"); 
0974E:  MOVLW  0C
09750:  MOVWF  FF6
09752:  MOVLW  0E
09754:  MOVWF  FF7
09756:  MOVLW  00
09758:  MOVWF  FF8
0975A:  CALL   3F38
....................             SendDataDisplay();  
0975E:  CALL   3F6A
....................          }else{ 
09762:  BRA    9778
....................             printf("b10.bco=63488"); 
09764:  MOVLW  1A
09766:  MOVWF  FF6
09768:  MOVLW  0E
0976A:  MOVWF  FF7
0976C:  MOVLW  00
0976E:  MOVWF  FF8
09770:  CALL   3F38
....................             SendDataDisplay();  
09774:  CALL   3F6A
....................          } 
....................           
....................          if(PRES){ 
09778:  BSF    F93.6
0977A:  BTFSS  F81.6
0977C:  BRA    9794
....................             printf("b11.bco=2016"); 
0977E:  MOVLW  28
09780:  MOVWF  FF6
09782:  MOVLW  0E
09784:  MOVWF  FF7
09786:  MOVLW  00
09788:  MOVWF  FF8
0978A:  CALL   3F38
....................             SendDataDisplay();  
0978E:  CALL   3F6A
....................          }else{ 
09792:  BRA    97A8
....................             printf("b11.bco=63488"); 
09794:  MOVLW  36
09796:  MOVWF  FF6
09798:  MOVLW  0E
0979A:  MOVWF  FF7
0979C:  MOVLW  00
0979E:  MOVWF  FF8
097A0:  CALL   3F38
....................             SendDataDisplay();  
097A4:  CALL   3F6A
....................          } 
....................           
....................          if(LOW){ 
097A8:  BSF    F93.0
097AA:  BTFSC  F81.0
097AC:  BRA    97C4
....................             printf("b21.bco=2016"); 
097AE:  MOVLW  44
097B0:  MOVWF  FF6
097B2:  MOVLW  0E
097B4:  MOVWF  FF7
097B6:  MOVLW  00
097B8:  MOVWF  FF8
097BA:  CALL   3F38
....................             SendDataDisplay();  
097BE:  CALL   3F6A
....................          }else{ 
097C2:  BRA    97D8
....................             printf("b21.bco=63488"); 
097C4:  MOVLW  52
097C6:  MOVWF  FF6
097C8:  MOVLW  0E
097CA:  MOVWF  FF7
097CC:  MOVLW  00
097CE:  MOVWF  FF8
097D0:  CALL   3F38
....................             SendDataDisplay();  
097D4:  CALL   3F6A
....................          } 
....................           
....................          if(HIG){ 
097D8:  BSF    F93.1
097DA:  BTFSC  F81.1
097DC:  BRA    97F4
....................             printf("b22.bco=2016"); 
097DE:  MOVLW  60
097E0:  MOVWF  FF6
097E2:  MOVLW  0E
097E4:  MOVWF  FF7
097E6:  MOVLW  00
097E8:  MOVWF  FF8
097EA:  CALL   3F38
....................             SendDataDisplay();  
097EE:  CALL   3F6A
....................          }else{ 
097F2:  BRA    9808
....................             printf("b22.bco=63488"); 
097F4:  MOVLW  6E
097F6:  MOVWF  FF6
097F8:  MOVLW  0E
097FA:  MOVWF  FF7
097FC:  MOVLW  00
097FE:  MOVWF  FF8
09800:  CALL   3F38
....................             SendDataDisplay();  
09804:  CALL   3F6A
....................          } 
....................           
....................          if(LOWB){ 
09808:  BSF    F93.2
0980A:  BTFSC  F81.2
0980C:  BRA    9824
....................             printf("b23.bco=2016"); 
0980E:  MOVLW  7C
09810:  MOVWF  FF6
09812:  MOVLW  0E
09814:  MOVWF  FF7
09816:  MOVLW  00
09818:  MOVWF  FF8
0981A:  CALL   3F38
....................             SendDataDisplay();  
0981E:  CALL   3F6A
....................          }else{ 
09822:  BRA    9838
....................             printf("b23.bco=63488"); 
09824:  MOVLW  8A
09826:  MOVWF  FF6
09828:  MOVLW  0E
0982A:  MOVWF  FF7
0982C:  MOVLW  00
0982E:  MOVWF  FF8
09830:  CALL   3F38
....................             SendDataDisplay();  
09834:  CALL   3F6A
....................          } 
....................           
....................          if(BLOQUEO){ 
09838:  BSF    F93.7
0983A:  BTFSC  F81.7
0983C:  BRA    9854
....................             printf("b24.bco=2016"); 
0983E:  MOVLW  98
09840:  MOVWF  FF6
09842:  MOVLW  0E
09844:  MOVWF  FF7
09846:  MOVLW  00
09848:  MOVWF  FF8
0984A:  CALL   3F38
....................             SendDataDisplay();  
0984E:  CALL   3F6A
....................          }else{ 
09852:  BRA    9868
....................             printf("b24.bco=63488"); 
09854:  MOVLW  A6
09856:  MOVWF  FF6
09858:  MOVLW  0E
0985A:  MOVWF  FF7
0985C:  MOVLW  00
0985E:  MOVWF  FF8
09860:  CALL   3F38
....................             SendDataDisplay();  
09864:  CALL   3F6A
....................          } 
....................           
....................          if(RX_Buffer[4]==0x14)//Oprimio Zero ADC3 
09868:  MOVF   34,W
0986A:  SUBLW  14
0986C:  BNZ   9952
....................          { 
....................             G1=41-sensores(2); 
0986E:  MOVLW  02
09870:  MOVLB  6
09872:  MOVWF  x56
09874:  MOVLB  0
09876:  CALL   3FC4
0987A:  MOVFF  FEA,651
0987E:  MOVFF  FE9,650
09882:  BSF    FD8.1
09884:  MOVLB  6
09886:  CLRF   x65
09888:  CLRF   x64
0988A:  MOVLW  24
0988C:  MOVWF  x63
0988E:  MOVLW  84
09890:  MOVWF  x62
09892:  MOVFF  03,669
09896:  MOVFF  02,668
0989A:  MOVFF  01,667
0989E:  MOVFF  00,666
098A2:  MOVLB  0
098A4:  CALL   250C
098A8:  MOVFF  651,FEA
098AC:  MOVFF  650,FE9
098B0:  MOVFF  03,665
098B4:  MOVFF  02,664
098B8:  MOVFF  01,663
098BC:  MOVFF  00,662
098C0:  CALL   4BF0
098C4:  MOVFF  01,252
....................             if(G1<0) 
098C8:  MOVLB  2
098CA:  BTFSC  x52.7
098CC:  BRA    98D0
098CE:  BRA    98D6
....................                sg1=10; 
098D0:  MOVLW  0A
098D2:  MOVWF  x54
....................             else 
098D4:  BRA    98DA
....................                sg1=5; 
098D6:  MOVLW  05
098D8:  MOVWF  x54
....................                    
....................             write_eeprom(42,(int8)G1); 
098DA:  CLRF   FAA
098DC:  MOVLW  2A
098DE:  MOVWF  FA9
098E0:  MOVFF  252,FA8
098E4:  BCF    FA6.6
098E6:  BCF    FA6.7
098E8:  BSF    FA6.2
098EA:  MOVF   FF2,W
098EC:  MOVWF  00
098EE:  BCF    FF2.6
098F0:  BCF    FF2.7
098F2:  MOVLB  F
098F4:  MOVLW  55
098F6:  MOVWF  FA7
098F8:  MOVLW  AA
098FA:  MOVWF  FA7
098FC:  BSF    FA6.1
098FE:  BTFSC  FA6.1
09900:  BRA    98FE
09902:  BCF    FA6.2
09904:  MOVF   00,W
09906:  IORWF  FF2,F
....................             delay_ms(10); 
09908:  MOVLW  0A
0990A:  MOVLB  6
0990C:  MOVWF  x62
0990E:  MOVLB  0
09910:  CALL   2128
....................             write_eeprom(44,(int8)sg1); 
09914:  CLRF   FAA
09916:  MOVLW  2C
09918:  MOVWF  FA9
0991A:  MOVFF  254,FA8
0991E:  BCF    FA6.6
09920:  BCF    FA6.7
09922:  BSF    FA6.2
09924:  MOVF   FF2,W
09926:  MOVWF  00
09928:  BCF    FF2.6
0992A:  BCF    FF2.7
0992C:  MOVLB  F
0992E:  MOVLW  55
09930:  MOVWF  FA7
09932:  MOVLW  AA
09934:  MOVWF  FA7
09936:  BSF    FA6.1
09938:  BTFSC  FA6.1
0993A:  BRA    9938
0993C:  BCF    FA6.2
0993E:  MOVF   00,W
09940:  IORWF  FF2,F
....................             delay_ms(10); 
09942:  MOVLW  0A
09944:  MOVLB  6
09946:  MOVWF  x62
09948:  MOVLB  0
0994A:  CALL   2128
....................             /*Buzzer_on; 
....................             delay_ms(1000); 
....................             Buzzer_off; 
....................             delay_ms(1000); 
....................             Buzzer_on; 
....................             delay_ms(1000); 
....................             Buzzer_off;*/ 
....................             RX_Buffer[4]=0x00; 
0994E:  CLRF   34
....................             RX_Buffer2[4]=0x00; 
09950:  CLRF   3F
....................          } 
....................           
....................          if(RX_Buffer[4]==0x14)//Oprimio Zero ADC3 
09952:  MOVF   34,W
09954:  SUBLW  14
09956:  BNZ   9A3C
....................          { 
....................             G2=41-sensores(3); 
09958:  MOVLW  03
0995A:  MOVLB  6
0995C:  MOVWF  x56
0995E:  MOVLB  0
09960:  CALL   3FC4
09964:  MOVFF  FEA,651
09968:  MOVFF  FE9,650
0996C:  BSF    FD8.1
0996E:  MOVLB  6
09970:  CLRF   x65
09972:  CLRF   x64
09974:  MOVLW  24
09976:  MOVWF  x63
09978:  MOVLW  84
0997A:  MOVWF  x62
0997C:  MOVFF  03,669
09980:  MOVFF  02,668
09984:  MOVFF  01,667
09988:  MOVFF  00,666
0998C:  MOVLB  0
0998E:  CALL   250C
09992:  MOVFF  651,FEA
09996:  MOVFF  650,FE9
0999A:  MOVFF  03,665
0999E:  MOVFF  02,664
099A2:  MOVFF  01,663
099A6:  MOVFF  00,662
099AA:  CALL   4BF0
099AE:  MOVFF  01,253
....................             if(G2<0) 
099B2:  MOVLB  2
099B4:  BTFSC  x53.7
099B6:  BRA    99BA
099B8:  BRA    99C0
....................                sg2=10; 
099BA:  MOVLW  0A
099BC:  MOVWF  x55
....................             else 
099BE:  BRA    99C4
....................                sg2=5; 
099C0:  MOVLW  05
099C2:  MOVWF  x55
....................                    
....................             write_eeprom(43,(int8)G2); 
099C4:  CLRF   FAA
099C6:  MOVLW  2B
099C8:  MOVWF  FA9
099CA:  MOVFF  253,FA8
099CE:  BCF    FA6.6
099D0:  BCF    FA6.7
099D2:  BSF    FA6.2
099D4:  MOVF   FF2,W
099D6:  MOVWF  00
099D8:  BCF    FF2.6
099DA:  BCF    FF2.7
099DC:  MOVLB  F
099DE:  MOVLW  55
099E0:  MOVWF  FA7
099E2:  MOVLW  AA
099E4:  MOVWF  FA7
099E6:  BSF    FA6.1
099E8:  BTFSC  FA6.1
099EA:  BRA    99E8
099EC:  BCF    FA6.2
099EE:  MOVF   00,W
099F0:  IORWF  FF2,F
....................             delay_ms(10); 
099F2:  MOVLW  0A
099F4:  MOVLB  6
099F6:  MOVWF  x62
099F8:  MOVLB  0
099FA:  CALL   2128
....................             write_eeprom(45,(int8)sg2); 
099FE:  CLRF   FAA
09A00:  MOVLW  2D
09A02:  MOVWF  FA9
09A04:  MOVFF  255,FA8
09A08:  BCF    FA6.6
09A0A:  BCF    FA6.7
09A0C:  BSF    FA6.2
09A0E:  MOVF   FF2,W
09A10:  MOVWF  00
09A12:  BCF    FF2.6
09A14:  BCF    FF2.7
09A16:  MOVLB  F
09A18:  MOVLW  55
09A1A:  MOVWF  FA7
09A1C:  MOVLW  AA
09A1E:  MOVWF  FA7
09A20:  BSF    FA6.1
09A22:  BTFSC  FA6.1
09A24:  BRA    9A22
09A26:  BCF    FA6.2
09A28:  MOVF   00,W
09A2A:  IORWF  FF2,F
....................             delay_ms(10); 
09A2C:  MOVLW  0A
09A2E:  MOVLB  6
09A30:  MOVWF  x62
09A32:  MOVLB  0
09A34:  CALL   2128
....................             /*Buzzer_on; 
....................             delay_ms(1000); 
....................             Buzzer_off; 
....................             delay_ms(1000); 
....................             Buzzer_on; 
....................             delay_ms(1000); 
....................             Buzzer_off;*/ 
....................             RX_Buffer[4]=0x00; 
09A38:  CLRF   34
....................             RX_Buffer2[4]=0x00; 
09A3A:  CLRF   3F
....................          } 
....................                    
....................          printf("b13.txt=\"ADC0:%3.0f\"",sensores(0));          
09A3C:  MOVLB  6
09A3E:  CLRF   x56
09A40:  MOVLB  0
09A42:  CALL   3FC4
09A46:  MOVFF  00,650
09A4A:  MOVFF  01,651
09A4E:  MOVFF  02,652
09A52:  MOVFF  03,653
09A56:  MOVLW  B4
09A58:  MOVWF  FF6
09A5A:  MOVLW  0E
09A5C:  MOVWF  FF7
09A5E:  MOVLW  00
09A60:  MOVWF  FF8
09A62:  MOVLW  0E
09A64:  MOVLB  6
09A66:  MOVWF  x55
09A68:  MOVLB  0
09A6A:  CALL   56B2
09A6E:  MOVLW  02
09A70:  MOVWF  FE9
09A72:  MOVFF  653,658
09A76:  MOVFF  652,657
09A7A:  MOVFF  651,656
09A7E:  MOVFF  650,655
09A82:  MOVLB  6
09A84:  CLRF   x59
09A86:  MOVLB  0
09A88:  CALL   57CE
09A8C:  MOVLW  22
09A8E:  BTFSS  F9E.4
09A90:  BRA    9A8E
09A92:  MOVWF  FAD
....................          SendDataDisplay(); 
09A94:  CALL   3F6A
....................          printf("b14.txt=\"ADC1:%3.0f\"",sensores(1));          
09A98:  MOVLW  01
09A9A:  MOVLB  6
09A9C:  MOVWF  x56
09A9E:  MOVLB  0
09AA0:  CALL   3FC4
09AA4:  MOVFF  00,650
09AA8:  MOVFF  01,651
09AAC:  MOVFF  02,652
09AB0:  MOVFF  03,653
09AB4:  MOVLW  CA
09AB6:  MOVWF  FF6
09AB8:  MOVLW  0E
09ABA:  MOVWF  FF7
09ABC:  MOVLW  00
09ABE:  MOVWF  FF8
09AC0:  MOVLW  0E
09AC2:  MOVLB  6
09AC4:  MOVWF  x55
09AC6:  MOVLB  0
09AC8:  CALL   56B2
09ACC:  MOVLW  02
09ACE:  MOVWF  FE9
09AD0:  MOVFF  653,658
09AD4:  MOVFF  652,657
09AD8:  MOVFF  651,656
09ADC:  MOVFF  650,655
09AE0:  MOVLB  6
09AE2:  CLRF   x59
09AE4:  MOVLB  0
09AE6:  CALL   57CE
09AEA:  MOVLW  22
09AEC:  BTFSS  F9E.4
09AEE:  BRA    9AEC
09AF0:  MOVWF  FAD
....................          SendDataDisplay(); 
09AF2:  CALL   3F6A
....................          printf("b15.txt=\"A4:%3.0f %03Lu\"",sensores(4),PresionPreCamara); 
09AF6:  MOVLW  04
09AF8:  MOVLB  6
09AFA:  MOVWF  x56
09AFC:  MOVLB  0
09AFE:  CALL   3FC4
09B02:  MOVFF  00,650
09B06:  MOVFF  01,651
09B0A:  MOVFF  02,652
09B0E:  MOVFF  03,653
09B12:  MOVLW  E0
09B14:  MOVWF  FF6
09B16:  MOVLW  0E
09B18:  MOVWF  FF7
09B1A:  MOVLW  00
09B1C:  MOVWF  FF8
09B1E:  MOVLW  0C
09B20:  MOVLB  6
09B22:  MOVWF  x55
09B24:  MOVLB  0
09B26:  CALL   56B2
09B2A:  MOVLW  02
09B2C:  MOVWF  FE9
09B2E:  MOVFF  653,658
09B32:  MOVFF  652,657
09B36:  MOVFF  651,656
09B3A:  MOVFF  650,655
09B3E:  MOVLB  6
09B40:  CLRF   x59
09B42:  MOVLB  0
09B44:  CALL   57CE
09B48:  MOVLW  20
09B4A:  BTFSS  F9E.4
09B4C:  BRA    9B4A
09B4E:  MOVWF  FAD
09B50:  MOVLW  0A
09B52:  MOVWF  FE9
09B54:  MOVFF  216,655
09B58:  MOVFF  215,654
09B5C:  CALL   5A96
09B60:  MOVLW  22
09B62:  BTFSS  F9E.4
09B64:  BRA    9B62
09B66:  MOVWF  FAD
....................          SendDataDisplay(); 
09B68:  CALL   3F6A
....................          printf("b18.txt=\"A5:%3.0f %03Lu\"",sensores(5),PresionCamara); 
09B6C:  MOVLW  05
09B6E:  MOVLB  6
09B70:  MOVWF  x56
09B72:  MOVLB  0
09B74:  CALL   3FC4
09B78:  MOVFF  00,650
09B7C:  MOVFF  01,651
09B80:  MOVFF  02,652
09B84:  MOVFF  03,653
09B88:  MOVLW  FA
09B8A:  MOVWF  FF6
09B8C:  MOVLW  0E
09B8E:  MOVWF  FF7
09B90:  MOVLW  00
09B92:  MOVWF  FF8
09B94:  MOVLW  0C
09B96:  MOVLB  6
09B98:  MOVWF  x55
09B9A:  MOVLB  0
09B9C:  CALL   56B2
09BA0:  MOVLW  02
09BA2:  MOVWF  FE9
09BA4:  MOVFF  653,658
09BA8:  MOVFF  652,657
09BAC:  MOVFF  651,656
09BB0:  MOVFF  650,655
09BB4:  MOVLB  6
09BB6:  CLRF   x59
09BB8:  MOVLB  0
09BBA:  CALL   57CE
09BBE:  MOVLW  20
09BC0:  BTFSS  F9E.4
09BC2:  BRA    9BC0
09BC4:  MOVWF  FAD
09BC6:  MOVLW  0A
09BC8:  MOVWF  FE9
09BCA:  MOVFF  214,655
09BCE:  MOVFF  213,654
09BD2:  CALL   5A96
09BD6:  MOVLW  22
09BD8:  BTFSS  F9E.4
09BDA:  BRA    9BD8
09BDC:  MOVWF  FAD
....................          SendDataDisplay(); 
09BDE:  CALL   3F6A
....................          printf("b19.txt=\"T2:%3.1f\"",Temperatura2); 
09BE2:  MOVLW  14
09BE4:  MOVWF  FF6
09BE6:  MOVLW  0F
09BE8:  MOVWF  FF7
09BEA:  MOVLW  00
09BEC:  MOVWF  FF8
09BEE:  MOVLW  0C
09BF0:  MOVLB  6
09BF2:  MOVWF  x55
09BF4:  MOVLB  0
09BF6:  CALL   56B2
09BFA:  MOVLW  02
09BFC:  MOVWF  FE9
09BFE:  MOVFF  1DD,658
09C02:  MOVFF  1DC,657
09C06:  MOVFF  1DB,656
09C0A:  MOVFF  1DA,655
09C0E:  MOVLW  01
09C10:  MOVLB  6
09C12:  MOVWF  x59
09C14:  MOVLB  0
09C16:  CALL   57CE
09C1A:  MOVLW  22
09C1C:  BTFSS  F9E.4
09C1E:  BRA    9C1C
09C20:  MOVWF  FAD
....................          SendDataDisplay(); 
09C22:  CALL   3F6A
....................          printf("b20.txt=\"T1:%3.1f\"",Temperatura); 
09C26:  MOVLW  28
09C28:  MOVWF  FF6
09C2A:  MOVLW  0F
09C2C:  MOVWF  FF7
09C2E:  MOVLW  00
09C30:  MOVWF  FF8
09C32:  MOVLW  0C
09C34:  MOVLB  6
09C36:  MOVWF  x55
09C38:  MOVLB  0
09C3A:  CALL   56B2
09C3E:  MOVLW  02
09C40:  MOVWF  FE9
09C42:  MOVFF  1D9,658
09C46:  MOVFF  1D8,657
09C4A:  MOVFF  1D7,656
09C4E:  MOVFF  1D6,655
09C52:  MOVLW  01
09C54:  MOVLB  6
09C56:  MOVWF  x59
09C58:  MOVLB  0
09C5A:  CALL   57CE
09C5E:  MOVLW  22
09C60:  BTFSS  F9E.4
09C62:  BRA    9C60
09C64:  MOVWF  FAD
....................          SendDataDisplay(); 
09C66:  CALL   3F6A
....................           
....................          if(RX_Buffer[4]==0x21)//Oprimio salir 
09C6A:  MOVF   34,W
09C6C:  SUBLW  21
09C6E:  BNZ   9C90
....................          { 
....................             printf("page Menu"); 
09C70:  MOVLW  3C
09C72:  MOVWF  FF6
09C74:  MOVLW  0F
09C76:  MOVWF  FF7
09C78:  MOVLW  00
09C7A:  MOVWF  FF8
09C7C:  CALL   3F38
....................             SendDataDisplay(); 
09C80:  CALL   3F6A
....................             PantallaPrincipal=0; 
09C84:  MOVLB  1
09C86:  CLRF   x96
....................             PruebaEstados=OFF; 
09C88:  MOVLB  0
09C8A:  BCF    xA7.3
....................             ApagaSalidas(); 
09C8C:  CALL   3FA0
09C90:  MOVLB  1
....................             // Falta apagar Todo 
....................          } 
....................      } 
.................... //_--------------------------------------------------------------------------------------------------------------------------------------------------------     
....................  
.................... //_--------------------------------------------------------------------------------------------------------------------------------------------------------       
....................     if(Menu==7){ //Menu de Configuracin de Fecha y Hora 
09C92:  MOVF   xF6,W
09C94:  SUBLW  07
09C96:  BTFSS  FD8.2
09C98:  BRA    A06E
....................        
....................          if(RX_Buffer[4]==0x0a)//Selecciono Hora 
09C9A:  MOVF   34,W
09C9C:  SUBLW  0A
09C9E:  BNZ   9CA8
....................             Opcion=4; 
09CA0:  MOVLW  04
09CA2:  MOVLB  2
09CA4:  MOVWF  x03
09CA6:  MOVLB  1
....................           
....................          if(RX_Buffer[4]==0x0b)//Selecciono Minuto 
09CA8:  MOVF   34,W
09CAA:  SUBLW  0B
09CAC:  BNZ   9CB6
....................             Opcion=5; 
09CAE:  MOVLW  05
09CB0:  MOVLB  2
09CB2:  MOVWF  x03
09CB4:  MOVLB  1
....................           
....................          if(RX_Buffer[4]==0x0c)//Selecciono Dia 
09CB6:  MOVF   34,W
09CB8:  SUBLW  0C
09CBA:  BNZ   9CC4
....................             Opcion=1; 
09CBC:  MOVLW  01
09CBE:  MOVLB  2
09CC0:  MOVWF  x03
09CC2:  MOVLB  1
....................           
....................          if(RX_Buffer[4]==0x0d)//Selecciono Hora 
09CC4:  MOVF   34,W
09CC6:  SUBLW  0D
09CC8:  BNZ   9CD2
....................             Opcion=2; 
09CCA:  MOVLW  02
09CCC:  MOVLB  2
09CCE:  MOVWF  x03
09CD0:  MOVLB  1
....................           
....................          if(RX_Buffer[4]==0x0e)//Selecciono Year 
09CD2:  MOVF   34,W
09CD4:  SUBLW  0E
09CD6:  BNZ   9CDE
....................             Opcion=3; 
09CD8:  MOVLW  03
09CDA:  MOVLB  2
09CDC:  MOVWF  x03
....................           
....................          if(Opcion>5) 
09CDE:  MOVLB  2
09CE0:  MOVF   x03,W
09CE2:  SUBLW  05
09CE4:  BC    9CEA
....................             Opcion=1; 
09CE6:  MOVLW  01
09CE8:  MOVWF  x03
....................          if(Opcion<1) 
09CEA:  MOVF   x03,F
09CEC:  BNZ   9CF2
....................             Opcion=5; 
09CEE:  MOVLW  05
09CF0:  MOVWF  x03
....................              
....................          if(RX_Buffer[4]==0x11){//Selecciono Regresar 
09CF2:  MOVF   34,W
09CF4:  SUBLW  11
09CF6:  BTFSS  FD8.2
09CF8:  BRA    9E12
....................             printf("page Menu"); 
09CFA:  MOVLW  46
09CFC:  MOVWF  FF6
09CFE:  MOVLW  0F
09D00:  MOVWF  FF7
09D02:  MOVLW  00
09D04:  MOVWF  FF8
09D06:  MOVLB  0
09D08:  CALL   3F38
....................             SendDataDisplay();   
09D0C:  CALL   3F6A
....................             PantallaPrincipal=0; 
09D10:  MOVLB  1
09D12:  CLRF   x96
....................             Op=OFF; 
09D14:  MOVLB  0
09D16:  BCF    xA8.0
....................             Op2=OFF; 
09D18:  BCF    xA8.1
....................              
....................             if(esBisiesto(YearTx)) 
09D1A:  MOVFF  245,650
09D1E:  CALL   5B86
09D22:  MOVF   01,F
09D24:  BZ    9D40
....................                Modulo=Bisiesto[MesTx]; 
09D26:  CLRF   03
09D28:  MOVLB  2
09D2A:  MOVF   x46,W
09D2C:  ADDLW  96
09D2E:  MOVWF  FE9
09D30:  MOVLW  00
09D32:  ADDWFC 03,W
09D34:  MOVWF  FEA
09D36:  MOVFF  FEF,198
09D3A:  MOVLB  1
....................             else 
09D3C:  BRA    9D56
09D3E:  MOVLB  0
....................                Modulo=Regular[MesTx]; 
09D40:  CLRF   03
09D42:  MOVLB  2
09D44:  MOVF   x46,W
09D46:  ADDLW  8A
09D48:  MOVWF  FE9
09D4A:  MOVLW  00
09D4C:  ADDWFC 03,W
09D4E:  MOVWF  FEA
09D50:  MOVFF  FEF,198
09D54:  MOVLB  1
....................           
....................             dowTx=((YearTx-1)%7+((YearTx-1)/4-3*((YearTx-1)/100+1)/4)%7+Modulo+DiaTx%7)%7; 
09D56:  MOVLW  01
09D58:  MOVLB  2
09D5A:  SUBWF  x45,W
09D5C:  MOVLB  6
09D5E:  MOVWF  x51
09D60:  MOVWF  x57
09D62:  MOVLW  07
09D64:  MOVWF  x58
09D66:  MOVLB  0
09D68:  CALL   5972
09D6C:  MOVFF  00,650
09D70:  MOVLW  01
09D72:  MOVLB  2
09D74:  SUBWF  x45,W
09D76:  MOVWF  00
09D78:  RRCF   00,W
09D7A:  MOVLB  6
09D7C:  MOVWF  x51
09D7E:  RRCF   x51,F
09D80:  MOVLW  3F
09D82:  ANDWF  x51,F
09D84:  MOVLW  01
09D86:  MOVLB  2
09D88:  SUBWF  x45,W
09D8A:  MOVLB  6
09D8C:  MOVWF  x53
09D8E:  MOVWF  x57
09D90:  MOVLW  64
09D92:  MOVWF  x58
09D94:  MOVLB  0
09D96:  CALL   5972
09D9A:  MOVLW  01
09D9C:  ADDWF  01,W
09D9E:  MULLW  03
09DA0:  MOVFF  FF3,00
09DA4:  RRCF   00,F
09DA6:  RRCF   00,F
09DA8:  MOVLW  3F
09DAA:  ANDWF  00,F
09DAC:  MOVF   00,W
09DAE:  MOVLB  6
09DB0:  SUBWF  x51,W
09DB2:  MOVWF  x52
09DB4:  MOVWF  x57
09DB6:  MOVLW  07
09DB8:  MOVWF  x58
09DBA:  MOVLB  0
09DBC:  CALL   5972
09DC0:  MOVF   00,W
09DC2:  MOVLB  6
09DC4:  ADDWF  x50,W
09DC6:  MOVLB  1
09DC8:  ADDWF  x98,W
09DCA:  MOVLB  6
09DCC:  MOVWF  x50
09DCE:  MOVFF  247,657
09DD2:  MOVLW  07
09DD4:  MOVWF  x58
09DD6:  MOVLB  0
09DD8:  CALL   5972
09DDC:  MOVF   00,W
09DDE:  MOVLB  6
09DE0:  ADDWF  x50,W
09DE2:  MOVWF  x51
09DE4:  MOVWF  x57
09DE6:  MOVLW  07
09DE8:  MOVWF  x58
09DEA:  MOVLB  0
09DEC:  CALL   5972
09DF0:  MOVFF  00,24B
....................             SetTime=5; 
09DF4:  MOVLW  05
09DF6:  MOVLB  2
09DF8:  MOVWF  x4C
....................             Envio_Esclavos(); 
09DFA:  MOVLB  0
09DFC:  CALL   524E
....................             delay_ms(100);    
09E00:  MOVLW  64
09E02:  MOVLB  6
09E04:  MOVWF  x62
09E06:  MOVLB  0
09E08:  CALL   2128
....................             SetTime=10; 
09E0C:  MOVLW  0A
09E0E:  MOVLB  2
09E10:  MOVWF  x4C
....................             //rtc_set_datetime(DiaTx,MesTx,YearTx,dowTx,HoraTx,MinutoTx); 
....................          } 
....................           
....................          if(RX_Buffer[4]==0x2a){//Tecla Arriba Oprimida 
09E12:  MOVF   34,W
09E14:  SUBLW  2A
09E16:  BTFSS  FD8.2
09E18:  BRA    9EFE
....................                if(Opcion==1){ 
09E1A:  DECFSZ x03,W
09E1C:  BRA    9EAA
....................                   if(MesTx==2){ 
09E1E:  MOVF   x46,W
09E20:  SUBLW  02
09E22:  BNZ   9E58
....................                      if(esBisiesto(YearTx)){ 
09E24:  MOVFF  245,650
09E28:  MOVLB  0
09E2A:  CALL   5B86
09E2E:  MOVF   01,F
09E30:  BZ    9E46
....................                         if(DiaTx<29) 
09E32:  MOVLB  2
09E34:  MOVF   x47,W
09E36:  SUBLW  1C
09E38:  BNC   9E3E
....................                            DiaTx++; 
09E3A:  INCF   x47,F
....................                         else 
09E3C:  BRA    9E42
....................                            DiaTx=1;    
09E3E:  MOVLW  01
09E40:  MOVWF  x47
....................                      }else{ 
09E42:  BRA    9E56
09E44:  MOVLB  0
....................                         if(DiaTx<28) 
09E46:  MOVLB  2
09E48:  MOVF   x47,W
09E4A:  SUBLW  1B
09E4C:  BNC   9E52
....................                            DiaTx++; 
09E4E:  INCF   x47,F
....................                         else 
09E50:  BRA    9E56
....................                            DiaTx=1;    
09E52:  MOVLW  01
09E54:  MOVWF  x47
....................                      } 
....................                   }else{ 
09E56:  BRA    9EA8
....................                      if(MesTx<=7){ 
09E58:  MOVF   x46,W
09E5A:  SUBLW  07
09E5C:  BNC   9E84
....................                         if(MesTx % 2 ==0){ 
09E5E:  MOVF   x46,W
09E60:  ANDLW  01
09E62:  BNZ   9E74
....................                            if(DiaTx<30) 
09E64:  MOVF   x47,W
09E66:  SUBLW  1D
09E68:  BNC   9E6E
....................                               DiaTx++;     
09E6A:  INCF   x47,F
....................                            else 
09E6C:  BRA    9E72
....................                               DiaTx=1;    
09E6E:  MOVLW  01
09E70:  MOVWF  x47
....................                         }else{ 
09E72:  BRA    9E82
....................                            if(DiaTx<31) 
09E74:  MOVF   x47,W
09E76:  SUBLW  1E
09E78:  BNC   9E7E
....................                               DiaTx++;     
09E7A:  INCF   x47,F
....................                            else 
09E7C:  BRA    9E82
....................                               DiaTx=1;    
09E7E:  MOVLW  01
09E80:  MOVWF  x47
....................                         }     
....................                      }else{ 
09E82:  BRA    9EA8
....................                         if(MesTx % 2 ==0){ 
09E84:  MOVF   x46,W
09E86:  ANDLW  01
09E88:  BNZ   9E9A
....................                            if(DiaTx<31) 
09E8A:  MOVF   x47,W
09E8C:  SUBLW  1E
09E8E:  BNC   9E94
....................                               DiaTx++;   
09E90:  INCF   x47,F
....................                            else 
09E92:  BRA    9E98
....................                               DiaTx=1; 
09E94:  MOVLW  01
09E96:  MOVWF  x47
....................                         }else{ 
09E98:  BRA    9EA8
....................                            if(DiaTx<30) 
09E9A:  MOVF   x47,W
09E9C:  SUBLW  1D
09E9E:  BNC   9EA4
....................                               DiaTx++;     
09EA0:  INCF   x47,F
....................                            else 
09EA2:  BRA    9EA8
....................                               DiaTx=1; 
09EA4:  MOVLW  01
09EA6:  MOVWF  x47
....................                         }     
....................                      } 
....................                   } 
....................                }else if(Opcion==2){ 
09EA8:  BRA    9EFA
09EAA:  MOVF   x03,W
09EAC:  SUBLW  02
09EAE:  BNZ   9EC0
....................                   if(MesTx<12) 
09EB0:  MOVF   x46,W
09EB2:  SUBLW  0B
09EB4:  BNC   9EBA
....................                      MesTx++; 
09EB6:  INCF   x46,F
....................                   else 
09EB8:  BRA    9EBE
....................                      MesTx=1; 
09EBA:  MOVLW  01
09EBC:  MOVWF  x46
....................                }else if(Opcion==3){ 
09EBE:  BRA    9EFA
09EC0:  MOVF   x03,W
09EC2:  SUBLW  03
09EC4:  BNZ   9ED4
....................                   if(YearTx<99) 
09EC6:  MOVF   x45,W
09EC8:  SUBLW  62
09ECA:  BNC   9ED0
....................                      YearTx++; 
09ECC:  INCF   x45,F
....................                   else  
09ECE:  BRA    9ED2
....................                      YearTx=0; 
09ED0:  CLRF   x45
....................                }else if(Opcion==4){ 
09ED2:  BRA    9EFA
09ED4:  MOVF   x03,W
09ED6:  SUBLW  04
09ED8:  BNZ   9EE8
....................                   if(HoraTx<24) 
09EDA:  MOVF   x48,W
09EDC:  SUBLW  17
09EDE:  BNC   9EE4
....................                      HoraTx++; 
09EE0:  INCF   x48,F
....................                   else 
09EE2:  BRA    9EE6
....................                      HoraTx=0; 
09EE4:  CLRF   x48
....................                }else if(Opcion==5){ 
09EE6:  BRA    9EFA
09EE8:  MOVF   x03,W
09EEA:  SUBLW  05
09EEC:  BNZ   9EFA
....................                   if(MinutoTx<59) 
09EEE:  MOVF   x49,W
09EF0:  SUBLW  3A
09EF2:  BNC   9EF8
....................                      MinutoTx++; 
09EF4:  INCF   x49,F
....................                   else 
09EF6:  BRA    9EFA
....................                      MinutoTx=0; 
09EF8:  CLRF   x49
....................                } 
....................                RX_Buffer[4]=0x00; 
09EFA:  CLRF   34
....................                RX_Buffer2[4]=0x00; 
09EFC:  CLRF   3F
....................          } 
....................           
....................          if(RX_Buffer[4]==0x2b){//Tecla Abajo Oprimida  
09EFE:  MOVF   34,W
09F00:  SUBLW  2B
09F02:  BNZ   9F64
....................                if(Opcion==1){ 
09F04:  DECFSZ x03,W
09F06:  BRA    9F10
....................                   if(DiaTx>0) 
09F08:  MOVF   x47,F
09F0A:  BZ    9F0E
....................                      DiaTx--; 
09F0C:  DECF   x47,F
....................                }else if(Opcion==2){ 
09F0E:  BRA    9F60
09F10:  MOVF   x03,W
09F12:  SUBLW  02
09F14:  BNZ   9F26
....................                   if(MesTx>1) 
09F16:  MOVF   x46,W
09F18:  SUBLW  01
09F1A:  BC    9F20
....................                      MesTx--; 
09F1C:  DECF   x46,F
....................                   else 
09F1E:  BRA    9F24
....................                      MesTx=12; 
09F20:  MOVLW  0C
09F22:  MOVWF  x46
....................                }else if(Opcion==3){ 
09F24:  BRA    9F60
09F26:  MOVF   x03,W
09F28:  SUBLW  03
09F2A:  BNZ   9F3A
....................                   if(YearTx>0) 
09F2C:  MOVF   x45,F
09F2E:  BZ    9F34
....................                      YearTx--; 
09F30:  DECF   x45,F
....................                   else 
09F32:  BRA    9F38
....................                      YearTx=99; 
09F34:  MOVLW  63
09F36:  MOVWF  x45
....................                }else if(Opcion==4){ 
09F38:  BRA    9F60
09F3A:  MOVF   x03,W
09F3C:  SUBLW  04
09F3E:  BNZ   9F4E
....................                   if(HoraTx>0) 
09F40:  MOVF   x48,F
09F42:  BZ    9F48
....................                      HoraTx--; 
09F44:  DECF   x48,F
....................                   else 
09F46:  BRA    9F4C
....................                      HoraTx=23; 
09F48:  MOVLW  17
09F4A:  MOVWF  x48
....................                }else if(Opcion==5){ 
09F4C:  BRA    9F60
09F4E:  MOVF   x03,W
09F50:  SUBLW  05
09F52:  BNZ   9F60
....................                   if(MinutoTx>0) 
09F54:  MOVF   x49,F
09F56:  BZ    9F5C
....................                      MinutoTx--; 
09F58:  DECF   x49,F
....................                   else 
09F5A:  BRA    9F60
....................                      MinutoTx=59; 
09F5C:  MOVLW  3B
09F5E:  MOVWF  x49
....................                } 
....................                RX_Buffer[4]=0x00; 
09F60:  CLRF   34
....................                RX_Buffer2[4]=0x00; 
09F62:  CLRF   3F
....................                //BorraBuffer(); 
....................          } 
....................        
....................       printf("thora.txt=\"%02u\"",HoraTx); 
09F64:  MOVLW  50
09F66:  MOVWF  FF6
09F68:  MOVLW  0F
09F6A:  MOVWF  FF7
09F6C:  MOVLW  00
09F6E:  MOVWF  FF8
09F70:  MOVLW  0B
09F72:  MOVLB  6
09F74:  MOVWF  x55
09F76:  MOVLB  0
09F78:  CALL   56B2
09F7C:  MOVFF  248,655
09F80:  MOVLW  01
09F82:  MOVLB  6
09F84:  MOVWF  x56
09F86:  MOVLB  0
09F88:  CALL   599E
09F8C:  MOVLW  22
09F8E:  BTFSS  F9E.4
09F90:  BRA    9F8E
09F92:  MOVWF  FAD
....................       SendDataDisplay(); 
09F94:  CALL   3F6A
....................       printf("tminutos.txt=\"%02u\"",MinutoTx); 
09F98:  MOVLW  62
09F9A:  MOVWF  FF6
09F9C:  MOVLW  0F
09F9E:  MOVWF  FF7
09FA0:  MOVLW  00
09FA2:  MOVWF  FF8
09FA4:  MOVLW  0E
09FA6:  MOVLB  6
09FA8:  MOVWF  x55
09FAA:  MOVLB  0
09FAC:  CALL   56B2
09FB0:  MOVFF  249,655
09FB4:  MOVLW  01
09FB6:  MOVLB  6
09FB8:  MOVWF  x56
09FBA:  MOVLB  0
09FBC:  CALL   599E
09FC0:  MOVLW  22
09FC2:  BTFSS  F9E.4
09FC4:  BRA    9FC2
09FC6:  MOVWF  FAD
....................       SendDataDisplay(); 
09FC8:  CALL   3F6A
....................       printf("tdia.txt=\"%02u\"",DiaTx); 
09FCC:  MOVLW  76
09FCE:  MOVWF  FF6
09FD0:  MOVLW  0F
09FD2:  MOVWF  FF7
09FD4:  MOVLW  00
09FD6:  MOVWF  FF8
09FD8:  MOVLW  0A
09FDA:  MOVLB  6
09FDC:  MOVWF  x55
09FDE:  MOVLB  0
09FE0:  CALL   56B2
09FE4:  MOVFF  247,655
09FE8:  MOVLW  01
09FEA:  MOVLB  6
09FEC:  MOVWF  x56
09FEE:  MOVLB  0
09FF0:  CALL   599E
09FF4:  MOVLW  22
09FF6:  BTFSS  F9E.4
09FF8:  BRA    9FF6
09FFA:  MOVWF  FAD
....................       SendDataDisplay(); 
09FFC:  CALL   3F6A
....................       printf("tmes.txt=\"%02u\"",MesTx); 
0A000:  MOVLW  86
0A002:  MOVWF  FF6
0A004:  MOVLW  0F
0A006:  MOVWF  FF7
0A008:  MOVLW  00
0A00A:  MOVWF  FF8
0A00C:  MOVLW  0A
0A00E:  MOVLB  6
0A010:  MOVWF  x55
0A012:  MOVLB  0
0A014:  CALL   56B2
0A018:  MOVFF  246,655
0A01C:  MOVLW  01
0A01E:  MOVLB  6
0A020:  MOVWF  x56
0A022:  MOVLB  0
0A024:  CALL   599E
0A028:  MOVLW  22
0A02A:  BTFSS  F9E.4
0A02C:  BRA    A02A
0A02E:  MOVWF  FAD
....................       SendDataDisplay(); 
0A030:  CALL   3F6A
....................       printf("tyear.txt=\"%02u\"",YearTx); 
0A034:  MOVLW  96
0A036:  MOVWF  FF6
0A038:  MOVLW  0F
0A03A:  MOVWF  FF7
0A03C:  MOVLW  00
0A03E:  MOVWF  FF8
0A040:  MOVLW  0B
0A042:  MOVLB  6
0A044:  MOVWF  x55
0A046:  MOVLB  0
0A048:  CALL   56B2
0A04C:  MOVFF  245,655
0A050:  MOVLW  01
0A052:  MOVLB  6
0A054:  MOVWF  x56
0A056:  MOVLB  0
0A058:  CALL   599E
0A05C:  MOVLW  22
0A05E:  BTFSS  F9E.4
0A060:  BRA    A05E
0A062:  MOVWF  FAD
....................       SendDataDisplay(); 
0A064:  CALL   3F6A
....................       LimitaDia();   
0A068:  GOTO   5BD8
0A06C:  MOVLB  1
....................     } 
.................... //_--------------------------------------------------------------------------------------------------------------------------------------------------------        
....................  
.................... //_-------------------------------------------------------------------------------------------------------------------------------------------------------- 
....................    if(Menu==8){ //Menu Ciclos Personalizados 
0A06E:  MOVF   xF6,W
0A070:  SUBLW  08
0A072:  BTFSS  FD8.2
0A074:  GOTO   AF30
....................       printf("fecha.txt=\"T:%2.1fC Fecha:%02u/%02u/20%02u Hora:%02u:%02u:%02u\"",Temperatura,Dia,Mes,Year,Hora,Minuto,Segundo); 
0A078:  MOVLW  A8
0A07A:  MOVWF  FF6
0A07C:  MOVLW  0F
0A07E:  MOVWF  FF7
0A080:  MOVLW  00
0A082:  MOVWF  FF8
0A084:  MOVLW  0D
0A086:  MOVLB  6
0A088:  MOVWF  x55
0A08A:  MOVLB  0
0A08C:  CALL   56B2
0A090:  MOVLW  01
0A092:  MOVWF  FE9
0A094:  MOVFF  1D9,658
0A098:  MOVFF  1D8,657
0A09C:  MOVFF  1D7,656
0A0A0:  MOVFF  1D6,655
0A0A4:  MOVLB  6
0A0A6:  MOVWF  x59
0A0A8:  MOVLB  0
0A0AA:  CALL   57CE
0A0AE:  MOVLW  BA
0A0B0:  MOVWF  FF6
0A0B2:  MOVLW  0F
0A0B4:  MOVWF  FF7
0A0B6:  MOVLW  00
0A0B8:  MOVWF  FF8
0A0BA:  MOVLW  09
0A0BC:  MOVLB  6
0A0BE:  MOVWF  x55
0A0C0:  MOVLB  0
0A0C2:  CALL   56B2
0A0C6:  MOVFF  23A,655
0A0CA:  MOVLW  01
0A0CC:  MOVLB  6
0A0CE:  MOVWF  x56
0A0D0:  MOVLB  0
0A0D2:  CALL   599E
0A0D6:  MOVLW  2F
0A0D8:  BTFSS  F9E.4
0A0DA:  BRA    A0D8
0A0DC:  MOVWF  FAD
0A0DE:  MOVFF  239,655
0A0E2:  MOVLW  01
0A0E4:  MOVLB  6
0A0E6:  MOVWF  x56
0A0E8:  MOVLB  0
0A0EA:  CALL   599E
0A0EE:  MOVLW  2F
0A0F0:  BTFSS  F9E.4
0A0F2:  BRA    A0F0
0A0F4:  MOVWF  FAD
0A0F6:  MOVLW  32
0A0F8:  BTFSS  F9E.4
0A0FA:  BRA    A0F8
0A0FC:  MOVWF  FAD
0A0FE:  MOVLW  30
0A100:  BTFSS  F9E.4
0A102:  BRA    A100
0A104:  MOVWF  FAD
0A106:  MOVFF  238,655
0A10A:  MOVLW  01
0A10C:  MOVLB  6
0A10E:  MOVWF  x56
0A110:  MOVLB  0
0A112:  CALL   599E
0A116:  MOVLW  D3
0A118:  MOVWF  FF6
0A11A:  MOVLW  0F
0A11C:  MOVWF  FF7
0A11E:  MOVLW  00
0A120:  MOVWF  FF8
0A122:  MOVLW  06
0A124:  MOVLB  6
0A126:  MOVWF  x55
0A128:  MOVLB  0
0A12A:  CALL   56B2
0A12E:  MOVFF  23B,655
0A132:  MOVLW  01
0A134:  MOVLB  6
0A136:  MOVWF  x56
0A138:  MOVLB  0
0A13A:  CALL   599E
0A13E:  MOVLW  3A
0A140:  BTFSS  F9E.4
0A142:  BRA    A140
0A144:  MOVWF  FAD
0A146:  MOVFF  23C,655
0A14A:  MOVLW  01
0A14C:  MOVLB  6
0A14E:  MOVWF  x56
0A150:  MOVLB  0
0A152:  CALL   599E
0A156:  MOVLW  3A
0A158:  BTFSS  F9E.4
0A15A:  BRA    A158
0A15C:  MOVWF  FAD
0A15E:  MOVFF  23D,655
0A162:  MOVLW  01
0A164:  MOVLB  6
0A166:  MOVWF  x56
0A168:  MOVLB  0
0A16A:  CALL   599E
0A16E:  MOVLW  22
0A170:  BTFSS  F9E.4
0A172:  BRA    A170
0A174:  MOVWF  FAD
....................       SendDataDisplay(); 
0A176:  CALL   3F6A
....................       GuardaEEPROM=OFF; 
0A17A:  BCF    xA8.4
....................       printf("tuser.txt=\"%s\"",usuario); 
0A17C:  MOVLW  EA
0A17E:  MOVWF  FF6
0A180:  MOVLW  0F
0A182:  MOVWF  FF7
0A184:  MOVLW  00
0A186:  MOVWF  FF8
0A188:  MOVLW  0B
0A18A:  MOVLB  6
0A18C:  MOVWF  x55
0A18E:  MOVLB  0
0A190:  CALL   56B2
0A194:  MOVLW  02
0A196:  MOVWF  FEA
0A198:  MOVLW  56
0A19A:  MOVWF  FE9
0A19C:  CALL   56E4
0A1A0:  MOVLW  22
0A1A2:  BTFSS  F9E.4
0A1A4:  BRA    A1A2
0A1A6:  MOVWF  FAD
....................       SendDataDisplay(); 
0A1A8:  CALL   3F6A
....................        
....................       if(RX_Buffer[4]>0x00 && RX_Buffer[4]<0x15 && estados[RX_Buffer[4]-1]){//Personalizados 
0A1AC:  MOVF   34,F
0A1AE:  BTFSC  FD8.2
0A1B0:  BRA    A4C0
0A1B2:  MOVF   34,W
0A1B4:  SUBLW  14
0A1B6:  BTFSS  FD8.0
0A1B8:  BRA    A4C0
0A1BA:  MOVLW  01
0A1BC:  SUBWF  34,W
0A1BE:  MOVLB  6
0A1C0:  MOVWF  x51
0A1C2:  MOVLW  02
0A1C4:  MOVWF  x53
0A1C6:  MOVLW  BC
0A1C8:  MOVWF  x52
0A1CA:  MOVLB  0
0A1CC:  CALL   2192
0A1D0:  BTFSS  01.0
0A1D2:  BRA    A4C0
....................          printf("ciclo.txt=\"CICLO P%02u\"",RX_Buffer[4]+0x0a); 
0A1D4:  MOVLW  0A
0A1D6:  ADDWF  34,W
0A1D8:  MOVLB  6
0A1DA:  MOVWF  x50
0A1DC:  MOVLW  FA
0A1DE:  MOVWF  FF6
0A1E0:  MOVLW  0F
0A1E2:  MOVWF  FF7
0A1E4:  MOVLW  00
0A1E6:  MOVWF  FF8
0A1E8:  MOVLW  12
0A1EA:  MOVWF  x55
0A1EC:  MOVLB  0
0A1EE:  CALL   56B2
0A1F2:  MOVFF  650,655
0A1F6:  MOVLW  01
0A1F8:  MOVLB  6
0A1FA:  MOVWF  x56
0A1FC:  MOVLB  0
0A1FE:  CALL   599E
0A202:  MOVLW  22
0A204:  BTFSS  F9E.4
0A206:  BRA    A204
0A208:  MOVWF  FAD
....................          SendDataDisplay();           
0A20A:  CALL   3F6A
....................          printf("temp.txt=\"%u\"",CiclosPersonalizados[RX_Buffer[4]-1].Temperatura); 
0A20E:  MOVLW  01
0A210:  SUBWF  34,W
0A212:  MULLW  08
0A214:  MOVF   FF3,W
0A216:  MOVLB  6
0A218:  CLRF   x51
0A21A:  MOVWF  x50
0A21C:  MOVLW  88
0A21E:  ADDWF  x50,W
0A220:  MOVWF  FE9
0A222:  MOVLW  05
0A224:  ADDWFC x51,W
0A226:  MOVWF  FEA
0A228:  MOVFF  FEF,650
0A22C:  MOVLW  12
0A22E:  MOVWF  FF6
0A230:  MOVLW  10
0A232:  MOVWF  FF7
0A234:  MOVLW  00
0A236:  MOVWF  FF8
0A238:  MOVLW  0A
0A23A:  MOVWF  x55
0A23C:  MOVLB  0
0A23E:  CALL   56B2
0A242:  MOVFF  650,655
0A246:  MOVLW  1B
0A248:  MOVLB  6
0A24A:  MOVWF  x56
0A24C:  MOVLB  0
0A24E:  CALL   599E
0A252:  MOVLW  22
0A254:  BTFSS  F9E.4
0A256:  BRA    A254
0A258:  MOVWF  FAD
....................          SendDataDisplay(); 
0A25A:  CALL   3F6A
....................          printf("test.txt=\"%02u:%02u\"",CiclosPersonalizados[RX_Buffer[4]-1].Minutoest,CiclosPersonalizados[RX_Buffer[4]-1].Segundoest); 
0A25E:  MOVLW  01
0A260:  SUBWF  34,W
0A262:  MULLW  08
0A264:  MOVF   FF3,W
0A266:  MOVLB  6
0A268:  CLRF   x51
0A26A:  MOVWF  x50
0A26C:  MOVLW  01
0A26E:  ADDWF  x50,W
0A270:  MOVWF  01
0A272:  MOVLW  00
0A274:  ADDWFC x51,W
0A276:  MOVWF  03
0A278:  MOVF   01,W
0A27A:  ADDLW  88
0A27C:  MOVWF  FE9
0A27E:  MOVLW  05
0A280:  ADDWFC 03,W
0A282:  MOVWF  FEA
0A284:  MOVFF  FEF,650
0A288:  MOVLW  01
0A28A:  SUBWF  34,W
0A28C:  MULLW  08
0A28E:  MOVF   FF3,W
0A290:  CLRF   x52
0A292:  MOVWF  x51
0A294:  MOVLW  02
0A296:  ADDWF  x51,W
0A298:  MOVWF  01
0A29A:  MOVLW  00
0A29C:  ADDWFC x52,W
0A29E:  MOVWF  03
0A2A0:  MOVF   01,W
0A2A2:  ADDLW  88
0A2A4:  MOVWF  FE9
0A2A6:  MOVLW  05
0A2A8:  ADDWFC 03,W
0A2AA:  MOVWF  FEA
0A2AC:  MOVFF  FEF,651
0A2B0:  MOVLW  20
0A2B2:  MOVWF  FF6
0A2B4:  MOVLW  10
0A2B6:  MOVWF  FF7
0A2B8:  MOVLW  00
0A2BA:  MOVWF  FF8
0A2BC:  MOVLW  0A
0A2BE:  MOVWF  x55
0A2C0:  MOVLB  0
0A2C2:  CALL   56B2
0A2C6:  MOVFF  650,655
0A2CA:  MOVLW  01
0A2CC:  MOVLB  6
0A2CE:  MOVWF  x56
0A2D0:  MOVLB  0
0A2D2:  CALL   599E
0A2D6:  MOVLW  3A
0A2D8:  BTFSS  F9E.4
0A2DA:  BRA    A2D8
0A2DC:  MOVWF  FAD
0A2DE:  MOVFF  651,655
0A2E2:  MOVLW  01
0A2E4:  MOVLB  6
0A2E6:  MOVWF  x56
0A2E8:  MOVLB  0
0A2EA:  CALL   599E
0A2EE:  MOVLW  22
0A2F0:  BTFSS  F9E.4
0A2F2:  BRA    A2F0
0A2F4:  MOVWF  FAD
....................          SendDataDisplay(); 
0A2F6:  CALL   3F6A
....................          printf("tsec.txt=\"%02u:%02u\"",CiclosPersonalizados[RX_Buffer[4]-1].Minutosec,CiclosPersonalizados[RX_Buffer[4]-1].Segundosec); 
0A2FA:  MOVLW  01
0A2FC:  SUBWF  34,W
0A2FE:  MULLW  08
0A300:  MOVF   FF3,W
0A302:  MOVLB  6
0A304:  CLRF   x51
0A306:  MOVWF  x50
0A308:  MOVLW  03
0A30A:  ADDWF  x50,W
0A30C:  MOVWF  01
0A30E:  MOVLW  00
0A310:  ADDWFC x51,W
0A312:  MOVWF  03
0A314:  MOVF   01,W
0A316:  ADDLW  88
0A318:  MOVWF  FE9
0A31A:  MOVLW  05
0A31C:  ADDWFC 03,W
0A31E:  MOVWF  FEA
0A320:  MOVFF  FEF,650
0A324:  MOVLW  01
0A326:  SUBWF  34,W
0A328:  MULLW  08
0A32A:  MOVF   FF3,W
0A32C:  CLRF   x52
0A32E:  MOVWF  x51
0A330:  MOVLW  04
0A332:  ADDWF  x51,W
0A334:  MOVWF  01
0A336:  MOVLW  00
0A338:  ADDWFC x52,W
0A33A:  MOVWF  03
0A33C:  MOVF   01,W
0A33E:  ADDLW  88
0A340:  MOVWF  FE9
0A342:  MOVLW  05
0A344:  ADDWFC 03,W
0A346:  MOVWF  FEA
0A348:  MOVFF  FEF,651
0A34C:  MOVLW  36
0A34E:  MOVWF  FF6
0A350:  MOVLW  10
0A352:  MOVWF  FF7
0A354:  MOVLW  00
0A356:  MOVWF  FF8
0A358:  MOVLW  0A
0A35A:  MOVWF  x55
0A35C:  MOVLB  0
0A35E:  CALL   56B2
0A362:  MOVFF  650,655
0A366:  MOVLW  01
0A368:  MOVLB  6
0A36A:  MOVWF  x56
0A36C:  MOVLB  0
0A36E:  CALL   599E
0A372:  MOVLW  3A
0A374:  BTFSS  F9E.4
0A376:  BRA    A374
0A378:  MOVWF  FAD
0A37A:  MOVFF  651,655
0A37E:  MOVLW  01
0A380:  MOVLB  6
0A382:  MOVWF  x56
0A384:  MOVLB  0
0A386:  CALL   599E
0A38A:  MOVLW  22
0A38C:  BTFSS  F9E.4
0A38E:  BRA    A38C
0A390:  MOVWF  FAD
....................          SendDataDisplay(); 
0A392:  CALL   3F6A
....................          printf("pulsos.txt=\"%02u\"",CiclosPersonalizados[RX_Buffer[4]-1].PulsosVacio); 
0A396:  MOVLW  01
0A398:  SUBWF  34,W
0A39A:  MULLW  08
0A39C:  MOVF   FF3,W
0A39E:  MOVLB  6
0A3A0:  CLRF   x51
0A3A2:  MOVWF  x50
0A3A4:  MOVLW  05
0A3A6:  ADDWF  x50,W
0A3A8:  MOVWF  01
0A3AA:  MOVLW  00
0A3AC:  ADDWFC x51,W
0A3AE:  MOVWF  03
0A3B0:  MOVF   01,W
0A3B2:  ADDLW  88
0A3B4:  MOVWF  FE9
0A3B6:  MOVLW  05
0A3B8:  ADDWFC 03,W
0A3BA:  MOVWF  FEA
0A3BC:  MOVFF  FEF,650
0A3C0:  MOVLW  4C
0A3C2:  MOVWF  FF6
0A3C4:  MOVLW  10
0A3C6:  MOVWF  FF7
0A3C8:  MOVLW  00
0A3CA:  MOVWF  FF8
0A3CC:  MOVLW  0C
0A3CE:  MOVWF  x55
0A3D0:  MOVLB  0
0A3D2:  CALL   56B2
0A3D6:  MOVFF  650,655
0A3DA:  MOVLW  01
0A3DC:  MOVLB  6
0A3DE:  MOVWF  x56
0A3E0:  MOVLB  0
0A3E2:  CALL   599E
0A3E6:  MOVLW  22
0A3E8:  BTFSS  F9E.4
0A3EA:  BRA    A3E8
0A3EC:  MOVWF  FAD
....................          SendDataDisplay(); 
0A3EE:  CALL   3F6A
....................          printf("vacio.txt=\"%03u kPa\"",CiclosPersonalizados[RX_Buffer[4]-1].NivelVacio); 
0A3F2:  MOVLW  01
0A3F4:  SUBWF  34,W
0A3F6:  MULLW  08
0A3F8:  MOVF   FF3,W
0A3FA:  MOVLB  6
0A3FC:  CLRF   x51
0A3FE:  MOVWF  x50
0A400:  MOVLW  06
0A402:  ADDWF  x50,W
0A404:  MOVWF  01
0A406:  MOVLW  00
0A408:  ADDWFC x51,W
0A40A:  MOVWF  03
0A40C:  MOVF   01,W
0A40E:  ADDLW  88
0A410:  MOVWF  FE9
0A412:  MOVLW  05
0A414:  ADDWFC 03,W
0A416:  MOVWF  FEA
0A418:  MOVFF  FEF,650
0A41C:  MOVLW  5E
0A41E:  MOVWF  FF6
0A420:  MOVLW  10
0A422:  MOVWF  FF7
0A424:  MOVLW  00
0A426:  MOVWF  FF8
0A428:  MOVLW  0B
0A42A:  MOVWF  x55
0A42C:  MOVLB  0
0A42E:  CALL   56B2
0A432:  MOVFF  650,655
0A436:  MOVLW  03
0A438:  MOVLB  6
0A43A:  MOVWF  x56
0A43C:  MOVLB  0
0A43E:  CALL   599E
0A442:  MOVLW  6D
0A444:  MOVWF  FF6
0A446:  MOVLW  10
0A448:  MOVWF  FF7
0A44A:  MOVLW  00
0A44C:  MOVWF  FF8
0A44E:  MOVLW  05
0A450:  MOVLB  6
0A452:  MOVWF  x55
0A454:  MOVLB  0
0A456:  CALL   56B2
....................          SendDataDisplay(); 
0A45A:  CALL   3F6A
....................          printf("desfogue.txt=\"%u\"",CiclosPersonalizados[RX_Buffer[4]-1].NivelDesfogue); 
0A45E:  MOVLW  01
0A460:  SUBWF  34,W
0A462:  MULLW  08
0A464:  MOVF   FF3,W
0A466:  MOVLB  6
0A468:  CLRF   x51
0A46A:  MOVWF  x50
0A46C:  MOVLW  07
0A46E:  ADDWF  x50,W
0A470:  MOVWF  01
0A472:  MOVLW  00
0A474:  ADDWFC x51,W
0A476:  MOVWF  03
0A478:  MOVF   01,W
0A47A:  ADDLW  88
0A47C:  MOVWF  FE9
0A47E:  MOVLW  05
0A480:  ADDWFC 03,W
0A482:  MOVWF  FEA
0A484:  MOVFF  FEF,650
0A488:  MOVLW  74
0A48A:  MOVWF  FF6
0A48C:  MOVLW  10
0A48E:  MOVWF  FF7
0A490:  MOVLW  00
0A492:  MOVWF  FF8
0A494:  MOVLW  0E
0A496:  MOVWF  x55
0A498:  MOVLB  0
0A49A:  CALL   56B2
0A49E:  MOVFF  650,655
0A4A2:  MOVLW  1B
0A4A4:  MOVLB  6
0A4A6:  MOVWF  x56
0A4A8:  MOVLB  0
0A4AA:  CALL   599E
0A4AE:  MOVLW  22
0A4B0:  BTFSS  F9E.4
0A4B2:  BRA    A4B0
0A4B4:  MOVWF  FAD
....................          //printf("desfogue.txt=\"N/A\""); 
....................          SendDataDisplay(); 
0A4B6:  CALL   3F6A
....................          CicloLibre=RX_Buffer[4]; 
0A4BA:  MOVFF  34,1EC
....................       }else if(CicloLibre==0x00){ 
0A4BE:  BRA    A880
0A4C0:  MOVLB  1
0A4C2:  MOVF   xEC,F
0A4C4:  BNZ   A558
....................          printf("ciclo.txt=\"CICLO P--\""); 
0A4C6:  MOVLW  86
0A4C8:  MOVWF  FF6
0A4CA:  MOVLW  10
0A4CC:  MOVWF  FF7
0A4CE:  MOVLW  00
0A4D0:  MOVWF  FF8
0A4D2:  MOVLB  0
0A4D4:  CALL   3F38
....................          SendDataDisplay();           
0A4D8:  CALL   3F6A
....................          printf("temp.txt=\"--\""); 
0A4DC:  MOVLW  9C
0A4DE:  MOVWF  FF6
0A4E0:  MOVLW  10
0A4E2:  MOVWF  FF7
0A4E4:  MOVLW  00
0A4E6:  MOVWF  FF8
0A4E8:  CALL   3F38
....................          SendDataDisplay(); 
0A4EC:  CALL   3F6A
....................          printf("test.txt=\"--:--\""); 
0A4F0:  MOVLW  AA
0A4F2:  MOVWF  FF6
0A4F4:  MOVLW  10
0A4F6:  MOVWF  FF7
0A4F8:  MOVLW  00
0A4FA:  MOVWF  FF8
0A4FC:  CALL   3F38
....................          SendDataDisplay(); 
0A500:  CALL   3F6A
....................          printf("tsec.txt=\"--:--\""); 
0A504:  MOVLW  BC
0A506:  MOVWF  FF6
0A508:  MOVLW  10
0A50A:  MOVWF  FF7
0A50C:  MOVLW  00
0A50E:  MOVWF  FF8
0A510:  CALL   3F38
....................          SendDataDisplay(); 
0A514:  CALL   3F6A
....................          printf("pulsos.txt=\"--\""); 
0A518:  MOVLW  CE
0A51A:  MOVWF  FF6
0A51C:  MOVLW  10
0A51E:  MOVWF  FF7
0A520:  MOVLW  00
0A522:  MOVWF  FF8
0A524:  CALL   3F38
....................          SendDataDisplay(); 
0A528:  CALL   3F6A
....................          printf("vacio.txt=\"--\""); 
0A52C:  MOVLW  DE
0A52E:  MOVWF  FF6
0A530:  MOVLW  10
0A532:  MOVWF  FF7
0A534:  MOVLW  00
0A536:  MOVWF  FF8
0A538:  CALL   3F38
....................          SendDataDisplay(); 
0A53C:  CALL   3F6A
....................          printf("desfogue.txt=\"--\""); 
0A540:  MOVLW  EE
0A542:  MOVWF  FF6
0A544:  MOVLW  10
0A546:  MOVWF  FF7
0A548:  MOVLW  00
0A54A:  MOVWF  FF8
0A54C:  CALL   3F38
....................          SendDataDisplay(); 
0A550:  CALL   3F6A
....................       }else if(CicloLibre>0 && CicloLibre<21 && estados[CicloLibre-1]){ 
0A554:  BRA    A880
0A556:  MOVLB  1
0A558:  MOVF   xEC,F
0A55A:  BTFSC  FD8.2
0A55C:  BRA    A882
0A55E:  MOVF   xEC,W
0A560:  SUBLW  14
0A562:  BTFSS  FD8.0
0A564:  BRA    A882
0A566:  MOVLW  01
0A568:  SUBWF  xEC,W
0A56A:  MOVLB  6
0A56C:  MOVWF  x51
0A56E:  MOVLW  02
0A570:  MOVWF  x53
0A572:  MOVLW  BC
0A574:  MOVWF  x52
0A576:  MOVLB  0
0A578:  CALL   2192
0A57C:  BTFSC  01.0
0A57E:  BRA    A584
0A580:  MOVLB  1
0A582:  BRA    A882
....................          printf("ciclo.txt=\"CICLO P%02u\"",CicloLibre+0x0a); 
0A584:  MOVLW  0A
0A586:  MOVLB  1
0A588:  ADDWF  xEC,W
0A58A:  MOVLB  6
0A58C:  MOVWF  x50
0A58E:  MOVLW  00
0A590:  MOVWF  FF6
0A592:  MOVLW  11
0A594:  MOVWF  FF7
0A596:  MOVLW  00
0A598:  MOVWF  FF8
0A59A:  MOVLW  12
0A59C:  MOVWF  x55
0A59E:  MOVLB  0
0A5A0:  CALL   56B2
0A5A4:  MOVFF  650,655
0A5A8:  MOVLW  01
0A5AA:  MOVLB  6
0A5AC:  MOVWF  x56
0A5AE:  MOVLB  0
0A5B0:  CALL   599E
0A5B4:  MOVLW  22
0A5B6:  BTFSS  F9E.4
0A5B8:  BRA    A5B6
0A5BA:  MOVWF  FAD
....................          SendDataDisplay();           
0A5BC:  CALL   3F6A
....................          printf("temp.txt=\"%u\"",CiclosPersonalizados[CicloLibre-1].Temperatura); 
0A5C0:  MOVLW  01
0A5C2:  MOVLB  1
0A5C4:  SUBWF  xEC,W
0A5C6:  MULLW  08
0A5C8:  MOVF   FF3,W
0A5CA:  MOVLB  6
0A5CC:  CLRF   x51
0A5CE:  MOVWF  x50
0A5D0:  MOVLW  88
0A5D2:  ADDWF  x50,W
0A5D4:  MOVWF  FE9
0A5D6:  MOVLW  05
0A5D8:  ADDWFC x51,W
0A5DA:  MOVWF  FEA
0A5DC:  MOVFF  FEF,650
0A5E0:  MOVLW  18
0A5E2:  MOVWF  FF6
0A5E4:  MOVLW  11
0A5E6:  MOVWF  FF7
0A5E8:  MOVLW  00
0A5EA:  MOVWF  FF8
0A5EC:  MOVLW  0A
0A5EE:  MOVWF  x55
0A5F0:  MOVLB  0
0A5F2:  CALL   56B2
0A5F6:  MOVFF  650,655
0A5FA:  MOVLW  1B
0A5FC:  MOVLB  6
0A5FE:  MOVWF  x56
0A600:  MOVLB  0
0A602:  CALL   599E
0A606:  MOVLW  22
0A608:  BTFSS  F9E.4
0A60A:  BRA    A608
0A60C:  MOVWF  FAD
....................          SendDataDisplay(); 
0A60E:  CALL   3F6A
....................          printf("test.txt=\"%02u:%02u\"",CiclosPersonalizados[CicloLibre-1].Minutoest,CiclosPersonalizados[CicloLibre-1].Segundoest); 
0A612:  MOVLW  01
0A614:  MOVLB  1
0A616:  SUBWF  xEC,W
0A618:  MULLW  08
0A61A:  MOVF   FF3,W
0A61C:  MOVLB  6
0A61E:  CLRF   x51
0A620:  MOVWF  x50
0A622:  MOVLW  01
0A624:  ADDWF  x50,W
0A626:  MOVWF  01
0A628:  MOVLW  00
0A62A:  ADDWFC x51,W
0A62C:  MOVWF  03
0A62E:  MOVF   01,W
0A630:  ADDLW  88
0A632:  MOVWF  FE9
0A634:  MOVLW  05
0A636:  ADDWFC 03,W
0A638:  MOVWF  FEA
0A63A:  MOVFF  FEF,650
0A63E:  MOVLW  01
0A640:  MOVLB  1
0A642:  SUBWF  xEC,W
0A644:  MULLW  08
0A646:  MOVF   FF3,W
0A648:  MOVLB  6
0A64A:  CLRF   x52
0A64C:  MOVWF  x51
0A64E:  MOVLW  02
0A650:  ADDWF  x51,W
0A652:  MOVWF  01
0A654:  MOVLW  00
0A656:  ADDWFC x52,W
0A658:  MOVWF  03
0A65A:  MOVF   01,W
0A65C:  ADDLW  88
0A65E:  MOVWF  FE9
0A660:  MOVLW  05
0A662:  ADDWFC 03,W
0A664:  MOVWF  FEA
0A666:  MOVFF  FEF,651
0A66A:  MOVLW  26
0A66C:  MOVWF  FF6
0A66E:  MOVLW  11
0A670:  MOVWF  FF7
0A672:  MOVLW  00
0A674:  MOVWF  FF8
0A676:  MOVLW  0A
0A678:  MOVWF  x55
0A67A:  MOVLB  0
0A67C:  CALL   56B2
0A680:  MOVFF  650,655
0A684:  MOVLW  01
0A686:  MOVLB  6
0A688:  MOVWF  x56
0A68A:  MOVLB  0
0A68C:  CALL   599E
0A690:  MOVLW  3A
0A692:  BTFSS  F9E.4
0A694:  BRA    A692
0A696:  MOVWF  FAD
0A698:  MOVFF  651,655
0A69C:  MOVLW  01
0A69E:  MOVLB  6
0A6A0:  MOVWF  x56
0A6A2:  MOVLB  0
0A6A4:  CALL   599E
0A6A8:  MOVLW  22
0A6AA:  BTFSS  F9E.4
0A6AC:  BRA    A6AA
0A6AE:  MOVWF  FAD
....................          SendDataDisplay(); 
0A6B0:  CALL   3F6A
....................          printf("tsec.txt=\"%02u:%02u\"",CiclosPersonalizados[CicloLibre-1].Minutosec,CiclosPersonalizados[CicloLibre-1].Segundosec); 
0A6B4:  MOVLW  01
0A6B6:  MOVLB  1
0A6B8:  SUBWF  xEC,W
0A6BA:  MULLW  08
0A6BC:  MOVF   FF3,W
0A6BE:  MOVLB  6
0A6C0:  CLRF   x51
0A6C2:  MOVWF  x50
0A6C4:  MOVLW  03
0A6C6:  ADDWF  x50,W
0A6C8:  MOVWF  01
0A6CA:  MOVLW  00
0A6CC:  ADDWFC x51,W
0A6CE:  MOVWF  03
0A6D0:  MOVF   01,W
0A6D2:  ADDLW  88
0A6D4:  MOVWF  FE9
0A6D6:  MOVLW  05
0A6D8:  ADDWFC 03,W
0A6DA:  MOVWF  FEA
0A6DC:  MOVFF  FEF,650
0A6E0:  MOVLW  01
0A6E2:  MOVLB  1
0A6E4:  SUBWF  xEC,W
0A6E6:  MULLW  08
0A6E8:  MOVF   FF3,W
0A6EA:  MOVLB  6
0A6EC:  CLRF   x52
0A6EE:  MOVWF  x51
0A6F0:  MOVLW  04
0A6F2:  ADDWF  x51,W
0A6F4:  MOVWF  01
0A6F6:  MOVLW  00
0A6F8:  ADDWFC x52,W
0A6FA:  MOVWF  03
0A6FC:  MOVF   01,W
0A6FE:  ADDLW  88
0A700:  MOVWF  FE9
0A702:  MOVLW  05
0A704:  ADDWFC 03,W
0A706:  MOVWF  FEA
0A708:  MOVFF  FEF,651
0A70C:  MOVLW  3C
0A70E:  MOVWF  FF6
0A710:  MOVLW  11
0A712:  MOVWF  FF7
0A714:  MOVLW  00
0A716:  MOVWF  FF8
0A718:  MOVLW  0A
0A71A:  MOVWF  x55
0A71C:  MOVLB  0
0A71E:  CALL   56B2
0A722:  MOVFF  650,655
0A726:  MOVLW  01
0A728:  MOVLB  6
0A72A:  MOVWF  x56
0A72C:  MOVLB  0
0A72E:  CALL   599E
0A732:  MOVLW  3A
0A734:  BTFSS  F9E.4
0A736:  BRA    A734
0A738:  MOVWF  FAD
0A73A:  MOVFF  651,655
0A73E:  MOVLW  01
0A740:  MOVLB  6
0A742:  MOVWF  x56
0A744:  MOVLB  0
0A746:  CALL   599E
0A74A:  MOVLW  22
0A74C:  BTFSS  F9E.4
0A74E:  BRA    A74C
0A750:  MOVWF  FAD
....................          SendDataDisplay(); 
0A752:  CALL   3F6A
....................          printf("pulsos.txt=\"%02u\"",CiclosPersonalizados[CicloLibre-1].PulsosVacio); 
0A756:  MOVLW  01
0A758:  MOVLB  1
0A75A:  SUBWF  xEC,W
0A75C:  MULLW  08
0A75E:  MOVF   FF3,W
0A760:  MOVLB  6
0A762:  CLRF   x51
0A764:  MOVWF  x50
0A766:  MOVLW  05
0A768:  ADDWF  x50,W
0A76A:  MOVWF  01
0A76C:  MOVLW  00
0A76E:  ADDWFC x51,W
0A770:  MOVWF  03
0A772:  MOVF   01,W
0A774:  ADDLW  88
0A776:  MOVWF  FE9
0A778:  MOVLW  05
0A77A:  ADDWFC 03,W
0A77C:  MOVWF  FEA
0A77E:  MOVFF  FEF,650
0A782:  MOVLW  52
0A784:  MOVWF  FF6
0A786:  MOVLW  11
0A788:  MOVWF  FF7
0A78A:  MOVLW  00
0A78C:  MOVWF  FF8
0A78E:  MOVLW  0C
0A790:  MOVWF  x55
0A792:  MOVLB  0
0A794:  CALL   56B2
0A798:  MOVFF  650,655
0A79C:  MOVLW  01
0A79E:  MOVLB  6
0A7A0:  MOVWF  x56
0A7A2:  MOVLB  0
0A7A4:  CALL   599E
0A7A8:  MOVLW  22
0A7AA:  BTFSS  F9E.4
0A7AC:  BRA    A7AA
0A7AE:  MOVWF  FAD
....................          SendDataDisplay(); 
0A7B0:  CALL   3F6A
....................          printf("vacio.txt=\"%03u kPa\"",CiclosPersonalizados[CicloLibre-1].NivelVacio); 
0A7B4:  MOVLW  01
0A7B6:  MOVLB  1
0A7B8:  SUBWF  xEC,W
0A7BA:  MULLW  08
0A7BC:  MOVF   FF3,W
0A7BE:  MOVLB  6
0A7C0:  CLRF   x51
0A7C2:  MOVWF  x50
0A7C4:  MOVLW  06
0A7C6:  ADDWF  x50,W
0A7C8:  MOVWF  01
0A7CA:  MOVLW  00
0A7CC:  ADDWFC x51,W
0A7CE:  MOVWF  03
0A7D0:  MOVF   01,W
0A7D2:  ADDLW  88
0A7D4:  MOVWF  FE9
0A7D6:  MOVLW  05
0A7D8:  ADDWFC 03,W
0A7DA:  MOVWF  FEA
0A7DC:  MOVFF  FEF,650
0A7E0:  MOVLW  64
0A7E2:  MOVWF  FF6
0A7E4:  MOVLW  11
0A7E6:  MOVWF  FF7
0A7E8:  MOVLW  00
0A7EA:  MOVWF  FF8
0A7EC:  MOVLW  0B
0A7EE:  MOVWF  x55
0A7F0:  MOVLB  0
0A7F2:  CALL   56B2
0A7F6:  MOVFF  650,655
0A7FA:  MOVLW  03
0A7FC:  MOVLB  6
0A7FE:  MOVWF  x56
0A800:  MOVLB  0
0A802:  CALL   599E
0A806:  MOVLW  73
0A808:  MOVWF  FF6
0A80A:  MOVLW  11
0A80C:  MOVWF  FF7
0A80E:  MOVLW  00
0A810:  MOVWF  FF8
0A812:  MOVLW  05
0A814:  MOVLB  6
0A816:  MOVWF  x55
0A818:  MOVLB  0
0A81A:  CALL   56B2
....................          SendDataDisplay(); 
0A81E:  CALL   3F6A
....................          printf("desfogue.txt=\"%u\"",CiclosPersonalizados[CicloLibre-1].NivelDesfogue); 
0A822:  MOVLW  01
0A824:  MOVLB  1
0A826:  SUBWF  xEC,W
0A828:  MULLW  08
0A82A:  MOVF   FF3,W
0A82C:  MOVLB  6
0A82E:  CLRF   x51
0A830:  MOVWF  x50
0A832:  MOVLW  07
0A834:  ADDWF  x50,W
0A836:  MOVWF  01
0A838:  MOVLW  00
0A83A:  ADDWFC x51,W
0A83C:  MOVWF  03
0A83E:  MOVF   01,W
0A840:  ADDLW  88
0A842:  MOVWF  FE9
0A844:  MOVLW  05
0A846:  ADDWFC 03,W
0A848:  MOVWF  FEA
0A84A:  MOVFF  FEF,650
0A84E:  MOVLW  7A
0A850:  MOVWF  FF6
0A852:  MOVLW  11
0A854:  MOVWF  FF7
0A856:  MOVLW  00
0A858:  MOVWF  FF8
0A85A:  MOVLW  0E
0A85C:  MOVWF  x55
0A85E:  MOVLB  0
0A860:  CALL   56B2
0A864:  MOVFF  650,655
0A868:  MOVLW  1B
0A86A:  MOVLB  6
0A86C:  MOVWF  x56
0A86E:  MOVLB  0
0A870:  CALL   599E
0A874:  MOVLW  22
0A876:  BTFSS  F9E.4
0A878:  BRA    A876
0A87A:  MOVWF  FAD
....................          //printf("desfogue.txt=\"N/A\""); 
....................          SendDataDisplay(); 
0A87C:  CALL   3F6A
0A880:  MOVLB  1
....................       } 
....................        
....................       if(RX_Buffer[4]==0xa0){//a0, Menu Principal 
0A882:  MOVF   34,W
0A884:  SUBLW  A0
0A886:  BNZ   A8A0
....................          printf("page Menu"); 
0A888:  MOVLW  8C
0A88A:  MOVWF  FF6
0A88C:  MOVLW  11
0A88E:  MOVWF  FF7
0A890:  MOVLW  00
0A892:  MOVWF  FF8
0A894:  MOVLB  0
0A896:  CALL   3F38
....................          SendDataDisplay();      
0A89A:  CALL   3F6A
0A89E:  MOVLB  1
....................       } 
....................        
....................       if(RX_Buffer[4]==0xb0){//b0, Personalizados 
0A8A0:  MOVF   34,W
0A8A2:  SUBLW  B0
0A8A4:  BNZ   A8BE
....................          printf("page CicloPersona"); 
0A8A6:  MOVLW  96
0A8A8:  MOVWF  FF6
0A8AA:  MOVLW  11
0A8AC:  MOVWF  FF7
0A8AE:  MOVLW  00
0A8B0:  MOVWF  FF8
0A8B2:  MOVLB  0
0A8B4:  CALL   3F38
....................          SendDataDisplay();      
0A8B8:  CALL   3F6A
0A8BC:  MOVLB  1
....................       } 
....................        
....................       if(RX_Buffer[4]==0xc0){//c0, Configuraciones 
0A8BE:  MOVF   34,W
0A8C0:  SUBLW  C0
0A8C2:  BNZ   A8EA
....................          if(codigoUsuario==0 || codigoUsuario==9){   
0A8C4:  MOVLB  2
0A8C6:  MOVF   x50,F
0A8C8:  BZ    A8D0
0A8CA:  MOVF   x50,W
0A8CC:  SUBLW  09
0A8CE:  BNZ   A8E8
....................             printf("page Ajustes"); 
0A8D0:  MOVLW  A8
0A8D2:  MOVWF  FF6
0A8D4:  MOVLW  11
0A8D6:  MOVWF  FF7
0A8D8:  MOVLW  00
0A8DA:  MOVWF  FF8
0A8DC:  MOVLB  0
0A8DE:  CALL   3F38
....................             SendDataDisplay();      
0A8E2:  CALL   3F6A
0A8E6:  MOVLB  2
0A8E8:  MOVLB  1
....................          } 
....................       } 
....................        
....................       if(RX_Buffer[4]==0x20 && CicloLibre>0){//20, Temperatura 
0A8EA:  MOVF   34,W
0A8EC:  SUBLW  20
0A8EE:  BNZ   A93A
0A8F0:  MOVF   xEC,F
0A8F2:  BZ    A93A
....................          if(codigoUsuario==0 || codigoUsuario==9){   
0A8F4:  MOVLB  2
0A8F6:  MOVF   x50,F
0A8F8:  BZ    A900
0A8FA:  MOVF   x50,W
0A8FC:  SUBLW  09
0A8FE:  BNZ   A938
....................             printf("page Temperatura"); 
0A900:  MOVLW  B6
0A902:  MOVWF  FF6
0A904:  MOVLW  11
0A906:  MOVWF  FF7
0A908:  MOVLW  00
0A90A:  MOVWF  FF8
0A90C:  MOVLB  0
0A90E:  CALL   3F38
....................             SendDataDisplay();      
0A912:  CALL   3F6A
....................             Setpoint=CiclosPersonalizados[CicloLibre-1].Temperatura; 
0A916:  MOVLW  01
0A918:  MOVLB  1
0A91A:  SUBWF  xEC,W
0A91C:  MULLW  08
0A91E:  MOVF   FF3,W
0A920:  MOVLB  6
0A922:  CLRF   x51
0A924:  MOVWF  x50
0A926:  MOVLW  88
0A928:  ADDWF  x50,W
0A92A:  MOVWF  FE9
0A92C:  MOVLW  05
0A92E:  ADDWFC x51,W
0A930:  MOVWF  FEA
0A932:  MOVFF  FEF,202
0A936:  MOVLB  2
0A938:  MOVLB  1
....................          } 
....................       } 
....................        
....................       if(RX_Buffer[4]==0x30 && CicloLibre>0){//30, Test 
0A93A:  MOVF   34,W
0A93C:  SUBLW  30
0A93E:  BNZ   A9C6
0A940:  MOVF   xEC,F
0A942:  BZ    A9C6
....................          if(codigoUsuario==0 || codigoUsuario==9){   
0A944:  MOVLB  2
0A946:  MOVF   x50,F
0A948:  BZ    A950
0A94A:  MOVF   x50,W
0A94C:  SUBLW  09
0A94E:  BNZ   A9C4
....................             printf("page TiempoEst"); 
0A950:  MOVLW  C8
0A952:  MOVWF  FF6
0A954:  MOVLW  11
0A956:  MOVWF  FF7
0A958:  MOVLW  00
0A95A:  MOVWF  FF8
0A95C:  MOVLB  0
0A95E:  CALL   3F38
....................             SendDataDisplay();      
0A962:  CALL   3F6A
....................             mEstp=CiclosPersonalizados[CicloLibre-1].Minutoest; 
0A966:  MOVLW  01
0A968:  MOVLB  1
0A96A:  SUBWF  xEC,W
0A96C:  MULLW  08
0A96E:  MOVF   FF3,W
0A970:  MOVLB  6
0A972:  CLRF   x51
0A974:  MOVWF  x50
0A976:  MOVLW  01
0A978:  ADDWF  x50,W
0A97A:  MOVWF  01
0A97C:  MOVLW  00
0A97E:  ADDWFC x51,W
0A980:  MOVWF  03
0A982:  MOVF   01,W
0A984:  ADDLW  88
0A986:  MOVWF  FE9
0A988:  MOVLW  05
0A98A:  ADDWFC 03,W
0A98C:  MOVWF  FEA
0A98E:  MOVFF  FEF,C4
0A992:  MOVLB  0
....................             sEstp=CiclosPersonalizados[CicloLibre-1].Segundoest; 
0A994:  MOVLW  01
0A996:  MOVLB  1
0A998:  SUBWF  xEC,W
0A99A:  MULLW  08
0A99C:  MOVF   FF3,W
0A99E:  MOVLB  6
0A9A0:  CLRF   x51
0A9A2:  MOVWF  x50
0A9A4:  MOVLW  02
0A9A6:  ADDWF  x50,W
0A9A8:  MOVWF  01
0A9AA:  MOVLW  00
0A9AC:  ADDWFC x51,W
0A9AE:  MOVWF  03
0A9B0:  MOVF   01,W
0A9B2:  ADDLW  88
0A9B4:  MOVWF  FE9
0A9B6:  MOVLW  05
0A9B8:  ADDWFC 03,W
0A9BA:  MOVWF  FEA
0A9BC:  MOVFF  FEF,C3
0A9C0:  MOVLB  0
0A9C2:  MOVLB  2
0A9C4:  MOVLB  1
....................          } 
....................       } 
....................        
....................       if(RX_Buffer[4]==0x40 && CicloLibre>0){//40, Tsec 
0A9C6:  MOVF   34,W
0A9C8:  SUBLW  40
0A9CA:  BNZ   AA52
0A9CC:  MOVF   xEC,F
0A9CE:  BZ    AA52
....................          if(codigoUsuario==0 || codigoUsuario==9){   
0A9D0:  MOVLB  2
0A9D2:  MOVF   x50,F
0A9D4:  BZ    A9DC
0A9D6:  MOVF   x50,W
0A9D8:  SUBLW  09
0A9DA:  BNZ   AA50
....................             printf("page TiempoSec"); 
0A9DC:  MOVLW  D8
0A9DE:  MOVWF  FF6
0A9E0:  MOVLW  11
0A9E2:  MOVWF  FF7
0A9E4:  MOVLW  00
0A9E6:  MOVWF  FF8
0A9E8:  MOVLB  0
0A9EA:  CALL   3F38
....................             SendDataDisplay();    
0A9EE:  CALL   3F6A
....................             mSecp=CiclosPersonalizados[CicloLibre-1].Minutosec; 
0A9F2:  MOVLW  01
0A9F4:  MOVLB  1
0A9F6:  SUBWF  xEC,W
0A9F8:  MULLW  08
0A9FA:  MOVF   FF3,W
0A9FC:  MOVLB  6
0A9FE:  CLRF   x51
0AA00:  MOVWF  x50
0AA02:  MOVLW  03
0AA04:  ADDWF  x50,W
0AA06:  MOVWF  01
0AA08:  MOVLW  00
0AA0A:  ADDWFC x51,W
0AA0C:  MOVWF  03
0AA0E:  MOVF   01,W
0AA10:  ADDLW  88
0AA12:  MOVWF  FE9
0AA14:  MOVLW  05
0AA16:  ADDWFC 03,W
0AA18:  MOVWF  FEA
0AA1A:  MOVFF  FEF,C6
0AA1E:  MOVLB  0
....................             sSecp=CiclosPersonalizados[CicloLibre-1].Segundosec; 
0AA20:  MOVLW  01
0AA22:  MOVLB  1
0AA24:  SUBWF  xEC,W
0AA26:  MULLW  08
0AA28:  MOVF   FF3,W
0AA2A:  MOVLB  6
0AA2C:  CLRF   x51
0AA2E:  MOVWF  x50
0AA30:  MOVLW  04
0AA32:  ADDWF  x50,W
0AA34:  MOVWF  01
0AA36:  MOVLW  00
0AA38:  ADDWFC x51,W
0AA3A:  MOVWF  03
0AA3C:  MOVF   01,W
0AA3E:  ADDLW  88
0AA40:  MOVWF  FE9
0AA42:  MOVLW  05
0AA44:  ADDWFC 03,W
0AA46:  MOVWF  FEA
0AA48:  MOVFF  FEF,C5
0AA4C:  MOVLB  0
0AA4E:  MOVLB  2
0AA50:  MOVLB  1
....................          } 
....................       } 
....................        
....................       if(RX_Buffer[4]==0x50 && CicloLibre>0){//50, PulsosVacio 
0AA52:  MOVF   34,W
0AA54:  SUBLW  50
0AA56:  BNZ   AAAE
0AA58:  MOVF   xEC,F
0AA5A:  BZ    AAAE
....................          if(codigoUsuario==0 || codigoUsuario==9){   
0AA5C:  MOVLB  2
0AA5E:  MOVF   x50,F
0AA60:  BZ    AA68
0AA62:  MOVF   x50,W
0AA64:  SUBLW  09
0AA66:  BNZ   AAAC
....................             printf("page Pulsos"); 
0AA68:  MOVLW  E8
0AA6A:  MOVWF  FF6
0AA6C:  MOVLW  11
0AA6E:  MOVWF  FF7
0AA70:  MOVLW  00
0AA72:  MOVWF  FF8
0AA74:  MOVLB  0
0AA76:  CALL   3F38
....................             SendDataDisplay();      
0AA7A:  CALL   3F6A
....................             Pulsos=CiclosPersonalizados[CicloLibre-1].PulsosVacio; 
0AA7E:  MOVLW  01
0AA80:  MOVLB  1
0AA82:  SUBWF  xEC,W
0AA84:  MULLW  08
0AA86:  MOVF   FF3,W
0AA88:  MOVLB  6
0AA8A:  CLRF   x51
0AA8C:  MOVWF  x50
0AA8E:  MOVLW  05
0AA90:  ADDWF  x50,W
0AA92:  MOVWF  01
0AA94:  MOVLW  00
0AA96:  ADDWFC x51,W
0AA98:  MOVWF  03
0AA9A:  MOVF   01,W
0AA9C:  ADDLW  88
0AA9E:  MOVWF  FE9
0AAA0:  MOVLW  05
0AAA2:  ADDWFC 03,W
0AAA4:  MOVWF  FEA
0AAA6:  MOVFF  FEF,24E
0AAAA:  MOVLB  2
0AAAC:  MOVLB  1
....................          } 
....................       } 
....................        
....................       if(RX_Buffer[4]==0x60 && CicloLibre>0){//60, NivelVacio 
0AAAE:  MOVF   34,W
0AAB0:  SUBLW  60
0AAB2:  BNZ   AB10
0AAB4:  MOVF   xEC,F
0AAB6:  BZ    AB10
....................          if(codigoUsuario==0 || codigoUsuario==9){   
0AAB8:  MOVLB  2
0AABA:  MOVF   x50,F
0AABC:  BZ    AAC4
0AABE:  MOVF   x50,W
0AAC0:  SUBLW  09
0AAC2:  BNZ   AB0E
....................             printf("page Nivel"); 
0AAC4:  MOVLW  F4
0AAC6:  MOVWF  FF6
0AAC8:  MOVLW  11
0AACA:  MOVWF  FF7
0AACC:  MOVLW  00
0AACE:  MOVWF  FF8
0AAD0:  MOVLB  0
0AAD2:  CALL   3F38
....................             SendDataDisplay();      
0AAD6:  CALL   3F6A
....................             Nivel=CiclosPersonalizados[CicloLibre-1].NivelVacio; 
0AADA:  MOVLW  01
0AADC:  MOVLB  1
0AADE:  SUBWF  xEC,W
0AAE0:  MULLW  08
0AAE2:  MOVF   FF3,W
0AAE4:  MOVLB  6
0AAE6:  CLRF   x51
0AAE8:  MOVWF  x50
0AAEA:  MOVLW  06
0AAEC:  ADDWF  x50,W
0AAEE:  MOVWF  01
0AAF0:  MOVLW  00
0AAF2:  ADDWFC x51,W
0AAF4:  MOVWF  03
0AAF6:  MOVF   01,W
0AAF8:  ADDLW  88
0AAFA:  MOVWF  FE9
0AAFC:  MOVLW  05
0AAFE:  ADDWFC 03,W
0AB00:  MOVWF  FEA
0AB02:  MOVF   FEF,W
0AB04:  CLRF   03
0AB06:  MOVLB  2
0AB08:  MOVWF  x0F
0AB0A:  MOVFF  03,210
0AB0E:  MOVLB  1
....................          } 
....................       } 
....................        
....................       if(RX_Buffer[4]==0x80 && CicloLibre>0){//80, NivelDesfogue 
0AB10:  MOVF   34,W
0AB12:  SUBLW  80
0AB14:  BNZ   AB6C
0AB16:  MOVF   xEC,F
0AB18:  BZ    AB6C
....................          if(codigoUsuario==0 || codigoUsuario==9){   
0AB1A:  MOVLB  2
0AB1C:  MOVF   x50,F
0AB1E:  BZ    AB26
0AB20:  MOVF   x50,W
0AB22:  SUBLW  09
0AB24:  BNZ   AB6A
....................             printf("page NivelDes"); 
0AB26:  MOVLW  00
0AB28:  MOVWF  FF6
0AB2A:  MOVLW  12
0AB2C:  MOVWF  FF7
0AB2E:  MOVLW  00
0AB30:  MOVWF  FF8
0AB32:  MOVLB  0
0AB34:  CALL   3F38
....................             SendDataDisplay();      
0AB38:  CALL   3F6A
....................             NivelDes=CiclosPersonalizados[CicloLibre-1].NivelDesfogue; 
0AB3C:  MOVLW  01
0AB3E:  MOVLB  1
0AB40:  SUBWF  xEC,W
0AB42:  MULLW  08
0AB44:  MOVF   FF3,W
0AB46:  MOVLB  6
0AB48:  CLRF   x51
0AB4A:  MOVWF  x50
0AB4C:  MOVLW  07
0AB4E:  ADDWF  x50,W
0AB50:  MOVWF  01
0AB52:  MOVLW  00
0AB54:  ADDWFC x51,W
0AB56:  MOVWF  03
0AB58:  MOVF   01,W
0AB5A:  ADDLW  88
0AB5C:  MOVWF  FE9
0AB5E:  MOVLW  05
0AB60:  ADDWFC 03,W
0AB62:  MOVWF  FEA
0AB64:  MOVFF  FEF,22B
0AB68:  MOVLB  2
0AB6A:  MOVLB  1
....................          } 
....................       } 
....................        
....................       if(RX_Buffer[4]==0x70 && CicloLibre>0){//70, Iniciar Ciclo 
0AB6C:  MOVF   34,W
0AB6E:  SUBLW  70
0AB70:  BTFSS  FD8.2
0AB72:  BRA    AF30
0AB74:  MOVF   xEC,F
0AB76:  BTFSC  FD8.2
0AB78:  BRA    AF30
....................          printf("page Funcionamiento"); 
0AB7A:  MOVLW  0E
0AB7C:  MOVWF  FF6
0AB7E:  MOVLW  12
0AB80:  MOVWF  FF7
0AB82:  MOVLW  00
0AB84:  MOVWF  FF8
0AB86:  MOVLB  0
0AB88:  CALL   3F38
....................          SendDataDisplay();        
0AB8C:  CALL   3F6A
....................          Libre=ON; 
0AB90:  BSF    xA9.7
....................          if(CiclosPersonalizados[CicloLibre-1].NivelDesfogue>5){ 
0AB92:  MOVLW  01
0AB94:  MOVLB  1
0AB96:  SUBWF  xEC,W
0AB98:  MULLW  08
0AB9A:  MOVF   FF3,W
0AB9C:  MOVLB  6
0AB9E:  CLRF   x51
0ABA0:  MOVWF  x50
0ABA2:  MOVLW  07
0ABA4:  ADDWF  x50,W
0ABA6:  MOVWF  01
0ABA8:  MOVLW  00
0ABAA:  ADDWFC x51,W
0ABAC:  MOVWF  03
0ABAE:  MOVF   01,W
0ABB0:  ADDLW  88
0ABB2:  MOVWF  FE9
0ABB4:  MOVLW  05
0ABB6:  ADDWFC 03,W
0ABB8:  MOVWF  FEA
0ABBA:  MOVF   FEF,W
0ABBC:  SUBLW  05
0ABBE:  BTFSC  FD8.0
0ABC0:  BRA    AD22
....................             ConfiguraCiclo(CiclosPersonalizados[CicloLibre-1].Segundoest,CiclosPersonalizados[CicloLibre-1].Minutoest, 
....................             CiclosPersonalizados[CicloLibre-1].Segundosec,CiclosPersonalizados[CicloLibre-1].MinutoSec,0,CicloLibre+10, 
....................             CiclosPersonalizados[CicloLibre-1].Temperatura,CiclosPersonalizados[CicloLibre-1].PulsosVacio,CiclosPersonalizados[CicloLibre-1].NivelVacio 
....................             ,0); 
0ABC2:  MOVLW  01
0ABC4:  MOVLB  1
0ABC6:  SUBWF  xEC,W
0ABC8:  MULLW  08
0ABCA:  MOVF   FF3,W
0ABCC:  MOVLB  6
0ABCE:  CLRF   x51
0ABD0:  MOVWF  x50
0ABD2:  MOVLW  02
0ABD4:  ADDWF  x50,W
0ABD6:  MOVWF  01
0ABD8:  MOVLW  00
0ABDA:  ADDWFC x51,W
0ABDC:  MOVWF  03
0ABDE:  MOVF   01,W
0ABE0:  ADDLW  88
0ABE2:  MOVWF  FE9
0ABE4:  MOVLW  05
0ABE6:  ADDWFC 03,W
0ABE8:  MOVWF  FEA
0ABEA:  MOVFF  FEF,650
0ABEE:  MOVLW  01
0ABF0:  MOVLB  1
0ABF2:  SUBWF  xEC,W
0ABF4:  MULLW  08
0ABF6:  MOVF   FF3,W
0ABF8:  MOVLB  6
0ABFA:  CLRF   x52
0ABFC:  MOVWF  x51
0ABFE:  MOVLW  01
0AC00:  ADDWF  x51,W
0AC02:  MOVWF  01
0AC04:  MOVLW  00
0AC06:  ADDWFC x52,W
0AC08:  MOVWF  03
0AC0A:  MOVF   01,W
0AC0C:  ADDLW  88
0AC0E:  MOVWF  FE9
0AC10:  MOVLW  05
0AC12:  ADDWFC 03,W
0AC14:  MOVWF  FEA
0AC16:  MOVFF  FEF,651
0AC1A:  MOVLW  01
0AC1C:  MOVLB  1
0AC1E:  SUBWF  xEC,W
0AC20:  MULLW  08
0AC22:  MOVF   FF3,W
0AC24:  MOVLB  6
0AC26:  CLRF   x53
0AC28:  MOVWF  x52
0AC2A:  MOVLW  04
0AC2C:  ADDWF  x52,W
0AC2E:  MOVWF  01
0AC30:  MOVLW  00
0AC32:  ADDWFC x53,W
0AC34:  MOVWF  03
0AC36:  MOVF   01,W
0AC38:  ADDLW  88
0AC3A:  MOVWF  FE9
0AC3C:  MOVLW  05
0AC3E:  ADDWFC 03,W
0AC40:  MOVWF  FEA
0AC42:  MOVFF  FEF,652
0AC46:  MOVLW  01
0AC48:  MOVLB  1
0AC4A:  SUBWF  xEC,W
0AC4C:  MULLW  08
0AC4E:  MOVF   FF3,W
0AC50:  MOVLB  6
0AC52:  CLRF   x54
0AC54:  MOVWF  x53
0AC56:  MOVLW  03
0AC58:  ADDWF  x53,W
0AC5A:  MOVWF  01
0AC5C:  MOVLW  00
0AC5E:  ADDWFC x54,W
0AC60:  MOVWF  03
0AC62:  MOVF   01,W
0AC64:  ADDLW  88
0AC66:  MOVWF  FE9
0AC68:  MOVLW  05
0AC6A:  ADDWFC 03,W
0AC6C:  MOVWF  FEA
0AC6E:  MOVFF  FEF,653
0AC72:  MOVLW  0A
0AC74:  MOVLB  1
0AC76:  ADDWF  xEC,W
0AC78:  MOVLB  6
0AC7A:  MOVWF  x54
0AC7C:  MOVLW  01
0AC7E:  MOVLB  1
0AC80:  SUBWF  xEC,W
0AC82:  MULLW  08
0AC84:  MOVF   FF3,W
0AC86:  MOVLB  6
0AC88:  CLRF   x56
0AC8A:  MOVWF  x55
0AC8C:  MOVLW  88
0AC8E:  ADDWF  x55,W
0AC90:  MOVWF  FE9
0AC92:  MOVLW  05
0AC94:  ADDWFC x56,W
0AC96:  MOVWF  FEA
0AC98:  MOVFF  FEF,655
0AC9C:  MOVLW  01
0AC9E:  MOVLB  1
0ACA0:  SUBWF  xEC,W
0ACA2:  MULLW  08
0ACA4:  MOVF   FF3,W
0ACA6:  MOVLB  6
0ACA8:  CLRF   x57
0ACAA:  MOVWF  x56
0ACAC:  MOVLW  05
0ACAE:  ADDWF  x56,W
0ACB0:  MOVWF  01
0ACB2:  MOVLW  00
0ACB4:  ADDWFC x57,W
0ACB6:  MOVWF  03
0ACB8:  MOVF   01,W
0ACBA:  ADDLW  88
0ACBC:  MOVWF  FE9
0ACBE:  MOVLW  05
0ACC0:  ADDWFC 03,W
0ACC2:  MOVWF  FEA
0ACC4:  MOVFF  FEF,656
0ACC8:  MOVLW  01
0ACCA:  MOVLB  1
0ACCC:  SUBWF  xEC,W
0ACCE:  MULLW  08
0ACD0:  MOVF   FF3,W
0ACD2:  MOVLB  6
0ACD4:  CLRF   x58
0ACD6:  MOVWF  x57
0ACD8:  MOVLW  06
0ACDA:  ADDWF  x57,W
0ACDC:  MOVWF  01
0ACDE:  MOVLW  00
0ACE0:  ADDWFC x58,W
0ACE2:  MOVWF  03
0ACE4:  MOVF   01,W
0ACE6:  ADDLW  88
0ACE8:  MOVWF  FE9
0ACEA:  MOVLW  05
0ACEC:  ADDWFC 03,W
0ACEE:  MOVWF  FEA
0ACF0:  MOVFF  FEF,657
0ACF4:  MOVFF  650,658
0ACF8:  MOVFF  651,659
0ACFC:  MOVFF  652,65A
0AD00:  MOVFF  653,65B
0AD04:  CLRF   x5C
0AD06:  MOVFF  654,65D
0AD0A:  MOVFF  655,65E
0AD0E:  MOVFF  656,65F
0AD12:  MOVFF  657,660
0AD16:  CLRF   x61
0AD18:  MOVLB  0
0AD1A:  CALL   5A1C
....................          }else{ 
0AD1E:  BRA    AEC8
0AD20:  MOVLB  6
....................             ConfiguraCiclo(CiclosPersonalizados[CicloLibre-1].Segundoest,CiclosPersonalizados[CicloLibre-1].Minutoest, 
....................             CiclosPersonalizados[CicloLibre-1].Segundosec,CiclosPersonalizados[CicloLibre-1].MinutoSec,1,CicloLibre+10, 
....................             CiclosPersonalizados[CicloLibre-1].Temperatura,CiclosPersonalizados[CicloLibre-1].PulsosVacio,CiclosPersonalizados[CicloLibre-1].NivelVacio 
....................             ,0); 
0AD22:  MOVLW  01
0AD24:  MOVLB  1
0AD26:  SUBWF  xEC,W
0AD28:  MULLW  08
0AD2A:  MOVF   FF3,W
0AD2C:  MOVLB  6
0AD2E:  CLRF   x51
0AD30:  MOVWF  x50
0AD32:  MOVLW  02
0AD34:  ADDWF  x50,W
0AD36:  MOVWF  01
0AD38:  MOVLW  00
0AD3A:  ADDWFC x51,W
0AD3C:  MOVWF  03
0AD3E:  MOVF   01,W
0AD40:  ADDLW  88
0AD42:  MOVWF  FE9
0AD44:  MOVLW  05
0AD46:  ADDWFC 03,W
0AD48:  MOVWF  FEA
0AD4A:  MOVFF  FEF,650
0AD4E:  MOVLW  01
0AD50:  MOVLB  1
0AD52:  SUBWF  xEC,W
0AD54:  MULLW  08
0AD56:  MOVF   FF3,W
0AD58:  MOVLB  6
0AD5A:  CLRF   x52
0AD5C:  MOVWF  x51
0AD5E:  MOVLW  01
0AD60:  ADDWF  x51,W
0AD62:  MOVWF  01
0AD64:  MOVLW  00
0AD66:  ADDWFC x52,W
0AD68:  MOVWF  03
0AD6A:  MOVF   01,W
0AD6C:  ADDLW  88
0AD6E:  MOVWF  FE9
0AD70:  MOVLW  05
0AD72:  ADDWFC 03,W
0AD74:  MOVWF  FEA
0AD76:  MOVFF  FEF,651
0AD7A:  MOVLW  01
0AD7C:  MOVLB  1
0AD7E:  SUBWF  xEC,W
0AD80:  MULLW  08
0AD82:  MOVF   FF3,W
0AD84:  MOVLB  6
0AD86:  CLRF   x53
0AD88:  MOVWF  x52
0AD8A:  MOVLW  04
0AD8C:  ADDWF  x52,W
0AD8E:  MOVWF  01
0AD90:  MOVLW  00
0AD92:  ADDWFC x53,W
0AD94:  MOVWF  03
0AD96:  MOVF   01,W
0AD98:  ADDLW  88
0AD9A:  MOVWF  FE9
0AD9C:  MOVLW  05
0AD9E:  ADDWFC 03,W
0ADA0:  MOVWF  FEA
0ADA2:  MOVFF  FEF,652
0ADA6:  MOVLW  01
0ADA8:  MOVLB  1
0ADAA:  SUBWF  xEC,W
0ADAC:  MULLW  08
0ADAE:  MOVF   FF3,W
0ADB0:  MOVLB  6
0ADB2:  CLRF   x54
0ADB4:  MOVWF  x53
0ADB6:  MOVLW  03
0ADB8:  ADDWF  x53,W
0ADBA:  MOVWF  01
0ADBC:  MOVLW  00
0ADBE:  ADDWFC x54,W
0ADC0:  MOVWF  03
0ADC2:  MOVF   01,W
0ADC4:  ADDLW  88
0ADC6:  MOVWF  FE9
0ADC8:  MOVLW  05
0ADCA:  ADDWFC 03,W
0ADCC:  MOVWF  FEA
0ADCE:  MOVFF  FEF,653
0ADD2:  MOVLW  0A
0ADD4:  MOVLB  1
0ADD6:  ADDWF  xEC,W
0ADD8:  MOVLB  6
0ADDA:  MOVWF  x54
0ADDC:  MOVLW  01
0ADDE:  MOVLB  1
0ADE0:  SUBWF  xEC,W
0ADE2:  MULLW  08
0ADE4:  MOVF   FF3,W
0ADE6:  MOVLB  6
0ADE8:  CLRF   x56
0ADEA:  MOVWF  x55
0ADEC:  MOVLW  88
0ADEE:  ADDWF  x55,W
0ADF0:  MOVWF  FE9
0ADF2:  MOVLW  05
0ADF4:  ADDWFC x56,W
0ADF6:  MOVWF  FEA
0ADF8:  MOVFF  FEF,655
0ADFC:  MOVLW  01
0ADFE:  MOVLB  1
0AE00:  SUBWF  xEC,W
0AE02:  MULLW  08
0AE04:  MOVF   FF3,W
0AE06:  MOVLB  6
0AE08:  CLRF   x57
0AE0A:  MOVWF  x56
0AE0C:  MOVLW  05
0AE0E:  ADDWF  x56,W
0AE10:  MOVWF  01
0AE12:  MOVLW  00
0AE14:  ADDWFC x57,W
0AE16:  MOVWF  03
0AE18:  MOVF   01,W
0AE1A:  ADDLW  88
0AE1C:  MOVWF  FE9
0AE1E:  MOVLW  05
0AE20:  ADDWFC 03,W
0AE22:  MOVWF  FEA
0AE24:  MOVFF  FEF,656
0AE28:  MOVLW  01
0AE2A:  MOVLB  1
0AE2C:  SUBWF  xEC,W
0AE2E:  MULLW  08
0AE30:  MOVF   FF3,W
0AE32:  MOVLB  6
0AE34:  CLRF   x58
0AE36:  MOVWF  x57
0AE38:  MOVLW  06
0AE3A:  ADDWF  x57,W
0AE3C:  MOVWF  01
0AE3E:  MOVLW  00
0AE40:  ADDWFC x58,W
0AE42:  MOVWF  03
0AE44:  MOVF   01,W
0AE46:  ADDLW  88
0AE48:  MOVWF  FE9
0AE4A:  MOVLW  05
0AE4C:  ADDWFC 03,W
0AE4E:  MOVWF  FEA
0AE50:  MOVFF  FEF,657
0AE54:  MOVFF  650,658
0AE58:  MOVFF  651,659
0AE5C:  MOVFF  652,65A
0AE60:  MOVFF  653,65B
0AE64:  MOVLW  01
0AE66:  MOVWF  x5C
0AE68:  MOVFF  654,65D
0AE6C:  MOVFF  655,65E
0AE70:  MOVFF  656,65F
0AE74:  MOVFF  657,660
0AE78:  CLRF   x61
0AE7A:  MOVLB  0
0AE7C:  CALL   5A1C
....................             NivelSeleccionado=4995*CiclosPersonalizados[CicloLibre-1].NivelDesfogue; 
0AE80:  MOVLW  01
0AE82:  MOVLB  1
0AE84:  SUBWF  xEC,W
0AE86:  MULLW  08
0AE88:  MOVF   FF3,W
0AE8A:  MOVLB  6
0AE8C:  CLRF   x51
0AE8E:  MOVWF  x50
0AE90:  MOVLW  07
0AE92:  ADDWF  x50,W
0AE94:  MOVWF  01
0AE96:  MOVLW  00
0AE98:  ADDWFC x51,W
0AE9A:  MOVWF  03
0AE9C:  MOVF   01,W
0AE9E:  ADDLW  88
0AEA0:  MOVWF  FE9
0AEA2:  MOVLW  05
0AEA4:  ADDWFC 03,W
0AEA6:  MOVWF  FEA
0AEA8:  MOVFF  FEF,650
0AEAC:  MOVLW  13
0AEAE:  MOVWF  x5B
0AEB0:  MOVLW  83
0AEB2:  MOVWF  x5A
0AEB4:  CLRF   x5D
0AEB6:  MOVFF  650,65C
0AEBA:  MOVLB  0
0AEBC:  CALL   21C4
0AEC0:  MOVFF  02,222
0AEC4:  MOVFF  01,221
....................          } 
....................          NivelVacio=CiclosPersonalizados[CicloLibre-1].NivelVacio; 
0AEC8:  MOVLW  01
0AECA:  MOVLB  1
0AECC:  SUBWF  xEC,W
0AECE:  MULLW  08
0AED0:  MOVF   FF3,W
0AED2:  MOVLB  6
0AED4:  CLRF   x51
0AED6:  MOVWF  x50
0AED8:  MOVLW  06
0AEDA:  ADDWF  x50,W
0AEDC:  MOVWF  01
0AEDE:  MOVLW  00
0AEE0:  ADDWFC x51,W
0AEE2:  MOVWF  03
0AEE4:  MOVF   01,W
0AEE6:  ADDLW  88
0AEE8:  MOVWF  FE9
0AEEA:  MOVLW  05
0AEEC:  ADDWFC 03,W
0AEEE:  MOVWF  FEA
0AEF0:  MOVFF  FEF,241
0AEF4:  MOVLB  2
....................          CantidadPulsos=CiclosPersonalizados[CicloLibre-1].PulsosVacio; 
0AEF6:  MOVLW  01
0AEF8:  MOVLB  1
0AEFA:  SUBWF  xEC,W
0AEFC:  MULLW  08
0AEFE:  MOVF   FF3,W
0AF00:  MOVLB  6
0AF02:  CLRF   x51
0AF04:  MOVWF  x50
0AF06:  MOVLW  05
0AF08:  ADDWF  x50,W
0AF0A:  MOVWF  01
0AF0C:  MOVLW  00
0AF0E:  ADDWFC x51,W
0AF10:  MOVWF  03
0AF12:  MOVF   01,W
0AF14:  ADDLW  88
0AF16:  MOVWF  FE9
0AF18:  MOVLW  05
0AF1A:  ADDWFC 03,W
0AF1C:  MOVWF  FEA
0AF1E:  MOVF   FEF,W
0AF20:  CLRF   03
0AF22:  MOVLB  1
0AF24:  MOVWF  xFE
0AF26:  MOVFF  03,1FF
....................          Fugas=OFF; 
0AF2A:  MOVLB  0
0AF2C:  BCF    xAA.1
0AF2E:  MOVLB  1
....................       } 
....................    } 
.................... //_--------------------------------------------------------------------------------------------------------------------------------------------------------        
....................  
.................... //_--------------------------------------------------------------------------------------------------------------------------------------------------------       
....................    if(Menu==9){//Menu de Pulsos de Vacio 
0AF30:  MOVF   xF6,W
0AF32:  SUBLW  09
0AF34:  BTFSS  FD8.2
0AF36:  BRA    B13C
....................       printf("fecha.txt=\"T:%2.1fC Fecha:%02u/%02u/20%02u Hora:%02u:%02u:%02u\"",Temperatura,Dia,Mes,Year,Hora,Minuto,Segundo); 
0AF38:  MOVLW  22
0AF3A:  MOVWF  FF6
0AF3C:  MOVLW  12
0AF3E:  MOVWF  FF7
0AF40:  MOVLW  00
0AF42:  MOVWF  FF8
0AF44:  MOVLW  0D
0AF46:  MOVLB  6
0AF48:  MOVWF  x55
0AF4A:  MOVLB  0
0AF4C:  CALL   56B2
0AF50:  MOVLW  01
0AF52:  MOVWF  FE9
0AF54:  MOVFF  1D9,658
0AF58:  MOVFF  1D8,657
0AF5C:  MOVFF  1D7,656
0AF60:  MOVFF  1D6,655
0AF64:  MOVLB  6
0AF66:  MOVWF  x59
0AF68:  MOVLB  0
0AF6A:  CALL   57CE
0AF6E:  MOVLW  34
0AF70:  MOVWF  FF6
0AF72:  MOVLW  12
0AF74:  MOVWF  FF7
0AF76:  MOVLW  00
0AF78:  MOVWF  FF8
0AF7A:  MOVLW  09
0AF7C:  MOVLB  6
0AF7E:  MOVWF  x55
0AF80:  MOVLB  0
0AF82:  CALL   56B2
0AF86:  MOVFF  23A,655
0AF8A:  MOVLW  01
0AF8C:  MOVLB  6
0AF8E:  MOVWF  x56
0AF90:  MOVLB  0
0AF92:  CALL   599E
0AF96:  MOVLW  2F
0AF98:  BTFSS  F9E.4
0AF9A:  BRA    AF98
0AF9C:  MOVWF  FAD
0AF9E:  MOVFF  239,655
0AFA2:  MOVLW  01
0AFA4:  MOVLB  6
0AFA6:  MOVWF  x56
0AFA8:  MOVLB  0
0AFAA:  CALL   599E
0AFAE:  MOVLW  2F
0AFB0:  BTFSS  F9E.4
0AFB2:  BRA    AFB0
0AFB4:  MOVWF  FAD
0AFB6:  MOVLW  32
0AFB8:  BTFSS  F9E.4
0AFBA:  BRA    AFB8
0AFBC:  MOVWF  FAD
0AFBE:  MOVLW  30
0AFC0:  BTFSS  F9E.4
0AFC2:  BRA    AFC0
0AFC4:  MOVWF  FAD
0AFC6:  MOVFF  238,655
0AFCA:  MOVLW  01
0AFCC:  MOVLB  6
0AFCE:  MOVWF  x56
0AFD0:  MOVLB  0
0AFD2:  CALL   599E
0AFD6:  MOVLW  4D
0AFD8:  MOVWF  FF6
0AFDA:  MOVLW  12
0AFDC:  MOVWF  FF7
0AFDE:  MOVLW  00
0AFE0:  MOVWF  FF8
0AFE2:  MOVLW  06
0AFE4:  MOVLB  6
0AFE6:  MOVWF  x55
0AFE8:  MOVLB  0
0AFEA:  CALL   56B2
0AFEE:  MOVFF  23B,655
0AFF2:  MOVLW  01
0AFF4:  MOVLB  6
0AFF6:  MOVWF  x56
0AFF8:  MOVLB  0
0AFFA:  CALL   599E
0AFFE:  MOVLW  3A
0B000:  BTFSS  F9E.4
0B002:  BRA    B000
0B004:  MOVWF  FAD
0B006:  MOVFF  23C,655
0B00A:  MOVLW  01
0B00C:  MOVLB  6
0B00E:  MOVWF  x56
0B010:  MOVLB  0
0B012:  CALL   599E
0B016:  MOVLW  3A
0B018:  BTFSS  F9E.4
0B01A:  BRA    B018
0B01C:  MOVWF  FAD
0B01E:  MOVFF  23D,655
0B022:  MOVLW  01
0B024:  MOVLB  6
0B026:  MOVWF  x56
0B028:  MOVLB  0
0B02A:  CALL   599E
0B02E:  MOVLW  22
0B030:  BTFSS  F9E.4
0B032:  BRA    B030
0B034:  MOVWF  FAD
....................       SendDataDisplay(); 
0B036:  CALL   3F6A
....................          if(Pulsos<4) 
0B03A:  MOVLB  2
0B03C:  MOVF   x4E,W
0B03E:  SUBLW  03
0B040:  BNC   B046
....................             Pulsos=15; 
0B042:  MOVLW  0F
0B044:  MOVWF  x4E
....................          if(Pulsos>15) 
0B046:  MOVF   x4E,W
0B048:  SUBLW  0F
0B04A:  BC    B050
....................             Pulsos=4; 
0B04C:  MOVLW  04
0B04E:  MOVWF  x4E
....................           
....................          if(RX_Buffer[4]==0x11){//Selecciono Regresar 
0B050:  MOVF   34,W
0B052:  SUBLW  11
0B054:  BNZ   B0EE
....................             Segundos=OFF; 
0B056:  MOVLB  0
0B058:  BCF    xA8.3
....................             Minutos=OFF;             
0B05A:  BCF    xA8.2
....................             printf("page CicloPersona"); 
0B05C:  MOVLW  64
0B05E:  MOVWF  FF6
0B060:  MOVLW  12
0B062:  MOVWF  FF7
0B064:  MOVLW  00
0B066:  MOVWF  FF8
0B068:  CALL   3F38
....................             SendDataDisplay();   
0B06C:  CALL   3F6A
....................             if(!GuardaEEPROM){     
0B070:  BTFSC  xA8.4
0B072:  BRA    B0EC
....................                CiclosPersonalizados[CicloLibre-1].PulsosVacio=Pulsos; 
0B074:  MOVLW  01
0B076:  MOVLB  1
0B078:  SUBWF  xEC,W
0B07A:  MULLW  08
0B07C:  MOVF   FF3,W
0B07E:  MOVLB  6
0B080:  CLRF   x51
0B082:  MOVWF  x50
0B084:  MOVLW  05
0B086:  ADDWF  x50,W
0B088:  MOVWF  01
0B08A:  MOVLW  00
0B08C:  ADDWFC x51,W
0B08E:  MOVWF  03
0B090:  MOVF   01,W
0B092:  ADDLW  88
0B094:  MOVWF  FE9
0B096:  MOVLW  05
0B098:  ADDWFC 03,W
0B09A:  MOVWF  FEA
0B09C:  MOVFF  24E,FEF
....................                write_eeprom(105+((CicloLibre-1)*8),Pulsos); 
0B0A0:  MOVLW  01
0B0A2:  MOVLB  1
0B0A4:  SUBWF  xEC,W
0B0A6:  MULLW  08
0B0A8:  MOVF   FF3,W
0B0AA:  ADDLW  69
0B0AC:  MOVLB  6
0B0AE:  MOVWF  x50
0B0B0:  CLRF   FAA
0B0B2:  MOVFF  650,FA9
0B0B6:  MOVFF  24E,FA8
0B0BA:  BCF    FA6.6
0B0BC:  BCF    FA6.7
0B0BE:  BSF    FA6.2
0B0C0:  MOVF   FF2,W
0B0C2:  MOVWF  00
0B0C4:  BCF    FF2.6
0B0C6:  BCF    FF2.7
0B0C8:  MOVLB  F
0B0CA:  MOVLW  55
0B0CC:  MOVWF  FA7
0B0CE:  MOVLW  AA
0B0D0:  MOVWF  FA7
0B0D2:  BSF    FA6.1
0B0D4:  BTFSC  FA6.1
0B0D6:  BRA    B0D4
0B0D8:  BCF    FA6.2
0B0DA:  MOVF   00,W
0B0DC:  IORWF  FF2,F
....................                delay_ms(20);             
0B0DE:  MOVLW  14
0B0E0:  MOVLB  6
0B0E2:  MOVWF  x62
0B0E4:  MOVLB  0
0B0E6:  CALL   2128
....................                //NivelSeleccionado=9990*Nivel; 
....................                GuardaEEPROM=ON; 
0B0EA:  BSF    xA8.4
0B0EC:  MOVLB  2
....................             } 
....................          } 
....................           
....................          if(RX_Buffer[4]==0x0d){//Tecla Arriba Oprimida 
0B0EE:  MOVF   34,W
0B0F0:  SUBLW  0D
0B0F2:  BNZ   B0FA
....................             Pulsos++; 
0B0F4:  INCF   x4E,F
....................             RX_Buffer[4]=0x00;             
0B0F6:  CLRF   34
....................             RX_Buffer2[4]=0x00;             
0B0F8:  CLRF   3F
....................             //BorraBuffer(); 
....................          } 
....................           
....................          if(RX_Buffer[4]==0x0c){//Tecla Abajo Oprimida 
0B0FA:  MOVF   34,W
0B0FC:  SUBLW  0C
0B0FE:  BNZ   B106
....................             Pulsos--; 
0B100:  DECF   x4E,F
....................             RX_Buffer[4]=0x00; 
0B102:  CLRF   34
....................             RX_Buffer2[4]=0x00;             
0B104:  CLRF   3F
....................             //BorraBuffer(); 
....................          } 
....................           
....................       printf("tnivel.txt=\"%u\"",Pulsos); 
0B106:  MOVLW  76
0B108:  MOVWF  FF6
0B10A:  MOVLW  12
0B10C:  MOVWF  FF7
0B10E:  MOVLW  00
0B110:  MOVWF  FF8
0B112:  MOVLW  0C
0B114:  MOVLB  6
0B116:  MOVWF  x55
0B118:  MOVLB  0
0B11A:  CALL   56B2
0B11E:  MOVFF  24E,655
0B122:  MOVLW  1B
0B124:  MOVLB  6
0B126:  MOVWF  x56
0B128:  MOVLB  0
0B12A:  CALL   599E
0B12E:  MOVLW  22
0B130:  BTFSS  F9E.4
0B132:  BRA    B130
0B134:  MOVWF  FAD
....................       SendDataDisplay(); 
0B136:  CALL   3F6A
0B13A:  MOVLB  1
....................    } 
.................... //_--------------------------------------------------------------------------------------------------------------------------------------------------------       
....................  
.................... //_--------------------------------------------------------------------------------------------------------------------------------------------------------       
....................    if(Menu==10){//Menu de Usuarios 
0B13C:  MOVF   xF6,W
0B13E:  SUBLW  0A
0B140:  BTFSS  FD8.2
0B142:  BRA    B614
....................       printf("fecha.txt=\"T:%2.1fC Fecha:%02u/%02u/20%02u Hora:%02u:%02u:%02u\"",Temperatura,Dia,Mes,Year,Hora,Minuto,Segundo); 
0B144:  MOVLW  86
0B146:  MOVWF  FF6
0B148:  MOVLW  12
0B14A:  MOVWF  FF7
0B14C:  MOVLW  00
0B14E:  MOVWF  FF8
0B150:  MOVLW  0D
0B152:  MOVLB  6
0B154:  MOVWF  x55
0B156:  MOVLB  0
0B158:  CALL   56B2
0B15C:  MOVLW  01
0B15E:  MOVWF  FE9
0B160:  MOVFF  1D9,658
0B164:  MOVFF  1D8,657
0B168:  MOVFF  1D7,656
0B16C:  MOVFF  1D6,655
0B170:  MOVLB  6
0B172:  MOVWF  x59
0B174:  MOVLB  0
0B176:  CALL   57CE
0B17A:  MOVLW  98
0B17C:  MOVWF  FF6
0B17E:  MOVLW  12
0B180:  MOVWF  FF7
0B182:  MOVLW  00
0B184:  MOVWF  FF8
0B186:  MOVLW  09
0B188:  MOVLB  6
0B18A:  MOVWF  x55
0B18C:  MOVLB  0
0B18E:  CALL   56B2
0B192:  MOVFF  23A,655
0B196:  MOVLW  01
0B198:  MOVLB  6
0B19A:  MOVWF  x56
0B19C:  MOVLB  0
0B19E:  CALL   599E
0B1A2:  MOVLW  2F
0B1A4:  BTFSS  F9E.4
0B1A6:  BRA    B1A4
0B1A8:  MOVWF  FAD
0B1AA:  MOVFF  239,655
0B1AE:  MOVLW  01
0B1B0:  MOVLB  6
0B1B2:  MOVWF  x56
0B1B4:  MOVLB  0
0B1B6:  CALL   599E
0B1BA:  MOVLW  2F
0B1BC:  BTFSS  F9E.4
0B1BE:  BRA    B1BC
0B1C0:  MOVWF  FAD
0B1C2:  MOVLW  32
0B1C4:  BTFSS  F9E.4
0B1C6:  BRA    B1C4
0B1C8:  MOVWF  FAD
0B1CA:  MOVLW  30
0B1CC:  BTFSS  F9E.4
0B1CE:  BRA    B1CC
0B1D0:  MOVWF  FAD
0B1D2:  MOVFF  238,655
0B1D6:  MOVLW  01
0B1D8:  MOVLB  6
0B1DA:  MOVWF  x56
0B1DC:  MOVLB  0
0B1DE:  CALL   599E
0B1E2:  MOVLW  B1
0B1E4:  MOVWF  FF6
0B1E6:  MOVLW  12
0B1E8:  MOVWF  FF7
0B1EA:  MOVLW  00
0B1EC:  MOVWF  FF8
0B1EE:  MOVLW  06
0B1F0:  MOVLB  6
0B1F2:  MOVWF  x55
0B1F4:  MOVLB  0
0B1F6:  CALL   56B2
0B1FA:  MOVFF  23B,655
0B1FE:  MOVLW  01
0B200:  MOVLB  6
0B202:  MOVWF  x56
0B204:  MOVLB  0
0B206:  CALL   599E
0B20A:  MOVLW  3A
0B20C:  BTFSS  F9E.4
0B20E:  BRA    B20C
0B210:  MOVWF  FAD
0B212:  MOVFF  23C,655
0B216:  MOVLW  01
0B218:  MOVLB  6
0B21A:  MOVWF  x56
0B21C:  MOVLB  0
0B21E:  CALL   599E
0B222:  MOVLW  3A
0B224:  BTFSS  F9E.4
0B226:  BRA    B224
0B228:  MOVWF  FAD
0B22A:  MOVFF  23D,655
0B22E:  MOVLW  01
0B230:  MOVLB  6
0B232:  MOVWF  x56
0B234:  MOVLB  0
0B236:  CALL   599E
0B23A:  MOVLW  22
0B23C:  BTFSS  F9E.4
0B23E:  BRA    B23C
0B240:  MOVWF  FAD
....................       SendDataDisplay(); 
0B242:  CALL   3F6A
....................       GuardaEEPROM=OFF; 
0B246:  BCF    xA8.4
....................       if(ingreso) 
0B248:  BTFSS  xAA.0
0B24A:  BRA    B254
....................          TipoClave=2; 
0B24C:  MOVLW  02
0B24E:  MOVLB  1
0B250:  MOVWF  x97
....................       else 
0B252:  BRA    B258
....................          TipoClave=0; 
0B254:  MOVLB  1
0B256:  CLRF   x97
....................        
....................       if(RX_Buffer[4]==0x01){//01, Admin 
0B258:  DECFSZ 34,W
0B25A:  BRA    B2AE
....................          printf("page Clave"); 
0B25C:  MOVLW  C8
0B25E:  MOVWF  FF6
0B260:  MOVLW  12
0B262:  MOVWF  FF7
0B264:  MOVLW  00
0B266:  MOVWF  FF8
0B268:  MOVLB  0
0B26A:  CALL   3F38
....................          SendDataDisplay();        
0B26E:  CALL   3F6A
....................          if(!ingreso){ 
0B272:  BTFSC  xAA.0
0B274:  BRA    B2A6
....................             usuario="Admin"; 
0B276:  MOVLW  02
0B278:  MOVWF  FEA
0B27A:  MOVLW  56
0B27C:  MOVWF  FE9
0B27E:  MOVFF  FF2,650
0B282:  BCF    FF2.6
0B284:  BCF    FF2.7
0B286:  MOVLW  00
0B288:  CALL   0150
0B28C:  TBLRD*-
0B28E:  TBLRD*+
0B290:  MOVF   FF5,W
0B292:  MOVWF  FEE
0B294:  IORLW  00
0B296:  BNZ   B28E
0B298:  MOVLB  6
0B29A:  BTFSC  x50.6
0B29C:  BSF    FF2.6
0B29E:  BTFSC  x50.7
0B2A0:  BSF    FF2.7
....................             codigoUsuario=0; 
0B2A2:  MOVLB  2
0B2A4:  CLRF   x50
....................          } 
....................          codigoUsuario2=0; 
0B2A6:  MOVLB  2
0B2A8:  CLRF   x31
....................       }else if(RX_Buffer[4]==0x02){//02, Operador 1 
0B2AA:  BRA    B5E6
0B2AC:  MOVLB  1
0B2AE:  MOVF   34,W
0B2B0:  SUBLW  02
0B2B2:  BNZ   B30A
....................          printf("page Clave"); 
0B2B4:  MOVLW  D4
0B2B6:  MOVWF  FF6
0B2B8:  MOVLW  12
0B2BA:  MOVWF  FF7
0B2BC:  MOVLW  00
0B2BE:  MOVWF  FF8
0B2C0:  MOVLB  0
0B2C2:  CALL   3F38
....................          SendDataDisplay();        
0B2C6:  CALL   3F6A
....................          if(!ingreso){ 
0B2CA:  BTFSC  xAA.0
0B2CC:  BRA    B300
....................             usuario="Operador 1"; 
0B2CE:  MOVLW  02
0B2D0:  MOVWF  FEA
0B2D2:  MOVLW  56
0B2D4:  MOVWF  FE9
0B2D6:  MOVFF  FF2,650
0B2DA:  BCF    FF2.6
0B2DC:  BCF    FF2.7
0B2DE:  MOVLW  00
0B2E0:  CALL   017A
0B2E4:  TBLRD*-
0B2E6:  TBLRD*+
0B2E8:  MOVF   FF5,W
0B2EA:  MOVWF  FEE
0B2EC:  IORLW  00
0B2EE:  BNZ   B2E6
0B2F0:  MOVLB  6
0B2F2:  BTFSC  x50.6
0B2F4:  BSF    FF2.6
0B2F6:  BTFSC  x50.7
0B2F8:  BSF    FF2.7
....................             codigoUsuario=1; 
0B2FA:  MOVLW  01
0B2FC:  MOVLB  2
0B2FE:  MOVWF  x50
....................          } 
....................          codigoUsuario2=1; 
0B300:  MOVLW  01
0B302:  MOVLB  2
0B304:  MOVWF  x31
....................       }else if(RX_Buffer[4]==0x03){//03, Operador 2 
0B306:  BRA    B5E6
0B308:  MOVLB  1
0B30A:  MOVF   34,W
0B30C:  SUBLW  03
0B30E:  BNZ   B366
....................          printf("page Clave"); 
0B310:  MOVLW  E0
0B312:  MOVWF  FF6
0B314:  MOVLW  12
0B316:  MOVWF  FF7
0B318:  MOVLW  00
0B31A:  MOVWF  FF8
0B31C:  MOVLB  0
0B31E:  CALL   3F38
....................          SendDataDisplay();        
0B322:  CALL   3F6A
....................          if(!ingreso){ 
0B326:  BTFSC  xAA.0
0B328:  BRA    B35C
....................             usuario="Operador 2"; 
0B32A:  MOVLW  02
0B32C:  MOVWF  FEA
0B32E:  MOVLW  56
0B330:  MOVWF  FE9
0B332:  MOVFF  FF2,650
0B336:  BCF    FF2.6
0B338:  BCF    FF2.7
0B33A:  MOVLW  00
0B33C:  CALL   01AA
0B340:  TBLRD*-
0B342:  TBLRD*+
0B344:  MOVF   FF5,W
0B346:  MOVWF  FEE
0B348:  IORLW  00
0B34A:  BNZ   B342
0B34C:  MOVLB  6
0B34E:  BTFSC  x50.6
0B350:  BSF    FF2.6
0B352:  BTFSC  x50.7
0B354:  BSF    FF2.7
....................             codigoUsuario=2; 
0B356:  MOVLW  02
0B358:  MOVLB  2
0B35A:  MOVWF  x50
....................          } 
....................          codigoUsuario2=2; 
0B35C:  MOVLW  02
0B35E:  MOVLB  2
0B360:  MOVWF  x31
....................       }else if(RX_Buffer[4]==0x04){//04, Operador 3 
0B362:  BRA    B5E6
0B364:  MOVLB  1
0B366:  MOVF   34,W
0B368:  SUBLW  04
0B36A:  BNZ   B3C2
....................          printf("page Clave"); 
0B36C:  MOVLW  EC
0B36E:  MOVWF  FF6
0B370:  MOVLW  12
0B372:  MOVWF  FF7
0B374:  MOVLW  00
0B376:  MOVWF  FF8
0B378:  MOVLB  0
0B37A:  CALL   3F38
....................          SendDataDisplay();        
0B37E:  CALL   3F6A
....................          if(!ingreso){ 
0B382:  BTFSC  xAA.0
0B384:  BRA    B3B8
....................             usuario="Operador 3"; 
0B386:  MOVLW  02
0B388:  MOVWF  FEA
0B38A:  MOVLW  56
0B38C:  MOVWF  FE9
0B38E:  MOVFF  FF2,650
0B392:  BCF    FF2.6
0B394:  BCF    FF2.7
0B396:  MOVLW  00
0B398:  CALL   01DA
0B39C:  TBLRD*-
0B39E:  TBLRD*+
0B3A0:  MOVF   FF5,W
0B3A2:  MOVWF  FEE
0B3A4:  IORLW  00
0B3A6:  BNZ   B39E
0B3A8:  MOVLB  6
0B3AA:  BTFSC  x50.6
0B3AC:  BSF    FF2.6
0B3AE:  BTFSC  x50.7
0B3B0:  BSF    FF2.7
....................             codigoUsuario=3; 
0B3B2:  MOVLW  03
0B3B4:  MOVLB  2
0B3B6:  MOVWF  x50
....................          } 
....................          codigoUsuario2=3; 
0B3B8:  MOVLW  03
0B3BA:  MOVLB  2
0B3BC:  MOVWF  x31
....................       }else if(RX_Buffer[4]==0x05){//05, Operador 4 
0B3BE:  BRA    B5E6
0B3C0:  MOVLB  1
0B3C2:  MOVF   34,W
0B3C4:  SUBLW  05
0B3C6:  BNZ   B41E
....................          printf("page Clave"); 
0B3C8:  MOVLW  F8
0B3CA:  MOVWF  FF6
0B3CC:  MOVLW  12
0B3CE:  MOVWF  FF7
0B3D0:  MOVLW  00
0B3D2:  MOVWF  FF8
0B3D4:  MOVLB  0
0B3D6:  CALL   3F38
....................          SendDataDisplay();        
0B3DA:  CALL   3F6A
....................          if(!ingreso){ 
0B3DE:  BTFSC  xAA.0
0B3E0:  BRA    B414
....................             usuario="Operador 4"; 
0B3E2:  MOVLW  02
0B3E4:  MOVWF  FEA
0B3E6:  MOVLW  56
0B3E8:  MOVWF  FE9
0B3EA:  MOVFF  FF2,650
0B3EE:  BCF    FF2.6
0B3F0:  BCF    FF2.7
0B3F2:  MOVLW  00
0B3F4:  CALL   020A
0B3F8:  TBLRD*-
0B3FA:  TBLRD*+
0B3FC:  MOVF   FF5,W
0B3FE:  MOVWF  FEE
0B400:  IORLW  00
0B402:  BNZ   B3FA
0B404:  MOVLB  6
0B406:  BTFSC  x50.6
0B408:  BSF    FF2.6
0B40A:  BTFSC  x50.7
0B40C:  BSF    FF2.7
....................             codigoUsuario=4; 
0B40E:  MOVLW  04
0B410:  MOVLB  2
0B412:  MOVWF  x50
....................          } 
....................          codigoUsuario2=4; 
0B414:  MOVLW  04
0B416:  MOVLB  2
0B418:  MOVWF  x31
....................       }else if(RX_Buffer[4]==0x06){//06, Operador 5 
0B41A:  BRA    B5E6
0B41C:  MOVLB  1
0B41E:  MOVF   34,W
0B420:  SUBLW  06
0B422:  BNZ   B47A
....................          printf("page Clave"); 
0B424:  MOVLW  04
0B426:  MOVWF  FF6
0B428:  MOVLW  13
0B42A:  MOVWF  FF7
0B42C:  MOVLW  00
0B42E:  MOVWF  FF8
0B430:  MOVLB  0
0B432:  CALL   3F38
....................          SendDataDisplay();        
0B436:  CALL   3F6A
....................          if(!ingreso){ 
0B43A:  BTFSC  xAA.0
0B43C:  BRA    B470
....................             usuario="Operador 5"; 
0B43E:  MOVLW  02
0B440:  MOVWF  FEA
0B442:  MOVLW  56
0B444:  MOVWF  FE9
0B446:  MOVFF  FF2,650
0B44A:  BCF    FF2.6
0B44C:  BCF    FF2.7
0B44E:  MOVLW  00
0B450:  CALL   023A
0B454:  TBLRD*-
0B456:  TBLRD*+
0B458:  MOVF   FF5,W
0B45A:  MOVWF  FEE
0B45C:  IORLW  00
0B45E:  BNZ   B456
0B460:  MOVLB  6
0B462:  BTFSC  x50.6
0B464:  BSF    FF2.6
0B466:  BTFSC  x50.7
0B468:  BSF    FF2.7
....................             codigoUsuario=5; 
0B46A:  MOVLW  05
0B46C:  MOVLB  2
0B46E:  MOVWF  x50
....................          } 
....................          codigoUsuario2=5; 
0B470:  MOVLW  05
0B472:  MOVLB  2
0B474:  MOVWF  x31
....................       }else if(RX_Buffer[4]==0x07){//07, Operador 6 
0B476:  BRA    B5E6
0B478:  MOVLB  1
0B47A:  MOVF   34,W
0B47C:  SUBLW  07
0B47E:  BNZ   B4D6
....................          printf("page Clave"); 
0B480:  MOVLW  10
0B482:  MOVWF  FF6
0B484:  MOVLW  13
0B486:  MOVWF  FF7
0B488:  MOVLW  00
0B48A:  MOVWF  FF8
0B48C:  MOVLB  0
0B48E:  CALL   3F38
....................          SendDataDisplay();        
0B492:  CALL   3F6A
....................          if(!ingreso){ 
0B496:  BTFSC  xAA.0
0B498:  BRA    B4CC
....................             usuario="Operador 6"; 
0B49A:  MOVLW  02
0B49C:  MOVWF  FEA
0B49E:  MOVLW  56
0B4A0:  MOVWF  FE9
0B4A2:  MOVFF  FF2,650
0B4A6:  BCF    FF2.6
0B4A8:  BCF    FF2.7
0B4AA:  MOVLW  00
0B4AC:  CALL   026A
0B4B0:  TBLRD*-
0B4B2:  TBLRD*+
0B4B4:  MOVF   FF5,W
0B4B6:  MOVWF  FEE
0B4B8:  IORLW  00
0B4BA:  BNZ   B4B2
0B4BC:  MOVLB  6
0B4BE:  BTFSC  x50.6
0B4C0:  BSF    FF2.6
0B4C2:  BTFSC  x50.7
0B4C4:  BSF    FF2.7
....................             codigoUsuario=6; 
0B4C6:  MOVLW  06
0B4C8:  MOVLB  2
0B4CA:  MOVWF  x50
....................          } 
....................          codigoUsuario2=6; 
0B4CC:  MOVLW  06
0B4CE:  MOVLB  2
0B4D0:  MOVWF  x31
....................       }else if(RX_Buffer[4]==0x08){//08, Operador 7 
0B4D2:  BRA    B5E6
0B4D4:  MOVLB  1
0B4D6:  MOVF   34,W
0B4D8:  SUBLW  08
0B4DA:  BNZ   B532
....................          printf("page Clave"); 
0B4DC:  MOVLW  1C
0B4DE:  MOVWF  FF6
0B4E0:  MOVLW  13
0B4E2:  MOVWF  FF7
0B4E4:  MOVLW  00
0B4E6:  MOVWF  FF8
0B4E8:  MOVLB  0
0B4EA:  CALL   3F38
....................          SendDataDisplay();        
0B4EE:  CALL   3F6A
....................          if(!ingreso){ 
0B4F2:  BTFSC  xAA.0
0B4F4:  BRA    B528
....................             usuario="Operador 7"; 
0B4F6:  MOVLW  02
0B4F8:  MOVWF  FEA
0B4FA:  MOVLW  56
0B4FC:  MOVWF  FE9
0B4FE:  MOVFF  FF2,650
0B502:  BCF    FF2.6
0B504:  BCF    FF2.7
0B506:  MOVLW  00
0B508:  CALL   029A
0B50C:  TBLRD*-
0B50E:  TBLRD*+
0B510:  MOVF   FF5,W
0B512:  MOVWF  FEE
0B514:  IORLW  00
0B516:  BNZ   B50E
0B518:  MOVLB  6
0B51A:  BTFSC  x50.6
0B51C:  BSF    FF2.6
0B51E:  BTFSC  x50.7
0B520:  BSF    FF2.7
....................             codigoUsuario=7; 
0B522:  MOVLW  07
0B524:  MOVLB  2
0B526:  MOVWF  x50
....................          } 
....................          codigoUsuario2=7; 
0B528:  MOVLW  07
0B52A:  MOVLB  2
0B52C:  MOVWF  x31
....................       }else if(RX_Buffer[4]==0x09){//09, Operador 8 
0B52E:  BRA    B5E6
0B530:  MOVLB  1
0B532:  MOVF   34,W
0B534:  SUBLW  09
0B536:  BNZ   B58E
....................          printf("page Clave"); 
0B538:  MOVLW  28
0B53A:  MOVWF  FF6
0B53C:  MOVLW  13
0B53E:  MOVWF  FF7
0B540:  MOVLW  00
0B542:  MOVWF  FF8
0B544:  MOVLB  0
0B546:  CALL   3F38
....................          SendDataDisplay();        
0B54A:  CALL   3F6A
....................          if(!ingreso){ 
0B54E:  BTFSC  xAA.0
0B550:  BRA    B584
....................             usuario="Operador 8"; 
0B552:  MOVLW  02
0B554:  MOVWF  FEA
0B556:  MOVLW  56
0B558:  MOVWF  FE9
0B55A:  MOVFF  FF2,650
0B55E:  BCF    FF2.6
0B560:  BCF    FF2.7
0B562:  MOVLW  00
0B564:  CALL   02CA
0B568:  TBLRD*-
0B56A:  TBLRD*+
0B56C:  MOVF   FF5,W
0B56E:  MOVWF  FEE
0B570:  IORLW  00
0B572:  BNZ   B56A
0B574:  MOVLB  6
0B576:  BTFSC  x50.6
0B578:  BSF    FF2.6
0B57A:  BTFSC  x50.7
0B57C:  BSF    FF2.7
....................             codigoUsuario=8; 
0B57E:  MOVLW  08
0B580:  MOVLB  2
0B582:  MOVWF  x50
....................          } 
....................          codigoUsuario2=8; 
0B584:  MOVLW  08
0B586:  MOVLB  2
0B588:  MOVWF  x31
....................       }else if(RX_Buffer[4]==0x0a){//0a, Tecnico 
0B58A:  BRA    B5E6
0B58C:  MOVLB  1
0B58E:  MOVF   34,W
0B590:  SUBLW  0A
0B592:  BNZ   B5E8
....................          printf("page Clave"); 
0B594:  MOVLW  34
0B596:  MOVWF  FF6
0B598:  MOVLW  13
0B59A:  MOVWF  FF7
0B59C:  MOVLW  00
0B59E:  MOVWF  FF8
0B5A0:  MOVLB  0
0B5A2:  CALL   3F38
....................          SendDataDisplay();        
0B5A6:  CALL   3F6A
....................          if(!ingreso){ 
0B5AA:  BTFSC  xAA.0
0B5AC:  BRA    B5E0
....................             usuario="Tecnico"; 
0B5AE:  MOVLW  02
0B5B0:  MOVWF  FEA
0B5B2:  MOVLW  56
0B5B4:  MOVWF  FE9
0B5B6:  MOVFF  FF2,650
0B5BA:  BCF    FF2.6
0B5BC:  BCF    FF2.7
0B5BE:  MOVLW  00
0B5C0:  CALL   02FA
0B5C4:  TBLRD*-
0B5C6:  TBLRD*+
0B5C8:  MOVF   FF5,W
0B5CA:  MOVWF  FEE
0B5CC:  IORLW  00
0B5CE:  BNZ   B5C6
0B5D0:  MOVLB  6
0B5D2:  BTFSC  x50.6
0B5D4:  BSF    FF2.6
0B5D6:  BTFSC  x50.7
0B5D8:  BSF    FF2.7
....................             codigoUsuario=9; 
0B5DA:  MOVLW  09
0B5DC:  MOVLB  2
0B5DE:  MOVWF  x50
....................          } 
....................          codigoUsuario2=9; 
0B5E0:  MOVLW  09
0B5E2:  MOVLB  2
0B5E4:  MOVWF  x31
0B5E6:  MOVLB  1
....................       } 
....................        
....................       if(RX_Buffer[4]==0xaa && ingreso){//aa, Regresar 
0B5E8:  MOVF   34,W
0B5EA:  SUBLW  AA
0B5EC:  BNZ   B614
0B5EE:  MOVLB  0
0B5F0:  BTFSC  xAA.0
0B5F2:  BRA    B5F8
0B5F4:  MOVLB  1
0B5F6:  BRA    B614
....................          printf("page Ajustes"); 
0B5F8:  MOVLW  40
0B5FA:  MOVWF  FF6
0B5FC:  MOVLW  13
0B5FE:  MOVWF  FF7
0B600:  MOVLW  00
0B602:  MOVWF  FF8
0B604:  CALL   3F38
....................          SendDataDisplay();        
0B608:  CALL   3F6A
....................          codigoUsuario2=10; 
0B60C:  MOVLW  0A
0B60E:  MOVLB  2
0B610:  MOVWF  x31
0B612:  MOVLB  1
....................       } 
....................    } 
.................... //_--------------------------------------------------------------------------------------------------------------------------------------------------------       
....................  
.................... //_--------------------------------------------------------------------------------------------------------------------------------------------------------       
....................    if(Menu==11){//Menu de Configuraciones 
0B614:  MOVF   xF6,W
0B616:  SUBLW  0B
0B618:  BTFSS  FD8.2
0B61A:  BRA    B886
....................       printf("fecha.txt=\"T:%2.1fC Fecha:%02u/%02u/20%02u Hora:%02u:%02u:%02u\"",Temperatura,Dia,Mes,Year,Hora,Minuto,Segundo); 
0B61C:  MOVLW  4E
0B61E:  MOVWF  FF6
0B620:  MOVLW  13
0B622:  MOVWF  FF7
0B624:  MOVLW  00
0B626:  MOVWF  FF8
0B628:  MOVLW  0D
0B62A:  MOVLB  6
0B62C:  MOVWF  x55
0B62E:  MOVLB  0
0B630:  CALL   56B2
0B634:  MOVLW  01
0B636:  MOVWF  FE9
0B638:  MOVFF  1D9,658
0B63C:  MOVFF  1D8,657
0B640:  MOVFF  1D7,656
0B644:  MOVFF  1D6,655
0B648:  MOVLB  6
0B64A:  MOVWF  x59
0B64C:  MOVLB  0
0B64E:  CALL   57CE
0B652:  MOVLW  60
0B654:  MOVWF  FF6
0B656:  MOVLW  13
0B658:  MOVWF  FF7
0B65A:  MOVLW  00
0B65C:  MOVWF  FF8
0B65E:  MOVLW  09
0B660:  MOVLB  6
0B662:  MOVWF  x55
0B664:  MOVLB  0
0B666:  CALL   56B2
0B66A:  MOVFF  23A,655
0B66E:  MOVLW  01
0B670:  MOVLB  6
0B672:  MOVWF  x56
0B674:  MOVLB  0
0B676:  CALL   599E
0B67A:  MOVLW  2F
0B67C:  BTFSS  F9E.4
0B67E:  BRA    B67C
0B680:  MOVWF  FAD
0B682:  MOVFF  239,655
0B686:  MOVLW  01
0B688:  MOVLB  6
0B68A:  MOVWF  x56
0B68C:  MOVLB  0
0B68E:  CALL   599E
0B692:  MOVLW  2F
0B694:  BTFSS  F9E.4
0B696:  BRA    B694
0B698:  MOVWF  FAD
0B69A:  MOVLW  32
0B69C:  BTFSS  F9E.4
0B69E:  BRA    B69C
0B6A0:  MOVWF  FAD
0B6A2:  MOVLW  30
0B6A4:  BTFSS  F9E.4
0B6A6:  BRA    B6A4
0B6A8:  MOVWF  FAD
0B6AA:  MOVFF  238,655
0B6AE:  MOVLW  01
0B6B0:  MOVLB  6
0B6B2:  MOVWF  x56
0B6B4:  MOVLB  0
0B6B6:  CALL   599E
0B6BA:  MOVLW  79
0B6BC:  MOVWF  FF6
0B6BE:  MOVLW  13
0B6C0:  MOVWF  FF7
0B6C2:  MOVLW  00
0B6C4:  MOVWF  FF8
0B6C6:  MOVLW  06
0B6C8:  MOVLB  6
0B6CA:  MOVWF  x55
0B6CC:  MOVLB  0
0B6CE:  CALL   56B2
0B6D2:  MOVFF  23B,655
0B6D6:  MOVLW  01
0B6D8:  MOVLB  6
0B6DA:  MOVWF  x56
0B6DC:  MOVLB  0
0B6DE:  CALL   599E
0B6E2:  MOVLW  3A
0B6E4:  BTFSS  F9E.4
0B6E6:  BRA    B6E4
0B6E8:  MOVWF  FAD
0B6EA:  MOVFF  23C,655
0B6EE:  MOVLW  01
0B6F0:  MOVLB  6
0B6F2:  MOVWF  x56
0B6F4:  MOVLB  0
0B6F6:  CALL   599E
0B6FA:  MOVLW  3A
0B6FC:  BTFSS  F9E.4
0B6FE:  BRA    B6FC
0B700:  MOVWF  FAD
0B702:  MOVFF  23D,655
0B706:  MOVLW  01
0B708:  MOVLB  6
0B70A:  MOVWF  x56
0B70C:  MOVLB  0
0B70E:  CALL   599E
0B712:  MOVLW  22
0B714:  BTFSS  F9E.4
0B716:  BRA    B714
0B718:  MOVWF  FAD
....................       SendDataDisplay(); 
0B71A:  CALL   3F6A
....................       GuardaEEPROM=OFF; 
0B71E:  BCF    xA8.4
....................       printf("tuser.txt=\"%s\"",usuario); 
0B720:  MOVLW  90
0B722:  MOVWF  FF6
0B724:  MOVLW  13
0B726:  MOVWF  FF7
0B728:  MOVLW  00
0B72A:  MOVWF  FF8
0B72C:  MOVLW  0B
0B72E:  MOVLB  6
0B730:  MOVWF  x55
0B732:  MOVLB  0
0B734:  CALL   56B2
0B738:  MOVLW  02
0B73A:  MOVWF  FEA
0B73C:  MOVLW  56
0B73E:  MOVWF  FE9
0B740:  CALL   56E4
0B744:  MOVLW  22
0B746:  BTFSS  F9E.4
0B748:  BRA    B746
0B74A:  MOVWF  FAD
....................       SendDataDisplay(); 
0B74C:  CALL   3F6A
....................       TipoClave=0; 
0B750:  MOVLB  1
0B752:  CLRF   x97
....................        
....................       if(RX_Buffer[4]==0x01){//01, Ciclos 
0B754:  DECFSZ 34,W
0B756:  BRA    B770
....................          printf("page Ciclos"); 
0B758:  MOVLW  A0
0B75A:  MOVWF  FF6
0B75C:  MOVLW  13
0B75E:  MOVWF  FF7
0B760:  MOVLW  00
0B762:  MOVWF  FF8
0B764:  MOVLB  0
0B766:  CALL   3F38
....................          SendDataDisplay();      
0B76A:  CALL   3F6A
0B76E:  MOVLB  1
....................       } 
....................        
....................       if(RX_Buffer[4]==0x02){//02, Test de Componentes 
0B770:  MOVF   34,W
0B772:  SUBLW  02
0B774:  BNZ   B78E
....................          printf("page Test"); 
0B776:  MOVLW  AC
0B778:  MOVWF  FF6
0B77A:  MOVLW  13
0B77C:  MOVWF  FF7
0B77E:  MOVLW  00
0B780:  MOVWF  FF8
0B782:  MOVLB  0
0B784:  CALL   3F38
....................          SendDataDisplay();      
0B788:  CALL   3F6A
0B78C:  MOVLB  1
....................       } 
....................        
....................       if(RX_Buffer[4]==0x03){//03, Modificacin de clave Usuarios 
0B78E:  MOVF   34,W
0B790:  SUBLW  03
0B792:  BNZ   B7AC
....................          printf("page Usuarios"); 
0B794:  MOVLW  B6
0B796:  MOVWF  FF6
0B798:  MOVLW  13
0B79A:  MOVWF  FF7
0B79C:  MOVLW  00
0B79E:  MOVWF  FF8
0B7A0:  MOVLB  0
0B7A2:  CALL   3F38
....................          SendDataDisplay();      
0B7A6:  CALL   3F6A
0B7AA:  MOVLB  1
....................       } 
....................        
....................       if(RX_Buffer[4]==0x04){//03, Modificacin de clave Usuarios 
0B7AC:  MOVF   34,W
0B7AE:  SUBLW  04
0B7B0:  BNZ   B7CA
....................          printf("page Activa"); 
0B7B2:  MOVLW  C4
0B7B4:  MOVWF  FF6
0B7B6:  MOVLW  13
0B7B8:  MOVWF  FF7
0B7BA:  MOVLW  00
0B7BC:  MOVWF  FF8
0B7BE:  MOVLB  0
0B7C0:  CALL   3F38
....................          SendDataDisplay();      
0B7C4:  CALL   3F6A
0B7C8:  MOVLB  1
....................       } 
....................        
....................       if(RX_Buffer[4]==0x11 && CodigoUsuario==9){//11, Menu Oculto Tecnico 
0B7CA:  MOVF   34,W
0B7CC:  SUBLW  11
0B7CE:  BNZ   B7FA
0B7D0:  MOVLB  2
0B7D2:  MOVF   x50,W
0B7D4:  SUBLW  09
0B7D6:  BTFSC  FD8.2
0B7D8:  BRA    B7DE
0B7DA:  MOVLB  1
0B7DC:  BRA    B7FA
....................          printf("page Clave"); 
0B7DE:  MOVLW  D0
0B7E0:  MOVWF  FF6
0B7E2:  MOVLW  13
0B7E4:  MOVWF  FF7
0B7E6:  MOVLW  00
0B7E8:  MOVWF  FF8
0B7EA:  MOVLB  0
0B7EC:  CALL   3F38
....................          SendDataDisplay();  
0B7F0:  CALL   3F6A
....................          TipoClave=1; 
0B7F4:  MOVLW  01
0B7F6:  MOVLB  1
0B7F8:  MOVWF  x97
....................       } 
....................        
....................       if(RX_Buffer[4]==0x05){//05, Hora y Fecha 
0B7FA:  MOVF   34,W
0B7FC:  SUBLW  05
0B7FE:  BNZ   B82C
....................          printf("page Fecha"); 
0B800:  MOVLW  DC
0B802:  MOVWF  FF6
0B804:  MOVLW  13
0B806:  MOVWF  FF7
0B808:  MOVLW  00
0B80A:  MOVWF  FF8
0B80C:  MOVLB  0
0B80E:  CALL   3F38
....................          SendDataDisplay();      
0B812:  CALL   3F6A
....................          DiaTx=Dia; 
0B816:  MOVFF  23A,247
....................          MesTx=Mes; 
0B81A:  MOVFF  239,246
....................          YearTx=Year; 
0B81E:  MOVFF  238,245
....................          HoraTx=Hora; 
0B822:  MOVFF  23B,248
....................          MinutoTx=Minuto; 
0B826:  MOVFF  23C,249
0B82A:  MOVLB  1
....................       } 
....................        
....................       if(RX_Buffer[4]==0xa0){//a0, Menu Principal 
0B82C:  MOVF   34,W
0B82E:  SUBLW  A0
0B830:  BNZ   B84A
....................          printf("page Menu"); 
0B832:  MOVLW  E8
0B834:  MOVWF  FF6
0B836:  MOVLW  13
0B838:  MOVWF  FF7
0B83A:  MOVLW  00
0B83C:  MOVWF  FF8
0B83E:  MOVLB  0
0B840:  CALL   3F38
....................          SendDataDisplay();      
0B844:  CALL   3F6A
0B848:  MOVLB  1
....................       } 
....................        
....................       if(RX_Buffer[4]==0xb0){//b0, Personalizados 
0B84A:  MOVF   34,W
0B84C:  SUBLW  B0
0B84E:  BNZ   B868
....................          printf("page CicloPersona"); 
0B850:  MOVLW  F2
0B852:  MOVWF  FF6
0B854:  MOVLW  13
0B856:  MOVWF  FF7
0B858:  MOVLW  00
0B85A:  MOVWF  FF8
0B85C:  MOVLB  0
0B85E:  CALL   3F38
....................          SendDataDisplay();      
0B862:  CALL   3F6A
0B866:  MOVLB  1
....................       } 
....................        
....................       if(RX_Buffer[4]==0xc0){//c0, Configuraciones 
0B868:  MOVF   34,W
0B86A:  SUBLW  C0
0B86C:  BNZ   B886
....................          printf("page Ajustes"); 
0B86E:  MOVLW  04
0B870:  MOVWF  FF6
0B872:  MOVLW  14
0B874:  MOVWF  FF7
0B876:  MOVLW  00
0B878:  MOVWF  FF8
0B87A:  MOVLB  0
0B87C:  CALL   3F38
....................          SendDataDisplay();      
0B880:  CALL   3F6A
0B884:  MOVLB  1
....................       } 
....................    } 
.................... //_--------------------------------------------------------------------------------------------------------------------------------------------------------       
....................  
.................... //_--------------------------------------------------------------------------------------------------------------------------------------------------------       
....................    if(Menu==12){//Menu de Visualizacion de Ciclos Realizados 
0B886:  MOVF   xF6,W
0B888:  SUBLW  0C
0B88A:  BTFSS  FD8.2
0B88C:  GOTO   C438
....................       //printf("fecha.txt=\"Fecha:%02u/%02u/20%02u    Hora: %02u:%02u\"",Dia,Mes,Year,Hora,Minuto); 
....................       //SendDataDisplay(); 
....................       GuardaEEPROM=OFF; 
0B890:  MOVLB  0
0B892:  BCF    xA8.4
....................        
....................       i2c_start();            // Comienzo de la comunicacin 
0B894:  BSF    F94.4
0B896:  MOVLW  05
0B898:  MOVWF  00
0B89A:  DECFSZ 00,F
0B89C:  BRA    B89A
0B89E:  BSF    F94.3
0B8A0:  MOVLW  06
0B8A2:  MOVWF  00
0B8A4:  DECFSZ 00,F
0B8A6:  BRA    B8A4
0B8A8:  BCF    F8B.4
0B8AA:  BCF    F94.4
0B8AC:  MOVLW  05
0B8AE:  MOVWF  00
0B8B0:  DECFSZ 00,F
0B8B2:  BRA    B8B0
0B8B4:  BCF    F8B.3
0B8B6:  BCF    F94.3
....................       i2c_write(0xA0);   // Direccin del esclavo en el bus I2C 
0B8B8:  MOVLW  A0
0B8BA:  MOVLB  6
0B8BC:  MOVWF  x63
0B8BE:  MOVLB  0
0B8C0:  CALL   21E6
....................       i2c_write(9);    // Posicin de donde se leer el dato en el esclavo 
0B8C4:  MOVLW  09
0B8C6:  MOVLB  6
0B8C8:  MOVWF  x63
0B8CA:  MOVLB  0
0B8CC:  CALL   21E6
....................       i2c_write(0);    // Posicin de donde se leer el dato en el esclavo 
0B8D0:  MOVLB  6
0B8D2:  CLRF   x63
0B8D4:  MOVLB  0
0B8D6:  CALL   21E6
....................       i2c_start();            // Reinicio 
0B8DA:  BSF    F94.4
0B8DC:  MOVLW  05
0B8DE:  MOVWF  00
0B8E0:  DECFSZ 00,F
0B8E2:  BRA    B8E0
0B8E4:  BSF    F94.3
0B8E6:  MOVLW  06
0B8E8:  MOVWF  00
0B8EA:  DECFSZ 00,F
0B8EC:  BRA    B8EA
0B8EE:  BTFSS  F82.3
0B8F0:  BRA    B8EE
0B8F2:  BCF    F8B.4
0B8F4:  BCF    F94.4
0B8F6:  MOVLW  05
0B8F8:  MOVWF  00
0B8FA:  DECFSZ 00,F
0B8FC:  BRA    B8FA
0B8FE:  BCF    F8B.3
0B900:  BCF    F94.3
....................       i2c_write(direccion+1); // Direccin del esclavo en modo lectura 
0B902:  MOVLW  01
0B904:  ADDWF  x88,W
0B906:  MOVLB  6
0B908:  MOVWF  x50
0B90A:  MOVWF  x63
0B90C:  MOVLB  0
0B90E:  CALL   21E6
....................       dato=i2c_read(0);       // Lectura del dato 
0B912:  CLRF   00
0B914:  CALL   225C
0B918:  MOVFF  01,87
....................       i2c_stop(); 
0B91C:  BCF    F94.4
0B91E:  NOP   
0B920:  BSF    F94.3
0B922:  BTFSS  F82.3
0B924:  BRA    B922
0B926:  MOVLW  05
0B928:  MOVWF  00
0B92A:  DECFSZ 00,F
0B92C:  BRA    B92A
0B92E:  BRA    B930
0B930:  NOP   
0B932:  BSF    F94.4
0B934:  MOVLW  05
0B936:  MOVWF  00
0B938:  DECFSZ 00,F
0B93A:  BRA    B938
....................        
....................       printf("estado.txt=\"Oprima Exportar para imprimir\""); 
0B93C:  MOVLW  12
0B93E:  MOVWF  FF6
0B940:  MOVLW  14
0B942:  MOVWF  FF7
0B944:  MOVLW  00
0B946:  MOVWF  FF8
0B948:  CALL   3F38
....................       SendDataDisplay();    
0B94C:  CALL   3F6A
....................        
....................       if(RX_Buffer[6]==0x01){//01, Ciclos 
0B950:  DECFSZ 36,W
0B952:  BRA    B968
....................          printf("page Ajustes"); 
0B954:  MOVLW  3E
0B956:  MOVWF  FF6
0B958:  MOVLW  14
0B95A:  MOVWF  FF7
0B95C:  MOVLW  00
0B95E:  MOVWF  FF8
0B960:  CALL   3F38
....................          SendDataDisplay();      
0B964:  CALL   3F6A
....................       } 
....................        
....................       if(RX_Buffer[6]==0x02){//02, Exportar 
0B968:  MOVF   36,W
0B96A:  SUBLW  02
0B96C:  BNZ   B976
....................          RX_Buffer[6]=0x00;   
0B96E:  CLRF   36
....................          RX_Buffer2[6]=0x00; 
0B970:  CLRF   41
....................          exportarData(); 
0B972:  GOTO   5C6C
....................       } 
....................        
....................       if(RX_Buffer[4]>0x00 && RX_Buffer[5]>0x00){ 
0B976:  MOVF   34,F
0B978:  BTFSC  FD8.2
0B97A:  BRA    C04A
0B97C:  MOVF   35,F
0B97E:  BTFSC  FD8.2
0B980:  BRA    C04A
....................          cicloVisualizado=RX_Buffer[4]-1; 
0B982:  MOVLW  01
0B984:  SUBWF  34,W
0B986:  MOVLB  2
0B988:  MOVWF  x3F
....................          cicloVisto=RX_Buffer[5]-1; 
0B98A:  MOVLW  01
0B98C:  SUBWF  35,W
0B98E:  MOVWF  x40
....................          RX_Buffer[4]=0x00; 
0B990:  CLRF   34
....................          RX_Buffer[5]=0x00; 
0B992:  CLRF   35
....................          RX_Buffer2[4]=0x00; 
0B994:  CLRF   3F
....................          RX_Buffer2[5]=0x00; 
0B996:  CLRF   40
....................          diaCiclos=read_ext_eeprom(2+(cicloVisto*320)); 
0B998:  MOVLB  6
0B99A:  CLRF   x5B
0B99C:  MOVFF  240,65A
0B9A0:  MOVLW  01
0B9A2:  MOVWF  x5D
0B9A4:  MOVLW  40
0B9A6:  MOVWF  x5C
0B9A8:  MOVLB  0
0B9AA:  CALL   21C4
0B9AE:  MOVFF  02,03
0B9B2:  MOVF   01,W
0B9B4:  ADDLW  02
0B9B6:  MOVLB  6
0B9B8:  MOVWF  x50
0B9BA:  MOVLW  00
0B9BC:  ADDWFC 02,W
0B9BE:  MOVWF  x51
0B9C0:  MOVWF  x56
0B9C2:  MOVFF  650,655
0B9C6:  MOVLB  0
0B9C8:  CALL   22C6
0B9CC:  MOVFF  01,2B7
....................          if(diaCiclos>31) 
0B9D0:  MOVLB  2
0B9D2:  MOVF   xB7,W
0B9D4:  SUBLW  1F
0B9D6:  BC    B9DC
....................             diaCiclos=1; 
0B9D8:  MOVLW  01
0B9DA:  MOVWF  xB7
....................          mesCiclos=read_ext_eeprom(3+(cicloVisto*320)); 
0B9DC:  MOVLB  6
0B9DE:  CLRF   x5B
0B9E0:  MOVFF  240,65A
0B9E4:  MOVLW  01
0B9E6:  MOVWF  x5D
0B9E8:  MOVLW  40
0B9EA:  MOVWF  x5C
0B9EC:  MOVLB  0
0B9EE:  CALL   21C4
0B9F2:  MOVFF  02,03
0B9F6:  MOVF   01,W
0B9F8:  ADDLW  03
0B9FA:  MOVLB  6
0B9FC:  MOVWF  x50
0B9FE:  MOVLW  00
0BA00:  ADDWFC 02,W
0BA02:  MOVWF  x51
0BA04:  MOVWF  x56
0BA06:  MOVFF  650,655
0BA0A:  MOVLB  0
0BA0C:  CALL   22C6
0BA10:  MOVFF  01,2B8
....................          if(mesCiclos>12) 
0BA14:  MOVLB  2
0BA16:  MOVF   xB8,W
0BA18:  SUBLW  0C
0BA1A:  BC    BA20
....................             mesCiclos=1; 
0BA1C:  MOVLW  01
0BA1E:  MOVWF  xB8
....................          yearCiclos=read_ext_eeprom(4+(cicloVisto*320)); 
0BA20:  MOVLB  6
0BA22:  CLRF   x5B
0BA24:  MOVFF  240,65A
0BA28:  MOVLW  01
0BA2A:  MOVWF  x5D
0BA2C:  MOVLW  40
0BA2E:  MOVWF  x5C
0BA30:  MOVLB  0
0BA32:  CALL   21C4
0BA36:  MOVFF  02,03
0BA3A:  MOVF   01,W
0BA3C:  ADDLW  04
0BA3E:  MOVLB  6
0BA40:  MOVWF  x50
0BA42:  MOVLW  00
0BA44:  ADDWFC 02,W
0BA46:  MOVWF  x51
0BA48:  MOVWF  x56
0BA4A:  MOVFF  650,655
0BA4E:  MOVLB  0
0BA50:  CALL   22C6
0BA54:  MOVFF  01,2B9
....................          if(yearCiclos>99) 
0BA58:  MOVLB  2
0BA5A:  MOVF   xB9,W
0BA5C:  SUBLW  63
0BA5E:  BC    BA64
....................             yearCiclos=19; 
0BA60:  MOVLW  13
0BA62:  MOVWF  xB9
....................          cicloCiclos=read_ext_eeprom(1+(cicloVisto*320)); 
0BA64:  MOVLB  6
0BA66:  CLRF   x5B
0BA68:  MOVFF  240,65A
0BA6C:  MOVLW  01
0BA6E:  MOVWF  x5D
0BA70:  MOVLW  40
0BA72:  MOVWF  x5C
0BA74:  MOVLB  0
0BA76:  CALL   21C4
0BA7A:  MOVFF  02,03
0BA7E:  MOVF   01,W
0BA80:  ADDLW  01
0BA82:  MOVLB  6
0BA84:  MOVWF  x50
0BA86:  MOVLW  00
0BA88:  ADDWFC 02,W
0BA8A:  MOVWF  x51
0BA8C:  MOVWF  x56
0BA8E:  MOVFF  650,655
0BA92:  MOVLB  0
0BA94:  CALL   22C6
0BA98:  MOVFF  01,2BB
....................          if(cicloCiclos>20) 
0BA9C:  MOVLB  2
0BA9E:  MOVF   xBB,W
0BAA0:  SUBLW  14
0BAA2:  BC    BAA8
....................             cicloCiclos=1; 
0BAA4:  MOVLW  01
0BAA6:  MOVWF  xBB
....................          usuarioCiclos=read_ext_eeprom((cicloVisto*320)); 
0BAA8:  MOVLB  6
0BAAA:  CLRF   x5B
0BAAC:  MOVFF  240,65A
0BAB0:  MOVLW  01
0BAB2:  MOVWF  x5D
0BAB4:  MOVLW  40
0BAB6:  MOVWF  x5C
0BAB8:  MOVLB  0
0BABA:  CALL   21C4
0BABE:  MOVFF  02,651
0BAC2:  MOVFF  01,650
0BAC6:  MOVFF  02,656
0BACA:  MOVFF  01,655
0BACE:  CALL   22C6
0BAD2:  MOVFF  01,2BA
....................          if(usuarioCiclos>10) 
0BAD6:  MOVLB  2
0BAD8:  MOVF   xBA,W
0BADA:  SUBLW  0A
0BADC:  BC    BAE2
....................             usuarioCiclos=1; 
0BADE:  MOVLW  01
0BAE0:  MOVWF  xBA
....................          for(i=0;i<7;i++){//Lee Valores para completar la Tabla 
0BAE2:  MOVLB  1
0BAE4:  CLRF   xF9
0BAE6:  MOVF   xF9,W
0BAE8:  SUBLW  06
0BAEA:  BTFSS  FD8.0
0BAEC:  BRA    C048
....................             horaCiclos[i]=read_ext_eeprom((cicloVisto*320)+11+((cicloVisualizado+i)*9)); 
0BAEE:  CLRF   03
0BAF0:  MOVF   xF9,W
0BAF2:  ADDLW  A2
0BAF4:  MOVWF  01
0BAF6:  MOVLW  02
0BAF8:  ADDWFC 03,F
0BAFA:  MOVFF  01,650
0BAFE:  MOVLB  6
0BB00:  MOVFF  03,651
0BB04:  CLRF   x5B
0BB06:  MOVFF  240,65A
0BB0A:  MOVLW  01
0BB0C:  MOVWF  x5D
0BB0E:  MOVLW  40
0BB10:  MOVWF  x5C
0BB12:  MOVLB  0
0BB14:  CALL   21C4
0BB18:  MOVFF  02,653
0BB1C:  MOVFF  01,652
0BB20:  MOVLW  0B
0BB22:  MOVLB  6
0BB24:  ADDWF  x52,F
0BB26:  MOVLW  00
0BB28:  ADDWFC x53,F
0BB2A:  MOVLB  1
0BB2C:  MOVF   xF9,W
0BB2E:  MOVLB  2
0BB30:  ADDWF  x3F,W
0BB32:  MULLW  09
0BB34:  MOVF   FF3,W
0BB36:  MOVLB  6
0BB38:  ADDWF  x52,F
0BB3A:  MOVLW  00
0BB3C:  ADDWFC x53,F
0BB3E:  MOVFF  653,656
0BB42:  MOVFF  652,655
0BB46:  MOVLB  0
0BB48:  CALL   22C6
0BB4C:  MOVFF  651,FEA
0BB50:  MOVFF  650,FE9
0BB54:  MOVFF  01,FEF
....................             if(horaCiclos[i]>24) 
0BB58:  CLRF   03
0BB5A:  MOVLB  1
0BB5C:  MOVF   xF9,W
0BB5E:  ADDLW  A2
0BB60:  MOVWF  FE9
0BB62:  MOVLW  02
0BB64:  ADDWFC 03,W
0BB66:  MOVWF  FEA
0BB68:  MOVF   FEF,W
0BB6A:  SUBLW  18
0BB6C:  BC    BB7E
....................                horaCiclos[i]=0; 
0BB6E:  CLRF   03
0BB70:  MOVF   xF9,W
0BB72:  ADDLW  A2
0BB74:  MOVWF  FE9
0BB76:  MOVLW  02
0BB78:  ADDWFC 03,W
0BB7A:  MOVWF  FEA
0BB7C:  CLRF   FEF
....................             minutoCiclos[i]=read_ext_eeprom((cicloVisto*320)+12+((cicloVisualizado+i)*9)); 
0BB7E:  CLRF   03
0BB80:  MOVF   xF9,W
0BB82:  ADDLW  A9
0BB84:  MOVWF  01
0BB86:  MOVLW  02
0BB88:  ADDWFC 03,F
0BB8A:  MOVFF  01,650
0BB8E:  MOVLB  6
0BB90:  MOVFF  03,651
0BB94:  CLRF   x5B
0BB96:  MOVFF  240,65A
0BB9A:  MOVLW  01
0BB9C:  MOVWF  x5D
0BB9E:  MOVLW  40
0BBA0:  MOVWF  x5C
0BBA2:  MOVLB  0
0BBA4:  CALL   21C4
0BBA8:  MOVFF  02,653
0BBAC:  MOVFF  01,652
0BBB0:  MOVLW  0C
0BBB2:  MOVLB  6
0BBB4:  ADDWF  x52,F
0BBB6:  MOVLW  00
0BBB8:  ADDWFC x53,F
0BBBA:  MOVLB  1
0BBBC:  MOVF   xF9,W
0BBBE:  MOVLB  2
0BBC0:  ADDWF  x3F,W
0BBC2:  MULLW  09
0BBC4:  MOVF   FF3,W
0BBC6:  MOVLB  6
0BBC8:  ADDWF  x52,F
0BBCA:  MOVLW  00
0BBCC:  ADDWFC x53,F
0BBCE:  MOVFF  653,656
0BBD2:  MOVFF  652,655
0BBD6:  MOVLB  0
0BBD8:  CALL   22C6
0BBDC:  MOVFF  651,FEA
0BBE0:  MOVFF  650,FE9
0BBE4:  MOVFF  01,FEF
....................             if(minutoCiclos[i]>59) 
0BBE8:  CLRF   03
0BBEA:  MOVLB  1
0BBEC:  MOVF   xF9,W
0BBEE:  ADDLW  A9
0BBF0:  MOVWF  FE9
0BBF2:  MOVLW  02
0BBF4:  ADDWFC 03,W
0BBF6:  MOVWF  FEA
0BBF8:  MOVF   FEF,W
0BBFA:  SUBLW  3B
0BBFC:  BC    BC0E
....................                minutoCiclos[i]=0; 
0BBFE:  CLRF   03
0BC00:  MOVF   xF9,W
0BC02:  ADDLW  A9
0BC04:  MOVWF  FE9
0BC06:  MOVLW  02
0BC08:  ADDWFC 03,W
0BC0A:  MOVWF  FEA
0BC0C:  CLRF   FEF
....................             TCiclos[i]=read_ext_eeprom((cicloVisto*320)+5+((cicloVisualizado+i)*9))+inttofloat(read_ext_eeprom((cicloVisto*320)+6+((cicloVisualizado+i)*9))); 
0BC0E:  MOVF   xF9,W
0BC10:  MULLW  04
0BC12:  MOVF   FF3,W
0BC14:  CLRF   03
0BC16:  ADDLW  6A
0BC18:  MOVWF  01
0BC1A:  MOVLW  02
0BC1C:  ADDWFC 03,F
0BC1E:  MOVFF  01,650
0BC22:  MOVLB  6
0BC24:  MOVFF  03,651
0BC28:  CLRF   x5B
0BC2A:  MOVFF  240,65A
0BC2E:  MOVLW  01
0BC30:  MOVWF  x5D
0BC32:  MOVLW  40
0BC34:  MOVWF  x5C
0BC36:  MOVLB  0
0BC38:  CALL   21C4
0BC3C:  MOVFF  02,653
0BC40:  MOVFF  01,652
0BC44:  MOVLW  05
0BC46:  MOVLB  6
0BC48:  ADDWF  x52,F
0BC4A:  MOVLW  00
0BC4C:  ADDWFC x53,F
0BC4E:  MOVLB  1
0BC50:  MOVF   xF9,W
0BC52:  MOVLB  2
0BC54:  ADDWF  x3F,W
0BC56:  MULLW  09
0BC58:  MOVF   FF3,W
0BC5A:  MOVLB  6
0BC5C:  ADDWF  x52,F
0BC5E:  MOVLW  00
0BC60:  ADDWFC x53,F
0BC62:  MOVFF  653,656
0BC66:  MOVFF  652,655
0BC6A:  MOVLB  0
0BC6C:  CALL   22C6
0BC70:  MOVFF  01,652
0BC74:  MOVLB  6
0BC76:  CLRF   x5B
0BC78:  MOVFF  240,65A
0BC7C:  MOVLW  01
0BC7E:  MOVWF  x5D
0BC80:  MOVLW  40
0BC82:  MOVWF  x5C
0BC84:  MOVLB  0
0BC86:  CALL   21C4
0BC8A:  MOVFF  02,654
0BC8E:  MOVFF  01,653
0BC92:  MOVLW  06
0BC94:  MOVLB  6
0BC96:  ADDWF  x53,F
0BC98:  MOVLW  00
0BC9A:  ADDWFC x54,F
0BC9C:  MOVLB  1
0BC9E:  MOVF   xF9,W
0BCA0:  MOVLB  2
0BCA2:  ADDWF  x3F,W
0BCA4:  MULLW  09
0BCA6:  MOVF   FF3,W
0BCA8:  MOVLB  6
0BCAA:  ADDWF  x53,F
0BCAC:  MOVLW  00
0BCAE:  ADDWFC x54,F
0BCB0:  MOVFF  654,656
0BCB4:  MOVFF  653,655
0BCB8:  MOVLB  0
0BCBA:  CALL   22C6
0BCBE:  MOVFF  01,653
0BCC2:  MOVFF  01,654
0BCC6:  CALL   24CC
0BCCA:  MOVFF  00,653
0BCCE:  MOVFF  01,654
0BCD2:  MOVFF  02,655
0BCD6:  MOVFF  03,656
0BCDA:  MOVLB  6
0BCDC:  CLRF   x63
0BCDE:  MOVFF  652,662
0BCE2:  MOVLB  0
0BCE4:  CALL   20F2
0BCE8:  MOVFF  FEA,658
0BCEC:  MOVFF  FE9,657
0BCF0:  BCF    FD8.1
0BCF2:  MOVFF  03,665
0BCF6:  MOVFF  02,664
0BCFA:  MOVFF  01,663
0BCFE:  MOVFF  00,662
0BD02:  MOVFF  656,669
0BD06:  MOVFF  655,668
0BD0A:  MOVFF  654,667
0BD0E:  MOVFF  653,666
0BD12:  CALL   250C
0BD16:  MOVFF  658,FEA
0BD1A:  MOVFF  657,FE9
0BD1E:  MOVFF  651,FEA
0BD22:  MOVFF  650,FE9
0BD26:  MOVFF  00,FEF
0BD2A:  MOVFF  01,FEC
0BD2E:  MOVFF  02,FEC
0BD32:  MOVFF  03,FEC
....................             if(TCiclos[i]>150) 
0BD36:  MOVLB  1
0BD38:  MOVF   xF9,W
0BD3A:  MULLW  04
0BD3C:  MOVF   FF3,W
0BD3E:  CLRF   03
0BD40:  ADDLW  6A
0BD42:  MOVWF  FE9
0BD44:  MOVLW  02
0BD46:  ADDWFC 03,W
0BD48:  MOVWF  FEA
0BD4A:  MOVFF  FEF,650
0BD4E:  MOVFF  FEC,651
0BD52:  MOVFF  FEC,652
0BD56:  MOVFF  FEC,653
0BD5A:  MOVLB  6
0BD5C:  CLRF   x57
0BD5E:  CLRF   x56
0BD60:  MOVLW  16
0BD62:  MOVWF  x55
0BD64:  MOVLW  86
0BD66:  MOVWF  x54
0BD68:  MOVFF  653,65B
0BD6C:  MOVFF  652,65A
0BD70:  MOVFF  651,659
0BD74:  MOVFF  650,658
0BD78:  MOVLB  0
0BD7A:  CALL   2784
0BD7E:  BNC   BD9E
....................                TCiclos[i]=0; 
0BD80:  MOVLB  1
0BD82:  MOVF   xF9,W
0BD84:  MULLW  04
0BD86:  MOVF   FF3,W
0BD88:  CLRF   03
0BD8A:  ADDLW  6A
0BD8C:  MOVWF  FE9
0BD8E:  MOVLW  02
0BD90:  ADDWFC 03,W
0BD92:  MOVWF  FEA
0BD94:  CLRF   FEF
0BD96:  CLRF   FEC
0BD98:  CLRF   FEC
0BD9A:  CLRF   FEC
0BD9C:  MOVLB  0
....................             PcCiclos[i]=make16(read_ext_eeprom((cicloVisto*320)+7+((cicloVisualizado+i)*9)),read_ext_eeprom((cicloVisto*320)+8+((cicloVisualizado+i)*9))); 
0BD9E:  BCF    FD8.0
0BDA0:  MOVLB  1
0BDA2:  RLCF   xF9,W
0BDA4:  CLRF   03
0BDA6:  ADDLW  86
0BDA8:  MOVWF  01
0BDAA:  MOVLW  02
0BDAC:  ADDWFC 03,F
0BDAE:  MOVFF  01,650
0BDB2:  MOVLB  6
0BDB4:  MOVFF  03,651
0BDB8:  CLRF   x5B
0BDBA:  MOVFF  240,65A
0BDBE:  MOVLW  01
0BDC0:  MOVWF  x5D
0BDC2:  MOVLW  40
0BDC4:  MOVWF  x5C
0BDC6:  MOVLB  0
0BDC8:  CALL   21C4
0BDCC:  MOVFF  02,653
0BDD0:  MOVFF  01,652
0BDD4:  MOVLW  07
0BDD6:  MOVLB  6
0BDD8:  ADDWF  x52,F
0BDDA:  MOVLW  00
0BDDC:  ADDWFC x53,F
0BDDE:  MOVLB  1
0BDE0:  MOVF   xF9,W
0BDE2:  MOVLB  2
0BDE4:  ADDWF  x3F,W
0BDE6:  MULLW  09
0BDE8:  MOVF   FF3,W
0BDEA:  MOVLB  6
0BDEC:  ADDWF  x52,F
0BDEE:  MOVLW  00
0BDF0:  ADDWFC x53,F
0BDF2:  MOVFF  653,656
0BDF6:  MOVFF  652,655
0BDFA:  MOVLB  0
0BDFC:  CALL   22C6
0BE00:  MOVFF  01,652
0BE04:  MOVLB  6
0BE06:  CLRF   x5B
0BE08:  MOVFF  240,65A
0BE0C:  MOVLW  01
0BE0E:  MOVWF  x5D
0BE10:  MOVLW  40
0BE12:  MOVWF  x5C
0BE14:  MOVLB  0
0BE16:  CALL   21C4
0BE1A:  MOVFF  02,654
0BE1E:  MOVFF  01,653
0BE22:  MOVLW  08
0BE24:  MOVLB  6
0BE26:  ADDWF  x53,F
0BE28:  MOVLW  00
0BE2A:  ADDWFC x54,F
0BE2C:  MOVLB  1
0BE2E:  MOVF   xF9,W
0BE30:  MOVLB  2
0BE32:  ADDWF  x3F,W
0BE34:  MULLW  09
0BE36:  MOVF   FF3,W
0BE38:  MOVLB  6
0BE3A:  ADDWF  x53,F
0BE3C:  MOVLW  00
0BE3E:  ADDWFC x54,F
0BE40:  MOVFF  654,656
0BE44:  MOVFF  653,655
0BE48:  MOVLB  0
0BE4A:  CALL   22C6
0BE4E:  MOVFF  651,FEA
0BE52:  MOVFF  650,FE9
0BE56:  MOVFF  652,FEC
0BE5A:  MOVF   FED,F
0BE5C:  MOVFF  01,FEF
....................             if(PcCiclos[i]>400) 
0BE60:  BCF    FD8.0
0BE62:  MOVLB  1
0BE64:  RLCF   xF9,W
0BE66:  CLRF   03
0BE68:  ADDLW  86
0BE6A:  MOVWF  FE9
0BE6C:  MOVLW  02
0BE6E:  ADDWFC 03,W
0BE70:  MOVWF  FEA
0BE72:  MOVFF  FEC,651
0BE76:  MOVF   FED,F
0BE78:  MOVFF  FEF,650
0BE7C:  MOVLB  6
0BE7E:  MOVF   x51,W
0BE80:  SUBLW  00
0BE82:  BC    BEA8
0BE84:  XORLW  FF
0BE86:  BNZ   BE8E
0BE88:  MOVF   x50,W
0BE8A:  SUBLW  90
0BE8C:  BC    BEA8
....................                PcCiclos[i]=0; 
0BE8E:  BCF    FD8.0
0BE90:  MOVLB  1
0BE92:  RLCF   xF9,W
0BE94:  CLRF   03
0BE96:  ADDLW  86
0BE98:  MOVWF  FE9
0BE9A:  MOVLW  02
0BE9C:  ADDWFC 03,W
0BE9E:  MOVWF  FEA
0BEA0:  CLRF   FEC
0BEA2:  MOVF   FED,F
0BEA4:  CLRF   FEF
0BEA6:  MOVLB  6
....................             PpcCiclos[i]=make16(read_ext_eeprom((cicloVisto*320)+9+((cicloVisualizado+i)*9)),read_ext_eeprom((cicloVisto*320)+10+((cicloVisualizado+i)*9))); 
0BEA8:  BCF    FD8.0
0BEAA:  MOVLB  1
0BEAC:  RLCF   xF9,W
0BEAE:  CLRF   03
0BEB0:  ADDLW  94
0BEB2:  MOVWF  01
0BEB4:  MOVLW  02
0BEB6:  ADDWFC 03,F
0BEB8:  MOVFF  01,650
0BEBC:  MOVLB  6
0BEBE:  MOVFF  03,651
0BEC2:  CLRF   x5B
0BEC4:  MOVFF  240,65A
0BEC8:  MOVLW  01
0BECA:  MOVWF  x5D
0BECC:  MOVLW  40
0BECE:  MOVWF  x5C
0BED0:  MOVLB  0
0BED2:  CALL   21C4
0BED6:  MOVFF  02,653
0BEDA:  MOVFF  01,652
0BEDE:  MOVLW  09
0BEE0:  MOVLB  6
0BEE2:  ADDWF  x52,F
0BEE4:  MOVLW  00
0BEE6:  ADDWFC x53,F
0BEE8:  MOVLB  1
0BEEA:  MOVF   xF9,W
0BEEC:  MOVLB  2
0BEEE:  ADDWF  x3F,W
0BEF0:  MULLW  09
0BEF2:  MOVF   FF3,W
0BEF4:  MOVLB  6
0BEF6:  ADDWF  x52,F
0BEF8:  MOVLW  00
0BEFA:  ADDWFC x53,F
0BEFC:  MOVFF  653,656
0BF00:  MOVFF  652,655
0BF04:  MOVLB  0
0BF06:  CALL   22C6
0BF0A:  MOVFF  01,652
0BF0E:  MOVLB  6
0BF10:  CLRF   x5B
0BF12:  MOVFF  240,65A
0BF16:  MOVLW  01
0BF18:  MOVWF  x5D
0BF1A:  MOVLW  40
0BF1C:  MOVWF  x5C
0BF1E:  MOVLB  0
0BF20:  CALL   21C4
0BF24:  MOVFF  02,654
0BF28:  MOVFF  01,653
0BF2C:  MOVLW  0A
0BF2E:  MOVLB  6
0BF30:  ADDWF  x53,F
0BF32:  MOVLW  00
0BF34:  ADDWFC x54,F
0BF36:  MOVLB  1
0BF38:  MOVF   xF9,W
0BF3A:  MOVLB  2
0BF3C:  ADDWF  x3F,W
0BF3E:  MULLW  09
0BF40:  MOVF   FF3,W
0BF42:  MOVLB  6
0BF44:  ADDWF  x53,F
0BF46:  MOVLW  00
0BF48:  ADDWFC x54,F
0BF4A:  MOVFF  654,656
0BF4E:  MOVFF  653,655
0BF52:  MOVLB  0
0BF54:  CALL   22C6
0BF58:  MOVFF  651,FEA
0BF5C:  MOVFF  650,FE9
0BF60:  MOVFF  652,FEC
0BF64:  MOVF   FED,F
0BF66:  MOVFF  01,FEF
....................             if(PpcCiclos[i]>400) 
0BF6A:  BCF    FD8.0
0BF6C:  MOVLB  1
0BF6E:  RLCF   xF9,W
0BF70:  CLRF   03
0BF72:  ADDLW  94
0BF74:  MOVWF  FE9
0BF76:  MOVLW  02
0BF78:  ADDWFC 03,W
0BF7A:  MOVWF  FEA
0BF7C:  MOVFF  FEC,651
0BF80:  MOVF   FED,F
0BF82:  MOVFF  FEF,650
0BF86:  MOVLB  6
0BF88:  MOVF   x51,W
0BF8A:  SUBLW  00
0BF8C:  BC    BFB2
0BF8E:  XORLW  FF
0BF90:  BNZ   BF98
0BF92:  MOVF   x50,W
0BF94:  SUBLW  90
0BF96:  BC    BFB2
....................                PpcCiclos[i]=0; 
0BF98:  BCF    FD8.0
0BF9A:  MOVLB  1
0BF9C:  RLCF   xF9,W
0BF9E:  CLRF   03
0BFA0:  ADDLW  94
0BFA2:  MOVWF  FE9
0BFA4:  MOVLW  02
0BFA6:  ADDWFC 03,W
0BFA8:  MOVWF  FEA
0BFAA:  CLRF   FEC
0BFAC:  MOVF   FED,F
0BFAE:  CLRF   FEF
0BFB0:  MOVLB  6
....................             ACiclos[i]=read_ext_eeprom((cicloVisto*320)+13+((cicloVisualizado+i)*9)); 
0BFB2:  CLRF   03
0BFB4:  MOVLB  1
0BFB6:  MOVF   xF9,W
0BFB8:  ADDLW  B0
0BFBA:  MOVWF  01
0BFBC:  MOVLW  02
0BFBE:  ADDWFC 03,F
0BFC0:  MOVFF  01,650
0BFC4:  MOVLB  6
0BFC6:  MOVFF  03,651
0BFCA:  CLRF   x5B
0BFCC:  MOVFF  240,65A
0BFD0:  MOVLW  01
0BFD2:  MOVWF  x5D
0BFD4:  MOVLW  40
0BFD6:  MOVWF  x5C
0BFD8:  MOVLB  0
0BFDA:  CALL   21C4
0BFDE:  MOVFF  02,653
0BFE2:  MOVFF  01,652
0BFE6:  MOVLW  0D
0BFE8:  MOVLB  6
0BFEA:  ADDWF  x52,F
0BFEC:  MOVLW  00
0BFEE:  ADDWFC x53,F
0BFF0:  MOVLB  1
0BFF2:  MOVF   xF9,W
0BFF4:  MOVLB  2
0BFF6:  ADDWF  x3F,W
0BFF8:  MULLW  09
0BFFA:  MOVF   FF3,W
0BFFC:  MOVLB  6
0BFFE:  ADDWF  x52,F
0C000:  MOVLW  00
0C002:  ADDWFC x53,F
0C004:  MOVFF  653,656
0C008:  MOVFF  652,655
0C00C:  MOVLB  0
0C00E:  CALL   22C6
0C012:  MOVFF  651,FEA
0C016:  MOVFF  650,FE9
0C01A:  MOVFF  01,FEF
....................             if(ACiclos[i]>30) 
0C01E:  CLRF   03
0C020:  MOVLB  1
0C022:  MOVF   xF9,W
0C024:  ADDLW  B0
0C026:  MOVWF  FE9
0C028:  MOVLW  02
0C02A:  ADDWFC 03,W
0C02C:  MOVWF  FEA
0C02E:  MOVF   FEF,W
0C030:  SUBLW  1E
0C032:  BC    C044
....................                ACiclos[i]=0; 
0C034:  CLRF   03
0C036:  MOVF   xF9,W
0C038:  ADDLW  B0
0C03A:  MOVWF  FE9
0C03C:  MOVLW  02
0C03E:  ADDWFC 03,W
0C040:  MOVWF  FEA
0C042:  CLRF   FEF
....................          } 
0C044:  INCF   xF9,F
0C046:  BRA    BAE6
0C048:  MOVLB  0
....................       } 
....................        
....................       //Imprime Valores Estaticos 
....................       printf("fecha.txt=\"%02u/%02u/%02u\"",diaCiclos,mesCiclos,yearCiclos); 
0C04A:  MOVLW  4C
0C04C:  MOVWF  FF6
0C04E:  MOVLW  14
0C050:  MOVWF  FF7
0C052:  MOVLW  00
0C054:  MOVWF  FF8
0C056:  MOVLW  0B
0C058:  MOVLB  6
0C05A:  MOVWF  x55
0C05C:  MOVLB  0
0C05E:  CALL   56B2
0C062:  MOVFF  2B7,655
0C066:  MOVLW  01
0C068:  MOVLB  6
0C06A:  MOVWF  x56
0C06C:  MOVLB  0
0C06E:  CALL   599E
0C072:  MOVLW  2F
0C074:  BTFSS  F9E.4
0C076:  BRA    C074
0C078:  MOVWF  FAD
0C07A:  MOVFF  2B8,655
0C07E:  MOVLW  01
0C080:  MOVLB  6
0C082:  MOVWF  x56
0C084:  MOVLB  0
0C086:  CALL   599E
0C08A:  MOVLW  2F
0C08C:  BTFSS  F9E.4
0C08E:  BRA    C08C
0C090:  MOVWF  FAD
0C092:  MOVFF  2B9,655
0C096:  MOVLW  01
0C098:  MOVLB  6
0C09A:  MOVWF  x56
0C09C:  MOVLB  0
0C09E:  CALL   599E
0C0A2:  MOVLW  22
0C0A4:  BTFSS  F9E.4
0C0A6:  BRA    C0A4
0C0A8:  MOVWF  FAD
....................       SendDataDisplay(); 
0C0AA:  CALL   3F6A
....................        
....................       printf("ciclo.txt=\"%02u\"",cicloCiclos); 
0C0AE:  MOVLW  68
0C0B0:  MOVWF  FF6
0C0B2:  MOVLW  14
0C0B4:  MOVWF  FF7
0C0B6:  MOVLW  00
0C0B8:  MOVWF  FF8
0C0BA:  MOVLW  0B
0C0BC:  MOVLB  6
0C0BE:  MOVWF  x55
0C0C0:  MOVLB  0
0C0C2:  CALL   56B2
0C0C6:  MOVFF  2BB,655
0C0CA:  MOVLW  01
0C0CC:  MOVLB  6
0C0CE:  MOVWF  x56
0C0D0:  MOVLB  0
0C0D2:  CALL   599E
0C0D6:  MOVLW  22
0C0D8:  BTFSS  F9E.4
0C0DA:  BRA    C0D8
0C0DC:  MOVWF  FAD
....................       SendDataDisplay(); 
0C0DE:  CALL   3F6A
....................        
....................       printf("t0.txt=\"Ciclo %02u\"",cicloVisto); 
0C0E2:  MOVLW  7A
0C0E4:  MOVWF  FF6
0C0E6:  MOVLW  14
0C0E8:  MOVWF  FF7
0C0EA:  MOVLW  00
0C0EC:  MOVWF  FF8
0C0EE:  MOVLW  0E
0C0F0:  MOVLB  6
0C0F2:  MOVWF  x55
0C0F4:  MOVLB  0
0C0F6:  CALL   56B2
0C0FA:  MOVFF  240,655
0C0FE:  MOVLW  01
0C100:  MOVLB  6
0C102:  MOVWF  x56
0C104:  MOVLB  0
0C106:  CALL   599E
0C10A:  MOVLW  22
0C10C:  BTFSS  F9E.4
0C10E:  BRA    C10C
0C110:  MOVWF  FAD
....................       SendDataDisplay(); 
0C112:  CALL   3F6A
....................        
....................       if(usuarioCiclos==0){ 
0C116:  MOVLB  2
0C118:  MOVF   xBA,F
0C11A:  BNZ   C136
....................          printf("usuario.txt=\"Admin\""); 
0C11C:  MOVLW  8E
0C11E:  MOVWF  FF6
0C120:  MOVLW  14
0C122:  MOVWF  FF7
0C124:  MOVLW  00
0C126:  MOVWF  FF8
0C128:  MOVLB  0
0C12A:  CALL   3F38
....................          SendDataDisplay(); 
0C12E:  CALL   3F6A
....................       }else if(usuarioCiclos>0 && usuarioCiclos<9){ 
0C132:  BRA    C194
0C134:  MOVLB  2
0C136:  MOVF   xBA,F
0C138:  BZ    C178
0C13A:  MOVF   xBA,W
0C13C:  SUBLW  08
0C13E:  BNC   C178
....................          printf("usuario.txt=\"Operador%u\"",usuarioCiclos); 
0C140:  MOVLW  A2
0C142:  MOVWF  FF6
0C144:  MOVLW  14
0C146:  MOVWF  FF7
0C148:  MOVLW  00
0C14A:  MOVWF  FF8
0C14C:  MOVLW  15
0C14E:  MOVLB  6
0C150:  MOVWF  x55
0C152:  MOVLB  0
0C154:  CALL   56B2
0C158:  MOVFF  2BA,655
0C15C:  MOVLW  1B
0C15E:  MOVLB  6
0C160:  MOVWF  x56
0C162:  MOVLB  0
0C164:  CALL   599E
0C168:  MOVLW  22
0C16A:  BTFSS  F9E.4
0C16C:  BRA    C16A
0C16E:  MOVWF  FAD
....................          SendDataDisplay(); 
0C170:  CALL   3F6A
....................       }else if(usuarioCiclos==9){ 
0C174:  BRA    C194
0C176:  MOVLB  2
0C178:  MOVF   xBA,W
0C17A:  SUBLW  09
0C17C:  BNZ   C194
....................          printf("usuario.txt=\"Tecnico\""); 
0C17E:  MOVLW  BC
0C180:  MOVWF  FF6
0C182:  MOVLW  14
0C184:  MOVWF  FF7
0C186:  MOVLW  00
0C188:  MOVWF  FF8
0C18A:  MOVLB  0
0C18C:  CALL   3F38
....................          SendDataDisplay(); 
0C190:  CALL   3F6A
....................       } 
....................        
....................       //Imprime Valores Dinamicos 
....................       for(i=0;i<7;i++){ 
0C194:  MOVLB  1
0C196:  CLRF   xF9
0C198:  MOVF   xF9,W
0C19A:  SUBLW  06
0C19C:  BTFSS  FD8.0
0C19E:  BRA    C438
....................          printf("hora%u.txt=\"%02u.  %02u:%02u\"",i+1,cicloVisualizado+i+1,horaCiclos[i],minutoCiclos[i]); 
0C1A0:  MOVLW  01
0C1A2:  ADDWF  xF9,W
0C1A4:  MOVLB  6
0C1A6:  MOVWF  x50
0C1A8:  MOVLB  1
0C1AA:  MOVF   xF9,W
0C1AC:  MOVLB  2
0C1AE:  ADDWF  x3F,W
0C1B0:  ADDLW  01
0C1B2:  MOVLB  6
0C1B4:  MOVWF  x51
0C1B6:  CLRF   03
0C1B8:  MOVLB  1
0C1BA:  MOVF   xF9,W
0C1BC:  ADDLW  A2
0C1BE:  MOVWF  FE9
0C1C0:  MOVLW  02
0C1C2:  ADDWFC 03,W
0C1C4:  MOVWF  FEA
0C1C6:  MOVFF  FEF,652
0C1CA:  CLRF   03
0C1CC:  MOVF   xF9,W
0C1CE:  ADDLW  A9
0C1D0:  MOVWF  FE9
0C1D2:  MOVLW  02
0C1D4:  ADDWFC 03,W
0C1D6:  MOVWF  FEA
0C1D8:  MOVFF  FEF,653
0C1DC:  MOVLW  D2
0C1DE:  MOVWF  FF6
0C1E0:  MOVLW  14
0C1E2:  MOVWF  FF7
0C1E4:  MOVLW  00
0C1E6:  MOVWF  FF8
0C1E8:  MOVLW  04
0C1EA:  MOVLB  6
0C1EC:  MOVWF  x55
0C1EE:  MOVLB  0
0C1F0:  CALL   56B2
0C1F4:  MOVFF  650,655
0C1F8:  MOVLW  1B
0C1FA:  MOVLB  6
0C1FC:  MOVWF  x56
0C1FE:  MOVLB  0
0C200:  CALL   599E
0C204:  MOVLW  D8
0C206:  MOVWF  FF6
0C208:  MOVLW  14
0C20A:  MOVWF  FF7
0C20C:  MOVLW  00
0C20E:  MOVWF  FF8
0C210:  MOVLW  06
0C212:  MOVLB  6
0C214:  MOVWF  x55
0C216:  MOVLB  0
0C218:  CALL   56B2
0C21C:  MOVFF  651,655
0C220:  MOVLW  01
0C222:  MOVLB  6
0C224:  MOVWF  x56
0C226:  MOVLB  0
0C228:  CALL   599E
0C22C:  MOVLW  2E
0C22E:  BTFSS  F9E.4
0C230:  BRA    C22E
0C232:  MOVWF  FAD
0C234:  MOVLW  20
0C236:  BTFSS  F9E.4
0C238:  BRA    C236
0C23A:  MOVWF  FAD
0C23C:  MOVLW  20
0C23E:  BTFSS  F9E.4
0C240:  BRA    C23E
0C242:  MOVWF  FAD
0C244:  MOVFF  652,655
0C248:  MOVLW  01
0C24A:  MOVLB  6
0C24C:  MOVWF  x56
0C24E:  MOVLB  0
0C250:  CALL   599E
0C254:  MOVLW  3A
0C256:  BTFSS  F9E.4
0C258:  BRA    C256
0C25A:  MOVWF  FAD
0C25C:  MOVFF  653,655
0C260:  MOVLW  01
0C262:  MOVLB  6
0C264:  MOVWF  x56
0C266:  MOVLB  0
0C268:  CALL   599E
0C26C:  MOVLW  22
0C26E:  BTFSS  F9E.4
0C270:  BRA    C26E
0C272:  MOVWF  FAD
....................          SendDataDisplay(); 
0C274:  CALL   3F6A
....................          printf("T%u.txt=\"%3.1fC\"",i+1,TCiclos[i]); 
0C278:  MOVLW  01
0C27A:  MOVLB  1
0C27C:  ADDWF  xF9,W
0C27E:  MOVLB  6
0C280:  MOVWF  x50
0C282:  MOVLB  1
0C284:  MOVF   xF9,W
0C286:  MULLW  04
0C288:  MOVF   FF3,W
0C28A:  CLRF   03
0C28C:  ADDLW  6A
0C28E:  MOVWF  FE9
0C290:  MOVLW  02
0C292:  ADDWFC 03,W
0C294:  MOVWF  FEA
0C296:  MOVFF  FEF,651
0C29A:  MOVFF  FEC,652
0C29E:  MOVFF  FEC,653
0C2A2:  MOVFF  FEC,654
0C2A6:  MOVLW  54
0C2A8:  BTFSS  F9E.4
0C2AA:  BRA    C2A8
0C2AC:  MOVWF  FAD
0C2AE:  MOVFF  650,655
0C2B2:  MOVLW  1B
0C2B4:  MOVLB  6
0C2B6:  MOVWF  x56
0C2B8:  MOVLB  0
0C2BA:  CALL   599E
0C2BE:  MOVLW  F3
0C2C0:  MOVWF  FF6
0C2C2:  MOVLW  14
0C2C4:  MOVWF  FF7
0C2C6:  MOVLW  00
0C2C8:  MOVWF  FF8
0C2CA:  MOVLW  06
0C2CC:  MOVLB  6
0C2CE:  MOVWF  x55
0C2D0:  MOVLB  0
0C2D2:  CALL   56B2
0C2D6:  MOVLW  02
0C2D8:  MOVWF  FE9
0C2DA:  MOVFF  654,658
0C2DE:  MOVFF  653,657
0C2E2:  MOVFF  652,656
0C2E6:  MOVFF  651,655
0C2EA:  MOVLW  01
0C2EC:  MOVLB  6
0C2EE:  MOVWF  x59
0C2F0:  MOVLB  0
0C2F2:  CALL   57CE
0C2F6:  MOVLW  B0
0C2F8:  BTFSS  F9E.4
0C2FA:  BRA    C2F8
0C2FC:  MOVWF  FAD
0C2FE:  MOVLW  43
0C300:  BTFSS  F9E.4
0C302:  BRA    C300
0C304:  MOVWF  FAD
0C306:  MOVLW  22
0C308:  BTFSS  F9E.4
0C30A:  BRA    C308
0C30C:  MOVWF  FAD
....................          SendDataDisplay(); 
0C30E:  CALL   3F6A
....................          printf("Pc%u.txt=\"%03LukPa\"",i+1,PcCiclos[i]); 
0C312:  MOVLW  01
0C314:  MOVLB  1
0C316:  ADDWF  xF9,W
0C318:  MOVLB  6
0C31A:  MOVWF  x50
0C31C:  BCF    FD8.0
0C31E:  MOVLB  1
0C320:  RLCF   xF9,W
0C322:  CLRF   03
0C324:  ADDLW  86
0C326:  MOVWF  FE9
0C328:  MOVLW  02
0C32A:  ADDWFC 03,W
0C32C:  MOVWF  FEA
0C32E:  MOVFF  FEC,652
0C332:  MOVF   FED,F
0C334:  MOVFF  FEF,651
0C338:  MOVLW  50
0C33A:  BTFSS  F9E.4
0C33C:  BRA    C33A
0C33E:  MOVWF  FAD
0C340:  MOVLW  63
0C342:  BTFSS  F9E.4
0C344:  BRA    C342
0C346:  MOVWF  FAD
0C348:  MOVFF  650,655
0C34C:  MOVLW  1B
0C34E:  MOVLB  6
0C350:  MOVWF  x56
0C352:  MOVLB  0
0C354:  CALL   599E
0C358:  MOVLW  06
0C35A:  MOVWF  FF6
0C35C:  MOVLW  15
0C35E:  MOVWF  FF7
0C360:  MOVLW  00
0C362:  MOVWF  FF8
0C364:  MOVLW  06
0C366:  MOVLB  6
0C368:  MOVWF  x55
0C36A:  MOVLB  0
0C36C:  CALL   56B2
0C370:  MOVLW  0A
0C372:  MOVWF  FE9
0C374:  MOVFF  652,655
0C378:  MOVFF  651,654
0C37C:  CALL   5A96
0C380:  MOVLW  11
0C382:  MOVWF  FF6
0C384:  MOVLW  15
0C386:  MOVWF  FF7
0C388:  MOVLW  00
0C38A:  MOVWF  FF8
0C38C:  MOVLW  04
0C38E:  MOVLB  6
0C390:  MOVWF  x55
0C392:  MOVLB  0
0C394:  CALL   56B2
....................          SendDataDisplay(); 
0C398:  CALL   3F6A
....................          printf("Ppc%u.txt=\"%03LukPa\"",i+1,PpcCiclos[i]); 
0C39C:  MOVLW  01
0C39E:  MOVLB  1
0C3A0:  ADDWF  xF9,W
0C3A2:  MOVLB  6
0C3A4:  MOVWF  x50
0C3A6:  BCF    FD8.0
0C3A8:  MOVLB  1
0C3AA:  RLCF   xF9,W
0C3AC:  CLRF   03
0C3AE:  ADDLW  94
0C3B0:  MOVWF  FE9
0C3B2:  MOVLW  02
0C3B4:  ADDWFC 03,W
0C3B6:  MOVWF  FEA
0C3B8:  MOVFF  FEC,652
0C3BC:  MOVF   FED,F
0C3BE:  MOVFF  FEF,651
0C3C2:  MOVLW  50
0C3C4:  BTFSS  F9E.4
0C3C6:  BRA    C3C4
0C3C8:  MOVWF  FAD
0C3CA:  MOVLW  70
0C3CC:  BTFSS  F9E.4
0C3CE:  BRA    C3CC
0C3D0:  MOVWF  FAD
0C3D2:  MOVLW  63
0C3D4:  BTFSS  F9E.4
0C3D6:  BRA    C3D4
0C3D8:  MOVWF  FAD
0C3DA:  MOVFF  650,655
0C3DE:  MOVLW  1B
0C3E0:  MOVLB  6
0C3E2:  MOVWF  x56
0C3E4:  MOVLB  0
0C3E6:  CALL   599E
0C3EA:  MOVLW  1B
0C3EC:  MOVWF  FF6
0C3EE:  MOVLW  15
0C3F0:  MOVWF  FF7
0C3F2:  MOVLW  00
0C3F4:  MOVWF  FF8
0C3F6:  MOVLW  06
0C3F8:  MOVLB  6
0C3FA:  MOVWF  x55
0C3FC:  MOVLB  0
0C3FE:  CALL   56B2
0C402:  MOVLW  0A
0C404:  MOVWF  FE9
0C406:  MOVFF  652,655
0C40A:  MOVFF  651,654
0C40E:  CALL   5A96
0C412:  MOVLW  26
0C414:  MOVWF  FF6
0C416:  MOVLW  15
0C418:  MOVWF  FF7
0C41A:  MOVLW  00
0C41C:  MOVWF  FF8
0C41E:  MOVLW  04
0C420:  MOVLB  6
0C422:  MOVWF  x55
0C424:  MOVLB  0
0C426:  CALL   56B2
....................          SendDataDisplay();          
0C42A:  CALL   3F6A
....................          codificaAlarma(); 
0C42E:  GOTO   6014
....................       }   
0C432:  MOVLB  1
0C434:  INCF   xF9,F
0C436:  BRA    C198
....................    } 
.................... //_--------------------------------------------------------------------------------------------------------------------------------------------------------       
....................  
.................... //_--------------------------------------------------------------------------------------------------------------------------------------------------------       
....................     if(Menu==13){//Menu de Nivel de Desfogue 
0C438:  MOVF   xF6,W
0C43A:  SUBLW  0D
0C43C:  BTFSS  FD8.2
0C43E:  BRA    C648
....................       printf("fecha.txt=\"T:%2.1fC Fecha:%02u/%02u/20%02u Hora:%02u:%02u:%02u\"",Temperatura,Dia,Mes,Year,Hora,Minuto,Segundo); 
0C440:  MOVLW  2C
0C442:  MOVWF  FF6
0C444:  MOVLW  15
0C446:  MOVWF  FF7
0C448:  MOVLW  00
0C44A:  MOVWF  FF8
0C44C:  MOVLW  0D
0C44E:  MOVLB  6
0C450:  MOVWF  x55
0C452:  MOVLB  0
0C454:  CALL   56B2
0C458:  MOVLW  01
0C45A:  MOVWF  FE9
0C45C:  MOVFF  1D9,658
0C460:  MOVFF  1D8,657
0C464:  MOVFF  1D7,656
0C468:  MOVFF  1D6,655
0C46C:  MOVLB  6
0C46E:  MOVWF  x59
0C470:  MOVLB  0
0C472:  CALL   57CE
0C476:  MOVLW  3E
0C478:  MOVWF  FF6
0C47A:  MOVLW  15
0C47C:  MOVWF  FF7
0C47E:  MOVLW  00
0C480:  MOVWF  FF8
0C482:  MOVLW  09
0C484:  MOVLB  6
0C486:  MOVWF  x55
0C488:  MOVLB  0
0C48A:  CALL   56B2
0C48E:  MOVFF  23A,655
0C492:  MOVLW  01
0C494:  MOVLB  6
0C496:  MOVWF  x56
0C498:  MOVLB  0
0C49A:  CALL   599E
0C49E:  MOVLW  2F
0C4A0:  BTFSS  F9E.4
0C4A2:  BRA    C4A0
0C4A4:  MOVWF  FAD
0C4A6:  MOVFF  239,655
0C4AA:  MOVLW  01
0C4AC:  MOVLB  6
0C4AE:  MOVWF  x56
0C4B0:  MOVLB  0
0C4B2:  CALL   599E
0C4B6:  MOVLW  2F
0C4B8:  BTFSS  F9E.4
0C4BA:  BRA    C4B8
0C4BC:  MOVWF  FAD
0C4BE:  MOVLW  32
0C4C0:  BTFSS  F9E.4
0C4C2:  BRA    C4C0
0C4C4:  MOVWF  FAD
0C4C6:  MOVLW  30
0C4C8:  BTFSS  F9E.4
0C4CA:  BRA    C4C8
0C4CC:  MOVWF  FAD
0C4CE:  MOVFF  238,655
0C4D2:  MOVLW  01
0C4D4:  MOVLB  6
0C4D6:  MOVWF  x56
0C4D8:  MOVLB  0
0C4DA:  CALL   599E
0C4DE:  MOVLW  57
0C4E0:  MOVWF  FF6
0C4E2:  MOVLW  15
0C4E4:  MOVWF  FF7
0C4E6:  MOVLW  00
0C4E8:  MOVWF  FF8
0C4EA:  MOVLW  06
0C4EC:  MOVLB  6
0C4EE:  MOVWF  x55
0C4F0:  MOVLB  0
0C4F2:  CALL   56B2
0C4F6:  MOVFF  23B,655
0C4FA:  MOVLW  01
0C4FC:  MOVLB  6
0C4FE:  MOVWF  x56
0C500:  MOVLB  0
0C502:  CALL   599E
0C506:  MOVLW  3A
0C508:  BTFSS  F9E.4
0C50A:  BRA    C508
0C50C:  MOVWF  FAD
0C50E:  MOVFF  23C,655
0C512:  MOVLW  01
0C514:  MOVLB  6
0C516:  MOVWF  x56
0C518:  MOVLB  0
0C51A:  CALL   599E
0C51E:  MOVLW  3A
0C520:  BTFSS  F9E.4
0C522:  BRA    C520
0C524:  MOVWF  FAD
0C526:  MOVFF  23D,655
0C52A:  MOVLW  01
0C52C:  MOVLB  6
0C52E:  MOVWF  x56
0C530:  MOVLB  0
0C532:  CALL   599E
0C536:  MOVLW  22
0C538:  BTFSS  F9E.4
0C53A:  BRA    C538
0C53C:  MOVWF  FAD
....................       SendDataDisplay(); 
0C53E:  CALL   3F6A
....................          if(NivelDes<1) 
0C542:  MOVLB  2
0C544:  MOVF   x2B,F
0C546:  BNZ   C54C
....................             NivelDes=6; 
0C548:  MOVLW  06
0C54A:  MOVWF  x2B
....................          if(NivelDes>6) 
0C54C:  MOVF   x2B,W
0C54E:  SUBLW  06
0C550:  BC    C556
....................             NivelDes=1; 
0C552:  MOVLW  01
0C554:  MOVWF  x2B
....................           
....................          if(RX_Buffer[4]==0x11){//Selecciono Regresar 
0C556:  MOVF   34,W
0C558:  SUBLW  11
0C55A:  BNZ   C5FA
....................             Segundos=OFF; 
0C55C:  MOVLB  0
0C55E:  BCF    xA8.3
....................             Minutos=OFF;             
0C560:  BCF    xA8.2
....................             tiempo_secado=0; 
0C562:  MOVLB  2
0C564:  CLRF   x06
....................             printf("page CicloPersona"); 
0C566:  MOVLW  6E
0C568:  MOVWF  FF6
0C56A:  MOVLW  15
0C56C:  MOVWF  FF7
0C56E:  MOVLW  00
0C570:  MOVWF  FF8
0C572:  MOVLB  0
0C574:  CALL   3F38
....................             SendDataDisplay();   
0C578:  CALL   3F6A
....................             if(!GuardaEEPROM){     
0C57C:  BTFSC  xA8.4
0C57E:  BRA    C5F8
....................                CiclosPersonalizados[CicloLibre-1].NivelDesfogue=NivelDes; 
0C580:  MOVLW  01
0C582:  MOVLB  1
0C584:  SUBWF  xEC,W
0C586:  MULLW  08
0C588:  MOVF   FF3,W
0C58A:  MOVLB  6
0C58C:  CLRF   x51
0C58E:  MOVWF  x50
0C590:  MOVLW  07
0C592:  ADDWF  x50,W
0C594:  MOVWF  01
0C596:  MOVLW  00
0C598:  ADDWFC x51,W
0C59A:  MOVWF  03
0C59C:  MOVF   01,W
0C59E:  ADDLW  88
0C5A0:  MOVWF  FE9
0C5A2:  MOVLW  05
0C5A4:  ADDWFC 03,W
0C5A6:  MOVWF  FEA
0C5A8:  MOVFF  22B,FEF
....................                write_eeprom(107+((CicloLibre-1)*8),NivelDes); 
0C5AC:  MOVLW  01
0C5AE:  MOVLB  1
0C5B0:  SUBWF  xEC,W
0C5B2:  MULLW  08
0C5B4:  MOVF   FF3,W
0C5B6:  ADDLW  6B
0C5B8:  MOVLB  6
0C5BA:  MOVWF  x50
0C5BC:  CLRF   FAA
0C5BE:  MOVFF  650,FA9
0C5C2:  MOVFF  22B,FA8
0C5C6:  BCF    FA6.6
0C5C8:  BCF    FA6.7
0C5CA:  BSF    FA6.2
0C5CC:  MOVF   FF2,W
0C5CE:  MOVWF  00
0C5D0:  BCF    FF2.6
0C5D2:  BCF    FF2.7
0C5D4:  MOVLB  F
0C5D6:  MOVLW  55
0C5D8:  MOVWF  FA7
0C5DA:  MOVLW  AA
0C5DC:  MOVWF  FA7
0C5DE:  BSF    FA6.1
0C5E0:  BTFSC  FA6.1
0C5E2:  BRA    C5E0
0C5E4:  BCF    FA6.2
0C5E6:  MOVF   00,W
0C5E8:  IORWF  FF2,F
....................                delay_ms(20);             
0C5EA:  MOVLW  14
0C5EC:  MOVLB  6
0C5EE:  MOVWF  x62
0C5F0:  MOVLB  0
0C5F2:  CALL   2128
....................                GuardaEEPROM=ON; 
0C5F6:  BSF    xA8.4
0C5F8:  MOVLB  2
....................             } 
....................          } 
....................           
....................          if(RX_Buffer[4]==0x0d){//Tecla Arriba Oprimida 
0C5FA:  MOVF   34,W
0C5FC:  SUBLW  0D
0C5FE:  BNZ   C606
....................             NivelDes++; 
0C600:  INCF   x2B,F
....................             RX_Buffer[4]=0x00;             
0C602:  CLRF   34
....................             RX_Buffer2[4]=0x00;                        
0C604:  CLRF   3F
....................          } 
....................           
....................          if(RX_Buffer[4]==0x0c){//Tecla Abajo Oprimida 
0C606:  MOVF   34,W
0C608:  SUBLW  0C
0C60A:  BNZ   C612
....................             NivelDes--; 
0C60C:  DECF   x2B,F
....................             RX_Buffer[4]=0x00; 
0C60E:  CLRF   34
....................             RX_Buffer2[4]=0x00;                         
0C610:  CLRF   3F
....................          } 
....................           
....................       printf("tnivel.txt=\"%u\"",NivelDes); 
0C612:  MOVLW  80
0C614:  MOVWF  FF6
0C616:  MOVLW  15
0C618:  MOVWF  FF7
0C61A:  MOVLW  00
0C61C:  MOVWF  FF8
0C61E:  MOVLW  0C
0C620:  MOVLB  6
0C622:  MOVWF  x55
0C624:  MOVLB  0
0C626:  CALL   56B2
0C62A:  MOVFF  22B,655
0C62E:  MOVLW  1B
0C630:  MOVLB  6
0C632:  MOVWF  x56
0C634:  MOVLB  0
0C636:  CALL   599E
0C63A:  MOVLW  22
0C63C:  BTFSS  F9E.4
0C63E:  BRA    C63C
0C640:  MOVWF  FAD
....................       SendDataDisplay(); 
0C642:  CALL   3F6A
0C646:  MOVLB  1
....................    } 
.................... //_--------------------------------------------------------------------------------------------------------------------------------------------------------       
....................  
.................... //_--------------------------------------------------------------------------------------------------------------------------------------------------------       
....................     if(Menu==14){//Menu de Activacion de Ciclos 
0C648:  MOVF   xF6,W
0C64A:  SUBLW  0E
0C64C:  BTFSS  FD8.2
0C64E:  BRA    C8AE
....................       printf("fecha.txt=\"T:%2.1fC Fecha:%02u/%02u/20%02u Hora:%02u:%02u:%02u\"",Temperatura,Dia,Mes,Year,Hora,Minuto,Segundo); 
0C650:  MOVLW  90
0C652:  MOVWF  FF6
0C654:  MOVLW  15
0C656:  MOVWF  FF7
0C658:  MOVLW  00
0C65A:  MOVWF  FF8
0C65C:  MOVLW  0D
0C65E:  MOVLB  6
0C660:  MOVWF  x55
0C662:  MOVLB  0
0C664:  CALL   56B2
0C668:  MOVLW  01
0C66A:  MOVWF  FE9
0C66C:  MOVFF  1D9,658
0C670:  MOVFF  1D8,657
0C674:  MOVFF  1D7,656
0C678:  MOVFF  1D6,655
0C67C:  MOVLB  6
0C67E:  MOVWF  x59
0C680:  MOVLB  0
0C682:  CALL   57CE
0C686:  MOVLW  A2
0C688:  MOVWF  FF6
0C68A:  MOVLW  15
0C68C:  MOVWF  FF7
0C68E:  MOVLW  00
0C690:  MOVWF  FF8
0C692:  MOVLW  09
0C694:  MOVLB  6
0C696:  MOVWF  x55
0C698:  MOVLB  0
0C69A:  CALL   56B2
0C69E:  MOVFF  23A,655
0C6A2:  MOVLW  01
0C6A4:  MOVLB  6
0C6A6:  MOVWF  x56
0C6A8:  MOVLB  0
0C6AA:  CALL   599E
0C6AE:  MOVLW  2F
0C6B0:  BTFSS  F9E.4
0C6B2:  BRA    C6B0
0C6B4:  MOVWF  FAD
0C6B6:  MOVFF  239,655
0C6BA:  MOVLW  01
0C6BC:  MOVLB  6
0C6BE:  MOVWF  x56
0C6C0:  MOVLB  0
0C6C2:  CALL   599E
0C6C6:  MOVLW  2F
0C6C8:  BTFSS  F9E.4
0C6CA:  BRA    C6C8
0C6CC:  MOVWF  FAD
0C6CE:  MOVLW  32
0C6D0:  BTFSS  F9E.4
0C6D2:  BRA    C6D0
0C6D4:  MOVWF  FAD
0C6D6:  MOVLW  30
0C6D8:  BTFSS  F9E.4
0C6DA:  BRA    C6D8
0C6DC:  MOVWF  FAD
0C6DE:  MOVFF  238,655
0C6E2:  MOVLW  01
0C6E4:  MOVLB  6
0C6E6:  MOVWF  x56
0C6E8:  MOVLB  0
0C6EA:  CALL   599E
0C6EE:  MOVLW  BB
0C6F0:  MOVWF  FF6
0C6F2:  MOVLW  15
0C6F4:  MOVWF  FF7
0C6F6:  MOVLW  00
0C6F8:  MOVWF  FF8
0C6FA:  MOVLW  06
0C6FC:  MOVLB  6
0C6FE:  MOVWF  x55
0C700:  MOVLB  0
0C702:  CALL   56B2
0C706:  MOVFF  23B,655
0C70A:  MOVLW  01
0C70C:  MOVLB  6
0C70E:  MOVWF  x56
0C710:  MOVLB  0
0C712:  CALL   599E
0C716:  MOVLW  3A
0C718:  BTFSS  F9E.4
0C71A:  BRA    C718
0C71C:  MOVWF  FAD
0C71E:  MOVFF  23C,655
0C722:  MOVLW  01
0C724:  MOVLB  6
0C726:  MOVWF  x56
0C728:  MOVLB  0
0C72A:  CALL   599E
0C72E:  MOVLW  3A
0C730:  BTFSS  F9E.4
0C732:  BRA    C730
0C734:  MOVWF  FAD
0C736:  MOVFF  23D,655
0C73A:  MOVLW  01
0C73C:  MOVLB  6
0C73E:  MOVWF  x56
0C740:  MOVLB  0
0C742:  CALL   599E
0C746:  MOVLW  22
0C748:  BTFSS  F9E.4
0C74A:  BRA    C748
0C74C:  MOVWF  FAD
....................       SendDataDisplay(); 
0C74E:  CALL   3F6A
....................        
....................       if(RX_Buffer[4]==0xaa){ 
0C752:  MOVF   34,W
0C754:  SUBLW  AA
0C756:  BNZ   C7E0
....................          for(i=0;i<30;i++){ 
0C758:  MOVLB  1
0C75A:  CLRF   xF9
0C75C:  MOVF   xF9,W
0C75E:  SUBLW  1D
0C760:  BNC   C7C6
....................             write_eeprom(50+i,estados[i]); 
0C762:  MOVLW  32
0C764:  ADDWF  xF9,W
0C766:  MOVLB  6
0C768:  MOVWF  x50
0C76A:  MOVFF  1F9,651
0C76E:  MOVLW  02
0C770:  MOVWF  x53
0C772:  MOVLW  BC
0C774:  MOVWF  x52
0C776:  MOVLB  0
0C778:  CALL   2192
0C77C:  MOVLW  00
0C77E:  BTFSC  01.0
0C780:  MOVLW  01
0C782:  MOVLB  6
0C784:  MOVWF  x51
0C786:  CLRF   FAA
0C788:  MOVFF  650,FA9
0C78C:  MOVFF  651,FA8
0C790:  BCF    FA6.6
0C792:  BCF    FA6.7
0C794:  BSF    FA6.2
0C796:  MOVF   FF2,W
0C798:  MOVWF  00
0C79A:  BCF    FF2.6
0C79C:  BCF    FF2.7
0C79E:  MOVLB  F
0C7A0:  MOVLW  55
0C7A2:  MOVWF  FA7
0C7A4:  MOVLW  AA
0C7A6:  MOVWF  FA7
0C7A8:  BSF    FA6.1
0C7AA:  BTFSC  FA6.1
0C7AC:  BRA    C7AA
0C7AE:  BCF    FA6.2
0C7B0:  MOVF   00,W
0C7B2:  IORWF  FF2,F
....................             delay_ms(10); 
0C7B4:  MOVLW  0A
0C7B6:  MOVLB  6
0C7B8:  MOVWF  x62
0C7BA:  MOVLB  0
0C7BC:  CALL   2128
....................          } 
0C7C0:  MOVLB  1
0C7C2:  INCF   xF9,F
0C7C4:  BRA    C75C
....................          printf("page Ajustes"); 
0C7C6:  MOVLW  D2
0C7C8:  MOVWF  FF6
0C7CA:  MOVLW  15
0C7CC:  MOVWF  FF7
0C7CE:  MOVLW  00
0C7D0:  MOVWF  FF8
0C7D2:  MOVLB  0
0C7D4:  CALL   3F38
....................          SendDataDisplay();  
0C7D8:  CALL   3F6A
....................          RX_Buffer[4]=0x00; 
0C7DC:  CLRF   34
....................          RX_Buffer2[4]=0x00; 
0C7DE:  CLRF   3F
....................       } 
....................        
....................       for(i=0;i<30;i++){ 
0C7E0:  MOVLB  1
0C7E2:  CLRF   xF9
0C7E4:  MOVF   xF9,W
0C7E6:  SUBLW  1D
0C7E8:  BNC   C8AE
....................          if(RX_Buffer[4]==i+1){ 
0C7EA:  MOVLW  01
0C7EC:  ADDWF  xF9,W
0C7EE:  SUBWF  34,W
0C7F0:  BNZ   C826
....................             estados[i]=!estados[i]; 
0C7F2:  MOVFF  1F9,651
0C7F6:  MOVLW  02
0C7F8:  MOVLB  6
0C7FA:  MOVWF  x53
0C7FC:  MOVLW  BC
0C7FE:  MOVWF  x52
0C800:  MOVLB  0
0C802:  CALL   2192
0C806:  MOVLW  00
0C808:  BTFSS  01.0
0C80A:  MOVLW  01
0C80C:  MOVFF  1F9,652
0C810:  MOVLB  6
0C812:  MOVWF  x53
0C814:  MOVLW  02
0C816:  MOVWF  x55
0C818:  MOVLW  BC
0C81A:  MOVWF  x54
0C81C:  MOVLB  0
0C81E:  CALL   2150
....................             RX_Buffer[4]=0x00; 
0C822:  CLRF   34
....................             RX_Buffer2[4]=0x00; 
0C824:  CLRF   3F
....................          } 
....................           
....................          if(estados[i]){ 
0C826:  MOVFF  1F9,651
0C82A:  MOVLW  02
0C82C:  MOVLB  6
0C82E:  MOVWF  x53
0C830:  MOVLW  BC
0C832:  MOVWF  x52
0C834:  MOVLB  0
0C836:  CALL   2192
0C83A:  BTFSS  01.0
0C83C:  BRA    C874
....................             printf("b%u.bco=2016",i); 
0C83E:  MOVLW  62
0C840:  BTFSS  F9E.4
0C842:  BRA    C840
0C844:  MOVWF  FAD
0C846:  MOVFF  1F9,655
0C84A:  MOVLW  1B
0C84C:  MOVLB  6
0C84E:  MOVWF  x56
0C850:  MOVLB  0
0C852:  CALL   599E
0C856:  MOVLW  E3
0C858:  MOVWF  FF6
0C85A:  MOVLW  15
0C85C:  MOVWF  FF7
0C85E:  MOVLW  00
0C860:  MOVWF  FF8
0C862:  MOVLW  09
0C864:  MOVLB  6
0C866:  MOVWF  x55
0C868:  MOVLB  0
0C86A:  CALL   56B2
....................             SendDataDisplay();              
0C86E:  CALL   3F6A
....................          }else{ 
0C872:  BRA    C8A8
....................             printf("b%u.bco=63488",i); 
0C874:  MOVLW  62
0C876:  BTFSS  F9E.4
0C878:  BRA    C876
0C87A:  MOVWF  FAD
0C87C:  MOVFF  1F9,655
0C880:  MOVLW  1B
0C882:  MOVLB  6
0C884:  MOVWF  x56
0C886:  MOVLB  0
0C888:  CALL   599E
0C88C:  MOVLW  F1
0C88E:  MOVWF  FF6
0C890:  MOVLW  15
0C892:  MOVWF  FF7
0C894:  MOVLW  00
0C896:  MOVWF  FF8
0C898:  MOVLW  0A
0C89A:  MOVLB  6
0C89C:  MOVWF  x55
0C89E:  MOVLB  0
0C8A0:  CALL   56B2
....................             SendDataDisplay();  
0C8A4:  CALL   3F6A
....................          } 
....................       } 
0C8A8:  MOVLB  1
0C8AA:  INCF   xF9,F
0C8AC:  BRA    C7E4
....................    } 
.................... //_--------------------------------------------------------------------------------------------------------------------------------------------------------       
....................  
.................... //_--------------------------------------------------------------------------------------------------------------------------------------------------------       
....................     if(Menu==15){//Menu de Clave Correcta 
0C8AE:  MOVF   xF6,W
0C8B0:  SUBLW  0F
0C8B2:  BNZ   C8EA
....................       if(!entro){ 
0C8B4:  MOVLB  0
0C8B6:  BTFSC  xAC.0
0C8B8:  BRA    C8D4
....................          delay_ms(2000); 
0C8BA:  MOVLW  08
0C8BC:  MOVLB  6
0C8BE:  MOVWF  x50
0C8C0:  MOVLW  FA
0C8C2:  MOVWF  x62
0C8C4:  MOVLB  0
0C8C6:  CALL   2128
0C8CA:  MOVLB  6
0C8CC:  DECFSZ x50,F
0C8CE:  BRA    C8C0
....................          entro=ON; 
0C8D0:  MOVLB  0
0C8D2:  BSF    xAC.0
....................       } 
....................       printf("page Menu"); 
0C8D4:  MOVLW  FC
0C8D6:  MOVWF  FF6
0C8D8:  MOVLW  15
0C8DA:  MOVWF  FF7
0C8DC:  MOVLW  00
0C8DE:  MOVWF  FF8
0C8E0:  CALL   3F38
....................       SendDataDisplay(); 
0C8E4:  CALL   3F6A
0C8E8:  MOVLB  1
....................    } 
.................... //_--------------------------------------------------------------------------------------------------------------------------------------------------------       
....................  
.................... //_--------------------------------------------------------------------------------------------------------------------------------------------------------       
....................     if(Menu==16){//Menu de Clave InCorrecta 
0C8EA:  MOVF   xF6,W
0C8EC:  SUBLW  10
0C8EE:  BNZ   C926
....................       if(!entro){ 
0C8F0:  MOVLB  0
0C8F2:  BTFSC  xAC.0
0C8F4:  BRA    C910
....................          delay_ms(2000); 
0C8F6:  MOVLW  08
0C8F8:  MOVLB  6
0C8FA:  MOVWF  x50
0C8FC:  MOVLW  FA
0C8FE:  MOVWF  x62
0C900:  MOVLB  0
0C902:  CALL   2128
0C906:  MOVLB  6
0C908:  DECFSZ x50,F
0C90A:  BRA    C8FC
....................          entro=ON; 
0C90C:  MOVLB  0
0C90E:  BSF    xAC.0
....................       } 
....................       printf("page Clave"); 
0C910:  MOVLW  06
0C912:  MOVWF  FF6
0C914:  MOVLW  16
0C916:  MOVWF  FF7
0C918:  MOVLW  00
0C91A:  MOVWF  FF8
0C91C:  CALL   3F38
....................       SendDataDisplay(); 
0C920:  CALL   3F6A
0C924:  MOVLB  1
....................    } 
.................... //_--------------------------------------------------------------------------------------------------------------------------------------------------------       
....................  
.................... //_--------------------------------------------------------------------------------------------------------------------------------------------------------     
....................    if(Menu==20){ // Este es el menu de cuando el proceso se inicio. 
0C926:  MOVF   xF6,W
0C928:  SUBLW  14
0C92A:  BTFSS  FD8.2
0C92C:  GOTO   E226
....................     
....................    GuardaDatoEstatico(); 
0C930:  MOVLB  0
0C932:  GOTO   6734
....................    guardaCiclo=ON; 
0C936:  BSF    xA2.7
....................    if(!Libre){ 
0C938:  BTFSC  xA9.7
0C93A:  BRA    C9D4
....................       printf("t2f.txt=\"%u\"",CicloSeleccionado); 
0C93C:  MOVLW  12
0C93E:  MOVWF  FF6
0C940:  MOVLW  16
0C942:  MOVWF  FF7
0C944:  MOVLW  00
0C946:  MOVWF  FF8
0C948:  MOVLW  09
0C94A:  MOVLB  6
0C94C:  MOVWF  x55
0C94E:  MOVLB  0
0C950:  CALL   56B2
0C954:  MOVFF  1FC,655
0C958:  MOVLW  1B
0C95A:  MOVLB  6
0C95C:  MOVWF  x56
0C95E:  MOVLB  0
0C960:  CALL   599E
0C964:  MOVLW  22
0C966:  BTFSS  F9E.4
0C968:  BRA    C966
0C96A:  MOVWF  FAD
....................       SendDataDisplay(); 
0C96C:  CALL   3F6A
....................       printf("t3f.txt=\"%s\"",Texto[CicloSeleccionado-1]); 
0C970:  MOVLW  01
0C972:  MOVLB  1
0C974:  SUBWF  xFC,W
0C976:  MOVLB  6
0C978:  MOVWF  x51
0C97A:  CLRF   x5B
0C97C:  MOVWF  x5A
0C97E:  CLRF   x5D
0C980:  MOVLW  18
0C982:  MOVWF  x5C
0C984:  MOVLB  0
0C986:  CALL   21C4
0C98A:  MOVFF  02,651
0C98E:  MOVLB  6
0C990:  MOVFF  01,650
0C994:  MOVLW  20
0C996:  MOVWF  FF6
0C998:  MOVLW  16
0C99A:  MOVWF  FF7
0C99C:  MOVLW  00
0C99E:  MOVWF  FF8
0C9A0:  MOVLW  09
0C9A2:  MOVWF  x55
0C9A4:  MOVLB  0
0C9A6:  CALL   56B2
0C9AA:  MOVLW  26
0C9AC:  MOVWF  FF6
0C9AE:  MOVLW  03
0C9B0:  MOVWF  FF7
0C9B2:  MOVLW  00
0C9B4:  MOVWF  FF8
0C9B6:  MOVLB  6
0C9B8:  MOVF   x50,W
0C9BA:  ADDWF  FF6,F
0C9BC:  MOVF   x51,W
0C9BE:  ADDWFC FF7,F
0C9C0:  MOVLB  0
0C9C2:  CALL   3F38
0C9C6:  MOVLW  22
0C9C8:  BTFSS  F9E.4
0C9CA:  BRA    C9C8
0C9CC:  MOVWF  FAD
....................       SendDataDisplay(); 
0C9CE:  CALL   3F6A
....................    }else{ 
0C9D2:  BRA    CA24
....................       printf("t2f.txt=\"%u\"",CicloLibre+10); 
0C9D4:  MOVLW  0A
0C9D6:  MOVLB  1
0C9D8:  ADDWF  xEC,W
0C9DA:  MOVLB  6
0C9DC:  MOVWF  x50
0C9DE:  MOVLW  2E
0C9E0:  MOVWF  FF6
0C9E2:  MOVLW  16
0C9E4:  MOVWF  FF7
0C9E6:  MOVLW  00
0C9E8:  MOVWF  FF8
0C9EA:  MOVLW  09
0C9EC:  MOVWF  x55
0C9EE:  MOVLB  0
0C9F0:  CALL   56B2
0C9F4:  MOVFF  650,655
0C9F8:  MOVLW  1B
0C9FA:  MOVLB  6
0C9FC:  MOVWF  x56
0C9FE:  MOVLB  0
0CA00:  CALL   599E
0CA04:  MOVLW  22
0CA06:  BTFSS  F9E.4
0CA08:  BRA    CA06
0CA0A:  MOVWF  FAD
....................       SendDataDisplay(); 
0CA0C:  CALL   3F6A
....................       printf("t3f.txt=\"Personalizado\""); 
0CA10:  MOVLW  3C
0CA12:  MOVWF  FF6
0CA14:  MOVLW  16
0CA16:  MOVWF  FF7
0CA18:  MOVLW  00
0CA1A:  MOVWF  FF8
0CA1C:  CALL   3F38
....................       SendDataDisplay(); 
0CA20:  CALL   3F6A
....................    } 
....................     
....................    if(pulsoSubir) 
0CA24:  BTFSS  xA3.2
0CA26:  BRA    CA2C
....................       cierraPuerta(); 
0CA28:  CALL   4EA2
....................        
....................    if(pulsoBajar) 
0CA2C:  BTFSS  xA3.3
0CA2E:  BRA    CA34
....................       abrePuerta(); 
0CA30:  CALL   4E2A
....................           
....................    if(RX_Buffer[4]==0x0a){//Oprimio Subir Puerta 
0CA34:  MOVF   34,W
0CA36:  SUBLW  0A
0CA38:  BNZ   CA42
....................       pulsoSubir=ON; 
0CA3A:  BSF    xA3.2
....................       pulsoBajar=OFF; 
0CA3C:  BCF    xA3.3
....................       RX_Buffer[4]=0x00; 
0CA3E:  CLRF   34
....................       RX_Buffer2[4]=0x00;                        
0CA40:  CLRF   3F
....................    } 
....................        
....................    if(RX_Buffer[4]==0x0b){//Solto Subir Puerta 
0CA42:  MOVF   34,W
0CA44:  SUBLW  0B
0CA46:  BNZ   CA64
....................       RX_Buffer[4]=0x00;             
0CA48:  CLRF   34
....................       //RX_Buffer2[4]=0x00;            
....................       pulsoSubir=OFF; 
0CA4A:  BCF    xA3.2
....................       pulsoBajar=OFF; 
0CA4C:  BCF    xA3.3
....................       if(!DOOR && !PRES) 
0CA4E:  BSF    F93.3
0CA50:  BTFSS  F81.3
0CA52:  BRA    CA60
0CA54:  BSF    F93.6
0CA56:  BTFSC  F81.6
0CA58:  BRA    CA60
....................          abrePuerta(); 
0CA5A:  CALL   4E2A
....................       else 
0CA5E:  BRA    CA64
....................          cierraPuerta(); 
0CA60:  CALL   4EA2
....................    } 
....................     
....................    if(RX_Buffer[4]==0x0c){//Oprimio Bajar Puerta 
0CA64:  MOVF   34,W
0CA66:  SUBLW  0C
0CA68:  BNZ   CAA6
....................       pulsoSubir=OFF; 
0CA6A:  BCF    xA3.2
....................       RX_Buffer[4]=0x00; 
0CA6C:  CLRF   34
....................       RX_Buffer2[4]=0x00;  
0CA6E:  CLRF   3F
....................       if(Temperatura<Tapertura) 
0CA70:  MOVLB  6
0CA72:  CLRF   x63
0CA74:  MOVFF  1FD,662
0CA78:  MOVLB  0
0CA7A:  CALL   20F2
0CA7E:  MOVFF  1D9,657
0CA82:  MOVFF  1D8,656
0CA86:  MOVFF  1D7,655
0CA8A:  MOVFF  1D6,654
0CA8E:  MOVFF  03,65B
0CA92:  MOVFF  02,65A
0CA96:  MOVFF  01,659
0CA9A:  MOVFF  00,658
0CA9E:  CALL   2784
0CAA2:  BNC   CAA6
....................          pulsoBajar=ON; 
0CAA4:  BSF    xA3.3
....................    }    
....................     
....................    if(RX_Buffer[4]==0x0d){//Solto Bajar Puerta 
0CAA6:  MOVF   34,W
0CAA8:  SUBLW  0D
0CAAA:  BNZ   CAB0
....................       RX_Buffer[4]=0x00;             
0CAAC:  CLRF   34
....................       RX_Buffer2[4]=0x00;                        
0CAAE:  CLRF   3F
....................    } 
....................     
....................    if(PresionPreCamara>280 || PresionCamara>360){ 
0CAB0:  MOVLB  2
0CAB2:  MOVF   x16,W
0CAB4:  SUBLW  00
0CAB6:  BC    CAC2
0CAB8:  XORLW  FF
0CABA:  BNZ   CAD2
0CABC:  MOVF   x15,W
0CABE:  SUBLW  18
0CAC0:  BNC   CAD2
0CAC2:  MOVF   x14,W
0CAC4:  SUBLW  00
0CAC6:  BC    CAD6
0CAC8:  XORLW  FF
0CACA:  BNZ   CAD2
0CACC:  MOVF   x13,W
0CACE:  SUBLW  68
0CAD0:  BC    CAD6
....................       AlarmaPresion=ON; 
0CAD2:  MOVLB  0
0CAD4:  BSF    xA9.4
....................    } 
....................     
....................    if(TiempoCiclo>1800 && !Fugas){//ANALIZAR BIEN ESTA ALARMA 
0CAD6:  MOVLB  0
0CAD8:  MOVF   xAE,W
0CADA:  SUBLW  06
0CADC:  BC    CB14
0CADE:  XORLW  FF
0CAE0:  BNZ   CAE8
0CAE2:  MOVF   xAD,W
0CAE4:  SUBLW  08
0CAE6:  BC    CB14
0CAE8:  BTFSC  xAA.1
0CAEA:  BRA    CB14
....................       if(TiempoCiclo>3600){ 
0CAEC:  MOVF   xAE,W
0CAEE:  SUBLW  0D
0CAF0:  BC    CAFE
0CAF2:  XORLW  FF
0CAF4:  BNZ   CAFC
0CAF6:  MOVF   xAD,W
0CAF8:  SUBLW  10
0CAFA:  BC    CAFE
....................          AlarmaTiempoProlongado=ON; 
0CAFC:  BSF    xA2.0
....................       } 
....................       if(PresionPrecamara<10){ 
0CAFE:  MOVLB  2
0CB00:  MOVF   x16,F
0CB02:  BNZ   CB10
0CB04:  MOVF   x15,W
0CB06:  SUBLW  09
0CB08:  BNC   CB10
....................          AlarmaTiempoProlongado=ON; 
0CB0A:  MOVLB  0
0CB0C:  BSF    xA2.0
0CB0E:  MOVLB  2
....................       } 
....................    }else{ 
0CB10:  BRA    CB16
0CB12:  MOVLB  0
....................       AlarmaTiempoProlongado=OFF; 
0CB14:  BCF    xA2.0
....................    } 
....................     
....................    if(Temperatura>Setpoint+4.0 && !Fugas){ 
0CB16:  MOVLB  6
0CB18:  CLRF   x63
0CB1A:  MOVFF  202,662
0CB1E:  MOVLB  0
0CB20:  CALL   20F2
0CB24:  BCF    FD8.1
0CB26:  MOVFF  03,665
0CB2A:  MOVFF  02,664
0CB2E:  MOVFF  01,663
0CB32:  MOVFF  00,662
0CB36:  MOVLB  6
0CB38:  CLRF   x69
0CB3A:  CLRF   x68
0CB3C:  CLRF   x67
0CB3E:  MOVLW  81
0CB40:  MOVWF  x66
0CB42:  MOVLB  0
0CB44:  CALL   250C
0CB48:  MOVFF  03,657
0CB4C:  MOVFF  02,656
0CB50:  MOVFF  01,655
0CB54:  MOVFF  00,654
0CB58:  MOVFF  1D9,65B
0CB5C:  MOVFF  1D8,65A
0CB60:  MOVFF  1D7,659
0CB64:  MOVFF  1D6,658
0CB68:  CALL   2784
0CB6C:  BNC   CB74
0CB6E:  BTFSC  xAA.1
0CB70:  BRA    CB74
....................       AlarmaSobreTemperatura=ON; 
0CB72:  BSF    xA2.1
....................    } 
....................     
....................    if(!TERM){ 
0CB74:  BSF    F93.5
0CB76:  BTFSS  F81.5
0CB78:  BRA    CB9A
....................       delay_ms(1000); 
0CB7A:  MOVLW  04
0CB7C:  MOVLB  6
0CB7E:  MOVWF  x50
0CB80:  MOVLW  FA
0CB82:  MOVWF  x62
0CB84:  MOVLB  0
0CB86:  CALL   2128
0CB8A:  MOVLB  6
0CB8C:  DECFSZ x50,F
0CB8E:  BRA    CB80
....................       if(!TERM){ 
0CB90:  BSF    F93.5
0CB92:  BTFSS  F81.5
0CB94:  BRA    CB9C
....................          AlarmaTermostato=ON; 
0CB96:  MOVLB  0
0CB98:  BSF    xA2.2
0CB9A:  MOVLB  6
....................       } 
....................    } 
....................     
....................    if(!DOOR || !PRES){       
0CB9C:  BSF    F93.3
0CB9E:  BTFSC  F81.3
0CBA0:  BRA    CBA8
0CBA2:  BSF    F93.6
0CBA4:  BTFSC  F81.6
0CBA6:  BRA    CBC0
....................       Paso_off; 
0CBA8:  BSF    F8B.2
0CBAA:  BCF    F94.2
....................       if(!Secando && !Finalizo && !Desfogando){ 
0CBAC:  MOVLB  0
0CBAE:  BTFSC  xA6.0
0CBB0:  BRA    CBBC
0CBB2:  BTFSC  xA9.3
0CBB4:  BRA    CBBC
0CBB6:  BTFSC  xA6.2
0CBB8:  BRA    CBBC
....................          AlarmaPuerta=ON; 
0CBBA:  BSF    xA2.3
....................       } 
....................    }else{ 
0CBBC:  BRA    CBC4
0CBBE:  MOVLB  6
....................       AlarmaPuerta=OFF; 
0CBC0:  MOVLB  0
0CBC2:  BCF    xA2.3
....................    } 
....................  
....................    if(!STOP){ 
0CBC4:  BSF    F93.4
0CBC6:  BTFSS  F81.4
0CBC8:  BRA    CBCC
....................       AlarmaEmergencia=ON; 
0CBCA:  BSF    xA2.4
....................    } 
....................     
....................    if(tEmpaque>5) 
0CBCC:  MOVF   xBE,F
0CBCE:  BNZ   CBD6
0CBD0:  MOVF   xBD,W
0CBD2:  SUBLW  05
0CBD4:  BC    CBDA
....................       AlarmaEmpaque=ON; 
0CBD6:  BSF    xA3.4
....................    else 
0CBD8:  BRA    CBDC
....................       AlarmaEmpaque=OFF; 
0CBDA:  BCF    xA3.4
....................     
....................    if(AlarmaPuerta || AlarmaTermostato || AlarmaSobreTemperatura || AlarmaTiempoProlongado || AlarmaEmergencia || AlarmaPresion || AlarmaBomba  
....................          || AlarmaVacio || AlarmaLlenado || AlarmaEmpaque){ 
0CBDC:  BTFSC  xA2.3
0CBDE:  BRA    CC04
0CBE0:  BTFSC  xA2.2
0CBE2:  BRA    CC04
0CBE4:  BTFSC  xA2.1
0CBE6:  BRA    CC04
0CBE8:  BTFSC  xA2.0
0CBEA:  BRA    CC04
0CBEC:  BTFSC  xA2.4
0CBEE:  BRA    CC04
0CBF0:  BTFSC  xA9.4
0CBF2:  BRA    CC04
0CBF4:  BTFSC  xA2.6
0CBF6:  BRA    CC04
0CBF8:  BTFSC  xA2.5
0CBFA:  BRA    CC04
0CBFC:  BTFSC  xA3.1
0CBFE:  BRA    CC04
0CC00:  BTFSS  xA3.4
0CC02:  BRA    D2F0
....................       ActivaAlarma(1); 
0CC04:  MOVLW  01
0CC06:  MOVLB  6
0CC08:  MOVWF  x50
0CC0A:  MOVLB  0
0CC0C:  CALL   5578
....................       if(AlarmaEmergencia){ 
0CC10:  BTFSS  xA2.4
0CC12:  BRA    CCC8
....................          codigoAlarma=1; 
0CC14:  MOVLW  01
0CC16:  MOVLB  2
0CC18:  MOVWF  x2F
....................          printf("Funcionamiento.t4f.txt=\" Parada de Emergencia\""); 
0CC1A:  MOVLW  54
0CC1C:  MOVWF  FF6
0CC1E:  MOVLW  16
0CC20:  MOVWF  FF7
0CC22:  MOVLW  00
0CC24:  MOVWF  FF8
0CC26:  MOVLB  0
0CC28:  CALL   3F38
....................          SendDataDisplay(); 
0CC2C:  CALL   3F6A
....................          printf("Funcionamiento.t5f.txt=\" Cancelado\""); 
0CC30:  MOVLW  84
0CC32:  MOVWF  FF6
0CC34:  MOVLW  16
0CC36:  MOVWF  FF7
0CC38:  MOVLW  00
0CC3A:  MOVWF  FF8
0CC3C:  CALL   3F38
....................          SendDataDisplay(); 
0CC40:  CALL   3F6A
....................          Desfogue_on; 
0CC44:  BCF    F8C.0
0CC46:  BCF    F95.0
....................          Paso_off; 
0CC48:  BSF    F8B.2
0CC4A:  BCF    F94.2
....................          if(!abrirPuerta) 
0CC4C:  BTFSC  xA6.5
0CC4E:  BRA    CC54
....................             BombaVacio_off; 
0CC50:  BSF    F8C.2
0CC52:  BCF    F95.2
....................          //Agua_off; 
....................          Agua2_off; 
0CC54:  BSF    F8B.5
0CC56:  BCF    F94.5
....................          Vacio_off; 
0CC58:  BSF    F8B.1
0CC5A:  BCF    F94.1
....................          SSR_off; 
0CC5C:  BCF    F8D.1
0CC5E:  BCF    F96.1
....................          SSR2_off; 
0CC60:  BCF    F8D.2
0CC62:  BCF    F96.2
....................          if(PresionCamara<Atmosferica) 
0CC64:  MOVLB  2
0CC66:  MOVF   x14,F
0CC68:  BNZ   CC76
0CC6A:  MOVF   x42,W
0CC6C:  SUBWF  x13,W
0CC6E:  BC    CC76
....................             Aire_on; 
0CC70:  BCF    F8B.0
0CC72:  BCF    F94.0
....................          else 
0CC74:  BRA    CC7A
....................             Aire_off; 
0CC76:  BSF    F8B.0
0CC78:  BCF    F94.0
....................          Esterilizando=OFF; 
0CC7A:  MOVLB  0
0CC7C:  BCF    xA3.7
....................          Desfogando=OFF; 
0CC7E:  BCF    xA6.2
....................          DesfogueSuave=OFF; 
0CC80:  BCF    xA6.3
....................          //IniciaCiclo=OFF; 
....................          Controlando=0; 
0CC82:  MOVLB  1
0CC84:  CLRF   xF0
....................          if(codigoAnt!=codigoAlarma){ 
0CC86:  MOVLB  2
0CC88:  MOVF   x2F,W
0CC8A:  SUBWF  x30,W
0CC8C:  BZ    CC9C
....................             codigoAnt=codigoAlarma; 
0CC8E:  MOVFF  22F,230
....................             GuardaDatoCiclo(); 
0CC92:  MOVLB  0
0CC94:  CALL   69EC
....................             incrementaCiclos(); 
0CC98:  CALL   6D90
....................          } 
....................          if(!flagImprimir){ 
0CC9C:  MOVLB  0
0CC9E:  BTFSC  xAB.7
0CCA0:  BRA    CCC4
....................             Imprime=20; 
0CCA2:  MOVLW  14
0CCA4:  MOVLB  2
0CCA6:  MOVWF  x4D
....................             Envio_Esclavos(); 
0CCA8:  MOVLB  0
0CCAA:  CALL   524E
....................             delay_ms(100); 
0CCAE:  MOVLW  64
0CCB0:  MOVLB  6
0CCB2:  MOVWF  x62
0CCB4:  MOVLB  0
0CCB6:  CALL   2128
....................             Imprime=10; 
0CCBA:  MOVLW  0A
0CCBC:  MOVLB  2
0CCBE:  MOVWF  x4D
....................             flagImprimir=1; 
0CCC0:  MOVLB  0
0CCC2:  BSF    xAB.7
....................          } 
....................          Finalizo=ON; 
0CCC4:  BSF    xA9.3
....................       }else if(AlarmaPuerta && !AlarmaEmpaque){ 
0CCC6:  BRA    D2E8
0CCC8:  BTFSS  xA2.3
0CCCA:  BRA    CD84
0CCCC:  BTFSC  xA3.4
0CCCE:  BRA    CD84
....................          codigoAlarma=2; 
0CCD0:  MOVLW  02
0CCD2:  MOVLB  2
0CCD4:  MOVWF  x2F
....................          printf("Funcionamiento.t4f.txt=\" Puerta Abierta\""); 
0CCD6:  MOVLW  A8
0CCD8:  MOVWF  FF6
0CCDA:  MOVLW  16
0CCDC:  MOVWF  FF7
0CCDE:  MOVLW  00
0CCE0:  MOVWF  FF8
0CCE2:  MOVLB  0
0CCE4:  CALL   3F38
....................          SendDataDisplay(); 
0CCE8:  CALL   3F6A
....................          printf("Funcionamiento.t5f.txt=\" Pausado\""); 
0CCEC:  MOVLW  D2
0CCEE:  MOVWF  FF6
0CCF0:  MOVLW  16
0CCF2:  MOVWF  FF7
0CCF4:  MOVLW  00
0CCF6:  MOVWF  FF8
0CCF8:  CALL   3F38
....................          SendDataDisplay(); 
0CCFC:  CALL   3F6A
....................          if(!PRES) 
0CD00:  BSF    F93.6
0CD02:  BTFSC  F81.6
0CD04:  BRA    CD0A
....................             Desfogue_on; 
0CD06:  BCF    F8C.0
0CD08:  BCF    F95.0
....................          if(AlarmaEmpaque && PresionCamara<Atmosferica+5){ 
0CD0A:  BTFSS  xA3.4
0CD0C:  BRA    CD30
0CD0E:  MOVLW  05
0CD10:  MOVLB  2
0CD12:  ADDWF  x42,W
0CD14:  MOVF   x14,F
0CD16:  BTFSC  FD8.2
0CD18:  BRA    CD1E
0CD1A:  MOVLB  0
0CD1C:  BRA    CD30
0CD1E:  SUBWF  x13,W
0CD20:  BTFSS  FD8.0
0CD22:  BRA    CD28
0CD24:  MOVLB  0
0CD26:  BRA    CD30
....................             Empaque_off; 
0CD28:  BCF    F8C.5
0CD2A:  BCF    F95.5
....................          }else{ 
0CD2C:  BRA    CD44
0CD2E:  MOVLB  0
....................             if(PresionCamara>Atmosferica+20) 
0CD30:  MOVLW  14
0CD32:  MOVLB  2
0CD34:  ADDWF  x42,W
0CD36:  MOVF   x14,F
0CD38:  BNZ   CD40
0CD3A:  SUBWF  x13,W
0CD3C:  BZ    CD44
0CD3E:  BNC   CD44
....................                Empaque_on; 
0CD40:  BSF    F8C.5
0CD42:  BCF    F95.5
....................          } 
....................          Paso_off; 
0CD44:  BSF    F8B.2
0CD46:  BCF    F94.2
....................          if(!abrirPuerta) 
0CD48:  MOVLB  0
0CD4A:  BTFSC  xA6.5
0CD4C:  BRA    CD52
....................             BombaVacio_off; 
0CD4E:  BSF    F8C.2
0CD50:  BCF    F95.2
....................          //Agua_off; 
....................          Agua2_off; 
0CD52:  BSF    F8B.5
0CD54:  BCF    F94.5
....................          Vacio_off; 
0CD56:  BSF    F8B.1
0CD58:  BCF    F94.1
....................          SSR_off; 
0CD5A:  BCF    F8D.1
0CD5C:  BCF    F96.1
....................          SSR2_off; 
0CD5E:  BCF    F8D.2
0CD60:  BCF    F96.2
....................          Aire_off; 
0CD62:  BSF    F8B.0
0CD64:  BCF    F94.0
....................          IniciaLlenado=OFF; 
0CD66:  BCF    xA3.5
....................          Controlando=0; 
0CD68:  MOVLB  1
0CD6A:  CLRF   xF0
....................          if(codigoAnt!=codigoAlarma){ 
0CD6C:  MOVLB  2
0CD6E:  MOVF   x2F,W
0CD70:  SUBWF  x30,W
0CD72:  BZ    CD80
....................             codigoAnt=codigoAlarma; 
0CD74:  MOVFF  22F,230
....................             GuardaDatoCiclo(); 
0CD78:  MOVLB  0
0CD7A:  CALL   69EC
0CD7E:  MOVLB  2
....................          } 
....................       }else if(AlarmaLlenado){ 
0CD80:  BRA    D2EA
0CD82:  MOVLB  0
0CD84:  BTFSS  xA3.1
0CD86:  BRA    CE28
....................          codigoAlarma=9; 
0CD88:  MOVLW  09
0CD8A:  MOVLB  2
0CD8C:  MOVWF  x2F
....................          printf("Funcionamiento.t4f.txt=\" Tiempo Llenado\""); 
0CD8E:  MOVLW  F4
0CD90:  MOVWF  FF6
0CD92:  MOVLW  16
0CD94:  MOVWF  FF7
0CD96:  MOVLW  00
0CD98:  MOVWF  FF8
0CD9A:  MOVLB  0
0CD9C:  CALL   3F38
....................          SendDataDisplay(); 
0CDA0:  CALL   3F6A
....................          printf("Funcionamiento.t5f.txt=\" Cancelado\""); 
0CDA4:  MOVLW  1E
0CDA6:  MOVWF  FF6
0CDA8:  MOVLW  17
0CDAA:  MOVWF  FF7
0CDAC:  MOVLW  00
0CDAE:  MOVWF  FF8
0CDB0:  CALL   3F38
....................          SendDataDisplay(); 
0CDB4:  CALL   3F6A
....................          Desfogue_off; 
0CDB8:  BSF    F8C.0
0CDBA:  BCF    F95.0
....................          Paso_off; 
0CDBC:  BSF    F8B.2
0CDBE:  BCF    F94.2
....................          if(!abrirPuerta) 
0CDC0:  BTFSC  xA6.5
0CDC2:  BRA    CDC8
....................             BombaVacio_off; 
0CDC4:  BSF    F8C.2
0CDC6:  BCF    F95.2
....................          //Agua_off; 
....................          Agua2_off; 
0CDC8:  BSF    F8B.5
0CDCA:  BCF    F94.5
....................          Vacio_off; 
0CDCC:  BSF    F8B.1
0CDCE:  BCF    F94.1
....................          SSR_off; 
0CDD0:  BCF    F8D.1
0CDD2:  BCF    F96.1
....................          SSR2_off; 
0CDD4:  BCF    F8D.2
0CDD6:  BCF    F96.2
....................          Aire_off; 
0CDD8:  BSF    F8B.0
0CDDA:  BCF    F94.0
....................          IniciaLlenado=OFF; 
0CDDC:  BCF    xA3.5
....................          IniciaCiclo=OFF; 
0CDDE:  BCF    xA3.6
....................          Esterilizando=OFF; 
0CDE0:  BCF    xA3.7
....................          Controlando=0; 
0CDE2:  MOVLB  1
0CDE4:  CLRF   xF0
....................          if(codigoAnt!=codigoAlarma){ 
0CDE6:  MOVLB  2
0CDE8:  MOVF   x2F,W
0CDEA:  SUBWF  x30,W
0CDEC:  BZ    CDFC
....................             codigoAnt=codigoAlarma; 
0CDEE:  MOVFF  22F,230
....................             GuardaDatoCiclo(); 
0CDF2:  MOVLB  0
0CDF4:  CALL   69EC
....................             incrementaCiclos(); 
0CDF8:  CALL   6D90
....................          } 
....................          if(!flagImprimir){ 
0CDFC:  MOVLB  0
0CDFE:  BTFSC  xAB.7
0CE00:  BRA    CE24
....................             Imprime=21; 
0CE02:  MOVLW  15
0CE04:  MOVLB  2
0CE06:  MOVWF  x4D
....................             Envio_Esclavos(); 
0CE08:  MOVLB  0
0CE0A:  CALL   524E
....................             delay_ms(100); 
0CE0E:  MOVLW  64
0CE10:  MOVLB  6
0CE12:  MOVWF  x62
0CE14:  MOVLB  0
0CE16:  CALL   2128
....................             Imprime=10; 
0CE1A:  MOVLW  0A
0CE1C:  MOVLB  2
0CE1E:  MOVWF  x4D
....................             flagImprimir=1; 
0CE20:  MOVLB  0
0CE22:  BSF    xAB.7
....................          } 
....................          Finalizo=ON; 
0CE24:  BSF    xA9.3
....................       }else if(AlarmaTermostato){ 
0CE26:  BRA    D2E8
0CE28:  BTFSS  xA2.2
0CE2A:  BRA    CED0
....................          codigoAlarma=3; 
0CE2C:  MOVLW  03
0CE2E:  MOVLB  2
0CE30:  MOVWF  x2F
....................          tiempo_esterilizacion=0;tiempo_secado=0;          
0CE32:  CLRF   x05
0CE34:  CLRF   x06
....................          printf("Funcionamiento.t4f.txt=\" Termostato\""); 
0CE36:  MOVLW  42
0CE38:  MOVWF  FF6
0CE3A:  MOVLW  17
0CE3C:  MOVWF  FF7
0CE3E:  MOVLW  00
0CE40:  MOVWF  FF8
0CE42:  MOVLB  0
0CE44:  CALL   3F38
....................          SendDataDisplay(); 
0CE48:  CALL   3F6A
....................          printf("Funcionamiento.t5f.txt=\" Cancelado\""); 
0CE4C:  MOVLW  68
0CE4E:  MOVWF  FF6
0CE50:  MOVLW  17
0CE52:  MOVWF  FF7
0CE54:  MOVLW  00
0CE56:  MOVWF  FF8
0CE58:  CALL   3F38
....................          SendDataDisplay(); 
0CE5C:  CALL   3F6A
....................          Desfogue_on; 
0CE60:  BCF    F8C.0
0CE62:  BCF    F95.0
....................          Paso_off; 
0CE64:  BSF    F8B.2
0CE66:  BCF    F94.2
....................          if(!abrirPuerta) 
0CE68:  BTFSC  xA6.5
0CE6A:  BRA    CE70
....................             BombaVacio_off; 
0CE6C:  BSF    F8C.2
0CE6E:  BCF    F95.2
....................          //Agua_off; 
....................          Agua2_off; 
0CE70:  BSF    F8B.5
0CE72:  BCF    F94.5
....................          Vacio_off; 
0CE74:  BSF    F8B.1
0CE76:  BCF    F94.1
....................          SSR_off; 
0CE78:  BCF    F8D.1
0CE7A:  BCF    F96.1
....................          SSR2_off; 
0CE7C:  BCF    F8D.2
0CE7E:  BCF    F96.2
....................          Aire_off; 
0CE80:  BSF    F8B.0
0CE82:  BCF    F94.0
....................          Esterilizando=OFF; 
0CE84:  BCF    xA3.7
....................          Desfogando=OFF; 
0CE86:  BCF    xA6.2
....................          IniciaCiclo=OFF; 
0CE88:  BCF    xA3.6
....................          Controlando=0; 
0CE8A:  MOVLB  1
0CE8C:  CLRF   xF0
....................          if(codigoAnt!=codigoAlarma){ 
0CE8E:  MOVLB  2
0CE90:  MOVF   x2F,W
0CE92:  SUBWF  x30,W
0CE94:  BZ    CEA4
....................             codigoAnt=codigoAlarma; 
0CE96:  MOVFF  22F,230
....................             GuardaDatoCiclo(); 
0CE9A:  MOVLB  0
0CE9C:  CALL   69EC
....................             incrementaCiclos(); 
0CEA0:  CALL   6D90
....................          } 
....................          if(!flagImprimir){ 
0CEA4:  MOVLB  0
0CEA6:  BTFSC  xAB.7
0CEA8:  BRA    CECC
....................             Imprime=22; 
0CEAA:  MOVLW  16
0CEAC:  MOVLB  2
0CEAE:  MOVWF  x4D
....................             Envio_Esclavos(); 
0CEB0:  MOVLB  0
0CEB2:  CALL   524E
....................             delay_ms(100); 
0CEB6:  MOVLW  64
0CEB8:  MOVLB  6
0CEBA:  MOVWF  x62
0CEBC:  MOVLB  0
0CEBE:  CALL   2128
....................             Imprime=10; 
0CEC2:  MOVLW  0A
0CEC4:  MOVLB  2
0CEC6:  MOVWF  x4D
....................             flagImprimir=1; 
0CEC8:  MOVLB  0
0CECA:  BSF    xAB.7
....................          } 
....................          Finalizo=ON; 
0CECC:  BSF    xA9.3
....................       }else if(AlarmaSobreTemperatura){                   
0CECE:  BRA    D2E8
0CED0:  BTFSS  xA2.1
0CED2:  BRA    CF72
....................          codigoAlarma=4; 
0CED4:  MOVLW  04
0CED6:  MOVLB  2
0CED8:  MOVWF  x2F
....................          tiempo_esterilizacion=0;tiempo_secado=0;          
0CEDA:  CLRF   x05
0CEDC:  CLRF   x06
....................          printf("Funcionamiento.t4f.txt=\" Sobretemperatura\""); 
0CEDE:  MOVLW  8C
0CEE0:  MOVWF  FF6
0CEE2:  MOVLW  17
0CEE4:  MOVWF  FF7
0CEE6:  MOVLW  00
0CEE8:  MOVWF  FF8
0CEEA:  MOVLB  0
0CEEC:  CALL   3F38
....................          SendDataDisplay(); 
0CEF0:  CALL   3F6A
....................          printf("Funcionamiento.t5f.txt=\" Cancelado\""); 
0CEF4:  MOVLW  B8
0CEF6:  MOVWF  FF6
0CEF8:  MOVLW  17
0CEFA:  MOVWF  FF7
0CEFC:  MOVLW  00
0CEFE:  MOVWF  FF8
0CF00:  CALL   3F38
....................          SendDataDisplay();   
0CF04:  CALL   3F6A
....................          Desfogue_on; 
0CF08:  BCF    F8C.0
0CF0A:  BCF    F95.0
....................          Paso_off; 
0CF0C:  BSF    F8B.2
0CF0E:  BCF    F94.2
....................          if(!abrirPuerta) 
0CF10:  BTFSC  xA6.5
0CF12:  BRA    CF18
....................             BombaVacio_off; 
0CF14:  BSF    F8C.2
0CF16:  BCF    F95.2
....................          //Agua_off; 
....................          Agua2_off; 
0CF18:  BSF    F8B.5
0CF1A:  BCF    F94.5
....................          Vacio_off; 
0CF1C:  BSF    F8B.1
0CF1E:  BCF    F94.1
....................          SSR_off; 
0CF20:  BCF    F8D.1
0CF22:  BCF    F96.1
....................          SSR2_off; 
0CF24:  BCF    F8D.2
0CF26:  BCF    F96.2
....................          Aire_off; 
0CF28:  BSF    F8B.0
0CF2A:  BCF    F94.0
....................          Controlando=0; 
0CF2C:  MOVLB  1
0CF2E:  CLRF   xF0
....................          if(codigoAnt!=codigoAlarma){ 
0CF30:  MOVLB  2
0CF32:  MOVF   x2F,W
0CF34:  SUBWF  x30,W
0CF36:  BZ    CF46
....................             codigoAnt=codigoAlarma; 
0CF38:  MOVFF  22F,230
....................             GuardaDatoCiclo(); 
0CF3C:  MOVLB  0
0CF3E:  CALL   69EC
....................             incrementaCiclos(); 
0CF42:  CALL   6D90
....................          } 
....................          if(!flagImprimir){ 
0CF46:  MOVLB  0
0CF48:  BTFSC  xAB.7
0CF4A:  BRA    CF6E
....................             Imprime=23; 
0CF4C:  MOVLW  17
0CF4E:  MOVLB  2
0CF50:  MOVWF  x4D
....................             Envio_Esclavos(); 
0CF52:  MOVLB  0
0CF54:  CALL   524E
....................             delay_ms(100); 
0CF58:  MOVLW  64
0CF5A:  MOVLB  6
0CF5C:  MOVWF  x62
0CF5E:  MOVLB  0
0CF60:  CALL   2128
....................             Imprime=10; 
0CF64:  MOVLW  0A
0CF66:  MOVLB  2
0CF68:  MOVWF  x4D
....................             flagImprimir=1; 
0CF6A:  MOVLB  0
0CF6C:  BSF    xAB.7
....................          } 
....................          Finalizo=ON; 
0CF6E:  BSF    xA9.3
....................       }else if(AlarmaTiempoProlongado){ 
0CF70:  BRA    D2E8
0CF72:  BTFSS  xA2.0
0CF74:  BRA    D010
....................          codigoAlarma=5; 
0CF76:  MOVLW  05
0CF78:  MOVLB  2
0CF7A:  MOVWF  x2F
....................          printf("Funcionamiento.t4f.txt=\" Tiempo Prolongado\""); 
0CF7C:  MOVLW  DC
0CF7E:  MOVWF  FF6
0CF80:  MOVLW  17
0CF82:  MOVWF  FF7
0CF84:  MOVLW  00
0CF86:  MOVWF  FF8
0CF88:  MOVLB  0
0CF8A:  CALL   3F38
....................          SendDataDisplay(); 
0CF8E:  CALL   3F6A
....................          printf("Funcionamiento.t5f.txt=\" Cancelado\""); 
0CF92:  MOVLW  08
0CF94:  MOVWF  FF6
0CF96:  MOVLW  18
0CF98:  MOVWF  FF7
0CF9A:  MOVLW  00
0CF9C:  MOVWF  FF8
0CF9E:  CALL   3F38
....................          SendDataDisplay(); 
0CFA2:  CALL   3F6A
....................          Desfogue_on; 
0CFA6:  BCF    F8C.0
0CFA8:  BCF    F95.0
....................          Paso_off; 
0CFAA:  BSF    F8B.2
0CFAC:  BCF    F94.2
....................          if(!abrirPuerta) 
0CFAE:  BTFSC  xA6.5
0CFB0:  BRA    CFB6
....................             BombaVacio_off; 
0CFB2:  BSF    F8C.2
0CFB4:  BCF    F95.2
....................          //Agua_off; 
....................          Agua2_off; 
0CFB6:  BSF    F8B.5
0CFB8:  BCF    F94.5
....................          Vacio_off; 
0CFBA:  BSF    F8B.1
0CFBC:  BCF    F94.1
....................          SSR_off; 
0CFBE:  BCF    F8D.1
0CFC0:  BCF    F96.1
....................          SSR2_off; 
0CFC2:  BCF    F8D.2
0CFC4:  BCF    F96.2
....................          Aire_off; 
0CFC6:  BSF    F8B.0
0CFC8:  BCF    F94.0
....................          Controlando=0; 
0CFCA:  MOVLB  1
0CFCC:  CLRF   xF0
....................          if(codigoAnt!=codigoAlarma){ 
0CFCE:  MOVLB  2
0CFD0:  MOVF   x2F,W
0CFD2:  SUBWF  x30,W
0CFD4:  BZ    CFE4
....................             codigoAnt=codigoAlarma; 
0CFD6:  MOVFF  22F,230
....................             GuardaDatoCiclo(); 
0CFDA:  MOVLB  0
0CFDC:  CALL   69EC
....................             incrementaCiclos(); 
0CFE0:  CALL   6D90
....................          } 
....................          if(!flagImprimir){ 
0CFE4:  MOVLB  0
0CFE6:  BTFSC  xAB.7
0CFE8:  BRA    D00C
....................             Imprime=24; 
0CFEA:  MOVLW  18
0CFEC:  MOVLB  2
0CFEE:  MOVWF  x4D
....................             Envio_Esclavos(); 
0CFF0:  MOVLB  0
0CFF2:  CALL   524E
....................             delay_ms(100); 
0CFF6:  MOVLW  64
0CFF8:  MOVLB  6
0CFFA:  MOVWF  x62
0CFFC:  MOVLB  0
0CFFE:  CALL   2128
....................             Imprime=10; 
0D002:  MOVLW  0A
0D004:  MOVLB  2
0D006:  MOVWF  x4D
....................             flagImprimir=1; 
0D008:  MOVLB  0
0D00A:  BSF    xAB.7
....................          } 
....................          Finalizo=ON; 
0D00C:  BSF    xA9.3
....................       }else if(AlarmaPresion){ // Alarma de Error de SobrePresion: Error por exceso de Presion. 
0D00E:  BRA    D2E8
0D010:  BTFSS  xA9.4
0D012:  BRA    D0CA
....................          codigoAlarma=6; 
0D014:  MOVLW  06
0D016:  MOVLB  2
0D018:  MOVWF  x2F
....................          printf("Funcionamiento.t4f.txt=\" SobrePresion\""); 
0D01A:  MOVLW  2C
0D01C:  MOVWF  FF6
0D01E:  MOVLW  18
0D020:  MOVWF  FF7
0D022:  MOVLW  00
0D024:  MOVWF  FF8
0D026:  MOVLB  0
0D028:  CALL   3F38
....................          SendDataDisplay(); 
0D02C:  CALL   3F6A
....................          printf("Funcionamiento.t5f.txt=\" Cancelado\""); 
0D030:  MOVLW  54
0D032:  MOVWF  FF6
0D034:  MOVLW  18
0D036:  MOVWF  FF7
0D038:  MOVLW  00
0D03A:  MOVWF  FF8
0D03C:  CALL   3F38
....................          SendDataDisplay(); 
0D040:  CALL   3F6A
....................          Desfogue_on; 
0D044:  BCF    F8C.0
0D046:  BCF    F95.0
....................          if(!abrirPuerta) 
0D048:  BTFSC  xA6.5
0D04A:  BRA    D050
....................             BombaVacio_off; 
0D04C:  BSF    F8C.2
0D04E:  BCF    F95.2
....................          //Agua_off; 
....................          Agua2_off; 
0D050:  BSF    F8B.5
0D052:  BCF    F94.5
....................          Vacio_off; 
0D054:  BSF    F8B.1
0D056:  BCF    F94.1
....................          SSR_off; 
0D058:  BCF    F8D.1
0D05A:  BCF    F96.1
....................          SSR2_off; 
0D05C:  BCF    F8D.2
0D05E:  BCF    F96.2
....................          Aire_off; 
0D060:  BSF    F8B.0
0D062:  BCF    F94.0
....................          if(PresionCamara>(Atmosferica+4) && DOOR) 
0D064:  MOVLW  04
0D066:  MOVLB  2
0D068:  ADDWF  x42,W
0D06A:  MOVF   x14,F
0D06C:  BNZ   D074
0D06E:  SUBWF  x13,W
0D070:  BZ    D080
0D072:  BNC   D080
0D074:  BSF    F93.3
0D076:  BTFSC  F81.3
0D078:  BRA    D080
....................             Paso_on; 
0D07A:  BCF    F8B.2
0D07C:  BCF    F94.2
....................          else 
0D07E:  BRA    D084
....................             Paso_off; 
0D080:  BSF    F8B.2
0D082:  BCF    F94.2
....................          Controlando=0; 
0D084:  MOVLB  1
0D086:  CLRF   xF0
....................          if(codigoAnt!=codigoAlarma){ 
0D088:  MOVLB  2
0D08A:  MOVF   x2F,W
0D08C:  SUBWF  x30,W
0D08E:  BZ    D09E
....................             codigoAnt=codigoAlarma; 
0D090:  MOVFF  22F,230
....................             GuardaDatoCiclo(); 
0D094:  MOVLB  0
0D096:  CALL   69EC
....................             incrementaCiclos(); 
0D09A:  CALL   6D90
....................          } 
....................          if(!flagImprimir){ 
0D09E:  MOVLB  0
0D0A0:  BTFSC  xAB.7
0D0A2:  BRA    D0C6
....................             Imprime=25; 
0D0A4:  MOVLW  19
0D0A6:  MOVLB  2
0D0A8:  MOVWF  x4D
....................             Envio_Esclavos(); 
0D0AA:  MOVLB  0
0D0AC:  CALL   524E
....................             delay_ms(100); 
0D0B0:  MOVLW  64
0D0B2:  MOVLB  6
0D0B4:  MOVWF  x62
0D0B6:  MOVLB  0
0D0B8:  CALL   2128
....................             Imprime=10; 
0D0BC:  MOVLW  0A
0D0BE:  MOVLB  2
0D0C0:  MOVWF  x4D
....................             flagImprimir=1; 
0D0C2:  MOVLB  0
0D0C4:  BSF    xAB.7
....................          } 
....................          Finalizo=ON; 
0D0C6:  BSF    xA9.3
....................       }else if(AlarmaBomba){ // Alarma de Error de que bomba no ha arrancado. 
0D0C8:  BRA    D2E8
0D0CA:  BTFSS  xA2.6
0D0CC:  BRA    D17A
....................          codigoAlarma=7; 
0D0CE:  MOVLW  07
0D0D0:  MOVLB  2
0D0D2:  MOVWF  x2F
....................          printf("Funcionamiento.t4f.txt=\" Error Bomba\""); 
0D0D4:  MOVLW  78
0D0D6:  MOVWF  FF6
0D0D8:  MOVLW  18
0D0DA:  MOVWF  FF7
0D0DC:  MOVLW  00
0D0DE:  MOVWF  FF8
0D0E0:  MOVLB  0
0D0E2:  CALL   3F38
....................          SendDataDisplay(); 
0D0E6:  CALL   3F6A
....................          printf("Funcionamiento.t5f.txt=\" Cancelado\""); 
0D0EA:  MOVLW  9E
0D0EC:  MOVWF  FF6
0D0EE:  MOVLW  18
0D0F0:  MOVWF  FF7
0D0F2:  MOVLW  00
0D0F4:  MOVWF  FF8
0D0F6:  CALL   3F38
....................          SendDataDisplay(); 
0D0FA:  CALL   3F6A
....................          Desfogue_on; 
0D0FE:  BCF    F8C.0
0D100:  BCF    F95.0
....................          Paso_off; 
0D102:  BSF    F8B.2
0D104:  BCF    F94.2
....................          if(!abrirPuerta) 
0D106:  BTFSC  xA6.5
0D108:  BRA    D10E
....................             BombaVacio_off; 
0D10A:  BSF    F8C.2
0D10C:  BCF    F95.2
....................          //Agua_off; 
....................          Agua2_off; 
0D10E:  BSF    F8B.5
0D110:  BCF    F94.5
....................          Vacio_off; 
0D112:  BSF    F8B.1
0D114:  BCF    F94.1
....................          SSR_off; 
0D116:  BCF    F8D.1
0D118:  BCF    F96.1
....................          SSR2_off; 
0D11A:  BCF    F8D.2
0D11C:  BCF    F96.2
....................          if(PresionCamara<Atmosferica) 
0D11E:  MOVLB  2
0D120:  MOVF   x14,F
0D122:  BNZ   D130
0D124:  MOVF   x42,W
0D126:  SUBWF  x13,W
0D128:  BC    D130
....................             Aire_on; 
0D12A:  BCF    F8B.0
0D12C:  BCF    F94.0
....................          else 
0D12E:  BRA    D134
....................             Aire_off; 
0D130:  BSF    F8B.0
0D132:  BCF    F94.0
....................          Controlando=0; 
0D134:  MOVLB  1
0D136:  CLRF   xF0
....................          if(codigoAnt!=codigoAlarma){ 
0D138:  MOVLB  2
0D13A:  MOVF   x2F,W
0D13C:  SUBWF  x30,W
0D13E:  BZ    D14E
....................             codigoAnt=codigoAlarma; 
0D140:  MOVFF  22F,230
....................             GuardaDatoCiclo(); 
0D144:  MOVLB  0
0D146:  CALL   69EC
....................             incrementaCiclos(); 
0D14A:  CALL   6D90
....................          } 
....................          if(!flagImprimir){ 
0D14E:  MOVLB  0
0D150:  BTFSC  xAB.7
0D152:  BRA    D176
....................             Imprime=26; 
0D154:  MOVLW  1A
0D156:  MOVLB  2
0D158:  MOVWF  x4D
....................             Envio_Esclavos(); 
0D15A:  MOVLB  0
0D15C:  CALL   524E
....................             delay_ms(100); 
0D160:  MOVLW  64
0D162:  MOVLB  6
0D164:  MOVWF  x62
0D166:  MOVLB  0
0D168:  CALL   2128
....................             Imprime=10; 
0D16C:  MOVLW  0A
0D16E:  MOVLB  2
0D170:  MOVWF  x4D
....................             flagImprimir=1; 
0D172:  MOVLB  0
0D174:  BSF    xAB.7
....................          } 
....................          Finalizo=ON; 
0D176:  BSF    xA9.3
....................       }else if(AlarmaVacio){ // Alarma de Error de que genera el Vacio en el tiempo estipulado. 
0D178:  BRA    D2E8
0D17A:  BTFSS  xA2.5
0D17C:  BRA    D22A
....................          codigoAlarma=8; 
0D17E:  MOVLW  08
0D180:  MOVLB  2
0D182:  MOVWF  x2F
....................          printf("Funcionamiento.t4f.txt=\" Error Vacio\""); 
0D184:  MOVLW  C2
0D186:  MOVWF  FF6
0D188:  MOVLW  18
0D18A:  MOVWF  FF7
0D18C:  MOVLW  00
0D18E:  MOVWF  FF8
0D190:  MOVLB  0
0D192:  CALL   3F38
....................          SendDataDisplay(); 
0D196:  CALL   3F6A
....................          printf("Funcionamiento.t5f.txt=\" Cancelado\""); 
0D19A:  MOVLW  E8
0D19C:  MOVWF  FF6
0D19E:  MOVLW  18
0D1A0:  MOVWF  FF7
0D1A2:  MOVLW  00
0D1A4:  MOVWF  FF8
0D1A6:  CALL   3F38
....................          SendDataDisplay(); 
0D1AA:  CALL   3F6A
....................          Desfogue_on; 
0D1AE:  BCF    F8C.0
0D1B0:  BCF    F95.0
....................          Paso_off; 
0D1B2:  BSF    F8B.2
0D1B4:  BCF    F94.2
....................          if(!abrirPuerta) 
0D1B6:  BTFSC  xA6.5
0D1B8:  BRA    D1BE
....................             BombaVacio_off; 
0D1BA:  BSF    F8C.2
0D1BC:  BCF    F95.2
....................          //Agua_off; 
....................          Agua2_off; 
0D1BE:  BSF    F8B.5
0D1C0:  BCF    F94.5
....................          Vacio_off; 
0D1C2:  BSF    F8B.1
0D1C4:  BCF    F94.1
....................          SSR_off; 
0D1C6:  BCF    F8D.1
0D1C8:  BCF    F96.1
....................          SSR2_off; 
0D1CA:  BCF    F8D.2
0D1CC:  BCF    F96.2
....................          if(PresionCamara<Atmosferica) 
0D1CE:  MOVLB  2
0D1D0:  MOVF   x14,F
0D1D2:  BNZ   D1E0
0D1D4:  MOVF   x42,W
0D1D6:  SUBWF  x13,W
0D1D8:  BC    D1E0
....................             Aire_on; 
0D1DA:  BCF    F8B.0
0D1DC:  BCF    F94.0
....................          else 
0D1DE:  BRA    D1E4
....................             Aire_off; 
0D1E0:  BSF    F8B.0
0D1E2:  BCF    F94.0
....................          Controlando=0; 
0D1E4:  MOVLB  1
0D1E6:  CLRF   xF0
....................          if(codigoAnt!=codigoAlarma){ 
0D1E8:  MOVLB  2
0D1EA:  MOVF   x2F,W
0D1EC:  SUBWF  x30,W
0D1EE:  BZ    D1FE
....................             codigoAnt=codigoAlarma; 
0D1F0:  MOVFF  22F,230
....................             GuardaDatoCiclo(); 
0D1F4:  MOVLB  0
0D1F6:  CALL   69EC
....................             incrementaCiclos(); 
0D1FA:  CALL   6D90
....................          } 
....................           
....................          if(!flagImprimir){ 
0D1FE:  MOVLB  0
0D200:  BTFSC  xAB.7
0D202:  BRA    D226
....................             Imprime=27; 
0D204:  MOVLW  1B
0D206:  MOVLB  2
0D208:  MOVWF  x4D
....................             Envio_Esclavos(); 
0D20A:  MOVLB  0
0D20C:  CALL   524E
....................             delay_ms(100); 
0D210:  MOVLW  64
0D212:  MOVLB  6
0D214:  MOVWF  x62
0D216:  MOVLB  0
0D218:  CALL   2128
....................             Imprime=10; 
0D21C:  MOVLW  0A
0D21E:  MOVLB  2
0D220:  MOVWF  x4D
....................             flagImprimir=1; 
0D222:  MOVLB  0
0D224:  BSF    xAB.7
....................          } 
....................          Finalizo=ON; 
0D226:  BSF    xA9.3
....................       }else if(AlarmaEmpaque){ // Alarma de Error de que el empaque no se presuriza 
0D228:  BRA    D2E8
0D22A:  BTFSS  xA3.4
0D22C:  BRA    D2E8
....................          codigoAlarma=30; 
0D22E:  MOVLW  1E
0D230:  MOVLB  2
0D232:  MOVWF  x2F
....................          printf("Funcionamiento.t4f.txt=\" Error Empaque\""); 
0D234:  MOVLW  0C
0D236:  MOVWF  FF6
0D238:  MOVLW  19
0D23A:  MOVWF  FF7
0D23C:  MOVLW  00
0D23E:  MOVWF  FF8
0D240:  MOVLB  0
0D242:  CALL   3F38
....................          SendDataDisplay(); 
0D246:  CALL   3F6A
....................          printf("Funcionamiento.t5f.txt=\" Cancelado\""); 
0D24A:  MOVLW  34
0D24C:  MOVWF  FF6
0D24E:  MOVLW  19
0D250:  MOVWF  FF7
0D252:  MOVLW  00
0D254:  MOVWF  FF8
0D256:  CALL   3F38
....................          SendDataDisplay(); 
0D25A:  CALL   3F6A
....................          if(AlarmaEmpaque && PresionCamara<Atmosferica+4) 
0D25E:  BTFSS  xA3.4
0D260:  BRA    D282
0D262:  MOVLW  04
0D264:  MOVLB  2
0D266:  ADDWF  x42,W
0D268:  MOVF   x14,F
0D26A:  BTFSC  FD8.2
0D26C:  BRA    D272
0D26E:  MOVLB  0
0D270:  BRA    D282
0D272:  SUBWF  x13,W
0D274:  BTFSS  FD8.0
0D276:  BRA    D27C
0D278:  MOVLB  0
0D27A:  BRA    D282
....................             Empaque_off; 
0D27C:  BCF    F8C.5
0D27E:  BCF    F95.5
0D280:  MOVLB  0
....................          Desfogue_on; 
0D282:  BCF    F8C.0
0D284:  BCF    F95.0
....................          Paso_off; 
0D286:  BSF    F8B.2
0D288:  BCF    F94.2
....................          if(!abrirPuerta) 
0D28A:  BTFSC  xA6.5
0D28C:  BRA    D292
....................             BombaVacio_off; 
0D28E:  BSF    F8C.2
0D290:  BCF    F95.2
....................          //Agua_off; 
....................          Agua2_off; 
0D292:  BSF    F8B.5
0D294:  BCF    F94.5
....................          Vacio_off; 
0D296:  BSF    F8B.1
0D298:  BCF    F94.1
....................          SSR_off; 
0D29A:  BCF    F8D.1
0D29C:  BCF    F96.1
....................          SSR2_off; 
0D29E:  BCF    F8D.2
0D2A0:  BCF    F96.2
....................          Aire_off; 
0D2A2:  BSF    F8B.0
0D2A4:  BCF    F94.0
....................          Controlando=0; 
0D2A6:  MOVLB  1
0D2A8:  CLRF   xF0
....................          if(codigoAnt!=codigoAlarma){ 
0D2AA:  MOVLB  2
0D2AC:  MOVF   x2F,W
0D2AE:  SUBWF  x30,W
0D2B0:  BZ    D2C0
....................             codigoAnt=codigoAlarma; 
0D2B2:  MOVFF  22F,230
....................             GuardaDatoCiclo(); 
0D2B6:  MOVLB  0
0D2B8:  CALL   69EC
....................             incrementaCiclos(); 
0D2BC:  CALL   6D90
....................          } 
....................           
....................          if(!flagImprimir){ 
0D2C0:  MOVLB  0
0D2C2:  BTFSC  xAB.7
0D2C4:  BRA    D2E8
....................             Imprime=29; 
0D2C6:  MOVLW  1D
0D2C8:  MOVLB  2
0D2CA:  MOVWF  x4D
....................             Envio_Esclavos(); 
0D2CC:  MOVLB  0
0D2CE:  CALL   524E
....................             delay_ms(100); 
0D2D2:  MOVLW  64
0D2D4:  MOVLB  6
0D2D6:  MOVWF  x62
0D2D8:  MOVLB  0
0D2DA:  CALL   2128
....................             Imprime=10; 
0D2DE:  MOVLW  0A
0D2E0:  MOVLB  2
0D2E2:  MOVWF  x4D
....................             flagImprimir=1; 
0D2E4:  MOVLB  0
0D2E6:  BSF    xAB.7
0D2E8:  MOVLB  2
....................          } 
....................       } 
....................    }else{ 
0D2EA:  GOTO   DE04
0D2EE:  MOVLB  0
....................       EstadoBuzzer=OFF; 
0D2F0:  BCF    xA8.7
....................       if(flagImprime){ 
0D2F2:  MOVLB  1
0D2F4:  BTFSS  xED.3
0D2F6:  BRA    D31A
....................          Imprime=5; 
0D2F8:  MOVLW  05
0D2FA:  MOVLB  2
0D2FC:  MOVWF  x4D
....................          Envio_Esclavos(); 
0D2FE:  MOVLB  0
0D300:  CALL   524E
....................          delay_ms(100); 
0D304:  MOVLW  64
0D306:  MOVLB  6
0D308:  MOVWF  x62
0D30A:  MOVLB  0
0D30C:  CALL   2128
....................          Imprime=10; 
0D310:  MOVLW  0A
0D312:  MOVLB  2
0D314:  MOVWF  x4D
....................          flagImprime=0; 
0D316:  MOVLB  1
0D318:  BCF    xED.3
....................       } 
....................        
....................       if(!Fugas){//Si selecciono un ciclo diferente al test de fugas 
0D31A:  MOVLB  0
0D31C:  BTFSC  xAA.1
0D31E:  GOTO   DB94
....................          //Buzzer_off; 
....................          IniciaCiclo=ON; 
0D322:  BSF    xA3.6
....................        
....................       if(!CalderinLleno){ 
0D324:  BTFSC  xA6.4
0D326:  BRA    D38A
....................          printf("Funcionamiento.t4f.txt=\" Ninguna\""); 
0D328:  MOVLW  58
0D32A:  MOVWF  FF6
0D32C:  MOVLW  19
0D32E:  MOVWF  FF7
0D330:  MOVLW  00
0D332:  MOVWF  FF8
0D334:  CALL   3F38
....................          SendDataDisplay(); 
0D338:  CALL   3F6A
....................          printf("Funcionamiento.t5f.txt=\" Llenando Generador\""); 
0D33C:  MOVLW  7A
0D33E:  MOVWF  FF6
0D340:  MOVLW  19
0D342:  MOVWF  FF7
0D344:  MOVLW  00
0D346:  MOVWF  FF8
0D348:  CALL   3F38
....................          SendDataDisplay(); 
0D34C:  CALL   3F6A
....................          //Agua_on; 
....................          Controlando=0; 
0D350:  MOVLB  1
0D352:  CLRF   xF0
....................          IniciaLlenado=ON; 
0D354:  MOVLB  0
0D356:  BSF    xA3.5
....................          Controlando=0; 
0D358:  MOVLB  1
0D35A:  CLRF   xF0
....................          Desfogue_off; 
0D35C:  BSF    F8C.0
0D35E:  BCF    F95.0
....................          Paso_off; 
0D360:  BSF    F8B.2
0D362:  BCF    F94.2
....................          Aire_off; 
0D364:  BSF    F8B.0
0D366:  BCF    F94.0
....................          SSR_off; 
0D368:  BCF    F8D.1
0D36A:  BCF    F96.1
....................          codigoAlarma=17; 
0D36C:  MOVLW  11
0D36E:  MOVLB  2
0D370:  MOVWF  x2F
....................          if(codigoAnt!=codigoAlarma){ 
0D372:  MOVF   x2F,W
0D374:  SUBWF  x30,W
0D376:  BZ    D384
....................             codigoAnt=codigoAlarma; 
0D378:  MOVFF  22F,230
....................             GuardaDatoCiclo(); 
0D37C:  MOVLB  0
0D37E:  CALL   69EC
0D382:  MOVLB  2
....................          } 
....................       }else if(!Precalentamiento){  
0D384:  GOTO   DB90
0D388:  MOVLB  0
0D38A:  BTFSC  xAA.2
0D38C:  BRA    D3E6
....................          Agua_off; 
0D38E:  BSF    F8C.3
0D390:  BCF    F95.3
....................          printf("Funcionamiento.t4f.txt=\" Ninguna\""); 
0D392:  MOVLW  A8
0D394:  MOVWF  FF6
0D396:  MOVLW  19
0D398:  MOVWF  FF7
0D39A:  MOVLW  00
0D39C:  MOVWF  FF8
0D39E:  CALL   3F38
....................          SendDataDisplay(); 
0D3A2:  CALL   3F6A
....................          printf("Funcionamiento.t5f.txt=\" PreCalentando\""); 
0D3A6:  MOVLW  CA
0D3A8:  MOVWF  FF6
0D3AA:  MOVLW  19
0D3AC:  MOVWF  FF7
0D3AE:  MOVLW  00
0D3B0:  MOVWF  FF8
0D3B2:  CALL   3F38
....................          SendDataDisplay(); 
0D3B6:  CALL   3F6A
....................          ControlaPresion();  
0D3BA:  CALL   6E20
....................          Controlando=0; 
0D3BE:  MOVLB  1
0D3C0:  CLRF   xF0
....................          IniciaVacio=OFF; 
0D3C2:  MOVLB  0
0D3C4:  BCF    xAA.3
....................          IniciaVacio2=OFF; 
0D3C6:  BCF    xAA.4
....................          codigoAlarma=10; 
0D3C8:  MOVLW  0A
0D3CA:  MOVLB  2
0D3CC:  MOVWF  x2F
....................          if(codigoAnt!=codigoAlarma){ 
0D3CE:  MOVF   x2F,W
0D3D0:  SUBWF  x30,W
0D3D2:  BZ    D3E0
....................             codigoAnt=codigoAlarma; 
0D3D4:  MOVFF  22F,230
....................             GuardaDatoCiclo(); 
0D3D8:  MOVLB  0
0D3DA:  CALL   69EC
0D3DE:  MOVLB  2
....................          } 
....................       }else{ 
0D3E0:  GOTO   DB90
0D3E4:  MOVLB  0
....................          if(!Vacio){ //Si no ha realizado los pulsos de vacio 
0D3E6:  BTFSC  xAA.5
0D3E8:  BRA    D602
....................             codigoAlarma=11; 
0D3EA:  MOVLW  0B
0D3EC:  MOVLB  2
0D3EE:  MOVWF  x2F
....................             if(codigoAnt!=codigoAlarma){ 
0D3F0:  MOVF   x2F,W
0D3F2:  SUBWF  x30,W
0D3F4:  BZ    D400
....................                codigoAnt=codigoAlarma; 
0D3F6:  MOVFF  22F,230
....................                GuardaDatoCiclo();                
0D3FA:  MOVLB  0
0D3FC:  CALL   69EC
....................             } 
....................             if(!flag_vac){//Ciclo inicial para purga de Bomba 
0D400:  MOVLB  0
0D402:  BTFSC  xAA.6
0D404:  BRA    D44C
....................                flag_vac=ON; 
0D406:  BSF    xAA.6
....................                Vacio_off; 
0D408:  BSF    F8B.1
0D40A:  BCF    F94.1
....................                Desfogue_off; 
0D40C:  BSF    F8C.0
0D40E:  BCF    F95.0
....................                Aire_off; 
0D410:  BSF    F8B.0
0D412:  BCF    F94.0
....................                Paso_off; 
0D414:  BSF    F8B.2
0D416:  BCF    F94.2
....................                Agua2_on; 
0D418:  BCF    F8B.5
0D41A:  BCF    F94.5
....................                delay_ms(700); 
0D41C:  MOVLW  04
0D41E:  MOVLB  6
0D420:  MOVWF  x50
0D422:  MOVLW  AF
0D424:  MOVWF  x62
0D426:  MOVLB  0
0D428:  CALL   2128
0D42C:  MOVLB  6
0D42E:  DECFSZ x50,F
0D430:  BRA    D422
....................                if(ReservorioLleno) 
0D432:  MOVLB  0
0D434:  BTFSS  xAC.4
0D436:  BRA    D43E
....................                   BombaVacio_on; 
0D438:  BCF    F8C.2
0D43A:  BCF    F95.2
....................                else 
0D43C:  BRA    D442
....................                   BombaVacio_off; 
0D43E:  BSF    F8C.2
0D440:  BCF    F95.2
....................                IniciaVacio2=ON; 
0D442:  BSF    xAA.4
....................                PulsoPositivo=10; //Prueba para ver rendimiento de bomba de vacio************ 
0D444:  MOVLW  0A
0D446:  MOVLB  2
0D448:  MOVWF  x43
0D44A:  MOVLB  0
....................             } 
....................             printf("Funcionamiento.t4f.txt=\" Ninguna\""); 
0D44C:  MOVLW  F2
0D44E:  MOVWF  FF6
0D450:  MOVLW  19
0D452:  MOVWF  FF7
0D454:  MOVLW  00
0D456:  MOVWF  FF8
0D458:  CALL   3F38
....................             SendDataDisplay(); 
0D45C:  CALL   3F6A
....................             ControlaPresion(); 
0D460:  CALL   6E20
....................             IniciaVacio=ON; 
0D464:  BSF    xAA.3
....................                 
....................             if(PresionCamara>NivelVacio && PulsoPositivo==10){//Pulso Negativo 
0D466:  MOVLB  2
0D468:  MOVF   x14,F
0D46A:  BNZ   D472
0D46C:  MOVF   x13,W
0D46E:  SUBWF  x41,W
0D470:  BC    D4F2
0D472:  MOVF   x43,W
0D474:  SUBLW  0A
0D476:  BNZ   D4F2
....................                flag_vacio=1; 
0D478:  MOVLB  0
0D47A:  BSF    xAA.7
....................                if(ReservorioLleno) 
0D47C:  BTFSS  xAC.4
0D47E:  BRA    D486
....................                   BombaVacio_on; 
0D480:  BCF    F8C.2
0D482:  BCF    F95.2
....................                else 
0D484:  BRA    D48A
....................                   BombaVacio_off; 
0D486:  BSF    F8C.2
0D488:  BCF    F95.2
....................                Vacio_on; 
0D48A:  BCF    F8B.1
0D48C:  BCF    F94.1
....................                Desfogue_off; 
0D48E:  BSF    F8C.0
0D490:  BCF    F95.0
....................                Aire_off;                      
0D492:  BSF    F8B.0
0D494:  BCF    F94.0
....................                Paso_off; 
0D496:  BSF    F8B.2
0D498:  BCF    F94.2
....................                if(PulsosVacio>=2) 
0D49A:  MOVLB  2
0D49C:  MOVF   x44,W
0D49E:  SUBLW  01
0D4A0:  BC    D4A8
....................                   Agua2_on; 
0D4A2:  BCF    F8B.5
0D4A4:  BCF    F94.5
....................                else 
0D4A6:  BRA    D4AC
....................                   Agua2_off; 
0D4A8:  BSF    F8B.5
0D4AA:  BCF    F94.5
....................                if(flag_pulso==0){ 
0D4AC:  MOVLB  0
0D4AE:  BTFSC  xAB.0
0D4B0:  BRA    D4BA
....................                   PulsosVacio++; 
0D4B2:  MOVLB  2
0D4B4:  INCF   x44,F
....................                   flag_pulso=1; 
0D4B6:  MOVLB  0
0D4B8:  BSF    xAB.0
....................                } 
....................                printf("Funcionamiento.t5f.txt=\" Pulso de Vacio %u\"",PulsosVacio); 
0D4BA:  MOVLW  14
0D4BC:  MOVWF  FF6
0D4BE:  MOVLW  1A
0D4C0:  MOVWF  FF7
0D4C2:  MOVLW  00
0D4C4:  MOVWF  FF8
0D4C6:  MOVLW  28
0D4C8:  MOVLB  6
0D4CA:  MOVWF  x55
0D4CC:  MOVLB  0
0D4CE:  CALL   56B2
0D4D2:  MOVFF  244,655
0D4D6:  MOVLW  1B
0D4D8:  MOVLB  6
0D4DA:  MOVWF  x56
0D4DC:  MOVLB  0
0D4DE:  CALL   599E
0D4E2:  MOVLW  22
0D4E4:  BTFSS  F9E.4
0D4E6:  BRA    D4E4
0D4E8:  MOVWF  FAD
....................                SendDataDisplay(); 
0D4EA:  CALL   3F6A
....................             }else{ 
0D4EE:  BRA    D4F6
0D4F0:  MOVLB  2
....................                PulsoPositivo=5; 
0D4F2:  MOVLW  05
0D4F4:  MOVWF  x43
....................             } 
....................              
....................             if(PulsosVacio>=CantidadPulsos && PulsoPositivo==5){//Si realiza los pulsos de vacio, continua con el proceso de calentamiento 
0D4F6:  MOVLB  1
0D4F8:  MOVF   xFF,F
0D4FA:  BNZ   D53E
0D4FC:  MOVF   xFE,W
0D4FE:  MOVLB  2
0D500:  SUBWF  x44,W
0D502:  BTFSC  FD8.0
0D504:  BRA    D50A
0D506:  MOVLB  1
0D508:  BRA    D53E
0D50A:  MOVF   x43,W
0D50C:  SUBLW  05
0D50E:  BTFSC  FD8.2
0D510:  BRA    D516
0D512:  MOVLB  1
0D514:  BRA    D53E
....................                Vacio=ON; 
0D516:  MOVLB  0
0D518:  BSF    xAA.5
....................                Vacio_off; 
0D51A:  BSF    F8B.1
0D51C:  BCF    F94.1
....................                BombaVacio_off; 
0D51E:  BSF    F8C.2
0D520:  BCF    F95.2
....................                Vacio_off; 
0D522:  BSF    F8B.1
0D524:  BCF    F94.1
....................                Desfogue_off; 
0D526:  BSF    F8C.0
0D528:  BCF    F95.0
....................                Aire_off;                                  
0D52A:  BSF    F8B.0
0D52C:  BCF    F94.0
....................                IniciaVacio=OFF; 
0D52E:  BCF    xAA.3
....................                Paso_on; 
0D530:  BCF    F8B.2
0D532:  BCF    F94.2
....................                Agua2_off; 
0D534:  BSF    F8B.5
0D536:  BCF    F94.5
....................                PulsoPositivo=10; 
0D538:  MOVLW  0A
0D53A:  MOVLB  2
0D53C:  MOVWF  x43
....................             } 
....................                
....................             if(PulsoPositivo==5){//Pulso Positivo 
0D53E:  MOVLB  2
0D540:  MOVF   x43,W
0D542:  SUBLW  05
0D544:  BNZ   D5BA
....................                tvacio=0; 
0D546:  CLRF   x1C
0D548:  CLRF   x1B
....................                flag_pulso=0; 
0D54A:  MOVLB  0
0D54C:  BCF    xAB.0
....................                printf("Funcionamiento.t5f.txt=\" Pulso Positivo %u\"",PulsosVacio); 
0D54E:  MOVLW  40
0D550:  MOVWF  FF6
0D552:  MOVLW  1A
0D554:  MOVWF  FF7
0D556:  MOVLW  00
0D558:  MOVWF  FF8
0D55A:  MOVLW  28
0D55C:  MOVLB  6
0D55E:  MOVWF  x55
0D560:  MOVLB  0
0D562:  CALL   56B2
0D566:  MOVFF  244,655
0D56A:  MOVLW  1B
0D56C:  MOVLB  6
0D56E:  MOVWF  x56
0D570:  MOVLB  0
0D572:  CALL   599E
0D576:  MOVLW  22
0D578:  BTFSS  F9E.4
0D57A:  BRA    D578
0D57C:  MOVWF  FAD
....................                SendDataDisplay(); 
0D57E:  CALL   3F6A
....................                if(ReservorioLleno) 
0D582:  BTFSS  xAC.4
0D584:  BRA    D58C
....................                   BombaVacio_on; 
0D586:  BCF    F8C.2
0D588:  BCF    F95.2
....................                else 
0D58A:  BRA    D590
....................                   BombaVacio_off; 
0D58C:  BSF    F8C.2
0D58E:  BCF    F95.2
....................                Vacio_off; 
0D590:  BSF    F8B.1
0D592:  BCF    F94.1
....................                Desfogue_off; 
0D594:  BSF    F8C.0
0D596:  BCF    F95.0
....................                Aire_off;                      
0D598:  BSF    F8B.0
0D59A:  BCF    F94.0
....................                Paso_on;      
0D59C:  BCF    F8B.2
0D59E:  BCF    F94.2
....................                Agua2_off; 
0D5A0:  BSF    F8B.5
0D5A2:  BCF    F94.5
....................                if(PresionCamara>=Atmosferica+80){ 
0D5A4:  MOVLW  50
0D5A6:  MOVLB  2
0D5A8:  ADDWF  x42,W
0D5AA:  MOVF   x14,F
0D5AC:  BNZ   D5B2
0D5AE:  SUBWF  x13,W
0D5B0:  BNC   D5BA
....................                   Paso_off; 
0D5B2:  BSF    F8B.2
0D5B4:  BCF    F94.2
....................                   PulsoPositivo=10; 
0D5B6:  MOVLW  0A
0D5B8:  MOVWF  x43
....................                }   
....................             } 
....................                 
....................             if(tbomba>=120 && PulsosVacio==0){//Si no se ha generado ningun pulso de vacio despues de 120 segundos se genera alarma 
0D5BA:  MOVF   x1A,F
0D5BC:  BNZ   D5C4
0D5BE:  MOVF   x19,W
0D5C0:  SUBLW  77
0D5C2:  BC    D5E2
0D5C4:  MOVF   x44,F
0D5C6:  BNZ   D5E2
....................                if(PresionCamara>Atmosferica){ 
0D5C8:  MOVF   x14,F
0D5CA:  BNZ   D5D2
0D5CC:  MOVF   x13,W
0D5CE:  SUBWF  x42,W
0D5D0:  BC    D5DA
....................                   AlarmaBomba=ON; 
0D5D2:  MOVLB  0
0D5D4:  BSF    xA2.6
....................                }else{ 
0D5D6:  BRA    D5E2
0D5D8:  MOVLB  2
....................                   tbomba=0; 
0D5DA:  CLRF   x1A
0D5DC:  CLRF   x19
....................                   IniciaVacio2=OFF; 
0D5DE:  MOVLB  0
0D5E0:  BCF    xAA.4
....................                } 
....................              } 
....................                 
....................             if(tvacio>=TiempoVacio){//Si excede el tiempo maximo para generar los pulsos de vacio genera alarma             
0D5E2:  MOVLB  0
0D5E4:  MOVF   xA5,W
0D5E6:  MOVLB  2
0D5E8:  SUBWF  x1C,W
0D5EA:  BNC   D5FE
0D5EC:  BNZ   D5F8
0D5EE:  MOVLB  0
0D5F0:  MOVF   xA4,W
0D5F2:  MOVLB  2
0D5F4:  SUBWF  x1B,W
0D5F6:  BNC   D5FE
....................                AlarmaVacio=ON; 
0D5F8:  MOVLB  0
0D5FA:  BSF    xA2.5
0D5FC:  MOVLB  2
....................             } 
....................          }else{ 
0D5FE:  BRA    DB90
0D600:  MOVLB  0
....................             IniciaVacio=OFF;         
0D602:  BCF    xAA.3
....................             if(Temperatura>=((float)Setpoint-0.3)){ 
0D604:  MOVLB  6
0D606:  CLRF   x63
0D608:  MOVFF  202,662
0D60C:  MOVLB  0
0D60E:  CALL   20F2
0D612:  MOVFF  00,650
0D616:  MOVFF  01,651
0D61A:  MOVFF  02,652
0D61E:  MOVFF  03,653
0D622:  BSF    FD8.1
0D624:  MOVFF  03,665
0D628:  MOVFF  02,664
0D62C:  MOVFF  01,663
0D630:  MOVFF  00,662
0D634:  MOVLW  9A
0D636:  MOVLB  6
0D638:  MOVWF  x69
0D63A:  MOVLW  99
0D63C:  MOVWF  x68
0D63E:  MOVLW  19
0D640:  MOVWF  x67
0D642:  MOVLW  7D
0D644:  MOVWF  x66
0D646:  MOVLB  0
0D648:  CALL   250C
0D64C:  MOVFF  03,657
0D650:  MOVFF  02,656
0D654:  MOVFF  01,655
0D658:  MOVFF  00,654
0D65C:  MOVFF  1D9,65B
0D660:  MOVFF  1D8,65A
0D664:  MOVFF  1D7,659
0D668:  MOVFF  1D6,658
0D66C:  CALL   2784
0D670:  BC    D674
0D672:  BNZ   D676
....................                Esterilizando=ON; 
0D674:  BSF    xA3.7
....................             } 
....................              
....................             if(Temperatura<((float)Setpoint-0.9) && !Desfogando){ 
0D676:  MOVLB  6
0D678:  CLRF   x63
0D67A:  MOVFF  202,662
0D67E:  MOVLB  0
0D680:  CALL   20F2
0D684:  MOVFF  00,650
0D688:  MOVFF  01,651
0D68C:  MOVFF  02,652
0D690:  MOVFF  03,653
0D694:  BSF    FD8.1
0D696:  MOVFF  03,665
0D69A:  MOVFF  02,664
0D69E:  MOVFF  01,663
0D6A2:  MOVFF  00,662
0D6A6:  MOVLW  66
0D6A8:  MOVLB  6
0D6AA:  MOVWF  x69
0D6AC:  MOVWF  x68
0D6AE:  MOVWF  x67
0D6B0:  MOVLW  7E
0D6B2:  MOVWF  x66
0D6B4:  MOVLB  0
0D6B6:  CALL   250C
0D6BA:  MOVFF  1D9,657
0D6BE:  MOVFF  1D8,656
0D6C2:  MOVFF  1D7,655
0D6C6:  MOVFF  1D6,654
0D6CA:  MOVFF  03,65B
0D6CE:  MOVFF  02,65A
0D6D2:  MOVFF  01,659
0D6D6:  MOVFF  00,658
0D6DA:  CALL   2784
0D6DE:  BNC   D6E6
0D6E0:  BTFSC  xA6.2
0D6E2:  BRA    D6E6
....................                Esterilizando=OFF; 
0D6E4:  BCF    xA3.7
....................             } 
....................              
....................             if(!Esterilizando){ 
0D6E6:  BTFSC  xA3.7
0D6E8:  BRA    D756
....................                cierraPuerta(); 
0D6EA:  CALL   4EA2
....................                codigoAlarma=12; 
0D6EE:  MOVLW  0C
0D6F0:  MOVLB  2
0D6F2:  MOVWF  x2F
....................                if(codigoAnt!=codigoAlarma){ 
0D6F4:  MOVF   x2F,W
0D6F6:  SUBWF  x30,W
0D6F8:  BZ    D704
....................                   codigoAnt=codigoAlarma; 
0D6FA:  MOVFF  22F,230
....................                   GuardaDatoCiclo();                   
0D6FE:  MOVLB  0
0D700:  CALL   69EC
....................                } 
....................                flag_vac=OFF; 
0D704:  MOVLB  0
0D706:  BCF    xAA.6
....................                printf("Funcionamiento.t4f.txt=\" Ninguna\""); 
0D708:  MOVLW  6C
0D70A:  MOVWF  FF6
0D70C:  MOVLW  1A
0D70E:  MOVWF  FF7
0D710:  MOVLW  00
0D712:  MOVWF  FF8
0D714:  CALL   3F38
....................                SendDataDisplay(); 
0D718:  CALL   3F6A
....................                printf("Funcionamiento.t5f.txt=\" Calentando\""); 
0D71C:  MOVLW  8E
0D71E:  MOVWF  FF6
0D720:  MOVLW  1A
0D722:  MOVWF  FF7
0D724:  MOVLW  00
0D726:  MOVWF  FF8
0D728:  CALL   3F38
....................                SendDataDisplay(); 
0D72C:  CALL   3F6A
....................                Controlando=1; 
0D730:  MOVLW  01
0D732:  MOVLB  1
0D734:  MOVWF  xF0
....................                Controla(); 
0D736:  MOVLB  0
0D738:  CALL   6EE0
....................                Paso_on; 
0D73C:  BCF    F8B.2
0D73E:  BCF    F94.2
....................                BombaVacio_off; 
0D740:  BSF    F8C.2
0D742:  BCF    F95.2
....................                Vacio_off; 
0D744:  BSF    F8B.1
0D746:  BCF    F94.1
....................                Aire_off; 
0D748:  BSF    F8B.0
0D74A:  BCF    F94.0
....................                Desfogue_off; 
0D74C:  BSF    F8C.0
0D74E:  BCF    F95.0
....................                Agua_off; 
0D750:  BSF    F8C.3
0D752:  BCF    F95.3
....................             }else{ 
0D754:  BRA    DB8E
....................                TiempoCiclo=0; 
0D756:  CLRF   xAE
0D758:  CLRF   xAD
....................                if(mEst==0 && sEst==0){  
0D75A:  MOVF   xC0,F
0D75C:  BTFSS  FD8.2
0D75E:  BRA    DB38
0D760:  MOVF   xBF,F
0D762:  BTFSS  FD8.2
0D764:  BRA    DB38
....................                   if(desfoguelento){ 
0D766:  BTFSS  xAC.6
0D768:  BRA    D8D4
....................                      Controlando=0; 
0D76A:  MOVLB  1
0D76C:  CLRF   xF0
....................                      if(PresionCamara<(Atmosferica+2)){ 
0D76E:  MOVLW  02
0D770:  MOVLB  2
0D772:  ADDWF  x42,W
0D774:  MOVF   x14,F
0D776:  BNZ   D858
0D778:  SUBWF  x13,W
0D77A:  BC    D858
....................                         Secando=OFF; 
0D77C:  MOVLB  0
0D77E:  BCF    xA6.0
....................                         DesfogueSuave=OFF; 
0D780:  BCF    xA6.3
....................                         if(!abrirPuerta) 
0D782:  BTFSC  xA6.5
0D784:  BRA    D78A
....................                            BombaVacio_off; 
0D786:  BSF    F8C.2
0D788:  BCF    F95.2
....................                         Vacio_off; 
0D78A:  BSF    F8B.1
0D78C:  BCF    F94.1
....................                         Aire_off; 
0D78E:  BSF    F8B.0
0D790:  BCF    F94.0
....................                         Desfogue_on; 
0D792:  BCF    F8C.0
0D794:  BCF    F95.0
....................                         Paso_off; 
0D796:  BSF    F8B.2
0D798:  BCF    F94.2
....................                         Agua2_off; 
0D79A:  BSF    F8B.5
0D79C:  BCF    F94.5
....................                         Agua_off; 
0D79E:  BSF    F8C.3
0D7A0:  BCF    F95.3
....................                         SSR_off; 
0D7A2:  BCF    F8D.1
0D7A4:  BCF    F96.1
....................                         if(Temperatura<=Tapertura){ 
0D7A6:  MOVLB  6
0D7A8:  CLRF   x63
0D7AA:  MOVFF  1FD,662
0D7AE:  MOVLB  0
0D7B0:  CALL   20F2
0D7B4:  MOVFF  1D9,657
0D7B8:  MOVFF  1D8,656
0D7BC:  MOVFF  1D7,655
0D7C0:  MOVFF  1D6,654
0D7C4:  MOVFF  03,65B
0D7C8:  MOVFF  02,65A
0D7CC:  MOVFF  01,659
0D7D0:  MOVFF  00,658
0D7D4:  CALL   2784
0D7D8:  BC    D7DC
0D7DA:  BNZ   D850
....................                            ActivaAlarma(2); 
0D7DC:  MOVLW  02
0D7DE:  MOVLB  6
0D7E0:  MOVWF  x50
0D7E2:  MOVLB  0
0D7E4:  CALL   5578
....................                            printf("Funcionamiento.t4f.txt=\" Ninguna\""); 
0D7E8:  MOVLW  B4
0D7EA:  MOVWF  FF6
0D7EC:  MOVLW  1A
0D7EE:  MOVWF  FF7
0D7F0:  MOVLW  00
0D7F2:  MOVWF  FF8
0D7F4:  CALL   3F38
....................                            SendDataDisplay(); 
0D7F8:  CALL   3F6A
....................                            printf("Funcionamiento.t5f.txt=\" Finalizado\""); 
0D7FC:  MOVLW  D6
0D7FE:  MOVWF  FF6
0D800:  MOVLW  1A
0D802:  MOVWF  FF7
0D804:  MOVLW  00
0D806:  MOVWF  FF8
0D808:  CALL   3F38
....................                            SendDataDisplay(); 
0D80C:  CALL   3F6A
....................                            Finalizo=ON; 
0D810:  BSF    xA9.3
....................                            codigoAlarma=14; 
0D812:  MOVLW  0E
0D814:  MOVLB  2
0D816:  MOVWF  x2F
....................                            if(codigoAnt!=codigoAlarma){ 
0D818:  MOVF   x2F,W
0D81A:  SUBWF  x30,W
0D81C:  BZ    D828
....................                               codigoAnt=codigoAlarma; 
0D81E:  MOVFF  22F,230
....................                               GuardaDatoCiclo();                   
0D822:  MOVLB  0
0D824:  CALL   69EC
....................                            }                           
....................                            if(!flagImprimir){ 
0D828:  MOVLB  0
0D82A:  BTFSC  xAB.7
0D82C:  BRA    D850
....................                               Imprime=28; 
0D82E:  MOVLW  1C
0D830:  MOVLB  2
0D832:  MOVWF  x4D
....................                               Envio_Esclavos(); 
0D834:  MOVLB  0
0D836:  CALL   524E
....................                               delay_ms(100); 
0D83A:  MOVLW  64
0D83C:  MOVLB  6
0D83E:  MOVWF  x62
0D840:  MOVLB  0
0D842:  CALL   2128
....................                               Imprime=10; 
0D846:  MOVLW  0A
0D848:  MOVLB  2
0D84A:  MOVWF  x4D
....................                               flagImprimir=1; 
0D84C:  MOVLB  0
0D84E:  BSF    xAB.7
....................                            } 
....................                         } 
....................                         incrementaCiclos(); 
0D850:  CALL   6D90
....................                      }else if(PresionCamara>(Atmosferica+10)){ 
0D854:  BRA    D8CE
0D856:  MOVLB  2
0D858:  MOVLW  0A
0D85A:  ADDWF  x42,W
0D85C:  MOVF   x14,F
0D85E:  BNZ   D866
0D860:  SUBWF  x13,W
0D862:  BZ    D8D0
0D864:  BNC   D8D0
....................                         codigoAlarma=13; 
0D866:  MOVLW  0D
0D868:  MOVWF  x2F
....................                         if(codigoAnt!=codigoAlarma){ 
0D86A:  MOVF   x2F,W
0D86C:  SUBWF  x30,W
0D86E:  BZ    D87A
....................                            codigoAnt=codigoAlarma; 
0D870:  MOVFF  22F,230
....................                            GuardaDatoCiclo();                   
0D874:  MOVLB  0
0D876:  CALL   69EC
....................                         } 
....................                         Desfogando=ON; 
0D87A:  MOVLB  0
0D87C:  BSF    xA6.2
....................                         DesfogueSuave=ON; 
0D87E:  BSF    xA6.3
....................                         printf("Funcionamiento.t4f.txt=\" Ninguna\""); 
0D880:  MOVLW  FC
0D882:  MOVWF  FF6
0D884:  MOVLW  1A
0D886:  MOVWF  FF7
0D888:  MOVLW  00
0D88A:  MOVWF  FF8
0D88C:  CALL   3F38
....................                         SendDataDisplay(); 
0D890:  CALL   3F6A
....................                         printf("Funcionamiento.t5f.txt=\" Despresurizando\""); 
0D894:  MOVLW  1E
0D896:  MOVWF  FF6
0D898:  MOVLW  1B
0D89A:  MOVWF  FF7
0D89C:  MOVLW  00
0D89E:  MOVWF  FF8
0D8A0:  CALL   3F38
....................                         SendDataDisplay(); 
0D8A4:  CALL   3F6A
....................                         Controlando=0; 
0D8A8:  MOVLB  1
0D8AA:  CLRF   xF0
....................                         //Desfogue_on; 
....................                         Paso_on; 
0D8AC:  BCF    F8B.2
0D8AE:  BCF    F94.2
....................                         if(!abrirPuerta) 
0D8B0:  MOVLB  0
0D8B2:  BTFSC  xA6.5
0D8B4:  BRA    D8BA
....................                            BombaVacio_off; 
0D8B6:  BSF    F8C.2
0D8B8:  BCF    F95.2
....................                         Agua_off; 
0D8BA:  BSF    F8C.3
0D8BC:  BCF    F95.3
....................                         Vacio_off; 
0D8BE:  BSF    F8B.1
0D8C0:  BCF    F94.1
....................                         Aire_off;  
0D8C2:  BSF    F8B.0
0D8C4:  BCF    F94.0
....................                         Agua2_off; 
0D8C6:  BSF    F8B.5
0D8C8:  BCF    F94.5
....................                         SSR_off; 
0D8CA:  BCF    F8D.1
0D8CC:  BCF    F96.1
0D8CE:  MOVLB  2
....................                         //Suministro_off; 
....................                      } 
....................                   }else{                      
0D8D0:  BRA    DB34
0D8D2:  MOVLB  0
....................                      Paso_off; 
0D8D4:  BSF    F8B.2
0D8D6:  BCF    F94.2
....................                      Controlando=0; 
0D8D8:  MOVLB  1
0D8DA:  CLRF   xF0
....................                      Control=0; 
0D8DC:  CLRF   xEE
....................                      if(PresionCamara<(Atmosferica+2)){   
0D8DE:  MOVLW  02
0D8E0:  MOVLB  2
0D8E2:  ADDWF  x42,W
0D8E4:  MOVF   x14,F
0D8E6:  BTFSS  FD8.2
0D8E8:  BRA    DABA
0D8EA:  SUBWF  x13,W
0D8EC:  BTFSC  FD8.0
0D8EE:  BRA    DABA
....................                         if(sSec==0 && mSec==0){                           
0D8F0:  MOVLB  0
0D8F2:  MOVF   xC1,F
0D8F4:  BTFSS  FD8.2
0D8F6:  BRA    DA08
0D8F8:  MOVF   xC2,F
0D8FA:  BTFSS  FD8.2
0D8FC:  BRA    DA08
....................                            codigoAlarma=15; 
0D8FE:  MOVLW  0F
0D900:  MOVLB  2
0D902:  MOVWF  x2F
....................                            if(codigoAnt!=codigoAlarma){ 
0D904:  MOVF   x2F,W
0D906:  SUBWF  x30,W
0D908:  BZ    D916
....................                               codigoAnt=codigoAlarma; 
0D90A:  MOVFF  22F,230
....................                               GuardaDatoCiclo();                   
0D90E:  MOVLB  0
0D910:  CALL   69EC
0D914:  MOVLB  2
....................                            } 
....................                            if(!DOOR){ 
0D916:  BSF    F93.3
0D918:  BTFSS  F81.3
0D91A:  BRA    D926
....................                               Desfogue_off; 
0D91C:  BSF    F8C.0
0D91E:  BCF    F95.0
....................                               Paso_off; 
0D920:  BSF    F8B.2
0D922:  BCF    F94.2
....................                            }else{ 
0D924:  BRA    D92E
....................                               Desfogue_on;                               
0D926:  BCF    F8C.0
0D928:  BCF    F95.0
....................                               Paso_off; 
0D92A:  BSF    F8B.2
0D92C:  BCF    F94.2
....................                            }     
....................                            if(!abrirPuerta) 
0D92E:  MOVLB  0
0D930:  BTFSC  xA6.5
0D932:  BRA    D938
....................                               BombaVacio_off; 
0D934:  BSF    F8C.2
0D936:  BCF    F95.2
....................                            Agua_off; 
0D938:  BSF    F8C.3
0D93A:  BCF    F95.3
....................                            Vacio_off; 
0D93C:  BSF    F8B.1
0D93E:  BCF    F94.1
....................                            Aire_on; 
0D940:  BCF    F8B.0
0D942:  BCF    F94.0
....................                            Desfogue_on; 
0D944:  BCF    F8C.0
0D946:  BCF    F95.0
....................                            Paso_off; 
0D948:  BSF    F8B.2
0D94A:  BCF    F94.2
....................                            Agua2_off; 
0D94C:  BSF    F8B.5
0D94E:  BCF    F94.5
....................                            Secando=OFF; 
0D950:  BCF    xA6.0
....................                            SSR_off; 
0D952:  BCF    F8D.1
0D954:  BCF    F96.1
....................                            if(Temperatura<=Tapertura){ 
0D956:  MOVLB  6
0D958:  CLRF   x63
0D95A:  MOVFF  1FD,662
0D95E:  MOVLB  0
0D960:  CALL   20F2
0D964:  MOVFF  1D9,657
0D968:  MOVFF  1D8,656
0D96C:  MOVFF  1D7,655
0D970:  MOVFF  1D6,654
0D974:  MOVFF  03,65B
0D978:  MOVFF  02,65A
0D97C:  MOVFF  01,659
0D980:  MOVFF  00,658
0D984:  CALL   2784
0D988:  BC    D98C
0D98A:  BNZ   DA00
....................                               ActivaAlarma(2); 
0D98C:  MOVLW  02
0D98E:  MOVLB  6
0D990:  MOVWF  x50
0D992:  MOVLB  0
0D994:  CALL   5578
....................                               printf("Funcionamiento.t4f.txt=\" Ninguna\""); 
0D998:  MOVLW  48
0D99A:  MOVWF  FF6
0D99C:  MOVLW  1B
0D99E:  MOVWF  FF7
0D9A0:  MOVLW  00
0D9A2:  MOVWF  FF8
0D9A4:  CALL   3F38
....................                               SendDataDisplay(); 
0D9A8:  CALL   3F6A
....................                               printf("Funcionamiento.t5f.txt=\" Finalizado\""); 
0D9AC:  MOVLW  6A
0D9AE:  MOVWF  FF6
0D9B0:  MOVLW  1B
0D9B2:  MOVWF  FF7
0D9B4:  MOVLW  00
0D9B6:  MOVWF  FF8
0D9B8:  CALL   3F38
....................                               SendDataDisplay(); 
0D9BC:  CALL   3F6A
....................                               Finalizo=ON; 
0D9C0:  BSF    xA9.3
....................                               codigoAlarma=14; 
0D9C2:  MOVLW  0E
0D9C4:  MOVLB  2
0D9C6:  MOVWF  x2F
....................                               if(codigoAnt!=codigoAlarma){ 
0D9C8:  MOVF   x2F,W
0D9CA:  SUBWF  x30,W
0D9CC:  BZ    D9D8
....................                                  codigoAnt=codigoAlarma; 
0D9CE:  MOVFF  22F,230
....................                                  GuardaDatoCiclo();                   
0D9D2:  MOVLB  0
0D9D4:  CALL   69EC
....................                               } 
....................                               if(!flagImprimir){ 
0D9D8:  MOVLB  0
0D9DA:  BTFSC  xAB.7
0D9DC:  BRA    DA00
....................                                  Imprime=28; 
0D9DE:  MOVLW  1C
0D9E0:  MOVLB  2
0D9E2:  MOVWF  x4D
....................                                  Envio_Esclavos(); 
0D9E4:  MOVLB  0
0D9E6:  CALL   524E
....................                                  delay_ms(100); 
0D9EA:  MOVLW  64
0D9EC:  MOVLB  6
0D9EE:  MOVWF  x62
0D9F0:  MOVLB  0
0D9F2:  CALL   2128
....................                                  Imprime=10; 
0D9F6:  MOVLW  0A
0D9F8:  MOVLB  2
0D9FA:  MOVWF  x4D
....................                                  flagImprimir=1; 
0D9FC:  MOVLB  0
0D9FE:  BSF    xAB.7
....................                               } 
....................                            } 
....................                            incrementaCiclos(); 
0DA00:  CALL   6D90
....................                            Secando=OFF; 
0DA04:  BCF    xA6.0
....................                         }else{ 
0DA06:  BRA    DAB6
....................                            if(Secando){ 
0DA08:  BTFSS  xA6.0
0DA0A:  BRA    DA34
....................                               printf("Funcionamiento.t4f.txt=\" Ninguna\""); 
0DA0C:  MOVLW  90
0DA0E:  MOVWF  FF6
0DA10:  MOVLW  1B
0DA12:  MOVWF  FF7
0DA14:  MOVLW  00
0DA16:  MOVWF  FF8
0DA18:  CALL   3F38
....................                               SendDataDisplay(); 
0DA1C:  CALL   3F6A
....................                               printf("Funcionamiento.t5f.txt=\" Secando\""); 
0DA20:  MOVLW  B2
0DA22:  MOVWF  FF6
0DA24:  MOVLW  1B
0DA26:  MOVWF  FF7
0DA28:  MOVLW  00
0DA2A:  MOVWF  FF8
0DA2C:  CALL   3F38
....................                               SendDataDisplay(); 
0DA30:  CALL   3F6A
....................                            } 
....................                            Paso_off; 
0DA34:  BSF    F8B.2
0DA36:  BCF    F94.2
....................                            ControlaPresion(); 
0DA38:  CALL   6E20
....................                            if(PresionCamara>NivelVacio+5){//Si la presin de la camara es mayor al nivel de vacio 
0DA3C:  MOVLW  05
0DA3E:  MOVLB  2
0DA40:  ADDWF  x41,W
0DA42:  MOVF   x14,F
0DA44:  BNZ   DA4C
0DA46:  SUBWF  x13,W
0DA48:  BZ    DA72
0DA4A:  BNC   DA72
....................                               if(ReservorioLleno) 
0DA4C:  MOVLB  0
0DA4E:  BTFSS  xAC.4
0DA50:  BRA    DA58
....................                                  BombaVacio_on; 
0DA52:  BCF    F8C.2
0DA54:  BCF    F95.2
....................                               else 
0DA56:  BRA    DA5C
....................                                  BombaVacio_off; 
0DA58:  BSF    F8C.2
0DA5A:  BCF    F95.2
....................                               Vacio_on; 
0DA5C:  BCF    F8B.1
0DA5E:  BCF    F94.1
....................                               Agua2_on; 
0DA60:  BCF    F8B.5
0DA62:  BCF    F94.5
....................                               Desfogue_off; 
0DA64:  BSF    F8C.0
0DA66:  BCF    F95.0
....................                               Aire_off; 
0DA68:  BSF    F8B.0
0DA6A:  BCF    F94.0
....................                               Paso_off; 
0DA6C:  BSF    F8B.2
0DA6E:  BCF    F94.2
0DA70:  MOVLB  2
....................                            } 
....................        
....................                            if(PresionCamara<=NivelVacio){//Si alcanzo el nivel de vacio requerido 
0DA72:  MOVF   x14,F
0DA74:  BNZ   DAB8
0DA76:  MOVF   x13,W
0DA78:  SUBWF  x41,W
0DA7A:  BNC   DAB8
....................                               codigoAlarma=15; 
0DA7C:  MOVLW  0F
0DA7E:  MOVWF  x2F
....................                               if(codigoAnt!=codigoAlarma){ 
0DA80:  MOVF   x2F,W
0DA82:  SUBWF  x30,W
0DA84:  BZ    DA90
....................                                  codigoAnt=codigoAlarma; 
0DA86:  MOVFF  22F,230
....................                                  GuardaDatoCiclo();                   
0DA8A:  MOVLB  0
0DA8C:  CALL   69EC
....................                               } 
....................                               Secando=ON; 
0DA90:  MOVLB  0
0DA92:  BSF    xA6.0
....................                               if(ReservorioLleno) 
0DA94:  BTFSS  xAC.4
0DA96:  BRA    DA9E
....................                                  BombaVacio_on; 
0DA98:  BCF    F8C.2
0DA9A:  BCF    F95.2
....................                               else 
0DA9C:  BRA    DAA2
....................                                  BombaVacio_off; 
0DA9E:  BSF    F8C.2
0DAA0:  BCF    F95.2
....................                               Agua2_on; 
0DAA2:  BCF    F8B.5
0DAA4:  BCF    F94.5
....................                               Vacio_off; 
0DAA6:  BSF    F8B.1
0DAA8:  BCF    F94.1
....................                               Desfogue_off; 
0DAAA:  BSF    F8C.0
0DAAC:  BCF    F95.0
....................                               Aire_on;                      
0DAAE:  BCF    F8B.0
0DAB0:  BCF    F94.0
....................                               Paso_off; 
0DAB2:  BSF    F8B.2
0DAB4:  BCF    F94.2
0DAB6:  MOVLB  2
....................                            } 
....................                         } 
....................                      }else if(PresionCamara>(Atmosferica+5)){ 
0DAB8:  BRA    DB34
0DABA:  MOVLW  05
0DABC:  ADDWF  x42,W
0DABE:  MOVF   x14,F
0DAC0:  BNZ   DAC8
0DAC2:  SUBWF  x13,W
0DAC4:  BZ    DB34
0DAC6:  BNC   DB34
....................                         codigoAlarma=13; 
0DAC8:  MOVLW  0D
0DACA:  MOVWF  x2F
....................                         if(codigoAnt!=codigoAlarma){ 
0DACC:  MOVF   x2F,W
0DACE:  SUBWF  x30,W
0DAD0:  BZ    DADC
....................                            codigoAnt=codigoAlarma; 
0DAD2:  MOVFF  22F,230
....................                            GuardaDatoCiclo();                   
0DAD6:  MOVLB  0
0DAD8:  CALL   69EC
....................                         } 
....................                         Desfogando=ON; 
0DADC:  MOVLB  0
0DADE:  BSF    xA6.2
....................                         printf("Funcionamiento.t4f.txt=\" Ninguna\""); 
0DAE0:  MOVLW  D4
0DAE2:  MOVWF  FF6
0DAE4:  MOVLW  1B
0DAE6:  MOVWF  FF7
0DAE8:  MOVLW  00
0DAEA:  MOVWF  FF8
0DAEC:  CALL   3F38
....................                         SendDataDisplay(); 
0DAF0:  CALL   3F6A
....................                         printf("Funcionamiento.t5f.txt=\" Despresurizando\""); 
0DAF4:  MOVLW  F6
0DAF6:  MOVWF  FF6
0DAF8:  MOVLW  1B
0DAFA:  MOVWF  FF7
0DAFC:  MOVLW  00
0DAFE:  MOVWF  FF8
0DB00:  CALL   3F38
....................                         SendDataDisplay(); 
0DB04:  CALL   3F6A
....................                         Control=0; 
0DB08:  MOVLB  1
0DB0A:  CLRF   xEE
....................                         Controlando=0; 
0DB0C:  CLRF   xF0
....................                         Paso_off; 
0DB0E:  BSF    F8B.2
0DB10:  BCF    F94.2
....................                         Desfogue_off; 
0DB12:  BSF    F8C.0
0DB14:  BCF    F95.0
....................                         if(ReservorioLleno) 
0DB16:  MOVLB  0
0DB18:  BTFSS  xAC.4
0DB1A:  BRA    DB22
....................                            BombaVacio_on; 
0DB1C:  BCF    F8C.2
0DB1E:  BCF    F95.2
....................                         else 
0DB20:  BRA    DB26
....................                            BombaVacio_off;    
0DB22:  BSF    F8C.2
0DB24:  BCF    F95.2
....................                         Agua2_on; 
0DB26:  BCF    F8B.5
0DB28:  BCF    F94.5
....................                         Vacio_on; 
0DB2A:  BCF    F8B.1
0DB2C:  BCF    F94.1
....................                         Aire_off; 
0DB2E:  BSF    F8B.0
0DB30:  BCF    F94.0
0DB32:  MOVLB  2
....................                         //Suministro_off; 
....................                      } 
....................                   } 
....................                }else{ 
0DB34:  BRA    DB90
0DB36:  MOVLB  0
....................                   cierraPuerta(); 
0DB38:  CALL   4EA2
....................                   codigoAlarma=16; 
0DB3C:  MOVLW  10
0DB3E:  MOVLB  2
0DB40:  MOVWF  x2F
....................                   if(codigoAnt!=codigoAlarma){ 
0DB42:  MOVF   x2F,W
0DB44:  SUBWF  x30,W
0DB46:  BZ    DB54
....................                      codigoAnt=codigoAlarma; 
0DB48:  MOVFF  22F,230
....................                      GuardaDatoCiclo();                   
0DB4C:  MOVLB  0
0DB4E:  CALL   69EC
0DB52:  MOVLB  2
....................                   } 
....................                   printf("Funcionamiento.t4f.txt=\" Ninguna\""); 
0DB54:  MOVLW  20
0DB56:  MOVWF  FF6
0DB58:  MOVLW  1C
0DB5A:  MOVWF  FF7
0DB5C:  MOVLW  00
0DB5E:  MOVWF  FF8
0DB60:  MOVLB  0
0DB62:  CALL   3F38
....................                   SendDataDisplay(); 
0DB66:  CALL   3F6A
....................                   printf("Funcionamiento.t5f.txt=\" Esterilizando\""); 
0DB6A:  MOVLW  42
0DB6C:  MOVWF  FF6
0DB6E:  MOVLW  1C
0DB70:  MOVWF  FF7
0DB72:  MOVLW  00
0DB74:  MOVWF  FF8
0DB76:  CALL   3F38
....................                   SendDataDisplay(); 
0DB7A:  CALL   3F6A
....................                   //Paso_on; 
....................                   Control=1; 
0DB7E:  MOVLW  01
0DB80:  MOVLB  1
0DB82:  MOVWF  xEE
....................                   Controla(); 
0DB84:  MOVLB  0
0DB86:  CALL   6EE0
....................                   TiempoCiclo=0; 
0DB8A:  CLRF   xAE
0DB8C:  CLRF   xAD
0DB8E:  MOVLB  2
....................                } 
....................             } 
....................          } 
....................       }  
....................       }else{ 
0DB90:  BRA    DE04
0DB92:  MOVLB  0
....................       //Buzzer_off; 
....................       IniciaCiclo=ON; 
0DB94:  BSF    xA3.6
....................       SSR_off; 
0DB96:  BCF    F8D.1
0DB98:  BCF    F96.1
....................          if(!flag_vac){ 
0DB9A:  BTFSC  xAA.6
0DB9C:  BRA    DBEC
....................             codigoAlarma=11; 
0DB9E:  MOVLW  0B
0DBA0:  MOVLB  2
0DBA2:  MOVWF  x2F
....................             if(codigoAnt!=codigoAlarma){ 
0DBA4:  MOVF   x2F,W
0DBA6:  SUBWF  x30,W
0DBA8:  BZ    DBB4
....................                codigoAnt=codigoAlarma; 
0DBAA:  MOVFF  22F,230
....................                GuardaDatoCiclo();                
0DBAE:  MOVLB  0
0DBB0:  CALL   69EC
....................             } 
....................             flag_vac=ON; 
0DBB4:  MOVLB  0
0DBB6:  BSF    xAA.6
....................             if(ReservorioLleno) 
0DBB8:  BTFSS  xAC.4
0DBBA:  BRA    DBC2
....................                BombaVacio_on; 
0DBBC:  BCF    F8C.2
0DBBE:  BCF    F95.2
....................             else 
0DBC0:  BRA    DBC6
....................                BombaVacio_off; 
0DBC2:  BSF    F8C.2
0DBC4:  BCF    F95.2
....................             Desfogue_off; 
0DBC6:  BSF    F8C.0
0DBC8:  BCF    F95.0
....................             Aire_off; 
0DBCA:  BSF    F8B.0
0DBCC:  BCF    F94.0
....................             Agua_off; 
0DBCE:  BSF    F8C.3
0DBD0:  BCF    F95.3
....................             Paso_off; 
0DBD2:  BSF    F8B.2
0DBD4:  BCF    F94.2
....................             SSR_off; 
0DBD6:  BCF    F8D.1
0DBD8:  BCF    F96.1
....................             //Suministro_off; 
....................             delay_ms(70); 
0DBDA:  MOVLW  46
0DBDC:  MOVLB  6
0DBDE:  MOVWF  x62
0DBE0:  MOVLB  0
0DBE2:  CALL   2128
....................             IniciaVacio2=ON; 
0DBE6:  BSF    xAA.4
....................             Vacio_on; 
0DBE8:  BCF    F8B.1
0DBEA:  BCF    F94.1
....................          } 
....................           
....................          if(tbomba>=120){ 
0DBEC:  MOVLB  2
0DBEE:  MOVF   x1A,F
0DBF0:  BNZ   DBF8
0DBF2:  MOVF   x19,W
0DBF4:  SUBLW  77
0DBF6:  BC    DC12
....................             if(PresionCamara>Atmosferica){ 
0DBF8:  MOVF   x14,F
0DBFA:  BNZ   DC02
0DBFC:  MOVF   x13,W
0DBFE:  SUBWF  x42,W
0DC00:  BC    DC0A
....................                AlarmaBomba=ON; 
0DC02:  MOVLB  0
0DC04:  BSF    xA2.6
....................             }else{ 
0DC06:  BRA    DC12
0DC08:  MOVLB  2
....................                tbomba=0; 
0DC0A:  CLRF   x1A
0DC0C:  CLRF   x19
....................                IniciaVacio2=OFF; 
0DC0E:  MOVLB  0
0DC10:  BCF    xAA.4
....................             } 
....................          } 
....................           
....................          if(tvacio>=TiempoVacio){//Si excede el tiempo maximo para generar los pulsos de vacio genera alarma             
0DC12:  MOVLB  0
0DC14:  MOVF   xA5,W
0DC16:  MOVLB  2
0DC18:  SUBWF  x1C,W
0DC1A:  BNC   DC2E
0DC1C:  BNZ   DC28
0DC1E:  MOVLB  0
0DC20:  MOVF   xA4,W
0DC22:  MOVLB  2
0DC24:  SUBWF  x1B,W
0DC26:  BNC   DC2E
....................                AlarmaVacio=ON; 
0DC28:  MOVLB  0
0DC2A:  BSF    xA2.5
0DC2C:  MOVLB  2
....................          } 
....................           
....................          if(PresionCamara<=20){ 
0DC2E:  MOVF   x14,F
0DC30:  BNZ   DC66
0DC32:  MOVF   x13,W
0DC34:  SUBLW  14
0DC36:  BNC   DC66
....................             if(!abrirPuerta) 
0DC38:  MOVLB  0
0DC3A:  BTFSC  xA6.5
0DC3C:  BRA    DC42
....................                BombaVacio_off; 
0DC3E:  BSF    F8C.2
0DC40:  BCF    F95.2
....................             Vacio_off; 
0DC42:  BSF    F8B.1
0DC44:  BCF    F94.1
....................             Desfogue_off; 
0DC46:  BSF    F8C.0
0DC48:  BCF    F95.0
....................             Aire_off; 
0DC4A:  BSF    F8B.0
0DC4C:  BCF    F94.0
....................             Agua_off; 
0DC4E:  BSF    F8C.3
0DC50:  BCF    F95.3
....................             Paso_off; 
0DC52:  BSF    F8B.2
0DC54:  BCF    F94.2
....................             //Suministro_off; 
....................             Esterilizando=ON; 
0DC56:  BSF    xA3.7
....................             IniciaVacio=OFF; 
0DC58:  BCF    xAA.3
....................             tbomba=0; 
0DC5A:  MOVLB  2
0DC5C:  CLRF   x1A
0DC5E:  CLRF   x19
....................             cierraPuerta(); 
0DC60:  MOVLB  0
0DC62:  CALL   4EA2
....................          }  
....................           
....................          if(!Finalizo){ 
0DC66:  MOVLB  0
0DC68:  BTFSC  xA9.3
0DC6A:  BRA    DCD0
....................             if(!Esterilizando){ 
0DC6C:  BTFSC  xA3.7
0DC6E:  BRA    DCA8
....................                if(ReservorioLleno) 
0DC70:  BTFSS  xAC.4
0DC72:  BRA    DC7A
....................                   BombaVacio_on; 
0DC74:  BCF    F8C.2
0DC76:  BCF    F95.2
....................                else 
0DC78:  BRA    DC7E
....................                   BombaVacio_off; 
0DC7A:  BSF    F8C.2
0DC7C:  BCF    F95.2
....................                 
....................                printf("Funcionamiento.t4f.txt=\" Ninguna\""); 
0DC7E:  MOVLW  6A
0DC80:  MOVWF  FF6
0DC82:  MOVLW  1C
0DC84:  MOVWF  FF7
0DC86:  MOVLW  00
0DC88:  MOVWF  FF8
0DC8A:  CALL   3F38
....................                SendDataDisplay(); 
0DC8E:  CALL   3F6A
....................                printf("Funcionamiento.t5f.txt=\" Vacio\""); 
0DC92:  MOVLW  8C
0DC94:  MOVWF  FF6
0DC96:  MOVLW  1C
0DC98:  MOVWF  FF7
0DC9A:  MOVLW  00
0DC9C:  MOVWF  FF8
0DC9E:  CALL   3F38
....................                SendDataDisplay(); 
0DCA2:  CALL   3F6A
....................             }else{ 
0DCA6:  BRA    DCD0
....................                printf("Funcionamiento.t4f.txt=\" Ninguna\""); 
0DCA8:  MOVLW  AC
0DCAA:  MOVWF  FF6
0DCAC:  MOVLW  1C
0DCAE:  MOVWF  FF7
0DCB0:  MOVLW  00
0DCB2:  MOVWF  FF8
0DCB4:  CALL   3F38
....................                SendDataDisplay(); 
0DCB8:  CALL   3F6A
....................                printf("Funcionamiento.t5f.txt=\" Manteniendo Vacio\""); 
0DCBC:  MOVLW  CE
0DCBE:  MOVWF  FF6
0DCC0:  MOVLW  1C
0DCC2:  MOVWF  FF7
0DCC4:  MOVLW  00
0DCC6:  MOVWF  FF8
0DCC8:  CALL   3F38
....................                SendDataDisplay(); 
0DCCC:  CALL   3F6A
....................             } 
....................          } 
....................           
....................          if(mEst==0 && sEst==0){   
0DCD0:  MOVF   xC0,F
0DCD2:  BTFSS  FD8.2
0DCD4:  BRA    DE02
0DCD6:  MOVF   xBF,F
0DCD8:  BTFSS  FD8.2
0DCDA:  BRA    DE02
....................             if(PresionFinal<=24){ 
0DCDC:  MOVLB  2
0DCDE:  MOVF   x01,F
0DCE0:  BNZ   DD54
0DCE2:  MOVF   x00,W
0DCE4:  SUBLW  18
0DCE6:  BNC   DD54
....................                printf("Funcionamiento.t4f.txt=\" Ninguna\""); 
0DCE8:  MOVLW  FA
0DCEA:  MOVWF  FF6
0DCEC:  MOVLW  1C
0DCEE:  MOVWF  FF7
0DCF0:  MOVLW  00
0DCF2:  MOVWF  FF8
0DCF4:  MOVLB  0
0DCF6:  CALL   3F38
....................                SendDataDisplay(); 
0DCFA:  CALL   3F6A
....................                printf("Funcionamiento.t5f.txt=\" Finalizado\""); 
0DCFE:  MOVLW  1C
0DD00:  MOVWF  FF6
0DD02:  MOVLW  1D
0DD04:  MOVWF  FF7
0DD06:  MOVLW  00
0DD08:  MOVWF  FF8
0DD0A:  CALL   3F38
....................                SendDataDisplay(); 
0DD0E:  CALL   3F6A
....................                codigoAlarma=14; 
0DD12:  MOVLW  0E
0DD14:  MOVLB  2
0DD16:  MOVWF  x2F
....................                if(codigoAnt!=codigoAlarma){ 
0DD18:  MOVF   x2F,W
0DD1A:  SUBWF  x30,W
0DD1C:  BZ    DD28
....................                   codigoAnt=codigoAlarma; 
0DD1E:  MOVFF  22F,230
....................                   GuardaDatoCiclo();                   
0DD22:  MOVLB  0
0DD24:  CALL   69EC
....................                } 
....................                if(!flagImprimir){//Imprime Ciclo Finalizado 
0DD28:  MOVLB  0
0DD2A:  BTFSC  xAB.7
0DD2C:  BRA    DD50
....................                   Imprime=28; 
0DD2E:  MOVLW  1C
0DD30:  MOVLB  2
0DD32:  MOVWF  x4D
....................                   Envio_Esclavos(); 
0DD34:  MOVLB  0
0DD36:  CALL   524E
....................                   delay_ms(100); 
0DD3A:  MOVLW  64
0DD3C:  MOVLB  6
0DD3E:  MOVWF  x62
0DD40:  MOVLB  0
0DD42:  CALL   2128
....................                   Imprime=10; 
0DD46:  MOVLW  0A
0DD48:  MOVLB  2
0DD4A:  MOVWF  x4D
....................                   flagImprimir=1; 
0DD4C:  MOVLB  0
0DD4E:  BSF    xAB.7
....................                } 
....................             }else{ 
0DD50:  BRA    DDBC
0DD52:  MOVLB  2
....................                printf("Funcionamiento.t4f.txt=\" Error Ciclo\""); 
0DD54:  MOVLW  42
0DD56:  MOVWF  FF6
0DD58:  MOVLW  1D
0DD5A:  MOVWF  FF7
0DD5C:  MOVLW  00
0DD5E:  MOVWF  FF8
0DD60:  MOVLB  0
0DD62:  CALL   3F38
....................                SendDataDisplay(); 
0DD66:  CALL   3F6A
....................                printf("Funcionamiento.t5f.txt=\" Finalizado\""); 
0DD6A:  MOVLW  68
0DD6C:  MOVWF  FF6
0DD6E:  MOVLW  1D
0DD70:  MOVWF  FF7
0DD72:  MOVLW  00
0DD74:  MOVWF  FF8
0DD76:  CALL   3F38
....................                SendDataDisplay(); 
0DD7A:  CALL   3F6A
....................                codigoAlarma=8; 
0DD7E:  MOVLW  08
0DD80:  MOVLB  2
0DD82:  MOVWF  x2F
....................                if(codigoAnt!=codigoAlarma){ 
0DD84:  MOVF   x2F,W
0DD86:  SUBWF  x30,W
0DD88:  BZ    DD94
....................                   codigoAnt=codigoAlarma; 
0DD8A:  MOVFF  22F,230
....................                   GuardaDatoCiclo();                   
0DD8E:  MOVLB  0
0DD90:  CALL   69EC
....................                } 
....................                if(!flagImprimir){//Imprime Ciclo Finalizado 
0DD94:  MOVLB  0
0DD96:  BTFSC  xAB.7
0DD98:  BRA    DDBC
....................                   Imprime=26; 
0DD9A:  MOVLW  1A
0DD9C:  MOVLB  2
0DD9E:  MOVWF  x4D
....................                   Envio_Esclavos(); 
0DDA0:  MOVLB  0
0DDA2:  CALL   524E
....................                   delay_ms(100); 
0DDA6:  MOVLW  64
0DDA8:  MOVLB  6
0DDAA:  MOVWF  x62
0DDAC:  MOVLB  0
0DDAE:  CALL   2128
....................                   Imprime=10; 
0DDB2:  MOVLW  0A
0DDB4:  MOVLB  2
0DDB6:  MOVWF  x4D
....................                   flagImprimir=1; 
0DDB8:  MOVLB  0
0DDBA:  BSF    xAB.7
....................                } 
....................             } 
....................             IniciaVacio=OFF; 
0DDBC:  BCF    xAA.3
....................             tbomba=0; 
0DDBE:  MOVLB  2
0DDC0:  CLRF   x1A
0DDC2:  CLRF   x19
....................             if(!abrirPuerta) 
0DDC4:  MOVLB  0
0DDC6:  BTFSC  xA6.5
0DDC8:  BRA    DDCE
....................                BombaVacio_off; 
0DDCA:  BSF    F8C.2
0DDCC:  BCF    F95.2
....................             Vacio_off; 
0DDCE:  BSF    F8B.1
0DDD0:  BCF    F94.1
....................             Desfogue_off; 
0DDD2:  BSF    F8C.0
0DDD4:  BCF    F95.0
....................             Aire_on; 
0DDD6:  BCF    F8B.0
0DDD8:  BCF    F94.0
....................             Paso_off; 
0DDDA:  BSF    F8B.2
0DDDC:  BCF    F94.2
....................             //Suministro_off; 
....................             Agua_off; 
0DDDE:  BSF    F8C.3
0DDE0:  BCF    F95.3
....................             ActivaAlarma(2); 
0DDE2:  MOVLW  02
0DDE4:  MOVLB  6
0DDE6:  MOVWF  x50
0DDE8:  MOVLB  0
0DDEA:  CALL   5578
....................             if(!Finalizo){ 
0DDEE:  BTFSC  xA9.3
0DDF0:  BRA    DDFC
....................                Finalizo=ON; 
0DDF2:  BSF    xA9.3
....................                PresionFinal=PresionCamara; 
0DDF4:  MOVFF  214,201
0DDF8:  MOVFF  213,200
....................             } 
....................             incrementaCiclos(); 
0DDFC:  CALL   6D90
....................             Esterilizando=OFF; 
0DE00:  BCF    xA3.7
0DE02:  MOVLB  2
....................          } 
....................       } 
....................    } 
....................  
....................    if(tguarda>=180){ 
0DE04:  MOVLB  0
0DE06:  MOVF   xB6,F
0DE08:  BNZ   DE10
0DE0A:  MOVF   xB5,W
0DE0C:  SUBLW  B3
0DE0E:  BC    DE1C
....................       if(!Ciclo) 
0DE10:  BTFSC  xA7.5
0DE12:  BRA    DE18
....................          GuardaDatoCiclo(); 
0DE14:  CALL   69EC
....................       tguarda=0; 
0DE18:  CLRF   xB6
0DE1A:  CLRF   xB5
....................    } 
....................  
....................    if(Grafica==1){ 
0DE1C:  MOVLB  1
0DE1E:  BTFSS  xED.0
0DE20:  BRA    DF94
....................       printf("add 12,0,%1.0f",Temperatura*0.66); 
0DE22:  MOVFF  1D9,669
0DE26:  MOVFF  1D8,668
0DE2A:  MOVFF  1D7,667
0DE2E:  MOVFF  1D6,666
0DE32:  MOVLW  C3
0DE34:  MOVLB  6
0DE36:  MOVWF  x6D
0DE38:  MOVLW  F5
0DE3A:  MOVWF  x6C
0DE3C:  MOVLW  28
0DE3E:  MOVWF  x6B
0DE40:  MOVLW  7E
0DE42:  MOVWF  x6A
0DE44:  MOVLB  0
0DE46:  CALL   401C
0DE4A:  MOVFF  00,650
0DE4E:  MOVFF  01,651
0DE52:  MOVFF  02,652
0DE56:  MOVFF  03,653
0DE5A:  MOVLW  8E
0DE5C:  MOVWF  FF6
0DE5E:  MOVLW  1D
0DE60:  MOVWF  FF7
0DE62:  MOVLW  00
0DE64:  MOVWF  FF8
0DE66:  MOVLW  09
0DE68:  MOVLB  6
0DE6A:  MOVWF  x55
0DE6C:  MOVLB  0
0DE6E:  CALL   56B2
0DE72:  MOVLW  00
0DE74:  MOVWF  FE9
0DE76:  MOVFF  653,658
0DE7A:  MOVFF  652,657
0DE7E:  MOVFF  651,656
0DE82:  MOVFF  650,655
0DE86:  MOVLB  6
0DE88:  CLRF   x59
0DE8A:  MOVLB  0
0DE8C:  CALL   57CE
....................       SendDataDisplay(); 
0DE90:  CALL   3F6A
....................       printf("add 12,1,%1.0f",PresionCamara*0.66); 
0DE94:  MOVFF  214,663
0DE98:  MOVFF  213,662
0DE9C:  CALL   20F2
0DEA0:  MOVFF  03,669
0DEA4:  MOVFF  02,668
0DEA8:  MOVFF  01,667
0DEAC:  MOVFF  00,666
0DEB0:  MOVLW  C3
0DEB2:  MOVLB  6
0DEB4:  MOVWF  x6D
0DEB6:  MOVLW  F5
0DEB8:  MOVWF  x6C
0DEBA:  MOVLW  28
0DEBC:  MOVWF  x6B
0DEBE:  MOVLW  7E
0DEC0:  MOVWF  x6A
0DEC2:  MOVLB  0
0DEC4:  CALL   401C
0DEC8:  MOVFF  00,650
0DECC:  MOVFF  01,651
0DED0:  MOVFF  02,652
0DED4:  MOVFF  03,653
0DED8:  MOVLW  9E
0DEDA:  MOVWF  FF6
0DEDC:  MOVLW  1D
0DEDE:  MOVWF  FF7
0DEE0:  MOVLW  00
0DEE2:  MOVWF  FF8
0DEE4:  MOVLW  09
0DEE6:  MOVLB  6
0DEE8:  MOVWF  x55
0DEEA:  MOVLB  0
0DEEC:  CALL   56B2
0DEF0:  MOVLW  00
0DEF2:  MOVWF  FE9
0DEF4:  MOVFF  653,658
0DEF8:  MOVFF  652,657
0DEFC:  MOVFF  651,656
0DF00:  MOVFF  650,655
0DF04:  MOVLB  6
0DF06:  CLRF   x59
0DF08:  MOVLB  0
0DF0A:  CALL   57CE
....................       SendDataDisplay(); 
0DF0E:  CALL   3F6A
....................       printf("add 12,2,%1.0f",PresionPreCamara*0.66); 
0DF12:  MOVFF  216,663
0DF16:  MOVFF  215,662
0DF1A:  CALL   20F2
0DF1E:  MOVFF  03,669
0DF22:  MOVFF  02,668
0DF26:  MOVFF  01,667
0DF2A:  MOVFF  00,666
0DF2E:  MOVLW  C3
0DF30:  MOVLB  6
0DF32:  MOVWF  x6D
0DF34:  MOVLW  F5
0DF36:  MOVWF  x6C
0DF38:  MOVLW  28
0DF3A:  MOVWF  x6B
0DF3C:  MOVLW  7E
0DF3E:  MOVWF  x6A
0DF40:  MOVLB  0
0DF42:  CALL   401C
0DF46:  MOVFF  00,650
0DF4A:  MOVFF  01,651
0DF4E:  MOVFF  02,652
0DF52:  MOVFF  03,653
0DF56:  MOVLW  AE
0DF58:  MOVWF  FF6
0DF5A:  MOVLW  1D
0DF5C:  MOVWF  FF7
0DF5E:  MOVLW  00
0DF60:  MOVWF  FF8
0DF62:  MOVLW  09
0DF64:  MOVLB  6
0DF66:  MOVWF  x55
0DF68:  MOVLB  0
0DF6A:  CALL   56B2
0DF6E:  MOVLW  00
0DF70:  MOVWF  FE9
0DF72:  MOVFF  653,658
0DF76:  MOVFF  652,657
0DF7A:  MOVFF  651,656
0DF7E:  MOVFF  650,655
0DF82:  MOVLB  6
0DF84:  CLRF   x59
0DF86:  MOVLB  0
0DF88:  CALL   57CE
....................       SendDataDisplay(); 
0DF8C:  CALL   3F6A
....................       Grafica=0; 
0DF90:  MOVLB  1
0DF92:  BCF    xED.0
....................    } 
....................    if(Lectura==1)// Utilizado para visualizar la lectura de la temperatura 
0DF94:  MOVLB  0
0DF96:  BTFSS  xAC.7
0DF98:  BRA    E224
....................    {                       
....................       Lectura=0; 
0DF9A:  BCF    xAC.7
....................       //printf("tuser.txt=\"%s\"",usuario); 
....................       //SendDataDisplay(); 
....................       printf("t6f.txt=\"%3.1fC\"",Temperatura); 
0DF9C:  MOVLW  BE
0DF9E:  MOVWF  FF6
0DFA0:  MOVLW  1D
0DFA2:  MOVWF  FF7
0DFA4:  MOVLW  00
0DFA6:  MOVWF  FF8
0DFA8:  MOVLW  09
0DFAA:  MOVLB  6
0DFAC:  MOVWF  x55
0DFAE:  MOVLB  0
0DFB0:  CALL   56B2
0DFB4:  MOVLW  02
0DFB6:  MOVWF  FE9
0DFB8:  MOVFF  1D9,658
0DFBC:  MOVFF  1D8,657
0DFC0:  MOVFF  1D7,656
0DFC4:  MOVFF  1D6,655
0DFC8:  MOVLW  01
0DFCA:  MOVLB  6
0DFCC:  MOVWF  x59
0DFCE:  MOVLB  0
0DFD0:  CALL   57CE
0DFD4:  MOVLW  B0
0DFD6:  BTFSS  F9E.4
0DFD8:  BRA    DFD6
0DFDA:  MOVWF  FAD
0DFDC:  MOVLW  43
0DFDE:  BTFSS  F9E.4
0DFE0:  BRA    DFDE
0DFE2:  MOVWF  FAD
0DFE4:  MOVLW  22
0DFE6:  BTFSS  F9E.4
0DFE8:  BRA    DFE6
0DFEA:  MOVWF  FAD
....................       SendDataDisplay(); 
0DFEC:  CALL   3F6A
....................       printf("Funcionamiento.t7f.txt=\"%03LukPa\"",PresionCamara); 
0DFF0:  MOVLW  D0
0DFF2:  MOVWF  FF6
0DFF4:  MOVLW  1D
0DFF6:  MOVWF  FF7
0DFF8:  MOVLW  00
0DFFA:  MOVWF  FF8
0DFFC:  MOVLW  18
0DFFE:  MOVLB  6
0E000:  MOVWF  x55
0E002:  MOVLB  0
0E004:  CALL   56B2
0E008:  MOVLW  0A
0E00A:  MOVWF  FE9
0E00C:  MOVFF  214,655
0E010:  MOVFF  213,654
0E014:  CALL   5A96
0E018:  MOVLW  ED
0E01A:  MOVWF  FF6
0E01C:  MOVLW  1D
0E01E:  MOVWF  FF7
0E020:  MOVLW  00
0E022:  MOVWF  FF8
0E024:  MOVLW  04
0E026:  MOVLB  6
0E028:  MOVWF  x55
0E02A:  MOVLB  0
0E02C:  CALL   56B2
....................       SendDataDisplay(); 
0E030:  CALL   3F6A
....................       printf("Funcionamiento.t12f.txt=\"%03LukPa\"",PresionPreCamara); 
0E034:  MOVLW  F2
0E036:  MOVWF  FF6
0E038:  MOVLW  1D
0E03A:  MOVWF  FF7
0E03C:  MOVLW  00
0E03E:  MOVWF  FF8
0E040:  MOVLW  19
0E042:  MOVLB  6
0E044:  MOVWF  x55
0E046:  MOVLB  0
0E048:  CALL   56B2
0E04C:  MOVLW  0A
0E04E:  MOVWF  FE9
0E050:  MOVFF  216,655
0E054:  MOVFF  215,654
0E058:  CALL   5A96
0E05C:  MOVLW  10
0E05E:  MOVWF  FF6
0E060:  MOVLW  1E
0E062:  MOVWF  FF7
0E064:  MOVLW  00
0E066:  MOVWF  FF8
0E068:  MOVLW  04
0E06A:  MOVLB  6
0E06C:  MOVWF  x55
0E06E:  MOVLB  0
0E070:  CALL   56B2
....................       SendDataDisplay(); 
0E074:  CALL   3F6A
....................       printf("Funcionamiento.t9f.txt=\"%03uC\"",Setpoint); 
0E078:  MOVLW  16
0E07A:  MOVWF  FF6
0E07C:  MOVLW  1E
0E07E:  MOVWF  FF7
0E080:  MOVLW  00
0E082:  MOVWF  FF8
0E084:  MOVLW  18
0E086:  MOVLB  6
0E088:  MOVWF  x55
0E08A:  MOVLB  0
0E08C:  CALL   56B2
0E090:  MOVFF  202,655
0E094:  MOVLW  03
0E096:  MOVLB  6
0E098:  MOVWF  x56
0E09A:  MOVLB  0
0E09C:  CALL   599E
0E0A0:  MOVLW  B0
0E0A2:  BTFSS  F9E.4
0E0A4:  BRA    E0A2
0E0A6:  MOVWF  FAD
0E0A8:  MOVLW  43
0E0AA:  BTFSS  F9E.4
0E0AC:  BRA    E0AA
0E0AE:  MOVWF  FAD
0E0B0:  MOVLW  22
0E0B2:  BTFSS  F9E.4
0E0B4:  BRA    E0B2
0E0B6:  MOVWF  FAD
....................       SendDataDisplay();       
0E0B8:  CALL   3F6A
....................       printf("Funcionamiento.t10f.txt=\"%02u:%02u\"",mEst,sEst); 
0E0BC:  MOVLW  36
0E0BE:  MOVWF  FF6
0E0C0:  MOVLW  1E
0E0C2:  MOVWF  FF7
0E0C4:  MOVLW  00
0E0C6:  MOVWF  FF8
0E0C8:  MOVLW  19
0E0CA:  MOVLB  6
0E0CC:  MOVWF  x55
0E0CE:  MOVLB  0
0E0D0:  CALL   56B2
0E0D4:  MOVFF  C0,655
0E0D8:  MOVLW  01
0E0DA:  MOVLB  6
0E0DC:  MOVWF  x56
0E0DE:  MOVLB  0
0E0E0:  CALL   599E
0E0E4:  MOVLW  3A
0E0E6:  BTFSS  F9E.4
0E0E8:  BRA    E0E6
0E0EA:  MOVWF  FAD
0E0EC:  MOVFF  BF,655
0E0F0:  MOVLW  01
0E0F2:  MOVLB  6
0E0F4:  MOVWF  x56
0E0F6:  MOVLB  0
0E0F8:  CALL   599E
0E0FC:  MOVLW  22
0E0FE:  BTFSS  F9E.4
0E100:  BRA    E0FE
0E102:  MOVWF  FAD
....................       SendDataDisplay();       
0E104:  CALL   3F6A
....................       printf("Funcionamiento.t11f.txt=\"%02u:%02u\"",mSec,sSec); 
0E108:  MOVLW  5A
0E10A:  MOVWF  FF6
0E10C:  MOVLW  1E
0E10E:  MOVWF  FF7
0E110:  MOVLW  00
0E112:  MOVWF  FF8
0E114:  MOVLW  19
0E116:  MOVLB  6
0E118:  MOVWF  x55
0E11A:  MOVLB  0
0E11C:  CALL   56B2
0E120:  MOVFF  C2,655
0E124:  MOVLW  01
0E126:  MOVLB  6
0E128:  MOVWF  x56
0E12A:  MOVLB  0
0E12C:  CALL   599E
0E130:  MOVLW  3A
0E132:  BTFSS  F9E.4
0E134:  BRA    E132
0E136:  MOVWF  FAD
0E138:  MOVFF  C1,655
0E13C:  MOVLW  01
0E13E:  MOVLB  6
0E140:  MOVWF  x56
0E142:  MOVLB  0
0E144:  CALL   599E
0E148:  MOVLW  22
0E14A:  BTFSS  F9E.4
0E14C:  BRA    E14A
0E14E:  MOVWF  FAD
....................       SendDataDisplay();       
0E150:  CALL   3F6A
....................        
....................       printf("fecha.txt=\"%s  %02u/%02u/20%02u   %02u:%02u\"",usuario,Dia,Mes,Year,Hora,Minuto); 
0E154:  MOVLW  7E
0E156:  MOVWF  FF6
0E158:  MOVLW  1E
0E15A:  MOVWF  FF7
0E15C:  MOVLW  00
0E15E:  MOVWF  FF8
0E160:  MOVLW  0B
0E162:  MOVLB  6
0E164:  MOVWF  x55
0E166:  MOVLB  0
0E168:  CALL   56B2
0E16C:  MOVLW  02
0E16E:  MOVWF  FEA
0E170:  MOVLW  56
0E172:  MOVWF  FE9
0E174:  CALL   56E4
0E178:  MOVLW  20
0E17A:  BTFSS  F9E.4
0E17C:  BRA    E17A
0E17E:  MOVWF  FAD
0E180:  MOVLW  20
0E182:  BTFSS  F9E.4
0E184:  BRA    E182
0E186:  MOVWF  FAD
0E188:  MOVFF  23A,655
0E18C:  MOVLW  01
0E18E:  MOVLB  6
0E190:  MOVWF  x56
0E192:  MOVLB  0
0E194:  CALL   599E
0E198:  MOVLW  2F
0E19A:  BTFSS  F9E.4
0E19C:  BRA    E19A
0E19E:  MOVWF  FAD
0E1A0:  MOVFF  239,655
0E1A4:  MOVLW  01
0E1A6:  MOVLB  6
0E1A8:  MOVWF  x56
0E1AA:  MOVLB  0
0E1AC:  CALL   599E
0E1B0:  MOVLW  2F
0E1B2:  BTFSS  F9E.4
0E1B4:  BRA    E1B2
0E1B6:  MOVWF  FAD
0E1B8:  MOVLW  32
0E1BA:  BTFSS  F9E.4
0E1BC:  BRA    E1BA
0E1BE:  MOVWF  FAD
0E1C0:  MOVLW  30
0E1C2:  BTFSS  F9E.4
0E1C4:  BRA    E1C2
0E1C6:  MOVWF  FAD
0E1C8:  MOVFF  238,655
0E1CC:  MOVLW  01
0E1CE:  MOVLB  6
0E1D0:  MOVWF  x56
0E1D2:  MOVLB  0
0E1D4:  CALL   599E
0E1D8:  MOVLW  20
0E1DA:  BTFSS  F9E.4
0E1DC:  BRA    E1DA
0E1DE:  MOVWF  FAD
0E1E0:  MOVLW  20
0E1E2:  BTFSS  F9E.4
0E1E4:  BRA    E1E2
0E1E6:  MOVWF  FAD
0E1E8:  MOVLW  20
0E1EA:  BTFSS  F9E.4
0E1EC:  BRA    E1EA
0E1EE:  MOVWF  FAD
0E1F0:  MOVFF  23B,655
0E1F4:  MOVLW  01
0E1F6:  MOVLB  6
0E1F8:  MOVWF  x56
0E1FA:  MOVLB  0
0E1FC:  CALL   599E
0E200:  MOVLW  3A
0E202:  BTFSS  F9E.4
0E204:  BRA    E202
0E206:  MOVWF  FAD
0E208:  MOVFF  23C,655
0E20C:  MOVLW  01
0E20E:  MOVLB  6
0E210:  MOVWF  x56
0E212:  MOVLB  0
0E214:  CALL   599E
0E218:  MOVLW  22
0E21A:  BTFSS  F9E.4
0E21C:  BRA    E21A
0E21E:  MOVWF  FAD
....................       SendDataDisplay(); 
0E220:  CALL   3F6A
0E224:  MOVLB  1
....................    } 
....................  
.................... } 
.................... //_-------------------------------------------------------------------------------------------------------------------------------------------------------- 
....................  
.................... //_-------------------------------------------------------------------------------------------------------------------------------------------------------- 
....................       if(Menu==100){ //Menu de Configuracin de Parametros de Control 
0E226:  MOVF   xF6,W
0E228:  SUBLW  64
0E22A:  BTFSS  FD8.2
0E22C:  GOTO   EDA6
....................       
....................       if(Opcion2>12) 
0E230:  MOVLB  2
0E232:  MOVF   x04,W
0E234:  SUBLW  0C
0E236:  BC    E23C
....................          Opcion2=1; 
0E238:  MOVLW  01
0E23A:  MOVWF  x04
....................       if(Opcion2<1) 
0E23C:  MOVF   x04,F
0E23E:  BNZ   E244
....................          Opcion2=12; 
0E240:  MOVLW  0C
0E242:  MOVWF  x04
....................        
....................       if(Opcion2==1){ 
0E244:  DECFSZ x04,W
0E246:  BRA    E386
....................          printf("Config.t2c.txt=\"Proporcional\""); 
0E248:  MOVLW  AC
0E24A:  MOVWF  FF6
0E24C:  MOVLW  1E
0E24E:  MOVWF  FF7
0E250:  MOVLW  00
0E252:  MOVWF  FF8
0E254:  MOVLB  0
0E256:  CALL   3F38
....................          SendDataDisplay();       
0E25A:  CALL   3F6A
....................          printf("t3c.txt=\"%2.0f\"",Ganancia); 
0E25E:  MOVLW  CA
0E260:  MOVWF  FF6
0E262:  MOVLW  1E
0E264:  MOVWF  FF7
0E266:  MOVLW  00
0E268:  MOVWF  FF8
0E26A:  MOVLW  09
0E26C:  MOVLB  6
0E26E:  MOVWF  x55
0E270:  MOVLB  0
0E272:  CALL   56B2
0E276:  MOVLW  01
0E278:  MOVWF  FE9
0E27A:  MOVFF  1BD,658
0E27E:  MOVFF  1BC,657
0E282:  MOVFF  1BB,656
0E286:  MOVFF  1BA,655
0E28A:  MOVLB  6
0E28C:  CLRF   x59
0E28E:  MOVLB  0
0E290:  CALL   57CE
0E294:  MOVLW  22
0E296:  BTFSS  F9E.4
0E298:  BRA    E296
0E29A:  MOVWF  FAD
....................          SendDataDisplay(); 
0E29C:  CALL   3F6A
....................          if(RX_Buffer[4]==0x0a){//Tecla Arriba Oprimida 
0E2A0:  MOVF   34,W
0E2A2:  SUBLW  0A
0E2A4:  BNZ   E2DE
....................                Ganancia+=1.0; 
0E2A6:  BCF    FD8.1
0E2A8:  MOVFF  1BD,665
0E2AC:  MOVFF  1BC,664
0E2B0:  MOVFF  1BB,663
0E2B4:  MOVFF  1BA,662
0E2B8:  MOVLB  6
0E2BA:  CLRF   x69
0E2BC:  CLRF   x68
0E2BE:  CLRF   x67
0E2C0:  MOVLW  7F
0E2C2:  MOVWF  x66
0E2C4:  MOVLB  0
0E2C6:  CALL   250C
0E2CA:  MOVFF  03,1BD
0E2CE:  MOVFF  02,1BC
0E2D2:  MOVFF  01,1BB
0E2D6:  MOVFF  00,1BA
....................                RX_Buffer[4]=0x00;   
0E2DA:  CLRF   34
....................                RX_Buffer2[4]=0x00;             
0E2DC:  CLRF   3F
....................                //BorraBuffer(); 
....................          } 
....................              
....................          if(RX_Buffer[4]==0x0b){//Tecla Abajo Oprimida 
0E2DE:  MOVF   34,W
0E2E0:  SUBLW  0B
0E2E2:  BNZ   E31C
....................                Ganancia-=1.0; 
0E2E4:  BSF    FD8.1
0E2E6:  MOVFF  1BD,665
0E2EA:  MOVFF  1BC,664
0E2EE:  MOVFF  1BB,663
0E2F2:  MOVFF  1BA,662
0E2F6:  MOVLB  6
0E2F8:  CLRF   x69
0E2FA:  CLRF   x68
0E2FC:  CLRF   x67
0E2FE:  MOVLW  7F
0E300:  MOVWF  x66
0E302:  MOVLB  0
0E304:  CALL   250C
0E308:  MOVFF  03,1BD
0E30C:  MOVFF  02,1BC
0E310:  MOVFF  01,1BB
0E314:  MOVFF  00,1BA
....................                RX_Buffer[4]=0x00; 
0E318:  CLRF   34
....................                RX_Buffer2[4]=0x00;             
0E31A:  CLRF   3F
....................                //BorraBuffer(); 
....................          } 
....................           
....................          if(Ganancia>40) 
0E31C:  MOVLB  6
0E31E:  CLRF   x57
0E320:  CLRF   x56
0E322:  MOVLW  20
0E324:  MOVWF  x55
0E326:  MOVLW  84
0E328:  MOVWF  x54
0E32A:  MOVFF  1BD,65B
0E32E:  MOVFF  1BC,65A
0E332:  MOVFF  1BB,659
0E336:  MOVFF  1BA,658
0E33A:  MOVLB  0
0E33C:  CALL   2784
0E340:  BNC   E34E
....................             Ganancia=1; 
0E342:  MOVLB  1
0E344:  CLRF   xBD
0E346:  CLRF   xBC
0E348:  CLRF   xBB
0E34A:  MOVLW  7F
0E34C:  MOVWF  xBA
....................          if(Ganancia<1) 
0E34E:  MOVFF  1BD,657
0E352:  MOVFF  1BC,656
0E356:  MOVFF  1BB,655
0E35A:  MOVFF  1BA,654
0E35E:  MOVLB  6
0E360:  CLRF   x5B
0E362:  CLRF   x5A
0E364:  CLRF   x59
0E366:  MOVLW  7F
0E368:  MOVWF  x58
0E36A:  MOVLB  0
0E36C:  CALL   2784
0E370:  BNC   E382
....................             Ganancia=40; 
0E372:  MOVLB  1
0E374:  CLRF   xBD
0E376:  CLRF   xBC
0E378:  MOVLW  20
0E37A:  MOVWF  xBB
0E37C:  MOVLW  84
0E37E:  MOVWF  xBA
0E380:  MOVLB  0
....................       }else if(Opcion2==2){ 
0E382:  BRA    E9A4
0E384:  MOVLB  2
0E386:  MOVF   x04,W
0E388:  SUBLW  02
0E38A:  BTFSS  FD8.2
0E38C:  BRA    E4D0
....................          printf("Config.t2c.txt=\"Tciclo\""); 
0E38E:  MOVLW  DA
0E390:  MOVWF  FF6
0E392:  MOVLW  1E
0E394:  MOVWF  FF7
0E396:  MOVLW  00
0E398:  MOVWF  FF8
0E39A:  MOVLB  0
0E39C:  CALL   3F38
....................          SendDataDisplay();       
0E3A0:  CALL   3F6A
....................          printf("t3c.txt=\"%2.0f\"",Tciclo); 
0E3A4:  MOVLW  F2
0E3A6:  MOVWF  FF6
0E3A8:  MOVLW  1E
0E3AA:  MOVWF  FF7
0E3AC:  MOVLW  00
0E3AE:  MOVWF  FF8
0E3B0:  MOVLW  09
0E3B2:  MOVLB  6
0E3B4:  MOVWF  x55
0E3B6:  MOVLB  0
0E3B8:  CALL   56B2
0E3BC:  MOVLW  01
0E3BE:  MOVWF  FE9
0E3C0:  MOVFF  1A5,658
0E3C4:  MOVFF  1A4,657
0E3C8:  MOVFF  1A3,656
0E3CC:  MOVFF  1A2,655
0E3D0:  MOVLB  6
0E3D2:  CLRF   x59
0E3D4:  MOVLB  0
0E3D6:  CALL   57CE
0E3DA:  MOVLW  22
0E3DC:  BTFSS  F9E.4
0E3DE:  BRA    E3DC
0E3E0:  MOVWF  FAD
....................          SendDataDisplay(); 
0E3E2:  CALL   3F6A
....................          if(RX_Buffer[4]==0x0a){//Tecla Arriba Oprimida 
0E3E6:  MOVF   34,W
0E3E8:  SUBLW  0A
0E3EA:  BNZ   E424
....................                Tciclo+=1.0; 
0E3EC:  BCF    FD8.1
0E3EE:  MOVFF  1A5,665
0E3F2:  MOVFF  1A4,664
0E3F6:  MOVFF  1A3,663
0E3FA:  MOVFF  1A2,662
0E3FE:  MOVLB  6
0E400:  CLRF   x69
0E402:  CLRF   x68
0E404:  CLRF   x67
0E406:  MOVLW  7F
0E408:  MOVWF  x66
0E40A:  MOVLB  0
0E40C:  CALL   250C
0E410:  MOVFF  03,1A5
0E414:  MOVFF  02,1A4
0E418:  MOVFF  01,1A3
0E41C:  MOVFF  00,1A2
....................                RX_Buffer[4]=0x00;   
0E420:  CLRF   34
....................                RX_Buffer2[4]=0x00;             
0E422:  CLRF   3F
....................                //BorraBuffer(); 
....................          } 
....................              
....................          if(RX_Buffer[4]==0x0b){//Tecla Abajo Oprimida             
0E424:  MOVF   34,W
0E426:  SUBLW  0B
0E428:  BNZ   E462
....................                Tciclo-=1.0; 
0E42A:  BSF    FD8.1
0E42C:  MOVFF  1A5,665
0E430:  MOVFF  1A4,664
0E434:  MOVFF  1A3,663
0E438:  MOVFF  1A2,662
0E43C:  MOVLB  6
0E43E:  CLRF   x69
0E440:  CLRF   x68
0E442:  CLRF   x67
0E444:  MOVLW  7F
0E446:  MOVWF  x66
0E448:  MOVLB  0
0E44A:  CALL   250C
0E44E:  MOVFF  03,1A5
0E452:  MOVFF  02,1A4
0E456:  MOVFF  01,1A3
0E45A:  MOVFF  00,1A2
....................                RX_Buffer[4]=0x00; 
0E45E:  CLRF   34
....................                RX_Buffer2[4]=0x00;             
0E460:  CLRF   3F
....................                //BorraBuffer(); 
....................          } 
....................           
....................          if(Tciclo>20) 
0E462:  MOVLB  6
0E464:  CLRF   x57
0E466:  CLRF   x56
0E468:  MOVLW  20
0E46A:  MOVWF  x55
0E46C:  MOVLW  83
0E46E:  MOVWF  x54
0E470:  MOVFF  1A5,65B
0E474:  MOVFF  1A4,65A
0E478:  MOVFF  1A3,659
0E47C:  MOVFF  1A2,658
0E480:  MOVLB  0
0E482:  CALL   2784
0E486:  BNC   E496
....................             Tciclo=5; 
0E488:  MOVLB  1
0E48A:  CLRF   xA5
0E48C:  CLRF   xA4
0E48E:  MOVLW  20
0E490:  MOVWF  xA3
0E492:  MOVLW  81
0E494:  MOVWF  xA2
....................          if(Tciclo<5) 
0E496:  MOVFF  1A5,657
0E49A:  MOVFF  1A4,656
0E49E:  MOVFF  1A3,655
0E4A2:  MOVFF  1A2,654
0E4A6:  MOVLB  6
0E4A8:  CLRF   x5B
0E4AA:  CLRF   x5A
0E4AC:  MOVLW  20
0E4AE:  MOVWF  x59
0E4B0:  MOVLW  81
0E4B2:  MOVWF  x58
0E4B4:  MOVLB  0
0E4B6:  CALL   2784
0E4BA:  BNC   E4CC
....................             Tciclo=20; 
0E4BC:  MOVLB  1
0E4BE:  CLRF   xA5
0E4C0:  CLRF   xA4
0E4C2:  MOVLW  20
0E4C4:  MOVWF  xA3
0E4C6:  MOVLW  83
0E4C8:  MOVWF  xA2
0E4CA:  MOVLB  0
....................       }else if(Opcion2==3){ 
0E4CC:  BRA    E9A4
0E4CE:  MOVLB  2
0E4D0:  MOVF   x04,W
0E4D2:  SUBLW  03
0E4D4:  BNZ   E54E
....................          printf("Config.t2c.txt=\"Ajuste +\""); 
0E4D6:  MOVLW  02
0E4D8:  MOVWF  FF6
0E4DA:  MOVLW  1F
0E4DC:  MOVWF  FF7
0E4DE:  MOVLW  00
0E4E0:  MOVWF  FF8
0E4E2:  MOVLB  0
0E4E4:  CALL   3F38
....................          SendDataDisplay();       
0E4E8:  CALL   3F6A
....................          printf("t3c.txt=\"%u\"",Sensor[0].Ajuste); 
0E4EC:  MOVLW  1C
0E4EE:  MOVWF  FF6
0E4F0:  MOVLW  1F
0E4F2:  MOVWF  FF7
0E4F4:  MOVLW  00
0E4F6:  MOVWF  FF8
0E4F8:  MOVLW  09
0E4FA:  MOVLB  6
0E4FC:  MOVWF  x55
0E4FE:  MOVLB  0
0E500:  CALL   56B2
0E504:  MOVFF  2DE,655
0E508:  MOVLW  1B
0E50A:  MOVLB  6
0E50C:  MOVWF  x56
0E50E:  MOVLB  0
0E510:  CALL   599E
0E514:  MOVLW  22
0E516:  BTFSS  F9E.4
0E518:  BRA    E516
0E51A:  MOVWF  FAD
....................          SendDataDisplay(); 
0E51C:  CALL   3F6A
....................          if(RX_Buffer[4]==0x0a){//Tecla Arriba Oprimida             
0E520:  MOVF   34,W
0E522:  SUBLW  0A
0E524:  BNZ   E536
....................                if(Sensor[0].Ajuste<40) 
0E526:  MOVLB  2
0E528:  MOVF   xDE,W
0E52A:  SUBLW  27
0E52C:  BNC   E530
....................                   Sensor[0].Ajuste++; 
0E52E:  INCF   xDE,F
....................                RX_Buffer[4]=0x00;   
0E530:  CLRF   34
....................                RX_Buffer2[4]=0x00;             
0E532:  CLRF   3F
0E534:  MOVLB  0
....................                //BorraBuffer();             
....................          } 
....................              
....................          if(RX_Buffer[4]==0x0b){//Tecla Abajo Oprimida             
0E536:  MOVF   34,W
0E538:  SUBLW  0B
0E53A:  BNZ   E54A
....................                if(Sensor[0].Ajuste>0) 
0E53C:  MOVLB  2
0E53E:  MOVF   xDE,F
0E540:  BZ    E544
....................                   Sensor[0].Ajuste--; 
0E542:  DECF   xDE,F
....................                RX_Buffer[4]=0x00; 
0E544:  CLRF   34
....................                RX_Buffer2[4]=0x00;             
0E546:  CLRF   3F
0E548:  MOVLB  0
....................                //BorraBuffer(); 
....................          } 
....................       }else if(Opcion2==4){ 
0E54A:  BRA    E9A4
0E54C:  MOVLB  2
0E54E:  MOVF   x04,W
0E550:  SUBLW  04
0E552:  BNZ   E5CC
....................          printf("Config.t2c.txt=\"Ajuste -\""); 
0E554:  MOVLW  2A
0E556:  MOVWF  FF6
0E558:  MOVLW  1F
0E55A:  MOVWF  FF7
0E55C:  MOVLW  00
0E55E:  MOVWF  FF8
0E560:  MOVLB  0
0E562:  CALL   3F38
....................          SendDataDisplay();       
0E566:  CALL   3F6A
....................          printf("t3c.txt=\"%u\"",Sensor[0].Ajusten); 
0E56A:  MOVLW  44
0E56C:  MOVWF  FF6
0E56E:  MOVLW  1F
0E570:  MOVWF  FF7
0E572:  MOVLW  00
0E574:  MOVWF  FF8
0E576:  MOVLW  09
0E578:  MOVLB  6
0E57A:  MOVWF  x55
0E57C:  MOVLB  0
0E57E:  CALL   56B2
0E582:  MOVFF  2DF,655
0E586:  MOVLW  1B
0E588:  MOVLB  6
0E58A:  MOVWF  x56
0E58C:  MOVLB  0
0E58E:  CALL   599E
0E592:  MOVLW  22
0E594:  BTFSS  F9E.4
0E596:  BRA    E594
0E598:  MOVWF  FAD
....................          SendDataDisplay(); 
0E59A:  CALL   3F6A
....................          if(RX_Buffer[4]==0x0a){//Tecla Arriba Oprimida             
0E59E:  MOVF   34,W
0E5A0:  SUBLW  0A
0E5A2:  BNZ   E5B4
....................                if(Sensor[0].Ajusten<40) 
0E5A4:  MOVLB  2
0E5A6:  MOVF   xDF,W
0E5A8:  SUBLW  27
0E5AA:  BNC   E5AE
....................                   Sensor[0].Ajusten++; 
0E5AC:  INCF   xDF,F
....................                RX_Buffer[4]=0x00;   
0E5AE:  CLRF   34
....................                RX_Buffer2[4]=0x00;             
0E5B0:  CLRF   3F
0E5B2:  MOVLB  0
....................                //BorraBuffer();             
....................          } 
....................              
....................          if(RX_Buffer[4]==0x0b){//Tecla Abajo Oprimida             
0E5B4:  MOVF   34,W
0E5B6:  SUBLW  0B
0E5B8:  BNZ   E5C8
....................                if(Sensor[0].Ajusten>0) 
0E5BA:  MOVLB  2
0E5BC:  MOVF   xDF,F
0E5BE:  BZ    E5C2
....................                   Sensor[0].Ajusten--; 
0E5C0:  DECF   xDF,F
....................                RX_Buffer[4]=0x00; 
0E5C2:  CLRF   34
....................                RX_Buffer2[4]=0x00;             
0E5C4:  CLRF   3F
0E5C6:  MOVLB  0
....................                //BorraBuffer(); 
....................          } 
....................       }else if(Opcion2==5){ 
0E5C8:  BRA    E9A4
0E5CA:  MOVLB  2
0E5CC:  MOVF   x04,W
0E5CE:  SUBLW  05
0E5D0:  BNZ   E64A
....................          printf("Config.t2c.txt=\"Ajuste2 +\""); 
0E5D2:  MOVLW  52
0E5D4:  MOVWF  FF6
0E5D6:  MOVLW  1F
0E5D8:  MOVWF  FF7
0E5DA:  MOVLW  00
0E5DC:  MOVWF  FF8
0E5DE:  MOVLB  0
0E5E0:  CALL   3F38
....................          SendDataDisplay();       
0E5E4:  CALL   3F6A
....................          printf("t3c.txt=\"%u\"",Sensor[1].Ajuste); 
0E5E8:  MOVLW  6E
0E5EA:  MOVWF  FF6
0E5EC:  MOVLW  1F
0E5EE:  MOVWF  FF7
0E5F0:  MOVLW  00
0E5F2:  MOVWF  FF8
0E5F4:  MOVLW  09
0E5F6:  MOVLB  6
0E5F8:  MOVWF  x55
0E5FA:  MOVLB  0
0E5FC:  CALL   56B2
0E600:  MOVFF  442,655
0E604:  MOVLW  1B
0E606:  MOVLB  6
0E608:  MOVWF  x56
0E60A:  MOVLB  0
0E60C:  CALL   599E
0E610:  MOVLW  22
0E612:  BTFSS  F9E.4
0E614:  BRA    E612
0E616:  MOVWF  FAD
....................          SendDataDisplay(); 
0E618:  CALL   3F6A
....................          if(RX_Buffer[4]==0x0a){//Tecla Arriba Oprimida 
0E61C:  MOVF   34,W
0E61E:  SUBLW  0A
0E620:  BNZ   E632
....................                if(Sensor[1].Ajuste<40) 
0E622:  MOVLB  4
0E624:  MOVF   x42,W
0E626:  SUBLW  27
0E628:  BNC   E62C
....................                   Sensor[1].Ajuste++; 
0E62A:  INCF   x42,F
....................                RX_Buffer[4]=0x00;   
0E62C:  CLRF   34
....................                RX_Buffer2[4]=0x00;             
0E62E:  CLRF   3F
0E630:  MOVLB  0
....................                //BorraBuffer(); 
....................          } 
....................              
....................          if(RX_Buffer[4]==0x0b){//Tecla Abajo Oprimida 
0E632:  MOVF   34,W
0E634:  SUBLW  0B
0E636:  BNZ   E646
....................                if(Sensor[1].Ajuste>0) 
0E638:  MOVLB  4
0E63A:  MOVF   x42,F
0E63C:  BZ    E640
....................                   Sensor[1].Ajuste--; 
0E63E:  DECF   x42,F
....................                RX_Buffer[4]=0x00; 
0E640:  CLRF   34
....................                RX_Buffer2[4]=0x00;             
0E642:  CLRF   3F
0E644:  MOVLB  0
....................                //BorraBuffer();             
....................          } 
....................       }else if(Opcion2==6){ 
0E646:  BRA    E9A4
0E648:  MOVLB  2
0E64A:  MOVF   x04,W
0E64C:  SUBLW  06
0E64E:  BNZ   E6C8
....................          printf("Config.t2c.txt=\"Ajuste2 -\""); 
0E650:  MOVLW  7C
0E652:  MOVWF  FF6
0E654:  MOVLW  1F
0E656:  MOVWF  FF7
0E658:  MOVLW  00
0E65A:  MOVWF  FF8
0E65C:  MOVLB  0
0E65E:  CALL   3F38
....................          SendDataDisplay();       
0E662:  CALL   3F6A
....................          printf("t3c.txt=\"%u\"",Sensor[1].Ajusten); 
0E666:  MOVLW  98
0E668:  MOVWF  FF6
0E66A:  MOVLW  1F
0E66C:  MOVWF  FF7
0E66E:  MOVLW  00
0E670:  MOVWF  FF8
0E672:  MOVLW  09
0E674:  MOVLB  6
0E676:  MOVWF  x55
0E678:  MOVLB  0
0E67A:  CALL   56B2
0E67E:  MOVFF  443,655
0E682:  MOVLW  1B
0E684:  MOVLB  6
0E686:  MOVWF  x56
0E688:  MOVLB  0
0E68A:  CALL   599E
0E68E:  MOVLW  22
0E690:  BTFSS  F9E.4
0E692:  BRA    E690
0E694:  MOVWF  FAD
....................          SendDataDisplay(); 
0E696:  CALL   3F6A
....................          if(RX_Buffer[4]==0x0a){//Tecla Arriba Oprimida             
0E69A:  MOVF   34,W
0E69C:  SUBLW  0A
0E69E:  BNZ   E6B0
....................                if(Sensor[1].Ajusten<40) 
0E6A0:  MOVLB  4
0E6A2:  MOVF   x43,W
0E6A4:  SUBLW  27
0E6A6:  BNC   E6AA
....................                   Sensor[1].Ajusten++; 
0E6A8:  INCF   x43,F
....................                RX_Buffer[4]=0x00;   
0E6AA:  CLRF   34
....................                RX_Buffer2[4]=0x00;             
0E6AC:  CLRF   3F
0E6AE:  MOVLB  0
....................                //BorraBuffer(); 
....................          } 
....................              
....................          if(RX_Buffer[4]==0x0b){//Tecla Abajo Oprimida             
0E6B0:  MOVF   34,W
0E6B2:  SUBLW  0B
0E6B4:  BNZ   E6C4
....................                if(Sensor[1].Ajusten>0) 
0E6B6:  MOVLB  4
0E6B8:  MOVF   x43,F
0E6BA:  BZ    E6BE
....................                   Sensor[1].Ajusten--; 
0E6BC:  DECF   x43,F
....................                RX_Buffer[4]=0x00; 
0E6BE:  CLRF   34
....................                RX_Buffer2[4]=0x00;             
0E6C0:  CLRF   3F
0E6C2:  MOVLB  0
....................                //BorraBuffer(); 
....................          } 
....................       }else if(Opcion2==7){ 
0E6C4:  BRA    E9A4
0E6C6:  MOVLB  2
0E6C8:  MOVF   x04,W
0E6CA:  SUBLW  07
0E6CC:  BNZ   E748
....................          printf("Config.t2c.txt=\"Media\""); 
0E6CE:  MOVLW  A6
0E6D0:  MOVWF  FF6
0E6D2:  MOVLW  1F
0E6D4:  MOVWF  FF7
0E6D6:  MOVLW  00
0E6D8:  MOVWF  FF8
0E6DA:  MOVLB  0
0E6DC:  CALL   3F38
....................          SendDataDisplay();       
0E6E0:  CALL   3F6A
....................          printf("t3c.txt=\"%u\"",MediaMovil); 
0E6E4:  MOVLW  BE
0E6E6:  MOVWF  FF6
0E6E8:  MOVLW  1F
0E6EA:  MOVWF  FF7
0E6EC:  MOVLW  00
0E6EE:  MOVWF  FF8
0E6F0:  MOVLW  09
0E6F2:  MOVLB  6
0E6F4:  MOVWF  x55
0E6F6:  MOVLB  0
0E6F8:  CALL   56B2
0E6FC:  MOVFF  195,655
0E700:  MOVLW  1B
0E702:  MOVLB  6
0E704:  MOVWF  x56
0E706:  MOVLB  0
0E708:  CALL   599E
0E70C:  MOVLW  22
0E70E:  BTFSS  F9E.4
0E710:  BRA    E70E
0E712:  MOVWF  FAD
....................          SendDataDisplay(); 
0E714:  CALL   3F6A
....................          if(RX_Buffer[4]==0x0a){//Tecla Arriba Oprimida 
0E718:  MOVF   34,W
0E71A:  SUBLW  0A
0E71C:  BNZ   E72E
....................                if(MediaMovil<80) 
0E71E:  MOVLB  1
0E720:  MOVF   x95,W
0E722:  SUBLW  4F
0E724:  BNC   E728
....................                   MediaMovil++; 
0E726:  INCF   x95,F
....................                RX_Buffer[4]=0x00;   
0E728:  CLRF   34
....................                RX_Buffer2[4]=0x00;             
0E72A:  CLRF   3F
0E72C:  MOVLB  0
....................                //BorraBuffer(); 
....................          } 
....................              
....................          if(RX_Buffer[4]==0x0b){//Tecla Abajo Oprimida 
0E72E:  MOVF   34,W
0E730:  SUBLW  0B
0E732:  BNZ   E744
....................                if(MediaMovil>10) 
0E734:  MOVLB  1
0E736:  MOVF   x95,W
0E738:  SUBLW  0A
0E73A:  BC    E73E
....................                   MediaMovil--; 
0E73C:  DECF   x95,F
....................                RX_Buffer[4]=0x00; 
0E73E:  CLRF   34
....................                RX_Buffer2[4]=0x00;             
0E740:  CLRF   3F
0E742:  MOVLB  0
....................                //BorraBuffer();             
....................          } 
....................       }else if(Opcion2==8){ 
0E744:  BRA    E9A4
0E746:  MOVLB  2
0E748:  MOVF   x04,W
0E74A:  SUBLW  08
0E74C:  BNZ   E7CE
....................          printf("Config.t2c.txt=\"Derivativo\""); 
0E74E:  MOVLW  CC
0E750:  MOVWF  FF6
0E752:  MOVLW  1F
0E754:  MOVWF  FF7
0E756:  MOVLW  00
0E758:  MOVWF  FF8
0E75A:  MOVLB  0
0E75C:  CALL   3F38
....................          SendDataDisplay();       
0E760:  CALL   3F6A
....................          printf("t3c.txt=\"%02u\"",Derivativo); 
0E764:  MOVLW  E8
0E766:  MOVWF  FF6
0E768:  MOVLW  1F
0E76A:  MOVWF  FF7
0E76C:  MOVLW  00
0E76E:  MOVWF  FF8
0E770:  MOVLW  09
0E772:  MOVLB  6
0E774:  MOVWF  x55
0E776:  MOVLB  0
0E778:  CALL   56B2
0E77C:  MOVFF  1EB,655
0E780:  MOVLW  01
0E782:  MOVLB  6
0E784:  MOVWF  x56
0E786:  MOVLB  0
0E788:  CALL   599E
0E78C:  MOVLW  22
0E78E:  BTFSS  F9E.4
0E790:  BRA    E78E
0E792:  MOVWF  FAD
....................          SendDataDisplay(); 
0E794:  CALL   3F6A
....................          if(RX_Buffer[4]==0x0a ){//Tecla Arriba Oprimida 
0E798:  MOVF   34,W
0E79A:  SUBLW  0A
0E79C:  BNZ   E7A8
....................                Derivativo++; 
0E79E:  MOVLB  1
0E7A0:  INCF   xEB,F
....................                RX_Buffer[4]=0x00;   
0E7A2:  CLRF   34
....................                RX_Buffer2[4]=0x00;             
0E7A4:  CLRF   3F
0E7A6:  MOVLB  0
....................                //BorraBuffer();  
....................          } 
....................              
....................          if(RX_Buffer[4]==0x0b){//Tecla Abajo Oprimida 
0E7A8:  MOVF   34,W
0E7AA:  SUBLW  0B
0E7AC:  BNZ   E7B6
....................                Derivativo--; 
0E7AE:  MOVLB  1
0E7B0:  DECF   xEB,F
....................                RX_Buffer[4]=0x00; 
0E7B2:  CLRF   34
....................                RX_Buffer2[4]=0x00;             
0E7B4:  CLRF   3F
....................          } 
....................           
....................           
....................          if(Derivativo>40) 
0E7B6:  MOVLB  1
0E7B8:  MOVF   xEB,W
0E7BA:  SUBLW  28
0E7BC:  BC    E7C2
....................             Derivativo=1; 
0E7BE:  MOVLW  01
0E7C0:  MOVWF  xEB
....................          if(Derivativo<1) 
0E7C2:  MOVF   xEB,F
0E7C4:  BNZ   E7CA
....................             Derivativo=40; 
0E7C6:  MOVLW  28
0E7C8:  MOVWF  xEB
....................       }else if(Opcion2==9){ 
0E7CA:  BRA    E9A2
0E7CC:  MOVLB  2
0E7CE:  MOVF   x04,W
0E7D0:  SUBLW  09
0E7D2:  BNZ   E854
....................          printf("Config.t2c.txt=\"Integral\""); 
0E7D4:  MOVLW  F8
0E7D6:  MOVWF  FF6
0E7D8:  MOVLW  1F
0E7DA:  MOVWF  FF7
0E7DC:  MOVLW  00
0E7DE:  MOVWF  FF8
0E7E0:  MOVLB  0
0E7E2:  CALL   3F38
....................          SendDataDisplay();       
0E7E6:  CALL   3F6A
....................          printf("t3c.txt=\"%02u\"",Integral); 
0E7EA:  MOVLW  12
0E7EC:  MOVWF  FF6
0E7EE:  MOVLW  20
0E7F0:  MOVWF  FF7
0E7F2:  MOVLW  00
0E7F4:  MOVWF  FF8
0E7F6:  MOVLW  09
0E7F8:  MOVLB  6
0E7FA:  MOVWF  x55
0E7FC:  MOVLB  0
0E7FE:  CALL   56B2
0E802:  MOVFF  1EA,655
0E806:  MOVLW  01
0E808:  MOVLB  6
0E80A:  MOVWF  x56
0E80C:  MOVLB  0
0E80E:  CALL   599E
0E812:  MOVLW  22
0E814:  BTFSS  F9E.4
0E816:  BRA    E814
0E818:  MOVWF  FAD
....................          SendDataDisplay(); 
0E81A:  CALL   3F6A
....................          if(RX_Buffer[4]==0x0a){//Tecla Arriba Oprimida 
0E81E:  MOVF   34,W
0E820:  SUBLW  0A
0E822:  BNZ   E82E
....................                Integral++; 
0E824:  MOVLB  1
0E826:  INCF   xEA,F
....................                RX_Buffer[4]=0x00;   
0E828:  CLRF   34
....................                RX_Buffer2[4]=0x00;             
0E82A:  CLRF   3F
0E82C:  MOVLB  0
....................                //BorraBuffer(); 
....................          } 
....................              
....................          if(RX_Buffer[4]==0x0b){//Tecla Abajo Oprimida 
0E82E:  MOVF   34,W
0E830:  SUBLW  0B
0E832:  BNZ   E83C
....................                Integral--; 
0E834:  MOVLB  1
0E836:  DECF   xEA,F
....................                RX_Buffer[4]=0x00; 
0E838:  CLRF   34
....................                RX_Buffer2[4]=0x00;             
0E83A:  CLRF   3F
....................                //BorraBuffer(); 
....................          } 
....................           
....................          if(Integral>40) 
0E83C:  MOVLB  1
0E83E:  MOVF   xEA,W
0E840:  SUBLW  28
0E842:  BC    E848
....................             Integral=1; 
0E844:  MOVLW  01
0E846:  MOVWF  xEA
....................          if(Integral<1) 
0E848:  MOVF   xEA,F
0E84A:  BNZ   E850
....................             Integral=40; 
0E84C:  MOVLW  28
0E84E:  MOVWF  xEA
....................       }else if(Opcion2==10){ 
0E850:  BRA    E9A2
0E852:  MOVLB  2
0E854:  MOVF   x04,W
0E856:  SUBLW  0A
0E858:  BNZ   E8A8
....................          printf("Config.t2c.txt=\"Ciclos\""); 
0E85A:  MOVLW  22
0E85C:  MOVWF  FF6
0E85E:  MOVLW  20
0E860:  MOVWF  FF7
0E862:  MOVLW  00
0E864:  MOVWF  FF8
0E866:  MOVLB  0
0E868:  CALL   3F38
....................          SendDataDisplay();       
0E86C:  CALL   3F6A
....................          printf("t3c.txt=\"%03Lu\"",Ciclos); 
0E870:  MOVLW  3A
0E872:  MOVWF  FF6
0E874:  MOVLW  20
0E876:  MOVWF  FF7
0E878:  MOVLW  00
0E87A:  MOVWF  FF8
0E87C:  MOVLW  09
0E87E:  MOVLB  6
0E880:  MOVWF  x55
0E882:  MOVLB  0
0E884:  CALL   56B2
0E888:  MOVLW  0A
0E88A:  MOVWF  FE9
0E88C:  MOVFF  218,655
0E890:  MOVFF  217,654
0E894:  CALL   5A96
0E898:  MOVLW  22
0E89A:  BTFSS  F9E.4
0E89C:  BRA    E89A
0E89E:  MOVWF  FAD
....................          SendDataDisplay(); 
0E8A0:  CALL   3F6A
....................       }else if(Opcion2==11){ 
0E8A4:  BRA    E9A4
0E8A6:  MOVLB  2
0E8A8:  MOVF   x04,W
0E8AA:  SUBLW  0B
0E8AC:  BNZ   E928
....................          printf("Config.t2c.txt=\"Atmosferica\""); 
0E8AE:  MOVLW  4A
0E8B0:  MOVWF  FF6
0E8B2:  MOVLW  20
0E8B4:  MOVWF  FF7
0E8B6:  MOVLW  00
0E8B8:  MOVWF  FF8
0E8BA:  MOVLB  0
0E8BC:  CALL   3F38
....................          SendDataDisplay();       
0E8C0:  CALL   3F6A
....................          printf("t3c.txt=\"%03u\"",Atmosferica); 
0E8C4:  MOVLW  68
0E8C6:  MOVWF  FF6
0E8C8:  MOVLW  20
0E8CA:  MOVWF  FF7
0E8CC:  MOVLW  00
0E8CE:  MOVWF  FF8
0E8D0:  MOVLW  09
0E8D2:  MOVLB  6
0E8D4:  MOVWF  x55
0E8D6:  MOVLB  0
0E8D8:  CALL   56B2
0E8DC:  MOVFF  242,655
0E8E0:  MOVLW  03
0E8E2:  MOVLB  6
0E8E4:  MOVWF  x56
0E8E6:  MOVLB  0
0E8E8:  CALL   599E
0E8EC:  MOVLW  22
0E8EE:  BTFSS  F9E.4
0E8F0:  BRA    E8EE
0E8F2:  MOVWF  FAD
....................          SendDataDisplay(); 
0E8F4:  CALL   3F6A
....................          if(RX_Buffer[4]==0x0a){//Tecla Arriba Oprimida 
0E8F8:  MOVF   34,W
0E8FA:  SUBLW  0A
0E8FC:  BNZ   E90E
....................                if(Atmosferica<100) 
0E8FE:  MOVLB  2
0E900:  MOVF   x42,W
0E902:  SUBLW  63
0E904:  BNC   E908
....................                   ++Atmosferica; 
0E906:  INCF   x42,F
....................                RX_Buffer[4]=0x00;   
0E908:  CLRF   34
....................                RX_Buffer2[4]=0x00;             
0E90A:  CLRF   3F
0E90C:  MOVLB  0
....................                //BorraBuffer(); 
....................          } 
....................              
....................          if(RX_Buffer[4]==0x0b){//Tecla Abajo Oprimida 
0E90E:  MOVF   34,W
0E910:  SUBLW  0B
0E912:  BNZ   E924
....................                if(Atmosferica>50) 
0E914:  MOVLB  2
0E916:  MOVF   x42,W
0E918:  SUBLW  32
0E91A:  BC    E91E
....................                   --Atmosferica; 
0E91C:  DECF   x42,F
....................                RX_Buffer[4]=0x00; 
0E91E:  CLRF   34
....................                RX_Buffer2[4]=0x00;             
0E920:  CLRF   3F
0E922:  MOVLB  0
....................                //BorraBuffer(); 
....................          } 
....................       }else if(Opcion2==12){ 
0E924:  BRA    E9A4
0E926:  MOVLB  2
0E928:  MOVF   x04,W
0E92A:  SUBLW  0C
0E92C:  BNZ   E9A6
....................          printf("Config.t2c.txt=\"T. Apertura\""); 
0E92E:  MOVLW  78
0E930:  MOVWF  FF6
0E932:  MOVLW  20
0E934:  MOVWF  FF7
0E936:  MOVLW  00
0E938:  MOVWF  FF8
0E93A:  MOVLB  0
0E93C:  CALL   3F38
....................          SendDataDisplay();       
0E940:  CALL   3F6A
....................          printf("t3c.txt=\"%03u\"",Tapertura); 
0E944:  MOVLW  96
0E946:  MOVWF  FF6
0E948:  MOVLW  20
0E94A:  MOVWF  FF7
0E94C:  MOVLW  00
0E94E:  MOVWF  FF8
0E950:  MOVLW  09
0E952:  MOVLB  6
0E954:  MOVWF  x55
0E956:  MOVLB  0
0E958:  CALL   56B2
0E95C:  MOVFF  1FD,655
0E960:  MOVLW  03
0E962:  MOVLB  6
0E964:  MOVWF  x56
0E966:  MOVLB  0
0E968:  CALL   599E
0E96C:  MOVLW  22
0E96E:  BTFSS  F9E.4
0E970:  BRA    E96E
0E972:  MOVWF  FAD
....................          SendDataDisplay(); 
0E974:  CALL   3F6A
....................          if(RX_Buffer[4]==0x0a){//Tecla Arriba Oprimida 
0E978:  MOVF   34,W
0E97A:  SUBLW  0A
0E97C:  BNZ   E98E
....................                if(Tapertura<100) 
0E97E:  MOVLB  1
0E980:  MOVF   xFD,W
0E982:  SUBLW  63
0E984:  BNC   E988
....................                   ++Tapertura; 
0E986:  INCF   xFD,F
....................                RX_Buffer[4]=0x00;   
0E988:  CLRF   34
....................                RX_Buffer2[4]=0x00;             
0E98A:  CLRF   3F
0E98C:  MOVLB  0
....................                //BorraBuffer(); 
....................          } 
....................              
....................          if(RX_Buffer[4]==0x0b){//Tecla Abajo Oprimida 
0E98E:  MOVF   34,W
0E990:  SUBLW  0B
0E992:  BNZ   E9A4
....................                if(Tapertura>50) 
0E994:  MOVLB  1
0E996:  MOVF   xFD,W
0E998:  SUBLW  32
0E99A:  BC    E99E
....................                   --Tapertura; 
0E99C:  DECF   xFD,F
....................                RX_Buffer[4]=0x00; 
0E99E:  CLRF   34
....................                RX_Buffer2[4]=0x00;             
0E9A0:  CLRF   3F
0E9A2:  MOVLB  0
0E9A4:  MOVLB  2
....................                //BorraBuffer();            
....................          } 
....................       } 
....................        
....................       if(RX_Buffer[4]==0x0c){//Tecla Izquierda Oprimida 
0E9A6:  MOVF   34,W
0E9A8:  SUBLW  0C
0E9AA:  BNZ   E9B2
....................             Opcion2++; 
0E9AC:  INCF   x04,F
....................             RX_Buffer[4]=0x00;   
0E9AE:  CLRF   34
....................             RX_Buffer2[4]=0x00;             
0E9B0:  CLRF   3F
....................             //BorraBuffer();    
....................       } 
....................           
....................       if(RX_Buffer[4]==0x0d){//Tecla Derecha Oprimida          
0E9B2:  MOVF   34,W
0E9B4:  SUBLW  0D
0E9B6:  BNZ   E9BE
....................             Opcion2--; 
0E9B8:  DECF   x04,F
....................             RX_Buffer[4]=0x00; 
0E9BA:  CLRF   34
....................             RX_Buffer2[4]=0x00;             
0E9BC:  CLRF   3F
....................             //BorraBuffer(); 
....................       } 
....................        
....................       if(RX_Buffer[4]==0x11){//Tecla Regresar 
0E9BE:  MOVF   34,W
0E9C0:  SUBLW  11
0E9C2:  BTFSS  FD8.2
0E9C4:  BRA    ECA4
....................          delay_ms(20); 
0E9C6:  MOVLW  14
0E9C8:  MOVLB  6
0E9CA:  MOVWF  x62
0E9CC:  MOVLB  0
0E9CE:  CALL   2128
....................          if(RX_Buffer[4]==0x11){ 
0E9D2:  MOVF   34,W
0E9D4:  SUBLW  11
0E9D6:  BTFSS  FD8.2
0E9D8:  BRA    ECA2
....................             if(!GuardaEEPROM){ 
0E9DA:  BTFSC  xA8.4
0E9DC:  BRA    EC8E
....................                write_eeprom(20,(int8)Ganancia); 
0E9DE:  MOVFF  1BD,665
0E9E2:  MOVFF  1BC,664
0E9E6:  MOVFF  1BB,663
0E9EA:  MOVFF  1BA,662
0E9EE:  CALL   4BF0
0E9F2:  MOVFF  01,650
0E9F6:  CLRF   FAA
0E9F8:  MOVLW  14
0E9FA:  MOVWF  FA9
0E9FC:  MOVFF  650,FA8
0EA00:  BCF    FA6.6
0EA02:  BCF    FA6.7
0EA04:  BSF    FA6.2
0EA06:  MOVF   FF2,W
0EA08:  MOVWF  00
0EA0A:  BCF    FF2.6
0EA0C:  BCF    FF2.7
0EA0E:  MOVLB  F
0EA10:  MOVLW  55
0EA12:  MOVWF  FA7
0EA14:  MOVLW  AA
0EA16:  MOVWF  FA7
0EA18:  BSF    FA6.1
0EA1A:  BTFSC  FA6.1
0EA1C:  BRA    EA1A
0EA1E:  BCF    FA6.2
0EA20:  MOVF   00,W
0EA22:  IORWF  FF2,F
....................                delay_ms(10); 
0EA24:  MOVLW  0A
0EA26:  MOVLB  6
0EA28:  MOVWF  x62
0EA2A:  MOVLB  0
0EA2C:  CALL   2128
....................                write_eeprom(21,Sensor[0].Ajuste); 
0EA30:  CLRF   FAA
0EA32:  MOVLW  15
0EA34:  MOVWF  FA9
0EA36:  MOVFF  2DE,FA8
0EA3A:  BCF    FA6.6
0EA3C:  BCF    FA6.7
0EA3E:  BSF    FA6.2
0EA40:  MOVF   FF2,W
0EA42:  MOVWF  00
0EA44:  BCF    FF2.6
0EA46:  BCF    FF2.7
0EA48:  MOVLB  F
0EA4A:  MOVLW  55
0EA4C:  MOVWF  FA7
0EA4E:  MOVLW  AA
0EA50:  MOVWF  FA7
0EA52:  BSF    FA6.1
0EA54:  BTFSC  FA6.1
0EA56:  BRA    EA54
0EA58:  BCF    FA6.2
0EA5A:  MOVF   00,W
0EA5C:  IORWF  FF2,F
....................                delay_ms(10); 
0EA5E:  MOVLW  0A
0EA60:  MOVLB  6
0EA62:  MOVWF  x62
0EA64:  MOVLB  0
0EA66:  CALL   2128
....................                write_eeprom(22,Sensor[0].Ajusten); 
0EA6A:  CLRF   FAA
0EA6C:  MOVLW  16
0EA6E:  MOVWF  FA9
0EA70:  MOVFF  2DF,FA8
0EA74:  BCF    FA6.6
0EA76:  BCF    FA6.7
0EA78:  BSF    FA6.2
0EA7A:  MOVF   FF2,W
0EA7C:  MOVWF  00
0EA7E:  BCF    FF2.6
0EA80:  BCF    FF2.7
0EA82:  MOVLB  F
0EA84:  MOVLW  55
0EA86:  MOVWF  FA7
0EA88:  MOVLW  AA
0EA8A:  MOVWF  FA7
0EA8C:  BSF    FA6.1
0EA8E:  BTFSC  FA6.1
0EA90:  BRA    EA8E
0EA92:  BCF    FA6.2
0EA94:  MOVF   00,W
0EA96:  IORWF  FF2,F
....................                delay_ms(10); 
0EA98:  MOVLW  0A
0EA9A:  MOVLB  6
0EA9C:  MOVWF  x62
0EA9E:  MOVLB  0
0EAA0:  CALL   2128
....................                write_eeprom(23,Sensor[1].Ajuste); 
0EAA4:  CLRF   FAA
0EAA6:  MOVLW  17
0EAA8:  MOVWF  FA9
0EAAA:  MOVFF  442,FA8
0EAAE:  BCF    FA6.6
0EAB0:  BCF    FA6.7
0EAB2:  BSF    FA6.2
0EAB4:  MOVF   FF2,W
0EAB6:  MOVWF  00
0EAB8:  BCF    FF2.6
0EABA:  BCF    FF2.7
0EABC:  MOVLB  F
0EABE:  MOVLW  55
0EAC0:  MOVWF  FA7
0EAC2:  MOVLW  AA
0EAC4:  MOVWF  FA7
0EAC6:  BSF    FA6.1
0EAC8:  BTFSC  FA6.1
0EACA:  BRA    EAC8
0EACC:  BCF    FA6.2
0EACE:  MOVF   00,W
0EAD0:  IORWF  FF2,F
....................                delay_ms(10); 
0EAD2:  MOVLW  0A
0EAD4:  MOVLB  6
0EAD6:  MOVWF  x62
0EAD8:  MOVLB  0
0EADA:  CALL   2128
....................                write_eeprom(24,Sensor[1].Ajusten); 
0EADE:  CLRF   FAA
0EAE0:  MOVLW  18
0EAE2:  MOVWF  FA9
0EAE4:  MOVFF  443,FA8
0EAE8:  BCF    FA6.6
0EAEA:  BCF    FA6.7
0EAEC:  BSF    FA6.2
0EAEE:  MOVF   FF2,W
0EAF0:  MOVWF  00
0EAF2:  BCF    FF2.6
0EAF4:  BCF    FF2.7
0EAF6:  MOVLB  F
0EAF8:  MOVLW  55
0EAFA:  MOVWF  FA7
0EAFC:  MOVLW  AA
0EAFE:  MOVWF  FA7
0EB00:  BSF    FA6.1
0EB02:  BTFSC  FA6.1
0EB04:  BRA    EB02
0EB06:  BCF    FA6.2
0EB08:  MOVF   00,W
0EB0A:  IORWF  FF2,F
....................                delay_ms(10); 
0EB0C:  MOVLW  0A
0EB0E:  MOVLB  6
0EB10:  MOVWF  x62
0EB12:  MOVLB  0
0EB14:  CALL   2128
....................                write_eeprom(25,(int8)MediaMovil); 
0EB18:  CLRF   FAA
0EB1A:  MOVLW  19
0EB1C:  MOVWF  FA9
0EB1E:  MOVFF  195,FA8
0EB22:  BCF    FA6.6
0EB24:  BCF    FA6.7
0EB26:  BSF    FA6.2
0EB28:  MOVF   FF2,W
0EB2A:  MOVWF  00
0EB2C:  BCF    FF2.6
0EB2E:  BCF    FF2.7
0EB30:  MOVLB  F
0EB32:  MOVLW  55
0EB34:  MOVWF  FA7
0EB36:  MOVLW  AA
0EB38:  MOVWF  FA7
0EB3A:  BSF    FA6.1
0EB3C:  BTFSC  FA6.1
0EB3E:  BRA    EB3C
0EB40:  BCF    FA6.2
0EB42:  MOVF   00,W
0EB44:  IORWF  FF2,F
....................                delay_ms(10); 
0EB46:  MOVLW  0A
0EB48:  MOVLB  6
0EB4A:  MOVWF  x62
0EB4C:  MOVLB  0
0EB4E:  CALL   2128
....................                write_eeprom(26,(int8)Tciclo); 
0EB52:  MOVFF  1A5,665
0EB56:  MOVFF  1A4,664
0EB5A:  MOVFF  1A3,663
0EB5E:  MOVFF  1A2,662
0EB62:  CALL   4BF0
0EB66:  MOVFF  01,650
0EB6A:  CLRF   FAA
0EB6C:  MOVLW  1A
0EB6E:  MOVWF  FA9
0EB70:  MOVFF  650,FA8
0EB74:  BCF    FA6.6
0EB76:  BCF    FA6.7
0EB78:  BSF    FA6.2
0EB7A:  MOVF   FF2,W
0EB7C:  MOVWF  00
0EB7E:  BCF    FF2.6
0EB80:  BCF    FF2.7
0EB82:  MOVLB  F
0EB84:  MOVLW  55
0EB86:  MOVWF  FA7
0EB88:  MOVLW  AA
0EB8A:  MOVWF  FA7
0EB8C:  BSF    FA6.1
0EB8E:  BTFSC  FA6.1
0EB90:  BRA    EB8E
0EB92:  BCF    FA6.2
0EB94:  MOVF   00,W
0EB96:  IORWF  FF2,F
....................                delay_ms(10); 
0EB98:  MOVLW  0A
0EB9A:  MOVLB  6
0EB9C:  MOVWF  x62
0EB9E:  MOVLB  0
0EBA0:  CALL   2128
....................                write_eeprom(27,(int8)Integral); 
0EBA4:  CLRF   FAA
0EBA6:  MOVLW  1B
0EBA8:  MOVWF  FA9
0EBAA:  MOVFF  1EA,FA8
0EBAE:  BCF    FA6.6
0EBB0:  BCF    FA6.7
0EBB2:  BSF    FA6.2
0EBB4:  MOVF   FF2,W
0EBB6:  MOVWF  00
0EBB8:  BCF    FF2.6
0EBBA:  BCF    FF2.7
0EBBC:  MOVLB  F
0EBBE:  MOVLW  55
0EBC0:  MOVWF  FA7
0EBC2:  MOVLW  AA
0EBC4:  MOVWF  FA7
0EBC6:  BSF    FA6.1
0EBC8:  BTFSC  FA6.1
0EBCA:  BRA    EBC8
0EBCC:  BCF    FA6.2
0EBCE:  MOVF   00,W
0EBD0:  IORWF  FF2,F
....................                delay_ms(10); 
0EBD2:  MOVLW  0A
0EBD4:  MOVLB  6
0EBD6:  MOVWF  x62
0EBD8:  MOVLB  0
0EBDA:  CALL   2128
....................                write_eeprom(28,(int8)Derivativo); 
0EBDE:  CLRF   FAA
0EBE0:  MOVLW  1C
0EBE2:  MOVWF  FA9
0EBE4:  MOVFF  1EB,FA8
0EBE8:  BCF    FA6.6
0EBEA:  BCF    FA6.7
0EBEC:  BSF    FA6.2
0EBEE:  MOVF   FF2,W
0EBF0:  MOVWF  00
0EBF2:  BCF    FF2.6
0EBF4:  BCF    FF2.7
0EBF6:  MOVLB  F
0EBF8:  MOVLW  55
0EBFA:  MOVWF  FA7
0EBFC:  MOVLW  AA
0EBFE:  MOVWF  FA7
0EC00:  BSF    FA6.1
0EC02:  BTFSC  FA6.1
0EC04:  BRA    EC02
0EC06:  BCF    FA6.2
0EC08:  MOVF   00,W
0EC0A:  IORWF  FF2,F
....................                delay_ms(10); 
0EC0C:  MOVLW  0A
0EC0E:  MOVLB  6
0EC10:  MOVWF  x62
0EC12:  MOVLB  0
0EC14:  CALL   2128
....................                write_eeprom(31,Atmosferica); 
0EC18:  CLRF   FAA
0EC1A:  MOVLW  1F
0EC1C:  MOVWF  FA9
0EC1E:  MOVFF  242,FA8
0EC22:  BCF    FA6.6
0EC24:  BCF    FA6.7
0EC26:  BSF    FA6.2
0EC28:  MOVF   FF2,W
0EC2A:  MOVWF  00
0EC2C:  BCF    FF2.6
0EC2E:  BCF    FF2.7
0EC30:  MOVLB  F
0EC32:  MOVLW  55
0EC34:  MOVWF  FA7
0EC36:  MOVLW  AA
0EC38:  MOVWF  FA7
0EC3A:  BSF    FA6.1
0EC3C:  BTFSC  FA6.1
0EC3E:  BRA    EC3C
0EC40:  BCF    FA6.2
0EC42:  MOVF   00,W
0EC44:  IORWF  FF2,F
....................                delay_ms(10); 
0EC46:  MOVLW  0A
0EC48:  MOVLB  6
0EC4A:  MOVWF  x62
0EC4C:  MOVLB  0
0EC4E:  CALL   2128
....................                write_eeprom(32,Tapertura); 
0EC52:  CLRF   FAA
0EC54:  MOVLW  20
0EC56:  MOVWF  FA9
0EC58:  MOVFF  1FD,FA8
0EC5C:  BCF    FA6.6
0EC5E:  BCF    FA6.7
0EC60:  BSF    FA6.2
0EC62:  MOVF   FF2,W
0EC64:  MOVWF  00
0EC66:  BCF    FF2.6
0EC68:  BCF    FF2.7
0EC6A:  MOVLB  F
0EC6C:  MOVLW  55
0EC6E:  MOVWF  FA7
0EC70:  MOVLW  AA
0EC72:  MOVWF  FA7
0EC74:  BSF    FA6.1
0EC76:  BTFSC  FA6.1
0EC78:  BRA    EC76
0EC7A:  BCF    FA6.2
0EC7C:  MOVF   00,W
0EC7E:  IORWF  FF2,F
....................                delay_ms(10); 
0EC80:  MOVLW  0A
0EC82:  MOVLB  6
0EC84:  MOVWF  x62
0EC86:  MOVLB  0
0EC88:  CALL   2128
....................                GuardaEEPROM=ON; 
0EC8C:  BSF    xA8.4
....................             } 
....................             printf("page Menu"); 
0EC8E:  MOVLW  A6
0EC90:  MOVWF  FF6
0EC92:  MOVLW  20
0EC94:  MOVWF  FF7
0EC96:  MOVLW  00
0EC98:  MOVWF  FF8
0EC9A:  CALL   3F38
....................             SendDataDisplay(); 
0EC9E:  CALL   3F6A
0ECA2:  MOVLB  2
....................             //BorraBuffer(); 
....................          } 
....................       } 
....................       printf("fecha.txt=\"T:%2.1fC Fecha:%02u/%02u/20%02u Hora:%02u:%02u:%02u\"",Temperatura,Dia,Mes,Year,Hora,Minuto,Segundo); 
0ECA4:  MOVLW  B0
0ECA6:  MOVWF  FF6
0ECA8:  MOVLW  20
0ECAA:  MOVWF  FF7
0ECAC:  MOVLW  00
0ECAE:  MOVWF  FF8
0ECB0:  MOVLW  0D
0ECB2:  MOVLB  6
0ECB4:  MOVWF  x55
0ECB6:  MOVLB  0
0ECB8:  CALL   56B2
0ECBC:  MOVLW  01
0ECBE:  MOVWF  FE9
0ECC0:  MOVFF  1D9,658
0ECC4:  MOVFF  1D8,657
0ECC8:  MOVFF  1D7,656
0ECCC:  MOVFF  1D6,655
0ECD0:  MOVLB  6
0ECD2:  MOVWF  x59
0ECD4:  MOVLB  0
0ECD6:  CALL   57CE
0ECDA:  MOVLW  C2
0ECDC:  MOVWF  FF6
0ECDE:  MOVLW  20
0ECE0:  MOVWF  FF7
0ECE2:  MOVLW  00
0ECE4:  MOVWF  FF8
0ECE6:  MOVLW  09
0ECE8:  MOVLB  6
0ECEA:  MOVWF  x55
0ECEC:  MOVLB  0
0ECEE:  CALL   56B2
0ECF2:  MOVFF  23A,655
0ECF6:  MOVLW  01
0ECF8:  MOVLB  6
0ECFA:  MOVWF  x56
0ECFC:  MOVLB  0
0ECFE:  CALL   599E
0ED02:  MOVLW  2F
0ED04:  BTFSS  F9E.4
0ED06:  BRA    ED04
0ED08:  MOVWF  FAD
0ED0A:  MOVFF  239,655
0ED0E:  MOVLW  01
0ED10:  MOVLB  6
0ED12:  MOVWF  x56
0ED14:  MOVLB  0
0ED16:  CALL   599E
0ED1A:  MOVLW  2F
0ED1C:  BTFSS  F9E.4
0ED1E:  BRA    ED1C
0ED20:  MOVWF  FAD
0ED22:  MOVLW  32
0ED24:  BTFSS  F9E.4
0ED26:  BRA    ED24
0ED28:  MOVWF  FAD
0ED2A:  MOVLW  30
0ED2C:  BTFSS  F9E.4
0ED2E:  BRA    ED2C
0ED30:  MOVWF  FAD
0ED32:  MOVFF  238,655
0ED36:  MOVLW  01
0ED38:  MOVLB  6
0ED3A:  MOVWF  x56
0ED3C:  MOVLB  0
0ED3E:  CALL   599E
0ED42:  MOVLW  DB
0ED44:  MOVWF  FF6
0ED46:  MOVLW  20
0ED48:  MOVWF  FF7
0ED4A:  MOVLW  00
0ED4C:  MOVWF  FF8
0ED4E:  MOVLW  06
0ED50:  MOVLB  6
0ED52:  MOVWF  x55
0ED54:  MOVLB  0
0ED56:  CALL   56B2
0ED5A:  MOVFF  23B,655
0ED5E:  MOVLW  01
0ED60:  MOVLB  6
0ED62:  MOVWF  x56
0ED64:  MOVLB  0
0ED66:  CALL   599E
0ED6A:  MOVLW  3A
0ED6C:  BTFSS  F9E.4
0ED6E:  BRA    ED6C
0ED70:  MOVWF  FAD
0ED72:  MOVFF  23C,655
0ED76:  MOVLW  01
0ED78:  MOVLB  6
0ED7A:  MOVWF  x56
0ED7C:  MOVLB  0
0ED7E:  CALL   599E
0ED82:  MOVLW  3A
0ED84:  BTFSS  F9E.4
0ED86:  BRA    ED84
0ED88:  MOVWF  FAD
0ED8A:  MOVFF  23D,655
0ED8E:  MOVLW  01
0ED90:  MOVLB  6
0ED92:  MOVWF  x56
0ED94:  MOVLB  0
0ED96:  CALL   599E
0ED9A:  MOVLW  22
0ED9C:  BTFSS  F9E.4
0ED9E:  BRA    ED9C
0EDA0:  MOVWF  FAD
....................       SendDataDisplay();  
0EDA2:  CALL   3F6A
....................     } 
.................... //_--------------------------------------------------------------------------------------------------------------------------------------------------------        
....................  
....................    } 
0EDA6:  MOVLB  0
0EDA8:  GOTO   7AA4
.................... } 
0EDAC:  SLEEP 

Configuration Fuses:
   Word  1: 0200   HS NOIESO NOFCMEN
   Word  2: 1B1F   BROWNOUT WDT BORV20 NOPUT WDT8192
   Word  3: 0000   NOPBADEN NOLPT1OSC NOMCLR
   Word  4: 00B0   NOSTVREN NODEBUG NOLVP NOXINST BBSIZ4K
   Word  5: C03F   NOPROTECT NOCPD NOCPB
   Word  6: E03F   NOWRT NOWRTD NOWRTC NOWRTB
   Word  7: 403F   NOEBTR NOEBTRB
