CCS PCH C Compiler, Version 4.104, 5967               06-jul.-21 15:07

               Filename: D:\Laboratorio\Autoclave\Autoclave Horizontal\Con Precamara\2021\Autoclave 110L Biocacol OP2021110 #0045886XX\FirmwareV3.0.2-Pulsos-Alarmas-NivelVacio\NextionController\GLCD_Controller.lst

               ROM used: 67466 bytes (69%)
                         Largest free fragment is 25946
               RAM used: 1795 (54%) at main() level
                         1830 (55%) worst case
               Stack:    7 worst case (5 in main + 2 for interrupts)

*
00000:  GOTO   10000
*
00008:  GOTO   00AE
0000C:  NOP   
0000E:  NOP   
00010:  NOP   
00012:  NOP   
00014:  NOP   
00016:  NOP   
00018:  MOVWF  04
0001A:  MOVFF  FD8,05
0001E:  MOVFF  FE0,06
00022:  MOVLB  0
00024:  MOVFF  FE9,0C
00028:  MOVFF  FEA,07
0002C:  MOVFF  FE1,08
00030:  MOVFF  FE2,09
00034:  MOVFF  FD9,0A
00038:  MOVFF  FDA,0B
0003C:  MOVFF  FF3,12
00040:  MOVFF  FF4,13
00044:  MOVFF  FFA,14
00048:  MOVFF  FFB,15
0004C:  MOVFF  00,0E
00050:  MOVFF  01,0F
00054:  MOVFF  02,10
00058:  MOVFF  03,11
0005C:  BTFSS  F9D.0
0005E:  GOTO   0068
00062:  BTFSC  F9E.0
00064:  GOTO   1CB4
00068:  MOVFF  0E,00
0006C:  MOVFF  0F,01
00070:  MOVFF  10,02
00074:  MOVFF  11,03
00078:  MOVFF  0C,FE9
0007C:  MOVFF  07,FEA
00080:  BSF    07.7
00082:  MOVFF  08,FE1
00086:  MOVFF  09,FE2
0008A:  MOVFF  0A,FD9
0008E:  MOVFF  0B,FDA
00092:  MOVFF  12,FF3
00096:  MOVFF  13,FF4
0009A:  MOVFF  14,FFA
0009E:  MOVFF  15,FFB
000A2:  MOVF   04,W
000A4:  MOVFF  06,FE0
000A8:  MOVFF  05,FD8
000AC:  RETFIE 0
000AE:  MOVWF  17
000B0:  MOVFF  FD8,18
000B4:  MOVFF  FE0,19
000B8:  MOVLB  0
000BA:  MOVFF  FE9,1F
000BE:  MOVFF  FEA,1A
000C2:  MOVFF  FE1,1B
000C6:  MOVFF  FE2,1C
000CA:  MOVFF  FD9,1D
000CE:  MOVFF  FDA,1E
000D2:  MOVFF  FF3,25
000D6:  MOVFF  FF4,26
000DA:  MOVFF  FFA,27
000DE:  MOVFF  FFB,28
000E2:  MOVFF  00,21
000E6:  MOVFF  01,22
000EA:  MOVFF  02,23
000EE:  MOVFF  03,24
000F2:  BTFSS  F9D.5
000F4:  GOTO   00FE
000F8:  BTFSC  F9E.5
000FA:  GOTO   1C52
000FE:  MOVFF  21,00
00102:  MOVFF  22,01
00106:  MOVFF  23,02
0010A:  MOVFF  24,03
0010E:  MOVFF  1F,FE9
00112:  MOVFF  1A,FEA
00116:  BSF    1A.7
00118:  MOVFF  1B,FE1
0011C:  MOVFF  1C,FE2
00120:  MOVFF  1D,FD9
00124:  MOVFF  1E,FDA
00128:  MOVFF  25,FF3
0012C:  MOVFF  26,FF4
00130:  MOVFF  27,FFA
00134:  MOVFF  28,FFB
00138:  MOVF   17,W
0013A:  MOVFF  19,FE0
0013E:  MOVFF  18,FD8
00142:  RETFIE 0
.................... //Falta crear menu de ajuste de variables y de norma CFR21 
.................... //Falta revisar niveles de agua con variable calderin lleno de bomba de agua 
....................  
.................... #include <18F4685.h> 
.................... //////// Standard Header file for the PIC18F4685 device //////////////// 
.................... #device PIC18F4685 
.................... #list 
....................  
.................... #device adc=10 
.................... #device HIGH_INTS=TRUE //Activamos niveles de prioridad 
.................... #fuses HS,WDT4096,NOPROTECT,NOLVP,NODEBUG,NOSTVREN,PUT,NOCPD,NOWRT,NOIESO,NOFCMEN,NOPBADEN,NOWRTC,NOWRTB,NOEBTR,NOEBTRB,NOCPB,NOXINST,NOLPT1OSC,NOMCLR,NOBROWNOUT,BORV42 
.................... #use delay(clock=20000000) 
*
021D6:  MOVLW  07
021D8:  MOVWF  FEA
021DA:  MOVLW  18
021DC:  MOVWF  FE9
021DE:  MOVF   FEF,W
021E0:  BZ    21FC
021E2:  MOVLW  06
021E4:  MOVWF  01
021E6:  CLRF   00
021E8:  DECFSZ 00,F
021EA:  BRA    21E8
021EC:  DECFSZ 01,F
021EE:  BRA    21E6
021F0:  MOVLW  7B
021F2:  MOVWF  00
021F4:  DECFSZ 00,F
021F6:  BRA    21F4
021F8:  DECFSZ FEF,F
021FA:  BRA    21E2
021FC:  RETLW  00
.................... #use i2c(Master,slow,sda=PIN_C4,scl=PIN_C3) 
.................... #use rs232(baud=9600, xmit=PIN_C6, rcv=PIN_C7, bits=8, parity=N,errors) 
*
01C3A:  BTFSS  F9E.5
01C3C:  BRA    1C3A
01C3E:  MOVFF  FAB,2A
01C42:  MOVFF  FAE,01
01C46:  BTFSS  2A.1
01C48:  BRA    1C4E
01C4A:  BCF    FAB.4
01C4C:  BSF    FAB.4
01C4E:  GOTO   1C54 (RETURN)
*
0474A:  BTFSS  F9E.4
0474C:  BRA    474A
0474E:  MOVWF  FAD
04750:  RETLW  00
.................... #include <stdio.h> 
.................... /////////////////////////////////////////////////////////////////////////// 
.................... ////        (C) Copyright 1996,2003 Custom Computer Services           //// 
.................... //// This source code may only be used by licensed users of the CCS C  //// 
.................... //// compiler.  This source code may only be distributed to other      //// 
.................... //// licensed users of the CCS C compiler.  No other use, reproduction //// 
.................... //// or distribution is permitted without written permission.          //// 
.................... //// Derivative programs created using this software in object code    //// 
.................... //// form are not restricted in any way.                               //// 
.................... /////////////////////////////////////////////////////////////////////////// 
....................  
.................... #ifndef _STDIO 
.................... #define _STDIO 
.................... #include <string.h> 
.................... //////////////////////////////////////////////////////////////////////////// 
.................... ////        (C) Copyright 1996,2008 Custom Computer Services            //// 
.................... //// This source code may only be used by licensed users of the CCS C   //// 
.................... //// compiler.  This source code may only be distributed to other       //// 
.................... //// licensed users of the CCS C compiler.  No other use, reproduction  //// 
.................... //// or distribution is permitted without written permission.           //// 
.................... //// Derivative programs created using this software in object code     //// 
.................... //// form are not restricted in any way.                                //// 
.................... //////////////////////////////////////////////////////////////////////////// 
....................  
.................... #ifndef _STRING 
.................... #define _STRING 
.................... #include <stddef.h> 
.................... /////////////////////////////////////////////////////////////////////////// 
.................... ////        (C) Copyright 1996,2003 Custom Computer Services           //// 
.................... //// This source code may only be used by licensed users of the CCS C  //// 
.................... //// compiler.  This source code may only be distributed to other      //// 
.................... //// licensed users of the CCS C compiler.  No other use, reproduction //// 
.................... //// or distribution is permitted without written permission.          //// 
.................... //// Derivative programs created using this software in object code    //// 
.................... //// form are not restricted in any way.                               //// 
.................... /////////////////////////////////////////////////////////////////////////// 
....................  
.................... #ifndef _STDDEF 
....................  
.................... #define _STDDEF 
....................  
.................... #if sizeof(unsigned int8 *)==1 
.................... #define ptrdiff_t unsigned int8 
.................... #else 
.................... #define ptrdiff_t unsigned int16 
.................... #endif 
....................  
.................... #define size_t unsigned int8 
.................... #define wchar_t char 
.................... #define NULL 0 
....................  
.................... #define offsetof(s,f) (offsetofbit(s,f)/8) 
....................  
.................... #endif 
....................  
.................... #include <ctype.h> 
.................... //////////////////////////////////////////////////////////////////////////// 
.................... ////        (C) Copyright 1996,2003 Custom Computer Services            //// 
.................... //// This source code may only be used by licensed users of the CCS C   //// 
.................... //// compiler.  This source code may only be distributed to other       //// 
.................... //// licensed users of the CCS C compiler.  No other use, reproduction  //// 
.................... //// or distribution is permitted without written permission.           //// 
.................... //// Derivative programs created using this software in object code     //// 
.................... //// form are not restricted in any way.                                //// 
.................... //////////////////////////////////////////////////////////////////////////// 
....................  
.................... #ifndef _CTYPE 
.................... #define _CTYPE 
....................  
.................... #define islower(x)  isamong(x,"abcdefghijklmnopqrstuvwxyz") 
.................... #define isupper(x)  isamong(x,"ABCDEFGHIJKLMNOPQRSTUVWXYZ") 
.................... #define isalnum(x)  isamong(x,"0123456789ABCDEFGHIJKLMNOPQRSTUVWXYZabcdefghijklmnopqrstuvwxyz") 
.................... #define isalpha(x)  isamong(x,"ABCDEFGHIJKLMNOPQRSTUVWXYZabcdefghijklmnopqrstuvwxyz") 
.................... #define isdigit(x)  isamong(x,"0123456789") 
.................... #define isspace(x)  ((x)==' ') 
.................... #define isxdigit(x) isamong(x,"0123456789ABCDEFabcdef") 
.................... #define iscntrl(x)  ((x)<' ') 
.................... #define isprint(x)  ((x)>=' ') 
.................... #define isgraph(x)  ((x)>' ') 
.................... #define ispunct(x)  (((x)>' ')&&!isalnum(x)) 
....................  
.................... #endif 
....................  
....................  
....................  
....................  
....................  
.................... ////////////////////////////////////////////// 
.................... //// Uncomment the following define to    //// 
.................... //// allow some functions to use a        //// 
.................... //// quicker algorithm, but use more ROM  //// 
.................... ////                                      //// 
.................... //// #define FASTER_BUT_MORE_ROM          //// 
.................... ////////////////////////////////////////////// 
....................  
....................  
....................  
.................... /*Copying functions*/ 
.................... /* standard template: 
....................    void *memmove(void *s1, void *s2, size_t n). 
....................    Copies max of n characters safely (not following ending '\0') 
....................    from s2 in s1; if s2 has less than n characters, appends 0 */ 
....................  
.................... char *memmove(void *s1,char *s2,size_t n) 
.................... { 
....................    char *sc1; 
....................    char *sc2; 
....................    sc1=s1; 
....................    sc2=s2; 
....................    if(sc2<sc1 && sc1 <sc2 +n) 
....................       for(sc1+=n,sc2+=n;0<n;--n) 
....................          *--sc1=*--sc2; 
....................    else 
....................       for(;0<n;--n) 
....................          *sc1++=*sc2++; 
....................   return s1; 
....................   } 
....................  
.................... /* Standard template: char *strcpy(char *s1, const char *s2) 
....................    copies the string s2 including the null character to s1. 
....................    This is a compiler built in to handle the different address 
....................    spaces */ 
....................  
.................... #define strcopy strcpy 
....................  
.................... /* standard template: 
....................    char *strncpy(char *s1, const char *s2, size_t n). 
....................    Copies max of n characters (not following ending '\0') 
....................    from s2 in s1; if s2 has less than n characters, appends 0 */ 
....................  
.................... char *strncpy(char *s1, char *s2, size_t n) 
.................... { 
....................   char *s; 
....................  
....................   for (s = s1; n > 0 && *s2 != '\0'; n--) 
....................      *s++ = *s2++; 
....................   for (; n > 0; n--) 
....................      *s++ = '\0'; 
....................  
....................   return(s1); 
.................... } 
.................... /***********************************************************/ 
....................  
.................... /*concatenation functions*/ 
.................... /* standard template: char *strcat(char *s1, const char *s2) 
.................... appends s2 to s1*/ 
....................  
.................... char *strcat(char *s1, char *s2) 
.................... { 
....................    char *s; 
....................  
....................    for (s = s1; *s != '\0'; ++s); 
....................    while(*s2 != '\0') 
....................    { 
....................       *s = *s2; 
....................       ++s; 
....................       ++s2; 
....................    } 
....................  
....................    *s = '\0'; 
....................    return(s1); 
.................... } 
.................... /* standard template: char *strncat(char *s1, char *s2,size_t n) 
.................... appends not more than n characters from s2 to s1*/ 
....................  
.................... char *strncat(char *s1, char *s2, size_t n) 
.................... { 
....................    char *s; 
....................  
....................    for (s = s1; *s != '\0'; ++s); 
....................    while(*s2 != '\0' && 0<n) 
....................    { 
....................       *s = *s2; 
....................       ++s; 
....................       ++s2; 
....................       --n; 
....................    } 
....................  
....................    *s = '\0'; 
....................    return(s1); 
.................... } 
....................  
.................... /***********************************************************/ 
....................  
....................  
.................... /*comparison functions*/ 
.................... /* standard template: signed int memcmp(void *s1, void *s2). 
....................    Compares s1 & s2; returns -1 if s1<s2, 0 if s1=s2, 1 if s1>s2 */ 
....................  
.................... signed int8 memcmp(void * s1,char *s2,size_t n) 
.................... { 
.................... char *su1, *su2; 
.................... for(su1=s1, su2=s2; 0<n; ++su1, ++su2, --n) 
.................... { 
....................    if(*su1!=*su2) 
....................       return ((*su1<*su2)?-1:+1); 
.................... } 
.................... return 0; 
.................... } 
....................  
.................... /* standard template: int strcmp(const char *s1, const char *s2). 
....................    Compares s1 & s2; returns -1 if s1<s2, 0 if s1=s2, 1 if s1>s2 */ 
....................  
.................... signed int8 strcmp(char *s1, char *s2) 
.................... { 
....................    for (; *s1 == *s2; s1++, s2++) 
....................       if (*s1 == '\0') 
....................          return(0); 
....................    return((*s1 < *s2) ? -1: 1); 
.................... } 
.................... /* standard template: int strcoll(const char *s1, const char *s2). 
....................    Compares s1 & s2; returns -1 if s1<s2, 0 if s1=s2, 1 if s1>s2 */ 
....................  
.................... signed int8 strcoll(char *s1, char *s2) 
.................... { 
....................    for (; *s1 == *s2; s1++, s2++) 
....................       if (*s1 == '\0') 
....................          return(0); 
....................    return((*s1 < *s2) ? -1: 1); 
.................... } 
....................  
.................... /* standard template: 
....................    int strncmp(const char *s1, const char *s2, size_t n). 
....................    Compares max of n characters (not following 0) from s1 to s2; 
....................    returns same as strcmp */ 
....................  
.................... signed int8 strncmp(char *s1, char *s2, size_t n) 
.................... { 
....................    for (; n > 0; s1++, s2++, n--) 
....................       if (*s1 != *s2) 
....................          return((*s1 <*s2) ? -1: 1); 
....................       else if (*s1 == '\0') 
....................          return(0); 
....................    return(0); 
.................... } 
.................... /* standard template: 
....................    int strxfrm(const char *s1, const char *s2, size_t n). 
....................    transforms maximum of n characters from s2 and places them into s1*/ 
.................... size_t strxfrm(char *s1, char *s2, size_t n) 
.................... { 
....................   char *s; 
....................   unsigned int8 n1; 
....................   n1=n; 
....................   for (s = s1; n > 0 && *s2 != '\0'; n--) 
....................      *s++ = *s2++; 
....................   for (; n > 0; n--) 
....................      *s++ = '\0'; 
....................  
....................   return(n1); 
.................... } 
....................  
....................  
....................  
....................  
....................  
.................... /***********************************************************/ 
.................... /*Search functions*/ 
.................... /* standard template: void *memchr(const char *s, int c). 
....................    Finds first occurrence of c in n characters of s */ 
....................  
.................... char *memchr(void *s,unsigned int8 c,size_t n) 
.................... { 
....................    char uc; 
....................    char *su; 
....................    uc=c; 
....................    for(su=s;0<n;++su,--n) 
....................       if(*su==uc) 
....................       return su; 
....................    return NULL; 
.................... } 
....................  
.................... /* standard template: char *strchr(const char *s, int c). 
....................    Finds first occurrence of c in s */ 
....................  
.................... char *strchr(char *s, unsigned int8 c) 
.................... { 
....................    for (; *s != c; s++) 
....................       if (*s == '\0') 
....................          return(0); 
....................    return(s); 
.................... } 
.................... /* standard template: 
....................    size_t strcspn(const char *s1, const char *s2). 
....................    Computes length of max initial segment of s1 that 
....................    consists entirely of characters NOT from s2*/ 
....................  
.................... unsigned int8  strcspn(char *s1, char *s2) 
.................... { 
....................    char *sc1, *sc2; 
....................  
....................    for (sc1 = s1; *sc1 != 0; sc1++) 
....................       for (sc2 = s2; *sc2 != 0; sc2++) 
....................          if (*sc1 == *sc2) 
....................             return(sc1 - s1); 
....................    return(sc1 - s1); 
.................... } 
.................... /* standard template: 
....................    char *strpbrk(const char *s1, const char *s2). 
....................    Locates first occurence of any character from s2 in s1; 
....................    returns s1 if s2 is empty string */ 
....................  
.................... char *strpbrk(char *s1, char *s2) 
.................... { 
....................    char *sc1, *sc2; 
....................  
....................    for (sc1 = s1; *sc1 != 0; sc1++) 
....................       for (sc2 = s2; *sc2 != 0; sc2++) 
....................          if (*sc1 == *sc2) 
....................             return(sc1); 
....................    return(0); 
.................... } 
....................  
....................  
.................... /* standard template: char *strrchr(const char *s, int c). 
....................    Finds last occurrence of c in s */ 
....................  
.................... char *strrchr(char *s, unsigned int8 c) 
.................... { 
....................    char *p; 
....................  
....................    for (p = 0; ; s++) 
....................    { 
....................       if (*s == c) 
....................          p = s; 
....................       if (*s == '\0') 
....................          return(p); 
....................    } 
.................... } 
.................... /* computes length of max initial segment of s1 consisting 
....................    entirely of characters from s2 */ 
....................  
.................... unsigned int8  strspn(char *s1, char *s2) 
.................... { 
....................    char *sc1, *sc2; 
....................  
....................    for (sc1 = s1; *sc1 != 0; sc1++) 
....................       for (sc2 = s2; ; sc2++) 
....................     if (*sc2 == '\0') 
....................        return(sc1 - s1); 
....................          else if (*sc1 == *sc2) 
....................             break; 
....................    return(sc1 - s1); 
.................... } 
.................... /* standard template: 
....................    char *strstr(const char *s1, const char *s2); 
....................    Locates first occurence of character sequence s2 in s1; 
....................    returns 0 if s2 is empty string 
....................  
....................    Uncomment #define FASTER_BUT_MORE_ROM at the top of the 
....................    file to use the faster algorithm */ 
.................... char *strstr(char *s1, char *s2) 
.................... { 
....................    char *s, *t; 
....................  
....................    #ifdef FASTER_BUT_MORE_ROM 
....................    if (*s2 == '\0') 
....................          return(s1); 
....................    #endif 
....................  
....................    while (*s1) 
....................    { 
....................       for(s = s1, t = s2; *t && (*s == *t); ++s, ++t); 
....................  
....................       if (*t == '\0') 
....................          return s1; 
....................       ++s1; 
....................       #ifdef FASTER_BUT_MORE_ROM 
....................          while(*s1 != '\0' && *s1 != *s2) 
....................             ++s1; 
....................       #endif 
....................    } 
....................    return 0; 
.................... } 
....................  
.................... /* standard template: char *strtok(char *s1, const char *s2). 
....................  
....................    Finds next token in s1 delimited by a character from separator 
....................    string s2 (which can be different from call to call).  First call 
....................    starts at beginning of s1 searching for first character NOT 
....................    contained in s2; returns 0 if none is found. 
....................    If one is found, it is the start of first token (return value). 
....................    Function then searches from there for a character contained in s2. 
....................    If none is found, current token extends to end of s1, and subsequent 
....................    searches for a token will return 0.  If one is found, it is 
....................    overwritten by '\0', which terminates current token.  Function saves 
....................    pointer to following character from which next search will start. 
....................    Each subsequent call, with 0 as first argument, starts searching 
....................    from saved pointer */ 
....................  
.................... char *strtok(char *s1, char *s2) 
.................... { 
....................    char *beg, *end; 
....................    static char *save; 
....................  
....................    beg = (s1)? s1: save; 
....................    beg += strspn(beg, s2); 
....................    if (*beg == '\0') 
....................    { 
....................       *save = ' '; 
....................       return(0); 
....................    } 
....................    end = strpbrk(beg, s2); 
....................    if (*end != '\0') 
....................    { 
....................       *end = '\0'; 
....................       end++; 
....................    } 
....................    save = end; 
....................    return(beg); 
.................... } 
....................  
.................... /*****************************************************************/ 
.................... /*Miscellaneous functions*/ 
.................... /* standard template 
.................... maps error number in errnum to an error message string 
.................... Returns: Pointer to string 
.................... */ 
.................... #ifdef _ERRNO 
.................... char * strerror(unsigned int8 errnum) 
.................... { 
.................... char s[15]; 
.................... switch( errnum) 
.................... { 
.................... case 0: 
....................    strcpy(s,"no errors"); 
....................    return s; 
.................... case EDOM : 
....................    strcpy(s,"domain error"); 
....................    return s; 
.................... case ERANGE: 
....................    strcpy(s,"range error"); 
....................    return s; 
.................... } 
.................... } 
.................... #ENDIF 
.................... /* standard template: size_t strlen(const char *s). 
....................    Computes length of s1 (preceding terminating 0) */ 
....................  
.................... unsigned int8 strlen(char *s) 
.................... { 
....................    char *sc; 
....................  
....................    for (sc = s; *sc != 0; sc++); 
....................    return(sc - s); 
.................... } 
....................  
.................... /* standard template: size_t stricmp(const char *s1, const char *s2). 
....................    Compares s1 to s2 ignoring case (upper vs. lower) */ 
....................  
.................... signed int8 stricmp(char *s1, char *s2) 
.................... { 
....................  for(; *s1==*s2||(isalpha(*s1)&&isalpha(*s2)&&(*s1==*s2+32||*s2==*s1+32)); 
....................     s1++, s2++) 
....................     if (*s1 == '\0') 
....................        return(0); 
....................  return((*s1 < *s2) ? -1: 1); 
.................... } 
....................  
....................  
.................... /* standard template: char *strlwr(char *s). 
....................    Replaces uppercase letters by lowercase; 
....................    returns pointer to new string s */ 
....................  
.................... char *strlwr(char *s) 
.................... { 
....................    char *p; 
....................  
....................    for (p = s; *p != '\0'; p++) 
....................       if (*p >= 'A' && *p <='Z') 
....................          *p += 'a' - 'A'; 
....................    return(s); 
.................... } 
....................  
....................  
.................... /************************************************************/ 
....................  
....................  
.................... #endif 
....................  
.................... #ifndef getc 
.................... #define getc getch 
.................... #define getchar getch 
.................... #define puts(s) {printf(s); putchar(13); putchar(10);} 
.................... #define putc putchar 
.................... #endif 
.................... /* maps error number to an error message. Writes a sequence of characters to 
.................... stderr stream thus: if s is not null then string pointed to by s follwed by 
.................... a colon (:) and a space and the appropriate error message returned by strerror 
.................... function with argument errno 
....................  
.................... Returns: no value 
.................... */ 
....................  
.................... #ifdef _ERRNO 
.................... void perror(char *s) 
.................... { 
....................   if(s) 
....................   fprintf(STDERR,"%s: ",s); 
....................   fprintf(STDERR,"%s\r\n",strerror(errno)); 
.................... } 
.................... #endif 
.................... #endif 
....................  
.................... #include <string.h> 
.................... //////////////////////////////////////////////////////////////////////////// 
.................... ////        (C) Copyright 1996,2008 Custom Computer Services            //// 
.................... //// This source code may only be used by licensed users of the CCS C   //// 
.................... //// compiler.  This source code may only be distributed to other       //// 
.................... //// licensed users of the CCS C compiler.  No other use, reproduction  //// 
.................... //// or distribution is permitted without written permission.           //// 
.................... //// Derivative programs created using this software in object code     //// 
.................... //// form are not restricted in any way.                                //// 
.................... //////////////////////////////////////////////////////////////////////////// 
....................  
.................... #ifndef _STRING 
.................... #define _STRING 
.................... #include <stddef.h> 
.................... #include <ctype.h> 
....................  
....................  
....................  
.................... ////////////////////////////////////////////// 
.................... //// Uncomment the following define to    //// 
.................... //// allow some functions to use a        //// 
.................... //// quicker algorithm, but use more ROM  //// 
.................... ////                                      //// 
.................... //// #define FASTER_BUT_MORE_ROM          //// 
.................... ////////////////////////////////////////////// 
....................  
....................  
....................  
.................... /*Copying functions*/ 
.................... /* standard template: 
....................    void *memmove(void *s1, void *s2, size_t n). 
....................    Copies max of n characters safely (not following ending '\0') 
....................    from s2 in s1; if s2 has less than n characters, appends 0 */ 
....................  
.................... char *memmove(void *s1,char *s2,size_t n) 
.................... { 
....................    char *sc1; 
....................    char *sc2; 
....................    sc1=s1; 
....................    sc2=s2; 
....................    if(sc2<sc1 && sc1 <sc2 +n) 
....................       for(sc1+=n,sc2+=n;0<n;--n) 
....................          *--sc1=*--sc2; 
....................    else 
....................       for(;0<n;--n) 
....................          *sc1++=*sc2++; 
....................   return s1; 
....................   } 
....................  
.................... /* Standard template: char *strcpy(char *s1, const char *s2) 
....................    copies the string s2 including the null character to s1. 
....................    This is a compiler built in to handle the different address 
....................    spaces */ 
....................  
.................... #define strcopy strcpy 
....................  
.................... /* standard template: 
....................    char *strncpy(char *s1, const char *s2, size_t n). 
....................    Copies max of n characters (not following ending '\0') 
....................    from s2 in s1; if s2 has less than n characters, appends 0 */ 
....................  
.................... char *strncpy(char *s1, char *s2, size_t n) 
.................... { 
....................   char *s; 
....................  
....................   for (s = s1; n > 0 && *s2 != '\0'; n--) 
....................      *s++ = *s2++; 
....................   for (; n > 0; n--) 
....................      *s++ = '\0'; 
....................  
....................   return(s1); 
.................... } 
.................... /***********************************************************/ 
....................  
.................... /*concatenation functions*/ 
.................... /* standard template: char *strcat(char *s1, const char *s2) 
.................... appends s2 to s1*/ 
....................  
.................... char *strcat(char *s1, char *s2) 
.................... { 
....................    char *s; 
....................  
....................    for (s = s1; *s != '\0'; ++s); 
....................    while(*s2 != '\0') 
....................    { 
....................       *s = *s2; 
....................       ++s; 
....................       ++s2; 
....................    } 
....................  
....................    *s = '\0'; 
....................    return(s1); 
.................... } 
.................... /* standard template: char *strncat(char *s1, char *s2,size_t n) 
.................... appends not more than n characters from s2 to s1*/ 
....................  
.................... char *strncat(char *s1, char *s2, size_t n) 
.................... { 
....................    char *s; 
....................  
....................    for (s = s1; *s != '\0'; ++s); 
....................    while(*s2 != '\0' && 0<n) 
....................    { 
....................       *s = *s2; 
....................       ++s; 
....................       ++s2; 
....................       --n; 
....................    } 
....................  
....................    *s = '\0'; 
....................    return(s1); 
.................... } 
....................  
.................... /***********************************************************/ 
....................  
....................  
.................... /*comparison functions*/ 
.................... /* standard template: signed int memcmp(void *s1, void *s2). 
....................    Compares s1 & s2; returns -1 if s1<s2, 0 if s1=s2, 1 if s1>s2 */ 
....................  
.................... signed int8 memcmp(void * s1,char *s2,size_t n) 
.................... { 
.................... char *su1, *su2; 
.................... for(su1=s1, su2=s2; 0<n; ++su1, ++su2, --n) 
.................... { 
....................    if(*su1!=*su2) 
....................       return ((*su1<*su2)?-1:+1); 
.................... } 
.................... return 0; 
.................... } 
....................  
.................... /* standard template: int strcmp(const char *s1, const char *s2). 
....................    Compares s1 & s2; returns -1 if s1<s2, 0 if s1=s2, 1 if s1>s2 */ 
....................  
.................... signed int8 strcmp(char *s1, char *s2) 
.................... { 
....................    for (; *s1 == *s2; s1++, s2++) 
....................       if (*s1 == '\0') 
....................          return(0); 
....................    return((*s1 < *s2) ? -1: 1); 
.................... } 
.................... /* standard template: int strcoll(const char *s1, const char *s2). 
....................    Compares s1 & s2; returns -1 if s1<s2, 0 if s1=s2, 1 if s1>s2 */ 
....................  
.................... signed int8 strcoll(char *s1, char *s2) 
.................... { 
....................    for (; *s1 == *s2; s1++, s2++) 
....................       if (*s1 == '\0') 
....................          return(0); 
....................    return((*s1 < *s2) ? -1: 1); 
.................... } 
....................  
.................... /* standard template: 
....................    int strncmp(const char *s1, const char *s2, size_t n). 
....................    Compares max of n characters (not following 0) from s1 to s2; 
....................    returns same as strcmp */ 
....................  
.................... signed int8 strncmp(char *s1, char *s2, size_t n) 
.................... { 
....................    for (; n > 0; s1++, s2++, n--) 
....................       if (*s1 != *s2) 
....................          return((*s1 <*s2) ? -1: 1); 
....................       else if (*s1 == '\0') 
....................          return(0); 
....................    return(0); 
.................... } 
.................... /* standard template: 
....................    int strxfrm(const char *s1, const char *s2, size_t n). 
....................    transforms maximum of n characters from s2 and places them into s1*/ 
.................... size_t strxfrm(char *s1, char *s2, size_t n) 
.................... { 
....................   char *s; 
....................   unsigned int8 n1; 
....................   n1=n; 
....................   for (s = s1; n > 0 && *s2 != '\0'; n--) 
....................      *s++ = *s2++; 
....................   for (; n > 0; n--) 
....................      *s++ = '\0'; 
....................  
....................   return(n1); 
.................... } 
....................  
....................  
....................  
....................  
....................  
.................... /***********************************************************/ 
.................... /*Search functions*/ 
.................... /* standard template: void *memchr(const char *s, int c). 
....................    Finds first occurrence of c in n characters of s */ 
....................  
.................... char *memchr(void *s,unsigned int8 c,size_t n) 
.................... { 
....................    char uc; 
....................    char *su; 
....................    uc=c; 
....................    for(su=s;0<n;++su,--n) 
....................       if(*su==uc) 
....................       return su; 
....................    return NULL; 
.................... } 
....................  
.................... /* standard template: char *strchr(const char *s, int c). 
....................    Finds first occurrence of c in s */ 
....................  
.................... char *strchr(char *s, unsigned int8 c) 
.................... { 
....................    for (; *s != c; s++) 
....................       if (*s == '\0') 
....................          return(0); 
....................    return(s); 
.................... } 
.................... /* standard template: 
....................    size_t strcspn(const char *s1, const char *s2). 
....................    Computes length of max initial segment of s1 that 
....................    consists entirely of characters NOT from s2*/ 
....................  
.................... unsigned int8  strcspn(char *s1, char *s2) 
.................... { 
....................    char *sc1, *sc2; 
....................  
....................    for (sc1 = s1; *sc1 != 0; sc1++) 
....................       for (sc2 = s2; *sc2 != 0; sc2++) 
....................          if (*sc1 == *sc2) 
....................             return(sc1 - s1); 
....................    return(sc1 - s1); 
.................... } 
.................... /* standard template: 
....................    char *strpbrk(const char *s1, const char *s2). 
....................    Locates first occurence of any character from s2 in s1; 
....................    returns s1 if s2 is empty string */ 
....................  
.................... char *strpbrk(char *s1, char *s2) 
.................... { 
....................    char *sc1, *sc2; 
....................  
....................    for (sc1 = s1; *sc1 != 0; sc1++) 
....................       for (sc2 = s2; *sc2 != 0; sc2++) 
....................          if (*sc1 == *sc2) 
....................             return(sc1); 
....................    return(0); 
.................... } 
....................  
....................  
.................... /* standard template: char *strrchr(const char *s, int c). 
....................    Finds last occurrence of c in s */ 
....................  
.................... char *strrchr(char *s, unsigned int8 c) 
.................... { 
....................    char *p; 
....................  
....................    for (p = 0; ; s++) 
....................    { 
....................       if (*s == c) 
....................          p = s; 
....................       if (*s == '\0') 
....................          return(p); 
....................    } 
.................... } 
.................... /* computes length of max initial segment of s1 consisting 
....................    entirely of characters from s2 */ 
....................  
.................... unsigned int8  strspn(char *s1, char *s2) 
.................... { 
....................    char *sc1, *sc2; 
....................  
....................    for (sc1 = s1; *sc1 != 0; sc1++) 
....................       for (sc2 = s2; ; sc2++) 
....................     if (*sc2 == '\0') 
....................        return(sc1 - s1); 
....................          else if (*sc1 == *sc2) 
....................             break; 
....................    return(sc1 - s1); 
.................... } 
.................... /* standard template: 
....................    char *strstr(const char *s1, const char *s2); 
....................    Locates first occurence of character sequence s2 in s1; 
....................    returns 0 if s2 is empty string 
....................  
....................    Uncomment #define FASTER_BUT_MORE_ROM at the top of the 
....................    file to use the faster algorithm */ 
.................... char *strstr(char *s1, char *s2) 
.................... { 
....................    char *s, *t; 
....................  
....................    #ifdef FASTER_BUT_MORE_ROM 
....................    if (*s2 == '\0') 
....................          return(s1); 
....................    #endif 
....................  
....................    while (*s1) 
....................    { 
....................       for(s = s1, t = s2; *t && (*s == *t); ++s, ++t); 
....................  
....................       if (*t == '\0') 
....................          return s1; 
....................       ++s1; 
....................       #ifdef FASTER_BUT_MORE_ROM 
....................          while(*s1 != '\0' && *s1 != *s2) 
....................             ++s1; 
....................       #endif 
....................    } 
....................    return 0; 
.................... } 
....................  
.................... /* standard template: char *strtok(char *s1, const char *s2). 
....................  
....................    Finds next token in s1 delimited by a character from separator 
....................    string s2 (which can be different from call to call).  First call 
....................    starts at beginning of s1 searching for first character NOT 
....................    contained in s2; returns 0 if none is found. 
....................    If one is found, it is the start of first token (return value). 
....................    Function then searches from there for a character contained in s2. 
....................    If none is found, current token extends to end of s1, and subsequent 
....................    searches for a token will return 0.  If one is found, it is 
....................    overwritten by '\0', which terminates current token.  Function saves 
....................    pointer to following character from which next search will start. 
....................    Each subsequent call, with 0 as first argument, starts searching 
....................    from saved pointer */ 
....................  
.................... char *strtok(char *s1, char *s2) 
.................... { 
....................    char *beg, *end; 
....................    static char *save; 
....................  
....................    beg = (s1)? s1: save; 
....................    beg += strspn(beg, s2); 
....................    if (*beg == '\0') 
....................    { 
....................       *save = ' '; 
....................       return(0); 
....................    } 
....................    end = strpbrk(beg, s2); 
....................    if (*end != '\0') 
....................    { 
....................       *end = '\0'; 
....................       end++; 
....................    } 
....................    save = end; 
....................    return(beg); 
.................... } 
....................  
.................... /*****************************************************************/ 
.................... /*Miscellaneous functions*/ 
.................... /* standard template 
.................... maps error number in errnum to an error message string 
.................... Returns: Pointer to string 
.................... */ 
.................... #ifdef _ERRNO 
.................... char * strerror(unsigned int8 errnum) 
.................... { 
.................... char s[15]; 
.................... switch( errnum) 
.................... { 
.................... case 0: 
....................    strcpy(s,"no errors"); 
....................    return s; 
.................... case EDOM : 
....................    strcpy(s,"domain error"); 
....................    return s; 
.................... case ERANGE: 
....................    strcpy(s,"range error"); 
....................    return s; 
.................... } 
.................... } 
.................... #ENDIF 
.................... /* standard template: size_t strlen(const char *s). 
....................    Computes length of s1 (preceding terminating 0) */ 
....................  
.................... unsigned int8 strlen(char *s) 
.................... { 
....................    char *sc; 
....................  
....................    for (sc = s; *sc != 0; sc++); 
....................    return(sc - s); 
.................... } 
....................  
.................... /* standard template: size_t stricmp(const char *s1, const char *s2). 
....................    Compares s1 to s2 ignoring case (upper vs. lower) */ 
....................  
.................... signed int8 stricmp(char *s1, char *s2) 
.................... { 
....................  for(; *s1==*s2||(isalpha(*s1)&&isalpha(*s2)&&(*s1==*s2+32||*s2==*s1+32)); 
....................     s1++, s2++) 
....................     if (*s1 == '\0') 
....................        return(0); 
....................  return((*s1 < *s2) ? -1: 1); 
.................... } 
....................  
....................  
.................... /* standard template: char *strlwr(char *s). 
....................    Replaces uppercase letters by lowercase; 
....................    returns pointer to new string s */ 
....................  
.................... char *strlwr(char *s) 
.................... { 
....................    char *p; 
....................  
....................    for (p = s; *p != '\0'; p++) 
....................       if (*p >= 'A' && *p <='Z') 
....................          *p += 'a' - 'A'; 
....................    return(s); 
.................... } 
....................  
....................  
.................... /************************************************************/ 
....................  
....................  
.................... #endif 
....................  
.................... #include <stdlib.h> 
.................... /////////////////////////////////////////////////////////////////////////// 
.................... ////        (C) Copyright 1996,2007 Custom Computer Services           //// 
.................... //// This source code may only be used by licensed users of the CCS C  //// 
.................... //// compiler.  This source code may only be distributed to other      //// 
.................... //// licensed users of the CCS C compiler.  No other use, reproduction //// 
.................... //// or distribution is permitted without written permission.          //// 
.................... //// Derivative programs created using this software in object code    //// 
.................... //// form are not restricted in any way.                               //// 
.................... /////////////////////////////////////////////////////////////////////////// 
....................  
.................... #ifndef _STDLIB 
.................... #define _STDLIB 
....................  
.................... //--------------------------------------------------------------------------- 
.................... // Definitions and types 
.................... //--------------------------------------------------------------------------- 
....................  
.................... #ifndef RAND_MAX 
.................... #define RAND_MAX  32767    // The value of which is the maximum value 
....................                            // ... returned by the rand function 
.................... #endif 
....................  
....................  
.................... #IF (sizeof(int16*)>1) 
.................... #DEFINE LONG_POINTERS 1 
.................... #ELSE  
.................... #DEFINE LONG_POINTERS 0 
.................... #ENDIF 
....................  
.................... typedef struct { 
....................    signed int quot; 
....................    signed int rem; 
.................... } div_t; 
....................  
.................... typedef struct { 
....................    signed long quot; 
....................    signed long rem; 
.................... } ldiv_t; 
....................  
.................... #include <stddef.h> 
.................... /////////////////////////////////////////////////////////////////////////// 
.................... ////        (C) Copyright 1996,2003 Custom Computer Services           //// 
.................... //// This source code may only be used by licensed users of the CCS C  //// 
.................... //// compiler.  This source code may only be distributed to other      //// 
.................... //// licensed users of the CCS C compiler.  No other use, reproduction //// 
.................... //// or distribution is permitted without written permission.          //// 
.................... //// Derivative programs created using this software in object code    //// 
.................... //// form are not restricted in any way.                               //// 
.................... /////////////////////////////////////////////////////////////////////////// 
....................  
.................... #ifndef _STDDEF 
....................  
.................... #define _STDDEF 
....................  
.................... #if sizeof(unsigned int8 *)==1 
.................... #define ptrdiff_t unsigned int8 
.................... #else 
.................... #define ptrdiff_t unsigned int16 
.................... #endif 
....................  
.................... #define size_t unsigned int8 
.................... #define wchar_t char 
.................... #define NULL 0 
....................  
.................... #define offsetof(s,f) (offsetofbit(s,f)/8) 
....................  
.................... #endif 
....................  
....................  
.................... //--------------------------------------------------------------------------- 
.................... // String conversion functions 
.................... //--------------------------------------------------------------------------- 
....................  
.................... /* Standard template: signed int  atoi(char * s) 
....................  * converts the initial portion of the string s to a signed int 
....................  * returns the converted value if any, 0 otherwise 
....................  */ 
.................... signed int atoi(char *s); 
....................  
.................... /* Syntax: signed int32  atoi32(char * s) 
....................    converts the initial portion of the string s to a signed int32 
....................    returns the converted value if any, 0 otherwise*/ 
.................... #if (sizeof(long)==4) 
....................  #define atoi32(s) atol(s) 
.................... #else  
....................  signed int32 atoi32(char *s); 
.................... #endif 
....................  
.................... #if defined(__PCD__) 
.................... // The following functions only work on the 24 bit compiler 
.................... // for the 30F, 33F, 24F and 24H parts 
.................... /* Syntax: signed int48  atoi48(char * s) 
....................    converts the initial portion of the string s to a signed int48 
....................    returns the converted value if any, 0 otherwise*/ 
....................     
.................... signed int48 atoi48(char *s); 
....................  
.................... /* Syntax: signed int64  atoi64(char * s) 
....................    converts the initial portion of the string s to a signed int64 
....................    returns the converted value if any, 0 otherwise*/ 
.................... signed int64 atoi64(char *s); 
.................... #endif 
....................  
.................... /* Syntax: char *  itoa(signed int32 num, int8 base, char * s) 
....................    converts the signed int32 to a string and 
....................    returns the converted value if any, 0 otherwise*/ 
.................... char * itoa(signed int32 num, unsigned int base, char * s); 
....................  
.................... /* Standard template: signed int16  atol(char * s) 
....................  * converts the initial portion of the string s to a signed int16 
....................  * returns the converted value if any, 0 otherwise 
....................  */ 
.................... signed long atol(char *s); 
....................  
.................... /* Standard template: int16 strtoul(char * s,char *endptr,signed int base) 
....................  * converts the initial portion of the string s, represented as an 
....................  * integral value of radix base  to a signed long. 
....................  * Returns the converted value if any, 0 otherwise 
....................  * the final string is returned in the endptr, if endptr is not null 
....................  */ 
.................... signed long strtol(char *s,char *endptr, signed int base); 
....................  
.................... /* Standard template: int16 strtoul(char * s,char *endptr,signed int base) 
....................  * converts the initial portion of the string s, represented as an 
....................  * integral value of radix base to a unsigned long. 
....................  * returns the converted value if any, 0 otherwise 
....................  * the final string is returned in the endptr, if endptr is not null 
....................  */ 
.................... unsigned long strtoul(char *s,char *endptr, signed int base); 
....................  
.................... /* Standart template: float strtof(char * s,char *endptr) 
....................                       float48 strtof48(char *s,char *endptr); 
....................                       float64 strtod(char *s,char *endptr); 
....................  * converts the initial portion of the string s to a float32, float48 or float64, 
....................  * returns the converted value if any, 0 otherwise 
....................  * the final string is returned in the endptr, if endptr is not null                    
.................... */ 
.................... float strtof(char *s,char *endptr); 
.................... #if defined(__PCD__) 
.................... float48 strtof48(char *s,char *endptr); 
.................... float64 strtod(char *s,char *endptr); 
.................... #else 
.................... //provided for compatibility 
.................... #define strtof48(s, e) strtof(s, e) 
.................... #define strtod(s, e) strtof(s, e) 
.................... #endif 
....................  
.................... /* Standard template: float32 atof(char * s) 
....................  * converts the initial portion of the string s to a float. 
....................  * returns the converted value if any, 0 otherwise 
....................  */ 
.................... #define atof(s)   strtof(s, 0) 
....................  
.................... #if defined(__PCD__) 
.................... // The following functions only work on the 24 bit compiler 
.................... // for the 30F, 33F, 24F and 24H parts 
....................  
.................... /* Standard template: float48 atof48(char * s) 
....................  * converts the initial portion of the string s to a float. 
....................  * returns the converted value if any, 0 otherwise 
....................  */ 
.................... #define atof48(s) strtof48(s, 0) 
....................  
.................... /* Standard template: float64 atof64(char * s) 
....................  * converts the initial portion of the string s to a float. 
....................  * returns the converted value if any, 0 otherwise 
....................  */ 
.................... #define atof64(s) strtod(s, 0) 
.................... #endif 
....................  
.................... /* Standard template: float32 atoe(char * s) 
....................  * converts the initial portion of the string s to a float. 
....................  * returns the converted value if any, 0 otherwise 
....................  * also handles E format numbers 
....................  */ 
.................... #if !defined(__PCD__) 
.................... float atoe(char * s); 
.................... #endif 
....................  
.................... #if defined(__PCD__) 
.................... float32 atoe(char * s); 
.................... #endif 
....................  
.................... //--------------------------------------------------------------------------- 
.................... // Pseudo-random sequence generation functions 
.................... //--------------------------------------------------------------------------- 
....................  
.................... /* The rand function computes a sequence of pseudo-random integers in 
....................  * the range 0 to RAND_MAX 
....................  * 
....................  * Parameters: 
....................  *       (none) 
....................  * 
....................  * Returns: 
....................  *       The pseudo-random integer 
....................  */ 
.................... unsigned int16 rand(void); 
....................  
.................... /* The srand function uses the argument as a seed for a new sequence of 
....................  * pseudo-random numbers to be returned by subsequent calls to rand. 
....................  * 
....................  * Parameters: 
....................  *       [in] seed: The seed value to start from. You might need to pass 
....................  * 
....................  * Returns: 
....................  *       (none) 
....................  * 
....................  * Remarks 
....................  *          The srand function sets the starting point for generating 
....................  *       a series of pseudorandom integers. To reinitialize the 
....................  *       generator, use 1 as the seed argument. Any other value for 
....................  *       seed sets the generator to a random starting point. rand 
....................  *       retrieves the pseudorandom numbers that are generated. 
....................  *       Calling rand before any call to srand generates the same 
....................  *       sequence as calling srand with seed passed as 1. 
....................  *          Usually, you need to pass a time here from outer source 
....................  *       so that the numbers will be different every time you run. 
....................  */ 
.................... void srand(unsigned int32 seed); 
....................  
.................... //--------------------------------------------------------------------------- 
.................... // Memory management functions 
.................... //--------------------------------------------------------------------------- 
....................  
.................... // Comming soon 
....................  
.................... //--------------------------------------------------------------------------- 
.................... // Communication with the environment 
.................... //--------------------------------------------------------------------------- 
....................  
.................... /* The function returns 0 always 
....................  */ 
.................... signed int8 system(char *string); 
....................  
.................... //--------------------------------------------------------------------------- 
.................... // Searching and sorting utilities 
.................... //--------------------------------------------------------------------------- 
....................  
.................... /* Performs a binary search of a sorted array.. 
....................  * 
....................  * Parameters: 
....................  *       [in] key: Object to search for 
....................  *       [in] base: Pointer to base of search data 
....................  *       [in] num: Number of elements 
....................  *       [in] width: Width of elements 
....................  *       [in] compare: Function that compares two elements 
....................  * 
....................  * Returns: 
....................  *       bsearch returns a pointer to an occurrence of key in the array pointed 
....................  *       to by base. If key is not found, the function returns NULL. If the 
....................  *       array is not in order or contains duplicate records with identical keys, 
....................  *       the result is unpredictable. 
....................  */ 
.................... //void *bsearch(const void *key, const void *base, size_t num, size_t width, 
.................... //              int (*compare)(const void *, const void *)); 
....................  
.................... /* Performs the shell-metzner sort (not the quick sort algorithm). The contents 
....................  * of the array are sorted into ascending order according to a comparison 
....................  * function pointed to by compar. 
....................  * 
....................  * Parameters: 
....................  *       [in] base: Pointer to base of search data 
....................  *       [in] num: Number of elements 
....................  *       [in] width: Width of elements 
....................  *       [in] compare: Function that compares two elements 
....................  * 
....................  * Returns: 
....................  *       (none) 
....................  */ 
.................... //void *qsort(const void *base, size_t num, size_t width, 
.................... //              int (*compare)(const void *, const void *)); 
....................  
.................... //--------------------------------------------------------------------------- 
.................... // Integer arithmetic functions 
.................... //--------------------------------------------------------------------------- 
....................  
.................... #define labs abs 
....................  
.................... div_t div(signed int numer, signed int denom); 
.................... ldiv_t ldiv(signed long numer, signed long denom); 
....................  
.................... //--------------------------------------------------------------------------- 
.................... // Multibyte character functions 
.................... //--------------------------------------------------------------------------- 
....................  
.................... // Not supported 
....................  
.................... //--------------------------------------------------------------------------- 
.................... // Multibyte string functions 
.................... //--------------------------------------------------------------------------- 
....................  
.................... // Not supported 
....................  
....................  
.................... //--------------------------------------------------------------------------- 
.................... // Internal implementation 
.................... //--------------------------------------------------------------------------- 
....................  
.................... #include <stddef.h> 
.................... /////////////////////////////////////////////////////////////////////////// 
.................... ////        (C) Copyright 1996,2003 Custom Computer Services           //// 
.................... //// This source code may only be used by licensed users of the CCS C  //// 
.................... //// compiler.  This source code may only be distributed to other      //// 
.................... //// licensed users of the CCS C compiler.  No other use, reproduction //// 
.................... //// or distribution is permitted without written permission.          //// 
.................... //// Derivative programs created using this software in object code    //// 
.................... //// form are not restricted in any way.                               //// 
.................... /////////////////////////////////////////////////////////////////////////// 
....................  
.................... #ifndef _STDDEF 
....................  
.................... #define _STDDEF 
....................  
.................... #if sizeof(unsigned int8 *)==1 
.................... #define ptrdiff_t unsigned int8 
.................... #else 
.................... #define ptrdiff_t unsigned int16 
.................... #endif 
....................  
.................... #define size_t unsigned int8 
.................... #define wchar_t char 
.................... #define NULL 0 
....................  
.................... #define offsetof(s,f) (offsetofbit(s,f)/8) 
....................  
.................... #endif 
....................  
.................... #include <string.h> 
.................... //////////////////////////////////////////////////////////////////////////// 
.................... ////        (C) Copyright 1996,2008 Custom Computer Services            //// 
.................... //// This source code may only be used by licensed users of the CCS C   //// 
.................... //// compiler.  This source code may only be distributed to other       //// 
.................... //// licensed users of the CCS C compiler.  No other use, reproduction  //// 
.................... //// or distribution is permitted without written permission.           //// 
.................... //// Derivative programs created using this software in object code     //// 
.................... //// form are not restricted in any way.                                //// 
.................... //////////////////////////////////////////////////////////////////////////// 
....................  
.................... #ifndef _STRING 
.................... #define _STRING 
.................... #include <stddef.h> 
.................... #include <ctype.h> 
....................  
....................  
....................  
.................... ////////////////////////////////////////////// 
.................... //// Uncomment the following define to    //// 
.................... //// allow some functions to use a        //// 
.................... //// quicker algorithm, but use more ROM  //// 
.................... ////                                      //// 
.................... //// #define FASTER_BUT_MORE_ROM          //// 
.................... ////////////////////////////////////////////// 
....................  
....................  
....................  
.................... /*Copying functions*/ 
.................... /* standard template: 
....................    void *memmove(void *s1, void *s2, size_t n). 
....................    Copies max of n characters safely (not following ending '\0') 
....................    from s2 in s1; if s2 has less than n characters, appends 0 */ 
....................  
.................... char *memmove(void *s1,char *s2,size_t n) 
.................... { 
....................    char *sc1; 
....................    char *sc2; 
....................    sc1=s1; 
....................    sc2=s2; 
....................    if(sc2<sc1 && sc1 <sc2 +n) 
....................       for(sc1+=n,sc2+=n;0<n;--n) 
....................          *--sc1=*--sc2; 
....................    else 
....................       for(;0<n;--n) 
....................          *sc1++=*sc2++; 
....................   return s1; 
....................   } 
....................  
.................... /* Standard template: char *strcpy(char *s1, const char *s2) 
....................    copies the string s2 including the null character to s1. 
....................    This is a compiler built in to handle the different address 
....................    spaces */ 
....................  
.................... #define strcopy strcpy 
....................  
.................... /* standard template: 
....................    char *strncpy(char *s1, const char *s2, size_t n). 
....................    Copies max of n characters (not following ending '\0') 
....................    from s2 in s1; if s2 has less than n characters, appends 0 */ 
....................  
.................... char *strncpy(char *s1, char *s2, size_t n) 
.................... { 
....................   char *s; 
....................  
....................   for (s = s1; n > 0 && *s2 != '\0'; n--) 
....................      *s++ = *s2++; 
....................   for (; n > 0; n--) 
....................      *s++ = '\0'; 
....................  
....................   return(s1); 
.................... } 
.................... /***********************************************************/ 
....................  
.................... /*concatenation functions*/ 
.................... /* standard template: char *strcat(char *s1, const char *s2) 
.................... appends s2 to s1*/ 
....................  
.................... char *strcat(char *s1, char *s2) 
.................... { 
....................    char *s; 
....................  
....................    for (s = s1; *s != '\0'; ++s); 
....................    while(*s2 != '\0') 
....................    { 
....................       *s = *s2; 
....................       ++s; 
....................       ++s2; 
....................    } 
....................  
....................    *s = '\0'; 
....................    return(s1); 
.................... } 
.................... /* standard template: char *strncat(char *s1, char *s2,size_t n) 
.................... appends not more than n characters from s2 to s1*/ 
....................  
.................... char *strncat(char *s1, char *s2, size_t n) 
.................... { 
....................    char *s; 
....................  
....................    for (s = s1; *s != '\0'; ++s); 
....................    while(*s2 != '\0' && 0<n) 
....................    { 
....................       *s = *s2; 
....................       ++s; 
....................       ++s2; 
....................       --n; 
....................    } 
....................  
....................    *s = '\0'; 
....................    return(s1); 
.................... } 
....................  
.................... /***********************************************************/ 
....................  
....................  
.................... /*comparison functions*/ 
.................... /* standard template: signed int memcmp(void *s1, void *s2). 
....................    Compares s1 & s2; returns -1 if s1<s2, 0 if s1=s2, 1 if s1>s2 */ 
....................  
.................... signed int8 memcmp(void * s1,char *s2,size_t n) 
.................... { 
.................... char *su1, *su2; 
.................... for(su1=s1, su2=s2; 0<n; ++su1, ++su2, --n) 
.................... { 
....................    if(*su1!=*su2) 
....................       return ((*su1<*su2)?-1:+1); 
.................... } 
.................... return 0; 
.................... } 
....................  
.................... /* standard template: int strcmp(const char *s1, const char *s2). 
....................    Compares s1 & s2; returns -1 if s1<s2, 0 if s1=s2, 1 if s1>s2 */ 
....................  
.................... signed int8 strcmp(char *s1, char *s2) 
.................... { 
....................    for (; *s1 == *s2; s1++, s2++) 
....................       if (*s1 == '\0') 
....................          return(0); 
....................    return((*s1 < *s2) ? -1: 1); 
.................... } 
.................... /* standard template: int strcoll(const char *s1, const char *s2). 
....................    Compares s1 & s2; returns -1 if s1<s2, 0 if s1=s2, 1 if s1>s2 */ 
....................  
.................... signed int8 strcoll(char *s1, char *s2) 
.................... { 
....................    for (; *s1 == *s2; s1++, s2++) 
....................       if (*s1 == '\0') 
....................          return(0); 
....................    return((*s1 < *s2) ? -1: 1); 
.................... } 
....................  
.................... /* standard template: 
....................    int strncmp(const char *s1, const char *s2, size_t n). 
....................    Compares max of n characters (not following 0) from s1 to s2; 
....................    returns same as strcmp */ 
....................  
.................... signed int8 strncmp(char *s1, char *s2, size_t n) 
.................... { 
....................    for (; n > 0; s1++, s2++, n--) 
....................       if (*s1 != *s2) 
....................          return((*s1 <*s2) ? -1: 1); 
....................       else if (*s1 == '\0') 
....................          return(0); 
....................    return(0); 
.................... } 
.................... /* standard template: 
....................    int strxfrm(const char *s1, const char *s2, size_t n). 
....................    transforms maximum of n characters from s2 and places them into s1*/ 
.................... size_t strxfrm(char *s1, char *s2, size_t n) 
.................... { 
....................   char *s; 
....................   unsigned int8 n1; 
....................   n1=n; 
....................   for (s = s1; n > 0 && *s2 != '\0'; n--) 
....................      *s++ = *s2++; 
....................   for (; n > 0; n--) 
....................      *s++ = '\0'; 
....................  
....................   return(n1); 
.................... } 
....................  
....................  
....................  
....................  
....................  
.................... /***********************************************************/ 
.................... /*Search functions*/ 
.................... /* standard template: void *memchr(const char *s, int c). 
....................    Finds first occurrence of c in n characters of s */ 
....................  
.................... char *memchr(void *s,unsigned int8 c,size_t n) 
.................... { 
....................    char uc; 
....................    char *su; 
....................    uc=c; 
....................    for(su=s;0<n;++su,--n) 
....................       if(*su==uc) 
....................       return su; 
....................    return NULL; 
.................... } 
....................  
.................... /* standard template: char *strchr(const char *s, int c). 
....................    Finds first occurrence of c in s */ 
....................  
.................... char *strchr(char *s, unsigned int8 c) 
.................... { 
....................    for (; *s != c; s++) 
....................       if (*s == '\0') 
....................          return(0); 
....................    return(s); 
.................... } 
.................... /* standard template: 
....................    size_t strcspn(const char *s1, const char *s2). 
....................    Computes length of max initial segment of s1 that 
....................    consists entirely of characters NOT from s2*/ 
....................  
.................... unsigned int8  strcspn(char *s1, char *s2) 
.................... { 
....................    char *sc1, *sc2; 
....................  
....................    for (sc1 = s1; *sc1 != 0; sc1++) 
....................       for (sc2 = s2; *sc2 != 0; sc2++) 
....................          if (*sc1 == *sc2) 
....................             return(sc1 - s1); 
....................    return(sc1 - s1); 
.................... } 
.................... /* standard template: 
....................    char *strpbrk(const char *s1, const char *s2). 
....................    Locates first occurence of any character from s2 in s1; 
....................    returns s1 if s2 is empty string */ 
....................  
.................... char *strpbrk(char *s1, char *s2) 
.................... { 
....................    char *sc1, *sc2; 
....................  
....................    for (sc1 = s1; *sc1 != 0; sc1++) 
....................       for (sc2 = s2; *sc2 != 0; sc2++) 
....................          if (*sc1 == *sc2) 
....................             return(sc1); 
....................    return(0); 
.................... } 
....................  
....................  
.................... /* standard template: char *strrchr(const char *s, int c). 
....................    Finds last occurrence of c in s */ 
....................  
.................... char *strrchr(char *s, unsigned int8 c) 
.................... { 
....................    char *p; 
....................  
....................    for (p = 0; ; s++) 
....................    { 
....................       if (*s == c) 
....................          p = s; 
....................       if (*s == '\0') 
....................          return(p); 
....................    } 
.................... } 
.................... /* computes length of max initial segment of s1 consisting 
....................    entirely of characters from s2 */ 
....................  
.................... unsigned int8  strspn(char *s1, char *s2) 
.................... { 
....................    char *sc1, *sc2; 
....................  
....................    for (sc1 = s1; *sc1 != 0; sc1++) 
....................       for (sc2 = s2; ; sc2++) 
....................     if (*sc2 == '\0') 
....................        return(sc1 - s1); 
....................          else if (*sc1 == *sc2) 
....................             break; 
....................    return(sc1 - s1); 
.................... } 
.................... /* standard template: 
....................    char *strstr(const char *s1, const char *s2); 
....................    Locates first occurence of character sequence s2 in s1; 
....................    returns 0 if s2 is empty string 
....................  
....................    Uncomment #define FASTER_BUT_MORE_ROM at the top of the 
....................    file to use the faster algorithm */ 
.................... char *strstr(char *s1, char *s2) 
.................... { 
....................    char *s, *t; 
....................  
....................    #ifdef FASTER_BUT_MORE_ROM 
....................    if (*s2 == '\0') 
....................          return(s1); 
....................    #endif 
....................  
....................    while (*s1) 
....................    { 
....................       for(s = s1, t = s2; *t && (*s == *t); ++s, ++t); 
....................  
....................       if (*t == '\0') 
....................          return s1; 
....................       ++s1; 
....................       #ifdef FASTER_BUT_MORE_ROM 
....................          while(*s1 != '\0' && *s1 != *s2) 
....................             ++s1; 
....................       #endif 
....................    } 
....................    return 0; 
.................... } 
....................  
.................... /* standard template: char *strtok(char *s1, const char *s2). 
....................  
....................    Finds next token in s1 delimited by a character from separator 
....................    string s2 (which can be different from call to call).  First call 
....................    starts at beginning of s1 searching for first character NOT 
....................    contained in s2; returns 0 if none is found. 
....................    If one is found, it is the start of first token (return value). 
....................    Function then searches from there for a character contained in s2. 
....................    If none is found, current token extends to end of s1, and subsequent 
....................    searches for a token will return 0.  If one is found, it is 
....................    overwritten by '\0', which terminates current token.  Function saves 
....................    pointer to following character from which next search will start. 
....................    Each subsequent call, with 0 as first argument, starts searching 
....................    from saved pointer */ 
....................  
.................... char *strtok(char *s1, char *s2) 
.................... { 
....................    char *beg, *end; 
....................    static char *save; 
....................  
....................    beg = (s1)? s1: save; 
....................    beg += strspn(beg, s2); 
....................    if (*beg == '\0') 
....................    { 
....................       *save = ' '; 
....................       return(0); 
....................    } 
....................    end = strpbrk(beg, s2); 
....................    if (*end != '\0') 
....................    { 
....................       *end = '\0'; 
....................       end++; 
....................    } 
....................    save = end; 
....................    return(beg); 
.................... } 
....................  
.................... /*****************************************************************/ 
.................... /*Miscellaneous functions*/ 
.................... /* standard template 
.................... maps error number in errnum to an error message string 
.................... Returns: Pointer to string 
.................... */ 
.................... #ifdef _ERRNO 
.................... char * strerror(unsigned int8 errnum) 
.................... { 
.................... char s[15]; 
.................... switch( errnum) 
.................... { 
.................... case 0: 
....................    strcpy(s,"no errors"); 
....................    return s; 
.................... case EDOM : 
....................    strcpy(s,"domain error"); 
....................    return s; 
.................... case ERANGE: 
....................    strcpy(s,"range error"); 
....................    return s; 
.................... } 
.................... } 
.................... #ENDIF 
.................... /* standard template: size_t strlen(const char *s). 
....................    Computes length of s1 (preceding terminating 0) */ 
....................  
.................... unsigned int8 strlen(char *s) 
.................... { 
....................    char *sc; 
....................  
....................    for (sc = s; *sc != 0; sc++); 
....................    return(sc - s); 
.................... } 
....................  
.................... /* standard template: size_t stricmp(const char *s1, const char *s2). 
....................    Compares s1 to s2 ignoring case (upper vs. lower) */ 
....................  
.................... signed int8 stricmp(char *s1, char *s2) 
.................... { 
....................  for(; *s1==*s2||(isalpha(*s1)&&isalpha(*s2)&&(*s1==*s2+32||*s2==*s1+32)); 
....................     s1++, s2++) 
....................     if (*s1 == '\0') 
....................        return(0); 
....................  return((*s1 < *s2) ? -1: 1); 
.................... } 
....................  
....................  
.................... /* standard template: char *strlwr(char *s). 
....................    Replaces uppercase letters by lowercase; 
....................    returns pointer to new string s */ 
....................  
.................... char *strlwr(char *s) 
.................... { 
....................    char *p; 
....................  
....................    for (p = s; *p != '\0'; p++) 
....................       if (*p >= 'A' && *p <='Z') 
....................          *p += 'a' - 'A'; 
....................    return(s); 
.................... } 
....................  
....................  
.................... /************************************************************/ 
....................  
....................  
.................... #endif 
....................  
....................  
.................... div_t div(signed int numer, signed int denom) 
.................... { 
....................    div_t val; 
....................    val.quot = numer / denom; 
....................    val.rem = numer - (denom * val.quot); 
....................    return (val); 
.................... } 
....................  
.................... ldiv_t ldiv(signed long numer, signed long denom) 
.................... { 
....................    ldiv_t val; 
....................  
....................    val.quot = numer / denom; 
....................    val.rem = numer - (denom * val.quot); 
....................    return (val); 
.................... } 
....................  
.................... #if defined(__PCD__) 
.................... float32 atoe(char * s) 
.................... { 
....................    float32 pow10 = 1.0; 
....................    float32 result = 0.0; 
....................    unsigned int8 sign = 0; 
....................    unsigned int8 expsign = 0; 
....................    char c; 
....................    unsigned int8 ptr = 0; 
....................    unsigned int8 i; 
....................    float32 exp = 1.0; 
....................    unsigned int8 expcnt = 0; 
....................  
....................    c = s[ptr++]; 
....................  
....................    if ((c>='0' && c<='9') || c=='+' || c=='-' || c=='.' || c=='E' || c=='e') { 
....................       if(c == '-') { 
....................          sign = 1; 
....................          c = s[ptr++]; 
....................       } 
....................       if(c == '+') 
....................          c = s[ptr++]; 
....................  
....................       while((c >= '0' && c <= '9')) { 
....................          result = 10*result + c - '0'; 
....................          c = s[ptr++]; 
....................       } 
....................  
....................       if (c == '.') { 
....................          c = s[ptr++]; 
....................          while((c >= '0' && c <= '9')) { 
....................              pow10 = pow10*10; 
....................              result += (c - '0')/pow10; 
....................              c = s[ptr++]; 
....................          } 
....................       } 
....................  
....................       // Handling the exponent 
....................       if (c=='e' || c=='E') { 
....................          c = s[ptr++]; 
....................  
....................          if(c == '-') { 
....................             expsign = 1; 
....................             c = s[ptr++]; 
....................          } 
....................          if(c == '+') 
....................             c = s[ptr++]; 
....................  
....................          while((c >= '0' && c <= '9')) { 
....................             expcnt = 10*expcnt + c - '0'; 
....................             c = s[ptr++]; 
....................          } 
....................  
....................          for(i=0;i<expcnt;i++) 
....................             exp*=10; 
....................  
....................          if(expsign==1) 
....................             result/=exp; 
....................          else 
....................             result*=exp; 
....................       } 
....................    } 
....................  
....................    if (sign == 1) 
....................       result = -1*result; 
....................    return(result); 
.................... } 
.................... #endif 
....................  
.................... #if !defined(__PCD__) 
.................... float atoe(char * s) 
.................... { 
....................    float pow10 = 1.0; 
....................    float result = 0.0; 
....................    unsigned int8 sign = 0; 
....................    unsigned int8 expsign = 0; 
....................    char c; 
....................    unsigned int8 ptr = 0; 
....................    unsigned int8 i; 
....................    float exp = 1.0; 
....................    unsigned int8 expcnt = 0; 
....................  
....................    c = s[ptr++]; 
....................  
....................    if ((c>='0' && c<='9') || c=='+' || c=='-' || c=='.' || c=='E' || c=='e') { 
....................       if(c == '-') { 
....................          sign = 1; 
....................          c = s[ptr++]; 
....................       } 
....................       if(c == '+') 
....................          c = s[ptr++]; 
....................  
....................       while((c >= '0' && c <= '9')) { 
....................          result = 10*result + c - '0'; 
....................          c = s[ptr++]; 
....................       } 
....................  
....................       if (c == '.') { 
....................          c = s[ptr++]; 
....................          while((c >= '0' && c <= '9')) { 
....................              pow10 = pow10*10; 
....................              result += (c - '0')/pow10; 
....................              c = s[ptr++]; 
....................          } 
....................       } 
....................  
....................       // Handling the exponent 
....................       if (c=='e' || c=='E') { 
....................          c = s[ptr++]; 
....................  
....................          if(c == '-') { 
....................             expsign = 1; 
....................             c = s[ptr++]; 
....................          } 
....................          if(c == '+') 
....................             c = s[ptr++]; 
....................  
....................          while((c >= '0' && c <= '9')) { 
....................             expcnt = 10*expcnt + c - '0'; 
....................             c = s[ptr++]; 
....................          } 
....................  
....................          for(i=0;i<expcnt;i++) 
....................             exp*=10; 
....................  
....................          if(expsign==1) 
....................             result/=exp; 
....................          else 
....................             result*=exp; 
....................       } 
....................    } 
....................  
....................    if (sign == 1) 
....................       result = -1*result; 
....................    return(result); 
.................... } 
.................... #endif 
....................  
.................... signed int atoi(char *s) 
.................... { 
....................    signed int result; 
....................    unsigned int sign, base, index; 
....................    char c; 
....................  
....................    index = 0; 
....................    sign = 0; 
....................    base = 10; 
....................    result = 0; 
....................  
....................    if (!s) 
....................       return 0; 
....................    // Omit all preceeding alpha characters 
....................    c = s[index++]; 
....................  
....................    // increase index if either positive or negative sign is detected 
....................    if (c == '-') 
....................    { 
....................       sign = 1;         // Set the sign to negative 
....................       c = s[index++]; 
....................    } 
....................    else if (c == '+') 
....................    { 
....................       c = s[index++]; 
....................    } 
....................  
....................    if (c >= '0' && c <= '9') 
....................    { 
....................  
....................       // Check for hexa number 
....................       if (c == '0' && (s[index] == 'x' || s[index] == 'X')) 
....................       { 
....................          base = 16; 
....................          index++; 
....................          c = s[index++]; 
....................       } 
....................  
....................       // The number is a decimal number 
....................       if (base == 10) 
....................       { 
....................          while (c >= '0' && c <= '9') 
....................          { 
....................             result = 10*result + (c - '0'); 
....................             c = s[index++]; 
....................          } 
....................       } 
....................       else if (base == 16)    // The number is a hexa number 
....................       { 
....................          c = toupper(c); 
....................          while ( (c >= '0' && c <= '9') || (c >= 'A' && c<='F')) 
....................          { 
....................             if (c >= '0' && c <= '9') 
....................                result = (result << 4) + (c - '0'); 
....................             else 
....................                result = (result << 4) + (c - 'A' + 10); 
....................  
....................             c = s[index++]; 
....................             c = toupper(c); 
....................          } 
....................       } 
....................    } 
....................  
....................    if (sign == 1 && base == 10) 
....................        result = -result; 
....................  
....................    return(result); 
.................... } 
....................  
.................... signed long atol(char *s) 
.................... { 
....................    signed long result; 
....................    unsigned int sign, base, index; 
....................    char c; 
....................  
....................    index = 0; 
....................    sign = 0; 
....................    base = 10; 
....................    result = 0; 
....................  
....................    if (!s) 
....................       return 0; 
....................    c = s[index++]; 
....................  
....................    // increase index if either positive or negative sign is detected 
....................    if (c == '-') 
....................    { 
....................       sign = 1;         // Set the sign to negative 
....................       c = s[index++]; 
....................    } 
....................    else if (c == '+') 
....................    { 
....................       c = s[index++]; 
....................    } 
....................  
....................    if (c >= '0' && c <= '9') 
....................    { 
....................       if (c == '0' && (s[index] == 'x' || s[index] == 'X')) 
....................       { 
....................          base = 16; 
....................          index++; 
....................          c = s[index++]; 
....................       } 
....................  
....................       // The number is a decimal number 
....................       if (base == 10) 
....................       { 
....................          while (c >= '0' && c <= '9') 
....................          { 
....................             result = 10*result + (c - '0'); 
....................             c = s[index++]; 
....................          } 
....................       } 
....................       else if (base == 16)    // The number is a hexa number 
....................       { 
....................          c = toupper(c); 
....................          while ( (c >= '0' && c <= '9') || (c >= 'A' && c <='F')) 
....................          { 
....................             if (c >= '0' && c <= '9') 
....................                result = (result << 4) + (c - '0'); 
....................             else 
....................                result = (result << 4) + (c - 'A' + 10); 
....................  
....................             c = s[index++];c = toupper(c); 
....................          } 
....................       } 
....................    } 
....................  
....................    if (base == 10 && sign == 1) 
....................       result = -result; 
....................  
....................    return(result); 
.................... } 
....................  
.................... /* A fast routine to multiply by 10 
....................  */ 
.................... signed int32 mult_with10(int32 num) 
.................... { 
....................    return ( (num << 1) + (num << 3) ); 
.................... } 
....................  
.................... #if sizeof(long)==2 
.................... signed int32 atoi32(char *s) 
.................... { 
....................    signed int32 result; 
....................    int8 sign, base, index; 
....................    char c; 
....................  
....................    index = 0; 
....................    sign = 0; 
....................    base = 10; 
....................    result = 0; 
....................  
....................    if (!s) 
....................       return 0; 
....................    c = s[index++]; 
....................  
....................    // increase index if either positive or negative sign is detected 
....................    if (c == '-') 
....................    { 
....................       sign = 1;         // Set the sign to negative 
....................       c = s[index++]; 
....................    } 
....................    else if (c == '+') 
....................    { 
....................       c = s[index++]; 
....................    } 
....................  
....................    if (c >= '0' && c <= '9') 
....................    { 
....................       if (c == '0' && (s[index] == 'x' || s[index] == 'X')) 
....................       { 
....................          base = 16; 
....................          index++; 
....................          c = s[index++]; 
....................       } 
....................  
....................       // The number is a decimal number 
....................       if (base == 10) 
....................       { 
....................          while (c >= '0' && c <= '9') { 
....................             result = (result << 1) + (result << 3);  // result *= 10; 
....................             result += (c - '0'); 
....................             c = s[index++]; 
....................          } 
....................       } 
....................       else if (base == 16)    // The number is a hexa number 
....................       { 
....................          c = toupper(c); 
....................          while ((c >= '0' && c <= '9') || (c >= 'A' && c <='F')) 
....................          { 
....................             if (c >= '0' && c <= '9') 
....................                result = (result << 4) + (c - '0'); 
....................             else 
....................                result = (result << 4) + (c - 'A' + 10); 
....................  
....................             c = s[index++];c = toupper(c); 
....................          } 
....................       } 
....................    } 
....................  
....................    if (base == 10 && sign == 1) 
....................       result = -result; 
....................  
....................    return(result); 
.................... } 
.................... #endif 
....................  
.................... #if defined(__PCD__) 
....................  
.................... signed int48 atoi48(char *s) 
.................... { 
....................    signed int48 result; 
....................    int8 sign, base, index; 
....................    char c; 
....................  
....................    index = 0; 
....................    sign = 0; 
....................    base = 10; 
....................    result = 0; 
....................  
....................    if (!s) 
....................       return 0; 
....................    c = s[index++]; 
....................  
....................    // increase index if either positive or negative sign is detected 
....................    if (c == '-') 
....................    { 
....................       sign = 1;         // Set the sign to negative 
....................       c = s[index++]; 
....................    } 
....................    else if (c == '+') 
....................    { 
....................       c = s[index++]; 
....................    } 
....................  
....................    if (c >= '0' && c <= '9') 
....................    { 
....................       if (c == '0' && (s[index] == 'x' || s[index] == 'X')) 
....................       { 
....................          base = 16; 
....................          index++; 
....................          c = s[index++]; 
....................       } 
....................  
....................       // The number is a decimal number 
....................       if (base == 10) 
....................       { 
....................          while (c >= '0' && c <= '9') { 
....................             result = (result << 1) + (result << 3);  // result *= 10; 
....................             result += (c - '0'); 
....................             c = s[index++]; 
....................          } 
....................       } 
....................       else if (base == 16)    // The number is a hexa number 
....................       { 
....................          c = toupper(c); 
....................          while ((c >= '0' && c <= '9') || (c >= 'A' && c <='F')) 
....................          { 
....................             if (c >= '0' && c <= '9') 
....................                result = (result << 4) + (c - '0'); 
....................             else 
....................                result = (result << 4) + (c - 'A' + 10); 
....................  
....................             c = s[index++];c = toupper(c); 
....................          } 
....................       } 
....................    } 
....................  
....................    if (base == 10 && sign == 1) 
....................       result = -result; 
....................  
....................    return(result); 
.................... } 
....................  
.................... signed int64 atoi64(char *s) 
.................... { 
....................    signed int64 result; 
....................    int8 sign, base, index; 
....................    char c; 
....................  
....................    index = 0; 
....................    sign = 0; 
....................    base = 10; 
....................    result = 0; 
....................  
....................    if (!s) 
....................       return 0; 
....................    c = s[index++]; 
....................  
....................    // increase index if either positive or negative sign is detected 
....................    if (c == '-') 
....................    { 
....................       sign = 1;         // Set the sign to negative 
....................       c = s[index++]; 
....................    } 
....................    else if (c == '+') 
....................    { 
....................       c = s[index++]; 
....................    } 
....................  
....................    if (c >= '0' && c <= '9') 
....................    { 
....................       if (c == '0' && (s[index] == 'x' || s[index] == 'X')) 
....................       { 
....................          base = 16; 
....................          index++; 
....................          c = s[index++]; 
....................       } 
....................  
....................       // The number is a decimal number 
....................       if (base == 10) 
....................       { 
....................          while (c >= '0' && c <= '9') { 
....................             result = (result << 1) + (result << 3);  // result *= 10; 
....................             result += (c - '0'); 
....................             c = s[index++]; 
....................          } 
....................       } 
....................       else if (base == 16)    // The number is a hexa number 
....................       { 
....................          c = toupper(c); 
....................          while ((c >= '0' && c <= '9') || (c >= 'A' && c <='F')) 
....................          { 
....................             if (c >= '0' && c <= '9') 
....................                result = (result << 4) + (c - '0'); 
....................             else 
....................                result = (result << 4) + (c - 'A' + 10); 
....................  
....................             c = s[index++];c = toupper(c); 
....................          } 
....................       } 
....................    } 
....................  
....................    if (base == 10 && sign == 1) 
....................       result = -result; 
....................  
....................    return(result); 
.................... } 
.................... #endif 
....................  
.................... char * itoa(signed int32 num, unsigned int base, char * s) 
.................... { 
....................      unsigned int32 temp=1; 
....................      unsigned int8 i,sign=0,cnt=0; 
....................      char c; 
....................  
....................      if(num<0) { 
....................          sign=1;        // Check for negative number 
....................          num*=-1; 
....................      } 
....................  
....................      while(temp>0) { 
....................          temp=(num/base); 
....................          s[cnt]=(num%base)+'0';    // Conversion 
....................  
....................          if(s[cnt]>0x39) 
....................             s[cnt]+=0x7; 
....................  
....................          cnt++; 
....................          num=temp; 
....................      } 
....................  
....................      if(sign==1) { 
....................          s[cnt]=0x2D;      // Negative sign 
....................          cnt++; 
....................      } 
....................  
....................      for(i = 0;i<(int8)(cnt/2);i++) { 
....................  
....................          c=s[i]; 
....................          s[i]=s[cnt-i-1];        // Reverse the number 
....................          s[cnt-i-1]=c; 
....................      } 
....................      s[cnt]='\0';     // End the string 
....................      return s; 
.................... } 
....................  
.................... float strtof(char *s, char *endptr) 
.................... { 
....................    float pow10 = 1.0; 
....................    float result = 0.0; 
....................    int1 skip = 1, sign = 0, point = 0; 
....................    char c; 
....................    unsigned int8 ptr = 0; 
....................  
....................    if (!s) 
....................       return 0; 
....................  
....................    for(c=s[ptr++]; c!=0; c=s[ptr++]) 
....................    { 
....................       if (skip && !isspace(c)) 
....................       { 
....................          skip = 0; 
....................          if (c == '+') 
....................          { 
....................             sign = 0; 
....................             continue; 
....................          }             
....................          else if (c == '-') 
....................          { 
....................             sign = 1; 
....................             continue; 
....................          } 
....................       } 
....................       if (!skip && (c == '.') && !point) 
....................          point = 1; 
....................       else if (!skip && isdigit(c)) 
....................       { 
....................          c -= '0'; 
....................          if (point) 
....................          { 
....................             pow10 = pow10 * 10.0; 
....................             result += (float)c / pow10;    
....................          } 
....................          else 
....................          { 
....................             result = 10.0 * result + (float)c; 
....................          } 
....................       } 
....................       else if (!skip) 
....................          break; 
....................    } 
....................  
....................    if (sign) 
....................       result = -1*result; 
....................        
....................    if(endptr) 
....................    { 
....................       if (ptr) { 
....................          ptr--; 
....................        #IF LONG_POINTERS  
....................          *((long *)endptr)= s+ptr;  
....................        #ELSE 
....................          *((char *)endptr)=s+ptr; 
....................        #ENDIF 
....................       } 
....................       else 
....................       { 
....................       #IF LONG_POINTERS 
....................       *((long *)endptr)= s;  
....................       #ELSE 
....................       *((char *)endptr)=s; 
....................       #ENDIF 
....................       } 
....................    } 
....................  
....................    return(result); 
.................... } 
....................  
.................... #if defined(__PCD__) 
.................... float48 strtof48(char *s, char *endptr) 
.................... { 
....................    float48 pow10 = 1.0; 
....................    float48 result = 0.0; 
....................    int1 skip = 1, sign = 0, point = 0; 
....................    char c; 
....................    unsigned int8 ptr = 0; 
....................  
....................    if (!s) 
....................       return 0; 
....................  
....................    for(c=s[ptr++]; c!=0; c=s[ptr++]) 
....................    { 
....................       if (skip && !isspace(c)) 
....................       { 
....................          skip = 0; 
....................          if (c == '+') 
....................          { 
....................             sign = 0; 
....................             continue; 
....................          }             
....................          else if (c == '-') 
....................          { 
....................             sign = 1; 
....................             continue; 
....................          } 
....................       } 
....................       if (!skip && (c == '.') && !point) 
....................          point = 1; 
....................       else if (!skip && isdigit(c)) 
....................       { 
....................          c -= '0'; 
....................          if (point) 
....................          { 
....................             pow10 = pow10 * 10.0; 
....................             result += (float48)c / pow10;    
....................          } 
....................          else 
....................          { 
....................             result = 10.0 * result + (float48)c; 
....................          } 
....................       } 
....................       else if (!skip) 
....................          break; 
....................    } 
....................  
....................    if (sign) 
....................       result = -1*result; 
....................        
....................    if(endptr) 
....................    { 
....................       if (ptr) { 
....................          ptr--; 
....................        #IF LONG_POINTERS  
....................          *((long *)endptr)= s+ptr;  
....................        #ELSE 
....................          *((char *)endptr)=s+ptr; 
....................        #ENDIF 
....................       } 
....................       else 
....................       { 
....................       #IF LONG_POINTERS 
....................       *((long *)endptr)= s;  
....................       #ELSE 
....................       *((char *)endptr)=s; 
....................       #ENDIF 
....................       } 
....................    } 
....................  
....................    return(result); 
.................... } 
....................  
.................... float64 strtod(char *s, char *endptr) 
.................... { 
....................    float64 pow10 = 1.0; 
....................    float64 result = 0.0; 
....................    int1 skip = 1, sign = 0, point = 0; 
....................    char c; 
....................    unsigned int8 ptr = 0; 
....................  
....................    if (!s) 
....................       return 0; 
....................  
....................    for(c=s[ptr++]; c!=0; c=s[ptr++]) 
....................    { 
....................       if (skip && !isspace(c)) 
....................       { 
....................          skip = 0; 
....................          if (c == '+') 
....................          { 
....................             sign = 0; 
....................             continue; 
....................          }             
....................          else if (c == '-') 
....................          { 
....................             sign = 1; 
....................             continue; 
....................          } 
....................       } 
....................       if (!skip && (c == '.') && !point) 
....................          point = 1; 
....................       else if (!skip && isdigit(c)) 
....................       { 
....................          c -= '0'; 
....................          if (point) 
....................          { 
....................             pow10 = pow10 * 10.0; 
....................             result += (float64)c / pow10;    
....................          } 
....................          else 
....................          { 
....................             result = 10.0 * result + (float64)c; 
....................          } 
....................       } 
....................       else if (!skip) 
....................          break; 
....................    } 
....................  
....................    if (sign) 
....................       result = -1*result; 
....................        
....................    if(endptr) 
....................    { 
....................       if (ptr) { 
....................          ptr--; 
....................        #IF LONG_POINTERS  
....................          *((long *)endptr)= s+ptr;  
....................        #ELSE 
....................          *((char *)endptr)=s+ptr; 
....................        #ENDIF 
....................       } 
....................       else 
....................       { 
....................       #IF LONG_POINTERS 
....................       *((long *)endptr)= s;  
....................       #ELSE 
....................       *((char *)endptr)=s; 
....................       #ENDIF 
....................       } 
....................    } 
....................  
....................    return(result); 
.................... } 
.................... #endif 
....................  
.................... unsigned long strtoul(char *s, char *endptr, signed int base) 
.................... { 
....................    char *sc,*s1,*sd; 
....................    unsigned long x=0; 
....................    char sign; 
....................    char digits[]="0123456789abcdefghijklmnopqstuvwxyz"; 
....................    for(sc=s;isspace(*sc);++sc); 
....................    sign=*sc=='-'||*sc=='+'?*sc++:'+'; 
....................    if(sign=='-' || base <0 || base ==1|| base >36) // invalid base 
....................    goto StrtoulGO; 
....................  
....................    else if (base) 
....................    { 
....................       if(base==16 && *sc =='0'&&(sc[1]=='x' || sc[1]=='X')) 
....................          sc+=2; 
....................       if(base==8 && *sc =='0') 
....................          sc+=1; 
....................       if(base==2 && *sc =='0'&&sc[1]=='b') 
....................          sc+=2; 
....................  
....................    } 
....................    else if(*sc!='0') // base is 0, find base 
....................       base=10; 
....................    else if (sc[1]=='x' || sc[1]=='X') 
....................       base =16,sc+=2; 
....................    else if(sc[1]=='b') 
....................       base=2,sc+=2; 
....................    else 
....................       base=8; 
....................    for (s1=sc;*sc=='0';++sc);// skip leading zeroes 
....................    sd=memchr(digits,tolower(*sc),base); 
....................    for(; sd!=0; ) 
....................    { 
....................       x=x*base+(int16)(sd-digits); 
....................       ++sc; 
....................       sd=memchr(digits,tolower(*sc),base); 
....................    } 
....................    if(s1==sc) 
....................    { 
....................    StrtoulGO: 
....................       if (endptr) 
....................       { 
....................          #IF LONG_POINTERS 
....................          *((long *)endptr)= s;  
....................          #ELSE 
....................          *((char *)endptr)=s; 
....................          #ENDIF 
....................          } 
....................    return 0; 
....................    } 
....................    if (endptr) 
....................    { 
....................          #IF LONG_POINTERS 
....................          *((long *)endptr)= sc;  
....................          #ELSE 
....................          *((char *)endptr)=sc;  
....................          #ENDIF 
....................    } 
....................    return x; 
.................... } 
....................  
....................  
.................... signed long strtol(char *s,char *endptr, signed int base) 
.................... { 
....................    char *sc,*s1,*sd; 
....................    signed long x=0; 
....................    char sign; 
....................    char digits[]="0123456789abcdefghijklmnopqstuvwxyz"; 
....................    for(sc=s;isspace(*sc);++sc); 
....................    sign=*sc=='-'||*sc=='+'?*sc++:'+'; 
....................    if (base <0 || base ==1|| base >36) // invalid base 
....................    goto StrtolGO; 
....................    else if (base) 
....................    { 
....................       if(base==16 && *sc =='0'&&(sc[1]=='x' || sc[1]=='X')) 
....................          sc+=2; 
....................       if(base==8 && *sc =='0') 
....................          sc+=1; 
....................       if(base==2 && *sc =='0'&&sc[1]=='b') 
....................          sc+=2; 
....................  
....................    } 
....................    else if(*sc!='0') // base is 0, find base 
....................       base=10; 
....................    else if (sc[1]=='x' || sc[1]=='X') 
....................       base =16,sc+=2; 
....................    else if(sc[1]=='b') 
....................       base=2,sc+=2; 
....................    else 
....................       base=8; 
....................    for (s1=sc;*sc=='0';++sc);// skip leading zeroes 
....................  
....................    sd=memchr(digits,tolower(*sc),base); 
....................    for(;sd!=0;) 
....................    { 
....................       x=x*base+(int16)(sd-digits); 
....................       ++sc; 
....................       sd=memchr(digits,tolower(*sc),base); 
....................    } 
....................    if(s1==sc) 
....................    { 
....................    StrtolGO: 
....................       if (endptr) 
....................       { 
....................          #IF LONG_POINTERS 
....................          *((long *)endptr)= s;  
....................          #ELSE 
....................          *((char *)endptr)=s; 
....................          #ENDIF 
....................       } 
....................    return 0; 
....................    } 
....................    if(sign=='-') 
....................       x  =-x; 
....................    if (endptr) 
....................    { 
....................         #IF LONG_POINTERS 
....................          *((long *)endptr)= sc;  
....................         #ELSE 
....................         *((char *)endptr)=sc; 
....................         #ENDIF 
....................    } 
....................    return x; 
.................... } 
....................  
.................... signed int8 system(char *string) 
.................... { 
....................    return 0; 
.................... } 
....................  
.................... int8 mblen(char *s,size_t n) 
.................... { 
....................    return strlen(s); 
.................... } 
....................  
.................... int8 mbtowc(wchar_t *pwc,char *s,size_t n) 
.................... { 
....................    *pwc=*s; 
....................    return 1; 
.................... } 
....................  
.................... int8 wctomb(char *s,wchar_t wchar) 
.................... { 
....................    *s=wchar; 
....................    return 1; 
.................... } 
....................  
.................... size_t mbstowcs(wchar_t *pwcs,char *s,size_t n) 
.................... { 
....................    strncpy(pwcs,s,n); 
....................    return strlen(pwcs); 
.................... } 
....................  
.................... size_t wcstombs(char *s,wchar_t *pwcs,size_t n) 
.................... { 
....................    strncpy(s,pwcs,n); 
....................    return strlen(s); 
.................... } 
....................  
.................... //--------------------------------------------------------------------------- 
.................... // The random number implementation 
.................... //--------------------------------------------------------------------------- 
....................  
.................... unsigned int32 _Randseed; 
....................  
.................... unsigned int16 rand(void) 
.................... { 
....................    _Randseed = _Randseed * 1103515245 + 12345; 
....................    return ((unsigned int16)(_Randseed >> 16) % RAND_MAX); 
.................... } 
....................  
.................... void srand(unsigned int32 seed) 
.................... { 
....................    _Randseed = seed; 
.................... } 
....................  
.................... //--------------------------------------------------------------------------- 
.................... // Searching and sorting utilities implementation 
.................... //--------------------------------------------------------------------------- 
....................  
.................... #if !defined(__PCD__) 
.................... typedef signed int8 (*_Cmpfun)(char * p1,char * p2);  
.................... #else  
.................... typedef signed int16 (*_Cmpfun)(char * p1,char * p2);  
.................... #endif 
....................  
....................  
....................  
.................... void qsort(char * qdata, unsigned int qitems, unsigned int qsize, _Cmpfun cmp) { 
....................    unsigned int m,j,i,l; 
....................    int1 done; 
....................    unsigned int8 t[16]; 
....................  
....................    m = qitems/2; 
....................    while( m > 0 ) { 
....................      for(j=0; j<(qitems-m); ++j) { 
....................         i = j; 
....................         do 
....................         { 
....................            done=1; 
....................            l = i+m; 
....................            if( (*cmp)(qdata+i*qsize, qdata+l*qsize) > 0 ) { 
....................               memcpy(t, qdata+i*qsize, qsize); 
....................               memcpy(qdata+i*qsize, qdata+l*qsize, qsize); 
....................               memcpy(qdata+l*qsize, t, qsize); 
....................               if(m <= i) 
....................                 i -= m; 
....................                 done = 0; 
....................            } 
....................         } while(!done); 
....................      } 
....................      m = m/2; 
....................    } 
.................... } 
....................  
....................  
.................... char *bsearch(char *key, char *base, size_t num, size_t width,_Cmpfun cmp) 
.................... { 
....................    char *p, *q; 
....................    size_t n; 
....................    size_t pivot; 
....................    signed int val; 
....................  
....................    p = base; 
....................    n = num; 
....................  
....................    while (n > 0) 
....................    { 
....................       pivot = n >> 1; 
....................       q = p + width * pivot; 
....................  
....................       val = (*cmp)(key, q); 
....................  
....................       if (val < 0) 
....................          n = pivot; 
....................       else if (val == 0) 
....................          return ((char *)q); 
....................       else { 
....................          p = q + width; 
....................          n -= pivot + 1; 
....................       } 
....................    } 
....................  
....................    return NULL;      // There's no match 
.................... } 
....................  
....................  
.................... #endif 
....................  
.................... #include <DS1302.c> 
.................... ////////////////////////////////////////////////////////////////////////// 
.................... ////                               DS1302.C                           //// 
.................... ////                     Driver for Real Time Clock                   //// 
.................... ////                                                                  //// 
.................... ////  rtc_init()                                   Call after power up//// 
.................... ////                                                                  //// 
.................... ////  rtc_set_datetime(day,mth,year,dow,hour,min)  Set the date/time  //// 
.................... ////                                                                  //// 
.................... ////  rtc_get_date(day,mth,year,dow)               Get the date       //// 
.................... ////                                                                  //// 
.................... ////  rtc_get_time(hr,min,sec)                     Get the time       //// 
.................... ////                                                                  //// 
.................... ////  rtc_write_nvr(address,data)                  Write to NVR       //// 
.................... ////                                                                  //// 
.................... ////  data = rtc_read_nvr(address)                 Read from NVR      //// 
.................... ////                                                                  //// 
.................... ////  get_bcd(data)                              Convert data to BCD  //// 
.................... ////                                                                  //// 
.................... ////  rm_bcd(data)                               Convert data to int  //// 
.................... ////                                                                  //// 
.................... ////////////////////////////////////////////////////////////////////////// 
.................... ////        (C) Copyright 1996,2003 Custom Computer Services          //// 
.................... //// This source code may only be used by licensed users of the CCS C //// 
.................... //// compiler.  This source code may only be distributed to other     //// 
.................... //// licensed users of the CCS C compiler.  No other use, reproduction//// 
.................... //// or distribution is permitted without written permission.         //// 
.................... //// Derivative programs created using this software in object code   //// 
.................... //// form are not restricted in any way.                              //// 
.................... ////////////////////////////////////////////////////////////////////////// 
....................  
.................... //#ifndef RTC_SCLK 
....................  
.................... #define RTC_SCLK PIN_C0 
.................... #define RTC_IO   PIN_C1 
.................... #define RTC_RST  PIN_C2 
....................  
.................... //#endif 
....................  
.................... void write_ds1302_byte(BYTE cmd) { 
....................    BYTE i; 
....................  
....................    for(i=0;i<=7;++i) { 
*
03FCC:  MOVLB  7
03FCE:  CLRF   x0C
03FD0:  MOVF   x0C,W
03FD2:  SUBLW  07
03FD4:  BNC   3FF0
....................       output_bit(RTC_IO, shift_right(&cmd,1,0) ); 
03FD6:  BCF    FD8.0
03FD8:  RRCF   x0B,F
03FDA:  BC    3FE0
03FDC:  BCF    F8B.1
03FDE:  BRA    3FE2
03FE0:  BSF    F8B.1
03FE2:  BCF    F94.1
....................       output_high(RTC_SCLK); 
03FE4:  BCF    F94.0
03FE6:  BSF    F8B.0
....................       output_low(RTC_SCLK); 
03FE8:  BCF    F94.0
03FEA:  BCF    F8B.0
....................    } 
03FEC:  INCF   x0C,F
03FEE:  BRA    3FD0
.................... } 
03FF0:  MOVLB  0
03FF2:  RETLW  00
....................  
.................... void write_ds1302(BYTE cmd, BYTE data) { 
....................  
....................    output_high(RTC_RST); 
03FF4:  BCF    F94.2
03FF6:  BSF    F8B.2
....................    write_ds1302_byte(cmd); 
03FF8:  MOVFF  709,70B
03FFC:  RCALL  3FCC
....................    write_ds1302_byte(data); 
03FFE:  MOVFF  70A,70B
04002:  RCALL  3FCC
....................    output_low(RTC_RST); 
04004:  BCF    F94.2
04006:  BCF    F8B.2
.................... } 
04008:  RETLW  00
....................  
.................... BYTE read_ds1302(BYTE cmd) { 
....................    BYTE i,data; 
....................  
....................    output_high(RTC_RST); 
0400A:  BCF    F94.2
0400C:  BSF    F8B.2
....................    write_ds1302_byte(cmd); 
0400E:  MOVFF  706,70B
04012:  RCALL  3FCC
....................     
....................    input(RTC_IO); 
04014:  BSF    F94.1
....................    delay_us(10); 
04016:  MOVLW  10
04018:  MOVWF  00
0401A:  DECFSZ 00,F
0401C:  BRA    401A
0401E:  NOP   
....................           
....................    for(i=0;i<=7;++i) { 
04020:  MOVLB  7
04022:  CLRF   x07
04024:  MOVF   x07,W
04026:  SUBLW  07
04028:  BNC   4054
....................       shift_right(&data,1,input(RTC_IO)); 
0402A:  BSF    F94.1
0402C:  BTFSC  F82.1
0402E:  BRA    4034
04030:  BCF    FD8.0
04032:  BRA    4036
04034:  BSF    FD8.0
04036:  RRCF   x08,F
....................       output_high(RTC_SCLK); 
04038:  BCF    F94.0
0403A:  BSF    F8B.0
....................       delay_us(20); 
0403C:  MOVLW  21
0403E:  MOVWF  00
04040:  DECFSZ 00,F
04042:  BRA    4040
....................       output_low(RTC_SCLK); 
04044:  BCF    F94.0
04046:  BCF    F8B.0
....................       delay_us(20); 
04048:  MOVLW  21
0404A:  MOVWF  00
0404C:  DECFSZ 00,F
0404E:  BRA    404C
....................    } 
04050:  INCF   x07,F
04052:  BRA    4024
....................    output_low(RTC_RST); 
04054:  BCF    F94.2
04056:  BCF    F8B.2
....................  
....................    return(data); 
04058:  MOVFF  708,01
.................... } 
0405C:  MOVLB  0
0405E:  RETLW  00
....................  
.................... void rtc_init() { 
....................    BYTE x; 
....................    output_low(RTC_RST); 
04060:  BCF    F94.2
04062:  BCF    F8B.2
....................    delay_us(20); 
04064:  MOVLW  21
04066:  MOVWF  00
04068:  DECFSZ 00,F
0406A:  BRA    4068
....................    output_low(RTC_SCLK); 
0406C:  BCF    F94.0
0406E:  BCF    F8B.0
....................    write_ds1302(0x8e,0); 
04070:  MOVLW  8E
04072:  MOVLB  7
04074:  MOVWF  x09
04076:  CLRF   x0A
04078:  MOVLB  0
0407A:  RCALL  3FF4
....................    write_ds1302(0x90,0xa4); 
0407C:  MOVLW  90
0407E:  MOVLB  7
04080:  MOVWF  x09
04082:  MOVLW  A4
04084:  MOVWF  x0A
04086:  MOVLB  0
04088:  RCALL  3FF4
....................    x=read_ds1302(0x81); 
0408A:  MOVLW  81
0408C:  MOVLB  7
0408E:  MOVWF  x06
04090:  MOVLB  0
04092:  RCALL  400A
04094:  MOVFF  01,702
....................    if((x & 0x80)!=0) 
04098:  MOVLB  7
0409A:  MOVF   x02,W
0409C:  ANDLW  80
0409E:  BZ    40AC
....................      write_ds1302(0x80,0); 
040A0:  MOVLW  80
040A2:  MOVWF  x09
040A4:  CLRF   x0A
040A6:  MOVLB  0
040A8:  RCALL  3FF4
040AA:  MOVLB  7
.................... } 
040AC:  MOVLB  0
040AE:  GOTO   105DE (RETURN)
....................  
.................... byte get_bcd(BYTE data) 
.................... { 
....................    byte nibh; 
....................    byte nibl; 
....................  
....................    nibh=data/10; 
*
06D8A:  MOVFF  708,70B
06D8E:  MOVLW  0A
06D90:  MOVLB  7
06D92:  MOVWF  x0C
06D94:  MOVLB  0
06D96:  CALL   62E6
06D9A:  MOVFF  01,709
....................    nibl=data-(nibh*10); 
06D9E:  MOVLB  7
06DA0:  MOVF   x09,W
06DA2:  MULLW  0A
06DA4:  MOVF   FF3,W
06DA6:  SUBWF  x08,W
06DA8:  MOVWF  x0A
....................  
....................    return((nibh<<4)|nibl); 
06DAA:  SWAPF  x09,W
06DAC:  MOVWF  00
06DAE:  MOVLW  F0
06DB0:  ANDWF  00,F
06DB2:  MOVF   00,W
06DB4:  IORWF  x0A,W
06DB6:  MOVWF  01
.................... } 
06DB8:  MOVLB  0
06DBA:  RETLW  00
....................  
.................... byte rm_bcd(BYTE data) 
.................... { 
....................    byte i; 
....................  
....................    i=data; 
*
06012:  MOVFF  707,708
....................    data=(i>>4)*10; 
06016:  MOVLB  7
06018:  SWAPF  x08,W
0601A:  MOVWF  00
0601C:  MOVLW  0F
0601E:  ANDWF  00,F
06020:  MOVF   00,W
06022:  MULLW  0A
06024:  MOVFF  FF3,707
....................    data=data+(i<<4>>4); 
06028:  SWAPF  x08,W
0602A:  MOVWF  00
0602C:  MOVLW  F0
0602E:  ANDWF  00,F
06030:  MOVF   00,W
06032:  SWAPF  00,F
06034:  MOVLW  0F
06036:  ANDWF  00,F
06038:  MOVF   00,W
0603A:  ADDWF  x07,F
....................  
....................    return data; 
0603C:  MOVFF  707,01
.................... } 
06040:  MOVLB  0
06042:  RETLW  00
....................  
.................... void rtc_set_datetime(BYTE day, BYTE mth, BYTE year, BYTE dow, BYTE hr, BYTE min) { 
....................  
....................    write_ds1302(0x86,get_bcd(day)); 
*
06DBC:  MOVFF  702,708
06DC0:  RCALL  6D8A
06DC2:  MOVFF  01,708
06DC6:  MOVLW  86
06DC8:  MOVLB  7
06DCA:  MOVWF  x09
06DCC:  MOVFF  01,70A
06DD0:  MOVLB  0
06DD2:  CALL   3FF4
....................    write_ds1302(0x88,get_bcd(mth)); 
06DD6:  MOVFF  703,708
06DDA:  RCALL  6D8A
06DDC:  MOVFF  01,708
06DE0:  MOVLW  88
06DE2:  MOVLB  7
06DE4:  MOVWF  x09
06DE6:  MOVFF  01,70A
06DEA:  MOVLB  0
06DEC:  CALL   3FF4
....................    write_ds1302(0x8c,get_bcd(year)); 
06DF0:  MOVFF  704,708
06DF4:  RCALL  6D8A
06DF6:  MOVFF  01,708
06DFA:  MOVLW  8C
06DFC:  MOVLB  7
06DFE:  MOVWF  x09
06E00:  MOVFF  01,70A
06E04:  MOVLB  0
06E06:  CALL   3FF4
....................    write_ds1302(0x8a,get_bcd(dow)); 
06E0A:  MOVFF  705,708
06E0E:  RCALL  6D8A
06E10:  MOVFF  01,708
06E14:  MOVLW  8A
06E16:  MOVLB  7
06E18:  MOVWF  x09
06E1A:  MOVFF  01,70A
06E1E:  MOVLB  0
06E20:  CALL   3FF4
....................    write_ds1302(0x84,get_bcd(hr)); 
06E24:  MOVFF  706,708
06E28:  RCALL  6D8A
06E2A:  MOVFF  01,708
06E2E:  MOVLW  84
06E30:  MOVLB  7
06E32:  MOVWF  x09
06E34:  MOVFF  01,70A
06E38:  MOVLB  0
06E3A:  CALL   3FF4
....................    write_ds1302(0x82,get_bcd(min)); 
06E3E:  MOVFF  707,708
06E42:  RCALL  6D8A
06E44:  MOVFF  01,708
06E48:  MOVLW  82
06E4A:  MOVLB  7
06E4C:  MOVWF  x09
06E4E:  MOVFF  01,70A
06E52:  MOVLB  0
06E54:  CALL   3FF4
....................    write_ds1302(0x80,get_bcd(0)); 
06E58:  MOVLB  7
06E5A:  CLRF   x08
06E5C:  MOVLB  0
06E5E:  RCALL  6D8A
06E60:  MOVFF  01,708
06E64:  MOVLW  80
06E66:  MOVLB  7
06E68:  MOVWF  x09
06E6A:  MOVFF  01,70A
06E6E:  MOVLB  0
06E70:  CALL   3FF4
.................... } 
06E74:  GOTO   AF4A (RETURN)
....................  
.................... void rtc_get_date(BYTE& day, BYTE& mth, BYTE& year, BYTE& dow) { 
....................    day = rm_bcd(read_ds1302(0x87)); 
*
10816:  MOVLW  87
10818:  MOVLB  7
1081A:  MOVWF  x06
1081C:  MOVLB  0
1081E:  CALL   400A
10822:  MOVFF  01,702
10826:  MOVFF  01,707
1082A:  CALL   6012
1082E:  MOVFF  01,2F0
....................    mth = rm_bcd(read_ds1302(0x89)); 
10832:  MOVLW  89
10834:  MOVLB  7
10836:  MOVWF  x06
10838:  MOVLB  0
1083A:  CALL   400A
1083E:  MOVFF  01,702
10842:  MOVFF  01,707
10846:  CALL   6012
1084A:  MOVFF  01,2EF
....................    year = rm_bcd(read_ds1302(0x8d)); 
1084E:  MOVLW  8D
10850:  MOVLB  7
10852:  MOVWF  x06
10854:  MOVLB  0
10856:  CALL   400A
1085A:  MOVFF  01,702
1085E:  MOVFF  01,707
10862:  CALL   6012
10866:  MOVFF  01,2EE
....................    dow = rm_bcd(read_ds1302(0x8b)); 
1086A:  MOVLW  8B
1086C:  MOVLB  7
1086E:  MOVWF  x06
10870:  MOVLB  0
10872:  CALL   400A
10876:  MOVFF  01,702
1087A:  MOVFF  01,707
1087E:  CALL   6012
10882:  MOVFF  01,2F4
.................... } 
....................  
.................... void rtc_get_time(BYTE& hr, BYTE& min, BYTE& sec) { 
....................    hr = rm_bcd(read_ds1302(0x85)); 
10886:  MOVLW  85
10888:  MOVLB  7
1088A:  MOVWF  x06
1088C:  MOVLB  0
1088E:  CALL   400A
10892:  MOVFF  01,702
10896:  MOVFF  01,707
1089A:  CALL   6012
1089E:  MOVFF  01,2F1
....................    min = rm_bcd(read_ds1302(0x83)); 
108A2:  MOVLW  83
108A4:  MOVLB  7
108A6:  MOVWF  x06
108A8:  MOVLB  0
108AA:  CALL   400A
108AE:  MOVFF  01,702
108B2:  MOVFF  01,707
108B6:  CALL   6012
108BA:  MOVFF  01,2F2
....................    sec = rm_bcd(read_ds1302(0x81)); 
108BE:  MOVLW  81
108C0:  MOVLB  7
108C2:  MOVWF  x06
108C4:  MOVLB  0
108C6:  CALL   400A
108CA:  MOVFF  01,702
108CE:  MOVFF  01,707
108D2:  CALL   6012
108D6:  MOVFF  01,2F3
.................... } 
....................  
.................... void rtc_write_nvr(BYTE address, BYTE data) { 
....................    write_ds1302(address|0xc0,data); 
.................... } 
....................  
.................... BYTE rtc_read_nvr(BYTE address) { 
....................     return(read_ds1302(address|0xc1)); 
.................... } 
....................  
.................... #include <24512.c> 
.................... /////////////////////////////////////////////////////////////////////////// 
.................... ////   Library for a 24LC512 serial EEPROM                             //// 
.................... ////                                                                   //// 
.................... ////   init_ext_eeprom();    Call before the other functions are used  //// 
.................... ////                                                                   //// 
.................... ////   write_ext_eeprom(a, d);  Write the byte d to the address a      //// 
.................... ////                                                                   //// 
.................... ////   d = read_ext_eeprom(a);   Read the byte d from the address a    //// 
.................... ////                                                                   //// 
.................... ////   The main program may define eeprom_sda                          //// 
.................... ////   and eeprom_scl to override the defaults below.                  //// 
.................... ////                                                                   //// 
.................... /////////////////////////////////////////////////////////////////////////// 
.................... ////        (C) Copyright 1996,2003 Custom Computer Services           //// 
.................... //// This source code may only be used by licensed users of the CCS C  //// 
.................... //// compiler.  This source code may only be distributed to other      //// 
.................... //// licensed users of the CCS C compiler.  No other use, reproduction //// 
.................... //// or distribution is permitted without written permission.          //// 
.................... //// Derivative programs created using this software in object code    //// 
.................... //// form are not restricted in any way.                               //// 
.................... /////////////////////////////////////////////////////////////////////////// 
....................  
.................... #ifndef EEPROM_SDA 
....................  
.................... #define EEPROM_SDA  PIN_C4 
.................... #define EEPROM_SCL  PIN_C3 
....................  
.................... #endif 
....................  
.................... #use i2c(master, sda=EEPROM_SDA, scl=EEPROM_SCL) 
*
023F2:  MOVLW  08
023F4:  MOVWF  01
023F6:  MOVLW  05
023F8:  MOVWF  00
023FA:  DECFSZ 00,F
023FC:  BRA    23FA
023FE:  BCF    F8B.3
02400:  BCF    F94.3
02402:  MOVLW  06
02404:  MOVWF  00
02406:  DECFSZ 00,F
02408:  BRA    2406
0240A:  MOVLB  7
0240C:  RLCF   x20,F
0240E:  BCF    F8B.4
02410:  BTFSC  FD8.0
02412:  BSF    F94.4
02414:  BTFSS  FD8.0
02416:  BCF    F94.4
02418:  BSF    F94.3
0241A:  BTFSS  F82.3
0241C:  BRA    241A
0241E:  DECFSZ 01,F
02420:  BRA    2424
02422:  BRA    2428
02424:  MOVLB  0
02426:  BRA    23F6
02428:  MOVLW  05
0242A:  MOVWF  00
0242C:  DECFSZ 00,F
0242E:  BRA    242C
02430:  BCF    F8B.3
02432:  BCF    F94.3
02434:  NOP   
02436:  BSF    F94.4
02438:  MOVLW  06
0243A:  MOVWF  00
0243C:  DECFSZ 00,F
0243E:  BRA    243C
02440:  MOVLW  06
02442:  MOVWF  00
02444:  DECFSZ 00,F
02446:  BRA    2444
02448:  BSF    F94.3
0244A:  BTFSS  F82.3
0244C:  BRA    244A
0244E:  CLRF   01
02450:  MOVLW  06
02452:  MOVWF  00
02454:  DECFSZ 00,F
02456:  BRA    2454
02458:  BTFSC  F82.4
0245A:  BSF    01.0
0245C:  BCF    F8B.3
0245E:  BCF    F94.3
02460:  BCF    F8B.4
02462:  BCF    F94.4
02464:  MOVLB  0
02466:  RETLW  00
02468:  MOVLW  08
0246A:  MOVLB  7
0246C:  MOVWF  x0B
0246E:  MOVFF  00,70C
02472:  BSF    F94.4
02474:  MOVLW  06
02476:  MOVWF  00
02478:  DECFSZ 00,F
0247A:  BRA    2478
0247C:  BSF    F94.3
0247E:  BTFSS  F82.3
02480:  BRA    247E
02482:  BTFSC  F82.4
02484:  BSF    FD8.0
02486:  BTFSS  F82.4
02488:  BCF    FD8.0
0248A:  RLCF   01,F
0248C:  MOVLW  05
0248E:  MOVWF  00
02490:  DECFSZ 00,F
02492:  BRA    2490
02494:  BCF    F94.3
02496:  BCF    F8B.3
02498:  DECFSZ x0B,F
0249A:  BRA    2472
0249C:  BSF    F94.4
0249E:  MOVLW  06
024A0:  MOVWF  00
024A2:  DECFSZ 00,F
024A4:  BRA    24A2
024A6:  BCF    F8B.4
024A8:  MOVF   x0C,W
024AA:  BTFSS  FD8.2
024AC:  BCF    F94.4
024AE:  NOP   
024B0:  BSF    F94.3
024B2:  BTFSS  F82.3
024B4:  BRA    24B2
024B6:  MOVLW  05
024B8:  MOVWF  00
024BA:  DECFSZ 00,F
024BC:  BRA    24BA
024BE:  BCF    F8B.3
024C0:  BCF    F94.3
024C2:  MOVLW  06
024C4:  MOVWF  00
024C6:  DECFSZ 00,F
024C8:  BRA    24C6
024CA:  BCF    F8B.4
024CC:  BCF    F94.4
024CE:  MOVLB  0
024D0:  RETLW  00
....................  
.................... #define EEPROM_ADDRESS long int 
.................... #define EEPROM_SIZE   65535 
....................  
.................... void init_ext_eeprom() 
.................... { 
....................    output_float(EEPROM_SCL); 
....................    output_float(EEPROM_SDA); 
....................  
.................... } 
....................  
.................... void write_ext_eeprom(long int address, BYTE data) 
.................... { 
....................    short int status; 
....................    i2c_start(); 
*
063D6:  BSF    F94.4
063D8:  MOVLW  05
063DA:  MOVWF  00
063DC:  DECFSZ 00,F
063DE:  BRA    63DC
063E0:  BSF    F94.3
063E2:  MOVLW  06
063E4:  MOVWF  00
063E6:  DECFSZ 00,F
063E8:  BRA    63E6
063EA:  BCF    F8B.4
063EC:  BCF    F94.4
063EE:  MOVLW  05
063F0:  MOVWF  00
063F2:  DECFSZ 00,F
063F4:  BRA    63F2
063F6:  BCF    F8B.3
063F8:  BCF    F94.3
....................    i2c_write(0xa0); 
063FA:  MOVLW  A0
063FC:  MOVLB  7
063FE:  MOVWF  x20
06400:  MOVLB  0
06402:  CALL   23F2
....................    i2c_write(address>>8); 
06406:  MOVFF  71B,71E
0640A:  MOVLB  7
0640C:  CLRF   x1F
0640E:  MOVFF  71B,720
06412:  MOVLB  0
06414:  CALL   23F2
....................    i2c_write(address); 
06418:  MOVFF  71A,720
0641C:  CALL   23F2
....................    i2c_write(data); 
06420:  MOVFF  71C,720
06424:  CALL   23F2
....................    i2c_stop(); 
06428:  BCF    F94.4
0642A:  NOP   
0642C:  BSF    F94.3
0642E:  BTFSS  F82.3
06430:  BRA    642E
06432:  MOVLW  05
06434:  MOVWF  00
06436:  DECFSZ 00,F
06438:  BRA    6436
0643A:  BRA    643C
0643C:  NOP   
0643E:  BSF    F94.4
06440:  MOVLW  05
06442:  MOVWF  00
06444:  DECFSZ 00,F
06446:  BRA    6444
.................... } 
06448:  RETLW  00
....................  
.................... BYTE read_ext_eeprom(long int address) { 
....................    BYTE data; 
....................    i2c_start(); 
*
024D2:  BSF    F94.4
024D4:  MOVLW  05
024D6:  MOVWF  00
024D8:  DECFSZ 00,F
024DA:  BRA    24D8
024DC:  BSF    F94.3
024DE:  MOVLW  06
024E0:  MOVWF  00
024E2:  DECFSZ 00,F
024E4:  BRA    24E2
024E6:  BCF    F8B.4
024E8:  BCF    F94.4
024EA:  MOVLW  05
024EC:  MOVWF  00
024EE:  DECFSZ 00,F
024F0:  BRA    24EE
024F2:  BCF    F8B.3
024F4:  BCF    F94.3
....................    i2c_write(0xa0); 
024F6:  MOVLW  A0
024F8:  MOVLB  7
024FA:  MOVWF  x20
024FC:  MOVLB  0
024FE:  RCALL  23F2
....................    i2c_write(address>>8); 
02500:  MOVFF  708,70A
02504:  MOVLB  7
02506:  CLRF   x0B
02508:  MOVFF  708,720
0250C:  MOVLB  0
0250E:  RCALL  23F2
....................    i2c_write(address); 
02510:  MOVFF  707,720
02514:  RCALL  23F2
....................    i2c_start(); 
02516:  BSF    F94.4
02518:  MOVLW  05
0251A:  MOVWF  00
0251C:  DECFSZ 00,F
0251E:  BRA    251C
02520:  BSF    F94.3
02522:  MOVLW  06
02524:  MOVWF  00
02526:  DECFSZ 00,F
02528:  BRA    2526
0252A:  BTFSS  F82.3
0252C:  BRA    252A
0252E:  BCF    F8B.4
02530:  BCF    F94.4
02532:  MOVLW  05
02534:  MOVWF  00
02536:  DECFSZ 00,F
02538:  BRA    2536
0253A:  BCF    F8B.3
0253C:  BCF    F94.3
....................    i2c_write(0xa1); 
0253E:  MOVLW  A1
02540:  MOVLB  7
02542:  MOVWF  x20
02544:  MOVLB  0
02546:  RCALL  23F2
....................    data=i2c_read(0); 
02548:  CLRF   00
0254A:  RCALL  2468
0254C:  MOVFF  01,709
....................    i2c_stop(); 
02550:  BCF    F94.4
02552:  NOP   
02554:  BSF    F94.3
02556:  BTFSS  F82.3
02558:  BRA    2556
0255A:  MOVLW  05
0255C:  MOVWF  00
0255E:  DECFSZ 00,F
02560:  BRA    255E
02562:  BRA    2564
02564:  NOP   
02566:  BSF    F94.4
02568:  MOVLW  05
0256A:  MOVWF  00
0256C:  DECFSZ 00,F
0256E:  BRA    256C
....................    return(data); 
02570:  MOVLB  7
02572:  MOVFF  709,01
.................... } 
02576:  MOVLB  0
02578:  RETLW  00
....................  
....................  
.................... #define   STOP          !input(PIN_B0) 
.................... #define   DOORS         !input(PIN_B1) 
.................... #define   LOWB          !input(PIN_B2) 
.................... #define   EMPAQUES      !input(PIN_B3) 
....................  
.................... #define   UP            !input(PIN_B4) 
.................... #define   DOWN          !input(PIN_B5) 
.................... #define   RIGHT         !input(PIN_B6) 
.................... #define   LEFT          !input(PIN_B7) 
....................  
.................... //#define   EMPAQUEL      !input(PIN_B4) 
.................... //#define   DOORL         !input(PIN_B5) 
.................... //#define   BLOQUEOS      !input(PIN_B6) 
.................... //#define   BLOQUEOL      !input(PIN_B7) 
....................  
.................... // Variables creada para no eliminar entradas creadas del programa anterior 
.................... short EMPAQUEL,DOORL,BLOQUEOS,BLOQUEOL; 
.................... #define OFF 0 
.................... #define ON  1 
.................... #define RX_BUFFER_SIZE  10 
.................... char Rx_Buffer[RX_BUFFER_SIZE+1]; 
.................... char Rx_Buffer2[RX_BUFFER_SIZE+1]; 
.................... char RX_Wr_Index=0; 
....................  
.................... //Comunicacion//------------------------ 
.................... byte txbuf[0X25]; 
.................... byte SlaveB0Tx[50]; 
.................... byte SlaveC0Tx[50]; 
.................... byte SlaveC0Rx[50]; 
.................... byte dato=0;            //Contendr la informacin a enviar o recibir 
.................... byte direccion=0;       //Contendr la direccin del esclavo en el bus I2C 
.................... byte posicion=0;        //Contendr la posicin en el buffer de memoria del esclavo donde se almacenar o de donde se recuperar el dato 
.................... //byte ByteConfig1=0,ByteConfig2=0,ByteConfig3=0; 
....................  
.................... /* Tabla de Modulos, Primera Fila Ao Regular y el siguiente ao Bisiesto 
.................... E   F   M   A   M   J   J   A   S   O   N   D 
.................... 0   3   3   6   1   4   6   2   5   0   3   5 
.................... 0   3   4   0   2   5   0   3   6   1   4   6 
.................... */ 
.................... int8 Regular[12]={0,3,3,6,1,4,6,2,5,0,3,5}; 
.................... int8 Bisiesto[12]={0,3,4,0,2,5,0,3,6,1,4,6}; 
....................  
.................... //Salidas//------------------------ 
.................... short suministroAire=OFF,aguaEnfriador=OFF,bombaVacio=OFF,empaqueLimpio=OFF,empaqueSucio=OFF,suministroVapor=OFF,Paso=OFF,outVacio=OFF,Desfogue=OFF,Aire=OFF,cilindroSucio=OFF,cilindroLimpio=OFF,Aux=OFF; 
.................... short seguroValvula=OFF,seguroValvula2=OFF,EstadoAux1=OFF,EstadoAux2=OFF; 
....................  
.................... //Alarmas//--------------------- 
.................... short AlarmaTiempoProlongado=OFF,AlarmaSobreTemperatura=OFF,AlarmaTermostato=OFF,AlarmaPuertaS=OFF,AlarmaPuertaL=OFF,AlarmaEmergencia=OFF,AlarmaVacio=OFF,AlarmaEmpaqueL=OFF,AlarmaEmpaqueS=OFF; 
.................... short AlarmaBomba=OFF,guardaCiclo=OFF,Cilindro=OFF,AlarmaLlenado=OFF,cerroSucio=OFF,cerroLimpio=OFF,pulsoSubirS=OFF,pulsoSubirL=OFF,vacioEmpaqueL=OFF,vacioEmpaqueS=OFF,abrirPuertaL=OFF,abrirPuertaS=OFF,pulsoBajarS=OFF; 
.................... int16 TiempoVacio=600,tVacioEmpaqueS=0,tVacioEmpaqueL=0; 
....................  
.................... //Banderas//-------------------- 
.................... short EstadoAguaEnfriador=OFF,EstadoSuministroV=OFF,EstadoCilindrosL=OFF,EstadoCilindrosS=OFF,EstadoEmpaqueL=OFF,EstadoEmpaqueS=OFF,oprimioIniciar=OFF,oprimioCiclo=OFF,oprimioCicloP=OFF,oprimioConfig=OFF; 
.................... short IniciaLlenado=OFF,IniciaCiclo=OFF,Esterilizando=OFF,Secando=OFF,SensadoNivel=OFF,Desfogando=OFF,DesfogueSuave=OFF,CalderinLleno=OFF,Start=OFF; 
.................... short EstadoDesfogue=OFF,EstadoSuministro=OFF,EstadoAire=OFF,PruebaEstados=OFF,disp_Guarda=OFF,Ciclo=OFF,EstadoAgua2=OFF; 
.................... short Op=OFF,Op2=OFF,Minutos=OFF,Segundos=OFF,GuardaEEPROM=OFF,EstadoPaso=OFF,EstadoVacio=OFF,EstadoBuzzer=OFF,flagAlarma=OFF; 
.................... short flagBuzzer=OFF,flagSilencio=OFF,Finalizo=OFF,AlarmaPresion=OFF,EstadoACierre=OFF,EstadoBomba=OFF,Libre=OFF,ingreso=OFF,Fugas=OFF; 
.................... short PreCalentamiento=OFF,IniciaVacio=OFF,IniciaVacio2=OFF,Vacio=OFF,flag_vac=OFF,flag_vacio=OFF,flag_pulso=OFF,EstadoAireBomba=OFF; 
.................... short SensadoNivelL=OFF,NivelBajo=OFF,onBomba=OFF,flagBombaAgua=OFF,flagBombaAguaOff=OFF,flagImprimir=OFF,entro=OFF; 
.................... short EstadoEmpaque=OFF,EstadoSSR1=OFF,EstadoSSR2=OFF,ReservorioLleno=OFF,SensadoNivelR=OFF,borra=OFF; 
....................  
.................... //Tiempos//--------------------- 
.................... int16 TiempoCiclo=0,TiempoSensadoNivel=0,Tp=0,Tc=0,tguarda=0,tNivelBajo=0,tIniciar=0,tCiclof=0,tCicloP=0,tConfig=0,TiempoLlenado=OFF; 
.................... int8 sEst=0,mEst=0,sSec=0,mSec=0,sEstp=0,mEstp=0,sSecp=0,mSecp=0;// Tiempo transcurrido 
....................  
.................... //Control//------------------------ 
.................... float PromPresion[20]={0.0,0.0,0.0,0.0,0.0,0.0,0.0,0.0,0.0,0.0,0.0,0.0,0.0,0.0,0.0,0.0,0.0,0.0,0.0,0.0}; 
.................... float PromPresionp[20]={0.0,0.0,0.0,0.0,0.0,0.0,0.0,0.0,0.0,0.0,0.0,0.0,0.0,0.0,0.0,0.0,0.0,0.0,0.0,0.0}; 
.................... float Temporal=0.0,Aumento=0.0,tmp2=0.0; 
.................... float K=0.0012858,Histeresis=0.0; 
.................... float R10=6800,AN=0,BN=0; 
.................... float X[2]={0.0,0.0}; 
.................... float promediopresion=0.0,promediopresionp=0.0; 
.................... int8 h=0,l=0,MediaMovil=20,PantallaPrincipal=0,TipoClave=0,Modulo=0,TiempoSensadoNivelR=0,subirPuertaLimpio=0,cerroSucioInt=0,cerroLimpioInt=0,histe=0,desviacion=0; 
.................... float V0=0.0,Pt,Tciclo=10.0,Tpulso=0.0,error=0.0,Prom=0.0,Temperature=0.0,tmp=0.0,Ganancia=25.0,Ganancia2=20.0,desvio=1.0; 
.................... float V1=0.0,Presion=0.0,V2=0.0,Presionp=0.0; 
.................... float Temperatura=0.0,Temperatura2=0.0; 
.................... float a=0.0011,b=2.3302,c=-244.0723; 
.................... int8 Integral=0,Derivativo=0,CicloLibre=0,pulsosConfigurados=6,vacioTest=17,vacioCiclo=25; 
.................... float p1=0.0000011617,p2=-0.0010575,p3=0.44114,p4=65.043,Tactual=0.0; 
.................... //float p1=-0.00036062,p2=0.30947,p3=72.816,Tactual=0.0; 
....................  
.................... //Varios//-------------------------------- 
.................... short desfoguelento=0,Lectura=0,Grafica=0; 
.................... short disp_Stop=0,flagTC=0,flagImprime=0; 
.................... int8 Control=0,tiemporecta=0,Controlando=0,timpresion=2,CalculoImpresion=0,Inicio=1,Dato_Exitoso=0,Dato2=0,Codigo=0; 
.................... int8 Menu=0, MenuAnt=0,MenuAntt=240,CiclosL=0,CiclosH=0,CicloSeleccionado=0,Tapertura=0; 
.................... int16 CantidadPulsos=4,tEmpaqueS=0,tEmpaqueL=0,tEnfriador=0; 
.................... int8 Setpoint=0,Opcion=1,Opcion2=1,tiempo_esterilizacion=0,tiempo_secado=0,m=0; 
.................... int16 tiempos=0,tiempos2=0,tiempos3=0,tiempoctrl=0,Nivel=0,tinicio=0,PresionCamara=0,PresionPreCamara=0,Ciclos=0,tbomba=0,tvacio=0,tiempoImpresion=0,PresionFinal=0; 
.................... signed int  Password[4]={0,0,0,0};        // Contrasena Almacenada de 4 digitos 
.................... int8 r=0,t=0,r22=0,t2=0,TiempoControl=0,NivelDes=0; 
.................... int8 y=0,ConteoBuzzer=0,codigoAlarma=0,codigoAnt=0,codigoUsuario2=0; 
.................... int16 tbuzzer=0,tsilencio=0,tStop=0,cicloVisualizado=0,cicloVisto=0,j=0,i=0,posicionDato=0; 
.................... int8 Year=18,Mes=9,Dia=13,Hora=0,Minuto=0,Segundo=0,dow=0,NivelVacio=25,Atmosferica=75,PulsoPositivo=10,PulsosVacio=0; 
.................... int8 YearTx=0,MesTx=0,DiaTx=0,HoraTx=0,MinutoTx=0,dowTx=0,SetTime=0,Imprime=0,Pulsos=0,codigoUsuario=0,codigoUsuarioant=0; 
.................... signed int8 G1=0,G2=0,sg1=0,sg2=0; 
.................... const char Texto[12][20]={"CALENTAMIENTO","NO ENVUELTOS 134","NO ENVUELTOS 121","ENVUELTOS 134","ENVUELTOS 121","ENVUELTO DOBLE 1", 
.................... "ENVUELTO DOBLE 2","PRION","BOWIE & DICK","TEST DE FUGAS","TEST DE COMPONENTES","HORA Y FECHA"}; 
....................  
.................... //Textil & Instrumental 134C, 5m,15m 
.................... //Prion 134C, 20m,15m 
.................... //Caucho 121C, 25m,15m 
.................... //Contenedores 134C, 5m,25m 
.................... //Rapid 134C, 5m,8m 
....................  
.................... char usuario[20]; 
.................... float TCiclos[7]; 
.................... int16 PcCiclos[7]; 
.................... int16 PpcCiclos[7]; 
.................... int8 horaCiclos[7]; 
.................... int8 minutoCiclos[7]; 
.................... int8 ACiclos[7]; 
.................... int8 diaCiclos=0,mesCiclos=0,yearCiclos=0,usuarioCiclos=0,cicloCiclos=0; 
.................... short estados[30]={0,0,0,0,0,0,0,0,0,0,0,0,0,0,0,0,0,0,0,0,0,0,0,0,0,0,0,0,0,0}; 
....................  
.................... typedef struct{ 
....................    int8 Password[4]; 
.................... }Claves; 
....................  
.................... typedef struct{ 
....................    int8 Temperatura; 
....................    int8 Minutoest; 
....................    int8 Segundoest; 
....................    int8 Minutosec; 
....................    int8 Segundosec; 
....................    int8 PulsosVacio; 
....................    int8 NivelVacio; 
....................    int8 NivelDesfogue; 
.................... }Personalizado; 
....................  
.................... typedef struct{ 
....................    float BN; 
....................    float AN; 
....................    float V0; 
....................    float Pt; 
....................    float RPT100; 
....................    int8 l; 
....................    int8 h; 
....................    float Prom; 
....................    float Temperature; 
....................    int8 Ajuste; 
....................    int8 Ajusten; 
....................    float promedio[80]; 
....................    float Gain; 
.................... }SensorPT100; 
....................  
.................... SensorPT100 Sensor[2]; 
.................... Personalizado CiclosPersonalizados[20]; 
.................... Claves Clave[10]; 
....................  
.................... #include "Funciones.h" 
.................... void BorraBuffer(void){ 
.................... RX_Buffer[0]=0; 
*
061E0:  CLRF   32
.................... RX_Buffer[1]=0; 
061E2:  CLRF   33
.................... RX_Buffer[2]=0; 
061E4:  CLRF   34
.................... RX_Buffer[3]=0; 
061E6:  CLRF   35
.................... RX_Buffer[4]=0; 
061E8:  CLRF   36
.................... RX_Buffer[5]=0; 
061EA:  CLRF   37
.................... RX_Buffer[6]=0; 
061EC:  CLRF   38
.................... RX_Buffer[7]=0; 
061EE:  CLRF   39
.................... RX_Buffer[8]=0; 
061F0:  CLRF   3A
.................... RX_Buffer[9]=0; 
061F2:  CLRF   3B
....................  
.................... RX_Buffer2[0]=0; 
061F4:  CLRF   3D
.................... RX_Buffer2[1]=0; 
061F6:  CLRF   3E
.................... RX_Buffer2[2]=0; 
061F8:  CLRF   3F
.................... RX_Buffer2[3]=0; 
061FA:  CLRF   40
.................... RX_Buffer2[4]=0; 
061FC:  CLRF   41
.................... RX_Buffer2[5]=0; 
061FE:  CLRF   42
.................... RX_Buffer2[6]=0; 
06200:  CLRF   43
.................... RX_Buffer2[7]=0; 
06202:  CLRF   44
.................... RX_Buffer2[8]=0; 
06204:  CLRF   45
.................... RX_Buffer2[9]=0; 
06206:  CLRF   46
.................... } 
06208:  GOTO   627E (RETURN)
....................  
.................... void SendDataDisplay(void){ 
.................... delay_us(10); 
*
04752:  MOVLW  10
04754:  MOVWF  00
04756:  DECFSZ 00,F
04758:  BRA    4756
0475A:  NOP   
.................... putc(0xFF); 
0475C:  MOVLW  FF
0475E:  RCALL  474A
.................... delay_us(10); 
04760:  MOVLW  10
04762:  MOVWF  00
04764:  DECFSZ 00,F
04766:  BRA    4764
04768:  NOP   
.................... putc(0xFF); 
0476A:  MOVLW  FF
0476C:  RCALL  474A
.................... delay_us(10); 
0476E:  MOVLW  10
04770:  MOVWF  00
04772:  DECFSZ 00,F
04774:  BRA    4772
04776:  NOP   
.................... putc(0xFF); 
04778:  MOVLW  FF
0477A:  RCALL  474A
.................... delay_us(10); 
0477C:  MOVLW  10
0477E:  MOVWF  00
04780:  DECFSZ 00,F
04782:  BRA    4780
04784:  NOP   
.................... } 
04786:  RETLW  00
....................  
.................... short esBisiesto(int8 year) { 
....................      return ((year % 4 == 0 && year % 100 != 0) || year % 400 == 0); 
*
06D34:  MOVLB  7
06D36:  MOVF   x02,W
06D38:  ANDLW  03
06D3A:  BNZ   6D50
06D3C:  MOVFF  702,70B
06D40:  MOVLW  64
06D42:  MOVWF  x0C
06D44:  MOVLB  0
06D46:  CALL   62E6
06D4A:  MOVF   00,F
06D4C:  BNZ   6D80
06D4E:  MOVLB  7
06D50:  CLRF   x19
06D52:  MOVFF  702,718
06D56:  MOVLW  01
06D58:  MOVWF  x1B
06D5A:  MOVLW  90
06D5C:  MOVWF  x1A
06D5E:  MOVLB  0
06D60:  CALL   6390
06D64:  MOVFF  00,703
06D68:  MOVLB  7
06D6A:  MOVFF  03,704
06D6E:  MOVF   x03,F
06D70:  BNZ   6D7C
06D72:  MOVF   x04,F
06D74:  BTFSS  FD8.2
06D76:  BRA    6D7C
06D78:  MOVLB  0
06D7A:  BRA    6D80
06D7C:  MOVLW  00
06D7E:  BRA    6D84
06D80:  MOVLW  01
06D82:  MOVLB  7
06D84:  MOVWF  01
.................... } 
06D86:  MOVLB  0
06D88:  RETLW  00
....................  
.................... void LimitaDia(){ 
....................    if(MesTx>12) 
*
06E78:  MOVLB  2
06E7A:  MOVF   xFA,W
06E7C:  SUBLW  0C
06E7E:  BC    6E84
....................       MesTx=10; 
06E80:  MOVLW  0A
06E82:  MOVWF  xFA
....................    if(DiaTx>31) 
06E84:  MOVF   xFB,W
06E86:  SUBLW  1F
06E88:  BC    6E8E
....................       DiaTx=16; 
06E8A:  MOVLW  10
06E8C:  MOVWF  xFB
....................    if(YearTx>99) 
06E8E:  MOVF   xF9,W
06E90:  SUBLW  63
06E92:  BC    6E98
....................       YearTx=18;    
06E94:  MOVLW  12
06E96:  MOVWF  xF9
....................    if(HoraTx>24) 
06E98:  MOVF   xFC,W
06E9A:  SUBLW  18
06E9C:  BC    6EA2
....................       HoraTx=11;       
06E9E:  MOVLW  0B
06EA0:  MOVWF  xFC
....................    if(MinutoTx>59) 
06EA2:  MOVF   xFD,W
06EA4:  SUBLW  3B
06EA6:  BC    6EAC
....................       MinutoTx=30;       
06EA8:  MOVLW  1E
06EAA:  MOVWF  xFD
....................     
....................       if(MesTx==2){ 
06EAC:  MOVF   xFA,W
06EAE:  SUBLW  02
06EB0:  BNZ   6EDC
....................          if(esBisiesto(YearTx)){ 
06EB2:  MOVFF  2F9,702
06EB6:  MOVLB  0
06EB8:  RCALL  6D34
06EBA:  MOVF   01,F
06EBC:  BZ    6ECE
....................             if(DiaTx>29){ 
06EBE:  MOVLB  2
06EC0:  MOVF   xFB,W
06EC2:  SUBLW  1D
06EC4:  BC    6ECA
....................                DiaTx=29; 
06EC6:  MOVLW  1D
06EC8:  MOVWF  xFB
....................                //glcd_fillScreen(OFF); 
....................             } 
....................          }else{ 
06ECA:  BRA    6EDA
06ECC:  MOVLB  0
....................             if(DiaTx>28){ 
06ECE:  MOVLB  2
06ED0:  MOVF   xFB,W
06ED2:  SUBLW  1C
06ED4:  BC    6EDA
....................                DiaTx=28; 
06ED6:  MOVLW  1C
06ED8:  MOVWF  xFB
....................                //glcd_fillScreen(OFF); 
....................             } 
....................          } 
....................       }else{ 
06EDA:  BRA    6F06
....................          if(MesTx<=7){ 
06EDC:  MOVF   xFA,W
06EDE:  SUBLW  07
06EE0:  BNC   6EF4
....................             if(MesTx % 2 ==0){ 
06EE2:  MOVF   xFA,W
06EE4:  ANDLW  01
06EE6:  BNZ   6EF2
....................                if(DiaTx>30){ 
06EE8:  MOVF   xFB,W
06EEA:  SUBLW  1E
06EEC:  BC    6EF2
....................                   DiaTx=30;  
06EEE:  MOVLW  1E
06EF0:  MOVWF  xFB
....................                   //glcd_fillScreen(OFF); 
....................                } 
....................             } 
....................          }else{ 
06EF2:  BRA    6F06
....................             if(MesTx % 2 ==1){ 
06EF4:  MOVF   xFA,W
06EF6:  ANDLW  01
06EF8:  SUBLW  01
06EFA:  BNZ   6F06
....................                if(DiaTx>30){ 
06EFC:  MOVF   xFB,W
06EFE:  SUBLW  1E
06F00:  BC    6F06
....................                   DiaTx=30;  
06F02:  MOVLW  1E
06F04:  MOVWF  xFB
....................                   //glcd_fillScreen(OFF); 
....................                } 
....................             } 
....................          } 
....................       } 
.................... } 
06F06:  MOVLB  0
06F08:  GOTO   B1A6 (RETURN)
....................  
.................... void ActualizaRecta(){ 
....................    X[y]=Temperature; 
....................    y++; 
....................    if(y>=2){ 
....................       y=0; 
....................       Aumento=X[1]-X[0]; 
....................    } 
.................... } 
....................  
.................... // Funcion para conversor analogo-digital 
.................... float sensores(int x){ 
.................... float y;set_adc_channel(x);delay_ms(1);y=read_adc();return (y); 
*
04790:  MOVLB  7
04792:  RLCF   x08,W
04794:  MOVWF  00
04796:  RLCF   00,F
04798:  MOVLW  FC
0479A:  ANDWF  00,F
0479C:  MOVFF  00,01
047A0:  MOVF   FC2,W
047A2:  ANDLW  C3
047A4:  IORWF  00,W
047A6:  MOVWF  FC2
047A8:  MOVLW  01
047AA:  MOVWF  x18
047AC:  MOVLB  0
047AE:  CALL   21D6
047B2:  BSF    FC2.1
047B4:  BTFSC  FC2.1
047B6:  BRA    47B4
047B8:  MOVFF  FC4,715
047BC:  MOVFF  FC3,714
047C0:  MOVLB  0
047C2:  CALL   21A0
047C6:  MOVFF  03,70C
047CA:  MOVFF  02,70B
047CE:  MOVFF  01,70A
047D2:  MOVFF  00,709
047D6:  MOVFF  709,00
047DA:  MOVFF  70A,01
047DE:  MOVFF  70B,02
047E2:  MOVFF  70C,03
.................... } 
047E6:  RETLW  00
....................  
.................... float LeerPT100(int8 canal,int media) 
.................... { 
....................    Prom=0.0;  
*
048DE:  MOVLB  2
048E0:  CLRF   x43
048E2:  CLRF   x42
048E4:  CLRF   x41
048E6:  CLRF   x40
....................    Sensor[canal].V0 = sensores(canal);   //Lectura de Divisor de Voltaje de PT100 con resistencia de 6.18k (+-2%) 
048E8:  MOVLB  7
048EA:  CLRF   x1B
048EC:  MOVFF  704,71A
048F0:  MOVLW  01
048F2:  MOVWF  x1D
048F4:  MOVLW  64
048F6:  MOVWF  x1C
048F8:  MOVLB  0
048FA:  CALL   23D0
048FE:  MOVFF  01,706
04902:  MOVLW  08
04904:  MOVLB  7
04906:  ADDWF  01,W
04908:  MOVWF  01
0490A:  MOVLW  00
0490C:  ADDWFC 02,W
0490E:  MOVWF  03
04910:  MOVF   01,W
04912:  ADDLW  72
04914:  MOVWF  01
04916:  MOVLW  03
04918:  ADDWFC 03,F
0491A:  MOVFF  01,706
0491E:  MOVFF  03,707
04922:  MOVFF  704,708
04926:  MOVLB  0
04928:  RCALL  4790
0492A:  MOVFF  707,FEA
0492E:  MOVFF  706,FE9
04932:  MOVFF  00,FEF
04936:  MOVFF  01,FEC
0493A:  MOVFF  02,FEC
0493E:  MOVFF  03,FEC
....................    Sensor[canal].V0 = Sensor[canal].V0/Sensor[canal].Gain; // Se elimina la ganancia 
04942:  MOVLB  7
04944:  CLRF   x1B
04946:  MOVFF  704,71A
0494A:  MOVLW  01
0494C:  MOVWF  x1D
0494E:  MOVLW  64
04950:  MOVWF  x1C
04952:  MOVLB  0
04954:  CALL   23D0
04958:  MOVFF  01,706
0495C:  MOVLW  08
0495E:  MOVLB  7
04960:  ADDWF  01,W
04962:  MOVWF  01
04964:  MOVLW  00
04966:  ADDWFC 02,W
04968:  MOVWF  03
0496A:  MOVF   01,W
0496C:  ADDLW  72
0496E:  MOVWF  01
04970:  MOVLW  03
04972:  ADDWFC 03,F
04974:  MOVFF  01,706
04978:  MOVFF  03,707
0497C:  CLRF   x1B
0497E:  MOVFF  704,71A
04982:  MOVLW  01
04984:  MOVWF  x1D
04986:  MOVLW  64
04988:  MOVWF  x1C
0498A:  MOVLB  0
0498C:  CALL   23D0
04990:  MOVFF  01,708
04994:  MOVLW  08
04996:  MOVLB  7
04998:  ADDWF  01,W
0499A:  MOVWF  01
0499C:  MOVLW  00
0499E:  ADDWFC 02,W
049A0:  MOVWF  03
049A2:  MOVF   01,W
049A4:  ADDLW  72
049A6:  MOVWF  FE9
049A8:  MOVLW  03
049AA:  ADDWFC 03,W
049AC:  MOVWF  FEA
049AE:  MOVFF  FEF,708
049B2:  MOVFF  FEC,709
049B6:  MOVFF  FEC,70A
049BA:  MOVFF  FEC,70B
049BE:  CLRF   x1B
049C0:  MOVFF  704,71A
049C4:  MOVLW  01
049C6:  MOVWF  x1D
049C8:  MOVLW  64
049CA:  MOVWF  x1C
049CC:  MOVLB  0
049CE:  CALL   23D0
049D2:  MOVFF  02,70D
049D6:  MOVFF  01,70C
049DA:  MOVLW  60
049DC:  MOVLB  7
049DE:  ADDWF  01,W
049E0:  MOVWF  01
049E2:  MOVLW  01
049E4:  ADDWFC 02,W
049E6:  MOVWF  03
049E8:  MOVF   01,W
049EA:  ADDLW  72
049EC:  MOVWF  FE9
049EE:  MOVLW  03
049F0:  ADDWFC 03,W
049F2:  MOVWF  FEA
049F4:  MOVFF  FEF,00
049F8:  MOVFF  FEC,01
049FC:  MOVFF  FEC,02
04A00:  MOVFF  FEC,03
04A04:  MOVFF  70B,711
04A08:  MOVFF  70A,710
04A0C:  MOVFF  709,70F
04A10:  MOVFF  708,70E
04A14:  MOVFF  03,715
04A18:  MOVFF  02,714
04A1C:  MOVFF  01,713
04A20:  MOVFF  00,712
04A24:  MOVLB  0
04A26:  CALL   21FE
04A2A:  MOVFF  707,FEA
04A2E:  MOVFF  706,FE9
04A32:  MOVFF  00,FEF
04A36:  MOVFF  01,FEC
04A3A:  MOVFF  02,FEC
04A3E:  MOVFF  03,FEC
....................    Sensor[canal].V0 = Sensor[canal].V0+14.83; // Se suma voltaje de divisor fijo 
04A42:  MOVLB  7
04A44:  CLRF   x1B
04A46:  MOVFF  704,71A
04A4A:  MOVLW  01
04A4C:  MOVWF  x1D
04A4E:  MOVLW  64
04A50:  MOVWF  x1C
04A52:  MOVLB  0
04A54:  CALL   23D0
04A58:  MOVFF  01,706
04A5C:  MOVLW  08
04A5E:  MOVLB  7
04A60:  ADDWF  01,W
04A62:  MOVWF  01
04A64:  MOVLW  00
04A66:  ADDWFC 02,W
04A68:  MOVWF  03
04A6A:  MOVF   01,W
04A6C:  ADDLW  72
04A6E:  MOVWF  01
04A70:  MOVLW  03
04A72:  ADDWFC 03,F
04A74:  MOVFF  01,706
04A78:  MOVFF  03,707
04A7C:  CLRF   x1B
04A7E:  MOVFF  704,71A
04A82:  MOVLW  01
04A84:  MOVWF  x1D
04A86:  MOVLW  64
04A88:  MOVWF  x1C
04A8A:  MOVLB  0
04A8C:  CALL   23D0
04A90:  MOVFF  01,708
04A94:  MOVLW  08
04A96:  MOVLB  7
04A98:  ADDWF  01,W
04A9A:  MOVWF  01
04A9C:  MOVLW  00
04A9E:  ADDWFC 02,W
04AA0:  MOVWF  03
04AA2:  MOVF   01,W
04AA4:  ADDLW  72
04AA6:  MOVWF  FE9
04AA8:  MOVLW  03
04AAA:  ADDWFC 03,W
04AAC:  MOVWF  FEA
04AAE:  MOVFF  FEF,708
04AB2:  MOVFF  FEC,709
04AB6:  MOVFF  FEC,70A
04ABA:  MOVFF  FEC,70B
04ABE:  MOVFF  FEA,70D
04AC2:  MOVFF  FE9,70C
04AC6:  BCF    FD8.1
04AC8:  MOVFF  70B,717
04ACC:  MOVFF  70A,716
04AD0:  MOVFF  709,715
04AD4:  MOVFF  708,714
04AD8:  MOVLW  AE
04ADA:  MOVWF  x1B
04ADC:  MOVLW  47
04ADE:  MOVWF  x1A
04AE0:  MOVLW  6D
04AE2:  MOVWF  x19
04AE4:  MOVLW  82
04AE6:  MOVWF  x18
04AE8:  MOVLB  0
04AEA:  CALL   25BA
04AEE:  MOVFF  70D,FEA
04AF2:  MOVFF  70C,FE9
04AF6:  MOVFF  707,FEA
04AFA:  MOVFF  706,FE9
04AFE:  MOVFF  00,FEF
04B02:  MOVFF  01,FEC
04B06:  MOVFF  02,FEC
04B0A:  MOVFF  03,FEC
....................    //Sensor[canal].BN=(Sensor[canal].V0*(R8+R9))+(1023*R9); 
....................    Sensor[canal].Pt = R10/((1023/Sensor[canal].V0)-1); 
04B0E:  MOVLB  7
04B10:  CLRF   x1B
04B12:  MOVFF  704,71A
04B16:  MOVLW  01
04B18:  MOVWF  x1D
04B1A:  MOVLW  64
04B1C:  MOVWF  x1C
04B1E:  MOVLB  0
04B20:  CALL   23D0
04B24:  MOVFF  01,706
04B28:  MOVLW  0C
04B2A:  MOVLB  7
04B2C:  ADDWF  01,W
04B2E:  MOVWF  01
04B30:  MOVLW  00
04B32:  ADDWFC 02,W
04B34:  MOVWF  03
04B36:  MOVF   01,W
04B38:  ADDLW  72
04B3A:  MOVWF  01
04B3C:  MOVLW  03
04B3E:  ADDWFC 03,F
04B40:  MOVFF  01,706
04B44:  MOVFF  03,707
04B48:  CLRF   x1B
04B4A:  MOVFF  704,71A
04B4E:  MOVLW  01
04B50:  MOVWF  x1D
04B52:  MOVLW  64
04B54:  MOVWF  x1C
04B56:  MOVLB  0
04B58:  CALL   23D0
04B5C:  MOVFF  02,709
04B60:  MOVFF  01,708
04B64:  MOVLW  08
04B66:  MOVLB  7
04B68:  ADDWF  01,W
04B6A:  MOVWF  01
04B6C:  MOVLW  00
04B6E:  ADDWFC 02,W
04B70:  MOVWF  03
04B72:  MOVF   01,W
04B74:  ADDLW  72
04B76:  MOVWF  FE9
04B78:  MOVLW  03
04B7A:  ADDWFC 03,W
04B7C:  MOVWF  FEA
04B7E:  MOVFF  FEF,00
04B82:  MOVFF  FEC,01
04B86:  MOVFF  FEC,02
04B8A:  MOVFF  FEC,03
04B8E:  CLRF   x11
04B90:  MOVLW  C0
04B92:  MOVWF  x10
04B94:  MOVLW  7F
04B96:  MOVWF  x0F
04B98:  MOVLW  88
04B9A:  MOVWF  x0E
04B9C:  MOVFF  03,715
04BA0:  MOVFF  02,714
04BA4:  MOVFF  01,713
04BA8:  MOVFF  00,712
04BAC:  MOVLB  0
04BAE:  CALL   21FE
04BB2:  MOVFF  00,708
04BB6:  MOVFF  01,709
04BBA:  MOVFF  02,70A
04BBE:  MOVFF  03,70B
04BC2:  MOVFF  FEA,70D
04BC6:  MOVFF  FE9,70C
04BCA:  BSF    FD8.1
04BCC:  MOVFF  03,717
04BD0:  MOVFF  02,716
04BD4:  MOVFF  01,715
04BD8:  MOVFF  00,714
04BDC:  MOVLB  7
04BDE:  CLRF   x1B
04BE0:  CLRF   x1A
04BE2:  CLRF   x19
04BE4:  MOVLW  7F
04BE6:  MOVWF  x18
04BE8:  MOVLB  0
04BEA:  CALL   25BA
04BEE:  MOVFF  70D,FEA
04BF2:  MOVFF  70C,FE9
04BF6:  MOVFF  207,711
04BFA:  MOVFF  206,710
04BFE:  MOVFF  205,70F
04C02:  MOVFF  204,70E
04C06:  MOVFF  03,715
04C0A:  MOVFF  02,714
04C0E:  MOVFF  01,713
04C12:  MOVFF  00,712
04C16:  CALL   21FE
04C1A:  MOVFF  707,FEA
04C1E:  MOVFF  706,FE9
04C22:  MOVFF  00,FEF
04C26:  MOVFF  01,FEC
04C2A:  MOVFF  02,FEC
04C2E:  MOVFF  03,FEC
....................    //Sensor[canal].Pt=Sensor[canal].Pt-Sensor[canal].RPT100; //Ajuste de impedancia de cableado de PT100    
....................              
....................    if(Sensor[canal].l>(media-1)) 
04C32:  MOVLB  7
04C34:  CLRF   x1B
04C36:  MOVFF  704,71A
04C3A:  MOVLW  01
04C3C:  MOVWF  x1D
04C3E:  MOVLW  64
04C40:  MOVWF  x1C
04C42:  MOVLB  0
04C44:  CALL   23D0
04C48:  MOVFF  02,707
04C4C:  MOVFF  01,706
04C50:  MOVLW  14
04C52:  MOVLB  7
04C54:  ADDWF  01,W
04C56:  MOVWF  01
04C58:  MOVLW  00
04C5A:  ADDWFC 02,W
04C5C:  MOVWF  03
04C5E:  MOVF   01,W
04C60:  ADDLW  72
04C62:  MOVWF  FE9
04C64:  MOVLW  03
04C66:  ADDWFC 03,W
04C68:  MOVWF  FEA
04C6A:  MOVFF  FEF,706
04C6E:  MOVLW  01
04C70:  SUBWF  x05,W
04C72:  SUBWF  x06,W
04C74:  BZ    4CAC
04C76:  BNC   4CAC
....................    {Sensor[canal].l=0;} 
04C78:  CLRF   x1B
04C7A:  MOVFF  704,71A
04C7E:  MOVLW  01
04C80:  MOVWF  x1D
04C82:  MOVLW  64
04C84:  MOVWF  x1C
04C86:  MOVLB  0
04C88:  CALL   23D0
04C8C:  MOVFF  01,706
04C90:  MOVLW  14
04C92:  MOVLB  7
04C94:  ADDWF  01,W
04C96:  MOVWF  01
04C98:  MOVLW  00
04C9A:  ADDWFC 02,W
04C9C:  MOVWF  03
04C9E:  MOVF   01,W
04CA0:  ADDLW  72
04CA2:  MOVWF  FE9
04CA4:  MOVLW  03
04CA6:  ADDWFC 03,W
04CA8:  MOVWF  FEA
04CAA:  CLRF   FEF
....................     
....................    Sensor[canal].promedio[Sensor[canal].l]=Sensor[canal].Pt;Sensor[canal].l++; 
04CAC:  CLRF   x1B
04CAE:  MOVFF  704,71A
04CB2:  MOVLW  01
04CB4:  MOVWF  x1D
04CB6:  MOVLW  64
04CB8:  MOVWF  x1C
04CBA:  MOVLB  0
04CBC:  CALL   23D0
04CC0:  MOVFF  02,707
04CC4:  MOVFF  01,706
04CC8:  MOVLW  20
04CCA:  MOVLB  7
04CCC:  ADDWF  x06,F
04CCE:  MOVLW  00
04CD0:  ADDWFC x07,F
04CD2:  CLRF   x1B
04CD4:  MOVFF  704,71A
04CD8:  MOVLW  01
04CDA:  MOVWF  x1D
04CDC:  MOVLW  64
04CDE:  MOVWF  x1C
04CE0:  MOVLB  0
04CE2:  CALL   23D0
04CE6:  MOVFF  02,709
04CEA:  MOVFF  01,708
04CEE:  MOVLW  14
04CF0:  MOVLB  7
04CF2:  ADDWF  01,W
04CF4:  MOVWF  01
04CF6:  MOVLW  00
04CF8:  ADDWFC 02,W
04CFA:  MOVWF  03
04CFC:  MOVF   01,W
04CFE:  ADDLW  72
04D00:  MOVWF  FE9
04D02:  MOVLW  03
04D04:  ADDWFC 03,W
04D06:  MOVWF  FEA
04D08:  CLRF   x1B
04D0A:  MOVFF  FEF,71A
04D0E:  CLRF   x1D
04D10:  MOVLW  04
04D12:  MOVWF  x1C
04D14:  MOVLB  0
04D16:  CALL   23D0
04D1A:  MOVFF  02,03
04D1E:  MOVF   01,W
04D20:  MOVLB  7
04D22:  ADDWF  x06,W
04D24:  MOVWF  01
04D26:  MOVF   x07,W
04D28:  ADDWFC 03,F
04D2A:  MOVF   01,W
04D2C:  ADDLW  72
04D2E:  MOVWF  01
04D30:  MOVLW  03
04D32:  ADDWFC 03,F
04D34:  MOVFF  01,706
04D38:  MOVFF  03,707
04D3C:  CLRF   x1B
04D3E:  MOVFF  704,71A
04D42:  MOVLW  01
04D44:  MOVWF  x1D
04D46:  MOVLW  64
04D48:  MOVWF  x1C
04D4A:  MOVLB  0
04D4C:  CALL   23D0
04D50:  MOVFF  02,709
04D54:  MOVFF  01,708
04D58:  MOVLW  0C
04D5A:  MOVLB  7
04D5C:  ADDWF  01,W
04D5E:  MOVWF  01
04D60:  MOVLW  00
04D62:  ADDWFC 02,W
04D64:  MOVWF  03
04D66:  MOVF   01,W
04D68:  ADDLW  72
04D6A:  MOVWF  FE9
04D6C:  MOVLW  03
04D6E:  ADDWFC 03,W
04D70:  MOVWF  FEA
04D72:  MOVFF  FEF,00
04D76:  MOVFF  FEC,01
04D7A:  MOVFF  FEC,02
04D7E:  MOVFF  FEC,03
04D82:  MOVFF  707,FEA
04D86:  MOVFF  706,FE9
04D8A:  MOVFF  00,FEF
04D8E:  MOVFF  01,FEC
04D92:  MOVFF  02,FEC
04D96:  MOVFF  03,FEC
04D9A:  CLRF   x1B
04D9C:  MOVFF  704,71A
04DA0:  MOVLW  01
04DA2:  MOVWF  x1D
04DA4:  MOVLW  64
04DA6:  MOVWF  x1C
04DA8:  MOVLB  0
04DAA:  CALL   23D0
04DAE:  MOVFF  01,706
04DB2:  MOVLW  14
04DB4:  MOVLB  7
04DB6:  ADDWF  01,W
04DB8:  MOVWF  01
04DBA:  MOVLW  00
04DBC:  ADDWFC 02,W
04DBE:  MOVWF  03
04DC0:  MOVF   01,W
04DC2:  ADDLW  72
04DC4:  MOVWF  FE9
04DC6:  MOVLW  03
04DC8:  ADDWFC 03,W
04DCA:  MOVWF  FEA
04DCC:  INCF   FEF,F
....................           
....................    for(Sensor[canal].h=0;Sensor[canal].h<media;Sensor[canal].h++) 
04DCE:  CLRF   x1B
04DD0:  MOVFF  704,71A
04DD4:  MOVLW  01
04DD6:  MOVWF  x1D
04DD8:  MOVLW  64
04DDA:  MOVWF  x1C
04DDC:  MOVLB  0
04DDE:  CALL   23D0
04DE2:  MOVFF  02,707
04DE6:  MOVFF  01,706
04DEA:  MOVLW  15
04DEC:  MOVLB  7
04DEE:  ADDWF  01,W
04DF0:  MOVWF  01
04DF2:  MOVLW  00
04DF4:  ADDWFC 02,W
04DF6:  MOVWF  03
04DF8:  MOVF   01,W
04DFA:  ADDLW  72
04DFC:  MOVWF  FE9
04DFE:  MOVLW  03
04E00:  ADDWFC 03,W
04E02:  MOVWF  FEA
04E04:  CLRF   FEF
04E06:  CLRF   x1B
04E08:  MOVFF  704,71A
04E0C:  MOVLW  01
04E0E:  MOVWF  x1D
04E10:  MOVLW  64
04E12:  MOVWF  x1C
04E14:  MOVLB  0
04E16:  CALL   23D0
04E1A:  MOVFF  02,707
04E1E:  MOVFF  01,706
04E22:  MOVLW  15
04E24:  MOVLB  7
04E26:  ADDWF  01,W
04E28:  MOVWF  01
04E2A:  MOVLW  00
04E2C:  ADDWFC 02,W
04E2E:  MOVWF  03
04E30:  MOVF   01,W
04E32:  ADDLW  72
04E34:  MOVWF  FE9
04E36:  MOVLW  03
04E38:  ADDWFC 03,W
04E3A:  MOVWF  FEA
04E3C:  MOVF   x05,W
04E3E:  SUBWF  FEF,W
04E40:  BTFSC  FD8.0
04E42:  BRA    4F62
....................    { 
....................       Prom+=Sensor[canal].promedio[Sensor[canal].h]; 
04E44:  CLRF   x1B
04E46:  MOVFF  704,71A
04E4A:  MOVLW  01
04E4C:  MOVWF  x1D
04E4E:  MOVLW  64
04E50:  MOVWF  x1C
04E52:  MOVLB  0
04E54:  CALL   23D0
04E58:  MOVFF  02,707
04E5C:  MOVFF  01,706
04E60:  MOVLW  20
04E62:  MOVLB  7
04E64:  ADDWF  x06,F
04E66:  MOVLW  00
04E68:  ADDWFC x07,F
04E6A:  CLRF   x1B
04E6C:  MOVFF  704,71A
04E70:  MOVLW  01
04E72:  MOVWF  x1D
04E74:  MOVLW  64
04E76:  MOVWF  x1C
04E78:  MOVLB  0
04E7A:  CALL   23D0
04E7E:  MOVFF  02,709
04E82:  MOVFF  01,708
04E86:  MOVLW  15
04E88:  MOVLB  7
04E8A:  ADDWF  01,W
04E8C:  MOVWF  01
04E8E:  MOVLW  00
04E90:  ADDWFC 02,W
04E92:  MOVWF  03
04E94:  MOVF   01,W
04E96:  ADDLW  72
04E98:  MOVWF  FE9
04E9A:  MOVLW  03
04E9C:  ADDWFC 03,W
04E9E:  MOVWF  FEA
04EA0:  CLRF   x1B
04EA2:  MOVFF  FEF,71A
04EA6:  CLRF   x1D
04EA8:  MOVLW  04
04EAA:  MOVWF  x1C
04EAC:  MOVLB  0
04EAE:  CALL   23D0
04EB2:  MOVFF  02,03
04EB6:  MOVF   01,W
04EB8:  MOVLB  7
04EBA:  ADDWF  x06,W
04EBC:  MOVWF  01
04EBE:  MOVF   x07,W
04EC0:  ADDWFC 03,F
04EC2:  MOVF   01,W
04EC4:  ADDLW  72
04EC6:  MOVWF  FE9
04EC8:  MOVLW  03
04ECA:  ADDWFC 03,W
04ECC:  MOVWF  FEA
04ECE:  MOVFF  FEF,00
04ED2:  MOVFF  FEC,01
04ED6:  MOVFF  FEC,02
04EDA:  MOVFF  FEC,03
04EDE:  MOVFF  FEA,707
04EE2:  MOVFF  FE9,706
04EE6:  BCF    FD8.1
04EE8:  MOVFF  243,717
04EEC:  MOVFF  242,716
04EF0:  MOVFF  241,715
04EF4:  MOVFF  240,714
04EF8:  MOVFF  03,71B
04EFC:  MOVFF  02,71A
04F00:  MOVFF  01,719
04F04:  MOVFF  00,718
04F08:  MOVLB  0
04F0A:  CALL   25BA
04F0E:  MOVFF  707,FEA
04F12:  MOVFF  706,FE9
04F16:  MOVFF  03,243
04F1A:  MOVFF  02,242
04F1E:  MOVFF  01,241
04F22:  MOVFF  00,240
....................    }  
04F26:  MOVLB  7
04F28:  CLRF   x1B
04F2A:  MOVFF  704,71A
04F2E:  MOVLW  01
04F30:  MOVWF  x1D
04F32:  MOVLW  64
04F34:  MOVWF  x1C
04F36:  MOVLB  0
04F38:  CALL   23D0
04F3C:  MOVFF  02,707
04F40:  MOVFF  01,706
04F44:  MOVLW  15
04F46:  MOVLB  7
04F48:  ADDWF  01,W
04F4A:  MOVWF  01
04F4C:  MOVLW  00
04F4E:  ADDWFC 02,W
04F50:  MOVWF  03
04F52:  MOVF   01,W
04F54:  ADDLW  72
04F56:  MOVWF  FE9
04F58:  MOVLW  03
04F5A:  ADDWFC 03,W
04F5C:  MOVWF  FEA
04F5E:  INCF   FEF,F
04F60:  BRA    4E06
....................    Prom=Prom/media;    
04F62:  CLRF   x15
04F64:  MOVFF  705,714
04F68:  MOVLB  0
04F6A:  CALL   21A0
04F6E:  MOVFF  243,711
04F72:  MOVFF  242,710
04F76:  MOVFF  241,70F
04F7A:  MOVFF  240,70E
04F7E:  MOVFF  03,715
04F82:  MOVFF  02,714
04F86:  MOVFF  01,713
04F8A:  MOVFF  00,712
04F8E:  CALL   21FE
04F92:  MOVFF  03,243
04F96:  MOVFF  02,242
04F9A:  MOVFF  01,241
04F9E:  MOVFF  00,240
....................    //Temperature=(Prom-100.0)/(0.385);  // Ecuacin determinada por linealizacin en Matlab. Revisar este polinomio.   
....................    Temperature=((Prom*Prom)*a)+(Prom*b)+c;  // Ecuacin determinada por linealizacin en Matlab. Revisar este polinomio. 
04FA2:  MOVFF  243,71B
04FA6:  MOVFF  242,71A
04FAA:  MOVFF  241,719
04FAE:  MOVFF  240,718
04FB2:  MOVFF  243,71F
04FB6:  MOVFF  242,71E
04FBA:  MOVFF  241,71D
04FBE:  MOVFF  240,71C
04FC2:  RCALL  47E8
04FC4:  MOVFF  00,706
04FC8:  MOVFF  01,707
04FCC:  MOVFF  02,708
04FD0:  MOVFF  03,709
04FD4:  MOVFF  03,71B
04FD8:  MOVFF  02,71A
04FDC:  MOVFF  01,719
04FE0:  MOVFF  00,718
04FE4:  MOVFF  273,71F
04FE8:  MOVFF  272,71E
04FEC:  MOVFF  271,71D
04FF0:  MOVFF  270,71C
04FF4:  CALL   47E8
04FF8:  MOVFF  00,706
04FFC:  MOVFF  01,707
05000:  MOVFF  02,708
05004:  MOVFF  03,709
05008:  MOVFF  243,71B
0500C:  MOVFF  242,71A
05010:  MOVFF  241,719
05014:  MOVFF  240,718
05018:  MOVFF  277,71F
0501C:  MOVFF  276,71E
05020:  MOVFF  275,71D
05024:  MOVFF  274,71C
05028:  CALL   47E8
0502C:  BCF    FD8.1
0502E:  MOVFF  709,717
05032:  MOVFF  708,716
05036:  MOVFF  707,715
0503A:  MOVFF  706,714
0503E:  MOVFF  03,71B
05042:  MOVFF  02,71A
05046:  MOVFF  01,719
0504A:  MOVFF  00,718
0504E:  CALL   25BA
05052:  MOVFF  00,706
05056:  MOVFF  01,707
0505A:  MOVFF  02,708
0505E:  MOVFF  03,709
05062:  BCF    FD8.1
05064:  MOVFF  03,717
05068:  MOVFF  02,716
0506C:  MOVFF  01,715
05070:  MOVFF  00,714
05074:  MOVFF  27B,71B
05078:  MOVFF  27A,71A
0507C:  MOVFF  279,719
05080:  MOVFF  278,718
05084:  CALL   25BA
05088:  MOVFF  03,247
0508C:  MOVFF  02,246
05090:  MOVFF  01,245
05094:  MOVFF  00,244
....................    Temperature+=(((float)Sensor[canal].Ajuste)/10.0-((float)Sensor[canal].Ajusten)/10.0); 
05098:  MOVLB  7
0509A:  CLRF   x1B
0509C:  MOVFF  704,71A
050A0:  MOVLW  01
050A2:  MOVWF  x1D
050A4:  MOVLW  64
050A6:  MOVWF  x1C
050A8:  MOVLB  0
050AA:  CALL   23D0
050AE:  MOVFF  02,707
050B2:  MOVFF  01,706
050B6:  MOVLW  1E
050B8:  MOVLB  7
050BA:  ADDWF  01,W
050BC:  MOVWF  01
050BE:  MOVLW  00
050C0:  ADDWFC 02,W
050C2:  MOVWF  03
050C4:  MOVF   01,W
050C6:  ADDLW  72
050C8:  MOVWF  FE9
050CA:  MOVLW  03
050CC:  ADDWFC 03,W
050CE:  MOVWF  FEA
050D0:  MOVF   FEF,W
050D2:  CLRF   x15
050D4:  MOVWF  x14
050D6:  MOVLB  0
050D8:  CALL   21A0
050DC:  MOVFF  00,706
050E0:  MOVFF  01,707
050E4:  MOVFF  02,708
050E8:  MOVFF  03,709
050EC:  MOVFF  03,711
050F0:  MOVFF  02,710
050F4:  MOVFF  01,70F
050F8:  MOVFF  00,70E
050FC:  MOVLB  7
050FE:  CLRF   x15
05100:  CLRF   x14
05102:  MOVLW  20
05104:  MOVWF  x13
05106:  MOVLW  82
05108:  MOVWF  x12
0510A:  MOVLB  0
0510C:  CALL   21FE
05110:  MOVFF  00,706
05114:  MOVFF  01,707
05118:  MOVFF  02,708
0511C:  MOVFF  03,709
05120:  MOVLB  7
05122:  CLRF   x1B
05124:  MOVFF  704,71A
05128:  MOVLW  01
0512A:  MOVWF  x1D
0512C:  MOVLW  64
0512E:  MOVWF  x1C
05130:  MOVLB  0
05132:  CALL   23D0
05136:  MOVFF  02,70B
0513A:  MOVFF  01,70A
0513E:  MOVLW  1F
05140:  MOVLB  7
05142:  ADDWF  01,W
05144:  MOVWF  01
05146:  MOVLW  00
05148:  ADDWFC 02,W
0514A:  MOVWF  03
0514C:  MOVF   01,W
0514E:  ADDLW  72
05150:  MOVWF  FE9
05152:  MOVLW  03
05154:  ADDWFC 03,W
05156:  MOVWF  FEA
05158:  MOVF   FEF,W
0515A:  CLRF   x15
0515C:  MOVWF  x14
0515E:  MOVLB  0
05160:  CALL   21A0
05164:  MOVFF  00,70A
05168:  MOVFF  01,70B
0516C:  MOVFF  02,70C
05170:  MOVFF  03,70D
05174:  MOVFF  03,711
05178:  MOVFF  02,710
0517C:  MOVFF  01,70F
05180:  MOVFF  00,70E
05184:  MOVLB  7
05186:  CLRF   x15
05188:  CLRF   x14
0518A:  MOVLW  20
0518C:  MOVWF  x13
0518E:  MOVLW  82
05190:  MOVWF  x12
05192:  MOVLB  0
05194:  CALL   21FE
05198:  MOVFF  FEA,70B
0519C:  MOVFF  FE9,70A
051A0:  BSF    FD8.1
051A2:  MOVFF  709,717
051A6:  MOVFF  708,716
051AA:  MOVFF  707,715
051AE:  MOVFF  706,714
051B2:  MOVFF  03,71B
051B6:  MOVFF  02,71A
051BA:  MOVFF  01,719
051BE:  MOVFF  00,718
051C2:  CALL   25BA
051C6:  MOVFF  70B,FEA
051CA:  MOVFF  70A,FE9
051CE:  MOVFF  FEA,707
051D2:  MOVFF  FE9,706
051D6:  BCF    FD8.1
051D8:  MOVFF  247,717
051DC:  MOVFF  246,716
051E0:  MOVFF  245,715
051E4:  MOVFF  244,714
051E8:  MOVFF  03,71B
051EC:  MOVFF  02,71A
051F0:  MOVFF  01,719
051F4:  MOVFF  00,718
051F8:  CALL   25BA
051FC:  MOVFF  707,FEA
05200:  MOVFF  706,FE9
05204:  MOVFF  03,247
05208:  MOVFF  02,246
0520C:  MOVFF  01,245
05210:  MOVFF  00,244
....................     
....................    return Temperature; 
05214:  MOVFF  244,00
05218:  MOVFF  245,01
0521C:  MOVFF  246,02
05220:  MOVFF  247,03
.................... } 
05224:  RETLW  00
....................  
.................... float Leer_Sensor_Presion_Camara(int8 media){ 
....................    promediopresion=0.0; 
05226:  MOVLB  2
05228:  CLRF   x1B
0522A:  CLRF   x1A
0522C:  CLRF   x19
0522E:  CLRF   x18
....................    V1 = sensores(5);   //Lectura de Divisor de Voltaje de PT100 con resistencia de 1k (+-10%) 
05230:  MOVLW  05
05232:  MOVLB  7
05234:  MOVWF  x08
05236:  MOVLB  0
05238:  CALL   4790
0523C:  MOVFF  03,25B
05240:  MOVFF  02,25A
05244:  MOVFF  01,259
05248:  MOVFF  00,258
....................    //V1 = V1*(5.0/1024.0); 
....................    //Presion=(V1-0.2)/(K); 
....................    Presion=(((V1)/1023)-0.04)/K; 
0524C:  MOVFF  25B,711
05250:  MOVFF  25A,710
05254:  MOVFF  259,70F
05258:  MOVFF  258,70E
0525C:  MOVLB  7
0525E:  CLRF   x15
05260:  MOVLW  C0
05262:  MOVWF  x14
05264:  MOVLW  7F
05266:  MOVWF  x13
05268:  MOVLW  88
0526A:  MOVWF  x12
0526C:  MOVLB  0
0526E:  CALL   21FE
05272:  MOVFF  00,705
05276:  MOVFF  01,706
0527A:  MOVFF  02,707
0527E:  MOVFF  03,708
05282:  BSF    FD8.1
05284:  MOVFF  03,717
05288:  MOVFF  02,716
0528C:  MOVFF  01,715
05290:  MOVFF  00,714
05294:  MOVLW  0A
05296:  MOVLB  7
05298:  MOVWF  x1B
0529A:  MOVLW  D7
0529C:  MOVWF  x1A
0529E:  MOVLW  23
052A0:  MOVWF  x19
052A2:  MOVLW  7A
052A4:  MOVWF  x18
052A6:  MOVLB  0
052A8:  CALL   25BA
052AC:  MOVFF  00,705
052B0:  MOVFF  01,706
052B4:  MOVFF  02,707
052B8:  MOVFF  03,708
052BC:  MOVFF  03,711
052C0:  MOVFF  02,710
052C4:  MOVFF  01,70F
052C8:  MOVFF  00,70E
052CC:  MOVFF  1FF,715
052D0:  MOVFF  1FE,714
052D4:  MOVFF  1FD,713
052D8:  MOVFF  1FC,712
052DC:  CALL   21FE
052E0:  MOVFF  03,25F
052E4:  MOVFF  02,25E
052E8:  MOVFF  01,25D
052EC:  MOVFF  00,25C
....................     
....................    if(Presion<0.0) 
052F0:  MOVFF  25F,709
052F4:  MOVFF  25E,708
052F8:  MOVFF  25D,707
052FC:  MOVFF  25C,706
05300:  MOVLB  7
05302:  CLRF   x0D
05304:  CLRF   x0C
05306:  CLRF   x0B
05308:  CLRF   x0A
0530A:  MOVLB  0
0530C:  CALL   2832
05310:  BNC   531C
....................       Presion=0.0; 
05312:  MOVLB  2
05314:  CLRF   x5F
05316:  CLRF   x5E
05318:  CLRF   x5D
0531A:  CLRF   x5C
....................     
....................    if(r>media-1) 
0531C:  MOVLW  01
0531E:  MOVLB  7
05320:  SUBWF  x04,W
05322:  MOVLB  2
05324:  SUBWF  xD3,W
05326:  BZ    532C
05328:  BNC   532C
....................       r=0; 
0532A:  CLRF   xD3
....................    PromPresion[r]=Presion;r++; 
0532C:  MOVF   xD3,W
0532E:  MULLW  04
05330:  MOVF   FF3,W
05332:  CLRF   03
05334:  ADDLW  50
05336:  MOVWF  FE9
05338:  MOVLW  01
0533A:  ADDWFC 03,W
0533C:  MOVWF  FEA
0533E:  MOVFF  25C,FEF
05342:  MOVFF  25D,FEC
05346:  MOVFF  25E,FEC
0534A:  MOVFF  25F,FEC
0534E:  INCF   xD3,F
....................           
....................    for(t=0;t<=(media-1);t++) 
05350:  CLRF   xD4
05352:  MOVLW  01
05354:  MOVLB  7
05356:  SUBWF  x04,W
05358:  MOVLB  2
0535A:  SUBWF  xD4,W
0535C:  BZ    5360
0535E:  BC    53D0
....................       promediopresion+=PromPresion[t]; 
05360:  MOVF   xD4,W
05362:  MULLW  04
05364:  MOVF   FF3,W
05366:  CLRF   03
05368:  ADDLW  50
0536A:  MOVWF  FE9
0536C:  MOVLW  01
0536E:  ADDWFC 03,W
05370:  MOVWF  FEA
05372:  MOVFF  FEF,00
05376:  MOVFF  FEC,01
0537A:  MOVFF  FEC,02
0537E:  MOVFF  FEC,03
05382:  MOVFF  FEA,706
05386:  MOVFF  FE9,705
0538A:  BCF    FD8.1
0538C:  MOVFF  21B,717
05390:  MOVFF  21A,716
05394:  MOVFF  219,715
05398:  MOVFF  218,714
0539C:  MOVFF  03,71B
053A0:  MOVFF  02,71A
053A4:  MOVFF  01,719
053A8:  MOVFF  00,718
053AC:  MOVLB  0
053AE:  CALL   25BA
053B2:  MOVFF  706,FEA
053B6:  MOVFF  705,FE9
053BA:  MOVFF  03,21B
053BE:  MOVFF  02,21A
053C2:  MOVFF  01,219
053C6:  MOVFF  00,218
053CA:  MOVLB  2
053CC:  INCF   xD4,F
053CE:  BRA    5352
....................      
....................    promediopresion=promediopresion/media;    
053D0:  MOVLB  7
053D2:  CLRF   x15
053D4:  MOVFF  704,714
053D8:  MOVLB  0
053DA:  CALL   21A0
053DE:  MOVFF  21B,711
053E2:  MOVFF  21A,710
053E6:  MOVFF  219,70F
053EA:  MOVFF  218,70E
053EE:  MOVFF  03,715
053F2:  MOVFF  02,714
053F6:  MOVFF  01,713
053FA:  MOVFF  00,712
053FE:  CALL   21FE
05402:  MOVFF  03,21B
05406:  MOVFF  02,21A
0540A:  MOVFF  01,219
0540E:  MOVFF  00,218
....................     
....................    return promediopresion; 
05412:  MOVFF  218,00
05416:  MOVFF  219,01
0541A:  MOVFF  21A,02
0541E:  MOVFF  21B,03
.................... } 
05422:  RETLW  00
....................  
.................... float Leer_Sensor_Presion_PreCamara(int8 media){ 
....................    promediopresionp=0.0; 
*
05460:  MOVLB  2
05462:  CLRF   x1F
05464:  CLRF   x1E
05466:  CLRF   x1D
05468:  CLRF   x1C
....................    V2 = sensores(4);   //Lectura de Divisor de Voltaje de PT100 con resistencia de 1k (+-10%) 
0546A:  MOVLW  04
0546C:  MOVLB  7
0546E:  MOVWF  x08
05470:  MOVLB  0
05472:  CALL   4790
05476:  MOVFF  03,263
0547A:  MOVFF  02,262
0547E:  MOVFF  01,261
05482:  MOVFF  00,260
....................    //V2 = V2*(5.0/1024.0); 
....................    //Presionp=(V2-0.2)/(K); 
....................    Presionp=(((V2)/1023)-0.04)/K; 
05486:  MOVFF  263,711
0548A:  MOVFF  262,710
0548E:  MOVFF  261,70F
05492:  MOVFF  260,70E
05496:  MOVLB  7
05498:  CLRF   x15
0549A:  MOVLW  C0
0549C:  MOVWF  x14
0549E:  MOVLW  7F
054A0:  MOVWF  x13
054A2:  MOVLW  88
054A4:  MOVWF  x12
054A6:  MOVLB  0
054A8:  CALL   21FE
054AC:  MOVFF  00,705
054B0:  MOVFF  01,706
054B4:  MOVFF  02,707
054B8:  MOVFF  03,708
054BC:  BSF    FD8.1
054BE:  MOVFF  03,717
054C2:  MOVFF  02,716
054C6:  MOVFF  01,715
054CA:  MOVFF  00,714
054CE:  MOVLW  0A
054D0:  MOVLB  7
054D2:  MOVWF  x1B
054D4:  MOVLW  D7
054D6:  MOVWF  x1A
054D8:  MOVLW  23
054DA:  MOVWF  x19
054DC:  MOVLW  7A
054DE:  MOVWF  x18
054E0:  MOVLB  0
054E2:  CALL   25BA
054E6:  MOVFF  00,705
054EA:  MOVFF  01,706
054EE:  MOVFF  02,707
054F2:  MOVFF  03,708
054F6:  MOVFF  03,711
054FA:  MOVFF  02,710
054FE:  MOVFF  01,70F
05502:  MOVFF  00,70E
05506:  MOVFF  1FF,715
0550A:  MOVFF  1FE,714
0550E:  MOVFF  1FD,713
05512:  MOVFF  1FC,712
05516:  CALL   21FE
0551A:  MOVFF  03,267
0551E:  MOVFF  02,266
05522:  MOVFF  01,265
05526:  MOVFF  00,264
....................     
....................    if(Presionp<0.0) 
0552A:  MOVFF  267,709
0552E:  MOVFF  266,708
05532:  MOVFF  265,707
05536:  MOVFF  264,706
0553A:  MOVLB  7
0553C:  CLRF   x0D
0553E:  CLRF   x0C
05540:  CLRF   x0B
05542:  CLRF   x0A
05544:  MOVLB  0
05546:  CALL   2832
0554A:  BNC   5556
....................       Presionp=0.0; 
0554C:  MOVLB  2
0554E:  CLRF   x67
05550:  CLRF   x66
05552:  CLRF   x65
05554:  CLRF   x64
....................     
....................    if(r22>media-1) 
05556:  MOVLW  01
05558:  MOVLB  7
0555A:  SUBWF  x04,W
0555C:  MOVLB  2
0555E:  SUBWF  xD5,W
05560:  BZ    5566
05562:  BNC   5566
....................       r22=0; 
05564:  CLRF   xD5
....................    PromPresionp[r22]=Presionp;r22++; 
05566:  MOVF   xD5,W
05568:  MULLW  04
0556A:  MOVF   FF3,W
0556C:  CLRF   03
0556E:  ADDLW  A0
05570:  MOVWF  FE9
05572:  MOVLW  01
05574:  ADDWFC 03,W
05576:  MOVWF  FEA
05578:  MOVFF  264,FEF
0557C:  MOVFF  265,FEC
05580:  MOVFF  266,FEC
05584:  MOVFF  267,FEC
05588:  INCF   xD5,F
....................           
....................    for(t2=0;t2<=(media-1);t2++) 
0558A:  CLRF   xD6
0558C:  MOVLW  01
0558E:  MOVLB  7
05590:  SUBWF  x04,W
05592:  MOVLB  2
05594:  SUBWF  xD6,W
05596:  BZ    559A
05598:  BC    560A
....................       promediopresionp+=PromPresionp[t2];  
0559A:  MOVF   xD6,W
0559C:  MULLW  04
0559E:  MOVF   FF3,W
055A0:  CLRF   03
055A2:  ADDLW  A0
055A4:  MOVWF  FE9
055A6:  MOVLW  01
055A8:  ADDWFC 03,W
055AA:  MOVWF  FEA
055AC:  MOVFF  FEF,00
055B0:  MOVFF  FEC,01
055B4:  MOVFF  FEC,02
055B8:  MOVFF  FEC,03
055BC:  MOVFF  FEA,706
055C0:  MOVFF  FE9,705
055C4:  BCF    FD8.1
055C6:  MOVFF  21F,717
055CA:  MOVFF  21E,716
055CE:  MOVFF  21D,715
055D2:  MOVFF  21C,714
055D6:  MOVFF  03,71B
055DA:  MOVFF  02,71A
055DE:  MOVFF  01,719
055E2:  MOVFF  00,718
055E6:  MOVLB  0
055E8:  CALL   25BA
055EC:  MOVFF  706,FEA
055F0:  MOVFF  705,FE9
055F4:  MOVFF  03,21F
055F8:  MOVFF  02,21E
055FC:  MOVFF  01,21D
05600:  MOVFF  00,21C
05604:  MOVLB  2
05606:  INCF   xD6,F
05608:  BRA    558C
....................        
....................    promediopresionp=promediopresionp/media;    
0560A:  MOVLB  7
0560C:  CLRF   x15
0560E:  MOVFF  704,714
05612:  MOVLB  0
05614:  CALL   21A0
05618:  MOVFF  21F,711
0561C:  MOVFF  21E,710
05620:  MOVFF  21D,70F
05624:  MOVFF  21C,70E
05628:  MOVFF  03,715
0562C:  MOVFF  02,714
05630:  MOVFF  01,713
05634:  MOVFF  00,712
05638:  CALL   21FE
0563C:  MOVFF  03,21F
05640:  MOVFF  02,21E
05644:  MOVFF  01,21D
05648:  MOVFF  00,21C
....................     
....................    return promediopresionp; 
0564C:  MOVFF  21C,00
05650:  MOVFF  21D,01
05654:  MOVFF  21E,02
05658:  MOVFF  21F,03
.................... } 
0565C:  RETLW  00
....................  
.................... void Controla(){ 
*
08A9C:  MOVLB  7
08A9E:  CLRF   x05
08AA0:  CLRF   x04
08AA2:  CLRF   x03
08AA4:  CLRF   x02
....................    float prc=0.0;    
....................    /* 
....................    // Control por temperatura 
....................    if(Temperatura>Setpoint+0.3){ 
....................       suministroVapor=OFF; 
....................       Paso=ON; 
....................    }else if(Temperatura<=Setpoint+0.2){ 
....................       suministroVapor=ON; 
....................       Paso=ON; 
....................    } 
....................    //////////////////////////// 
....................    */ 
....................    //Control por presin 
....................    prc=(float)PresionCamara; 
08AA6:  MOVFF  2C2,715
08AAA:  MOVFF  2C1,714
08AAE:  MOVLB  0
08AB0:  CALL   21A0
08AB4:  MOVFF  03,705
08AB8:  MOVFF  02,704
08ABC:  MOVFF  01,703
08AC0:  MOVFF  00,702
....................    Tactual=((prc)*(prc)*(prc)*p1)+((prc)*(prc)*p2)+(p3*prc)+p4; 
08AC4:  MOVFF  705,71B
08AC8:  MOVFF  704,71A
08ACC:  MOVFF  703,719
08AD0:  MOVFF  702,718
08AD4:  MOVFF  705,71F
08AD8:  MOVFF  704,71E
08ADC:  MOVFF  703,71D
08AE0:  MOVFF  702,71C
08AE4:  CALL   47E8
08AE8:  MOVFF  00,706
08AEC:  MOVFF  01,707
08AF0:  MOVFF  02,708
08AF4:  MOVFF  03,709
08AF8:  MOVFF  03,71B
08AFC:  MOVFF  02,71A
08B00:  MOVFF  01,719
08B04:  MOVFF  00,718
08B08:  MOVFF  705,71F
08B0C:  MOVFF  704,71E
08B10:  MOVFF  703,71D
08B14:  MOVFF  702,71C
08B18:  CALL   47E8
08B1C:  MOVFF  00,706
08B20:  MOVFF  01,707
08B24:  MOVFF  02,708
08B28:  MOVFF  03,709
08B2C:  MOVFF  03,71B
08B30:  MOVFF  02,71A
08B34:  MOVFF  01,719
08B38:  MOVFF  00,718
08B3C:  MOVFF  285,71F
08B40:  MOVFF  284,71E
08B44:  MOVFF  283,71D
08B48:  MOVFF  282,71C
08B4C:  CALL   47E8
08B50:  MOVFF  00,706
08B54:  MOVFF  01,707
08B58:  MOVFF  02,708
08B5C:  MOVFF  03,709
08B60:  MOVFF  705,71B
08B64:  MOVFF  704,71A
08B68:  MOVFF  703,719
08B6C:  MOVFF  702,718
08B70:  MOVFF  705,71F
08B74:  MOVFF  704,71E
08B78:  MOVFF  703,71D
08B7C:  MOVFF  702,71C
08B80:  CALL   47E8
08B84:  MOVFF  00,70A
08B88:  MOVFF  01,70B
08B8C:  MOVFF  02,70C
08B90:  MOVFF  03,70D
08B94:  MOVFF  03,71B
08B98:  MOVFF  02,71A
08B9C:  MOVFF  01,719
08BA0:  MOVFF  00,718
08BA4:  MOVFF  289,71F
08BA8:  MOVFF  288,71E
08BAC:  MOVFF  287,71D
08BB0:  MOVFF  286,71C
08BB4:  CALL   47E8
08BB8:  BCF    FD8.1
08BBA:  MOVFF  709,717
08BBE:  MOVFF  708,716
08BC2:  MOVFF  707,715
08BC6:  MOVFF  706,714
08BCA:  MOVFF  03,71B
08BCE:  MOVFF  02,71A
08BD2:  MOVFF  01,719
08BD6:  MOVFF  00,718
08BDA:  CALL   25BA
08BDE:  MOVFF  00,706
08BE2:  MOVFF  01,707
08BE6:  MOVFF  02,708
08BEA:  MOVFF  03,709
08BEE:  MOVFF  28D,71B
08BF2:  MOVFF  28C,71A
08BF6:  MOVFF  28B,719
08BFA:  MOVFF  28A,718
08BFE:  MOVFF  705,71F
08C02:  MOVFF  704,71E
08C06:  MOVFF  703,71D
08C0A:  MOVFF  702,71C
08C0E:  CALL   47E8
08C12:  BCF    FD8.1
08C14:  MOVFF  709,717
08C18:  MOVFF  708,716
08C1C:  MOVFF  707,715
08C20:  MOVFF  706,714
08C24:  MOVFF  03,71B
08C28:  MOVFF  02,71A
08C2C:  MOVFF  01,719
08C30:  MOVFF  00,718
08C34:  CALL   25BA
08C38:  MOVFF  00,706
08C3C:  MOVFF  01,707
08C40:  MOVFF  02,708
08C44:  MOVFF  03,709
08C48:  BCF    FD8.1
08C4A:  MOVFF  03,717
08C4E:  MOVFF  02,716
08C52:  MOVFF  01,715
08C56:  MOVFF  00,714
08C5A:  MOVFF  291,71B
08C5E:  MOVFF  290,71A
08C62:  MOVFF  28F,719
08C66:  MOVFF  28E,718
08C6A:  CALL   25BA
08C6E:  MOVFF  03,295
08C72:  MOVFF  02,294
08C76:  MOVFF  01,293
08C7A:  MOVFF  00,292
....................    if(Tactual>Setpoint+desvio){ 
08C7E:  MOVLB  7
08C80:  CLRF   x15
08C82:  MOVFF  2AF,714
08C86:  MOVLB  0
08C88:  CALL   21A0
08C8C:  BCF    FD8.1
08C8E:  MOVFF  03,717
08C92:  MOVFF  02,716
08C96:  MOVFF  01,715
08C9A:  MOVFF  00,714
08C9E:  MOVFF  257,71B
08CA2:  MOVFF  256,71A
08CA6:  MOVFF  255,719
08CAA:  MOVFF  254,718
08CAE:  CALL   25BA
08CB2:  MOVFF  03,709
08CB6:  MOVFF  02,708
08CBA:  MOVFF  01,707
08CBE:  MOVFF  00,706
08CC2:  MOVFF  295,70D
08CC6:  MOVFF  294,70C
08CCA:  MOVFF  293,70B
08CCE:  MOVFF  292,70A
08CD2:  CALL   2832
08CD6:  BNC   8CE0
....................       suministroVapor=OFF; 
08CD8:  MOVLB  1
08CDA:  BCF    x1F.1
....................       Paso=ON; 
08CDC:  BSF    x1F.2
....................    }else if(Tactual<=Setpoint+desvio-Histeresis){ 
08CDE:  BRA    8D78
08CE0:  MOVLB  7
08CE2:  CLRF   x15
08CE4:  MOVFF  2AF,714
08CE8:  MOVLB  0
08CEA:  CALL   21A0
08CEE:  BCF    FD8.1
08CF0:  MOVFF  03,717
08CF4:  MOVFF  02,716
08CF8:  MOVFF  01,715
08CFC:  MOVFF  00,714
08D00:  MOVFF  257,71B
08D04:  MOVFF  256,71A
08D08:  MOVFF  255,719
08D0C:  MOVFF  254,718
08D10:  CALL   25BA
08D14:  MOVFF  00,706
08D18:  MOVFF  01,707
08D1C:  MOVFF  02,708
08D20:  MOVFF  03,709
08D24:  BSF    FD8.1
08D26:  MOVFF  03,717
08D2A:  MOVFF  02,716
08D2E:  MOVFF  01,715
08D32:  MOVFF  00,714
08D36:  MOVFF  203,71B
08D3A:  MOVFF  202,71A
08D3E:  MOVFF  201,719
08D42:  MOVFF  200,718
08D46:  CALL   25BA
08D4A:  MOVFF  295,709
08D4E:  MOVFF  294,708
08D52:  MOVFF  293,707
08D56:  MOVFF  292,706
08D5A:  MOVFF  03,70D
08D5E:  MOVFF  02,70C
08D62:  MOVFF  01,70B
08D66:  MOVFF  00,70A
08D6A:  CALL   2832
08D6E:  BC    8D72
08D70:  BNZ   8D78
....................       suministroVapor=ON; 
08D72:  MOVLB  1
08D74:  BSF    x1F.1
....................       Paso=ON; 
08D76:  BSF    x1F.2
08D78:  MOVLB  0
....................    } 
....................    //////////////////////////////////// 
.................... //--------------------------------------------------------------------------------------------------------------------//    
.................... } 
08D7A:  RETLW  00
....................  
.................... void Envio_I2C(direccion, posicion, dato){ 
....................    i2c_start();            // Comienzo comunicacin 
*
05D4C:  BSF    F94.4
05D4E:  MOVLW  05
05D50:  MOVWF  00
05D52:  DECFSZ 00,F
05D54:  BRA    5D52
05D56:  BSF    F94.3
05D58:  MOVLW  06
05D5A:  MOVWF  00
05D5C:  DECFSZ 00,F
05D5E:  BRA    5D5C
05D60:  BCF    F8B.4
05D62:  BCF    F94.4
05D64:  MOVLW  05
05D66:  MOVWF  00
05D68:  DECFSZ 00,F
05D6A:  BRA    5D68
05D6C:  BCF    F8B.3
05D6E:  BCF    F94.3
....................    i2c_write(direccion);   // Direccin del esclavo en el bus I2C 
05D70:  MOVFF  715,720
05D74:  CALL   23F2
....................    i2c_write(posicion);    // Posicin donde se guardara el dato transmitido 
05D78:  MOVFF  716,720
05D7C:  CALL   23F2
....................    i2c_write(dato);        // Dato a transmitir 
05D80:  MOVFF  717,720
05D84:  CALL   23F2
....................    i2c_stop();             // Fin comunicacin 
05D88:  BCF    F94.4
05D8A:  NOP   
05D8C:  BSF    F94.3
05D8E:  BTFSS  F82.3
05D90:  BRA    5D8E
05D92:  MOVLW  05
05D94:  MOVWF  00
05D96:  DECFSZ 00,F
05D98:  BRA    5D96
05D9A:  BRA    5D9C
05D9C:  NOP   
05D9E:  BSF    F94.4
05DA0:  MOVLW  05
05DA2:  MOVWF  00
05DA4:  DECFSZ 00,F
05DA6:  BRA    5DA4
....................  } 
05DA8:  GOTO   5E80 (RETURN)
....................  
.................... void Lectura_I2C (byte direccion, byte posicion, byte &dato) { 
....................  
....................    i2c_start();            // Comienzo de la comunicacin 
*
05EB0:  BSF    F94.4
05EB2:  MOVLW  05
05EB4:  MOVWF  00
05EB6:  DECFSZ 00,F
05EB8:  BRA    5EB6
05EBA:  BSF    F94.3
05EBC:  MOVLW  06
05EBE:  MOVWF  00
05EC0:  DECFSZ 00,F
05EC2:  BRA    5EC0
05EC4:  BCF    F8B.4
05EC6:  BCF    F94.4
05EC8:  MOVLW  05
05ECA:  MOVWF  00
05ECC:  DECFSZ 00,F
05ECE:  BRA    5ECC
05ED0:  BCF    F8B.3
05ED2:  BCF    F94.3
*
05F6A:  BSF    F94.4
05F6C:  MOVLW  05
05F6E:  MOVWF  00
05F70:  DECFSZ 00,F
05F72:  BRA    5F70
05F74:  BSF    F94.3
05F76:  MOVLW  06
05F78:  MOVWF  00
05F7A:  DECFSZ 00,F
05F7C:  BRA    5F7A
05F7E:  BCF    F8B.4
05F80:  BCF    F94.4
05F82:  MOVLW  05
05F84:  MOVWF  00
05F86:  DECFSZ 00,F
05F88:  BRA    5F86
05F8A:  BCF    F8B.3
05F8C:  BCF    F94.3
....................    i2c_write(direccion);   // Direccin del esclavo en el bus I2C 
*
05ED4:  MOVFF  702,720
05ED8:  MOVLB  0
05EDA:  CALL   23F2
*
05F8E:  MOVFF  702,720
05F92:  MOVLB  0
05F94:  CALL   23F2
....................    i2c_write(posicion);    // Posicin de donde se leer el dato en el esclavo 
*
05EDE:  MOVFF  703,720
05EE2:  CALL   23F2
*
05F98:  MOVFF  703,720
05F9C:  CALL   23F2
....................    i2c_start();            // Reinicio 
*
05EE6:  BSF    F94.4
05EE8:  MOVLW  05
05EEA:  MOVWF  00
05EEC:  DECFSZ 00,F
05EEE:  BRA    5EEC
05EF0:  BSF    F94.3
05EF2:  MOVLW  06
05EF4:  MOVWF  00
05EF6:  DECFSZ 00,F
05EF8:  BRA    5EF6
05EFA:  BTFSS  F82.3
05EFC:  BRA    5EFA
05EFE:  BCF    F8B.4
05F00:  BCF    F94.4
05F02:  MOVLW  05
05F04:  MOVWF  00
05F06:  DECFSZ 00,F
05F08:  BRA    5F06
05F0A:  BCF    F8B.3
05F0C:  BCF    F94.3
*
05FA0:  BSF    F94.4
05FA2:  MOVLW  05
05FA4:  MOVWF  00
05FA6:  DECFSZ 00,F
05FA8:  BRA    5FA6
05FAA:  BSF    F94.3
05FAC:  MOVLW  06
05FAE:  MOVWF  00
05FB0:  DECFSZ 00,F
05FB2:  BRA    5FB0
05FB4:  BTFSS  F82.3
05FB6:  BRA    5FB4
05FB8:  BCF    F8B.4
05FBA:  BCF    F94.4
05FBC:  MOVLW  05
05FBE:  MOVWF  00
05FC0:  DECFSZ 00,F
05FC2:  BRA    5FC0
05FC4:  BCF    F8B.3
05FC6:  BCF    F94.3
....................    i2c_write(direccion+1); // Direccin del esclavo en modo lectura 
*
05F0E:  MOVLW  01
05F10:  MOVLB  7
05F12:  ADDWF  x02,W
05F14:  MOVWF  x04
05F16:  MOVWF  x20
05F18:  MOVLB  0
05F1A:  CALL   23F2
*
05FC8:  MOVLW  01
05FCA:  MOVLB  7
05FCC:  ADDWF  x02,W
05FCE:  MOVWF  x04
05FD0:  MOVWF  x20
05FD2:  MOVLB  0
05FD4:  CALL   23F2
....................    dato=i2c_read(0);       // Lectura del dato 
*
05F1E:  CLRF   00
05F20:  CALL   2468
05F24:  MOVFF  01,104
*
05FD8:  CLRF   00
05FDA:  CALL   2468
05FDE:  MOVFF  01,104
....................    i2c_stop();             // Fin comunicacin 
*
05F28:  BCF    F94.4
05F2A:  NOP   
05F2C:  BSF    F94.3
05F2E:  BTFSS  F82.3
05F30:  BRA    5F2E
05F32:  MOVLW  05
05F34:  MOVWF  00
05F36:  DECFSZ 00,F
05F38:  BRA    5F36
05F3A:  BRA    5F3C
05F3C:  NOP   
05F3E:  BSF    F94.4
05F40:  MOVLW  05
05F42:  MOVWF  00
05F44:  DECFSZ 00,F
05F46:  BRA    5F44
*
05FE2:  BCF    F94.4
05FE4:  NOP   
05FE6:  BSF    F94.3
05FE8:  BTFSS  F82.3
05FEA:  BRA    5FE8
05FEC:  MOVLW  05
05FEE:  MOVWF  00
05FF0:  DECFSZ 00,F
05FF2:  BRA    5FF0
05FF4:  BRA    5FF6
05FF6:  NOP   
05FF8:  BSF    F94.4
05FFA:  MOVLW  05
05FFC:  MOVWF  00
05FFE:  DECFSZ 00,F
06000:  BRA    5FFE
.................... } 
....................  
.................... void Carga_Vector(void){ 
....................    SlaveB0Tx[0]=(int8)Temperatura; 
*
05A22:  MOVFF  26B,717
05A26:  MOVFF  26A,716
05A2A:  MOVFF  269,715
05A2E:  MOVFF  268,714
05A32:  RCALL  5424
05A34:  MOVFF  01,6E
....................    SlaveB0Tx[1]=(Temperatura-((int8)Temperatura))*10; 
05A38:  MOVFF  26B,717
05A3C:  MOVFF  26A,716
05A40:  MOVFF  269,715
05A44:  MOVFF  268,714
05A48:  RCALL  5424
05A4A:  MOVLB  7
05A4C:  CLRF   x15
05A4E:  MOVFF  01,714
05A52:  MOVLB  0
05A54:  CALL   21A0
05A58:  BSF    FD8.1
05A5A:  MOVFF  26B,717
05A5E:  MOVFF  26A,716
05A62:  MOVFF  269,715
05A66:  MOVFF  268,714
05A6A:  MOVFF  03,71B
05A6E:  MOVFF  02,71A
05A72:  MOVFF  01,719
05A76:  MOVFF  00,718
05A7A:  CALL   25BA
05A7E:  MOVFF  00,714
05A82:  MOVFF  01,715
05A86:  MOVFF  02,716
05A8A:  MOVFF  03,717
05A8E:  MOVFF  03,71B
05A92:  MOVFF  02,71A
05A96:  MOVFF  01,719
05A9A:  MOVFF  00,718
05A9E:  MOVLB  7
05AA0:  CLRF   x1F
05AA2:  CLRF   x1E
05AA4:  MOVLW  20
05AA6:  MOVWF  x1D
05AA8:  MOVLW  82
05AAA:  MOVWF  x1C
05AAC:  MOVLB  0
05AAE:  CALL   47E8
05AB2:  MOVFF  03,717
05AB6:  MOVFF  02,716
05ABA:  MOVFF  01,715
05ABE:  MOVFF  00,714
05AC2:  RCALL  5424
05AC4:  MOVFF  01,6F
....................    SlaveB0Tx[2]=make8((int16)PresionCamara,0); 
05AC8:  MOVFF  2C1,70
05ACC:  MOVLB  0
....................    SlaveB0Tx[3]=make8((int16)PresionCamara,1); 
05ACE:  MOVFF  2C2,71
05AD2:  MOVLB  0
....................    SlaveB0Tx[4]=make8((int16)PresionPreCamara,0); 
05AD4:  MOVFF  2C3,72
05AD8:  MOVLB  0
....................    SlaveB0Tx[5]=make8((int16)PresionPreCamara,1); 
05ADA:  MOVFF  2C4,73
05ADE:  MOVLB  0
....................    SlaveB0Tx[6]=Setpoint; 
05AE0:  MOVFF  2AF,74
....................    SlaveB0Tx[7]=seguroValvula; 
05AE4:  CLRF   x75
05AE6:  MOVLB  1
05AE8:  BTFSS  x20.1
05AEA:  BRA    5AF2
05AEC:  MOVLB  0
05AEE:  INCF   x75,F
05AF0:  MOVLB  1
....................    SlaveB0Tx[8]=seguroValvula2; 
05AF2:  MOVLB  0
05AF4:  CLRF   x76
05AF6:  MOVLB  1
05AF8:  BTFSS  x20.2
05AFA:  BRA    5B02
05AFC:  MOVLB  0
05AFE:  INCF   x76,F
05B00:  MOVLB  1
....................    SlaveB0Tx[9]=mEst; 
05B02:  MOVFF  149,77
....................    SlaveB0Tx[10]=sEst; 
05B06:  MOVFF  148,78
....................    SlaveB0Tx[11]=mSec; 
05B0A:  MOVFF  14B,79
....................    SlaveB0Tx[12]=sSec; 
05B0E:  MOVFF  14A,7A
....................    SlaveB0Tx[13]=CicloSeleccionado; 
05B12:  MOVFF  2A5,7B
....................    SlaveB0Tx[14]=SetTime; 
05B16:  MOVFF  2FF,7C
....................    SlaveB0Tx[15]=Dia; 
05B1A:  MOVFF  2F0,7D
....................    SlaveB0Tx[16]=Mes; 
05B1E:  MOVFF  2EF,7E
....................    SlaveB0Tx[17]=Year; 
05B22:  MOVFF  2EE,7F
....................    SlaveB0Tx[18]=Hora; 
05B26:  MOVFF  2F1,80
....................    SlaveB0Tx[19]=Minuto; 
05B2A:  MOVFF  2F2,81
....................    SlaveB0Tx[20]=Segundo; 
05B2E:  MOVFF  2F3,82
....................    SlaveB0Tx[21]=Imprime; 
05B32:  MOVFF  300,83
....................    SlaveB0Tx[22]=make8(Ciclos,0); 
05B36:  MOVFF  2C5,84
05B3A:  MOVLB  0
....................    SlaveB0Tx[23]=make8(Ciclos,1); 
05B3C:  MOVFF  2C6,85
05B40:  MOVLB  0
....................    SlaveB0Tx[24]=EstadoBuzzer; 
05B42:  CLRF   x86
05B44:  MOVLB  1
05B46:  BTFSS  x2D.4
05B48:  BRA    5B50
05B4A:  MOVLB  0
05B4C:  INCF   x86,F
05B4E:  MOVLB  1
....................    SlaveB0Tx[25]=suministroAire; 
05B50:  MOVLB  0
05B52:  CLRF   x87
05B54:  BTFSC  31.4
05B56:  INCF   x87,F
....................    SlaveB0Tx[26]=AguaEnfriador; 
05B58:  CLRF   x88
05B5A:  BTFSC  31.5
05B5C:  INCF   x88,F
....................    SlaveB0Tx[27]=BombaVacio; 
05B5E:  CLRF   x89
05B60:  BTFSC  31.6
05B62:  INCF   x89,F
....................    SlaveB0Tx[28]=empaqueLimpio; 
05B64:  CLRF   x8A
05B66:  BTFSC  31.7
05B68:  INCF   x8A,F
....................    SlaveB0Tx[29]=empaqueSucio; 
05B6A:  CLRF   x8B
05B6C:  MOVLB  1
05B6E:  BTFSS  x1F.0
05B70:  BRA    5B78
05B72:  MOVLB  0
05B74:  INCF   x8B,F
05B76:  MOVLB  1
....................    SlaveB0Tx[30]=cilindroSucio; 
05B78:  MOVLB  0
05B7A:  CLRF   x8C
05B7C:  MOVLB  1
05B7E:  BTFSS  x1F.6
05B80:  BRA    5B88
05B82:  MOVLB  0
05B84:  INCF   x8C,F
05B86:  MOVLB  1
....................    SlaveB0Tx[31]=cilindroLimpio; 
05B88:  MOVLB  0
05B8A:  CLRF   x8D
05B8C:  MOVLB  1
05B8E:  BTFSS  x1F.7
05B90:  BRA    5B98
05B92:  MOVLB  0
05B94:  INCF   x8D,F
05B96:  MOVLB  1
....................    SlaveB0Tx[32]=suministroVapor; 
05B98:  MOVLB  0
05B9A:  CLRF   x8E
05B9C:  MOVLB  1
05B9E:  BTFSS  x1F.1
05BA0:  BRA    5BA8
05BA2:  MOVLB  0
05BA4:  INCF   x8E,F
05BA6:  MOVLB  1
....................    SlaveB0Tx[33]=Paso; 
05BA8:  MOVLB  0
05BAA:  CLRF   x8F
05BAC:  MOVLB  1
05BAE:  BTFSS  x1F.2
05BB0:  BRA    5BB8
05BB2:  MOVLB  0
05BB4:  INCF   x8F,F
05BB6:  MOVLB  1
....................    SlaveB0Tx[34]=outVacio; 
05BB8:  MOVLB  0
05BBA:  CLRF   x90
05BBC:  MOVLB  1
05BBE:  BTFSS  x1F.3
05BC0:  BRA    5BC8
05BC2:  MOVLB  0
05BC4:  INCF   x90,F
05BC6:  MOVLB  1
....................    SlaveB0Tx[35]=Desfogue; 
05BC8:  MOVLB  0
05BCA:  CLRF   x91
05BCC:  MOVLB  1
05BCE:  BTFSS  x1F.4
05BD0:  BRA    5BD8
05BD2:  MOVLB  0
05BD4:  INCF   x91,F
05BD6:  MOVLB  1
....................    SlaveB0Tx[36]=Aire; 
05BD8:  MOVLB  0
05BDA:  CLRF   x92
05BDC:  MOVLB  1
05BDE:  BTFSS  x1F.5
05BE0:  BRA    5BE8
05BE2:  MOVLB  0
05BE4:  INCF   x92,F
05BE6:  MOVLB  1
....................    SlaveB0Tx[37]=Aux; 
05BE8:  MOVLB  0
05BEA:  CLRF   x93
05BEC:  MOVLB  1
05BEE:  BTFSS  x20.0
05BF0:  BRA    5BF8
05BF2:  MOVLB  0
05BF4:  INCF   x93,F
05BF6:  MOVLB  1
....................    SlaveB0Tx[38]=codigoAlarma; 
05BF8:  MOVFF  2DB,94
....................    SlaveB0Tx[39]=codigoUsuario; 
05BFC:  MOVFF  302,95
....................     
....................    SlaveC0Tx[0]=(int8)Temperatura; 
05C00:  MOVFF  26B,717
05C04:  MOVFF  26A,716
05C08:  MOVFF  269,715
05C0C:  MOVFF  268,714
05C10:  MOVLB  0
05C12:  RCALL  5424
05C14:  MOVFF  01,A0
....................    SlaveC0Tx[1]=(Temperatura-((int8)Temperatura))*10; 
05C18:  MOVFF  26B,717
05C1C:  MOVFF  26A,716
05C20:  MOVFF  269,715
05C24:  MOVFF  268,714
05C28:  CALL   5424
05C2C:  MOVLB  7
05C2E:  CLRF   x15
05C30:  MOVFF  01,714
05C34:  MOVLB  0
05C36:  CALL   21A0
05C3A:  BSF    FD8.1
05C3C:  MOVFF  26B,717
05C40:  MOVFF  26A,716
05C44:  MOVFF  269,715
05C48:  MOVFF  268,714
05C4C:  MOVFF  03,71B
05C50:  MOVFF  02,71A
05C54:  MOVFF  01,719
05C58:  MOVFF  00,718
05C5C:  CALL   25BA
05C60:  MOVFF  00,714
05C64:  MOVFF  01,715
05C68:  MOVFF  02,716
05C6C:  MOVFF  03,717
05C70:  MOVFF  03,71B
05C74:  MOVFF  02,71A
05C78:  MOVFF  01,719
05C7C:  MOVFF  00,718
05C80:  MOVLB  7
05C82:  CLRF   x1F
05C84:  CLRF   x1E
05C86:  MOVLW  20
05C88:  MOVWF  x1D
05C8A:  MOVLW  82
05C8C:  MOVWF  x1C
05C8E:  MOVLB  0
05C90:  CALL   47E8
05C94:  MOVFF  03,717
05C98:  MOVFF  02,716
05C9C:  MOVFF  01,715
05CA0:  MOVFF  00,714
05CA4:  CALL   5424
05CA8:  MOVFF  01,A1
....................    SlaveC0Tx[2]=make8((int16)PresionCamara,0); 
05CAC:  MOVFF  2C1,A2
05CB0:  MOVLB  0
....................    SlaveC0Tx[3]=make8((int16)PresionCamara,1); 
05CB2:  MOVFF  2C2,A3
05CB6:  MOVLB  0
....................    SlaveC0Tx[4]=make8((int16)PresionPreCamara,0); 
05CB8:  MOVFF  2C3,A4
05CBC:  MOVLB  0
....................    SlaveC0Tx[5]=make8((int16)PresionPreCamara,1); 
05CBE:  MOVFF  2C4,A5
05CC2:  MOVLB  0
....................    SlaveC0Tx[6]=(int8)Tpulso*10; 
05CC4:  MOVFF  23B,717
05CC8:  MOVFF  23A,716
05CCC:  MOVFF  239,715
05CD0:  MOVFF  238,714
05CD4:  CALL   5424
05CD8:  MOVF   01,W
05CDA:  MULLW  0A
05CDC:  MOVFF  FF3,A6
....................    //SlaveC0Tx[7]=HIG; 
....................    //SlaveC0Tx[8]=LOW; 
....................    //SlaveC0Tx[9]=TERM; 
....................    //SlaveC0Tx[10]=DOOR; 
....................    SlaveC0Tx[11]=STOP; 
05CE0:  BSF    F93.0
05CE2:  CLRF   xAB
05CE4:  BTFSS  F81.0
05CE6:  INCF   xAB,F
....................    SlaveC0Tx[12]=(int8)error; 
05CE8:  MOVFF  23F,717
05CEC:  MOVFF  23E,716
05CF0:  MOVFF  23D,715
05CF4:  MOVFF  23C,714
05CF8:  CALL   5424
05CFC:  MOVFF  01,AC
....................    SlaveC0Tx[13]=CicloSeleccionado; 
05D00:  MOVFF  2A5,AD
....................    SlaveC0Tx[14]=SetTime; 
05D04:  MOVFF  2FF,AE
....................    SlaveC0Tx[15]=Dia; 
05D08:  MOVFF  2F0,AF
....................    SlaveC0Tx[16]=Mes; 
05D0C:  MOVFF  2EF,B0
....................    SlaveC0Tx[17]=Year; 
05D10:  MOVFF  2EE,B1
....................    SlaveC0Tx[18]=Hora; 
05D14:  MOVFF  2F1,B2
....................    SlaveC0Tx[19]=Minuto; 
05D18:  MOVFF  2F2,B3
....................    SlaveC0Tx[20]=Segundo; 
05D1C:  MOVFF  2F3,B4
....................    SlaveC0Tx[21]=mEst; 
05D20:  MOVFF  149,B5
....................    SlaveC0Tx[22]=sEst; 
05D24:  MOVFF  148,B6
....................    SlaveC0Tx[23]=mSec; 
05D28:  MOVFF  14B,B7
....................    SlaveC0Tx[24]=sSec; 
05D2C:  MOVFF  14A,B8
....................    SlaveC0Tx[25]=Menu; 
05D30:  MOVFF  2A0,B9
....................    SlaveC0Tx[26]=Setpoint; 
05D34:  MOVFF  2AF,BA
....................    SlaveC0Tx[27]=codigoAlarma; 
05D38:  MOVFF  2DB,BB
....................    SlaveC0Tx[28]=255; 
05D3C:  MOVLW  FF
05D3E:  MOVWF  xBC
....................    SlaveC0Tx[29]=128; 
05D40:  MOVLW  80
05D42:  MOVWF  xBD
....................    SlaveC0Tx[30]=50; 
05D44:  MOVLW  32
05D46:  MOVWF  xBE
.................... } 
05D48:  GOTO   5DAE (RETURN)
....................  
.................... void Lee_Vector(void){ 
....................    //Dia=txbuf[0];    
.................... } 
*
00004:  GOTO   600E (RETURN)
....................  
.................... void Envio_Esclavos(void){ 
....................    Carga_Vector(); 
*
05DAC:  BRA    5A22
....................    for(i=0;i<40;i++){ 
05DAE:  MOVLB  2
05DB0:  CLRF   xEB
05DB2:  CLRF   xEA
05DB4:  MOVF   xEB,F
05DB6:  BNZ   5E4A
05DB8:  MOVF   xEA,W
05DBA:  SUBLW  27
05DBC:  BNC   5E4A
....................       direccion=0xB0; 
05DBE:  MOVLW  B0
05DC0:  MOVLB  1
05DC2:  MOVWF  x05
....................       i2c_start();            // Comienzo comunicacin 
05DC4:  BSF    F94.4
05DC6:  MOVLW  05
05DC8:  MOVWF  00
05DCA:  DECFSZ 00,F
05DCC:  BRA    5DCA
05DCE:  BSF    F94.3
05DD0:  MOVLW  06
05DD2:  MOVWF  00
05DD4:  DECFSZ 00,F
05DD6:  BRA    5DD4
05DD8:  BCF    F8B.4
05DDA:  BCF    F94.4
05DDC:  MOVLW  05
05DDE:  MOVWF  00
05DE0:  DECFSZ 00,F
05DE2:  BRA    5DE0
05DE4:  BCF    F8B.3
05DE6:  BCF    F94.3
....................       i2c_write(direccion);   // Direccin del esclavo en el bus I2C 
05DE8:  MOVFF  105,720
05DEC:  MOVLB  0
05DEE:  CALL   23F2
....................       i2c_write(i);   // Direccin del esclavo en el bus I2C 
05DF2:  MOVFF  2EA,720
05DF6:  CALL   23F2
....................       i2c_write(0);    // Posicin donde se guardara el dato transmitido 
05DFA:  MOVLB  7
05DFC:  CLRF   x20
05DFE:  MOVLB  0
05E00:  CALL   23F2
....................       i2c_write(SlaveB0Tx[i]); // Dato a transmitir 
05E04:  MOVLW  6E
05E06:  MOVLB  2
05E08:  ADDWF  xEA,W
05E0A:  MOVWF  FE9
05E0C:  MOVLW  00
05E0E:  ADDWFC xEB,W
05E10:  MOVWF  FEA
05E12:  MOVFF  FEF,714
05E16:  MOVFF  714,720
05E1A:  MOVLB  0
05E1C:  CALL   23F2
....................       i2c_stop();  
05E20:  BCF    F94.4
05E22:  NOP   
05E24:  BSF    F94.3
05E26:  BTFSS  F82.3
05E28:  BRA    5E26
05E2A:  MOVLW  05
05E2C:  MOVWF  00
05E2E:  DECFSZ 00,F
05E30:  BRA    5E2E
05E32:  BRA    5E34
05E34:  NOP   
05E36:  BSF    F94.4
05E38:  MOVLW  05
05E3A:  MOVWF  00
05E3C:  DECFSZ 00,F
05E3E:  BRA    5E3C
....................       //Envio_I2C(direccion,i,SlaveB0Tx[i]); 
....................    }  
05E40:  MOVLB  2
05E42:  INCF   xEA,F
05E44:  BTFSC  FD8.2
05E46:  INCF   xEB,F
05E48:  BRA    5DB4
....................     
....................    for(i=0;i<31;i++){ 
05E4A:  CLRF   xEB
05E4C:  CLRF   xEA
05E4E:  MOVF   xEB,F
05E50:  BNZ   5E8A
05E52:  MOVF   xEA,W
05E54:  SUBLW  1E
05E56:  BNC   5E8A
....................       direccion=0xC0; 
05E58:  MOVLW  C0
05E5A:  MOVLB  1
05E5C:  MOVWF  x05
....................       Envio_I2C(direccion,i,SlaveC0Tx[i]); 
05E5E:  MOVLW  A0
05E60:  MOVLB  2
05E62:  ADDWF  xEA,W
05E64:  MOVWF  FE9
05E66:  MOVLW  00
05E68:  ADDWFC xEB,W
05E6A:  MOVWF  FEA
05E6C:  MOVFF  FEF,714
05E70:  MOVFF  105,715
05E74:  MOVFF  2EA,716
05E78:  MOVFF  714,717
05E7C:  MOVLB  0
05E7E:  BRA    5D4C
....................    } 
05E80:  MOVLB  2
05E82:  INCF   xEA,F
05E84:  BTFSC  FD8.2
05E86:  INCF   xEB,F
05E88:  BRA    5E4E
.................... } 
05E8A:  MOVLB  0
05E8C:  RETLW  00
.................... void Lectura_Esclavos(void){ 
....................    for(i=0;i<9;i++){ 
05E8E:  MOVLB  2
05E90:  CLRF   xEB
05E92:  CLRF   xEA
05E94:  MOVF   xEB,F
05E96:  BNZ   5F62
05E98:  MOVF   xEA,W
05E9A:  SUBLW  08
05E9C:  BNC   5F62
....................       direccion=0xB0;                        //Direccin en el bus I2c 
05E9E:  MOVLW  B0
05EA0:  MOVLB  1
05EA2:  MOVWF  x05
....................       posicion=i;                         //Posicin de memoria a leer 
05EA4:  MOVFF  2EA,106
....................       Lectura_I2C(direccion, posicion, dato);    //Lectura por I2C 
05EA8:  MOVFF  105,702
05EAC:  MOVFF  106,703
....................       txbuf[i]=(int8)dato; 
*
05F48:  MOVLW  49
05F4A:  MOVLB  2
05F4C:  ADDWF  xEA,W
05F4E:  MOVWF  FE9
05F50:  MOVLW  00
05F52:  ADDWFC xEB,W
05F54:  MOVWF  FEA
05F56:  MOVFF  104,FEF
....................    } 
05F5A:  INCF   xEA,F
05F5C:  BTFSC  FD8.2
05F5E:  INCF   xEB,F
05F60:  BRA    5E94
....................    Lectura_I2C(0XC0, 0, dato);    //Lectura por I2C 
05F62:  MOVLW  C0
05F64:  MOVLB  7
05F66:  MOVWF  x02
05F68:  CLRF   x03
....................    SlaveC0Rx[0]=(int8)dato; 
*
06002:  MOVFF  104,D2
....................    subirPuertaLimpio=SlaveC0Rx[0]; 
06006:  MOVFF  D2,227
....................    Lee_Vector(); 
0600A:  GOTO   0004
.................... } 
0600E:  GOTO   10816 (RETURN)
....................  
.................... int8 extraeDecimal(float data){ 
*
08480:  MOVLB  7
08482:  CLRF   x0F
08484:  CLRF   x0E
08486:  CLRF   x0D
08488:  CLRF   x0C
0848A:  CLRF   x13
0848C:  CLRF   x12
0848E:  CLRF   x11
08490:  CLRF   x10
....................    float entero=0; 
....................    float tmp=0.0; 
....................     
....................    entero=(int8)data; 
08492:  MOVFF  70B,717
08496:  MOVFF  70A,716
0849A:  MOVFF  709,715
0849E:  MOVFF  708,714
084A2:  MOVLB  0
084A4:  CALL   5424
084A8:  MOVLB  7
084AA:  CLRF   x15
084AC:  MOVFF  01,714
084B0:  MOVLB  0
084B2:  CALL   21A0
084B6:  MOVFF  03,70F
084BA:  MOVFF  02,70E
084BE:  MOVFF  01,70D
084C2:  MOVFF  00,70C
....................    tmp=(data-entero)*10; 
084C6:  BSF    FD8.1
084C8:  MOVFF  70B,717
084CC:  MOVFF  70A,716
084D0:  MOVFF  709,715
084D4:  MOVFF  708,714
084D8:  MOVFF  70F,71B
084DC:  MOVFF  70E,71A
084E0:  MOVFF  70D,719
084E4:  MOVFF  70C,718
084E8:  CALL   25BA
084EC:  MOVFF  00,714
084F0:  MOVFF  01,715
084F4:  MOVFF  02,716
084F8:  MOVFF  03,717
084FC:  MOVFF  03,71B
08500:  MOVFF  02,71A
08504:  MOVFF  01,719
08508:  MOVFF  00,718
0850C:  MOVLB  7
0850E:  CLRF   x1F
08510:  CLRF   x1E
08512:  MOVLW  20
08514:  MOVWF  x1D
08516:  MOVLW  82
08518:  MOVWF  x1C
0851A:  MOVLB  0
0851C:  CALL   47E8
08520:  MOVFF  03,713
08524:  MOVFF  02,712
08528:  MOVFF  01,711
0852C:  MOVFF  00,710
....................    return (int8)tmp; 
08530:  MOVFF  713,717
08534:  MOVFF  712,716
08538:  MOVFF  711,715
0853C:  MOVFF  710,714
08540:  CALL   5424
08544:  MOVF   01,W
.................... } 
08546:  GOTO   8680 (RETURN)
....................  
.................... float inttofloat(int8 decimal){ 
....................    float tmp; 
....................    tmp=decimal; 
*
0257A:  MOVLB  7
0257C:  CLRF   x15
0257E:  MOVFF  706,714
02582:  MOVLB  0
02584:  RCALL  21A0
02586:  MOVFF  03,70A
0258A:  MOVFF  02,709
0258E:  MOVFF  01,708
02592:  MOVFF  00,707
....................    return tmp/10; 
02596:  MOVFF  70A,711
0259A:  MOVFF  709,710
0259E:  MOVFF  708,70F
025A2:  MOVFF  707,70E
025A6:  MOVLB  7
025A8:  CLRF   x15
025AA:  CLRF   x14
025AC:  MOVLW  20
025AE:  MOVWF  x13
025B0:  MOVLW  82
025B2:  MOVWF  x12
025B4:  MOVLB  0
025B6:  RCALL  21FE
.................... } 
025B8:  RETLW  00
....................  
.................... void LeeEEPROM(){ 
.................... //Lectura EEPROM//-------------------------- 
....................    Ganancia=read_eeprom(20); 
*
028AC:  MOVFF  FF2,702
028B0:  BCF    FF2.6
028B2:  BCF    FF2.7
028B4:  CLRF   FAA
028B6:  MOVLW  14
028B8:  MOVWF  FA9
028BA:  BCF    FA6.6
028BC:  BCF    FA6.7
028BE:  BSF    FA6.0
028C0:  MOVF   FA8,W
028C2:  MOVLB  7
028C4:  BTFSC  x02.6
028C6:  BSF    FF2.6
028C8:  BTFSC  x02.7
028CA:  BSF    FF2.7
028CC:  CLRF   x15
028CE:  MOVWF  x14
028D0:  MOVLB  0
028D2:  RCALL  21A0
028D4:  MOVFF  03,24F
028D8:  MOVFF  02,24E
028DC:  MOVFF  01,24D
028E0:  MOVFF  00,24C
....................    delay_ms(10); 
028E4:  MOVLW  0A
028E6:  MOVLB  7
028E8:  MOVWF  x18
028EA:  MOVLB  0
028EC:  RCALL  21D6
....................    Sensor[0].Ajuste=read_eeprom(21); 
028EE:  MOVFF  FF2,702
028F2:  BCF    FF2.6
028F4:  BCF    FF2.7
028F6:  CLRF   FAA
028F8:  MOVLW  15
028FA:  MOVWF  FA9
028FC:  BCF    FA6.6
028FE:  BCF    FA6.7
02900:  BSF    FA6.0
02902:  MOVF   FA8,W
02904:  MOVLB  7
02906:  BTFSC  x02.6
02908:  BSF    FF2.6
0290A:  BTFSC  x02.7
0290C:  BSF    FF2.7
0290E:  MOVLB  3
02910:  MOVWF  x90
....................    delay_ms(10); 
02912:  MOVLW  0A
02914:  MOVLB  7
02916:  MOVWF  x18
02918:  MOVLB  0
0291A:  RCALL  21D6
....................    Sensor[0].Ajusten=read_eeprom(22); 
0291C:  MOVFF  FF2,702
02920:  BCF    FF2.6
02922:  BCF    FF2.7
02924:  CLRF   FAA
02926:  MOVLW  16
02928:  MOVWF  FA9
0292A:  BCF    FA6.6
0292C:  BCF    FA6.7
0292E:  BSF    FA6.0
02930:  MOVF   FA8,W
02932:  MOVLB  7
02934:  BTFSC  x02.6
02936:  BSF    FF2.6
02938:  BTFSC  x02.7
0293A:  BSF    FF2.7
0293C:  MOVLB  3
0293E:  MOVWF  x91
....................    delay_ms(10); 
02940:  MOVLW  0A
02942:  MOVLB  7
02944:  MOVWF  x18
02946:  MOVLB  0
02948:  RCALL  21D6
....................    Sensor[1].Ajuste=read_eeprom(23); 
0294A:  MOVFF  FF2,702
0294E:  BCF    FF2.6
02950:  BCF    FF2.7
02952:  CLRF   FAA
02954:  MOVLW  17
02956:  MOVWF  FA9
02958:  BCF    FA6.6
0295A:  BCF    FA6.7
0295C:  BSF    FA6.0
0295E:  MOVF   FA8,W
02960:  MOVLB  7
02962:  BTFSC  x02.6
02964:  BSF    FF2.6
02966:  BTFSC  x02.7
02968:  BSF    FF2.7
0296A:  MOVLB  4
0296C:  MOVWF  xF4
....................    delay_ms(10); 
0296E:  MOVLW  0A
02970:  MOVLB  7
02972:  MOVWF  x18
02974:  MOVLB  0
02976:  RCALL  21D6
....................    Sensor[1].Ajusten=read_eeprom(24); 
02978:  MOVFF  FF2,702
0297C:  BCF    FF2.6
0297E:  BCF    FF2.7
02980:  CLRF   FAA
02982:  MOVLW  18
02984:  MOVWF  FA9
02986:  BCF    FA6.6
02988:  BCF    FA6.7
0298A:  BSF    FA6.0
0298C:  MOVF   FA8,W
0298E:  MOVLB  7
02990:  BTFSC  x02.6
02992:  BSF    FF2.6
02994:  BTFSC  x02.7
02996:  BSF    FF2.7
02998:  MOVLB  4
0299A:  MOVWF  xF5
....................    delay_ms(10);    
0299C:  MOVLW  0A
0299E:  MOVLB  7
029A0:  MOVWF  x18
029A2:  MOVLB  0
029A4:  RCALL  21D6
....................    MediaMovil=read_eeprom(25); 
029A6:  MOVFF  FF2,702
029AA:  BCF    FF2.6
029AC:  BCF    FF2.7
029AE:  CLRF   FAA
029B0:  MOVLW  19
029B2:  MOVWF  FA9
029B4:  BCF    FA6.6
029B6:  BCF    FA6.7
029B8:  BSF    FA6.0
029BA:  MOVF   FA8,W
029BC:  MOVLB  7
029BE:  BTFSC  x02.6
029C0:  BSF    FF2.6
029C2:  BTFSC  x02.7
029C4:  BSF    FF2.7
029C6:  MOVLB  2
029C8:  MOVWF  x22
....................    delay_ms(10); 
029CA:  MOVLW  0A
029CC:  MOVLB  7
029CE:  MOVWF  x18
029D0:  MOVLB  0
029D2:  RCALL  21D6
....................    Tciclo=read_eeprom(26); 
029D4:  MOVFF  FF2,702
029D8:  BCF    FF2.6
029DA:  BCF    FF2.7
029DC:  CLRF   FAA
029DE:  MOVLW  1A
029E0:  MOVWF  FA9
029E2:  BCF    FA6.6
029E4:  BCF    FA6.7
029E6:  BSF    FA6.0
029E8:  MOVF   FA8,W
029EA:  MOVLB  7
029EC:  BTFSC  x02.6
029EE:  BSF    FF2.6
029F0:  BTFSC  x02.7
029F2:  BSF    FF2.7
029F4:  CLRF   x15
029F6:  MOVWF  x14
029F8:  MOVLB  0
029FA:  CALL   21A0
029FE:  MOVFF  03,237
02A02:  MOVFF  02,236
02A06:  MOVFF  01,235
02A0A:  MOVFF  00,234
....................    delay_ms(10); 
02A0E:  MOVLW  0A
02A10:  MOVLB  7
02A12:  MOVWF  x18
02A14:  MOVLB  0
02A16:  CALL   21D6
....................    Atmosferica=read_eeprom(31); 
02A1A:  MOVFF  FF2,702
02A1E:  BCF    FF2.6
02A20:  BCF    FF2.7
02A22:  CLRF   FAA
02A24:  MOVLW  1F
02A26:  MOVWF  FA9
02A28:  BCF    FA6.6
02A2A:  BCF    FA6.7
02A2C:  BSF    FA6.0
02A2E:  MOVF   FA8,W
02A30:  MOVLB  7
02A32:  BTFSC  x02.6
02A34:  BSF    FF2.6
02A36:  BTFSC  x02.7
02A38:  BSF    FF2.7
02A3A:  MOVLB  2
02A3C:  MOVWF  xF6
....................    delay_ms(10); 
02A3E:  MOVLW  0A
02A40:  MOVLB  7
02A42:  MOVWF  x18
02A44:  MOVLB  0
02A46:  CALL   21D6
....................    Tapertura=read_eeprom(32); 
02A4A:  MOVFF  FF2,702
02A4E:  BCF    FF2.6
02A50:  BCF    FF2.7
02A52:  CLRF   FAA
02A54:  MOVLW  20
02A56:  MOVWF  FA9
02A58:  BCF    FA6.6
02A5A:  BCF    FA6.7
02A5C:  BSF    FA6.0
02A5E:  MOVF   FA8,W
02A60:  MOVLB  7
02A62:  BTFSC  x02.6
02A64:  BSF    FF2.6
02A66:  BTFSC  x02.7
02A68:  BSF    FF2.7
02A6A:  MOVLB  2
02A6C:  MOVWF  xA6
....................    delay_ms(10); 
02A6E:  MOVLW  0A
02A70:  MOVLB  7
02A72:  MOVWF  x18
02A74:  MOVLB  0
02A76:  CALL   21D6
....................    CiclosL=read_eeprom(37); 
02A7A:  MOVFF  FF2,702
02A7E:  BCF    FF2.6
02A80:  BCF    FF2.7
02A82:  CLRF   FAA
02A84:  MOVLW  25
02A86:  MOVWF  FA9
02A88:  BCF    FA6.6
02A8A:  BCF    FA6.7
02A8C:  BSF    FA6.0
02A8E:  MOVF   FA8,W
02A90:  MOVLB  7
02A92:  BTFSC  x02.6
02A94:  BSF    FF2.6
02A96:  BTFSC  x02.7
02A98:  BSF    FF2.7
02A9A:  MOVLB  2
02A9C:  MOVWF  xA3
....................    delay_ms(10); 
02A9E:  MOVLW  0A
02AA0:  MOVLB  7
02AA2:  MOVWF  x18
02AA4:  MOVLB  0
02AA6:  CALL   21D6
....................    CiclosH=read_eeprom(38); 
02AAA:  MOVFF  FF2,702
02AAE:  BCF    FF2.6
02AB0:  BCF    FF2.7
02AB2:  CLRF   FAA
02AB4:  MOVLW  26
02AB6:  MOVWF  FA9
02AB8:  BCF    FA6.6
02ABA:  BCF    FA6.7
02ABC:  BSF    FA6.0
02ABE:  MOVF   FA8,W
02AC0:  MOVLB  7
02AC2:  BTFSC  x02.6
02AC4:  BSF    FF2.6
02AC6:  BTFSC  x02.7
02AC8:  BSF    FF2.7
02ACA:  MOVLB  2
02ACC:  MOVWF  xA4
....................    delay_ms(10); 
02ACE:  MOVLW  0A
02AD0:  MOVLB  7
02AD2:  MOVWF  x18
02AD4:  MOVLB  0
02AD6:  CALL   21D6
....................    Ciclos=make16(CiclosH,CiclosL); 
02ADA:  MOVFF  2A4,2C6
02ADE:  MOVFF  2A3,2C5
....................    delay_ms(10); 
02AE2:  MOVLW  0A
02AE4:  MOVLB  7
02AE6:  MOVWF  x18
02AE8:  MOVLB  0
02AEA:  CALL   21D6
....................    G1=read_eeprom(42); 
02AEE:  MOVFF  FF2,702
02AF2:  BCF    FF2.6
02AF4:  BCF    FF2.7
02AF6:  CLRF   FAA
02AF8:  MOVLW  2A
02AFA:  MOVWF  FA9
02AFC:  BCF    FA6.6
02AFE:  BCF    FA6.7
02B00:  BSF    FA6.0
02B02:  MOVF   FA8,W
02B04:  MOVLB  7
02B06:  BTFSC  x02.6
02B08:  BSF    FF2.6
02B0A:  BTFSC  x02.7
02B0C:  BSF    FF2.7
02B0E:  MOVLB  3
02B10:  MOVWF  x04
....................    delay_ms(10); 
02B12:  MOVLW  0A
02B14:  MOVLB  7
02B16:  MOVWF  x18
02B18:  MOVLB  0
02B1A:  CALL   21D6
....................    G2=read_eeprom(43); 
02B1E:  MOVFF  FF2,702
02B22:  BCF    FF2.6
02B24:  BCF    FF2.7
02B26:  CLRF   FAA
02B28:  MOVLW  2B
02B2A:  MOVWF  FA9
02B2C:  BCF    FA6.6
02B2E:  BCF    FA6.7
02B30:  BSF    FA6.0
02B32:  MOVF   FA8,W
02B34:  MOVLB  7
02B36:  BTFSC  x02.6
02B38:  BSF    FF2.6
02B3A:  BTFSC  x02.7
02B3C:  BSF    FF2.7
02B3E:  MOVLB  3
02B40:  MOVWF  x05
....................    delay_ms(10); 
02B42:  MOVLW  0A
02B44:  MOVLB  7
02B46:  MOVWF  x18
02B48:  MOVLB  0
02B4A:  CALL   21D6
....................    sg1=read_eeprom(44); 
02B4E:  MOVFF  FF2,702
02B52:  BCF    FF2.6
02B54:  BCF    FF2.7
02B56:  CLRF   FAA
02B58:  MOVLW  2C
02B5A:  MOVWF  FA9
02B5C:  BCF    FA6.6
02B5E:  BCF    FA6.7
02B60:  BSF    FA6.0
02B62:  MOVF   FA8,W
02B64:  MOVLB  7
02B66:  BTFSC  x02.6
02B68:  BSF    FF2.6
02B6A:  BTFSC  x02.7
02B6C:  BSF    FF2.7
02B6E:  MOVLB  3
02B70:  MOVWF  x06
....................    delay_ms(10); 
02B72:  MOVLW  0A
02B74:  MOVLB  7
02B76:  MOVWF  x18
02B78:  MOVLB  0
02B7A:  CALL   21D6
....................    sg2=read_eeprom(45); 
02B7E:  MOVFF  FF2,702
02B82:  BCF    FF2.6
02B84:  BCF    FF2.7
02B86:  CLRF   FAA
02B88:  MOVLW  2D
02B8A:  MOVWF  FA9
02B8C:  BCF    FA6.6
02B8E:  BCF    FA6.7
02B90:  BSF    FA6.0
02B92:  MOVF   FA8,W
02B94:  MOVLB  7
02B96:  BTFSC  x02.6
02B98:  BSF    FF2.6
02B9A:  BTFSC  x02.7
02B9C:  BSF    FF2.7
02B9E:  MOVLB  3
02BA0:  MOVWF  x07
....................    delay_ms(10); 
02BA2:  MOVLW  0A
02BA4:  MOVLB  7
02BA6:  MOVWF  x18
02BA8:  MOVLB  0
02BAA:  CALL   21D6
....................    cerroSucioInt=read_eeprom(46); 
02BAE:  MOVFF  FF2,702
02BB2:  BCF    FF2.6
02BB4:  BCF    FF2.7
02BB6:  CLRF   FAA
02BB8:  MOVLW  2E
02BBA:  MOVWF  FA9
02BBC:  BCF    FA6.6
02BBE:  BCF    FA6.7
02BC0:  BSF    FA6.0
02BC2:  MOVF   FA8,W
02BC4:  MOVLB  7
02BC6:  BTFSC  x02.6
02BC8:  BSF    FF2.6
02BCA:  BTFSC  x02.7
02BCC:  BSF    FF2.7
02BCE:  MOVLB  2
02BD0:  MOVWF  x28
....................    delay_ms(10); 
02BD2:  MOVLW  0A
02BD4:  MOVLB  7
02BD6:  MOVWF  x18
02BD8:  MOVLB  0
02BDA:  CALL   21D6
....................    cerroLimpioInt=read_eeprom(47); 
02BDE:  MOVFF  FF2,702
02BE2:  BCF    FF2.6
02BE4:  BCF    FF2.7
02BE6:  CLRF   FAA
02BE8:  MOVLW  2F
02BEA:  MOVWF  FA9
02BEC:  BCF    FA6.6
02BEE:  BCF    FA6.7
02BF0:  BSF    FA6.0
02BF2:  MOVF   FA8,W
02BF4:  MOVLB  7
02BF6:  BTFSC  x02.6
02BF8:  BSF    FF2.6
02BFA:  BTFSC  x02.7
02BFC:  BSF    FF2.7
02BFE:  MOVLB  2
02C00:  MOVWF  x29
....................    delay_ms(10); 
02C02:  MOVLW  0A
02C04:  MOVLB  7
02C06:  MOVWF  x18
02C08:  MOVLB  0
02C0A:  CALL   21D6
....................    pulsosConfigurados=read_eeprom(50); 
02C0E:  MOVFF  FF2,702
02C12:  BCF    FF2.6
02C14:  BCF    FF2.7
02C16:  CLRF   FAA
02C18:  MOVLW  32
02C1A:  MOVWF  FA9
02C1C:  BCF    FA6.6
02C1E:  BCF    FA6.7
02C20:  BSF    FA6.0
02C22:  MOVF   FA8,W
02C24:  MOVLB  7
02C26:  BTFSC  x02.6
02C28:  BSF    FF2.6
02C2A:  BTFSC  x02.7
02C2C:  BSF    FF2.7
02C2E:  MOVLB  2
02C30:  MOVWF  x7F
....................    delay_ms(10); 
02C32:  MOVLW  0A
02C34:  MOVLB  7
02C36:  MOVWF  x18
02C38:  MOVLB  0
02C3A:  CALL   21D6
....................    vacioTest=read_eeprom(51); 
02C3E:  MOVFF  FF2,702
02C42:  BCF    FF2.6
02C44:  BCF    FF2.7
02C46:  CLRF   FAA
02C48:  MOVLW  33
02C4A:  MOVWF  FA9
02C4C:  BCF    FA6.6
02C4E:  BCF    FA6.7
02C50:  BSF    FA6.0
02C52:  MOVF   FA8,W
02C54:  MOVLB  7
02C56:  BTFSC  x02.6
02C58:  BSF    FF2.6
02C5A:  BTFSC  x02.7
02C5C:  BSF    FF2.7
02C5E:  MOVLB  2
02C60:  MOVWF  x80
....................    delay_ms(10); 
02C62:  MOVLW  0A
02C64:  MOVLB  7
02C66:  MOVWF  x18
02C68:  MOVLB  0
02C6A:  CALL   21D6
....................    vacioCiclo=read_eeprom(52); 
02C6E:  MOVFF  FF2,702
02C72:  BCF    FF2.6
02C74:  BCF    FF2.7
02C76:  CLRF   FAA
02C78:  MOVLW  34
02C7A:  MOVWF  FA9
02C7C:  BCF    FA6.6
02C7E:  BCF    FA6.7
02C80:  BSF    FA6.0
02C82:  MOVF   FA8,W
02C84:  MOVLB  7
02C86:  BTFSC  x02.6
02C88:  BSF    FF2.6
02C8A:  BTFSC  x02.7
02C8C:  BSF    FF2.7
02C8E:  MOVLB  2
02C90:  MOVWF  x81
....................    delay_ms(10); 
02C92:  MOVLW  0A
02C94:  MOVLB  7
02C96:  MOVWF  x18
02C98:  MOVLB  0
02C9A:  CALL   21D6
....................    histe=read_eeprom(53); 
02C9E:  MOVFF  FF2,702
02CA2:  BCF    FF2.6
02CA4:  BCF    FF2.7
02CA6:  CLRF   FAA
02CA8:  MOVLW  35
02CAA:  MOVWF  FA9
02CAC:  BCF    FA6.6
02CAE:  BCF    FA6.7
02CB0:  BSF    FA6.0
02CB2:  MOVF   FA8,W
02CB4:  MOVLB  7
02CB6:  BTFSC  x02.6
02CB8:  BSF    FF2.6
02CBA:  BTFSC  x02.7
02CBC:  BSF    FF2.7
02CBE:  MOVLB  2
02CC0:  MOVWF  x2A
....................    delay_ms(10); 
02CC2:  MOVLW  0A
02CC4:  MOVLB  7
02CC6:  MOVWF  x18
02CC8:  MOVLB  0
02CCA:  CALL   21D6
....................    Histeresis=(float)histe; 
02CCE:  MOVLB  7
02CD0:  CLRF   x15
02CD2:  MOVFF  22A,714
02CD6:  MOVLB  0
02CD8:  CALL   21A0
02CDC:  MOVFF  03,203
02CE0:  MOVFF  02,202
02CE4:  MOVFF  01,201
02CE8:  MOVFF  00,200
....................    Histeresis=Histeresis/10.0; 
02CEC:  MOVFF  203,711
02CF0:  MOVFF  202,710
02CF4:  MOVFF  201,70F
02CF8:  MOVFF  200,70E
02CFC:  MOVLB  7
02CFE:  CLRF   x15
02D00:  CLRF   x14
02D02:  MOVLW  20
02D04:  MOVWF  x13
02D06:  MOVLW  82
02D08:  MOVWF  x12
02D0A:  MOVLB  0
02D0C:  CALL   21FE
02D10:  MOVFF  03,203
02D14:  MOVFF  02,202
02D18:  MOVFF  01,201
02D1C:  MOVFF  00,200
....................    desviacion=read_eeprom(54); 
02D20:  MOVFF  FF2,702
02D24:  BCF    FF2.6
02D26:  BCF    FF2.7
02D28:  CLRF   FAA
02D2A:  MOVLW  36
02D2C:  MOVWF  FA9
02D2E:  BCF    FA6.6
02D30:  BCF    FA6.7
02D32:  BSF    FA6.0
02D34:  MOVF   FA8,W
02D36:  MOVLB  7
02D38:  BTFSC  x02.6
02D3A:  BSF    FF2.6
02D3C:  BTFSC  x02.7
02D3E:  BSF    FF2.7
02D40:  MOVLB  2
02D42:  MOVWF  x2B
....................    delay_ms(10); 
02D44:  MOVLW  0A
02D46:  MOVLB  7
02D48:  MOVWF  x18
02D4A:  MOVLB  0
02D4C:  CALL   21D6
....................    desvio=(float)desviacion; 
02D50:  MOVLB  7
02D52:  CLRF   x15
02D54:  MOVFF  22B,714
02D58:  MOVLB  0
02D5A:  CALL   21A0
02D5E:  MOVFF  03,257
02D62:  MOVFF  02,256
02D66:  MOVFF  01,255
02D6A:  MOVFF  00,254
....................    desvio=desvio/10.0; 
02D6E:  MOVFF  257,711
02D72:  MOVFF  256,710
02D76:  MOVFF  255,70F
02D7A:  MOVFF  254,70E
02D7E:  MOVLB  7
02D80:  CLRF   x15
02D82:  CLRF   x14
02D84:  MOVLW  20
02D86:  MOVWF  x13
02D88:  MOVLW  82
02D8A:  MOVWF  x12
02D8C:  MOVLB  0
02D8E:  CALL   21FE
02D92:  MOVFF  03,257
02D96:  MOVFF  02,256
02D9A:  MOVFF  01,255
02D9E:  MOVFF  00,254
....................     
....................    for(i=0;i<30;i++){ 
02DA2:  MOVLB  2
02DA4:  CLRF   xEB
02DA6:  CLRF   xEA
02DA8:  MOVF   xEB,F
02DAA:  BNZ   2E3A
02DAC:  MOVF   xEA,W
02DAE:  SUBLW  1D
02DB0:  BNC   2E3A
....................       estados[i]=read_eeprom(i+60); 
02DB2:  MOVLW  3C
02DB4:  ADDWF  xEA,W
02DB6:  MOVLB  7
02DB8:  MOVWF  x02
02DBA:  MOVLW  00
02DBC:  MOVLB  2
02DBE:  ADDWFC xEB,W
02DC0:  MOVLB  7
02DC2:  MOVWF  x03
02DC4:  MOVFF  FF2,704
02DC8:  BCF    FF2.6
02DCA:  BCF    FF2.7
02DCC:  MOVFF  703,FAA
02DD0:  MOVFF  702,FA9
02DD4:  BCF    FA6.6
02DD6:  BCF    FA6.7
02DD8:  BSF    FA6.0
02DDA:  MOVF   FA8,W
02DDC:  BTFSC  x04.6
02DDE:  BSF    FF2.6
02DE0:  BTFSC  x04.7
02DE2:  BSF    FF2.7
02DE4:  MOVFF  2EA,705
02DE8:  MOVWF  x06
02DEA:  MOVLW  03
02DEC:  MOVWF  x08
02DEE:  MOVLW  6E
02DF0:  MOVWF  x07
02DF2:  MOVLB  0
02DF4:  CALL   235C
....................       if(estados[i]>1) 
02DF8:  MOVFF  2EA,704
02DFC:  MOVLW  03
02DFE:  MOVLB  7
02E00:  MOVWF  x06
02E02:  MOVLW  6E
02E04:  MOVWF  x05
02E06:  MOVLB  0
02E08:  CALL   239E
02E0C:  MOVLW  00
02E0E:  BTFSC  01.0
02E10:  MOVLW  01
02E12:  ANDLW  01
02E14:  SUBLW  01
02E16:  BC    2E30
....................          estados[i]=1; 
02E18:  MOVFF  2EA,705
02E1C:  MOVLW  01
02E1E:  MOVLB  7
02E20:  MOVWF  x06
02E22:  MOVLW  03
02E24:  MOVWF  x08
02E26:  MOVLW  6E
02E28:  MOVWF  x07
02E2A:  MOVLB  0
02E2C:  CALL   235C
....................    } 
02E30:  MOVLB  2
02E32:  INCF   xEA,F
02E34:  BTFSC  FD8.2
02E36:  INCF   xEB,F
02E38:  BRA    2DA8
....................     
....................    for(i=0;i<20;i++){//Lee valores almacenados de ciclos personalizados 
02E3A:  CLRF   xEB
02E3C:  CLRF   xEA
02E3E:  MOVF   xEB,F
02E40:  BTFSS  FD8.2
02E42:  GOTO   366A
02E46:  MOVF   xEA,W
02E48:  SUBLW  13
02E4A:  BTFSS  FD8.0
02E4C:  GOTO   366A
....................       CiclosPersonalizados[i].Temperatura=read_eeprom(100+(i*8));  
02E50:  RLCF   xEA,W
02E52:  MOVLB  7
02E54:  MOVWF  x02
02E56:  MOVLB  2
02E58:  RLCF   xEB,W
02E5A:  MOVLB  7
02E5C:  MOVWF  x03
02E5E:  RLCF   x02,F
02E60:  RLCF   x03,F
02E62:  RLCF   x02,F
02E64:  RLCF   x03,F
02E66:  MOVLW  F8
02E68:  ANDWF  x02,F
02E6A:  MOVLW  3A
02E6C:  ADDWF  x02,W
02E6E:  MOVWF  FE9
02E70:  MOVLW  06
02E72:  ADDWFC x03,W
02E74:  MOVWF  FEA
02E76:  MOVLB  2
02E78:  RLCF   xEA,W
02E7A:  MOVWF  02
02E7C:  RLCF   xEB,W
02E7E:  MOVWF  03
02E80:  RLCF   02,F
02E82:  RLCF   03,F
02E84:  RLCF   02,F
02E86:  RLCF   03,F
02E88:  MOVLW  F8
02E8A:  ANDWF  02,F
02E8C:  MOVF   02,W
02E8E:  ADDLW  64
02E90:  MOVLB  7
02E92:  MOVWF  x04
02E94:  MOVLW  00
02E96:  ADDWFC 03,W
02E98:  MOVWF  x05
02E9A:  MOVFF  FF2,706
02E9E:  BCF    FF2.6
02EA0:  BCF    FF2.7
02EA2:  MOVFF  705,FAA
02EA6:  MOVFF  704,FA9
02EAA:  BCF    FA6.6
02EAC:  BCF    FA6.7
02EAE:  BSF    FA6.0
02EB0:  MOVF   FA8,W
02EB2:  BTFSC  x06.6
02EB4:  BSF    FF2.6
02EB6:  BTFSC  x06.7
02EB8:  BSF    FF2.7
02EBA:  MOVWF  FEF
....................       CiclosPersonalizados[i].Minutoest=read_eeprom(101+(i*8));  
02EBC:  MOVLB  2
02EBE:  RLCF   xEA,W
02EC0:  MOVLB  7
02EC2:  MOVWF  x02
02EC4:  MOVLB  2
02EC6:  RLCF   xEB,W
02EC8:  MOVLB  7
02ECA:  MOVWF  x03
02ECC:  RLCF   x02,F
02ECE:  RLCF   x03,F
02ED0:  RLCF   x02,F
02ED2:  RLCF   x03,F
02ED4:  MOVLW  F8
02ED6:  ANDWF  x02,F
02ED8:  MOVLW  01
02EDA:  ADDWF  x02,W
02EDC:  MOVWF  01
02EDE:  MOVLW  00
02EE0:  ADDWFC x03,W
02EE2:  MOVWF  03
02EE4:  MOVF   01,W
02EE6:  ADDLW  3A
02EE8:  MOVWF  FE9
02EEA:  MOVLW  06
02EEC:  ADDWFC 03,W
02EEE:  MOVWF  FEA
02EF0:  MOVLB  2
02EF2:  RLCF   xEA,W
02EF4:  MOVWF  02
02EF6:  RLCF   xEB,W
02EF8:  MOVWF  03
02EFA:  RLCF   02,F
02EFC:  RLCF   03,F
02EFE:  RLCF   02,F
02F00:  RLCF   03,F
02F02:  MOVLW  F8
02F04:  ANDWF  02,F
02F06:  MOVF   02,W
02F08:  ADDLW  65
02F0A:  MOVLB  7
02F0C:  MOVWF  x04
02F0E:  MOVLW  00
02F10:  ADDWFC 03,W
02F12:  MOVWF  x05
02F14:  MOVFF  FF2,706
02F18:  BCF    FF2.6
02F1A:  BCF    FF2.7
02F1C:  MOVFF  705,FAA
02F20:  MOVFF  704,FA9
02F24:  BCF    FA6.6
02F26:  BCF    FA6.7
02F28:  BSF    FA6.0
02F2A:  MOVF   FA8,W
02F2C:  BTFSC  x06.6
02F2E:  BSF    FF2.6
02F30:  BTFSC  x06.7
02F32:  BSF    FF2.7
02F34:  MOVWF  FEF
....................       CiclosPersonalizados[i].Segundoest=read_eeprom(102+(i*8));  
02F36:  MOVLB  2
02F38:  RLCF   xEA,W
02F3A:  MOVLB  7
02F3C:  MOVWF  x02
02F3E:  MOVLB  2
02F40:  RLCF   xEB,W
02F42:  MOVLB  7
02F44:  MOVWF  x03
02F46:  RLCF   x02,F
02F48:  RLCF   x03,F
02F4A:  RLCF   x02,F
02F4C:  RLCF   x03,F
02F4E:  MOVLW  F8
02F50:  ANDWF  x02,F
02F52:  MOVLW  02
02F54:  ADDWF  x02,W
02F56:  MOVWF  01
02F58:  MOVLW  00
02F5A:  ADDWFC x03,W
02F5C:  MOVWF  03
02F5E:  MOVF   01,W
02F60:  ADDLW  3A
02F62:  MOVWF  FE9
02F64:  MOVLW  06
02F66:  ADDWFC 03,W
02F68:  MOVWF  FEA
02F6A:  MOVLB  2
02F6C:  RLCF   xEA,W
02F6E:  MOVWF  02
02F70:  RLCF   xEB,W
02F72:  MOVWF  03
02F74:  RLCF   02,F
02F76:  RLCF   03,F
02F78:  RLCF   02,F
02F7A:  RLCF   03,F
02F7C:  MOVLW  F8
02F7E:  ANDWF  02,F
02F80:  MOVF   02,W
02F82:  ADDLW  66
02F84:  MOVLB  7
02F86:  MOVWF  x04
02F88:  MOVLW  00
02F8A:  ADDWFC 03,W
02F8C:  MOVWF  x05
02F8E:  MOVFF  FF2,706
02F92:  BCF    FF2.6
02F94:  BCF    FF2.7
02F96:  MOVFF  705,FAA
02F9A:  MOVFF  704,FA9
02F9E:  BCF    FA6.6
02FA0:  BCF    FA6.7
02FA2:  BSF    FA6.0
02FA4:  MOVF   FA8,W
02FA6:  BTFSC  x06.6
02FA8:  BSF    FF2.6
02FAA:  BTFSC  x06.7
02FAC:  BSF    FF2.7
02FAE:  MOVWF  FEF
....................       CiclosPersonalizados[i].Minutosec=read_eeprom(103+(i*8));  
02FB0:  MOVLB  2
02FB2:  RLCF   xEA,W
02FB4:  MOVLB  7
02FB6:  MOVWF  x02
02FB8:  MOVLB  2
02FBA:  RLCF   xEB,W
02FBC:  MOVLB  7
02FBE:  MOVWF  x03
02FC0:  RLCF   x02,F
02FC2:  RLCF   x03,F
02FC4:  RLCF   x02,F
02FC6:  RLCF   x03,F
02FC8:  MOVLW  F8
02FCA:  ANDWF  x02,F
02FCC:  MOVLW  03
02FCE:  ADDWF  x02,W
02FD0:  MOVWF  01
02FD2:  MOVLW  00
02FD4:  ADDWFC x03,W
02FD6:  MOVWF  03
02FD8:  MOVF   01,W
02FDA:  ADDLW  3A
02FDC:  MOVWF  FE9
02FDE:  MOVLW  06
02FE0:  ADDWFC 03,W
02FE2:  MOVWF  FEA
02FE4:  MOVLB  2
02FE6:  RLCF   xEA,W
02FE8:  MOVWF  02
02FEA:  RLCF   xEB,W
02FEC:  MOVWF  03
02FEE:  RLCF   02,F
02FF0:  RLCF   03,F
02FF2:  RLCF   02,F
02FF4:  RLCF   03,F
02FF6:  MOVLW  F8
02FF8:  ANDWF  02,F
02FFA:  MOVF   02,W
02FFC:  ADDLW  67
02FFE:  MOVLB  7
03000:  MOVWF  x04
03002:  MOVLW  00
03004:  ADDWFC 03,W
03006:  MOVWF  x05
03008:  MOVFF  FF2,706
0300C:  BCF    FF2.6
0300E:  BCF    FF2.7
03010:  MOVFF  705,FAA
03014:  MOVFF  704,FA9
03018:  BCF    FA6.6
0301A:  BCF    FA6.7
0301C:  BSF    FA6.0
0301E:  MOVF   FA8,W
03020:  BTFSC  x06.6
03022:  BSF    FF2.6
03024:  BTFSC  x06.7
03026:  BSF    FF2.7
03028:  MOVWF  FEF
....................       CiclosPersonalizados[i].Segundosec=read_eeprom(104+(i*8));  
0302A:  MOVLB  2
0302C:  RLCF   xEA,W
0302E:  MOVLB  7
03030:  MOVWF  x02
03032:  MOVLB  2
03034:  RLCF   xEB,W
03036:  MOVLB  7
03038:  MOVWF  x03
0303A:  RLCF   x02,F
0303C:  RLCF   x03,F
0303E:  RLCF   x02,F
03040:  RLCF   x03,F
03042:  MOVLW  F8
03044:  ANDWF  x02,F
03046:  MOVLW  04
03048:  ADDWF  x02,W
0304A:  MOVWF  01
0304C:  MOVLW  00
0304E:  ADDWFC x03,W
03050:  MOVWF  03
03052:  MOVF   01,W
03054:  ADDLW  3A
03056:  MOVWF  FE9
03058:  MOVLW  06
0305A:  ADDWFC 03,W
0305C:  MOVWF  FEA
0305E:  MOVLB  2
03060:  RLCF   xEA,W
03062:  MOVWF  02
03064:  RLCF   xEB,W
03066:  MOVWF  03
03068:  RLCF   02,F
0306A:  RLCF   03,F
0306C:  RLCF   02,F
0306E:  RLCF   03,F
03070:  MOVLW  F8
03072:  ANDWF  02,F
03074:  MOVF   02,W
03076:  ADDLW  68
03078:  MOVLB  7
0307A:  MOVWF  x04
0307C:  MOVLW  00
0307E:  ADDWFC 03,W
03080:  MOVWF  x05
03082:  MOVFF  FF2,706
03086:  BCF    FF2.6
03088:  BCF    FF2.7
0308A:  MOVFF  705,FAA
0308E:  MOVFF  704,FA9
03092:  BCF    FA6.6
03094:  BCF    FA6.7
03096:  BSF    FA6.0
03098:  MOVF   FA8,W
0309A:  BTFSC  x06.6
0309C:  BSF    FF2.6
0309E:  BTFSC  x06.7
030A0:  BSF    FF2.7
030A2:  MOVWF  FEF
....................       CiclosPersonalizados[i].PulsosVacio=read_eeprom(105+(i*8));  
030A4:  MOVLB  2
030A6:  RLCF   xEA,W
030A8:  MOVLB  7
030AA:  MOVWF  x02
030AC:  MOVLB  2
030AE:  RLCF   xEB,W
030B0:  MOVLB  7
030B2:  MOVWF  x03
030B4:  RLCF   x02,F
030B6:  RLCF   x03,F
030B8:  RLCF   x02,F
030BA:  RLCF   x03,F
030BC:  MOVLW  F8
030BE:  ANDWF  x02,F
030C0:  MOVLW  05
030C2:  ADDWF  x02,W
030C4:  MOVWF  01
030C6:  MOVLW  00
030C8:  ADDWFC x03,W
030CA:  MOVWF  03
030CC:  MOVF   01,W
030CE:  ADDLW  3A
030D0:  MOVWF  FE9
030D2:  MOVLW  06
030D4:  ADDWFC 03,W
030D6:  MOVWF  FEA
030D8:  MOVLB  2
030DA:  RLCF   xEA,W
030DC:  MOVWF  02
030DE:  RLCF   xEB,W
030E0:  MOVWF  03
030E2:  RLCF   02,F
030E4:  RLCF   03,F
030E6:  RLCF   02,F
030E8:  RLCF   03,F
030EA:  MOVLW  F8
030EC:  ANDWF  02,F
030EE:  MOVF   02,W
030F0:  ADDLW  69
030F2:  MOVLB  7
030F4:  MOVWF  x04
030F6:  MOVLW  00
030F8:  ADDWFC 03,W
030FA:  MOVWF  x05
030FC:  MOVFF  FF2,706
03100:  BCF    FF2.6
03102:  BCF    FF2.7
03104:  MOVFF  705,FAA
03108:  MOVFF  704,FA9
0310C:  BCF    FA6.6
0310E:  BCF    FA6.7
03110:  BSF    FA6.0
03112:  MOVF   FA8,W
03114:  BTFSC  x06.6
03116:  BSF    FF2.6
03118:  BTFSC  x06.7
0311A:  BSF    FF2.7
0311C:  MOVWF  FEF
....................       CiclosPersonalizados[i].NivelVacio=read_eeprom(106+(i*8));  
0311E:  MOVLB  2
03120:  RLCF   xEA,W
03122:  MOVLB  7
03124:  MOVWF  x02
03126:  MOVLB  2
03128:  RLCF   xEB,W
0312A:  MOVLB  7
0312C:  MOVWF  x03
0312E:  RLCF   x02,F
03130:  RLCF   x03,F
03132:  RLCF   x02,F
03134:  RLCF   x03,F
03136:  MOVLW  F8
03138:  ANDWF  x02,F
0313A:  MOVLW  06
0313C:  ADDWF  x02,W
0313E:  MOVWF  01
03140:  MOVLW  00
03142:  ADDWFC x03,W
03144:  MOVWF  03
03146:  MOVF   01,W
03148:  ADDLW  3A
0314A:  MOVWF  FE9
0314C:  MOVLW  06
0314E:  ADDWFC 03,W
03150:  MOVWF  FEA
03152:  MOVLB  2
03154:  RLCF   xEA,W
03156:  MOVWF  02
03158:  RLCF   xEB,W
0315A:  MOVWF  03
0315C:  RLCF   02,F
0315E:  RLCF   03,F
03160:  RLCF   02,F
03162:  RLCF   03,F
03164:  MOVLW  F8
03166:  ANDWF  02,F
03168:  MOVF   02,W
0316A:  ADDLW  6A
0316C:  MOVLB  7
0316E:  MOVWF  x04
03170:  MOVLW  00
03172:  ADDWFC 03,W
03174:  MOVWF  x05
03176:  MOVFF  FF2,706
0317A:  BCF    FF2.6
0317C:  BCF    FF2.7
0317E:  MOVFF  705,FAA
03182:  MOVFF  704,FA9
03186:  BCF    FA6.6
03188:  BCF    FA6.7
0318A:  BSF    FA6.0
0318C:  MOVF   FA8,W
0318E:  BTFSC  x06.6
03190:  BSF    FF2.6
03192:  BTFSC  x06.7
03194:  BSF    FF2.7
03196:  MOVWF  FEF
....................       CiclosPersonalizados[i].NivelDesfogue=read_eeprom(107+(i*8));  
03198:  MOVLB  2
0319A:  RLCF   xEA,W
0319C:  MOVLB  7
0319E:  MOVWF  x02
031A0:  MOVLB  2
031A2:  RLCF   xEB,W
031A4:  MOVLB  7
031A6:  MOVWF  x03
031A8:  RLCF   x02,F
031AA:  RLCF   x03,F
031AC:  RLCF   x02,F
031AE:  RLCF   x03,F
031B0:  MOVLW  F8
031B2:  ANDWF  x02,F
031B4:  MOVLW  07
031B6:  ADDWF  x02,W
031B8:  MOVWF  01
031BA:  MOVLW  00
031BC:  ADDWFC x03,W
031BE:  MOVWF  03
031C0:  MOVF   01,W
031C2:  ADDLW  3A
031C4:  MOVWF  FE9
031C6:  MOVLW  06
031C8:  ADDWFC 03,W
031CA:  MOVWF  FEA
031CC:  MOVLB  2
031CE:  RLCF   xEA,W
031D0:  MOVWF  02
031D2:  RLCF   xEB,W
031D4:  MOVWF  03
031D6:  RLCF   02,F
031D8:  RLCF   03,F
031DA:  RLCF   02,F
031DC:  RLCF   03,F
031DE:  MOVLW  F8
031E0:  ANDWF  02,F
031E2:  MOVF   02,W
031E4:  ADDLW  6B
031E6:  MOVLB  7
031E8:  MOVWF  x04
031EA:  MOVLW  00
031EC:  ADDWFC 03,W
031EE:  MOVWF  x05
031F0:  MOVFF  FF2,706
031F4:  BCF    FF2.6
031F6:  BCF    FF2.7
031F8:  MOVFF  705,FAA
031FC:  MOVFF  704,FA9
03200:  BCF    FA6.6
03202:  BCF    FA6.7
03204:  BSF    FA6.0
03206:  MOVF   FA8,W
03208:  BTFSC  x06.6
0320A:  BSF    FF2.6
0320C:  BTFSC  x06.7
0320E:  BSF    FF2.7
03210:  MOVWF  FEF
....................        
....................       if(CiclosPersonalizados[i].Temperatura>138 || CiclosPersonalizados[i].Temperatura<110) 
03212:  MOVLB  2
03214:  RLCF   xEA,W
03216:  MOVLB  7
03218:  MOVWF  x02
0321A:  MOVLB  2
0321C:  RLCF   xEB,W
0321E:  MOVLB  7
03220:  MOVWF  x03
03222:  RLCF   x02,F
03224:  RLCF   x03,F
03226:  RLCF   x02,F
03228:  RLCF   x03,F
0322A:  MOVLW  F8
0322C:  ANDWF  x02,F
0322E:  MOVLW  3A
03230:  ADDWF  x02,W
03232:  MOVWF  FE9
03234:  MOVLW  06
03236:  ADDWFC x03,W
03238:  MOVWF  FEA
0323A:  MOVF   FEF,W
0323C:  SUBLW  8A
0323E:  BNC   326E
03240:  MOVLB  2
03242:  RLCF   xEA,W
03244:  MOVLB  7
03246:  MOVWF  x02
03248:  MOVLB  2
0324A:  RLCF   xEB,W
0324C:  MOVLB  7
0324E:  MOVWF  x03
03250:  RLCF   x02,F
03252:  RLCF   x03,F
03254:  RLCF   x02,F
03256:  RLCF   x03,F
03258:  MOVLW  F8
0325A:  ANDWF  x02,F
0325C:  MOVLW  3A
0325E:  ADDWF  x02,W
03260:  MOVWF  FE9
03262:  MOVLW  06
03264:  ADDWFC x03,W
03266:  MOVWF  FEA
03268:  MOVF   FEF,W
0326A:  SUBLW  6D
0326C:  BNC   329A
....................          CiclosPersonalizados[i].Temperatura=121; 
0326E:  MOVLB  2
03270:  RLCF   xEA,W
03272:  MOVLB  7
03274:  MOVWF  x02
03276:  MOVLB  2
03278:  RLCF   xEB,W
0327A:  MOVLB  7
0327C:  MOVWF  x03
0327E:  RLCF   x02,F
03280:  RLCF   x03,F
03282:  RLCF   x02,F
03284:  RLCF   x03,F
03286:  MOVLW  F8
03288:  ANDWF  x02,F
0328A:  MOVLW  3A
0328C:  ADDWF  x02,W
0328E:  MOVWF  FE9
03290:  MOVLW  06
03292:  ADDWFC x03,W
03294:  MOVWF  FEA
03296:  MOVLW  79
03298:  MOVWF  FEF
....................       if(CiclosPersonalizados[i].Minutoest>99 || CiclosPersonalizados[i].Minutoest<1) 
0329A:  MOVLB  2
0329C:  RLCF   xEA,W
0329E:  MOVLB  7
032A0:  MOVWF  x02
032A2:  MOVLB  2
032A4:  RLCF   xEB,W
032A6:  MOVLB  7
032A8:  MOVWF  x03
032AA:  RLCF   x02,F
032AC:  RLCF   x03,F
032AE:  RLCF   x02,F
032B0:  RLCF   x03,F
032B2:  MOVLW  F8
032B4:  ANDWF  x02,F
032B6:  MOVLW  01
032B8:  ADDWF  x02,W
032BA:  MOVWF  01
032BC:  MOVLW  00
032BE:  ADDWFC x03,W
032C0:  MOVWF  03
032C2:  MOVF   01,W
032C4:  ADDLW  3A
032C6:  MOVWF  FE9
032C8:  MOVLW  06
032CA:  ADDWFC 03,W
032CC:  MOVWF  FEA
032CE:  MOVF   FEF,W
032D0:  SUBLW  63
032D2:  BNC   330C
032D4:  MOVLB  2
032D6:  RLCF   xEA,W
032D8:  MOVLB  7
032DA:  MOVWF  x02
032DC:  MOVLB  2
032DE:  RLCF   xEB,W
032E0:  MOVLB  7
032E2:  MOVWF  x03
032E4:  RLCF   x02,F
032E6:  RLCF   x03,F
032E8:  RLCF   x02,F
032EA:  RLCF   x03,F
032EC:  MOVLW  F8
032EE:  ANDWF  x02,F
032F0:  MOVLW  01
032F2:  ADDWF  x02,W
032F4:  MOVWF  01
032F6:  MOVLW  00
032F8:  ADDWFC x03,W
032FA:  MOVWF  03
032FC:  MOVF   01,W
032FE:  ADDLW  3A
03300:  MOVWF  FE9
03302:  MOVLW  06
03304:  ADDWFC 03,W
03306:  MOVWF  FEA
03308:  MOVF   FEF,F
0330A:  BNZ   3344
....................          CiclosPersonalizados[i].Minutoest=3; 
0330C:  MOVLB  2
0330E:  RLCF   xEA,W
03310:  MOVLB  7
03312:  MOVWF  x02
03314:  MOVLB  2
03316:  RLCF   xEB,W
03318:  MOVLB  7
0331A:  MOVWF  x03
0331C:  RLCF   x02,F
0331E:  RLCF   x03,F
03320:  RLCF   x02,F
03322:  RLCF   x03,F
03324:  MOVLW  F8
03326:  ANDWF  x02,F
03328:  MOVLW  01
0332A:  ADDWF  x02,W
0332C:  MOVWF  01
0332E:  MOVLW  00
03330:  ADDWFC x03,W
03332:  MOVWF  03
03334:  MOVF   01,W
03336:  ADDLW  3A
03338:  MOVWF  FE9
0333A:  MOVLW  06
0333C:  ADDWFC 03,W
0333E:  MOVWF  FEA
03340:  MOVLW  03
03342:  MOVWF  FEF
....................       if(CiclosPersonalizados[i].Minutosec>99 || CiclosPersonalizados[i].Minutosec<1) 
03344:  MOVLB  2
03346:  RLCF   xEA,W
03348:  MOVLB  7
0334A:  MOVWF  x02
0334C:  MOVLB  2
0334E:  RLCF   xEB,W
03350:  MOVLB  7
03352:  MOVWF  x03
03354:  RLCF   x02,F
03356:  RLCF   x03,F
03358:  RLCF   x02,F
0335A:  RLCF   x03,F
0335C:  MOVLW  F8
0335E:  ANDWF  x02,F
03360:  MOVLW  03
03362:  ADDWF  x02,W
03364:  MOVWF  01
03366:  MOVLW  00
03368:  ADDWFC x03,W
0336A:  MOVWF  03
0336C:  MOVF   01,W
0336E:  ADDLW  3A
03370:  MOVWF  FE9
03372:  MOVLW  06
03374:  ADDWFC 03,W
03376:  MOVWF  FEA
03378:  MOVF   FEF,W
0337A:  SUBLW  63
0337C:  BNC   33B6
0337E:  MOVLB  2
03380:  RLCF   xEA,W
03382:  MOVLB  7
03384:  MOVWF  x02
03386:  MOVLB  2
03388:  RLCF   xEB,W
0338A:  MOVLB  7
0338C:  MOVWF  x03
0338E:  RLCF   x02,F
03390:  RLCF   x03,F
03392:  RLCF   x02,F
03394:  RLCF   x03,F
03396:  MOVLW  F8
03398:  ANDWF  x02,F
0339A:  MOVLW  03
0339C:  ADDWF  x02,W
0339E:  MOVWF  01
033A0:  MOVLW  00
033A2:  ADDWFC x03,W
033A4:  MOVWF  03
033A6:  MOVF   01,W
033A8:  ADDLW  3A
033AA:  MOVWF  FE9
033AC:  MOVLW  06
033AE:  ADDWFC 03,W
033B0:  MOVWF  FEA
033B2:  MOVF   FEF,F
033B4:  BNZ   33EE
....................          CiclosPersonalizados[i].Minutosec=1;    
033B6:  MOVLB  2
033B8:  RLCF   xEA,W
033BA:  MOVLB  7
033BC:  MOVWF  x02
033BE:  MOVLB  2
033C0:  RLCF   xEB,W
033C2:  MOVLB  7
033C4:  MOVWF  x03
033C6:  RLCF   x02,F
033C8:  RLCF   x03,F
033CA:  RLCF   x02,F
033CC:  RLCF   x03,F
033CE:  MOVLW  F8
033D0:  ANDWF  x02,F
033D2:  MOVLW  03
033D4:  ADDWF  x02,W
033D6:  MOVWF  01
033D8:  MOVLW  00
033DA:  ADDWFC x03,W
033DC:  MOVWF  03
033DE:  MOVF   01,W
033E0:  ADDLW  3A
033E2:  MOVWF  FE9
033E4:  MOVLW  06
033E6:  ADDWFC 03,W
033E8:  MOVWF  FEA
033EA:  MOVLW  01
033EC:  MOVWF  FEF
....................       if(CiclosPersonalizados[i].Segundoest>59) 
033EE:  MOVLB  2
033F0:  RLCF   xEA,W
033F2:  MOVLB  7
033F4:  MOVWF  x02
033F6:  MOVLB  2
033F8:  RLCF   xEB,W
033FA:  MOVLB  7
033FC:  MOVWF  x03
033FE:  RLCF   x02,F
03400:  RLCF   x03,F
03402:  RLCF   x02,F
03404:  RLCF   x03,F
03406:  MOVLW  F8
03408:  ANDWF  x02,F
0340A:  MOVLW  02
0340C:  ADDWF  x02,W
0340E:  MOVWF  01
03410:  MOVLW  00
03412:  ADDWFC x03,W
03414:  MOVWF  03
03416:  MOVF   01,W
03418:  ADDLW  3A
0341A:  MOVWF  FE9
0341C:  MOVLW  06
0341E:  ADDWFC 03,W
03420:  MOVWF  FEA
03422:  MOVF   FEF,W
03424:  SUBLW  3B
03426:  BC    345E
....................          CiclosPersonalizados[i].Segundoest=0; 
03428:  MOVLB  2
0342A:  RLCF   xEA,W
0342C:  MOVLB  7
0342E:  MOVWF  x02
03430:  MOVLB  2
03432:  RLCF   xEB,W
03434:  MOVLB  7
03436:  MOVWF  x03
03438:  RLCF   x02,F
0343A:  RLCF   x03,F
0343C:  RLCF   x02,F
0343E:  RLCF   x03,F
03440:  MOVLW  F8
03442:  ANDWF  x02,F
03444:  MOVLW  02
03446:  ADDWF  x02,W
03448:  MOVWF  01
0344A:  MOVLW  00
0344C:  ADDWFC x03,W
0344E:  MOVWF  03
03450:  MOVF   01,W
03452:  ADDLW  3A
03454:  MOVWF  FE9
03456:  MOVLW  06
03458:  ADDWFC 03,W
0345A:  MOVWF  FEA
0345C:  CLRF   FEF
....................       if(CiclosPersonalizados[i].Segundosec>59) 
0345E:  MOVLB  2
03460:  RLCF   xEA,W
03462:  MOVLB  7
03464:  MOVWF  x02
03466:  MOVLB  2
03468:  RLCF   xEB,W
0346A:  MOVLB  7
0346C:  MOVWF  x03
0346E:  RLCF   x02,F
03470:  RLCF   x03,F
03472:  RLCF   x02,F
03474:  RLCF   x03,F
03476:  MOVLW  F8
03478:  ANDWF  x02,F
0347A:  MOVLW  04
0347C:  ADDWF  x02,W
0347E:  MOVWF  01
03480:  MOVLW  00
03482:  ADDWFC x03,W
03484:  MOVWF  03
03486:  MOVF   01,W
03488:  ADDLW  3A
0348A:  MOVWF  FE9
0348C:  MOVLW  06
0348E:  ADDWFC 03,W
03490:  MOVWF  FEA
03492:  MOVF   FEF,W
03494:  SUBLW  3B
03496:  BC    34CE
....................          CiclosPersonalizados[i].Segundosec=0;       
03498:  MOVLB  2
0349A:  RLCF   xEA,W
0349C:  MOVLB  7
0349E:  MOVWF  x02
034A0:  MOVLB  2
034A2:  RLCF   xEB,W
034A4:  MOVLB  7
034A6:  MOVWF  x03
034A8:  RLCF   x02,F
034AA:  RLCF   x03,F
034AC:  RLCF   x02,F
034AE:  RLCF   x03,F
034B0:  MOVLW  F8
034B2:  ANDWF  x02,F
034B4:  MOVLW  04
034B6:  ADDWF  x02,W
034B8:  MOVWF  01
034BA:  MOVLW  00
034BC:  ADDWFC x03,W
034BE:  MOVWF  03
034C0:  MOVF   01,W
034C2:  ADDLW  3A
034C4:  MOVWF  FE9
034C6:  MOVLW  06
034C8:  ADDWFC 03,W
034CA:  MOVWF  FEA
034CC:  CLRF   FEF
....................       if(CiclosPersonalizados[i].PulsosVacio>15) 
034CE:  MOVLB  2
034D0:  RLCF   xEA,W
034D2:  MOVLB  7
034D4:  MOVWF  x02
034D6:  MOVLB  2
034D8:  RLCF   xEB,W
034DA:  MOVLB  7
034DC:  MOVWF  x03
034DE:  RLCF   x02,F
034E0:  RLCF   x03,F
034E2:  RLCF   x02,F
034E4:  RLCF   x03,F
034E6:  MOVLW  F8
034E8:  ANDWF  x02,F
034EA:  MOVLW  05
034EC:  ADDWF  x02,W
034EE:  MOVWF  01
034F0:  MOVLW  00
034F2:  ADDWFC x03,W
034F4:  MOVWF  03
034F6:  MOVF   01,W
034F8:  ADDLW  3A
034FA:  MOVWF  FE9
034FC:  MOVLW  06
034FE:  ADDWFC 03,W
03500:  MOVWF  FEA
03502:  MOVF   FEF,W
03504:  SUBLW  0F
03506:  BC    3540
....................          CiclosPersonalizados[i].PulsosVacio=4; 
03508:  MOVLB  2
0350A:  RLCF   xEA,W
0350C:  MOVLB  7
0350E:  MOVWF  x02
03510:  MOVLB  2
03512:  RLCF   xEB,W
03514:  MOVLB  7
03516:  MOVWF  x03
03518:  RLCF   x02,F
0351A:  RLCF   x03,F
0351C:  RLCF   x02,F
0351E:  RLCF   x03,F
03520:  MOVLW  F8
03522:  ANDWF  x02,F
03524:  MOVLW  05
03526:  ADDWF  x02,W
03528:  MOVWF  01
0352A:  MOVLW  00
0352C:  ADDWFC x03,W
0352E:  MOVWF  03
03530:  MOVF   01,W
03532:  ADDLW  3A
03534:  MOVWF  FE9
03536:  MOVLW  06
03538:  ADDWFC 03,W
0353A:  MOVWF  FEA
0353C:  MOVLW  04
0353E:  MOVWF  FEF
....................       if(CiclosPersonalizados[i].NivelVacio>100 || CiclosPersonalizados[i].NivelVacio<10) 
03540:  MOVLB  2
03542:  RLCF   xEA,W
03544:  MOVLB  7
03546:  MOVWF  x02
03548:  MOVLB  2
0354A:  RLCF   xEB,W
0354C:  MOVLB  7
0354E:  MOVWF  x03
03550:  RLCF   x02,F
03552:  RLCF   x03,F
03554:  RLCF   x02,F
03556:  RLCF   x03,F
03558:  MOVLW  F8
0355A:  ANDWF  x02,F
0355C:  MOVLW  06
0355E:  ADDWF  x02,W
03560:  MOVWF  01
03562:  MOVLW  00
03564:  ADDWFC x03,W
03566:  MOVWF  03
03568:  MOVF   01,W
0356A:  ADDLW  3A
0356C:  MOVWF  FE9
0356E:  MOVLW  06
03570:  ADDWFC 03,W
03572:  MOVWF  FEA
03574:  MOVF   FEF,W
03576:  SUBLW  64
03578:  BNC   35B4
0357A:  MOVLB  2
0357C:  RLCF   xEA,W
0357E:  MOVLB  7
03580:  MOVWF  x02
03582:  MOVLB  2
03584:  RLCF   xEB,W
03586:  MOVLB  7
03588:  MOVWF  x03
0358A:  RLCF   x02,F
0358C:  RLCF   x03,F
0358E:  RLCF   x02,F
03590:  RLCF   x03,F
03592:  MOVLW  F8
03594:  ANDWF  x02,F
03596:  MOVLW  06
03598:  ADDWF  x02,W
0359A:  MOVWF  01
0359C:  MOVLW  00
0359E:  ADDWFC x03,W
035A0:  MOVWF  03
035A2:  MOVF   01,W
035A4:  ADDLW  3A
035A6:  MOVWF  FE9
035A8:  MOVLW  06
035AA:  ADDWFC 03,W
035AC:  MOVWF  FEA
035AE:  MOVF   FEF,W
035B0:  SUBLW  09
035B2:  BNC   35EC
....................          CiclosPersonalizados[i].NivelVacio=25;    
035B4:  MOVLB  2
035B6:  RLCF   xEA,W
035B8:  MOVLB  7
035BA:  MOVWF  x02
035BC:  MOVLB  2
035BE:  RLCF   xEB,W
035C0:  MOVLB  7
035C2:  MOVWF  x03
035C4:  RLCF   x02,F
035C6:  RLCF   x03,F
035C8:  RLCF   x02,F
035CA:  RLCF   x03,F
035CC:  MOVLW  F8
035CE:  ANDWF  x02,F
035D0:  MOVLW  06
035D2:  ADDWF  x02,W
035D4:  MOVWF  01
035D6:  MOVLW  00
035D8:  ADDWFC x03,W
035DA:  MOVWF  03
035DC:  MOVF   01,W
035DE:  ADDLW  3A
035E0:  MOVWF  FE9
035E2:  MOVLW  06
035E4:  ADDWFC 03,W
035E6:  MOVWF  FEA
035E8:  MOVLW  19
035EA:  MOVWF  FEF
....................       if(CiclosPersonalizados[i].NivelDesfogue>6) 
035EC:  MOVLB  2
035EE:  RLCF   xEA,W
035F0:  MOVLB  7
035F2:  MOVWF  x02
035F4:  MOVLB  2
035F6:  RLCF   xEB,W
035F8:  MOVLB  7
035FA:  MOVWF  x03
035FC:  RLCF   x02,F
035FE:  RLCF   x03,F
03600:  RLCF   x02,F
03602:  RLCF   x03,F
03604:  MOVLW  F8
03606:  ANDWF  x02,F
03608:  MOVLW  07
0360A:  ADDWF  x02,W
0360C:  MOVWF  01
0360E:  MOVLW  00
03610:  ADDWFC x03,W
03612:  MOVWF  03
03614:  MOVF   01,W
03616:  ADDLW  3A
03618:  MOVWF  FE9
0361A:  MOVLW  06
0361C:  ADDWFC 03,W
0361E:  MOVWF  FEA
03620:  MOVF   FEF,W
03622:  SUBLW  06
03624:  BC    365E
....................          CiclosPersonalizados[i].NivelDesfogue=6; 
03626:  MOVLB  2
03628:  RLCF   xEA,W
0362A:  MOVLB  7
0362C:  MOVWF  x02
0362E:  MOVLB  2
03630:  RLCF   xEB,W
03632:  MOVLB  7
03634:  MOVWF  x03
03636:  RLCF   x02,F
03638:  RLCF   x03,F
0363A:  RLCF   x02,F
0363C:  RLCF   x03,F
0363E:  MOVLW  F8
03640:  ANDWF  x02,F
03642:  MOVLW  07
03644:  ADDWF  x02,W
03646:  MOVWF  01
03648:  MOVLW  00
0364A:  ADDWFC x03,W
0364C:  MOVWF  03
0364E:  MOVF   01,W
03650:  ADDLW  3A
03652:  MOVWF  FE9
03654:  MOVLW  06
03656:  ADDWFC 03,W
03658:  MOVWF  FEA
0365A:  MOVLW  06
0365C:  MOVWF  FEF
....................    } 
0365E:  MOVLB  2
03660:  INCF   xEA,F
03662:  BTFSC  FD8.2
03664:  INCF   xEB,F
03666:  GOTO   2E3E
....................     
....................    for(i=0;i<10;i++){//Lee contraseas de usuarios 
0366A:  CLRF   xEB
0366C:  CLRF   xEA
0366E:  MOVF   xEB,F
03670:  BTFSS  FD8.2
03672:  BRA    37A0
03674:  MOVF   xEA,W
03676:  SUBLW  09
03678:  BTFSS  FD8.0
0367A:  BRA    37A0
....................       for(j=0;j<4;j++){ 
0367C:  CLRF   xE9
0367E:  CLRF   xE8
03680:  MOVF   xE9,F
03682:  BTFSS  FD8.2
03684:  BRA    3798
03686:  MOVF   xE8,W
03688:  SUBLW  03
0368A:  BTFSS  FD8.0
0368C:  BRA    3798
....................          Clave[i].Password[j]=read_eeprom((300+j)+(i*4)); 
0368E:  RLCF   xEA,W
03690:  MOVLB  7
03692:  MOVWF  x02
03694:  MOVLB  2
03696:  RLCF   xEB,W
03698:  MOVLB  7
0369A:  MOVWF  x03
0369C:  RLCF   x02,F
0369E:  RLCF   x03,F
036A0:  MOVLW  FC
036A2:  ANDWF  x02,F
036A4:  MOVLB  2
036A6:  MOVF   xE8,W
036A8:  MOVLB  7
036AA:  ADDWF  x02,W
036AC:  MOVWF  01
036AE:  MOVLB  2
036B0:  MOVF   xE9,W
036B2:  MOVLB  7
036B4:  ADDWFC x03,W
036B6:  MOVWF  03
036B8:  MOVF   01,W
036BA:  ADDLW  DA
036BC:  MOVWF  FE9
036BE:  MOVLW  06
036C0:  ADDWFC 03,W
036C2:  MOVWF  FEA
036C4:  MOVLW  2C
036C6:  MOVLB  2
036C8:  ADDWF  xE8,W
036CA:  MOVLB  7
036CC:  MOVWF  x04
036CE:  MOVLW  01
036D0:  MOVLB  2
036D2:  ADDWFC xE9,W
036D4:  MOVLB  7
036D6:  MOVWF  x05
036D8:  MOVLB  2
036DA:  RLCF   xEA,W
036DC:  MOVWF  02
036DE:  RLCF   xEB,W
036E0:  MOVWF  03
036E2:  RLCF   02,F
036E4:  RLCF   03,F
036E6:  MOVLW  FC
036E8:  ANDWF  02,F
036EA:  MOVF   02,W
036EC:  MOVLB  7
036EE:  ADDWF  x04,F
036F0:  MOVF   03,W
036F2:  ADDWFC x05,F
036F4:  MOVFF  FF2,706
036F8:  BCF    FF2.6
036FA:  BCF    FF2.7
036FC:  MOVFF  705,FAA
03700:  MOVFF  704,FA9
03704:  BCF    FA6.6
03706:  BCF    FA6.7
03708:  BSF    FA6.0
0370A:  MOVF   FA8,W
0370C:  BTFSC  x06.6
0370E:  BSF    FF2.6
03710:  BTFSC  x06.7
03712:  BSF    FF2.7
03714:  MOVWF  FEF
....................          if(Clave[i].Password[j]>9) 
03716:  MOVLB  2
03718:  RLCF   xEA,W
0371A:  MOVLB  7
0371C:  MOVWF  x02
0371E:  MOVLB  2
03720:  RLCF   xEB,W
03722:  MOVLB  7
03724:  MOVWF  x03
03726:  RLCF   x02,F
03728:  RLCF   x03,F
0372A:  MOVLW  FC
0372C:  ANDWF  x02,F
0372E:  MOVLB  2
03730:  MOVF   xE8,W
03732:  MOVLB  7
03734:  ADDWF  x02,W
03736:  MOVWF  01
03738:  MOVLB  2
0373A:  MOVF   xE9,W
0373C:  MOVLB  7
0373E:  ADDWFC x03,W
03740:  MOVWF  03
03742:  MOVF   01,W
03744:  ADDLW  DA
03746:  MOVWF  FE9
03748:  MOVLW  06
0374A:  ADDWFC 03,W
0374C:  MOVWF  FEA
0374E:  MOVF   FEF,W
03750:  SUBLW  09
03752:  BC    378E
....................             Clave[i].Password[j]=0; 
03754:  MOVLB  2
03756:  RLCF   xEA,W
03758:  MOVLB  7
0375A:  MOVWF  x02
0375C:  MOVLB  2
0375E:  RLCF   xEB,W
03760:  MOVLB  7
03762:  MOVWF  x03
03764:  RLCF   x02,F
03766:  RLCF   x03,F
03768:  MOVLW  FC
0376A:  ANDWF  x02,F
0376C:  MOVLB  2
0376E:  MOVF   xE8,W
03770:  MOVLB  7
03772:  ADDWF  x02,W
03774:  MOVWF  01
03776:  MOVLB  2
03778:  MOVF   xE9,W
0377A:  MOVLB  7
0377C:  ADDWFC x03,W
0377E:  MOVWF  03
03780:  MOVF   01,W
03782:  ADDLW  DA
03784:  MOVWF  FE9
03786:  MOVLW  06
03788:  ADDWFC 03,W
0378A:  MOVWF  FEA
0378C:  CLRF   FEF
....................       } 
0378E:  MOVLB  2
03790:  INCF   xE8,F
03792:  BTFSC  FD8.2
03794:  INCF   xE9,F
03796:  BRA    3680
....................    } 
03798:  INCF   xEA,F
0379A:  BTFSC  FD8.2
0379C:  INCF   xEB,F
0379E:  BRA    366E
....................     
....................    diaCiclos=read_ext_eeprom(2+(cicloVisto*320)); 
037A0:  MOVFF  2E7,71B
037A4:  MOVFF  2E6,71A
037A8:  MOVLW  01
037AA:  MOVLB  7
037AC:  MOVWF  x1D
037AE:  MOVLW  40
037B0:  MOVWF  x1C
037B2:  MOVLB  0
037B4:  CALL   23D0
037B8:  MOVFF  02,03
037BC:  MOVF   01,W
037BE:  ADDLW  02
037C0:  MOVLB  7
037C2:  MOVWF  x02
037C4:  MOVLW  00
037C6:  ADDWFC 02,W
037C8:  MOVWF  x03
037CA:  MOVWF  x08
037CC:  MOVFF  702,707
037D0:  MOVLB  0
037D2:  CALL   24D2
037D6:  MOVFF  01,369
....................    if(diaCiclos>31) 
037DA:  MOVLB  3
037DC:  MOVF   x69,W
037DE:  SUBLW  1F
037E0:  BC    37E6
....................       diaCiclos=1; 
037E2:  MOVLW  01
037E4:  MOVWF  x69
....................    mesCiclos=read_ext_eeprom(3+(cicloVisto*320)); 
037E6:  MOVFF  2E7,71B
037EA:  MOVFF  2E6,71A
037EE:  MOVLW  01
037F0:  MOVLB  7
037F2:  MOVWF  x1D
037F4:  MOVLW  40
037F6:  MOVWF  x1C
037F8:  MOVLB  0
037FA:  CALL   23D0
037FE:  MOVFF  02,03
03802:  MOVF   01,W
03804:  ADDLW  03
03806:  MOVLB  7
03808:  MOVWF  x02
0380A:  MOVLW  00
0380C:  ADDWFC 02,W
0380E:  MOVWF  x03
03810:  MOVWF  x08
03812:  MOVFF  702,707
03816:  MOVLB  0
03818:  CALL   24D2
0381C:  MOVFF  01,36A
....................    if(mesCiclos>12) 
03820:  MOVLB  3
03822:  MOVF   x6A,W
03824:  SUBLW  0C
03826:  BC    382C
....................       mesCiclos=1; 
03828:  MOVLW  01
0382A:  MOVWF  x6A
....................    yearCiclos=read_ext_eeprom(4+(cicloVisto*320)); 
0382C:  MOVFF  2E7,71B
03830:  MOVFF  2E6,71A
03834:  MOVLW  01
03836:  MOVLB  7
03838:  MOVWF  x1D
0383A:  MOVLW  40
0383C:  MOVWF  x1C
0383E:  MOVLB  0
03840:  CALL   23D0
03844:  MOVFF  02,03
03848:  MOVF   01,W
0384A:  ADDLW  04
0384C:  MOVLB  7
0384E:  MOVWF  x02
03850:  MOVLW  00
03852:  ADDWFC 02,W
03854:  MOVWF  x03
03856:  MOVWF  x08
03858:  MOVFF  702,707
0385C:  MOVLB  0
0385E:  CALL   24D2
03862:  MOVFF  01,36B
....................    if(yearCiclos>99) 
03866:  MOVLB  3
03868:  MOVF   x6B,W
0386A:  SUBLW  63
0386C:  BC    3872
....................       yearCiclos=19; 
0386E:  MOVLW  13
03870:  MOVWF  x6B
....................    cicloCiclos=read_ext_eeprom(1+(cicloVisto*320)); 
03872:  MOVFF  2E7,71B
03876:  MOVFF  2E6,71A
0387A:  MOVLW  01
0387C:  MOVLB  7
0387E:  MOVWF  x1D
03880:  MOVLW  40
03882:  MOVWF  x1C
03884:  MOVLB  0
03886:  CALL   23D0
0388A:  MOVFF  02,03
0388E:  MOVF   01,W
03890:  ADDLW  01
03892:  MOVLB  7
03894:  MOVWF  x02
03896:  MOVLW  00
03898:  ADDWFC 02,W
0389A:  MOVWF  x03
0389C:  MOVWF  x08
0389E:  MOVFF  702,707
038A2:  MOVLB  0
038A4:  CALL   24D2
038A8:  MOVFF  01,36D
....................    if(cicloCiclos>20) 
038AC:  MOVLB  3
038AE:  MOVF   x6D,W
038B0:  SUBLW  14
038B2:  BC    38B8
....................       cicloCiclos=1; 
038B4:  MOVLW  01
038B6:  MOVWF  x6D
....................    usuarioCiclos=read_ext_eeprom((cicloVisto*320)); 
038B8:  MOVFF  2E7,71B
038BC:  MOVFF  2E6,71A
038C0:  MOVLW  01
038C2:  MOVLB  7
038C4:  MOVWF  x1D
038C6:  MOVLW  40
038C8:  MOVWF  x1C
038CA:  MOVLB  0
038CC:  CALL   23D0
038D0:  MOVFF  02,703
038D4:  MOVFF  01,702
038D8:  MOVFF  02,708
038DC:  MOVFF  01,707
038E0:  CALL   24D2
038E4:  MOVFF  01,36C
....................    if(usuarioCiclos>10) 
038E8:  MOVLB  3
038EA:  MOVF   x6C,W
038EC:  SUBLW  0A
038EE:  BC    38F4
....................       usuarioCiclos=1; 
038F0:  MOVLW  01
038F2:  MOVWF  x6C
....................    for(i=0;i<7;i++){//Lee Valores para completar la Tabla 
038F4:  MOVLB  2
038F6:  CLRF   xEB
038F8:  CLRF   xEA
038FA:  MOVF   xEB,F
038FC:  BTFSS  FD8.2
038FE:  BRA    3FC6
03900:  MOVF   xEA,W
03902:  SUBLW  06
03904:  BTFSS  FD8.0
03906:  BRA    3FC6
....................       horaCiclos[i]=read_ext_eeprom((cicloVisto*320)+11+((cicloVisualizado+i)*9)); 
03908:  MOVLW  54
0390A:  ADDWF  xEA,W
0390C:  MOVWF  01
0390E:  MOVLW  03
03910:  ADDWFC xEB,W
03912:  MOVWF  03
03914:  MOVFF  01,702
03918:  MOVLB  7
0391A:  MOVWF  x03
0391C:  MOVFF  2E7,71B
03920:  MOVFF  2E6,71A
03924:  MOVLW  01
03926:  MOVWF  x1D
03928:  MOVLW  40
0392A:  MOVWF  x1C
0392C:  MOVLB  0
0392E:  CALL   23D0
03932:  MOVFF  02,705
03936:  MOVFF  01,704
0393A:  MOVLW  0B
0393C:  MOVLB  7
0393E:  ADDWF  x04,F
03940:  MOVLW  00
03942:  ADDWFC x05,F
03944:  MOVLB  2
03946:  MOVF   xEA,W
03948:  ADDWF  xE4,W
0394A:  MOVLB  7
0394C:  MOVWF  x06
0394E:  MOVLB  2
03950:  MOVF   xEB,W
03952:  ADDWFC xE5,W
03954:  MOVLB  7
03956:  MOVWF  x07
03958:  MOVWF  x1B
0395A:  MOVFF  706,71A
0395E:  CLRF   x1D
03960:  MOVLW  09
03962:  MOVWF  x1C
03964:  MOVLB  0
03966:  CALL   23D0
0396A:  MOVFF  02,03
0396E:  MOVF   01,W
03970:  MOVLB  7
03972:  ADDWF  x04,F
03974:  MOVF   02,W
03976:  ADDWFC x05,F
03978:  MOVFF  705,708
0397C:  MOVFF  704,707
03980:  MOVLB  0
03982:  CALL   24D2
03986:  MOVFF  703,FEA
0398A:  MOVFF  702,FE9
0398E:  MOVFF  01,FEF
....................       if(horaCiclos[i]>24) 
03992:  MOVLW  54
03994:  MOVLB  2
03996:  ADDWF  xEA,W
03998:  MOVWF  FE9
0399A:  MOVLW  03
0399C:  ADDWFC xEB,W
0399E:  MOVWF  FEA
039A0:  MOVF   FEF,W
039A2:  SUBLW  18
039A4:  BC    39B4
....................          horaCiclos[i]=0; 
039A6:  MOVLW  54
039A8:  ADDWF  xEA,W
039AA:  MOVWF  FE9
039AC:  MOVLW  03
039AE:  ADDWFC xEB,W
039B0:  MOVWF  FEA
039B2:  CLRF   FEF
....................       minutoCiclos[i]=read_ext_eeprom((cicloVisto*320)+12+((cicloVisualizado+i)*9)); 
039B4:  MOVLW  5B
039B6:  ADDWF  xEA,W
039B8:  MOVWF  01
039BA:  MOVLW  03
039BC:  ADDWFC xEB,W
039BE:  MOVWF  03
039C0:  MOVFF  01,702
039C4:  MOVLB  7
039C6:  MOVWF  x03
039C8:  MOVFF  2E7,71B
039CC:  MOVFF  2E6,71A
039D0:  MOVLW  01
039D2:  MOVWF  x1D
039D4:  MOVLW  40
039D6:  MOVWF  x1C
039D8:  MOVLB  0
039DA:  CALL   23D0
039DE:  MOVFF  02,705
039E2:  MOVFF  01,704
039E6:  MOVLW  0C
039E8:  MOVLB  7
039EA:  ADDWF  x04,F
039EC:  MOVLW  00
039EE:  ADDWFC x05,F
039F0:  MOVLB  2
039F2:  MOVF   xEA,W
039F4:  ADDWF  xE4,W
039F6:  MOVLB  7
039F8:  MOVWF  x06
039FA:  MOVLB  2
039FC:  MOVF   xEB,W
039FE:  ADDWFC xE5,W
03A00:  MOVLB  7
03A02:  MOVWF  x07
03A04:  MOVWF  x1B
03A06:  MOVFF  706,71A
03A0A:  CLRF   x1D
03A0C:  MOVLW  09
03A0E:  MOVWF  x1C
03A10:  MOVLB  0
03A12:  CALL   23D0
03A16:  MOVFF  02,03
03A1A:  MOVF   01,W
03A1C:  MOVLB  7
03A1E:  ADDWF  x04,F
03A20:  MOVF   02,W
03A22:  ADDWFC x05,F
03A24:  MOVFF  705,708
03A28:  MOVFF  704,707
03A2C:  MOVLB  0
03A2E:  CALL   24D2
03A32:  MOVFF  703,FEA
03A36:  MOVFF  702,FE9
03A3A:  MOVFF  01,FEF
....................       if(minutoCiclos[i]>59) 
03A3E:  MOVLW  5B
03A40:  MOVLB  2
03A42:  ADDWF  xEA,W
03A44:  MOVWF  FE9
03A46:  MOVLW  03
03A48:  ADDWFC xEB,W
03A4A:  MOVWF  FEA
03A4C:  MOVF   FEF,W
03A4E:  SUBLW  3B
03A50:  BC    3A60
....................          minutoCiclos[i]=0; 
03A52:  MOVLW  5B
03A54:  ADDWF  xEA,W
03A56:  MOVWF  FE9
03A58:  MOVLW  03
03A5A:  ADDWFC xEB,W
03A5C:  MOVWF  FEA
03A5E:  CLRF   FEF
....................       TCiclos[i]=read_ext_eeprom((cicloVisto*320)+5+((cicloVisualizado+i)*9))+inttofloat(read_ext_eeprom((cicloVisto*320)+6+((cicloVisualizado+i)*9))); 
03A60:  RLCF   xEA,W
03A62:  MOVWF  02
03A64:  RLCF   xEB,W
03A66:  MOVWF  03
03A68:  RLCF   02,F
03A6A:  RLCF   03,F
03A6C:  MOVLW  FC
03A6E:  ANDWF  02,F
03A70:  MOVF   02,W
03A72:  ADDLW  1C
03A74:  MOVWF  01
03A76:  MOVLW  03
03A78:  ADDWFC 03,F
03A7A:  MOVFF  01,702
03A7E:  MOVLB  7
03A80:  MOVFF  03,703
03A84:  MOVFF  2E7,71B
03A88:  MOVFF  2E6,71A
03A8C:  MOVLW  01
03A8E:  MOVWF  x1D
03A90:  MOVLW  40
03A92:  MOVWF  x1C
03A94:  MOVLB  0
03A96:  CALL   23D0
03A9A:  MOVFF  02,705
03A9E:  MOVFF  01,704
03AA2:  MOVLW  05
03AA4:  MOVLB  7
03AA6:  ADDWF  x04,F
03AA8:  MOVLW  00
03AAA:  ADDWFC x05,F
03AAC:  MOVLB  2
03AAE:  MOVF   xEA,W
03AB0:  ADDWF  xE4,W
03AB2:  MOVLB  7
03AB4:  MOVWF  x06
03AB6:  MOVLB  2
03AB8:  MOVF   xEB,W
03ABA:  ADDWFC xE5,W
03ABC:  MOVLB  7
03ABE:  MOVWF  x07
03AC0:  MOVWF  x1B
03AC2:  MOVFF  706,71A
03AC6:  CLRF   x1D
03AC8:  MOVLW  09
03ACA:  MOVWF  x1C
03ACC:  MOVLB  0
03ACE:  CALL   23D0
03AD2:  MOVFF  02,03
03AD6:  MOVF   01,W
03AD8:  MOVLB  7
03ADA:  ADDWF  x04,F
03ADC:  MOVF   02,W
03ADE:  ADDWFC x05,F
03AE0:  MOVFF  705,708
03AE4:  MOVFF  704,707
03AE8:  MOVLB  0
03AEA:  CALL   24D2
03AEE:  MOVFF  01,704
03AF2:  MOVFF  2E7,71B
03AF6:  MOVFF  2E6,71A
03AFA:  MOVLW  01
03AFC:  MOVLB  7
03AFE:  MOVWF  x1D
03B00:  MOVLW  40
03B02:  MOVWF  x1C
03B04:  MOVLB  0
03B06:  CALL   23D0
03B0A:  MOVFF  02,706
03B0E:  MOVFF  01,705
03B12:  MOVLW  06
03B14:  MOVLB  7
03B16:  ADDWF  x05,F
03B18:  MOVLW  00
03B1A:  ADDWFC x06,F
03B1C:  MOVLB  2
03B1E:  MOVF   xEA,W
03B20:  ADDWF  xE4,W
03B22:  MOVLB  7
03B24:  MOVWF  x07
03B26:  MOVLB  2
03B28:  MOVF   xEB,W
03B2A:  ADDWFC xE5,W
03B2C:  MOVLB  7
03B2E:  MOVWF  x08
03B30:  MOVWF  x1B
03B32:  MOVFF  707,71A
03B36:  CLRF   x1D
03B38:  MOVLW  09
03B3A:  MOVWF  x1C
03B3C:  MOVLB  0
03B3E:  CALL   23D0
03B42:  MOVFF  02,03
03B46:  MOVF   01,W
03B48:  MOVLB  7
03B4A:  ADDWF  x05,F
03B4C:  MOVF   02,W
03B4E:  ADDWFC x06,F
03B50:  MOVFF  706,708
03B54:  MOVFF  705,707
03B58:  MOVLB  0
03B5A:  CALL   24D2
03B5E:  MOVFF  01,705
03B62:  MOVFF  01,706
03B66:  CALL   257A
03B6A:  MOVFF  00,705
03B6E:  MOVFF  01,706
03B72:  MOVFF  02,707
03B76:  MOVFF  03,708
03B7A:  MOVLB  7
03B7C:  CLRF   x15
03B7E:  MOVFF  704,714
03B82:  MOVLB  0
03B84:  CALL   21A0
03B88:  MOVFF  FEA,70A
03B8C:  MOVFF  FE9,709
03B90:  BCF    FD8.1
03B92:  MOVFF  03,717
03B96:  MOVFF  02,716
03B9A:  MOVFF  01,715
03B9E:  MOVFF  00,714
03BA2:  MOVFF  708,71B
03BA6:  MOVFF  707,71A
03BAA:  MOVFF  706,719
03BAE:  MOVFF  705,718
03BB2:  CALL   25BA
03BB6:  MOVFF  70A,FEA
03BBA:  MOVFF  709,FE9
03BBE:  MOVFF  703,FEA
03BC2:  MOVFF  702,FE9
03BC6:  MOVFF  00,FEF
03BCA:  MOVFF  01,FEC
03BCE:  MOVFF  02,FEC
03BD2:  MOVFF  03,FEC
....................       if(TCiclos[i]>200) 
03BD6:  MOVLB  2
03BD8:  RLCF   xEA,W
03BDA:  MOVWF  02
03BDC:  RLCF   xEB,W
03BDE:  MOVWF  03
03BE0:  RLCF   02,F
03BE2:  RLCF   03,F
03BE4:  MOVLW  FC
03BE6:  ANDWF  02,F
03BE8:  MOVF   02,W
03BEA:  ADDLW  1C
03BEC:  MOVWF  FE9
03BEE:  MOVLW  03
03BF0:  ADDWFC 03,W
03BF2:  MOVWF  FEA
03BF4:  MOVFF  FEF,702
03BF8:  MOVFF  FEC,703
03BFC:  MOVFF  FEC,704
03C00:  MOVFF  FEC,705
03C04:  MOVLB  7
03C06:  CLRF   x09
03C08:  CLRF   x08
03C0A:  MOVLW  48
03C0C:  MOVWF  x07
03C0E:  MOVLW  86
03C10:  MOVWF  x06
03C12:  MOVFF  705,70D
03C16:  MOVFF  704,70C
03C1A:  MOVFF  703,70B
03C1E:  MOVFF  702,70A
03C22:  MOVLB  0
03C24:  CALL   2832
03C28:  BNC   3C52
....................          TCiclos[i]=0; 
03C2A:  MOVLB  2
03C2C:  RLCF   xEA,W
03C2E:  MOVWF  02
03C30:  RLCF   xEB,W
03C32:  MOVWF  03
03C34:  RLCF   02,F
03C36:  RLCF   03,F
03C38:  MOVLW  FC
03C3A:  ANDWF  02,F
03C3C:  MOVF   02,W
03C3E:  ADDLW  1C
03C40:  MOVWF  FE9
03C42:  MOVLW  03
03C44:  ADDWFC 03,W
03C46:  MOVWF  FEA
03C48:  CLRF   FEF
03C4A:  CLRF   FEC
03C4C:  CLRF   FEC
03C4E:  CLRF   FEC
03C50:  MOVLB  0
....................       PcCiclos[i]=make16(read_ext_eeprom((cicloVisto*320)+7+((cicloVisualizado+i)*9)),read_ext_eeprom((cicloVisto*320)+8+((cicloVisualizado+i)*9))); 
03C52:  BCF    FD8.0
03C54:  MOVLB  2
03C56:  RLCF   xEA,W
03C58:  MOVWF  02
03C5A:  RLCF   xEB,W
03C5C:  MOVWF  03
03C5E:  MOVF   02,W
03C60:  ADDLW  38
03C62:  MOVWF  01
03C64:  MOVLW  03
03C66:  ADDWFC 03,F
03C68:  MOVFF  01,702
03C6C:  MOVLB  7
03C6E:  MOVFF  03,703
03C72:  MOVFF  2E7,71B
03C76:  MOVFF  2E6,71A
03C7A:  MOVLW  01
03C7C:  MOVWF  x1D
03C7E:  MOVLW  40
03C80:  MOVWF  x1C
03C82:  MOVLB  0
03C84:  CALL   23D0
03C88:  MOVFF  02,705
03C8C:  MOVFF  01,704
03C90:  MOVLW  07
03C92:  MOVLB  7
03C94:  ADDWF  x04,F
03C96:  MOVLW  00
03C98:  ADDWFC x05,F
03C9A:  MOVLB  2
03C9C:  MOVF   xEA,W
03C9E:  ADDWF  xE4,W
03CA0:  MOVLB  7
03CA2:  MOVWF  x06
03CA4:  MOVLB  2
03CA6:  MOVF   xEB,W
03CA8:  ADDWFC xE5,W
03CAA:  MOVLB  7
03CAC:  MOVWF  x07
03CAE:  MOVWF  x1B
03CB0:  MOVFF  706,71A
03CB4:  CLRF   x1D
03CB6:  MOVLW  09
03CB8:  MOVWF  x1C
03CBA:  MOVLB  0
03CBC:  CALL   23D0
03CC0:  MOVFF  02,03
03CC4:  MOVF   01,W
03CC6:  MOVLB  7
03CC8:  ADDWF  x04,F
03CCA:  MOVF   02,W
03CCC:  ADDWFC x05,F
03CCE:  MOVFF  705,708
03CD2:  MOVFF  704,707
03CD6:  MOVLB  0
03CD8:  CALL   24D2
03CDC:  MOVFF  01,704
03CE0:  MOVFF  2E7,71B
03CE4:  MOVFF  2E6,71A
03CE8:  MOVLW  01
03CEA:  MOVLB  7
03CEC:  MOVWF  x1D
03CEE:  MOVLW  40
03CF0:  MOVWF  x1C
03CF2:  MOVLB  0
03CF4:  CALL   23D0
03CF8:  MOVFF  02,706
03CFC:  MOVFF  01,705
03D00:  MOVLW  08
03D02:  MOVLB  7
03D04:  ADDWF  x05,F
03D06:  MOVLW  00
03D08:  ADDWFC x06,F
03D0A:  MOVLB  2
03D0C:  MOVF   xEA,W
03D0E:  ADDWF  xE4,W
03D10:  MOVLB  7
03D12:  MOVWF  x07
03D14:  MOVLB  2
03D16:  MOVF   xEB,W
03D18:  ADDWFC xE5,W
03D1A:  MOVLB  7
03D1C:  MOVWF  x08
03D1E:  MOVWF  x1B
03D20:  MOVFF  707,71A
03D24:  CLRF   x1D
03D26:  MOVLW  09
03D28:  MOVWF  x1C
03D2A:  MOVLB  0
03D2C:  CALL   23D0
03D30:  MOVFF  02,03
03D34:  MOVF   01,W
03D36:  MOVLB  7
03D38:  ADDWF  x05,F
03D3A:  MOVF   02,W
03D3C:  ADDWFC x06,F
03D3E:  MOVFF  706,708
03D42:  MOVFF  705,707
03D46:  MOVLB  0
03D48:  CALL   24D2
03D4C:  MOVFF  703,FEA
03D50:  MOVFF  702,FE9
03D54:  MOVFF  704,FEC
03D58:  MOVF   FED,F
03D5A:  MOVFF  01,FEF
....................       if(PcCiclos[i]>500) 
03D5E:  BCF    FD8.0
03D60:  MOVLB  2
03D62:  RLCF   xEA,W
03D64:  MOVWF  02
03D66:  RLCF   xEB,W
03D68:  MOVWF  03
03D6A:  MOVF   02,W
03D6C:  ADDLW  38
03D6E:  MOVWF  FE9
03D70:  MOVLW  03
03D72:  ADDWFC 03,W
03D74:  MOVWF  FEA
03D76:  MOVFF  FEC,703
03D7A:  MOVF   FED,F
03D7C:  MOVFF  FEF,702
03D80:  MOVLB  7
03D82:  MOVF   x03,W
03D84:  SUBLW  00
03D86:  BC    3DB2
03D88:  XORLW  FF
03D8A:  BNZ   3D92
03D8C:  MOVF   x02,W
03D8E:  SUBLW  F4
03D90:  BC    3DB2
....................          PcCiclos[i]=0; 
03D92:  BCF    FD8.0
03D94:  MOVLB  2
03D96:  RLCF   xEA,W
03D98:  MOVWF  02
03D9A:  RLCF   xEB,W
03D9C:  MOVWF  03
03D9E:  MOVF   02,W
03DA0:  ADDLW  38
03DA2:  MOVWF  FE9
03DA4:  MOVLW  03
03DA6:  ADDWFC 03,W
03DA8:  MOVWF  FEA
03DAA:  CLRF   FEC
03DAC:  MOVF   FED,F
03DAE:  CLRF   FEF
03DB0:  MOVLB  7
....................       PpcCiclos[i]=make16(read_ext_eeprom((cicloVisto*320)+9+((cicloVisualizado+i)*9)),read_ext_eeprom((cicloVisto*320)+10+((cicloVisualizado+i)*9))); 
03DB2:  BCF    FD8.0
03DB4:  MOVLB  2
03DB6:  RLCF   xEA,W
03DB8:  MOVWF  02
03DBA:  RLCF   xEB,W
03DBC:  MOVWF  03
03DBE:  MOVF   02,W
03DC0:  ADDLW  46
03DC2:  MOVWF  01
03DC4:  MOVLW  03
03DC6:  ADDWFC 03,F
03DC8:  MOVFF  01,702
03DCC:  MOVLB  7
03DCE:  MOVFF  03,703
03DD2:  MOVFF  2E7,71B
03DD6:  MOVFF  2E6,71A
03DDA:  MOVLW  01
03DDC:  MOVWF  x1D
03DDE:  MOVLW  40
03DE0:  MOVWF  x1C
03DE2:  MOVLB  0
03DE4:  CALL   23D0
03DE8:  MOVFF  02,705
03DEC:  MOVFF  01,704
03DF0:  MOVLW  09
03DF2:  MOVLB  7
03DF4:  ADDWF  x04,F
03DF6:  MOVLW  00
03DF8:  ADDWFC x05,F
03DFA:  MOVLB  2
03DFC:  MOVF   xEA,W
03DFE:  ADDWF  xE4,W
03E00:  MOVLB  7
03E02:  MOVWF  x06
03E04:  MOVLB  2
03E06:  MOVF   xEB,W
03E08:  ADDWFC xE5,W
03E0A:  MOVLB  7
03E0C:  MOVWF  x07
03E0E:  MOVWF  x1B
03E10:  MOVFF  706,71A
03E14:  CLRF   x1D
03E16:  MOVLW  09
03E18:  MOVWF  x1C
03E1A:  MOVLB  0
03E1C:  CALL   23D0
03E20:  MOVFF  02,03
03E24:  MOVF   01,W
03E26:  MOVLB  7
03E28:  ADDWF  x04,F
03E2A:  MOVF   02,W
03E2C:  ADDWFC x05,F
03E2E:  MOVFF  705,708
03E32:  MOVFF  704,707
03E36:  MOVLB  0
03E38:  CALL   24D2
03E3C:  MOVFF  01,704
03E40:  MOVFF  2E7,71B
03E44:  MOVFF  2E6,71A
03E48:  MOVLW  01
03E4A:  MOVLB  7
03E4C:  MOVWF  x1D
03E4E:  MOVLW  40
03E50:  MOVWF  x1C
03E52:  MOVLB  0
03E54:  CALL   23D0
03E58:  MOVFF  02,706
03E5C:  MOVFF  01,705
03E60:  MOVLW  0A
03E62:  MOVLB  7
03E64:  ADDWF  x05,F
03E66:  MOVLW  00
03E68:  ADDWFC x06,F
03E6A:  MOVLB  2
03E6C:  MOVF   xEA,W
03E6E:  ADDWF  xE4,W
03E70:  MOVLB  7
03E72:  MOVWF  x07
03E74:  MOVLB  2
03E76:  MOVF   xEB,W
03E78:  ADDWFC xE5,W
03E7A:  MOVLB  7
03E7C:  MOVWF  x08
03E7E:  MOVWF  x1B
03E80:  MOVFF  707,71A
03E84:  CLRF   x1D
03E86:  MOVLW  09
03E88:  MOVWF  x1C
03E8A:  MOVLB  0
03E8C:  CALL   23D0
03E90:  MOVFF  02,03
03E94:  MOVF   01,W
03E96:  MOVLB  7
03E98:  ADDWF  x05,F
03E9A:  MOVF   02,W
03E9C:  ADDWFC x06,F
03E9E:  MOVFF  706,708
03EA2:  MOVFF  705,707
03EA6:  MOVLB  0
03EA8:  CALL   24D2
03EAC:  MOVFF  703,FEA
03EB0:  MOVFF  702,FE9
03EB4:  MOVFF  704,FEC
03EB8:  MOVF   FED,F
03EBA:  MOVFF  01,FEF
....................       if(PpcCiclos[i]>500) 
03EBE:  BCF    FD8.0
03EC0:  MOVLB  2
03EC2:  RLCF   xEA,W
03EC4:  MOVWF  02
03EC6:  RLCF   xEB,W
03EC8:  MOVWF  03
03ECA:  MOVF   02,W
03ECC:  ADDLW  46
03ECE:  MOVWF  FE9
03ED0:  MOVLW  03
03ED2:  ADDWFC 03,W
03ED4:  MOVWF  FEA
03ED6:  MOVFF  FEC,703
03EDA:  MOVF   FED,F
03EDC:  MOVFF  FEF,702
03EE0:  MOVLB  7
03EE2:  MOVF   x03,W
03EE4:  SUBLW  00
03EE6:  BC    3F10
03EE8:  XORLW  FF
03EEA:  BNZ   3EF2
03EEC:  MOVF   x02,W
03EEE:  SUBLW  F4
03EF0:  BC    3F10
....................          PpcCiclos[i]=0; 
03EF2:  BCF    FD8.0
03EF4:  MOVLB  2
03EF6:  RLCF   xEA,W
03EF8:  MOVWF  02
03EFA:  RLCF   xEB,W
03EFC:  MOVWF  03
03EFE:  MOVF   02,W
03F00:  ADDLW  46
03F02:  MOVWF  FE9
03F04:  MOVLW  03
03F06:  ADDWFC 03,W
03F08:  MOVWF  FEA
03F0A:  CLRF   FEC
03F0C:  MOVF   FED,F
03F0E:  CLRF   FEF
....................       ACiclos[i]=read_ext_eeprom((cicloVisto*320)+13+((cicloVisualizado+i)*9)); 
03F10:  MOVLW  62
03F12:  MOVLB  2
03F14:  ADDWF  xEA,W
03F16:  MOVWF  01
03F18:  MOVLW  03
03F1A:  ADDWFC xEB,W
03F1C:  MOVWF  03
03F1E:  MOVFF  01,702
03F22:  MOVLB  7
03F24:  MOVWF  x03
03F26:  MOVFF  2E7,71B
03F2A:  MOVFF  2E6,71A
03F2E:  MOVLW  01
03F30:  MOVWF  x1D
03F32:  MOVLW  40
03F34:  MOVWF  x1C
03F36:  MOVLB  0
03F38:  CALL   23D0
03F3C:  MOVFF  02,705
03F40:  MOVFF  01,704
03F44:  MOVLW  0D
03F46:  MOVLB  7
03F48:  ADDWF  x04,F
03F4A:  MOVLW  00
03F4C:  ADDWFC x05,F
03F4E:  MOVLB  2
03F50:  MOVF   xEA,W
03F52:  ADDWF  xE4,W
03F54:  MOVLB  7
03F56:  MOVWF  x06
03F58:  MOVLB  2
03F5A:  MOVF   xEB,W
03F5C:  ADDWFC xE5,W
03F5E:  MOVLB  7
03F60:  MOVWF  x07
03F62:  MOVWF  x1B
03F64:  MOVFF  706,71A
03F68:  CLRF   x1D
03F6A:  MOVLW  09
03F6C:  MOVWF  x1C
03F6E:  MOVLB  0
03F70:  CALL   23D0
03F74:  MOVFF  02,03
03F78:  MOVF   01,W
03F7A:  MOVLB  7
03F7C:  ADDWF  x04,F
03F7E:  MOVF   02,W
03F80:  ADDWFC x05,F
03F82:  MOVFF  705,708
03F86:  MOVFF  704,707
03F8A:  MOVLB  0
03F8C:  CALL   24D2
03F90:  MOVFF  703,FEA
03F94:  MOVFF  702,FE9
03F98:  MOVFF  01,FEF
....................       if(ACiclos[i]>10) 
03F9C:  MOVLW  62
03F9E:  MOVLB  2
03FA0:  ADDWF  xEA,W
03FA2:  MOVWF  FE9
03FA4:  MOVLW  03
03FA6:  ADDWFC xEB,W
03FA8:  MOVWF  FEA
03FAA:  MOVF   FEF,W
03FAC:  SUBLW  0A
03FAE:  BC    3FBE
....................          ACiclos[i]=0; 
03FB0:  MOVLW  62
03FB2:  ADDWF  xEA,W
03FB4:  MOVWF  FE9
03FB6:  MOVLW  03
03FB8:  ADDWFC xEB,W
03FBA:  MOVWF  FEA
03FBC:  CLRF   FEF
....................    } 
03FBE:  INCF   xEA,F
03FC0:  BTFSC  FD8.2
03FC2:  INCF   xEB,F
03FC4:  BRA    38FA
.................... } 
03FC6:  MOVLB  0
03FC8:  GOTO   105DA (RETURN)
....................  
.................... void LimitaValores(){ 
....................    if(Ganancia>20.0){ 
*
04100:  MOVLB  7
04102:  CLRF   x09
04104:  CLRF   x08
04106:  MOVLW  20
04108:  MOVWF  x07
0410A:  MOVLW  83
0410C:  MOVWF  x06
0410E:  MOVFF  24F,70D
04112:  MOVFF  24E,70C
04116:  MOVFF  24D,70B
0411A:  MOVFF  24C,70A
0411E:  MOVLB  0
04120:  CALL   2832
04124:  BNC   416E
....................       Ganancia=15.0; 
04126:  MOVLB  2
04128:  CLRF   x4F
0412A:  CLRF   x4E
0412C:  MOVLW  70
0412E:  MOVWF  x4D
04130:  MOVLW  82
04132:  MOVWF  x4C
....................       write_eeprom(20,15); 
04134:  CLRF   FAA
04136:  MOVLW  14
04138:  MOVWF  FA9
0413A:  MOVLW  0F
0413C:  MOVWF  FA8
0413E:  BCF    FA6.6
04140:  BCF    FA6.7
04142:  BSF    FA6.2
04144:  MOVF   FF2,W
04146:  MOVWF  00
04148:  BCF    FF2.6
0414A:  BCF    FF2.7
0414C:  MOVLB  F
0414E:  MOVLW  55
04150:  MOVWF  FA7
04152:  MOVLW  AA
04154:  MOVWF  FA7
04156:  BSF    FA6.1
04158:  BTFSC  FA6.1
0415A:  BRA    4158
0415C:  BCF    FA6.2
0415E:  MOVF   00,W
04160:  IORWF  FF2,F
....................       delay_ms(10); 
04162:  MOVLW  0A
04164:  MOVLB  7
04166:  MOVWF  x18
04168:  MOVLB  0
0416A:  CALL   21D6
....................    } 
....................    if(Sensor[0].Ajuste>20){ 
0416E:  MOVLB  3
04170:  MOVF   x90,W
04172:  SUBLW  14
04174:  BC    41B2
....................       Sensor[0].Ajuste=0; 
04176:  CLRF   x90
....................       write_eeprom(21,0); 
04178:  CLRF   FAA
0417A:  MOVLW  15
0417C:  MOVWF  FA9
0417E:  CLRF   FA8
04180:  BCF    FA6.6
04182:  BCF    FA6.7
04184:  BSF    FA6.2
04186:  MOVF   FF2,W
04188:  MOVWF  00
0418A:  BCF    FF2.6
0418C:  BCF    FF2.7
0418E:  MOVLB  F
04190:  MOVLW  55
04192:  MOVWF  FA7
04194:  MOVLW  AA
04196:  MOVWF  FA7
04198:  BSF    FA6.1
0419A:  BTFSC  FA6.1
0419C:  BRA    419A
0419E:  BCF    FA6.2
041A0:  MOVF   00,W
041A2:  IORWF  FF2,F
....................       delay_ms(10); 
041A4:  MOVLW  0A
041A6:  MOVLB  7
041A8:  MOVWF  x18
041AA:  MOVLB  0
041AC:  CALL   21D6
041B0:  MOVLB  3
....................    } 
....................    if(Sensor[0].Ajusten>20){ 
041B2:  MOVF   x91,W
041B4:  SUBLW  14
041B6:  BC    41F2
....................       Sensor[0].Ajusten=0; 
041B8:  CLRF   x91
....................       write_eeprom(22,0); 
041BA:  CLRF   FAA
041BC:  MOVLW  16
041BE:  MOVWF  FA9
041C0:  CLRF   FA8
041C2:  BCF    FA6.6
041C4:  BCF    FA6.7
041C6:  BSF    FA6.2
041C8:  MOVF   FF2,W
041CA:  MOVWF  00
041CC:  BCF    FF2.6
041CE:  BCF    FF2.7
041D0:  MOVLB  F
041D2:  MOVLW  55
041D4:  MOVWF  FA7
041D6:  MOVLW  AA
041D8:  MOVWF  FA7
041DA:  BSF    FA6.1
041DC:  BTFSC  FA6.1
041DE:  BRA    41DC
041E0:  BCF    FA6.2
041E2:  MOVF   00,W
041E4:  IORWF  FF2,F
....................       delay_ms(10); 
041E6:  MOVLW  0A
041E8:  MOVLB  7
041EA:  MOVWF  x18
041EC:  MOVLB  0
041EE:  CALL   21D6
....................    } 
....................    if(Sensor[1].Ajuste>20){ 
041F2:  MOVLB  4
041F4:  MOVF   xF4,W
041F6:  SUBLW  14
041F8:  BC    4236
....................       Sensor[1].Ajuste=0; 
041FA:  CLRF   xF4
....................       write_eeprom(23,0); 
041FC:  CLRF   FAA
041FE:  MOVLW  17
04200:  MOVWF  FA9
04202:  CLRF   FA8
04204:  BCF    FA6.6
04206:  BCF    FA6.7
04208:  BSF    FA6.2
0420A:  MOVF   FF2,W
0420C:  MOVWF  00
0420E:  BCF    FF2.6
04210:  BCF    FF2.7
04212:  MOVLB  F
04214:  MOVLW  55
04216:  MOVWF  FA7
04218:  MOVLW  AA
0421A:  MOVWF  FA7
0421C:  BSF    FA6.1
0421E:  BTFSC  FA6.1
04220:  BRA    421E
04222:  BCF    FA6.2
04224:  MOVF   00,W
04226:  IORWF  FF2,F
....................       delay_ms(10); 
04228:  MOVLW  0A
0422A:  MOVLB  7
0422C:  MOVWF  x18
0422E:  MOVLB  0
04230:  CALL   21D6
04234:  MOVLB  4
....................    } 
....................    if(Sensor[1].Ajusten>20){ 
04236:  MOVF   xF5,W
04238:  SUBLW  14
0423A:  BC    4276
....................       Sensor[1].Ajusten=0; 
0423C:  CLRF   xF5
....................       write_eeprom(24,0); 
0423E:  CLRF   FAA
04240:  MOVLW  18
04242:  MOVWF  FA9
04244:  CLRF   FA8
04246:  BCF    FA6.6
04248:  BCF    FA6.7
0424A:  BSF    FA6.2
0424C:  MOVF   FF2,W
0424E:  MOVWF  00
04250:  BCF    FF2.6
04252:  BCF    FF2.7
04254:  MOVLB  F
04256:  MOVLW  55
04258:  MOVWF  FA7
0425A:  MOVLW  AA
0425C:  MOVWF  FA7
0425E:  BSF    FA6.1
04260:  BTFSC  FA6.1
04262:  BRA    4260
04264:  BCF    FA6.2
04266:  MOVF   00,W
04268:  IORWF  FF2,F
....................       delay_ms(10); 
0426A:  MOVLW  0A
0426C:  MOVLB  7
0426E:  MOVWF  x18
04270:  MOVLB  0
04272:  CALL   21D6
....................    } 
....................    if(MediaMovil>80 || MediaMovil<10){ 
04276:  MOVLB  2
04278:  MOVF   x22,W
0427A:  SUBLW  50
0427C:  BNC   4284
0427E:  MOVF   x22,W
04280:  SUBLW  09
04282:  BNC   42C2
....................       MediaMovil=40; 
04284:  MOVLW  28
04286:  MOVWF  x22
....................       write_eeprom(25,40); 
04288:  CLRF   FAA
0428A:  MOVLW  19
0428C:  MOVWF  FA9
0428E:  MOVLW  28
04290:  MOVWF  FA8
04292:  BCF    FA6.6
04294:  BCF    FA6.7
04296:  BSF    FA6.2
04298:  MOVF   FF2,W
0429A:  MOVWF  00
0429C:  BCF    FF2.6
0429E:  BCF    FF2.7
042A0:  MOVLB  F
042A2:  MOVLW  55
042A4:  MOVWF  FA7
042A6:  MOVLW  AA
042A8:  MOVWF  FA7
042AA:  BSF    FA6.1
042AC:  BTFSC  FA6.1
042AE:  BRA    42AC
042B0:  BCF    FA6.2
042B2:  MOVF   00,W
042B4:  IORWF  FF2,F
....................       delay_ms(10); 
042B6:  MOVLW  0A
042B8:  MOVLB  7
042BA:  MOVWF  x18
042BC:  MOVLB  0
042BE:  CALL   21D6
....................    } 
....................    if(Tciclo>10 || Tciclo<5){ 
042C2:  MOVLB  7
042C4:  CLRF   x09
042C6:  CLRF   x08
042C8:  MOVLW  20
042CA:  MOVWF  x07
042CC:  MOVLW  82
042CE:  MOVWF  x06
042D0:  MOVFF  237,70D
042D4:  MOVFF  236,70C
042D8:  MOVFF  235,70B
042DC:  MOVFF  234,70A
042E0:  MOVLB  0
042E2:  CALL   2832
042E6:  BC    430E
042E8:  MOVFF  237,709
042EC:  MOVFF  236,708
042F0:  MOVFF  235,707
042F4:  MOVFF  234,706
042F8:  MOVLB  7
042FA:  CLRF   x0D
042FC:  CLRF   x0C
042FE:  MOVLW  20
04300:  MOVWF  x0B
04302:  MOVLW  81
04304:  MOVWF  x0A
04306:  MOVLB  0
04308:  CALL   2832
0430C:  BNC   4356
....................       Tciclo=10; 
0430E:  MOVLB  2
04310:  CLRF   x37
04312:  CLRF   x36
04314:  MOVLW  20
04316:  MOVWF  x35
04318:  MOVLW  82
0431A:  MOVWF  x34
....................       write_eeprom(26,10); 
0431C:  CLRF   FAA
0431E:  MOVLW  1A
04320:  MOVWF  FA9
04322:  MOVLW  0A
04324:  MOVWF  FA8
04326:  BCF    FA6.6
04328:  BCF    FA6.7
0432A:  BSF    FA6.2
0432C:  MOVF   FF2,W
0432E:  MOVWF  00
04330:  BCF    FF2.6
04332:  BCF    FF2.7
04334:  MOVLB  F
04336:  MOVLW  55
04338:  MOVWF  FA7
0433A:  MOVLW  AA
0433C:  MOVWF  FA7
0433E:  BSF    FA6.1
04340:  BTFSC  FA6.1
04342:  BRA    4340
04344:  BCF    FA6.2
04346:  MOVF   00,W
04348:  IORWF  FF2,F
....................       delay_ms(10); 
0434A:  MOVLW  0A
0434C:  MOVLB  7
0434E:  MOVWF  x18
04350:  MOVLB  0
04352:  CALL   21D6
....................    } 
....................    if(Atmosferica>100 || Atmosferica<60){ 
04356:  MOVLB  2
04358:  MOVF   xF6,W
0435A:  SUBLW  64
0435C:  BNC   4364
0435E:  MOVF   xF6,W
04360:  SUBLW  3B
04362:  BNC   43A4
....................       Atmosferica=72; 
04364:  MOVLW  48
04366:  MOVWF  xF6
....................       write_eeprom(31,72); 
04368:  CLRF   FAA
0436A:  MOVLW  1F
0436C:  MOVWF  FA9
0436E:  MOVLW  48
04370:  MOVWF  FA8
04372:  BCF    FA6.6
04374:  BCF    FA6.7
04376:  BSF    FA6.2
04378:  MOVF   FF2,W
0437A:  MOVWF  00
0437C:  BCF    FF2.6
0437E:  BCF    FF2.7
04380:  MOVLB  F
04382:  MOVLW  55
04384:  MOVWF  FA7
04386:  MOVLW  AA
04388:  MOVWF  FA7
0438A:  BSF    FA6.1
0438C:  BTFSC  FA6.1
0438E:  BRA    438C
04390:  BCF    FA6.2
04392:  MOVF   00,W
04394:  IORWF  FF2,F
....................       delay_ms(10); 
04396:  MOVLW  0A
04398:  MOVLB  7
0439A:  MOVWF  x18
0439C:  MOVLB  0
0439E:  CALL   21D6
043A2:  MOVLB  2
....................    } 
....................    if(Tapertura>100 || Tapertura<80){ 
043A4:  MOVF   xA6,W
043A6:  SUBLW  64
043A8:  BNC   43B0
043AA:  MOVF   xA6,W
043AC:  SUBLW  4F
043AE:  BNC   43F0
....................       Tapertura=85; 
043B0:  MOVLW  55
043B2:  MOVWF  xA6
....................       write_eeprom(32,85); 
043B4:  CLRF   FAA
043B6:  MOVLW  20
043B8:  MOVWF  FA9
043BA:  MOVLW  55
043BC:  MOVWF  FA8
043BE:  BCF    FA6.6
043C0:  BCF    FA6.7
043C2:  BSF    FA6.2
043C4:  MOVF   FF2,W
043C6:  MOVWF  00
043C8:  BCF    FF2.6
043CA:  BCF    FF2.7
043CC:  MOVLB  F
043CE:  MOVLW  55
043D0:  MOVWF  FA7
043D2:  MOVLW  AA
043D4:  MOVWF  FA7
043D6:  BSF    FA6.1
043D8:  BTFSC  FA6.1
043DA:  BRA    43D8
043DC:  BCF    FA6.2
043DE:  MOVF   00,W
043E0:  IORWF  FF2,F
....................       delay_ms(10); 
043E2:  MOVLW  0A
043E4:  MOVLB  7
043E6:  MOVWF  x18
043E8:  MOVLB  0
043EA:  CALL   21D6
043EE:  MOVLB  2
....................    } 
....................    if(Ciclos>60000){ 
043F0:  MOVF   xC6,W
043F2:  SUBLW  E9
043F4:  BC    4474
043F6:  XORLW  FF
043F8:  BNZ   4400
043FA:  MOVF   xC5,W
043FC:  SUBLW  60
043FE:  BC    4474
....................       Ciclos=0; 
04400:  CLRF   xC6
04402:  CLRF   xC5
....................       write_eeprom(37,0); 
04404:  CLRF   FAA
04406:  MOVLW  25
04408:  MOVWF  FA9
0440A:  CLRF   FA8
0440C:  BCF    FA6.6
0440E:  BCF    FA6.7
04410:  BSF    FA6.2
04412:  MOVF   FF2,W
04414:  MOVWF  00
04416:  BCF    FF2.6
04418:  BCF    FF2.7
0441A:  MOVLB  F
0441C:  MOVLW  55
0441E:  MOVWF  FA7
04420:  MOVLW  AA
04422:  MOVWF  FA7
04424:  BSF    FA6.1
04426:  BTFSC  FA6.1
04428:  BRA    4426
0442A:  BCF    FA6.2
0442C:  MOVF   00,W
0442E:  IORWF  FF2,F
....................       delay_ms(10); 
04430:  MOVLW  0A
04432:  MOVLB  7
04434:  MOVWF  x18
04436:  MOVLB  0
04438:  CALL   21D6
....................       write_eeprom(38,0); 
0443C:  CLRF   FAA
0443E:  MOVLW  26
04440:  MOVWF  FA9
04442:  CLRF   FA8
04444:  BCF    FA6.6
04446:  BCF    FA6.7
04448:  BSF    FA6.2
0444A:  MOVF   FF2,W
0444C:  MOVWF  00
0444E:  BCF    FF2.6
04450:  BCF    FF2.7
04452:  MOVLB  F
04454:  MOVLW  55
04456:  MOVWF  FA7
04458:  MOVLW  AA
0445A:  MOVWF  FA7
0445C:  BSF    FA6.1
0445E:  BTFSC  FA6.1
04460:  BRA    445E
04462:  BCF    FA6.2
04464:  MOVF   00,W
04466:  IORWF  FF2,F
....................       delay_ms(10); 
04468:  MOVLW  0A
0446A:  MOVLB  7
0446C:  MOVWF  x18
0446E:  MOVLB  0
04470:  CALL   21D6
....................    } 
....................    if(sg1==10){ 
04474:  MOVLB  3
04476:  MOVF   x06,W
04478:  SUBLW  0A
0447A:  BNZ   4490
....................       G1=G1*(-1); 
0447C:  MOVFF  304,702
04480:  MOVLW  FF
04482:  MOVLB  7
04484:  MOVWF  x03
04486:  MOVLB  0
04488:  RCALL  40B2
0448A:  MOVFF  01,304
0448E:  MOVLB  3
....................    } 
....................    if(sg2==10){ 
04490:  MOVF   x07,W
04492:  SUBLW  0A
04494:  BNZ   44A8
....................       G2=G2*(-1); 
04496:  MOVFF  305,702
0449A:  MOVLW  FF
0449C:  MOVLB  7
0449E:  MOVWF  x03
044A0:  MOVLB  0
044A2:  RCALL  40B2
044A4:  MOVFF  01,305
....................    } 
....................    if(cerroSucioInt>1){ 
044A8:  MOVLB  2
044AA:  MOVF   x28,W
044AC:  SUBLW  01
044AE:  BC    44F0
....................       cerroSucioInt=0; 
044B0:  CLRF   x28
....................       write_eeprom(46,0); 
044B2:  CLRF   FAA
044B4:  MOVLW  2E
044B6:  MOVWF  FA9
044B8:  CLRF   FA8
044BA:  BCF    FA6.6
044BC:  BCF    FA6.7
044BE:  BSF    FA6.2
044C0:  MOVF   FF2,W
044C2:  MOVWF  00
044C4:  BCF    FF2.6
044C6:  BCF    FF2.7
044C8:  MOVLB  F
044CA:  MOVLW  55
044CC:  MOVWF  FA7
044CE:  MOVLW  AA
044D0:  MOVWF  FA7
044D2:  BSF    FA6.1
044D4:  BTFSC  FA6.1
044D6:  BRA    44D4
044D8:  BCF    FA6.2
044DA:  MOVF   00,W
044DC:  IORWF  FF2,F
....................       delay_ms(10); 
044DE:  MOVLW  0A
044E0:  MOVLB  7
044E2:  MOVWF  x18
044E4:  MOVLB  0
044E6:  CALL   21D6
....................       cerroSucio=OFF; 
044EA:  MOVLB  1
044EC:  BCF    x22.2
044EE:  MOVLB  2
....................    } 
....................    if(cerroLimpioInt>1){ 
044F0:  MOVF   x29,W
044F2:  SUBLW  01
044F4:  BC    4536
....................       cerroLimpioInt=0; 
044F6:  CLRF   x29
....................       write_eeprom(47,0); 
044F8:  CLRF   FAA
044FA:  MOVLW  2F
044FC:  MOVWF  FA9
044FE:  CLRF   FA8
04500:  BCF    FA6.6
04502:  BCF    FA6.7
04504:  BSF    FA6.2
04506:  MOVF   FF2,W
04508:  MOVWF  00
0450A:  BCF    FF2.6
0450C:  BCF    FF2.7
0450E:  MOVLB  F
04510:  MOVLW  55
04512:  MOVWF  FA7
04514:  MOVLW  AA
04516:  MOVWF  FA7
04518:  BSF    FA6.1
0451A:  BTFSC  FA6.1
0451C:  BRA    451A
0451E:  BCF    FA6.2
04520:  MOVF   00,W
04522:  IORWF  FF2,F
....................       delay_ms(10); 
04524:  MOVLW  0A
04526:  MOVLB  7
04528:  MOVWF  x18
0452A:  MOVLB  0
0452C:  CALL   21D6
....................       cerroLimpio=OFF; 
04530:  MOVLB  1
04532:  BCF    x22.3
04534:  MOVLB  2
....................    } 
....................    if(cerroSucioInt==1) 
04536:  DECFSZ x28,W
04538:  BRA    4540
....................       cerroSucio=ON; 
0453A:  MOVLB  1
0453C:  BSF    x22.2
0453E:  MOVLB  2
....................    if(cerroSucioInt==0) 
04540:  MOVF   x28,F
04542:  BNZ   454A
....................       cerroSucio=OFF;    
04544:  MOVLB  1
04546:  BCF    x22.2
04548:  MOVLB  2
....................    if(cerroLimpioInt==1) 
0454A:  DECFSZ x29,W
0454C:  BRA    4554
....................       cerroLimpio=ON; 
0454E:  MOVLB  1
04550:  BSF    x22.3
04552:  MOVLB  2
....................    if(cerroLimpioInt==0) 
04554:  MOVF   x29,F
04556:  BNZ   455E
....................       cerroLimpio=OFF;   
04558:  MOVLB  1
0455A:  BCF    x22.3
0455C:  MOVLB  2
....................        
....................    if(pulsosConfigurados>8 || pulsosConfigurados<2){ 
0455E:  MOVF   x7F,W
04560:  SUBLW  08
04562:  BNC   456A
04564:  MOVF   x7F,W
04566:  SUBLW  01
04568:  BNC   45AA
....................       pulsosConfigurados=4; 
0456A:  MOVLW  04
0456C:  MOVWF  x7F
....................       write_eeprom(50,4); 
0456E:  CLRF   FAA
04570:  MOVLW  32
04572:  MOVWF  FA9
04574:  MOVLW  04
04576:  MOVWF  FA8
04578:  BCF    FA6.6
0457A:  BCF    FA6.7
0457C:  BSF    FA6.2
0457E:  MOVF   FF2,W
04580:  MOVWF  00
04582:  BCF    FF2.6
04584:  BCF    FF2.7
04586:  MOVLB  F
04588:  MOVLW  55
0458A:  MOVWF  FA7
0458C:  MOVLW  AA
0458E:  MOVWF  FA7
04590:  BSF    FA6.1
04592:  BTFSC  FA6.1
04594:  BRA    4592
04596:  BCF    FA6.2
04598:  MOVF   00,W
0459A:  IORWF  FF2,F
....................       delay_ms(10); 
0459C:  MOVLW  0A
0459E:  MOVLB  7
045A0:  MOVWF  x18
045A2:  MOVLB  0
045A4:  CALL   21D6
045A8:  MOVLB  2
....................    } 
....................    if(vacioTest>30 || vacioTest<17){ 
045AA:  MOVF   x80,W
045AC:  SUBLW  1E
045AE:  BNC   45B6
045B0:  MOVF   x80,W
045B2:  SUBLW  10
045B4:  BNC   45F6
....................       vacioTest=17; 
045B6:  MOVLW  11
045B8:  MOVWF  x80
....................       write_eeprom(51,17); 
045BA:  CLRF   FAA
045BC:  MOVLW  33
045BE:  MOVWF  FA9
045C0:  MOVLW  11
045C2:  MOVWF  FA8
045C4:  BCF    FA6.6
045C6:  BCF    FA6.7
045C8:  BSF    FA6.2
045CA:  MOVF   FF2,W
045CC:  MOVWF  00
045CE:  BCF    FF2.6
045D0:  BCF    FF2.7
045D2:  MOVLB  F
045D4:  MOVLW  55
045D6:  MOVWF  FA7
045D8:  MOVLW  AA
045DA:  MOVWF  FA7
045DC:  BSF    FA6.1
045DE:  BTFSC  FA6.1
045E0:  BRA    45DE
045E2:  BCF    FA6.2
045E4:  MOVF   00,W
045E6:  IORWF  FF2,F
....................       delay_ms(10); 
045E8:  MOVLW  0A
045EA:  MOVLB  7
045EC:  MOVWF  x18
045EE:  MOVLB  0
045F0:  CALL   21D6
045F4:  MOVLB  2
....................    } 
....................    if(vacioCiclo>40 || vacioCiclo<17){ 
045F6:  MOVF   x81,W
045F8:  SUBLW  28
045FA:  BNC   4602
045FC:  MOVF   x81,W
045FE:  SUBLW  10
04600:  BNC   4640
....................       vacioCiclo=25; 
04602:  MOVLW  19
04604:  MOVWF  x81
....................       write_eeprom(52,25); 
04606:  CLRF   FAA
04608:  MOVLW  34
0460A:  MOVWF  FA9
0460C:  MOVLW  19
0460E:  MOVWF  FA8
04610:  BCF    FA6.6
04612:  BCF    FA6.7
04614:  BSF    FA6.2
04616:  MOVF   FF2,W
04618:  MOVWF  00
0461A:  BCF    FF2.6
0461C:  BCF    FF2.7
0461E:  MOVLB  F
04620:  MOVLW  55
04622:  MOVWF  FA7
04624:  MOVLW  AA
04626:  MOVWF  FA7
04628:  BSF    FA6.1
0462A:  BTFSC  FA6.1
0462C:  BRA    462A
0462E:  BCF    FA6.2
04630:  MOVF   00,W
04632:  IORWF  FF2,F
....................       delay_ms(10); 
04634:  MOVLW  0A
04636:  MOVLB  7
04638:  MOVWF  x18
0463A:  MOVLB  0
0463C:  CALL   21D6
....................    }     
....................    if(desvio>2.0){ 
04640:  MOVLB  7
04642:  CLRF   x09
04644:  CLRF   x08
04646:  CLRF   x07
04648:  MOVLW  80
0464A:  MOVWF  x06
0464C:  MOVFF  257,70D
04650:  MOVFF  256,70C
04654:  MOVFF  255,70B
04658:  MOVFF  254,70A
0465C:  MOVLB  0
0465E:  CALL   2832
04662:  BNC   46AA
....................       desvio=0.5;write_eeprom(53,5);delay_ms(10); 
04664:  MOVLB  2
04666:  CLRF   x57
04668:  CLRF   x56
0466A:  CLRF   x55
0466C:  MOVLW  7E
0466E:  MOVWF  x54
04670:  CLRF   FAA
04672:  MOVLW  35
04674:  MOVWF  FA9
04676:  MOVLW  05
04678:  MOVWF  FA8
0467A:  BCF    FA6.6
0467C:  BCF    FA6.7
0467E:  BSF    FA6.2
04680:  MOVF   FF2,W
04682:  MOVWF  00
04684:  BCF    FF2.6
04686:  BCF    FF2.7
04688:  MOVLB  F
0468A:  MOVLW  55
0468C:  MOVWF  FA7
0468E:  MOVLW  AA
04690:  MOVWF  FA7
04692:  BSF    FA6.1
04694:  BTFSC  FA6.1
04696:  BRA    4694
04698:  BCF    FA6.2
0469A:  MOVF   00,W
0469C:  IORWF  FF2,F
0469E:  MOVLW  0A
046A0:  MOVLB  7
046A2:  MOVWF  x18
046A4:  MOVLB  0
046A6:  CALL   21D6
....................    } 
....................    if(Histeresis>3.0){ 
046AA:  MOVLB  7
046AC:  CLRF   x09
046AE:  CLRF   x08
046B0:  MOVLW  40
046B2:  MOVWF  x07
046B4:  MOVLW  80
046B6:  MOVWF  x06
046B8:  MOVFF  203,70D
046BC:  MOVFF  202,70C
046C0:  MOVFF  201,70B
046C4:  MOVFF  200,70A
046C8:  MOVLB  0
046CA:  CALL   2832
046CE:  BNC   471C
....................       Histeresis=0.1;write_eeprom(54,1);delay_ms(10); 
046D0:  MOVLW  CD
046D2:  MOVLB  2
046D4:  MOVWF  x03
046D6:  MOVLW  CC
046D8:  MOVWF  x02
046DA:  MOVLW  4C
046DC:  MOVWF  x01
046DE:  MOVLW  7B
046E0:  MOVWF  x00
046E2:  CLRF   FAA
046E4:  MOVLW  36
046E6:  MOVWF  FA9
046E8:  MOVLW  01
046EA:  MOVWF  FA8
046EC:  BCF    FA6.6
046EE:  BCF    FA6.7
046F0:  BSF    FA6.2
046F2:  MOVF   FF2,W
046F4:  MOVWF  00
046F6:  BCF    FF2.6
046F8:  BCF    FF2.7
046FA:  MOVLB  F
046FC:  MOVLW  55
046FE:  MOVWF  FA7
04700:  MOVLW  AA
04702:  MOVWF  FA7
04704:  BSF    FA6.1
04706:  BTFSC  FA6.1
04708:  BRA    4706
0470A:  BCF    FA6.2
0470C:  MOVF   00,W
0470E:  IORWF  FF2,F
04710:  MOVLW  0A
04712:  MOVLB  7
04714:  MOVWF  x18
04716:  MOVLB  0
04718:  CALL   21D6
....................    } 
.................... } 
0471C:  GOTO   105EE (RETURN)
....................  
.................... void LeeDisplay(void){ 
....................    if(Dato_Exitoso==5){ 
*
05832:  MOVLB  2
05834:  MOVF   x9D,W
05836:  SUBLW  05
05838:  BTFSS  FD8.2
0583A:  BRA    5A1C
....................          RX_Buffer[0]=RX_Buffer2[0]; 
0583C:  MOVFF  3D,32
....................          RX_Buffer[1]=RX_Buffer2[1]; 
05840:  MOVFF  3E,33
....................          RX_Buffer[2]=RX_Buffer2[2]; 
05844:  MOVFF  3F,34
....................          RX_Buffer[3]=RX_Buffer2[3]; 
05848:  MOVFF  40,35
....................          RX_Buffer[4]=RX_Buffer2[4]; 
0584C:  MOVFF  41,36
....................          RX_Buffer[5]=RX_Buffer2[5]; 
05850:  MOVFF  42,37
....................          RX_Buffer[6]=RX_Buffer2[6]; 
05854:  MOVFF  43,38
....................          RX_Buffer[7]=RX_Buffer2[7]; 
05858:  MOVFF  44,39
....................          RX_Buffer[8]=RX_Buffer2[8]; 
0585C:  MOVFF  45,3A
....................          RX_Buffer[9]=RX_Buffer2[9]; 
05860:  MOVFF  46,3B
....................           
....................       if(RX_Buffer[3]==0x01){// Pregunta por la pagina en la que esta el display,01 es Contrasea de Acceso 
05864:  DECFSZ 35,W
05866:  BRA    5876
....................          Menu=0; 
05868:  CLRF   xA0
....................          if(MenuAntt!=Menu) 
0586A:  MOVF   xA0,W
0586C:  SUBWF  xA2,W
0586E:  BZ    5874
....................             MenuAntt=Menu; 
05870:  MOVFF  2A0,2A2
....................       }else if(RX_Buffer[3]==0x02){//02 es Ciclos Fijos 
05874:  BRA    5A1C
05876:  MOVF   35,W
05878:  SUBLW  02
0587A:  BNZ   588C
....................          Menu=1; 
0587C:  MOVLW  01
0587E:  MOVWF  xA0
....................          if(MenuAntt!=Menu) 
05880:  MOVF   xA0,W
05882:  SUBWF  xA2,W
05884:  BZ    588A
....................             MenuAntt=Menu; 
05886:  MOVFF  2A0,2A2
....................       }else if(RX_Buffer[3]==0x03){//03 es Tiempo Esterilizacion 
0588A:  BRA    5A1C
0588C:  MOVF   35,W
0588E:  SUBLW  03
05890:  BNZ   58A2
....................          Menu=2; 
05892:  MOVLW  02
05894:  MOVWF  xA0
....................          if(MenuAntt!=Menu) 
05896:  MOVF   xA0,W
05898:  SUBWF  xA2,W
0589A:  BZ    58A0
....................             MenuAntt=Menu; 
0589C:  MOVFF  2A0,2A2
....................       }else if(RX_Buffer[3]==0x04){//04 es Tiempo de Secado 
058A0:  BRA    5A1C
058A2:  MOVF   35,W
058A4:  SUBLW  04
058A6:  BNZ   58B8
....................          Menu=3; 
058A8:  MOVLW  03
058AA:  MOVWF  xA0
....................          if(MenuAntt!=Menu) 
058AC:  MOVF   xA0,W
058AE:  SUBWF  xA2,W
058B0:  BZ    58B6
....................             MenuAntt=Menu; 
058B2:  MOVFF  2A0,2A2
....................       }else if(RX_Buffer[3]==0x05){//05 es Temperatura 
058B6:  BRA    5A1C
058B8:  MOVF   35,W
058BA:  SUBLW  05
058BC:  BNZ   58CE
....................          Menu=4; 
058BE:  MOVLW  04
058C0:  MOVWF  xA0
....................          if(MenuAntt!=Menu) 
058C2:  MOVF   xA0,W
058C4:  SUBWF  xA2,W
058C6:  BZ    58CC
....................             MenuAntt=Menu; 
058C8:  MOVFF  2A0,2A2
....................       }else if(RX_Buffer[3]==0x06){//06 es Nivel de Vacio 
058CC:  BRA    5A1C
058CE:  MOVF   35,W
058D0:  SUBLW  06
058D2:  BNZ   58E4
....................          Menu=5; 
058D4:  MOVLW  05
058D6:  MOVWF  xA0
....................          if(MenuAntt!=Menu) 
058D8:  MOVF   xA0,W
058DA:  SUBWF  xA2,W
058DC:  BZ    58E2
....................             MenuAntt=Menu; 
058DE:  MOVFF  2A0,2A2
....................       }else if(RX_Buffer[3]==0x07){//07 es Test de Componentes 
058E2:  BRA    5A1C
058E4:  MOVF   35,W
058E6:  SUBLW  07
058E8:  BNZ   58FA
....................          Menu=6; 
058EA:  MOVLW  06
058EC:  MOVWF  xA0
....................          if(MenuAntt!=Menu) 
058EE:  MOVF   xA0,W
058F0:  SUBWF  xA2,W
058F2:  BZ    58F8
....................             MenuAntt=Menu; 
058F4:  MOVFF  2A0,2A2
....................       }else if(RX_Buffer[3]==0x08){//08 es Fecha y hora 
058F8:  BRA    5A1C
058FA:  MOVF   35,W
058FC:  SUBLW  08
058FE:  BNZ   5910
....................          Menu=7; 
05900:  MOVLW  07
05902:  MOVWF  xA0
....................          if(MenuAntt!=Menu) 
05904:  MOVF   xA0,W
05906:  SUBWF  xA2,W
05908:  BZ    590E
....................             MenuAntt=Menu; 
0590A:  MOVFF  2A0,2A2
....................       }else if(RX_Buffer[3]==0x09){//09 es Ciclos Personalizados 
0590E:  BRA    5A1C
05910:  MOVF   35,W
05912:  SUBLW  09
05914:  BNZ   5926
....................          Menu=8; 
05916:  MOVLW  08
05918:  MOVWF  xA0
....................          if(MenuAntt!=Menu) 
0591A:  MOVF   xA0,W
0591C:  SUBWF  xA2,W
0591E:  BZ    5924
....................             MenuAntt=Menu; 
05920:  MOVFF  2A0,2A2
....................       }else if(RX_Buffer[3]==0x0a){//0a es Pulsos de Vacio 
05924:  BRA    5A1C
05926:  MOVF   35,W
05928:  SUBLW  0A
0592A:  BNZ   593C
....................          Menu=9; 
0592C:  MOVLW  09
0592E:  MOVWF  xA0
....................          if(MenuAntt!=Menu) 
05930:  MOVF   xA0,W
05932:  SUBWF  xA2,W
05934:  BZ    593A
....................             MenuAntt=Menu; 
05936:  MOVFF  2A0,2A2
....................       }else if(RX_Buffer[3]==0x0b){//0b es Usuarios 
0593A:  BRA    5A1C
0593C:  MOVF   35,W
0593E:  SUBLW  0B
05940:  BNZ   5952
....................          Menu=10; 
05942:  MOVLW  0A
05944:  MOVWF  xA0
....................          if(MenuAntt!=Menu) 
05946:  MOVF   xA0,W
05948:  SUBWF  xA2,W
0594A:  BZ    5950
....................             MenuAntt=Menu; 
0594C:  MOVFF  2A0,2A2
....................       }else if(RX_Buffer[3]==0x0c){//0c es Configuraciones 
05950:  BRA    5A1C
05952:  MOVF   35,W
05954:  SUBLW  0C
05956:  BNZ   5968
....................          Menu=11; 
05958:  MOVLW  0B
0595A:  MOVWF  xA0
....................          if(MenuAntt!=Menu) 
0595C:  MOVF   xA0,W
0595E:  SUBWF  xA2,W
05960:  BZ    5966
....................             MenuAntt=Menu; 
05962:  MOVFF  2A0,2A2
....................       }else if(RX_Buffer[3]==0x0d){//0d es Ciclos 
05966:  BRA    5A1C
05968:  MOVF   35,W
0596A:  SUBLW  0D
0596C:  BNZ   597E
....................          Menu=12; 
0596E:  MOVLW  0C
05970:  MOVWF  xA0
....................          if(MenuAntt!=Menu) 
05972:  MOVF   xA0,W
05974:  SUBWF  xA2,W
05976:  BZ    597C
....................             MenuAntt=Menu; 
05978:  MOVFF  2A0,2A2
....................       }else if(RX_Buffer[3]==0x0e){//0d es Activacion de Ciclos 
0597C:  BRA    5A1C
0597E:  MOVF   35,W
05980:  SUBLW  0E
05982:  BNZ   5994
....................          Menu=14; 
05984:  MOVLW  0E
05986:  MOVWF  xA0
....................          if(MenuAntt!=Menu) 
05988:  MOVF   xA0,W
0598A:  SUBWF  xA2,W
0598C:  BZ    5992
....................             MenuAntt=Menu; 
0598E:  MOVFF  2A0,2A2
....................       }else if(RX_Buffer[3]==0x10){//10 es Nivel de Desfogue 
05992:  BRA    5A1C
05994:  MOVF   35,W
05996:  SUBLW  10
05998:  BNZ   59AA
....................          Menu=13; 
0599A:  MOVLW  0D
0599C:  MOVWF  xA0
....................          if(MenuAntt!=Menu) 
0599E:  MOVF   xA0,W
059A0:  SUBWF  xA2,W
059A2:  BZ    59A8
....................             MenuAntt=Menu; 
059A4:  MOVFF  2A0,2A2
....................       }else if(RX_Buffer[3]==0x0f){//0f es Recibe caracteres de contrasea desde display 
059A8:  BRA    5A1C
059AA:  MOVF   35,W
059AC:  SUBLW  0F
059AE:  BNZ   59B2
....................           
....................       }else if(RX_Buffer[3]==0x1a){//1a es Menu de Funcionamiento 
059B0:  BRA    5A1C
059B2:  MOVF   35,W
059B4:  SUBLW  1A
059B6:  BNZ   59C8
....................          Menu=20; 
059B8:  MOVLW  14
059BA:  MOVWF  xA0
....................          if(MenuAntt!=Menu) 
059BC:  MOVF   xA0,W
059BE:  SUBWF  xA2,W
059C0:  BZ    59C6
....................             MenuAntt=Menu; 
059C2:  MOVFF  2A0,2A2
....................       }else if(RX_Buffer[3]==0x1b){//1b es Menu de clave correcta 
059C6:  BRA    5A1C
059C8:  MOVF   35,W
059CA:  SUBLW  1B
059CC:  BNZ   59DE
....................          Menu=15; 
059CE:  MOVLW  0F
059D0:  MOVWF  xA0
....................          if(MenuAntt!=Menu) 
059D2:  MOVF   xA0,W
059D4:  SUBWF  xA2,W
059D6:  BZ    59DC
....................             MenuAntt=Menu; 
059D8:  MOVFF  2A0,2A2
....................       }else if(RX_Buffer[3]==0x1c){//1c es Menu de clave incorrecta 
059DC:  BRA    5A1C
059DE:  MOVF   35,W
059E0:  SUBLW  1C
059E2:  BNZ   59F4
....................          Menu=16; 
059E4:  MOVLW  10
059E6:  MOVWF  xA0
....................          if(MenuAntt!=Menu) 
059E8:  MOVF   xA0,W
059EA:  SUBWF  xA2,W
059EC:  BZ    59F2
....................             MenuAntt=Menu; 
059EE:  MOVFF  2A0,2A2
....................       }else if(RX_Buffer[3]==0x2c){//2c es Menu de Configuracion de Parametros 
059F2:  BRA    5A1C
059F4:  MOVF   35,W
059F6:  SUBLW  2C
059F8:  BNZ   5A0A
....................          Menu=100; 
059FA:  MOVLW  64
059FC:  MOVWF  xA0
....................          if(MenuAntt!=Menu) 
059FE:  MOVF   xA0,W
05A00:  SUBWF  xA2,W
05A02:  BZ    5A08
....................             MenuAntt=Menu; 
05A04:  MOVFF  2A0,2A2
....................       }else if(RX_Buffer[3]==0xcc){//cc es Menu de Bienvenida 
05A08:  BRA    5A1C
05A0A:  MOVF   35,W
05A0C:  SUBLW  CC
05A0E:  BNZ   5A1C
....................          Menu=240; 
05A10:  MOVLW  F0
05A12:  MOVWF  xA0
....................          if(MenuAntt!=240) 
05A14:  MOVF   xA2,W
05A16:  SUBLW  F0
05A18:  BZ    5A1C
....................             reset_cpu(); 
05A1A:  RESET
....................       } 
....................    } 
.................... } 
05A1C:  MOVLB  0
05A1E:  GOTO   10802 (RETURN)
....................  
.................... void ActivaAlarma(int8 Tipo){ 
....................     
....................    if(tsilencio>12000){ 
*
0614C:  MOVLB  2
0614E:  MOVF   xE1,W
06150:  SUBLW  2D
06152:  BC    6166
06154:  XORLW  FF
06156:  BNZ   615E
06158:  MOVF   xE0,W
0615A:  SUBLW  E0
0615C:  BC    6166
....................       tsilencio=0; 
0615E:  CLRF   xE1
06160:  CLRF   xE0
....................       flagSilencio=OFF; 
06162:  MOVLB  1
06164:  BCF    x2D.7
....................    } 
....................     
....................    if(Tipo==1){ // Alarma por Error 
06166:  MOVLB  7
06168:  DECFSZ x02,W
0616A:  BRA    61A0
....................        
....................       if(!flagSilencio){ 
0616C:  MOVLB  1
0616E:  BTFSC  x2D.7
06170:  BRA    6198
....................          flagAlarma=1; 
06172:  BSF    x2D.5
....................          if(tbuzzer>200){ 
06174:  MOVLB  2
06176:  MOVF   xDF,F
06178:  BNZ   6180
0617A:  MOVF   xDE,W
0617C:  SUBLW  C8
0617E:  BC    6194
....................             tbuzzer=0; 
06180:  CLRF   xDF
06182:  CLRF   xDE
....................             flagBuzzer=!flagBuzzer; 
06184:  MOVLB  1
06186:  BTG    x2D.6
....................             if(flagBuzzer) 
06188:  BTFSS  x2D.6
0618A:  BRA    6190
....................                EstadoBuzzer=ON; 
0618C:  BSF    x2D.4
....................             else 
0618E:  BRA    6192
....................                EstadoBuzzer=OFF; 
06190:  BCF    x2D.4
06192:  MOVLB  2
....................          } 
....................       }else{ 
06194:  BRA    619C
06196:  MOVLB  1
....................          EstadoBuzzer=OFF; 
06198:  BCF    x2D.4
0619A:  MOVLB  2
....................       } 
....................    }else if(Tipo==2){  
0619C:  BRA    61DA
0619E:  MOVLB  7
061A0:  MOVF   x02,W
061A2:  SUBLW  02
061A4:  BNZ   61DC
....................       flagAlarma=1; 
061A6:  MOVLB  1
061A8:  BSF    x2D.5
....................       if(ConteoBuzzer<20){    
061AA:  MOVLB  2
061AC:  MOVF   xDA,W
061AE:  SUBLW  13
061B0:  BNC   61D4
....................          if(tbuzzer>100){ 
061B2:  MOVF   xDF,F
061B4:  BNZ   61BC
061B6:  MOVF   xDE,W
061B8:  SUBLW  64
061BA:  BC    61D2
....................             tbuzzer=0; 
061BC:  CLRF   xDF
061BE:  CLRF   xDE
....................             flagBuzzer=!flagBuzzer; 
061C0:  MOVLB  1
061C2:  BTG    x2D.6
....................             if(flagBuzzer) 
061C4:  BTFSS  x2D.6
061C6:  BRA    61CC
....................                EstadoBuzzer=ON; 
061C8:  BSF    x2D.4
....................             else 
061CA:  BRA    61CE
....................                EstadoBuzzer=OFF; 
061CC:  BCF    x2D.4
....................                 
....................             ConteoBuzzer++;    
061CE:  MOVLB  2
061D0:  INCF   xDA,F
....................          } 
....................       }else{ 
061D2:  BRA    61DA
....................          EstadoBuzzer=OFF; 
061D4:  MOVLB  1
061D6:  BCF    x2D.4
061D8:  MOVLB  2
061DA:  MOVLB  7
....................       } 
....................    } 
.................... } 
061DC:  MOVLB  0
061DE:  RETLW  00
....................  
.................... void ControlaPresion(){ 
....................    if(Setpoint>125){ 
*
08A40:  MOVLB  2
08A42:  MOVF   xAF,W
08A44:  SUBLW  7D
08A46:  BC    8A76
....................       if(PresionPrecamara>=(300)){ 
08A48:  MOVF   xC4,W
08A4A:  SUBLW  00
08A4C:  BC    8A60
08A4E:  XORLW  FF
08A50:  BNZ   8A58
08A52:  MOVF   xC3,W
08A54:  SUBLW  2B
08A56:  BC    8A60
....................          suministroVapor=OFF; 
08A58:  MOVLB  1
08A5A:  BCF    x1F.1
....................          Precalentamiento=ON; 
08A5C:  BSF    x2E.7
08A5E:  MOVLB  2
....................       } 
....................       if(PresionPrecamara<(290)) 
08A60:  MOVF   xC4,W
08A62:  SUBLW  01
08A64:  BNC   8A74
08A66:  BNZ   8A6E
08A68:  MOVF   xC3,W
08A6A:  SUBLW  21
08A6C:  BNC   8A74
....................          suministroVapor=ON; 
08A6E:  MOVLB  1
08A70:  BSF    x1F.1
08A72:  MOVLB  2
....................    }else{ 
08A74:  BRA    8A98
....................       if(PresionPrecamara>=(230)){ 
08A76:  MOVF   xC4,F
08A78:  BNZ   8A80
08A7A:  MOVF   xC3,W
08A7C:  SUBLW  E5
08A7E:  BC    8A88
....................          suministroVapor=OFF; 
08A80:  MOVLB  1
08A82:  BCF    x1F.1
....................          Precalentamiento=ON; 
08A84:  BSF    x2E.7
08A86:  MOVLB  2
....................       } 
....................       if(PresionPrecamara<(220)) 
08A88:  MOVF   xC4,F
08A8A:  BNZ   8A98
08A8C:  MOVF   xC3,W
08A8E:  SUBLW  DB
08A90:  BNC   8A98
....................          suministroVapor=ON; 
08A92:  MOVLB  1
08A94:  BSF    x1F.1
08A96:  MOVLB  2
....................    } 
.................... } 
08A98:  MOVLB  0
08A9A:  RETLW  00
....................  
.................... void GuardaDatoEstatico(){ 
*
08100:  MOVLB  7
08102:  CLRF   x03
08104:  CLRF   x02
08106:  CLRF   x05
08108:  CLRF   x04
....................    int16 posCiclo=0,cicloMemoria=0; 
....................    posCiclo=Ciclos/200; 
0810A:  MOVFF  2C6,719
0810E:  MOVFF  2C5,718
08112:  CLRF   x1B
08114:  MOVLW  C8
08116:  MOVWF  x1A
08118:  MOVLB  0
0811A:  CALL   6390
0811E:  MOVFF  02,703
08122:  MOVFF  01,702
....................    cicloMemoria=Ciclos-(posCiclo*200); 
08126:  MOVFF  703,71B
0812A:  MOVFF  702,71A
0812E:  MOVLB  7
08130:  CLRF   x1D
08132:  MOVLW  C8
08134:  MOVWF  x1C
08136:  MOVLB  0
08138:  CALL   23D0
0813C:  MOVF   01,W
0813E:  MOVLB  2
08140:  SUBWF  xC5,W
08142:  MOVLB  7
08144:  MOVWF  x04
08146:  MOVF   02,W
08148:  MOVLB  2
0814A:  SUBWFB xC6,W
0814C:  MOVLB  7
0814E:  MOVWF  x05
....................    if(!disp_Guarda){ 
08150:  MOVLB  1
08152:  BTFSC  x2C.2
08154:  BRA    82FA
....................       write_ext_eeprom(cicloMemoria*320,codigoUsuario); 
08156:  MOVFF  705,71B
0815A:  MOVFF  704,71A
0815E:  MOVLW  01
08160:  MOVLB  7
08162:  MOVWF  x1D
08164:  MOVLW  40
08166:  MOVWF  x1C
08168:  MOVLB  0
0816A:  CALL   23D0
0816E:  MOVFF  02,707
08172:  MOVFF  01,706
08176:  MOVFF  02,71B
0817A:  MOVFF  01,71A
0817E:  MOVFF  302,71C
08182:  CALL   63D6
....................       delay_ms(10); 
08186:  MOVLW  0A
08188:  MOVLB  7
0818A:  MOVWF  x18
0818C:  MOVLB  0
0818E:  CALL   21D6
....................       if(!Libre) 
08192:  MOVLB  1
08194:  BTFSC  x2E.4
08196:  BRA    81D4
....................          write_ext_eeprom(1+(cicloMemoria*320),CicloSeleccionado); 
08198:  MOVFF  705,71B
0819C:  MOVFF  704,71A
081A0:  MOVLW  01
081A2:  MOVLB  7
081A4:  MOVWF  x1D
081A6:  MOVLW  40
081A8:  MOVWF  x1C
081AA:  MOVLB  0
081AC:  CALL   23D0
081B0:  MOVFF  02,03
081B4:  MOVF   01,W
081B6:  ADDLW  01
081B8:  MOVLB  7
081BA:  MOVWF  x06
081BC:  MOVLW  00
081BE:  ADDWFC 02,W
081C0:  MOVWF  x07
081C2:  MOVWF  x1B
081C4:  MOVFF  706,71A
081C8:  MOVFF  2A5,71C
081CC:  MOVLB  0
081CE:  CALL   63D6
....................       else 
081D2:  BRA    8218
....................          write_ext_eeprom(1+(cicloMemoria*320),CicloLibre+10); 
081D4:  MOVFF  705,71B
081D8:  MOVFF  704,71A
081DC:  MOVLW  01
081DE:  MOVLB  7
081E0:  MOVWF  x1D
081E2:  MOVLW  40
081E4:  MOVWF  x1C
081E6:  MOVLB  0
081E8:  CALL   23D0
081EC:  MOVFF  02,03
081F0:  MOVF   01,W
081F2:  ADDLW  01
081F4:  MOVLB  7
081F6:  MOVWF  x06
081F8:  MOVLW  00
081FA:  ADDWFC 02,W
081FC:  MOVWF  x07
081FE:  MOVLW  0A
08200:  MOVLB  2
08202:  ADDWF  x7E,W
08204:  MOVLB  7
08206:  MOVWF  x08
08208:  MOVFF  707,71B
0820C:  MOVFF  706,71A
08210:  MOVWF  x1C
08212:  MOVLB  0
08214:  CALL   63D6
....................       delay_ms(10); 
08218:  MOVLW  0A
0821A:  MOVLB  7
0821C:  MOVWF  x18
0821E:  MOVLB  0
08220:  CALL   21D6
....................       write_ext_eeprom(2+(cicloMemoria*320),Dia); 
08224:  MOVFF  705,71B
08228:  MOVFF  704,71A
0822C:  MOVLW  01
0822E:  MOVLB  7
08230:  MOVWF  x1D
08232:  MOVLW  40
08234:  MOVWF  x1C
08236:  MOVLB  0
08238:  CALL   23D0
0823C:  MOVFF  02,03
08240:  MOVF   01,W
08242:  ADDLW  02
08244:  MOVLB  7
08246:  MOVWF  x06
08248:  MOVLW  00
0824A:  ADDWFC 02,W
0824C:  MOVWF  x07
0824E:  MOVWF  x1B
08250:  MOVFF  706,71A
08254:  MOVFF  2F0,71C
08258:  MOVLB  0
0825A:  CALL   63D6
....................       delay_ms(10); 
0825E:  MOVLW  0A
08260:  MOVLB  7
08262:  MOVWF  x18
08264:  MOVLB  0
08266:  CALL   21D6
....................       write_ext_eeprom(3+(cicloMemoria*320),Mes); 
0826A:  MOVFF  705,71B
0826E:  MOVFF  704,71A
08272:  MOVLW  01
08274:  MOVLB  7
08276:  MOVWF  x1D
08278:  MOVLW  40
0827A:  MOVWF  x1C
0827C:  MOVLB  0
0827E:  CALL   23D0
08282:  MOVFF  02,03
08286:  MOVF   01,W
08288:  ADDLW  03
0828A:  MOVLB  7
0828C:  MOVWF  x06
0828E:  MOVLW  00
08290:  ADDWFC 02,W
08292:  MOVWF  x07
08294:  MOVWF  x1B
08296:  MOVFF  706,71A
0829A:  MOVFF  2EF,71C
0829E:  MOVLB  0
082A0:  CALL   63D6
....................       delay_ms(10); 
082A4:  MOVLW  0A
082A6:  MOVLB  7
082A8:  MOVWF  x18
082AA:  MOVLB  0
082AC:  CALL   21D6
....................       write_ext_eeprom(4+(cicloMemoria*320),Year); 
082B0:  MOVFF  705,71B
082B4:  MOVFF  704,71A
082B8:  MOVLW  01
082BA:  MOVLB  7
082BC:  MOVWF  x1D
082BE:  MOVLW  40
082C0:  MOVWF  x1C
082C2:  MOVLB  0
082C4:  CALL   23D0
082C8:  MOVFF  02,03
082CC:  MOVF   01,W
082CE:  ADDLW  04
082D0:  MOVLB  7
082D2:  MOVWF  x06
082D4:  MOVLW  00
082D6:  ADDWFC 02,W
082D8:  MOVWF  x07
082DA:  MOVWF  x1B
082DC:  MOVFF  706,71A
082E0:  MOVFF  2EE,71C
082E4:  MOVLB  0
082E6:  CALL   63D6
....................       delay_ms(10);  
082EA:  MOVLW  0A
082EC:  MOVLB  7
082EE:  MOVWF  x18
082F0:  MOVLB  0
082F2:  CALL   21D6
....................       disp_Guarda=1; 
082F6:  MOVLB  1
082F8:  BSF    x2C.2
....................    }    
.................... } 
082FA:  MOVLB  0
082FC:  GOTO   D0EE (RETURN)
....................  
.................... void borraDatoCiclo(){ 
*
0644A:  MOVLB  7
0644C:  CLRF   x15
0644E:  CLRF   x14
06450:  CLRF   x17
06452:  CLRF   x16
....................    int16 posCiclo=0,cicloMemoria=0; 
....................    posCiclo=Ciclos/200; 
06454:  MOVFF  2C6,719
06458:  MOVFF  2C5,718
0645C:  CLRF   x1B
0645E:  MOVLW  C8
06460:  MOVWF  x1A
06462:  MOVLB  0
06464:  RCALL  6390
06466:  MOVFF  02,715
0646A:  MOVFF  01,714
....................    cicloMemoria=Ciclos-(posCiclo*200); 
0646E:  MOVFF  715,71B
06472:  MOVFF  714,71A
06476:  MOVLB  7
06478:  CLRF   x1D
0647A:  MOVLW  C8
0647C:  MOVWF  x1C
0647E:  MOVLB  0
06480:  CALL   23D0
06484:  MOVF   01,W
06486:  MOVLB  2
06488:  SUBWF  xC5,W
0648A:  MOVLB  7
0648C:  MOVWF  x16
0648E:  MOVF   02,W
06490:  MOVLB  2
06492:  SUBWFB xC6,W
06494:  MOVLB  7
06496:  MOVWF  x17
....................    write_ext_eeprom(cicloMemoria*320,1); 
06498:  MOVFF  717,71B
0649C:  MOVFF  716,71A
064A0:  MOVLW  01
064A2:  MOVWF  x1D
064A4:  MOVLW  40
064A6:  MOVWF  x1C
064A8:  MOVLB  0
064AA:  CALL   23D0
064AE:  MOVFF  02,719
064B2:  MOVFF  01,718
064B6:  MOVFF  02,71B
064BA:  MOVFF  01,71A
064BE:  MOVLW  01
064C0:  MOVLB  7
064C2:  MOVWF  x1C
064C4:  MOVLB  0
064C6:  RCALL  63D6
....................    delay_ms(5); 
064C8:  MOVLW  05
064CA:  MOVLB  7
064CC:  MOVWF  x18
064CE:  MOVLB  0
064D0:  CALL   21D6
....................    write_ext_eeprom(1+(cicloMemoria*320),0); 
064D4:  MOVFF  717,71B
064D8:  MOVFF  716,71A
064DC:  MOVLW  01
064DE:  MOVLB  7
064E0:  MOVWF  x1D
064E2:  MOVLW  40
064E4:  MOVWF  x1C
064E6:  MOVLB  0
064E8:  CALL   23D0
064EC:  MOVFF  02,03
064F0:  MOVF   01,W
064F2:  ADDLW  01
064F4:  MOVLB  7
064F6:  MOVWF  x18
064F8:  MOVLW  00
064FA:  ADDWFC 02,W
064FC:  MOVWF  x19
064FE:  MOVWF  x1B
06500:  MOVFF  718,71A
06504:  CLRF   x1C
06506:  MOVLB  0
06508:  RCALL  63D6
....................    delay_ms(5); 
0650A:  MOVLW  05
0650C:  MOVLB  7
0650E:  MOVWF  x18
06510:  MOVLB  0
06512:  CALL   21D6
....................    write_ext_eeprom(2+(cicloMemoria*320),0); 
06516:  MOVFF  717,71B
0651A:  MOVFF  716,71A
0651E:  MOVLW  01
06520:  MOVLB  7
06522:  MOVWF  x1D
06524:  MOVLW  40
06526:  MOVWF  x1C
06528:  MOVLB  0
0652A:  CALL   23D0
0652E:  MOVFF  02,03
06532:  MOVF   01,W
06534:  ADDLW  02
06536:  MOVLB  7
06538:  MOVWF  x18
0653A:  MOVLW  00
0653C:  ADDWFC 02,W
0653E:  MOVWF  x19
06540:  MOVWF  x1B
06542:  MOVFF  718,71A
06546:  CLRF   x1C
06548:  MOVLB  0
0654A:  RCALL  63D6
....................    delay_ms(5); 
0654C:  MOVLW  05
0654E:  MOVLB  7
06550:  MOVWF  x18
06552:  MOVLB  0
06554:  CALL   21D6
....................    write_ext_eeprom(3+(cicloMemoria*320),0); 
06558:  MOVFF  717,71B
0655C:  MOVFF  716,71A
06560:  MOVLW  01
06562:  MOVLB  7
06564:  MOVWF  x1D
06566:  MOVLW  40
06568:  MOVWF  x1C
0656A:  MOVLB  0
0656C:  CALL   23D0
06570:  MOVFF  02,03
06574:  MOVF   01,W
06576:  ADDLW  03
06578:  MOVLB  7
0657A:  MOVWF  x18
0657C:  MOVLW  00
0657E:  ADDWFC 02,W
06580:  MOVWF  x19
06582:  MOVWF  x1B
06584:  MOVFF  718,71A
06588:  CLRF   x1C
0658A:  MOVLB  0
0658C:  RCALL  63D6
....................    delay_ms(5); 
0658E:  MOVLW  05
06590:  MOVLB  7
06592:  MOVWF  x18
06594:  MOVLB  0
06596:  CALL   21D6
....................    write_ext_eeprom(4+(cicloMemoria*320),0); 
0659A:  MOVFF  717,71B
0659E:  MOVFF  716,71A
065A2:  MOVLW  01
065A4:  MOVLB  7
065A6:  MOVWF  x1D
065A8:  MOVLW  40
065AA:  MOVWF  x1C
065AC:  MOVLB  0
065AE:  CALL   23D0
065B2:  MOVFF  02,03
065B6:  MOVF   01,W
065B8:  ADDLW  04
065BA:  MOVLB  7
065BC:  MOVWF  x18
065BE:  MOVLW  00
065C0:  ADDWFC 02,W
065C2:  MOVWF  x19
065C4:  MOVWF  x1B
065C6:  MOVFF  718,71A
065CA:  CLRF   x1C
065CC:  MOVLB  0
065CE:  RCALL  63D6
....................    delay_ms(5); 
065D0:  MOVLW  05
065D2:  MOVLB  7
065D4:  MOVWF  x18
065D6:  MOVLB  0
065D8:  CALL   21D6
....................    for(posicionDato=0;posicionDato<35;posicionDato++){ 
065DC:  MOVLB  2
065DE:  CLRF   xED
065E0:  CLRF   xEC
065E2:  MOVF   xED,F
065E4:  BTFSS  FD8.2
065E6:  BRA    6990
065E8:  MOVF   xEC,W
065EA:  SUBLW  22
065EC:  BTFSS  FD8.0
065EE:  BRA    6990
....................       write_ext_eeprom(5+(cicloMemoria*320)+(posicionDato*9),0); 
065F0:  MOVFF  717,71B
065F4:  MOVFF  716,71A
065F8:  MOVLW  01
065FA:  MOVLB  7
065FC:  MOVWF  x1D
065FE:  MOVLW  40
06600:  MOVWF  x1C
06602:  MOVLB  0
06604:  CALL   23D0
06608:  MOVFF  02,03
0660C:  MOVF   01,W
0660E:  ADDLW  05
06610:  MOVLB  7
06612:  MOVWF  x18
06614:  MOVLW  00
06616:  ADDWFC 02,W
06618:  MOVWF  x19
0661A:  MOVFF  2ED,71B
0661E:  MOVFF  2EC,71A
06622:  CLRF   x1D
06624:  MOVLW  09
06626:  MOVWF  x1C
06628:  MOVLB  0
0662A:  CALL   23D0
0662E:  MOVFF  02,03
06632:  MOVF   01,W
06634:  MOVLB  7
06636:  ADDWF  x18,F
06638:  MOVF   02,W
0663A:  ADDWFC x19,F
0663C:  MOVFF  719,71B
06640:  MOVFF  718,71A
06644:  CLRF   x1C
06646:  MOVLB  0
06648:  RCALL  63D6
....................       delay_ms(5); 
0664A:  MOVLW  05
0664C:  MOVLB  7
0664E:  MOVWF  x18
06650:  MOVLB  0
06652:  CALL   21D6
....................       write_ext_eeprom(6+(cicloMemoria*320)+(posicionDato*9),0); 
06656:  MOVFF  717,71B
0665A:  MOVFF  716,71A
0665E:  MOVLW  01
06660:  MOVLB  7
06662:  MOVWF  x1D
06664:  MOVLW  40
06666:  MOVWF  x1C
06668:  MOVLB  0
0666A:  CALL   23D0
0666E:  MOVFF  02,03
06672:  MOVF   01,W
06674:  ADDLW  06
06676:  MOVLB  7
06678:  MOVWF  x18
0667A:  MOVLW  00
0667C:  ADDWFC 02,W
0667E:  MOVWF  x19
06680:  MOVFF  2ED,71B
06684:  MOVFF  2EC,71A
06688:  CLRF   x1D
0668A:  MOVLW  09
0668C:  MOVWF  x1C
0668E:  MOVLB  0
06690:  CALL   23D0
06694:  MOVFF  02,03
06698:  MOVF   01,W
0669A:  MOVLB  7
0669C:  ADDWF  x18,F
0669E:  MOVF   02,W
066A0:  ADDWFC x19,F
066A2:  MOVFF  719,71B
066A6:  MOVFF  718,71A
066AA:  CLRF   x1C
066AC:  MOVLB  0
066AE:  RCALL  63D6
....................       delay_ms(5); 
066B0:  MOVLW  05
066B2:  MOVLB  7
066B4:  MOVWF  x18
066B6:  MOVLB  0
066B8:  CALL   21D6
....................       write_ext_eeprom(7+(cicloMemoria*320)+(posicionDato*9),0); 
066BC:  MOVFF  717,71B
066C0:  MOVFF  716,71A
066C4:  MOVLW  01
066C6:  MOVLB  7
066C8:  MOVWF  x1D
066CA:  MOVLW  40
066CC:  MOVWF  x1C
066CE:  MOVLB  0
066D0:  CALL   23D0
066D4:  MOVFF  02,03
066D8:  MOVF   01,W
066DA:  ADDLW  07
066DC:  MOVLB  7
066DE:  MOVWF  x18
066E0:  MOVLW  00
066E2:  ADDWFC 02,W
066E4:  MOVWF  x19
066E6:  MOVFF  2ED,71B
066EA:  MOVFF  2EC,71A
066EE:  CLRF   x1D
066F0:  MOVLW  09
066F2:  MOVWF  x1C
066F4:  MOVLB  0
066F6:  CALL   23D0
066FA:  MOVFF  02,03
066FE:  MOVF   01,W
06700:  MOVLB  7
06702:  ADDWF  x18,F
06704:  MOVF   02,W
06706:  ADDWFC x19,F
06708:  MOVFF  719,71B
0670C:  MOVFF  718,71A
06710:  CLRF   x1C
06712:  MOVLB  0
06714:  RCALL  63D6
....................       delay_ms(5); 
06716:  MOVLW  05
06718:  MOVLB  7
0671A:  MOVWF  x18
0671C:  MOVLB  0
0671E:  CALL   21D6
....................       write_ext_eeprom(8+(cicloMemoria*320)+(posicionDato*9),0); 
06722:  MOVFF  717,71B
06726:  MOVFF  716,71A
0672A:  MOVLW  01
0672C:  MOVLB  7
0672E:  MOVWF  x1D
06730:  MOVLW  40
06732:  MOVWF  x1C
06734:  MOVLB  0
06736:  CALL   23D0
0673A:  MOVFF  02,03
0673E:  MOVF   01,W
06740:  ADDLW  08
06742:  MOVLB  7
06744:  MOVWF  x18
06746:  MOVLW  00
06748:  ADDWFC 02,W
0674A:  MOVWF  x19
0674C:  MOVFF  2ED,71B
06750:  MOVFF  2EC,71A
06754:  CLRF   x1D
06756:  MOVLW  09
06758:  MOVWF  x1C
0675A:  MOVLB  0
0675C:  CALL   23D0
06760:  MOVFF  02,03
06764:  MOVF   01,W
06766:  MOVLB  7
06768:  ADDWF  x18,F
0676A:  MOVF   02,W
0676C:  ADDWFC x19,F
0676E:  MOVFF  719,71B
06772:  MOVFF  718,71A
06776:  CLRF   x1C
06778:  MOVLB  0
0677A:  RCALL  63D6
....................       delay_ms(5); 
0677C:  MOVLW  05
0677E:  MOVLB  7
06780:  MOVWF  x18
06782:  MOVLB  0
06784:  CALL   21D6
....................       write_ext_eeprom(9+(cicloMemoria*320)+(posicionDato*9),0); 
06788:  MOVFF  717,71B
0678C:  MOVFF  716,71A
06790:  MOVLW  01
06792:  MOVLB  7
06794:  MOVWF  x1D
06796:  MOVLW  40
06798:  MOVWF  x1C
0679A:  MOVLB  0
0679C:  CALL   23D0
067A0:  MOVFF  02,03
067A4:  MOVF   01,W
067A6:  ADDLW  09
067A8:  MOVLB  7
067AA:  MOVWF  x18
067AC:  MOVLW  00
067AE:  ADDWFC 02,W
067B0:  MOVWF  x19
067B2:  MOVFF  2ED,71B
067B6:  MOVFF  2EC,71A
067BA:  CLRF   x1D
067BC:  MOVLW  09
067BE:  MOVWF  x1C
067C0:  MOVLB  0
067C2:  CALL   23D0
067C6:  MOVFF  02,03
067CA:  MOVF   01,W
067CC:  MOVLB  7
067CE:  ADDWF  x18,F
067D0:  MOVF   02,W
067D2:  ADDWFC x19,F
067D4:  MOVFF  719,71B
067D8:  MOVFF  718,71A
067DC:  CLRF   x1C
067DE:  MOVLB  0
067E0:  RCALL  63D6
....................       delay_ms(5); 
067E2:  MOVLW  05
067E4:  MOVLB  7
067E6:  MOVWF  x18
067E8:  MOVLB  0
067EA:  CALL   21D6
....................       write_ext_eeprom(10+(cicloMemoria*320)+(posicionDato*9),0); 
067EE:  MOVFF  717,71B
067F2:  MOVFF  716,71A
067F6:  MOVLW  01
067F8:  MOVLB  7
067FA:  MOVWF  x1D
067FC:  MOVLW  40
067FE:  MOVWF  x1C
06800:  MOVLB  0
06802:  CALL   23D0
06806:  MOVFF  02,03
0680A:  MOVF   01,W
0680C:  ADDLW  0A
0680E:  MOVLB  7
06810:  MOVWF  x18
06812:  MOVLW  00
06814:  ADDWFC 02,W
06816:  MOVWF  x19
06818:  MOVFF  2ED,71B
0681C:  MOVFF  2EC,71A
06820:  CLRF   x1D
06822:  MOVLW  09
06824:  MOVWF  x1C
06826:  MOVLB  0
06828:  CALL   23D0
0682C:  MOVFF  02,03
06830:  MOVF   01,W
06832:  MOVLB  7
06834:  ADDWF  x18,F
06836:  MOVF   02,W
06838:  ADDWFC x19,F
0683A:  MOVFF  719,71B
0683E:  MOVFF  718,71A
06842:  CLRF   x1C
06844:  MOVLB  0
06846:  RCALL  63D6
....................       delay_ms(5); 
06848:  MOVLW  05
0684A:  MOVLB  7
0684C:  MOVWF  x18
0684E:  MOVLB  0
06850:  CALL   21D6
....................       write_ext_eeprom(11+(cicloMemoria*320)+(posicionDato*9),0); 
06854:  MOVFF  717,71B
06858:  MOVFF  716,71A
0685C:  MOVLW  01
0685E:  MOVLB  7
06860:  MOVWF  x1D
06862:  MOVLW  40
06864:  MOVWF  x1C
06866:  MOVLB  0
06868:  CALL   23D0
0686C:  MOVFF  02,03
06870:  MOVF   01,W
06872:  ADDLW  0B
06874:  MOVLB  7
06876:  MOVWF  x18
06878:  MOVLW  00
0687A:  ADDWFC 02,W
0687C:  MOVWF  x19
0687E:  MOVFF  2ED,71B
06882:  MOVFF  2EC,71A
06886:  CLRF   x1D
06888:  MOVLW  09
0688A:  MOVWF  x1C
0688C:  MOVLB  0
0688E:  CALL   23D0
06892:  MOVFF  02,03
06896:  MOVF   01,W
06898:  MOVLB  7
0689A:  ADDWF  x18,F
0689C:  MOVF   02,W
0689E:  ADDWFC x19,F
068A0:  MOVFF  719,71B
068A4:  MOVFF  718,71A
068A8:  CLRF   x1C
068AA:  MOVLB  0
068AC:  RCALL  63D6
....................       delay_ms(5); 
068AE:  MOVLW  05
068B0:  MOVLB  7
068B2:  MOVWF  x18
068B4:  MOVLB  0
068B6:  CALL   21D6
....................       write_ext_eeprom(12+(cicloMemoria*320)+(posicionDato*9),0); 
068BA:  MOVFF  717,71B
068BE:  MOVFF  716,71A
068C2:  MOVLW  01
068C4:  MOVLB  7
068C6:  MOVWF  x1D
068C8:  MOVLW  40
068CA:  MOVWF  x1C
068CC:  MOVLB  0
068CE:  CALL   23D0
068D2:  MOVFF  02,03
068D6:  MOVF   01,W
068D8:  ADDLW  0C
068DA:  MOVLB  7
068DC:  MOVWF  x18
068DE:  MOVLW  00
068E0:  ADDWFC 02,W
068E2:  MOVWF  x19
068E4:  MOVFF  2ED,71B
068E8:  MOVFF  2EC,71A
068EC:  CLRF   x1D
068EE:  MOVLW  09
068F0:  MOVWF  x1C
068F2:  MOVLB  0
068F4:  CALL   23D0
068F8:  MOVFF  02,03
068FC:  MOVF   01,W
068FE:  MOVLB  7
06900:  ADDWF  x18,F
06902:  MOVF   02,W
06904:  ADDWFC x19,F
06906:  MOVFF  719,71B
0690A:  MOVFF  718,71A
0690E:  CLRF   x1C
06910:  MOVLB  0
06912:  RCALL  63D6
....................       delay_ms(5); 
06914:  MOVLW  05
06916:  MOVLB  7
06918:  MOVWF  x18
0691A:  MOVLB  0
0691C:  CALL   21D6
....................       write_ext_eeprom(13+(cicloMemoria*320)+(posicionDato*9),0); 
06920:  MOVFF  717,71B
06924:  MOVFF  716,71A
06928:  MOVLW  01
0692A:  MOVLB  7
0692C:  MOVWF  x1D
0692E:  MOVLW  40
06930:  MOVWF  x1C
06932:  MOVLB  0
06934:  CALL   23D0
06938:  MOVFF  02,03
0693C:  MOVF   01,W
0693E:  ADDLW  0D
06940:  MOVLB  7
06942:  MOVWF  x18
06944:  MOVLW  00
06946:  ADDWFC 02,W
06948:  MOVWF  x19
0694A:  MOVFF  2ED,71B
0694E:  MOVFF  2EC,71A
06952:  CLRF   x1D
06954:  MOVLW  09
06956:  MOVWF  x1C
06958:  MOVLB  0
0695A:  CALL   23D0
0695E:  MOVFF  02,03
06962:  MOVF   01,W
06964:  MOVLB  7
06966:  ADDWF  x18,F
06968:  MOVF   02,W
0696A:  ADDWFC x19,F
0696C:  MOVFF  719,71B
06970:  MOVFF  718,71A
06974:  CLRF   x1C
06976:  MOVLB  0
06978:  RCALL  63D6
....................       delay_ms(5); 
0697A:  MOVLW  05
0697C:  MOVLB  7
0697E:  MOVWF  x18
06980:  MOVLB  0
06982:  CALL   21D6
....................    } 
06986:  MOVLB  2
06988:  INCF   xEC,F
0698A:  BTFSC  FD8.2
0698C:  INCF   xED,F
0698E:  BRA    65E2
....................    posicionDato=0; 
06990:  CLRF   xED
06992:  CLRF   xEC
.................... } 
06994:  MOVLB  0
06996:  GOTO   69FC (RETURN)
....................  
.................... void GuardaDatoCiclo(){ 
*
0854A:  MOVLB  7
0854C:  CLRF   x03
0854E:  CLRF   x02
08550:  CLRF   x05
08552:  CLRF   x04
....................    int16 posCiclo=0,cicloMemoria=0; 
....................    posCiclo=Ciclos/200; 
08554:  MOVFF  2C6,719
08558:  MOVFF  2C5,718
0855C:  CLRF   x1B
0855E:  MOVLW  C8
08560:  MOVWF  x1A
08562:  MOVLB  0
08564:  CALL   6390
08568:  MOVFF  02,703
0856C:  MOVFF  01,702
....................    if(!Ciclo){ 
08570:  MOVLB  1
08572:  BTFSC  x2C.3
08574:  BRA    89AA
....................       cicloMemoria=Ciclos-(posCiclo*200); 
08576:  MOVFF  703,71B
0857A:  MOVFF  702,71A
0857E:  MOVLB  7
08580:  CLRF   x1D
08582:  MOVLW  C8
08584:  MOVWF  x1C
08586:  MOVLB  0
08588:  CALL   23D0
0858C:  MOVF   01,W
0858E:  MOVLB  2
08590:  SUBWF  xC5,W
08592:  MOVLB  7
08594:  MOVWF  x04
08596:  MOVF   02,W
08598:  MOVLB  2
0859A:  SUBWFB xC6,W
0859C:  MOVLB  7
0859E:  MOVWF  x05
....................       write_ext_eeprom(5+(cicloMemoria*320)+(posicionDato*9),(int8)Temperatura); 
085A0:  MOVFF  705,71B
085A4:  MOVFF  704,71A
085A8:  MOVLW  01
085AA:  MOVWF  x1D
085AC:  MOVLW  40
085AE:  MOVWF  x1C
085B0:  MOVLB  0
085B2:  CALL   23D0
085B6:  MOVFF  02,03
085BA:  MOVF   01,W
085BC:  ADDLW  05
085BE:  MOVLB  7
085C0:  MOVWF  x06
085C2:  MOVLW  00
085C4:  ADDWFC 02,W
085C6:  MOVWF  x07
085C8:  MOVFF  2ED,71B
085CC:  MOVFF  2EC,71A
085D0:  CLRF   x1D
085D2:  MOVLW  09
085D4:  MOVWF  x1C
085D6:  MOVLB  0
085D8:  CALL   23D0
085DC:  MOVFF  02,03
085E0:  MOVF   01,W
085E2:  MOVLB  7
085E4:  ADDWF  x06,F
085E6:  MOVF   02,W
085E8:  ADDWFC x07,F
085EA:  MOVFF  26B,717
085EE:  MOVFF  26A,716
085F2:  MOVFF  269,715
085F6:  MOVFF  268,714
085FA:  MOVLB  0
085FC:  CALL   5424
08600:  MOVFF  01,708
08604:  MOVFF  707,71B
08608:  MOVFF  706,71A
0860C:  MOVFF  01,71C
08610:  CALL   63D6
....................       delay_ms(10); 
08614:  MOVLW  0A
08616:  MOVLB  7
08618:  MOVWF  x18
0861A:  MOVLB  0
0861C:  CALL   21D6
....................       write_ext_eeprom(6+(cicloMemoria*320)+(posicionDato*9),extraeDecimal(Temperatura)); 
08620:  MOVFF  705,71B
08624:  MOVFF  704,71A
08628:  MOVLW  01
0862A:  MOVLB  7
0862C:  MOVWF  x1D
0862E:  MOVLW  40
08630:  MOVWF  x1C
08632:  MOVLB  0
08634:  CALL   23D0
08638:  MOVFF  02,03
0863C:  MOVF   01,W
0863E:  ADDLW  06
08640:  MOVLB  7
08642:  MOVWF  x06
08644:  MOVLW  00
08646:  ADDWFC 02,W
08648:  MOVWF  x07
0864A:  MOVFF  2ED,71B
0864E:  MOVFF  2EC,71A
08652:  CLRF   x1D
08654:  MOVLW  09
08656:  MOVWF  x1C
08658:  MOVLB  0
0865A:  CALL   23D0
0865E:  MOVFF  02,03
08662:  MOVF   01,W
08664:  MOVLB  7
08666:  ADDWF  x06,F
08668:  MOVF   02,W
0866A:  ADDWFC x07,F
0866C:  MOVFF  26B,70B
08670:  MOVFF  26A,70A
08674:  MOVFF  269,709
08678:  MOVFF  268,708
0867C:  MOVLB  0
0867E:  BRA    8480
08680:  MOVFF  01,708
08684:  MOVFF  707,71B
08688:  MOVFF  706,71A
0868C:  MOVFF  01,71C
08690:  CALL   63D6
....................       delay_ms(10); 
08694:  MOVLW  0A
08696:  MOVLB  7
08698:  MOVWF  x18
0869A:  MOVLB  0
0869C:  CALL   21D6
....................       write_ext_eeprom(7+(cicloMemoria*320)+(posicionDato*9),make8(PresionCamara,1)); 
086A0:  MOVFF  705,71B
086A4:  MOVFF  704,71A
086A8:  MOVLW  01
086AA:  MOVLB  7
086AC:  MOVWF  x1D
086AE:  MOVLW  40
086B0:  MOVWF  x1C
086B2:  MOVLB  0
086B4:  CALL   23D0
086B8:  MOVFF  02,03
086BC:  MOVF   01,W
086BE:  ADDLW  07
086C0:  MOVLB  7
086C2:  MOVWF  x06
086C4:  MOVLW  00
086C6:  ADDWFC 02,W
086C8:  MOVWF  x07
086CA:  MOVFF  2ED,71B
086CE:  MOVFF  2EC,71A
086D2:  CLRF   x1D
086D4:  MOVLW  09
086D6:  MOVWF  x1C
086D8:  MOVLB  0
086DA:  CALL   23D0
086DE:  MOVFF  02,03
086E2:  MOVF   01,W
086E4:  MOVLB  7
086E6:  ADDWF  x06,F
086E8:  MOVF   02,W
086EA:  ADDWFC x07,F
086EC:  MOVFF  2C2,708
086F0:  MOVFF  707,71B
086F4:  MOVFF  706,71A
086F8:  MOVFF  2C2,71C
086FC:  MOVLB  0
086FE:  CALL   63D6
....................       delay_ms(10); 
08702:  MOVLW  0A
08704:  MOVLB  7
08706:  MOVWF  x18
08708:  MOVLB  0
0870A:  CALL   21D6
....................       write_ext_eeprom(8+(cicloMemoria*320)+(posicionDato*9),make8(PresionCamara,0)); 
0870E:  MOVFF  705,71B
08712:  MOVFF  704,71A
08716:  MOVLW  01
08718:  MOVLB  7
0871A:  MOVWF  x1D
0871C:  MOVLW  40
0871E:  MOVWF  x1C
08720:  MOVLB  0
08722:  CALL   23D0
08726:  MOVFF  02,03
0872A:  MOVF   01,W
0872C:  ADDLW  08
0872E:  MOVLB  7
08730:  MOVWF  x06
08732:  MOVLW  00
08734:  ADDWFC 02,W
08736:  MOVWF  x07
08738:  MOVFF  2ED,71B
0873C:  MOVFF  2EC,71A
08740:  CLRF   x1D
08742:  MOVLW  09
08744:  MOVWF  x1C
08746:  MOVLB  0
08748:  CALL   23D0
0874C:  MOVFF  02,03
08750:  MOVF   01,W
08752:  MOVLB  7
08754:  ADDWF  x06,F
08756:  MOVF   02,W
08758:  ADDWFC x07,F
0875A:  MOVFF  2C1,708
0875E:  MOVFF  707,71B
08762:  MOVFF  706,71A
08766:  MOVFF  2C1,71C
0876A:  MOVLB  0
0876C:  CALL   63D6
....................       delay_ms(10); 
08770:  MOVLW  0A
08772:  MOVLB  7
08774:  MOVWF  x18
08776:  MOVLB  0
08778:  CALL   21D6
....................       write_ext_eeprom(9+(cicloMemoria*320)+(posicionDato*9),make8(PresionPreCamara,1)); 
0877C:  MOVFF  705,71B
08780:  MOVFF  704,71A
08784:  MOVLW  01
08786:  MOVLB  7
08788:  MOVWF  x1D
0878A:  MOVLW  40
0878C:  MOVWF  x1C
0878E:  MOVLB  0
08790:  CALL   23D0
08794:  MOVFF  02,03
08798:  MOVF   01,W
0879A:  ADDLW  09
0879C:  MOVLB  7
0879E:  MOVWF  x06
087A0:  MOVLW  00
087A2:  ADDWFC 02,W
087A4:  MOVWF  x07
087A6:  MOVFF  2ED,71B
087AA:  MOVFF  2EC,71A
087AE:  CLRF   x1D
087B0:  MOVLW  09
087B2:  MOVWF  x1C
087B4:  MOVLB  0
087B6:  CALL   23D0
087BA:  MOVFF  02,03
087BE:  MOVF   01,W
087C0:  MOVLB  7
087C2:  ADDWF  x06,F
087C4:  MOVF   02,W
087C6:  ADDWFC x07,F
087C8:  MOVFF  2C4,708
087CC:  MOVFF  707,71B
087D0:  MOVFF  706,71A
087D4:  MOVFF  2C4,71C
087D8:  MOVLB  0
087DA:  CALL   63D6
....................       delay_ms(10); 
087DE:  MOVLW  0A
087E0:  MOVLB  7
087E2:  MOVWF  x18
087E4:  MOVLB  0
087E6:  CALL   21D6
....................       write_ext_eeprom(10+(cicloMemoria*320)+(posicionDato*9),make8(PresionPreCamara,0)); 
087EA:  MOVFF  705,71B
087EE:  MOVFF  704,71A
087F2:  MOVLW  01
087F4:  MOVLB  7
087F6:  MOVWF  x1D
087F8:  MOVLW  40
087FA:  MOVWF  x1C
087FC:  MOVLB  0
087FE:  CALL   23D0
08802:  MOVFF  02,03
08806:  MOVF   01,W
08808:  ADDLW  0A
0880A:  MOVLB  7
0880C:  MOVWF  x06
0880E:  MOVLW  00
08810:  ADDWFC 02,W
08812:  MOVWF  x07
08814:  MOVFF  2ED,71B
08818:  MOVFF  2EC,71A
0881C:  CLRF   x1D
0881E:  MOVLW  09
08820:  MOVWF  x1C
08822:  MOVLB  0
08824:  CALL   23D0
08828:  MOVFF  02,03
0882C:  MOVF   01,W
0882E:  MOVLB  7
08830:  ADDWF  x06,F
08832:  MOVF   02,W
08834:  ADDWFC x07,F
08836:  MOVFF  2C3,708
0883A:  MOVFF  707,71B
0883E:  MOVFF  706,71A
08842:  MOVFF  2C3,71C
08846:  MOVLB  0
08848:  CALL   63D6
....................       delay_ms(10); 
0884C:  MOVLW  0A
0884E:  MOVLB  7
08850:  MOVWF  x18
08852:  MOVLB  0
08854:  CALL   21D6
....................       write_ext_eeprom(11+(cicloMemoria*320)+(posicionDato*9),Hora); 
08858:  MOVFF  705,71B
0885C:  MOVFF  704,71A
08860:  MOVLW  01
08862:  MOVLB  7
08864:  MOVWF  x1D
08866:  MOVLW  40
08868:  MOVWF  x1C
0886A:  MOVLB  0
0886C:  CALL   23D0
08870:  MOVFF  02,03
08874:  MOVF   01,W
08876:  ADDLW  0B
08878:  MOVLB  7
0887A:  MOVWF  x06
0887C:  MOVLW  00
0887E:  ADDWFC 02,W
08880:  MOVWF  x07
08882:  MOVFF  2ED,71B
08886:  MOVFF  2EC,71A
0888A:  CLRF   x1D
0888C:  MOVLW  09
0888E:  MOVWF  x1C
08890:  MOVLB  0
08892:  CALL   23D0
08896:  MOVFF  02,03
0889A:  MOVF   01,W
0889C:  MOVLB  7
0889E:  ADDWF  x06,F
088A0:  MOVF   02,W
088A2:  ADDWFC x07,F
088A4:  MOVFF  707,71B
088A8:  MOVFF  706,71A
088AC:  MOVFF  2F1,71C
088B0:  MOVLB  0
088B2:  CALL   63D6
....................       delay_ms(10); 
088B6:  MOVLW  0A
088B8:  MOVLB  7
088BA:  MOVWF  x18
088BC:  MOVLB  0
088BE:  CALL   21D6
....................       write_ext_eeprom(12+(cicloMemoria*320)+(posicionDato*9),Minuto); 
088C2:  MOVFF  705,71B
088C6:  MOVFF  704,71A
088CA:  MOVLW  01
088CC:  MOVLB  7
088CE:  MOVWF  x1D
088D0:  MOVLW  40
088D2:  MOVWF  x1C
088D4:  MOVLB  0
088D6:  CALL   23D0
088DA:  MOVFF  02,03
088DE:  MOVF   01,W
088E0:  ADDLW  0C
088E2:  MOVLB  7
088E4:  MOVWF  x06
088E6:  MOVLW  00
088E8:  ADDWFC 02,W
088EA:  MOVWF  x07
088EC:  MOVFF  2ED,71B
088F0:  MOVFF  2EC,71A
088F4:  CLRF   x1D
088F6:  MOVLW  09
088F8:  MOVWF  x1C
088FA:  MOVLB  0
088FC:  CALL   23D0
08900:  MOVFF  02,03
08904:  MOVF   01,W
08906:  MOVLB  7
08908:  ADDWF  x06,F
0890A:  MOVF   02,W
0890C:  ADDWFC x07,F
0890E:  MOVFF  707,71B
08912:  MOVFF  706,71A
08916:  MOVFF  2F2,71C
0891A:  MOVLB  0
0891C:  CALL   63D6
....................       delay_ms(10); 
08920:  MOVLW  0A
08922:  MOVLB  7
08924:  MOVWF  x18
08926:  MOVLB  0
08928:  CALL   21D6
....................       write_ext_eeprom(13+(cicloMemoria*320)+(posicionDato*9),codigoAlarma); 
0892C:  MOVFF  705,71B
08930:  MOVFF  704,71A
08934:  MOVLW  01
08936:  MOVLB  7
08938:  MOVWF  x1D
0893A:  MOVLW  40
0893C:  MOVWF  x1C
0893E:  MOVLB  0
08940:  CALL   23D0
08944:  MOVFF  02,03
08948:  MOVF   01,W
0894A:  ADDLW  0D
0894C:  MOVLB  7
0894E:  MOVWF  x06
08950:  MOVLW  00
08952:  ADDWFC 02,W
08954:  MOVWF  x07
08956:  MOVFF  2ED,71B
0895A:  MOVFF  2EC,71A
0895E:  CLRF   x1D
08960:  MOVLW  09
08962:  MOVWF  x1C
08964:  MOVLB  0
08966:  CALL   23D0
0896A:  MOVFF  02,03
0896E:  MOVF   01,W
08970:  MOVLB  7
08972:  ADDWF  x06,F
08974:  MOVF   02,W
08976:  ADDWFC x07,F
08978:  MOVFF  707,71B
0897C:  MOVFF  706,71A
08980:  MOVFF  2DB,71C
08984:  MOVLB  0
08986:  CALL   63D6
....................       delay_ms(10); 
0898A:  MOVLW  0A
0898C:  MOVLB  7
0898E:  MOVWF  x18
08990:  MOVLB  0
08992:  CALL   21D6
....................     
....................       if(posicionDato<35) 
08996:  MOVLB  2
08998:  MOVF   xED,F
0899A:  BNZ   89A8
0899C:  MOVF   xEC,W
0899E:  SUBLW  22
089A0:  BNC   89A8
....................          ++posicionDato; 
089A2:  INCF   xEC,F
089A4:  BTFSC  FD8.2
089A6:  INCF   xED,F
089A8:  MOVLB  1
....................    } 
.................... } 
089AA:  MOVLB  0
089AC:  RETLW  00
....................  
.................... void incrementaCiclos(){ 
....................    if(!Ciclo){ 
089AE:  MOVLB  1
089B0:  BTFSC  x2C.3
089B2:  BRA    8A3C
....................       Ciclo=ON; 
089B4:  BSF    x2C.3
....................       Ciclos++; 
089B6:  MOVLB  2
089B8:  INCF   xC5,F
089BA:  BTFSC  FD8.2
089BC:  INCF   xC6,F
....................       CiclosL=make8(Ciclos,0); 
089BE:  MOVFF  2C5,2A3
....................       CiclosH=make8(Ciclos,1); 
089C2:  MOVFF  2C6,2A4
....................       write_eeprom(37,CiclosL); 
089C6:  CLRF   FAA
089C8:  MOVLW  25
089CA:  MOVWF  FA9
089CC:  MOVFF  2A3,FA8
089D0:  BCF    FA6.6
089D2:  BCF    FA6.7
089D4:  BSF    FA6.2
089D6:  MOVF   FF2,W
089D8:  MOVWF  00
089DA:  BCF    FF2.6
089DC:  BCF    FF2.7
089DE:  MOVLB  F
089E0:  MOVLW  55
089E2:  MOVWF  FA7
089E4:  MOVLW  AA
089E6:  MOVWF  FA7
089E8:  BSF    FA6.1
089EA:  BTFSC  FA6.1
089EC:  BRA    89EA
089EE:  BCF    FA6.2
089F0:  MOVF   00,W
089F2:  IORWF  FF2,F
....................       delay_ms(20); 
089F4:  MOVLW  14
089F6:  MOVLB  7
089F8:  MOVWF  x18
089FA:  MOVLB  0
089FC:  CALL   21D6
....................       write_eeprom(38,CiclosH); 
08A00:  CLRF   FAA
08A02:  MOVLW  26
08A04:  MOVWF  FA9
08A06:  MOVFF  2A4,FA8
08A0A:  BCF    FA6.6
08A0C:  BCF    FA6.7
08A0E:  BSF    FA6.2
08A10:  MOVF   FF2,W
08A12:  MOVWF  00
08A14:  BCF    FF2.6
08A16:  BCF    FF2.7
08A18:  MOVLB  F
08A1A:  MOVLW  55
08A1C:  MOVWF  FA7
08A1E:  MOVLW  AA
08A20:  MOVWF  FA7
08A22:  BSF    FA6.1
08A24:  BTFSC  FA6.1
08A26:  BRA    8A24
08A28:  BCF    FA6.2
08A2A:  MOVF   00,W
08A2C:  IORWF  FF2,F
....................       delay_ms(20); 
08A2E:  MOVLW  14
08A30:  MOVLB  7
08A32:  MOVWF  x18
08A34:  MOVLB  0
08A36:  CALL   21D6
08A3A:  MOVLB  1
....................    } 
.................... } 
08A3C:  MOVLB  0
08A3E:  RETLW  00
....................  
.................... void exportarData(){ 
*
06F0C:  MOVLB  7
06F0E:  CLRF   x03
06F10:  CLRF   x02
06F12:  CLRF   x04
.................... int16 posicion=0; 
.................... int8 tmp=0; 
.................... posicion=40; 
06F14:  CLRF   x03
06F16:  MOVLW  28
06F18:  MOVWF  x02
.................... direccion=0xB0; 
06F1A:  MOVLW  B0
06F1C:  MOVLB  1
06F1E:  MOVWF  x05
.................... //Buzzer_on; 
.................... //Inicio de Transmision 
.................... i2c_start();            // Comienzo comunicacin 
06F20:  BSF    F94.4
06F22:  MOVLW  05
06F24:  MOVWF  00
06F26:  DECFSZ 00,F
06F28:  BRA    6F26
06F2A:  BSF    F94.3
06F2C:  MOVLW  06
06F2E:  MOVWF  00
06F30:  DECFSZ 00,F
06F32:  BRA    6F30
06F34:  BCF    F8B.4
06F36:  BCF    F94.4
06F38:  MOVLW  05
06F3A:  MOVWF  00
06F3C:  DECFSZ 00,F
06F3E:  BRA    6F3C
06F40:  BCF    F8B.3
06F42:  BCF    F94.3
.................... i2c_write(direccion);   // Direccin del esclavo en el bus I2C 
06F44:  MOVFF  105,720
06F48:  MOVLB  0
06F4A:  CALL   23F2
.................... i2c_write(make8(posicion,0));    // Posicin donde se guardara el dato transmitido 
06F4E:  MOVFF  702,705
06F52:  MOVFF  702,720
06F56:  CALL   23F2
.................... i2c_write(make8(posicion,1));    // Posicin donde se guardara el dato transmitido 
06F5A:  MOVFF  703,705
06F5E:  MOVFF  703,720
06F62:  CALL   23F2
.................... i2c_write(0xff);        // Dato a transmitir 
06F66:  MOVLW  FF
06F68:  MOVLB  7
06F6A:  MOVWF  x20
06F6C:  MOVLB  0
06F6E:  CALL   23F2
.................... i2c_stop(); 
06F72:  BCF    F94.4
06F74:  NOP   
06F76:  BSF    F94.3
06F78:  BTFSS  F82.3
06F7A:  BRA    6F78
06F7C:  MOVLW  05
06F7E:  MOVWF  00
06F80:  DECFSZ 00,F
06F82:  BRA    6F80
06F84:  BRA    6F86
06F86:  NOP   
06F88:  BSF    F94.4
06F8A:  MOVLW  05
06F8C:  MOVWF  00
06F8E:  DECFSZ 00,F
06F90:  BRA    6F8E
.................... ++posicion; 
06F92:  MOVLB  7
06F94:  INCF   x02,F
06F96:  BTFSC  FD8.2
06F98:  INCF   x03,F
.................... i2c_start();            // Comienzo comunicacin 
06F9A:  BSF    F94.4
06F9C:  MOVLW  05
06F9E:  MOVWF  00
06FA0:  DECFSZ 00,F
06FA2:  BRA    6FA0
06FA4:  BSF    F94.3
06FA6:  MOVLW  06
06FA8:  MOVWF  00
06FAA:  DECFSZ 00,F
06FAC:  BRA    6FAA
06FAE:  BCF    F8B.4
06FB0:  BCF    F94.4
06FB2:  MOVLW  05
06FB4:  MOVWF  00
06FB6:  DECFSZ 00,F
06FB8:  BRA    6FB6
06FBA:  BCF    F8B.3
06FBC:  BCF    F94.3
.................... i2c_write(direccion);   // Direccin del esclavo en el bus I2C 
06FBE:  MOVFF  105,720
06FC2:  MOVLB  0
06FC4:  CALL   23F2
.................... i2c_write(make8(posicion,0));    // Posicin donde se guardara el dato transmitido 
06FC8:  MOVFF  702,705
06FCC:  MOVFF  702,720
06FD0:  CALL   23F2
.................... i2c_write(make8(posicion,1));    // Posicin donde se guardara el dato transmitido 
06FD4:  MOVFF  703,705
06FD8:  MOVFF  703,720
06FDC:  CALL   23F2
.................... i2c_write(0xff);        // Dato a transmitir 
06FE0:  MOVLW  FF
06FE2:  MOVLB  7
06FE4:  MOVWF  x20
06FE6:  MOVLB  0
06FE8:  CALL   23F2
.................... i2c_stop(); 
06FEC:  BCF    F94.4
06FEE:  NOP   
06FF0:  BSF    F94.3
06FF2:  BTFSS  F82.3
06FF4:  BRA    6FF2
06FF6:  MOVLW  05
06FF8:  MOVWF  00
06FFA:  DECFSZ 00,F
06FFC:  BRA    6FFA
06FFE:  BRA    7000
07000:  NOP   
07002:  BSF    F94.4
07004:  MOVLW  05
07006:  MOVWF  00
07008:  DECFSZ 00,F
0700A:  BRA    7008
.................... ++posicion; 
0700C:  MOVLB  7
0700E:  INCF   x02,F
07010:  BTFSC  FD8.2
07012:  INCF   x03,F
.................... //Se envian 2 veces ff para indicar que se inicia la transmision. 
....................  
....................    for(i=0;i<5;i++){ 
07014:  MOVLB  2
07016:  CLRF   xEB
07018:  CLRF   xEA
0701A:  MOVF   xEB,F
0701C:  BNZ   70E4
0701E:  MOVF   xEA,W
07020:  SUBLW  04
07022:  BNC   70E4
....................       tmp=read_ext_eeprom((cicloVisto*320)+i); 
07024:  MOVFF  2E7,71B
07028:  MOVFF  2E6,71A
0702C:  MOVLW  01
0702E:  MOVLB  7
07030:  MOVWF  x1D
07032:  MOVLW  40
07034:  MOVWF  x1C
07036:  MOVLB  0
07038:  CALL   23D0
0703C:  MOVFF  02,706
07040:  MOVFF  01,705
07044:  MOVLB  2
07046:  MOVF   xEA,W
07048:  MOVLB  7
0704A:  ADDWF  x05,F
0704C:  MOVLB  2
0704E:  MOVF   xEB,W
07050:  MOVLB  7
07052:  ADDWFC x06,F
07054:  MOVFF  706,708
07058:  MOVFF  705,707
0705C:  MOVLB  0
0705E:  CALL   24D2
07062:  MOVFF  01,704
....................       //if(tmp>250) 
....................       //   tmp=20; 
....................       i2c_start();            // Comienzo comunicacin 
07066:  BSF    F94.4
07068:  MOVLW  05
0706A:  MOVWF  00
0706C:  DECFSZ 00,F
0706E:  BRA    706C
07070:  BSF    F94.3
07072:  MOVLW  06
07074:  MOVWF  00
07076:  DECFSZ 00,F
07078:  BRA    7076
0707A:  BCF    F8B.4
0707C:  BCF    F94.4
0707E:  MOVLW  05
07080:  MOVWF  00
07082:  DECFSZ 00,F
07084:  BRA    7082
07086:  BCF    F8B.3
07088:  BCF    F94.3
....................       i2c_write(direccion);   // Direccin del esclavo en el bus I2C 
0708A:  MOVFF  105,720
0708E:  CALL   23F2
....................       i2c_write(make8(posicion,0));    // Posicin donde se guardara el dato transmitido 
07092:  MOVFF  702,705
07096:  MOVFF  702,720
0709A:  CALL   23F2
....................       i2c_write(make8(posicion,1));    // Posicin donde se guardara el dato transmitido 
0709E:  MOVFF  703,705
070A2:  MOVFF  703,720
070A6:  CALL   23F2
....................       i2c_write(tmp);        // Dato a transmitir 
070AA:  MOVFF  704,720
070AE:  CALL   23F2
....................       i2c_stop();  
070B2:  BCF    F94.4
070B4:  NOP   
070B6:  BSF    F94.3
070B8:  BTFSS  F82.3
070BA:  BRA    70B8
070BC:  MOVLW  05
070BE:  MOVWF  00
070C0:  DECFSZ 00,F
070C2:  BRA    70C0
070C4:  BRA    70C6
070C6:  NOP   
070C8:  BSF    F94.4
070CA:  MOVLW  05
070CC:  MOVWF  00
070CE:  DECFSZ 00,F
070D0:  BRA    70CE
....................       ++posicion; 
070D2:  MOVLB  7
070D4:  INCF   x02,F
070D6:  BTFSC  FD8.2
070D8:  INCF   x03,F
....................    } 
070DA:  MOVLB  2
070DC:  INCF   xEA,F
070DE:  BTFSC  FD8.2
070E0:  INCF   xEB,F
070E2:  BRA    701A
....................    for(i=0;i<35;i++){//Lee Valores para completar la Tabla 
070E4:  CLRF   xEB
070E6:  CLRF   xEA
070E8:  MOVF   xEB,F
070EA:  BTFSS  FD8.2
070EC:  BRA    71F0
070EE:  MOVF   xEA,W
070F0:  SUBLW  22
070F2:  BTFSS  FD8.0
070F4:  BRA    71F0
....................       for(j=5;j<14;j++){//Lee Valores para completar la Tabla 
070F6:  CLRF   xE9
070F8:  MOVLW  05
070FA:  MOVWF  xE8
070FC:  MOVF   xE9,F
070FE:  BNZ   71E8
07100:  MOVF   xE8,W
07102:  SUBLW  0D
07104:  BNC   71E8
....................          tmp=read_ext_eeprom((cicloVisto*320)+j+(i*9)); 
07106:  MOVFF  2E7,71B
0710A:  MOVFF  2E6,71A
0710E:  MOVLW  01
07110:  MOVLB  7
07112:  MOVWF  x1D
07114:  MOVLW  40
07116:  MOVWF  x1C
07118:  MOVLB  0
0711A:  CALL   23D0
0711E:  MOVFF  02,706
07122:  MOVFF  01,705
07126:  MOVLB  2
07128:  MOVF   xE8,W
0712A:  MOVLB  7
0712C:  ADDWF  x05,F
0712E:  MOVLB  2
07130:  MOVF   xE9,W
07132:  MOVLB  7
07134:  ADDWFC x06,F
07136:  MOVFF  2EB,71B
0713A:  MOVFF  2EA,71A
0713E:  CLRF   x1D
07140:  MOVLW  09
07142:  MOVWF  x1C
07144:  MOVLB  0
07146:  CALL   23D0
0714A:  MOVFF  02,03
0714E:  MOVF   01,W
07150:  MOVLB  7
07152:  ADDWF  x05,F
07154:  MOVF   02,W
07156:  ADDWFC x06,F
07158:  MOVFF  706,708
0715C:  MOVFF  705,707
07160:  MOVLB  0
07162:  CALL   24D2
07166:  MOVFF  01,704
....................          //if(tmp>250) 
....................          //   tmp=20; 
....................          i2c_start();            // Comienzo comunicacin 
0716A:  BSF    F94.4
0716C:  MOVLW  05
0716E:  MOVWF  00
07170:  DECFSZ 00,F
07172:  BRA    7170
07174:  BSF    F94.3
07176:  MOVLW  06
07178:  MOVWF  00
0717A:  DECFSZ 00,F
0717C:  BRA    717A
0717E:  BCF    F8B.4
07180:  BCF    F94.4
07182:  MOVLW  05
07184:  MOVWF  00
07186:  DECFSZ 00,F
07188:  BRA    7186
0718A:  BCF    F8B.3
0718C:  BCF    F94.3
....................          i2c_write(direccion);   // Direccin del esclavo en el bus I2C 
0718E:  MOVFF  105,720
07192:  CALL   23F2
....................          i2c_write(make8(posicion,0));    // Posicin donde se guardara el dato transmitido 
07196:  MOVFF  702,705
0719A:  MOVFF  702,720
0719E:  CALL   23F2
....................          i2c_write(make8(posicion,1));    // Posicin donde se guardara el dato transmitido 
071A2:  MOVFF  703,705
071A6:  MOVFF  703,720
071AA:  CALL   23F2
....................          i2c_write(tmp);        // Dato a transmitir 
071AE:  MOVFF  704,720
071B2:  CALL   23F2
....................          i2c_stop();  
071B6:  BCF    F94.4
071B8:  NOP   
071BA:  BSF    F94.3
071BC:  BTFSS  F82.3
071BE:  BRA    71BC
071C0:  MOVLW  05
071C2:  MOVWF  00
071C4:  DECFSZ 00,F
071C6:  BRA    71C4
071C8:  BRA    71CA
071CA:  NOP   
071CC:  BSF    F94.4
071CE:  MOVLW  05
071D0:  MOVWF  00
071D2:  DECFSZ 00,F
071D4:  BRA    71D2
....................          ++posicion; 
071D6:  MOVLB  7
071D8:  INCF   x02,F
071DA:  BTFSC  FD8.2
071DC:  INCF   x03,F
....................       } 
071DE:  MOVLB  2
071E0:  INCF   xE8,F
071E2:  BTFSC  FD8.2
071E4:  INCF   xE9,F
071E6:  BRA    70FC
....................    } 
071E8:  INCF   xEA,F
071EA:  BTFSC  FD8.2
071EC:  INCF   xEB,F
071EE:  BRA    70E8
....................  
.................... //Fin de Transmision 
.................... i2c_start();            // Comienzo comunicacin 
071F0:  BSF    F94.4
071F2:  MOVLW  05
071F4:  MOVWF  00
071F6:  DECFSZ 00,F
071F8:  BRA    71F6
071FA:  BSF    F94.3
071FC:  MOVLW  06
071FE:  MOVWF  00
07200:  DECFSZ 00,F
07202:  BRA    7200
07204:  BCF    F8B.4
07206:  BCF    F94.4
07208:  MOVLW  05
0720A:  MOVWF  00
0720C:  DECFSZ 00,F
0720E:  BRA    720C
07210:  BCF    F8B.3
07212:  BCF    F94.3
.................... i2c_write(direccion);   // Direccin del esclavo en el bus I2C 
07214:  MOVFF  105,720
07218:  MOVLB  0
0721A:  CALL   23F2
.................... i2c_write(make8(posicion,0));    // Posicin donde se guardara el dato transmitido 
0721E:  MOVFF  702,705
07222:  MOVFF  702,720
07226:  CALL   23F2
.................... i2c_write(make8(posicion,1));    // Posicin donde se guardara el dato transmitido 
0722A:  MOVFF  703,705
0722E:  MOVFF  703,720
07232:  CALL   23F2
.................... i2c_write(0x1f);        // Dato a transmitir 
07236:  MOVLW  1F
07238:  MOVLB  7
0723A:  MOVWF  x20
0723C:  MOVLB  0
0723E:  CALL   23F2
.................... i2c_stop(); 
07242:  BCF    F94.4
07244:  NOP   
07246:  BSF    F94.3
07248:  BTFSS  F82.3
0724A:  BRA    7248
0724C:  MOVLW  05
0724E:  MOVWF  00
07250:  DECFSZ 00,F
07252:  BRA    7250
07254:  BRA    7256
07256:  NOP   
07258:  BSF    F94.4
0725A:  MOVLW  05
0725C:  MOVWF  00
0725E:  DECFSZ 00,F
07260:  BRA    725E
.................... ++posicion; 
07262:  MOVLB  7
07264:  INCF   x02,F
07266:  BTFSC  FD8.2
07268:  INCF   x03,F
.................... i2c_start();            // Comienzo comunicacin 
0726A:  BSF    F94.4
0726C:  MOVLW  05
0726E:  MOVWF  00
07270:  DECFSZ 00,F
07272:  BRA    7270
07274:  BSF    F94.3
07276:  MOVLW  06
07278:  MOVWF  00
0727A:  DECFSZ 00,F
0727C:  BRA    727A
0727E:  BCF    F8B.4
07280:  BCF    F94.4
07282:  MOVLW  05
07284:  MOVWF  00
07286:  DECFSZ 00,F
07288:  BRA    7286
0728A:  BCF    F8B.3
0728C:  BCF    F94.3
.................... i2c_write(direccion);   // Direccin del esclavo en el bus I2C 
0728E:  MOVFF  105,720
07292:  MOVLB  0
07294:  CALL   23F2
.................... i2c_write(make8(posicion,0));    // Posicin donde se guardara el dato transmitido 
07298:  MOVFF  702,705
0729C:  MOVFF  702,720
072A0:  CALL   23F2
.................... i2c_write(make8(posicion,1));    // Posicin donde se guardara el dato transmitido 
072A4:  MOVFF  703,705
072A8:  MOVFF  703,720
072AC:  CALL   23F2
.................... i2c_write(0x1f);        // Dato a transmitir 
072B0:  MOVLW  1F
072B2:  MOVLB  7
072B4:  MOVWF  x20
072B6:  MOVLB  0
072B8:  CALL   23F2
.................... i2c_stop(); 
072BC:  BCF    F94.4
072BE:  NOP   
072C0:  BSF    F94.3
072C2:  BTFSS  F82.3
072C4:  BRA    72C2
072C6:  MOVLW  05
072C8:  MOVWF  00
072CA:  DECFSZ 00,F
072CC:  BRA    72CA
072CE:  BRA    72D0
072D0:  NOP   
072D2:  BSF    F94.4
072D4:  MOVLW  05
072D6:  MOVWF  00
072D8:  DECFSZ 00,F
072DA:  BRA    72D8
.................... ++posicion; 
072DC:  MOVLB  7
072DE:  INCF   x02,F
072E0:  BTFSC  FD8.2
072E2:  INCF   x03,F
.................... //Se envian 2 veces 1f para indicar que se inicia la transmision. 
.................... delay_ms(200); 
072E4:  MOVLW  C8
072E6:  MOVWF  x18
072E8:  MOVLB  0
072EA:  CALL   21D6
.................... //Buzzer_off; 
.................... } 
072EE:  GOTO   C79E (RETURN)
....................  
.................... void codificaAlarma(){ 
....................    if(ACiclos[i]==0){ 
*
07B1E:  MOVLW  62
07B20:  MOVLB  2
07B22:  ADDWF  xEA,W
07B24:  MOVWF  FE9
07B26:  MOVLW  03
07B28:  ADDWFC xEB,W
07B2A:  MOVWF  FEA
07B2C:  MOVF   FEF,F
07B2E:  BNZ   7B7C
....................       printf("A%Lu.txt=\"----\"",i+1); 
07B30:  MOVLW  01
07B32:  ADDWF  xEA,W
07B34:  MOVLB  7
07B36:  MOVWF  x02
07B38:  MOVLW  00
07B3A:  MOVLB  2
07B3C:  ADDWFC xEB,W
07B3E:  MOVLB  7
07B40:  MOVWF  x03
07B42:  MOVLW  41
07B44:  BTFSS  F9E.4
07B46:  BRA    7B44
07B48:  MOVWF  FAD
07B4A:  MOVLW  10
07B4C:  MOVWF  FE9
07B4E:  MOVFF  703,709
07B52:  MOVFF  702,708
07B56:  MOVLB  0
07B58:  CALL   6A22
07B5C:  MOVLW  08
07B5E:  MOVWF  FF6
07B60:  MOVLW  04
07B62:  MOVWF  FF7
07B64:  MOVLW  00
07B66:  MOVWF  FF8
07B68:  MOVLW  0B
07B6A:  MOVLB  7
07B6C:  MOVWF  x08
07B6E:  MOVLB  0
07B70:  CALL   628E
....................       SendDataDisplay(); 
07B74:  CALL   4752
....................    }else if(ACiclos[i]==1){ 
07B78:  BRA    80F8
07B7A:  MOVLB  2
07B7C:  MOVLW  62
07B7E:  ADDWF  xEA,W
07B80:  MOVWF  FE9
07B82:  MOVLW  03
07B84:  ADDWFC xEB,W
07B86:  MOVWF  FEA
07B88:  DECFSZ FEF,W
07B8A:  BRA    7BD8
....................       printf("A%Lu.txt=\"Parada\"",i+1); 
07B8C:  MOVLW  01
07B8E:  ADDWF  xEA,W
07B90:  MOVLB  7
07B92:  MOVWF  x02
07B94:  MOVLW  00
07B96:  MOVLB  2
07B98:  ADDWFC xEB,W
07B9A:  MOVLB  7
07B9C:  MOVWF  x03
07B9E:  MOVLW  41
07BA0:  BTFSS  F9E.4
07BA2:  BRA    7BA0
07BA4:  MOVWF  FAD
07BA6:  MOVLW  10
07BA8:  MOVWF  FE9
07BAA:  MOVFF  703,709
07BAE:  MOVFF  702,708
07BB2:  MOVLB  0
07BB4:  CALL   6A22
07BB8:  MOVLW  18
07BBA:  MOVWF  FF6
07BBC:  MOVLW  04
07BBE:  MOVWF  FF7
07BC0:  MOVLW  00
07BC2:  MOVWF  FF8
07BC4:  MOVLW  0D
07BC6:  MOVLB  7
07BC8:  MOVWF  x08
07BCA:  MOVLB  0
07BCC:  CALL   628E
....................       SendDataDisplay(); 
07BD0:  CALL   4752
....................    }else if(ACiclos[i]==2){ 
07BD4:  BRA    80F8
07BD6:  MOVLB  2
07BD8:  MOVLW  62
07BDA:  ADDWF  xEA,W
07BDC:  MOVWF  FE9
07BDE:  MOVLW  03
07BE0:  ADDWFC xEB,W
07BE2:  MOVWF  FEA
07BE4:  MOVF   FEF,W
07BE6:  SUBLW  02
07BE8:  BNZ   7C36
....................       printf("A%Lu.txt=\"Puerta\"",i+1); 
07BEA:  MOVLW  01
07BEC:  ADDWF  xEA,W
07BEE:  MOVLB  7
07BF0:  MOVWF  x02
07BF2:  MOVLW  00
07BF4:  MOVLB  2
07BF6:  ADDWFC xEB,W
07BF8:  MOVLB  7
07BFA:  MOVWF  x03
07BFC:  MOVLW  41
07BFE:  BTFSS  F9E.4
07C00:  BRA    7BFE
07C02:  MOVWF  FAD
07C04:  MOVLW  10
07C06:  MOVWF  FE9
07C08:  MOVFF  703,709
07C0C:  MOVFF  702,708
07C10:  MOVLB  0
07C12:  CALL   6A22
07C16:  MOVLW  2A
07C18:  MOVWF  FF6
07C1A:  MOVLW  04
07C1C:  MOVWF  FF7
07C1E:  MOVLW  00
07C20:  MOVWF  FF8
07C22:  MOVLW  0D
07C24:  MOVLB  7
07C26:  MOVWF  x08
07C28:  MOVLB  0
07C2A:  CALL   628E
....................       SendDataDisplay(); 
07C2E:  CALL   4752
....................    }else if(ACiclos[i]==3){ 
07C32:  BRA    80F8
07C34:  MOVLB  2
07C36:  MOVLW  62
07C38:  ADDWF  xEA,W
07C3A:  MOVWF  FE9
07C3C:  MOVLW  03
07C3E:  ADDWFC xEB,W
07C40:  MOVWF  FEA
07C42:  MOVF   FEF,W
07C44:  SUBLW  03
07C46:  BNZ   7C94
....................       printf("A%Lu.txt=\"Termostato\"",i+1); 
07C48:  MOVLW  01
07C4A:  ADDWF  xEA,W
07C4C:  MOVLB  7
07C4E:  MOVWF  x02
07C50:  MOVLW  00
07C52:  MOVLB  2
07C54:  ADDWFC xEB,W
07C56:  MOVLB  7
07C58:  MOVWF  x03
07C5A:  MOVLW  41
07C5C:  BTFSS  F9E.4
07C5E:  BRA    7C5C
07C60:  MOVWF  FAD
07C62:  MOVLW  10
07C64:  MOVWF  FE9
07C66:  MOVFF  703,709
07C6A:  MOVFF  702,708
07C6E:  MOVLB  0
07C70:  CALL   6A22
07C74:  MOVLW  3C
07C76:  MOVWF  FF6
07C78:  MOVLW  04
07C7A:  MOVWF  FF7
07C7C:  MOVLW  00
07C7E:  MOVWF  FF8
07C80:  MOVLW  11
07C82:  MOVLB  7
07C84:  MOVWF  x08
07C86:  MOVLB  0
07C88:  CALL   628E
....................       SendDataDisplay(); 
07C8C:  CALL   4752
....................    }else if(ACiclos[i]==4){ 
07C90:  BRA    80F8
07C92:  MOVLB  2
07C94:  MOVLW  62
07C96:  ADDWF  xEA,W
07C98:  MOVWF  FE9
07C9A:  MOVLW  03
07C9C:  ADDWFC xEB,W
07C9E:  MOVWF  FEA
07CA0:  MOVF   FEF,W
07CA2:  SUBLW  04
07CA4:  BNZ   7CF2
....................       printf("A%Lu.txt=\"SobreT\"",i+1); 
07CA6:  MOVLW  01
07CA8:  ADDWF  xEA,W
07CAA:  MOVLB  7
07CAC:  MOVWF  x02
07CAE:  MOVLW  00
07CB0:  MOVLB  2
07CB2:  ADDWFC xEB,W
07CB4:  MOVLB  7
07CB6:  MOVWF  x03
07CB8:  MOVLW  41
07CBA:  BTFSS  F9E.4
07CBC:  BRA    7CBA
07CBE:  MOVWF  FAD
07CC0:  MOVLW  10
07CC2:  MOVWF  FE9
07CC4:  MOVFF  703,709
07CC8:  MOVFF  702,708
07CCC:  MOVLB  0
07CCE:  CALL   6A22
07CD2:  MOVLW  52
07CD4:  MOVWF  FF6
07CD6:  MOVLW  04
07CD8:  MOVWF  FF7
07CDA:  MOVLW  00
07CDC:  MOVWF  FF8
07CDE:  MOVLW  0D
07CE0:  MOVLB  7
07CE2:  MOVWF  x08
07CE4:  MOVLB  0
07CE6:  CALL   628E
....................       SendDataDisplay(); 
07CEA:  CALL   4752
....................    }else if(ACiclos[i]==5){ 
07CEE:  BRA    80F8
07CF0:  MOVLB  2
07CF2:  MOVLW  62
07CF4:  ADDWF  xEA,W
07CF6:  MOVWF  FE9
07CF8:  MOVLW  03
07CFA:  ADDWFC xEB,W
07CFC:  MOVWF  FEA
07CFE:  MOVF   FEF,W
07D00:  SUBLW  05
07D02:  BNZ   7D50
....................       printf("A%Lu.txt=\"Tiempo\"",i+1); 
07D04:  MOVLW  01
07D06:  ADDWF  xEA,W
07D08:  MOVLB  7
07D0A:  MOVWF  x02
07D0C:  MOVLW  00
07D0E:  MOVLB  2
07D10:  ADDWFC xEB,W
07D12:  MOVLB  7
07D14:  MOVWF  x03
07D16:  MOVLW  41
07D18:  BTFSS  F9E.4
07D1A:  BRA    7D18
07D1C:  MOVWF  FAD
07D1E:  MOVLW  10
07D20:  MOVWF  FE9
07D22:  MOVFF  703,709
07D26:  MOVFF  702,708
07D2A:  MOVLB  0
07D2C:  CALL   6A22
07D30:  MOVLW  64
07D32:  MOVWF  FF6
07D34:  MOVLW  04
07D36:  MOVWF  FF7
07D38:  MOVLW  00
07D3A:  MOVWF  FF8
07D3C:  MOVLW  0D
07D3E:  MOVLB  7
07D40:  MOVWF  x08
07D42:  MOVLB  0
07D44:  CALL   628E
....................       SendDataDisplay(); 
07D48:  CALL   4752
....................    }else if(ACiclos[i]==6){ 
07D4C:  BRA    80F8
07D4E:  MOVLB  2
07D50:  MOVLW  62
07D52:  ADDWF  xEA,W
07D54:  MOVWF  FE9
07D56:  MOVLW  03
07D58:  ADDWFC xEB,W
07D5A:  MOVWF  FEA
07D5C:  MOVF   FEF,W
07D5E:  SUBLW  06
07D60:  BNZ   7DAE
....................       printf("A%Lu.txt=\"Presion\"",i+1); 
07D62:  MOVLW  01
07D64:  ADDWF  xEA,W
07D66:  MOVLB  7
07D68:  MOVWF  x02
07D6A:  MOVLW  00
07D6C:  MOVLB  2
07D6E:  ADDWFC xEB,W
07D70:  MOVLB  7
07D72:  MOVWF  x03
07D74:  MOVLW  41
07D76:  BTFSS  F9E.4
07D78:  BRA    7D76
07D7A:  MOVWF  FAD
07D7C:  MOVLW  10
07D7E:  MOVWF  FE9
07D80:  MOVFF  703,709
07D84:  MOVFF  702,708
07D88:  MOVLB  0
07D8A:  CALL   6A22
07D8E:  MOVLW  76
07D90:  MOVWF  FF6
07D92:  MOVLW  04
07D94:  MOVWF  FF7
07D96:  MOVLW  00
07D98:  MOVWF  FF8
07D9A:  MOVLW  0E
07D9C:  MOVLB  7
07D9E:  MOVWF  x08
07DA0:  MOVLB  0
07DA2:  CALL   628E
....................       SendDataDisplay(); 
07DA6:  CALL   4752
....................    }else if(ACiclos[i]==7){ 
07DAA:  BRA    80F8
07DAC:  MOVLB  2
07DAE:  MOVLW  62
07DB0:  ADDWF  xEA,W
07DB2:  MOVWF  FE9
07DB4:  MOVLW  03
07DB6:  ADDWFC xEB,W
07DB8:  MOVWF  FEA
07DBA:  MOVF   FEF,W
07DBC:  SUBLW  07
07DBE:  BNZ   7E0C
....................       printf("A%Lu.txt=\"Bomba\"",i+1); 
07DC0:  MOVLW  01
07DC2:  ADDWF  xEA,W
07DC4:  MOVLB  7
07DC6:  MOVWF  x02
07DC8:  MOVLW  00
07DCA:  MOVLB  2
07DCC:  ADDWFC xEB,W
07DCE:  MOVLB  7
07DD0:  MOVWF  x03
07DD2:  MOVLW  41
07DD4:  BTFSS  F9E.4
07DD6:  BRA    7DD4
07DD8:  MOVWF  FAD
07DDA:  MOVLW  10
07DDC:  MOVWF  FE9
07DDE:  MOVFF  703,709
07DE2:  MOVFF  702,708
07DE6:  MOVLB  0
07DE8:  CALL   6A22
07DEC:  MOVLW  8A
07DEE:  MOVWF  FF6
07DF0:  MOVLW  04
07DF2:  MOVWF  FF7
07DF4:  MOVLW  00
07DF6:  MOVWF  FF8
07DF8:  MOVLW  0C
07DFA:  MOVLB  7
07DFC:  MOVWF  x08
07DFE:  MOVLB  0
07E00:  CALL   628E
....................       SendDataDisplay(); 
07E04:  CALL   4752
....................    }else if(ACiclos[i]==8){ 
07E08:  BRA    80F8
07E0A:  MOVLB  2
07E0C:  MOVLW  62
07E0E:  ADDWF  xEA,W
07E10:  MOVWF  FE9
07E12:  MOVLW  03
07E14:  ADDWFC xEB,W
07E16:  MOVWF  FEA
07E18:  MOVF   FEF,W
07E1A:  SUBLW  08
07E1C:  BNZ   7E6A
....................       printf("A%Lu.txt=\"ErrorVacio\"",i+1); 
07E1E:  MOVLW  01
07E20:  ADDWF  xEA,W
07E22:  MOVLB  7
07E24:  MOVWF  x02
07E26:  MOVLW  00
07E28:  MOVLB  2
07E2A:  ADDWFC xEB,W
07E2C:  MOVLB  7
07E2E:  MOVWF  x03
07E30:  MOVLW  41
07E32:  BTFSS  F9E.4
07E34:  BRA    7E32
07E36:  MOVWF  FAD
07E38:  MOVLW  10
07E3A:  MOVWF  FE9
07E3C:  MOVFF  703,709
07E40:  MOVFF  702,708
07E44:  MOVLB  0
07E46:  CALL   6A22
07E4A:  MOVLW  9C
07E4C:  MOVWF  FF6
07E4E:  MOVLW  04
07E50:  MOVWF  FF7
07E52:  MOVLW  00
07E54:  MOVWF  FF8
07E56:  MOVLW  11
07E58:  MOVLB  7
07E5A:  MOVWF  x08
07E5C:  MOVLB  0
07E5E:  CALL   628E
....................       SendDataDisplay(); 
07E62:  CALL   4752
....................    }else if(ACiclos[i]==10){ 
07E66:  BRA    80F8
07E68:  MOVLB  2
07E6A:  MOVLW  62
07E6C:  ADDWF  xEA,W
07E6E:  MOVWF  FE9
07E70:  MOVLW  03
07E72:  ADDWFC xEB,W
07E74:  MOVWF  FEA
07E76:  MOVF   FEF,W
07E78:  SUBLW  0A
07E7A:  BNZ   7EC8
....................       printf("A%Lu.txt=\"PreCale\"",i+1); 
07E7C:  MOVLW  01
07E7E:  ADDWF  xEA,W
07E80:  MOVLB  7
07E82:  MOVWF  x02
07E84:  MOVLW  00
07E86:  MOVLB  2
07E88:  ADDWFC xEB,W
07E8A:  MOVLB  7
07E8C:  MOVWF  x03
07E8E:  MOVLW  41
07E90:  BTFSS  F9E.4
07E92:  BRA    7E90
07E94:  MOVWF  FAD
07E96:  MOVLW  10
07E98:  MOVWF  FE9
07E9A:  MOVFF  703,709
07E9E:  MOVFF  702,708
07EA2:  MOVLB  0
07EA4:  CALL   6A22
07EA8:  MOVLW  B2
07EAA:  MOVWF  FF6
07EAC:  MOVLW  04
07EAE:  MOVWF  FF7
07EB0:  MOVLW  00
07EB2:  MOVWF  FF8
07EB4:  MOVLW  0E
07EB6:  MOVLB  7
07EB8:  MOVWF  x08
07EBA:  MOVLB  0
07EBC:  CALL   628E
....................       SendDataDisplay(); 
07EC0:  CALL   4752
....................    }else if(ACiclos[i]==11){ 
07EC4:  BRA    80F8
07EC6:  MOVLB  2
07EC8:  MOVLW  62
07ECA:  ADDWF  xEA,W
07ECC:  MOVWF  FE9
07ECE:  MOVLW  03
07ED0:  ADDWFC xEB,W
07ED2:  MOVWF  FEA
07ED4:  MOVF   FEF,W
07ED6:  SUBLW  0B
07ED8:  BNZ   7F26
....................       printf("A%Lu.txt=\"Vacio\"",i+1); 
07EDA:  MOVLW  01
07EDC:  ADDWF  xEA,W
07EDE:  MOVLB  7
07EE0:  MOVWF  x02
07EE2:  MOVLW  00
07EE4:  MOVLB  2
07EE6:  ADDWFC xEB,W
07EE8:  MOVLB  7
07EEA:  MOVWF  x03
07EEC:  MOVLW  41
07EEE:  BTFSS  F9E.4
07EF0:  BRA    7EEE
07EF2:  MOVWF  FAD
07EF4:  MOVLW  10
07EF6:  MOVWF  FE9
07EF8:  MOVFF  703,709
07EFC:  MOVFF  702,708
07F00:  MOVLB  0
07F02:  CALL   6A22
07F06:  MOVLW  C6
07F08:  MOVWF  FF6
07F0A:  MOVLW  04
07F0C:  MOVWF  FF7
07F0E:  MOVLW  00
07F10:  MOVWF  FF8
07F12:  MOVLW  0C
07F14:  MOVLB  7
07F16:  MOVWF  x08
07F18:  MOVLB  0
07F1A:  CALL   628E
....................       SendDataDisplay(); 
07F1E:  CALL   4752
....................    }else if(ACiclos[i]==12){ 
07F22:  BRA    80F8
07F24:  MOVLB  2
07F26:  MOVLW  62
07F28:  ADDWF  xEA,W
07F2A:  MOVWF  FE9
07F2C:  MOVLW  03
07F2E:  ADDWFC xEB,W
07F30:  MOVWF  FEA
07F32:  MOVF   FEF,W
07F34:  SUBLW  0C
07F36:  BNZ   7F84
....................       printf("A%Lu.txt=\"Calen\"",i+1); 
07F38:  MOVLW  01
07F3A:  ADDWF  xEA,W
07F3C:  MOVLB  7
07F3E:  MOVWF  x02
07F40:  MOVLW  00
07F42:  MOVLB  2
07F44:  ADDWFC xEB,W
07F46:  MOVLB  7
07F48:  MOVWF  x03
07F4A:  MOVLW  41
07F4C:  BTFSS  F9E.4
07F4E:  BRA    7F4C
07F50:  MOVWF  FAD
07F52:  MOVLW  10
07F54:  MOVWF  FE9
07F56:  MOVFF  703,709
07F5A:  MOVFF  702,708
07F5E:  MOVLB  0
07F60:  CALL   6A22
07F64:  MOVLW  D8
07F66:  MOVWF  FF6
07F68:  MOVLW  04
07F6A:  MOVWF  FF7
07F6C:  MOVLW  00
07F6E:  MOVWF  FF8
07F70:  MOVLW  0C
07F72:  MOVLB  7
07F74:  MOVWF  x08
07F76:  MOVLB  0
07F78:  CALL   628E
....................       SendDataDisplay(); 
07F7C:  CALL   4752
....................    }else if(ACiclos[i]==13){ 
07F80:  BRA    80F8
07F82:  MOVLB  2
07F84:  MOVLW  62
07F86:  ADDWF  xEA,W
07F88:  MOVWF  FE9
07F8A:  MOVLW  03
07F8C:  ADDWFC xEB,W
07F8E:  MOVWF  FEA
07F90:  MOVF   FEF,W
07F92:  SUBLW  0D
07F94:  BNZ   7FE2
....................       printf("A%Lu.txt=\"Desfoga\"",i+1); 
07F96:  MOVLW  01
07F98:  ADDWF  xEA,W
07F9A:  MOVLB  7
07F9C:  MOVWF  x02
07F9E:  MOVLW  00
07FA0:  MOVLB  2
07FA2:  ADDWFC xEB,W
07FA4:  MOVLB  7
07FA6:  MOVWF  x03
07FA8:  MOVLW  41
07FAA:  BTFSS  F9E.4
07FAC:  BRA    7FAA
07FAE:  MOVWF  FAD
07FB0:  MOVLW  10
07FB2:  MOVWF  FE9
07FB4:  MOVFF  703,709
07FB8:  MOVFF  702,708
07FBC:  MOVLB  0
07FBE:  CALL   6A22
07FC2:  MOVLW  EA
07FC4:  MOVWF  FF6
07FC6:  MOVLW  04
07FC8:  MOVWF  FF7
07FCA:  MOVLW  00
07FCC:  MOVWF  FF8
07FCE:  MOVLW  0E
07FD0:  MOVLB  7
07FD2:  MOVWF  x08
07FD4:  MOVLB  0
07FD6:  CALL   628E
....................       SendDataDisplay(); 
07FDA:  CALL   4752
....................    }else if(ACiclos[i]==14){ 
07FDE:  BRA    80F8
07FE0:  MOVLB  2
07FE2:  MOVLW  62
07FE4:  ADDWF  xEA,W
07FE6:  MOVWF  FE9
07FE8:  MOVLW  03
07FEA:  ADDWFC xEB,W
07FEC:  MOVWF  FEA
07FEE:  MOVF   FEF,W
07FF0:  SUBLW  0E
07FF2:  BNZ   8040
....................       printf("A%Lu.txt=\"Finalizado\"",i+1); 
07FF4:  MOVLW  01
07FF6:  ADDWF  xEA,W
07FF8:  MOVLB  7
07FFA:  MOVWF  x02
07FFC:  MOVLW  00
07FFE:  MOVLB  2
08000:  ADDWFC xEB,W
08002:  MOVLB  7
08004:  MOVWF  x03
08006:  MOVLW  41
08008:  BTFSS  F9E.4
0800A:  BRA    8008
0800C:  MOVWF  FAD
0800E:  MOVLW  10
08010:  MOVWF  FE9
08012:  MOVFF  703,709
08016:  MOVFF  702,708
0801A:  MOVLB  0
0801C:  CALL   6A22
08020:  MOVLW  FE
08022:  MOVWF  FF6
08024:  MOVLW  04
08026:  MOVWF  FF7
08028:  MOVLW  00
0802A:  MOVWF  FF8
0802C:  MOVLW  11
0802E:  MOVLB  7
08030:  MOVWF  x08
08032:  MOVLB  0
08034:  CALL   628E
....................       SendDataDisplay(); 
08038:  CALL   4752
....................    }else if(ACiclos[i]==15){ 
0803C:  BRA    80F8
0803E:  MOVLB  2
08040:  MOVLW  62
08042:  ADDWF  xEA,W
08044:  MOVWF  FE9
08046:  MOVLW  03
08048:  ADDWFC xEB,W
0804A:  MOVWF  FEA
0804C:  MOVF   FEF,W
0804E:  SUBLW  0F
08050:  BNZ   809E
....................       printf("A%Lu.txt=\"Secando\"",i+1); 
08052:  MOVLW  01
08054:  ADDWF  xEA,W
08056:  MOVLB  7
08058:  MOVWF  x02
0805A:  MOVLW  00
0805C:  MOVLB  2
0805E:  ADDWFC xEB,W
08060:  MOVLB  7
08062:  MOVWF  x03
08064:  MOVLW  41
08066:  BTFSS  F9E.4
08068:  BRA    8066
0806A:  MOVWF  FAD
0806C:  MOVLW  10
0806E:  MOVWF  FE9
08070:  MOVFF  703,709
08074:  MOVFF  702,708
08078:  MOVLB  0
0807A:  CALL   6A22
0807E:  MOVLW  14
08080:  MOVWF  FF6
08082:  MOVLW  05
08084:  MOVWF  FF7
08086:  MOVLW  00
08088:  MOVWF  FF8
0808A:  MOVLW  0E
0808C:  MOVLB  7
0808E:  MOVWF  x08
08090:  MOVLB  0
08092:  CALL   628E
....................       SendDataDisplay(); 
08096:  CALL   4752
....................    }else if(ACiclos[i]==16){ 
0809A:  BRA    80F8
0809C:  MOVLB  2
0809E:  MOVLW  62
080A0:  ADDWF  xEA,W
080A2:  MOVWF  FE9
080A4:  MOVLW  03
080A6:  ADDWFC xEB,W
080A8:  MOVWF  FEA
080AA:  MOVF   FEF,W
080AC:  SUBLW  10
080AE:  BNZ   80FA
....................       printf("A%Lu.txt=\"Esterilizando\"",i+1); 
080B0:  MOVLW  01
080B2:  ADDWF  xEA,W
080B4:  MOVLB  7
080B6:  MOVWF  x02
080B8:  MOVLW  00
080BA:  MOVLB  2
080BC:  ADDWFC xEB,W
080BE:  MOVLB  7
080C0:  MOVWF  x03
080C2:  MOVLW  41
080C4:  BTFSS  F9E.4
080C6:  BRA    80C4
080C8:  MOVWF  FAD
080CA:  MOVLW  10
080CC:  MOVWF  FE9
080CE:  MOVFF  703,709
080D2:  MOVFF  702,708
080D6:  MOVLB  0
080D8:  CALL   6A22
080DC:  MOVLW  28
080DE:  MOVWF  FF6
080E0:  MOVLW  05
080E2:  MOVWF  FF7
080E4:  MOVLW  00
080E6:  MOVWF  FF8
080E8:  MOVLW  14
080EA:  MOVLB  7
080EC:  MOVWF  x08
080EE:  MOVLB  0
080F0:  CALL   628E
....................       SendDataDisplay(); 
080F4:  CALL   4752
080F8:  MOVLB  2
....................    } 
.................... } 
080FA:  MOVLB  0
080FC:  GOTO   CC1C (RETURN)
....................  
.................... void graficaCurva(int16 tGrafica){ 
....................    if(tiempos2>=tGrafica){ 
*
06044:  MOVLB  7
06046:  MOVF   x03,W
06048:  MOVLB  2
0604A:  SUBWF  xB8,W
0604C:  BNC   6064
0604E:  BNZ   605A
06050:  MOVLB  7
06052:  MOVF   x02,W
06054:  MOVLB  2
06056:  SUBWF  xB7,W
06058:  BNC   6064
....................       Grafica=1; 
0605A:  MOVLB  1
0605C:  BSF    x31.6
....................       tiempos2=0; 
0605E:  MOVLB  2
06060:  CLRF   xB8
06062:  CLRF   xB7
....................    } 
.................... } 
06064:  MOVLB  0
06066:  GOTO   1090C (RETURN)
....................  
.................... void muestreo(int16 tmuestreo){ 
....................    if(tiempos3>=tmuestreo){ 
0606A:  MOVLB  7
0606C:  MOVF   x03,W
0606E:  MOVLB  2
06070:  SUBWF  xBA,W
06072:  BNC   6114
06074:  BNZ   6080
06076:  MOVLB  7
06078:  MOVF   x02,W
0607A:  MOVLB  2
0607C:  SUBWF  xB9,W
0607E:  BNC   6114
....................       Temperatura=LeerPt100(0,MediaMovil); 
06080:  MOVLB  7
06082:  CLRF   x04
06084:  MOVFF  222,705
06088:  MOVLB  0
0608A:  CALL   48DE
0608E:  MOVFF  03,26B
06092:  MOVFF  02,26A
06096:  MOVFF  01,269
0609A:  MOVFF  00,268
....................       Temperatura2=LeerPt100(1,MediaMovil); 
0609E:  MOVLW  01
060A0:  MOVLB  7
060A2:  MOVWF  x04
060A4:  MOVFF  222,705
060A8:  MOVLB  0
060AA:  CALL   48DE
060AE:  MOVFF  03,26F
060B2:  MOVFF  02,26E
060B6:  MOVFF  01,26D
060BA:  MOVFF  00,26C
....................       PresionCamara=Leer_Sensor_Presion_Camara(10); 
060BE:  MOVLW  0A
060C0:  MOVLB  7
060C2:  MOVWF  x04
060C4:  MOVLB  0
060C6:  CALL   5226
060CA:  MOVFF  03,717
060CE:  MOVFF  02,716
060D2:  MOVFF  01,715
060D6:  MOVFF  00,714
060DA:  CALL   5424
060DE:  MOVFF  02,2C2
060E2:  MOVFF  01,2C1
....................       PresionPreCamara=Leer_Sensor_Presion_PreCamara(20); 
060E6:  MOVLW  14
060E8:  MOVLB  7
060EA:  MOVWF  x04
060EC:  MOVLB  0
060EE:  CALL   5460
060F2:  MOVFF  03,717
060F6:  MOVFF  02,716
060FA:  MOVFF  01,715
060FE:  MOVFF  00,714
06102:  CALL   5424
06106:  MOVFF  02,2C4
0610A:  MOVFF  01,2C3
....................       tiempos3=0; 
0610E:  MOVLB  2
06110:  CLRF   xBA
06112:  CLRF   xB9
....................    } 
.................... } 
06114:  MOVLB  0
06116:  GOTO   1091A (RETURN)
....................  
.................... void monitoreaAgua(){ 
....................    if(LOWB){ 
0611A:  BSF    F93.2
0611C:  BTFSC  F81.2
0611E:  BRA    6138
....................       SensadoNivelR=ON; 
06120:  MOVLB  1
06122:  BSF    x31.2
....................       if(TiempoSensadoNivelR>2){ 
06124:  MOVLB  2
06126:  MOVF   x26,W
06128:  SUBLW  02
0612A:  BC    6134
....................          SensadoNivelR=OFF; 
0612C:  MOVLB  1
0612E:  BCF    x31.2
....................          ReservorioLleno=ON; 
06130:  BSF    x31.1
06132:  MOVLB  2
....................       } 
....................    }else{ 
06134:  BRA    6146
06136:  MOVLB  0
....................       SensadoNivelR=OFF; 
06138:  MOVLB  1
0613A:  BCF    x31.2
....................       TiempoSensadoNivelR=0; 
0613C:  MOVLB  2
0613E:  CLRF   x26
....................       ReservorioLleno=OFF; 
06140:  MOVLB  1
06142:  BCF    x31.1
06144:  MOVLB  2
....................    }  
.................... } 
06146:  MOVLB  0
06148:  GOTO   1091E (RETURN)
....................  
.................... void monitoreaStop(){ 
....................       if(!STOP && !IniciaCiclo && !PruebaEstados){ 
*
0620C:  BSF    F93.0
0620E:  BTFSS  F81.0
06210:  BRA    6280
06212:  MOVLB  1
06214:  BTFSS  x2A.6
06216:  BRA    621C
06218:  MOVLB  0
0621A:  BRA    6280
0621C:  BTFSS  x2C.1
0621E:  BRA    6224
06220:  MOVLB  0
06222:  BRA    6280
....................          if(!disp_Stop){ 
06224:  BTFSC  x31.7
06226:  BRA    6230
....................             disp_Stop=1;Menu=255; 
06228:  BSF    x31.7
0622A:  MOVLW  FF
0622C:  MOVLB  2
0622E:  MOVWF  xA0
....................          } 
....................          codigoAlarma=200; 
06230:  MOVLW  C8
06232:  MOVLB  2
06234:  MOVWF  xDB
....................          Controlando=0; 
06236:  CLRF   x99
....................          Desfogue=ON; 
06238:  MOVLB  1
0623A:  BSF    x1F.4
....................          Paso=OFF; 
0623C:  BCF    x1F.2
....................          //Suministro_off; 
....................          if(PresionCamara<Atmosferica) 
0623E:  MOVLB  2
06240:  MOVF   xC2,F
06242:  BNZ   6250
06244:  MOVF   xF6,W
06246:  SUBWF  xC1,W
06248:  BC    6250
....................             Aire=ON; 
0624A:  MOVLB  1
0624C:  BSF    x1F.5
....................          else 
0624E:  BRA    6254
....................             Aire=ON; 
06250:  MOVLB  1
06252:  BSF    x1F.5
....................          outVacio=OFF;    
06254:  BCF    x1F.3
....................          aguaEnfriador=OFF; 
06256:  BCF    31.5
....................          bombaVacio=OFF; 
06258:  BCF    31.6
....................          DesfogueSuave=OFF; 
0625A:  BCF    x2B.3
....................          printf("page Emergencia"); 
0625C:  MOVLW  3E
0625E:  MOVWF  FF6
06260:  MOVLW  05
06262:  MOVWF  FF7
06264:  MOVLW  00
06266:  MOVWF  FF8
06268:  MOVLB  0
0626A:  CALL   4720
....................          SendDataDisplay(); 
0626E:  CALL   4752
....................          ActivaAlarma(1); 
06272:  MOVLW  01
06274:  MOVLB  7
06276:  MOVWF  x02
06278:  MOVLB  0
0627A:  RCALL  614C
....................          BorraBuffer(); 
0627C:  BRA    61E0
....................       }else{ 
0627E:  BRA    6288
....................          if(disp_Stop){ 
06280:  MOVLB  1
06282:  BTFSS  x31.7
06284:  BRA    6288
....................             reset_cpu(); 
06286:  RESET
06288:  MOVLB  0
....................          } 
....................       }           
.................... } 
0628A:  GOTO   10922 (RETURN)
....................  
.................... void cierraPuertaS(){// Aadir logica de puertas 
....................    abrirPuertaS=OFF; 
*
056C2:  MOVLB  1
056C4:  BCF    x23.1
....................    tVacioEmpaqueS=0; 
056C6:  CLRF   x27
056C8:  CLRF   x26
....................    if(!BLOQUEOS){ 
056CA:  BTFSC  31.2
056CC:  BRA    56E0
....................       cilindroSucio=OFF; 
056CE:  BCF    x1F.6
....................       estadoCilindrosS=ON; 
056D0:  BSF    x23.6
....................       if(DOORS){ 
056D2:  BSF    F93.1
056D4:  BTFSC  F81.1
056D6:  BRA    56DC
....................          empaqueSucio=ON; 
056D8:  BSF    x1F.0
....................          //cerroSucio=ON; 
....................       }else{ 
056DA:  BRA    56DE
....................          empaqueSucio=OFF; 
056DC:  BCF    x1F.0
....................       } 
....................    }else{ 
056DE:  BRA    56EC
....................       if(!DOORS){ 
056E0:  BSF    F93.1
056E2:  BTFSS  F81.1
056E4:  BRA    56EC
....................          cilindroSucio=ON; 
056E6:  BSF    x1F.6
....................          estadoCilindrosS=OFF; 
056E8:  BCF    x23.6
....................          pulsoSubirS=OFF; 
056EA:  BCF    x22.4
....................       } 
....................    } 
....................    suministroAire=ON; 
056EC:  BSF    31.4
....................    seguroValvula=OFF; 
056EE:  BCF    x20.1
....................    seguroValvula2=OFF; 
056F0:  BCF    x20.2
....................    estadoSuministro=ON; 
056F2:  BSF    x2B.7
.................... } 
056F4:  MOVLB  0
056F6:  GOTO   10756 (RETURN)
....................  
.................... void abrePuertaS(){ 
....................    abrirPuertaS=ON; 
*
0565E:  MOVLB  1
05660:  BSF    x23.1
....................    if(PresionCamara<=Atmosferica+15 && PresionCamara>Atmosferica-10){ 
05662:  MOVLW  0F
05664:  MOVLB  2
05666:  ADDWF  xF6,W
05668:  MOVF   xC2,F
0566A:  BNZ   56B6
0566C:  SUBWF  xC1,W
0566E:  BZ    5672
05670:  BC    56B6
05672:  MOVLW  0A
05674:  SUBWF  xF6,W
05676:  MOVF   xC2,F
05678:  BNZ   5680
0567A:  SUBWF  xC1,W
0567C:  BZ    56B6
0567E:  BNC   56B6
....................       empaqueSucio=OFF; 
05680:  MOVLB  1
05682:  BCF    x1F.0
....................       seguroValvula=ON; 
05684:  BSF    x20.1
....................       seguroValvula2=OFF; 
05686:  BCF    x20.2
....................       if(DOORS){ 
05688:  BSF    F93.1
0568A:  BTFSC  F81.1
0568C:  BRA    56A8
....................          if(tVacioEmpaqueS>=10){ 
0568E:  MOVF   x27,F
05690:  BNZ   5698
05692:  MOVF   x26,W
05694:  SUBLW  09
05696:  BC    56A2
....................             cilindroSucio=ON; 
05698:  BSF    x1F.6
....................             cerroSucio=OFF; 
0569A:  BCF    x22.2
....................             vacioEmpaqueS=OFF; 
0569C:  BCF    x22.7
....................             BombaVacio=OFF; 
0569E:  BCF    31.6
....................          }else{ 
056A0:  BRA    56A6
....................             BombaVacio=ON; 
056A2:  BSF    31.6
....................             vacioEmpaqueS=ON; 
056A4:  BSF    x22.7
....................          } 
....................       }else{ 
056A6:  BRA    56B4
....................          cilindroSucio=ON; 
056A8:  BSF    x1F.6
....................          estadoCilindrosS=OFF; 
056AA:  BCF    x23.6
....................          cerroSucio=OFF; 
056AC:  BCF    x22.2
....................          vacioEmpaqueS=OFF; 
056AE:  BCF    x22.7
....................          BombaVacio=OFF; 
056B0:  BCF    31.6
....................          pulsoBajarS=OFF; 
056B2:  BCF    x23.2
056B4:  MOVLB  2
....................       } 
....................    } 
....................    suministroAire=ON; 
056B6:  BSF    31.4
....................    estadoSuministro=ON; 
056B8:  MOVLB  1
056BA:  BSF    x2B.7
.................... } 
056BC:  MOVLB  0
056BE:  GOTO   1074A (RETURN)
....................  
.................... void cierraPuertaL(){// Aadir logica de puertas 
....................    abrirPuertaL=OFF; 
*
056FA:  MOVLB  1
056FC:  BCF    x23.0
....................    tVacioEmpaqueL=0; 
056FE:  CLRF   x29
05700:  CLRF   x28
....................    if(!BLOQUEOL){ 
05702:  BTFSC  31.3
05704:  BRA    5716
....................       cilindroLimpio=OFF; 
05706:  BCF    x1F.7
....................       estadoCilindrosL=ON; 
05708:  BSF    x23.5
....................       if(DOORL){ 
0570A:  BTFSS  31.1
0570C:  BRA    5712
....................          empaqueLimpio=ON; 
0570E:  BSF    31.7
....................          //cerroLimpio=ON; 
....................       }else{ 
05710:  BRA    5714
....................          empaqueLimpio=OFF; 
05712:  BCF    31.7
....................       } 
....................    }else{ 
05714:  BRA    5720
....................       if(!DOORL){ 
05716:  BTFSC  31.1
05718:  BRA    5720
....................          cilindroLimpio=ON; 
0571A:  BSF    x1F.7
....................          estadoCilindrosL=OFF; 
0571C:  BCF    x23.5
....................          pulsoSubirL=OFF; 
0571E:  BCF    x22.5
....................       } 
....................    } 
....................    seguroValvula2=OFF; 
05720:  BCF    x20.2
....................    seguroValvula=OFF; 
05722:  BCF    x20.1
....................    suministroAire=ON; 
05724:  BSF    31.4
....................    estadoSuministro=ON; 
05726:  BSF    x2B.7
.................... } 
05728:  MOVLB  0
0572A:  RETLW  00
....................  
.................... void abrePuertaL(){ 
....................    abrirPuertaL=ON; 
0572C:  MOVLB  1
0572E:  BSF    x23.0
....................    if(PresionCamara<=Atmosferica+15 && PresionCamara>Atmosferica-10){ 
05730:  MOVLW  0F
05732:  MOVLB  2
05734:  ADDWF  xF6,W
05736:  MOVF   xC2,F
05738:  BNZ   5780
0573A:  SUBWF  xC1,W
0573C:  BZ    5740
0573E:  BC    5780
05740:  MOVLW  0A
05742:  SUBWF  xF6,W
05744:  MOVF   xC2,F
05746:  BNZ   574E
05748:  SUBWF  xC1,W
0574A:  BZ    5780
0574C:  BNC   5780
....................       empaqueLimpio=OFF; 
0574E:  BCF    31.7
....................       seguroValvula2=ON; 
05750:  MOVLB  1
05752:  BSF    x20.2
....................       seguroValvula=OFF; 
05754:  BCF    x20.1
....................       if(DOORL){ 
05756:  BTFSS  31.1
05758:  BRA    5774
....................          if(tVacioEmpaqueL>=10){ 
0575A:  MOVF   x29,F
0575C:  BNZ   5764
0575E:  MOVF   x28,W
05760:  SUBLW  09
05762:  BC    576E
....................             cilindroLimpio=ON; 
05764:  BSF    x1F.7
....................             cerroLimpio=OFF; 
05766:  BCF    x22.3
....................             vacioEmpaqueL=OFF; 
05768:  BCF    x22.6
....................             BombaVacio=OFF; 
0576A:  BCF    31.6
....................          }else{ 
0576C:  BRA    5772
....................             BombaVacio=ON; 
0576E:  BSF    31.6
....................             vacioEmpaqueL=ON; 
05770:  BSF    x22.6
....................          } 
....................       }else{ 
05772:  BRA    577E
....................          cilindroLimpio=ON; 
05774:  BSF    x1F.7
....................          estadoCilindrosL=OFF; 
05776:  BCF    x23.5
....................          cerroLimpio=OFF; 
05778:  BCF    x22.3
....................          vacioEmpaqueL=OFF; 
0577A:  BCF    x22.6
....................          BombaVacio=OFF; 
0577C:  BCF    31.6
0577E:  MOVLB  2
....................          //pulsoBajarL=OFF; 
....................       } 
....................    } 
....................    suministroAire=ON; 
05780:  BSF    31.4
....................    estadoSuministro=ON; 
05782:  MOVLB  1
05784:  BSF    x2B.7
.................... } 
05786:  MOVLB  0
05788:  RETLW  00
....................  
.................... void monitoreaPuertaLimpio(){ 
....................    if(pulsoSubirL) 
0578A:  MOVLB  1
0578C:  BTFSS  x22.5
0578E:  BRA    5794
....................       cierraPuertaL(); 
05790:  MOVLB  0
05792:  RCALL  56FA
....................        
....................    if(subirPuertaLimpio==5){//Oprimio Subir Puerta Limpio 
05794:  MOVLB  2
05796:  MOVF   x27,W
05798:  SUBLW  05
0579A:  BNZ   57A4
....................       //cierraPuertaL(); 
....................       pulsoSubirL=ON; 
0579C:  MOVLB  1
0579E:  BSF    x22.5
....................    }else if(subirPuertaLimpio==10){//Solto Subir Puerta Limpio 
057A0:  BRA    582C
057A2:  MOVLB  2
057A4:  MOVF   x27,W
057A6:  SUBLW  0A
057A8:  BNZ   57C4
....................       pulsoSubirL=OFF; 
057AA:  MOVLB  1
057AC:  BCF    x22.5
....................       if(!DOORL && !EMPAQUEL) 
057AE:  BTFSC  31.1
057B0:  BRA    57BC
057B2:  BTFSC  31.0
057B4:  BRA    57BC
....................          abrePuertaL(); 
057B6:  MOVLB  0
057B8:  RCALL  572C
....................       else 
057BA:  BRA    57C0
....................          cierraPuertaL(); 
057BC:  MOVLB  0
057BE:  RCALL  56FA
....................    }else if(subirPuertaLimpio==15){//Oprimio Bajar Puerta Limpio 
057C0:  BRA    582A
057C2:  MOVLB  2
057C4:  MOVF   x27,W
057C6:  SUBLW  0F
057C8:  BNZ   581C
....................       pulsoSubirL=OFF; 
057CA:  MOVLB  1
057CC:  BCF    x22.5
....................       if(Temperatura<Tapertura && Finalizo && cerroSucio) 
057CE:  MOVLB  7
057D0:  CLRF   x15
057D2:  MOVFF  2A6,714
057D6:  MOVLB  0
057D8:  CALL   21A0
057DC:  MOVFF  26B,709
057E0:  MOVFF  26A,708
057E4:  MOVFF  269,707
057E8:  MOVFF  268,706
057EC:  MOVFF  03,70D
057F0:  MOVFF  02,70C
057F4:  MOVFF  01,70B
057F8:  MOVFF  00,70A
057FC:  CALL   2832
05800:  BNC   5818
05802:  MOVLB  1
05804:  BTFSC  x2E.0
05806:  BRA    580C
05808:  MOVLB  0
0580A:  BRA    5818
0580C:  BTFSC  x22.2
0580E:  BRA    5814
05810:  MOVLB  0
05812:  BRA    5818
....................       //if(Temperatura<Tapertura && cerroSucio) 
....................          abrePuertaL(); 
05814:  MOVLB  0
05816:  RCALL  572C
....................    }else{ 
05818:  BRA    582A
0581A:  MOVLB  2
....................       if(!DOORL) 
0581C:  BTFSC  31.1
0581E:  BRA    5826
....................          abrePuertaL(); 
05820:  MOVLB  0
05822:  RCALL  572C
....................       else 
05824:  BRA    582A
....................          cierraPuertaL(); 
05826:  MOVLB  0
05828:  RCALL  56FA
0582A:  MOVLB  1
....................    }   
.................... } 
0582C:  MOVLB  0
0582E:  GOTO   10760 (RETURN)
....................  
.................... void ApagaSalidas(){ 
....................     
....................    Controlando=0; 
*
04788:  MOVLB  2
0478A:  CLRF   x99
.................... } 
0478C:  MOVLB  0
0478E:  RETLW  00
....................  
.................... void borraVariables(){ 
....................    borra=OFF; 
*
08300:  MOVLB  1
08302:  BCF    x31.3
....................    disp_Guarda=0; 
08304:  BCF    x2C.2
....................    posicionDato=0; 
08306:  MOVLB  2
08308:  CLRF   xED
0830A:  CLRF   xEC
....................    Ciclo=OFF; 
0830C:  MOVLB  1
0830E:  BCF    x2C.3
....................    flag_pulso=0; 
08310:  BCF    x2F.5
....................    Start=OFF; 
08312:  BCF    x2B.5
....................    codigoAlarma=0; 
08314:  MOVLB  2
08316:  CLRF   xDB
....................    Desfogue=OFF; 
08318:  MOVLB  1
0831A:  BCF    x1F.4
....................    suministroVapor=OFF; 
0831C:  BCF    x1F.1
....................    BombaVacio=OFF; 
0831E:  BCF    31.6
....................    Aire=OFF; 
08320:  BCF    x1F.5
....................    aguaEnfriador=OFF; 
08322:  BCF    31.5
....................    outVacio=OFF; 
08324:  BCF    x1F.3
....................    Controlando=0; 
08326:  MOVLB  2
08328:  CLRF   x99
....................    EstadoBuzzer=OFF; 
0832A:  MOVLB  1
0832C:  BCF    x2D.4
....................    Precalentamiento=OFF; 
0832E:  BCF    x2E.7
....................    IniciaVacio=OFF; 
08330:  BCF    x2F.0
....................    IniciaVacio2=OFF; 
08332:  BCF    x2F.1
....................    Vacio=OFF; 
08334:  BCF    x2F.2
....................    flag_vac=OFF; 
08336:  BCF    x2F.3
....................    PulsoPositivo=10; 
08338:  MOVLW  0A
0833A:  MOVLB  2
0833C:  MOVWF  xF7
....................    PulsosVacio=0; 
0833E:  CLRF   xF8
....................    tvacio=0; 
08340:  CLRF   xCA
08342:  CLRF   xC9
....................    Esterilizando=OFF; 
08344:  MOVLB  1
08346:  BCF    x2A.7
....................    Desfogando=OFF; 
08348:  BCF    x2B.2
....................    mEst=0; 
0834A:  CLRF   x49
....................    sEst=0; 
0834C:  CLRF   x48
....................    Secando=OFF; 
0834E:  BCF    x2B.0
....................    DesfogueSuave=OFF; 
08350:  BCF    x2B.3
....................    Secando=OFF; 
08352:  BCF    x2B.0
....................    mSec=0; 
08354:  CLRF   x4B
....................    sSec=0; 
08356:  CLRF   x4A
....................    Control=0; 
08358:  MOVLB  2
0835A:  CLRF   x97
....................    Finalizo=OFF; 
0835C:  MOVLB  1
0835E:  BCF    x2E.0
....................    AlarmaLlenado=OFF; 
08360:  BCF    x22.1
....................    AlarmaSobreTemperatura=OFF; 
08362:  BCF    x20.6
....................    AlarmaTiempoProlongado=OFF; 
08364:  BCF    x20.5
....................    AlarmaPresion=OFF; 
08366:  BCF    x2E.1
....................    AlarmaEmergencia=OFF; 
08368:  BCF    x21.2
....................    AlarmaEmpaqueS=OFF; 
0836A:  BCF    x21.5
....................    AlarmaEmpaqueL=OFF; 
0836C:  BCF    x21.4
....................    AlarmaVacio=OFF; 
0836E:  BCF    x21.3
....................    AlarmaBomba=OFF; 
08370:  BCF    x21.6
....................    AlarmaTermostato=OFF; 
08372:  BCF    x20.7
....................    TiempoLlenado=0; 
08374:  CLRF   x47
08376:  CLRF   x46
....................    TiempoCiclo=0; 
08378:  CLRF   x33
0837A:  CLRF   x32
....................    tEmpaqueS=0; 
0837C:  MOVLB  2
0837E:  CLRF   xAA
08380:  CLRF   xA9
....................    tEmpaqueL=0; 
08382:  CLRF   xAC
08384:  CLRF   xAB
....................    tBomba=0; 
08386:  CLRF   xC8
08388:  CLRF   xC7
....................    tvacio=0; 
0838A:  CLRF   xCA
0838C:  CLRF   xC9
....................    IniciaCiclo=OFF; 
0838E:  MOVLB  1
08390:  BCF    x2A.6
....................    flagImprimir=0; 
08392:  BCF    x30.4
....................    flagImprime=0; 
08394:  MOVLB  2
08396:  BCF    x96.1
....................    tiempoImpresion=0; 
08398:  CLRF   xCC
0839A:  CLRF   xCB
....................    ingreso=OFF; 
0839C:  MOVLB  1
0839E:  BCF    x2E.5
....................    ConteoBuzzer=0; 
083A0:  MOVLB  2
083A2:  CLRF   xDA
....................    tbuzzer=0; 
083A4:  CLRF   xDF
083A6:  CLRF   xDE
....................    tEnfriador=0; 
083A8:  CLRF   xAE
083AA:  CLRF   xAD
....................    EstadoAgua2=OFF; 
083AC:  MOVLB  1
083AE:  BCF    x2C.4
.................... } 
083B0:  MOVLB  0
083B2:  RETLW  00
....................  
.................... void leePulsadores(){ 
....................    if(tIniciar>=2){ 
083B4:  MOVLB  1
083B6:  MOVF   x3F,F
083B8:  BNZ   83C0
083BA:  MOVF   x3E,W
083BC:  SUBLW  01
083BE:  BC    83C8
....................       Start=!Start; 
083C0:  BTG    x2B.5
....................       oprimioIniciar=OFF; 
083C2:  BCF    x2A.1
....................       tIniciar=0; 
083C4:  CLRF   x3F
083C6:  CLRF   x3E
....................    } 
....................     
....................    if(tCiclof>=3){ 
083C8:  MOVF   x41,F
083CA:  BNZ   83D2
083CC:  MOVF   x40,W
083CE:  SUBLW  02
083D0:  BC    83F2
....................       //printf("page Menu"); 
....................       printf("page Usuarios"); 
083D2:  MOVLW  4E
083D4:  MOVWF  FF6
083D6:  MOVLW  05
083D8:  MOVWF  FF7
083DA:  MOVLW  00
083DC:  MOVWF  FF8
083DE:  MOVLB  0
083E0:  CALL   4720
....................       SendDataDisplay(); 
083E4:  CALL   4752
....................       oprimioCiclo=OFF;       
083E8:  MOVLB  1
083EA:  BCF    x2A.2
....................       borraVariables(); 
083EC:  MOVLB  0
083EE:  RCALL  8300
083F0:  MOVLB  1
....................    } 
....................     
....................    if(tCicloP>=3){ 
083F2:  MOVF   x43,F
083F4:  BNZ   83FC
083F6:  MOVF   x42,W
083F8:  SUBLW  02
083FA:  BC    841C
....................       //printf("page CicloPersona"); 
....................       printf("page Usuarios"); 
083FC:  MOVLW  5C
083FE:  MOVWF  FF6
08400:  MOVLW  05
08402:  MOVWF  FF7
08404:  MOVLW  00
08406:  MOVWF  FF8
08408:  MOVLB  0
0840A:  CALL   4720
....................       SendDataDisplay(); 
0840E:  CALL   4752
....................       oprimioCicloP=OFF; 
08412:  MOVLB  1
08414:  BCF    x2A.3
....................       borraVariables(); 
08416:  MOVLB  0
08418:  RCALL  8300
0841A:  MOVLB  1
....................    } 
....................     
....................    if(tConfig>=3){ 
0841C:  MOVF   x45,F
0841E:  BNZ   8426
08420:  MOVF   x44,W
08422:  SUBLW  02
08424:  BC    8446
....................       //printf("page Ajustes"); 
....................       printf("page Usuarios"); 
08426:  MOVLW  6A
08428:  MOVWF  FF6
0842A:  MOVLW  05
0842C:  MOVWF  FF7
0842E:  MOVLW  00
08430:  MOVWF  FF8
08432:  MOVLB  0
08434:  CALL   4720
....................       SendDataDisplay(); 
08438:  CALL   4752
....................       oprimioConfig=OFF; 
0843C:  MOVLB  1
0843E:  BCF    x2A.4
....................       borraVariables(); 
08440:  MOVLB  0
08442:  RCALL  8300
08444:  MOVLB  1
....................    } 
....................     
....................    if(RX_Buffer[4]==0x10){//Oprimio Iniciar Ciclo 
08446:  MOVF   36,W
08448:  SUBLW  10
0844A:  BNZ   8450
....................       oprimioIniciar=ON; 
0844C:  BSF    x2A.1
....................       RX_Buffer[4]=0x00; 
0844E:  CLRF   36
....................       //RX_Buffer2[4]=0x00;                        
....................    } 
....................     
....................    if(RX_Buffer[4]==0x11){//Solto Iniciar Ciclo 
08450:  MOVF   36,W
08452:  SUBLW  11
08454:  BNZ   845E
....................       oprimioIniciar=OFF; 
08456:  BCF    x2A.1
....................       tIniciar=0; 
08458:  CLRF   x3F
0845A:  CLRF   x3E
....................       RX_Buffer[4]=0x00; 
0845C:  CLRF   36
....................       //RX_Buffer2[4]=0x00;                        
....................    } 
....................     
....................    if(RX_Buffer[4]==0x20){//Oprimio Seleccionar Ciclo 
0845E:  MOVF   36,W
08460:  SUBLW  20
08462:  BNZ   8470
....................       if(!Start || Finalizo) 
08464:  BTFSS  x2B.5
08466:  BRA    846C
08468:  BTFSS  x2E.0
0846A:  BRA    846E
....................          oprimioCiclo=ON; 
0846C:  BSF    x2A.2
....................       RX_Buffer[4]=0x00; 
0846E:  CLRF   36
....................       //RX_Buffer2[4]=0x00;                        
....................    } 
....................     
....................    if(RX_Buffer[4]==0x21){//Solto Seleccionar Ciclo 
08470:  MOVF   36,W
08472:  SUBLW  21
08474:  BNZ   847A
....................       oprimioCiclo=OFF; 
08476:  BCF    x2A.2
....................       RX_Buffer[4]=0x00; 
08478:  CLRF   36
....................       //RX_Buffer2[4]=0x00;                        
....................    } 
....................    /* 
....................    if(RX_Buffer[4]==0x30){//Oprimio Ciclos Libres 
....................       if(!Start || Finalizo) 
....................          oprimioCicloP=ON; 
....................       RX_Buffer[4]=0x00; 
....................       //RX_Buffer2[4]=0x00;                        
....................    } 
....................     
....................    if(RX_Buffer[4]==0x31){//Solto Ciclos Libres 
....................       oprimioCicloP=OFF; 
....................       RX_Buffer[4]=0x00; 
....................       //RX_Buffer2[4]=0x00;                        
....................    } 
....................     
....................    if(RX_Buffer[4]==0x40){//Oprimio Configuraciones 
....................       if(!Start || Finalizo) 
....................          oprimioConfig=ON; 
....................       RX_Buffer[4]=0x00; 
....................       //RX_Buffer2[4]=0x00;                        
....................    } 
....................     
....................    if(RX_Buffer[4]==0x41){//Solto Configuraciones 
....................       oprimioConfig=OFF; 
....................       RX_Buffer[4]=0x00; 
....................       //RX_Buffer2[4]=0x00;                        
....................    } 
....................    */ 
.................... } 
0847A:  MOVLB  0
0847C:  GOTO   D1D0 (RETURN)
....................  
.................... void ConfiguraCiclo(int8 segest,minest,segsec,minsec,liquidos,ciclo,temperatura,pulsos,nvacio,fug){ 
....................    sEstp=segest; 
*
0699A:  MOVFF  70A,14C
....................    mEstp=minest; 
0699E:  MOVFF  70B,14D
....................    sSecp=segsec; 
069A2:  MOVFF  70C,14E
....................    mSecp=minsec; 
069A6:  MOVFF  70D,14F
....................    Setpoint=temperatura;                
069AA:  MOVFF  710,2AF
....................    tiempo_secado=0; 
069AE:  MOVLB  2
069B0:  CLRF   xB3
....................    desfoguelento=liquidos; 
069B2:  MOVLB  1
069B4:  BCF    x31.4
069B6:  MOVLB  7
069B8:  BTFSS  x0E.0
069BA:  BRA    69C2
069BC:  MOVLB  1
069BE:  BSF    x31.4
069C0:  MOVLB  7
....................    CicloSeleccionado=ciclo; 
069C2:  MOVFF  70F,2A5
....................    sEst=sEstp; 
069C6:  MOVFF  14C,148
....................    mEst=mEstp; 
069CA:  MOVFF  14D,149
....................    sSec=sSecp; 
069CE:  MOVFF  14E,14A
....................    mSec=mSecp; 
069D2:  MOVFF  14F,14B
....................    CantidadPulsos=pulsos; 
069D6:  MOVLB  2
069D8:  CLRF   xA8
069DA:  MOVFF  711,2A7
....................    NivelVacio=nvacio; 
069DE:  MOVFF  712,2F5
....................    Fugas=fug; 
069E2:  MOVLB  1
069E4:  BCF    x2E.6
069E6:  MOVLB  7
069E8:  BTFSS  x13.0
069EA:  BRA    69F2
069EC:  MOVLB  1
069EE:  BSF    x2E.6
069F0:  MOVLB  7
....................    //TiempoVacio=CantidadPulsos*180; 
....................    if(!borra){ 
069F2:  MOVLB  1
069F4:  BTFSC  x31.3
069F6:  BRA    6A00
....................       borraDatoCiclo(); 
069F8:  MOVLB  0
069FA:  BRA    644A
....................       borra=ON; 
069FC:  MOVLB  1
069FE:  BSF    x31.3
....................    } 
....................    Imprime=15; 
06A00:  MOVLW  0F
06A02:  MOVLB  3
06A04:  MOVWF  x00
....................    Envio_Esclavos(); 
06A06:  MOVLB  0
06A08:  CALL   5DAC
....................    delay_ms(10); 
06A0C:  MOVLW  0A
06A0E:  MOVLB  7
06A10:  MOVWF  x18
06A12:  MOVLB  0
06A14:  CALL   21D6
....................    Imprime=10; 
06A18:  MOVLW  0A
06A1A:  MOVLB  3
06A1C:  MOVWF  x00
.................... } 
06A1E:  MOVLB  0
06A20:  RETLW  00
....................  
.................... void actualizaTabla(){ 
....................    diaCiclos=read_ext_eeprom(2+(cicloVisto*320)); 
*
072F2:  MOVFF  2E7,71B
072F6:  MOVFF  2E6,71A
072FA:  MOVLW  01
072FC:  MOVLB  7
072FE:  MOVWF  x1D
07300:  MOVLW  40
07302:  MOVWF  x1C
07304:  MOVLB  0
07306:  CALL   23D0
0730A:  MOVFF  02,03
0730E:  MOVF   01,W
07310:  ADDLW  02
07312:  MOVLB  7
07314:  MOVWF  x02
07316:  MOVLW  00
07318:  ADDWFC 02,W
0731A:  MOVWF  x03
0731C:  MOVWF  x08
0731E:  MOVFF  702,707
07322:  MOVLB  0
07324:  CALL   24D2
07328:  MOVFF  01,369
....................          if(diaCiclos>31) 
0732C:  MOVLB  3
0732E:  MOVF   x69,W
07330:  SUBLW  1F
07332:  BC    7338
....................             diaCiclos=1; 
07334:  MOVLW  01
07336:  MOVWF  x69
....................          mesCiclos=read_ext_eeprom(3+(cicloVisto*320)); 
07338:  MOVFF  2E7,71B
0733C:  MOVFF  2E6,71A
07340:  MOVLW  01
07342:  MOVLB  7
07344:  MOVWF  x1D
07346:  MOVLW  40
07348:  MOVWF  x1C
0734A:  MOVLB  0
0734C:  CALL   23D0
07350:  MOVFF  02,03
07354:  MOVF   01,W
07356:  ADDLW  03
07358:  MOVLB  7
0735A:  MOVWF  x02
0735C:  MOVLW  00
0735E:  ADDWFC 02,W
07360:  MOVWF  x03
07362:  MOVWF  x08
07364:  MOVFF  702,707
07368:  MOVLB  0
0736A:  CALL   24D2
0736E:  MOVFF  01,36A
....................          if(mesCiclos>12) 
07372:  MOVLB  3
07374:  MOVF   x6A,W
07376:  SUBLW  0C
07378:  BC    737E
....................             mesCiclos=1; 
0737A:  MOVLW  01
0737C:  MOVWF  x6A
....................          yearCiclos=read_ext_eeprom(4+(cicloVisto*320)); 
0737E:  MOVFF  2E7,71B
07382:  MOVFF  2E6,71A
07386:  MOVLW  01
07388:  MOVLB  7
0738A:  MOVWF  x1D
0738C:  MOVLW  40
0738E:  MOVWF  x1C
07390:  MOVLB  0
07392:  CALL   23D0
07396:  MOVFF  02,03
0739A:  MOVF   01,W
0739C:  ADDLW  04
0739E:  MOVLB  7
073A0:  MOVWF  x02
073A2:  MOVLW  00
073A4:  ADDWFC 02,W
073A6:  MOVWF  x03
073A8:  MOVWF  x08
073AA:  MOVFF  702,707
073AE:  MOVLB  0
073B0:  CALL   24D2
073B4:  MOVFF  01,36B
....................          if(yearCiclos>99) 
073B8:  MOVLB  3
073BA:  MOVF   x6B,W
073BC:  SUBLW  63
073BE:  BC    73C4
....................             yearCiclos=19; 
073C0:  MOVLW  13
073C2:  MOVWF  x6B
....................          cicloCiclos=read_ext_eeprom(1+(cicloVisto*320)); 
073C4:  MOVFF  2E7,71B
073C8:  MOVFF  2E6,71A
073CC:  MOVLW  01
073CE:  MOVLB  7
073D0:  MOVWF  x1D
073D2:  MOVLW  40
073D4:  MOVWF  x1C
073D6:  MOVLB  0
073D8:  CALL   23D0
073DC:  MOVFF  02,03
073E0:  MOVF   01,W
073E2:  ADDLW  01
073E4:  MOVLB  7
073E6:  MOVWF  x02
073E8:  MOVLW  00
073EA:  ADDWFC 02,W
073EC:  MOVWF  x03
073EE:  MOVWF  x08
073F0:  MOVFF  702,707
073F4:  MOVLB  0
073F6:  CALL   24D2
073FA:  MOVFF  01,36D
....................          if(cicloCiclos>20) 
073FE:  MOVLB  3
07400:  MOVF   x6D,W
07402:  SUBLW  14
07404:  BC    740A
....................             cicloCiclos=1; 
07406:  MOVLW  01
07408:  MOVWF  x6D
....................          usuarioCiclos=read_ext_eeprom((cicloVisto*320)); 
0740A:  MOVFF  2E7,71B
0740E:  MOVFF  2E6,71A
07412:  MOVLW  01
07414:  MOVLB  7
07416:  MOVWF  x1D
07418:  MOVLW  40
0741A:  MOVWF  x1C
0741C:  MOVLB  0
0741E:  CALL   23D0
07422:  MOVFF  02,703
07426:  MOVFF  01,702
0742A:  MOVFF  02,708
0742E:  MOVFF  01,707
07432:  CALL   24D2
07436:  MOVFF  01,36C
....................          if(usuarioCiclos>10) 
0743A:  MOVLB  3
0743C:  MOVF   x6C,W
0743E:  SUBLW  0A
07440:  BC    7446
....................             usuarioCiclos=1; 
07442:  MOVLW  01
07444:  MOVWF  x6C
....................          for(i=0;i<7;i++){//Lee Valores para completar la Tabla 
07446:  MOVLB  2
07448:  CLRF   xEB
0744A:  CLRF   xEA
0744C:  MOVF   xEB,F
0744E:  BTFSS  FD8.2
07450:  BRA    7B18
07452:  MOVF   xEA,W
07454:  SUBLW  06
07456:  BTFSS  FD8.0
07458:  BRA    7B18
....................             horaCiclos[i]=read_ext_eeprom((cicloVisto*320)+11+((cicloVisualizado+i)*9)); 
0745A:  MOVLW  54
0745C:  ADDWF  xEA,W
0745E:  MOVWF  01
07460:  MOVLW  03
07462:  ADDWFC xEB,W
07464:  MOVWF  03
07466:  MOVFF  01,702
0746A:  MOVLB  7
0746C:  MOVWF  x03
0746E:  MOVFF  2E7,71B
07472:  MOVFF  2E6,71A
07476:  MOVLW  01
07478:  MOVWF  x1D
0747A:  MOVLW  40
0747C:  MOVWF  x1C
0747E:  MOVLB  0
07480:  CALL   23D0
07484:  MOVFF  02,705
07488:  MOVFF  01,704
0748C:  MOVLW  0B
0748E:  MOVLB  7
07490:  ADDWF  x04,F
07492:  MOVLW  00
07494:  ADDWFC x05,F
07496:  MOVLB  2
07498:  MOVF   xEA,W
0749A:  ADDWF  xE4,W
0749C:  MOVLB  7
0749E:  MOVWF  x06
074A0:  MOVLB  2
074A2:  MOVF   xEB,W
074A4:  ADDWFC xE5,W
074A6:  MOVLB  7
074A8:  MOVWF  x07
074AA:  MOVWF  x1B
074AC:  MOVFF  706,71A
074B0:  CLRF   x1D
074B2:  MOVLW  09
074B4:  MOVWF  x1C
074B6:  MOVLB  0
074B8:  CALL   23D0
074BC:  MOVFF  02,03
074C0:  MOVF   01,W
074C2:  MOVLB  7
074C4:  ADDWF  x04,F
074C6:  MOVF   02,W
074C8:  ADDWFC x05,F
074CA:  MOVFF  705,708
074CE:  MOVFF  704,707
074D2:  MOVLB  0
074D4:  CALL   24D2
074D8:  MOVFF  703,FEA
074DC:  MOVFF  702,FE9
074E0:  MOVFF  01,FEF
....................             if(horaCiclos[i]>24) 
074E4:  MOVLW  54
074E6:  MOVLB  2
074E8:  ADDWF  xEA,W
074EA:  MOVWF  FE9
074EC:  MOVLW  03
074EE:  ADDWFC xEB,W
074F0:  MOVWF  FEA
074F2:  MOVF   FEF,W
074F4:  SUBLW  18
074F6:  BC    7506
....................                horaCiclos[i]=0; 
074F8:  MOVLW  54
074FA:  ADDWF  xEA,W
074FC:  MOVWF  FE9
074FE:  MOVLW  03
07500:  ADDWFC xEB,W
07502:  MOVWF  FEA
07504:  CLRF   FEF
....................             minutoCiclos[i]=read_ext_eeprom((cicloVisto*320)+12+((cicloVisualizado+i)*9)); 
07506:  MOVLW  5B
07508:  ADDWF  xEA,W
0750A:  MOVWF  01
0750C:  MOVLW  03
0750E:  ADDWFC xEB,W
07510:  MOVWF  03
07512:  MOVFF  01,702
07516:  MOVLB  7
07518:  MOVWF  x03
0751A:  MOVFF  2E7,71B
0751E:  MOVFF  2E6,71A
07522:  MOVLW  01
07524:  MOVWF  x1D
07526:  MOVLW  40
07528:  MOVWF  x1C
0752A:  MOVLB  0
0752C:  CALL   23D0
07530:  MOVFF  02,705
07534:  MOVFF  01,704
07538:  MOVLW  0C
0753A:  MOVLB  7
0753C:  ADDWF  x04,F
0753E:  MOVLW  00
07540:  ADDWFC x05,F
07542:  MOVLB  2
07544:  MOVF   xEA,W
07546:  ADDWF  xE4,W
07548:  MOVLB  7
0754A:  MOVWF  x06
0754C:  MOVLB  2
0754E:  MOVF   xEB,W
07550:  ADDWFC xE5,W
07552:  MOVLB  7
07554:  MOVWF  x07
07556:  MOVWF  x1B
07558:  MOVFF  706,71A
0755C:  CLRF   x1D
0755E:  MOVLW  09
07560:  MOVWF  x1C
07562:  MOVLB  0
07564:  CALL   23D0
07568:  MOVFF  02,03
0756C:  MOVF   01,W
0756E:  MOVLB  7
07570:  ADDWF  x04,F
07572:  MOVF   02,W
07574:  ADDWFC x05,F
07576:  MOVFF  705,708
0757A:  MOVFF  704,707
0757E:  MOVLB  0
07580:  CALL   24D2
07584:  MOVFF  703,FEA
07588:  MOVFF  702,FE9
0758C:  MOVFF  01,FEF
....................             if(minutoCiclos[i]>59) 
07590:  MOVLW  5B
07592:  MOVLB  2
07594:  ADDWF  xEA,W
07596:  MOVWF  FE9
07598:  MOVLW  03
0759A:  ADDWFC xEB,W
0759C:  MOVWF  FEA
0759E:  MOVF   FEF,W
075A0:  SUBLW  3B
075A2:  BC    75B2
....................                minutoCiclos[i]=0; 
075A4:  MOVLW  5B
075A6:  ADDWF  xEA,W
075A8:  MOVWF  FE9
075AA:  MOVLW  03
075AC:  ADDWFC xEB,W
075AE:  MOVWF  FEA
075B0:  CLRF   FEF
....................             TCiclos[i]=read_ext_eeprom((cicloVisto*320)+5+((cicloVisualizado+i)*9))+inttofloat(read_ext_eeprom((cicloVisto*320)+6+((cicloVisualizado+i)*9))); 
075B2:  RLCF   xEA,W
075B4:  MOVWF  02
075B6:  RLCF   xEB,W
075B8:  MOVWF  03
075BA:  RLCF   02,F
075BC:  RLCF   03,F
075BE:  MOVLW  FC
075C0:  ANDWF  02,F
075C2:  MOVF   02,W
075C4:  ADDLW  1C
075C6:  MOVWF  01
075C8:  MOVLW  03
075CA:  ADDWFC 03,F
075CC:  MOVFF  01,702
075D0:  MOVLB  7
075D2:  MOVFF  03,703
075D6:  MOVFF  2E7,71B
075DA:  MOVFF  2E6,71A
075DE:  MOVLW  01
075E0:  MOVWF  x1D
075E2:  MOVLW  40
075E4:  MOVWF  x1C
075E6:  MOVLB  0
075E8:  CALL   23D0
075EC:  MOVFF  02,705
075F0:  MOVFF  01,704
075F4:  MOVLW  05
075F6:  MOVLB  7
075F8:  ADDWF  x04,F
075FA:  MOVLW  00
075FC:  ADDWFC x05,F
075FE:  MOVLB  2
07600:  MOVF   xEA,W
07602:  ADDWF  xE4,W
07604:  MOVLB  7
07606:  MOVWF  x06
07608:  MOVLB  2
0760A:  MOVF   xEB,W
0760C:  ADDWFC xE5,W
0760E:  MOVLB  7
07610:  MOVWF  x07
07612:  MOVWF  x1B
07614:  MOVFF  706,71A
07618:  CLRF   x1D
0761A:  MOVLW  09
0761C:  MOVWF  x1C
0761E:  MOVLB  0
07620:  CALL   23D0
07624:  MOVFF  02,03
07628:  MOVF   01,W
0762A:  MOVLB  7
0762C:  ADDWF  x04,F
0762E:  MOVF   02,W
07630:  ADDWFC x05,F
07632:  MOVFF  705,708
07636:  MOVFF  704,707
0763A:  MOVLB  0
0763C:  CALL   24D2
07640:  MOVFF  01,704
07644:  MOVFF  2E7,71B
07648:  MOVFF  2E6,71A
0764C:  MOVLW  01
0764E:  MOVLB  7
07650:  MOVWF  x1D
07652:  MOVLW  40
07654:  MOVWF  x1C
07656:  MOVLB  0
07658:  CALL   23D0
0765C:  MOVFF  02,706
07660:  MOVFF  01,705
07664:  MOVLW  06
07666:  MOVLB  7
07668:  ADDWF  x05,F
0766A:  MOVLW  00
0766C:  ADDWFC x06,F
0766E:  MOVLB  2
07670:  MOVF   xEA,W
07672:  ADDWF  xE4,W
07674:  MOVLB  7
07676:  MOVWF  x07
07678:  MOVLB  2
0767A:  MOVF   xEB,W
0767C:  ADDWFC xE5,W
0767E:  MOVLB  7
07680:  MOVWF  x08
07682:  MOVWF  x1B
07684:  MOVFF  707,71A
07688:  CLRF   x1D
0768A:  MOVLW  09
0768C:  MOVWF  x1C
0768E:  MOVLB  0
07690:  CALL   23D0
07694:  MOVFF  02,03
07698:  MOVF   01,W
0769A:  MOVLB  7
0769C:  ADDWF  x05,F
0769E:  MOVF   02,W
076A0:  ADDWFC x06,F
076A2:  MOVFF  706,708
076A6:  MOVFF  705,707
076AA:  MOVLB  0
076AC:  CALL   24D2
076B0:  MOVFF  01,705
076B4:  MOVFF  01,706
076B8:  CALL   257A
076BC:  MOVFF  00,705
076C0:  MOVFF  01,706
076C4:  MOVFF  02,707
076C8:  MOVFF  03,708
076CC:  MOVLB  7
076CE:  CLRF   x15
076D0:  MOVFF  704,714
076D4:  MOVLB  0
076D6:  CALL   21A0
076DA:  MOVFF  FEA,70A
076DE:  MOVFF  FE9,709
076E2:  BCF    FD8.1
076E4:  MOVFF  03,717
076E8:  MOVFF  02,716
076EC:  MOVFF  01,715
076F0:  MOVFF  00,714
076F4:  MOVFF  708,71B
076F8:  MOVFF  707,71A
076FC:  MOVFF  706,719
07700:  MOVFF  705,718
07704:  CALL   25BA
07708:  MOVFF  70A,FEA
0770C:  MOVFF  709,FE9
07710:  MOVFF  703,FEA
07714:  MOVFF  702,FE9
07718:  MOVFF  00,FEF
0771C:  MOVFF  01,FEC
07720:  MOVFF  02,FEC
07724:  MOVFF  03,FEC
....................             if(TCiclos[i]>150) 
07728:  MOVLB  2
0772A:  RLCF   xEA,W
0772C:  MOVWF  02
0772E:  RLCF   xEB,W
07730:  MOVWF  03
07732:  RLCF   02,F
07734:  RLCF   03,F
07736:  MOVLW  FC
07738:  ANDWF  02,F
0773A:  MOVF   02,W
0773C:  ADDLW  1C
0773E:  MOVWF  FE9
07740:  MOVLW  03
07742:  ADDWFC 03,W
07744:  MOVWF  FEA
07746:  MOVFF  FEF,702
0774A:  MOVFF  FEC,703
0774E:  MOVFF  FEC,704
07752:  MOVFF  FEC,705
07756:  MOVLB  7
07758:  CLRF   x09
0775A:  CLRF   x08
0775C:  MOVLW  16
0775E:  MOVWF  x07
07760:  MOVLW  86
07762:  MOVWF  x06
07764:  MOVFF  705,70D
07768:  MOVFF  704,70C
0776C:  MOVFF  703,70B
07770:  MOVFF  702,70A
07774:  MOVLB  0
07776:  CALL   2832
0777A:  BNC   77A4
....................                TCiclos[i]=0; 
0777C:  MOVLB  2
0777E:  RLCF   xEA,W
07780:  MOVWF  02
07782:  RLCF   xEB,W
07784:  MOVWF  03
07786:  RLCF   02,F
07788:  RLCF   03,F
0778A:  MOVLW  FC
0778C:  ANDWF  02,F
0778E:  MOVF   02,W
07790:  ADDLW  1C
07792:  MOVWF  FE9
07794:  MOVLW  03
07796:  ADDWFC 03,W
07798:  MOVWF  FEA
0779A:  CLRF   FEF
0779C:  CLRF   FEC
0779E:  CLRF   FEC
077A0:  CLRF   FEC
077A2:  MOVLB  0
....................             PcCiclos[i]=make16(read_ext_eeprom((cicloVisto*320)+7+((cicloVisualizado+i)*9)),read_ext_eeprom((cicloVisto*320)+8+((cicloVisualizado+i)*9))); 
077A4:  BCF    FD8.0
077A6:  MOVLB  2
077A8:  RLCF   xEA,W
077AA:  MOVWF  02
077AC:  RLCF   xEB,W
077AE:  MOVWF  03
077B0:  MOVF   02,W
077B2:  ADDLW  38
077B4:  MOVWF  01
077B6:  MOVLW  03
077B8:  ADDWFC 03,F
077BA:  MOVFF  01,702
077BE:  MOVLB  7
077C0:  MOVFF  03,703
077C4:  MOVFF  2E7,71B
077C8:  MOVFF  2E6,71A
077CC:  MOVLW  01
077CE:  MOVWF  x1D
077D0:  MOVLW  40
077D2:  MOVWF  x1C
077D4:  MOVLB  0
077D6:  CALL   23D0
077DA:  MOVFF  02,705
077DE:  MOVFF  01,704
077E2:  MOVLW  07
077E4:  MOVLB  7
077E6:  ADDWF  x04,F
077E8:  MOVLW  00
077EA:  ADDWFC x05,F
077EC:  MOVLB  2
077EE:  MOVF   xEA,W
077F0:  ADDWF  xE4,W
077F2:  MOVLB  7
077F4:  MOVWF  x06
077F6:  MOVLB  2
077F8:  MOVF   xEB,W
077FA:  ADDWFC xE5,W
077FC:  MOVLB  7
077FE:  MOVWF  x07
07800:  MOVWF  x1B
07802:  MOVFF  706,71A
07806:  CLRF   x1D
07808:  MOVLW  09
0780A:  MOVWF  x1C
0780C:  MOVLB  0
0780E:  CALL   23D0
07812:  MOVFF  02,03
07816:  MOVF   01,W
07818:  MOVLB  7
0781A:  ADDWF  x04,F
0781C:  MOVF   02,W
0781E:  ADDWFC x05,F
07820:  MOVFF  705,708
07824:  MOVFF  704,707
07828:  MOVLB  0
0782A:  CALL   24D2
0782E:  MOVFF  01,704
07832:  MOVFF  2E7,71B
07836:  MOVFF  2E6,71A
0783A:  MOVLW  01
0783C:  MOVLB  7
0783E:  MOVWF  x1D
07840:  MOVLW  40
07842:  MOVWF  x1C
07844:  MOVLB  0
07846:  CALL   23D0
0784A:  MOVFF  02,706
0784E:  MOVFF  01,705
07852:  MOVLW  08
07854:  MOVLB  7
07856:  ADDWF  x05,F
07858:  MOVLW  00
0785A:  ADDWFC x06,F
0785C:  MOVLB  2
0785E:  MOVF   xEA,W
07860:  ADDWF  xE4,W
07862:  MOVLB  7
07864:  MOVWF  x07
07866:  MOVLB  2
07868:  MOVF   xEB,W
0786A:  ADDWFC xE5,W
0786C:  MOVLB  7
0786E:  MOVWF  x08
07870:  MOVWF  x1B
07872:  MOVFF  707,71A
07876:  CLRF   x1D
07878:  MOVLW  09
0787A:  MOVWF  x1C
0787C:  MOVLB  0
0787E:  CALL   23D0
07882:  MOVFF  02,03
07886:  MOVF   01,W
07888:  MOVLB  7
0788A:  ADDWF  x05,F
0788C:  MOVF   02,W
0788E:  ADDWFC x06,F
07890:  MOVFF  706,708
07894:  MOVFF  705,707
07898:  MOVLB  0
0789A:  CALL   24D2
0789E:  MOVFF  703,FEA
078A2:  MOVFF  702,FE9
078A6:  MOVFF  704,FEC
078AA:  MOVF   FED,F
078AC:  MOVFF  01,FEF
....................             if(PcCiclos[i]>400) 
078B0:  BCF    FD8.0
078B2:  MOVLB  2
078B4:  RLCF   xEA,W
078B6:  MOVWF  02
078B8:  RLCF   xEB,W
078BA:  MOVWF  03
078BC:  MOVF   02,W
078BE:  ADDLW  38
078C0:  MOVWF  FE9
078C2:  MOVLW  03
078C4:  ADDWFC 03,W
078C6:  MOVWF  FEA
078C8:  MOVFF  FEC,703
078CC:  MOVF   FED,F
078CE:  MOVFF  FEF,702
078D2:  MOVLB  7
078D4:  MOVF   x03,W
078D6:  SUBLW  00
078D8:  BC    7904
078DA:  XORLW  FF
078DC:  BNZ   78E4
078DE:  MOVF   x02,W
078E0:  SUBLW  90
078E2:  BC    7904
....................                PcCiclos[i]=0; 
078E4:  BCF    FD8.0
078E6:  MOVLB  2
078E8:  RLCF   xEA,W
078EA:  MOVWF  02
078EC:  RLCF   xEB,W
078EE:  MOVWF  03
078F0:  MOVF   02,W
078F2:  ADDLW  38
078F4:  MOVWF  FE9
078F6:  MOVLW  03
078F8:  ADDWFC 03,W
078FA:  MOVWF  FEA
078FC:  CLRF   FEC
078FE:  MOVF   FED,F
07900:  CLRF   FEF
07902:  MOVLB  7
....................             PpcCiclos[i]=make16(read_ext_eeprom((cicloVisto*320)+9+((cicloVisualizado+i)*9)),read_ext_eeprom((cicloVisto*320)+10+((cicloVisualizado+i)*9))); 
07904:  BCF    FD8.0
07906:  MOVLB  2
07908:  RLCF   xEA,W
0790A:  MOVWF  02
0790C:  RLCF   xEB,W
0790E:  MOVWF  03
07910:  MOVF   02,W
07912:  ADDLW  46
07914:  MOVWF  01
07916:  MOVLW  03
07918:  ADDWFC 03,F
0791A:  MOVFF  01,702
0791E:  MOVLB  7
07920:  MOVFF  03,703
07924:  MOVFF  2E7,71B
07928:  MOVFF  2E6,71A
0792C:  MOVLW  01
0792E:  MOVWF  x1D
07930:  MOVLW  40
07932:  MOVWF  x1C
07934:  MOVLB  0
07936:  CALL   23D0
0793A:  MOVFF  02,705
0793E:  MOVFF  01,704
07942:  MOVLW  09
07944:  MOVLB  7
07946:  ADDWF  x04,F
07948:  MOVLW  00
0794A:  ADDWFC x05,F
0794C:  MOVLB  2
0794E:  MOVF   xEA,W
07950:  ADDWF  xE4,W
07952:  MOVLB  7
07954:  MOVWF  x06
07956:  MOVLB  2
07958:  MOVF   xEB,W
0795A:  ADDWFC xE5,W
0795C:  MOVLB  7
0795E:  MOVWF  x07
07960:  MOVWF  x1B
07962:  MOVFF  706,71A
07966:  CLRF   x1D
07968:  MOVLW  09
0796A:  MOVWF  x1C
0796C:  MOVLB  0
0796E:  CALL   23D0
07972:  MOVFF  02,03
07976:  MOVF   01,W
07978:  MOVLB  7
0797A:  ADDWF  x04,F
0797C:  MOVF   02,W
0797E:  ADDWFC x05,F
07980:  MOVFF  705,708
07984:  MOVFF  704,707
07988:  MOVLB  0
0798A:  CALL   24D2
0798E:  MOVFF  01,704
07992:  MOVFF  2E7,71B
07996:  MOVFF  2E6,71A
0799A:  MOVLW  01
0799C:  MOVLB  7
0799E:  MOVWF  x1D
079A0:  MOVLW  40
079A2:  MOVWF  x1C
079A4:  MOVLB  0
079A6:  CALL   23D0
079AA:  MOVFF  02,706
079AE:  MOVFF  01,705
079B2:  MOVLW  0A
079B4:  MOVLB  7
079B6:  ADDWF  x05,F
079B8:  MOVLW  00
079BA:  ADDWFC x06,F
079BC:  MOVLB  2
079BE:  MOVF   xEA,W
079C0:  ADDWF  xE4,W
079C2:  MOVLB  7
079C4:  MOVWF  x07
079C6:  MOVLB  2
079C8:  MOVF   xEB,W
079CA:  ADDWFC xE5,W
079CC:  MOVLB  7
079CE:  MOVWF  x08
079D0:  MOVWF  x1B
079D2:  MOVFF  707,71A
079D6:  CLRF   x1D
079D8:  MOVLW  09
079DA:  MOVWF  x1C
079DC:  MOVLB  0
079DE:  CALL   23D0
079E2:  MOVFF  02,03
079E6:  MOVF   01,W
079E8:  MOVLB  7
079EA:  ADDWF  x05,F
079EC:  MOVF   02,W
079EE:  ADDWFC x06,F
079F0:  MOVFF  706,708
079F4:  MOVFF  705,707
079F8:  MOVLB  0
079FA:  CALL   24D2
079FE:  MOVFF  703,FEA
07A02:  MOVFF  702,FE9
07A06:  MOVFF  704,FEC
07A0A:  MOVF   FED,F
07A0C:  MOVFF  01,FEF
....................             if(PpcCiclos[i]>400) 
07A10:  BCF    FD8.0
07A12:  MOVLB  2
07A14:  RLCF   xEA,W
07A16:  MOVWF  02
07A18:  RLCF   xEB,W
07A1A:  MOVWF  03
07A1C:  MOVF   02,W
07A1E:  ADDLW  46
07A20:  MOVWF  FE9
07A22:  MOVLW  03
07A24:  ADDWFC 03,W
07A26:  MOVWF  FEA
07A28:  MOVFF  FEC,703
07A2C:  MOVF   FED,F
07A2E:  MOVFF  FEF,702
07A32:  MOVLB  7
07A34:  MOVF   x03,W
07A36:  SUBLW  00
07A38:  BC    7A62
07A3A:  XORLW  FF
07A3C:  BNZ   7A44
07A3E:  MOVF   x02,W
07A40:  SUBLW  90
07A42:  BC    7A62
....................                PpcCiclos[i]=0; 
07A44:  BCF    FD8.0
07A46:  MOVLB  2
07A48:  RLCF   xEA,W
07A4A:  MOVWF  02
07A4C:  RLCF   xEB,W
07A4E:  MOVWF  03
07A50:  MOVF   02,W
07A52:  ADDLW  46
07A54:  MOVWF  FE9
07A56:  MOVLW  03
07A58:  ADDWFC 03,W
07A5A:  MOVWF  FEA
07A5C:  CLRF   FEC
07A5E:  MOVF   FED,F
07A60:  CLRF   FEF
....................             ACiclos[i]=read_ext_eeprom((cicloVisto*320)+13+((cicloVisualizado+i)*9)); 
07A62:  MOVLW  62
07A64:  MOVLB  2
07A66:  ADDWF  xEA,W
07A68:  MOVWF  01
07A6A:  MOVLW  03
07A6C:  ADDWFC xEB,W
07A6E:  MOVWF  03
07A70:  MOVFF  01,702
07A74:  MOVLB  7
07A76:  MOVWF  x03
07A78:  MOVFF  2E7,71B
07A7C:  MOVFF  2E6,71A
07A80:  MOVLW  01
07A82:  MOVWF  x1D
07A84:  MOVLW  40
07A86:  MOVWF  x1C
07A88:  MOVLB  0
07A8A:  CALL   23D0
07A8E:  MOVFF  02,705
07A92:  MOVFF  01,704
07A96:  MOVLW  0D
07A98:  MOVLB  7
07A9A:  ADDWF  x04,F
07A9C:  MOVLW  00
07A9E:  ADDWFC x05,F
07AA0:  MOVLB  2
07AA2:  MOVF   xEA,W
07AA4:  ADDWF  xE4,W
07AA6:  MOVLB  7
07AA8:  MOVWF  x06
07AAA:  MOVLB  2
07AAC:  MOVF   xEB,W
07AAE:  ADDWFC xE5,W
07AB0:  MOVLB  7
07AB2:  MOVWF  x07
07AB4:  MOVWF  x1B
07AB6:  MOVFF  706,71A
07ABA:  CLRF   x1D
07ABC:  MOVLW  09
07ABE:  MOVWF  x1C
07AC0:  MOVLB  0
07AC2:  CALL   23D0
07AC6:  MOVFF  02,03
07ACA:  MOVF   01,W
07ACC:  MOVLB  7
07ACE:  ADDWF  x04,F
07AD0:  MOVF   02,W
07AD2:  ADDWFC x05,F
07AD4:  MOVFF  705,708
07AD8:  MOVFF  704,707
07ADC:  MOVLB  0
07ADE:  CALL   24D2
07AE2:  MOVFF  703,FEA
07AE6:  MOVFF  702,FE9
07AEA:  MOVFF  01,FEF
....................             if(ACiclos[i]>30) 
07AEE:  MOVLW  62
07AF0:  MOVLB  2
07AF2:  ADDWF  xEA,W
07AF4:  MOVWF  FE9
07AF6:  MOVLW  03
07AF8:  ADDWFC xEB,W
07AFA:  MOVWF  FEA
07AFC:  MOVF   FEF,W
07AFE:  SUBLW  1E
07B00:  BC    7B10
....................                ACiclos[i]=0; 
07B02:  MOVLW  62
07B04:  ADDWF  xEA,W
07B06:  MOVWF  FE9
07B08:  MOVLW  03
07B0A:  ADDWFC xEB,W
07B0C:  MOVWF  FEA
07B0E:  CLRF   FEF
....................          } 
07B10:  INCF   xEA,F
07B12:  BTFSC  FD8.2
07B14:  INCF   xEB,F
07B16:  BRA    744C
.................... } 
07B18:  MOVLB  0
07B1A:  GOTO   C7DE (RETURN)
....................  
....................  
.................... #include "Menu.h" 
.................... void menuPrincipal(){ 
....................    if(Menu==240){ //Menu de Bienvenida. 
*
08D7C:  MOVLB  2
08D7E:  MOVF   xA0,W
08D80:  SUBLW  F0
08D82:  BNZ   8DD0
....................       printf("bkcmd=0"); 
08D84:  MOVLW  78
08D86:  MOVWF  FF6
08D88:  MOVLW  05
08D8A:  MOVWF  FF7
08D8C:  MOVLW  00
08D8E:  MOVWF  FF8
08D90:  MOVLB  0
08D92:  CALL   4720
....................       SendDataDisplay(); 
08D96:  CALL   4752
....................       delay_ms(1500); 
08D9A:  MOVLW  06
08D9C:  MOVLB  7
08D9E:  MOVWF  x02
08DA0:  MOVLW  FA
08DA2:  MOVWF  x18
08DA4:  MOVLB  0
08DA6:  CALL   21D6
08DAA:  MOVLB  7
08DAC:  DECFSZ x02,F
08DAE:  BRA    8DA0
....................       printf("page Usuarios"); 
08DB0:  MOVLW  80
08DB2:  MOVWF  FF6
08DB4:  MOVLW  05
08DB6:  MOVWF  FF7
08DB8:  MOVLW  00
08DBA:  MOVWF  FF8
08DBC:  MOVLB  0
08DBE:  CALL   4720
....................       SendDataDisplay(); 
08DC2:  CALL   4752
....................       ApagaSalidas(); 
08DC6:  CALL   4788
....................    }else if(Menu==0){ //Menu de Contrasea de acceso. 
08DCA:  GOTO   ECDA
08DCE:  MOVLB  2
08DD0:  MOVF   xA0,F
08DD2:  BTFSS  FD8.2
08DD4:  BRA    9414
....................       entro=OFF; 
08DD6:  MOVLB  1
08DD8:  BCF    x30.5
....................       ApagaSalidas(); 
08DDA:  MOVLB  0
08DDC:  CALL   4788
....................       //printf("bkcmd=0"); 
....................       //SendDataDisplay(); 
....................       if(RX_Buffer[4]==0x11){//11 
08DE0:  MOVF   36,W
08DE2:  SUBLW  11
08DE4:  BNZ   8E06
....................          if(TipoClave!=0){ 
08DE6:  MOVLB  2
08DE8:  MOVF   x24,F
08DEA:  BZ    8E06
....................             printf("page Menu"); 
08DEC:  MOVLW  8E
08DEE:  MOVWF  FF6
08DF0:  MOVLW  05
08DF2:  MOVWF  FF7
08DF4:  MOVLW  00
08DF6:  MOVWF  FF8
08DF8:  MOVLB  0
08DFA:  CALL   4720
....................             SendDataDisplay(); 
08DFE:  CALL   4752
....................             PantallaPrincipal=0; 
08E02:  MOVLB  2
08E04:  CLRF   x23
....................          } 
....................       } 
....................        
....................       if(TipoClave==3){ 
08E06:  MOVLB  2
08E08:  MOVF   x24,W
08E0A:  SUBLW  03
08E0C:  BNZ   8E26
....................          printf("titulo.txt=\"Clave Nueva\""); 
08E0E:  MOVLW  98
08E10:  MOVWF  FF6
08E12:  MOVLW  05
08E14:  MOVWF  FF7
08E16:  MOVLW  00
08E18:  MOVWF  FF8
08E1A:  MOVLB  0
08E1C:  CALL   4720
....................          SendDataDisplay(); 
08E20:  CALL   4752
08E24:  MOVLB  2
....................       } 
....................        
....................       if(TipoClave==2){ 
08E26:  MOVF   x24,W
08E28:  SUBLW  02
08E2A:  BNZ   8E44
....................          printf("titulo.txt=\"Clave Actual\""); 
08E2C:  MOVLW  B2
08E2E:  MOVWF  FF6
08E30:  MOVLW  05
08E32:  MOVWF  FF7
08E34:  MOVLW  00
08E36:  MOVWF  FF8
08E38:  MOVLB  0
08E3A:  CALL   4720
....................          SendDataDisplay();         
08E3E:  CALL   4752
08E42:  MOVLB  2
....................       } 
....................        
....................       if(TipoClave==1){ 
08E44:  DECFSZ x24,W
08E46:  BRA    8E60
....................          printf("titulo.txt=\"Clave Tecnico\""); 
08E48:  MOVLW  CC
08E4A:  MOVWF  FF6
08E4C:  MOVLW  05
08E4E:  MOVWF  FF7
08E50:  MOVLW  00
08E52:  MOVWF  FF8
08E54:  MOVLB  0
08E56:  CALL   4720
....................          SendDataDisplay(); 
08E5A:  CALL   4752
08E5E:  MOVLB  2
....................       } 
....................        
....................       if(TipoClave==0){ 
08E60:  MOVF   x24,F
08E62:  BNZ   8E96
....................          printf("titulo.txt=\"%s\"",usuario); 
08E64:  MOVLW  E8
08E66:  MOVWF  FF6
08E68:  MOVLW  05
08E6A:  MOVWF  FF7
08E6C:  MOVLW  00
08E6E:  MOVWF  FF8
08E70:  MOVLW  0C
08E72:  MOVLB  7
08E74:  MOVWF  x08
08E76:  MOVLB  0
08E78:  CALL   628E
08E7C:  MOVLW  03
08E7E:  MOVWF  FEA
08E80:  MOVLW  08
08E82:  MOVWF  FE9
08E84:  CALL   62C0
08E88:  MOVLW  22
08E8A:  BTFSS  F9E.4
08E8C:  BRA    8E8A
08E8E:  MOVWF  FAD
....................          SendDataDisplay(); 
08E90:  CALL   4752
08E94:  MOVLB  2
....................       } 
....................        
....................       if(RX_Buffer[4]==0x11){//11, Regresar 
08E96:  MOVF   36,W
08E98:  SUBLW  11
08E9A:  BNZ   8ED2
....................          if(TipoClave==1){ 
08E9C:  DECFSZ x24,W
08E9E:  BRA    8EBA
....................             printf("page Ajustes"); 
08EA0:  MOVLW  F8
08EA2:  MOVWF  FF6
08EA4:  MOVLW  05
08EA6:  MOVWF  FF7
08EA8:  MOVLW  00
08EAA:  MOVWF  FF8
08EAC:  MOVLB  0
08EAE:  CALL   4720
....................             SendDataDisplay();        
08EB2:  CALL   4752
....................          }else{ 
08EB6:  BRA    8ED0
08EB8:  MOVLB  2
....................             printf("page Usuarios"); 
08EBA:  MOVLW  06
08EBC:  MOVWF  FF6
08EBE:  MOVLW  06
08EC0:  MOVWF  FF7
08EC2:  MOVLW  00
08EC4:  MOVWF  FF8
08EC6:  MOVLB  0
08EC8:  CALL   4720
....................             SendDataDisplay();        
08ECC:  CALL   4752
08ED0:  MOVLB  2
....................          } 
....................       } 
....................        
....................       if(RX_Buffer[3]==0x0f){//0f, recibe caracteres ingresados desde el Display 
08ED2:  MOVF   35,W
08ED4:  SUBLW  0F
08ED6:  BTFSS  FD8.2
08ED8:  BRA    9410
....................          delay_ms(800); 
08EDA:  MOVLW  04
08EDC:  MOVLB  7
08EDE:  MOVWF  x02
08EE0:  MOVLW  C8
08EE2:  MOVWF  x18
08EE4:  MOVLB  0
08EE6:  CALL   21D6
08EEA:  MOVLB  7
08EEC:  DECFSZ x02,F
08EEE:  BRA    8EE0
....................          if(TipoClave==0){ 
08EF0:  MOVLB  2
08EF2:  MOVF   x24,F
08EF4:  BTFSS  FD8.2
08EF6:  BRA    90B4
....................             if(RX_Buffer[4]==0x33&&RX_Buffer[5]==0x38&&RX_Buffer[6]==0x39&&RX_Buffer[7]==0x32 &&RX_Buffer[8]==0x00 &&RX_Buffer[9]==0xff){ // Si Ingresa clave para reset general del sistema. 
08EF8:  MOVF   36,W
08EFA:  SUBLW  33
08EFC:  BNZ   8F7E
08EFE:  MOVF   37,W
08F00:  SUBLW  38
08F02:  BNZ   8F7E
08F04:  MOVF   38,W
08F06:  SUBLW  39
08F08:  BNZ   8F7E
08F0A:  MOVF   39,W
08F0C:  SUBLW  32
08F0E:  BNZ   8F7E
08F10:  MOVF   3A,F
08F12:  BNZ   8F7E
08F14:  INCFSZ 3B,W
08F16:  BRA    8F7E
....................                for(i=0;i<40;i++){//Lee contraseas de usuarios 
08F18:  CLRF   xEB
08F1A:  CLRF   xEA
08F1C:  MOVF   xEB,F
08F1E:  BNZ   8F7C
08F20:  MOVF   xEA,W
08F22:  SUBLW  27
08F24:  BNC   8F7C
....................                   write_eeprom(300+i,0);delay_ms(20); 
08F26:  MOVLW  2C
08F28:  ADDWF  xEA,W
08F2A:  MOVLB  7
08F2C:  MOVWF  x02
08F2E:  MOVLW  01
08F30:  MOVLB  2
08F32:  ADDWFC xEB,W
08F34:  MOVLB  7
08F36:  MOVWF  x03
08F38:  MOVFF  703,FAA
08F3C:  MOVFF  702,FA9
08F40:  CLRF   FA8
08F42:  BCF    FA6.6
08F44:  BCF    FA6.7
08F46:  BSF    FA6.2
08F48:  MOVF   FF2,W
08F4A:  MOVWF  00
08F4C:  BCF    FF2.6
08F4E:  BCF    FF2.7
08F50:  MOVLB  F
08F52:  MOVLW  55
08F54:  MOVWF  FA7
08F56:  MOVLW  AA
08F58:  MOVWF  FA7
08F5A:  BSF    FA6.1
08F5C:  BTFSC  FA6.1
08F5E:  BRA    8F5C
08F60:  BCF    FA6.2
08F62:  MOVF   00,W
08F64:  IORWF  FF2,F
08F66:  MOVLW  14
08F68:  MOVLB  7
08F6A:  MOVWF  x18
08F6C:  MOVLB  0
08F6E:  CALL   21D6
....................                } 
08F72:  MOVLB  2
08F74:  INCF   xEA,F
08F76:  BTFSC  FD8.2
08F78:  INCF   xEB,F
08F7A:  BRA    8F1C
....................                reset_cpu(); 
08F7C:  RESET
....................             } 
....................              
....................             if(RX_Buffer[4]>=0x30 && RX_Buffer[5]>=0x30 && RX_Buffer[6]>=0x30 && RX_Buffer[7]>=0x30 
....................             && RX_Buffer[4]<=0x39 && RX_Buffer[5]<=0x39 && RX_Buffer[6]<=0x39 && RX_Buffer[7]<=0x39){ 
08F7E:  MOVF   36,W
08F80:  SUBLW  2F
08F82:  BTFSC  FD8.0
08F84:  BRA    90B2
08F86:  MOVF   37,W
08F88:  SUBLW  2F
08F8A:  BTFSC  FD8.0
08F8C:  BRA    90B2
08F8E:  MOVF   38,W
08F90:  SUBLW  2F
08F92:  BTFSC  FD8.0
08F94:  BRA    90B2
08F96:  MOVF   39,W
08F98:  SUBLW  2F
08F9A:  BTFSC  FD8.0
08F9C:  BRA    90B2
08F9E:  MOVF   36,W
08FA0:  SUBLW  39
08FA2:  BTFSS  FD8.0
08FA4:  BRA    90B2
08FA6:  MOVF   37,W
08FA8:  SUBLW  39
08FAA:  BTFSS  FD8.0
08FAC:  BRA    90B2
08FAE:  MOVF   38,W
08FB0:  SUBLW  39
08FB2:  BTFSS  FD8.0
08FB4:  BRA    90B2
08FB6:  MOVF   39,W
08FB8:  SUBLW  39
08FBA:  BTFSS  FD8.0
08FBC:  BRA    90B2
....................                if((RX_Buffer[4]==Clave[codigoUsuario].Password[0]+0x30)&&(RX_Buffer[5]==Clave[codigoUsuario].Password[1]+0x30)&& 
....................                (RX_Buffer[6]==Clave[codigoUsuario].Password[2]+0x30)&&(RX_Buffer[7]==Clave[codigoUsuario].Password[3]+0x30) 
....................                &&RX_Buffer[8]==0x00 &&RX_Buffer[9]==0xff){ 
08FBE:  MOVLB  3
08FC0:  MOVF   x02,W
08FC2:  MULLW  04
08FC4:  MOVF   FF3,W
08FC6:  MOVLB  7
08FC8:  CLRF   x03
08FCA:  MOVWF  x02
08FCC:  MOVLW  DA
08FCE:  ADDWF  x02,W
08FD0:  MOVWF  FE9
08FD2:  MOVLW  06
08FD4:  ADDWFC x03,W
08FD6:  MOVWF  FEA
08FD8:  MOVLW  30
08FDA:  ADDWF  FEF,W
08FDC:  SUBWF  36,W
08FDE:  BNZ   9094
08FE0:  MOVLB  3
08FE2:  MOVF   x02,W
08FE4:  MULLW  04
08FE6:  MOVF   FF3,W
08FE8:  MOVLB  7
08FEA:  CLRF   x03
08FEC:  MOVWF  x02
08FEE:  MOVLW  01
08FF0:  ADDWF  x02,W
08FF2:  MOVWF  01
08FF4:  MOVLW  00
08FF6:  ADDWFC x03,W
08FF8:  MOVWF  03
08FFA:  MOVF   01,W
08FFC:  ADDLW  DA
08FFE:  MOVWF  FE9
09000:  MOVLW  06
09002:  ADDWFC 03,W
09004:  MOVWF  FEA
09006:  MOVLW  30
09008:  ADDWF  FEF,W
0900A:  SUBWF  37,W
0900C:  BNZ   9094
0900E:  MOVLB  3
09010:  MOVF   x02,W
09012:  MULLW  04
09014:  MOVF   FF3,W
09016:  MOVLB  7
09018:  CLRF   x03
0901A:  MOVWF  x02
0901C:  MOVLW  02
0901E:  ADDWF  x02,W
09020:  MOVWF  01
09022:  MOVLW  00
09024:  ADDWFC x03,W
09026:  MOVWF  03
09028:  MOVF   01,W
0902A:  ADDLW  DA
0902C:  MOVWF  FE9
0902E:  MOVLW  06
09030:  ADDWFC 03,W
09032:  MOVWF  FEA
09034:  MOVLW  30
09036:  ADDWF  FEF,W
09038:  SUBWF  38,W
0903A:  BNZ   9094
0903C:  MOVLB  3
0903E:  MOVF   x02,W
09040:  MULLW  04
09042:  MOVF   FF3,W
09044:  MOVLB  7
09046:  CLRF   x03
09048:  MOVWF  x02
0904A:  MOVLW  03
0904C:  ADDWF  x02,W
0904E:  MOVWF  01
09050:  MOVLW  00
09052:  ADDWFC x03,W
09054:  MOVWF  03
09056:  MOVF   01,W
09058:  ADDLW  DA
0905A:  MOVWF  FE9
0905C:  MOVLW  06
0905E:  ADDWFC 03,W
09060:  MOVWF  FEA
09062:  MOVLW  30
09064:  ADDWF  FEF,W
09066:  SUBWF  39,W
09068:  BNZ   9094
0906A:  MOVF   3A,F
0906C:  BNZ   9094
0906E:  INCFSZ 3B,W
09070:  BRA    9094
....................                   printf("page ClaveCorrecta"); 
09072:  MOVLW  14
09074:  MOVWF  FF6
09076:  MOVLW  06
09078:  MOVWF  FF7
0907A:  MOVLW  00
0907C:  MOVWF  FF8
0907E:  MOVLB  0
09080:  CALL   4720
....................                   SendDataDisplay(); 
09084:  CALL   4752
....................                   ingreso=ON; 
09088:  MOVLB  1
0908A:  BSF    x2E.5
....................                   RX_Buffer[3]=0x00;RX_Buffer2[3]=0x00;   
0908C:  CLRF   35
0908E:  CLRF   40
....................                }else{ 
09090:  BRA    90B0
09092:  MOVLB  7
....................                   printf("page ClaveBad"); 
09094:  MOVLW  28
09096:  MOVWF  FF6
09098:  MOVLW  06
0909A:  MOVWF  FF7
0909C:  MOVLW  00
0909E:  MOVWF  FF8
090A0:  MOVLB  0
090A2:  CALL   4720
....................                   SendDataDisplay(); 
090A6:  CALL   4752
....................                   RX_Buffer[3]=0x00;RX_Buffer2[3]=0x00;   
090AA:  CLRF   35
090AC:  CLRF   40
090AE:  MOVLB  1
090B0:  MOVLB  2
....................                }  
....................             } 
....................          }else if(TipoClave==1){ 
090B2:  BRA    940C
090B4:  DECFSZ x24,W
090B6:  BRA    9114
....................             if(RX_Buffer[4]==0x34&&RX_Buffer[5]==0x34&&RX_Buffer[6]==0x34&&RX_Buffer[7]==0x34&&RX_Buffer[8]==0x00 &&RX_Buffer[9]==0xff){ // Si Ingresa clave de Servicio Tecnico 
090B8:  MOVF   36,W
090BA:  SUBLW  34
090BC:  BNZ   90F6
090BE:  MOVF   37,W
090C0:  SUBLW  34
090C2:  BNZ   90F6
090C4:  MOVF   38,W
090C6:  SUBLW  34
090C8:  BNZ   90F6
090CA:  MOVF   39,W
090CC:  SUBLW  34
090CE:  BNZ   90F6
090D0:  MOVF   3A,F
090D2:  BNZ   90F6
090D4:  INCFSZ 3B,W
090D6:  BRA    90F6
....................                printf("page Config"); 
090D8:  MOVLW  36
090DA:  MOVWF  FF6
090DC:  MOVLW  06
090DE:  MOVWF  FF7
090E0:  MOVLW  00
090E2:  MOVWF  FF8
090E4:  MOVLB  0
090E6:  CALL   4720
....................                SendDataDisplay(); 
090EA:  CALL   4752
....................                RX_Buffer[3]=0x00;RX_Buffer2[3]=0x00;   
090EE:  CLRF   35
090F0:  CLRF   40
....................             }else{ 
090F2:  BRA    9110
090F4:  MOVLB  2
....................                printf("page Menu"); 
090F6:  MOVLW  42
090F8:  MOVWF  FF6
090FA:  MOVLW  06
090FC:  MOVWF  FF7
090FE:  MOVLW  00
09100:  MOVWF  FF8
09102:  MOVLB  0
09104:  CALL   4720
....................                SendDataDisplay(); 
09108:  CALL   4752
....................                RX_Buffer[3]=0x00;RX_Buffer2[3]=0x00;   
0910C:  CLRF   35
0910E:  CLRF   40
....................             } 
....................          }else if(TipoClave==2){ 
09110:  BRA    940E
09112:  MOVLB  2
09114:  MOVF   x24,W
09116:  SUBLW  02
09118:  BTFSS  FD8.2
0911A:  BRA    9268
....................             if(RX_Buffer[4]>=0x30 && RX_Buffer[5]>=0x30 && RX_Buffer[6]>=0x30 && RX_Buffer[7]>=0x30 
....................             && RX_Buffer[4]<=0x39 && RX_Buffer[5]<=0x39 && RX_Buffer[6]<=0x39 && RX_Buffer[7]<=0x39){ 
0911C:  MOVF   36,W
0911E:  SUBLW  2F
09120:  BTFSC  FD8.0
09122:  BRA    9266
09124:  MOVF   37,W
09126:  SUBLW  2F
09128:  BTFSC  FD8.0
0912A:  BRA    9266
0912C:  MOVF   38,W
0912E:  SUBLW  2F
09130:  BTFSC  FD8.0
09132:  BRA    9266
09134:  MOVF   39,W
09136:  SUBLW  2F
09138:  BTFSC  FD8.0
0913A:  BRA    9266
0913C:  MOVF   36,W
0913E:  SUBLW  39
09140:  BTFSS  FD8.0
09142:  BRA    9266
09144:  MOVF   37,W
09146:  SUBLW  39
09148:  BTFSS  FD8.0
0914A:  BRA    9266
0914C:  MOVF   38,W
0914E:  SUBLW  39
09150:  BTFSS  FD8.0
09152:  BRA    9266
09154:  MOVF   39,W
09156:  SUBLW  39
09158:  BTFSS  FD8.0
0915A:  BRA    9266
....................                if((RX_Buffer[4]==Clave[codigoUsuario2].Password[0]+0x30)&&(RX_Buffer[5]==Clave[codigoUsuario2].Password[1]+0x30)&& 
....................                (RX_Buffer[6]==Clave[codigoUsuario2].Password[2]+0x30)&&(RX_Buffer[7]==Clave[codigoUsuario2].Password[3]+0x30) 
....................                &&RX_Buffer[8]==0x00 &&RX_Buffer[9]==0xff){ 
0915C:  MOVF   xDD,W
0915E:  MULLW  04
09160:  MOVF   FF3,W
09162:  MOVLB  7
09164:  CLRF   x03
09166:  MOVWF  x02
09168:  MOVLW  DA
0916A:  ADDWF  x02,W
0916C:  MOVWF  FE9
0916E:  MOVLW  06
09170:  ADDWFC x03,W
09172:  MOVWF  FEA
09174:  MOVLW  30
09176:  ADDWF  FEF,W
09178:  SUBWF  36,W
0917A:  BNZ   9246
0917C:  MOVLB  2
0917E:  MOVF   xDD,W
09180:  MULLW  04
09182:  MOVF   FF3,W
09184:  MOVLB  7
09186:  CLRF   x03
09188:  MOVWF  x02
0918A:  MOVLW  01
0918C:  ADDWF  x02,W
0918E:  MOVWF  01
09190:  MOVLW  00
09192:  ADDWFC x03,W
09194:  MOVWF  03
09196:  MOVF   01,W
09198:  ADDLW  DA
0919A:  MOVWF  FE9
0919C:  MOVLW  06
0919E:  ADDWFC 03,W
091A0:  MOVWF  FEA
091A2:  MOVLW  30
091A4:  ADDWF  FEF,W
091A6:  SUBWF  37,W
091A8:  BNZ   9246
091AA:  MOVLB  2
091AC:  MOVF   xDD,W
091AE:  MULLW  04
091B0:  MOVF   FF3,W
091B2:  MOVLB  7
091B4:  CLRF   x03
091B6:  MOVWF  x02
091B8:  MOVLW  02
091BA:  ADDWF  x02,W
091BC:  MOVWF  01
091BE:  MOVLW  00
091C0:  ADDWFC x03,W
091C2:  MOVWF  03
091C4:  MOVF   01,W
091C6:  ADDLW  DA
091C8:  MOVWF  FE9
091CA:  MOVLW  06
091CC:  ADDWFC 03,W
091CE:  MOVWF  FEA
091D0:  MOVLW  30
091D2:  ADDWF  FEF,W
091D4:  SUBWF  38,W
091D6:  BNZ   9246
091D8:  MOVLB  2
091DA:  MOVF   xDD,W
091DC:  MULLW  04
091DE:  MOVF   FF3,W
091E0:  MOVLB  7
091E2:  CLRF   x03
091E4:  MOVWF  x02
091E6:  MOVLW  03
091E8:  ADDWF  x02,W
091EA:  MOVWF  01
091EC:  MOVLW  00
091EE:  ADDWFC x03,W
091F0:  MOVWF  03
091F2:  MOVF   01,W
091F4:  ADDLW  DA
091F6:  MOVWF  FE9
091F8:  MOVLW  06
091FA:  ADDWFC 03,W
091FC:  MOVWF  FEA
091FE:  MOVLW  30
09200:  ADDWF  FEF,W
09202:  SUBWF  39,W
09204:  BNZ   9246
09206:  MOVF   3A,F
09208:  BNZ   9246
0920A:  INCFSZ 3B,W
0920C:  BRA    9246
....................                   printf("page Clave"); 
0920E:  MOVLW  4C
09210:  MOVWF  FF6
09212:  MOVLW  06
09214:  MOVWF  FF7
09216:  MOVLW  00
09218:  MOVWF  FF8
0921A:  MOVLB  0
0921C:  CALL   4720
....................                   SendDataDisplay(); 
09220:  CALL   4752
....................                   printf("titulo.txt=\"Clave Nueva\""); 
09224:  MOVLW  58
09226:  MOVWF  FF6
09228:  MOVLW  06
0922A:  MOVWF  FF7
0922C:  MOVLW  00
0922E:  MOVWF  FF8
09230:  CALL   4720
....................                   SendDataDisplay(); 
09234:  CALL   4752
....................                   TipoClave=3; 
09238:  MOVLW  03
0923A:  MOVLB  2
0923C:  MOVWF  x24
....................                   RX_Buffer[3]=0x00; 
0923E:  CLRF   35
....................                   RX_Buffer2[3]=0x00; 
09240:  CLRF   40
....................                }else{ 
09242:  BRA    9266
09244:  MOVLB  7
....................                   printf("page Menu"); 
09246:  MOVLW  72
09248:  MOVWF  FF6
0924A:  MOVLW  06
0924C:  MOVWF  FF7
0924E:  MOVLW  00
09250:  MOVWF  FF8
09252:  MOVLB  0
09254:  CALL   4720
....................                   SendDataDisplay(); 
09258:  CALL   4752
....................                   RX_Buffer[3]=0x00; 
0925C:  CLRF   35
....................                   RX_Buffer2[3]=0x00; 
0925E:  CLRF   40
....................                   codigoUsuario=codigoUsuarioant; 
09260:  MOVFF  303,302
09264:  MOVLB  2
....................                }  
....................             } 
....................          }else if(TipoClave==3){ 
09266:  BRA    940C
09268:  MOVF   x24,W
0926A:  SUBLW  03
0926C:  BTFSS  FD8.2
0926E:  BRA    940C
....................             printf("titulo.txt=\"Clave Nueva\""); 
09270:  MOVLW  7C
09272:  MOVWF  FF6
09274:  MOVLW  06
09276:  MOVWF  FF7
09278:  MOVLW  00
0927A:  MOVWF  FF8
0927C:  MOVLB  0
0927E:  CALL   4720
....................             SendDataDisplay(); 
09282:  CALL   4752
....................             printf("page Menu"); 
09286:  MOVLW  96
09288:  MOVWF  FF6
0928A:  MOVLW  06
0928C:  MOVWF  FF7
0928E:  MOVLW  00
09290:  MOVWF  FF8
09292:  CALL   4720
....................             SendDataDisplay(); 
09296:  CALL   4752
....................             if(!GuardaEEPROM){ 
0929A:  MOVLB  1
0929C:  BTFSC  x2D.1
0929E:  BRA    9408
....................                write_eeprom(300+(codigoUsuario2*4),RX_Buffer[4]-0x30);delay_ms(20); 
092A0:  MOVLB  2
092A2:  MOVF   xDD,W
092A4:  MULLW  04
092A6:  MOVF   FF3,W
092A8:  ADDLW  2C
092AA:  MOVLB  7
092AC:  MOVWF  x02
092AE:  MOVLW  01
092B0:  MOVWF  x03
092B2:  BTFSC  FD8.0
092B4:  INCF   x03,F
092B6:  MOVLW  30
092B8:  SUBWF  36,W
092BA:  MOVWF  x04
092BC:  MOVFF  703,FAA
092C0:  MOVFF  702,FA9
092C4:  MOVFF  704,FA8
092C8:  BCF    FA6.6
092CA:  BCF    FA6.7
092CC:  BSF    FA6.2
092CE:  MOVF   FF2,W
092D0:  MOVWF  00
092D2:  BCF    FF2.6
092D4:  BCF    FF2.7
092D6:  MOVLB  F
092D8:  MOVLW  55
092DA:  MOVWF  FA7
092DC:  MOVLW  AA
092DE:  MOVWF  FA7
092E0:  BSF    FA6.1
092E2:  BTFSC  FA6.1
092E4:  BRA    92E2
092E6:  BCF    FA6.2
092E8:  MOVF   00,W
092EA:  IORWF  FF2,F
092EC:  MOVLW  14
092EE:  MOVLB  7
092F0:  MOVWF  x18
092F2:  MOVLB  0
092F4:  CALL   21D6
....................                write_eeprom(301+(codigoUsuario2*4),RX_Buffer[5]-0x30);delay_ms(20); 
092F8:  MOVLB  2
092FA:  MOVF   xDD,W
092FC:  MULLW  04
092FE:  MOVF   FF3,W
09300:  ADDLW  2D
09302:  MOVLB  7
09304:  MOVWF  x02
09306:  MOVLW  01
09308:  MOVWF  x03
0930A:  BTFSC  FD8.0
0930C:  INCF   x03,F
0930E:  MOVLW  30
09310:  SUBWF  37,W
09312:  MOVWF  x04
09314:  MOVFF  703,FAA
09318:  MOVFF  702,FA9
0931C:  MOVFF  704,FA8
09320:  BCF    FA6.6
09322:  BCF    FA6.7
09324:  BSF    FA6.2
09326:  MOVF   FF2,W
09328:  MOVWF  00
0932A:  BCF    FF2.6
0932C:  BCF    FF2.7
0932E:  MOVLB  F
09330:  MOVLW  55
09332:  MOVWF  FA7
09334:  MOVLW  AA
09336:  MOVWF  FA7
09338:  BSF    FA6.1
0933A:  BTFSC  FA6.1
0933C:  BRA    933A
0933E:  BCF    FA6.2
09340:  MOVF   00,W
09342:  IORWF  FF2,F
09344:  MOVLW  14
09346:  MOVLB  7
09348:  MOVWF  x18
0934A:  MOVLB  0
0934C:  CALL   21D6
....................                write_eeprom(302+(codigoUsuario2*4),RX_Buffer[6]-0x30);delay_ms(20); 
09350:  MOVLB  2
09352:  MOVF   xDD,W
09354:  MULLW  04
09356:  MOVF   FF3,W
09358:  ADDLW  2E
0935A:  MOVLB  7
0935C:  MOVWF  x02
0935E:  MOVLW  01
09360:  MOVWF  x03
09362:  BTFSC  FD8.0
09364:  INCF   x03,F
09366:  MOVLW  30
09368:  SUBWF  38,W
0936A:  MOVWF  x04
0936C:  MOVFF  703,FAA
09370:  MOVFF  702,FA9
09374:  MOVFF  704,FA8
09378:  BCF    FA6.6
0937A:  BCF    FA6.7
0937C:  BSF    FA6.2
0937E:  MOVF   FF2,W
09380:  MOVWF  00
09382:  BCF    FF2.6
09384:  BCF    FF2.7
09386:  MOVLB  F
09388:  MOVLW  55
0938A:  MOVWF  FA7
0938C:  MOVLW  AA
0938E:  MOVWF  FA7
09390:  BSF    FA6.1
09392:  BTFSC  FA6.1
09394:  BRA    9392
09396:  BCF    FA6.2
09398:  MOVF   00,W
0939A:  IORWF  FF2,F
0939C:  MOVLW  14
0939E:  MOVLB  7
093A0:  MOVWF  x18
093A2:  MOVLB  0
093A4:  CALL   21D6
....................                write_eeprom(303+(codigoUsuario2*4),RX_Buffer[7]-0x30);delay_ms(20); 
093A8:  MOVLB  2
093AA:  MOVF   xDD,W
093AC:  MULLW  04
093AE:  MOVF   FF3,W
093B0:  ADDLW  2F
093B2:  MOVLB  7
093B4:  MOVWF  x02
093B6:  MOVLW  01
093B8:  MOVWF  x03
093BA:  BTFSC  FD8.0
093BC:  INCF   x03,F
093BE:  MOVLW  30
093C0:  SUBWF  39,W
093C2:  MOVWF  x04
093C4:  MOVFF  703,FAA
093C8:  MOVFF  702,FA9
093CC:  MOVFF  704,FA8
093D0:  BCF    FA6.6
093D2:  BCF    FA6.7
093D4:  BSF    FA6.2
093D6:  MOVF   FF2,W
093D8:  MOVWF  00
093DA:  BCF    FF2.6
093DC:  BCF    FF2.7
093DE:  MOVLB  F
093E0:  MOVLW  55
093E2:  MOVWF  FA7
093E4:  MOVLW  AA
093E6:  MOVWF  FA7
093E8:  BSF    FA6.1
093EA:  BTFSC  FA6.1
093EC:  BRA    93EA
093EE:  BCF    FA6.2
093F0:  MOVF   00,W
093F2:  IORWF  FF2,F
093F4:  MOVLW  14
093F6:  MOVLB  7
093F8:  MOVWF  x18
093FA:  MOVLB  0
093FC:  CALL   21D6
....................                GuardaEEPROM=ON; 
09400:  MOVLB  1
09402:  BSF    x2D.1
....................                codigoUsuario=codigoUsuarioant; 
09404:  MOVFF  303,302
....................             } 
....................             RX_Buffer[3]=0x00; 
09408:  CLRF   35
....................             RX_Buffer2[3]=0x00; 
0940A:  CLRF   40
0940C:  MOVLB  0
0940E:  MOVLB  2
....................          } 
....................       } 
....................     }else if(Menu==1){ //Menu Principal. 
09410:  GOTO   ECDC
09414:  DECFSZ xA0,W
09416:  GOTO   9BE4
....................       tCiclof=0; 
0941A:  MOVLB  1
0941C:  CLRF   x41
0941E:  CLRF   x40
....................       oprimioCiclo=OFF; 
09420:  BCF    x2A.2
....................       printf("fecha.txt=\"Fecha:%02u/%02u/20%02u Hora: %02u:%02u:%02u\"",Dia,Mes,Year,Hora,Minuto,Segundo); 
09422:  MOVLW  A0
09424:  MOVWF  FF6
09426:  MOVLW  06
09428:  MOVWF  FF7
0942A:  MOVLW  00
0942C:  MOVWF  FF8
0942E:  MOVLW  11
09430:  MOVLB  7
09432:  MOVWF  x08
09434:  MOVLB  0
09436:  CALL   628E
0943A:  MOVFF  2F0,708
0943E:  MOVLW  01
09440:  MOVLB  7
09442:  MOVWF  x09
09444:  MOVLB  0
09446:  CALL   6312
0944A:  MOVLW  2F
0944C:  BTFSS  F9E.4
0944E:  BRA    944C
09450:  MOVWF  FAD
09452:  MOVFF  2EF,708
09456:  MOVLW  01
09458:  MOVLB  7
0945A:  MOVWF  x09
0945C:  MOVLB  0
0945E:  CALL   6312
09462:  MOVLW  2F
09464:  BTFSS  F9E.4
09466:  BRA    9464
09468:  MOVWF  FAD
0946A:  MOVLW  32
0946C:  BTFSS  F9E.4
0946E:  BRA    946C
09470:  MOVWF  FAD
09472:  MOVLW  30
09474:  BTFSS  F9E.4
09476:  BRA    9474
09478:  MOVWF  FAD
0947A:  MOVFF  2EE,708
0947E:  MOVLW  01
09480:  MOVLB  7
09482:  MOVWF  x09
09484:  MOVLB  0
09486:  CALL   6312
0948A:  MOVLW  C1
0948C:  MOVWF  FF6
0948E:  MOVLW  06
09490:  MOVWF  FF7
09492:  MOVLW  00
09494:  MOVWF  FF8
09496:  MOVLW  07
09498:  MOVLB  7
0949A:  MOVWF  x08
0949C:  MOVLB  0
0949E:  CALL   628E
094A2:  MOVFF  2F1,708
094A6:  MOVLW  01
094A8:  MOVLB  7
094AA:  MOVWF  x09
094AC:  MOVLB  0
094AE:  CALL   6312
094B2:  MOVLW  3A
094B4:  BTFSS  F9E.4
094B6:  BRA    94B4
094B8:  MOVWF  FAD
094BA:  MOVFF  2F2,708
094BE:  MOVLW  01
094C0:  MOVLB  7
094C2:  MOVWF  x09
094C4:  MOVLB  0
094C6:  CALL   6312
094CA:  MOVLW  3A
094CC:  BTFSS  F9E.4
094CE:  BRA    94CC
094D0:  MOVWF  FAD
094D2:  MOVFF  2F3,708
094D6:  MOVLW  01
094D8:  MOVLB  7
094DA:  MOVWF  x09
094DC:  MOVLB  0
094DE:  CALL   6312
094E2:  MOVLW  22
094E4:  BTFSS  F9E.4
094E6:  BRA    94E4
094E8:  MOVWF  FAD
....................       SendDataDisplay(); 
094EA:  CALL   4752
....................       GuardaEEPROM=OFF; 
094EE:  MOVLB  1
094F0:  BCF    x2D.1
....................       printf("tuser.txt=\"%s\"",usuario); 
094F2:  MOVLW  D8
094F4:  MOVWF  FF6
094F6:  MOVLW  06
094F8:  MOVWF  FF7
094FA:  MOVLW  00
094FC:  MOVWF  FF8
094FE:  MOVLW  0B
09500:  MOVLB  7
09502:  MOVWF  x08
09504:  MOVLB  0
09506:  CALL   628E
0950A:  MOVLW  03
0950C:  MOVWF  FEA
0950E:  MOVLW  08
09510:  MOVWF  FE9
09512:  CALL   62C0
09516:  MOVLW  22
09518:  BTFSS  F9E.4
0951A:  BRA    9518
0951C:  MOVWF  FAD
....................       SendDataDisplay(); 
0951E:  CALL   4752
....................       codigoUsuarioant=codigoUsuario; 
09522:  MOVFF  302,303
....................        
....................       if(RX_Buffer[4]==0x01 && RX_Buffer[5]==0x0f && estados[19+RX_Buffer[4]]){//01, Calentamiento 
09526:  DECFSZ 36,W
09528:  BRA    95C4
0952A:  MOVF   37,W
0952C:  SUBLW  0F
0952E:  BNZ   95C4
09530:  MOVLW  13
09532:  ADDWF  36,W
09534:  MOVLB  7
09536:  MOVWF  x04
09538:  MOVLW  03
0953A:  MOVWF  x06
0953C:  MOVLW  6E
0953E:  MOVWF  x05
09540:  MOVLB  0
09542:  CALL   239E
09546:  BTFSS  01.0
09548:  BRA    95C4
....................          delay_ms(5); 
0954A:  MOVLW  05
0954C:  MOVLB  7
0954E:  MOVWF  x18
09550:  MOVLB  0
09552:  CALL   21D6
....................          if(RX_Buffer[4]==0x01 && RX_Buffer[5]==0x0f && estados[19+RX_Buffer[4]]){//01, Calentamiento 
09556:  DECFSZ 36,W
09558:  BRA    95C4
0955A:  MOVF   37,W
0955C:  SUBLW  0F
0955E:  BNZ   95C4
09560:  MOVLW  13
09562:  ADDWF  36,W
09564:  MOVLB  7
09566:  MOVWF  x04
09568:  MOVLW  03
0956A:  MOVWF  x06
0956C:  MOVLW  6E
0956E:  MOVWF  x05
09570:  MOVLB  0
09572:  CALL   239E
09576:  BTFSS  01.0
09578:  BRA    95C4
....................             printf("page Funcionamiento"); 
0957A:  MOVLW  E8
0957C:  MOVWF  FF6
0957E:  MOVLW  06
09580:  MOVWF  FF7
09582:  MOVLW  00
09584:  MOVWF  FF8
09586:  CALL   4720
....................             SendDataDisplay(); 
0958A:  CALL   4752
....................             ConfiguraCiclo(0,15,0,1,0,1,121,pulsosConfigurados,vacioCiclo,0); 
0958E:  MOVLB  7
09590:  CLRF   x0A
09592:  MOVLW  0F
09594:  MOVWF  x0B
09596:  CLRF   x0C
09598:  MOVLW  01
0959A:  MOVWF  x0D
0959C:  CLRF   x0E
0959E:  MOVWF  x0F
095A0:  MOVLW  79
095A2:  MOVWF  x10
095A4:  MOVFF  27F,711
095A8:  MOVFF  281,712
095AC:  CLRF   x13
095AE:  MOVLB  0
095B0:  CALL   699A
....................             Op=OFF; 
095B4:  MOVLB  1
095B6:  BCF    x2C.5
....................             Op2=OFF; 
095B8:  BCF    x2C.6
....................             MenuAnt=Menu; 
095BA:  MOVFF  2A0,2A1
....................             Fugas=OFF; 
095BE:  BCF    x2E.6
....................             Libre=OFF; 
095C0:  BCF    x2E.4
095C2:  MOVLB  0
....................             //TiempoVacio=CantidadPulsos*180; 
....................          } 
....................       } 
....................        
....................       if(RX_Buffer[4]==0x02 && RX_Buffer[5]==0x0f && estados[19+RX_Buffer[4]]){//02, No Envueltos 134 
095C4:  MOVF   36,W
095C6:  SUBLW  02
095C8:  BNZ   9668
095CA:  MOVF   37,W
095CC:  SUBLW  0F
095CE:  BNZ   9668
095D0:  MOVLW  13
095D2:  ADDWF  36,W
095D4:  MOVLB  7
095D6:  MOVWF  x04
095D8:  MOVLW  03
095DA:  MOVWF  x06
095DC:  MOVLW  6E
095DE:  MOVWF  x05
095E0:  MOVLB  0
095E2:  CALL   239E
095E6:  BTFSS  01.0
095E8:  BRA    9668
....................          delay_ms(5); 
095EA:  MOVLW  05
095EC:  MOVLB  7
095EE:  MOVWF  x18
095F0:  MOVLB  0
095F2:  CALL   21D6
....................          if(RX_Buffer[4]==0x02 && RX_Buffer[5]==0x0f && estados[19+RX_Buffer[4]]){ 
095F6:  MOVF   36,W
095F8:  SUBLW  02
095FA:  BNZ   9668
095FC:  MOVF   37,W
095FE:  SUBLW  0F
09600:  BNZ   9668
09602:  MOVLW  13
09604:  ADDWF  36,W
09606:  MOVLB  7
09608:  MOVWF  x04
0960A:  MOVLW  03
0960C:  MOVWF  x06
0960E:  MOVLW  6E
09610:  MOVWF  x05
09612:  MOVLB  0
09614:  CALL   239E
09618:  BTFSS  01.0
0961A:  BRA    9668
....................             printf("page Funcionamiento"); 
0961C:  MOVLW  FC
0961E:  MOVWF  FF6
09620:  MOVLW  06
09622:  MOVWF  FF7
09624:  MOVLW  00
09626:  MOVWF  FF8
09628:  CALL   4720
....................             SendDataDisplay();        
0962C:  CALL   4752
....................             ConfiguraCiclo(0,3,0,1,0,2,134,pulsosConfigurados,vacioCiclo,0);             
09630:  MOVLB  7
09632:  CLRF   x0A
09634:  MOVLW  03
09636:  MOVWF  x0B
09638:  CLRF   x0C
0963A:  MOVLW  01
0963C:  MOVWF  x0D
0963E:  CLRF   x0E
09640:  MOVLW  02
09642:  MOVWF  x0F
09644:  MOVLW  86
09646:  MOVWF  x10
09648:  MOVFF  27F,711
0964C:  MOVFF  281,712
09650:  CLRF   x13
09652:  MOVLB  0
09654:  CALL   699A
....................             Op=OFF; 
09658:  MOVLB  1
0965A:  BCF    x2C.5
....................             Op2=OFF; 
0965C:  BCF    x2C.6
....................             MenuAnt=Menu; 
0965E:  MOVFF  2A0,2A1
....................             Fugas=OFF; 
09662:  BCF    x2E.6
....................             Libre=OFF; 
09664:  BCF    x2E.4
09666:  MOVLB  0
....................             //TiempoVacio=CantidadPulsos*180; 
....................          } 
....................       } 
....................        
....................       if(RX_Buffer[4]==0x03  && RX_Buffer[5]==0x0f && estados[19+RX_Buffer[4]]){//03, No Envueltos 121 
09668:  MOVF   36,W
0966A:  SUBLW  03
0966C:  BNZ   970C
0966E:  MOVF   37,W
09670:  SUBLW  0F
09672:  BNZ   970C
09674:  MOVLW  13
09676:  ADDWF  36,W
09678:  MOVLB  7
0967A:  MOVWF  x04
0967C:  MOVLW  03
0967E:  MOVWF  x06
09680:  MOVLW  6E
09682:  MOVWF  x05
09684:  MOVLB  0
09686:  CALL   239E
0968A:  BTFSS  01.0
0968C:  BRA    970C
....................          delay_ms(5); 
0968E:  MOVLW  05
09690:  MOVLB  7
09692:  MOVWF  x18
09694:  MOVLB  0
09696:  CALL   21D6
....................          if(RX_Buffer[4]==0x03 && RX_Buffer[5]==0x0f && estados[19+RX_Buffer[4]]){ 
0969A:  MOVF   36,W
0969C:  SUBLW  03
0969E:  BNZ   970C
096A0:  MOVF   37,W
096A2:  SUBLW  0F
096A4:  BNZ   970C
096A6:  MOVLW  13
096A8:  ADDWF  36,W
096AA:  MOVLB  7
096AC:  MOVWF  x04
096AE:  MOVLW  03
096B0:  MOVWF  x06
096B2:  MOVLW  6E
096B4:  MOVWF  x05
096B6:  MOVLB  0
096B8:  CALL   239E
096BC:  BTFSS  01.0
096BE:  BRA    970C
....................             printf("page Funcionamiento"); 
096C0:  MOVLW  10
096C2:  MOVWF  FF6
096C4:  MOVLW  07
096C6:  MOVWF  FF7
096C8:  MOVLW  00
096CA:  MOVWF  FF8
096CC:  CALL   4720
....................             SendDataDisplay();      
096D0:  CALL   4752
....................             ConfiguraCiclo(0,15,0,1,0,3,121,pulsosConfigurados,vacioCiclo,0);   
096D4:  MOVLB  7
096D6:  CLRF   x0A
096D8:  MOVLW  0F
096DA:  MOVWF  x0B
096DC:  CLRF   x0C
096DE:  MOVLW  01
096E0:  MOVWF  x0D
096E2:  CLRF   x0E
096E4:  MOVLW  03
096E6:  MOVWF  x0F
096E8:  MOVLW  79
096EA:  MOVWF  x10
096EC:  MOVFF  27F,711
096F0:  MOVFF  281,712
096F4:  CLRF   x13
096F6:  MOVLB  0
096F8:  CALL   699A
....................             Op=OFF; 
096FC:  MOVLB  1
096FE:  BCF    x2C.5
....................             Op2=OFF; 
09700:  BCF    x2C.6
....................             MenuAnt=Menu; 
09702:  MOVFF  2A0,2A1
....................             Fugas=OFF; 
09706:  BCF    x2E.6
....................             Libre=OFF; 
09708:  BCF    x2E.4
0970A:  MOVLB  0
....................             //TiempoVacio=CantidadPulsos*180; 
....................          } 
....................       } 
....................        
....................       if(RX_Buffer[4]==0x04 && RX_Buffer[5]==0x0f && estados[19+RX_Buffer[4]]){//04, Envueltos 134 
0970C:  MOVF   36,W
0970E:  SUBLW  04
09710:  BNZ   97B0
09712:  MOVF   37,W
09714:  SUBLW  0F
09716:  BNZ   97B0
09718:  MOVLW  13
0971A:  ADDWF  36,W
0971C:  MOVLB  7
0971E:  MOVWF  x04
09720:  MOVLW  03
09722:  MOVWF  x06
09724:  MOVLW  6E
09726:  MOVWF  x05
09728:  MOVLB  0
0972A:  CALL   239E
0972E:  BTFSS  01.0
09730:  BRA    97B0
....................          delay_ms(5); 
09732:  MOVLW  05
09734:  MOVLB  7
09736:  MOVWF  x18
09738:  MOVLB  0
0973A:  CALL   21D6
....................          if(RX_Buffer[4]==0x04 && RX_Buffer[5]==0x0f && estados[19+RX_Buffer[4]]){ 
0973E:  MOVF   36,W
09740:  SUBLW  04
09742:  BNZ   97B0
09744:  MOVF   37,W
09746:  SUBLW  0F
09748:  BNZ   97B0
0974A:  MOVLW  13
0974C:  ADDWF  36,W
0974E:  MOVLB  7
09750:  MOVWF  x04
09752:  MOVLW  03
09754:  MOVWF  x06
09756:  MOVLW  6E
09758:  MOVWF  x05
0975A:  MOVLB  0
0975C:  CALL   239E
09760:  BTFSS  01.0
09762:  BRA    97B0
....................             printf("page Funcionamiento"); 
09764:  MOVLW  24
09766:  MOVWF  FF6
09768:  MOVLW  07
0976A:  MOVWF  FF7
0976C:  MOVLW  00
0976E:  MOVWF  FF8
09770:  CALL   4720
....................             SendDataDisplay();        
09774:  CALL   4752
....................             ConfiguraCiclo(0,4,0,15,0,4,134,pulsosConfigurados,vacioCiclo,0);   
09778:  MOVLB  7
0977A:  CLRF   x0A
0977C:  MOVLW  04
0977E:  MOVWF  x0B
09780:  CLRF   x0C
09782:  MOVLW  0F
09784:  MOVWF  x0D
09786:  CLRF   x0E
09788:  MOVLW  04
0978A:  MOVWF  x0F
0978C:  MOVLW  86
0978E:  MOVWF  x10
09790:  MOVFF  27F,711
09794:  MOVFF  281,712
09798:  CLRF   x13
0979A:  MOVLB  0
0979C:  CALL   699A
....................             Op=OFF; 
097A0:  MOVLB  1
097A2:  BCF    x2C.5
....................             Op2=OFF; 
097A4:  BCF    x2C.6
....................             MenuAnt=Menu; 
097A6:  MOVFF  2A0,2A1
....................             Fugas=OFF; 
097AA:  BCF    x2E.6
....................             Libre=OFF; 
097AC:  BCF    x2E.4
097AE:  MOVLB  0
....................             //TiempoVacio=CantidadPulsos*180; 
....................          } 
....................       } 
....................        
....................       if(RX_Buffer[4]==0x05 && RX_Buffer[5]==0x0f && estados[19+RX_Buffer[4]]){//05, Envueltos 121 
097B0:  MOVF   36,W
097B2:  SUBLW  05
097B4:  BNZ   9852
097B6:  MOVF   37,W
097B8:  SUBLW  0F
097BA:  BNZ   9852
097BC:  MOVLW  13
097BE:  ADDWF  36,W
097C0:  MOVLB  7
097C2:  MOVWF  x04
097C4:  MOVLW  03
097C6:  MOVWF  x06
097C8:  MOVLW  6E
097CA:  MOVWF  x05
097CC:  MOVLB  0
097CE:  CALL   239E
097D2:  BTFSS  01.0
097D4:  BRA    9852
....................          delay_ms(5); 
097D6:  MOVLW  05
097D8:  MOVLB  7
097DA:  MOVWF  x18
097DC:  MOVLB  0
097DE:  CALL   21D6
....................          if(RX_Buffer[4]==0x05 && RX_Buffer[5]==0x0f && estados[19+RX_Buffer[4]]){ 
097E2:  MOVF   36,W
097E4:  SUBLW  05
097E6:  BNZ   9852
097E8:  MOVF   37,W
097EA:  SUBLW  0F
097EC:  BNZ   9852
097EE:  MOVLW  13
097F0:  ADDWF  36,W
097F2:  MOVLB  7
097F4:  MOVWF  x04
097F6:  MOVLW  03
097F8:  MOVWF  x06
097FA:  MOVLW  6E
097FC:  MOVWF  x05
097FE:  MOVLB  0
09800:  CALL   239E
09804:  BTFSS  01.0
09806:  BRA    9852
....................             printf("page Funcionamiento"); 
09808:  MOVLW  38
0980A:  MOVWF  FF6
0980C:  MOVLW  07
0980E:  MOVWF  FF7
09810:  MOVLW  00
09812:  MOVWF  FF8
09814:  CALL   4720
....................             SendDataDisplay();        
09818:  CALL   4752
....................             ConfiguraCiclo(0,15,0,15,0,5,121,pulsosConfigurados,vacioCiclo,0);   
0981C:  MOVLB  7
0981E:  CLRF   x0A
09820:  MOVLW  0F
09822:  MOVWF  x0B
09824:  CLRF   x0C
09826:  MOVWF  x0D
09828:  CLRF   x0E
0982A:  MOVLW  05
0982C:  MOVWF  x0F
0982E:  MOVLW  79
09830:  MOVWF  x10
09832:  MOVFF  27F,711
09836:  MOVFF  281,712
0983A:  CLRF   x13
0983C:  MOVLB  0
0983E:  CALL   699A
....................             Op=OFF; 
09842:  MOVLB  1
09844:  BCF    x2C.5
....................             Op2=OFF; 
09846:  BCF    x2C.6
....................             MenuAnt=Menu; 
09848:  MOVFF  2A0,2A1
....................             Fugas=OFF; 
0984C:  BCF    x2E.6
....................             Libre=OFF; 
0984E:  BCF    x2E.4
09850:  MOVLB  0
....................             //TiempoVacio=CantidadPulsos*180; 
....................          } 
....................       } 
....................        
....................       if(RX_Buffer[4]==0x06 && RX_Buffer[5]==0x0f && estados[19+RX_Buffer[4]]){//06, Envuelto Doble 1 
09852:  MOVF   36,W
09854:  SUBLW  06
09856:  BNZ   98F6
09858:  MOVF   37,W
0985A:  SUBLW  0F
0985C:  BNZ   98F6
0985E:  MOVLW  13
09860:  ADDWF  36,W
09862:  MOVLB  7
09864:  MOVWF  x04
09866:  MOVLW  03
09868:  MOVWF  x06
0986A:  MOVLW  6E
0986C:  MOVWF  x05
0986E:  MOVLB  0
09870:  CALL   239E
09874:  BTFSS  01.0
09876:  BRA    98F6
....................          delay_ms(5); 
09878:  MOVLW  05
0987A:  MOVLB  7
0987C:  MOVWF  x18
0987E:  MOVLB  0
09880:  CALL   21D6
....................          if(RX_Buffer[4]==0x06 && RX_Buffer[5]==0x0f && estados[19+RX_Buffer[4]]){ 
09884:  MOVF   36,W
09886:  SUBLW  06
09888:  BNZ   98F6
0988A:  MOVF   37,W
0988C:  SUBLW  0F
0988E:  BNZ   98F6
09890:  MOVLW  13
09892:  ADDWF  36,W
09894:  MOVLB  7
09896:  MOVWF  x04
09898:  MOVLW  03
0989A:  MOVWF  x06
0989C:  MOVLW  6E
0989E:  MOVWF  x05
098A0:  MOVLB  0
098A2:  CALL   239E
098A6:  BTFSS  01.0
098A8:  BRA    98F6
....................             printf("page Funcionamiento"); 
098AA:  MOVLW  4C
098AC:  MOVWF  FF6
098AE:  MOVLW  07
098B0:  MOVWF  FF7
098B2:  MOVLW  00
098B4:  MOVWF  FF8
098B6:  CALL   4720
....................             SendDataDisplay();        
098BA:  CALL   4752
....................             ConfiguraCiclo(0,7,0,20,0,6,134,pulsosConfigurados,vacioCiclo,0);   
098BE:  MOVLB  7
098C0:  CLRF   x0A
098C2:  MOVLW  07
098C4:  MOVWF  x0B
098C6:  CLRF   x0C
098C8:  MOVLW  14
098CA:  MOVWF  x0D
098CC:  CLRF   x0E
098CE:  MOVLW  06
098D0:  MOVWF  x0F
098D2:  MOVLW  86
098D4:  MOVWF  x10
098D6:  MOVFF  27F,711
098DA:  MOVFF  281,712
098DE:  CLRF   x13
098E0:  MOVLB  0
098E2:  CALL   699A
....................             Op=OFF; 
098E6:  MOVLB  1
098E8:  BCF    x2C.5
....................             Op2=OFF; 
098EA:  BCF    x2C.6
....................             MenuAnt=Menu; 
098EC:  MOVFF  2A0,2A1
....................             Fugas=OFF; 
098F0:  BCF    x2E.6
....................             Libre=OFF; 
098F2:  BCF    x2E.4
098F4:  MOVLB  0
....................             //TiempoVacio=CantidadPulsos*180; 
....................          } 
....................       } 
....................        
....................       if(RX_Buffer[4]==0x07 && RX_Buffer[5]==0x0f && estados[19+RX_Buffer[4]]){//07, Envuelto Doble 2 
098F6:  MOVF   36,W
098F8:  SUBLW  07
098FA:  BNZ   999A
098FC:  MOVF   37,W
098FE:  SUBLW  0F
09900:  BNZ   999A
09902:  MOVLW  13
09904:  ADDWF  36,W
09906:  MOVLB  7
09908:  MOVWF  x04
0990A:  MOVLW  03
0990C:  MOVWF  x06
0990E:  MOVLW  6E
09910:  MOVWF  x05
09912:  MOVLB  0
09914:  CALL   239E
09918:  BTFSS  01.0
0991A:  BRA    999A
....................          delay_ms(5); 
0991C:  MOVLW  05
0991E:  MOVLB  7
09920:  MOVWF  x18
09922:  MOVLB  0
09924:  CALL   21D6
....................          if(RX_Buffer[4]==0x07 && RX_Buffer[5]==0x0f && estados[19+RX_Buffer[4]]){ 
09928:  MOVF   36,W
0992A:  SUBLW  07
0992C:  BNZ   999A
0992E:  MOVF   37,W
09930:  SUBLW  0F
09932:  BNZ   999A
09934:  MOVLW  13
09936:  ADDWF  36,W
09938:  MOVLB  7
0993A:  MOVWF  x04
0993C:  MOVLW  03
0993E:  MOVWF  x06
09940:  MOVLW  6E
09942:  MOVWF  x05
09944:  MOVLB  0
09946:  CALL   239E
0994A:  BTFSS  01.0
0994C:  BRA    999A
....................             printf("page Funcionamiento"); 
0994E:  MOVLW  60
09950:  MOVWF  FF6
09952:  MOVLW  07
09954:  MOVWF  FF7
09956:  MOVLW  00
09958:  MOVWF  FF8
0995A:  CALL   4720
....................             SendDataDisplay();        
0995E:  CALL   4752
....................             ConfiguraCiclo(0,7,0,30,0,7,134,pulsosConfigurados,vacioCiclo,0);   
09962:  MOVLB  7
09964:  CLRF   x0A
09966:  MOVLW  07
09968:  MOVWF  x0B
0996A:  CLRF   x0C
0996C:  MOVLW  1E
0996E:  MOVWF  x0D
09970:  CLRF   x0E
09972:  MOVLW  07
09974:  MOVWF  x0F
09976:  MOVLW  86
09978:  MOVWF  x10
0997A:  MOVFF  27F,711
0997E:  MOVFF  281,712
09982:  CLRF   x13
09984:  MOVLB  0
09986:  CALL   699A
....................             Op=OFF; 
0998A:  MOVLB  1
0998C:  BCF    x2C.5
....................             Op2=OFF; 
0998E:  BCF    x2C.6
....................             MenuAnt=Menu; 
09990:  MOVFF  2A0,2A1
....................             Fugas=OFF; 
09994:  BCF    x2E.6
....................             Libre=OFF; 
09996:  BCF    x2E.4
09998:  MOVLB  0
....................             //TiempoVacio=CantidadPulsos*180; 
....................          } 
....................       } 
....................        
....................       if(RX_Buffer[4]==0x08 && RX_Buffer[5]==0x0f && estados[19+RX_Buffer[4]]){//08, Prion 
0999A:  MOVF   36,W
0999C:  SUBLW  08
0999E:  BNZ   9A3E
099A0:  MOVF   37,W
099A2:  SUBLW  0F
099A4:  BNZ   9A3E
099A6:  MOVLW  13
099A8:  ADDWF  36,W
099AA:  MOVLB  7
099AC:  MOVWF  x04
099AE:  MOVLW  03
099B0:  MOVWF  x06
099B2:  MOVLW  6E
099B4:  MOVWF  x05
099B6:  MOVLB  0
099B8:  CALL   239E
099BC:  BTFSS  01.0
099BE:  BRA    9A3E
....................          delay_ms(5); 
099C0:  MOVLW  05
099C2:  MOVLB  7
099C4:  MOVWF  x18
099C6:  MOVLB  0
099C8:  CALL   21D6
....................          if(RX_Buffer[4]==0x08 && RX_Buffer[5]==0x0f && estados[19+RX_Buffer[4]]){ 
099CC:  MOVF   36,W
099CE:  SUBLW  08
099D0:  BNZ   9A3E
099D2:  MOVF   37,W
099D4:  SUBLW  0F
099D6:  BNZ   9A3E
099D8:  MOVLW  13
099DA:  ADDWF  36,W
099DC:  MOVLB  7
099DE:  MOVWF  x04
099E0:  MOVLW  03
099E2:  MOVWF  x06
099E4:  MOVLW  6E
099E6:  MOVWF  x05
099E8:  MOVLB  0
099EA:  CALL   239E
099EE:  BTFSS  01.0
099F0:  BRA    9A3E
....................             printf("page Funcionamiento"); 
099F2:  MOVLW  74
099F4:  MOVWF  FF6
099F6:  MOVLW  07
099F8:  MOVWF  FF7
099FA:  MOVLW  00
099FC:  MOVWF  FF8
099FE:  CALL   4720
....................             SendDataDisplay();        
09A02:  CALL   4752
....................             ConfiguraCiclo(0,20,0,15,0,8,134,pulsosConfigurados,vacioCiclo,0);   
09A06:  MOVLB  7
09A08:  CLRF   x0A
09A0A:  MOVLW  14
09A0C:  MOVWF  x0B
09A0E:  CLRF   x0C
09A10:  MOVLW  0F
09A12:  MOVWF  x0D
09A14:  CLRF   x0E
09A16:  MOVLW  08
09A18:  MOVWF  x0F
09A1A:  MOVLW  86
09A1C:  MOVWF  x10
09A1E:  MOVFF  27F,711
09A22:  MOVFF  281,712
09A26:  CLRF   x13
09A28:  MOVLB  0
09A2A:  CALL   699A
....................             Op=OFF; 
09A2E:  MOVLB  1
09A30:  BCF    x2C.5
....................             Op2=OFF; 
09A32:  BCF    x2C.6
....................             MenuAnt=Menu; 
09A34:  MOVFF  2A0,2A1
....................             Fugas=OFF; 
09A38:  BCF    x2E.6
....................             Libre=OFF; 
09A3A:  BCF    x2E.4
09A3C:  MOVLB  0
....................             //TiempoVacio=CantidadPulsos*180; 
....................          } 
....................       } 
....................        
....................       if(RX_Buffer[4]==0x09 && RX_Buffer[5]==0x0f && estados[19+RX_Buffer[4]]){//09, Bowie & Dick 
09A3E:  MOVF   36,W
09A40:  SUBLW  09
09A42:  BNZ   9AE4
09A44:  MOVF   37,W
09A46:  SUBLW  0F
09A48:  BNZ   9AE4
09A4A:  MOVLW  13
09A4C:  ADDWF  36,W
09A4E:  MOVLB  7
09A50:  MOVWF  x04
09A52:  MOVLW  03
09A54:  MOVWF  x06
09A56:  MOVLW  6E
09A58:  MOVWF  x05
09A5A:  MOVLB  0
09A5C:  CALL   239E
09A60:  BTFSS  01.0
09A62:  BRA    9AE4
....................          delay_ms(5); 
09A64:  MOVLW  05
09A66:  MOVLB  7
09A68:  MOVWF  x18
09A6A:  MOVLB  0
09A6C:  CALL   21D6
....................          if(RX_Buffer[4]==0x09 && RX_Buffer[5]==0x0f && estados[19+RX_Buffer[4]]){ 
09A70:  MOVF   36,W
09A72:  SUBLW  09
09A74:  BNZ   9AE4
09A76:  MOVF   37,W
09A78:  SUBLW  0F
09A7A:  BNZ   9AE4
09A7C:  MOVLW  13
09A7E:  ADDWF  36,W
09A80:  MOVLB  7
09A82:  MOVWF  x04
09A84:  MOVLW  03
09A86:  MOVWF  x06
09A88:  MOVLW  6E
09A8A:  MOVWF  x05
09A8C:  MOVLB  0
09A8E:  CALL   239E
09A92:  BTFSS  01.0
09A94:  BRA    9AE4
....................             printf("page Funcionamiento"); 
09A96:  MOVLW  88
09A98:  MOVWF  FF6
09A9A:  MOVLW  07
09A9C:  MOVWF  FF7
09A9E:  MOVLW  00
09AA0:  MOVWF  FF8
09AA2:  CALL   4720
....................             SendDataDisplay();        
09AA6:  CALL   4752
....................             ConfiguraCiclo(30,3,0,1,0,9,134,pulsosConfigurados,vacioCiclo,0);   
09AAA:  MOVLW  1E
09AAC:  MOVLB  7
09AAE:  MOVWF  x0A
09AB0:  MOVLW  03
09AB2:  MOVWF  x0B
09AB4:  CLRF   x0C
09AB6:  MOVLW  01
09AB8:  MOVWF  x0D
09ABA:  CLRF   x0E
09ABC:  MOVLW  09
09ABE:  MOVWF  x0F
09AC0:  MOVLW  86
09AC2:  MOVWF  x10
09AC4:  MOVFF  27F,711
09AC8:  MOVFF  281,712
09ACC:  CLRF   x13
09ACE:  MOVLB  0
09AD0:  CALL   699A
....................             Op=OFF; 
09AD4:  MOVLB  1
09AD6:  BCF    x2C.5
....................             Op2=OFF; 
09AD8:  BCF    x2C.6
....................             MenuAnt=Menu; 
09ADA:  MOVFF  2A0,2A1
....................             Fugas=OFF; 
09ADE:  BCF    x2E.6
....................             Libre=OFF; 
09AE0:  BCF    x2E.4
09AE2:  MOVLB  0
....................             //TiempoVacio=CantidadPulsos*180; 
....................          } 
....................       } 
....................        
....................       if(RX_Buffer[4]==0x0a && RX_Buffer[5]==0x0f && estados[19+RX_Buffer[4]]){//0a, Test de Fugas 
09AE4:  MOVF   36,W
09AE6:  SUBLW  0A
09AE8:  BNZ   9B80
09AEA:  MOVF   37,W
09AEC:  SUBLW  0F
09AEE:  BNZ   9B80
09AF0:  MOVLW  13
09AF2:  ADDWF  36,W
09AF4:  MOVLB  7
09AF6:  MOVWF  x04
09AF8:  MOVLW  03
09AFA:  MOVWF  x06
09AFC:  MOVLW  6E
09AFE:  MOVWF  x05
09B00:  MOVLB  0
09B02:  CALL   239E
09B06:  BTFSS  01.0
09B08:  BRA    9B80
....................          delay_ms(5); 
09B0A:  MOVLW  05
09B0C:  MOVLB  7
09B0E:  MOVWF  x18
09B10:  MOVLB  0
09B12:  CALL   21D6
....................          if(RX_Buffer[4]==0x0a && RX_Buffer[5]==0x0f && estados[19+RX_Buffer[4]]){ 
09B16:  MOVF   36,W
09B18:  SUBLW  0A
09B1A:  BNZ   9B80
09B1C:  MOVF   37,W
09B1E:  SUBLW  0F
09B20:  BNZ   9B80
09B22:  MOVLW  13
09B24:  ADDWF  36,W
09B26:  MOVLB  7
09B28:  MOVWF  x04
09B2A:  MOVLW  03
09B2C:  MOVWF  x06
09B2E:  MOVLW  6E
09B30:  MOVWF  x05
09B32:  MOVLB  0
09B34:  CALL   239E
09B38:  BTFSS  01.0
09B3A:  BRA    9B80
....................             printf("page Funcionamiento"); 
09B3C:  MOVLW  9C
09B3E:  MOVWF  FF6
09B40:  MOVLW  07
09B42:  MOVWF  FF7
09B44:  MOVLW  00
09B46:  MOVWF  FF8
09B48:  CALL   4720
....................             SendDataDisplay();        
09B4C:  CALL   4752
....................             ConfiguraCiclo(0,15,0,0,0,10,30,1,vacioTest,1); 
09B50:  MOVLB  7
09B52:  CLRF   x0A
09B54:  MOVLW  0F
09B56:  MOVWF  x0B
09B58:  CLRF   x0C
09B5A:  CLRF   x0D
09B5C:  CLRF   x0E
09B5E:  MOVLW  0A
09B60:  MOVWF  x0F
09B62:  MOVLW  1E
09B64:  MOVWF  x10
09B66:  MOVLW  01
09B68:  MOVWF  x11
09B6A:  MOVFF  280,712
09B6E:  MOVWF  x13
09B70:  MOVLB  0
09B72:  CALL   699A
....................             MenuAnt=Menu; 
09B76:  MOVFF  2A0,2A1
....................             Libre=OFF; 
09B7A:  MOVLB  1
09B7C:  BCF    x2E.4
09B7E:  MOVLB  0
....................             //TiempoVacio=CantidadPulsos*180; 
....................          } 
....................       } 
....................        
....................       if(RX_Buffer[4]==0xa0){//a0, Ciclos Fijos 
09B80:  MOVF   36,W
09B82:  SUBLW  A0
09B84:  BNZ   9B9A
....................          printf("page Menu"); 
09B86:  MOVLW  B0
09B88:  MOVWF  FF6
09B8A:  MOVLW  07
09B8C:  MOVWF  FF7
09B8E:  MOVLW  00
09B90:  MOVWF  FF8
09B92:  CALL   4720
....................          SendDataDisplay();      
09B96:  CALL   4752
....................       } 
....................        
....................       if(RX_Buffer[4]==0xb0){//b0, Personalizados 
09B9A:  MOVF   36,W
09B9C:  SUBLW  B0
09B9E:  BNZ   9BB4
....................          printf("page CicloPersona"); 
09BA0:  MOVLW  BA
09BA2:  MOVWF  FF6
09BA4:  MOVLW  07
09BA6:  MOVWF  FF7
09BA8:  MOVLW  00
09BAA:  MOVWF  FF8
09BAC:  CALL   4720
....................          SendDataDisplay();      
09BB0:  CALL   4752
....................       } 
....................        
....................       if(RX_Buffer[4]==0xc0){//c0, Configuraciones 
09BB4:  MOVF   36,W
09BB6:  SUBLW  C0
09BB8:  BNZ   9BDC
....................          if(codigoUsuario==0 || codigoUsuario==9){        
09BBA:  MOVLB  3
09BBC:  MOVF   x02,F
09BBE:  BZ    9BC6
09BC0:  MOVF   x02,W
09BC2:  SUBLW  09
09BC4:  BNZ   9BDE
....................             printf("page Ajustes"); 
09BC6:  MOVLW  CC
09BC8:  MOVWF  FF6
09BCA:  MOVLW  07
09BCC:  MOVWF  FF7
09BCE:  MOVLW  00
09BD0:  MOVWF  FF8
09BD2:  MOVLB  0
09BD4:  CALL   4720
....................             SendDataDisplay();      
09BD8:  CALL   4752
09BDC:  MOVLB  3
....................          } 
....................       } 
....................    }else if(Menu==2){ //Menu de Tiempo Esterilizacion      
09BDE:  GOTO   ECDE
09BE2:  MOVLB  2
09BE4:  MOVF   xA0,W
09BE6:  SUBLW  02
09BE8:  BTFSS  FD8.2
09BEA:  BRA    9EC4
....................          printf("fecha.txt=\"Fecha:%02u/%02u/20%02u Hora: %02u:%02u:%02u\"",Dia,Mes,Year,Hora,Minuto,Segundo); 
09BEC:  MOVLW  DA
09BEE:  MOVWF  FF6
09BF0:  MOVLW  07
09BF2:  MOVWF  FF7
09BF4:  MOVLW  00
09BF6:  MOVWF  FF8
09BF8:  MOVLW  11
09BFA:  MOVLB  7
09BFC:  MOVWF  x08
09BFE:  MOVLB  0
09C00:  CALL   628E
09C04:  MOVFF  2F0,708
09C08:  MOVLW  01
09C0A:  MOVLB  7
09C0C:  MOVWF  x09
09C0E:  MOVLB  0
09C10:  CALL   6312
09C14:  MOVLW  2F
09C16:  BTFSS  F9E.4
09C18:  BRA    9C16
09C1A:  MOVWF  FAD
09C1C:  MOVFF  2EF,708
09C20:  MOVLW  01
09C22:  MOVLB  7
09C24:  MOVWF  x09
09C26:  MOVLB  0
09C28:  CALL   6312
09C2C:  MOVLW  2F
09C2E:  BTFSS  F9E.4
09C30:  BRA    9C2E
09C32:  MOVWF  FAD
09C34:  MOVLW  32
09C36:  BTFSS  F9E.4
09C38:  BRA    9C36
09C3A:  MOVWF  FAD
09C3C:  MOVLW  30
09C3E:  BTFSS  F9E.4
09C40:  BRA    9C3E
09C42:  MOVWF  FAD
09C44:  MOVFF  2EE,708
09C48:  MOVLW  01
09C4A:  MOVLB  7
09C4C:  MOVWF  x09
09C4E:  MOVLB  0
09C50:  CALL   6312
09C54:  MOVLW  FB
09C56:  MOVWF  FF6
09C58:  MOVLW  07
09C5A:  MOVWF  FF7
09C5C:  MOVLW  00
09C5E:  MOVWF  FF8
09C60:  MOVLW  07
09C62:  MOVLB  7
09C64:  MOVWF  x08
09C66:  MOVLB  0
09C68:  CALL   628E
09C6C:  MOVFF  2F1,708
09C70:  MOVLW  01
09C72:  MOVLB  7
09C74:  MOVWF  x09
09C76:  MOVLB  0
09C78:  CALL   6312
09C7C:  MOVLW  3A
09C7E:  BTFSS  F9E.4
09C80:  BRA    9C7E
09C82:  MOVWF  FAD
09C84:  MOVFF  2F2,708
09C88:  MOVLW  01
09C8A:  MOVLB  7
09C8C:  MOVWF  x09
09C8E:  MOVLB  0
09C90:  CALL   6312
09C94:  MOVLW  3A
09C96:  BTFSS  F9E.4
09C98:  BRA    9C96
09C9A:  MOVWF  FAD
09C9C:  MOVFF  2F3,708
09CA0:  MOVLW  01
09CA2:  MOVLB  7
09CA4:  MOVWF  x09
09CA6:  MOVLB  0
09CA8:  CALL   6312
09CAC:  MOVLW  22
09CAE:  BTFSS  F9E.4
09CB0:  BRA    9CAE
09CB2:  MOVWF  FAD
....................          SendDataDisplay(); 
09CB4:  CALL   4752
....................          if(RX_Buffer[4]==0x0a){//Selecciono Minutos 
09CB8:  MOVF   36,W
09CBA:  SUBLW  0A
09CBC:  BNZ   9CC6
....................             Minutos=ON; 
09CBE:  MOVLB  1
09CC0:  BSF    x2C.7
....................             Segundos=OFF; 
09CC2:  BCF    x2D.0
09CC4:  MOVLB  0
....................          } 
....................           
....................          if(RX_Buffer[4]==0x0b){//Selecciono Segundos 
09CC6:  MOVF   36,W
09CC8:  SUBLW  0B
09CCA:  BNZ   9CD4
....................             Segundos=ON; 
09CCC:  MOVLB  1
09CCE:  BSF    x2D.0
....................             Minutos=OFF; 
09CD0:  BCF    x2C.7
09CD2:  MOVLB  0
....................          }            
....................           
....................          if(RX_Buffer[4]==0x11){//Selecciono Regresar             
09CD4:  MOVF   36,W
09CD6:  SUBLW  11
09CD8:  BTFSS  FD8.2
09CDA:  BRA    9DF8
....................                Segundos=OFF; 
09CDC:  MOVLB  1
09CDE:  BCF    x2D.0
....................                Minutos=OFF; 
09CE0:  BCF    x2C.7
....................                printf("page CicloPersona"); 
09CE2:  MOVLW  12
09CE4:  MOVWF  FF6
09CE6:  MOVLW  08
09CE8:  MOVWF  FF7
09CEA:  MOVLW  00
09CEC:  MOVWF  FF8
09CEE:  MOVLB  0
09CF0:  CALL   4720
....................                SendDataDisplay();   
09CF4:  CALL   4752
....................                if(!GuardaEEPROM){ 
09CF8:  MOVLB  1
09CFA:  BTFSC  x2D.1
09CFC:  BRA    9DF6
....................                   CiclosPersonalizados[CicloLibre-1].Minutoest=mEstp; 
09CFE:  MOVLW  01
09D00:  MOVLB  2
09D02:  SUBWF  x7E,W
09D04:  MULLW  08
09D06:  MOVF   FF3,W
09D08:  MOVLB  7
09D0A:  CLRF   x03
09D0C:  MOVWF  x02
09D0E:  MOVLW  01
09D10:  ADDWF  x02,W
09D12:  MOVWF  01
09D14:  MOVLW  00
09D16:  ADDWFC x03,W
09D18:  MOVWF  03
09D1A:  MOVF   01,W
09D1C:  ADDLW  3A
09D1E:  MOVWF  FE9
09D20:  MOVLW  06
09D22:  ADDWFC 03,W
09D24:  MOVWF  FEA
09D26:  MOVFF  14D,FEF
....................                   CiclosPersonalizados[CicloLibre-1].Segundoest=sEstp; 
09D2A:  MOVLW  01
09D2C:  MOVLB  2
09D2E:  SUBWF  x7E,W
09D30:  MULLW  08
09D32:  MOVF   FF3,W
09D34:  MOVLB  7
09D36:  CLRF   x03
09D38:  MOVWF  x02
09D3A:  MOVLW  02
09D3C:  ADDWF  x02,W
09D3E:  MOVWF  01
09D40:  MOVLW  00
09D42:  ADDWFC x03,W
09D44:  MOVWF  03
09D46:  MOVF   01,W
09D48:  ADDLW  3A
09D4A:  MOVWF  FE9
09D4C:  MOVLW  06
09D4E:  ADDWFC 03,W
09D50:  MOVWF  FEA
09D52:  MOVFF  14C,FEF
....................                   write_eeprom(101+((CicloLibre-1)*8),mEstp); 
09D56:  MOVLW  01
09D58:  MOVLB  2
09D5A:  SUBWF  x7E,W
09D5C:  MULLW  08
09D5E:  MOVF   FF3,W
09D60:  ADDLW  65
09D62:  MOVLB  7
09D64:  MOVWF  x02
09D66:  CLRF   FAA
09D68:  MOVFF  702,FA9
09D6C:  MOVFF  14D,FA8
09D70:  BCF    FA6.6
09D72:  BCF    FA6.7
09D74:  BSF    FA6.2
09D76:  MOVF   FF2,W
09D78:  MOVWF  00
09D7A:  BCF    FF2.6
09D7C:  BCF    FF2.7
09D7E:  MOVLB  F
09D80:  MOVLW  55
09D82:  MOVWF  FA7
09D84:  MOVLW  AA
09D86:  MOVWF  FA7
09D88:  BSF    FA6.1
09D8A:  BTFSC  FA6.1
09D8C:  BRA    9D8A
09D8E:  BCF    FA6.2
09D90:  MOVF   00,W
09D92:  IORWF  FF2,F
....................                   delay_ms(10); 
09D94:  MOVLW  0A
09D96:  MOVLB  7
09D98:  MOVWF  x18
09D9A:  MOVLB  0
09D9C:  CALL   21D6
....................                   write_eeprom(102+((CicloLibre-1)*8),sEstp); 
09DA0:  MOVLW  01
09DA2:  MOVLB  2
09DA4:  SUBWF  x7E,W
09DA6:  MULLW  08
09DA8:  MOVF   FF3,W
09DAA:  ADDLW  66
09DAC:  MOVLB  7
09DAE:  MOVWF  x02
09DB0:  CLRF   FAA
09DB2:  MOVFF  702,FA9
09DB6:  MOVFF  14C,FA8
09DBA:  BCF    FA6.6
09DBC:  BCF    FA6.7
09DBE:  BSF    FA6.2
09DC0:  MOVF   FF2,W
09DC2:  MOVWF  00
09DC4:  BCF    FF2.6
09DC6:  BCF    FF2.7
09DC8:  MOVLB  F
09DCA:  MOVLW  55
09DCC:  MOVWF  FA7
09DCE:  MOVLW  AA
09DD0:  MOVWF  FA7
09DD2:  BSF    FA6.1
09DD4:  BTFSC  FA6.1
09DD6:  BRA    9DD4
09DD8:  BCF    FA6.2
09DDA:  MOVF   00,W
09DDC:  IORWF  FF2,F
....................                   delay_ms(10); 
09DDE:  MOVLW  0A
09DE0:  MOVLB  7
09DE2:  MOVWF  x18
09DE4:  MOVLB  0
09DE6:  CALL   21D6
....................                   mEst=mEstp; 
09DEA:  MOVFF  14D,149
....................                   sEst=sEstp; 
09DEE:  MOVFF  14C,148
....................                   GuardaEEPROM=ON; 
09DF2:  MOVLB  1
09DF4:  BSF    x2D.1
09DF6:  MOVLB  0
....................                } 
....................          } 
....................           
....................          if(RX_Buffer[4]==0x0c || RX_Buffer[4]==0x0d){//Tecla arriba Oprimida 
09DF8:  MOVF   36,W
09DFA:  SUBLW  0C
09DFC:  BZ    9E04
09DFE:  MOVF   36,W
09E00:  SUBLW  0D
09E02:  BNZ   9E18
....................             if(Segundos){ 
09E04:  MOVLB  1
09E06:  BTFSS  x2D.0
09E08:  BRA    9E0C
....................                sEstp++; 
09E0A:  INCF   x4C,F
....................             } 
....................             if(Minutos){ 
09E0C:  BTFSS  x2C.7
09E0E:  BRA    9E12
....................                mEstp++; 
09E10:  INCF   x4D,F
....................             }   
....................             RX_Buffer[4]=0x00;   
09E12:  CLRF   36
....................             RX_Buffer2[4]=0x00; 
09E14:  CLRF   41
09E16:  MOVLB  0
....................          } 
....................           
....................          if(RX_Buffer[4]==0x0f || RX_Buffer[4]==0x0e){//Tecla abajo oprimida 
09E18:  MOVF   36,W
09E1A:  SUBLW  0F
09E1C:  BZ    9E24
09E1E:  MOVF   36,W
09E20:  SUBLW  0E
09E22:  BNZ   9E3A
....................             if(Segundos && sEstp>0){ 
09E24:  MOVLB  1
09E26:  BTFSS  x2D.0
09E28:  BRA    9E30
09E2A:  MOVF   x4C,F
09E2C:  BZ    9E30
....................                sEstp--; 
09E2E:  DECF   x4C,F
....................             } 
....................             if(Minutos){ 
09E30:  BTFSS  x2C.7
09E32:  BRA    9E36
....................                mEstp--; 
09E34:  DECF   x4D,F
....................             } 
....................             RX_Buffer[4]=0x00;   
09E36:  CLRF   36
....................             RX_Buffer2[4]=0x00; 
09E38:  CLRF   41
....................          } 
....................           
....................          if(mEstp<1)mEstp=99; 
09E3A:  MOVLB  1
09E3C:  MOVF   x4D,F
09E3E:  BNZ   9E44
09E40:  MOVLW  63
09E42:  MOVWF  x4D
....................          if(mEstp>99)mEstp=1; 
09E44:  MOVF   x4D,W
09E46:  SUBLW  63
09E48:  BC    9E4E
09E4A:  MOVLW  01
09E4C:  MOVWF  x4D
....................          if(sEstp>59)sEstp=0; 
09E4E:  MOVF   x4C,W
09E50:  SUBLW  3B
09E52:  BTFSS  FD8.0
09E54:  CLRF   x4C
....................              
....................          printf("tminest.txt=\"%02u\"",mEstp); 
09E56:  MOVLW  24
09E58:  MOVWF  FF6
09E5A:  MOVLW  08
09E5C:  MOVWF  FF7
09E5E:  MOVLW  00
09E60:  MOVWF  FF8
09E62:  MOVLW  0D
09E64:  MOVLB  7
09E66:  MOVWF  x08
09E68:  MOVLB  0
09E6A:  CALL   628E
09E6E:  MOVFF  14D,708
09E72:  MOVLW  01
09E74:  MOVLB  7
09E76:  MOVWF  x09
09E78:  MOVLB  0
09E7A:  CALL   6312
09E7E:  MOVLW  22
09E80:  BTFSS  F9E.4
09E82:  BRA    9E80
09E84:  MOVWF  FAD
....................          SendDataDisplay(); 
09E86:  CALL   4752
....................          printf("tsecest.txt=\"%02u\"",sEstp); 
09E8A:  MOVLW  38
09E8C:  MOVWF  FF6
09E8E:  MOVLW  08
09E90:  MOVWF  FF7
09E92:  MOVLW  00
09E94:  MOVWF  FF8
09E96:  MOVLW  0D
09E98:  MOVLB  7
09E9A:  MOVWF  x08
09E9C:  MOVLB  0
09E9E:  CALL   628E
09EA2:  MOVFF  14C,708
09EA6:  MOVLW  01
09EA8:  MOVLB  7
09EAA:  MOVWF  x09
09EAC:  MOVLB  0
09EAE:  CALL   6312
09EB2:  MOVLW  22
09EB4:  BTFSS  F9E.4
09EB6:  BRA    9EB4
09EB8:  MOVWF  FAD
....................          SendDataDisplay(); 
09EBA:  CALL   4752
....................     }else if(Menu==3){ //Menu de Tiempo de Secado 
09EBE:  GOTO   ECDA
09EC2:  MOVLB  2
09EC4:  MOVF   xA0,W
09EC6:  SUBLW  03
09EC8:  BTFSS  FD8.2
09ECA:  BRA    A1A4
....................       printf("fecha.txt=\"Fecha:%02u/%02u/20%02u Hora: %02u:%02u:%02u\"",Dia,Mes,Year,Hora,Minuto,Segundo); 
09ECC:  MOVLW  4C
09ECE:  MOVWF  FF6
09ED0:  MOVLW  08
09ED2:  MOVWF  FF7
09ED4:  MOVLW  00
09ED6:  MOVWF  FF8
09ED8:  MOVLW  11
09EDA:  MOVLB  7
09EDC:  MOVWF  x08
09EDE:  MOVLB  0
09EE0:  CALL   628E
09EE4:  MOVFF  2F0,708
09EE8:  MOVLW  01
09EEA:  MOVLB  7
09EEC:  MOVWF  x09
09EEE:  MOVLB  0
09EF0:  CALL   6312
09EF4:  MOVLW  2F
09EF6:  BTFSS  F9E.4
09EF8:  BRA    9EF6
09EFA:  MOVWF  FAD
09EFC:  MOVFF  2EF,708
09F00:  MOVLW  01
09F02:  MOVLB  7
09F04:  MOVWF  x09
09F06:  MOVLB  0
09F08:  CALL   6312
09F0C:  MOVLW  2F
09F0E:  BTFSS  F9E.4
09F10:  BRA    9F0E
09F12:  MOVWF  FAD
09F14:  MOVLW  32
09F16:  BTFSS  F9E.4
09F18:  BRA    9F16
09F1A:  MOVWF  FAD
09F1C:  MOVLW  30
09F1E:  BTFSS  F9E.4
09F20:  BRA    9F1E
09F22:  MOVWF  FAD
09F24:  MOVFF  2EE,708
09F28:  MOVLW  01
09F2A:  MOVLB  7
09F2C:  MOVWF  x09
09F2E:  MOVLB  0
09F30:  CALL   6312
09F34:  MOVLW  6D
09F36:  MOVWF  FF6
09F38:  MOVLW  08
09F3A:  MOVWF  FF7
09F3C:  MOVLW  00
09F3E:  MOVWF  FF8
09F40:  MOVLW  07
09F42:  MOVLB  7
09F44:  MOVWF  x08
09F46:  MOVLB  0
09F48:  CALL   628E
09F4C:  MOVFF  2F1,708
09F50:  MOVLW  01
09F52:  MOVLB  7
09F54:  MOVWF  x09
09F56:  MOVLB  0
09F58:  CALL   6312
09F5C:  MOVLW  3A
09F5E:  BTFSS  F9E.4
09F60:  BRA    9F5E
09F62:  MOVWF  FAD
09F64:  MOVFF  2F2,708
09F68:  MOVLW  01
09F6A:  MOVLB  7
09F6C:  MOVWF  x09
09F6E:  MOVLB  0
09F70:  CALL   6312
09F74:  MOVLW  3A
09F76:  BTFSS  F9E.4
09F78:  BRA    9F76
09F7A:  MOVWF  FAD
09F7C:  MOVFF  2F3,708
09F80:  MOVLW  01
09F82:  MOVLB  7
09F84:  MOVWF  x09
09F86:  MOVLB  0
09F88:  CALL   6312
09F8C:  MOVLW  22
09F8E:  BTFSS  F9E.4
09F90:  BRA    9F8E
09F92:  MOVWF  FAD
....................       SendDataDisplay();             
09F94:  CALL   4752
....................              
....................          if(RX_Buffer[4]==0x0a){//Selecciono Minutos 
09F98:  MOVF   36,W
09F9A:  SUBLW  0A
09F9C:  BNZ   9FA6
....................             Minutos=ON; 
09F9E:  MOVLB  1
09FA0:  BSF    x2C.7
....................             Segundos=OFF; 
09FA2:  BCF    x2D.0
09FA4:  MOVLB  0
....................          } 
....................           
....................          if(RX_Buffer[4]==0x0b){//Selecciono Segundos 
09FA6:  MOVF   36,W
09FA8:  SUBLW  0B
09FAA:  BNZ   9FB4
....................             Segundos=ON; 
09FAC:  MOVLB  1
09FAE:  BSF    x2D.0
....................             Minutos=OFF; 
09FB0:  BCF    x2C.7
09FB2:  MOVLB  0
....................          } 
....................           
....................          if(RX_Buffer[4]==0x11){//Selecciono Regresar 
09FB4:  MOVF   36,W
09FB6:  SUBLW  11
09FB8:  BTFSS  FD8.2
09FBA:  BRA    A0D8
....................             Segundos=OFF; 
09FBC:  MOVLB  1
09FBE:  BCF    x2D.0
....................             Minutos=OFF; 
09FC0:  BCF    x2C.7
....................             printf("page CicloPersona"); 
09FC2:  MOVLW  84
09FC4:  MOVWF  FF6
09FC6:  MOVLW  08
09FC8:  MOVWF  FF7
09FCA:  MOVLW  00
09FCC:  MOVWF  FF8
09FCE:  MOVLB  0
09FD0:  CALL   4720
....................             SendDataDisplay();   
09FD4:  CALL   4752
....................             if(!GuardaEEPROM){ 
09FD8:  MOVLB  1
09FDA:  BTFSC  x2D.1
09FDC:  BRA    A0D6
....................                CiclosPersonalizados[CicloLibre-1].Minutosec=mSecp; 
09FDE:  MOVLW  01
09FE0:  MOVLB  2
09FE2:  SUBWF  x7E,W
09FE4:  MULLW  08
09FE6:  MOVF   FF3,W
09FE8:  MOVLB  7
09FEA:  CLRF   x03
09FEC:  MOVWF  x02
09FEE:  MOVLW  03
09FF0:  ADDWF  x02,W
09FF2:  MOVWF  01
09FF4:  MOVLW  00
09FF6:  ADDWFC x03,W
09FF8:  MOVWF  03
09FFA:  MOVF   01,W
09FFC:  ADDLW  3A
09FFE:  MOVWF  FE9
0A000:  MOVLW  06
0A002:  ADDWFC 03,W
0A004:  MOVWF  FEA
0A006:  MOVFF  14F,FEF
....................                CiclosPersonalizados[CicloLibre-1].Segundosec=sSecp; 
0A00A:  MOVLW  01
0A00C:  MOVLB  2
0A00E:  SUBWF  x7E,W
0A010:  MULLW  08
0A012:  MOVF   FF3,W
0A014:  MOVLB  7
0A016:  CLRF   x03
0A018:  MOVWF  x02
0A01A:  MOVLW  04
0A01C:  ADDWF  x02,W
0A01E:  MOVWF  01
0A020:  MOVLW  00
0A022:  ADDWFC x03,W
0A024:  MOVWF  03
0A026:  MOVF   01,W
0A028:  ADDLW  3A
0A02A:  MOVWF  FE9
0A02C:  MOVLW  06
0A02E:  ADDWFC 03,W
0A030:  MOVWF  FEA
0A032:  MOVFF  14E,FEF
....................                write_eeprom(103+((CicloLibre-1)*8),mSecp); 
0A036:  MOVLW  01
0A038:  MOVLB  2
0A03A:  SUBWF  x7E,W
0A03C:  MULLW  08
0A03E:  MOVF   FF3,W
0A040:  ADDLW  67
0A042:  MOVLB  7
0A044:  MOVWF  x02
0A046:  CLRF   FAA
0A048:  MOVFF  702,FA9
0A04C:  MOVFF  14F,FA8
0A050:  BCF    FA6.6
0A052:  BCF    FA6.7
0A054:  BSF    FA6.2
0A056:  MOVF   FF2,W
0A058:  MOVWF  00
0A05A:  BCF    FF2.6
0A05C:  BCF    FF2.7
0A05E:  MOVLB  F
0A060:  MOVLW  55
0A062:  MOVWF  FA7
0A064:  MOVLW  AA
0A066:  MOVWF  FA7
0A068:  BSF    FA6.1
0A06A:  BTFSC  FA6.1
0A06C:  BRA    A06A
0A06E:  BCF    FA6.2
0A070:  MOVF   00,W
0A072:  IORWF  FF2,F
....................                delay_ms(10); 
0A074:  MOVLW  0A
0A076:  MOVLB  7
0A078:  MOVWF  x18
0A07A:  MOVLB  0
0A07C:  CALL   21D6
....................                write_eeprom(104+((CicloLibre-1)*8),sSecp); 
0A080:  MOVLW  01
0A082:  MOVLB  2
0A084:  SUBWF  x7E,W
0A086:  MULLW  08
0A088:  MOVF   FF3,W
0A08A:  ADDLW  68
0A08C:  MOVLB  7
0A08E:  MOVWF  x02
0A090:  CLRF   FAA
0A092:  MOVFF  702,FA9
0A096:  MOVFF  14E,FA8
0A09A:  BCF    FA6.6
0A09C:  BCF    FA6.7
0A09E:  BSF    FA6.2
0A0A0:  MOVF   FF2,W
0A0A2:  MOVWF  00
0A0A4:  BCF    FF2.6
0A0A6:  BCF    FF2.7
0A0A8:  MOVLB  F
0A0AA:  MOVLW  55
0A0AC:  MOVWF  FA7
0A0AE:  MOVLW  AA
0A0B0:  MOVWF  FA7
0A0B2:  BSF    FA6.1
0A0B4:  BTFSC  FA6.1
0A0B6:  BRA    A0B4
0A0B8:  BCF    FA6.2
0A0BA:  MOVF   00,W
0A0BC:  IORWF  FF2,F
....................                delay_ms(10); 
0A0BE:  MOVLW  0A
0A0C0:  MOVLB  7
0A0C2:  MOVWF  x18
0A0C4:  MOVLB  0
0A0C6:  CALL   21D6
....................                mSec=mSecp; 
0A0CA:  MOVFF  14F,14B
....................                sSec=sSecp; 
0A0CE:  MOVFF  14E,14A
....................                GuardaEEPROM=ON; 
0A0D2:  MOVLB  1
0A0D4:  BSF    x2D.1
0A0D6:  MOVLB  0
....................             } 
....................          } 
....................           
....................          if(RX_Buffer[4]==0x0c || RX_Buffer[4]==0x0d){//Tecla Derecha Oprimida 
0A0D8:  MOVF   36,W
0A0DA:  SUBLW  0C
0A0DC:  BZ    A0E4
0A0DE:  MOVF   36,W
0A0E0:  SUBLW  0D
0A0E2:  BNZ   A0F8
....................             if(Segundos){ 
0A0E4:  MOVLB  1
0A0E6:  BTFSS  x2D.0
0A0E8:  BRA    A0EC
....................                sSecp++; 
0A0EA:  INCF   x4E,F
....................             } 
....................             if(Minutos){ 
0A0EC:  BTFSS  x2C.7
0A0EE:  BRA    A0F2
....................                mSecp++; 
0A0F0:  INCF   x4F,F
....................             }   
....................             RX_Buffer[4]=0x00;   
0A0F2:  CLRF   36
....................             RX_Buffer2[4]=0x00;  
0A0F4:  CLRF   41
0A0F6:  MOVLB  0
....................          } 
....................           
....................          if(RX_Buffer[4]==0x0f || RX_Buffer[4]==0x0e){//Tecla Izquierda Oprimida 
0A0F8:  MOVF   36,W
0A0FA:  SUBLW  0F
0A0FC:  BZ    A104
0A0FE:  MOVF   36,W
0A100:  SUBLW  0E
0A102:  BNZ   A11A
....................             if(Segundos && sSecp>0){ 
0A104:  MOVLB  1
0A106:  BTFSS  x2D.0
0A108:  BRA    A110
0A10A:  MOVF   x4E,F
0A10C:  BZ    A110
....................                sSecp--; 
0A10E:  DECF   x4E,F
....................             } 
....................             if(Minutos){ 
0A110:  BTFSS  x2C.7
0A112:  BRA    A116
....................                mSecp--; 
0A114:  DECF   x4F,F
....................             }  
....................             RX_Buffer[4]=0x00;   
0A116:  CLRF   36
....................             RX_Buffer2[4]=0x00;             
0A118:  CLRF   41
....................          } 
....................          if(mSecp<1)mSecp=99; 
0A11A:  MOVLB  1
0A11C:  MOVF   x4F,F
0A11E:  BNZ   A124
0A120:  MOVLW  63
0A122:  MOVWF  x4F
....................          if(mSecp>99)mSecp=1; 
0A124:  MOVF   x4F,W
0A126:  SUBLW  63
0A128:  BC    A12E
0A12A:  MOVLW  01
0A12C:  MOVWF  x4F
....................          if(sSecp>59)mSecp=0; 
0A12E:  MOVF   x4E,W
0A130:  SUBLW  3B
0A132:  BTFSS  FD8.0
0A134:  CLRF   x4F
....................              
....................       printf("tminsec.txt=\"%02u\"",mSecp); 
0A136:  MOVLW  96
0A138:  MOVWF  FF6
0A13A:  MOVLW  08
0A13C:  MOVWF  FF7
0A13E:  MOVLW  00
0A140:  MOVWF  FF8
0A142:  MOVLW  0D
0A144:  MOVLB  7
0A146:  MOVWF  x08
0A148:  MOVLB  0
0A14A:  CALL   628E
0A14E:  MOVFF  14F,708
0A152:  MOVLW  01
0A154:  MOVLB  7
0A156:  MOVWF  x09
0A158:  MOVLB  0
0A15A:  CALL   6312
0A15E:  MOVLW  22
0A160:  BTFSS  F9E.4
0A162:  BRA    A160
0A164:  MOVWF  FAD
....................       SendDataDisplay(); 
0A166:  CALL   4752
....................       printf("tsecsec.txt=\"%02u\"",sSecp); 
0A16A:  MOVLW  AA
0A16C:  MOVWF  FF6
0A16E:  MOVLW  08
0A170:  MOVWF  FF7
0A172:  MOVLW  00
0A174:  MOVWF  FF8
0A176:  MOVLW  0D
0A178:  MOVLB  7
0A17A:  MOVWF  x08
0A17C:  MOVLB  0
0A17E:  CALL   628E
0A182:  MOVFF  14E,708
0A186:  MOVLW  01
0A188:  MOVLB  7
0A18A:  MOVWF  x09
0A18C:  MOVLB  0
0A18E:  CALL   6312
0A192:  MOVLW  22
0A194:  BTFSS  F9E.4
0A196:  BRA    A194
0A198:  MOVWF  FAD
....................       SendDataDisplay(); 
0A19A:  CALL   4752
....................     }else if(Menu==4){ //Menu de Temperatura 
0A19E:  GOTO   ECDA
0A1A2:  MOVLB  2
0A1A4:  MOVF   xA0,W
0A1A6:  SUBLW  04
0A1A8:  BTFSS  FD8.2
0A1AA:  BRA    A382
....................       printf("fecha.txt=\"Fecha:%02u/%02u/20%02u Hora: %02u:%02u:%02u\"",Dia,Mes,Year,Hora,Minuto,Segundo); 
0A1AC:  MOVLW  BE
0A1AE:  MOVWF  FF6
0A1B0:  MOVLW  08
0A1B2:  MOVWF  FF7
0A1B4:  MOVLW  00
0A1B6:  MOVWF  FF8
0A1B8:  MOVLW  11
0A1BA:  MOVLB  7
0A1BC:  MOVWF  x08
0A1BE:  MOVLB  0
0A1C0:  CALL   628E
0A1C4:  MOVFF  2F0,708
0A1C8:  MOVLW  01
0A1CA:  MOVLB  7
0A1CC:  MOVWF  x09
0A1CE:  MOVLB  0
0A1D0:  CALL   6312
0A1D4:  MOVLW  2F
0A1D6:  BTFSS  F9E.4
0A1D8:  BRA    A1D6
0A1DA:  MOVWF  FAD
0A1DC:  MOVFF  2EF,708
0A1E0:  MOVLW  01
0A1E2:  MOVLB  7
0A1E4:  MOVWF  x09
0A1E6:  MOVLB  0
0A1E8:  CALL   6312
0A1EC:  MOVLW  2F
0A1EE:  BTFSS  F9E.4
0A1F0:  BRA    A1EE
0A1F2:  MOVWF  FAD
0A1F4:  MOVLW  32
0A1F6:  BTFSS  F9E.4
0A1F8:  BRA    A1F6
0A1FA:  MOVWF  FAD
0A1FC:  MOVLW  30
0A1FE:  BTFSS  F9E.4
0A200:  BRA    A1FE
0A202:  MOVWF  FAD
0A204:  MOVFF  2EE,708
0A208:  MOVLW  01
0A20A:  MOVLB  7
0A20C:  MOVWF  x09
0A20E:  MOVLB  0
0A210:  CALL   6312
0A214:  MOVLW  DF
0A216:  MOVWF  FF6
0A218:  MOVLW  08
0A21A:  MOVWF  FF7
0A21C:  MOVLW  00
0A21E:  MOVWF  FF8
0A220:  MOVLW  07
0A222:  MOVLB  7
0A224:  MOVWF  x08
0A226:  MOVLB  0
0A228:  CALL   628E
0A22C:  MOVFF  2F1,708
0A230:  MOVLW  01
0A232:  MOVLB  7
0A234:  MOVWF  x09
0A236:  MOVLB  0
0A238:  CALL   6312
0A23C:  MOVLW  3A
0A23E:  BTFSS  F9E.4
0A240:  BRA    A23E
0A242:  MOVWF  FAD
0A244:  MOVFF  2F2,708
0A248:  MOVLW  01
0A24A:  MOVLB  7
0A24C:  MOVWF  x09
0A24E:  MOVLB  0
0A250:  CALL   6312
0A254:  MOVLW  3A
0A256:  BTFSS  F9E.4
0A258:  BRA    A256
0A25A:  MOVWF  FAD
0A25C:  MOVFF  2F3,708
0A260:  MOVLW  01
0A262:  MOVLB  7
0A264:  MOVWF  x09
0A266:  MOVLB  0
0A268:  CALL   6312
0A26C:  MOVLW  22
0A26E:  BTFSS  F9E.4
0A270:  BRA    A26E
0A272:  MOVWF  FAD
....................       SendDataDisplay(); 
0A274:  CALL   4752
....................          if(Setpoint<110) 
0A278:  MOVLB  2
0A27A:  MOVF   xAF,W
0A27C:  SUBLW  6D
0A27E:  BNC   A284
....................             Setpoint=138; 
0A280:  MOVLW  8A
0A282:  MOVWF  xAF
....................          if(Setpoint>138) 
0A284:  MOVF   xAF,W
0A286:  SUBLW  8A
0A288:  BC    A28E
....................             Setpoint=110; 
0A28A:  MOVLW  6E
0A28C:  MOVWF  xAF
....................           
....................          if(RX_Buffer[4]==0x11){//Selecciono Regresar 
0A28E:  MOVF   36,W
0A290:  SUBLW  11
0A292:  BNZ   A330
....................             Segundos=OFF; 
0A294:  MOVLB  1
0A296:  BCF    x2D.0
....................             Minutos=OFF; 
0A298:  BCF    x2C.7
....................             printf("page CicloPersona"); 
0A29A:  MOVLW  F6
0A29C:  MOVWF  FF6
0A29E:  MOVLW  08
0A2A0:  MOVWF  FF7
0A2A2:  MOVLW  00
0A2A4:  MOVWF  FF8
0A2A6:  MOVLB  0
0A2A8:  CALL   4720
....................             SendDataDisplay();   
0A2AC:  CALL   4752
....................             PantallaPrincipal=1; 
0A2B0:  MOVLW  01
0A2B2:  MOVLB  2
0A2B4:  MOVWF  x23
....................             Op=OFF; 
0A2B6:  MOVLB  1
0A2B8:  BCF    x2C.5
....................             Op2=OFF; 
0A2BA:  BCF    x2C.6
....................             if(!GuardaEEPROM){ 
0A2BC:  BTFSC  x2D.1
0A2BE:  BRA    A32E
....................                CiclosPersonalizados[CicloLibre-1].Temperatura=Setpoint; 
0A2C0:  MOVLW  01
0A2C2:  MOVLB  2
0A2C4:  SUBWF  x7E,W
0A2C6:  MULLW  08
0A2C8:  MOVF   FF3,W
0A2CA:  MOVLB  7
0A2CC:  CLRF   x03
0A2CE:  MOVWF  x02
0A2D0:  MOVLW  3A
0A2D2:  ADDWF  x02,W
0A2D4:  MOVWF  FE9
0A2D6:  MOVLW  06
0A2D8:  ADDWFC x03,W
0A2DA:  MOVWF  FEA
0A2DC:  MOVFF  2AF,FEF
....................                write_eeprom(100+((CicloLibre-1)*8),Setpoint); 
0A2E0:  MOVLW  01
0A2E2:  MOVLB  2
0A2E4:  SUBWF  x7E,W
0A2E6:  MULLW  08
0A2E8:  MOVF   FF3,W
0A2EA:  ADDLW  64
0A2EC:  MOVLB  7
0A2EE:  MOVWF  x02
0A2F0:  CLRF   FAA
0A2F2:  MOVFF  702,FA9
0A2F6:  MOVFF  2AF,FA8
0A2FA:  BCF    FA6.6
0A2FC:  BCF    FA6.7
0A2FE:  BSF    FA6.2
0A300:  MOVF   FF2,W
0A302:  MOVWF  00
0A304:  BCF    FF2.6
0A306:  BCF    FF2.7
0A308:  MOVLB  F
0A30A:  MOVLW  55
0A30C:  MOVWF  FA7
0A30E:  MOVLW  AA
0A310:  MOVWF  FA7
0A312:  BSF    FA6.1
0A314:  BTFSC  FA6.1
0A316:  BRA    A314
0A318:  BCF    FA6.2
0A31A:  MOVF   00,W
0A31C:  IORWF  FF2,F
....................                delay_ms(10); 
0A31E:  MOVLW  0A
0A320:  MOVLB  7
0A322:  MOVWF  x18
0A324:  MOVLB  0
0A326:  CALL   21D6
....................                GuardaEEPROM=ON; 
0A32A:  MOVLB  1
0A32C:  BSF    x2D.1
0A32E:  MOVLB  2
....................             } 
....................          } 
....................           
....................          if(RX_Buffer[4]==0x0d){//Tecla Arriba Oprimida 
0A330:  MOVF   36,W
0A332:  SUBLW  0D
0A334:  BNZ   A33C
....................             Setpoint++; 
0A336:  INCF   xAF,F
....................             RX_Buffer[4]=0x00;   
0A338:  CLRF   36
....................             RX_Buffer2[4]=0x00;             
0A33A:  CLRF   41
....................             //BorraBuffer(); 
....................          } 
....................           
....................          if(RX_Buffer[4]==0x0c){//Tecla Abajo Oprimida 
0A33C:  MOVF   36,W
0A33E:  SUBLW  0C
0A340:  BNZ   A348
....................             Setpoint--; 
0A342:  DECF   xAF,F
....................             RX_Buffer[4]=0x00; 
0A344:  CLRF   36
....................             RX_Buffer2[4]=0x00;             
0A346:  CLRF   41
....................             //BorraBuffer(); 
....................          } 
....................           
....................       printf("tsettem.txt=\"%03u\"",Setpoint); 
0A348:  MOVLW  08
0A34A:  MOVWF  FF6
0A34C:  MOVLW  09
0A34E:  MOVWF  FF7
0A350:  MOVLW  00
0A352:  MOVWF  FF8
0A354:  MOVLW  0D
0A356:  MOVLB  7
0A358:  MOVWF  x08
0A35A:  MOVLB  0
0A35C:  CALL   628E
0A360:  MOVFF  2AF,708
0A364:  MOVLW  03
0A366:  MOVLB  7
0A368:  MOVWF  x09
0A36A:  MOVLB  0
0A36C:  CALL   6312
0A370:  MOVLW  22
0A372:  BTFSS  F9E.4
0A374:  BRA    A372
0A376:  MOVWF  FAD
....................       SendDataDisplay(); 
0A378:  CALL   4752
....................     }else if(Menu==5){//Menu de Nivel de Vacio 
0A37C:  GOTO   ECDA
0A380:  MOVLB  2
0A382:  MOVF   xA0,W
0A384:  SUBLW  05
0A386:  BTFSS  FD8.2
0A388:  BRA    A57C
....................       printf("fecha.txt=\"Fecha:%02u/%02u/20%02u Hora: %02u:%02u:%02u\"",Dia,Mes,Year,Hora,Minuto,Segundo); 
0A38A:  MOVLW  1C
0A38C:  MOVWF  FF6
0A38E:  MOVLW  09
0A390:  MOVWF  FF7
0A392:  MOVLW  00
0A394:  MOVWF  FF8
0A396:  MOVLW  11
0A398:  MOVLB  7
0A39A:  MOVWF  x08
0A39C:  MOVLB  0
0A39E:  CALL   628E
0A3A2:  MOVFF  2F0,708
0A3A6:  MOVLW  01
0A3A8:  MOVLB  7
0A3AA:  MOVWF  x09
0A3AC:  MOVLB  0
0A3AE:  CALL   6312
0A3B2:  MOVLW  2F
0A3B4:  BTFSS  F9E.4
0A3B6:  BRA    A3B4
0A3B8:  MOVWF  FAD
0A3BA:  MOVFF  2EF,708
0A3BE:  MOVLW  01
0A3C0:  MOVLB  7
0A3C2:  MOVWF  x09
0A3C4:  MOVLB  0
0A3C6:  CALL   6312
0A3CA:  MOVLW  2F
0A3CC:  BTFSS  F9E.4
0A3CE:  BRA    A3CC
0A3D0:  MOVWF  FAD
0A3D2:  MOVLW  32
0A3D4:  BTFSS  F9E.4
0A3D6:  BRA    A3D4
0A3D8:  MOVWF  FAD
0A3DA:  MOVLW  30
0A3DC:  BTFSS  F9E.4
0A3DE:  BRA    A3DC
0A3E0:  MOVWF  FAD
0A3E2:  MOVFF  2EE,708
0A3E6:  MOVLW  01
0A3E8:  MOVLB  7
0A3EA:  MOVWF  x09
0A3EC:  MOVLB  0
0A3EE:  CALL   6312
0A3F2:  MOVLW  3D
0A3F4:  MOVWF  FF6
0A3F6:  MOVLW  09
0A3F8:  MOVWF  FF7
0A3FA:  MOVLW  00
0A3FC:  MOVWF  FF8
0A3FE:  MOVLW  07
0A400:  MOVLB  7
0A402:  MOVWF  x08
0A404:  MOVLB  0
0A406:  CALL   628E
0A40A:  MOVFF  2F1,708
0A40E:  MOVLW  01
0A410:  MOVLB  7
0A412:  MOVWF  x09
0A414:  MOVLB  0
0A416:  CALL   6312
0A41A:  MOVLW  3A
0A41C:  BTFSS  F9E.4
0A41E:  BRA    A41C
0A420:  MOVWF  FAD
0A422:  MOVFF  2F2,708
0A426:  MOVLW  01
0A428:  MOVLB  7
0A42A:  MOVWF  x09
0A42C:  MOVLB  0
0A42E:  CALL   6312
0A432:  MOVLW  3A
0A434:  BTFSS  F9E.4
0A436:  BRA    A434
0A438:  MOVWF  FAD
0A43A:  MOVFF  2F3,708
0A43E:  MOVLW  01
0A440:  MOVLB  7
0A442:  MOVWF  x09
0A444:  MOVLB  0
0A446:  CALL   6312
0A44A:  MOVLW  22
0A44C:  BTFSS  F9E.4
0A44E:  BRA    A44C
0A450:  MOVWF  FAD
....................       SendDataDisplay(); 
0A452:  CALL   4752
....................          if(Nivel<25) 
0A456:  MOVLB  2
0A458:  MOVF   xBE,F
0A45A:  BNZ   A468
0A45C:  MOVF   xBD,W
0A45E:  SUBLW  18
0A460:  BNC   A468
....................             Nivel=100; 
0A462:  CLRF   xBE
0A464:  MOVLW  64
0A466:  MOVWF  xBD
....................          if(Nivel>100) 
0A468:  MOVF   xBE,F
0A46A:  BNZ   A472
0A46C:  MOVF   xBD,W
0A46E:  SUBLW  64
0A470:  BC    A478
....................             Nivel=25; 
0A472:  CLRF   xBE
0A474:  MOVLW  19
0A476:  MOVWF  xBD
....................           
....................          if(RX_Buffer[4]==0x11){//Selecciono Regresar 
0A478:  MOVF   36,W
0A47A:  SUBLW  11
0A47C:  BNZ   A520
....................             Segundos=OFF; 
0A47E:  MOVLB  1
0A480:  BCF    x2D.0
....................             Minutos=OFF;             
0A482:  BCF    x2C.7
....................             tiempo_secado=0; 
0A484:  MOVLB  2
0A486:  CLRF   xB3
....................             printf("page CicloPersona"); 
0A488:  MOVLW  54
0A48A:  MOVWF  FF6
0A48C:  MOVLW  09
0A48E:  MOVWF  FF7
0A490:  MOVLW  00
0A492:  MOVWF  FF8
0A494:  MOVLB  0
0A496:  CALL   4720
....................             SendDataDisplay();   
0A49A:  CALL   4752
....................             if(!GuardaEEPROM){     
0A49E:  MOVLB  1
0A4A0:  BTFSC  x2D.1
0A4A2:  BRA    A51E
....................                CiclosPersonalizados[CicloLibre-1].NivelVacio=Nivel; 
0A4A4:  MOVLW  01
0A4A6:  MOVLB  2
0A4A8:  SUBWF  x7E,W
0A4AA:  MULLW  08
0A4AC:  MOVF   FF3,W
0A4AE:  MOVLB  7
0A4B0:  CLRF   x03
0A4B2:  MOVWF  x02
0A4B4:  MOVLW  06
0A4B6:  ADDWF  x02,W
0A4B8:  MOVWF  01
0A4BA:  MOVLW  00
0A4BC:  ADDWFC x03,W
0A4BE:  MOVWF  03
0A4C0:  MOVF   01,W
0A4C2:  ADDLW  3A
0A4C4:  MOVWF  FE9
0A4C6:  MOVLW  06
0A4C8:  ADDWFC 03,W
0A4CA:  MOVWF  FEA
0A4CC:  MOVFF  2BD,FEF
....................                write_eeprom(106+((CicloLibre-1)*8),Nivel); 
0A4D0:  MOVLW  01
0A4D2:  MOVLB  2
0A4D4:  SUBWF  x7E,W
0A4D6:  MULLW  08
0A4D8:  MOVF   FF3,W
0A4DA:  ADDLW  6A
0A4DC:  MOVLB  7
0A4DE:  MOVWF  x02
0A4E0:  CLRF   FAA
0A4E2:  MOVFF  702,FA9
0A4E6:  MOVFF  2BD,FA8
0A4EA:  BCF    FA6.6
0A4EC:  BCF    FA6.7
0A4EE:  BSF    FA6.2
0A4F0:  MOVF   FF2,W
0A4F2:  MOVWF  00
0A4F4:  BCF    FF2.6
0A4F6:  BCF    FF2.7
0A4F8:  MOVLB  F
0A4FA:  MOVLW  55
0A4FC:  MOVWF  FA7
0A4FE:  MOVLW  AA
0A500:  MOVWF  FA7
0A502:  BSF    FA6.1
0A504:  BTFSC  FA6.1
0A506:  BRA    A504
0A508:  BCF    FA6.2
0A50A:  MOVF   00,W
0A50C:  IORWF  FF2,F
....................                delay_ms(20);             
0A50E:  MOVLW  14
0A510:  MOVLB  7
0A512:  MOVWF  x18
0A514:  MOVLB  0
0A516:  CALL   21D6
....................                GuardaEEPROM=ON; 
0A51A:  MOVLB  1
0A51C:  BSF    x2D.1
0A51E:  MOVLB  2
....................             } 
....................          } 
....................           
....................          if(RX_Buffer[4]==0x0d){//Tecla Arriba Oprimida 
0A520:  MOVF   36,W
0A522:  SUBLW  0D
0A524:  BNZ   A530
....................             Nivel++; 
0A526:  INCF   xBD,F
0A528:  BTFSC  FD8.2
0A52A:  INCF   xBE,F
....................             RX_Buffer[4]=0x00;             
0A52C:  CLRF   36
....................             RX_Buffer2[4]=0x00;             
0A52E:  CLRF   41
....................             //BorraBuffer(); 
....................          } 
....................           
....................          if(RX_Buffer[4]==0x0c){//Tecla Abajo Oprimida 
0A530:  MOVF   36,W
0A532:  SUBLW  0C
0A534:  BNZ   A542
....................             Nivel--; 
0A536:  MOVF   xBD,W
0A538:  BTFSC  FD8.2
0A53A:  DECF   xBE,F
0A53C:  DECF   xBD,F
....................             RX_Buffer[4]=0x00; 
0A53E:  CLRF   36
....................             RX_Buffer2[4]=0x00;             
0A540:  CLRF   41
....................             //BorraBuffer(); 
....................          } 
....................           
....................       printf("tnivel.txt=\"%Lu\"",Nivel); 
0A542:  MOVLW  66
0A544:  MOVWF  FF6
0A546:  MOVLW  09
0A548:  MOVWF  FF7
0A54A:  MOVLW  00
0A54C:  MOVWF  FF8
0A54E:  MOVLW  0C
0A550:  MOVLB  7
0A552:  MOVWF  x08
0A554:  MOVLB  0
0A556:  CALL   628E
0A55A:  MOVLW  10
0A55C:  MOVWF  FE9
0A55E:  MOVFF  2BE,709
0A562:  MOVFF  2BD,708
0A566:  CALL   6A22
0A56A:  MOVLW  22
0A56C:  BTFSS  F9E.4
0A56E:  BRA    A56C
0A570:  MOVWF  FAD
....................       SendDataDisplay(); 
0A572:  CALL   4752
....................    }else if(Menu==6){ // Menu de Prueba de Componentes 
0A576:  GOTO   ECDA
0A57A:  MOVLB  2
0A57C:  MOVF   xA0,W
0A57E:  SUBLW  06
0A580:  BTFSS  FD8.2
0A582:  GOTO   ADC4
....................          PruebaEstados=ON; 
0A586:  MOVLB  1
0A588:  BSF    x2C.1
....................           
....................          printf("t0.txt=\"Test %02u\"",Codigo); 
0A58A:  MOVLW  78
0A58C:  MOVWF  FF6
0A58E:  MOVLW  09
0A590:  MOVWF  FF7
0A592:  MOVLW  00
0A594:  MOVWF  FF8
0A596:  MOVLW  0D
0A598:  MOVLB  7
0A59A:  MOVWF  x08
0A59C:  MOVLB  0
0A59E:  CALL   628E
0A5A2:  MOVFF  29F,708
0A5A6:  MOVLW  01
0A5A8:  MOVLB  7
0A5AA:  MOVWF  x09
0A5AC:  MOVLB  0
0A5AE:  CALL   6312
0A5B2:  MOVLW  22
0A5B4:  BTFSS  F9E.4
0A5B6:  BRA    A5B4
0A5B8:  MOVWF  FAD
....................          SendDataDisplay(); 
0A5BA:  CALL   4752
....................           
....................          if(RX_Buffer[4]==0x01){//Oprimio EV Suministro 
0A5BE:  DECFSZ 36,W
0A5C0:  BRA    A5CA
....................             EstadoSuministro=!EstadoSuministro; 
0A5C2:  MOVLB  1
0A5C4:  BTG    x2B.7
....................             RX_Buffer[4]=0x00; 
0A5C6:  CLRF   36
....................             RX_Buffer2[4]=0x00; 
0A5C8:  CLRF   41
....................          } 
....................           
....................          if(EstadoSuministro){ 
0A5CA:  MOVLB  1
0A5CC:  BTFSS  x2B.7
0A5CE:  BRA    A5EC
....................             printf("b0.bco=2016"); 
0A5D0:  MOVLW  8C
0A5D2:  MOVWF  FF6
0A5D4:  MOVLW  09
0A5D6:  MOVWF  FF7
0A5D8:  MOVLW  00
0A5DA:  MOVWF  FF8
0A5DC:  MOVLB  0
0A5DE:  CALL   4720
....................             SendDataDisplay();  
0A5E2:  CALL   4752
....................             suministroAire=ON; 
0A5E6:  BSF    31.4
....................          }else{ 
0A5E8:  BRA    A604
0A5EA:  MOVLB  1
....................             printf("b0.bco=63488"); 
0A5EC:  MOVLW  98
0A5EE:  MOVWF  FF6
0A5F0:  MOVLW  09
0A5F2:  MOVWF  FF7
0A5F4:  MOVLW  00
0A5F6:  MOVWF  FF8
0A5F8:  MOVLB  0
0A5FA:  CALL   4720
....................             SendDataDisplay();  
0A5FE:  CALL   4752
....................             suministroAire=OFF; 
0A602:  BCF    31.4
....................          } 
....................           
....................          if(RX_Buffer[4]==0x02){//Oprimio EV Desfogue 
0A604:  MOVF   36,W
0A606:  SUBLW  02
0A608:  BNZ   A612
....................             EstadoDesfogue=!EstadoDesfogue; 
0A60A:  MOVLB  1
0A60C:  BTG    x2B.6
....................             RX_Buffer[4]=0x00; 
0A60E:  CLRF   36
....................             RX_Buffer2[4]=0x00; 
0A610:  CLRF   41
....................          } 
....................           
....................          if(EstadoDesfogue){ 
0A612:  MOVLB  1
0A614:  BTFSS  x2B.6
0A616:  BRA    A634
....................             printf("b1.bco=2016"); 
0A618:  MOVLW  A6
0A61A:  MOVWF  FF6
0A61C:  MOVLW  09
0A61E:  MOVWF  FF7
0A620:  MOVLW  00
0A622:  MOVWF  FF8
0A624:  MOVLB  0
0A626:  CALL   4720
....................             SendDataDisplay();  
0A62A:  CALL   4752
....................             Desfogue=ON; 
0A62E:  MOVLB  1
0A630:  BSF    x1F.4
....................          }else{ 
0A632:  BRA    A64E
....................             printf("b1.bco=63488"); 
0A634:  MOVLW  B2
0A636:  MOVWF  FF6
0A638:  MOVLW  09
0A63A:  MOVWF  FF7
0A63C:  MOVLW  00
0A63E:  MOVWF  FF8
0A640:  MOVLB  0
0A642:  CALL   4720
....................             SendDataDisplay();  
0A646:  CALL   4752
....................             Desfogue=OFF; 
0A64A:  MOVLB  1
0A64C:  BCF    x1F.4
....................          } 
....................           
....................          if(RX_Buffer[4]==0x03){//Oprimio EV Paso 
0A64E:  MOVF   36,W
0A650:  SUBLW  03
0A652:  BNZ   A65A
....................             EstadoPaso=!EstadoPaso; 
0A654:  BTG    x2D.2
....................             RX_Buffer[4]=0x00; 
0A656:  CLRF   36
....................             RX_Buffer2[4]=0x00; 
0A658:  CLRF   41
....................          } 
....................           
....................          if(EstadoPaso){ 
0A65A:  BTFSS  x2D.2
0A65C:  BRA    A67A
....................             printf("b2.bco=2016"); 
0A65E:  MOVLW  C0
0A660:  MOVWF  FF6
0A662:  MOVLW  09
0A664:  MOVWF  FF7
0A666:  MOVLW  00
0A668:  MOVWF  FF8
0A66A:  MOVLB  0
0A66C:  CALL   4720
....................             SendDataDisplay();  
0A670:  CALL   4752
....................             Paso=ON; 
0A674:  MOVLB  1
0A676:  BSF    x1F.2
....................          }else{ 
0A678:  BRA    A694
....................             printf("b2.bco=63488"); 
0A67A:  MOVLW  CC
0A67C:  MOVWF  FF6
0A67E:  MOVLW  09
0A680:  MOVWF  FF7
0A682:  MOVLW  00
0A684:  MOVWF  FF8
0A686:  MOVLB  0
0A688:  CALL   4720
....................             SendDataDisplay();  
0A68C:  CALL   4752
....................             Paso=OFF; 
0A690:  MOVLB  1
0A692:  BCF    x1F.2
....................          } 
....................          
....................          if(RX_Buffer[4]==0x04){//Oprimio Vacio 
0A694:  MOVF   36,W
0A696:  SUBLW  04
0A698:  BNZ   A6A0
....................             EstadoVacio=!EstadoVacio; 
0A69A:  BTG    x2D.3
....................             RX_Buffer[4]=0x00; 
0A69C:  CLRF   36
....................             RX_Buffer2[4]=0x00; 
0A69E:  CLRF   41
....................          } 
....................           
....................          if(EstadoVacio){ 
0A6A0:  BTFSS  x2D.3
0A6A2:  BRA    A6C0
....................             printf("b3.bco=2016"); 
0A6A4:  MOVLW  DA
0A6A6:  MOVWF  FF6
0A6A8:  MOVLW  09
0A6AA:  MOVWF  FF7
0A6AC:  MOVLW  00
0A6AE:  MOVWF  FF8
0A6B0:  MOVLB  0
0A6B2:  CALL   4720
....................             SendDataDisplay();  
0A6B6:  CALL   4752
....................             outVacio=ON; 
0A6BA:  MOVLB  1
0A6BC:  BSF    x1F.3
....................          }else{ 
0A6BE:  BRA    A6DA
....................             printf("b3.bco=63488"); 
0A6C0:  MOVLW  E6
0A6C2:  MOVWF  FF6
0A6C4:  MOVLW  09
0A6C6:  MOVWF  FF7
0A6C8:  MOVLW  00
0A6CA:  MOVWF  FF8
0A6CC:  MOVLB  0
0A6CE:  CALL   4720
....................             SendDataDisplay();  
0A6D2:  CALL   4752
....................             outVacio=OFF; 
0A6D6:  MOVLB  1
0A6D8:  BCF    x1F.3
....................          } 
....................           
....................          if(RX_Buffer[4]==0x05){//Oprimio Aire 
0A6DA:  MOVF   36,W
0A6DC:  SUBLW  05
0A6DE:  BNZ   A6E6
....................             EstadoAire=!EstadoAire; 
0A6E0:  BTG    x2C.0
....................             RX_Buffer[4]=0x00; 
0A6E2:  CLRF   36
....................             RX_Buffer2[4]=0x00; 
0A6E4:  CLRF   41
....................          } 
....................           
....................          if(EstadoAire){ 
0A6E6:  BTFSS  x2C.0
0A6E8:  BRA    A706
....................             printf("b4.bco=2016"); 
0A6EA:  MOVLW  F4
0A6EC:  MOVWF  FF6
0A6EE:  MOVLW  09
0A6F0:  MOVWF  FF7
0A6F2:  MOVLW  00
0A6F4:  MOVWF  FF8
0A6F6:  MOVLB  0
0A6F8:  CALL   4720
....................             SendDataDisplay();  
0A6FC:  CALL   4752
....................             Aire=ON; 
0A700:  MOVLB  1
0A702:  BSF    x1F.5
....................          }else{ 
0A704:  BRA    A720
....................             printf("b4.bco=63488"); 
0A706:  MOVLW  00
0A708:  MOVWF  FF6
0A70A:  MOVLW  0A
0A70C:  MOVWF  FF7
0A70E:  MOVLW  00
0A710:  MOVWF  FF8
0A712:  MOVLB  0
0A714:  CALL   4720
....................             SendDataDisplay();  
0A718:  CALL   4752
....................             Aire=OFF; 
0A71C:  MOVLB  1
0A71E:  BCF    x1F.5
....................          } 
....................           
....................          if(RX_Buffer[4]==0x06){//Oprimio Bomba Vacio 
0A720:  MOVF   36,W
0A722:  SUBLW  06
0A724:  BNZ   A72C
....................             EstadoBomba=!EstadoBomba; 
0A726:  BTG    x2E.3
....................             RX_Buffer[4]=0x00; 
0A728:  CLRF   36
....................             RX_Buffer2[4]=0x00; 
0A72A:  CLRF   41
....................          } 
....................           
....................          if(EstadoBomba){ 
0A72C:  BTFSS  x2E.3
0A72E:  BRA    A754
....................             printf("b5.bco=2016"); 
0A730:  MOVLW  0E
0A732:  MOVWF  FF6
0A734:  MOVLW  0A
0A736:  MOVWF  FF7
0A738:  MOVLW  00
0A73A:  MOVWF  FF8
0A73C:  MOVLB  0
0A73E:  CALL   4720
....................             SendDataDisplay();  
0A742:  CALL   4752
....................             if(ReservorioLleno) 
0A746:  MOVLB  1
0A748:  BTFSS  x31.1
0A74A:  BRA    A750
....................                bombaVacio=ON; 
0A74C:  BSF    31.6
....................             else 
0A74E:  BRA    A752
....................                bombaVacio=OFF; 
0A750:  BCF    31.6
....................          }else{ 
0A752:  BRA    A76E
....................             printf("b5.bco=63488"); 
0A754:  MOVLW  1A
0A756:  MOVWF  FF6
0A758:  MOVLW  0A
0A75A:  MOVWF  FF7
0A75C:  MOVLW  00
0A75E:  MOVWF  FF8
0A760:  MOVLB  0
0A762:  CALL   4720
....................             SendDataDisplay();  
0A766:  CALL   4752
....................             bombaVacio=OFF; 
0A76A:  BCF    31.6
0A76C:  MOVLB  1
....................          } 
....................           
....................          if(RX_Buffer[4]==0x07){//Oprimio EV Agua 
0A76E:  MOVF   36,W
0A770:  SUBLW  07
0A772:  BNZ   A77A
....................             EstadoAguaEnfriador=!EstadoAguaEnfriador; 
0A774:  BTG    x23.3
....................             RX_Buffer[4]=0x00; 
0A776:  CLRF   36
....................             RX_Buffer2[4]=0x00; 
0A778:  CLRF   41
....................          } 
....................           
....................          if(EstadoAguaEnfriador){ 
0A77A:  BTFSS  x23.3
0A77C:  BRA    A79A
....................             printf("b7.bco=2016"); 
0A77E:  MOVLW  28
0A780:  MOVWF  FF6
0A782:  MOVLW  0A
0A784:  MOVWF  FF7
0A786:  MOVLW  00
0A788:  MOVWF  FF8
0A78A:  MOVLB  0
0A78C:  CALL   4720
....................             SendDataDisplay();  
0A790:  CALL   4752
....................             aguaEnfriador=ON; 
0A794:  BSF    31.5
....................          }else{ 
0A796:  BRA    A7B2
0A798:  MOVLB  1
....................             printf("b7.bco=63488"); 
0A79A:  MOVLW  34
0A79C:  MOVWF  FF6
0A79E:  MOVLW  0A
0A7A0:  MOVWF  FF7
0A7A2:  MOVLW  00
0A7A4:  MOVWF  FF8
0A7A6:  MOVLB  0
0A7A8:  CALL   4720
....................             SendDataDisplay();  
0A7AC:  CALL   4752
....................             aguaEnfriador=OFF; 
0A7B0:  BCF    31.5
....................          } 
....................           
....................          if(RX_Buffer[4]==0x08){//Oprimio EV Suministro Vapor 
0A7B2:  MOVF   36,W
0A7B4:  SUBLW  08
0A7B6:  BNZ   A7C0
....................             EstadoSuministroV=!EstadoSuministroV; 
0A7B8:  MOVLB  1
0A7BA:  BTG    x23.4
....................             RX_Buffer[4]=0x00; 
0A7BC:  CLRF   36
....................             RX_Buffer2[4]=0x00; 
0A7BE:  CLRF   41
....................          } 
....................           
....................          if(EstadoSuministroV){ 
0A7C0:  MOVLB  1
0A7C2:  BTFSS  x23.4
0A7C4:  BRA    A7E2
....................             printf("b6.bco=2016"); 
0A7C6:  MOVLW  42
0A7C8:  MOVWF  FF6
0A7CA:  MOVLW  0A
0A7CC:  MOVWF  FF7
0A7CE:  MOVLW  00
0A7D0:  MOVWF  FF8
0A7D2:  MOVLB  0
0A7D4:  CALL   4720
....................             SendDataDisplay();  
0A7D8:  CALL   4752
....................             suministroVapor=ON; 
0A7DC:  MOVLB  1
0A7DE:  BSF    x1F.1
....................          }else{ 
0A7E0:  BRA    A7FC
....................             printf("b6.bco=63488"); 
0A7E2:  MOVLW  4E
0A7E4:  MOVWF  FF6
0A7E6:  MOVLW  0A
0A7E8:  MOVWF  FF7
0A7EA:  MOVLW  00
0A7EC:  MOVWF  FF8
0A7EE:  MOVLB  0
0A7F0:  CALL   4720
....................             SendDataDisplay();  
0A7F4:  CALL   4752
....................             suministroVapor=OFF; 
0A7F8:  MOVLB  1
0A7FA:  BCF    x1F.1
....................          } 
....................           
....................          if(RX_Buffer[4]==0x09){//Oprimio Abrir Cierre 
0A7FC:  MOVF   36,W
0A7FE:  SUBLW  09
0A800:  BNZ   A808
....................             EstadoCilindrosL=!EstadoCilindrosL; 
0A802:  BTG    x23.5
....................             RX_Buffer[4]=0x00; 
0A804:  CLRF   36
....................             RX_Buffer2[4]=0x00; 
0A806:  CLRF   41
....................          } 
....................           
....................          if(EstadoCilindrosL){ 
0A808:  BTFSS  x23.5
0A80A:  BRA    A828
....................             printf("b12.bco=2016"); 
0A80C:  MOVLW  5C
0A80E:  MOVWF  FF6
0A810:  MOVLW  0A
0A812:  MOVWF  FF7
0A814:  MOVLW  00
0A816:  MOVWF  FF8
0A818:  MOVLB  0
0A81A:  CALL   4720
....................             SendDataDisplay();  
0A81E:  CALL   4752
....................             cilindroLimpio=OFF; 
0A822:  MOVLB  1
0A824:  BCF    x1F.7
....................          }else{ 
0A826:  BRA    A842
....................             printf("b12.bco=63488"); 
0A828:  MOVLW  6A
0A82A:  MOVWF  FF6
0A82C:  MOVLW  0A
0A82E:  MOVWF  FF7
0A830:  MOVLW  00
0A832:  MOVWF  FF8
0A834:  MOVLB  0
0A836:  CALL   4720
....................             SendDataDisplay();  
0A83A:  CALL   4752
....................             cilindroLimpio=ON; 
0A83E:  MOVLB  1
0A840:  BSF    x1F.7
....................          } 
....................           
....................          if(RX_Buffer[4]==0x0a){//Oprimio Empaque 
0A842:  MOVF   36,W
0A844:  SUBLW  0A
0A846:  BNZ   A84E
....................             EstadoEmpaqueL=!EstadoEmpaqueL; 
0A848:  BTG    x23.7
....................             RX_Buffer[4]=0x00; 
0A84A:  CLRF   36
....................             RX_Buffer2[4]=0x00; 
0A84C:  CLRF   41
....................          } 
....................           
....................          if(EstadoEmpaqueL && DOORL){ 
0A84E:  BTFSS  x23.7
0A850:  BRA    A872
0A852:  BTFSS  31.1
0A854:  BRA    A872
....................             printf("b16.bco=2016"); 
0A856:  MOVLW  78
0A858:  MOVWF  FF6
0A85A:  MOVLW  0A
0A85C:  MOVWF  FF7
0A85E:  MOVLW  00
0A860:  MOVWF  FF8
0A862:  MOVLB  0
0A864:  CALL   4720
....................             SendDataDisplay();  
0A868:  CALL   4752
....................             empaqueLimpio=ON;             
0A86C:  BSF    31.7
....................          }else{ 
0A86E:  BRA    A88A
0A870:  MOVLB  1
....................             printf("b16.bco=63488"); 
0A872:  MOVLW  86
0A874:  MOVWF  FF6
0A876:  MOVLW  0A
0A878:  MOVWF  FF7
0A87A:  MOVLW  00
0A87C:  MOVWF  FF8
0A87E:  MOVLB  0
0A880:  CALL   4720
....................             SendDataDisplay();  
0A884:  CALL   4752
....................             empaqueLimpio=OFF; 
0A888:  BCF    31.7
....................          } 
....................           
....................          if(RX_Buffer[4]==0x0b){//Oprimio Abrir Cierre 
0A88A:  MOVF   36,W
0A88C:  SUBLW  0B
0A88E:  BNZ   A898
....................             EstadoCilindrosS=!EstadoCilindrosS; 
0A890:  MOVLB  1
0A892:  BTG    x23.6
....................             RX_Buffer[4]=0x00; 
0A894:  CLRF   36
....................             RX_Buffer2[4]=0x00; 
0A896:  CLRF   41
....................          } 
....................           
....................          if(EstadoCilindrosS){ 
0A898:  MOVLB  1
0A89A:  BTFSS  x23.6
0A89C:  BRA    A8BA
....................             printf("b17.bco=2016"); 
0A89E:  MOVLW  94
0A8A0:  MOVWF  FF6
0A8A2:  MOVLW  0A
0A8A4:  MOVWF  FF7
0A8A6:  MOVLW  00
0A8A8:  MOVWF  FF8
0A8AA:  MOVLB  0
0A8AC:  CALL   4720
....................             SendDataDisplay();  
0A8B0:  CALL   4752
....................             cilindroSucio=OFF; 
0A8B4:  MOVLB  1
0A8B6:  BCF    x1F.6
....................          }else{ 
0A8B8:  BRA    A8D4
....................             printf("b17.bco=63488"); 
0A8BA:  MOVLW  A2
0A8BC:  MOVWF  FF6
0A8BE:  MOVLW  0A
0A8C0:  MOVWF  FF7
0A8C2:  MOVLW  00
0A8C4:  MOVWF  FF8
0A8C6:  MOVLB  0
0A8C8:  CALL   4720
....................             SendDataDisplay();  
0A8CC:  CALL   4752
....................             cilindroSucio=ON; 
0A8D0:  MOVLB  1
0A8D2:  BSF    x1F.6
....................          } 
....................           
....................          if(RX_Buffer[4]==0x0c){//Oprimio Empaque 
0A8D4:  MOVF   36,W
0A8D6:  SUBLW  0C
0A8D8:  BNZ   A8E0
....................             EstadoEmpaqueS=!EstadoEmpaqueS; 
0A8DA:  BTG    x2A.0
....................             RX_Buffer[4]=0x00; 
0A8DC:  CLRF   36
....................             RX_Buffer2[4]=0x00; 
0A8DE:  CLRF   41
....................          } 
....................           
....................          if(EstadoEmpaqueS && DOORS){ 
0A8E0:  BTFSS  x2A.0
0A8E2:  BRA    A906
0A8E4:  BSF    F93.1
0A8E6:  BTFSC  F81.1
0A8E8:  BRA    A906
....................             printf("b25.bco=2016"); 
0A8EA:  MOVLW  B0
0A8EC:  MOVWF  FF6
0A8EE:  MOVLW  0A
0A8F0:  MOVWF  FF7
0A8F2:  MOVLW  00
0A8F4:  MOVWF  FF8
0A8F6:  MOVLB  0
0A8F8:  CALL   4720
....................             SendDataDisplay();  
0A8FC:  CALL   4752
....................             empaqueSucio=ON;             
0A900:  MOVLB  1
0A902:  BSF    x1F.0
....................          }else{ 
0A904:  BRA    A920
....................             printf("b25.bco=63488"); 
0A906:  MOVLW  BE
0A908:  MOVWF  FF6
0A90A:  MOVLW  0A
0A90C:  MOVWF  FF7
0A90E:  MOVLW  00
0A910:  MOVWF  FF8
0A912:  MOVLB  0
0A914:  CALL   4720
....................             SendDataDisplay();  
0A918:  CALL   4752
....................             empaqueSucio=OFF; 
0A91C:  MOVLB  1
0A91E:  BCF    x1F.0
....................          } 
....................           
....................          if(RX_Buffer[4]==0x0d){//Oprimio Buzzer 
0A920:  MOVF   36,W
0A922:  SUBLW  0D
0A924:  BNZ   A92C
....................             EstadoBuzzer=!EstadoBuzzer; 
0A926:  BTG    x2D.4
....................             RX_Buffer[4]=0x00; 
0A928:  CLRF   36
....................             RX_Buffer2[4]=0x00; 
0A92A:  CLRF   41
....................          } 
....................           
....................          if(EstadoBuzzer){ 
0A92C:  BTFSS  x2D.4
0A92E:  BRA    A94A
....................             printf("b21.bco=2016"); 
0A930:  MOVLW  CC
0A932:  MOVWF  FF6
0A934:  MOVLW  0A
0A936:  MOVWF  FF7
0A938:  MOVLW  00
0A93A:  MOVWF  FF8
0A93C:  MOVLB  0
0A93E:  CALL   4720
....................             SendDataDisplay();  
0A942:  CALL   4752
....................          }else{ 
0A946:  BRA    A960
0A948:  MOVLB  1
....................             printf("b21.bco=63488"); 
0A94A:  MOVLW  DA
0A94C:  MOVWF  FF6
0A94E:  MOVLW  0A
0A950:  MOVWF  FF7
0A952:  MOVLW  00
0A954:  MOVWF  FF8
0A956:  MOVLB  0
0A958:  CALL   4720
....................             SendDataDisplay();  
0A95C:  CALL   4752
....................          } 
....................           
....................          if(RX_Buffer[4]==0x0e){//Oprimio Aux1 
0A960:  MOVF   36,W
0A962:  SUBLW  0E
0A964:  BNZ   A96E
....................             EstadoAux1=!EstadoAux1; 
0A966:  MOVLB  1
0A968:  BTG    x20.3
....................             RX_Buffer[4]=0x00; 
0A96A:  CLRF   36
....................             RX_Buffer2[4]=0x00; 
0A96C:  CLRF   41
....................          } 
....................           
....................          if(EstadoAux1){ 
0A96E:  MOVLB  1
0A970:  BTFSS  x20.3
0A972:  BRA    A990
....................             seguroValvula=ON; 
0A974:  BSF    x20.1
....................             printf("b22.bco=2016"); 
0A976:  MOVLW  E8
0A978:  MOVWF  FF6
0A97A:  MOVLW  0A
0A97C:  MOVWF  FF7
0A97E:  MOVLW  00
0A980:  MOVWF  FF8
0A982:  MOVLB  0
0A984:  CALL   4720
....................             SendDataDisplay();  
0A988:  CALL   4752
....................          }else{ 
0A98C:  BRA    A9A8
0A98E:  MOVLB  1
....................             seguroValvula=OFF; 
0A990:  BCF    x20.1
....................             printf("b22.bco=63488"); 
0A992:  MOVLW  F6
0A994:  MOVWF  FF6
0A996:  MOVLW  0A
0A998:  MOVWF  FF7
0A99A:  MOVLW  00
0A99C:  MOVWF  FF8
0A99E:  MOVLB  0
0A9A0:  CALL   4720
....................             SendDataDisplay();  
0A9A4:  CALL   4752
....................          } 
....................           
....................          if(RX_Buffer[4]==0x0f){//Oprimio Aux2 
0A9A8:  MOVF   36,W
0A9AA:  SUBLW  0F
0A9AC:  BNZ   A9B6
....................             EstadoAux2=!EstadoAux2; 
0A9AE:  MOVLB  1
0A9B0:  BTG    x20.4
....................             RX_Buffer[4]=0x00; 
0A9B2:  CLRF   36
....................             RX_Buffer2[4]=0x00; 
0A9B4:  CLRF   41
....................          } 
....................           
....................          if(EstadoAux2){ 
0A9B6:  MOVLB  1
0A9B8:  BTFSS  x20.4
0A9BA:  BRA    A9D8
....................             seguroValvula2=ON; 
0A9BC:  BSF    x20.2
....................             printf("b28.bco=2016"); 
0A9BE:  MOVLW  04
0A9C0:  MOVWF  FF6
0A9C2:  MOVLW  0B
0A9C4:  MOVWF  FF7
0A9C6:  MOVLW  00
0A9C8:  MOVWF  FF8
0A9CA:  MOVLB  0
0A9CC:  CALL   4720
....................             SendDataDisplay();  
0A9D0:  CALL   4752
....................          }else{ 
0A9D4:  BRA    A9F0
0A9D6:  MOVLB  1
....................             seguroValvula2=OFF; 
0A9D8:  BCF    x20.2
....................             printf("b28.bco=63488"); 
0A9DA:  MOVLW  12
0A9DC:  MOVWF  FF6
0A9DE:  MOVLW  0B
0A9E0:  MOVWF  FF7
0A9E2:  MOVLW  00
0A9E4:  MOVWF  FF8
0A9E6:  MOVLB  0
0A9E8:  CALL   4720
....................             SendDataDisplay();  
0A9EC:  CALL   4752
....................          } 
....................           
....................          if(DOORS){ 
0A9F0:  BSF    F93.1
0A9F2:  BTFSC  F81.1
0A9F4:  BRA    AA0C
....................             printf("b8.bco=2016"); 
0A9F6:  MOVLW  20
0A9F8:  MOVWF  FF6
0A9FA:  MOVLW  0B
0A9FC:  MOVWF  FF7
0A9FE:  MOVLW  00
0AA00:  MOVWF  FF8
0AA02:  CALL   4720
....................             SendDataDisplay();  
0AA06:  CALL   4752
....................          }else{ 
0AA0A:  BRA    AA20
....................             printf("b8.bco=63488"); 
0AA0C:  MOVLW  2C
0AA0E:  MOVWF  FF6
0AA10:  MOVLW  0B
0AA12:  MOVWF  FF7
0AA14:  MOVLW  00
0AA16:  MOVWF  FF8
0AA18:  CALL   4720
....................             SendDataDisplay();  
0AA1C:  CALL   4752
....................          } 
....................           
....................          if(DOORL){ 
0AA20:  BTFSS  31.1
0AA22:  BRA    AA3A
....................             printf("b26.bco=2016"); 
0AA24:  MOVLW  3A
0AA26:  MOVWF  FF6
0AA28:  MOVLW  0B
0AA2A:  MOVWF  FF7
0AA2C:  MOVLW  00
0AA2E:  MOVWF  FF8
0AA30:  CALL   4720
....................             SendDataDisplay();  
0AA34:  CALL   4752
....................          }else{ 
0AA38:  BRA    AA4E
....................             printf("b26.bco=63488"); 
0AA3A:  MOVLW  48
0AA3C:  MOVWF  FF6
0AA3E:  MOVLW  0B
0AA40:  MOVWF  FF7
0AA42:  MOVLW  00
0AA44:  MOVWF  FF8
0AA46:  CALL   4720
....................             SendDataDisplay();  
0AA4A:  CALL   4752
....................          } 
....................           
....................          if(EMPAQUEL){ 
0AA4E:  BTFSS  31.0
0AA50:  BRA    AA68
....................             printf("b9.bco=2016"); 
0AA52:  MOVLW  56
0AA54:  MOVWF  FF6
0AA56:  MOVLW  0B
0AA58:  MOVWF  FF7
0AA5A:  MOVLW  00
0AA5C:  MOVWF  FF8
0AA5E:  CALL   4720
....................             SendDataDisplay();  
0AA62:  CALL   4752
....................          }else{ 
0AA66:  BRA    AA7C
....................             printf("b9.bco=63488"); 
0AA68:  MOVLW  62
0AA6A:  MOVWF  FF6
0AA6C:  MOVLW  0B
0AA6E:  MOVWF  FF7
0AA70:  MOVLW  00
0AA72:  MOVWF  FF8
0AA74:  CALL   4720
....................             SendDataDisplay();  
0AA78:  CALL   4752
....................          } 
....................           
....................          if(EMPAQUES){ 
0AA7C:  BSF    F93.3
0AA7E:  BTFSC  F81.3
0AA80:  BRA    AA98
....................             printf("b11.bco=2016"); 
0AA82:  MOVLW  70
0AA84:  MOVWF  FF6
0AA86:  MOVLW  0B
0AA88:  MOVWF  FF7
0AA8A:  MOVLW  00
0AA8C:  MOVWF  FF8
0AA8E:  CALL   4720
....................             SendDataDisplay();  
0AA92:  CALL   4752
....................          }else{ 
0AA96:  BRA    AAAC
....................             printf("b11.bco=63488"); 
0AA98:  MOVLW  7E
0AA9A:  MOVWF  FF6
0AA9C:  MOVLW  0B
0AA9E:  MOVWF  FF7
0AAA0:  MOVLW  00
0AAA2:  MOVWF  FF8
0AAA4:  CALL   4720
....................             SendDataDisplay();  
0AAA8:  CALL   4752
....................          } 
....................           
....................          if(STOP){ 
0AAAC:  BSF    F93.0
0AAAE:  BTFSC  F81.0
0AAB0:  BRA    AAC8
....................             printf("b10.bco=2016"); 
0AAB2:  MOVLW  8C
0AAB4:  MOVWF  FF6
0AAB6:  MOVLW  0B
0AAB8:  MOVWF  FF7
0AABA:  MOVLW  00
0AABC:  MOVWF  FF8
0AABE:  CALL   4720
....................             SendDataDisplay();  
0AAC2:  CALL   4752
....................          }else{ 
0AAC6:  BRA    AADC
....................             printf("b10.bco=63488"); 
0AAC8:  MOVLW  9A
0AACA:  MOVWF  FF6
0AACC:  MOVLW  0B
0AACE:  MOVWF  FF7
0AAD0:  MOVLW  00
0AAD2:  MOVWF  FF8
0AAD4:  CALL   4720
....................             SendDataDisplay();  
0AAD8:  CALL   4752
....................          } 
....................           
....................          if(LOWB){ 
0AADC:  BSF    F93.2
0AADE:  BTFSC  F81.2
0AAE0:  BRA    AAF8
....................             printf("b23.bco=2016"); 
0AAE2:  MOVLW  A8
0AAE4:  MOVWF  FF6
0AAE6:  MOVLW  0B
0AAE8:  MOVWF  FF7
0AAEA:  MOVLW  00
0AAEC:  MOVWF  FF8
0AAEE:  CALL   4720
....................             SendDataDisplay();  
0AAF2:  CALL   4752
....................          }else{ 
0AAF6:  BRA    AB0C
....................             printf("b23.bco=63488"); 
0AAF8:  MOVLW  B6
0AAFA:  MOVWF  FF6
0AAFC:  MOVLW  0B
0AAFE:  MOVWF  FF7
0AB00:  MOVLW  00
0AB02:  MOVWF  FF8
0AB04:  CALL   4720
....................             SendDataDisplay();  
0AB08:  CALL   4752
....................          } 
....................           
....................          if(BLOQUEOL){ 
0AB0C:  BTFSS  31.3
0AB0E:  BRA    AB26
....................             printf("b24.bco=2016"); 
0AB10:  MOVLW  C4
0AB12:  MOVWF  FF6
0AB14:  MOVLW  0B
0AB16:  MOVWF  FF7
0AB18:  MOVLW  00
0AB1A:  MOVWF  FF8
0AB1C:  CALL   4720
....................             SendDataDisplay();  
0AB20:  CALL   4752
....................          }else{ 
0AB24:  BRA    AB3A
....................             printf("b24.bco=63488"); 
0AB26:  MOVLW  D2
0AB28:  MOVWF  FF6
0AB2A:  MOVLW  0B
0AB2C:  MOVWF  FF7
0AB2E:  MOVLW  00
0AB30:  MOVWF  FF8
0AB32:  CALL   4720
....................             SendDataDisplay();  
0AB36:  CALL   4752
....................          } 
....................           
....................          if(BLOQUEOS){ 
0AB3A:  BTFSS  31.2
0AB3C:  BRA    AB54
....................             printf("b27.bco=2016"); 
0AB3E:  MOVLW  E0
0AB40:  MOVWF  FF6
0AB42:  MOVLW  0B
0AB44:  MOVWF  FF7
0AB46:  MOVLW  00
0AB48:  MOVWF  FF8
0AB4A:  CALL   4720
....................             SendDataDisplay();  
0AB4E:  CALL   4752
....................          }else{ 
0AB52:  BRA    AB68
....................             printf("b27.bco=63488"); 
0AB54:  MOVLW  EE
0AB56:  MOVWF  FF6
0AB58:  MOVLW  0B
0AB5A:  MOVWF  FF7
0AB5C:  MOVLW  00
0AB5E:  MOVWF  FF8
0AB60:  CALL   4720
....................             SendDataDisplay();  
0AB64:  CALL   4752
....................          }          
....................                    
....................          printf("b13.txt=\"ADC0:%3.0f\"",sensores(0));          
0AB68:  MOVLB  7
0AB6A:  CLRF   x08
0AB6C:  MOVLB  0
0AB6E:  CALL   4790
0AB72:  MOVFF  00,702
0AB76:  MOVFF  01,703
0AB7A:  MOVFF  02,704
0AB7E:  MOVFF  03,705
0AB82:  MOVLW  FC
0AB84:  MOVWF  FF6
0AB86:  MOVLW  0B
0AB88:  MOVWF  FF7
0AB8A:  MOVLW  00
0AB8C:  MOVWF  FF8
0AB8E:  MOVLW  0E
0AB90:  MOVLB  7
0AB92:  MOVWF  x08
0AB94:  MOVLB  0
0AB96:  CALL   628E
0AB9A:  MOVLW  02
0AB9C:  MOVWF  FE9
0AB9E:  MOVFF  705,70B
0ABA2:  MOVFF  704,70A
0ABA6:  MOVFF  703,709
0ABAA:  MOVFF  702,708
0ABAE:  MOVLB  7
0ABB0:  CLRF   x0C
0ABB2:  MOVLB  0
0ABB4:  CALL   6B90
0ABB8:  MOVLW  22
0ABBA:  BTFSS  F9E.4
0ABBC:  BRA    ABBA
0ABBE:  MOVWF  FAD
....................          SendDataDisplay(); 
0ABC0:  CALL   4752
....................          printf("b14.txt=\"ADC1:%3.0f\"",sensores(1));          
0ABC4:  MOVLW  01
0ABC6:  MOVLB  7
0ABC8:  MOVWF  x08
0ABCA:  MOVLB  0
0ABCC:  CALL   4790
0ABD0:  MOVFF  00,702
0ABD4:  MOVFF  01,703
0ABD8:  MOVFF  02,704
0ABDC:  MOVFF  03,705
0ABE0:  MOVLW  12
0ABE2:  MOVWF  FF6
0ABE4:  MOVLW  0C
0ABE6:  MOVWF  FF7
0ABE8:  MOVLW  00
0ABEA:  MOVWF  FF8
0ABEC:  MOVLW  0E
0ABEE:  MOVLB  7
0ABF0:  MOVWF  x08
0ABF2:  MOVLB  0
0ABF4:  CALL   628E
0ABF8:  MOVLW  02
0ABFA:  MOVWF  FE9
0ABFC:  MOVFF  705,70B
0AC00:  MOVFF  704,70A
0AC04:  MOVFF  703,709
0AC08:  MOVFF  702,708
0AC0C:  MOVLB  7
0AC0E:  CLRF   x0C
0AC10:  MOVLB  0
0AC12:  CALL   6B90
0AC16:  MOVLW  22
0AC18:  BTFSS  F9E.4
0AC1A:  BRA    AC18
0AC1C:  MOVWF  FAD
....................          SendDataDisplay(); 
0AC1E:  CALL   4752
....................          printf("b15.txt=\"A4:%3.0f %03Lu\"",sensores(4),PresionPreCamara); 
0AC22:  MOVLW  04
0AC24:  MOVLB  7
0AC26:  MOVWF  x08
0AC28:  MOVLB  0
0AC2A:  CALL   4790
0AC2E:  MOVFF  00,702
0AC32:  MOVFF  01,703
0AC36:  MOVFF  02,704
0AC3A:  MOVFF  03,705
0AC3E:  MOVLW  28
0AC40:  MOVWF  FF6
0AC42:  MOVLW  0C
0AC44:  MOVWF  FF7
0AC46:  MOVLW  00
0AC48:  MOVWF  FF8
0AC4A:  MOVLW  0C
0AC4C:  MOVLB  7
0AC4E:  MOVWF  x08
0AC50:  MOVLB  0
0AC52:  CALL   628E
0AC56:  MOVLW  02
0AC58:  MOVWF  FE9
0AC5A:  MOVFF  705,70B
0AC5E:  MOVFF  704,70A
0AC62:  MOVFF  703,709
0AC66:  MOVFF  702,708
0AC6A:  MOVLB  7
0AC6C:  CLRF   x0C
0AC6E:  MOVLB  0
0AC70:  CALL   6B90
0AC74:  MOVLW  20
0AC76:  BTFSS  F9E.4
0AC78:  BRA    AC76
0AC7A:  MOVWF  FAD
0AC7C:  MOVLW  0A
0AC7E:  MOVWF  FE9
0AC80:  MOVFF  2C4,709
0AC84:  MOVFF  2C3,708
0AC88:  CALL   6A22
0AC8C:  MOVLW  22
0AC8E:  BTFSS  F9E.4
0AC90:  BRA    AC8E
0AC92:  MOVWF  FAD
....................          SendDataDisplay(); 
0AC94:  CALL   4752
....................          printf("b18.txt=\"A5:%3.0f %03Lu\"",sensores(5),PresionCamara); 
0AC98:  MOVLW  05
0AC9A:  MOVLB  7
0AC9C:  MOVWF  x08
0AC9E:  MOVLB  0
0ACA0:  CALL   4790
0ACA4:  MOVFF  00,702
0ACA8:  MOVFF  01,703
0ACAC:  MOVFF  02,704
0ACB0:  MOVFF  03,705
0ACB4:  MOVLW  42
0ACB6:  MOVWF  FF6
0ACB8:  MOVLW  0C
0ACBA:  MOVWF  FF7
0ACBC:  MOVLW  00
0ACBE:  MOVWF  FF8
0ACC0:  MOVLW  0C
0ACC2:  MOVLB  7
0ACC4:  MOVWF  x08
0ACC6:  MOVLB  0
0ACC8:  CALL   628E
0ACCC:  MOVLW  02
0ACCE:  MOVWF  FE9
0ACD0:  MOVFF  705,70B
0ACD4:  MOVFF  704,70A
0ACD8:  MOVFF  703,709
0ACDC:  MOVFF  702,708
0ACE0:  MOVLB  7
0ACE2:  CLRF   x0C
0ACE4:  MOVLB  0
0ACE6:  CALL   6B90
0ACEA:  MOVLW  20
0ACEC:  BTFSS  F9E.4
0ACEE:  BRA    ACEC
0ACF0:  MOVWF  FAD
0ACF2:  MOVLW  0A
0ACF4:  MOVWF  FE9
0ACF6:  MOVFF  2C2,709
0ACFA:  MOVFF  2C1,708
0ACFE:  CALL   6A22
0AD02:  MOVLW  22
0AD04:  BTFSS  F9E.4
0AD06:  BRA    AD04
0AD08:  MOVWF  FAD
....................          SendDataDisplay(); 
0AD0A:  CALL   4752
....................          printf("b19.txt=\"T2:%3.1f\"",Temperatura2); 
0AD0E:  MOVLW  5C
0AD10:  MOVWF  FF6
0AD12:  MOVLW  0C
0AD14:  MOVWF  FF7
0AD16:  MOVLW  00
0AD18:  MOVWF  FF8
0AD1A:  MOVLW  0C
0AD1C:  MOVLB  7
0AD1E:  MOVWF  x08
0AD20:  MOVLB  0
0AD22:  CALL   628E
0AD26:  MOVLW  02
0AD28:  MOVWF  FE9
0AD2A:  MOVFF  26F,70B
0AD2E:  MOVFF  26E,70A
0AD32:  MOVFF  26D,709
0AD36:  MOVFF  26C,708
0AD3A:  MOVLW  01
0AD3C:  MOVLB  7
0AD3E:  MOVWF  x0C
0AD40:  MOVLB  0
0AD42:  CALL   6B90
0AD46:  MOVLW  22
0AD48:  BTFSS  F9E.4
0AD4A:  BRA    AD48
0AD4C:  MOVWF  FAD
....................          SendDataDisplay(); 
0AD4E:  CALL   4752
....................          printf("b20.txt=\"T1:%3.1f\"",Temperatura); 
0AD52:  MOVLW  70
0AD54:  MOVWF  FF6
0AD56:  MOVLW  0C
0AD58:  MOVWF  FF7
0AD5A:  MOVLW  00
0AD5C:  MOVWF  FF8
0AD5E:  MOVLW  0C
0AD60:  MOVLB  7
0AD62:  MOVWF  x08
0AD64:  MOVLB  0
0AD66:  CALL   628E
0AD6A:  MOVLW  02
0AD6C:  MOVWF  FE9
0AD6E:  MOVFF  26B,70B
0AD72:  MOVFF  26A,70A
0AD76:  MOVFF  269,709
0AD7A:  MOVFF  268,708
0AD7E:  MOVLW  01
0AD80:  MOVLB  7
0AD82:  MOVWF  x0C
0AD84:  MOVLB  0
0AD86:  CALL   6B90
0AD8A:  MOVLW  22
0AD8C:  BTFSS  F9E.4
0AD8E:  BRA    AD8C
0AD90:  MOVWF  FAD
....................          SendDataDisplay(); 
0AD92:  CALL   4752
....................           
....................          if(RX_Buffer[4]==0x21)//Oprimio salir 
0AD96:  MOVF   36,W
0AD98:  SUBLW  21
0AD9A:  BNZ   ADBE
....................          { 
....................             printf("page Menu"); 
0AD9C:  MOVLW  84
0AD9E:  MOVWF  FF6
0ADA0:  MOVLW  0C
0ADA2:  MOVWF  FF7
0ADA4:  MOVLW  00
0ADA6:  MOVWF  FF8
0ADA8:  CALL   4720
....................             SendDataDisplay(); 
0ADAC:  CALL   4752
....................             PantallaPrincipal=0; 
0ADB0:  MOVLB  2
0ADB2:  CLRF   x23
....................             PruebaEstados=OFF; 
0ADB4:  MOVLB  1
0ADB6:  BCF    x2C.1
....................             ApagaSalidas(); 
0ADB8:  MOVLB  0
0ADBA:  CALL   4788
....................             // Falta apagar Todo 
....................          } 
....................      }else if(Menu==7){ //Menu de Configuracin de Fecha y Hora 
0ADBE:  GOTO   ECDA
0ADC2:  MOVLB  2
0ADC4:  MOVF   xA0,W
0ADC6:  SUBLW  07
0ADC8:  BTFSS  FD8.2
0ADCA:  BRA    B1AC
....................        
....................          if(RX_Buffer[4]==0x0a)//Selecciono Hora 
0ADCC:  MOVF   36,W
0ADCE:  SUBLW  0A
0ADD0:  BNZ   ADD6
....................             Opcion=4; 
0ADD2:  MOVLW  04
0ADD4:  MOVWF  xB0
....................           
....................          if(RX_Buffer[4]==0x0b)//Selecciono Minuto 
0ADD6:  MOVF   36,W
0ADD8:  SUBLW  0B
0ADDA:  BNZ   ADE0
....................             Opcion=5; 
0ADDC:  MOVLW  05
0ADDE:  MOVWF  xB0
....................           
....................          if(RX_Buffer[4]==0x0c)//Selecciono Dia 
0ADE0:  MOVF   36,W
0ADE2:  SUBLW  0C
0ADE4:  BNZ   ADEA
....................             Opcion=1; 
0ADE6:  MOVLW  01
0ADE8:  MOVWF  xB0
....................           
....................          if(RX_Buffer[4]==0x0d)//Selecciono Hora 
0ADEA:  MOVF   36,W
0ADEC:  SUBLW  0D
0ADEE:  BNZ   ADF4
....................             Opcion=2; 
0ADF0:  MOVLW  02
0ADF2:  MOVWF  xB0
....................           
....................          if(RX_Buffer[4]==0x0e)//Selecciono Year 
0ADF4:  MOVF   36,W
0ADF6:  SUBLW  0E
0ADF8:  BNZ   ADFE
....................             Opcion=3; 
0ADFA:  MOVLW  03
0ADFC:  MOVWF  xB0
....................           
....................          if(Opcion>5) 
0ADFE:  MOVF   xB0,W
0AE00:  SUBLW  05
0AE02:  BC    AE08
....................             Opcion=1; 
0AE04:  MOVLW  01
0AE06:  MOVWF  xB0
....................          if(Opcion<1) 
0AE08:  MOVF   xB0,F
0AE0A:  BNZ   AE10
....................             Opcion=5; 
0AE0C:  MOVLW  05
0AE0E:  MOVWF  xB0
....................              
....................          if(RX_Buffer[4]==0x11){//Selecciono Regresar 
0AE10:  MOVF   36,W
0AE12:  SUBLW  11
0AE14:  BTFSS  FD8.2
0AE16:  BRA    AF4C
....................             printf("page Menu"); 
0AE18:  MOVLW  8E
0AE1A:  MOVWF  FF6
0AE1C:  MOVLW  0C
0AE1E:  MOVWF  FF7
0AE20:  MOVLW  00
0AE22:  MOVWF  FF8
0AE24:  MOVLB  0
0AE26:  CALL   4720
....................             SendDataDisplay();   
0AE2A:  CALL   4752
....................             PantallaPrincipal=0; 
0AE2E:  MOVLB  2
0AE30:  CLRF   x23
....................             Op=OFF; 
0AE32:  MOVLB  1
0AE34:  BCF    x2C.5
....................             Op2=OFF; 
0AE36:  BCF    x2C.6
....................              
....................             if(esBisiesto(YearTx)) 
0AE38:  MOVFF  2F9,702
0AE3C:  MOVLB  0
0AE3E:  CALL   6D34
0AE42:  MOVF   01,F
0AE44:  BZ    AE5E
....................                Modulo=Bisiesto[MesTx]; 
0AE46:  CLRF   03
0AE48:  MOVLB  2
0AE4A:  MOVF   xFA,W
0AE4C:  ADDLW  13
0AE4E:  MOVWF  FE9
0AE50:  MOVLW  01
0AE52:  ADDWFC 03,W
0AE54:  MOVWF  FEA
0AE56:  MOVFF  FEF,225
....................             else 
0AE5A:  BRA    AE72
0AE5C:  MOVLB  0
....................                Modulo=Regular[MesTx]; 
0AE5E:  CLRF   03
0AE60:  MOVLB  2
0AE62:  MOVF   xFA,W
0AE64:  ADDLW  07
0AE66:  MOVWF  FE9
0AE68:  MOVLW  01
0AE6A:  ADDWFC 03,W
0AE6C:  MOVWF  FEA
0AE6E:  MOVFF  FEF,225
....................           
....................             dowTx=((YearTx-1)%7+((YearTx-1)/4-3*((YearTx-1)/100+1)/4)%7+Modulo+DiaTx%7)%7; 
0AE72:  MOVLW  01
0AE74:  SUBWF  xF9,W
0AE76:  MOVLB  7
0AE78:  MOVWF  x03
0AE7A:  MOVWF  x0B
0AE7C:  MOVLW  07
0AE7E:  MOVWF  x0C
0AE80:  MOVLB  0
0AE82:  CALL   62E6
0AE86:  MOVFF  00,702
0AE8A:  MOVLW  01
0AE8C:  MOVLB  2
0AE8E:  SUBWF  xF9,W
0AE90:  MOVWF  00
0AE92:  RRCF   00,W
0AE94:  MOVLB  7
0AE96:  MOVWF  x03
0AE98:  RRCF   x03,F
0AE9A:  MOVLW  3F
0AE9C:  ANDWF  x03,F
0AE9E:  MOVLW  01
0AEA0:  MOVLB  2
0AEA2:  SUBWF  xF9,W
0AEA4:  MOVLB  7
0AEA6:  MOVWF  x05
0AEA8:  MOVWF  x0B
0AEAA:  MOVLW  64
0AEAC:  MOVWF  x0C
0AEAE:  MOVLB  0
0AEB0:  CALL   62E6
0AEB4:  MOVLW  01
0AEB6:  ADDWF  01,W
0AEB8:  MULLW  03
0AEBA:  MOVFF  FF3,00
0AEBE:  RRCF   00,F
0AEC0:  RRCF   00,F
0AEC2:  MOVLW  3F
0AEC4:  ANDWF  00,F
0AEC6:  MOVF   00,W
0AEC8:  MOVLB  7
0AECA:  SUBWF  x03,W
0AECC:  MOVWF  x04
0AECE:  MOVWF  x0B
0AED0:  MOVLW  07
0AED2:  MOVWF  x0C
0AED4:  MOVLB  0
0AED6:  CALL   62E6
0AEDA:  MOVF   00,W
0AEDC:  MOVLB  7
0AEDE:  ADDWF  x02,W
0AEE0:  MOVLB  2
0AEE2:  ADDWF  x25,W
0AEE4:  MOVLB  7
0AEE6:  MOVWF  x02
0AEE8:  MOVFF  2FB,70B
0AEEC:  MOVLW  07
0AEEE:  MOVWF  x0C
0AEF0:  MOVLB  0
0AEF2:  CALL   62E6
0AEF6:  MOVF   00,W
0AEF8:  MOVLB  7
0AEFA:  ADDWF  x02,W
0AEFC:  MOVWF  x03
0AEFE:  MOVWF  x0B
0AF00:  MOVLW  07
0AF02:  MOVWF  x0C
0AF04:  MOVLB  0
0AF06:  CALL   62E6
0AF0A:  MOVFF  00,2FE
....................             SetTime=5; 
0AF0E:  MOVLW  05
0AF10:  MOVLB  2
0AF12:  MOVWF  xFF
....................             Envio_Esclavos(); 
0AF14:  MOVLB  0
0AF16:  CALL   5DAC
....................             delay_ms(100);    
0AF1A:  MOVLW  64
0AF1C:  MOVLB  7
0AF1E:  MOVWF  x18
0AF20:  MOVLB  0
0AF22:  CALL   21D6
....................             SetTime=10; 
0AF26:  MOVLW  0A
0AF28:  MOVLB  2
0AF2A:  MOVWF  xFF
....................             rtc_set_datetime(DiaTx,MesTx,YearTx,dowTx,HoraTx,MinutoTx); 
0AF2C:  MOVFF  2FB,702
0AF30:  MOVFF  2FA,703
0AF34:  MOVFF  2F9,704
0AF38:  MOVFF  2FE,705
0AF3C:  MOVFF  2FC,706
0AF40:  MOVFF  2FD,707
0AF44:  MOVLB  0
0AF46:  GOTO   6DBC
0AF4A:  MOVLB  2
....................          } 
....................           
....................          if(RX_Buffer[4]==0x2a){//Tecla Arriba Oprimida 
0AF4C:  MOVF   36,W
0AF4E:  SUBLW  2A
0AF50:  BTFSS  FD8.2
0AF52:  BRA    B038
....................                if(Opcion==1){ 
0AF54:  DECFSZ xB0,W
0AF56:  BRA    AFE4
....................                   if(MesTx==2){ 
0AF58:  MOVF   xFA,W
0AF5A:  SUBLW  02
0AF5C:  BNZ   AF92
....................                      if(esBisiesto(YearTx)){ 
0AF5E:  MOVFF  2F9,702
0AF62:  MOVLB  0
0AF64:  CALL   6D34
0AF68:  MOVF   01,F
0AF6A:  BZ    AF80
....................                         if(DiaTx<29) 
0AF6C:  MOVLB  2
0AF6E:  MOVF   xFB,W
0AF70:  SUBLW  1C
0AF72:  BNC   AF78
....................                            DiaTx++; 
0AF74:  INCF   xFB,F
....................                         else 
0AF76:  BRA    AF7C
....................                            DiaTx=1;    
0AF78:  MOVLW  01
0AF7A:  MOVWF  xFB
....................                      }else{ 
0AF7C:  BRA    AF90
0AF7E:  MOVLB  0
....................                         if(DiaTx<28) 
0AF80:  MOVLB  2
0AF82:  MOVF   xFB,W
0AF84:  SUBLW  1B
0AF86:  BNC   AF8C
....................                            DiaTx++; 
0AF88:  INCF   xFB,F
....................                         else 
0AF8A:  BRA    AF90
....................                            DiaTx=1;    
0AF8C:  MOVLW  01
0AF8E:  MOVWF  xFB
....................                      } 
....................                   }else{ 
0AF90:  BRA    AFE2
....................                      if(MesTx<=7){ 
0AF92:  MOVF   xFA,W
0AF94:  SUBLW  07
0AF96:  BNC   AFBE
....................                         if(MesTx % 2 ==0){ 
0AF98:  MOVF   xFA,W
0AF9A:  ANDLW  01
0AF9C:  BNZ   AFAE
....................                            if(DiaTx<30) 
0AF9E:  MOVF   xFB,W
0AFA0:  SUBLW  1D
0AFA2:  BNC   AFA8
....................                               DiaTx++;     
0AFA4:  INCF   xFB,F
....................                            else 
0AFA6:  BRA    AFAC
....................                               DiaTx=1;    
0AFA8:  MOVLW  01
0AFAA:  MOVWF  xFB
....................                         }else{ 
0AFAC:  BRA    AFBC
....................                            if(DiaTx<31) 
0AFAE:  MOVF   xFB,W
0AFB0:  SUBLW  1E
0AFB2:  BNC   AFB8
....................                               DiaTx++;     
0AFB4:  INCF   xFB,F
....................                            else 
0AFB6:  BRA    AFBC
....................                               DiaTx=1;    
0AFB8:  MOVLW  01
0AFBA:  MOVWF  xFB
....................                         }     
....................                      }else{ 
0AFBC:  BRA    AFE2
....................                         if(MesTx % 2 ==0){ 
0AFBE:  MOVF   xFA,W
0AFC0:  ANDLW  01
0AFC2:  BNZ   AFD4
....................                            if(DiaTx<31) 
0AFC4:  MOVF   xFB,W
0AFC6:  SUBLW  1E
0AFC8:  BNC   AFCE
....................                               DiaTx++;   
0AFCA:  INCF   xFB,F
....................                            else 
0AFCC:  BRA    AFD2
....................                               DiaTx=1; 
0AFCE:  MOVLW  01
0AFD0:  MOVWF  xFB
....................                         }else{ 
0AFD2:  BRA    AFE2
....................                            if(DiaTx<30) 
0AFD4:  MOVF   xFB,W
0AFD6:  SUBLW  1D
0AFD8:  BNC   AFDE
....................                               DiaTx++;     
0AFDA:  INCF   xFB,F
....................                            else 
0AFDC:  BRA    AFE2
....................                               DiaTx=1; 
0AFDE:  MOVLW  01
0AFE0:  MOVWF  xFB
....................                         }     
....................                      } 
....................                   } 
....................                }else if(Opcion==2){ 
0AFE2:  BRA    B034
0AFE4:  MOVF   xB0,W
0AFE6:  SUBLW  02
0AFE8:  BNZ   AFFA
....................                   if(MesTx<12) 
0AFEA:  MOVF   xFA,W
0AFEC:  SUBLW  0B
0AFEE:  BNC   AFF4
....................                      MesTx++; 
0AFF0:  INCF   xFA,F
....................                   else 
0AFF2:  BRA    AFF8
....................                      MesTx=1; 
0AFF4:  MOVLW  01
0AFF6:  MOVWF  xFA
....................                }else if(Opcion==3){ 
0AFF8:  BRA    B034
0AFFA:  MOVF   xB0,W
0AFFC:  SUBLW  03
0AFFE:  BNZ   B00E
....................                   if(YearTx<99) 
0B000:  MOVF   xF9,W
0B002:  SUBLW  62
0B004:  BNC   B00A
....................                      YearTx++; 
0B006:  INCF   xF9,F
....................                   else  
0B008:  BRA    B00C
....................                      YearTx=0; 
0B00A:  CLRF   xF9
....................                }else if(Opcion==4){ 
0B00C:  BRA    B034
0B00E:  MOVF   xB0,W
0B010:  SUBLW  04
0B012:  BNZ   B022
....................                   if(HoraTx<24) 
0B014:  MOVF   xFC,W
0B016:  SUBLW  17
0B018:  BNC   B01E
....................                      HoraTx++; 
0B01A:  INCF   xFC,F
....................                   else 
0B01C:  BRA    B020
....................                      HoraTx=0; 
0B01E:  CLRF   xFC
....................                }else if(Opcion==5){ 
0B020:  BRA    B034
0B022:  MOVF   xB0,W
0B024:  SUBLW  05
0B026:  BNZ   B034
....................                   if(MinutoTx<59) 
0B028:  MOVF   xFD,W
0B02A:  SUBLW  3A
0B02C:  BNC   B032
....................                      MinutoTx++; 
0B02E:  INCF   xFD,F
....................                   else 
0B030:  BRA    B034
....................                      MinutoTx=0; 
0B032:  CLRF   xFD
....................                } 
....................                RX_Buffer[4]=0x00; 
0B034:  CLRF   36
....................                RX_Buffer2[4]=0x00; 
0B036:  CLRF   41
....................          } 
....................           
....................          if(RX_Buffer[4]==0x2b){//Tecla Abajo Oprimida  
0B038:  MOVF   36,W
0B03A:  SUBLW  2B
0B03C:  BNZ   B09E
....................                if(Opcion==1){ 
0B03E:  DECFSZ xB0,W
0B040:  BRA    B04A
....................                   if(DiaTx>0) 
0B042:  MOVF   xFB,F
0B044:  BZ    B048
....................                      DiaTx--; 
0B046:  DECF   xFB,F
....................                }else if(Opcion==2){ 
0B048:  BRA    B09A
0B04A:  MOVF   xB0,W
0B04C:  SUBLW  02
0B04E:  BNZ   B060
....................                   if(MesTx>1) 
0B050:  MOVF   xFA,W
0B052:  SUBLW  01
0B054:  BC    B05A
....................                      MesTx--; 
0B056:  DECF   xFA,F
....................                   else 
0B058:  BRA    B05E
....................                      MesTx=12; 
0B05A:  MOVLW  0C
0B05C:  MOVWF  xFA
....................                }else if(Opcion==3){ 
0B05E:  BRA    B09A
0B060:  MOVF   xB0,W
0B062:  SUBLW  03
0B064:  BNZ   B074
....................                   if(YearTx>0) 
0B066:  MOVF   xF9,F
0B068:  BZ    B06E
....................                      YearTx--; 
0B06A:  DECF   xF9,F
....................                   else 
0B06C:  BRA    B072
....................                      YearTx=99; 
0B06E:  MOVLW  63
0B070:  MOVWF  xF9
....................                }else if(Opcion==4){ 
0B072:  BRA    B09A
0B074:  MOVF   xB0,W
0B076:  SUBLW  04
0B078:  BNZ   B088
....................                   if(HoraTx>0) 
0B07A:  MOVF   xFC,F
0B07C:  BZ    B082
....................                      HoraTx--; 
0B07E:  DECF   xFC,F
....................                   else 
0B080:  BRA    B086
....................                      HoraTx=23; 
0B082:  MOVLW  17
0B084:  MOVWF  xFC
....................                }else if(Opcion==5){ 
0B086:  BRA    B09A
0B088:  MOVF   xB0,W
0B08A:  SUBLW  05
0B08C:  BNZ   B09A
....................                   if(MinutoTx>0) 
0B08E:  MOVF   xFD,F
0B090:  BZ    B096
....................                      MinutoTx--; 
0B092:  DECF   xFD,F
....................                   else 
0B094:  BRA    B09A
....................                      MinutoTx=59; 
0B096:  MOVLW  3B
0B098:  MOVWF  xFD
....................                } 
....................                RX_Buffer[4]=0x00; 
0B09A:  CLRF   36
....................                RX_Buffer2[4]=0x00; 
0B09C:  CLRF   41
....................                //BorraBuffer(); 
....................          } 
....................        
....................       printf("thora.txt=\"%02u\"",HoraTx); 
0B09E:  MOVLW  98
0B0A0:  MOVWF  FF6
0B0A2:  MOVLW  0C
0B0A4:  MOVWF  FF7
0B0A6:  MOVLW  00
0B0A8:  MOVWF  FF8
0B0AA:  MOVLW  0B
0B0AC:  MOVLB  7
0B0AE:  MOVWF  x08
0B0B0:  MOVLB  0
0B0B2:  CALL   628E
0B0B6:  MOVFF  2FC,708
0B0BA:  MOVLW  01
0B0BC:  MOVLB  7
0B0BE:  MOVWF  x09
0B0C0:  MOVLB  0
0B0C2:  CALL   6312
0B0C6:  MOVLW  22
0B0C8:  BTFSS  F9E.4
0B0CA:  BRA    B0C8
0B0CC:  MOVWF  FAD
....................       SendDataDisplay(); 
0B0CE:  CALL   4752
....................       printf("tminutos.txt=\"%02u\"",MinutoTx); 
0B0D2:  MOVLW  AA
0B0D4:  MOVWF  FF6
0B0D6:  MOVLW  0C
0B0D8:  MOVWF  FF7
0B0DA:  MOVLW  00
0B0DC:  MOVWF  FF8
0B0DE:  MOVLW  0E
0B0E0:  MOVLB  7
0B0E2:  MOVWF  x08
0B0E4:  MOVLB  0
0B0E6:  CALL   628E
0B0EA:  MOVFF  2FD,708
0B0EE:  MOVLW  01
0B0F0:  MOVLB  7
0B0F2:  MOVWF  x09
0B0F4:  MOVLB  0
0B0F6:  CALL   6312
0B0FA:  MOVLW  22
0B0FC:  BTFSS  F9E.4
0B0FE:  BRA    B0FC
0B100:  MOVWF  FAD
....................       SendDataDisplay(); 
0B102:  CALL   4752
....................       printf("tdia.txt=\"%02u\"",DiaTx); 
0B106:  MOVLW  BE
0B108:  MOVWF  FF6
0B10A:  MOVLW  0C
0B10C:  MOVWF  FF7
0B10E:  MOVLW  00
0B110:  MOVWF  FF8
0B112:  MOVLW  0A
0B114:  MOVLB  7
0B116:  MOVWF  x08
0B118:  MOVLB  0
0B11A:  CALL   628E
0B11E:  MOVFF  2FB,708
0B122:  MOVLW  01
0B124:  MOVLB  7
0B126:  MOVWF  x09
0B128:  MOVLB  0
0B12A:  CALL   6312
0B12E:  MOVLW  22
0B130:  BTFSS  F9E.4
0B132:  BRA    B130
0B134:  MOVWF  FAD
....................       SendDataDisplay(); 
0B136:  CALL   4752
....................       printf("tmes.txt=\"%02u\"",MesTx); 
0B13A:  MOVLW  CE
0B13C:  MOVWF  FF6
0B13E:  MOVLW  0C
0B140:  MOVWF  FF7
0B142:  MOVLW  00
0B144:  MOVWF  FF8
0B146:  MOVLW  0A
0B148:  MOVLB  7
0B14A:  MOVWF  x08
0B14C:  MOVLB  0
0B14E:  CALL   628E
0B152:  MOVFF  2FA,708
0B156:  MOVLW  01
0B158:  MOVLB  7
0B15A:  MOVWF  x09
0B15C:  MOVLB  0
0B15E:  CALL   6312
0B162:  MOVLW  22
0B164:  BTFSS  F9E.4
0B166:  BRA    B164
0B168:  MOVWF  FAD
....................       SendDataDisplay(); 
0B16A:  CALL   4752
....................       printf("tyear.txt=\"%02u\"",YearTx); 
0B16E:  MOVLW  DE
0B170:  MOVWF  FF6
0B172:  MOVLW  0C
0B174:  MOVWF  FF7
0B176:  MOVLW  00
0B178:  MOVWF  FF8
0B17A:  MOVLW  0B
0B17C:  MOVLB  7
0B17E:  MOVWF  x08
0B180:  MOVLB  0
0B182:  CALL   628E
0B186:  MOVFF  2F9,708
0B18A:  MOVLW  01
0B18C:  MOVLB  7
0B18E:  MOVWF  x09
0B190:  MOVLB  0
0B192:  CALL   6312
0B196:  MOVLW  22
0B198:  BTFSS  F9E.4
0B19A:  BRA    B198
0B19C:  MOVWF  FAD
....................       SendDataDisplay(); 
0B19E:  CALL   4752
....................       LimitaDia();   
0B1A2:  GOTO   6E78
....................     }else if(Menu==8){ //Menu Ciclos Personalizados 
0B1A6:  GOTO   ECDA
0B1AA:  MOVLB  2
0B1AC:  MOVF   xA0,W
0B1AE:  SUBLW  08
0B1B0:  BTFSS  FD8.2
0B1B2:  GOTO   BDB4
....................       tCicloP=0; 
0B1B6:  MOVLB  1
0B1B8:  CLRF   x43
0B1BA:  CLRF   x42
....................       oprimioCicloP=OFF; 
0B1BC:  BCF    x2A.3
....................       printf("fecha.txt=\"Fecha:%02u/%02u/20%02u Hora: %02u:%02u:%02u\"",Dia,Mes,Year,Hora,Minuto,Segundo); 
0B1BE:  MOVLW  F0
0B1C0:  MOVWF  FF6
0B1C2:  MOVLW  0C
0B1C4:  MOVWF  FF7
0B1C6:  MOVLW  00
0B1C8:  MOVWF  FF8
0B1CA:  MOVLW  11
0B1CC:  MOVLB  7
0B1CE:  MOVWF  x08
0B1D0:  MOVLB  0
0B1D2:  CALL   628E
0B1D6:  MOVFF  2F0,708
0B1DA:  MOVLW  01
0B1DC:  MOVLB  7
0B1DE:  MOVWF  x09
0B1E0:  MOVLB  0
0B1E2:  CALL   6312
0B1E6:  MOVLW  2F
0B1E8:  BTFSS  F9E.4
0B1EA:  BRA    B1E8
0B1EC:  MOVWF  FAD
0B1EE:  MOVFF  2EF,708
0B1F2:  MOVLW  01
0B1F4:  MOVLB  7
0B1F6:  MOVWF  x09
0B1F8:  MOVLB  0
0B1FA:  CALL   6312
0B1FE:  MOVLW  2F
0B200:  BTFSS  F9E.4
0B202:  BRA    B200
0B204:  MOVWF  FAD
0B206:  MOVLW  32
0B208:  BTFSS  F9E.4
0B20A:  BRA    B208
0B20C:  MOVWF  FAD
0B20E:  MOVLW  30
0B210:  BTFSS  F9E.4
0B212:  BRA    B210
0B214:  MOVWF  FAD
0B216:  MOVFF  2EE,708
0B21A:  MOVLW  01
0B21C:  MOVLB  7
0B21E:  MOVWF  x09
0B220:  MOVLB  0
0B222:  CALL   6312
0B226:  MOVLW  11
0B228:  MOVWF  FF6
0B22A:  MOVLW  0D
0B22C:  MOVWF  FF7
0B22E:  MOVLW  00
0B230:  MOVWF  FF8
0B232:  MOVLW  07
0B234:  MOVLB  7
0B236:  MOVWF  x08
0B238:  MOVLB  0
0B23A:  CALL   628E
0B23E:  MOVFF  2F1,708
0B242:  MOVLW  01
0B244:  MOVLB  7
0B246:  MOVWF  x09
0B248:  MOVLB  0
0B24A:  CALL   6312
0B24E:  MOVLW  3A
0B250:  BTFSS  F9E.4
0B252:  BRA    B250
0B254:  MOVWF  FAD
0B256:  MOVFF  2F2,708
0B25A:  MOVLW  01
0B25C:  MOVLB  7
0B25E:  MOVWF  x09
0B260:  MOVLB  0
0B262:  CALL   6312
0B266:  MOVLW  3A
0B268:  BTFSS  F9E.4
0B26A:  BRA    B268
0B26C:  MOVWF  FAD
0B26E:  MOVFF  2F3,708
0B272:  MOVLW  01
0B274:  MOVLB  7
0B276:  MOVWF  x09
0B278:  MOVLB  0
0B27A:  CALL   6312
0B27E:  MOVLW  22
0B280:  BTFSS  F9E.4
0B282:  BRA    B280
0B284:  MOVWF  FAD
....................       SendDataDisplay(); 
0B286:  CALL   4752
....................       GuardaEEPROM=OFF; 
0B28A:  MOVLB  1
0B28C:  BCF    x2D.1
....................       printf("tuser.txt=\"%s\"",usuario); 
0B28E:  MOVLW  28
0B290:  MOVWF  FF6
0B292:  MOVLW  0D
0B294:  MOVWF  FF7
0B296:  MOVLW  00
0B298:  MOVWF  FF8
0B29A:  MOVLW  0B
0B29C:  MOVLB  7
0B29E:  MOVWF  x08
0B2A0:  MOVLB  0
0B2A2:  CALL   628E
0B2A6:  MOVLW  03
0B2A8:  MOVWF  FEA
0B2AA:  MOVLW  08
0B2AC:  MOVWF  FE9
0B2AE:  CALL   62C0
0B2B2:  MOVLW  22
0B2B4:  BTFSS  F9E.4
0B2B6:  BRA    B2B4
0B2B8:  MOVWF  FAD
....................       SendDataDisplay(); 
0B2BA:  CALL   4752
....................        
....................       if(RX_Buffer[4]>0x00 && RX_Buffer[4]<0x15 && estados[RX_Buffer[4]-1]){//Personalizados 
0B2BE:  MOVF   36,F
0B2C0:  BTFSC  FD8.2
0B2C2:  BRA    B58A
0B2C4:  MOVF   36,W
0B2C6:  SUBLW  14
0B2C8:  BTFSS  FD8.0
0B2CA:  BRA    B58A
0B2CC:  MOVLW  01
0B2CE:  SUBWF  36,W
0B2D0:  MOVLB  7
0B2D2:  MOVWF  x04
0B2D4:  MOVLW  03
0B2D6:  MOVWF  x06
0B2D8:  MOVLW  6E
0B2DA:  MOVWF  x05
0B2DC:  MOVLB  0
0B2DE:  CALL   239E
0B2E2:  BTFSS  01.0
0B2E4:  BRA    B58A
....................          printf("ciclo.txt=\"CICLO P%02u\"",RX_Buffer[4]+0x0a); 
0B2E6:  MOVLW  0A
0B2E8:  ADDWF  36,W
0B2EA:  MOVLB  7
0B2EC:  MOVWF  x02
0B2EE:  MOVLW  38
0B2F0:  MOVWF  FF6
0B2F2:  MOVLW  0D
0B2F4:  MOVWF  FF7
0B2F6:  MOVLW  00
0B2F8:  MOVWF  FF8
0B2FA:  MOVLW  12
0B2FC:  MOVWF  x08
0B2FE:  MOVLB  0
0B300:  CALL   628E
0B304:  MOVFF  702,708
0B308:  MOVLW  01
0B30A:  MOVLB  7
0B30C:  MOVWF  x09
0B30E:  MOVLB  0
0B310:  CALL   6312
0B314:  MOVLW  22
0B316:  BTFSS  F9E.4
0B318:  BRA    B316
0B31A:  MOVWF  FAD
....................          SendDataDisplay();           
0B31C:  CALL   4752
....................          printf("temp.txt=\"%u\"",CiclosPersonalizados[RX_Buffer[4]-1].Temperatura); 
0B320:  MOVLW  01
0B322:  SUBWF  36,W
0B324:  MULLW  08
0B326:  MOVF   FF3,W
0B328:  MOVLB  7
0B32A:  CLRF   x03
0B32C:  MOVWF  x02
0B32E:  MOVLW  3A
0B330:  ADDWF  x02,W
0B332:  MOVWF  FE9
0B334:  MOVLW  06
0B336:  ADDWFC x03,W
0B338:  MOVWF  FEA
0B33A:  MOVFF  FEF,702
0B33E:  MOVLW  50
0B340:  MOVWF  FF6
0B342:  MOVLW  0D
0B344:  MOVWF  FF7
0B346:  MOVLW  00
0B348:  MOVWF  FF8
0B34A:  MOVLW  0A
0B34C:  MOVWF  x08
0B34E:  MOVLB  0
0B350:  CALL   628E
0B354:  MOVFF  702,708
0B358:  MOVLW  1B
0B35A:  MOVLB  7
0B35C:  MOVWF  x09
0B35E:  MOVLB  0
0B360:  CALL   6312
0B364:  MOVLW  22
0B366:  BTFSS  F9E.4
0B368:  BRA    B366
0B36A:  MOVWF  FAD
....................          SendDataDisplay(); 
0B36C:  CALL   4752
....................          printf("test.txt=\"%02u:%02u\"",CiclosPersonalizados[RX_Buffer[4]-1].Minutoest,CiclosPersonalizados[RX_Buffer[4]-1].Segundoest); 
0B370:  MOVLW  01
0B372:  SUBWF  36,W
0B374:  MULLW  08
0B376:  MOVF   FF3,W
0B378:  MOVLB  7
0B37A:  CLRF   x03
0B37C:  MOVWF  x02
0B37E:  MOVLW  01
0B380:  ADDWF  x02,W
0B382:  MOVWF  01
0B384:  MOVLW  00
0B386:  ADDWFC x03,W
0B388:  MOVWF  03
0B38A:  MOVF   01,W
0B38C:  ADDLW  3A
0B38E:  MOVWF  FE9
0B390:  MOVLW  06
0B392:  ADDWFC 03,W
0B394:  MOVWF  FEA
0B396:  MOVFF  FEF,702
0B39A:  MOVLW  01
0B39C:  SUBWF  36,W
0B39E:  MULLW  08
0B3A0:  MOVF   FF3,W
0B3A2:  CLRF   x04
0B3A4:  MOVWF  x03
0B3A6:  MOVLW  02
0B3A8:  ADDWF  x03,W
0B3AA:  MOVWF  01
0B3AC:  MOVLW  00
0B3AE:  ADDWFC x04,W
0B3B0:  MOVWF  03
0B3B2:  MOVF   01,W
0B3B4:  ADDLW  3A
0B3B6:  MOVWF  FE9
0B3B8:  MOVLW  06
0B3BA:  ADDWFC 03,W
0B3BC:  MOVWF  FEA
0B3BE:  MOVFF  FEF,703
0B3C2:  MOVLW  5E
0B3C4:  MOVWF  FF6
0B3C6:  MOVLW  0D
0B3C8:  MOVWF  FF7
0B3CA:  MOVLW  00
0B3CC:  MOVWF  FF8
0B3CE:  MOVLW  0A
0B3D0:  MOVWF  x08
0B3D2:  MOVLB  0
0B3D4:  CALL   628E
0B3D8:  MOVFF  702,708
0B3DC:  MOVLW  01
0B3DE:  MOVLB  7
0B3E0:  MOVWF  x09
0B3E2:  MOVLB  0
0B3E4:  CALL   6312
0B3E8:  MOVLW  3A
0B3EA:  BTFSS  F9E.4
0B3EC:  BRA    B3EA
0B3EE:  MOVWF  FAD
0B3F0:  MOVFF  703,708
0B3F4:  MOVLW  01
0B3F6:  MOVLB  7
0B3F8:  MOVWF  x09
0B3FA:  MOVLB  0
0B3FC:  CALL   6312
0B400:  MOVLW  22
0B402:  BTFSS  F9E.4
0B404:  BRA    B402
0B406:  MOVWF  FAD
....................          SendDataDisplay(); 
0B408:  CALL   4752
....................          printf("tsec.txt=\"%02u:%02u\"",CiclosPersonalizados[RX_Buffer[4]-1].Minutosec,CiclosPersonalizados[RX_Buffer[4]-1].Segundosec); 
0B40C:  MOVLW  01
0B40E:  SUBWF  36,W
0B410:  MULLW  08
0B412:  MOVF   FF3,W
0B414:  MOVLB  7
0B416:  CLRF   x03
0B418:  MOVWF  x02
0B41A:  MOVLW  03
0B41C:  ADDWF  x02,W
0B41E:  MOVWF  01
0B420:  MOVLW  00
0B422:  ADDWFC x03,W
0B424:  MOVWF  03
0B426:  MOVF   01,W
0B428:  ADDLW  3A
0B42A:  MOVWF  FE9
0B42C:  MOVLW  06
0B42E:  ADDWFC 03,W
0B430:  MOVWF  FEA
0B432:  MOVFF  FEF,702
0B436:  MOVLW  01
0B438:  SUBWF  36,W
0B43A:  MULLW  08
0B43C:  MOVF   FF3,W
0B43E:  CLRF   x04
0B440:  MOVWF  x03
0B442:  MOVLW  04
0B444:  ADDWF  x03,W
0B446:  MOVWF  01
0B448:  MOVLW  00
0B44A:  ADDWFC x04,W
0B44C:  MOVWF  03
0B44E:  MOVF   01,W
0B450:  ADDLW  3A
0B452:  MOVWF  FE9
0B454:  MOVLW  06
0B456:  ADDWFC 03,W
0B458:  MOVWF  FEA
0B45A:  MOVFF  FEF,703
0B45E:  MOVLW  74
0B460:  MOVWF  FF6
0B462:  MOVLW  0D
0B464:  MOVWF  FF7
0B466:  MOVLW  00
0B468:  MOVWF  FF8
0B46A:  MOVLW  0A
0B46C:  MOVWF  x08
0B46E:  MOVLB  0
0B470:  CALL   628E
0B474:  MOVFF  702,708
0B478:  MOVLW  01
0B47A:  MOVLB  7
0B47C:  MOVWF  x09
0B47E:  MOVLB  0
0B480:  CALL   6312
0B484:  MOVLW  3A
0B486:  BTFSS  F9E.4
0B488:  BRA    B486
0B48A:  MOVWF  FAD
0B48C:  MOVFF  703,708
0B490:  MOVLW  01
0B492:  MOVLB  7
0B494:  MOVWF  x09
0B496:  MOVLB  0
0B498:  CALL   6312
0B49C:  MOVLW  22
0B49E:  BTFSS  F9E.4
0B4A0:  BRA    B49E
0B4A2:  MOVWF  FAD
....................          SendDataDisplay(); 
0B4A4:  CALL   4752
....................          printf("pulsos.txt=\"%02u\"",CiclosPersonalizados[RX_Buffer[4]-1].PulsosVacio); 
0B4A8:  MOVLW  01
0B4AA:  SUBWF  36,W
0B4AC:  MULLW  08
0B4AE:  MOVF   FF3,W
0B4B0:  MOVLB  7
0B4B2:  CLRF   x03
0B4B4:  MOVWF  x02
0B4B6:  MOVLW  05
0B4B8:  ADDWF  x02,W
0B4BA:  MOVWF  01
0B4BC:  MOVLW  00
0B4BE:  ADDWFC x03,W
0B4C0:  MOVWF  03
0B4C2:  MOVF   01,W
0B4C4:  ADDLW  3A
0B4C6:  MOVWF  FE9
0B4C8:  MOVLW  06
0B4CA:  ADDWFC 03,W
0B4CC:  MOVWF  FEA
0B4CE:  MOVFF  FEF,702
0B4D2:  MOVLW  8A
0B4D4:  MOVWF  FF6
0B4D6:  MOVLW  0D
0B4D8:  MOVWF  FF7
0B4DA:  MOVLW  00
0B4DC:  MOVWF  FF8
0B4DE:  MOVLW  0C
0B4E0:  MOVWF  x08
0B4E2:  MOVLB  0
0B4E4:  CALL   628E
0B4E8:  MOVFF  702,708
0B4EC:  MOVLW  01
0B4EE:  MOVLB  7
0B4F0:  MOVWF  x09
0B4F2:  MOVLB  0
0B4F4:  CALL   6312
0B4F8:  MOVLW  22
0B4FA:  BTFSS  F9E.4
0B4FC:  BRA    B4FA
0B4FE:  MOVWF  FAD
....................          SendDataDisplay(); 
0B500:  CALL   4752
....................          printf("vacio.txt=\"%03u kPa\"",CiclosPersonalizados[RX_Buffer[4]-1].NivelVacio); 
0B504:  MOVLW  01
0B506:  SUBWF  36,W
0B508:  MULLW  08
0B50A:  MOVF   FF3,W
0B50C:  MOVLB  7
0B50E:  CLRF   x03
0B510:  MOVWF  x02
0B512:  MOVLW  06
0B514:  ADDWF  x02,W
0B516:  MOVWF  01
0B518:  MOVLW  00
0B51A:  ADDWFC x03,W
0B51C:  MOVWF  03
0B51E:  MOVF   01,W
0B520:  ADDLW  3A
0B522:  MOVWF  FE9
0B524:  MOVLW  06
0B526:  ADDWFC 03,W
0B528:  MOVWF  FEA
0B52A:  MOVFF  FEF,702
0B52E:  MOVLW  9C
0B530:  MOVWF  FF6
0B532:  MOVLW  0D
0B534:  MOVWF  FF7
0B536:  MOVLW  00
0B538:  MOVWF  FF8
0B53A:  MOVLW  0B
0B53C:  MOVWF  x08
0B53E:  MOVLB  0
0B540:  CALL   628E
0B544:  MOVFF  702,708
0B548:  MOVLW  03
0B54A:  MOVLB  7
0B54C:  MOVWF  x09
0B54E:  MOVLB  0
0B550:  CALL   6312
0B554:  MOVLW  AB
0B556:  MOVWF  FF6
0B558:  MOVLW  0D
0B55A:  MOVWF  FF7
0B55C:  MOVLW  00
0B55E:  MOVWF  FF8
0B560:  MOVLW  05
0B562:  MOVLB  7
0B564:  MOVWF  x08
0B566:  MOVLB  0
0B568:  CALL   628E
....................          SendDataDisplay(); 
0B56C:  CALL   4752
....................          //printf("desfogue.txt=\"%u\"",CiclosPersonalizados[RX_Buffer[4]-1].NivelDesfogue); 
....................          printf("desfogue.txt=\"N/A\""); 
0B570:  MOVLW  B2
0B572:  MOVWF  FF6
0B574:  MOVLW  0D
0B576:  MOVWF  FF7
0B578:  MOVLW  00
0B57A:  MOVWF  FF8
0B57C:  CALL   4720
....................          SendDataDisplay(); 
0B580:  CALL   4752
....................          CicloLibre=RX_Buffer[4]; 
0B584:  MOVFF  36,27E
....................       }else if(CicloLibre==0x00){ 
0B588:  BRA    B900
0B58A:  MOVLB  2
0B58C:  MOVF   x7E,F
0B58E:  BNZ   B622
....................          printf("ciclo.txt=\"CICLO P--\""); 
0B590:  MOVLW  C6
0B592:  MOVWF  FF6
0B594:  MOVLW  0D
0B596:  MOVWF  FF7
0B598:  MOVLW  00
0B59A:  MOVWF  FF8
0B59C:  MOVLB  0
0B59E:  CALL   4720
....................          SendDataDisplay();           
0B5A2:  CALL   4752
....................          printf("temp.txt=\"--\""); 
0B5A6:  MOVLW  DC
0B5A8:  MOVWF  FF6
0B5AA:  MOVLW  0D
0B5AC:  MOVWF  FF7
0B5AE:  MOVLW  00
0B5B0:  MOVWF  FF8
0B5B2:  CALL   4720
....................          SendDataDisplay(); 
0B5B6:  CALL   4752
....................          printf("test.txt=\"--:--\""); 
0B5BA:  MOVLW  EA
0B5BC:  MOVWF  FF6
0B5BE:  MOVLW  0D
0B5C0:  MOVWF  FF7
0B5C2:  MOVLW  00
0B5C4:  MOVWF  FF8
0B5C6:  CALL   4720
....................          SendDataDisplay(); 
0B5CA:  CALL   4752
....................          printf("tsec.txt=\"--:--\""); 
0B5CE:  MOVLW  FC
0B5D0:  MOVWF  FF6
0B5D2:  MOVLW  0D
0B5D4:  MOVWF  FF7
0B5D6:  MOVLW  00
0B5D8:  MOVWF  FF8
0B5DA:  CALL   4720
....................          SendDataDisplay(); 
0B5DE:  CALL   4752
....................          printf("pulsos.txt=\"--\""); 
0B5E2:  MOVLW  0E
0B5E4:  MOVWF  FF6
0B5E6:  MOVLW  0E
0B5E8:  MOVWF  FF7
0B5EA:  MOVLW  00
0B5EC:  MOVWF  FF8
0B5EE:  CALL   4720
....................          SendDataDisplay(); 
0B5F2:  CALL   4752
....................          printf("vacio.txt=\"--\""); 
0B5F6:  MOVLW  1E
0B5F8:  MOVWF  FF6
0B5FA:  MOVLW  0E
0B5FC:  MOVWF  FF7
0B5FE:  MOVLW  00
0B600:  MOVWF  FF8
0B602:  CALL   4720
....................          SendDataDisplay(); 
0B606:  CALL   4752
....................          printf("desfogue.txt=\"--\""); 
0B60A:  MOVLW  2E
0B60C:  MOVWF  FF6
0B60E:  MOVLW  0E
0B610:  MOVWF  FF7
0B612:  MOVLW  00
0B614:  MOVWF  FF8
0B616:  CALL   4720
....................          SendDataDisplay(); 
0B61A:  CALL   4752
....................       }else if(CicloLibre>0 && CicloLibre<21 && estados[CicloLibre-1]){ 
0B61E:  BRA    B900
0B620:  MOVLB  2
0B622:  MOVF   x7E,F
0B624:  BTFSC  FD8.2
0B626:  BRA    B902
0B628:  MOVF   x7E,W
0B62A:  SUBLW  14
0B62C:  BTFSS  FD8.0
0B62E:  BRA    B902
0B630:  MOVLW  01
0B632:  SUBWF  x7E,W
0B634:  MOVLB  7
0B636:  MOVWF  x04
0B638:  MOVLW  03
0B63A:  MOVWF  x06
0B63C:  MOVLW  6E
0B63E:  MOVWF  x05
0B640:  MOVLB  0
0B642:  CALL   239E
0B646:  BTFSC  01.0
0B648:  BRA    B64E
0B64A:  MOVLB  2
0B64C:  BRA    B902
....................          printf("ciclo.txt=\"CICLO P%02u\"",CicloLibre+0x0a); 
0B64E:  MOVLW  0A
0B650:  MOVLB  2
0B652:  ADDWF  x7E,W
0B654:  MOVLB  7
0B656:  MOVWF  x02
0B658:  MOVLW  40
0B65A:  MOVWF  FF6
0B65C:  MOVLW  0E
0B65E:  MOVWF  FF7
0B660:  MOVLW  00
0B662:  MOVWF  FF8
0B664:  MOVLW  12
0B666:  MOVWF  x08
0B668:  MOVLB  0
0B66A:  CALL   628E
0B66E:  MOVFF  702,708
0B672:  MOVLW  01
0B674:  MOVLB  7
0B676:  MOVWF  x09
0B678:  MOVLB  0
0B67A:  CALL   6312
0B67E:  MOVLW  22
0B680:  BTFSS  F9E.4
0B682:  BRA    B680
0B684:  MOVWF  FAD
....................          SendDataDisplay();           
0B686:  CALL   4752
....................          printf("temp.txt=\"%u\"",CiclosPersonalizados[CicloLibre-1].Temperatura); 
0B68A:  MOVLW  01
0B68C:  MOVLB  2
0B68E:  SUBWF  x7E,W
0B690:  MULLW  08
0B692:  MOVF   FF3,W
0B694:  MOVLB  7
0B696:  CLRF   x03
0B698:  MOVWF  x02
0B69A:  MOVLW  3A
0B69C:  ADDWF  x02,W
0B69E:  MOVWF  FE9
0B6A0:  MOVLW  06
0B6A2:  ADDWFC x03,W
0B6A4:  MOVWF  FEA
0B6A6:  MOVFF  FEF,702
0B6AA:  MOVLW  58
0B6AC:  MOVWF  FF6
0B6AE:  MOVLW  0E
0B6B0:  MOVWF  FF7
0B6B2:  MOVLW  00
0B6B4:  MOVWF  FF8
0B6B6:  MOVLW  0A
0B6B8:  MOVWF  x08
0B6BA:  MOVLB  0
0B6BC:  CALL   628E
0B6C0:  MOVFF  702,708
0B6C4:  MOVLW  1B
0B6C6:  MOVLB  7
0B6C8:  MOVWF  x09
0B6CA:  MOVLB  0
0B6CC:  CALL   6312
0B6D0:  MOVLW  22
0B6D2:  BTFSS  F9E.4
0B6D4:  BRA    B6D2
0B6D6:  MOVWF  FAD
....................          SendDataDisplay(); 
0B6D8:  CALL   4752
....................          printf("test.txt=\"%02u:%02u\"",CiclosPersonalizados[CicloLibre-1].Minutoest,CiclosPersonalizados[CicloLibre-1].Segundoest); 
0B6DC:  MOVLW  01
0B6DE:  MOVLB  2
0B6E0:  SUBWF  x7E,W
0B6E2:  MULLW  08
0B6E4:  MOVF   FF3,W
0B6E6:  MOVLB  7
0B6E8:  CLRF   x03
0B6EA:  MOVWF  x02
0B6EC:  MOVLW  01
0B6EE:  ADDWF  x02,W
0B6F0:  MOVWF  01
0B6F2:  MOVLW  00
0B6F4:  ADDWFC x03,W
0B6F6:  MOVWF  03
0B6F8:  MOVF   01,W
0B6FA:  ADDLW  3A
0B6FC:  MOVWF  FE9
0B6FE:  MOVLW  06
0B700:  ADDWFC 03,W
0B702:  MOVWF  FEA
0B704:  MOVFF  FEF,702
0B708:  MOVLW  01
0B70A:  MOVLB  2
0B70C:  SUBWF  x7E,W
0B70E:  MULLW  08
0B710:  MOVF   FF3,W
0B712:  MOVLB  7
0B714:  CLRF   x04
0B716:  MOVWF  x03
0B718:  MOVLW  02
0B71A:  ADDWF  x03,W
0B71C:  MOVWF  01
0B71E:  MOVLW  00
0B720:  ADDWFC x04,W
0B722:  MOVWF  03
0B724:  MOVF   01,W
0B726:  ADDLW  3A
0B728:  MOVWF  FE9
0B72A:  MOVLW  06
0B72C:  ADDWFC 03,W
0B72E:  MOVWF  FEA
0B730:  MOVFF  FEF,703
0B734:  MOVLW  66
0B736:  MOVWF  FF6
0B738:  MOVLW  0E
0B73A:  MOVWF  FF7
0B73C:  MOVLW  00
0B73E:  MOVWF  FF8
0B740:  MOVLW  0A
0B742:  MOVWF  x08
0B744:  MOVLB  0
0B746:  CALL   628E
0B74A:  MOVFF  702,708
0B74E:  MOVLW  01
0B750:  MOVLB  7
0B752:  MOVWF  x09
0B754:  MOVLB  0
0B756:  CALL   6312
0B75A:  MOVLW  3A
0B75C:  BTFSS  F9E.4
0B75E:  BRA    B75C
0B760:  MOVWF  FAD
0B762:  MOVFF  703,708
0B766:  MOVLW  01
0B768:  MOVLB  7
0B76A:  MOVWF  x09
0B76C:  MOVLB  0
0B76E:  CALL   6312
0B772:  MOVLW  22
0B774:  BTFSS  F9E.4
0B776:  BRA    B774
0B778:  MOVWF  FAD
....................          SendDataDisplay(); 
0B77A:  CALL   4752
....................          printf("tsec.txt=\"%02u:%02u\"",CiclosPersonalizados[CicloLibre-1].Minutosec,CiclosPersonalizados[CicloLibre-1].Segundosec); 
0B77E:  MOVLW  01
0B780:  MOVLB  2
0B782:  SUBWF  x7E,W
0B784:  MULLW  08
0B786:  MOVF   FF3,W
0B788:  MOVLB  7
0B78A:  CLRF   x03
0B78C:  MOVWF  x02
0B78E:  MOVLW  03
0B790:  ADDWF  x02,W
0B792:  MOVWF  01
0B794:  MOVLW  00
0B796:  ADDWFC x03,W
0B798:  MOVWF  03
0B79A:  MOVF   01,W
0B79C:  ADDLW  3A
0B79E:  MOVWF  FE9
0B7A0:  MOVLW  06
0B7A2:  ADDWFC 03,W
0B7A4:  MOVWF  FEA
0B7A6:  MOVFF  FEF,702
0B7AA:  MOVLW  01
0B7AC:  MOVLB  2
0B7AE:  SUBWF  x7E,W
0B7B0:  MULLW  08
0B7B2:  MOVF   FF3,W
0B7B4:  MOVLB  7
0B7B6:  CLRF   x04
0B7B8:  MOVWF  x03
0B7BA:  MOVLW  04
0B7BC:  ADDWF  x03,W
0B7BE:  MOVWF  01
0B7C0:  MOVLW  00
0B7C2:  ADDWFC x04,W
0B7C4:  MOVWF  03
0B7C6:  MOVF   01,W
0B7C8:  ADDLW  3A
0B7CA:  MOVWF  FE9
0B7CC:  MOVLW  06
0B7CE:  ADDWFC 03,W
0B7D0:  MOVWF  FEA
0B7D2:  MOVFF  FEF,703
0B7D6:  MOVLW  7C
0B7D8:  MOVWF  FF6
0B7DA:  MOVLW  0E
0B7DC:  MOVWF  FF7
0B7DE:  MOVLW  00
0B7E0:  MOVWF  FF8
0B7E2:  MOVLW  0A
0B7E4:  MOVWF  x08
0B7E6:  MOVLB  0
0B7E8:  CALL   628E
0B7EC:  MOVFF  702,708
0B7F0:  MOVLW  01
0B7F2:  MOVLB  7
0B7F4:  MOVWF  x09
0B7F6:  MOVLB  0
0B7F8:  CALL   6312
0B7FC:  MOVLW  3A
0B7FE:  BTFSS  F9E.4
0B800:  BRA    B7FE
0B802:  MOVWF  FAD
0B804:  MOVFF  703,708
0B808:  MOVLW  01
0B80A:  MOVLB  7
0B80C:  MOVWF  x09
0B80E:  MOVLB  0
0B810:  CALL   6312
0B814:  MOVLW  22
0B816:  BTFSS  F9E.4
0B818:  BRA    B816
0B81A:  MOVWF  FAD
....................          SendDataDisplay(); 
0B81C:  CALL   4752
....................          printf("pulsos.txt=\"%02u\"",CiclosPersonalizados[CicloLibre-1].PulsosVacio); 
0B820:  MOVLW  01
0B822:  MOVLB  2
0B824:  SUBWF  x7E,W
0B826:  MULLW  08
0B828:  MOVF   FF3,W
0B82A:  MOVLB  7
0B82C:  CLRF   x03
0B82E:  MOVWF  x02
0B830:  MOVLW  05
0B832:  ADDWF  x02,W
0B834:  MOVWF  01
0B836:  MOVLW  00
0B838:  ADDWFC x03,W
0B83A:  MOVWF  03
0B83C:  MOVF   01,W
0B83E:  ADDLW  3A
0B840:  MOVWF  FE9
0B842:  MOVLW  06
0B844:  ADDWFC 03,W
0B846:  MOVWF  FEA
0B848:  MOVFF  FEF,702
0B84C:  MOVLW  92
0B84E:  MOVWF  FF6
0B850:  MOVLW  0E
0B852:  MOVWF  FF7
0B854:  MOVLW  00
0B856:  MOVWF  FF8
0B858:  MOVLW  0C
0B85A:  MOVWF  x08
0B85C:  MOVLB  0
0B85E:  CALL   628E
0B862:  MOVFF  702,708
0B866:  MOVLW  01
0B868:  MOVLB  7
0B86A:  MOVWF  x09
0B86C:  MOVLB  0
0B86E:  CALL   6312
0B872:  MOVLW  22
0B874:  BTFSS  F9E.4
0B876:  BRA    B874
0B878:  MOVWF  FAD
....................          SendDataDisplay(); 
0B87A:  CALL   4752
....................          printf("vacio.txt=\"%03u kPa\"",CiclosPersonalizados[CicloLibre-1].NivelVacio); 
0B87E:  MOVLW  01
0B880:  MOVLB  2
0B882:  SUBWF  x7E,W
0B884:  MULLW  08
0B886:  MOVF   FF3,W
0B888:  MOVLB  7
0B88A:  CLRF   x03
0B88C:  MOVWF  x02
0B88E:  MOVLW  06
0B890:  ADDWF  x02,W
0B892:  MOVWF  01
0B894:  MOVLW  00
0B896:  ADDWFC x03,W
0B898:  MOVWF  03
0B89A:  MOVF   01,W
0B89C:  ADDLW  3A
0B89E:  MOVWF  FE9
0B8A0:  MOVLW  06
0B8A2:  ADDWFC 03,W
0B8A4:  MOVWF  FEA
0B8A6:  MOVFF  FEF,702
0B8AA:  MOVLW  A4
0B8AC:  MOVWF  FF6
0B8AE:  MOVLW  0E
0B8B0:  MOVWF  FF7
0B8B2:  MOVLW  00
0B8B4:  MOVWF  FF8
0B8B6:  MOVLW  0B
0B8B8:  MOVWF  x08
0B8BA:  MOVLB  0
0B8BC:  CALL   628E
0B8C0:  MOVFF  702,708
0B8C4:  MOVLW  03
0B8C6:  MOVLB  7
0B8C8:  MOVWF  x09
0B8CA:  MOVLB  0
0B8CC:  CALL   6312
0B8D0:  MOVLW  B3
0B8D2:  MOVWF  FF6
0B8D4:  MOVLW  0E
0B8D6:  MOVWF  FF7
0B8D8:  MOVLW  00
0B8DA:  MOVWF  FF8
0B8DC:  MOVLW  05
0B8DE:  MOVLB  7
0B8E0:  MOVWF  x08
0B8E2:  MOVLB  0
0B8E4:  CALL   628E
....................          SendDataDisplay(); 
0B8E8:  CALL   4752
....................          //printf("desfogue.txt=\"%u\"",CiclosPersonalizados[CicloLibre-1].NivelDesfogue); 
....................          printf("desfogue.txt=\"N/A\""); 
0B8EC:  MOVLW  BA
0B8EE:  MOVWF  FF6
0B8F0:  MOVLW  0E
0B8F2:  MOVWF  FF7
0B8F4:  MOVLW  00
0B8F6:  MOVWF  FF8
0B8F8:  CALL   4720
....................          SendDataDisplay(); 
0B8FC:  CALL   4752
0B900:  MOVLB  2
....................       } 
....................        
....................       if(RX_Buffer[4]==0xa0){//a0, Menu Principal 
0B902:  MOVF   36,W
0B904:  SUBLW  A0
0B906:  BNZ   B920
....................          printf("page Menu"); 
0B908:  MOVLW  CE
0B90A:  MOVWF  FF6
0B90C:  MOVLW  0E
0B90E:  MOVWF  FF7
0B910:  MOVLW  00
0B912:  MOVWF  FF8
0B914:  MOVLB  0
0B916:  CALL   4720
....................          SendDataDisplay();      
0B91A:  CALL   4752
0B91E:  MOVLB  2
....................       } 
....................        
....................       if(RX_Buffer[4]==0xb0){//b0, Personalizados 
0B920:  MOVF   36,W
0B922:  SUBLW  B0
0B924:  BNZ   B93E
....................          printf("page CicloPersona"); 
0B926:  MOVLW  D8
0B928:  MOVWF  FF6
0B92A:  MOVLW  0E
0B92C:  MOVWF  FF7
0B92E:  MOVLW  00
0B930:  MOVWF  FF8
0B932:  MOVLB  0
0B934:  CALL   4720
....................          SendDataDisplay();      
0B938:  CALL   4752
0B93C:  MOVLB  2
....................       } 
....................        
....................       if(RX_Buffer[4]==0xc0){//c0, Configuraciones 
0B93E:  MOVF   36,W
0B940:  SUBLW  C0
0B942:  BNZ   B96A
....................          if(codigoUsuario==0 || codigoUsuario==9){   
0B944:  MOVLB  3
0B946:  MOVF   x02,F
0B948:  BZ    B950
0B94A:  MOVF   x02,W
0B94C:  SUBLW  09
0B94E:  BNZ   B968
....................             printf("page Ajustes"); 
0B950:  MOVLW  EA
0B952:  MOVWF  FF6
0B954:  MOVLW  0E
0B956:  MOVWF  FF7
0B958:  MOVLW  00
0B95A:  MOVWF  FF8
0B95C:  MOVLB  0
0B95E:  CALL   4720
....................             SendDataDisplay();      
0B962:  CALL   4752
0B966:  MOVLB  3
0B968:  MOVLB  2
....................          } 
....................       } 
....................        
....................       if(RX_Buffer[4]==0x20 && CicloLibre>0){//20, Temperatura 
0B96A:  MOVF   36,W
0B96C:  SUBLW  20
0B96E:  BNZ   B9B8
0B970:  MOVF   x7E,F
0B972:  BZ    B9B8
....................          if(codigoUsuario==0 || codigoUsuario==9){   
0B974:  MOVLB  3
0B976:  MOVF   x02,F
0B978:  BZ    B980
0B97A:  MOVF   x02,W
0B97C:  SUBLW  09
0B97E:  BNZ   B9BA
....................             printf("page Temperatura"); 
0B980:  MOVLW  F8
0B982:  MOVWF  FF6
0B984:  MOVLW  0E
0B986:  MOVWF  FF7
0B988:  MOVLW  00
0B98A:  MOVWF  FF8
0B98C:  MOVLB  0
0B98E:  CALL   4720
....................             SendDataDisplay();      
0B992:  CALL   4752
....................             Setpoint=CiclosPersonalizados[CicloLibre-1].Temperatura; 
0B996:  MOVLW  01
0B998:  MOVLB  2
0B99A:  SUBWF  x7E,W
0B99C:  MULLW  08
0B99E:  MOVF   FF3,W
0B9A0:  MOVLB  7
0B9A2:  CLRF   x03
0B9A4:  MOVWF  x02
0B9A6:  MOVLW  3A
0B9A8:  ADDWF  x02,W
0B9AA:  MOVWF  FE9
0B9AC:  MOVLW  06
0B9AE:  ADDWFC x03,W
0B9B0:  MOVWF  FEA
0B9B2:  MOVFF  FEF,2AF
0B9B6:  MOVLB  2
0B9B8:  MOVLB  3
....................          } 
....................       } 
....................        
....................       if(RX_Buffer[4]==0x30 && CicloLibre>0){//30, Test 
0B9BA:  MOVF   36,W
0B9BC:  SUBLW  30
0B9BE:  BNZ   BA4C
0B9C0:  MOVLB  2
0B9C2:  MOVF   x7E,F
0B9C4:  BTFSS  FD8.2
0B9C6:  BRA    B9CC
0B9C8:  MOVLB  3
0B9CA:  BRA    BA4C
....................          if(codigoUsuario==0 || codigoUsuario==9){   
0B9CC:  MOVLB  3
0B9CE:  MOVF   x02,F
0B9D0:  BZ    B9D8
0B9D2:  MOVF   x02,W
0B9D4:  SUBLW  09
0B9D6:  BNZ   BA4C
....................             printf("page TiempoEst"); 
0B9D8:  MOVLW  0A
0B9DA:  MOVWF  FF6
0B9DC:  MOVLW  0F
0B9DE:  MOVWF  FF7
0B9E0:  MOVLW  00
0B9E2:  MOVWF  FF8
0B9E4:  MOVLB  0
0B9E6:  CALL   4720
....................             SendDataDisplay();      
0B9EA:  CALL   4752
....................             mEstp=CiclosPersonalizados[CicloLibre-1].Minutoest; 
0B9EE:  MOVLW  01
0B9F0:  MOVLB  2
0B9F2:  SUBWF  x7E,W
0B9F4:  MULLW  08
0B9F6:  MOVF   FF3,W
0B9F8:  MOVLB  7
0B9FA:  CLRF   x03
0B9FC:  MOVWF  x02
0B9FE:  MOVLW  01
0BA00:  ADDWF  x02,W
0BA02:  MOVWF  01
0BA04:  MOVLW  00
0BA06:  ADDWFC x03,W
0BA08:  MOVWF  03
0BA0A:  MOVF   01,W
0BA0C:  ADDLW  3A
0BA0E:  MOVWF  FE9
0BA10:  MOVLW  06
0BA12:  ADDWFC 03,W
0BA14:  MOVWF  FEA
0BA16:  MOVFF  FEF,14D
0BA1A:  MOVLB  1
....................             sEstp=CiclosPersonalizados[CicloLibre-1].Segundoest; 
0BA1C:  MOVLW  01
0BA1E:  MOVLB  2
0BA20:  SUBWF  x7E,W
0BA22:  MULLW  08
0BA24:  MOVF   FF3,W
0BA26:  MOVLB  7
0BA28:  CLRF   x03
0BA2A:  MOVWF  x02
0BA2C:  MOVLW  02
0BA2E:  ADDWF  x02,W
0BA30:  MOVWF  01
0BA32:  MOVLW  00
0BA34:  ADDWFC x03,W
0BA36:  MOVWF  03
0BA38:  MOVF   01,W
0BA3A:  ADDLW  3A
0BA3C:  MOVWF  FE9
0BA3E:  MOVLW  06
0BA40:  ADDWFC 03,W
0BA42:  MOVWF  FEA
0BA44:  MOVFF  FEF,14C
0BA48:  MOVLB  1
0BA4A:  MOVLB  3
....................          } 
....................       } 
....................        
....................       if(RX_Buffer[4]==0x40 && CicloLibre>0){//40, Tsec 
0BA4C:  MOVF   36,W
0BA4E:  SUBLW  40
0BA50:  BNZ   BADE
0BA52:  MOVLB  2
0BA54:  MOVF   x7E,F
0BA56:  BTFSS  FD8.2
0BA58:  BRA    BA5E
0BA5A:  MOVLB  3
0BA5C:  BRA    BADE
....................          if(codigoUsuario==0 || codigoUsuario==9){   
0BA5E:  MOVLB  3
0BA60:  MOVF   x02,F
0BA62:  BZ    BA6A
0BA64:  MOVF   x02,W
0BA66:  SUBLW  09
0BA68:  BNZ   BADE
....................             printf("page TiempoSec"); 
0BA6A:  MOVLW  1A
0BA6C:  MOVWF  FF6
0BA6E:  MOVLW  0F
0BA70:  MOVWF  FF7
0BA72:  MOVLW  00
0BA74:  MOVWF  FF8
0BA76:  MOVLB  0
0BA78:  CALL   4720
....................             SendDataDisplay();    
0BA7C:  CALL   4752
....................             mSecp=CiclosPersonalizados[CicloLibre-1].Minutosec; 
0BA80:  MOVLW  01
0BA82:  MOVLB  2
0BA84:  SUBWF  x7E,W
0BA86:  MULLW  08
0BA88:  MOVF   FF3,W
0BA8A:  MOVLB  7
0BA8C:  CLRF   x03
0BA8E:  MOVWF  x02
0BA90:  MOVLW  03
0BA92:  ADDWF  x02,W
0BA94:  MOVWF  01
0BA96:  MOVLW  00
0BA98:  ADDWFC x03,W
0BA9A:  MOVWF  03
0BA9C:  MOVF   01,W
0BA9E:  ADDLW  3A
0BAA0:  MOVWF  FE9
0BAA2:  MOVLW  06
0BAA4:  ADDWFC 03,W
0BAA6:  MOVWF  FEA
0BAA8:  MOVFF  FEF,14F
0BAAC:  MOVLB  1
....................             sSecp=CiclosPersonalizados[CicloLibre-1].Segundosec; 
0BAAE:  MOVLW  01
0BAB0:  MOVLB  2
0BAB2:  SUBWF  x7E,W
0BAB4:  MULLW  08
0BAB6:  MOVF   FF3,W
0BAB8:  MOVLB  7
0BABA:  CLRF   x03
0BABC:  MOVWF  x02
0BABE:  MOVLW  04
0BAC0:  ADDWF  x02,W
0BAC2:  MOVWF  01
0BAC4:  MOVLW  00
0BAC6:  ADDWFC x03,W
0BAC8:  MOVWF  03
0BACA:  MOVF   01,W
0BACC:  ADDLW  3A
0BACE:  MOVWF  FE9
0BAD0:  MOVLW  06
0BAD2:  ADDWFC 03,W
0BAD4:  MOVWF  FEA
0BAD6:  MOVFF  FEF,14E
0BADA:  MOVLB  1
0BADC:  MOVLB  3
....................          } 
....................       } 
....................        
....................       if(RX_Buffer[4]==0x50 && CicloLibre>0){//50, PulsosVacio 
0BADE:  MOVF   36,W
0BAE0:  SUBLW  50
0BAE2:  BNZ   BB40
0BAE4:  MOVLB  2
0BAE6:  MOVF   x7E,F
0BAE8:  BTFSS  FD8.2
0BAEA:  BRA    BAF0
0BAEC:  MOVLB  3
0BAEE:  BRA    BB40
....................          if(codigoUsuario==0 || codigoUsuario==9){   
0BAF0:  MOVLB  3
0BAF2:  MOVF   x02,F
0BAF4:  BZ    BAFC
0BAF6:  MOVF   x02,W
0BAF8:  SUBLW  09
0BAFA:  BNZ   BB40
....................             printf("page Pulsos"); 
0BAFC:  MOVLW  2A
0BAFE:  MOVWF  FF6
0BB00:  MOVLW  0F
0BB02:  MOVWF  FF7
0BB04:  MOVLW  00
0BB06:  MOVWF  FF8
0BB08:  MOVLB  0
0BB0A:  CALL   4720
....................             SendDataDisplay();      
0BB0E:  CALL   4752
....................             Pulsos=CiclosPersonalizados[CicloLibre-1].PulsosVacio; 
0BB12:  MOVLW  01
0BB14:  MOVLB  2
0BB16:  SUBWF  x7E,W
0BB18:  MULLW  08
0BB1A:  MOVF   FF3,W
0BB1C:  MOVLB  7
0BB1E:  CLRF   x03
0BB20:  MOVWF  x02
0BB22:  MOVLW  05
0BB24:  ADDWF  x02,W
0BB26:  MOVWF  01
0BB28:  MOVLW  00
0BB2A:  ADDWFC x03,W
0BB2C:  MOVWF  03
0BB2E:  MOVF   01,W
0BB30:  ADDLW  3A
0BB32:  MOVWF  FE9
0BB34:  MOVLW  06
0BB36:  ADDWFC 03,W
0BB38:  MOVWF  FEA
0BB3A:  MOVFF  FEF,301
0BB3E:  MOVLB  3
....................          } 
....................       } 
....................        
....................       if(RX_Buffer[4]==0x60 && CicloLibre>0){//60, NivelVacio 
0BB40:  MOVF   36,W
0BB42:  SUBLW  60
0BB44:  BNZ   BBAA
0BB46:  MOVLB  2
0BB48:  MOVF   x7E,F
0BB4A:  BTFSS  FD8.2
0BB4C:  BRA    BB52
0BB4E:  MOVLB  3
0BB50:  BRA    BBAA
....................          if(codigoUsuario==0 || codigoUsuario==9){   
0BB52:  MOVLB  3
0BB54:  MOVF   x02,F
0BB56:  BZ    BB5E
0BB58:  MOVF   x02,W
0BB5A:  SUBLW  09
0BB5C:  BNZ   BBAA
....................             printf("page Nivel"); 
0BB5E:  MOVLW  36
0BB60:  MOVWF  FF6
0BB62:  MOVLW  0F
0BB64:  MOVWF  FF7
0BB66:  MOVLW  00
0BB68:  MOVWF  FF8
0BB6A:  MOVLB  0
0BB6C:  CALL   4720
....................             SendDataDisplay();      
0BB70:  CALL   4752
....................             Nivel=CiclosPersonalizados[CicloLibre-1].NivelVacio; 
0BB74:  MOVLW  01
0BB76:  MOVLB  2
0BB78:  SUBWF  x7E,W
0BB7A:  MULLW  08
0BB7C:  MOVF   FF3,W
0BB7E:  MOVLB  7
0BB80:  CLRF   x03
0BB82:  MOVWF  x02
0BB84:  MOVLW  06
0BB86:  ADDWF  x02,W
0BB88:  MOVWF  01
0BB8A:  MOVLW  00
0BB8C:  ADDWFC x03,W
0BB8E:  MOVWF  03
0BB90:  MOVF   01,W
0BB92:  ADDLW  3A
0BB94:  MOVWF  FE9
0BB96:  MOVLW  06
0BB98:  ADDWFC 03,W
0BB9A:  MOVWF  FEA
0BB9C:  MOVF   FEF,W
0BB9E:  CLRF   03
0BBA0:  MOVLB  2
0BBA2:  MOVWF  xBD
0BBA4:  MOVFF  03,2BE
0BBA8:  MOVLB  3
....................          } 
....................       } 
....................        
....................       if(RX_Buffer[4]==0x80 && CicloLibre>0){//80, NivelDesfogue 
0BBAA:  MOVF   36,W
0BBAC:  SUBLW  80
0BBAE:  BNZ   BBBE
0BBB0:  MOVLB  2
0BBB2:  MOVF   x7E,F
0BBB4:  BTFSS  FD8.2
0BBB6:  BRA    BBBC
0BBB8:  MOVLB  3
0BBBA:  BRA    BBBE
0BBBC:  MOVLB  3
....................          //printf("page NivelDes"); 
....................          //SendDataDisplay();      
....................          //NivelDes=CiclosPersonalizados[CicloLibre-1].NivelDesfogue; 
....................       } 
....................        
....................       if(RX_Buffer[4]==0x70 && CicloLibre>0){//70, Iniciar Ciclo 
0BBBE:  MOVF   36,W
0BBC0:  SUBLW  70
0BBC2:  BTFSS  FD8.2
0BBC4:  BRA    BDAE
0BBC6:  MOVLB  2
0BBC8:  MOVF   x7E,F
0BBCA:  BTFSS  FD8.2
0BBCC:  BRA    BBD2
0BBCE:  MOVLB  3
0BBD0:  BRA    BDAE
....................          printf("page Funcionamiento"); 
0BBD2:  MOVLW  42
0BBD4:  MOVWF  FF6
0BBD6:  MOVLW  0F
0BBD8:  MOVWF  FF7
0BBDA:  MOVLW  00
0BBDC:  MOVWF  FF8
0BBDE:  MOVLB  0
0BBE0:  CALL   4720
....................          SendDataDisplay();        
0BBE4:  CALL   4752
....................          Libre=ON; 
0BBE8:  MOVLB  1
0BBEA:  BSF    x2E.4
....................          ConfiguraCiclo(CiclosPersonalizados[CicloLibre-1].Segundoest,CiclosPersonalizados[CicloLibre-1].Minutoest, 
....................          CiclosPersonalizados[CicloLibre-1].Segundosec,CiclosPersonalizados[CicloLibre-1].MinutoSec,0,CicloLibre+10, 
....................          CiclosPersonalizados[CicloLibre-1].Temperatura,CiclosPersonalizados[CicloLibre-1].PulsosVacio,CiclosPersonalizados[CicloLibre-1].NivelVacio 
....................          ,0); 
0BBEC:  MOVLW  01
0BBEE:  MOVLB  2
0BBF0:  SUBWF  x7E,W
0BBF2:  MULLW  08
0BBF4:  MOVF   FF3,W
0BBF6:  MOVLB  7
0BBF8:  CLRF   x03
0BBFA:  MOVWF  x02
0BBFC:  MOVLW  02
0BBFE:  ADDWF  x02,W
0BC00:  MOVWF  01
0BC02:  MOVLW  00
0BC04:  ADDWFC x03,W
0BC06:  MOVWF  03
0BC08:  MOVF   01,W
0BC0A:  ADDLW  3A
0BC0C:  MOVWF  FE9
0BC0E:  MOVLW  06
0BC10:  ADDWFC 03,W
0BC12:  MOVWF  FEA
0BC14:  MOVFF  FEF,702
0BC18:  MOVLW  01
0BC1A:  MOVLB  2
0BC1C:  SUBWF  x7E,W
0BC1E:  MULLW  08
0BC20:  MOVF   FF3,W
0BC22:  MOVLB  7
0BC24:  CLRF   x04
0BC26:  MOVWF  x03
0BC28:  MOVLW  01
0BC2A:  ADDWF  x03,W
0BC2C:  MOVWF  01
0BC2E:  MOVLW  00
0BC30:  ADDWFC x04,W
0BC32:  MOVWF  03
0BC34:  MOVF   01,W
0BC36:  ADDLW  3A
0BC38:  MOVWF  FE9
0BC3A:  MOVLW  06
0BC3C:  ADDWFC 03,W
0BC3E:  MOVWF  FEA
0BC40:  MOVFF  FEF,703
0BC44:  MOVLW  01
0BC46:  MOVLB  2
0BC48:  SUBWF  x7E,W
0BC4A:  MULLW  08
0BC4C:  MOVF   FF3,W
0BC4E:  MOVLB  7
0BC50:  CLRF   x05
0BC52:  MOVWF  x04
0BC54:  MOVLW  04
0BC56:  ADDWF  x04,W
0BC58:  MOVWF  01
0BC5A:  MOVLW  00
0BC5C:  ADDWFC x05,W
0BC5E:  MOVWF  03
0BC60:  MOVF   01,W
0BC62:  ADDLW  3A
0BC64:  MOVWF  FE9
0BC66:  MOVLW  06
0BC68:  ADDWFC 03,W
0BC6A:  MOVWF  FEA
0BC6C:  MOVFF  FEF,704
0BC70:  MOVLW  01
0BC72:  MOVLB  2
0BC74:  SUBWF  x7E,W
0BC76:  MULLW  08
0BC78:  MOVF   FF3,W
0BC7A:  MOVLB  7
0BC7C:  CLRF   x06
0BC7E:  MOVWF  x05
0BC80:  MOVLW  03
0BC82:  ADDWF  x05,W
0BC84:  MOVWF  01
0BC86:  MOVLW  00
0BC88:  ADDWFC x06,W
0BC8A:  MOVWF  03
0BC8C:  MOVF   01,W
0BC8E:  ADDLW  3A
0BC90:  MOVWF  FE9
0BC92:  MOVLW  06
0BC94:  ADDWFC 03,W
0BC96:  MOVWF  FEA
0BC98:  MOVFF  FEF,705
0BC9C:  MOVLW  0A
0BC9E:  MOVLB  2
0BCA0:  ADDWF  x7E,W
0BCA2:  MOVLB  7
0BCA4:  MOVWF  x06
0BCA6:  MOVLW  01
0BCA8:  MOVLB  2
0BCAA:  SUBWF  x7E,W
0BCAC:  MULLW  08
0BCAE:  MOVF   FF3,W
0BCB0:  MOVLB  7
0BCB2:  CLRF   x08
0BCB4:  MOVWF  x07
0BCB6:  MOVLW  3A
0BCB8:  ADDWF  x07,W
0BCBA:  MOVWF  FE9
0BCBC:  MOVLW  06
0BCBE:  ADDWFC x08,W
0BCC0:  MOVWF  FEA
0BCC2:  MOVFF  FEF,707
0BCC6:  MOVLW  01
0BCC8:  MOVLB  2
0BCCA:  SUBWF  x7E,W
0BCCC:  MULLW  08
0BCCE:  MOVF   FF3,W
0BCD0:  MOVLB  7
0BCD2:  CLRF   x09
0BCD4:  MOVWF  x08
0BCD6:  MOVLW  05
0BCD8:  ADDWF  x08,W
0BCDA:  MOVWF  01
0BCDC:  MOVLW  00
0BCDE:  ADDWFC x09,W
0BCE0:  MOVWF  03
0BCE2:  MOVF   01,W
0BCE4:  ADDLW  3A
0BCE6:  MOVWF  FE9
0BCE8:  MOVLW  06
0BCEA:  ADDWFC 03,W
0BCEC:  MOVWF  FEA
0BCEE:  MOVFF  FEF,708
0BCF2:  MOVLW  01
0BCF4:  MOVLB  2
0BCF6:  SUBWF  x7E,W
0BCF8:  MULLW  08
0BCFA:  MOVF   FF3,W
0BCFC:  MOVLB  7
0BCFE:  CLRF   x0A
0BD00:  MOVWF  x09
0BD02:  MOVLW  06
0BD04:  ADDWF  x09,W
0BD06:  MOVWF  01
0BD08:  MOVLW  00
0BD0A:  ADDWFC x0A,W
0BD0C:  MOVWF  03
0BD0E:  MOVF   01,W
0BD10:  ADDLW  3A
0BD12:  MOVWF  FE9
0BD14:  MOVLW  06
0BD16:  ADDWFC 03,W
0BD18:  MOVWF  FEA
0BD1A:  MOVFF  FEF,709
0BD1E:  MOVFF  702,70A
0BD22:  MOVFF  703,70B
0BD26:  MOVFF  704,70C
0BD2A:  MOVFF  705,70D
0BD2E:  CLRF   x0E
0BD30:  MOVFF  706,70F
0BD34:  MOVFF  707,710
0BD38:  MOVFF  708,711
0BD3C:  MOVFF  709,712
0BD40:  CLRF   x13
0BD42:  MOVLB  0
0BD44:  CALL   699A
....................          NivelVacio=CiclosPersonalizados[CicloLibre-1].NivelVacio; 
0BD48:  MOVLW  01
0BD4A:  MOVLB  2
0BD4C:  SUBWF  x7E,W
0BD4E:  MULLW  08
0BD50:  MOVF   FF3,W
0BD52:  MOVLB  7
0BD54:  CLRF   x03
0BD56:  MOVWF  x02
0BD58:  MOVLW  06
0BD5A:  ADDWF  x02,W
0BD5C:  MOVWF  01
0BD5E:  MOVLW  00
0BD60:  ADDWFC x03,W
0BD62:  MOVWF  03
0BD64:  MOVF   01,W
0BD66:  ADDLW  3A
0BD68:  MOVWF  FE9
0BD6A:  MOVLW  06
0BD6C:  ADDWFC 03,W
0BD6E:  MOVWF  FEA
0BD70:  MOVFF  FEF,2F5
0BD74:  MOVLB  2
....................          CantidadPulsos=CiclosPersonalizados[CicloLibre-1].PulsosVacio; 
0BD76:  MOVLW  01
0BD78:  SUBWF  x7E,W
0BD7A:  MULLW  08
0BD7C:  MOVF   FF3,W
0BD7E:  MOVLB  7
0BD80:  CLRF   x03
0BD82:  MOVWF  x02
0BD84:  MOVLW  05
0BD86:  ADDWF  x02,W
0BD88:  MOVWF  01
0BD8A:  MOVLW  00
0BD8C:  ADDWFC x03,W
0BD8E:  MOVWF  03
0BD90:  MOVF   01,W
0BD92:  ADDLW  3A
0BD94:  MOVWF  FE9
0BD96:  MOVLW  06
0BD98:  ADDWFC 03,W
0BD9A:  MOVWF  FEA
0BD9C:  MOVF   FEF,W
0BD9E:  CLRF   03
0BDA0:  MOVLB  2
0BDA2:  MOVWF  xA7
0BDA4:  MOVFF  03,2A8
....................          Fugas=OFF; 
0BDA8:  MOVLB  1
0BDAA:  BCF    x2E.6
0BDAC:  MOVLB  3
....................       } 
....................    }else if(Menu==9){//Menu de Pulsos de Vacio 
0BDAE:  GOTO   ECDE
0BDB2:  MOVLB  2
0BDB4:  MOVF   xA0,W
0BDB6:  SUBLW  09
0BDB8:  BTFSS  FD8.2
0BDBA:  BRA    BF94
....................       printf("fecha.txt=\"Fecha:%02u/%02u/20%02u Hora: %02u:%02u:%02u\"",Dia,Mes,Year,Hora,Minuto,Segundo); 
0BDBC:  MOVLW  56
0BDBE:  MOVWF  FF6
0BDC0:  MOVLW  0F
0BDC2:  MOVWF  FF7
0BDC4:  MOVLW  00
0BDC6:  MOVWF  FF8
0BDC8:  MOVLW  11
0BDCA:  MOVLB  7
0BDCC:  MOVWF  x08
0BDCE:  MOVLB  0
0BDD0:  CALL   628E
0BDD4:  MOVFF  2F0,708
0BDD8:  MOVLW  01
0BDDA:  MOVLB  7
0BDDC:  MOVWF  x09
0BDDE:  MOVLB  0
0BDE0:  CALL   6312
0BDE4:  MOVLW  2F
0BDE6:  BTFSS  F9E.4
0BDE8:  BRA    BDE6
0BDEA:  MOVWF  FAD
0BDEC:  MOVFF  2EF,708
0BDF0:  MOVLW  01
0BDF2:  MOVLB  7
0BDF4:  MOVWF  x09
0BDF6:  MOVLB  0
0BDF8:  CALL   6312
0BDFC:  MOVLW  2F
0BDFE:  BTFSS  F9E.4
0BE00:  BRA    BDFE
0BE02:  MOVWF  FAD
0BE04:  MOVLW  32
0BE06:  BTFSS  F9E.4
0BE08:  BRA    BE06
0BE0A:  MOVWF  FAD
0BE0C:  MOVLW  30
0BE0E:  BTFSS  F9E.4
0BE10:  BRA    BE0E
0BE12:  MOVWF  FAD
0BE14:  MOVFF  2EE,708
0BE18:  MOVLW  01
0BE1A:  MOVLB  7
0BE1C:  MOVWF  x09
0BE1E:  MOVLB  0
0BE20:  CALL   6312
0BE24:  MOVLW  77
0BE26:  MOVWF  FF6
0BE28:  MOVLW  0F
0BE2A:  MOVWF  FF7
0BE2C:  MOVLW  00
0BE2E:  MOVWF  FF8
0BE30:  MOVLW  07
0BE32:  MOVLB  7
0BE34:  MOVWF  x08
0BE36:  MOVLB  0
0BE38:  CALL   628E
0BE3C:  MOVFF  2F1,708
0BE40:  MOVLW  01
0BE42:  MOVLB  7
0BE44:  MOVWF  x09
0BE46:  MOVLB  0
0BE48:  CALL   6312
0BE4C:  MOVLW  3A
0BE4E:  BTFSS  F9E.4
0BE50:  BRA    BE4E
0BE52:  MOVWF  FAD
0BE54:  MOVFF  2F2,708
0BE58:  MOVLW  01
0BE5A:  MOVLB  7
0BE5C:  MOVWF  x09
0BE5E:  MOVLB  0
0BE60:  CALL   6312
0BE64:  MOVLW  3A
0BE66:  BTFSS  F9E.4
0BE68:  BRA    BE66
0BE6A:  MOVWF  FAD
0BE6C:  MOVFF  2F3,708
0BE70:  MOVLW  01
0BE72:  MOVLB  7
0BE74:  MOVWF  x09
0BE76:  MOVLB  0
0BE78:  CALL   6312
0BE7C:  MOVLW  22
0BE7E:  BTFSS  F9E.4
0BE80:  BRA    BE7E
0BE82:  MOVWF  FAD
....................       SendDataDisplay(); 
0BE84:  CALL   4752
....................          if(Pulsos<4) 
0BE88:  MOVLB  3
0BE8A:  MOVF   x01,W
0BE8C:  SUBLW  03
0BE8E:  BNC   BE94
....................             Pulsos=15; 
0BE90:  MOVLW  0F
0BE92:  MOVWF  x01
....................          if(Pulsos>15) 
0BE94:  MOVF   x01,W
0BE96:  SUBLW  0F
0BE98:  BC    BE9E
....................             Pulsos=4; 
0BE9A:  MOVLW  04
0BE9C:  MOVWF  x01
....................           
....................          if(RX_Buffer[4]==0x11){//Selecciono Regresar 
0BE9E:  MOVF   36,W
0BEA0:  SUBLW  11
0BEA2:  BNZ   BF42
....................             Segundos=OFF; 
0BEA4:  MOVLB  1
0BEA6:  BCF    x2D.0
....................             Minutos=OFF;             
0BEA8:  BCF    x2C.7
....................             printf("page CicloPersona"); 
0BEAA:  MOVLW  8E
0BEAC:  MOVWF  FF6
0BEAE:  MOVLW  0F
0BEB0:  MOVWF  FF7
0BEB2:  MOVLW  00
0BEB4:  MOVWF  FF8
0BEB6:  MOVLB  0
0BEB8:  CALL   4720
....................             SendDataDisplay();   
0BEBC:  CALL   4752
....................             if(!GuardaEEPROM){     
0BEC0:  MOVLB  1
0BEC2:  BTFSC  x2D.1
0BEC4:  BRA    BF40
....................                CiclosPersonalizados[CicloLibre-1].PulsosVacio=Pulsos; 
0BEC6:  MOVLW  01
0BEC8:  MOVLB  2
0BECA:  SUBWF  x7E,W
0BECC:  MULLW  08
0BECE:  MOVF   FF3,W
0BED0:  MOVLB  7
0BED2:  CLRF   x03
0BED4:  MOVWF  x02
0BED6:  MOVLW  05
0BED8:  ADDWF  x02,W
0BEDA:  MOVWF  01
0BEDC:  MOVLW  00
0BEDE:  ADDWFC x03,W
0BEE0:  MOVWF  03
0BEE2:  MOVF   01,W
0BEE4:  ADDLW  3A
0BEE6:  MOVWF  FE9
0BEE8:  MOVLW  06
0BEEA:  ADDWFC 03,W
0BEEC:  MOVWF  FEA
0BEEE:  MOVFF  301,FEF
....................                write_eeprom(105+((CicloLibre-1)*8),Pulsos); 
0BEF2:  MOVLW  01
0BEF4:  MOVLB  2
0BEF6:  SUBWF  x7E,W
0BEF8:  MULLW  08
0BEFA:  MOVF   FF3,W
0BEFC:  ADDLW  69
0BEFE:  MOVLB  7
0BF00:  MOVWF  x02
0BF02:  CLRF   FAA
0BF04:  MOVFF  702,FA9
0BF08:  MOVFF  301,FA8
0BF0C:  BCF    FA6.6
0BF0E:  BCF    FA6.7
0BF10:  BSF    FA6.2
0BF12:  MOVF   FF2,W
0BF14:  MOVWF  00
0BF16:  BCF    FF2.6
0BF18:  BCF    FF2.7
0BF1A:  MOVLB  F
0BF1C:  MOVLW  55
0BF1E:  MOVWF  FA7
0BF20:  MOVLW  AA
0BF22:  MOVWF  FA7
0BF24:  BSF    FA6.1
0BF26:  BTFSC  FA6.1
0BF28:  BRA    BF26
0BF2A:  BCF    FA6.2
0BF2C:  MOVF   00,W
0BF2E:  IORWF  FF2,F
....................                delay_ms(20);             
0BF30:  MOVLW  14
0BF32:  MOVLB  7
0BF34:  MOVWF  x18
0BF36:  MOVLB  0
0BF38:  CALL   21D6
....................                //NivelSeleccionado=9990*Nivel; 
....................                GuardaEEPROM=ON; 
0BF3C:  MOVLB  1
0BF3E:  BSF    x2D.1
0BF40:  MOVLB  3
....................             } 
....................          } 
....................           
....................          if(RX_Buffer[4]==0x0d){//Tecla Arriba Oprimida 
0BF42:  MOVF   36,W
0BF44:  SUBLW  0D
0BF46:  BNZ   BF4E
....................             Pulsos++; 
0BF48:  INCF   x01,F
....................             RX_Buffer[4]=0x00;             
0BF4A:  CLRF   36
....................             RX_Buffer2[4]=0x00;             
0BF4C:  CLRF   41
....................             //BorraBuffer(); 
....................          } 
....................           
....................          if(RX_Buffer[4]==0x0c){//Tecla Abajo Oprimida 
0BF4E:  MOVF   36,W
0BF50:  SUBLW  0C
0BF52:  BNZ   BF5A
....................             Pulsos--; 
0BF54:  DECF   x01,F
....................             RX_Buffer[4]=0x00; 
0BF56:  CLRF   36
....................             RX_Buffer2[4]=0x00;             
0BF58:  CLRF   41
....................             //BorraBuffer(); 
....................          } 
....................           
....................       printf("tnivel.txt=\"%u\"",Pulsos); 
0BF5A:  MOVLW  A0
0BF5C:  MOVWF  FF6
0BF5E:  MOVLW  0F
0BF60:  MOVWF  FF7
0BF62:  MOVLW  00
0BF64:  MOVWF  FF8
0BF66:  MOVLW  0C
0BF68:  MOVLB  7
0BF6A:  MOVWF  x08
0BF6C:  MOVLB  0
0BF6E:  CALL   628E
0BF72:  MOVFF  301,708
0BF76:  MOVLW  1B
0BF78:  MOVLB  7
0BF7A:  MOVWF  x09
0BF7C:  MOVLB  0
0BF7E:  CALL   6312
0BF82:  MOVLW  22
0BF84:  BTFSS  F9E.4
0BF86:  BRA    BF84
0BF88:  MOVWF  FAD
....................       SendDataDisplay(); 
0BF8A:  CALL   4752
....................    }else if(Menu==10){//Menu de Usuarios 
0BF8E:  GOTO   ECDA
0BF92:  MOVLB  2
0BF94:  MOVF   xA0,W
0BF96:  SUBLW  0A
0BF98:  BTFSS  FD8.2
0BF9A:  BRA    C450
....................       printf("fecha.txt=\"Fecha:%02u/%02u/20%02u Hora: %02u:%02u:%02u\"",Dia,Mes,Year,Hora,Minuto,Segundo); 
0BF9C:  MOVLW  B0
0BF9E:  MOVWF  FF6
0BFA0:  MOVLW  0F
0BFA2:  MOVWF  FF7
0BFA4:  MOVLW  00
0BFA6:  MOVWF  FF8
0BFA8:  MOVLW  11
0BFAA:  MOVLB  7
0BFAC:  MOVWF  x08
0BFAE:  MOVLB  0
0BFB0:  CALL   628E
0BFB4:  MOVFF  2F0,708
0BFB8:  MOVLW  01
0BFBA:  MOVLB  7
0BFBC:  MOVWF  x09
0BFBE:  MOVLB  0
0BFC0:  CALL   6312
0BFC4:  MOVLW  2F
0BFC6:  BTFSS  F9E.4
0BFC8:  BRA    BFC6
0BFCA:  MOVWF  FAD
0BFCC:  MOVFF  2EF,708
0BFD0:  MOVLW  01
0BFD2:  MOVLB  7
0BFD4:  MOVWF  x09
0BFD6:  MOVLB  0
0BFD8:  CALL   6312
0BFDC:  MOVLW  2F
0BFDE:  BTFSS  F9E.4
0BFE0:  BRA    BFDE
0BFE2:  MOVWF  FAD
0BFE4:  MOVLW  32
0BFE6:  BTFSS  F9E.4
0BFE8:  BRA    BFE6
0BFEA:  MOVWF  FAD
0BFEC:  MOVLW  30
0BFEE:  BTFSS  F9E.4
0BFF0:  BRA    BFEE
0BFF2:  MOVWF  FAD
0BFF4:  MOVFF  2EE,708
0BFF8:  MOVLW  01
0BFFA:  MOVLB  7
0BFFC:  MOVWF  x09
0BFFE:  MOVLB  0
0C000:  CALL   6312
0C004:  MOVLW  D1
0C006:  MOVWF  FF6
0C008:  MOVLW  0F
0C00A:  MOVWF  FF7
0C00C:  MOVLW  00
0C00E:  MOVWF  FF8
0C010:  MOVLW  07
0C012:  MOVLB  7
0C014:  MOVWF  x08
0C016:  MOVLB  0
0C018:  CALL   628E
0C01C:  MOVFF  2F1,708
0C020:  MOVLW  01
0C022:  MOVLB  7
0C024:  MOVWF  x09
0C026:  MOVLB  0
0C028:  CALL   6312
0C02C:  MOVLW  3A
0C02E:  BTFSS  F9E.4
0C030:  BRA    C02E
0C032:  MOVWF  FAD
0C034:  MOVFF  2F2,708
0C038:  MOVLW  01
0C03A:  MOVLB  7
0C03C:  MOVWF  x09
0C03E:  MOVLB  0
0C040:  CALL   6312
0C044:  MOVLW  3A
0C046:  BTFSS  F9E.4
0C048:  BRA    C046
0C04A:  MOVWF  FAD
0C04C:  MOVFF  2F3,708
0C050:  MOVLW  01
0C052:  MOVLB  7
0C054:  MOVWF  x09
0C056:  MOVLB  0
0C058:  CALL   6312
0C05C:  MOVLW  22
0C05E:  BTFSS  F9E.4
0C060:  BRA    C05E
0C062:  MOVWF  FAD
....................       SendDataDisplay(); 
0C064:  CALL   4752
....................       GuardaEEPROM=OFF; 
0C068:  MOVLB  1
0C06A:  BCF    x2D.1
....................       if(ingreso) 
0C06C:  BTFSS  x2E.5
0C06E:  BRA    C078
....................          TipoClave=2; 
0C070:  MOVLW  02
0C072:  MOVLB  2
0C074:  MOVWF  x24
....................       else 
0C076:  BRA    C07C
....................          TipoClave=0; 
0C078:  MOVLB  2
0C07A:  CLRF   x24
....................        
....................       if(RX_Buffer[4]==0x01){//01, Admin 
0C07C:  DECFSZ 36,W
0C07E:  BRA    C0D4
....................          printf("page Clave"); 
0C080:  MOVLW  E8
0C082:  MOVWF  FF6
0C084:  MOVLW  0F
0C086:  MOVWF  FF7
0C088:  MOVLW  00
0C08A:  MOVWF  FF8
0C08C:  MOVLB  0
0C08E:  CALL   4720
....................          SendDataDisplay();        
0C092:  CALL   4752
....................          if(!ingreso){ 
0C096:  MOVLB  1
0C098:  BTFSC  x2E.5
0C09A:  BRA    C0CE
....................             usuario="Admin"; 
0C09C:  MOVLW  03
0C09E:  MOVWF  FEA
0C0A0:  MOVLW  08
0C0A2:  MOVWF  FE9
0C0A4:  MOVFF  FF2,702
0C0A8:  BCF    FF2.6
0C0AA:  BCF    FF2.7
0C0AC:  MOVLW  00
0C0AE:  MOVLB  0
0C0B0:  CALL   0144
0C0B4:  TBLRD*-
0C0B6:  TBLRD*+
0C0B8:  MOVF   FF5,W
0C0BA:  MOVWF  FEE
0C0BC:  IORLW  00
0C0BE:  BNZ   C0B6
0C0C0:  MOVLB  7
0C0C2:  BTFSC  x02.6
0C0C4:  BSF    FF2.6
0C0C6:  BTFSC  x02.7
0C0C8:  BSF    FF2.7
....................             codigoUsuario=0; 
0C0CA:  MOVLB  3
0C0CC:  CLRF   x02
....................          } 
....................          codigoUsuario2=0; 
0C0CE:  MOVLB  2
0C0D0:  CLRF   xDD
....................       }else if(RX_Buffer[4]==0x02){//02, Operador 1 
0C0D2:  BRA    C420
0C0D4:  MOVF   36,W
0C0D6:  SUBLW  02
0C0D8:  BNZ   C132
....................          printf("page Clave"); 
0C0DA:  MOVLW  F4
0C0DC:  MOVWF  FF6
0C0DE:  MOVLW  0F
0C0E0:  MOVWF  FF7
0C0E2:  MOVLW  00
0C0E4:  MOVWF  FF8
0C0E6:  MOVLB  0
0C0E8:  CALL   4720
....................          SendDataDisplay();        
0C0EC:  CALL   4752
....................          if(!ingreso){ 
0C0F0:  MOVLB  1
0C0F2:  BTFSC  x2E.5
0C0F4:  BRA    C12A
....................             usuario="Operador 1"; 
0C0F6:  MOVLW  03
0C0F8:  MOVWF  FEA
0C0FA:  MOVLW  08
0C0FC:  MOVWF  FE9
0C0FE:  MOVFF  FF2,702
0C102:  BCF    FF2.6
0C104:  BCF    FF2.7
0C106:  MOVLW  00
0C108:  MOVLB  0
0C10A:  CALL   016E
0C10E:  TBLRD*-
0C110:  TBLRD*+
0C112:  MOVF   FF5,W
0C114:  MOVWF  FEE
0C116:  IORLW  00
0C118:  BNZ   C110
0C11A:  MOVLB  7
0C11C:  BTFSC  x02.6
0C11E:  BSF    FF2.6
0C120:  BTFSC  x02.7
0C122:  BSF    FF2.7
....................             codigoUsuario=1; 
0C124:  MOVLW  01
0C126:  MOVLB  3
0C128:  MOVWF  x02
....................          } 
....................          codigoUsuario2=1; 
0C12A:  MOVLW  01
0C12C:  MOVLB  2
0C12E:  MOVWF  xDD
....................       }else if(RX_Buffer[4]==0x03){//03, Operador 2 
0C130:  BRA    C420
0C132:  MOVF   36,W
0C134:  SUBLW  03
0C136:  BNZ   C190
....................          printf("page Clave"); 
0C138:  MOVLW  00
0C13A:  MOVWF  FF6
0C13C:  MOVLW  10
0C13E:  MOVWF  FF7
0C140:  MOVLW  00
0C142:  MOVWF  FF8
0C144:  MOVLB  0
0C146:  CALL   4720
....................          SendDataDisplay();        
0C14A:  CALL   4752
....................          if(!ingreso){ 
0C14E:  MOVLB  1
0C150:  BTFSC  x2E.5
0C152:  BRA    C188
....................             usuario="Operador 2"; 
0C154:  MOVLW  03
0C156:  MOVWF  FEA
0C158:  MOVLW  08
0C15A:  MOVWF  FE9
0C15C:  MOVFF  FF2,702
0C160:  BCF    FF2.6
0C162:  BCF    FF2.7
0C164:  MOVLW  00
0C166:  MOVLB  0
0C168:  CALL   019E
0C16C:  TBLRD*-
0C16E:  TBLRD*+
0C170:  MOVF   FF5,W
0C172:  MOVWF  FEE
0C174:  IORLW  00
0C176:  BNZ   C16E
0C178:  MOVLB  7
0C17A:  BTFSC  x02.6
0C17C:  BSF    FF2.6
0C17E:  BTFSC  x02.7
0C180:  BSF    FF2.7
....................             codigoUsuario=2; 
0C182:  MOVLW  02
0C184:  MOVLB  3
0C186:  MOVWF  x02
....................          } 
....................          codigoUsuario2=2; 
0C188:  MOVLW  02
0C18A:  MOVLB  2
0C18C:  MOVWF  xDD
....................       }else if(RX_Buffer[4]==0x04){//04, Operador 3 
0C18E:  BRA    C420
0C190:  MOVF   36,W
0C192:  SUBLW  04
0C194:  BNZ   C1EE
....................          printf("page Clave"); 
0C196:  MOVLW  0C
0C198:  MOVWF  FF6
0C19A:  MOVLW  10
0C19C:  MOVWF  FF7
0C19E:  MOVLW  00
0C1A0:  MOVWF  FF8
0C1A2:  MOVLB  0
0C1A4:  CALL   4720
....................          SendDataDisplay();        
0C1A8:  CALL   4752
....................          if(!ingreso){ 
0C1AC:  MOVLB  1
0C1AE:  BTFSC  x2E.5
0C1B0:  BRA    C1E6
....................             usuario="Operador 3"; 
0C1B2:  MOVLW  03
0C1B4:  MOVWF  FEA
0C1B6:  MOVLW  08
0C1B8:  MOVWF  FE9
0C1BA:  MOVFF  FF2,702
0C1BE:  BCF    FF2.6
0C1C0:  BCF    FF2.7
0C1C2:  MOVLW  00
0C1C4:  MOVLB  0
0C1C6:  CALL   01CE
0C1CA:  TBLRD*-
0C1CC:  TBLRD*+
0C1CE:  MOVF   FF5,W
0C1D0:  MOVWF  FEE
0C1D2:  IORLW  00
0C1D4:  BNZ   C1CC
0C1D6:  MOVLB  7
0C1D8:  BTFSC  x02.6
0C1DA:  BSF    FF2.6
0C1DC:  BTFSC  x02.7
0C1DE:  BSF    FF2.7
....................             codigoUsuario=3; 
0C1E0:  MOVLW  03
0C1E2:  MOVLB  3
0C1E4:  MOVWF  x02
....................          } 
....................          codigoUsuario2=3; 
0C1E6:  MOVLW  03
0C1E8:  MOVLB  2
0C1EA:  MOVWF  xDD
....................       }else if(RX_Buffer[4]==0x05){//05, Operador 4 
0C1EC:  BRA    C420
0C1EE:  MOVF   36,W
0C1F0:  SUBLW  05
0C1F2:  BNZ   C24C
....................          printf("page Clave"); 
0C1F4:  MOVLW  18
0C1F6:  MOVWF  FF6
0C1F8:  MOVLW  10
0C1FA:  MOVWF  FF7
0C1FC:  MOVLW  00
0C1FE:  MOVWF  FF8
0C200:  MOVLB  0
0C202:  CALL   4720
....................          SendDataDisplay();        
0C206:  CALL   4752
....................          if(!ingreso){ 
0C20A:  MOVLB  1
0C20C:  BTFSC  x2E.5
0C20E:  BRA    C244
....................             usuario="Operador 4"; 
0C210:  MOVLW  03
0C212:  MOVWF  FEA
0C214:  MOVLW  08
0C216:  MOVWF  FE9
0C218:  MOVFF  FF2,702
0C21C:  BCF    FF2.6
0C21E:  BCF    FF2.7
0C220:  MOVLW  00
0C222:  MOVLB  0
0C224:  CALL   01FE
0C228:  TBLRD*-
0C22A:  TBLRD*+
0C22C:  MOVF   FF5,W
0C22E:  MOVWF  FEE
0C230:  IORLW  00
0C232:  BNZ   C22A
0C234:  MOVLB  7
0C236:  BTFSC  x02.6
0C238:  BSF    FF2.6
0C23A:  BTFSC  x02.7
0C23C:  BSF    FF2.7
....................             codigoUsuario=4; 
0C23E:  MOVLW  04
0C240:  MOVLB  3
0C242:  MOVWF  x02
....................          } 
....................          codigoUsuario2=4; 
0C244:  MOVLW  04
0C246:  MOVLB  2
0C248:  MOVWF  xDD
....................       }else if(RX_Buffer[4]==0x06){//06, Operador 5 
0C24A:  BRA    C420
0C24C:  MOVF   36,W
0C24E:  SUBLW  06
0C250:  BNZ   C2AA
....................          printf("page Clave"); 
0C252:  MOVLW  24
0C254:  MOVWF  FF6
0C256:  MOVLW  10
0C258:  MOVWF  FF7
0C25A:  MOVLW  00
0C25C:  MOVWF  FF8
0C25E:  MOVLB  0
0C260:  CALL   4720
....................          SendDataDisplay();        
0C264:  CALL   4752
....................          if(!ingreso){ 
0C268:  MOVLB  1
0C26A:  BTFSC  x2E.5
0C26C:  BRA    C2A2
....................             usuario="Operador 5"; 
0C26E:  MOVLW  03
0C270:  MOVWF  FEA
0C272:  MOVLW  08
0C274:  MOVWF  FE9
0C276:  MOVFF  FF2,702
0C27A:  BCF    FF2.6
0C27C:  BCF    FF2.7
0C27E:  MOVLW  00
0C280:  MOVLB  0
0C282:  CALL   022E
0C286:  TBLRD*-
0C288:  TBLRD*+
0C28A:  MOVF   FF5,W
0C28C:  MOVWF  FEE
0C28E:  IORLW  00
0C290:  BNZ   C288
0C292:  MOVLB  7
0C294:  BTFSC  x02.6
0C296:  BSF    FF2.6
0C298:  BTFSC  x02.7
0C29A:  BSF    FF2.7
....................             codigoUsuario=5; 
0C29C:  MOVLW  05
0C29E:  MOVLB  3
0C2A0:  MOVWF  x02
....................          } 
....................          codigoUsuario2=5; 
0C2A2:  MOVLW  05
0C2A4:  MOVLB  2
0C2A6:  MOVWF  xDD
....................       }else if(RX_Buffer[4]==0x07){//07, Operador 6 
0C2A8:  BRA    C420
0C2AA:  MOVF   36,W
0C2AC:  SUBLW  07
0C2AE:  BNZ   C308
....................          printf("page Clave"); 
0C2B0:  MOVLW  30
0C2B2:  MOVWF  FF6
0C2B4:  MOVLW  10
0C2B6:  MOVWF  FF7
0C2B8:  MOVLW  00
0C2BA:  MOVWF  FF8
0C2BC:  MOVLB  0
0C2BE:  CALL   4720
....................          SendDataDisplay();        
0C2C2:  CALL   4752
....................          if(!ingreso){ 
0C2C6:  MOVLB  1
0C2C8:  BTFSC  x2E.5
0C2CA:  BRA    C300
....................             usuario="Operador 6"; 
0C2CC:  MOVLW  03
0C2CE:  MOVWF  FEA
0C2D0:  MOVLW  08
0C2D2:  MOVWF  FE9
0C2D4:  MOVFF  FF2,702
0C2D8:  BCF    FF2.6
0C2DA:  BCF    FF2.7
0C2DC:  MOVLW  00
0C2DE:  MOVLB  0
0C2E0:  CALL   025E
0C2E4:  TBLRD*-
0C2E6:  TBLRD*+
0C2E8:  MOVF   FF5,W
0C2EA:  MOVWF  FEE
0C2EC:  IORLW  00
0C2EE:  BNZ   C2E6
0C2F0:  MOVLB  7
0C2F2:  BTFSC  x02.6
0C2F4:  BSF    FF2.6
0C2F6:  BTFSC  x02.7
0C2F8:  BSF    FF2.7
....................             codigoUsuario=6; 
0C2FA:  MOVLW  06
0C2FC:  MOVLB  3
0C2FE:  MOVWF  x02
....................          } 
....................          codigoUsuario2=6; 
0C300:  MOVLW  06
0C302:  MOVLB  2
0C304:  MOVWF  xDD
....................       }else if(RX_Buffer[4]==0x08){//08, Operador 7 
0C306:  BRA    C420
0C308:  MOVF   36,W
0C30A:  SUBLW  08
0C30C:  BNZ   C366
....................          printf("page Clave"); 
0C30E:  MOVLW  3C
0C310:  MOVWF  FF6
0C312:  MOVLW  10
0C314:  MOVWF  FF7
0C316:  MOVLW  00
0C318:  MOVWF  FF8
0C31A:  MOVLB  0
0C31C:  CALL   4720
....................          SendDataDisplay();        
0C320:  CALL   4752
....................          if(!ingreso){ 
0C324:  MOVLB  1
0C326:  BTFSC  x2E.5
0C328:  BRA    C35E
....................             usuario="Operador 7"; 
0C32A:  MOVLW  03
0C32C:  MOVWF  FEA
0C32E:  MOVLW  08
0C330:  MOVWF  FE9
0C332:  MOVFF  FF2,702
0C336:  BCF    FF2.6
0C338:  BCF    FF2.7
0C33A:  MOVLW  00
0C33C:  MOVLB  0
0C33E:  CALL   028E
0C342:  TBLRD*-
0C344:  TBLRD*+
0C346:  MOVF   FF5,W
0C348:  MOVWF  FEE
0C34A:  IORLW  00
0C34C:  BNZ   C344
0C34E:  MOVLB  7
0C350:  BTFSC  x02.6
0C352:  BSF    FF2.6
0C354:  BTFSC  x02.7
0C356:  BSF    FF2.7
....................             codigoUsuario=7; 
0C358:  MOVLW  07
0C35A:  MOVLB  3
0C35C:  MOVWF  x02
....................          } 
....................          codigoUsuario2=7; 
0C35E:  MOVLW  07
0C360:  MOVLB  2
0C362:  MOVWF  xDD
....................       }else if(RX_Buffer[4]==0x09){//09, Operador 8 
0C364:  BRA    C420
0C366:  MOVF   36,W
0C368:  SUBLW  09
0C36A:  BNZ   C3C4
....................          printf("page Clave"); 
0C36C:  MOVLW  48
0C36E:  MOVWF  FF6
0C370:  MOVLW  10
0C372:  MOVWF  FF7
0C374:  MOVLW  00
0C376:  MOVWF  FF8
0C378:  MOVLB  0
0C37A:  CALL   4720
....................          SendDataDisplay();        
0C37E:  CALL   4752
....................          if(!ingreso){ 
0C382:  MOVLB  1
0C384:  BTFSC  x2E.5
0C386:  BRA    C3BC
....................             usuario="Operador 8"; 
0C388:  MOVLW  03
0C38A:  MOVWF  FEA
0C38C:  MOVLW  08
0C38E:  MOVWF  FE9
0C390:  MOVFF  FF2,702
0C394:  BCF    FF2.6
0C396:  BCF    FF2.7
0C398:  MOVLW  00
0C39A:  MOVLB  0
0C39C:  CALL   02BE
0C3A0:  TBLRD*-
0C3A2:  TBLRD*+
0C3A4:  MOVF   FF5,W
0C3A6:  MOVWF  FEE
0C3A8:  IORLW  00
0C3AA:  BNZ   C3A2
0C3AC:  MOVLB  7
0C3AE:  BTFSC  x02.6
0C3B0:  BSF    FF2.6
0C3B2:  BTFSC  x02.7
0C3B4:  BSF    FF2.7
....................             codigoUsuario=8; 
0C3B6:  MOVLW  08
0C3B8:  MOVLB  3
0C3BA:  MOVWF  x02
....................          } 
....................          codigoUsuario2=8; 
0C3BC:  MOVLW  08
0C3BE:  MOVLB  2
0C3C0:  MOVWF  xDD
....................       }else if(RX_Buffer[4]==0x0a){//0a, Tecnico 
0C3C2:  BRA    C420
0C3C4:  MOVF   36,W
0C3C6:  SUBLW  0A
0C3C8:  BNZ   C420
....................          printf("page Clave"); 
0C3CA:  MOVLW  54
0C3CC:  MOVWF  FF6
0C3CE:  MOVLW  10
0C3D0:  MOVWF  FF7
0C3D2:  MOVLW  00
0C3D4:  MOVWF  FF8
0C3D6:  MOVLB  0
0C3D8:  CALL   4720
....................          SendDataDisplay();        
0C3DC:  CALL   4752
....................          if(!ingreso){ 
0C3E0:  MOVLB  1
0C3E2:  BTFSC  x2E.5
0C3E4:  BRA    C41A
....................             usuario="Tecnico"; 
0C3E6:  MOVLW  03
0C3E8:  MOVWF  FEA
0C3EA:  MOVLW  08
0C3EC:  MOVWF  FE9
0C3EE:  MOVFF  FF2,702
0C3F2:  BCF    FF2.6
0C3F4:  BCF    FF2.7
0C3F6:  MOVLW  00
0C3F8:  MOVLB  0
0C3FA:  CALL   02EE
0C3FE:  TBLRD*-
0C400:  TBLRD*+
0C402:  MOVF   FF5,W
0C404:  MOVWF  FEE
0C406:  IORLW  00
0C408:  BNZ   C400
0C40A:  MOVLB  7
0C40C:  BTFSC  x02.6
0C40E:  BSF    FF2.6
0C410:  BTFSC  x02.7
0C412:  BSF    FF2.7
....................             codigoUsuario=9; 
0C414:  MOVLW  09
0C416:  MOVLB  3
0C418:  MOVWF  x02
....................          } 
....................          codigoUsuario2=9; 
0C41A:  MOVLW  09
0C41C:  MOVLB  2
0C41E:  MOVWF  xDD
....................       } 
....................        
....................       if(RX_Buffer[4]==0xaa && ingreso){//aa, Regresar 
0C420:  MOVF   36,W
0C422:  SUBLW  AA
0C424:  BNZ   C44C
0C426:  MOVLB  1
0C428:  BTFSC  x2E.5
0C42A:  BRA    C430
0C42C:  MOVLB  2
0C42E:  BRA    C44C
....................          printf("page Ajustes"); 
0C430:  MOVLW  60
0C432:  MOVWF  FF6
0C434:  MOVLW  10
0C436:  MOVWF  FF7
0C438:  MOVLW  00
0C43A:  MOVWF  FF8
0C43C:  MOVLB  0
0C43E:  CALL   4720
....................          SendDataDisplay();        
0C442:  CALL   4752
....................          codigoUsuario2=10; 
0C446:  MOVLW  0A
0C448:  MOVLB  2
0C44A:  MOVWF  xDD
....................       } 
....................    }else if(Menu==11){//Menu de Configuraciones 
0C44C:  GOTO   ECDC
0C450:  MOVF   xA0,W
0C452:  SUBLW  0B
0C454:  BTFSS  FD8.2
0C456:  BRA    C69A
....................       tConfig=0; 
0C458:  MOVLB  1
0C45A:  CLRF   x45
0C45C:  CLRF   x44
....................       oprimioConfig=OFF; 
0C45E:  BCF    x2A.4
....................       printf("fecha.txt=\"Fecha:%02u/%02u/20%02u Hora: %02u:%02u:%02u\"",Dia,Mes,Year,Hora,Minuto,Segundo); 
0C460:  MOVLW  6E
0C462:  MOVWF  FF6
0C464:  MOVLW  10
0C466:  MOVWF  FF7
0C468:  MOVLW  00
0C46A:  MOVWF  FF8
0C46C:  MOVLW  11
0C46E:  MOVLB  7
0C470:  MOVWF  x08
0C472:  MOVLB  0
0C474:  CALL   628E
0C478:  MOVFF  2F0,708
0C47C:  MOVLW  01
0C47E:  MOVLB  7
0C480:  MOVWF  x09
0C482:  MOVLB  0
0C484:  CALL   6312
0C488:  MOVLW  2F
0C48A:  BTFSS  F9E.4
0C48C:  BRA    C48A
0C48E:  MOVWF  FAD
0C490:  MOVFF  2EF,708
0C494:  MOVLW  01
0C496:  MOVLB  7
0C498:  MOVWF  x09
0C49A:  MOVLB  0
0C49C:  CALL   6312
0C4A0:  MOVLW  2F
0C4A2:  BTFSS  F9E.4
0C4A4:  BRA    C4A2
0C4A6:  MOVWF  FAD
0C4A8:  MOVLW  32
0C4AA:  BTFSS  F9E.4
0C4AC:  BRA    C4AA
0C4AE:  MOVWF  FAD
0C4B0:  MOVLW  30
0C4B2:  BTFSS  F9E.4
0C4B4:  BRA    C4B2
0C4B6:  MOVWF  FAD
0C4B8:  MOVFF  2EE,708
0C4BC:  MOVLW  01
0C4BE:  MOVLB  7
0C4C0:  MOVWF  x09
0C4C2:  MOVLB  0
0C4C4:  CALL   6312
0C4C8:  MOVLW  8F
0C4CA:  MOVWF  FF6
0C4CC:  MOVLW  10
0C4CE:  MOVWF  FF7
0C4D0:  MOVLW  00
0C4D2:  MOVWF  FF8
0C4D4:  MOVLW  07
0C4D6:  MOVLB  7
0C4D8:  MOVWF  x08
0C4DA:  MOVLB  0
0C4DC:  CALL   628E
0C4E0:  MOVFF  2F1,708
0C4E4:  MOVLW  01
0C4E6:  MOVLB  7
0C4E8:  MOVWF  x09
0C4EA:  MOVLB  0
0C4EC:  CALL   6312
0C4F0:  MOVLW  3A
0C4F2:  BTFSS  F9E.4
0C4F4:  BRA    C4F2
0C4F6:  MOVWF  FAD
0C4F8:  MOVFF  2F2,708
0C4FC:  MOVLW  01
0C4FE:  MOVLB  7
0C500:  MOVWF  x09
0C502:  MOVLB  0
0C504:  CALL   6312
0C508:  MOVLW  3A
0C50A:  BTFSS  F9E.4
0C50C:  BRA    C50A
0C50E:  MOVWF  FAD
0C510:  MOVFF  2F3,708
0C514:  MOVLW  01
0C516:  MOVLB  7
0C518:  MOVWF  x09
0C51A:  MOVLB  0
0C51C:  CALL   6312
0C520:  MOVLW  22
0C522:  BTFSS  F9E.4
0C524:  BRA    C522
0C526:  MOVWF  FAD
....................       SendDataDisplay(); 
0C528:  CALL   4752
....................       GuardaEEPROM=OFF; 
0C52C:  MOVLB  1
0C52E:  BCF    x2D.1
....................       printf("tuser.txt=\"%s\"",usuario); 
0C530:  MOVLW  A6
0C532:  MOVWF  FF6
0C534:  MOVLW  10
0C536:  MOVWF  FF7
0C538:  MOVLW  00
0C53A:  MOVWF  FF8
0C53C:  MOVLW  0B
0C53E:  MOVLB  7
0C540:  MOVWF  x08
0C542:  MOVLB  0
0C544:  CALL   628E
0C548:  MOVLW  03
0C54A:  MOVWF  FEA
0C54C:  MOVLW  08
0C54E:  MOVWF  FE9
0C550:  CALL   62C0
0C554:  MOVLW  22
0C556:  BTFSS  F9E.4
0C558:  BRA    C556
0C55A:  MOVWF  FAD
....................       SendDataDisplay(); 
0C55C:  CALL   4752
....................       TipoClave=0; 
0C560:  MOVLB  2
0C562:  CLRF   x24
....................        
....................       if(RX_Buffer[4]==0x01){//01, Ciclos 
0C564:  DECFSZ 36,W
0C566:  BRA    C580
....................          printf("page Ciclos"); 
0C568:  MOVLW  B6
0C56A:  MOVWF  FF6
0C56C:  MOVLW  10
0C56E:  MOVWF  FF7
0C570:  MOVLW  00
0C572:  MOVWF  FF8
0C574:  MOVLB  0
0C576:  CALL   4720
....................          SendDataDisplay();      
0C57A:  CALL   4752
0C57E:  MOVLB  2
....................       } 
....................        
....................       if(RX_Buffer[4]==0x02){//02, Test de Componentes 
0C580:  MOVF   36,W
0C582:  SUBLW  02
0C584:  BNZ   C59E
....................          printf("page Test"); 
0C586:  MOVLW  C2
0C588:  MOVWF  FF6
0C58A:  MOVLW  10
0C58C:  MOVWF  FF7
0C58E:  MOVLW  00
0C590:  MOVWF  FF8
0C592:  MOVLB  0
0C594:  CALL   4720
....................          SendDataDisplay();      
0C598:  CALL   4752
0C59C:  MOVLB  2
....................       } 
....................        
....................       if(RX_Buffer[4]==0x03){//03, Modificacin de clave Usuarios 
0C59E:  MOVF   36,W
0C5A0:  SUBLW  03
0C5A2:  BNZ   C5BC
....................          printf("page Usuarios"); 
0C5A4:  MOVLW  CC
0C5A6:  MOVWF  FF6
0C5A8:  MOVLW  10
0C5AA:  MOVWF  FF7
0C5AC:  MOVLW  00
0C5AE:  MOVWF  FF8
0C5B0:  MOVLB  0
0C5B2:  CALL   4720
....................          SendDataDisplay();      
0C5B6:  CALL   4752
0C5BA:  MOVLB  2
....................       } 
....................        
....................       if(RX_Buffer[4]==0x04){//03, Modificacin de clave Usuarios 
0C5BC:  MOVF   36,W
0C5BE:  SUBLW  04
0C5C0:  BNZ   C5DA
....................          printf("page Activa"); 
0C5C2:  MOVLW  DA
0C5C4:  MOVWF  FF6
0C5C6:  MOVLW  10
0C5C8:  MOVWF  FF7
0C5CA:  MOVLW  00
0C5CC:  MOVWF  FF8
0C5CE:  MOVLB  0
0C5D0:  CALL   4720
....................          SendDataDisplay();      
0C5D4:  CALL   4752
0C5D8:  MOVLB  2
....................       } 
....................        
....................       if(RX_Buffer[4]==0x11 && CodigoUsuario==9){//11, Menu Oculto Tecnico 
0C5DA:  MOVF   36,W
0C5DC:  SUBLW  11
0C5DE:  BNZ   C60A
0C5E0:  MOVLB  3
0C5E2:  MOVF   x02,W
0C5E4:  SUBLW  09
0C5E6:  BTFSC  FD8.2
0C5E8:  BRA    C5EE
0C5EA:  MOVLB  2
0C5EC:  BRA    C60A
....................          printf("page Clave"); 
0C5EE:  MOVLW  E6
0C5F0:  MOVWF  FF6
0C5F2:  MOVLW  10
0C5F4:  MOVWF  FF7
0C5F6:  MOVLW  00
0C5F8:  MOVWF  FF8
0C5FA:  MOVLB  0
0C5FC:  CALL   4720
....................          SendDataDisplay();  
0C600:  CALL   4752
....................          TipoClave=1; 
0C604:  MOVLW  01
0C606:  MOVLB  2
0C608:  MOVWF  x24
....................       } 
....................        
....................       if(RX_Buffer[4]==0x05){//05, Hora y Fecha 
0C60A:  MOVF   36,W
0C60C:  SUBLW  05
0C60E:  BNZ   C63C
....................          printf("page Fecha"); 
0C610:  MOVLW  F2
0C612:  MOVWF  FF6
0C614:  MOVLW  10
0C616:  MOVWF  FF7
0C618:  MOVLW  00
0C61A:  MOVWF  FF8
0C61C:  MOVLB  0
0C61E:  CALL   4720
....................          SendDataDisplay();      
0C622:  CALL   4752
....................          DiaTx=Dia; 
0C626:  MOVFF  2F0,2FB
....................          MesTx=Mes; 
0C62A:  MOVFF  2EF,2FA
....................          YearTx=Year; 
0C62E:  MOVFF  2EE,2F9
....................          HoraTx=Hora; 
0C632:  MOVFF  2F1,2FC
....................          MinutoTx=Minuto; 
0C636:  MOVFF  2F2,2FD
0C63A:  MOVLB  2
....................       } 
....................        
....................       if(RX_Buffer[4]==0xa0){//a0, Menu Principal 
0C63C:  MOVF   36,W
0C63E:  SUBLW  A0
0C640:  BNZ   C65A
....................          printf("page Menu"); 
0C642:  MOVLW  FE
0C644:  MOVWF  FF6
0C646:  MOVLW  10
0C648:  MOVWF  FF7
0C64A:  MOVLW  00
0C64C:  MOVWF  FF8
0C64E:  MOVLB  0
0C650:  CALL   4720
....................          SendDataDisplay();      
0C654:  CALL   4752
0C658:  MOVLB  2
....................       } 
....................        
....................       if(RX_Buffer[4]==0xb0){//b0, Personalizados 
0C65A:  MOVF   36,W
0C65C:  SUBLW  B0
0C65E:  BNZ   C678
....................          printf("page CicloPersona"); 
0C660:  MOVLW  08
0C662:  MOVWF  FF6
0C664:  MOVLW  11
0C666:  MOVWF  FF7
0C668:  MOVLW  00
0C66A:  MOVWF  FF8
0C66C:  MOVLB  0
0C66E:  CALL   4720
....................          SendDataDisplay();      
0C672:  CALL   4752
0C676:  MOVLB  2
....................       } 
....................        
....................       if(RX_Buffer[4]==0xc0){//c0, Configuraciones 
0C678:  MOVF   36,W
0C67A:  SUBLW  C0
0C67C:  BNZ   C696
....................          printf("page Ajustes"); 
0C67E:  MOVLW  1A
0C680:  MOVWF  FF6
0C682:  MOVLW  11
0C684:  MOVWF  FF7
0C686:  MOVLW  00
0C688:  MOVWF  FF8
0C68A:  MOVLB  0
0C68C:  CALL   4720
....................          SendDataDisplay();      
0C690:  CALL   4752
0C694:  MOVLB  2
....................       } 
....................    }else if(Menu==12){//Menu de Visualizacion de Ciclos Realizados 
0C696:  GOTO   ECDC
0C69A:  MOVF   xA0,W
0C69C:  SUBLW  0C
0C69E:  BTFSS  FD8.2
0C6A0:  BRA    CC2A
....................       //printf("fecha.txt=\"Fecha:%02u/%02u/20%02u    Hora: %02u:%02u\"",Dia,Mes,Year,Hora,Minuto); 
....................       //SendDataDisplay(); 
....................       GuardaEEPROM=OFF; 
0C6A2:  MOVLB  1
0C6A4:  BCF    x2D.1
....................        
....................       i2c_start();            // Comienzo de la comunicacin 
0C6A6:  BSF    F94.4
0C6A8:  MOVLW  05
0C6AA:  MOVWF  00
0C6AC:  DECFSZ 00,F
0C6AE:  BRA    C6AC
0C6B0:  BSF    F94.3
0C6B2:  MOVLW  06
0C6B4:  MOVWF  00
0C6B6:  DECFSZ 00,F
0C6B8:  BRA    C6B6
0C6BA:  BCF    F8B.4
0C6BC:  BCF    F94.4
0C6BE:  MOVLW  05
0C6C0:  MOVWF  00
0C6C2:  DECFSZ 00,F
0C6C4:  BRA    C6C2
0C6C6:  BCF    F8B.3
0C6C8:  BCF    F94.3
....................       i2c_write(0xB0);   // Direccin del esclavo en el bus I2C 
0C6CA:  MOVLW  B0
0C6CC:  MOVLB  7
0C6CE:  MOVWF  x20
0C6D0:  MOVLB  0
0C6D2:  CALL   23F2
....................       i2c_write(9);    // Posicin de donde se leer el dato en el esclavo 
0C6D6:  MOVLW  09
0C6D8:  MOVLB  7
0C6DA:  MOVWF  x20
0C6DC:  MOVLB  0
0C6DE:  CALL   23F2
....................       i2c_write(0);    // Posicin de donde se leer el dato en el esclavo 
0C6E2:  MOVLB  7
0C6E4:  CLRF   x20
0C6E6:  MOVLB  0
0C6E8:  CALL   23F2
....................       i2c_start();            // Reinicio 
0C6EC:  BSF    F94.4
0C6EE:  MOVLW  05
0C6F0:  MOVWF  00
0C6F2:  DECFSZ 00,F
0C6F4:  BRA    C6F2
0C6F6:  BSF    F94.3
0C6F8:  MOVLW  06
0C6FA:  MOVWF  00
0C6FC:  DECFSZ 00,F
0C6FE:  BRA    C6FC
0C700:  BTFSS  F82.3
0C702:  BRA    C700
0C704:  BCF    F8B.4
0C706:  BCF    F94.4
0C708:  MOVLW  05
0C70A:  MOVWF  00
0C70C:  DECFSZ 00,F
0C70E:  BRA    C70C
0C710:  BCF    F8B.3
0C712:  BCF    F94.3
....................       i2c_write(direccion+1); // Direccin del esclavo en modo lectura 
0C714:  MOVLW  01
0C716:  MOVLB  1
0C718:  ADDWF  x05,W
0C71A:  MOVLB  7
0C71C:  MOVWF  x02
0C71E:  MOVWF  x20
0C720:  MOVLB  0
0C722:  CALL   23F2
....................       dato=i2c_read(0);       // Lectura del dato 
0C726:  CLRF   00
0C728:  CALL   2468
0C72C:  MOVFF  01,104
....................       i2c_stop(); 
0C730:  BCF    F94.4
0C732:  NOP   
0C734:  BSF    F94.3
0C736:  BTFSS  F82.3
0C738:  BRA    C736
0C73A:  MOVLW  05
0C73C:  MOVWF  00
0C73E:  DECFSZ 00,F
0C740:  BRA    C73E
0C742:  BRA    C744
0C744:  NOP   
0C746:  BSF    F94.4
0C748:  MOVLW  05
0C74A:  MOVWF  00
0C74C:  DECFSZ 00,F
0C74E:  BRA    C74C
....................        
....................       printf("estado.txt=\"Oprima Exportar para imprimir\""); 
0C750:  MOVLW  28
0C752:  MOVWF  FF6
0C754:  MOVLW  11
0C756:  MOVWF  FF7
0C758:  MOVLW  00
0C75A:  MOVWF  FF8
0C75C:  CALL   4720
....................       SendDataDisplay();      
0C760:  CALL   4752
....................        
....................       if(RX_Buffer[6]==0x01){//01, Ciclos 
0C764:  DECFSZ 38,W
0C766:  BRA    C77C
....................          printf("page Menu"); 
0C768:  MOVLW  54
0C76A:  MOVWF  FF6
0C76C:  MOVLW  11
0C76E:  MOVWF  FF7
0C770:  MOVLW  00
0C772:  MOVWF  FF8
0C774:  CALL   4720
....................          SendDataDisplay();      
0C778:  CALL   4752
....................       } 
....................        
....................       /* 
....................       if(RX_Buffer[6]==0x02){//02, Izquierda 
....................          RX_Buffer[6]=0x00;   
....................          RX_Buffer2[6]=0x00; 
....................          if(cicloVisto>0) 
....................             cicloVisto--; 
....................          printf("h0.val=%Lu",cicloVisto); 
....................          SendDataDisplay();      
....................          actualizaTabla(); 
....................       } 
....................        
....................       if(RX_Buffer[6]==0x03){//03, Arriba 
....................          RX_Buffer[6]=0x00;   
....................          RX_Buffer2[6]=0x00; 
....................          if(cicloVisualizado<28) 
....................             cicloVisualizado++; 
....................          printf("h1.val=%Lu",cicloVisualizado); 
....................          SendDataDisplay();     
....................          actualizaTabla(); 
....................          //exportarData(); 
....................       } 
....................        
....................       if(RX_Buffer[6]==0x04){//04, Abajo 
....................          RX_Buffer[6]=0x00;   
....................          RX_Buffer2[6]=0x00; 
....................          if(cicloVisualizado>0) 
....................             cicloVisualizado--; 
....................          printf("h1.val=%Lu",cicloVisualizado); 
....................          SendDataDisplay();   
....................          actualizaTabla(); 
....................          //exportarData(); 
....................       } 
....................        
....................       if(RX_Buffer[6]==0x05){//05, Derecha 
....................          RX_Buffer[6]=0x00;   
....................          RX_Buffer2[6]=0x00; 
....................          if(cicloVisto<200) 
....................             cicloVisto++; 
....................          printf("h0.val=%Lu",cicloVisto); 
....................          SendDataDisplay();   
....................          actualizaTabla(); 
....................          //exportarData(); 
....................       } 
....................       */ 
....................       if(RX_Buffer[6]==0x02){//02, Imprime 
0C77C:  MOVF   38,W
0C77E:  SUBLW  02
0C780:  BNZ   C79E
....................          RX_Buffer[6]=0x00;   
0C782:  CLRF   38
....................          RX_Buffer2[6]=0x00; 
0C784:  CLRF   43
....................          printf("estado.txt=\"!IMPRIMIENDO!\""); 
0C786:  MOVLW  5E
0C788:  MOVWF  FF6
0C78A:  MOVLW  11
0C78C:  MOVWF  FF7
0C78E:  MOVLW  00
0C790:  MOVWF  FF8
0C792:  CALL   4720
....................          SendDataDisplay();  
0C796:  CALL   4752
....................          exportarData(); 
0C79A:  GOTO   6F0C
....................       } 
....................        
....................       if(RX_Buffer[4]>0x00 || RX_Buffer[5]>0x00 || UP || DOWN || RIGHT || LEFT){ 
0C79E:  MOVF   36,F
0C7A0:  BNZ   C7BE
0C7A2:  MOVF   37,F
0C7A4:  BNZ   C7BE
0C7A6:  BSF    F93.4
0C7A8:  BTFSS  F81.4
0C7AA:  BRA    C7BE
0C7AC:  BSF    F93.5
0C7AE:  BTFSS  F81.5
0C7B0:  BRA    C7BE
0C7B2:  BSF    F93.6
0C7B4:  BTFSS  F81.6
0C7B6:  BRA    C7BE
0C7B8:  BSF    F93.7
0C7BA:  BTFSC  F81.7
0C7BC:  BRA    C7DE
....................          /* 
....................          if(UP){ 
....................             if(cicloVisualizado<28){ 
....................                cicloVisualizado++; 
....................             } 
....................             delay_ms(20); 
....................             printf("h0.val=%Lu",cicloVisto+1); 
....................             SendDataDisplay();    
....................             printf("h1.val=%Lu",cicloVisualizado+1); 
....................             SendDataDisplay();  
....................          }else if(DOWN){ 
....................             if(cicloVisualizado>0){ 
....................                cicloVisualizado--; 
....................             } 
....................             delay_ms(20); 
....................             printf("h0.val=%Lu",cicloVisto+1); 
....................             SendDataDisplay();    
....................             printf("h1.val=%Lu",cicloVisualizado+1); 
....................             SendDataDisplay();  
....................          }else if(RIGHT){ 
....................             if(cicloVisto<200){ 
....................                cicloVisto++; 
....................             } 
....................             delay_ms(20); 
....................             printf("h0.val=%Lu",cicloVisto+1); 
....................             SendDataDisplay();    
....................             printf("h1.val=%Lu",cicloVisualizado+1); 
....................             SendDataDisplay();  
....................          }else if(LEFT){ 
....................             if(cicloVisto>0){ 
....................                cicloVisto--; 
....................             } 
....................             delay_ms(20); 
....................             printf("h0.val=%Lu",cicloVisto+1); 
....................             SendDataDisplay();    
....................             printf("h1.val=%Lu",cicloVisualizado+1); 
....................             SendDataDisplay();  
....................          }else{ 
....................          */ 
....................             cicloVisualizado=RX_Buffer[4]-1; 
0C7BE:  MOVLW  01
0C7C0:  SUBWF  36,W
0C7C2:  MOVLB  2
0C7C4:  MOVWF  xE4
0C7C6:  CLRF   xE5
....................             cicloVisto=RX_Buffer[5]-1; 
0C7C8:  MOVLW  01
0C7CA:  SUBWF  37,W
0C7CC:  MOVWF  xE6
0C7CE:  CLRF   xE7
....................             RX_Buffer[4]=0x00; 
0C7D0:  CLRF   36
....................             RX_Buffer[5]=0x00; 
0C7D2:  CLRF   37
....................             RX_Buffer2[4]=0x00; 
0C7D4:  CLRF   41
....................             RX_Buffer2[5]=0x00; 
0C7D6:  CLRF   42
....................          //} 
....................          actualizaTabla();   
0C7D8:  MOVLB  0
0C7DA:  GOTO   72F2
....................       } 
....................        
....................       //Imprime Valores Estaticos 
....................       printf("fecha.txt=\"%02u/%02u/%02u\"",diaCiclos,mesCiclos,yearCiclos); 
0C7DE:  MOVLW  7A
0C7E0:  MOVWF  FF6
0C7E2:  MOVLW  11
0C7E4:  MOVWF  FF7
0C7E6:  MOVLW  00
0C7E8:  MOVWF  FF8
0C7EA:  MOVLW  0B
0C7EC:  MOVLB  7
0C7EE:  MOVWF  x08
0C7F0:  MOVLB  0
0C7F2:  CALL   628E
0C7F6:  MOVFF  369,708
0C7FA:  MOVLW  01
0C7FC:  MOVLB  7
0C7FE:  MOVWF  x09
0C800:  MOVLB  0
0C802:  CALL   6312
0C806:  MOVLW  2F
0C808:  BTFSS  F9E.4
0C80A:  BRA    C808
0C80C:  MOVWF  FAD
0C80E:  MOVFF  36A,708
0C812:  MOVLW  01
0C814:  MOVLB  7
0C816:  MOVWF  x09
0C818:  MOVLB  0
0C81A:  CALL   6312
0C81E:  MOVLW  2F
0C820:  BTFSS  F9E.4
0C822:  BRA    C820
0C824:  MOVWF  FAD
0C826:  MOVFF  36B,708
0C82A:  MOVLW  01
0C82C:  MOVLB  7
0C82E:  MOVWF  x09
0C830:  MOVLB  0
0C832:  CALL   6312
0C836:  MOVLW  22
0C838:  BTFSS  F9E.4
0C83A:  BRA    C838
0C83C:  MOVWF  FAD
....................       SendDataDisplay(); 
0C83E:  CALL   4752
....................        
....................       printf("ciclo.txt=\"%02u\"",cicloCiclos); 
0C842:  MOVLW  96
0C844:  MOVWF  FF6
0C846:  MOVLW  11
0C848:  MOVWF  FF7
0C84A:  MOVLW  00
0C84C:  MOVWF  FF8
0C84E:  MOVLW  0B
0C850:  MOVLB  7
0C852:  MOVWF  x08
0C854:  MOVLB  0
0C856:  CALL   628E
0C85A:  MOVFF  36D,708
0C85E:  MOVLW  01
0C860:  MOVLB  7
0C862:  MOVWF  x09
0C864:  MOVLB  0
0C866:  CALL   6312
0C86A:  MOVLW  22
0C86C:  BTFSS  F9E.4
0C86E:  BRA    C86C
0C870:  MOVWF  FAD
....................       SendDataDisplay(); 
0C872:  CALL   4752
....................        
....................       printf("t0.txt=\"Ciclo %Lu\"",cicloVisto); 
0C876:  MOVLW  A8
0C878:  MOVWF  FF6
0C87A:  MOVLW  11
0C87C:  MOVWF  FF7
0C87E:  MOVLW  00
0C880:  MOVWF  FF8
0C882:  MOVLW  0E
0C884:  MOVLB  7
0C886:  MOVWF  x08
0C888:  MOVLB  0
0C88A:  CALL   628E
0C88E:  MOVLW  10
0C890:  MOVWF  FE9
0C892:  MOVFF  2E7,709
0C896:  MOVFF  2E6,708
0C89A:  CALL   6A22
0C89E:  MOVLW  22
0C8A0:  BTFSS  F9E.4
0C8A2:  BRA    C8A0
0C8A4:  MOVWF  FAD
....................       SendDataDisplay(); 
0C8A6:  CALL   4752
....................        
....................       if(usuarioCiclos==0){ 
0C8AA:  MOVLB  3
0C8AC:  MOVF   x6C,F
0C8AE:  BNZ   C8CA
....................          printf("usuario.txt=\"Admin\""); 
0C8B0:  MOVLW  BC
0C8B2:  MOVWF  FF6
0C8B4:  MOVLW  11
0C8B6:  MOVWF  FF7
0C8B8:  MOVLW  00
0C8BA:  MOVWF  FF8
0C8BC:  MOVLB  0
0C8BE:  CALL   4720
....................          SendDataDisplay(); 
0C8C2:  CALL   4752
....................       }else if(usuarioCiclos>0 && usuarioCiclos<9){ 
0C8C6:  BRA    C928
0C8C8:  MOVLB  3
0C8CA:  MOVF   x6C,F
0C8CC:  BZ    C90C
0C8CE:  MOVF   x6C,W
0C8D0:  SUBLW  08
0C8D2:  BNC   C90C
....................          printf("usuario.txt=\"Operador%u\"",usuarioCiclos); 
0C8D4:  MOVLW  D0
0C8D6:  MOVWF  FF6
0C8D8:  MOVLW  11
0C8DA:  MOVWF  FF7
0C8DC:  MOVLW  00
0C8DE:  MOVWF  FF8
0C8E0:  MOVLW  15
0C8E2:  MOVLB  7
0C8E4:  MOVWF  x08
0C8E6:  MOVLB  0
0C8E8:  CALL   628E
0C8EC:  MOVFF  36C,708
0C8F0:  MOVLW  1B
0C8F2:  MOVLB  7
0C8F4:  MOVWF  x09
0C8F6:  MOVLB  0
0C8F8:  CALL   6312
0C8FC:  MOVLW  22
0C8FE:  BTFSS  F9E.4
0C900:  BRA    C8FE
0C902:  MOVWF  FAD
....................          SendDataDisplay(); 
0C904:  CALL   4752
....................       }else if(usuarioCiclos==9){ 
0C908:  BRA    C928
0C90A:  MOVLB  3
0C90C:  MOVF   x6C,W
0C90E:  SUBLW  09
0C910:  BNZ   C928
....................          printf("usuario.txt=\"Tecnico\""); 
0C912:  MOVLW  EA
0C914:  MOVWF  FF6
0C916:  MOVLW  11
0C918:  MOVWF  FF7
0C91A:  MOVLW  00
0C91C:  MOVWF  FF8
0C91E:  MOVLB  0
0C920:  CALL   4720
....................          SendDataDisplay(); 
0C924:  CALL   4752
....................       } 
....................        
....................       //Imprime Valores Dinamicos 
....................       for(i=0;i<7;i++){ 
0C928:  MOVLB  2
0C92A:  CLRF   xEB
0C92C:  CLRF   xEA
0C92E:  MOVF   xEB,F
0C930:  BTFSS  FD8.2
0C932:  BRA    CC26
0C934:  MOVF   xEA,W
0C936:  SUBLW  06
0C938:  BTFSS  FD8.0
0C93A:  BRA    CC26
....................          printf("hora%Lu.txt=\"%02Lu.  %02u:%02u\"",i+1,cicloVisualizado+i+1,horaCiclos[i],minutoCiclos[i]); 
0C93C:  MOVLW  01
0C93E:  ADDWF  xEA,W
0C940:  MOVLB  7
0C942:  MOVWF  x02
0C944:  MOVLW  00
0C946:  MOVLB  2
0C948:  ADDWFC xEB,W
0C94A:  MOVLB  7
0C94C:  MOVWF  x03
0C94E:  MOVLB  2
0C950:  MOVF   xEA,W
0C952:  ADDWF  xE4,W
0C954:  MOVLB  7
0C956:  MOVWF  x04
0C958:  MOVLB  2
0C95A:  MOVF   xEB,W
0C95C:  ADDWFC xE5,W
0C95E:  MOVLB  7
0C960:  MOVWF  x05
0C962:  MOVLW  01
0C964:  ADDWF  x04,F
0C966:  MOVLW  00
0C968:  ADDWFC x05,F
0C96A:  MOVLW  54
0C96C:  MOVLB  2
0C96E:  ADDWF  xEA,W
0C970:  MOVWF  FE9
0C972:  MOVLW  03
0C974:  ADDWFC xEB,W
0C976:  MOVWF  FEA
0C978:  MOVFF  FEF,706
0C97C:  MOVLW  5B
0C97E:  ADDWF  xEA,W
0C980:  MOVWF  FE9
0C982:  MOVLW  03
0C984:  ADDWFC xEB,W
0C986:  MOVWF  FEA
0C988:  MOVFF  FEF,707
0C98C:  MOVLW  00
0C98E:  MOVWF  FF6
0C990:  MOVLW  12
0C992:  MOVWF  FF7
0C994:  MOVLW  00
0C996:  MOVWF  FF8
0C998:  MOVLW  04
0C99A:  MOVLB  7
0C99C:  MOVWF  x08
0C99E:  MOVLB  0
0C9A0:  CALL   628E
0C9A4:  MOVLW  10
0C9A6:  MOVWF  FE9
0C9A8:  MOVFF  703,709
0C9AC:  MOVFF  702,708
0C9B0:  CALL   6A22
0C9B4:  MOVLW  07
0C9B6:  MOVWF  FF6
0C9B8:  MOVLW  12
0C9BA:  MOVWF  FF7
0C9BC:  MOVLW  00
0C9BE:  MOVWF  FF8
0C9C0:  MOVLW  06
0C9C2:  MOVLB  7
0C9C4:  MOVWF  x08
0C9C6:  MOVLB  0
0C9C8:  CALL   628E
0C9CC:  MOVLW  0B
0C9CE:  MOVWF  FE9
0C9D0:  MOVFF  705,709
0C9D4:  MOVFF  704,708
0C9D8:  CALL   6A22
0C9DC:  MOVLW  2E
0C9DE:  BTFSS  F9E.4
0C9E0:  BRA    C9DE
0C9E2:  MOVWF  FAD
0C9E4:  MOVLW  20
0C9E6:  BTFSS  F9E.4
0C9E8:  BRA    C9E6
0C9EA:  MOVWF  FAD
0C9EC:  MOVLW  20
0C9EE:  BTFSS  F9E.4
0C9F0:  BRA    C9EE
0C9F2:  MOVWF  FAD
0C9F4:  MOVFF  706,708
0C9F8:  MOVLW  01
0C9FA:  MOVLB  7
0C9FC:  MOVWF  x09
0C9FE:  MOVLB  0
0CA00:  CALL   6312
0CA04:  MOVLW  3A
0CA06:  BTFSS  F9E.4
0CA08:  BRA    CA06
0CA0A:  MOVWF  FAD
0CA0C:  MOVFF  707,708
0CA10:  MOVLW  01
0CA12:  MOVLB  7
0CA14:  MOVWF  x09
0CA16:  MOVLB  0
0CA18:  CALL   6312
0CA1C:  MOVLW  22
0CA1E:  BTFSS  F9E.4
0CA20:  BRA    CA1E
0CA22:  MOVWF  FAD
....................          SendDataDisplay(); 
0CA24:  CALL   4752
....................          printf("T%Lu.txt=\"%3.1fC\"",i+1,TCiclos[i]); 
0CA28:  MOVLW  01
0CA2A:  MOVLB  2
0CA2C:  ADDWF  xEA,W
0CA2E:  MOVLB  7
0CA30:  MOVWF  x02
0CA32:  MOVLW  00
0CA34:  MOVLB  2
0CA36:  ADDWFC xEB,W
0CA38:  MOVLB  7
0CA3A:  MOVWF  x03
0CA3C:  MOVLB  2
0CA3E:  RLCF   xEA,W
0CA40:  MOVWF  02
0CA42:  RLCF   xEB,W
0CA44:  MOVWF  03
0CA46:  RLCF   02,F
0CA48:  RLCF   03,F
0CA4A:  MOVLW  FC
0CA4C:  ANDWF  02,F
0CA4E:  MOVF   02,W
0CA50:  ADDLW  1C
0CA52:  MOVWF  FE9
0CA54:  MOVLW  03
0CA56:  ADDWFC 03,W
0CA58:  MOVWF  FEA
0CA5A:  MOVFF  FEF,704
0CA5E:  MOVFF  FEC,705
0CA62:  MOVFF  FEC,706
0CA66:  MOVFF  FEC,707
0CA6A:  MOVLW  54
0CA6C:  BTFSS  F9E.4
0CA6E:  BRA    CA6C
0CA70:  MOVWF  FAD
0CA72:  MOVLW  10
0CA74:  MOVWF  FE9
0CA76:  MOVFF  703,709
0CA7A:  MOVFF  702,708
0CA7E:  MOVLB  0
0CA80:  CALL   6A22
0CA84:  MOVLW  24
0CA86:  MOVWF  FF6
0CA88:  MOVLW  12
0CA8A:  MOVWF  FF7
0CA8C:  MOVLW  00
0CA8E:  MOVWF  FF8
0CA90:  MOVLW  06
0CA92:  MOVLB  7
0CA94:  MOVWF  x08
0CA96:  MOVLB  0
0CA98:  CALL   628E
0CA9C:  MOVLW  02
0CA9E:  MOVWF  FE9
0CAA0:  MOVFF  707,70B
0CAA4:  MOVFF  706,70A
0CAA8:  MOVFF  705,709
0CAAC:  MOVFF  704,708
0CAB0:  MOVLW  01
0CAB2:  MOVLB  7
0CAB4:  MOVWF  x0C
0CAB6:  MOVLB  0
0CAB8:  CALL   6B90
0CABC:  MOVLW  B0
0CABE:  BTFSS  F9E.4
0CAC0:  BRA    CABE
0CAC2:  MOVWF  FAD
0CAC4:  MOVLW  43
0CAC6:  BTFSS  F9E.4
0CAC8:  BRA    CAC6
0CACA:  MOVWF  FAD
0CACC:  MOVLW  22
0CACE:  BTFSS  F9E.4
0CAD0:  BRA    CACE
0CAD2:  MOVWF  FAD
....................          SendDataDisplay(); 
0CAD4:  CALL   4752
....................          printf("Pc%Lu.txt=\"%03LukPa\"",i+1,PcCiclos[i]); 
0CAD8:  MOVLW  01
0CADA:  MOVLB  2
0CADC:  ADDWF  xEA,W
0CADE:  MOVLB  7
0CAE0:  MOVWF  x02
0CAE2:  MOVLW  00
0CAE4:  MOVLB  2
0CAE6:  ADDWFC xEB,W
0CAE8:  MOVLB  7
0CAEA:  MOVWF  x03
0CAEC:  BCF    FD8.0
0CAEE:  MOVLB  2
0CAF0:  RLCF   xEA,W
0CAF2:  MOVWF  02
0CAF4:  RLCF   xEB,W
0CAF6:  MOVWF  03
0CAF8:  MOVF   02,W
0CAFA:  ADDLW  38
0CAFC:  MOVWF  FE9
0CAFE:  MOVLW  03
0CB00:  ADDWFC 03,W
0CB02:  MOVWF  FEA
0CB04:  MOVFF  FEC,705
0CB08:  MOVF   FED,F
0CB0A:  MOVFF  FEF,704
0CB0E:  MOVLW  50
0CB10:  BTFSS  F9E.4
0CB12:  BRA    CB10
0CB14:  MOVWF  FAD
0CB16:  MOVLW  63
0CB18:  BTFSS  F9E.4
0CB1A:  BRA    CB18
0CB1C:  MOVWF  FAD
0CB1E:  MOVLW  10
0CB20:  MOVWF  FE9
0CB22:  MOVFF  703,709
0CB26:  MOVFF  702,708
0CB2A:  MOVLB  0
0CB2C:  CALL   6A22
0CB30:  MOVLW  39
0CB32:  MOVWF  FF6
0CB34:  MOVLW  12
0CB36:  MOVWF  FF7
0CB38:  MOVLW  00
0CB3A:  MOVWF  FF8
0CB3C:  MOVLW  06
0CB3E:  MOVLB  7
0CB40:  MOVWF  x08
0CB42:  MOVLB  0
0CB44:  CALL   628E
0CB48:  MOVLW  0A
0CB4A:  MOVWF  FE9
0CB4C:  MOVFF  705,709
0CB50:  MOVFF  704,708
0CB54:  CALL   6A22
0CB58:  MOVLW  44
0CB5A:  MOVWF  FF6
0CB5C:  MOVLW  12
0CB5E:  MOVWF  FF7
0CB60:  MOVLW  00
0CB62:  MOVWF  FF8
0CB64:  MOVLW  04
0CB66:  MOVLB  7
0CB68:  MOVWF  x08
0CB6A:  MOVLB  0
0CB6C:  CALL   628E
....................          SendDataDisplay(); 
0CB70:  CALL   4752
....................          printf("Ppc%Lu.txt=\"%03LukPa\"",i+1,PpcCiclos[i]); 
0CB74:  MOVLW  01
0CB76:  MOVLB  2
0CB78:  ADDWF  xEA,W
0CB7A:  MOVLB  7
0CB7C:  MOVWF  x02
0CB7E:  MOVLW  00
0CB80:  MOVLB  2
0CB82:  ADDWFC xEB,W
0CB84:  MOVLB  7
0CB86:  MOVWF  x03
0CB88:  BCF    FD8.0
0CB8A:  MOVLB  2
0CB8C:  RLCF   xEA,W
0CB8E:  MOVWF  02
0CB90:  RLCF   xEB,W
0CB92:  MOVWF  03
0CB94:  MOVF   02,W
0CB96:  ADDLW  46
0CB98:  MOVWF  FE9
0CB9A:  MOVLW  03
0CB9C:  ADDWFC 03,W
0CB9E:  MOVWF  FEA
0CBA0:  MOVFF  FEC,705
0CBA4:  MOVF   FED,F
0CBA6:  MOVFF  FEF,704
0CBAA:  MOVLW  50
0CBAC:  BTFSS  F9E.4
0CBAE:  BRA    CBAC
0CBB0:  MOVWF  FAD
0CBB2:  MOVLW  70
0CBB4:  BTFSS  F9E.4
0CBB6:  BRA    CBB4
0CBB8:  MOVWF  FAD
0CBBA:  MOVLW  63
0CBBC:  BTFSS  F9E.4
0CBBE:  BRA    CBBC
0CBC0:  MOVWF  FAD
0CBC2:  MOVLW  10
0CBC4:  MOVWF  FE9
0CBC6:  MOVFF  703,709
0CBCA:  MOVFF  702,708
0CBCE:  MOVLB  0
0CBD0:  CALL   6A22
0CBD4:  MOVLW  50
0CBD6:  MOVWF  FF6
0CBD8:  MOVLW  12
0CBDA:  MOVWF  FF7
0CBDC:  MOVLW  00
0CBDE:  MOVWF  FF8
0CBE0:  MOVLW  06
0CBE2:  MOVLB  7
0CBE4:  MOVWF  x08
0CBE6:  MOVLB  0
0CBE8:  CALL   628E
0CBEC:  MOVLW  0A
0CBEE:  MOVWF  FE9
0CBF0:  MOVFF  705,709
0CBF4:  MOVFF  704,708
0CBF8:  CALL   6A22
0CBFC:  MOVLW  5B
0CBFE:  MOVWF  FF6
0CC00:  MOVLW  12
0CC02:  MOVWF  FF7
0CC04:  MOVLW  00
0CC06:  MOVWF  FF8
0CC08:  MOVLW  04
0CC0A:  MOVLB  7
0CC0C:  MOVWF  x08
0CC0E:  MOVLB  0
0CC10:  CALL   628E
....................          SendDataDisplay();          
0CC14:  CALL   4752
....................          codificaAlarma(); 
0CC18:  GOTO   7B1E
....................       }   
0CC1C:  MOVLB  2
0CC1E:  INCF   xEA,F
0CC20:  BTFSC  FD8.2
0CC22:  INCF   xEB,F
0CC24:  BRA    C92E
....................    }else if(Menu==13){//Menu de Nivel de Desfogue 
0CC26:  GOTO   ECDC
0CC2A:  MOVF   xA0,W
0CC2C:  SUBLW  0D
0CC2E:  BTFSS  FD8.2
0CC30:  BRA    CE0C
....................       printf("fecha.txt=\"Fecha:%02u/%02u/20%02u Hora: %02u:%02u:%02u\"",Dia,Mes,Year,Hora,Minuto,Segundo); 
0CC32:  MOVLW  60
0CC34:  MOVWF  FF6
0CC36:  MOVLW  12
0CC38:  MOVWF  FF7
0CC3A:  MOVLW  00
0CC3C:  MOVWF  FF8
0CC3E:  MOVLW  11
0CC40:  MOVLB  7
0CC42:  MOVWF  x08
0CC44:  MOVLB  0
0CC46:  CALL   628E
0CC4A:  MOVFF  2F0,708
0CC4E:  MOVLW  01
0CC50:  MOVLB  7
0CC52:  MOVWF  x09
0CC54:  MOVLB  0
0CC56:  CALL   6312
0CC5A:  MOVLW  2F
0CC5C:  BTFSS  F9E.4
0CC5E:  BRA    CC5C
0CC60:  MOVWF  FAD
0CC62:  MOVFF  2EF,708
0CC66:  MOVLW  01
0CC68:  MOVLB  7
0CC6A:  MOVWF  x09
0CC6C:  MOVLB  0
0CC6E:  CALL   6312
0CC72:  MOVLW  2F
0CC74:  BTFSS  F9E.4
0CC76:  BRA    CC74
0CC78:  MOVWF  FAD
0CC7A:  MOVLW  32
0CC7C:  BTFSS  F9E.4
0CC7E:  BRA    CC7C
0CC80:  MOVWF  FAD
0CC82:  MOVLW  30
0CC84:  BTFSS  F9E.4
0CC86:  BRA    CC84
0CC88:  MOVWF  FAD
0CC8A:  MOVFF  2EE,708
0CC8E:  MOVLW  01
0CC90:  MOVLB  7
0CC92:  MOVWF  x09
0CC94:  MOVLB  0
0CC96:  CALL   6312
0CC9A:  MOVLW  81
0CC9C:  MOVWF  FF6
0CC9E:  MOVLW  12
0CCA0:  MOVWF  FF7
0CCA2:  MOVLW  00
0CCA4:  MOVWF  FF8
0CCA6:  MOVLW  07
0CCA8:  MOVLB  7
0CCAA:  MOVWF  x08
0CCAC:  MOVLB  0
0CCAE:  CALL   628E
0CCB2:  MOVFF  2F1,708
0CCB6:  MOVLW  01
0CCB8:  MOVLB  7
0CCBA:  MOVWF  x09
0CCBC:  MOVLB  0
0CCBE:  CALL   6312
0CCC2:  MOVLW  3A
0CCC4:  BTFSS  F9E.4
0CCC6:  BRA    CCC4
0CCC8:  MOVWF  FAD
0CCCA:  MOVFF  2F2,708
0CCCE:  MOVLW  01
0CCD0:  MOVLB  7
0CCD2:  MOVWF  x09
0CCD4:  MOVLB  0
0CCD6:  CALL   6312
0CCDA:  MOVLW  3A
0CCDC:  BTFSS  F9E.4
0CCDE:  BRA    CCDC
0CCE0:  MOVWF  FAD
0CCE2:  MOVFF  2F3,708
0CCE6:  MOVLW  01
0CCE8:  MOVLB  7
0CCEA:  MOVWF  x09
0CCEC:  MOVLB  0
0CCEE:  CALL   6312
0CCF2:  MOVLW  22
0CCF4:  BTFSS  F9E.4
0CCF6:  BRA    CCF4
0CCF8:  MOVWF  FAD
....................       SendDataDisplay(); 
0CCFA:  CALL   4752
....................          if(NivelDes<1) 
0CCFE:  MOVLB  2
0CD00:  MOVF   xD8,F
0CD02:  BNZ   CD08
....................             NivelDes=6; 
0CD04:  MOVLW  06
0CD06:  MOVWF  xD8
....................          if(NivelDes>6) 
0CD08:  MOVF   xD8,W
0CD0A:  SUBLW  06
0CD0C:  BC    CD12
....................             NivelDes=1; 
0CD0E:  MOVLW  01
0CD10:  MOVWF  xD8
....................           
....................          if(RX_Buffer[4]==0x11){//Selecciono Regresar 
0CD12:  MOVF   36,W
0CD14:  SUBLW  11
0CD16:  BNZ   CDBA
....................             Segundos=OFF; 
0CD18:  MOVLB  1
0CD1A:  BCF    x2D.0
....................             Minutos=OFF;             
0CD1C:  BCF    x2C.7
....................             tiempo_secado=0; 
0CD1E:  MOVLB  2
0CD20:  CLRF   xB3
....................             printf("page CicloPersona"); 
0CD22:  MOVLW  98
0CD24:  MOVWF  FF6
0CD26:  MOVLW  12
0CD28:  MOVWF  FF7
0CD2A:  MOVLW  00
0CD2C:  MOVWF  FF8
0CD2E:  MOVLB  0
0CD30:  CALL   4720
....................             SendDataDisplay();   
0CD34:  CALL   4752
....................             if(!GuardaEEPROM){     
0CD38:  MOVLB  1
0CD3A:  BTFSC  x2D.1
0CD3C:  BRA    CDB8
....................                CiclosPersonalizados[CicloLibre-1].NivelDesfogue=NivelDes; 
0CD3E:  MOVLW  01
0CD40:  MOVLB  2
0CD42:  SUBWF  x7E,W
0CD44:  MULLW  08
0CD46:  MOVF   FF3,W
0CD48:  MOVLB  7
0CD4A:  CLRF   x03
0CD4C:  MOVWF  x02
0CD4E:  MOVLW  07
0CD50:  ADDWF  x02,W
0CD52:  MOVWF  01
0CD54:  MOVLW  00
0CD56:  ADDWFC x03,W
0CD58:  MOVWF  03
0CD5A:  MOVF   01,W
0CD5C:  ADDLW  3A
0CD5E:  MOVWF  FE9
0CD60:  MOVLW  06
0CD62:  ADDWFC 03,W
0CD64:  MOVWF  FEA
0CD66:  MOVFF  2D8,FEF
....................                write_eeprom(107+((CicloLibre-1)*8),NivelDes); 
0CD6A:  MOVLW  01
0CD6C:  MOVLB  2
0CD6E:  SUBWF  x7E,W
0CD70:  MULLW  08
0CD72:  MOVF   FF3,W
0CD74:  ADDLW  6B
0CD76:  MOVLB  7
0CD78:  MOVWF  x02
0CD7A:  CLRF   FAA
0CD7C:  MOVFF  702,FA9
0CD80:  MOVFF  2D8,FA8
0CD84:  BCF    FA6.6
0CD86:  BCF    FA6.7
0CD88:  BSF    FA6.2
0CD8A:  MOVF   FF2,W
0CD8C:  MOVWF  00
0CD8E:  BCF    FF2.6
0CD90:  BCF    FF2.7
0CD92:  MOVLB  F
0CD94:  MOVLW  55
0CD96:  MOVWF  FA7
0CD98:  MOVLW  AA
0CD9A:  MOVWF  FA7
0CD9C:  BSF    FA6.1
0CD9E:  BTFSC  FA6.1
0CDA0:  BRA    CD9E
0CDA2:  BCF    FA6.2
0CDA4:  MOVF   00,W
0CDA6:  IORWF  FF2,F
....................                delay_ms(20);             
0CDA8:  MOVLW  14
0CDAA:  MOVLB  7
0CDAC:  MOVWF  x18
0CDAE:  MOVLB  0
0CDB0:  CALL   21D6
....................                GuardaEEPROM=ON; 
0CDB4:  MOVLB  1
0CDB6:  BSF    x2D.1
0CDB8:  MOVLB  2
....................             } 
....................          } 
....................           
....................          if(RX_Buffer[4]==0x0d){//Tecla Arriba Oprimida 
0CDBA:  MOVF   36,W
0CDBC:  SUBLW  0D
0CDBE:  BNZ   CDC6
....................             NivelDes++; 
0CDC0:  INCF   xD8,F
....................             RX_Buffer[4]=0x00;             
0CDC2:  CLRF   36
....................             RX_Buffer2[4]=0x00;                        
0CDC4:  CLRF   41
....................          } 
....................           
....................          if(RX_Buffer[4]==0x0c){//Tecla Abajo Oprimida 
0CDC6:  MOVF   36,W
0CDC8:  SUBLW  0C
0CDCA:  BNZ   CDD2
....................             NivelDes--; 
0CDCC:  DECF   xD8,F
....................             RX_Buffer[4]=0x00; 
0CDCE:  CLRF   36
....................             RX_Buffer2[4]=0x00;                         
0CDD0:  CLRF   41
....................          } 
....................           
....................       printf("tnivel.txt=\"%u\"",NivelDes); 
0CDD2:  MOVLW  AA
0CDD4:  MOVWF  FF6
0CDD6:  MOVLW  12
0CDD8:  MOVWF  FF7
0CDDA:  MOVLW  00
0CDDC:  MOVWF  FF8
0CDDE:  MOVLW  0C
0CDE0:  MOVLB  7
0CDE2:  MOVWF  x08
0CDE4:  MOVLB  0
0CDE6:  CALL   628E
0CDEA:  MOVFF  2D8,708
0CDEE:  MOVLW  1B
0CDF0:  MOVLB  7
0CDF2:  MOVWF  x09
0CDF4:  MOVLB  0
0CDF6:  CALL   6312
0CDFA:  MOVLW  22
0CDFC:  BTFSS  F9E.4
0CDFE:  BRA    CDFC
0CE00:  MOVWF  FAD
....................       SendDataDisplay(); 
0CE02:  CALL   4752
....................    }else if(Menu==14){//Menu de Activacion de Ciclos 
0CE06:  GOTO   ECDA
0CE0A:  MOVLB  2
0CE0C:  MOVF   xA0,W
0CE0E:  SUBLW  0E
0CE10:  BTFSS  FD8.2
0CE12:  BRA    D056
....................       printf("fecha.txt=\"Fecha:%02u/%02u/20%02u Hora: %02u:%02u:%02u\"",Dia,Mes,Year,Hora,Minuto,Segundo); 
0CE14:  MOVLW  BA
0CE16:  MOVWF  FF6
0CE18:  MOVLW  12
0CE1A:  MOVWF  FF7
0CE1C:  MOVLW  00
0CE1E:  MOVWF  FF8
0CE20:  MOVLW  11
0CE22:  MOVLB  7
0CE24:  MOVWF  x08
0CE26:  MOVLB  0
0CE28:  CALL   628E
0CE2C:  MOVFF  2F0,708
0CE30:  MOVLW  01
0CE32:  MOVLB  7
0CE34:  MOVWF  x09
0CE36:  MOVLB  0
0CE38:  CALL   6312
0CE3C:  MOVLW  2F
0CE3E:  BTFSS  F9E.4
0CE40:  BRA    CE3E
0CE42:  MOVWF  FAD
0CE44:  MOVFF  2EF,708
0CE48:  MOVLW  01
0CE4A:  MOVLB  7
0CE4C:  MOVWF  x09
0CE4E:  MOVLB  0
0CE50:  CALL   6312
0CE54:  MOVLW  2F
0CE56:  BTFSS  F9E.4
0CE58:  BRA    CE56
0CE5A:  MOVWF  FAD
0CE5C:  MOVLW  32
0CE5E:  BTFSS  F9E.4
0CE60:  BRA    CE5E
0CE62:  MOVWF  FAD
0CE64:  MOVLW  30
0CE66:  BTFSS  F9E.4
0CE68:  BRA    CE66
0CE6A:  MOVWF  FAD
0CE6C:  MOVFF  2EE,708
0CE70:  MOVLW  01
0CE72:  MOVLB  7
0CE74:  MOVWF  x09
0CE76:  MOVLB  0
0CE78:  CALL   6312
0CE7C:  MOVLW  DB
0CE7E:  MOVWF  FF6
0CE80:  MOVLW  12
0CE82:  MOVWF  FF7
0CE84:  MOVLW  00
0CE86:  MOVWF  FF8
0CE88:  MOVLW  07
0CE8A:  MOVLB  7
0CE8C:  MOVWF  x08
0CE8E:  MOVLB  0
0CE90:  CALL   628E
0CE94:  MOVFF  2F1,708
0CE98:  MOVLW  01
0CE9A:  MOVLB  7
0CE9C:  MOVWF  x09
0CE9E:  MOVLB  0
0CEA0:  CALL   6312
0CEA4:  MOVLW  3A
0CEA6:  BTFSS  F9E.4
0CEA8:  BRA    CEA6
0CEAA:  MOVWF  FAD
0CEAC:  MOVFF  2F2,708
0CEB0:  MOVLW  01
0CEB2:  MOVLB  7
0CEB4:  MOVWF  x09
0CEB6:  MOVLB  0
0CEB8:  CALL   6312
0CEBC:  MOVLW  3A
0CEBE:  BTFSS  F9E.4
0CEC0:  BRA    CEBE
0CEC2:  MOVWF  FAD
0CEC4:  MOVFF  2F3,708
0CEC8:  MOVLW  01
0CECA:  MOVLB  7
0CECC:  MOVWF  x09
0CECE:  MOVLB  0
0CED0:  CALL   6312
0CED4:  MOVLW  22
0CED6:  BTFSS  F9E.4
0CED8:  BRA    CED6
0CEDA:  MOVWF  FAD
....................       SendDataDisplay(); 
0CEDC:  CALL   4752
....................        
....................       if(RX_Buffer[4]==0xaa){ 
0CEE0:  MOVF   36,W
0CEE2:  SUBLW  AA
0CEE4:  BNZ   CF84
....................          for(i=0;i<30;i++){ 
0CEE6:  MOVLB  2
0CEE8:  CLRF   xEB
0CEEA:  CLRF   xEA
0CEEC:  MOVF   xEB,F
0CEEE:  BNZ   CF6A
0CEF0:  MOVF   xEA,W
0CEF2:  SUBLW  1D
0CEF4:  BNC   CF6A
....................             write_eeprom(60+i,estados[i]); 
0CEF6:  MOVLW  3C
0CEF8:  ADDWF  xEA,W
0CEFA:  MOVLB  7
0CEFC:  MOVWF  x02
0CEFE:  MOVLW  00
0CF00:  MOVLB  2
0CF02:  ADDWFC xEB,W
0CF04:  MOVLB  7
0CF06:  MOVWF  x03
0CF08:  MOVFF  2EA,704
0CF0C:  MOVLW  03
0CF0E:  MOVWF  x06
0CF10:  MOVLW  6E
0CF12:  MOVWF  x05
0CF14:  MOVLB  0
0CF16:  CALL   239E
0CF1A:  MOVLW  00
0CF1C:  BTFSC  01.0
0CF1E:  MOVLW  01
0CF20:  MOVLB  7
0CF22:  MOVWF  x04
0CF24:  MOVFF  703,FAA
0CF28:  MOVFF  702,FA9
0CF2C:  MOVFF  704,FA8
0CF30:  BCF    FA6.6
0CF32:  BCF    FA6.7
0CF34:  BSF    FA6.2
0CF36:  MOVF   FF2,W
0CF38:  MOVWF  00
0CF3A:  BCF    FF2.6
0CF3C:  BCF    FF2.7
0CF3E:  MOVLB  F
0CF40:  MOVLW  55
0CF42:  MOVWF  FA7
0CF44:  MOVLW  AA
0CF46:  MOVWF  FA7
0CF48:  BSF    FA6.1
0CF4A:  BTFSC  FA6.1
0CF4C:  BRA    CF4A
0CF4E:  BCF    FA6.2
0CF50:  MOVF   00,W
0CF52:  IORWF  FF2,F
....................             delay_ms(10); 
0CF54:  MOVLW  0A
0CF56:  MOVLB  7
0CF58:  MOVWF  x18
0CF5A:  MOVLB  0
0CF5C:  CALL   21D6
....................          } 
0CF60:  MOVLB  2
0CF62:  INCF   xEA,F
0CF64:  BTFSC  FD8.2
0CF66:  INCF   xEB,F
0CF68:  BRA    CEEC
....................          printf("page Ajustes"); 
0CF6A:  MOVLW  F2
0CF6C:  MOVWF  FF6
0CF6E:  MOVLW  12
0CF70:  MOVWF  FF7
0CF72:  MOVLW  00
0CF74:  MOVWF  FF8
0CF76:  MOVLB  0
0CF78:  CALL   4720
....................          SendDataDisplay();  
0CF7C:  CALL   4752
....................          RX_Buffer[4]=0x00; 
0CF80:  CLRF   36
....................          RX_Buffer2[4]=0x00; 
0CF82:  CLRF   41
....................       } 
....................        
....................       for(m=0;m<30;m++){ 
0CF84:  MOVLB  2
0CF86:  CLRF   xB4
0CF88:  MOVF   xB4,W
0CF8A:  SUBLW  1D
0CF8C:  BNC   D052
....................          if(RX_Buffer[4]==m+1){ 
0CF8E:  MOVLW  01
0CF90:  ADDWF  xB4,W
0CF92:  SUBWF  36,W
0CF94:  BNZ   CFCA
....................             estados[m]=!estados[m]; 
0CF96:  MOVFF  2B4,704
0CF9A:  MOVLW  03
0CF9C:  MOVLB  7
0CF9E:  MOVWF  x06
0CFA0:  MOVLW  6E
0CFA2:  MOVWF  x05
0CFA4:  MOVLB  0
0CFA6:  CALL   239E
0CFAA:  MOVLW  00
0CFAC:  BTFSS  01.0
0CFAE:  MOVLW  01
0CFB0:  MOVFF  2B4,705
0CFB4:  MOVLB  7
0CFB6:  MOVWF  x06
0CFB8:  MOVLW  03
0CFBA:  MOVWF  x08
0CFBC:  MOVLW  6E
0CFBE:  MOVWF  x07
0CFC0:  MOVLB  0
0CFC2:  CALL   235C
....................             RX_Buffer[4]=0x00; 
0CFC6:  CLRF   36
....................             RX_Buffer2[4]=0x00; 
0CFC8:  CLRF   41
....................          } 
....................           
....................          if(estados[m]){ 
0CFCA:  MOVFF  2B4,704
0CFCE:  MOVLW  03
0CFD0:  MOVLB  7
0CFD2:  MOVWF  x06
0CFD4:  MOVLW  6E
0CFD6:  MOVWF  x05
0CFD8:  MOVLB  0
0CFDA:  CALL   239E
0CFDE:  BTFSS  01.0
0CFE0:  BRA    D018
....................             printf("b%u.bco=2016",m); 
0CFE2:  MOVLW  62
0CFE4:  BTFSS  F9E.4
0CFE6:  BRA    CFE4
0CFE8:  MOVWF  FAD
0CFEA:  MOVFF  2B4,708
0CFEE:  MOVLW  1B
0CFF0:  MOVLB  7
0CFF2:  MOVWF  x09
0CFF4:  MOVLB  0
0CFF6:  CALL   6312
0CFFA:  MOVLW  03
0CFFC:  MOVWF  FF6
0CFFE:  MOVLW  13
0D000:  MOVWF  FF7
0D002:  MOVLW  00
0D004:  MOVWF  FF8
0D006:  MOVLW  09
0D008:  MOVLB  7
0D00A:  MOVWF  x08
0D00C:  MOVLB  0
0D00E:  CALL   628E
....................             SendDataDisplay();              
0D012:  CALL   4752
....................          }else{ 
0D016:  BRA    D04C
....................             printf("b%u.bco=63488",m); 
0D018:  MOVLW  62
0D01A:  BTFSS  F9E.4
0D01C:  BRA    D01A
0D01E:  MOVWF  FAD
0D020:  MOVFF  2B4,708
0D024:  MOVLW  1B
0D026:  MOVLB  7
0D028:  MOVWF  x09
0D02A:  MOVLB  0
0D02C:  CALL   6312
0D030:  MOVLW  11
0D032:  MOVWF  FF6
0D034:  MOVLW  13
0D036:  MOVWF  FF7
0D038:  MOVLW  00
0D03A:  MOVWF  FF8
0D03C:  MOVLW  0A
0D03E:  MOVLB  7
0D040:  MOVWF  x08
0D042:  MOVLB  0
0D044:  CALL   628E
....................             SendDataDisplay();  
0D048:  CALL   4752
....................          } 
....................       } 
0D04C:  MOVLB  2
0D04E:  INCF   xB4,F
0D050:  BRA    CF88
....................    }else if(Menu==15){//Menu de Clave Correcta 
0D052:  GOTO   ECDC
0D056:  MOVF   xA0,W
0D058:  SUBLW  0F
0D05A:  BNZ   D09A
....................       if(!entro){ 
0D05C:  MOVLB  1
0D05E:  BTFSC  x30.5
0D060:  BRA    D07E
....................          delay_ms(2000); 
0D062:  MOVLW  08
0D064:  MOVLB  7
0D066:  MOVWF  x02
0D068:  MOVLW  FA
0D06A:  MOVWF  x18
0D06C:  MOVLB  0
0D06E:  CALL   21D6
0D072:  MOVLB  7
0D074:  DECFSZ x02,F
0D076:  BRA    D068
....................          restart_wdt(); 
0D078:  CLRWDT
....................          entro=ON; 
0D07A:  MOVLB  1
0D07C:  BSF    x30.5
....................       } 
....................       printf("page Menu"); 
0D07E:  MOVLW  1C
0D080:  MOVWF  FF6
0D082:  MOVLW  13
0D084:  MOVWF  FF7
0D086:  MOVLW  00
0D088:  MOVWF  FF8
0D08A:  MOVLB  0
0D08C:  CALL   4720
....................       //printf("page Funcionamiento"); 
....................       SendDataDisplay(); 
0D090:  CALL   4752
....................    }else if(Menu==16){//Menu de Clave InCorrecta 
0D094:  GOTO   ECDA
0D098:  MOVLB  2
0D09A:  MOVF   xA0,W
0D09C:  SUBLW  10
0D09E:  BNZ   D0DE
....................       if(!entro){ 
0D0A0:  MOVLB  1
0D0A2:  BTFSC  x30.5
0D0A4:  BRA    D0C2
....................          delay_ms(2000); 
0D0A6:  MOVLW  08
0D0A8:  MOVLB  7
0D0AA:  MOVWF  x02
0D0AC:  MOVLW  FA
0D0AE:  MOVWF  x18
0D0B0:  MOVLB  0
0D0B2:  CALL   21D6
0D0B6:  MOVLB  7
0D0B8:  DECFSZ x02,F
0D0BA:  BRA    D0AC
....................          restart_wdt(); 
0D0BC:  CLRWDT
....................          entro=ON; 
0D0BE:  MOVLB  1
0D0C0:  BSF    x30.5
....................       } 
....................       printf("page Clave"); 
0D0C2:  MOVLW  26
0D0C4:  MOVWF  FF6
0D0C6:  MOVLW  13
0D0C8:  MOVWF  FF7
0D0CA:  MOVLW  00
0D0CC:  MOVWF  FF8
0D0CE:  MOVLB  0
0D0D0:  CALL   4720
....................       SendDataDisplay(); 
0D0D4:  CALL   4752
....................    }else if(Menu==20){ // Este es el menu de cuando el proceso se inicio.FUNCIONAMIENTO 
0D0D8:  GOTO   ECDA
0D0DC:  MOVLB  2
0D0DE:  MOVF   xA0,W
0D0E0:  SUBLW  14
0D0E2:  BTFSS  FD8.2
0D0E4:  GOTO   ECDC
....................     
....................    GuardaDatoEstatico(); 
0D0E8:  MOVLB  0
0D0EA:  GOTO   8100
....................    guardaCiclo=ON; 
0D0EE:  MOVLB  1
0D0F0:  BSF    x21.7
....................    if(!Libre){ 
0D0F2:  BTFSC  x2E.4
0D0F4:  BRA    D17C
....................       printf("t2f.txt=\"%u\"",CicloSeleccionado); 
0D0F6:  MOVLW  32
0D0F8:  MOVWF  FF6
0D0FA:  MOVLW  13
0D0FC:  MOVWF  FF7
0D0FE:  MOVLW  00
0D100:  MOVWF  FF8
0D102:  MOVLW  09
0D104:  MOVLB  7
0D106:  MOVWF  x08
0D108:  MOVLB  0
0D10A:  CALL   628E
0D10E:  MOVFF  2A5,708
0D112:  MOVLW  1B
0D114:  MOVLB  7
0D116:  MOVWF  x09
0D118:  MOVLB  0
0D11A:  CALL   6312
0D11E:  MOVLW  22
0D120:  BTFSS  F9E.4
0D122:  BRA    D120
0D124:  MOVWF  FAD
....................       SendDataDisplay(); 
0D126:  CALL   4752
....................       printf("t3f.txt=\"%s\"",Texto[CicloSeleccionado-1]); 
0D12A:  MOVLW  01
0D12C:  MOVLB  2
0D12E:  SUBWF  xA5,W
0D130:  MULLW  14
0D132:  MOVF   FF3,W
0D134:  CLRF   03
0D136:  MOVLB  7
0D138:  MOVWF  x02
0D13A:  MOVLW  40
0D13C:  MOVWF  FF6
0D13E:  MOVLW  13
0D140:  MOVWF  FF7
0D142:  MOVLW  00
0D144:  MOVWF  FF8
0D146:  MOVLW  09
0D148:  MOVWF  x08
0D14A:  MOVLB  0
0D14C:  CALL   628E
0D150:  MOVLW  1A
0D152:  MOVWF  FF6
0D154:  MOVLW  03
0D156:  MOVWF  FF7
0D158:  MOVLW  00
0D15A:  MOVWF  FF8
0D15C:  MOVLB  7
0D15E:  MOVF   x02,W
0D160:  ADDWF  FF6,F
0D162:  MOVLW  00
0D164:  ADDWFC FF7,F
0D166:  MOVLB  0
0D168:  CALL   4720
0D16C:  MOVLW  22
0D16E:  BTFSS  F9E.4
0D170:  BRA    D16E
0D172:  MOVWF  FAD
....................       SendDataDisplay(); 
0D174:  CALL   4752
....................    }else{ 
0D178:  BRA    D1CC
0D17A:  MOVLB  1
....................       printf("t2f.txt=\"%u\"",CicloLibre+10); 
0D17C:  MOVLW  0A
0D17E:  MOVLB  2
0D180:  ADDWF  x7E,W
0D182:  MOVLB  7
0D184:  MOVWF  x02
0D186:  MOVLW  4E
0D188:  MOVWF  FF6
0D18A:  MOVLW  13
0D18C:  MOVWF  FF7
0D18E:  MOVLW  00
0D190:  MOVWF  FF8
0D192:  MOVLW  09
0D194:  MOVWF  x08
0D196:  MOVLB  0
0D198:  CALL   628E
0D19C:  MOVFF  702,708
0D1A0:  MOVLW  1B
0D1A2:  MOVLB  7
0D1A4:  MOVWF  x09
0D1A6:  MOVLB  0
0D1A8:  CALL   6312
0D1AC:  MOVLW  22
0D1AE:  BTFSS  F9E.4
0D1B0:  BRA    D1AE
0D1B2:  MOVWF  FAD
....................       SendDataDisplay(); 
0D1B4:  CALL   4752
....................       printf("t3f.txt=\"Personalizado\""); 
0D1B8:  MOVLW  5C
0D1BA:  MOVWF  FF6
0D1BC:  MOVLW  13
0D1BE:  MOVWF  FF7
0D1C0:  MOVLW  00
0D1C2:  MOVWF  FF8
0D1C4:  CALL   4720
....................       SendDataDisplay(); 
0D1C8:  CALL   4752
....................    } 
....................     
....................    leePulsadores(); 
0D1CC:  GOTO   83B4
....................    /* 
....................    if(PresionCamara>Atmosferica+15){ 
....................       cierraPuertaS(); 
....................       cierraPuertaL(); 
....................    } 
....................    */ 
....................    if(!Start){ 
0D1D0:  MOVLB  1
0D1D2:  BTFSC  x2B.5
0D1D4:  BRA    D1D6
....................     
....................       /* 
....................       if(pulsoSubirS) 
....................          cierraPuertaS(); 
....................        
....................       if(pulsoBajarS) 
....................          abrePuertaS(); 
....................           
....................       if(RX_Buffer[4]==0x0a){//Oprimio Subir Puerta 
....................          //cierraPuertaS(); 
....................          pulsoSubirS=ON; 
....................          pulsoBajarS=OFF; 
....................          RX_Buffer[4]=0x00; 
....................          //RX_Buffer2[4]=0x00;                        
....................       } 
....................        
....................       if(RX_Buffer[4]==0x0b){//Solto Subir Puerta 
....................          RX_Buffer[4]=0x00;             
....................          //RX_Buffer2[4]=0x00;            
....................          pulsoSubirS=OFF; 
....................          pulsoBajarS=OFF; 
....................          if(!DOORS && !EMPAQUES) 
....................             abrePuertaS(); 
....................          else 
....................             cierraPuertaS(); 
....................       } 
....................        
....................       if(RX_Buffer[4]==0x0c){//Oprimio Bajar Puerta 
....................          pulsoSubirS=OFF; 
....................          RX_Buffer[4]=0x00; 
....................          //RX_Buffer2[4]=0x00;  
....................          if(Temperatura<Tapertura && cerroLimpio) 
....................             pulsoBajarS=ON; 
....................       }    
....................        
....................       if(RX_Buffer[4]==0x0d){//Solto Bajar Puerta 
....................          RX_Buffer[4]=0x00;             
....................          //RX_Buffer2[4]=0x00;                        
....................       } 
....................       */ 
....................    } 
....................           
....................    if(PresionPreCamara>350 || PresionCamara>350){ 
0D1D6:  MOVLB  2
0D1D8:  MOVF   xC4,W
0D1DA:  SUBLW  00
0D1DC:  BC    D1E8
0D1DE:  XORLW  FF
0D1E0:  BNZ   D1F8
0D1E2:  MOVF   xC3,W
0D1E4:  SUBLW  5E
0D1E6:  BNC   D1F8
0D1E8:  MOVF   xC2,W
0D1EA:  SUBLW  00
0D1EC:  BC    D1FC
0D1EE:  XORLW  FF
0D1F0:  BNZ   D1F8
0D1F2:  MOVF   xC1,W
0D1F4:  SUBLW  5E
0D1F6:  BC    D1FC
....................       AlarmaPresion=ON; 
0D1F8:  MOVLB  1
0D1FA:  BSF    x2E.1
....................    } 
....................     
....................    if(TiempoCiclo>1800 && !Fugas){//ANALIZAR BIEN ESTA ALARMA 
0D1FC:  MOVLB  1
0D1FE:  MOVF   x33,W
0D200:  SUBLW  06
0D202:  BC    D23A
0D204:  XORLW  FF
0D206:  BNZ   D20E
0D208:  MOVF   x32,W
0D20A:  SUBLW  08
0D20C:  BC    D23A
0D20E:  BTFSC  x2E.6
0D210:  BRA    D23A
....................       if(TiempoCiclo>5400){ 
0D212:  MOVF   x33,W
0D214:  SUBLW  14
0D216:  BC    D224
0D218:  XORLW  FF
0D21A:  BNZ   D222
0D21C:  MOVF   x32,W
0D21E:  SUBLW  18
0D220:  BC    D224
....................          AlarmaTiempoProlongado=ON; 
0D222:  BSF    x20.5
....................       } 
....................       if(PresionPrecamara<10){ 
0D224:  MOVLB  2
0D226:  MOVF   xC4,F
0D228:  BNZ   D236
0D22A:  MOVF   xC3,W
0D22C:  SUBLW  09
0D22E:  BNC   D236
....................          AlarmaTiempoProlongado=ON; 
0D230:  MOVLB  1
0D232:  BSF    x20.5
0D234:  MOVLB  2
....................       } 
....................    }else{ 
0D236:  BRA    D23C
0D238:  MOVLB  1
....................       AlarmaTiempoProlongado=OFF; 
0D23A:  BCF    x20.5
....................    } 
....................     
....................    if(Temperatura>Setpoint+4.0 && !Fugas){ 
0D23C:  MOVLB  7
0D23E:  CLRF   x15
0D240:  MOVFF  2AF,714
0D244:  MOVLB  0
0D246:  CALL   21A0
0D24A:  BCF    FD8.1
0D24C:  MOVFF  03,717
0D250:  MOVFF  02,716
0D254:  MOVFF  01,715
0D258:  MOVFF  00,714
0D25C:  MOVLB  7
0D25E:  CLRF   x1B
0D260:  CLRF   x1A
0D262:  CLRF   x19
0D264:  MOVLW  81
0D266:  MOVWF  x18
0D268:  MOVLB  0
0D26A:  CALL   25BA
0D26E:  MOVFF  03,709
0D272:  MOVFF  02,708
0D276:  MOVFF  01,707
0D27A:  MOVFF  00,706
0D27E:  MOVFF  26B,70D
0D282:  MOVFF  26A,70C
0D286:  MOVFF  269,70B
0D28A:  MOVFF  268,70A
0D28E:  CALL   2832
0D292:  BNC   D2A0
0D294:  MOVLB  1
0D296:  BTFSS  x2E.6
0D298:  BRA    D29E
0D29A:  MOVLB  0
0D29C:  BRA    D2A0
....................       AlarmaSobreTemperatura=ON; 
0D29E:  BSF    x20.6
....................    } 
....................     
....................    if(TiempoLlenado>600){ 
0D2A0:  MOVLB  1
0D2A2:  MOVF   x47,W
0D2A4:  SUBLW  01
0D2A6:  BC    D2B6
0D2A8:  XORLW  FF
0D2AA:  BNZ   D2B2
0D2AC:  MOVF   x46,W
0D2AE:  SUBLW  58
0D2B0:  BC    D2B6
....................       AlarmaLlenado=ON; 
0D2B2:  BSF    x22.1
....................    }else{ 
0D2B4:  BRA    D2B8
....................       AlarmaLlenado=OFF; 
0D2B6:  BCF    x22.1
....................    } 
....................     
....................    //if(!DOORS && !EMPAQUES){       
....................    if(!DOORS){       
0D2B8:  BSF    F93.1
0D2BA:  BTFSS  F81.1
0D2BC:  BRA    D2CA
....................       Paso=OFF; 
0D2BE:  BCF    x1F.2
....................       //if(!Secando && !Finalizo && !Desfogando){ 
....................       if(!Finalizo){ 
0D2C0:  BTFSC  x2E.0
0D2C2:  BRA    D2C6
....................          AlarmaPuertaS=ON; 
0D2C4:  BSF    x21.0
....................       } 
....................       cerroSucio=OFF; 
0D2C6:  BCF    x22.2
....................    }else{ 
0D2C8:  BRA    D2CE
....................       AlarmaPuertaS=OFF; 
0D2CA:  BCF    x21.0
....................       cerroSucio=ON; 
0D2CC:  BSF    x22.2
....................    } 
....................    /* 
....................    if(!DOORL && !EMPAQUEL){       
....................       Paso=OFF; 
....................       //if(!Secando && !Finalizo && !Desfogando){ 
....................       if(!Finalizo){ 
....................          AlarmaPuertaL=ON; 
....................       } 
....................       cerroLimpio=OFF; 
....................    }else{ 
....................       AlarmaPuertaL=OFF; 
....................       cerroLimpio=ON; 
....................    } 
....................    */ 
....................    if(tStop>=300){ 
0D2CE:  MOVLB  2
0D2D0:  MOVF   xE3,W
0D2D2:  SUBLW  00
0D2D4:  BC    D2E6
0D2D6:  XORLW  FF
0D2D8:  BNZ   D2E0
0D2DA:  MOVF   xE2,W
0D2DC:  SUBLW  2B
0D2DE:  BC    D2E6
....................       AlarmaEmergencia=ON; 
0D2E0:  MOVLB  1
0D2E2:  BSF    x21.2
0D2E4:  MOVLB  2
....................    } 
....................    /* 
....................    if(tEmpaqueS>10) 
....................       AlarmaEmpaqueS=ON; 
....................        
....................    if(tEmpaqueL>10) 
....................       AlarmaEmpaqueL=ON;    
....................    */ 
....................    if(AlarmaPuertaS || AlarmaPuertaL || AlarmaTermostato || AlarmaSobreTemperatura || AlarmaTiempoProlongado || AlarmaEmergencia || AlarmaPresion || AlarmaBomba || AlarmaEmpaqueL || AlarmaEmpaqueS 
....................          || AlarmaVacio || AlarmaLlenado || !Start){ 
0D2E6:  MOVLB  1
0D2E8:  BTFSC  x21.0
0D2EA:  BRA    D31E
0D2EC:  BTFSC  x21.1
0D2EE:  BRA    D31E
0D2F0:  BTFSC  x20.7
0D2F2:  BRA    D31E
0D2F4:  BTFSC  x20.6
0D2F6:  BRA    D31E
0D2F8:  BTFSC  x20.5
0D2FA:  BRA    D31E
0D2FC:  BTFSC  x21.2
0D2FE:  BRA    D31E
0D300:  BTFSC  x2E.1
0D302:  BRA    D31E
0D304:  BTFSC  x21.6
0D306:  BRA    D31E
0D308:  BTFSC  x21.4
0D30A:  BRA    D31E
0D30C:  BTFSC  x21.5
0D30E:  BRA    D31E
0D310:  BTFSC  x21.3
0D312:  BRA    D31E
0D314:  BTFSC  x22.1
0D316:  BRA    D31E
0D318:  BTFSC  x2B.5
0D31A:  GOTO   DDC4
....................       Esterilizando=OFF; 
0D31E:  BCF    x2A.7
....................       Secando=OFF; 
0D320:  BCF    x2B.0
....................       ActivaAlarma(1); 
0D322:  MOVLW  01
0D324:  MOVLB  7
0D326:  MOVWF  x02
0D328:  MOVLB  0
0D32A:  CALL   614C
....................       printf("b2.pic=86"); 
0D32E:  MOVLW  74
0D330:  MOVWF  FF6
0D332:  MOVLW  13
0D334:  MOVWF  FF7
0D336:  MOVLW  00
0D338:  MOVWF  FF8
0D33A:  CALL   4720
....................       SendDataDisplay(); 
0D33E:  CALL   4752
....................       if(AlarmaEmergencia){ 
0D342:  MOVLB  1
0D344:  BTFSS  x21.2
0D346:  BRA    D48C
....................          codigoAlarma=1; 
0D348:  MOVLW  01
0D34A:  MOVLB  2
0D34C:  MOVWF  xDB
....................          printf("Funcionamiento.t4f.txt=\" Parada de Emergencia\""); 
0D34E:  MOVLW  7E
0D350:  MOVWF  FF6
0D352:  MOVLW  13
0D354:  MOVWF  FF7
0D356:  MOVLW  00
0D358:  MOVWF  FF8
0D35A:  MOVLB  0
0D35C:  CALL   4720
....................          SendDataDisplay(); 
0D360:  CALL   4752
....................          printf("Funcionamiento.t5f.txt=\" Cancelado\""); 
0D364:  MOVLW  AE
0D366:  MOVWF  FF6
0D368:  MOVLW  13
0D36A:  MOVWF  FF7
0D36C:  MOVLW  00
0D36E:  MOVWF  FF8
0D370:  CALL   4720
....................          SendDataDisplay(); 
0D374:  CALL   4752
....................          Desfogue=ON; 
0D378:  MOVLB  1
0D37A:  BSF    x1F.4
....................          Paso=OFF; 
0D37C:  BCF    x1F.2
....................          suministroVapor=OFF; 
0D37E:  BCF    x1F.1
....................          //if(!abrirPuertaL && !abrirPuertaS) 
....................             BombaVacio=OFF; 
0D380:  BCF    31.6
....................          aguaEnfriador=OFF; 
0D382:  BCF    31.5
....................          outVacio=OFF; 
0D384:  BCF    x1F.3
....................          if(!EMPAQUES && PresionCamara<Atmosferica+4) 
0D386:  BSF    F93.3
0D388:  BTFSS  F81.3
0D38A:  BRA    D3AA
0D38C:  MOVLW  04
0D38E:  MOVLB  2
0D390:  ADDWF  xF6,W
0D392:  MOVF   xC2,F
0D394:  BTFSC  FD8.2
0D396:  BRA    D39C
0D398:  MOVLB  1
0D39A:  BRA    D3AA
0D39C:  SUBWF  xC1,W
0D39E:  BTFSS  FD8.0
0D3A0:  BRA    D3A6
0D3A2:  MOVLB  1
0D3A4:  BRA    D3AA
....................             empaqueSucio=OFF; 
0D3A6:  MOVLB  1
0D3A8:  BCF    x1F.0
....................           
....................          if(!EMPAQUEL && PresionCamara<Atmosferica+4) 
0D3AA:  BTFSC  31.0
0D3AC:  BRA    D3CA
0D3AE:  MOVLW  04
0D3B0:  MOVLB  2
0D3B2:  ADDWF  xF6,W
0D3B4:  MOVF   xC2,F
0D3B6:  BTFSC  FD8.2
0D3B8:  BRA    D3BE
0D3BA:  MOVLB  1
0D3BC:  BRA    D3CA
0D3BE:  SUBWF  xC1,W
0D3C0:  BTFSS  FD8.0
0D3C2:  BRA    D3C8
0D3C4:  MOVLB  1
0D3C6:  BRA    D3CA
....................             empaqueLimpio=OFF; 
0D3C8:  BCF    31.7
....................              
....................          if(PresionCamara<Atmosferica) 
0D3CA:  MOVLB  2
0D3CC:  MOVF   xC2,F
0D3CE:  BNZ   D3DC
0D3D0:  MOVF   xF6,W
0D3D2:  SUBWF  xC1,W
0D3D4:  BC    D3DC
....................             Aire=ON; 
0D3D6:  MOVLB  1
0D3D8:  BSF    x1F.5
....................          else 
0D3DA:  BRA    D3E0
....................             Aire=OFF; 
0D3DC:  MOVLB  1
0D3DE:  BCF    x1F.5
....................          Esterilizando=OFF; 
0D3E0:  BCF    x2A.7
....................          Desfogando=OFF; 
0D3E2:  BCF    x2B.2
....................          DesfogueSuave=OFF; 
0D3E4:  BCF    x2B.3
....................          //IniciaCiclo=OFF; 
....................          Controlando=0; 
0D3E6:  MOVLB  2
0D3E8:  CLRF   x99
....................          if(codigoAnt!=codigoAlarma){ 
0D3EA:  MOVF   xDB,W
0D3EC:  SUBWF  xDC,W
0D3EE:  BZ    D3FE
....................             codigoAnt=codigoAlarma; 
0D3F0:  MOVFF  2DB,2DC
....................             GuardaDatoCiclo(); 
0D3F4:  MOVLB  0
0D3F6:  CALL   854A
....................             incrementaCiclos(); 
0D3FA:  CALL   89AE
....................          } 
....................          if(!flagImprimir){ 
0D3FE:  MOVLB  1
0D400:  BTFSC  x30.4
0D402:  BRA    D426
....................             Imprime=20; 
0D404:  MOVLW  14
0D406:  MOVLB  3
0D408:  MOVWF  x00
....................             Envio_Esclavos(); 
0D40A:  MOVLB  0
0D40C:  CALL   5DAC
....................             delay_ms(100); 
0D410:  MOVLW  64
0D412:  MOVLB  7
0D414:  MOVWF  x18
0D416:  MOVLB  0
0D418:  CALL   21D6
....................             Imprime=10; 
0D41C:  MOVLW  0A
0D41E:  MOVLB  3
0D420:  MOVWF  x00
....................             flagImprimir=1; 
0D422:  MOVLB  1
0D424:  BSF    x30.4
....................          } 
....................          if(PresionCamara<=Atmosferica+15 && PresionCamara>Atmosferica-10 && Temperatura<=Tapertura) 
0D426:  MOVLW  0F
0D428:  MOVLB  2
0D42A:  ADDWF  xF6,W
0D42C:  MOVF   xC2,F
0D42E:  BNZ   D486
0D430:  SUBWF  xC1,W
0D432:  BZ    D436
0D434:  BC    D486
0D436:  MOVLW  0A
0D438:  SUBWF  xF6,W
0D43A:  MOVF   xC2,F
0D43C:  BNZ   D444
0D43E:  SUBWF  xC1,W
0D440:  BZ    D486
0D442:  BNC   D486
0D444:  MOVLB  7
0D446:  CLRF   x15
0D448:  MOVFF  2A6,714
0D44C:  MOVLB  0
0D44E:  CALL   21A0
0D452:  MOVFF  26B,709
0D456:  MOVFF  26A,708
0D45A:  MOVFF  269,707
0D45E:  MOVFF  268,706
0D462:  MOVFF  03,70D
0D466:  MOVFF  02,70C
0D46A:  MOVFF  01,70B
0D46E:  MOVFF  00,70A
0D472:  CALL   2832
0D476:  BC    D480
0D478:  BTFSC  FD8.2
0D47A:  BRA    D480
0D47C:  MOVLB  2
0D47E:  BRA    D486
....................             Start=OFF; 
0D480:  MOVLB  1
0D482:  BCF    x2B.5
0D484:  MOVLB  2
....................       }else if(AlarmaPuertaS || AlarmaPuertaL){ 
0D486:  GOTO   DDBE
0D48A:  MOVLB  1
0D48C:  BTFSC  x21.0
0D48E:  BRA    D494
0D490:  BTFSS  x21.1
0D492:  BRA    D55A
....................          codigoAlarma=2; 
0D494:  MOVLW  02
0D496:  MOVLB  2
0D498:  MOVWF  xDB
....................          printf("Funcionamiento.t4f.txt=\" Puerta Abierta\""); 
0D49A:  MOVLW  D2
0D49C:  MOVWF  FF6
0D49E:  MOVLW  13
0D4A0:  MOVWF  FF7
0D4A2:  MOVLW  00
0D4A4:  MOVWF  FF8
0D4A6:  MOVLB  0
0D4A8:  CALL   4720
....................          SendDataDisplay(); 
0D4AC:  CALL   4752
....................          printf("Funcionamiento.t5f.txt=\" Pausado\""); 
0D4B0:  MOVLW  FC
0D4B2:  MOVWF  FF6
0D4B4:  MOVLW  13
0D4B6:  MOVWF  FF7
0D4B8:  MOVLW  00
0D4BA:  MOVWF  FF8
0D4BC:  CALL   4720
....................          SendDataDisplay(); 
0D4C0:  CALL   4752
....................          Paso=OFF; 
0D4C4:  MOVLB  1
0D4C6:  BCF    x1F.2
....................          suministroVapor=OFF; 
0D4C8:  BCF    x1F.1
....................          if(AlarmaEmpaqueL) 
0D4CA:  BTFSS  x21.4
0D4CC:  BRA    D4D0
....................             empaqueLimpio=OFF; 
0D4CE:  BCF    31.7
....................          if(AlarmaEmpaqueS) 
0D4D0:  BTFSS  x21.5
0D4D2:  BRA    D4D6
....................             empaqueSucio=OFF; 
0D4D4:  BCF    x1F.0
....................          //Suministro_off; 
....................          BombaVacio=OFF; 
0D4D6:  BCF    31.6
....................          Aire=OFF; 
0D4D8:  BCF    x1F.5
....................          aguaEnfriador=OFF; 
0D4DA:  BCF    31.5
....................          outVacio=OFF; 
0D4DC:  BCF    x1F.3
....................          IniciaLlenado=OFF; 
0D4DE:  BCF    x2A.5
....................          Controlando=0; 
0D4E0:  MOVLB  2
0D4E2:  CLRF   x99
....................          if(codigoAnt!=codigoAlarma){ 
0D4E4:  MOVF   xDB,W
0D4E6:  SUBWF  xDC,W
0D4E8:  BZ    D4F6
....................             codigoAnt=codigoAlarma; 
0D4EA:  MOVFF  2DB,2DC
....................             GuardaDatoCiclo(); 
0D4EE:  MOVLB  0
0D4F0:  CALL   854A
0D4F4:  MOVLB  2
....................          } 
....................          if(PresionCamara<=Atmosferica+15 && PresionCamara>Atmosferica-10 && Temperatura<=Tapertura) 
0D4F6:  MOVLW  0F
0D4F8:  ADDWF  xF6,W
0D4FA:  MOVF   xC2,F
0D4FC:  BNZ   D554
0D4FE:  SUBWF  xC1,W
0D500:  BZ    D504
0D502:  BC    D554
0D504:  MOVLW  0A
0D506:  SUBWF  xF6,W
0D508:  MOVF   xC2,F
0D50A:  BNZ   D512
0D50C:  SUBWF  xC1,W
0D50E:  BZ    D554
0D510:  BNC   D554
0D512:  MOVLB  7
0D514:  CLRF   x15
0D516:  MOVFF  2A6,714
0D51A:  MOVLB  0
0D51C:  CALL   21A0
0D520:  MOVFF  26B,709
0D524:  MOVFF  26A,708
0D528:  MOVFF  269,707
0D52C:  MOVFF  268,706
0D530:  MOVFF  03,70D
0D534:  MOVFF  02,70C
0D538:  MOVFF  01,70B
0D53C:  MOVFF  00,70A
0D540:  CALL   2832
0D544:  BC    D54E
0D546:  BTFSC  FD8.2
0D548:  BRA    D54E
0D54A:  MOVLB  2
0D54C:  BRA    D554
....................             Start=OFF; 
0D54E:  MOVLB  1
0D550:  BCF    x2B.5
0D552:  MOVLB  2
....................       }else if(AlarmaLlenado){ 
0D554:  GOTO   DDBE
0D558:  MOVLB  1
0D55A:  BTFSS  x22.1
0D55C:  BRA    D64A
....................          codigoAlarma=9; 
0D55E:  MOVLW  09
0D560:  MOVLB  2
0D562:  MOVWF  xDB
....................          printf("Funcionamiento.t4f.txt=\" Tiempo Llenado\""); 
0D564:  MOVLW  1E
0D566:  MOVWF  FF6
0D568:  MOVLW  14
0D56A:  MOVWF  FF7
0D56C:  MOVLW  00
0D56E:  MOVWF  FF8
0D570:  MOVLB  0
0D572:  CALL   4720
....................          SendDataDisplay(); 
0D576:  CALL   4752
....................          printf("Funcionamiento.t5f.txt=\" Cancelado\""); 
0D57A:  MOVLW  48
0D57C:  MOVWF  FF6
0D57E:  MOVLW  14
0D580:  MOVWF  FF7
0D582:  MOVLW  00
0D584:  MOVWF  FF8
0D586:  CALL   4720
....................          SendDataDisplay(); 
0D58A:  CALL   4752
....................          suministroVapor=OFF; 
0D58E:  MOVLB  1
0D590:  BCF    x1F.1
....................          Aire=OFF; 
0D592:  BCF    x1F.5
....................          Desfogue=OFF; 
0D594:  BCF    x1F.4
....................          Paso=OFF; 
0D596:  BCF    x1F.2
....................          //if(!abrirPuertaL && !abrirPuertaS) 
....................             BombaVacio=OFF; 
0D598:  BCF    31.6
....................          aguaEnfriador=OFF; 
0D59A:  BCF    31.5
....................          outVacio=OFF; 
0D59C:  BCF    x1F.3
....................          IniciaLlenado=OFF; 
0D59E:  BCF    x2A.5
....................          IniciaCiclo=OFF; 
0D5A0:  BCF    x2A.6
....................          Esterilizando=OFF; 
0D5A2:  BCF    x2A.7
....................          Controlando=0; 
0D5A4:  MOVLB  2
0D5A6:  CLRF   x99
....................          if(codigoAnt!=codigoAlarma){ 
0D5A8:  MOVF   xDB,W
0D5AA:  SUBWF  xDC,W
0D5AC:  BZ    D5BC
....................             codigoAnt=codigoAlarma; 
0D5AE:  MOVFF  2DB,2DC
....................             GuardaDatoCiclo(); 
0D5B2:  MOVLB  0
0D5B4:  CALL   854A
....................             incrementaCiclos(); 
0D5B8:  CALL   89AE
....................          } 
....................          if(!flagImprimir){ 
0D5BC:  MOVLB  1
0D5BE:  BTFSC  x30.4
0D5C0:  BRA    D5E4
....................             Imprime=21; 
0D5C2:  MOVLW  15
0D5C4:  MOVLB  3
0D5C6:  MOVWF  x00
....................             Envio_Esclavos(); 
0D5C8:  MOVLB  0
0D5CA:  CALL   5DAC
....................             delay_ms(100); 
0D5CE:  MOVLW  64
0D5D0:  MOVLB  7
0D5D2:  MOVWF  x18
0D5D4:  MOVLB  0
0D5D6:  CALL   21D6
....................             Imprime=10; 
0D5DA:  MOVLW  0A
0D5DC:  MOVLB  3
0D5DE:  MOVWF  x00
....................             flagImprimir=1; 
0D5E0:  MOVLB  1
0D5E2:  BSF    x30.4
....................          } 
....................          if(PresionCamara<=Atmosferica+15 && PresionCamara>Atmosferica-10 && Temperatura<=Tapertura) 
0D5E4:  MOVLW  0F
0D5E6:  MOVLB  2
0D5E8:  ADDWF  xF6,W
0D5EA:  MOVF   xC2,F
0D5EC:  BNZ   D644
0D5EE:  SUBWF  xC1,W
0D5F0:  BZ    D5F4
0D5F2:  BC    D644
0D5F4:  MOVLW  0A
0D5F6:  SUBWF  xF6,W
0D5F8:  MOVF   xC2,F
0D5FA:  BNZ   D602
0D5FC:  SUBWF  xC1,W
0D5FE:  BZ    D644
0D600:  BNC   D644
0D602:  MOVLB  7
0D604:  CLRF   x15
0D606:  MOVFF  2A6,714
0D60A:  MOVLB  0
0D60C:  CALL   21A0
0D610:  MOVFF  26B,709
0D614:  MOVFF  26A,708
0D618:  MOVFF  269,707
0D61C:  MOVFF  268,706
0D620:  MOVFF  03,70D
0D624:  MOVFF  02,70C
0D628:  MOVFF  01,70B
0D62C:  MOVFF  00,70A
0D630:  CALL   2832
0D634:  BC    D63E
0D636:  BTFSC  FD8.2
0D638:  BRA    D63E
0D63A:  MOVLB  2
0D63C:  BRA    D644
....................             Start=OFF; 
0D63E:  MOVLB  1
0D640:  BCF    x2B.5
0D642:  MOVLB  2
....................       }else if(AlarmaTermostato){ 
0D644:  GOTO   DDBE
0D648:  MOVLB  1
0D64A:  BTFSS  x20.7
0D64C:  BRA    D750
....................          codigoAlarma=3; 
0D64E:  MOVLW  03
0D650:  MOVLB  2
0D652:  MOVWF  xDB
....................          tiempo_esterilizacion=0;tiempo_secado=0;          
0D654:  CLRF   xB2
0D656:  CLRF   xB3
....................          printf("Funcionamiento.t4f.txt=\" Termostato\""); 
0D658:  MOVLW  6C
0D65A:  MOVWF  FF6
0D65C:  MOVLW  14
0D65E:  MOVWF  FF7
0D660:  MOVLW  00
0D662:  MOVWF  FF8
0D664:  MOVLB  0
0D666:  CALL   4720
....................          SendDataDisplay(); 
0D66A:  CALL   4752
....................          printf("Funcionamiento.t5f.txt=\" Cancelado\""); 
0D66E:  MOVLW  92
0D670:  MOVWF  FF6
0D672:  MOVLW  14
0D674:  MOVWF  FF7
0D676:  MOVLW  00
0D678:  MOVWF  FF8
0D67A:  CALL   4720
....................          SendDataDisplay(); 
0D67E:  CALL   4752
....................          suministroVapor=OFF; 
0D682:  MOVLB  1
0D684:  BCF    x1F.1
....................          Desfogue=ON;                   
0D686:  BSF    x1F.4
....................          Paso=OFF; 
0D688:  BCF    x1F.2
....................          //if(!abrirPuertaL && !abrirPuertaS) 
....................             BombaVacio=OFF; 
0D68A:  BCF    31.6
....................          if(PresionCamara<Atmosferica) 
0D68C:  MOVLB  2
0D68E:  MOVF   xC2,F
0D690:  BNZ   D69E
0D692:  MOVF   xF6,W
0D694:  SUBWF  xC1,W
0D696:  BC    D69E
....................             Aire=ON; 
0D698:  MOVLB  1
0D69A:  BSF    x1F.5
....................          else 
0D69C:  BRA    D6A2
....................             Aire=OFF; 
0D69E:  MOVLB  1
0D6A0:  BCF    x1F.5
....................          aguaEnfriador=OFF; 
0D6A2:  BCF    31.5
....................          outVacio=OFF; 
0D6A4:  BCF    x1F.3
....................          Esterilizando=OFF; 
0D6A6:  BCF    x2A.7
....................          Desfogando=OFF; 
0D6A8:  BCF    x2B.2
....................          IniciaCiclo=OFF; 
0D6AA:  BCF    x2A.6
....................          Controlando=0; 
0D6AC:  MOVLB  2
0D6AE:  CLRF   x99
....................          if(codigoAnt!=codigoAlarma){ 
0D6B0:  MOVF   xDB,W
0D6B2:  SUBWF  xDC,W
0D6B4:  BZ    D6C4
....................             codigoAnt=codigoAlarma; 
0D6B6:  MOVFF  2DB,2DC
....................             GuardaDatoCiclo(); 
0D6BA:  MOVLB  0
0D6BC:  CALL   854A
....................             incrementaCiclos(); 
0D6C0:  CALL   89AE
....................          } 
....................          if(!flagImprimir){ 
0D6C4:  MOVLB  1
0D6C6:  BTFSC  x30.4
0D6C8:  BRA    D6EC
....................             Imprime=22; 
0D6CA:  MOVLW  16
0D6CC:  MOVLB  3
0D6CE:  MOVWF  x00
....................             Envio_Esclavos(); 
0D6D0:  MOVLB  0
0D6D2:  CALL   5DAC
....................             delay_ms(100); 
0D6D6:  MOVLW  64
0D6D8:  MOVLB  7
0D6DA:  MOVWF  x18
0D6DC:  MOVLB  0
0D6DE:  CALL   21D6
....................             Imprime=10; 
0D6E2:  MOVLW  0A
0D6E4:  MOVLB  3
0D6E6:  MOVWF  x00
....................             flagImprimir=1; 
0D6E8:  MOVLB  1
0D6EA:  BSF    x30.4
....................          } 
....................          if(PresionCamara<=Atmosferica+15 && PresionCamara>Atmosferica-10 && Temperatura<=Tapertura) 
0D6EC:  MOVLW  0F
0D6EE:  MOVLB  2
0D6F0:  ADDWF  xF6,W
0D6F2:  MOVF   xC2,F
0D6F4:  BNZ   D74C
0D6F6:  SUBWF  xC1,W
0D6F8:  BZ    D6FC
0D6FA:  BC    D74C
0D6FC:  MOVLW  0A
0D6FE:  SUBWF  xF6,W
0D700:  MOVF   xC2,F
0D702:  BNZ   D70A
0D704:  SUBWF  xC1,W
0D706:  BZ    D74C
0D708:  BNC   D74C
0D70A:  MOVLB  7
0D70C:  CLRF   x15
0D70E:  MOVFF  2A6,714
0D712:  MOVLB  0
0D714:  CALL   21A0
0D718:  MOVFF  26B,709
0D71C:  MOVFF  26A,708
0D720:  MOVFF  269,707
0D724:  MOVFF  268,706
0D728:  MOVFF  03,70D
0D72C:  MOVFF  02,70C
0D730:  MOVFF  01,70B
0D734:  MOVFF  00,70A
0D738:  CALL   2832
0D73C:  BC    D746
0D73E:  BTFSC  FD8.2
0D740:  BRA    D746
0D742:  MOVLB  2
0D744:  BRA    D74C
....................             Start=OFF; 
0D746:  MOVLB  1
0D748:  BCF    x2B.5
0D74A:  MOVLB  2
....................       }else if(AlarmaSobreTemperatura){                   
0D74C:  BRA    DDBE
0D74E:  MOVLB  1
0D750:  BTFSS  x20.6
0D752:  BRA    D850
....................          codigoAlarma=4; 
0D754:  MOVLW  04
0D756:  MOVLB  2
0D758:  MOVWF  xDB
....................          tiempo_esterilizacion=0;tiempo_secado=0;          
0D75A:  CLRF   xB2
0D75C:  CLRF   xB3
....................          printf("Funcionamiento.t4f.txt=\" Sobretemperatura\""); 
0D75E:  MOVLW  B6
0D760:  MOVWF  FF6
0D762:  MOVLW  14
0D764:  MOVWF  FF7
0D766:  MOVLW  00
0D768:  MOVWF  FF8
0D76A:  MOVLB  0
0D76C:  CALL   4720
....................          SendDataDisplay(); 
0D770:  CALL   4752
....................          printf("Funcionamiento.t5f.txt=\" Cancelado\""); 
0D774:  MOVLW  E2
0D776:  MOVWF  FF6
0D778:  MOVLW  14
0D77A:  MOVWF  FF7
0D77C:  MOVLW  00
0D77E:  MOVWF  FF8
0D780:  CALL   4720
....................          SendDataDisplay();   
0D784:  CALL   4752
....................          suministroVapor=OFF; 
0D788:  MOVLB  1
0D78A:  BCF    x1F.1
....................          Desfogue=ON; 
0D78C:  BSF    x1F.4
....................          Paso=OFF; 
0D78E:  BCF    x1F.2
....................          //if(!abrirPuertaL && !abrirPuertaS) 
....................             BombaVacio=OFF; 
0D790:  BCF    31.6
....................          if(PresionCamara<Atmosferica) 
0D792:  MOVLB  2
0D794:  MOVF   xC2,F
0D796:  BNZ   D7A4
0D798:  MOVF   xF6,W
0D79A:  SUBWF  xC1,W
0D79C:  BC    D7A4
....................             Aire=ON; 
0D79E:  MOVLB  1
0D7A0:  BSF    x1F.5
....................          else 
0D7A2:  BRA    D7A8
....................             Aire=OFF; 
0D7A4:  MOVLB  1
0D7A6:  BCF    x1F.5
....................          aguaEnfriador=OFF; 
0D7A8:  BCF    31.5
....................          outVacio=OFF; 
0D7AA:  BCF    x1F.3
....................          Controlando=0; 
0D7AC:  MOVLB  2
0D7AE:  CLRF   x99
....................          if(codigoAnt!=codigoAlarma){ 
0D7B0:  MOVF   xDB,W
0D7B2:  SUBWF  xDC,W
0D7B4:  BZ    D7C4
....................             codigoAnt=codigoAlarma; 
0D7B6:  MOVFF  2DB,2DC
....................             GuardaDatoCiclo(); 
0D7BA:  MOVLB  0
0D7BC:  CALL   854A
....................             incrementaCiclos(); 
0D7C0:  CALL   89AE
....................          } 
....................          if(!flagImprimir){ 
0D7C4:  MOVLB  1
0D7C6:  BTFSC  x30.4
0D7C8:  BRA    D7EC
....................             Imprime=23; 
0D7CA:  MOVLW  17
0D7CC:  MOVLB  3
0D7CE:  MOVWF  x00
....................             Envio_Esclavos(); 
0D7D0:  MOVLB  0
0D7D2:  CALL   5DAC
....................             delay_ms(100); 
0D7D6:  MOVLW  64
0D7D8:  MOVLB  7
0D7DA:  MOVWF  x18
0D7DC:  MOVLB  0
0D7DE:  CALL   21D6
....................             Imprime=10; 
0D7E2:  MOVLW  0A
0D7E4:  MOVLB  3
0D7E6:  MOVWF  x00
....................             flagImprimir=1; 
0D7E8:  MOVLB  1
0D7EA:  BSF    x30.4
....................          } 
....................          if(PresionCamara<=Atmosferica+15 && PresionCamara>Atmosferica-10 && Temperatura<=Tapertura) 
0D7EC:  MOVLW  0F
0D7EE:  MOVLB  2
0D7F0:  ADDWF  xF6,W
0D7F2:  MOVF   xC2,F
0D7F4:  BNZ   D84C
0D7F6:  SUBWF  xC1,W
0D7F8:  BZ    D7FC
0D7FA:  BC    D84C
0D7FC:  MOVLW  0A
0D7FE:  SUBWF  xF6,W
0D800:  MOVF   xC2,F
0D802:  BNZ   D80A
0D804:  SUBWF  xC1,W
0D806:  BZ    D84C
0D808:  BNC   D84C
0D80A:  MOVLB  7
0D80C:  CLRF   x15
0D80E:  MOVFF  2A6,714
0D812:  MOVLB  0
0D814:  CALL   21A0
0D818:  MOVFF  26B,709
0D81C:  MOVFF  26A,708
0D820:  MOVFF  269,707
0D824:  MOVFF  268,706
0D828:  MOVFF  03,70D
0D82C:  MOVFF  02,70C
0D830:  MOVFF  01,70B
0D834:  MOVFF  00,70A
0D838:  CALL   2832
0D83C:  BC    D846
0D83E:  BTFSC  FD8.2
0D840:  BRA    D846
0D842:  MOVLB  2
0D844:  BRA    D84C
....................             Start=OFF; 
0D846:  MOVLB  1
0D848:  BCF    x2B.5
0D84A:  MOVLB  2
....................       }else if(AlarmaTiempoProlongado){ 
0D84C:  BRA    DDBE
0D84E:  MOVLB  1
0D850:  BTFSS  x20.5
0D852:  BRA    D94C
....................          codigoAlarma=5; 
0D854:  MOVLW  05
0D856:  MOVLB  2
0D858:  MOVWF  xDB
....................          printf("Funcionamiento.t4f.txt=\" Tiempo Prolongado\""); 
0D85A:  MOVLW  06
0D85C:  MOVWF  FF6
0D85E:  MOVLW  15
0D860:  MOVWF  FF7
0D862:  MOVLW  00
0D864:  MOVWF  FF8
0D866:  MOVLB  0
0D868:  CALL   4720
....................          SendDataDisplay(); 
0D86C:  CALL   4752
....................          printf("Funcionamiento.t5f.txt=\" Cancelado\""); 
0D870:  MOVLW  32
0D872:  MOVWF  FF6
0D874:  MOVLW  15
0D876:  MOVWF  FF7
0D878:  MOVLW  00
0D87A:  MOVWF  FF8
0D87C:  CALL   4720
....................          SendDataDisplay(); 
0D880:  CALL   4752
....................          suministroVapor=OFF; 
0D884:  MOVLB  1
0D886:  BCF    x1F.1
....................          //if(!abrirPuertaL && !abrirPuertaS) 
....................             BombaVacio=OFF; 
0D888:  BCF    31.6
....................          Desfogue=ON; 
0D88A:  BSF    x1F.4
....................          Paso=OFF; 
0D88C:  BCF    x1F.2
....................          if(PresionCamara<Atmosferica) 
0D88E:  MOVLB  2
0D890:  MOVF   xC2,F
0D892:  BNZ   D8A0
0D894:  MOVF   xF6,W
0D896:  SUBWF  xC1,W
0D898:  BC    D8A0
....................             Aire=ON; 
0D89A:  MOVLB  1
0D89C:  BSF    x1F.5
....................          else 
0D89E:  BRA    D8A4
....................             Aire=OFF; 
0D8A0:  MOVLB  1
0D8A2:  BCF    x1F.5
....................          aguaEnfriador=OFF; 
0D8A4:  BCF    31.5
....................          outVacio=OFF; 
0D8A6:  BCF    x1F.3
....................          Controlando=0; 
0D8A8:  MOVLB  2
0D8AA:  CLRF   x99
....................          if(codigoAnt!=codigoAlarma){ 
0D8AC:  MOVF   xDB,W
0D8AE:  SUBWF  xDC,W
0D8B0:  BZ    D8C0
....................             codigoAnt=codigoAlarma; 
0D8B2:  MOVFF  2DB,2DC
....................             GuardaDatoCiclo(); 
0D8B6:  MOVLB  0
0D8B8:  CALL   854A
....................             incrementaCiclos(); 
0D8BC:  CALL   89AE
....................          } 
....................          if(!flagImprimir){ 
0D8C0:  MOVLB  1
0D8C2:  BTFSC  x30.4
0D8C4:  BRA    D8E8
....................             Imprime=24; 
0D8C6:  MOVLW  18
0D8C8:  MOVLB  3
0D8CA:  MOVWF  x00
....................             Envio_Esclavos(); 
0D8CC:  MOVLB  0
0D8CE:  CALL   5DAC
....................             delay_ms(100); 
0D8D2:  MOVLW  64
0D8D4:  MOVLB  7
0D8D6:  MOVWF  x18
0D8D8:  MOVLB  0
0D8DA:  CALL   21D6
....................             Imprime=10; 
0D8DE:  MOVLW  0A
0D8E0:  MOVLB  3
0D8E2:  MOVWF  x00
....................             flagImprimir=1; 
0D8E4:  MOVLB  1
0D8E6:  BSF    x30.4
....................          } 
....................          if(PresionCamara<=Atmosferica+15 && PresionCamara>Atmosferica-10 && Temperatura<=Tapertura) 
0D8E8:  MOVLW  0F
0D8EA:  MOVLB  2
0D8EC:  ADDWF  xF6,W
0D8EE:  MOVF   xC2,F
0D8F0:  BNZ   D948
0D8F2:  SUBWF  xC1,W
0D8F4:  BZ    D8F8
0D8F6:  BC    D948
0D8F8:  MOVLW  0A
0D8FA:  SUBWF  xF6,W
0D8FC:  MOVF   xC2,F
0D8FE:  BNZ   D906
0D900:  SUBWF  xC1,W
0D902:  BZ    D948
0D904:  BNC   D948
0D906:  MOVLB  7
0D908:  CLRF   x15
0D90A:  MOVFF  2A6,714
0D90E:  MOVLB  0
0D910:  CALL   21A0
0D914:  MOVFF  26B,709
0D918:  MOVFF  26A,708
0D91C:  MOVFF  269,707
0D920:  MOVFF  268,706
0D924:  MOVFF  03,70D
0D928:  MOVFF  02,70C
0D92C:  MOVFF  01,70B
0D930:  MOVFF  00,70A
0D934:  CALL   2832
0D938:  BC    D942
0D93A:  BTFSC  FD8.2
0D93C:  BRA    D942
0D93E:  MOVLB  2
0D940:  BRA    D948
....................             Start=OFF; 
0D942:  MOVLB  1
0D944:  BCF    x2B.5
0D946:  MOVLB  2
....................       }else if(AlarmaPresion){ // Alarma de Error de SobrePresion: Error por exceso de Presion. 
0D948:  BRA    DDBE
0D94A:  MOVLB  1
0D94C:  BTFSS  x2E.1
0D94E:  BRA    DA52
....................          codigoAlarma=6; 
0D950:  MOVLW  06
0D952:  MOVLB  2
0D954:  MOVWF  xDB
....................          printf("Funcionamiento.t4f.txt=\" SobrePresion\""); 
0D956:  MOVLW  56
0D958:  MOVWF  FF6
0D95A:  MOVLW  15
0D95C:  MOVWF  FF7
0D95E:  MOVLW  00
0D960:  MOVWF  FF8
0D962:  MOVLB  0
0D964:  CALL   4720
....................          SendDataDisplay(); 
0D968:  CALL   4752
....................          printf("Funcionamiento.t5f.txt=\" Cancelado\""); 
0D96C:  MOVLW  7E
0D96E:  MOVWF  FF6
0D970:  MOVLW  15
0D972:  MOVWF  FF7
0D974:  MOVLW  00
0D976:  MOVWF  FF8
0D978:  CALL   4720
....................          SendDataDisplay(); 
0D97C:  CALL   4752
....................          Desfogue=ON; 
0D980:  MOVLB  1
0D982:  BSF    x1F.4
....................          suministroVapor=OFF; 
0D984:  BCF    x1F.1
....................          //if(!abrirPuertaL && !abrirPuertaS) 
....................             BombaVacio=OFF; 
0D986:  BCF    31.6
....................          Aire=OFF; 
0D988:  BCF    x1F.5
....................          aguaEnfriador=OFF; 
0D98A:  BCF    31.5
....................          outVacio=OFF; 
0D98C:  BCF    x1F.3
....................          if(PresionPreCamara>(Atmosferica+4) && DOORS) 
0D98E:  MOVLW  04
0D990:  MOVLB  2
0D992:  ADDWF  xF6,W
0D994:  MOVF   xC4,F
0D996:  BNZ   D99E
0D998:  SUBWF  xC3,W
0D99A:  BZ    D9AA
0D99C:  BNC   D9AA
0D99E:  BSF    F93.1
0D9A0:  BTFSC  F81.1
0D9A2:  BRA    D9AA
....................             Paso=ON; 
0D9A4:  MOVLB  1
0D9A6:  BSF    x1F.2
....................          else 
0D9A8:  BRA    D9AE
....................             Paso=OFF; 
0D9AA:  MOVLB  1
0D9AC:  BCF    x1F.2
....................          Controlando=0; 
0D9AE:  MOVLB  2
0D9B0:  CLRF   x99
....................          if(codigoAnt!=codigoAlarma){ 
0D9B2:  MOVF   xDB,W
0D9B4:  SUBWF  xDC,W
0D9B6:  BZ    D9C6
....................             codigoAnt=codigoAlarma; 
0D9B8:  MOVFF  2DB,2DC
....................             GuardaDatoCiclo(); 
0D9BC:  MOVLB  0
0D9BE:  CALL   854A
....................             incrementaCiclos(); 
0D9C2:  CALL   89AE
....................          } 
....................          if(!flagImprimir){ 
0D9C6:  MOVLB  1
0D9C8:  BTFSC  x30.4
0D9CA:  BRA    D9EE
....................             Imprime=25; 
0D9CC:  MOVLW  19
0D9CE:  MOVLB  3
0D9D0:  MOVWF  x00
....................             Envio_Esclavos(); 
0D9D2:  MOVLB  0
0D9D4:  CALL   5DAC
....................             delay_ms(100); 
0D9D8:  MOVLW  64
0D9DA:  MOVLB  7
0D9DC:  MOVWF  x18
0D9DE:  MOVLB  0
0D9E0:  CALL   21D6
....................             Imprime=10; 
0D9E4:  MOVLW  0A
0D9E6:  MOVLB  3
0D9E8:  MOVWF  x00
....................             flagImprimir=1; 
0D9EA:  MOVLB  1
0D9EC:  BSF    x30.4
....................          } 
....................          if(PresionCamara<=Atmosferica+15 && PresionCamara>Atmosferica-10 && Temperatura<=Tapertura) 
0D9EE:  MOVLW  0F
0D9F0:  MOVLB  2
0D9F2:  ADDWF  xF6,W
0D9F4:  MOVF   xC2,F
0D9F6:  BNZ   DA4E
0D9F8:  SUBWF  xC1,W
0D9FA:  BZ    D9FE
0D9FC:  BC    DA4E
0D9FE:  MOVLW  0A
0DA00:  SUBWF  xF6,W
0DA02:  MOVF   xC2,F
0DA04:  BNZ   DA0C
0DA06:  SUBWF  xC1,W
0DA08:  BZ    DA4E
0DA0A:  BNC   DA4E
0DA0C:  MOVLB  7
0DA0E:  CLRF   x15
0DA10:  MOVFF  2A6,714
0DA14:  MOVLB  0
0DA16:  CALL   21A0
0DA1A:  MOVFF  26B,709
0DA1E:  MOVFF  26A,708
0DA22:  MOVFF  269,707
0DA26:  MOVFF  268,706
0DA2A:  MOVFF  03,70D
0DA2E:  MOVFF  02,70C
0DA32:  MOVFF  01,70B
0DA36:  MOVFF  00,70A
0DA3A:  CALL   2832
0DA3E:  BC    DA48
0DA40:  BTFSC  FD8.2
0DA42:  BRA    DA48
0DA44:  MOVLB  2
0DA46:  BRA    DA4E
....................             Start=OFF; 
0DA48:  MOVLB  1
0DA4A:  BCF    x2B.5
0DA4C:  MOVLB  2
....................       }else if(AlarmaBomba){ // Alarma de Error de que bomba no ha arrancado. 
0DA4E:  BRA    DDBE
0DA50:  MOVLB  1
0DA52:  BTFSS  x21.6
0DA54:  BRA    DB4C
....................          codigoAlarma=7; 
0DA56:  MOVLW  07
0DA58:  MOVLB  2
0DA5A:  MOVWF  xDB
....................          printf("Funcionamiento.t4f.txt=\" Error Bomba\""); 
0DA5C:  MOVLW  A2
0DA5E:  MOVWF  FF6
0DA60:  MOVLW  15
0DA62:  MOVWF  FF7
0DA64:  MOVLW  00
0DA66:  MOVWF  FF8
0DA68:  MOVLB  0
0DA6A:  CALL   4720
....................          SendDataDisplay(); 
0DA6E:  CALL   4752
....................          printf("Funcionamiento.t5f.txt=\" Cancelado\""); 
0DA72:  MOVLW  C8
0DA74:  MOVWF  FF6
0DA76:  MOVLW  15
0DA78:  MOVWF  FF7
0DA7A:  MOVLW  00
0DA7C:  MOVWF  FF8
0DA7E:  CALL   4720
....................          SendDataDisplay(); 
0DA82:  CALL   4752
....................          Desfogue=ON; 
0DA86:  MOVLB  1
0DA88:  BSF    x1F.4
....................          suministroVapor=OFF; 
0DA8A:  BCF    x1F.1
....................          //if(!abrirPuertaL && !abrirPuertaS) 
....................             BombaVacio=OFF; 
0DA8C:  BCF    31.6
....................          if(PresionCamara<Atmosferica) 
0DA8E:  MOVLB  2
0DA90:  MOVF   xC2,F
0DA92:  BNZ   DAA0
0DA94:  MOVF   xF6,W
0DA96:  SUBWF  xC1,W
0DA98:  BC    DAA0
....................             Aire=ON; 
0DA9A:  MOVLB  1
0DA9C:  BSF    x1F.5
....................          else 
0DA9E:  BRA    DAA4
....................             Aire=OFF; 
0DAA0:  MOVLB  1
0DAA2:  BCF    x1F.5
....................          aguaEnfriador=OFF; 
0DAA4:  BCF    31.5
....................          outVacio=OFF; 
0DAA6:  BCF    x1F.3
....................          Controlando=0; 
0DAA8:  MOVLB  2
0DAAA:  CLRF   x99
....................          if(codigoAnt!=codigoAlarma){ 
0DAAC:  MOVF   xDB,W
0DAAE:  SUBWF  xDC,W
0DAB0:  BZ    DAC0
....................             codigoAnt=codigoAlarma; 
0DAB2:  MOVFF  2DB,2DC
....................             GuardaDatoCiclo(); 
0DAB6:  MOVLB  0
0DAB8:  CALL   854A
....................             incrementaCiclos(); 
0DABC:  CALL   89AE
....................          } 
....................          if(!flagImprimir){ 
0DAC0:  MOVLB  1
0DAC2:  BTFSC  x30.4
0DAC4:  BRA    DAE8
....................             Imprime=26; 
0DAC6:  MOVLW  1A
0DAC8:  MOVLB  3
0DACA:  MOVWF  x00
....................             Envio_Esclavos(); 
0DACC:  MOVLB  0
0DACE:  CALL   5DAC
....................             delay_ms(100); 
0DAD2:  MOVLW  64
0DAD4:  MOVLB  7
0DAD6:  MOVWF  x18
0DAD8:  MOVLB  0
0DADA:  CALL   21D6
....................             Imprime=10; 
0DADE:  MOVLW  0A
0DAE0:  MOVLB  3
0DAE2:  MOVWF  x00
....................             flagImprimir=1; 
0DAE4:  MOVLB  1
0DAE6:  BSF    x30.4
....................          } 
....................          if(PresionCamara<=Atmosferica+15 && PresionCamara>Atmosferica-10 && Temperatura<=Tapertura) 
0DAE8:  MOVLW  0F
0DAEA:  MOVLB  2
0DAEC:  ADDWF  xF6,W
0DAEE:  MOVF   xC2,F
0DAF0:  BNZ   DB48
0DAF2:  SUBWF  xC1,W
0DAF4:  BZ    DAF8
0DAF6:  BC    DB48
0DAF8:  MOVLW  0A
0DAFA:  SUBWF  xF6,W
0DAFC:  MOVF   xC2,F
0DAFE:  BNZ   DB06
0DB00:  SUBWF  xC1,W
0DB02:  BZ    DB48
0DB04:  BNC   DB48
0DB06:  MOVLB  7
0DB08:  CLRF   x15
0DB0A:  MOVFF  2A6,714
0DB0E:  MOVLB  0
0DB10:  CALL   21A0
0DB14:  MOVFF  26B,709
0DB18:  MOVFF  26A,708
0DB1C:  MOVFF  269,707
0DB20:  MOVFF  268,706
0DB24:  MOVFF  03,70D
0DB28:  MOVFF  02,70C
0DB2C:  MOVFF  01,70B
0DB30:  MOVFF  00,70A
0DB34:  CALL   2832
0DB38:  BC    DB42
0DB3A:  BTFSC  FD8.2
0DB3C:  BRA    DB42
0DB3E:  MOVLB  2
0DB40:  BRA    DB48
....................             Start=OFF; 
0DB42:  MOVLB  1
0DB44:  BCF    x2B.5
0DB46:  MOVLB  2
....................       }else if(AlarmaVacio){ // Alarma de Error de que genera el Vacio en el tiempo estipulado. 
0DB48:  BRA    DDBE
0DB4A:  MOVLB  1
0DB4C:  BTFSS  x21.3
0DB4E:  BRA    DC46
....................          codigoAlarma=8; 
0DB50:  MOVLW  08
0DB52:  MOVLB  2
0DB54:  MOVWF  xDB
....................          printf("Funcionamiento.t4f.txt=\" Error Vacio\""); 
0DB56:  MOVLW  EC
0DB58:  MOVWF  FF6
0DB5A:  MOVLW  15
0DB5C:  MOVWF  FF7
0DB5E:  MOVLW  00
0DB60:  MOVWF  FF8
0DB62:  MOVLB  0
0DB64:  CALL   4720
....................          SendDataDisplay(); 
0DB68:  CALL   4752
....................          printf("Funcionamiento.t5f.txt=\" Cancelado\""); 
0DB6C:  MOVLW  12
0DB6E:  MOVWF  FF6
0DB70:  MOVLW  16
0DB72:  MOVWF  FF7
0DB74:  MOVLW  00
0DB76:  MOVWF  FF8
0DB78:  CALL   4720
....................          SendDataDisplay(); 
0DB7C:  CALL   4752
....................          Desfogue=ON; 
0DB80:  MOVLB  1
0DB82:  BSF    x1F.4
....................          suministroVapor=OFF; 
0DB84:  BCF    x1F.1
....................          //if(!abrirPuertaL && !abrirPuertaS) 
....................             BombaVacio=OFF; 
0DB86:  BCF    31.6
....................          if(PresionCamara<Atmosferica) 
0DB88:  MOVLB  2
0DB8A:  MOVF   xC2,F
0DB8C:  BNZ   DB9A
0DB8E:  MOVF   xF6,W
0DB90:  SUBWF  xC1,W
0DB92:  BC    DB9A
....................             Aire=ON; 
0DB94:  MOVLB  1
0DB96:  BSF    x1F.5
....................          else 
0DB98:  BRA    DB9E
....................             Aire=OFF; 
0DB9A:  MOVLB  1
0DB9C:  BCF    x1F.5
....................          aguaEnfriador=OFF; 
0DB9E:  BCF    31.5
....................          outVacio=OFF; 
0DBA0:  BCF    x1F.3
....................          Controlando=0; 
0DBA2:  MOVLB  2
0DBA4:  CLRF   x99
....................          if(codigoAnt!=codigoAlarma){ 
0DBA6:  MOVF   xDB,W
0DBA8:  SUBWF  xDC,W
0DBAA:  BZ    DBBA
....................             codigoAnt=codigoAlarma; 
0DBAC:  MOVFF  2DB,2DC
....................             GuardaDatoCiclo(); 
0DBB0:  MOVLB  0
0DBB2:  CALL   854A
....................             incrementaCiclos(); 
0DBB6:  CALL   89AE
....................          } 
....................           
....................          if(!flagImprimir){ 
0DBBA:  MOVLB  1
0DBBC:  BTFSC  x30.4
0DBBE:  BRA    DBE2
....................             Imprime=27; 
0DBC0:  MOVLW  1B
0DBC2:  MOVLB  3
0DBC4:  MOVWF  x00
....................             Envio_Esclavos(); 
0DBC6:  MOVLB  0
0DBC8:  CALL   5DAC
....................             delay_ms(100); 
0DBCC:  MOVLW  64
0DBCE:  MOVLB  7
0DBD0:  MOVWF  x18
0DBD2:  MOVLB  0
0DBD4:  CALL   21D6
....................             Imprime=10; 
0DBD8:  MOVLW  0A
0DBDA:  MOVLB  3
0DBDC:  MOVWF  x00
....................             flagImprimir=1; 
0DBDE:  MOVLB  1
0DBE0:  BSF    x30.4
....................          } 
....................          if(PresionCamara<=Atmosferica+15 && PresionCamara>Atmosferica-10 && Temperatura<=Tapertura) 
0DBE2:  MOVLW  0F
0DBE4:  MOVLB  2
0DBE6:  ADDWF  xF6,W
0DBE8:  MOVF   xC2,F
0DBEA:  BNZ   DC42
0DBEC:  SUBWF  xC1,W
0DBEE:  BZ    DBF2
0DBF0:  BC    DC42
0DBF2:  MOVLW  0A
0DBF4:  SUBWF  xF6,W
0DBF6:  MOVF   xC2,F
0DBF8:  BNZ   DC00
0DBFA:  SUBWF  xC1,W
0DBFC:  BZ    DC42
0DBFE:  BNC   DC42
0DC00:  MOVLB  7
0DC02:  CLRF   x15
0DC04:  MOVFF  2A6,714
0DC08:  MOVLB  0
0DC0A:  CALL   21A0
0DC0E:  MOVFF  26B,709
0DC12:  MOVFF  26A,708
0DC16:  MOVFF  269,707
0DC1A:  MOVFF  268,706
0DC1E:  MOVFF  03,70D
0DC22:  MOVFF  02,70C
0DC26:  MOVFF  01,70B
0DC2A:  MOVFF  00,70A
0DC2E:  CALL   2832
0DC32:  BC    DC3C
0DC34:  BTFSC  FD8.2
0DC36:  BRA    DC3C
0DC38:  MOVLB  2
0DC3A:  BRA    DC42
....................             Start=OFF; 
0DC3C:  MOVLB  1
0DC3E:  BCF    x2B.5
0DC40:  MOVLB  2
....................       }else if(AlarmaEmpaqueS || AlarmaEmpaqueL){ // Alarma de Error de que el empaque no se presuriza 
0DC42:  BRA    DDBE
0DC44:  MOVLB  1
0DC46:  BTFSC  x21.5
0DC48:  BRA    DC4E
0DC4A:  BTFSS  x21.4
0DC4C:  BRA    DD74
....................          codigoAlarma=9; 
0DC4E:  MOVLW  09
0DC50:  MOVLB  2
0DC52:  MOVWF  xDB
....................          printf("Funcionamiento.t4f.txt=\" Error Empaque\""); 
0DC54:  MOVLW  36
0DC56:  MOVWF  FF6
0DC58:  MOVLW  16
0DC5A:  MOVWF  FF7
0DC5C:  MOVLW  00
0DC5E:  MOVWF  FF8
0DC60:  MOVLB  0
0DC62:  CALL   4720
....................          SendDataDisplay(); 
0DC66:  CALL   4752
....................          printf("Funcionamiento.t5f.txt=\" Cancelado\""); 
0DC6A:  MOVLW  5E
0DC6C:  MOVWF  FF6
0DC6E:  MOVLW  16
0DC70:  MOVWF  FF7
0DC72:  MOVLW  00
0DC74:  MOVWF  FF8
0DC76:  CALL   4720
....................          SendDataDisplay(); 
0DC7A:  CALL   4752
....................          if(AlarmaEmpaqueL && PresionCamara<Atmosferica+4) 
0DC7E:  MOVLB  1
0DC80:  BTFSS  x21.4
0DC82:  BRA    DCA2
0DC84:  MOVLW  04
0DC86:  MOVLB  2
0DC88:  ADDWF  xF6,W
0DC8A:  MOVF   xC2,F
0DC8C:  BTFSC  FD8.2
0DC8E:  BRA    DC94
0DC90:  MOVLB  1
0DC92:  BRA    DCA2
0DC94:  SUBWF  xC1,W
0DC96:  BTFSS  FD8.0
0DC98:  BRA    DC9E
0DC9A:  MOVLB  1
0DC9C:  BRA    DCA2
....................             empaqueLimpio=OFF; 
0DC9E:  BCF    31.7
0DCA0:  MOVLB  1
....................          if(AlarmaEmpaqueS && PresionCamara<Atmosferica+4) 
0DCA2:  BTFSS  x21.5
0DCA4:  BRA    DCC4
0DCA6:  MOVLW  04
0DCA8:  MOVLB  2
0DCAA:  ADDWF  xF6,W
0DCAC:  MOVF   xC2,F
0DCAE:  BTFSC  FD8.2
0DCB0:  BRA    DCB6
0DCB2:  MOVLB  1
0DCB4:  BRA    DCC4
0DCB6:  SUBWF  xC1,W
0DCB8:  BTFSS  FD8.0
0DCBA:  BRA    DCC0
0DCBC:  MOVLB  1
0DCBE:  BRA    DCC4
....................             empaqueSucio=OFF; 
0DCC0:  MOVLB  1
0DCC2:  BCF    x1F.0
....................          Desfogue=ON; 
0DCC4:  BSF    x1F.4
....................          suministroVapor=OFF; 
0DCC6:  BCF    x1F.1
....................          //if(!abrirPuertaL && !abrirPuertaS) 
....................             BombaVacio=OFF; 
0DCC8:  BCF    31.6
....................          Aire=OFF; 
0DCCA:  BCF    x1F.5
....................          aguaEnfriador=OFF; 
0DCCC:  BCF    31.5
....................          outVacio=OFF; 
0DCCE:  BCF    x1F.3
....................          Controlando=0; 
0DCD0:  MOVLB  2
0DCD2:  CLRF   x99
....................          if(codigoAnt!=codigoAlarma){ 
0DCD4:  MOVF   xDB,W
0DCD6:  SUBWF  xDC,W
0DCD8:  BZ    DCE8
....................             codigoAnt=codigoAlarma; 
0DCDA:  MOVFF  2DB,2DC
....................             GuardaDatoCiclo(); 
0DCDE:  MOVLB  0
0DCE0:  CALL   854A
....................             incrementaCiclos(); 
0DCE4:  CALL   89AE
....................          } 
....................           
....................          if(!flagImprimir){ 
0DCE8:  MOVLB  1
0DCEA:  BTFSC  x30.4
0DCEC:  BRA    DD10
....................             Imprime=29; 
0DCEE:  MOVLW  1D
0DCF0:  MOVLB  3
0DCF2:  MOVWF  x00
....................             Envio_Esclavos(); 
0DCF4:  MOVLB  0
0DCF6:  CALL   5DAC
....................             delay_ms(100); 
0DCFA:  MOVLW  64
0DCFC:  MOVLB  7
0DCFE:  MOVWF  x18
0DD00:  MOVLB  0
0DD02:  CALL   21D6
....................             Imprime=10; 
0DD06:  MOVLW  0A
0DD08:  MOVLB  3
0DD0A:  MOVWF  x00
....................             flagImprimir=1; 
0DD0C:  MOVLB  1
0DD0E:  BSF    x30.4
....................          } 
....................          if(PresionCamara<=Atmosferica+15 && PresionCamara>Atmosferica-10 && Temperatura<=Tapertura) 
0DD10:  MOVLW  0F
0DD12:  MOVLB  2
0DD14:  ADDWF  xF6,W
0DD16:  MOVF   xC2,F
0DD18:  BNZ   DD70
0DD1A:  SUBWF  xC1,W
0DD1C:  BZ    DD20
0DD1E:  BC    DD70
0DD20:  MOVLW  0A
0DD22:  SUBWF  xF6,W
0DD24:  MOVF   xC2,F
0DD26:  BNZ   DD2E
0DD28:  SUBWF  xC1,W
0DD2A:  BZ    DD70
0DD2C:  BNC   DD70
0DD2E:  MOVLB  7
0DD30:  CLRF   x15
0DD32:  MOVFF  2A6,714
0DD36:  MOVLB  0
0DD38:  CALL   21A0
0DD3C:  MOVFF  26B,709
0DD40:  MOVFF  26A,708
0DD44:  MOVFF  269,707
0DD48:  MOVFF  268,706
0DD4C:  MOVFF  03,70D
0DD50:  MOVFF  02,70C
0DD54:  MOVFF  01,70B
0DD58:  MOVFF  00,70A
0DD5C:  CALL   2832
0DD60:  BC    DD6A
0DD62:  BTFSC  FD8.2
0DD64:  BRA    DD6A
0DD66:  MOVLB  2
0DD68:  BRA    DD70
....................             Start=OFF; 
0DD6A:  MOVLB  1
0DD6C:  BCF    x2B.5
0DD6E:  MOVLB  2
....................       }else if(!Start){ // Inicio o pausa de Ciclo 
0DD70:  BRA    DDBE
0DD72:  MOVLB  1
0DD74:  BTFSC  x2B.5
0DD76:  BRA    DDC0
....................          printf("Funcionamiento.t4f.txt=\" Ciclo no Iniciado\""); 
0DD78:  MOVLW  82
0DD7A:  MOVWF  FF6
0DD7C:  MOVLW  16
0DD7E:  MOVWF  FF7
0DD80:  MOVLW  00
0DD82:  MOVWF  FF8
0DD84:  MOVLB  0
0DD86:  CALL   4720
....................          SendDataDisplay(); 
0DD8A:  CALL   4752
....................          printf("Funcionamiento.t5f.txt=\" Pausado\""); 
0DD8E:  MOVLW  AE
0DD90:  MOVWF  FF6
0DD92:  MOVLW  16
0DD94:  MOVWF  FF7
0DD96:  MOVLW  00
0DD98:  MOVWF  FF8
0DD9A:  CALL   4720
....................          SendDataDisplay(); 
0DD9E:  CALL   4752
....................          Desfogue=OFF; 
0DDA2:  MOVLB  1
0DDA4:  BCF    x1F.4
....................          suministroVapor=OFF; 
0DDA6:  BCF    x1F.1
....................          //if(!abrirPuertaL && !abrirPuertaS) 
....................             BombaVacio=OFF; 
0DDA8:  BCF    31.6
....................          Aire=OFF; 
0DDAA:  BCF    x1F.5
....................          aguaEnfriador=OFF; 
0DDAC:  BCF    31.5
....................          outVacio=OFF; 
0DDAE:  BCF    x1F.3
....................          Controlando=0; 
0DDB0:  MOVLB  2
0DDB2:  CLRF   x99
....................          EstadoBuzzer=OFF; 
0DDB4:  MOVLB  1
0DDB6:  BCF    x2D.4
....................          codigoAlarma=19; 
0DDB8:  MOVLW  13
0DDBA:  MOVLB  2
0DDBC:  MOVWF  xDB
0DDBE:  MOVLB  1
....................       } 
....................    }else if(Start){ 
0DDC0:  GOTO   E87A
0DDC4:  BTFSS  x2B.5
0DDC6:  GOTO   E87A
....................       printf("b2.pic=85"); 
0DDCA:  MOVLW  D0
0DDCC:  MOVWF  FF6
0DDCE:  MOVLW  16
0DDD0:  MOVWF  FF7
0DDD2:  MOVLW  00
0DDD4:  MOVWF  FF8
0DDD6:  MOVLB  0
0DDD8:  CALL   4720
....................       SendDataDisplay(); 
0DDDC:  CALL   4752
....................       if(flagImprime){ 
0DDE0:  MOVLB  2
0DDE2:  BTFSS  x96.1
0DDE4:  BRA    DE08
....................          Imprime=5; 
0DDE6:  MOVLW  05
0DDE8:  MOVLB  3
0DDEA:  MOVWF  x00
....................          Envio_Esclavos(); 
0DDEC:  MOVLB  0
0DDEE:  CALL   5DAC
....................          delay_ms(100); 
0DDF2:  MOVLW  64
0DDF4:  MOVLB  7
0DDF6:  MOVWF  x18
0DDF8:  MOVLB  0
0DDFA:  CALL   21D6
....................          Imprime=10; 
0DDFE:  MOVLW  0A
0DE00:  MOVLB  3
0DE02:  MOVWF  x00
....................          flagImprime=0; 
0DE04:  MOVLB  2
0DE06:  BCF    x96.1
....................       } 
....................        
....................       if(!Fugas){//Si selecciono un ciclo diferente al test de fugas 
0DE08:  MOVLB  1
0DE0A:  BTFSC  x2E.6
0DE0C:  GOTO   E576
....................          EstadoBuzzer=OFF; 
0DE10:  BCF    x2D.4
....................          IniciaCiclo=ON; 
0DE12:  BSF    x2A.6
....................        
....................       if(!Precalentamiento){  
0DE14:  BTFSC  x2E.7
0DE16:  BRA    DE76
....................          SuministroVapor=ON; 
0DE18:  BSF    x1F.1
....................          aguaEnfriador=OFF; 
0DE1A:  BCF    31.5
....................          Paso=OFF; 
0DE1C:  BCF    x1F.2
....................          Desfogue=OFF; 
0DE1E:  BCF    x1F.4
....................          printf("Funcionamiento.t4f.txt=\" Ninguna\""); 
0DE20:  MOVLW  DA
0DE22:  MOVWF  FF6
0DE24:  MOVLW  16
0DE26:  MOVWF  FF7
0DE28:  MOVLW  00
0DE2A:  MOVWF  FF8
0DE2C:  MOVLB  0
0DE2E:  CALL   4720
....................          SendDataDisplay(); 
0DE32:  CALL   4752
....................          printf("Funcionamiento.t5f.txt=\" PreCalentando\""); 
0DE36:  MOVLW  FC
0DE38:  MOVWF  FF6
0DE3A:  MOVLW  16
0DE3C:  MOVWF  FF7
0DE3E:  MOVLW  00
0DE40:  MOVWF  FF8
0DE42:  CALL   4720
....................          SendDataDisplay(); 
0DE46:  CALL   4752
....................          ControlaPresion();  
0DE4A:  CALL   8A40
....................          Controlando=0; 
0DE4E:  MOVLB  2
0DE50:  CLRF   x99
....................          IniciaVacio=OFF; 
0DE52:  MOVLB  1
0DE54:  BCF    x2F.0
....................          IniciaVacio2=OFF; 
0DE56:  BCF    x2F.1
....................          codigoAlarma=10; 
0DE58:  MOVLW  0A
0DE5A:  MOVLB  2
0DE5C:  MOVWF  xDB
....................          if(codigoAnt!=codigoAlarma){ 
0DE5E:  MOVF   xDB,W
0DE60:  SUBWF  xDC,W
0DE62:  BZ    DE70
....................             codigoAnt=codigoAlarma; 
0DE64:  MOVFF  2DB,2DC
....................             GuardaDatoCiclo(); 
0DE68:  MOVLB  0
0DE6A:  CALL   854A
0DE6E:  MOVLB  2
....................          } 
....................       }else{ 
0DE70:  GOTO   E572
0DE74:  MOVLB  1
....................          if(!Vacio){ //Si no ha realizado los pulsos de vacio 
0DE76:  BTFSC  x2F.2
0DE78:  BRA    E044
....................             codigoAlarma=11; 
0DE7A:  MOVLW  0B
0DE7C:  MOVLB  2
0DE7E:  MOVWF  xDB
....................             if(codigoAnt!=codigoAlarma){ 
0DE80:  MOVF   xDB,W
0DE82:  SUBWF  xDC,W
0DE84:  BZ    DE90
....................                codigoAnt=codigoAlarma; 
0DE86:  MOVFF  2DB,2DC
....................                GuardaDatoCiclo();                
0DE8A:  MOVLB  0
0DE8C:  CALL   854A
....................             } 
....................             if(!flag_vac){//Ciclo inicial para purga de Bomba 
0DE90:  MOVLB  1
0DE92:  BTFSC  x2F.3
0DE94:  BRA    DEC2
....................                flag_vac=ON; 
0DE96:  BSF    x2F.3
....................                outVacio=OFF; 
0DE98:  BCF    x1F.3
....................                Desfogue=OFF; 
0DE9A:  BCF    x1F.4
....................                Aire=OFF; 
0DE9C:  BCF    x1F.5
....................                //Paso=OFF; 
....................                aguaEnfriador=ON; 
0DE9E:  BSF    31.5
....................                delay_ms(70); 
0DEA0:  MOVLW  46
0DEA2:  MOVLB  7
0DEA4:  MOVWF  x18
0DEA6:  MOVLB  0
0DEA8:  CALL   21D6
....................                if(ReservorioLleno) 
0DEAC:  MOVLB  1
0DEAE:  BTFSS  x31.1
0DEB0:  BRA    DEB6
....................                   BombaVacio=ON; 
0DEB2:  BSF    31.6
....................                else 
0DEB4:  BRA    DEB8
....................                   BombaVacio=OFF; 
0DEB6:  BCF    31.6
....................                IniciaVacio2=ON; 
0DEB8:  BSF    x2F.1
....................                PulsoPositivo=10; //Prueba para ver rendimiento de bomba de vacio************ 
0DEBA:  MOVLW  0A
0DEBC:  MOVLB  2
0DEBE:  MOVWF  xF7
0DEC0:  MOVLB  1
....................             } 
....................             printf("Funcionamiento.t4f.txt=\" Ninguna\""); 
0DEC2:  MOVLW  24
0DEC4:  MOVWF  FF6
0DEC6:  MOVLW  17
0DEC8:  MOVWF  FF7
0DECA:  MOVLW  00
0DECC:  MOVWF  FF8
0DECE:  MOVLB  0
0DED0:  CALL   4720
....................             SendDataDisplay(); 
0DED4:  CALL   4752
....................             ControlaPresion(); 
0DED8:  CALL   8A40
....................             IniciaVacio=ON; 
0DEDC:  MOVLB  1
0DEDE:  BSF    x2F.0
....................                 
....................             if(PresionCamara>NivelVacio && PulsoPositivo==10){//Pulso Negativo 
0DEE0:  MOVLB  2
0DEE2:  MOVF   xC2,F
0DEE4:  BNZ   DEEC
0DEE6:  MOVF   xC1,W
0DEE8:  SUBWF  xF5,W
0DEEA:  BC    DF5C
0DEEC:  MOVF   xF7,W
0DEEE:  SUBLW  0A
0DEF0:  BNZ   DF5C
....................                flag_vacio=1; 
0DEF2:  MOVLB  1
0DEF4:  BSF    x2F.4
....................                if(ReservorioLleno) 
0DEF6:  BTFSS  x31.1
0DEF8:  BRA    DEFE
....................                   BombaVacio=ON; 
0DEFA:  BSF    31.6
....................                else 
0DEFC:  BRA    DF00
....................                   BombaVacio=OFF; 
0DEFE:  BCF    31.6
....................                outVacio=ON; 
0DF00:  BSF    x1F.3
....................                Desfogue=OFF; 
0DF02:  BCF    x1F.4
....................                Aire=OFF;                      
0DF04:  BCF    x1F.5
....................                Paso=OFF; 
0DF06:  BCF    x1F.2
....................                if(PulsosVacio>=2) 
0DF08:  MOVLB  2
0DF0A:  MOVF   xF8,W
0DF0C:  SUBLW  01
0DF0E:  BC    DF14
....................                   aguaEnfriador=ON; 
0DF10:  BSF    31.5
....................                else 
0DF12:  BRA    DF16
....................                   aguaEnfriador=OFF; 
0DF14:  BCF    31.5
....................                if(flag_pulso==0){ 
0DF16:  MOVLB  1
0DF18:  BTFSC  x2F.5
0DF1A:  BRA    DF24
....................                   PulsosVacio++; 
0DF1C:  MOVLB  2
0DF1E:  INCF   xF8,F
....................                   flag_pulso=1; 
0DF20:  MOVLB  1
0DF22:  BSF    x2F.5
....................                } 
....................                printf("Funcionamiento.t5f.txt=\" Pulso de Vacio %u\"",PulsosVacio); 
0DF24:  MOVLW  46
0DF26:  MOVWF  FF6
0DF28:  MOVLW  17
0DF2A:  MOVWF  FF7
0DF2C:  MOVLW  00
0DF2E:  MOVWF  FF8
0DF30:  MOVLW  28
0DF32:  MOVLB  7
0DF34:  MOVWF  x08
0DF36:  MOVLB  0
0DF38:  CALL   628E
0DF3C:  MOVFF  2F8,708
0DF40:  MOVLW  1B
0DF42:  MOVLB  7
0DF44:  MOVWF  x09
0DF46:  MOVLB  0
0DF48:  CALL   6312
0DF4C:  MOVLW  22
0DF4E:  BTFSS  F9E.4
0DF50:  BRA    DF4E
0DF52:  MOVWF  FAD
....................                SendDataDisplay(); 
0DF54:  CALL   4752
....................             }else{ 
0DF58:  BRA    DF60
0DF5A:  MOVLB  2
....................                PulsoPositivo=5; 
0DF5C:  MOVLW  05
0DF5E:  MOVWF  xF7
....................             } 
....................              
....................             if(PulsosVacio>=CantidadPulsos && PulsoPositivo==5){//Si realiza los pulsos de vacio, continua con el proceso de calentamiento 
0DF60:  MOVLB  2
0DF62:  MOVF   xA8,F
0DF64:  BNZ   DF8C
0DF66:  MOVF   xA7,W
0DF68:  SUBWF  xF8,W
0DF6A:  BNC   DF8C
0DF6C:  MOVF   xF7,W
0DF6E:  SUBLW  05
0DF70:  BNZ   DF8C
....................                Vacio=ON; 
0DF72:  MOVLB  1
0DF74:  BSF    x2F.2
....................                outVacio=OFF; 
0DF76:  BCF    x1F.3
....................                BombaVacio=OFF; 
0DF78:  BCF    31.6
....................                outVacio=OFF; 
0DF7A:  BCF    x1F.3
....................                Desfogue=OFF; 
0DF7C:  BCF    x1F.4
....................                Aire=OFF;                                  
0DF7E:  BCF    x1F.5
....................                IniciaVacio=OFF; 
0DF80:  BCF    x2F.0
....................                Paso=ON; 
0DF82:  BSF    x1F.2
....................                aguaEnfriador=OFF; 
0DF84:  BCF    31.5
....................                PulsoPositivo=10; 
0DF86:  MOVLW  0A
0DF88:  MOVLB  2
0DF8A:  MOVWF  xF7
....................             } 
....................                
....................             if(PulsoPositivo==5){//Pulso Positivo 
0DF8C:  MOVF   xF7,W
0DF8E:  SUBLW  05
0DF90:  BNZ   DFFC
....................                tvacio=0; 
0DF92:  CLRF   xCA
0DF94:  CLRF   xC9
....................                flag_pulso=0; 
0DF96:  MOVLB  1
0DF98:  BCF    x2F.5
....................                printf("Funcionamiento.t5f.txt=\" Pulso Positivo %u\"",PulsosVacio); 
0DF9A:  MOVLW  72
0DF9C:  MOVWF  FF6
0DF9E:  MOVLW  17
0DFA0:  MOVWF  FF7
0DFA2:  MOVLW  00
0DFA4:  MOVWF  FF8
0DFA6:  MOVLW  28
0DFA8:  MOVLB  7
0DFAA:  MOVWF  x08
0DFAC:  MOVLB  0
0DFAE:  CALL   628E
0DFB2:  MOVFF  2F8,708
0DFB6:  MOVLW  1B
0DFB8:  MOVLB  7
0DFBA:  MOVWF  x09
0DFBC:  MOVLB  0
0DFBE:  CALL   6312
0DFC2:  MOVLW  22
0DFC4:  BTFSS  F9E.4
0DFC6:  BRA    DFC4
0DFC8:  MOVWF  FAD
....................                SendDataDisplay(); 
0DFCA:  CALL   4752
....................                if(ReservorioLleno) 
0DFCE:  MOVLB  1
0DFD0:  BTFSS  x31.1
0DFD2:  BRA    DFD8
....................                   BombaVacio=ON; 
0DFD4:  BSF    31.6
....................                else 
0DFD6:  BRA    DFDA
....................                   BombaVacio=OFF; 
0DFD8:  BCF    31.6
....................                outVacio=OFF; 
0DFDA:  BCF    x1F.3
....................                Desfogue=OFF; 
0DFDC:  BCF    x1F.4
....................                Aire=OFF;                      
0DFDE:  BCF    x1F.5
....................                Paso=ON;      
0DFE0:  BSF    x1F.2
....................                AguaEnfriador=OFF; 
0DFE2:  BCF    31.5
....................                if(PresionCamara>=Atmosferica+30){ 
0DFE4:  MOVLW  1E
0DFE6:  MOVLB  2
0DFE8:  ADDWF  xF6,W
0DFEA:  MOVF   xC2,F
0DFEC:  BNZ   DFF2
0DFEE:  SUBWF  xC1,W
0DFF0:  BNC   DFFC
....................                   Paso=OFF; 
0DFF2:  MOVLB  1
0DFF4:  BCF    x1F.2
....................                   PulsoPositivo=10; 
0DFF6:  MOVLW  0A
0DFF8:  MOVLB  2
0DFFA:  MOVWF  xF7
....................                }   
....................             } 
....................                 
....................             if(tbomba>=120 && PulsosVacio==0){//Si no se ha generado ningun pulso de vacio despues de 120 segundos se genera alarma 
0DFFC:  MOVF   xC8,F
0DFFE:  BNZ   E006
0E000:  MOVF   xC7,W
0E002:  SUBLW  77
0E004:  BC    E024
0E006:  MOVF   xF8,F
0E008:  BNZ   E024
....................                if(PresionCamara>Atmosferica){ 
0E00A:  MOVF   xC2,F
0E00C:  BNZ   E014
0E00E:  MOVF   xC1,W
0E010:  SUBWF  xF6,W
0E012:  BC    E01C
....................                   AlarmaBomba=ON; 
0E014:  MOVLB  1
0E016:  BSF    x21.6
....................                }else{ 
0E018:  BRA    E024
0E01A:  MOVLB  2
....................                   tbomba=0; 
0E01C:  CLRF   xC8
0E01E:  CLRF   xC7
....................                   IniciaVacio2=OFF; 
0E020:  MOVLB  1
0E022:  BCF    x2F.1
....................                } 
....................              } 
....................                 
....................             if(tvacio>=TiempoVacio){//Si excede el tiempo maximo para generar los pulsos de vacio genera alarma             
0E024:  MOVLB  1
0E026:  MOVF   x25,W
0E028:  MOVLB  2
0E02A:  SUBWF  xCA,W
0E02C:  BNC   E040
0E02E:  BNZ   E03A
0E030:  MOVLB  1
0E032:  MOVF   x24,W
0E034:  MOVLB  2
0E036:  SUBWF  xC9,W
0E038:  BNC   E040
....................                AlarmaVacio=ON; 
0E03A:  MOVLB  1
0E03C:  BSF    x21.3
0E03E:  MOVLB  2
....................             } 
....................          }else{ 
0E040:  BRA    E572
0E042:  MOVLB  1
....................             IniciaVacio=OFF;         
0E044:  BCF    x2F.0
....................             if(Temperatura>=((float)Setpoint-0.3)){ 
0E046:  MOVLB  7
0E048:  CLRF   x15
0E04A:  MOVFF  2AF,714
0E04E:  MOVLB  0
0E050:  CALL   21A0
0E054:  MOVFF  00,702
0E058:  MOVFF  01,703
0E05C:  MOVFF  02,704
0E060:  MOVFF  03,705
0E064:  BSF    FD8.1
0E066:  MOVFF  03,717
0E06A:  MOVFF  02,716
0E06E:  MOVFF  01,715
0E072:  MOVFF  00,714
0E076:  MOVLW  9A
0E078:  MOVLB  7
0E07A:  MOVWF  x1B
0E07C:  MOVLW  99
0E07E:  MOVWF  x1A
0E080:  MOVLW  19
0E082:  MOVWF  x19
0E084:  MOVLW  7D
0E086:  MOVWF  x18
0E088:  MOVLB  0
0E08A:  CALL   25BA
0E08E:  MOVFF  03,709
0E092:  MOVFF  02,708
0E096:  MOVFF  01,707
0E09A:  MOVFF  00,706
0E09E:  MOVFF  26B,70D
0E0A2:  MOVFF  26A,70C
0E0A6:  MOVFF  269,70B
0E0AA:  MOVFF  268,70A
0E0AE:  CALL   2832
0E0B2:  BC    E0B6
0E0B4:  BNZ   E0BA
....................                Esterilizando=ON; 
0E0B6:  MOVLB  1
0E0B8:  BSF    x2A.7
....................             } 
....................              
....................             if(Temperatura<((float)Setpoint-0.9) && !Desfogando){ 
0E0BA:  MOVLB  7
0E0BC:  CLRF   x15
0E0BE:  MOVFF  2AF,714
0E0C2:  MOVLB  0
0E0C4:  CALL   21A0
0E0C8:  MOVFF  00,702
0E0CC:  MOVFF  01,703
0E0D0:  MOVFF  02,704
0E0D4:  MOVFF  03,705
0E0D8:  BSF    FD8.1
0E0DA:  MOVFF  03,717
0E0DE:  MOVFF  02,716
0E0E2:  MOVFF  01,715
0E0E6:  MOVFF  00,714
0E0EA:  MOVLW  66
0E0EC:  MOVLB  7
0E0EE:  MOVWF  x1B
0E0F0:  MOVWF  x1A
0E0F2:  MOVWF  x19
0E0F4:  MOVLW  7E
0E0F6:  MOVWF  x18
0E0F8:  MOVLB  0
0E0FA:  CALL   25BA
0E0FE:  MOVFF  26B,709
0E102:  MOVFF  26A,708
0E106:  MOVFF  269,707
0E10A:  MOVFF  268,706
0E10E:  MOVFF  03,70D
0E112:  MOVFF  02,70C
0E116:  MOVFF  01,70B
0E11A:  MOVFF  00,70A
0E11E:  CALL   2832
0E122:  BNC   E130
0E124:  MOVLB  1
0E126:  BTFSS  x2B.2
0E128:  BRA    E12E
0E12A:  MOVLB  0
0E12C:  BRA    E130
....................                Esterilizando=OFF; 
0E12E:  BCF    x2A.7
....................             } 
....................              
....................             if(!Esterilizando){ 
0E130:  MOVLB  1
0E132:  BTFSC  x2A.7
0E134:  BRA    E196
....................                codigoAlarma=12; 
0E136:  MOVLW  0C
0E138:  MOVLB  2
0E13A:  MOVWF  xDB
....................                if(codigoAnt!=codigoAlarma){ 
0E13C:  MOVF   xDB,W
0E13E:  SUBWF  xDC,W
0E140:  BZ    E14C
....................                   codigoAnt=codigoAlarma; 
0E142:  MOVFF  2DB,2DC
....................                   GuardaDatoCiclo();                   
0E146:  MOVLB  0
0E148:  CALL   854A
....................                } 
....................                flag_vac=OFF; 
0E14C:  MOVLB  1
0E14E:  BCF    x2F.3
....................                printf("Funcionamiento.t4f.txt=\" Ninguna\""); 
0E150:  MOVLW  9E
0E152:  MOVWF  FF6
0E154:  MOVLW  17
0E156:  MOVWF  FF7
0E158:  MOVLW  00
0E15A:  MOVWF  FF8
0E15C:  MOVLB  0
0E15E:  CALL   4720
....................                SendDataDisplay(); 
0E162:  CALL   4752
....................                printf("Funcionamiento.t5f.txt=\" Calentando\""); 
0E166:  MOVLW  C0
0E168:  MOVWF  FF6
0E16A:  MOVLW  17
0E16C:  MOVWF  FF7
0E16E:  MOVLW  00
0E170:  MOVWF  FF8
0E172:  CALL   4720
....................                SendDataDisplay(); 
0E176:  CALL   4752
....................                Controlando=1; 
0E17A:  MOVLW  01
0E17C:  MOVLB  2
0E17E:  MOVWF  x99
....................                Controla(); 
0E180:  MOVLB  0
0E182:  CALL   8A9C
....................                Paso=ON; 
0E186:  MOVLB  1
0E188:  BSF    x1F.2
....................                BombaVacio=OFF; 
0E18A:  BCF    31.6
....................                outVacio=OFF; 
0E18C:  BCF    x1F.3
....................                Aire=OFF; 
0E18E:  BCF    x1F.5
....................                Desfogue=OFF; 
0E190:  BCF    x1F.4
....................                aguaEnfriador=OFF; 
0E192:  BCF    31.5
....................             }else{ 
0E194:  BRA    E570
....................                TiempoCiclo=0; 
0E196:  CLRF   x33
0E198:  CLRF   x32
....................                if(mEst==0 && sEst==0){  
0E19A:  MOVF   x49,F
0E19C:  BTFSS  FD8.2
0E19E:  BRA    E520
0E1A0:  MOVF   x48,F
0E1A2:  BTFSS  FD8.2
0E1A4:  BRA    E520
....................                   if(desfoguelento){ 
0E1A6:  BTFSS  x31.4
0E1A8:  BRA    E2EE
....................                      Controlando=0; 
0E1AA:  MOVLB  2
0E1AC:  CLRF   x99
....................                      if(PresionCamara<(Atmosferica+2)){ 
0E1AE:  MOVLW  02
0E1B0:  ADDWF  xF6,W
0E1B2:  MOVF   xC2,F
0E1B4:  BNZ   E282
0E1B6:  SUBWF  xC1,W
0E1B8:  BC    E282
....................                         Secando=OFF; 
0E1BA:  MOVLB  1
0E1BC:  BCF    x2B.0
....................                         DesfogueSuave=OFF; 
0E1BE:  BCF    x2B.3
....................                         //if(!abrirPuertaL){ 
....................                            BombaVacio=OFF; 
0E1C0:  BCF    31.6
....................                         //} 
....................                         outVacio=OFF; 
0E1C2:  BCF    x1F.3
....................                         Aire=OFF; 
0E1C4:  BCF    x1F.5
....................                         Desfogue=ON; 
0E1C6:  BSF    x1F.4
....................                         Paso=OFF; 
0E1C8:  BCF    x1F.2
....................                         //Suministro_off; 
....................                         aguaEnfriador=OFF; 
0E1CA:  BCF    31.5
....................                         if(Temperatura<=Tapertura){ 
0E1CC:  MOVLB  7
0E1CE:  CLRF   x15
0E1D0:  MOVFF  2A6,714
0E1D4:  MOVLB  0
0E1D6:  CALL   21A0
0E1DA:  MOVFF  26B,709
0E1DE:  MOVFF  26A,708
0E1E2:  MOVFF  269,707
0E1E6:  MOVFF  268,706
0E1EA:  MOVFF  03,70D
0E1EE:  MOVFF  02,70C
0E1F2:  MOVFF  01,70B
0E1F6:  MOVFF  00,70A
0E1FA:  CALL   2832
0E1FE:  BC    E202
0E200:  BNZ   E27A
....................                            ActivaAlarma(2); 
0E202:  MOVLW  02
0E204:  MOVLB  7
0E206:  MOVWF  x02
0E208:  MOVLB  0
0E20A:  CALL   614C
....................                            printf("Funcionamiento.t4f.txt=\" Ninguna\""); 
0E20E:  MOVLW  E6
0E210:  MOVWF  FF6
0E212:  MOVLW  17
0E214:  MOVWF  FF7
0E216:  MOVLW  00
0E218:  MOVWF  FF8
0E21A:  CALL   4720
....................                            SendDataDisplay(); 
0E21E:  CALL   4752
....................                            printf("Funcionamiento.t5f.txt=\" Finalizado\""); 
0E222:  MOVLW  08
0E224:  MOVWF  FF6
0E226:  MOVLW  18
0E228:  MOVWF  FF7
0E22A:  MOVLW  00
0E22C:  MOVWF  FF8
0E22E:  CALL   4720
....................                            SendDataDisplay(); 
0E232:  CALL   4752
....................                            Finalizo=ON; 
0E236:  MOVLB  1
0E238:  BSF    x2E.0
....................                            codigoAlarma=14; 
0E23A:  MOVLW  0E
0E23C:  MOVLB  2
0E23E:  MOVWF  xDB
....................                            if(codigoAnt!=codigoAlarma){ 
0E240:  MOVF   xDB,W
0E242:  SUBWF  xDC,W
0E244:  BZ    E250
....................                               codigoAnt=codigoAlarma; 
0E246:  MOVFF  2DB,2DC
....................                               GuardaDatoCiclo();                   
0E24A:  MOVLB  0
0E24C:  CALL   854A
....................                            }                           
....................                            if(!flagImprimir){//Imprime Ciclo Finalizado 
0E250:  MOVLB  1
0E252:  BTFSC  x30.4
0E254:  BRA    E278
....................                               Imprime=28; 
0E256:  MOVLW  1C
0E258:  MOVLB  3
0E25A:  MOVWF  x00
....................                               Envio_Esclavos(); 
0E25C:  MOVLB  0
0E25E:  CALL   5DAC
....................                               delay_ms(100); 
0E262:  MOVLW  64
0E264:  MOVLB  7
0E266:  MOVWF  x18
0E268:  MOVLB  0
0E26A:  CALL   21D6
....................                               Imprime=10; 
0E26E:  MOVLW  0A
0E270:  MOVLB  3
0E272:  MOVWF  x00
....................                               flagImprimir=1; 
0E274:  MOVLB  1
0E276:  BSF    x30.4
0E278:  MOVLB  0
....................                            } 
....................                         } 
....................                         incrementaCiclos(); 
0E27A:  CALL   89AE
....................                      }else if(PresionCamara>(Atmosferica+10)){ 
0E27E:  BRA    E2EA
0E280:  MOVLB  2
0E282:  MOVLW  0A
0E284:  ADDWF  xF6,W
0E286:  MOVF   xC2,F
0E288:  BNZ   E290
0E28A:  SUBWF  xC1,W
0E28C:  BZ    E2E8
0E28E:  BNC   E2E8
....................                         codigoAlarma=13; 
0E290:  MOVLW  0D
0E292:  MOVWF  xDB
....................                         if(codigoAnt!=codigoAlarma){ 
0E294:  MOVF   xDB,W
0E296:  SUBWF  xDC,W
0E298:  BZ    E2A4
....................                            codigoAnt=codigoAlarma; 
0E29A:  MOVFF  2DB,2DC
....................                            GuardaDatoCiclo();                   
0E29E:  MOVLB  0
0E2A0:  CALL   854A
....................                         } 
....................                         Desfogando=ON; 
0E2A4:  MOVLB  1
0E2A6:  BSF    x2B.2
....................                         DesfogueSuave=ON; 
0E2A8:  BSF    x2B.3
....................                         printf("Funcionamiento.t4f.txt=\" Ninguna\""); 
0E2AA:  MOVLW  2E
0E2AC:  MOVWF  FF6
0E2AE:  MOVLW  18
0E2B0:  MOVWF  FF7
0E2B2:  MOVLW  00
0E2B4:  MOVWF  FF8
0E2B6:  MOVLB  0
0E2B8:  CALL   4720
....................                         SendDataDisplay(); 
0E2BC:  CALL   4752
....................                         printf("Funcionamiento.t5f.txt=\" Despresurizando\""); 
0E2C0:  MOVLW  50
0E2C2:  MOVWF  FF6
0E2C4:  MOVLW  18
0E2C6:  MOVWF  FF7
0E2C8:  MOVLW  00
0E2CA:  MOVWF  FF8
0E2CC:  CALL   4720
....................                         SendDataDisplay(); 
0E2D0:  CALL   4752
....................                         Controlando=0; 
0E2D4:  MOVLB  2
0E2D6:  CLRF   x99
....................                         Desfogue=ON; 
0E2D8:  MOVLB  1
0E2DA:  BSF    x1F.4
....................                         Paso=ON; 
0E2DC:  BSF    x1F.2
....................                         BombaVacio=OFF; 
0E2DE:  BCF    31.6
....................                         aguaEnfriador=OFF; 
0E2E0:  BCF    31.5
....................                         outVacio=OFF; 
0E2E2:  BCF    x1F.3
....................                         Aire=OFF;  
0E2E4:  BCF    x1F.5
....................                         suministroVapor=OFF; 
0E2E6:  BCF    x1F.1
0E2E8:  MOVLB  0
....................                      } 
....................                   }else{                      
0E2EA:  BRA    E51C
0E2EC:  MOVLB  1
....................                      Paso=OFF; 
0E2EE:  BCF    x1F.2
....................                      Controlando=0; 
0E2F0:  MOVLB  2
0E2F2:  CLRF   x99
....................                      Control=0; 
0E2F4:  CLRF   x97
....................                      if(PresionCamara<(Atmosferica+35)){   
0E2F6:  MOVLW  23
0E2F8:  ADDWF  xF6,W
0E2FA:  MOVF   xC2,F
0E2FC:  BTFSS  FD8.2
0E2FE:  BRA    E4B2
0E300:  SUBWF  xC1,W
0E302:  BTFSC  FD8.0
0E304:  BRA    E4B2
....................                         if(sSec==0 && mSec==0){                           
0E306:  MOVLB  1
0E308:  MOVF   x4A,F
0E30A:  BTFSS  FD8.2
0E30C:  BRA    E3EC
0E30E:  MOVF   x4B,F
0E310:  BNZ   E3EC
....................                            codigoAlarma=15; 
0E312:  MOVLW  0F
0E314:  MOVLB  2
0E316:  MOVWF  xDB
....................                            if(codigoAnt!=codigoAlarma){ 
0E318:  MOVF   xDB,W
0E31A:  SUBWF  xDC,W
0E31C:  BZ    E32A
....................                               codigoAnt=codigoAlarma; 
0E31E:  MOVFF  2DB,2DC
....................                               GuardaDatoCiclo();                   
0E322:  MOVLB  0
0E324:  CALL   854A
0E328:  MOVLB  2
....................                            } 
....................                            if(!DOORS){ 
0E32A:  BSF    F93.1
0E32C:  BTFSS  F81.1
0E32E:  BRA    E33A
....................                               Desfogue=OFF; 
0E330:  MOVLB  1
0E332:  BCF    x1F.4
....................                               Paso=OFF; 
0E334:  BCF    x1F.2
....................                            }else{ 
0E336:  BRA    E340
0E338:  MOVLB  2
....................                               Desfogue=ON;                               
0E33A:  MOVLB  1
0E33C:  BSF    x1F.4
....................                               Paso=OFF; 
0E33E:  BCF    x1F.2
....................                            }     
....................  
....................                            BombaVacio=OFF; 
0E340:  BCF    31.6
....................                            aguaEnfriador=OFF; 
0E342:  BCF    31.5
....................                            outVacio=OFF; 
0E344:  BCF    x1F.3
....................                            if(PresionCamara<=Atmosferica-2){ 
0E346:  MOVLW  02
0E348:  MOVLB  2
0E34A:  SUBWF  xF6,W
0E34C:  MOVF   xC2,F
0E34E:  BNZ   E35E
0E350:  SUBWF  xC1,W
0E352:  BZ    E356
0E354:  BC    E35E
....................                               Aire=ON; 
0E356:  MOVLB  1
0E358:  BSF    x1F.5
....................                            }else{ 
0E35A:  BRA    E362
0E35C:  MOVLB  2
....................                               Aire=OFF; 
0E35E:  MOVLB  1
0E360:  BCF    x1F.5
....................                            } 
....................                            Desfogue=ON; 
0E362:  BSF    x1F.4
....................                            Paso=OFF; 
0E364:  BCF    x1F.2
....................                            suministroVapor=OFF; 
0E366:  BCF    x1F.1
....................                            Secando=OFF; 
0E368:  BCF    x2B.0
....................                            //if(Temperatura<=Tapertura){ 
....................                               ActivaAlarma(2); 
0E36A:  MOVLW  02
0E36C:  MOVLB  7
0E36E:  MOVWF  x02
0E370:  MOVLB  0
0E372:  CALL   614C
....................                               printf("Funcionamiento.t4f.txt=\" Ninguna\""); 
0E376:  MOVLW  7A
0E378:  MOVWF  FF6
0E37A:  MOVLW  18
0E37C:  MOVWF  FF7
0E37E:  MOVLW  00
0E380:  MOVWF  FF8
0E382:  CALL   4720
....................                               SendDataDisplay(); 
0E386:  CALL   4752
....................                               printf("Funcionamiento.t5f.txt=\" Finalizado\""); 
0E38A:  MOVLW  9C
0E38C:  MOVWF  FF6
0E38E:  MOVLW  18
0E390:  MOVWF  FF7
0E392:  MOVLW  00
0E394:  MOVWF  FF8
0E396:  CALL   4720
....................                               SendDataDisplay(); 
0E39A:  CALL   4752
....................                               Finalizo=ON; 
0E39E:  MOVLB  1
0E3A0:  BSF    x2E.0
....................                               codigoAlarma=14; 
0E3A2:  MOVLW  0E
0E3A4:  MOVLB  2
0E3A6:  MOVWF  xDB
....................                               if(codigoAnt!=codigoAlarma){ 
0E3A8:  MOVF   xDB,W
0E3AA:  SUBWF  xDC,W
0E3AC:  BZ    E3B8
....................                                  codigoAnt=codigoAlarma; 
0E3AE:  MOVFF  2DB,2DC
....................                                  GuardaDatoCiclo();                   
0E3B2:  MOVLB  0
0E3B4:  CALL   854A
....................                               } 
....................                               if(!flagImprimir){//Imprime Ciclo Finalizado 
0E3B8:  MOVLB  1
0E3BA:  BTFSC  x30.4
0E3BC:  BRA    E3E0
....................                                  Imprime=28; 
0E3BE:  MOVLW  1C
0E3C0:  MOVLB  3
0E3C2:  MOVWF  x00
....................                                  Envio_Esclavos(); 
0E3C4:  MOVLB  0
0E3C6:  CALL   5DAC
....................                                  delay_ms(100); 
0E3CA:  MOVLW  64
0E3CC:  MOVLB  7
0E3CE:  MOVWF  x18
0E3D0:  MOVLB  0
0E3D2:  CALL   21D6
....................                                  Imprime=10; 
0E3D6:  MOVLW  0A
0E3D8:  MOVLB  3
0E3DA:  MOVWF  x00
....................                                  flagImprimir=1; 
0E3DC:  MOVLB  1
0E3DE:  BSF    x30.4
....................                               } 
....................                            //} 
....................                            incrementaCiclos(); 
0E3E0:  MOVLB  0
0E3E2:  CALL   89AE
....................                            Secando=OFF; 
0E3E6:  MOVLB  1
0E3E8:  BCF    x2B.0
....................                         }else{ 
0E3EA:  BRA    E4AE
....................                            if(Secando){ 
0E3EC:  BTFSS  x2B.0
0E3EE:  BRA    E41A
....................                               printf("Funcionamiento.t4f.txt=\" Ninguna\""); 
0E3F0:  MOVLW  C2
0E3F2:  MOVWF  FF6
0E3F4:  MOVLW  18
0E3F6:  MOVWF  FF7
0E3F8:  MOVLW  00
0E3FA:  MOVWF  FF8
0E3FC:  MOVLB  0
0E3FE:  CALL   4720
....................                               SendDataDisplay(); 
0E402:  CALL   4752
....................                               printf("Funcionamiento.t5f.txt=\" Secando\""); 
0E406:  MOVLW  E4
0E408:  MOVWF  FF6
0E40A:  MOVLW  18
0E40C:  MOVWF  FF7
0E40E:  MOVLW  00
0E410:  MOVWF  FF8
0E412:  CALL   4720
....................                               SendDataDisplay(); 
0E416:  CALL   4752
....................                            } 
....................                            ControlaPresion(); 
0E41A:  MOVLB  0
0E41C:  CALL   8A40
....................                            Paso=OFF; 
0E420:  MOVLB  1
0E422:  BCF    x1F.2
....................                             
....................                            if(PresionCamara>NivelVacio+5){//Si la presin de la camara es mayor al nivel de vacio 
0E424:  MOVLW  05
0E426:  MOVLB  2
0E428:  ADDWF  xF5,W
0E42A:  MOVF   xC2,F
0E42C:  BNZ   E434
0E42E:  SUBWF  xC1,W
0E430:  BZ    E44A
0E432:  BNC   E44A
....................                               if(ReservorioLleno) 
0E434:  MOVLB  1
0E436:  BTFSS  x31.1
0E438:  BRA    E43E
....................                                  BombaVacio=ON; 
0E43A:  BSF    31.6
....................                               else 
0E43C:  BRA    E440
....................                                  BombaVacio=ON; 
0E43E:  BSF    31.6
....................                               outVacio=ON; 
0E440:  BSF    x1F.3
....................                               //aguaEnfriador=ON; 
....................                               Desfogue=OFF; 
0E442:  BCF    x1F.4
....................                               Aire=OFF; 
0E444:  BCF    x1F.5
....................                               Paso=OFF; 
0E446:  BCF    x1F.2
0E448:  MOVLB  2
....................                            } 
....................                             
....................                            if(PresionCamara<=NivelVacio+10){//Si alcanzo el nivel de vacio requerido 
0E44A:  MOVLW  0A
0E44C:  ADDWF  xF5,W
0E44E:  MOVF   xC2,F
0E450:  BNZ   E45E
0E452:  SUBWF  xC1,W
0E454:  BZ    E458
0E456:  BC    E45E
....................                               Secando=ON; 
0E458:  MOVLB  1
0E45A:  BSF    x2B.0
0E45C:  MOVLB  2
....................                            } 
....................                             
....................                            if(PresionCamara<=NivelVacio){//Si alcanzo el nivel de vacio requerido 
0E45E:  MOVF   xC2,F
0E460:  BNZ   E496
0E462:  MOVF   xC1,W
0E464:  SUBWF  xF5,W
0E466:  BNC   E496
....................                               codigoAlarma=15; 
0E468:  MOVLW  0F
0E46A:  MOVWF  xDB
....................                               if(codigoAnt!=codigoAlarma){ 
0E46C:  MOVF   xDB,W
0E46E:  SUBWF  xDC,W
0E470:  BZ    E47C
....................                                  codigoAnt=codigoAlarma; 
0E472:  MOVFF  2DB,2DC
....................                                  GuardaDatoCiclo();                   
0E476:  MOVLB  0
0E478:  CALL   854A
....................                               } 
....................                               Secando=ON; 
0E47C:  MOVLB  1
0E47E:  BSF    x2B.0
....................                               EstadoAgua2=ON; 
0E480:  BSF    x2C.4
....................                                
....................                               if(ReservorioLleno) 
0E482:  BTFSS  x31.1
0E484:  BRA    E48A
....................                                  BombaVacio=ON; 
0E486:  BSF    31.6
....................                               else 
0E488:  BRA    E48C
....................                                  BombaVacio=OFF; 
0E48A:  BCF    31.6
....................                               //aguaEnfriador=ON; 
....................                               outVacio=ON; 
0E48C:  BSF    x1F.3
....................                               Desfogue=OFF; 
0E48E:  BCF    x1F.4
....................                               Aire=ON;                      
0E490:  BSF    x1F.5
....................                               Paso=OFF; 
0E492:  BCF    x1F.2
0E494:  MOVLB  2
....................                            } 
....................                             
....................                            if(tEnfriador>=100){ 
0E496:  MOVF   xAE,F
0E498:  BNZ   E4A0
0E49A:  MOVF   xAD,W
0E49C:  SUBLW  63
0E49E:  BC    E4AA
....................                               aguaEnfriador=OFF; 
0E4A0:  BCF    31.5
....................                               estadoAgua2=OFF; 
0E4A2:  MOVLB  1
0E4A4:  BCF    x2C.4
....................                            }else{ 
0E4A6:  BRA    E4AE
0E4A8:  MOVLB  2
....................                               aguaEnfriador=ON; 
0E4AA:  BSF    31.5
0E4AC:  MOVLB  1
....................                            } 
....................                         } 
....................                      }else if(PresionCamara>(Atmosferica+37)){ 
0E4AE:  BRA    E518
0E4B0:  MOVLB  2
0E4B2:  MOVLW  25
0E4B4:  ADDWF  xF6,W
0E4B6:  MOVF   xC2,F
0E4B8:  BNZ   E4C0
0E4BA:  SUBWF  xC1,W
0E4BC:  BZ    E51A
0E4BE:  BNC   E51A
....................                         codigoAlarma=13; 
0E4C0:  MOVLW  0D
0E4C2:  MOVWF  xDB
....................                         if(codigoAnt!=codigoAlarma){ 
0E4C4:  MOVF   xDB,W
0E4C6:  SUBWF  xDC,W
0E4C8:  BZ    E4D4
....................                            codigoAnt=codigoAlarma; 
0E4CA:  MOVFF  2DB,2DC
....................                            GuardaDatoCiclo();                   
0E4CE:  MOVLB  0
0E4D0:  CALL   854A
....................                         } 
....................                         Desfogando=ON; 
0E4D4:  MOVLB  1
0E4D6:  BSF    x2B.2
....................                         printf("Funcionamiento.t4f.txt=\" Ninguna\""); 
0E4D8:  MOVLW  06
0E4DA:  MOVWF  FF6
0E4DC:  MOVLW  19
0E4DE:  MOVWF  FF7
0E4E0:  MOVLW  00
0E4E2:  MOVWF  FF8
0E4E4:  MOVLB  0
0E4E6:  CALL   4720
....................                         SendDataDisplay(); 
0E4EA:  CALL   4752
....................                         printf("Funcionamiento.t5f.txt=\" Despresurizando\""); 
0E4EE:  MOVLW  28
0E4F0:  MOVWF  FF6
0E4F2:  MOVLW  19
0E4F4:  MOVWF  FF7
0E4F6:  MOVLW  00
0E4F8:  MOVWF  FF8
0E4FA:  CALL   4720
....................                         SendDataDisplay(); 
0E4FE:  CALL   4752
....................                         Control=0; 
0E502:  MOVLB  2
0E504:  CLRF   x97
....................                         Controlando=0; 
0E506:  CLRF   x99
....................                         Paso=OFF; 
0E508:  MOVLB  1
0E50A:  BCF    x1F.2
....................                         Desfogue=ON; 
0E50C:  BSF    x1F.4
....................                         //if(ReservorioLleno) 
....................                         //   BombaVacio=ON; 
....................                         //else 
....................                            BombaVacio=OFF;    
0E50E:  BCF    31.6
....................                         aguaEnfriador=ON; 
0E510:  BSF    31.5
....................                         outVacio=OFF; 
0E512:  BCF    x1F.3
....................                         Aire=OFF; 
0E514:  BCF    x1F.5
....................                         suministroVapor=OFF; 
0E516:  BCF    x1F.1
0E518:  MOVLB  2
0E51A:  MOVLB  0
....................                      } 
....................                   } 
....................                }else{ 
0E51C:  BRA    E56E
0E51E:  MOVLB  1
....................                   codigoAlarma=16; 
0E520:  MOVLW  10
0E522:  MOVLB  2
0E524:  MOVWF  xDB
....................                   if(codigoAnt!=codigoAlarma){ 
0E526:  MOVF   xDB,W
0E528:  SUBWF  xDC,W
0E52A:  BZ    E538
....................                      codigoAnt=codigoAlarma; 
0E52C:  MOVFF  2DB,2DC
....................                      GuardaDatoCiclo();                   
0E530:  MOVLB  0
0E532:  CALL   854A
0E536:  MOVLB  2
....................                   } 
....................                   printf("Funcionamiento.t4f.txt=\" Ninguna\""); 
0E538:  MOVLW  52
0E53A:  MOVWF  FF6
0E53C:  MOVLW  19
0E53E:  MOVWF  FF7
0E540:  MOVLW  00
0E542:  MOVWF  FF8
0E544:  MOVLB  0
0E546:  CALL   4720
....................                   SendDataDisplay(); 
0E54A:  CALL   4752
....................                   printf("Funcionamiento.t5f.txt=\" Esterilizando\""); 
0E54E:  MOVLW  74
0E550:  MOVWF  FF6
0E552:  MOVLW  19
0E554:  MOVWF  FF7
0E556:  MOVLW  00
0E558:  MOVWF  FF8
0E55A:  CALL   4720
....................                   SendDataDisplay(); 
0E55E:  CALL   4752
....................                   //Paso_on; 
....................                   Control=1; 
0E562:  MOVLW  01
0E564:  MOVLB  2
0E566:  MOVWF  x97
....................                   Controla(); 
0E568:  MOVLB  0
0E56A:  CALL   8A9C
0E56E:  MOVLB  1
0E570:  MOVLB  2
....................                } 
....................             } 
....................          } 
....................       }  
....................       }else{ 
0E572:  BRA    E87C
0E574:  MOVLB  1
....................       EstadoBuzzer=OFF; 
0E576:  BCF    x2D.4
....................       IniciaCiclo=ON; 
0E578:  BSF    x2A.6
....................          if(!flag_vac){ 
0E57A:  BTFSC  x2F.3
0E57C:  BRA    E5BE
....................             codigoAlarma=11; 
0E57E:  MOVLW  0B
0E580:  MOVLB  2
0E582:  MOVWF  xDB
....................             if(codigoAnt!=codigoAlarma){ 
0E584:  MOVF   xDB,W
0E586:  SUBWF  xDC,W
0E588:  BZ    E594
....................                codigoAnt=codigoAlarma; 
0E58A:  MOVFF  2DB,2DC
....................                GuardaDatoCiclo();                
0E58E:  MOVLB  0
0E590:  CALL   854A
....................             } 
....................             flag_vac=ON; 
0E594:  MOVLB  1
0E596:  BSF    x2F.3
....................             if(ReservorioLleno) 
0E598:  BTFSS  x31.1
0E59A:  BRA    E5A0
....................                BombaVacio=ON; 
0E59C:  BSF    31.6
....................             else 
0E59E:  BRA    E5A2
....................                BombaVacio=OFF; 
0E5A0:  BCF    31.6
....................             Desfogue=OFF; 
0E5A2:  BCF    x1F.4
....................             Aire=OFF; 
0E5A4:  BCF    x1F.5
....................             aguaEnfriador=OFF; 
0E5A6:  BCF    31.5
....................             Paso=OFF; 
0E5A8:  BCF    x1F.2
....................             suministroVapor=OFF; 
0E5AA:  BCF    x1F.1
....................             delay_ms(70); 
0E5AC:  MOVLW  46
0E5AE:  MOVLB  7
0E5B0:  MOVWF  x18
0E5B2:  MOVLB  0
0E5B4:  CALL   21D6
....................             IniciaVacio2=ON; 
0E5B8:  MOVLB  1
0E5BA:  BSF    x2F.1
....................             outVacio=ON; 
0E5BC:  BSF    x1F.3
....................          } 
....................           
....................          if(tbomba>=120){ 
0E5BE:  MOVLB  2
0E5C0:  MOVF   xC8,F
0E5C2:  BNZ   E5CA
0E5C4:  MOVF   xC7,W
0E5C6:  SUBLW  77
0E5C8:  BC    E5E4
....................             if(PresionCamara>Atmosferica){ 
0E5CA:  MOVF   xC2,F
0E5CC:  BNZ   E5D4
0E5CE:  MOVF   xC1,W
0E5D0:  SUBWF  xF6,W
0E5D2:  BC    E5DC
....................                AlarmaBomba=ON; 
0E5D4:  MOVLB  1
0E5D6:  BSF    x21.6
....................             }else{ 
0E5D8:  BRA    E5E4
0E5DA:  MOVLB  2
....................                tbomba=0; 
0E5DC:  CLRF   xC8
0E5DE:  CLRF   xC7
....................                IniciaVacio2=OFF; 
0E5E0:  MOVLB  1
0E5E2:  BCF    x2F.1
....................             } 
....................          } 
....................           
....................          if(tvacio>=TiempoVacio){//Si excede el tiempo maximo para generar los pulsos de vacio genera alarma             
0E5E4:  MOVLB  1
0E5E6:  MOVF   x25,W
0E5E8:  MOVLB  2
0E5EA:  SUBWF  xCA,W
0E5EC:  BNC   E600
0E5EE:  BNZ   E5FA
0E5F0:  MOVLB  1
0E5F2:  MOVF   x24,W
0E5F4:  MOVLB  2
0E5F6:  SUBWF  xC9,W
0E5F8:  BNC   E600
....................                AlarmaVacio=ON; 
0E5FA:  MOVLB  1
0E5FC:  BSF    x21.3
0E5FE:  MOVLB  2
....................          } 
....................           
....................          if(PresionCamara<vacioTest){ 
0E600:  MOVF   xC2,F
0E602:  BNZ   E624
0E604:  MOVF   x80,W
0E606:  SUBWF  xC1,W
0E608:  BC    E624
....................             BombaVacio=OFF; 
0E60A:  BCF    31.6
....................             outVacio=OFF; 
0E60C:  MOVLB  1
0E60E:  BCF    x1F.3
....................             Desfogue=OFF; 
0E610:  BCF    x1F.4
....................             Aire=OFF; 
0E612:  BCF    x1F.5
....................             aguaEnfriador=OFF; 
0E614:  BCF    31.5
....................             Paso=OFF; 
0E616:  BCF    x1F.2
....................             suministroVapor=OFF; 
0E618:  BCF    x1F.1
....................             Esterilizando=ON; 
0E61A:  BSF    x2A.7
....................             IniciaVacio=OFF; 
0E61C:  BCF    x2F.0
....................             tbomba=0; 
0E61E:  MOVLB  2
0E620:  CLRF   xC8
0E622:  CLRF   xC7
....................          }  
....................           
....................          if(!Finalizo){ 
0E624:  MOVLB  1
0E626:  BTFSC  x2E.0
0E628:  BRA    E750
....................             if(!Esterilizando){ 
0E62A:  BTFSC  x2A.7
0E62C:  BRA    E680
....................                if(codigoAlarma==8){ 
0E62E:  MOVLB  2
0E630:  MOVF   xDB,W
0E632:  SUBLW  08
0E634:  BNZ   E646
....................                   ActivaAlarma(2); 
0E636:  MOVLW  02
0E638:  MOVLB  7
0E63A:  MOVWF  x02
0E63C:  MOVLB  0
0E63E:  CALL   614C
....................                }else{ 
0E642:  BRA    E67C
0E644:  MOVLB  2
....................                   if(ReservorioLleno) 
0E646:  MOVLB  1
0E648:  BTFSS  x31.1
0E64A:  BRA    E650
....................                      BombaVacio=ON; 
0E64C:  BSF    31.6
....................                   else 
0E64E:  BRA    E652
....................                      BombaVacio=OFF; 
0E650:  BCF    31.6
....................                    
....................                   printf("Funcionamiento.t4f.txt=\" Ninguna\""); 
0E652:  MOVLW  9C
0E654:  MOVWF  FF6
0E656:  MOVLW  19
0E658:  MOVWF  FF7
0E65A:  MOVLW  00
0E65C:  MOVWF  FF8
0E65E:  MOVLB  0
0E660:  CALL   4720
....................                   SendDataDisplay(); 
0E664:  CALL   4752
....................                   printf("Funcionamiento.t5f.txt=\" Vacio\""); 
0E668:  MOVLW  BE
0E66A:  MOVWF  FF6
0E66C:  MOVLW  19
0E66E:  MOVWF  FF7
0E670:  MOVLW  00
0E672:  MOVWF  FF8
0E674:  CALL   4720
....................                   SendDataDisplay(); 
0E678:  CALL   4752
....................                } 
....................             }else{ 
0E67C:  BRA    E74E
0E67E:  MOVLB  1
....................                if(PresionCamara>40){ 
0E680:  MOVLB  2
0E682:  MOVF   xC2,F
0E684:  BNZ   E68C
0E686:  MOVF   xC1,W
0E688:  SUBLW  28
0E68A:  BC    E724
....................                   printf("Funcionamiento.t4f.txt=\" Error Ciclo\""); 
0E68C:  MOVLW  DE
0E68E:  MOVWF  FF6
0E690:  MOVLW  19
0E692:  MOVWF  FF7
0E694:  MOVLW  00
0E696:  MOVWF  FF8
0E698:  MOVLB  0
0E69A:  CALL   4720
....................                   SendDataDisplay(); 
0E69E:  CALL   4752
....................                   printf("Funcionamiento.t5f.txt=\" Finalizado\""); 
0E6A2:  MOVLW  04
0E6A4:  MOVWF  FF6
0E6A6:  MOVLW  1A
0E6A8:  MOVWF  FF7
0E6AA:  MOVLW  00
0E6AC:  MOVWF  FF8
0E6AE:  CALL   4720
....................                   SendDataDisplay(); 
0E6B2:  CALL   4752
....................                   codigoAlarma=8; 
0E6B6:  MOVLW  08
0E6B8:  MOVLB  2
0E6BA:  MOVWF  xDB
....................                   if(codigoAnt!=codigoAlarma){ 
0E6BC:  MOVF   xDB,W
0E6BE:  SUBWF  xDC,W
0E6C0:  BZ    E6CC
....................                      codigoAnt=codigoAlarma; 
0E6C2:  MOVFF  2DB,2DC
....................                      GuardaDatoCiclo();                   
0E6C6:  MOVLB  0
0E6C8:  CALL   854A
....................                   } 
....................                   if(!flagImprimir){//Imprime Ciclo Finalizado 
0E6CC:  MOVLB  1
0E6CE:  BTFSC  x30.4
0E6D0:  BRA    E6F4
....................                      Imprime=26; 
0E6D2:  MOVLW  1A
0E6D4:  MOVLB  3
0E6D6:  MOVWF  x00
....................                      Envio_Esclavos(); 
0E6D8:  MOVLB  0
0E6DA:  CALL   5DAC
....................                      delay_ms(100); 
0E6DE:  MOVLW  64
0E6E0:  MOVLB  7
0E6E2:  MOVWF  x18
0E6E4:  MOVLB  0
0E6E6:  CALL   21D6
....................                      Imprime=10; 
0E6EA:  MOVLW  0A
0E6EC:  MOVLB  3
0E6EE:  MOVWF  x00
....................                      flagImprimir=1; 
0E6F0:  MOVLB  1
0E6F2:  BSF    x30.4
....................                   } 
....................                   IniciaVacio=OFF; 
0E6F4:  BCF    x2F.0
....................                   tbomba=0; 
0E6F6:  MOVLB  2
0E6F8:  CLRF   xC8
0E6FA:  CLRF   xC7
....................                   BombaVacio=OFF; 
0E6FC:  BCF    31.6
....................                   outVacio=OFF; 
0E6FE:  MOVLB  1
0E700:  BCF    x1F.3
....................                   Desfogue=OFF; 
0E702:  BCF    x1F.4
....................                   Aire=ON; 
0E704:  BSF    x1F.5
....................                   Paso=OFF; 
0E706:  BCF    x1F.2
....................                   suministroVapor=OFF; 
0E708:  BCF    x1F.1
....................                   aguaEnfriador=OFF; 
0E70A:  BCF    31.5
....................                   ActivaAlarma(2); 
0E70C:  MOVLW  02
0E70E:  MOVLB  7
0E710:  MOVWF  x02
0E712:  MOVLB  0
0E714:  CALL   614C
....................                   incrementaCiclos(); 
0E718:  CALL   89AE
....................                   Esterilizando=OFF; 
0E71C:  MOVLB  1
0E71E:  BCF    x2A.7
....................                }else{ 
0E720:  BRA    E750
0E722:  MOVLB  2
....................                   printf("Funcionamiento.t4f.txt=\" Ninguna\""); 
0E724:  MOVLW  2A
0E726:  MOVWF  FF6
0E728:  MOVLW  1A
0E72A:  MOVWF  FF7
0E72C:  MOVLW  00
0E72E:  MOVWF  FF8
0E730:  MOVLB  0
0E732:  CALL   4720
....................                   SendDataDisplay(); 
0E736:  CALL   4752
....................                   printf("Funcionamiento.t5f.txt=\" Manteniendo Vacio\""); 
0E73A:  MOVLW  4C
0E73C:  MOVWF  FF6
0E73E:  MOVLW  1A
0E740:  MOVWF  FF7
0E742:  MOVLW  00
0E744:  MOVWF  FF8
0E746:  CALL   4720
....................                   SendDataDisplay(); 
0E74A:  CALL   4752
0E74E:  MOVLB  1
....................                } 
....................             } 
....................          } 
....................           
....................          if(mEst==0 && sEst==0){   
0E750:  MOVF   x49,F
0E752:  BTFSS  FD8.2
0E754:  BRA    E87A
0E756:  MOVF   x48,F
0E758:  BTFSS  FD8.2
0E75A:  BRA    E87A
....................             if(PresionFinal<=40){ 
0E75C:  MOVLB  2
0E75E:  MOVF   xCE,F
0E760:  BNZ   E7D4
0E762:  MOVF   xCD,W
0E764:  SUBLW  28
0E766:  BNC   E7D4
....................                printf("Funcionamiento.t4f.txt=\" Ninguna\""); 
0E768:  MOVLW  78
0E76A:  MOVWF  FF6
0E76C:  MOVLW  1A
0E76E:  MOVWF  FF7
0E770:  MOVLW  00
0E772:  MOVWF  FF8
0E774:  MOVLB  0
0E776:  CALL   4720
....................                SendDataDisplay(); 
0E77A:  CALL   4752
....................                printf("Funcionamiento.t5f.txt=\" Finalizado\""); 
0E77E:  MOVLW  9A
0E780:  MOVWF  FF6
0E782:  MOVLW  1A
0E784:  MOVWF  FF7
0E786:  MOVLW  00
0E788:  MOVWF  FF8
0E78A:  CALL   4720
....................                SendDataDisplay(); 
0E78E:  CALL   4752
....................                codigoAlarma=14; 
0E792:  MOVLW  0E
0E794:  MOVLB  2
0E796:  MOVWF  xDB
....................                if(codigoAnt!=codigoAlarma){ 
0E798:  MOVF   xDB,W
0E79A:  SUBWF  xDC,W
0E79C:  BZ    E7A8
....................                   codigoAnt=codigoAlarma; 
0E79E:  MOVFF  2DB,2DC
....................                   GuardaDatoCiclo();                   
0E7A2:  MOVLB  0
0E7A4:  CALL   854A
....................                } 
....................                if(!flagImprimir){//Imprime Ciclo Finalizado 
0E7A8:  MOVLB  1
0E7AA:  BTFSC  x30.4
0E7AC:  BRA    E7D0
....................                   Imprime=28; 
0E7AE:  MOVLW  1C
0E7B0:  MOVLB  3
0E7B2:  MOVWF  x00
....................                   Envio_Esclavos(); 
0E7B4:  MOVLB  0
0E7B6:  CALL   5DAC
....................                   delay_ms(100); 
0E7BA:  MOVLW  64
0E7BC:  MOVLB  7
0E7BE:  MOVWF  x18
0E7C0:  MOVLB  0
0E7C2:  CALL   21D6
....................                   Imprime=10; 
0E7C6:  MOVLW  0A
0E7C8:  MOVLB  3
0E7CA:  MOVWF  x00
....................                   flagImprimir=1; 
0E7CC:  MOVLB  1
0E7CE:  BSF    x30.4
....................                } 
....................             }else{ 
0E7D0:  BRA    E83C
0E7D2:  MOVLB  2
....................                printf("Funcionamiento.t4f.txt=\" Error Ciclo\""); 
0E7D4:  MOVLW  C0
0E7D6:  MOVWF  FF6
0E7D8:  MOVLW  1A
0E7DA:  MOVWF  FF7
0E7DC:  MOVLW  00
0E7DE:  MOVWF  FF8
0E7E0:  MOVLB  0
0E7E2:  CALL   4720
....................                SendDataDisplay(); 
0E7E6:  CALL   4752
....................                printf("Funcionamiento.t5f.txt=\" Finalizado\""); 
0E7EA:  MOVLW  E6
0E7EC:  MOVWF  FF6
0E7EE:  MOVLW  1A
0E7F0:  MOVWF  FF7
0E7F2:  MOVLW  00
0E7F4:  MOVWF  FF8
0E7F6:  CALL   4720
....................                SendDataDisplay(); 
0E7FA:  CALL   4752
....................                codigoAlarma=8; 
0E7FE:  MOVLW  08
0E800:  MOVLB  2
0E802:  MOVWF  xDB
....................                if(codigoAnt!=codigoAlarma){ 
0E804:  MOVF   xDB,W
0E806:  SUBWF  xDC,W
0E808:  BZ    E814
....................                   codigoAnt=codigoAlarma; 
0E80A:  MOVFF  2DB,2DC
....................                   GuardaDatoCiclo();                   
0E80E:  MOVLB  0
0E810:  CALL   854A
....................                } 
....................                if(!flagImprimir){//Imprime Ciclo Finalizado 
0E814:  MOVLB  1
0E816:  BTFSC  x30.4
0E818:  BRA    E83C
....................                   Imprime=26; 
0E81A:  MOVLW  1A
0E81C:  MOVLB  3
0E81E:  MOVWF  x00
....................                   Envio_Esclavos(); 
0E820:  MOVLB  0
0E822:  CALL   5DAC
....................                   delay_ms(100); 
0E826:  MOVLW  64
0E828:  MOVLB  7
0E82A:  MOVWF  x18
0E82C:  MOVLB  0
0E82E:  CALL   21D6
....................                   Imprime=10; 
0E832:  MOVLW  0A
0E834:  MOVLB  3
0E836:  MOVWF  x00
....................                   flagImprimir=1; 
0E838:  MOVLB  1
0E83A:  BSF    x30.4
....................                } 
....................             } 
....................             IniciaVacio=OFF; 
0E83C:  BCF    x2F.0
....................             tbomba=0; 
0E83E:  MOVLB  2
0E840:  CLRF   xC8
0E842:  CLRF   xC7
....................             BombaVacio=OFF; 
0E844:  BCF    31.6
....................             outVacio=OFF; 
0E846:  MOVLB  1
0E848:  BCF    x1F.3
....................             Desfogue=OFF; 
0E84A:  BCF    x1F.4
....................             Aire=ON; 
0E84C:  BSF    x1F.5
....................             Paso=OFF; 
0E84E:  BCF    x1F.2
....................             suministroVapor=OFF; 
0E850:  BCF    x1F.1
....................             aguaEnfriador=OFF; 
0E852:  BCF    31.5
....................             ActivaAlarma(2); 
0E854:  MOVLW  02
0E856:  MOVLB  7
0E858:  MOVWF  x02
0E85A:  MOVLB  0
0E85C:  CALL   614C
....................             if(!Finalizo){ 
0E860:  MOVLB  1
0E862:  BTFSC  x2E.0
0E864:  BRA    E870
....................                Finalizo=ON; 
0E866:  BSF    x2E.0
....................                PresionFinal=PresionCamara; 
0E868:  MOVFF  2C2,2CE
0E86C:  MOVFF  2C1,2CD
....................             } 
....................             incrementaCiclos(); 
0E870:  MOVLB  0
0E872:  CALL   89AE
....................             Esterilizando=OFF; 
0E876:  MOVLB  1
0E878:  BCF    x2A.7
0E87A:  MOVLB  2
....................          } 
....................       } 
....................    } 
....................  
....................    if(tguarda>=180){ 
0E87C:  MOVLB  1
0E87E:  MOVF   x3B,F
0E880:  BNZ   E888
0E882:  MOVF   x3A,W
0E884:  SUBLW  B3
0E886:  BC    E898
....................       if(!Ciclo) 
0E888:  BTFSC  x2C.3
0E88A:  BRA    E894
....................          GuardaDatoCiclo(); 
0E88C:  MOVLB  0
0E88E:  CALL   854A
0E892:  MOVLB  1
....................       tguarda=0; 
0E894:  CLRF   x3B
0E896:  CLRF   x3A
....................    } 
....................  
....................    if(Grafica==1){ 
0E898:  BTFSS  x31.6
0E89A:  BRA    EA0E
....................       printf("add 12,0,%1.0f",Temperatura*0.66666); 
0E89C:  MOVFF  26B,71B
0E8A0:  MOVFF  26A,71A
0E8A4:  MOVFF  269,719
0E8A8:  MOVFF  268,718
0E8AC:  MOVLW  3B
0E8AE:  MOVLB  7
0E8B0:  MOVWF  x1F
0E8B2:  MOVLW  AA
0E8B4:  MOVWF  x1E
0E8B6:  MOVLW  2A
0E8B8:  MOVWF  x1D
0E8BA:  MOVLW  7E
0E8BC:  MOVWF  x1C
0E8BE:  MOVLB  0
0E8C0:  CALL   47E8
0E8C4:  MOVFF  00,702
0E8C8:  MOVFF  01,703
0E8CC:  MOVFF  02,704
0E8D0:  MOVFF  03,705
0E8D4:  MOVLW  0C
0E8D6:  MOVWF  FF6
0E8D8:  MOVLW  1B
0E8DA:  MOVWF  FF7
0E8DC:  MOVLW  00
0E8DE:  MOVWF  FF8
0E8E0:  MOVLW  09
0E8E2:  MOVLB  7
0E8E4:  MOVWF  x08
0E8E6:  MOVLB  0
0E8E8:  CALL   628E
0E8EC:  MOVLW  00
0E8EE:  MOVWF  FE9
0E8F0:  MOVFF  705,70B
0E8F4:  MOVFF  704,70A
0E8F8:  MOVFF  703,709
0E8FC:  MOVFF  702,708
0E900:  MOVLB  7
0E902:  CLRF   x0C
0E904:  MOVLB  0
0E906:  CALL   6B90
....................       SendDataDisplay(); 
0E90A:  CALL   4752
....................       printf("add 12,1,%1.0f",PresionCamara*0.66666); 
0E90E:  MOVFF  2C2,715
0E912:  MOVFF  2C1,714
0E916:  CALL   21A0
0E91A:  MOVFF  03,71B
0E91E:  MOVFF  02,71A
0E922:  MOVFF  01,719
0E926:  MOVFF  00,718
0E92A:  MOVLW  3B
0E92C:  MOVLB  7
0E92E:  MOVWF  x1F
0E930:  MOVLW  AA
0E932:  MOVWF  x1E
0E934:  MOVLW  2A
0E936:  MOVWF  x1D
0E938:  MOVLW  7E
0E93A:  MOVWF  x1C
0E93C:  MOVLB  0
0E93E:  CALL   47E8
0E942:  MOVFF  00,702
0E946:  MOVFF  01,703
0E94A:  MOVFF  02,704
0E94E:  MOVFF  03,705
0E952:  MOVLW  1C
0E954:  MOVWF  FF6
0E956:  MOVLW  1B
0E958:  MOVWF  FF7
0E95A:  MOVLW  00
0E95C:  MOVWF  FF8
0E95E:  MOVLW  09
0E960:  MOVLB  7
0E962:  MOVWF  x08
0E964:  MOVLB  0
0E966:  CALL   628E
0E96A:  MOVLW  00
0E96C:  MOVWF  FE9
0E96E:  MOVFF  705,70B
0E972:  MOVFF  704,70A
0E976:  MOVFF  703,709
0E97A:  MOVFF  702,708
0E97E:  MOVLB  7
0E980:  CLRF   x0C
0E982:  MOVLB  0
0E984:  CALL   6B90
....................       SendDataDisplay(); 
0E988:  CALL   4752
....................       printf("add 12,2,%1.0f",PresionPreCamara*0.66666); 
0E98C:  MOVFF  2C4,715
0E990:  MOVFF  2C3,714
0E994:  CALL   21A0
0E998:  MOVFF  03,71B
0E99C:  MOVFF  02,71A
0E9A0:  MOVFF  01,719
0E9A4:  MOVFF  00,718
0E9A8:  MOVLW  3B
0E9AA:  MOVLB  7
0E9AC:  MOVWF  x1F
0E9AE:  MOVLW  AA
0E9B0:  MOVWF  x1E
0E9B2:  MOVLW  2A
0E9B4:  MOVWF  x1D
0E9B6:  MOVLW  7E
0E9B8:  MOVWF  x1C
0E9BA:  MOVLB  0
0E9BC:  CALL   47E8
0E9C0:  MOVFF  00,702
0E9C4:  MOVFF  01,703
0E9C8:  MOVFF  02,704
0E9CC:  MOVFF  03,705
0E9D0:  MOVLW  2C
0E9D2:  MOVWF  FF6
0E9D4:  MOVLW  1B
0E9D6:  MOVWF  FF7
0E9D8:  MOVLW  00
0E9DA:  MOVWF  FF8
0E9DC:  MOVLW  09
0E9DE:  MOVLB  7
0E9E0:  MOVWF  x08
0E9E2:  MOVLB  0
0E9E4:  CALL   628E
0E9E8:  MOVLW  00
0E9EA:  MOVWF  FE9
0E9EC:  MOVFF  705,70B
0E9F0:  MOVFF  704,70A
0E9F4:  MOVFF  703,709
0E9F8:  MOVFF  702,708
0E9FC:  MOVLB  7
0E9FE:  CLRF   x0C
0EA00:  MOVLB  0
0EA02:  CALL   6B90
....................       SendDataDisplay(); 
0EA06:  CALL   4752
....................       Grafica=0; 
0EA0A:  MOVLB  1
0EA0C:  BCF    x31.6
....................    } 
....................    if(Lectura==1)// Utilizado para visualizar la lectura de la temperatura 
0EA0E:  BTFSS  x31.5
0EA10:  BRA    ECDC
....................    {                       
....................       Lectura=0; 
0EA12:  BCF    x31.5
....................       //printf("tuser.txt=\"%s\"",usuario); 
....................       //SendDataDisplay(); 
....................       printf("t6f.txt=\"%3.1fC\"",Temperatura); 
0EA14:  MOVLW  3C
0EA16:  MOVWF  FF6
0EA18:  MOVLW  1B
0EA1A:  MOVWF  FF7
0EA1C:  MOVLW  00
0EA1E:  MOVWF  FF8
0EA20:  MOVLW  09
0EA22:  MOVLB  7
0EA24:  MOVWF  x08
0EA26:  MOVLB  0
0EA28:  CALL   628E
0EA2C:  MOVLW  02
0EA2E:  MOVWF  FE9
0EA30:  MOVFF  26B,70B
0EA34:  MOVFF  26A,70A
0EA38:  MOVFF  269,709
0EA3C:  MOVFF  268,708
0EA40:  MOVLW  01
0EA42:  MOVLB  7
0EA44:  MOVWF  x0C
0EA46:  MOVLB  0
0EA48:  CALL   6B90
0EA4C:  MOVLW  B0
0EA4E:  BTFSS  F9E.4
0EA50:  BRA    EA4E
0EA52:  MOVWF  FAD
0EA54:  MOVLW  43
0EA56:  BTFSS  F9E.4
0EA58:  BRA    EA56
0EA5A:  MOVWF  FAD
0EA5C:  MOVLW  22
0EA5E:  BTFSS  F9E.4
0EA60:  BRA    EA5E
0EA62:  MOVWF  FAD
....................       SendDataDisplay(); 
0EA64:  CALL   4752
....................       printf("Funcionamiento.t7f.txt=\"%03LukPa\"",PresionCamara); 
0EA68:  MOVLW  4E
0EA6A:  MOVWF  FF6
0EA6C:  MOVLW  1B
0EA6E:  MOVWF  FF7
0EA70:  MOVLW  00
0EA72:  MOVWF  FF8
0EA74:  MOVLW  18
0EA76:  MOVLB  7
0EA78:  MOVWF  x08
0EA7A:  MOVLB  0
0EA7C:  CALL   628E
0EA80:  MOVLW  0A
0EA82:  MOVWF  FE9
0EA84:  MOVFF  2C2,709
0EA88:  MOVFF  2C1,708
0EA8C:  CALL   6A22
0EA90:  MOVLW  6B
0EA92:  MOVWF  FF6
0EA94:  MOVLW  1B
0EA96:  MOVWF  FF7
0EA98:  MOVLW  00
0EA9A:  MOVWF  FF8
0EA9C:  MOVLW  04
0EA9E:  MOVLB  7
0EAA0:  MOVWF  x08
0EAA2:  MOVLB  0
0EAA4:  CALL   628E
....................       SendDataDisplay(); 
0EAA8:  CALL   4752
....................       printf("Funcionamiento.t12f.txt=\"%03LukPa\"",PresionPreCamara); 
0EAAC:  MOVLW  70
0EAAE:  MOVWF  FF6
0EAB0:  MOVLW  1B
0EAB2:  MOVWF  FF7
0EAB4:  MOVLW  00
0EAB6:  MOVWF  FF8
0EAB8:  MOVLW  19
0EABA:  MOVLB  7
0EABC:  MOVWF  x08
0EABE:  MOVLB  0
0EAC0:  CALL   628E
0EAC4:  MOVLW  0A
0EAC6:  MOVWF  FE9
0EAC8:  MOVFF  2C4,709
0EACC:  MOVFF  2C3,708
0EAD0:  CALL   6A22
0EAD4:  MOVLW  8E
0EAD6:  MOVWF  FF6
0EAD8:  MOVLW  1B
0EADA:  MOVWF  FF7
0EADC:  MOVLW  00
0EADE:  MOVWF  FF8
0EAE0:  MOVLW  04
0EAE2:  MOVLB  7
0EAE4:  MOVWF  x08
0EAE6:  MOVLB  0
0EAE8:  CALL   628E
....................       SendDataDisplay(); 
0EAEC:  CALL   4752
....................       printf("Funcionamiento.t9f.txt=\"%03uC\"",Setpoint); 
0EAF0:  MOVLW  94
0EAF2:  MOVWF  FF6
0EAF4:  MOVLW  1B
0EAF6:  MOVWF  FF7
0EAF8:  MOVLW  00
0EAFA:  MOVWF  FF8
0EAFC:  MOVLW  18
0EAFE:  MOVLB  7
0EB00:  MOVWF  x08
0EB02:  MOVLB  0
0EB04:  CALL   628E
0EB08:  MOVFF  2AF,708
0EB0C:  MOVLW  03
0EB0E:  MOVLB  7
0EB10:  MOVWF  x09
0EB12:  MOVLB  0
0EB14:  CALL   6312
0EB18:  MOVLW  B0
0EB1A:  BTFSS  F9E.4
0EB1C:  BRA    EB1A
0EB1E:  MOVWF  FAD
0EB20:  MOVLW  43
0EB22:  BTFSS  F9E.4
0EB24:  BRA    EB22
0EB26:  MOVWF  FAD
0EB28:  MOVLW  22
0EB2A:  BTFSS  F9E.4
0EB2C:  BRA    EB2A
0EB2E:  MOVWF  FAD
....................       SendDataDisplay();       
0EB30:  CALL   4752
....................       printf("Funcionamiento.t10f.txt=\"%02u:%02u\"",mEst,sEst); 
0EB34:  MOVLW  B4
0EB36:  MOVWF  FF6
0EB38:  MOVLW  1B
0EB3A:  MOVWF  FF7
0EB3C:  MOVLW  00
0EB3E:  MOVWF  FF8
0EB40:  MOVLW  19
0EB42:  MOVLB  7
0EB44:  MOVWF  x08
0EB46:  MOVLB  0
0EB48:  CALL   628E
0EB4C:  MOVFF  149,708
0EB50:  MOVLW  01
0EB52:  MOVLB  7
0EB54:  MOVWF  x09
0EB56:  MOVLB  0
0EB58:  CALL   6312
0EB5C:  MOVLW  3A
0EB5E:  BTFSS  F9E.4
0EB60:  BRA    EB5E
0EB62:  MOVWF  FAD
0EB64:  MOVFF  148,708
0EB68:  MOVLW  01
0EB6A:  MOVLB  7
0EB6C:  MOVWF  x09
0EB6E:  MOVLB  0
0EB70:  CALL   6312
0EB74:  MOVLW  22
0EB76:  BTFSS  F9E.4
0EB78:  BRA    EB76
0EB7A:  MOVWF  FAD
....................       SendDataDisplay();       
0EB7C:  CALL   4752
....................       printf("Funcionamiento.t11f.txt=\"%02u:%02u\"",mSec,sSec); 
0EB80:  MOVLW  D8
0EB82:  MOVWF  FF6
0EB84:  MOVLW  1B
0EB86:  MOVWF  FF7
0EB88:  MOVLW  00
0EB8A:  MOVWF  FF8
0EB8C:  MOVLW  19
0EB8E:  MOVLB  7
0EB90:  MOVWF  x08
0EB92:  MOVLB  0
0EB94:  CALL   628E
0EB98:  MOVFF  14B,708
0EB9C:  MOVLW  01
0EB9E:  MOVLB  7
0EBA0:  MOVWF  x09
0EBA2:  MOVLB  0
0EBA4:  CALL   6312
0EBA8:  MOVLW  3A
0EBAA:  BTFSS  F9E.4
0EBAC:  BRA    EBAA
0EBAE:  MOVWF  FAD
0EBB0:  MOVFF  14A,708
0EBB4:  MOVLW  01
0EBB6:  MOVLB  7
0EBB8:  MOVWF  x09
0EBBA:  MOVLB  0
0EBBC:  CALL   6312
0EBC0:  MOVLW  22
0EBC2:  BTFSS  F9E.4
0EBC4:  BRA    EBC2
0EBC6:  MOVWF  FAD
....................       SendDataDisplay();       
0EBC8:  CALL   4752
....................        
....................       printf("fecha.txt=\"%s Fecha:%02u/%02u/20%02u  Hora:%02u:%02u %2.1fC\"",usuario,Dia,Mes,Year,Hora,Minuto,Tactual); 
0EBCC:  MOVLW  FC
0EBCE:  MOVWF  FF6
0EBD0:  MOVLW  1B
0EBD2:  MOVWF  FF7
0EBD4:  MOVLW  00
0EBD6:  MOVWF  FF8
0EBD8:  MOVLW  0B
0EBDA:  MOVLB  7
0EBDC:  MOVWF  x08
0EBDE:  MOVLB  0
0EBE0:  CALL   628E
0EBE4:  MOVLW  03
0EBE6:  MOVWF  FEA
0EBE8:  MOVLW  08
0EBEA:  MOVWF  FE9
0EBEC:  CALL   62C0
0EBF0:  MOVLW  09
0EBF2:  MOVWF  FF6
0EBF4:  MOVLW  1C
0EBF6:  MOVWF  FF7
0EBF8:  MOVLW  00
0EBFA:  MOVWF  FF8
0EBFC:  MOVLW  07
0EBFE:  MOVLB  7
0EC00:  MOVWF  x08
0EC02:  MOVLB  0
0EC04:  CALL   628E
0EC08:  MOVFF  2F0,708
0EC0C:  MOVLW  01
0EC0E:  MOVLB  7
0EC10:  MOVWF  x09
0EC12:  MOVLB  0
0EC14:  CALL   6312
0EC18:  MOVLW  2F
0EC1A:  BTFSS  F9E.4
0EC1C:  BRA    EC1A
0EC1E:  MOVWF  FAD
0EC20:  MOVFF  2EF,708
0EC24:  MOVLW  01
0EC26:  MOVLB  7
0EC28:  MOVWF  x09
0EC2A:  MOVLB  0
0EC2C:  CALL   6312
0EC30:  MOVLW  2F
0EC32:  BTFSS  F9E.4
0EC34:  BRA    EC32
0EC36:  MOVWF  FAD
0EC38:  MOVLW  32
0EC3A:  BTFSS  F9E.4
0EC3C:  BRA    EC3A
0EC3E:  MOVWF  FAD
0EC40:  MOVLW  30
0EC42:  BTFSS  F9E.4
0EC44:  BRA    EC42
0EC46:  MOVWF  FAD
0EC48:  MOVFF  2EE,708
0EC4C:  MOVLW  01
0EC4E:  MOVLB  7
0EC50:  MOVWF  x09
0EC52:  MOVLB  0
0EC54:  CALL   6312
0EC58:  MOVLW  20
0EC5A:  MOVWF  FF6
0EC5C:  MOVLW  1C
0EC5E:  MOVWF  FF7
0EC60:  MOVLW  00
0EC62:  MOVWF  FF8
0EC64:  MOVLW  07
0EC66:  MOVLB  7
0EC68:  MOVWF  x08
0EC6A:  MOVLB  0
0EC6C:  CALL   628E
0EC70:  MOVFF  2F1,708
0EC74:  MOVLW  01
0EC76:  MOVLB  7
0EC78:  MOVWF  x09
0EC7A:  MOVLB  0
0EC7C:  CALL   6312
0EC80:  MOVLW  3A
0EC82:  BTFSS  F9E.4
0EC84:  BRA    EC82
0EC86:  MOVWF  FAD
0EC88:  MOVFF  2F2,708
0EC8C:  MOVLW  01
0EC8E:  MOVLB  7
0EC90:  MOVWF  x09
0EC92:  MOVLB  0
0EC94:  CALL   6312
0EC98:  MOVLW  20
0EC9A:  BTFSS  F9E.4
0EC9C:  BRA    EC9A
0EC9E:  MOVWF  FAD
0ECA0:  MOVLW  01
0ECA2:  MOVWF  FE9
0ECA4:  MOVFF  295,70B
0ECA8:  MOVFF  294,70A
0ECAC:  MOVFF  293,709
0ECB0:  MOVFF  292,708
0ECB4:  MOVLB  7
0ECB6:  MOVWF  x0C
0ECB8:  MOVLB  0
0ECBA:  CALL   6B90
0ECBE:  MOVLW  B0
0ECC0:  BTFSS  F9E.4
0ECC2:  BRA    ECC0
0ECC4:  MOVWF  FAD
0ECC6:  MOVLW  43
0ECC8:  BTFSS  F9E.4
0ECCA:  BRA    ECC8
0ECCC:  MOVWF  FAD
0ECCE:  MOVLW  22
0ECD0:  BTFSS  F9E.4
0ECD2:  BRA    ECD0
0ECD4:  MOVWF  FAD
....................       SendDataDisplay(); 
0ECD6:  CALL   4752
0ECDA:  MOVLB  1
0ECDC:  MOVLB  3
....................    } 
....................    } 
.................... } 
0ECDE:  MOVLB  0
0ECE0:  GOTO   10926 (RETURN)
....................  
....................  
.................... #int_rda HIGH 
.................... void serial_rx_isr(){ 
....................    Dato2=fgetc(); 
*
01C52:  BRA    1C3A
01C54:  MOVFF  01,29E
....................    if(Dato2==0x65){//Inicio Comunicacion 
01C58:  MOVLB  2
01C5A:  MOVF   x9E,W
01C5C:  SUBLW  65
01C5E:  BNZ   1C66
....................       Inicio=1; 
01C60:  MOVLW  01
01C62:  MOVWF  x9C
....................       RX_Wr_Index =0; 
01C64:  CLRF   48
....................    } 
....................     
....................    if(Inicio==1){ 
01C66:  DECFSZ x9C,W
01C68:  BRA    1C7E
....................       Rx_Buffer2[RX_Wr_Index] = Dato2; 
01C6A:  CLRF   03
01C6C:  MOVF   48,W
01C6E:  ADDLW  3D
01C70:  MOVWF  FE9
01C72:  MOVLW  00
01C74:  ADDWFC 03,W
01C76:  MOVWF  FEA
01C78:  MOVFF  29E,FEF
....................       RX_Wr_Index++; 
01C7C:  INCF   48,F
....................    } 
....................    if(RX_Wr_Index >= RX_BUFFER_SIZE){ 
01C7E:  MOVF   48,W
01C80:  SUBLW  09
01C82:  BC    1C88
....................       RX_Wr_Index =0; 
01C84:  CLRF   48
....................       Inicio=0; 
01C86:  CLRF   x9C
....................    } 
....................  
....................    if(RX_Wr_Index==0){ 
01C88:  MOVF   48,F
01C8A:  BNZ   1CAC
....................       if(Rx_Buffer2[0]==0x65 && Rx_Buffer2[1]==0xff && Rx_Buffer2[2]==0xff && Rx_Buffer2[8]==0x00 && Rx_Buffer2[9]==0xff ){ 
01C8C:  MOVF   3D,W
01C8E:  SUBLW  65
01C90:  BNZ   1CA8
01C92:  INCFSZ 3E,W
01C94:  BRA    1CA8
01C96:  INCFSZ 3F,W
01C98:  BRA    1CA8
01C9A:  MOVF   45,F
01C9C:  BNZ   1CA8
01C9E:  INCFSZ 46,W
01CA0:  BRA    1CA8
....................          Dato_Exitoso=5; 
01CA2:  MOVLW  05
01CA4:  MOVWF  x9D
....................       }else{ 
01CA6:  BRA    1CAC
....................          Dato_Exitoso=10; 
01CA8:  MOVLW  0A
01CAA:  MOVWF  x9D
....................       } 
....................    } 
.................... } 
....................  
01CAC:  BCF    F9E.5
01CAE:  MOVLB  0
01CB0:  GOTO   00FE
.................... #int_TIMER1 
.................... void temp1s(void){ 
....................    set_timer1(40536); // Se repite cada 5ms 
01CB4:  MOVLW  9E
01CB6:  MOVWF  FCF
01CB8:  MOVLW  58
01CBA:  MOVWF  FCE
....................    tiempos++; 
01CBC:  MOVLB  2
01CBE:  INCF   xB5,F
01CC0:  BTFSC  FD8.2
01CC2:  INCF   xB6,F
....................    tiempos2++; 
01CC4:  INCF   xB7,F
01CC6:  BTFSC  FD8.2
01CC8:  INCF   xB8,F
....................    tiempos3++; 
01CCA:  INCF   xB9,F
01CCC:  BTFSC  FD8.2
01CCE:  INCF   xBA,F
....................    tiempoctrl++; 
01CD0:  INCF   xBB,F
01CD2:  BTFSC  FD8.2
01CD4:  INCF   xBC,F
....................     
....................    if(!STOP){ 
01CD6:  BSF    F93.0
01CD8:  BTFSS  F81.0
01CDA:  BRA    1CE4
....................       tStop++; 
01CDC:  INCF   xE2,F
01CDE:  BTFSC  FD8.2
01CE0:  INCF   xE3,F
....................    }else{ 
01CE2:  BRA    1CE8
....................       tStop=0; 
01CE4:  CLRF   xE3
01CE6:  CLRF   xE2
....................    } 
....................     
....................    if(flagAlarma) 
01CE8:  MOVLB  1
01CEA:  BTFSS  x2D.5
01CEC:  BRA    1CF8
....................       tbuzzer++; 
01CEE:  MOVLB  2
01CF0:  INCF   xDE,F
01CF2:  BTFSC  FD8.2
01CF4:  INCF   xDF,F
01CF6:  MOVLB  1
....................        
....................    if(flagSilencio)    
01CF8:  BTFSS  x2D.7
01CFA:  BRA    1D04
....................       tsilencio++; 
01CFC:  MOVLB  2
01CFE:  INCF   xE0,F
01D00:  BTFSC  FD8.2
01D02:  INCF   xE1,F
....................  
....................    if(tiempos>=200){  // 12000 para que incremente cada minuto, 200para que incremente cada segundo. 
01D04:  MOVLB  2
01D06:  MOVF   xB6,F
01D08:  BNZ   1D12
01D0A:  MOVF   xB5,W
01D0C:  SUBLW  C7
01D0E:  BTFSC  FD8.0
01D10:  BRA    1EB0
....................       if(flagTC) 
01D12:  BTFSS  x96.0
01D14:  BRA    1D18
....................          TiempoControl++; 
01D16:  INCF   xD7,F
....................        
....................       tiemporecta++; 
01D18:  INCF   x98,F
....................        
....................       if(IniciaCiclo && tiempoImpresion<CalculoImpresion){ 
01D1A:  MOVLB  1
01D1C:  BTFSS  x2A.6
01D1E:  BRA    1D40
01D20:  MOVLB  2
01D22:  MOVF   xCC,F
01D24:  BTFSC  FD8.2
01D26:  BRA    1D2C
01D28:  MOVLB  1
01D2A:  BRA    1D40
01D2C:  MOVF   x9B,W
01D2E:  SUBWF  xCB,W
01D30:  BTFSS  FD8.0
01D32:  BRA    1D38
01D34:  MOVLB  1
01D36:  BRA    1D40
....................          tiempoImpresion++; 
01D38:  INCF   xCB,F
01D3A:  BTFSC  FD8.2
01D3C:  INCF   xCC,F
....................       }else if(tiempoImpresion>=CalculoImpresion){ 
01D3E:  BRA    1D52
01D40:  MOVLB  2
01D42:  MOVF   xCC,F
01D44:  BNZ   1D4C
01D46:  MOVF   x9B,W
01D48:  SUBWF  xCB,W
01D4A:  BNC   1D52
....................          flagImprime=1; 
01D4C:  BSF    x96.1
....................          tiempoImpresion=0; 
01D4E:  CLRF   xCC
01D50:  CLRF   xCB
....................       } 
....................        
....................       if(oprimioIniciar) 
01D52:  MOVLB  1
01D54:  BTFSS  x2A.1
01D56:  BRA    1D60
....................          tIniciar++; 
01D58:  INCF   x3E,F
01D5A:  BTFSC  FD8.2
01D5C:  INCF   x3F,F
....................       else 
01D5E:  BRA    1D64
....................          tIniciar=0; 
01D60:  CLRF   x3F
01D62:  CLRF   x3E
....................           
....................       if(oprimioCiclo) 
01D64:  BTFSS  x2A.2
01D66:  BRA    1D70
....................          tCiclof++; 
01D68:  INCF   x40,F
01D6A:  BTFSC  FD8.2
01D6C:  INCF   x41,F
....................       else 
01D6E:  BRA    1D74
....................          tCiclof=0; 
01D70:  CLRF   x41
01D72:  CLRF   x40
....................        
....................       if(oprimioCicloP) 
01D74:  BTFSS  x2A.3
01D76:  BRA    1D80
....................          tCicloP++; 
01D78:  INCF   x42,F
01D7A:  BTFSC  FD8.2
01D7C:  INCF   x43,F
....................       else 
01D7E:  BRA    1D84
....................          tCicloP=0; 
01D80:  CLRF   x43
01D82:  CLRF   x42
....................           
....................       if(oprimioConfig) 
01D84:  BTFSS  x2A.4
01D86:  BRA    1D90
....................          tConfig++; 
01D88:  INCF   x44,F
01D8A:  BTFSC  FD8.2
01D8C:  INCF   x45,F
....................       else 
01D8E:  BRA    1D94
....................          tConfig=0; 
01D90:  CLRF   x45
01D92:  CLRF   x44
....................        
....................       if(vacioEmpaqueL) 
01D94:  BTFSS  x22.6
01D96:  BRA    1DA0
....................          tVacioEmpaqueL++; 
01D98:  INCF   x28,F
01D9A:  BTFSC  FD8.2
01D9C:  INCF   x29,F
....................       else 
01D9E:  BRA    1DA4
....................          tVacioEmpaqueL=0; 
01DA0:  CLRF   x29
01DA2:  CLRF   x28
....................        
....................       if(vacioEmpaqueS) 
01DA4:  BTFSS  x22.7
01DA6:  BRA    1DB0
....................          tVacioEmpaqueS++; 
01DA8:  INCF   x26,F
01DAA:  BTFSC  FD8.2
01DAC:  INCF   x27,F
....................       else 
01DAE:  BRA    1DB4
....................          tVacioEmpaqueS=0; 
01DB0:  CLRF   x27
01DB2:  CLRF   x26
....................           
....................       if(empaqueLimpio && !EMPAQUEL) 
01DB4:  BTFSS  31.7
01DB6:  BRA    1DC6
01DB8:  BTFSC  31.0
01DBA:  BRA    1DC6
....................          tEmpaqueL++; 
01DBC:  MOVLB  2
01DBE:  INCF   xAB,F
01DC0:  BTFSC  FD8.2
01DC2:  INCF   xAC,F
....................       else 
01DC4:  BRA    1DCC
....................          tEmpaqueL=0; 
01DC6:  MOVLB  2
01DC8:  CLRF   xAC
01DCA:  CLRF   xAB
....................        
....................       if(empaqueSucio && !EMPAQUES) 
01DCC:  MOVLB  1
01DCE:  BTFSS  x1F.0
01DD0:  BRA    1DE2
01DD2:  BSF    F93.3
01DD4:  BTFSS  F81.3
01DD6:  BRA    1DE2
....................          tEmpaqueS++; 
01DD8:  MOVLB  2
01DDA:  INCF   xA9,F
01DDC:  BTFSC  FD8.2
01DDE:  INCF   xAA,F
....................       else 
01DE0:  BRA    1DE8
....................          tEmpaqueS=0; 
01DE2:  MOVLB  2
01DE4:  CLRF   xAA
01DE6:  CLRF   xA9
....................        
....................       if(IniciaLlenado && !CalderinLleno) 
01DE8:  MOVLB  1
01DEA:  BTFSS  x2A.5
01DEC:  BRA    1DF8
01DEE:  BTFSC  x2B.4
01DF0:  BRA    1DF8
....................          TiempoLlenado++; 
01DF2:  INCF   x46,F
01DF4:  BTFSC  FD8.2
01DF6:  INCF   x47,F
....................        
....................       if(SensadoNivel) 
01DF8:  BTFSS  x2B.1
01DFA:  BRA    1E02
....................          TiempoSensadoNivel++; 
01DFC:  INCF   x34,F
01DFE:  BTFSC  FD8.2
01E00:  INCF   x35,F
....................           
....................       if(SensadoNivelR) 
01E02:  BTFSS  x31.2
01E04:  BRA    1E0C
....................          TiempoSensadoNivelR++;    
01E06:  MOVLB  2
01E08:  INCF   x26,F
01E0A:  MOVLB  1
....................        
....................       if(guardaCiclo) 
01E0C:  BTFSS  x21.7
01E0E:  BRA    1E16
....................          tguarda++; 
01E10:  INCF   x3A,F
01E12:  BTFSC  FD8.2
01E14:  INCF   x3B,F
....................        
....................       if(IniciaCiclo && !Esterilizando && DOORS && DOORL) 
01E16:  BTFSS  x2A.6
01E18:  BRA    1E2E
01E1A:  BTFSC  x2A.7
01E1C:  BRA    1E2E
01E1E:  BSF    F93.1
01E20:  BTFSC  F81.1
01E22:  BRA    1E2E
01E24:  BTFSS  31.1
01E26:  BRA    1E2E
....................          TiempoCiclo++; 
01E28:  INCF   x32,F
01E2A:  BTFSC  FD8.2
01E2C:  INCF   x33,F
....................        
....................       if(SensadoNivel) 
01E2E:  BTFSS  x2B.1
01E30:  BRA    1E38
....................          TiempoSensadoNivel++; 
01E32:  INCF   x34,F
01E34:  BTFSC  FD8.2
01E36:  INCF   x35,F
....................           
....................       if(SensadoNivelL) 
01E38:  BTFSS  x2F.7
01E3A:  BRA    1E42
....................          tNivelBajo++; 
01E3C:  INCF   x3C,F
01E3E:  BTFSC  FD8.2
01E40:  INCF   x3D,F
....................        
....................       if(IniciaVacio) 
01E42:  BTFSS  x2F.0
01E44:  BRA    1E50
....................          tvacio++;          
01E46:  MOVLB  2
01E48:  INCF   xC9,F
01E4A:  BTFSC  FD8.2
01E4C:  INCF   xCA,F
01E4E:  MOVLB  1
....................        
....................       if(IniciaVacio2) 
01E50:  BTFSS  x2F.1
01E52:  BRA    1E5E
....................          tbomba++; 
01E54:  MOVLB  2
01E56:  INCF   xC7,F
01E58:  BTFSC  FD8.2
01E5A:  INCF   xC8,F
01E5C:  MOVLB  1
....................           
....................       if(EstadoAgua2)    
01E5E:  BTFSS  x2C.4
01E60:  BRA    1E6A
....................          tEnfriador++; 
01E62:  MOVLB  2
01E64:  INCF   xAD,F
01E66:  BTFSC  FD8.2
01E68:  INCF   xAE,F
....................        
....................       tiempos=0;Lectura=1;tinicio++; 
01E6A:  MOVLB  2
01E6C:  CLRF   xB6
01E6E:  CLRF   xB5
01E70:  MOVLB  1
01E72:  BSF    x31.5
01E74:  MOVLB  2
01E76:  INCF   xBF,F
01E78:  BTFSC  FD8.2
01E7A:  INCF   xC0,F
....................     
....................       if(Esterilizando && !Desfogando){                
01E7C:  MOVLB  1
01E7E:  BTFSS  x2A.7
01E80:  BRA    1E98
01E82:  BTFSC  x2B.2
01E84:  BRA    1E98
....................          if(sEst>0){ 
01E86:  MOVF   x48,F
01E88:  BZ    1E8E
....................             sEst--; 
01E8A:  DECF   x48,F
....................          }else if(mEst>0){ 
01E8C:  BRA    1E98
01E8E:  MOVF   x49,F
01E90:  BZ    1E98
....................             mEst--; 
01E92:  DECF   x49,F
....................             sEst=59; 
01E94:  MOVLW  3B
01E96:  MOVWF  x48
....................          } 
....................       } 
....................       if(Secando){ 
01E98:  BTFSS  x2B.0
01E9A:  BRA    1EAE
....................          if(sSec>0){ 
01E9C:  MOVF   x4A,F
01E9E:  BZ    1EA4
....................             sSec--; 
01EA0:  DECF   x4A,F
....................          }else if(mSec>0){ 
01EA2:  BRA    1EAE
01EA4:  MOVF   x4B,F
01EA6:  BZ    1EAE
....................             mSec--; 
01EA8:  DECF   x4B,F
....................             sSec=59; 
01EAA:  MOVLW  3B
01EAC:  MOVWF  x4A
01EAE:  MOVLB  2
....................          } 
....................       } 
....................    } 
.................... } 
....................  
01EB0:  BCF    F9E.0
01EB2:  MOVLB  0
01EB4:  GOTO   0068
.................... void main() 
.................... { 
*
10000:  CLRF   FF8
10002:  BCF    F9F.0
10004:  BSF    F9F.5
10006:  BSF    FD0.7
10008:  BSF    07.7
1000A:  CLRF   FEA
1000C:  CLRF   FE9
1000E:  BSF    FB8.3
10010:  MOVLW  08
10012:  MOVWF  FAF
10014:  MOVLW  02
10016:  MOVWF  FB0
10018:  MOVLW  A6
1001A:  MOVWF  FAC
1001C:  MOVLW  90
1001E:  MOVWF  FAB
10020:  CLRF   48
10022:  MOVLB  1
10024:  CLRF   x04
10026:  CLRF   x05
10028:  CLRF   x06
1002A:  BCF    31.4
1002C:  BCF    31.5
1002E:  BCF    31.6
10030:  BCF    31.7
10032:  BCF    x1F.0
10034:  BCF    x1F.1
10036:  BCF    x1F.2
10038:  BCF    x1F.3
1003A:  BCF    x1F.4
1003C:  BCF    x1F.5
1003E:  BCF    x1F.6
10040:  BCF    x1F.7
10042:  BCF    x20.0
10044:  BCF    x20.1
10046:  BCF    x20.2
10048:  BCF    x20.3
1004A:  BCF    x20.4
1004C:  BCF    x20.5
1004E:  BCF    x20.6
10050:  BCF    x20.7
10052:  BCF    x21.0
10054:  BCF    x21.1
10056:  BCF    x21.2
10058:  BCF    x21.3
1005A:  BCF    x21.4
1005C:  BCF    x21.5
1005E:  BCF    x21.6
10060:  BCF    x21.7
10062:  BCF    x22.0
10064:  BCF    x22.1
10066:  BCF    x22.2
10068:  BCF    x22.3
1006A:  BCF    x22.4
1006C:  BCF    x22.5
1006E:  BCF    x22.6
10070:  BCF    x22.7
10072:  BCF    x23.0
10074:  BCF    x23.1
10076:  BCF    x23.2
10078:  MOVLW  02
1007A:  MOVWF  x25
1007C:  MOVLW  58
1007E:  MOVWF  x24
10080:  CLRF   x27
10082:  CLRF   x26
10084:  CLRF   x29
10086:  CLRF   x28
10088:  BCF    x23.3
1008A:  BCF    x23.4
1008C:  BCF    x23.5
1008E:  BCF    x23.6
10090:  BCF    x23.7
10092:  BCF    x2A.0
10094:  BCF    x2A.1
10096:  BCF    x2A.2
10098:  BCF    x2A.3
1009A:  BCF    x2A.4
1009C:  BCF    x2A.5
1009E:  BCF    x2A.6
100A0:  BCF    x2A.7
100A2:  BCF    x2B.0
100A4:  BCF    x2B.1
100A6:  BCF    x2B.2
100A8:  BCF    x2B.3
100AA:  BCF    x2B.4
100AC:  BCF    x2B.5
100AE:  BCF    x2B.6
100B0:  BCF    x2B.7
100B2:  BCF    x2C.0
100B4:  BCF    x2C.1
100B6:  BCF    x2C.2
100B8:  BCF    x2C.3
100BA:  BCF    x2C.4
100BC:  BCF    x2C.5
100BE:  BCF    x2C.6
100C0:  BCF    x2C.7
100C2:  BCF    x2D.0
100C4:  BCF    x2D.1
100C6:  BCF    x2D.2
100C8:  BCF    x2D.3
100CA:  BCF    x2D.4
100CC:  BCF    x2D.5
100CE:  BCF    x2D.6
100D0:  BCF    x2D.7
100D2:  BCF    x2E.0
100D4:  BCF    x2E.1
100D6:  BCF    x2E.2
100D8:  BCF    x2E.3
100DA:  BCF    x2E.4
100DC:  BCF    x2E.5
100DE:  BCF    x2E.6
100E0:  BCF    x2E.7
100E2:  BCF    x2F.0
100E4:  BCF    x2F.1
100E6:  BCF    x2F.2
100E8:  BCF    x2F.3
100EA:  BCF    x2F.4
100EC:  BCF    x2F.5
100EE:  BCF    x2F.6
100F0:  BCF    x2F.7
100F2:  BCF    x30.0
100F4:  BCF    x30.1
100F6:  BCF    x30.2
100F8:  BCF    x30.3
100FA:  BCF    x30.4
100FC:  BCF    x30.5
100FE:  BCF    x30.6
10100:  BCF    x30.7
10102:  BCF    x31.0
10104:  BCF    x31.1
10106:  BCF    x31.2
10108:  BCF    x31.3
1010A:  CLRF   x33
1010C:  CLRF   x32
1010E:  CLRF   x35
10110:  CLRF   x34
10112:  CLRF   x37
10114:  CLRF   x36
10116:  CLRF   x39
10118:  CLRF   x38
1011A:  CLRF   x3B
1011C:  CLRF   x3A
1011E:  CLRF   x3D
10120:  CLRF   x3C
10122:  CLRF   x3F
10124:  CLRF   x3E
10126:  CLRF   x41
10128:  CLRF   x40
1012A:  CLRF   x43
1012C:  CLRF   x42
1012E:  CLRF   x45
10130:  CLRF   x44
10132:  CLRF   x47
10134:  CLRF   x46
10136:  CLRF   x48
10138:  CLRF   x49
1013A:  CLRF   x4A
1013C:  CLRF   x4B
1013E:  CLRF   x4C
10140:  CLRF   x4D
10142:  CLRF   x4E
10144:  CLRF   x4F
10146:  CLRF   xF3
10148:  CLRF   xF2
1014A:  CLRF   xF1
1014C:  CLRF   xF0
1014E:  CLRF   xF7
10150:  CLRF   xF6
10152:  CLRF   xF5
10154:  CLRF   xF4
10156:  CLRF   xFB
10158:  CLRF   xFA
1015A:  CLRF   xF9
1015C:  CLRF   xF8
1015E:  MOVLW  4A
10160:  MOVWF  xFF
10162:  MOVLW  88
10164:  MOVWF  xFE
10166:  MOVLW  28
10168:  MOVWF  xFD
1016A:  MOVLW  75
1016C:  MOVWF  xFC
1016E:  MOVLB  2
10170:  CLRF   x03
10172:  CLRF   x02
10174:  CLRF   x01
10176:  CLRF   x00
10178:  CLRF   x07
1017A:  MOVLW  80
1017C:  MOVWF  x06
1017E:  MOVLW  54
10180:  MOVWF  x05
10182:  MOVLW  8B
10184:  MOVWF  x04
10186:  CLRF   x0B
10188:  CLRF   x0A
1018A:  CLRF   x09
1018C:  CLRF   x08
1018E:  CLRF   x0F
10190:  CLRF   x0E
10192:  CLRF   x0D
10194:  CLRF   x0C
10196:  CLRF   x1B
10198:  CLRF   x1A
1019A:  CLRF   x19
1019C:  CLRF   x18
1019E:  CLRF   x1F
101A0:  CLRF   x1E
101A2:  CLRF   x1D
101A4:  CLRF   x1C
101A6:  CLRF   x20
101A8:  CLRF   x21
101AA:  MOVLW  14
101AC:  MOVWF  x22
101AE:  CLRF   x23
101B0:  CLRF   x24
101B2:  CLRF   x25
101B4:  CLRF   x26
101B6:  CLRF   x27
101B8:  CLRF   x28
101BA:  CLRF   x29
101BC:  CLRF   x2A
101BE:  CLRF   x2B
101C0:  CLRF   x2F
101C2:  CLRF   x2E
101C4:  CLRF   x2D
101C6:  CLRF   x2C
101C8:  CLRF   x37
101CA:  CLRF   x36
101CC:  MOVLW  20
101CE:  MOVWF  x35
101D0:  MOVLW  82
101D2:  MOVWF  x34
101D4:  CLRF   x3B
101D6:  CLRF   x3A
101D8:  CLRF   x39
101DA:  CLRF   x38
101DC:  CLRF   x3F
101DE:  CLRF   x3E
101E0:  CLRF   x3D
101E2:  CLRF   x3C
101E4:  CLRF   x43
101E6:  CLRF   x42
101E8:  CLRF   x41
101EA:  CLRF   x40
101EC:  CLRF   x47
101EE:  CLRF   x46
101F0:  CLRF   x45
101F2:  CLRF   x44
101F4:  CLRF   x4B
101F6:  CLRF   x4A
101F8:  CLRF   x49
101FA:  CLRF   x48
101FC:  CLRF   x4F
101FE:  CLRF   x4E
10200:  MOVLW  48
10202:  MOVWF  x4D
10204:  MOVLW  83
10206:  MOVWF  x4C
10208:  CLRF   x53
1020A:  CLRF   x52
1020C:  MOVLW  20
1020E:  MOVWF  x51
10210:  MOVLW  83
10212:  MOVWF  x50
10214:  CLRF   x57
10216:  CLRF   x56
10218:  CLRF   x55
1021A:  MOVLW  7F
1021C:  MOVWF  x54
1021E:  CLRF   x5B
10220:  CLRF   x5A
10222:  CLRF   x59
10224:  CLRF   x58
10226:  CLRF   x5F
10228:  CLRF   x5E
1022A:  CLRF   x5D
1022C:  CLRF   x5C
1022E:  CLRF   x63
10230:  CLRF   x62
10232:  CLRF   x61
10234:  CLRF   x60
10236:  CLRF   x67
10238:  CLRF   x66
1023A:  CLRF   x65
1023C:  CLRF   x64
1023E:  CLRF   x6B
10240:  CLRF   x6A
10242:  CLRF   x69
10244:  CLRF   x68
10246:  CLRF   x6F
10248:  CLRF   x6E
1024A:  CLRF   x6D
1024C:  CLRF   x6C
1024E:  MOVLW  E0
10250:  MOVWF  x73
10252:  MOVLW  2D
10254:  MOVWF  x72
10256:  MOVLW  10
10258:  MOVWF  x71
1025A:  MOVLW  75
1025C:  MOVWF  x70
1025E:  MOVLW  FF
10260:  MOVWF  x77
10262:  MOVLW  21
10264:  MOVWF  x76
10266:  MOVLW  15
10268:  MOVWF  x75
1026A:  MOVLW  80
1026C:  MOVWF  x74
1026E:  MOVLW  82
10270:  MOVWF  x7B
10272:  MOVLW  12
10274:  MOVWF  x7A
10276:  MOVLW  F4
10278:  MOVWF  x79
1027A:  MOVLW  86
1027C:  MOVWF  x78
1027E:  CLRF   x7C
10280:  CLRF   x7D
10282:  CLRF   x7E
10284:  MOVLW  06
10286:  MOVWF  x7F
10288:  MOVLW  11
1028A:  MOVWF  x80
1028C:  MOVLW  19
1028E:  MOVWF  x81
10290:  MOVLW  B5
10292:  MOVWF  x85
10294:  MOVLW  EB
10296:  MOVWF  x84
10298:  MOVLW  1B
1029A:  MOVWF  x83
1029C:  MOVLW  6B
1029E:  MOVWF  x82
102A0:  MOVLW  D0
102A2:  MOVWF  x89
102A4:  MOVLW  9B
102A6:  MOVWF  x88
102A8:  MOVLW  8A
102AA:  MOVWF  x87
102AC:  MOVLW  75
102AE:  MOVWF  x86
102B0:  MOVLW  1A
102B2:  MOVWF  x8D
102B4:  MOVLW  DD
102B6:  MOVWF  x8C
102B8:  MOVLW  61
102BA:  MOVWF  x8B
102BC:  MOVLW  7D
102BE:  MOVWF  x8A
102C0:  MOVLW  04
102C2:  MOVWF  x91
102C4:  MOVLW  16
102C6:  MOVWF  x90
102C8:  MOVLW  02
102CA:  MOVWF  x8F
102CC:  MOVLW  85
102CE:  MOVWF  x8E
102D0:  CLRF   x95
102D2:  CLRF   x94
102D4:  CLRF   x93
102D6:  CLRF   x92
102D8:  MOVLB  1
102DA:  BCF    x31.4
102DC:  BCF    x31.5
102DE:  BCF    x31.6
102E0:  BCF    x31.7
102E2:  MOVLB  2
102E4:  BCF    x96.0
102E6:  BCF    x96.1
102E8:  CLRF   x97
102EA:  CLRF   x98
102EC:  CLRF   x99
102EE:  MOVLW  02
102F0:  MOVWF  x9A
102F2:  CLRF   x9B
102F4:  MOVLW  01
102F6:  MOVWF  x9C
102F8:  CLRF   x9D
102FA:  CLRF   x9E
102FC:  CLRF   x9F
102FE:  CLRF   xA0
10300:  CLRF   xA1
10302:  MOVLW  F0
10304:  MOVWF  xA2
10306:  CLRF   xA3
10308:  CLRF   xA4
1030A:  CLRF   xA5
1030C:  CLRF   xA6
1030E:  CLRF   xA8
10310:  MOVLW  04
10312:  MOVWF  xA7
10314:  CLRF   xAA
10316:  CLRF   xA9
10318:  CLRF   xAC
1031A:  CLRF   xAB
1031C:  CLRF   xAE
1031E:  CLRF   xAD
10320:  CLRF   xAF
10322:  MOVLW  01
10324:  MOVWF  xB0
10326:  MOVWF  xB1
10328:  CLRF   xB2
1032A:  CLRF   xB3
1032C:  CLRF   xB4
1032E:  CLRF   xB6
10330:  CLRF   xB5
10332:  CLRF   xB8
10334:  CLRF   xB7
10336:  CLRF   xBA
10338:  CLRF   xB9
1033A:  CLRF   xBC
1033C:  CLRF   xBB
1033E:  CLRF   xBE
10340:  CLRF   xBD
10342:  CLRF   xC0
10344:  CLRF   xBF
10346:  CLRF   xC2
10348:  CLRF   xC1
1034A:  CLRF   xC4
1034C:  CLRF   xC3
1034E:  CLRF   xC6
10350:  CLRF   xC5
10352:  CLRF   xC8
10354:  CLRF   xC7
10356:  CLRF   xCA
10358:  CLRF   xC9
1035A:  CLRF   xCC
1035C:  CLRF   xCB
1035E:  CLRF   xCE
10360:  CLRF   xCD
10362:  CLRF   xD3
10364:  CLRF   xD4
10366:  CLRF   xD5
10368:  CLRF   xD6
1036A:  CLRF   xD7
1036C:  CLRF   xD8
1036E:  CLRF   xD9
10370:  CLRF   xDA
10372:  CLRF   xDB
10374:  CLRF   xDC
10376:  CLRF   xDD
10378:  CLRF   xDF
1037A:  CLRF   xDE
1037C:  CLRF   xE1
1037E:  CLRF   xE0
10380:  CLRF   xE3
10382:  CLRF   xE2
10384:  CLRF   xE5
10386:  CLRF   xE4
10388:  CLRF   xE7
1038A:  CLRF   xE6
1038C:  CLRF   xE9
1038E:  CLRF   xE8
10390:  CLRF   xEB
10392:  CLRF   xEA
10394:  CLRF   xED
10396:  CLRF   xEC
10398:  MOVLW  12
1039A:  MOVWF  xEE
1039C:  MOVLW  09
1039E:  MOVWF  xEF
103A0:  MOVLW  0D
103A2:  MOVWF  xF0
103A4:  CLRF   xF1
103A6:  CLRF   xF2
103A8:  CLRF   xF3
103AA:  CLRF   xF4
103AC:  MOVLW  19
103AE:  MOVWF  xF5
103B0:  MOVLW  4B
103B2:  MOVWF  xF6
103B4:  MOVLW  0A
103B6:  MOVWF  xF7
103B8:  CLRF   xF8
103BA:  CLRF   xF9
103BC:  CLRF   xFA
103BE:  CLRF   xFB
103C0:  CLRF   xFC
103C2:  CLRF   xFD
103C4:  CLRF   xFE
103C6:  CLRF   xFF
103C8:  MOVLB  3
103CA:  CLRF   x00
103CC:  CLRF   x01
103CE:  CLRF   x02
103D0:  CLRF   x03
103D2:  CLRF   x04
103D4:  CLRF   x05
103D6:  CLRF   x06
103D8:  CLRF   x07
103DA:  CLRF   x69
103DC:  CLRF   x6A
103DE:  CLRF   x6B
103E0:  CLRF   x6C
103E2:  CLRF   x6D
103E4:  MOVF   FC1,W
103E6:  ANDLW  C0
103E8:  IORLW  0F
103EA:  MOVWF  FC1
103EC:  MOVLW  07
103EE:  MOVWF  FB4
103F0:  CLRF   2A
103F2:  CLRF   2B
103F4:  CLRF   2C
103F6:  MOVLB  1
103F8:  CLRF   x07
103FA:  MOVLW  03
103FC:  MOVWF  x08
103FE:  MOVWF  x09
10400:  MOVLW  06
10402:  MOVWF  x0A
10404:  MOVLW  01
10406:  MOVWF  x0B
10408:  MOVLW  04
1040A:  MOVWF  x0C
1040C:  MOVLW  06
1040E:  MOVWF  x0D
10410:  MOVLW  02
10412:  MOVWF  x0E
10414:  MOVLW  05
10416:  MOVWF  x0F
10418:  CLRF   x10
1041A:  MOVLW  03
1041C:  MOVWF  x11
1041E:  MOVLW  05
10420:  MOVWF  x12
10422:  CLRF   x13
10424:  MOVLW  03
10426:  MOVWF  x14
10428:  MOVLW  04
1042A:  MOVWF  x15
1042C:  CLRF   x16
1042E:  MOVLW  02
10430:  MOVWF  x17
10432:  MOVLW  05
10434:  MOVWF  x18
10436:  CLRF   x19
10438:  MOVLW  03
1043A:  MOVWF  x1A
1043C:  MOVLW  06
1043E:  MOVWF  x1B
10440:  MOVLW  01
10442:  MOVWF  x1C
10444:  MOVLW  04
10446:  MOVWF  x1D
10448:  MOVLW  06
1044A:  MOVWF  x1E
1044C:  CLRF   x50
1044E:  CLRF   x51
10450:  CLRF   x52
10452:  CLRF   x53
10454:  CLRF   x54
10456:  CLRF   x55
10458:  CLRF   x56
1045A:  CLRF   x57
1045C:  CLRF   x58
1045E:  CLRF   x59
10460:  CLRF   x5A
10462:  CLRF   x5B
10464:  CLRF   x5C
10466:  CLRF   x5D
10468:  CLRF   x5E
1046A:  CLRF   x5F
1046C:  CLRF   x60
1046E:  CLRF   x61
10470:  CLRF   x62
10472:  CLRF   x63
10474:  CLRF   x64
10476:  CLRF   x65
10478:  CLRF   x66
1047A:  CLRF   x67
1047C:  CLRF   x68
1047E:  CLRF   x69
10480:  CLRF   x6A
10482:  CLRF   x6B
10484:  CLRF   x6C
10486:  CLRF   x6D
10488:  CLRF   x6E
1048A:  CLRF   x6F
1048C:  CLRF   x70
1048E:  CLRF   x71
10490:  CLRF   x72
10492:  CLRF   x73
10494:  CLRF   x74
10496:  CLRF   x75
10498:  CLRF   x76
1049A:  CLRF   x77
1049C:  CLRF   x78
1049E:  CLRF   x79
104A0:  CLRF   x7A
104A2:  CLRF   x7B
104A4:  CLRF   x7C
104A6:  CLRF   x7D
104A8:  CLRF   x7E
104AA:  CLRF   x7F
104AC:  CLRF   x80
104AE:  CLRF   x81
104B0:  CLRF   x82
104B2:  CLRF   x83
104B4:  CLRF   x84
104B6:  CLRF   x85
104B8:  CLRF   x86
104BA:  CLRF   x87
104BC:  CLRF   x88
104BE:  CLRF   x89
104C0:  CLRF   x8A
104C2:  CLRF   x8B
104C4:  CLRF   x8C
104C6:  CLRF   x8D
104C8:  CLRF   x8E
104CA:  CLRF   x8F
104CC:  CLRF   x90
104CE:  CLRF   x91
104D0:  CLRF   x92
104D2:  CLRF   x93
104D4:  CLRF   x94
104D6:  CLRF   x95
104D8:  CLRF   x96
104DA:  CLRF   x97
104DC:  CLRF   x98
104DE:  CLRF   x99
104E0:  CLRF   x9A
104E2:  CLRF   x9B
104E4:  CLRF   x9C
104E6:  CLRF   x9D
104E8:  CLRF   x9E
104EA:  CLRF   x9F
104EC:  CLRF   xA0
104EE:  CLRF   xA1
104F0:  CLRF   xA2
104F2:  CLRF   xA3
104F4:  CLRF   xA4
104F6:  CLRF   xA5
104F8:  CLRF   xA6
104FA:  CLRF   xA7
104FC:  CLRF   xA8
104FE:  CLRF   xA9
10500:  CLRF   xAA
10502:  CLRF   xAB
10504:  CLRF   xAC
10506:  CLRF   xAD
10508:  CLRF   xAE
1050A:  CLRF   xAF
1050C:  CLRF   xB0
1050E:  CLRF   xB1
10510:  CLRF   xB2
10512:  CLRF   xB3
10514:  CLRF   xB4
10516:  CLRF   xB5
10518:  CLRF   xB6
1051A:  CLRF   xB7
1051C:  CLRF   xB8
1051E:  CLRF   xB9
10520:  CLRF   xBA
10522:  CLRF   xBB
10524:  CLRF   xBC
10526:  CLRF   xBD
10528:  CLRF   xBE
1052A:  CLRF   xBF
1052C:  CLRF   xC0
1052E:  CLRF   xC1
10530:  CLRF   xC2
10532:  CLRF   xC3
10534:  CLRF   xC4
10536:  CLRF   xC5
10538:  CLRF   xC6
1053A:  CLRF   xC7
1053C:  CLRF   xC8
1053E:  CLRF   xC9
10540:  CLRF   xCA
10542:  CLRF   xCB
10544:  CLRF   xCC
10546:  CLRF   xCD
10548:  CLRF   xCE
1054A:  CLRF   xCF
1054C:  CLRF   xD0
1054E:  CLRF   xD1
10550:  CLRF   xD2
10552:  CLRF   xD3
10554:  CLRF   xD4
10556:  CLRF   xD5
10558:  CLRF   xD6
1055A:  CLRF   xD7
1055C:  CLRF   xD8
1055E:  CLRF   xD9
10560:  CLRF   xDA
10562:  CLRF   xDB
10564:  CLRF   xDC
10566:  CLRF   xDD
10568:  CLRF   xDE
1056A:  CLRF   xDF
1056C:  CLRF   xE0
1056E:  CLRF   xE1
10570:  CLRF   xE2
10572:  CLRF   xE3
10574:  CLRF   xE4
10576:  CLRF   xE5
10578:  CLRF   xE6
1057A:  CLRF   xE7
1057C:  CLRF   xE8
1057E:  CLRF   xE9
10580:  CLRF   xEA
10582:  CLRF   xEB
10584:  CLRF   xEC
10586:  CLRF   xED
10588:  CLRF   xEE
1058A:  CLRF   xEF
1058C:  MOVLB  2
1058E:  CLRF   x10
10590:  CLRF   x11
10592:  CLRF   x12
10594:  CLRF   x13
10596:  CLRF   x14
10598:  CLRF   x15
1059A:  CLRF   x16
1059C:  CLRF   x17
1059E:  CLRF   xCF
105A0:  CLRF   xD0
105A2:  CLRF   xD1
105A4:  CLRF   xD2
105A6:  MOVLB  3
105A8:  CLRF   x6E
105AA:  CLRF   x6F
105AC:  CLRF   x70
105AE:  CLRF   x71
....................    setup_timer_1(T1_INTERNAL|T1_DIV_BY_1); 
105B0:  MOVLW  85
105B2:  MOVWF  FCD
....................    enable_interrupts(INT_TIMER1); 
105B4:  BSF    F9D.0
....................    setup_adc(ADC_CLOCK_DIV_64); 
105B6:  MOVF   FC0,W
105B8:  ANDLW  C0
105BA:  IORLW  06
105BC:  MOVWF  FC0
105BE:  BSF    FC0.7
105C0:  BSF    FC2.0
....................    setup_adc_ports(AN0_TO_AN5); 
105C2:  MOVF   FC1,W
105C4:  ANDLW  C0
105C6:  IORLW  09
105C8:  MOVWF  FC1
....................    port_b_pullups(true); 
105CA:  BCF    FF1.7
....................    enable_interrupts(int_rda); 
105CC:  BSF    F9D.5
....................    setup_wdt(WDT_ON); 
105CE:  BSF    FD1.0
....................    enable_interrupts(global); 
105D0:  MOVLW  C0
105D2:  IORWF  FF2,F
....................    LeeEEPROM(); 
105D4:  MOVLB  0
105D6:  GOTO   28AC
....................    rtc_init(); 
105DA:  GOTO   4060
....................    delay_ms(1); 
105DE:  MOVLW  01
105E0:  MOVLB  7
105E2:  MOVWF  x18
105E4:  MOVLB  0
105E6:  CALL   21D6
....................    LimitaValores(); 
105EA:  GOTO   4100
....................    printf("page Bienvenida"); 
105EE:  MOVLW  B8
105F0:  MOVWF  FF6
105F2:  MOVLW  1E
105F4:  MOVWF  FF7
105F6:  MOVLW  00
105F8:  MOVWF  FF8
105FA:  CALL   4720
....................    SendDataDisplay(); 
105FE:  CALL   4752
....................    printf("bkcmd=0"); 
10602:  MOVLW  C8
10604:  MOVWF  FF6
10606:  MOVLW  1E
10608:  MOVWF  FF7
1060A:  MOVLW  00
1060C:  MOVWF  FF8
1060E:  CALL   4720
....................    SendDataDisplay(); 
10612:  CALL   4752
....................    delay_ms(3500);  
10616:  MOVLW  0E
10618:  MOVLB  7
1061A:  MOVWF  x02
1061C:  MOVLW  FA
1061E:  MOVWF  x18
10620:  MOVLB  0
10622:  CALL   21D6
10626:  MOVLB  7
10628:  DECFSZ x02,F
1062A:  BRA    1061C
....................    restart_wdt(); 
1062C:  CLRWDT
....................    printf("page Usuarios"); 
1062E:  MOVLW  D0
10630:  MOVWF  FF6
10632:  MOVLW  1E
10634:  MOVWF  FF7
10636:  MOVLW  00
10638:  MOVWF  FF8
1063A:  MOVLB  0
1063C:  CALL   4720
....................    SendDataDisplay(); 
10640:  CALL   4752
....................    ApagaSalidas();    
10644:  CALL   4788
....................    TiempoVacio=840;  
10648:  MOVLW  03
1064A:  MOVLB  1
1064C:  MOVWF  x25
1064E:  MOVLW  48
10650:  MOVWF  x24
....................    Sensor[0].Gain=105.56; 
10652:  MOVLW  B8
10654:  MOVLB  4
10656:  MOVWF  xD5
10658:  MOVLW  1E
1065A:  MOVWF  xD4
1065C:  MOVLW  53
1065E:  MOVWF  xD3
10660:  MOVLW  85
10662:  MOVWF  xD2
....................    Sensor[1].Gain=105.56; 
10664:  MOVLW  B8
10666:  MOVLB  6
10668:  MOVWF  x39
1066A:  MOVLW  1E
1066C:  MOVWF  x38
1066E:  MOVLW  53
10670:  MOVWF  x37
10672:  MOVLW  85
10674:  MOVWF  x36
....................    Imprime=10; 
10676:  MOVLW  0A
10678:  MOVLB  3
1067A:  MOVWF  x00
....................    CalculoImpresion=timpresion*60; 
1067C:  MOVLB  2
1067E:  MOVF   x9A,W
10680:  MULLW  3C
10682:  MOVFF  FF3,29B
....................     
....................    for(i=0;i<MediaMovil;i++){ 
10686:  CLRF   xEB
10688:  CLRF   xEA
1068A:  MOVF   xEB,F
1068C:  BTFSS  FD8.2
1068E:  GOTO   10736
10692:  MOVF   x22,W
10694:  SUBWF  xEA,W
10696:  BTFSC  FD8.0
10698:  GOTO   10736
....................       Temperatura=LeerPT100(0,MediaMovil); 
1069C:  MOVLB  7
1069E:  CLRF   x04
106A0:  MOVFF  222,705
106A4:  MOVLB  0
106A6:  CALL   48DE
106AA:  MOVFF  03,26B
106AE:  MOVFF  02,26A
106B2:  MOVFF  01,269
106B6:  MOVFF  00,268
....................       Temperatura2=LeerPT100(1,MediaMovil); 
106BA:  MOVLW  01
106BC:  MOVLB  7
106BE:  MOVWF  x04
106C0:  MOVFF  222,705
106C4:  MOVLB  0
106C6:  CALL   48DE
106CA:  MOVFF  03,26F
106CE:  MOVFF  02,26E
106D2:  MOVFF  01,26D
106D6:  MOVFF  00,26C
....................       PresionCamara=Leer_Sensor_Presion_Camara(20); 
106DA:  MOVLW  14
106DC:  MOVLB  7
106DE:  MOVWF  x04
106E0:  MOVLB  0
106E2:  CALL   5226
106E6:  MOVFF  03,717
106EA:  MOVFF  02,716
106EE:  MOVFF  01,715
106F2:  MOVFF  00,714
106F6:  CALL   5424
106FA:  MOVFF  02,2C2
106FE:  MOVFF  01,2C1
....................       PresionPreCamara=Leer_Sensor_Presion_PreCamara(20); 
10702:  MOVLW  14
10704:  MOVLB  7
10706:  MOVWF  x04
10708:  MOVLB  0
1070A:  CALL   5460
1070E:  MOVFF  03,717
10712:  MOVFF  02,716
10716:  MOVFF  01,715
1071A:  MOVFF  00,714
1071E:  CALL   5424
10722:  MOVFF  02,2C4
10726:  MOVFF  01,2C3
....................    } 
1072A:  MOVLB  2
1072C:  INCF   xEA,F
1072E:  BTFSC  FD8.2
10730:  INCF   xEB,F
10732:  GOTO   1068A
....................    seguroValvula=OFF; 
10736:  MOVLB  1
10738:  BCF    x20.1
....................    seguroValvula2=OFF; 
1073A:  BCF    x20.2
....................    if(!DOORS){ 
1073C:  BSF    F93.1
1073E:  BTFSS  F81.1
10740:  GOTO   10750
....................       abrePuertaS(); 
10744:  MOVLB  0
10746:  GOTO   565E
....................    }else{ 
1074A:  GOTO   10756
1074E:  MOVLB  1
....................       cierraPuertaS(); 
10750:  MOVLB  0
10752:  GOTO   56C2
....................    } 
....................           
....................    //if(ingreso){ 
....................    if(!DOORL){ 
10756:  BTFSC  31.1
10758:  GOTO   10764
....................       //abrePuertaL(); 
....................       monitoreaPuertaLimpio(); 
1075C:  GOTO   578A
....................    }else{ 
10760:  GOTO   10768
....................       cierraPuertaL(); 
10764:  CALL   56FA
....................    } 
....................     
....................    if(UP && DOWN && RIGHT && LEFT)//Si oprime boton de Toma. 
10768:  BSF    F93.4
1076A:  BTFSC  F81.4
1076C:  GOTO   107FE
10770:  BSF    F93.5
10772:  BTFSC  F81.5
10774:  GOTO   107FE
10778:  BSF    F93.6
1077A:  BTFSC  F81.6
1077C:  GOTO   107FE
10780:  BSF    F93.7
10782:  BTFSC  F81.7
10784:  GOTO   107FE
....................    { 
....................       write_eeprom(37,0); 
10788:  CLRF   FAA
1078A:  MOVLW  25
1078C:  MOVWF  FA9
1078E:  CLRF   FA8
10790:  BCF    FA6.6
10792:  BCF    FA6.7
10794:  BSF    FA6.2
10796:  MOVF   FF2,W
10798:  MOVWF  00
1079A:  BCF    FF2.6
1079C:  BCF    FF2.7
1079E:  MOVLB  F
107A0:  MOVLW  55
107A2:  MOVWF  FA7
107A4:  MOVLW  AA
107A6:  MOVWF  FA7
107A8:  BSF    FA6.1
107AA:  BTFSC  FA6.1
107AC:  GOTO   107AA
107B0:  BCF    FA6.2
107B2:  MOVF   00,W
107B4:  IORWF  FF2,F
....................       delay_ms(20); 
107B6:  MOVLW  14
107B8:  MOVLB  7
107BA:  MOVWF  x18
107BC:  MOVLB  0
107BE:  CALL   21D6
....................       write_eeprom(38,0); 
107C2:  CLRF   FAA
107C4:  MOVLW  26
107C6:  MOVWF  FA9
107C8:  CLRF   FA8
107CA:  BCF    FA6.6
107CC:  BCF    FA6.7
107CE:  BSF    FA6.2
107D0:  MOVF   FF2,W
107D2:  MOVWF  00
107D4:  BCF    FF2.6
107D6:  BCF    FF2.7
107D8:  MOVLB  F
107DA:  MOVLW  55
107DC:  MOVWF  FA7
107DE:  MOVLW  AA
107E0:  MOVWF  FA7
107E2:  BSF    FA6.1
107E4:  BTFSC  FA6.1
107E6:  GOTO   107E4
107EA:  BCF    FA6.2
107EC:  MOVF   00,W
107EE:  IORWF  FF2,F
....................       delay_ms(20); 
107F0:  MOVLW  14
107F2:  MOVLB  7
107F4:  MOVWF  x18
107F6:  MOVLB  0
107F8:  CALL   21D6
....................       reset_cpu(); 
107FC:  RESET
....................    } 
....................     
....................    while(true){ 
....................        
....................       LeeDisplay(); 
107FE:  GOTO   5832
....................       Envio_Esclavos(); 
10802:  CALL   5DAC
....................       delay_ms(10); 
10806:  MOVLW  0A
10808:  MOVLB  7
1080A:  MOVWF  x18
1080C:  MOVLB  0
1080E:  CALL   21D6
....................       Lectura_Esclavos(); 
10812:  GOTO   5E8E
....................       rtc_get_date(Dia,Mes,Year,dow); 
....................       rtc_get_time(Hora,Minuto,Segundo); 
....................       restart_wdt(); 
*
108DA:  CLRWDT
....................       if(!Esterilizando || Desfogando){ 
108DC:  MOVLB  1
108DE:  BTFSS  x2A.7
108E0:  GOTO   108EA
108E4:  BTFSS  x2B.2
108E6:  GOTO   108F6
....................          CalculoImpresion=180; 
108EA:  MOVLW  B4
108EC:  MOVLB  2
108EE:  MOVWF  x9B
....................       }else{ 
108F0:  GOTO   108FC
108F4:  MOVLB  1
....................          CalculoImpresion=60; 
108F6:  MOVLW  3C
108F8:  MOVLB  2
108FA:  MOVWF  x9B
....................       } 
....................        
....................       graficaCurva(2000); 
108FC:  MOVLW  07
108FE:  MOVLB  7
10900:  MOVWF  x03
10902:  MOVLW  D0
10904:  MOVWF  x02
10906:  MOVLB  0
10908:  GOTO   6044
....................       muestreo(20); 
1090C:  MOVLB  7
1090E:  CLRF   x03
10910:  MOVLW  14
10912:  MOVWF  x02
10914:  MOVLB  0
10916:  GOTO   606A
....................       monitoreaAgua(); 
1091A:  GOTO   611A
....................       monitoreaStop(); 
1091E:  GOTO   620C
....................        
.................... //_-------------------------------------------------------------------------------------------------------------------------------------------------------- 
....................    menuPrincipal(); 
10922:  GOTO   8D7C
....................  
....................    if(Menu==100){ //Menu de Configuracin de Parametros de Control   
10926:  MOVLB  2
10928:  MOVF   xA0,W
1092A:  SUBLW  64
1092C:  BTFSS  FD8.2
1092E:  GOTO   11A9E
....................       if(Opcion2>15) 
10932:  MOVF   xB1,W
10934:  SUBLW  0F
10936:  BTFSC  FD8.0
10938:  GOTO   10940
....................          Opcion2=1; 
1093C:  MOVLW  01
1093E:  MOVWF  xB1
....................       if(Opcion2<1) 
10940:  MOVF   xB1,F
10942:  BTFSS  FD8.2
10944:  GOTO   1094C
....................          Opcion2=15; 
10948:  MOVLW  0F
1094A:  MOVWF  xB1
....................        
....................       if(Opcion2==1){ 
1094C:  DECFSZ xB1,W
1094E:  GOTO   10AA4
....................          printf("Config.t2c.txt=\"Proporcional\""); 
10952:  MOVLW  DE
10954:  MOVWF  FF6
10956:  MOVLW  1E
10958:  MOVWF  FF7
1095A:  MOVLW  00
1095C:  MOVWF  FF8
1095E:  MOVLB  0
10960:  CALL   4720
....................          SendDataDisplay();       
10964:  CALL   4752
....................          printf("t3c.txt=\"%2.0f\"",Ganancia); 
10968:  MOVLW  FC
1096A:  MOVWF  FF6
1096C:  MOVLW  1E
1096E:  MOVWF  FF7
10970:  MOVLW  00
10972:  MOVWF  FF8
10974:  MOVLW  09
10976:  MOVLB  7
10978:  MOVWF  x08
1097A:  MOVLB  0
1097C:  CALL   628E
10980:  MOVLW  01
10982:  MOVWF  FE9
10984:  MOVFF  24F,70B
10988:  MOVFF  24E,70A
1098C:  MOVFF  24D,709
10990:  MOVFF  24C,708
10994:  MOVLB  7
10996:  CLRF   x0C
10998:  MOVLB  0
1099A:  CALL   6B90
1099E:  MOVLW  22
109A0:  BTFSS  F9E.4
109A2:  GOTO   109A0
109A6:  MOVWF  FAD
....................          SendDataDisplay(); 
109A8:  CALL   4752
....................          if(RX_Buffer[4]==0x0a){//Tecla Arriba Oprimida 
109AC:  MOVF   36,W
109AE:  SUBLW  0A
109B0:  BTFSS  FD8.2
109B2:  GOTO   109EE
....................                Ganancia+=1.0; 
109B6:  BCF    FD8.1
109B8:  MOVFF  24F,717
109BC:  MOVFF  24E,716
109C0:  MOVFF  24D,715
109C4:  MOVFF  24C,714
109C8:  MOVLB  7
109CA:  CLRF   x1B
109CC:  CLRF   x1A
109CE:  CLRF   x19
109D0:  MOVLW  7F
109D2:  MOVWF  x18
109D4:  MOVLB  0
109D6:  CALL   25BA
109DA:  MOVFF  03,24F
109DE:  MOVFF  02,24E
109E2:  MOVFF  01,24D
109E6:  MOVFF  00,24C
....................                RX_Buffer[4]=0x00;   
109EA:  CLRF   36
....................                RX_Buffer2[4]=0x00;             
109EC:  CLRF   41
....................                //BorraBuffer(); 
....................          } 
....................              
....................          if(RX_Buffer[4]==0x0b){//Tecla Abajo Oprimida 
109EE:  MOVF   36,W
109F0:  SUBLW  0B
109F2:  BTFSS  FD8.2
109F4:  GOTO   10A30
....................                Ganancia-=1.0; 
109F8:  BSF    FD8.1
109FA:  MOVFF  24F,717
109FE:  MOVFF  24E,716
10A02:  MOVFF  24D,715
10A06:  MOVFF  24C,714
10A0A:  MOVLB  7
10A0C:  CLRF   x1B
10A0E:  CLRF   x1A
10A10:  CLRF   x19
10A12:  MOVLW  7F
10A14:  MOVWF  x18
10A16:  MOVLB  0
10A18:  CALL   25BA
10A1C:  MOVFF  03,24F
10A20:  MOVFF  02,24E
10A24:  MOVFF  01,24D
10A28:  MOVFF  00,24C
....................                RX_Buffer[4]=0x00; 
10A2C:  CLRF   36
....................                RX_Buffer2[4]=0x00;             
10A2E:  CLRF   41
....................                //BorraBuffer(); 
....................          } 
....................           
....................          if(Ganancia>40) 
10A30:  MOVLB  7
10A32:  CLRF   x09
10A34:  CLRF   x08
10A36:  MOVLW  20
10A38:  MOVWF  x07
10A3A:  MOVLW  84
10A3C:  MOVWF  x06
10A3E:  MOVFF  24F,70D
10A42:  MOVFF  24E,70C
10A46:  MOVFF  24D,70B
10A4A:  MOVFF  24C,70A
10A4E:  MOVLB  0
10A50:  CALL   2832
10A54:  BTFSS  FD8.0
10A56:  GOTO   10A66
....................             Ganancia=1; 
10A5A:  MOVLB  2
10A5C:  CLRF   x4F
10A5E:  CLRF   x4E
10A60:  CLRF   x4D
10A62:  MOVLW  7F
10A64:  MOVWF  x4C
....................          if(Ganancia<1) 
10A66:  MOVFF  24F,709
10A6A:  MOVFF  24E,708
10A6E:  MOVFF  24D,707
10A72:  MOVFF  24C,706
10A76:  MOVLB  7
10A78:  CLRF   x0D
10A7A:  CLRF   x0C
10A7C:  CLRF   x0B
10A7E:  MOVLW  7F
10A80:  MOVWF  x0A
10A82:  MOVLB  0
10A84:  CALL   2832
10A88:  BTFSS  FD8.0
10A8A:  GOTO   10A9E
....................             Ganancia=40; 
10A8E:  MOVLB  2
10A90:  CLRF   x4F
10A92:  CLRF   x4E
10A94:  MOVLW  20
10A96:  MOVWF  x4D
10A98:  MOVLW  84
10A9A:  MOVWF  x4C
10A9C:  MOVLB  0
....................       }else if(Opcion2==2){ 
10A9E:  GOTO   11582
10AA2:  MOVLB  2
10AA4:  MOVF   xB1,W
10AA6:  SUBLW  02
10AA8:  BTFSS  FD8.2
10AAA:  GOTO   10C04
....................          printf("Config.t2c.txt=\"Tciclo\""); 
10AAE:  MOVLW  0C
10AB0:  MOVWF  FF6
10AB2:  MOVLW  1F
10AB4:  MOVWF  FF7
10AB6:  MOVLW  00
10AB8:  MOVWF  FF8
10ABA:  MOVLB  0
10ABC:  CALL   4720
....................          SendDataDisplay();       
10AC0:  CALL   4752
....................          printf("t3c.txt=\"%2.0f\"",Tciclo); 
10AC4:  MOVLW  24
10AC6:  MOVWF  FF6
10AC8:  MOVLW  1F
10ACA:  MOVWF  FF7
10ACC:  MOVLW  00
10ACE:  MOVWF  FF8
10AD0:  MOVLW  09
10AD2:  MOVLB  7
10AD4:  MOVWF  x08
10AD6:  MOVLB  0
10AD8:  CALL   628E
10ADC:  MOVLW  01
10ADE:  MOVWF  FE9
10AE0:  MOVFF  237,70B
10AE4:  MOVFF  236,70A
10AE8:  MOVFF  235,709
10AEC:  MOVFF  234,708
10AF0:  MOVLB  7
10AF2:  CLRF   x0C
10AF4:  MOVLB  0
10AF6:  CALL   6B90
10AFA:  MOVLW  22
10AFC:  BTFSS  F9E.4
10AFE:  GOTO   10AFC
10B02:  MOVWF  FAD
....................          SendDataDisplay(); 
10B04:  CALL   4752
....................          if(RX_Buffer[4]==0x0a){//Tecla Arriba Oprimida 
10B08:  MOVF   36,W
10B0A:  SUBLW  0A
10B0C:  BTFSS  FD8.2
10B0E:  GOTO   10B4A
....................                Tciclo+=1.0; 
10B12:  BCF    FD8.1
10B14:  MOVFF  237,717
10B18:  MOVFF  236,716
10B1C:  MOVFF  235,715
10B20:  MOVFF  234,714
10B24:  MOVLB  7
10B26:  CLRF   x1B
10B28:  CLRF   x1A
10B2A:  CLRF   x19
10B2C:  MOVLW  7F
10B2E:  MOVWF  x18
10B30:  MOVLB  0
10B32:  CALL   25BA
10B36:  MOVFF  03,237
10B3A:  MOVFF  02,236
10B3E:  MOVFF  01,235
10B42:  MOVFF  00,234
....................                RX_Buffer[4]=0x00;   
10B46:  CLRF   36
....................                RX_Buffer2[4]=0x00;             
10B48:  CLRF   41
....................                //BorraBuffer(); 
....................          } 
....................              
....................          if(RX_Buffer[4]==0x0b){//Tecla Abajo Oprimida             
10B4A:  MOVF   36,W
10B4C:  SUBLW  0B
10B4E:  BTFSS  FD8.2
10B50:  GOTO   10B8C
....................                Tciclo-=1.0; 
10B54:  BSF    FD8.1
10B56:  MOVFF  237,717
10B5A:  MOVFF  236,716
10B5E:  MOVFF  235,715
10B62:  MOVFF  234,714
10B66:  MOVLB  7
10B68:  CLRF   x1B
10B6A:  CLRF   x1A
10B6C:  CLRF   x19
10B6E:  MOVLW  7F
10B70:  MOVWF  x18
10B72:  MOVLB  0
10B74:  CALL   25BA
10B78:  MOVFF  03,237
10B7C:  MOVFF  02,236
10B80:  MOVFF  01,235
10B84:  MOVFF  00,234
....................                RX_Buffer[4]=0x00; 
10B88:  CLRF   36
....................                RX_Buffer2[4]=0x00;             
10B8A:  CLRF   41
....................                //BorraBuffer(); 
....................          } 
....................           
....................          if(Tciclo>20) 
10B8C:  MOVLB  7
10B8E:  CLRF   x09
10B90:  CLRF   x08
10B92:  MOVLW  20
10B94:  MOVWF  x07
10B96:  MOVLW  83
10B98:  MOVWF  x06
10B9A:  MOVFF  237,70D
10B9E:  MOVFF  236,70C
10BA2:  MOVFF  235,70B
10BA6:  MOVFF  234,70A
10BAA:  MOVLB  0
10BAC:  CALL   2832
10BB0:  BTFSS  FD8.0
10BB2:  GOTO   10BC4
....................             Tciclo=5; 
10BB6:  MOVLB  2
10BB8:  CLRF   x37
10BBA:  CLRF   x36
10BBC:  MOVLW  20
10BBE:  MOVWF  x35
10BC0:  MOVLW  81
10BC2:  MOVWF  x34
....................          if(Tciclo<5) 
10BC4:  MOVFF  237,709
10BC8:  MOVFF  236,708
10BCC:  MOVFF  235,707
10BD0:  MOVFF  234,706
10BD4:  MOVLB  7
10BD6:  CLRF   x0D
10BD8:  CLRF   x0C
10BDA:  MOVLW  20
10BDC:  MOVWF  x0B
10BDE:  MOVLW  81
10BE0:  MOVWF  x0A
10BE2:  MOVLB  0
10BE4:  CALL   2832
10BE8:  BTFSS  FD8.0
10BEA:  GOTO   10BFE
....................             Tciclo=20; 
10BEE:  MOVLB  2
10BF0:  CLRF   x37
10BF2:  CLRF   x36
10BF4:  MOVLW  20
10BF6:  MOVWF  x35
10BF8:  MOVLW  83
10BFA:  MOVWF  x34
10BFC:  MOVLB  0
....................       }else if(Opcion2==3){ 
10BFE:  GOTO   11582
10C02:  MOVLB  2
10C04:  MOVF   xB1,W
10C06:  SUBLW  03
10C08:  BTFSS  FD8.2
10C0A:  GOTO   10C9A
....................          printf("Config.t2c.txt=\"Ajuste +\""); 
10C0E:  MOVLW  34
10C10:  MOVWF  FF6
10C12:  MOVLW  1F
10C14:  MOVWF  FF7
10C16:  MOVLW  00
10C18:  MOVWF  FF8
10C1A:  MOVLB  0
10C1C:  CALL   4720
....................          SendDataDisplay();       
10C20:  CALL   4752
....................          printf("t3c.txt=\"%u\"",Sensor[0].Ajuste); 
10C24:  MOVLW  4E
10C26:  MOVWF  FF6
10C28:  MOVLW  1F
10C2A:  MOVWF  FF7
10C2C:  MOVLW  00
10C2E:  MOVWF  FF8
10C30:  MOVLW  09
10C32:  MOVLB  7
10C34:  MOVWF  x08
10C36:  MOVLB  0
10C38:  CALL   628E
10C3C:  MOVFF  390,708
10C40:  MOVLW  1B
10C42:  MOVLB  7
10C44:  MOVWF  x09
10C46:  MOVLB  0
10C48:  CALL   6312
10C4C:  MOVLW  22
10C4E:  BTFSS  F9E.4
10C50:  GOTO   10C4E
10C54:  MOVWF  FAD
....................          SendDataDisplay(); 
10C56:  CALL   4752
....................          if(RX_Buffer[4]==0x0a){//Tecla Arriba Oprimida             
10C5A:  MOVF   36,W
10C5C:  SUBLW  0A
10C5E:  BTFSS  FD8.2
10C60:  GOTO   10C78
....................                if(Sensor[0].Ajuste<40) 
10C64:  MOVLB  3
10C66:  MOVF   x90,W
10C68:  SUBLW  27
10C6A:  BTFSS  FD8.0
10C6C:  GOTO   10C72
....................                   Sensor[0].Ajuste++; 
10C70:  INCF   x90,F
....................                RX_Buffer[4]=0x00;   
10C72:  CLRF   36
....................                RX_Buffer2[4]=0x00;             
10C74:  CLRF   41
10C76:  MOVLB  0
....................                //BorraBuffer();             
....................          } 
....................              
....................          if(RX_Buffer[4]==0x0b){//Tecla Abajo Oprimida             
10C78:  MOVF   36,W
10C7A:  SUBLW  0B
10C7C:  BTFSS  FD8.2
10C7E:  GOTO   10C94
....................                if(Sensor[0].Ajuste>0) 
10C82:  MOVLB  3
10C84:  MOVF   x90,F
10C86:  BTFSC  FD8.2
10C88:  GOTO   10C8E
....................                   Sensor[0].Ajuste--; 
10C8C:  DECF   x90,F
....................                RX_Buffer[4]=0x00; 
10C8E:  CLRF   36
....................                RX_Buffer2[4]=0x00;             
10C90:  CLRF   41
10C92:  MOVLB  0
....................                //BorraBuffer(); 
....................          } 
....................       }else if(Opcion2==4){ 
10C94:  GOTO   11582
10C98:  MOVLB  2
10C9A:  MOVF   xB1,W
10C9C:  SUBLW  04
10C9E:  BTFSS  FD8.2
10CA0:  GOTO   10D30
....................          printf("Config.t2c.txt=\"Ajuste -\""); 
10CA4:  MOVLW  5C
10CA6:  MOVWF  FF6
10CA8:  MOVLW  1F
10CAA:  MOVWF  FF7
10CAC:  MOVLW  00
10CAE:  MOVWF  FF8
10CB0:  MOVLB  0
10CB2:  CALL   4720
....................          SendDataDisplay();       
10CB6:  CALL   4752
....................          printf("t3c.txt=\"%u\"",Sensor[0].Ajusten); 
10CBA:  MOVLW  76
10CBC:  MOVWF  FF6
10CBE:  MOVLW  1F
10CC0:  MOVWF  FF7
10CC2:  MOVLW  00
10CC4:  MOVWF  FF8
10CC6:  MOVLW  09
10CC8:  MOVLB  7
10CCA:  MOVWF  x08
10CCC:  MOVLB  0
10CCE:  CALL   628E
10CD2:  MOVFF  391,708
10CD6:  MOVLW  1B
10CD8:  MOVLB  7
10CDA:  MOVWF  x09
10CDC:  MOVLB  0
10CDE:  CALL   6312
10CE2:  MOVLW  22
10CE4:  BTFSS  F9E.4
10CE6:  GOTO   10CE4
10CEA:  MOVWF  FAD
....................          SendDataDisplay(); 
10CEC:  CALL   4752
....................          if(RX_Buffer[4]==0x0a){//Tecla Arriba Oprimida             
10CF0:  MOVF   36,W
10CF2:  SUBLW  0A
10CF4:  BTFSS  FD8.2
10CF6:  GOTO   10D0E
....................                if(Sensor[0].Ajusten<40) 
10CFA:  MOVLB  3
10CFC:  MOVF   x91,W
10CFE:  SUBLW  27
10D00:  BTFSS  FD8.0
10D02:  GOTO   10D08
....................                   Sensor[0].Ajusten++; 
10D06:  INCF   x91,F
....................                RX_Buffer[4]=0x00;   
10D08:  CLRF   36
....................                RX_Buffer2[4]=0x00;             
10D0A:  CLRF   41
10D0C:  MOVLB  0
....................                //BorraBuffer();             
....................          } 
....................              
....................          if(RX_Buffer[4]==0x0b){//Tecla Abajo Oprimida             
10D0E:  MOVF   36,W
10D10:  SUBLW  0B
10D12:  BTFSS  FD8.2
10D14:  GOTO   10D2A
....................                if(Sensor[0].Ajusten>0) 
10D18:  MOVLB  3
10D1A:  MOVF   x91,F
10D1C:  BTFSC  FD8.2
10D1E:  GOTO   10D24
....................                   Sensor[0].Ajusten--; 
10D22:  DECF   x91,F
....................                RX_Buffer[4]=0x00; 
10D24:  CLRF   36
....................                RX_Buffer2[4]=0x00;             
10D26:  CLRF   41
10D28:  MOVLB  0
....................                //BorraBuffer(); 
....................          } 
....................       }else if(Opcion2==5){ 
10D2A:  GOTO   11582
10D2E:  MOVLB  2
10D30:  MOVF   xB1,W
10D32:  SUBLW  05
10D34:  BTFSS  FD8.2
10D36:  GOTO   10DC6
....................          printf("Config.t2c.txt=\"Ajuste2 +\""); 
10D3A:  MOVLW  84
10D3C:  MOVWF  FF6
10D3E:  MOVLW  1F
10D40:  MOVWF  FF7
10D42:  MOVLW  00
10D44:  MOVWF  FF8
10D46:  MOVLB  0
10D48:  CALL   4720
....................          SendDataDisplay();       
10D4C:  CALL   4752
....................          printf("t3c.txt=\"%u\"",Sensor[1].Ajuste); 
10D50:  MOVLW  A0
10D52:  MOVWF  FF6
10D54:  MOVLW  1F
10D56:  MOVWF  FF7
10D58:  MOVLW  00
10D5A:  MOVWF  FF8
10D5C:  MOVLW  09
10D5E:  MOVLB  7
10D60:  MOVWF  x08
10D62:  MOVLB  0
10D64:  CALL   628E
10D68:  MOVFF  4F4,708
10D6C:  MOVLW  1B
10D6E:  MOVLB  7
10D70:  MOVWF  x09
10D72:  MOVLB  0
10D74:  CALL   6312
10D78:  MOVLW  22
10D7A:  BTFSS  F9E.4
10D7C:  GOTO   10D7A
10D80:  MOVWF  FAD
....................          SendDataDisplay(); 
10D82:  CALL   4752
....................          if(RX_Buffer[4]==0x0a){//Tecla Arriba Oprimida 
10D86:  MOVF   36,W
10D88:  SUBLW  0A
10D8A:  BTFSS  FD8.2
10D8C:  GOTO   10DA4
....................                if(Sensor[1].Ajuste<40) 
10D90:  MOVLB  4
10D92:  MOVF   xF4,W
10D94:  SUBLW  27
10D96:  BTFSS  FD8.0
10D98:  GOTO   10D9E
....................                   Sensor[1].Ajuste++; 
10D9C:  INCF   xF4,F
....................                RX_Buffer[4]=0x00;   
10D9E:  CLRF   36
....................                RX_Buffer2[4]=0x00;             
10DA0:  CLRF   41
10DA2:  MOVLB  0
....................                //BorraBuffer(); 
....................          } 
....................              
....................          if(RX_Buffer[4]==0x0b){//Tecla Abajo Oprimida 
10DA4:  MOVF   36,W
10DA6:  SUBLW  0B
10DA8:  BTFSS  FD8.2
10DAA:  GOTO   10DC0
....................                if(Sensor[1].Ajuste>0) 
10DAE:  MOVLB  4
10DB0:  MOVF   xF4,F
10DB2:  BTFSC  FD8.2
10DB4:  GOTO   10DBA
....................                   Sensor[1].Ajuste--; 
10DB8:  DECF   xF4,F
....................                RX_Buffer[4]=0x00; 
10DBA:  CLRF   36
....................                RX_Buffer2[4]=0x00;             
10DBC:  CLRF   41
10DBE:  MOVLB  0
....................                //BorraBuffer();             
....................          } 
....................       }else if(Opcion2==6){ 
10DC0:  GOTO   11582
10DC4:  MOVLB  2
10DC6:  MOVF   xB1,W
10DC8:  SUBLW  06
10DCA:  BTFSS  FD8.2
10DCC:  GOTO   10E5C
....................          printf("Config.t2c.txt=\"Ajuste2 -\""); 
10DD0:  MOVLW  AE
10DD2:  MOVWF  FF6
10DD4:  MOVLW  1F
10DD6:  MOVWF  FF7
10DD8:  MOVLW  00
10DDA:  MOVWF  FF8
10DDC:  MOVLB  0
10DDE:  CALL   4720
....................          SendDataDisplay();       
10DE2:  CALL   4752
....................          printf("t3c.txt=\"%u\"",Sensor[1].Ajusten); 
10DE6:  MOVLW  CA
10DE8:  MOVWF  FF6
10DEA:  MOVLW  1F
10DEC:  MOVWF  FF7
10DEE:  MOVLW  00
10DF0:  MOVWF  FF8
10DF2:  MOVLW  09
10DF4:  MOVLB  7
10DF6:  MOVWF  x08
10DF8:  MOVLB  0
10DFA:  CALL   628E
10DFE:  MOVFF  4F5,708
10E02:  MOVLW  1B
10E04:  MOVLB  7
10E06:  MOVWF  x09
10E08:  MOVLB  0
10E0A:  CALL   6312
10E0E:  MOVLW  22
10E10:  BTFSS  F9E.4
10E12:  GOTO   10E10
10E16:  MOVWF  FAD
....................          SendDataDisplay(); 
10E18:  CALL   4752
....................          if(RX_Buffer[4]==0x0a){//Tecla Arriba Oprimida             
10E1C:  MOVF   36,W
10E1E:  SUBLW  0A
10E20:  BTFSS  FD8.2
10E22:  GOTO   10E3A
....................                if(Sensor[1].Ajusten<40) 
10E26:  MOVLB  4
10E28:  MOVF   xF5,W
10E2A:  SUBLW  27
10E2C:  BTFSS  FD8.0
10E2E:  GOTO   10E34
....................                   Sensor[1].Ajusten++; 
10E32:  INCF   xF5,F
....................                RX_Buffer[4]=0x00;   
10E34:  CLRF   36
....................                RX_Buffer2[4]=0x00;             
10E36:  CLRF   41
10E38:  MOVLB  0
....................                //BorraBuffer(); 
....................          } 
....................              
....................          if(RX_Buffer[4]==0x0b){//Tecla Abajo Oprimida             
10E3A:  MOVF   36,W
10E3C:  SUBLW  0B
10E3E:  BTFSS  FD8.2
10E40:  GOTO   10E56
....................                if(Sensor[1].Ajusten>0) 
10E44:  MOVLB  4
10E46:  MOVF   xF5,F
10E48:  BTFSC  FD8.2
10E4A:  GOTO   10E50
....................                   Sensor[1].Ajusten--; 
10E4E:  DECF   xF5,F
....................                RX_Buffer[4]=0x00; 
10E50:  CLRF   36
....................                RX_Buffer2[4]=0x00;             
10E52:  CLRF   41
10E54:  MOVLB  0
....................                //BorraBuffer(); 
....................          } 
....................       }else if(Opcion2==7){ 
10E56:  GOTO   11582
10E5A:  MOVLB  2
10E5C:  MOVF   xB1,W
10E5E:  SUBLW  07
10E60:  BTFSS  FD8.2
10E62:  GOTO   10EF4
....................          printf("Config.t2c.txt=\"Media\""); 
10E66:  MOVLW  D8
10E68:  MOVWF  FF6
10E6A:  MOVLW  1F
10E6C:  MOVWF  FF7
10E6E:  MOVLW  00
10E70:  MOVWF  FF8
10E72:  MOVLB  0
10E74:  CALL   4720
....................          SendDataDisplay();       
10E78:  CALL   4752
....................          printf("t3c.txt=\"%u\"",MediaMovil); 
10E7C:  MOVLW  F0
10E7E:  MOVWF  FF6
10E80:  MOVLW  1F
10E82:  MOVWF  FF7
10E84:  MOVLW  00
10E86:  MOVWF  FF8
10E88:  MOVLW  09
10E8A:  MOVLB  7
10E8C:  MOVWF  x08
10E8E:  MOVLB  0
10E90:  CALL   628E
10E94:  MOVFF  222,708
10E98:  MOVLW  1B
10E9A:  MOVLB  7
10E9C:  MOVWF  x09
10E9E:  MOVLB  0
10EA0:  CALL   6312
10EA4:  MOVLW  22
10EA6:  BTFSS  F9E.4
10EA8:  GOTO   10EA6
10EAC:  MOVWF  FAD
....................          SendDataDisplay(); 
10EAE:  CALL   4752
....................          if(RX_Buffer[4]==0x0a){//Tecla Arriba Oprimida 
10EB2:  MOVF   36,W
10EB4:  SUBLW  0A
10EB6:  BTFSS  FD8.2
10EB8:  GOTO   10ED0
....................                if(MediaMovil<80) 
10EBC:  MOVLB  2
10EBE:  MOVF   x22,W
10EC0:  SUBLW  4F
10EC2:  BTFSS  FD8.0
10EC4:  GOTO   10ECA
....................                   MediaMovil++; 
10EC8:  INCF   x22,F
....................                RX_Buffer[4]=0x00;   
10ECA:  CLRF   36
....................                RX_Buffer2[4]=0x00;             
10ECC:  CLRF   41
10ECE:  MOVLB  0
....................                //BorraBuffer(); 
....................          } 
....................              
....................          if(RX_Buffer[4]==0x0b){//Tecla Abajo Oprimida 
10ED0:  MOVF   36,W
10ED2:  SUBLW  0B
10ED4:  BTFSS  FD8.2
10ED6:  GOTO   10EEE
....................                if(MediaMovil>10) 
10EDA:  MOVLB  2
10EDC:  MOVF   x22,W
10EDE:  SUBLW  0A
10EE0:  BTFSC  FD8.0
10EE2:  GOTO   10EE8
....................                   MediaMovil--; 
10EE6:  DECF   x22,F
....................                RX_Buffer[4]=0x00; 
10EE8:  CLRF   36
....................                RX_Buffer2[4]=0x00;             
10EEA:  CLRF   41
10EEC:  MOVLB  0
....................                //BorraBuffer();             
....................          } 
....................       }else if(Opcion2==8){ 
10EEE:  GOTO   11582
10EF2:  MOVLB  2
10EF4:  MOVF   xB1,W
10EF6:  SUBLW  08
10EF8:  BTFSS  FD8.2
10EFA:  GOTO   1108A
....................          printf("Config.t2c.txt=\"Desvio\""); 
10EFE:  MOVLW  FE
10F00:  MOVWF  FF6
10F02:  MOVLW  1F
10F04:  MOVWF  FF7
10F06:  MOVLW  00
10F08:  MOVWF  FF8
10F0A:  MOVLB  0
10F0C:  CALL   4720
....................          SendDataDisplay();       
10F10:  CALL   4752
....................          printf("t3c.txt=\"%2.1f\"",desvio); 
10F14:  MOVLW  16
10F16:  MOVWF  FF6
10F18:  MOVLW  20
10F1A:  MOVWF  FF7
10F1C:  MOVLW  00
10F1E:  MOVWF  FF8
10F20:  MOVLW  09
10F22:  MOVLB  7
10F24:  MOVWF  x08
10F26:  MOVLB  0
10F28:  CALL   628E
10F2C:  MOVLW  01
10F2E:  MOVWF  FE9
10F30:  MOVFF  257,70B
10F34:  MOVFF  256,70A
10F38:  MOVFF  255,709
10F3C:  MOVFF  254,708
10F40:  MOVLB  7
10F42:  MOVWF  x0C
10F44:  MOVLB  0
10F46:  CALL   6B90
10F4A:  MOVLW  22
10F4C:  BTFSS  F9E.4
10F4E:  GOTO   10F4C
10F52:  MOVWF  FAD
....................          SendDataDisplay(); 
10F54:  CALL   4752
....................          if(RX_Buffer[4]==0x0a || UP){//Tecla Arriba Oprimida 
10F58:  MOVF   36,W
10F5A:  SUBLW  0A
10F5C:  BTFSC  FD8.2
10F5E:  GOTO   10F6A
10F62:  BSF    F93.4
10F64:  BTFSC  F81.4
10F66:  GOTO   10FF0
....................             delay_ms(20); 
10F6A:  MOVLW  14
10F6C:  MOVLB  7
10F6E:  MOVWF  x18
10F70:  MOVLB  0
10F72:  CALL   21D6
....................             if(RX_Buffer[4]==0x0a || UP){ 
10F76:  MOVF   36,W
10F78:  SUBLW  0A
10F7A:  BTFSC  FD8.2
10F7C:  GOTO   10F88
10F80:  BSF    F93.4
10F82:  BTFSC  F81.4
10F84:  GOTO   10FF0
....................                if(desvio<3.0) 
10F88:  MOVFF  257,709
10F8C:  MOVFF  256,708
10F90:  MOVFF  255,707
10F94:  MOVFF  254,706
10F98:  MOVLB  7
10F9A:  CLRF   x0D
10F9C:  CLRF   x0C
10F9E:  MOVLW  40
10FA0:  MOVWF  x0B
10FA2:  MOVLW  80
10FA4:  MOVWF  x0A
10FA6:  MOVLB  0
10FA8:  CALL   2832
10FAC:  BTFSS  FD8.0
10FAE:  GOTO   10FEC
....................                   desvio+=0.1; 
10FB2:  BCF    FD8.1
10FB4:  MOVFF  257,717
10FB8:  MOVFF  256,716
10FBC:  MOVFF  255,715
10FC0:  MOVFF  254,714
10FC4:  MOVLW  CD
10FC6:  MOVLB  7
10FC8:  MOVWF  x1B
10FCA:  MOVLW  CC
10FCC:  MOVWF  x1A
10FCE:  MOVLW  4C
10FD0:  MOVWF  x19
10FD2:  MOVLW  7B
10FD4:  MOVWF  x18
10FD6:  MOVLB  0
10FD8:  CALL   25BA
10FDC:  MOVFF  03,257
10FE0:  MOVFF  02,256
10FE4:  MOVFF  01,255
10FE8:  MOVFF  00,254
....................                RX_Buffer[4]=0x00;   
10FEC:  CLRF   36
....................                RX_Buffer2[4]=0x00;             
10FEE:  CLRF   41
....................                //BorraBuffer(); 
....................             } 
....................          } 
....................              
....................          if(RX_Buffer[4]==0x0b || DOWN){//Tecla Abajo Oprimida 
10FF0:  MOVF   36,W
10FF2:  SUBLW  0B
10FF4:  BTFSC  FD8.2
10FF6:  GOTO   11002
10FFA:  BSF    F93.5
10FFC:  BTFSC  F81.5
10FFE:  GOTO   11084
....................             delay_ms(20); 
11002:  MOVLW  14
11004:  MOVLB  7
11006:  MOVWF  x18
11008:  MOVLB  0
1100A:  CALL   21D6
....................             if(RX_Buffer[4]==0x0b || DOWN){ 
1100E:  MOVF   36,W
11010:  SUBLW  0B
11012:  BTFSC  FD8.2
11014:  GOTO   11020
11018:  BSF    F93.5
1101A:  BTFSC  F81.5
1101C:  GOTO   11084
....................                if(desvio>0.0) 
11020:  MOVLB  7
11022:  CLRF   x09
11024:  CLRF   x08
11026:  CLRF   x07
11028:  CLRF   x06
1102A:  MOVFF  257,70D
1102E:  MOVFF  256,70C
11032:  MOVFF  255,70B
11036:  MOVFF  254,70A
1103A:  MOVLB  0
1103C:  CALL   2832
11040:  BTFSS  FD8.0
11042:  GOTO   11080
....................                   desvio-=0.1; 
11046:  BSF    FD8.1
11048:  MOVFF  257,717
1104C:  MOVFF  256,716
11050:  MOVFF  255,715
11054:  MOVFF  254,714
11058:  MOVLW  CD
1105A:  MOVLB  7
1105C:  MOVWF  x1B
1105E:  MOVLW  CC
11060:  MOVWF  x1A
11062:  MOVLW  4C
11064:  MOVWF  x19
11066:  MOVLW  7B
11068:  MOVWF  x18
1106A:  MOVLB  0
1106C:  CALL   25BA
11070:  MOVFF  03,257
11074:  MOVFF  02,256
11078:  MOVFF  01,255
1107C:  MOVFF  00,254
....................                RX_Buffer[4]=0x00; 
11080:  CLRF   36
....................                RX_Buffer2[4]=0x00;             
11082:  CLRF   41
....................                //BorraBuffer(); 
....................             } 
....................          } 
....................       }else if(Opcion2==9){ 
11084:  GOTO   11582
11088:  MOVLB  2
1108A:  MOVF   xB1,W
1108C:  SUBLW  09
1108E:  BTFSS  FD8.2
11090:  GOTO   1121E
....................          printf("Config.t2c.txt=\"Histeresis\""); 
11094:  MOVLW  26
11096:  MOVWF  FF6
11098:  MOVLW  20
1109A:  MOVWF  FF7
1109C:  MOVLW  00
1109E:  MOVWF  FF8
110A0:  MOVLB  0
110A2:  CALL   4720
....................          SendDataDisplay();       
110A6:  CALL   4752
....................          printf("t3c.txt=\"%2.1f\"",Histeresis); 
110AA:  MOVLW  42
110AC:  MOVWF  FF6
110AE:  MOVLW  20
110B0:  MOVWF  FF7
110B2:  MOVLW  00
110B4:  MOVWF  FF8
110B6:  MOVLW  09
110B8:  MOVLB  7
110BA:  MOVWF  x08
110BC:  MOVLB  0
110BE:  CALL   628E
110C2:  MOVLW  01
110C4:  MOVWF  FE9
110C6:  MOVFF  203,70B
110CA:  MOVFF  202,70A
110CE:  MOVFF  201,709
110D2:  MOVFF  200,708
110D6:  MOVLB  7
110D8:  MOVWF  x0C
110DA:  MOVLB  0
110DC:  CALL   6B90
110E0:  MOVLW  22
110E2:  BTFSS  F9E.4
110E4:  GOTO   110E2
110E8:  MOVWF  FAD
....................          SendDataDisplay(); 
110EA:  CALL   4752
....................          if(RX_Buffer[4]==0x0a || UP){//Tecla Arriba Oprimida 
110EE:  MOVF   36,W
110F0:  SUBLW  0A
110F2:  BTFSC  FD8.2
110F4:  GOTO   11100
110F8:  BSF    F93.4
110FA:  BTFSC  F81.4
110FC:  GOTO   11184
....................             delay_ms(20); 
11100:  MOVLW  14
11102:  MOVLB  7
11104:  MOVWF  x18
11106:  MOVLB  0
11108:  CALL   21D6
....................             if(RX_Buffer[4]==0x0a || UP){ 
1110C:  MOVF   36,W
1110E:  SUBLW  0A
11110:  BTFSC  FD8.2
11112:  GOTO   1111E
11116:  BSF    F93.4
11118:  BTFSC  F81.4
1111A:  GOTO   11184
....................                if(Histeresis<2.0) 
1111E:  MOVFF  203,709
11122:  MOVFF  202,708
11126:  MOVFF  201,707
1112A:  MOVFF  200,706
1112E:  MOVLB  7
11130:  CLRF   x0D
11132:  CLRF   x0C
11134:  CLRF   x0B
11136:  MOVLW  80
11138:  MOVWF  x0A
1113A:  MOVLB  0
1113C:  CALL   2832
11140:  BTFSS  FD8.0
11142:  GOTO   11180
....................                   Histeresis+=0.1; 
11146:  BCF    FD8.1
11148:  MOVFF  203,717
1114C:  MOVFF  202,716
11150:  MOVFF  201,715
11154:  MOVFF  200,714
11158:  MOVLW  CD
1115A:  MOVLB  7
1115C:  MOVWF  x1B
1115E:  MOVLW  CC
11160:  MOVWF  x1A
11162:  MOVLW  4C
11164:  MOVWF  x19
11166:  MOVLW  7B
11168:  MOVWF  x18
1116A:  MOVLB  0
1116C:  CALL   25BA
11170:  MOVFF  03,203
11174:  MOVFF  02,202
11178:  MOVFF  01,201
1117C:  MOVFF  00,200
....................                RX_Buffer[4]=0x00;   
11180:  CLRF   36
....................                RX_Buffer2[4]=0x00;             
11182:  CLRF   41
....................                //BorraBuffer(); 
....................             } 
....................          } 
....................              
....................          if(RX_Buffer[4]==0x0b || DOWN){//Tecla Abajo Oprimida 
11184:  MOVF   36,W
11186:  SUBLW  0B
11188:  BTFSC  FD8.2
1118A:  GOTO   11196
1118E:  BSF    F93.5
11190:  BTFSC  F81.5
11192:  GOTO   11218
....................             delay_ms(20); 
11196:  MOVLW  14
11198:  MOVLB  7
1119A:  MOVWF  x18
1119C:  MOVLB  0
1119E:  CALL   21D6
....................             if(RX_Buffer[4]==0x0b || DOWN){ 
111A2:  MOVF   36,W
111A4:  SUBLW  0B
111A6:  BTFSC  FD8.2
111A8:  GOTO   111B4
111AC:  BSF    F93.5
111AE:  BTFSC  F81.5
111B0:  GOTO   11218
....................                if(Histeresis>0.0) 
111B4:  MOVLB  7
111B6:  CLRF   x09
111B8:  CLRF   x08
111BA:  CLRF   x07
111BC:  CLRF   x06
111BE:  MOVFF  203,70D
111C2:  MOVFF  202,70C
111C6:  MOVFF  201,70B
111CA:  MOVFF  200,70A
111CE:  MOVLB  0
111D0:  CALL   2832
111D4:  BTFSS  FD8.0
111D6:  GOTO   11214
....................                   Histeresis-=0.1; 
111DA:  BSF    FD8.1
111DC:  MOVFF  203,717
111E0:  MOVFF  202,716
111E4:  MOVFF  201,715
111E8:  MOVFF  200,714
111EC:  MOVLW  CD
111EE:  MOVLB  7
111F0:  MOVWF  x1B
111F2:  MOVLW  CC
111F4:  MOVWF  x1A
111F6:  MOVLW  4C
111F8:  MOVWF  x19
111FA:  MOVLW  7B
111FC:  MOVWF  x18
111FE:  MOVLB  0
11200:  CALL   25BA
11204:  MOVFF  03,203
11208:  MOVFF  02,202
1120C:  MOVFF  01,201
11210:  MOVFF  00,200
....................                RX_Buffer[4]=0x00; 
11214:  CLRF   36
....................                RX_Buffer2[4]=0x00;             
11216:  CLRF   41
....................                //BorraBuffer(); 
....................             } 
....................          } 
....................       }else if(Opcion2==10){ 
11218:  GOTO   11582
1121C:  MOVLB  2
1121E:  MOVF   xB1,W
11220:  SUBLW  0A
11222:  BTFSS  FD8.2
11224:  GOTO   1127A
....................          printf("Config.t2c.txt=\"Ciclos\""); 
11228:  MOVLW  52
1122A:  MOVWF  FF6
1122C:  MOVLW  20
1122E:  MOVWF  FF7
11230:  MOVLW  00
11232:  MOVWF  FF8
11234:  MOVLB  0
11236:  CALL   4720
....................          SendDataDisplay();       
1123A:  CALL   4752
....................          printf("t3c.txt=\"%05Lu\"",Ciclos); 
1123E:  MOVLW  6A
11240:  MOVWF  FF6
11242:  MOVLW  20
11244:  MOVWF  FF7
11246:  MOVLW  00
11248:  MOVWF  FF8
1124A:  MOVLW  09
1124C:  MOVLB  7
1124E:  MOVWF  x08
11250:  MOVLB  0
11252:  CALL   628E
11256:  MOVLW  08
11258:  MOVWF  FE9
1125A:  MOVFF  2C6,709
1125E:  MOVFF  2C5,708
11262:  CALL   6A22
11266:  MOVLW  22
11268:  BTFSS  F9E.4
1126A:  GOTO   11268
1126E:  MOVWF  FAD
....................          SendDataDisplay(); 
11270:  CALL   4752
....................       }else if(Opcion2==11){ 
11274:  GOTO   11582
11278:  MOVLB  2
1127A:  MOVF   xB1,W
1127C:  SUBLW  0B
1127E:  BTFSS  FD8.2
11280:  GOTO   11312
....................          printf("Config.t2c.txt=\"Atmosferica\""); 
11284:  MOVLW  7A
11286:  MOVWF  FF6
11288:  MOVLW  20
1128A:  MOVWF  FF7
1128C:  MOVLW  00
1128E:  MOVWF  FF8
11290:  MOVLB  0
11292:  CALL   4720
....................          SendDataDisplay();       
11296:  CALL   4752
....................          printf("t3c.txt=\"%03u\"",Atmosferica); 
1129A:  MOVLW  98
1129C:  MOVWF  FF6
1129E:  MOVLW  20
112A0:  MOVWF  FF7
112A2:  MOVLW  00
112A4:  MOVWF  FF8
112A6:  MOVLW  09
112A8:  MOVLB  7
112AA:  MOVWF  x08
112AC:  MOVLB  0
112AE:  CALL   628E
112B2:  MOVFF  2F6,708
112B6:  MOVLW  03
112B8:  MOVLB  7
112BA:  MOVWF  x09
112BC:  MOVLB  0
112BE:  CALL   6312
112C2:  MOVLW  22
112C4:  BTFSS  F9E.4
112C6:  GOTO   112C4
112CA:  MOVWF  FAD
....................          SendDataDisplay(); 
112CC:  CALL   4752
....................          if(RX_Buffer[4]==0x0a){//Tecla Arriba Oprimida 
112D0:  MOVF   36,W
112D2:  SUBLW  0A
112D4:  BTFSS  FD8.2
112D6:  GOTO   112EE
....................                if(Atmosferica<100) 
112DA:  MOVLB  2
112DC:  MOVF   xF6,W
112DE:  SUBLW  63
112E0:  BTFSS  FD8.0
112E2:  GOTO   112E8
....................                   ++Atmosferica; 
112E6:  INCF   xF6,F
....................                RX_Buffer[4]=0x00;   
112E8:  CLRF   36
....................                RX_Buffer2[4]=0x00;             
112EA:  CLRF   41
112EC:  MOVLB  0
....................                //BorraBuffer(); 
....................          } 
....................              
....................          if(RX_Buffer[4]==0x0b){//Tecla Abajo Oprimida 
112EE:  MOVF   36,W
112F0:  SUBLW  0B
112F2:  BTFSS  FD8.2
112F4:  GOTO   1130C
....................                if(Atmosferica>50) 
112F8:  MOVLB  2
112FA:  MOVF   xF6,W
112FC:  SUBLW  32
112FE:  BTFSC  FD8.0
11300:  GOTO   11306
....................                   --Atmosferica; 
11304:  DECF   xF6,F
....................                RX_Buffer[4]=0x00; 
11306:  CLRF   36
....................                RX_Buffer2[4]=0x00;             
11308:  CLRF   41
1130A:  MOVLB  0
....................                //BorraBuffer(); 
....................          } 
....................       }else if(Opcion2==12){ 
1130C:  GOTO   11582
11310:  MOVLB  2
11312:  MOVF   xB1,W
11314:  SUBLW  0C
11316:  BTFSS  FD8.2
11318:  GOTO   113AA
....................          printf("Config.t2c.txt=\"T. Apertura\""); 
1131C:  MOVLW  A8
1131E:  MOVWF  FF6
11320:  MOVLW  20
11322:  MOVWF  FF7
11324:  MOVLW  00
11326:  MOVWF  FF8
11328:  MOVLB  0
1132A:  CALL   4720
....................          SendDataDisplay();       
1132E:  CALL   4752
....................          printf("t3c.txt=\"%03u\"",Tapertura); 
11332:  MOVLW  C6
11334:  MOVWF  FF6
11336:  MOVLW  20
11338:  MOVWF  FF7
1133A:  MOVLW  00
1133C:  MOVWF  FF8
1133E:  MOVLW  09
11340:  MOVLB  7
11342:  MOVWF  x08
11344:  MOVLB  0
11346:  CALL   628E
1134A:  MOVFF  2A6,708
1134E:  MOVLW  03
11350:  MOVLB  7
11352:  MOVWF  x09
11354:  MOVLB  0
11356:  CALL   6312
1135A:  MOVLW  22
1135C:  BTFSS  F9E.4
1135E:  GOTO   1135C
11362:  MOVWF  FAD
....................          SendDataDisplay(); 
11364:  CALL   4752
....................          if(RX_Buffer[4]==0x0a){//Tecla Arriba Oprimida 
11368:  MOVF   36,W
1136A:  SUBLW  0A
1136C:  BTFSS  FD8.2
1136E:  GOTO   11386
....................                if(Tapertura<100) 
11372:  MOVLB  2
11374:  MOVF   xA6,W
11376:  SUBLW  63
11378:  BTFSS  FD8.0
1137A:  GOTO   11380
....................                   ++Tapertura; 
1137E:  INCF   xA6,F
....................                RX_Buffer[4]=0x00;   
11380:  CLRF   36
....................                RX_Buffer2[4]=0x00;             
11382:  CLRF   41
11384:  MOVLB  0
....................                //BorraBuffer(); 
....................          } 
....................              
....................          if(RX_Buffer[4]==0x0b){//Tecla Abajo Oprimida 
11386:  MOVF   36,W
11388:  SUBLW  0B
1138A:  BTFSS  FD8.2
1138C:  GOTO   113A4
....................                if(Tapertura>50) 
11390:  MOVLB  2
11392:  MOVF   xA6,W
11394:  SUBLW  32
11396:  BTFSC  FD8.0
11398:  GOTO   1139E
....................                   --Tapertura; 
1139C:  DECF   xA6,F
....................                RX_Buffer[4]=0x00; 
1139E:  CLRF   36
....................                RX_Buffer2[4]=0x00;             
113A0:  CLRF   41
113A2:  MOVLB  0
....................                //BorraBuffer();            
....................          } 
....................       }else if(Opcion2==13){ 
113A4:  GOTO   11582
113A8:  MOVLB  2
113AA:  MOVF   xB1,W
113AC:  SUBLW  0D
113AE:  BTFSS  FD8.2
113B0:  GOTO   11448
....................          printf("Config.t2c.txt=\"Vacio Test\""); 
113B4:  MOVLW  D6
113B6:  MOVWF  FF6
113B8:  MOVLW  20
113BA:  MOVWF  FF7
113BC:  MOVLW  00
113BE:  MOVWF  FF8
113C0:  MOVLB  0
113C2:  CALL   4720
....................          SendDataDisplay();       
113C6:  CALL   4752
....................          printf("t3c.txt=\"%02u\"",vacioTest); 
113CA:  MOVLW  F2
113CC:  MOVWF  FF6
113CE:  MOVLW  20
113D0:  MOVWF  FF7
113D2:  MOVLW  00
113D4:  MOVWF  FF8
113D6:  MOVLW  09
113D8:  MOVLB  7
113DA:  MOVWF  x08
113DC:  MOVLB  0
113DE:  CALL   628E
113E2:  MOVFF  280,708
113E6:  MOVLW  01
113E8:  MOVLB  7
113EA:  MOVWF  x09
113EC:  MOVLB  0
113EE:  CALL   6312
113F2:  MOVLW  22
113F4:  BTFSS  F9E.4
113F6:  GOTO   113F4
113FA:  MOVWF  FAD
....................          SendDataDisplay(); 
113FC:  CALL   4752
....................           
....................             if(RX_Buffer[4]==0x0a){ 
11400:  MOVF   36,W
11402:  SUBLW  0A
11404:  BTFSS  FD8.2
11406:  GOTO   11414
....................                   ++vacioTest; 
1140A:  MOVLB  2
1140C:  INCF   x80,F
....................                RX_Buffer[4]=0x00;   
1140E:  CLRF   36
....................                RX_Buffer2[4]=0x00;             
11410:  CLRF   41
11412:  MOVLB  0
....................             } 
....................           
....................             if(RX_Buffer[4]==0x0b){ 
11414:  MOVF   36,W
11416:  SUBLW  0B
11418:  BTFSS  FD8.2
1141A:  GOTO   11426
....................                   --vacioTest; 
1141E:  MOVLB  2
11420:  DECF   x80,F
....................                RX_Buffer[4]=0x00; 
11422:  CLRF   36
....................                RX_Buffer2[4]=0x00;             
11424:  CLRF   41
....................             } 
....................           
....................          if(vacioTest>30) 
11426:  MOVLB  2
11428:  MOVF   x80,W
1142A:  SUBLW  1E
1142C:  BTFSC  FD8.0
1142E:  GOTO   11436
....................             vacioTest=17; 
11432:  MOVLW  11
11434:  MOVWF  x80
....................          if(vacioTest<17) 
11436:  MOVF   x80,W
11438:  SUBLW  10
1143A:  BTFSS  FD8.0
1143C:  GOTO   11444
....................             vacioTest=30; 
11440:  MOVLW  1E
11442:  MOVWF  x80
....................       }else if(Opcion2==14){ 
11444:  GOTO   11580
11448:  MOVF   xB1,W
1144A:  SUBLW  0E
1144C:  BTFSS  FD8.2
1144E:  GOTO   114E6
....................          printf("Config.t2c.txt=\"Pulsos Config\""); 
11452:  MOVLW  02
11454:  MOVWF  FF6
11456:  MOVLW  21
11458:  MOVWF  FF7
1145A:  MOVLW  00
1145C:  MOVWF  FF8
1145E:  MOVLB  0
11460:  CALL   4720
....................          SendDataDisplay();       
11464:  CALL   4752
....................          printf("t3c.txt=\"%02u\"",pulsosConfigurados); 
11468:  MOVLW  22
1146A:  MOVWF  FF6
1146C:  MOVLW  21
1146E:  MOVWF  FF7
11470:  MOVLW  00
11472:  MOVWF  FF8
11474:  MOVLW  09
11476:  MOVLB  7
11478:  MOVWF  x08
1147A:  MOVLB  0
1147C:  CALL   628E
11480:  MOVFF  27F,708
11484:  MOVLW  01
11486:  MOVLB  7
11488:  MOVWF  x09
1148A:  MOVLB  0
1148C:  CALL   6312
11490:  MOVLW  22
11492:  BTFSS  F9E.4
11494:  GOTO   11492
11498:  MOVWF  FAD
....................          SendDataDisplay(); 
1149A:  CALL   4752
....................           
....................             if(RX_Buffer[4]==0x0a){ 
1149E:  MOVF   36,W
114A0:  SUBLW  0A
114A2:  BTFSS  FD8.2
114A4:  GOTO   114B2
....................                   ++pulsosConfigurados; 
114A8:  MOVLB  2
114AA:  INCF   x7F,F
....................                RX_Buffer[4]=0x00;   
114AC:  CLRF   36
....................                RX_Buffer2[4]=0x00;             
114AE:  CLRF   41
114B0:  MOVLB  0
....................             } 
....................              
....................             if(RX_Buffer[4]==0x0b){ 
114B2:  MOVF   36,W
114B4:  SUBLW  0B
114B6:  BTFSS  FD8.2
114B8:  GOTO   114C4
....................                   --pulsosConfigurados; 
114BC:  MOVLB  2
114BE:  DECF   x7F,F
....................                RX_Buffer[4]=0x00; 
114C0:  CLRF   36
....................                RX_Buffer2[4]=0x00;             
114C2:  CLRF   41
....................             } 
....................           
....................          if(pulsosConfigurados>8) 
114C4:  MOVLB  2
114C6:  MOVF   x7F,W
114C8:  SUBLW  08
114CA:  BTFSC  FD8.0
114CC:  GOTO   114D4
....................             pulsosConfigurados=2; 
114D0:  MOVLW  02
114D2:  MOVWF  x7F
....................          if(pulsosConfigurados<2) 
114D4:  MOVF   x7F,W
114D6:  SUBLW  01
114D8:  BTFSS  FD8.0
114DA:  GOTO   114E2
....................             pulsosConfigurados=8; 
114DE:  MOVLW  08
114E0:  MOVWF  x7F
....................       }else if(Opcion2==15){ 
114E2:  GOTO   11580
114E6:  MOVF   xB1,W
114E8:  SUBLW  0F
114EA:  BTFSS  FD8.2
114EC:  GOTO   11580
....................          printf("Config.t2c.txt=\"Vacio Ciclo\""); 
114F0:  MOVLW  32
114F2:  MOVWF  FF6
114F4:  MOVLW  21
114F6:  MOVWF  FF7
114F8:  MOVLW  00
114FA:  MOVWF  FF8
114FC:  MOVLB  0
114FE:  CALL   4720
....................          SendDataDisplay();       
11502:  CALL   4752
....................          printf("t3c.txt=\"%02u\"",vacioCiclo); 
11506:  MOVLW  50
11508:  MOVWF  FF6
1150A:  MOVLW  21
1150C:  MOVWF  FF7
1150E:  MOVLW  00
11510:  MOVWF  FF8
11512:  MOVLW  09
11514:  MOVLB  7
11516:  MOVWF  x08
11518:  MOVLB  0
1151A:  CALL   628E
1151E:  MOVFF  281,708
11522:  MOVLW  01
11524:  MOVLB  7
11526:  MOVWF  x09
11528:  MOVLB  0
1152A:  CALL   6312
1152E:  MOVLW  22
11530:  BTFSS  F9E.4
11532:  GOTO   11530
11536:  MOVWF  FAD
....................          SendDataDisplay(); 
11538:  CALL   4752
....................           
....................             if(RX_Buffer[4]==0x0a){ 
1153C:  MOVF   36,W
1153E:  SUBLW  0A
11540:  BTFSS  FD8.2
11542:  GOTO   11550
....................                   ++vacioCiclo; 
11546:  MOVLB  2
11548:  INCF   x81,F
....................                RX_Buffer[4]=0x00;   
1154A:  CLRF   36
....................                RX_Buffer2[4]=0x00;             
1154C:  CLRF   41
1154E:  MOVLB  0
....................             } 
....................              
....................             if(RX_Buffer[4]==0x0b){ 
11550:  MOVF   36,W
11552:  SUBLW  0B
11554:  BTFSS  FD8.2
11556:  GOTO   11562
....................                   --vacioCiclo; 
1155A:  MOVLB  2
1155C:  DECF   x81,F
....................                RX_Buffer[4]=0x00; 
1155E:  CLRF   36
....................                RX_Buffer2[4]=0x00;             
11560:  CLRF   41
....................             } 
....................           
....................          if(vacioCiclo>40) 
11562:  MOVLB  2
11564:  MOVF   x81,W
11566:  SUBLW  28
11568:  BTFSC  FD8.0
1156A:  GOTO   11572
....................             vacioCiclo=17; 
1156E:  MOVLW  11
11570:  MOVWF  x81
....................          if(vacioCiclo<17) 
11572:  MOVF   x81,W
11574:  SUBLW  10
11576:  BTFSS  FD8.0
11578:  GOTO   11580
....................             vacioCiclo=40; 
1157C:  MOVLW  28
1157E:  MOVWF  x81
11580:  MOVLB  0
....................       } 
....................        
....................       if(RX_Buffer[4]==0x0c){//Tecla Izquierda Oprimida 
11582:  MOVF   36,W
11584:  SUBLW  0C
11586:  BTFSS  FD8.2
11588:  GOTO   11596
....................             Opcion2++; 
1158C:  MOVLB  2
1158E:  INCF   xB1,F
....................             RX_Buffer[4]=0x00;   
11590:  CLRF   36
....................             RX_Buffer2[4]=0x00;             
11592:  CLRF   41
11594:  MOVLB  0
....................             //BorraBuffer();    
....................       } 
....................           
....................       if(RX_Buffer[4]==0x0d){//Tecla Derecha Oprimida          
11596:  MOVF   36,W
11598:  SUBLW  0D
1159A:  BTFSS  FD8.2
1159C:  GOTO   115AA
....................             Opcion2--; 
115A0:  MOVLB  2
115A2:  DECF   xB1,F
....................             RX_Buffer[4]=0x00; 
115A4:  CLRF   36
....................             RX_Buffer2[4]=0x00;             
115A6:  CLRF   41
115A8:  MOVLB  0
....................             //BorraBuffer(); 
....................       } 
....................        
....................       if(RX_Buffer[4]==0x11){//Tecla Regresar 
115AA:  MOVF   36,W
115AC:  SUBLW  11
115AE:  BTFSS  FD8.2
115B0:  GOTO   119DE
....................          delay_ms(20); 
115B4:  MOVLW  14
115B6:  MOVLB  7
115B8:  MOVWF  x18
115BA:  MOVLB  0
115BC:  CALL   21D6
....................          if(RX_Buffer[4]==0x11){ 
115C0:  MOVF   36,W
115C2:  SUBLW  11
115C4:  BTFSS  FD8.2
115C6:  GOTO   119DE
....................             if(!GuardaEEPROM){ 
115CA:  MOVLB  1
115CC:  BTFSC  x2D.1
115CE:  GOTO   119C8
....................                write_eeprom(20,(int8)Ganancia); 
115D2:  MOVFF  24F,717
115D6:  MOVFF  24E,716
115DA:  MOVFF  24D,715
115DE:  MOVFF  24C,714
115E2:  MOVLB  0
115E4:  CALL   5424
115E8:  MOVFF  01,702
115EC:  CLRF   FAA
115EE:  MOVLW  14
115F0:  MOVWF  FA9
115F2:  MOVFF  702,FA8
115F6:  BCF    FA6.6
115F8:  BCF    FA6.7
115FA:  BSF    FA6.2
115FC:  MOVF   FF2,W
115FE:  MOVWF  00
11600:  BCF    FF2.6
11602:  BCF    FF2.7
11604:  MOVLB  F
11606:  MOVLW  55
11608:  MOVWF  FA7
1160A:  MOVLW  AA
1160C:  MOVWF  FA7
1160E:  BSF    FA6.1
11610:  BTFSC  FA6.1
11612:  GOTO   11610
11616:  BCF    FA6.2
11618:  MOVF   00,W
1161A:  IORWF  FF2,F
....................                delay_ms(10); 
1161C:  MOVLW  0A
1161E:  MOVLB  7
11620:  MOVWF  x18
11622:  MOVLB  0
11624:  CALL   21D6
....................                write_eeprom(21,Sensor[0].Ajuste); 
11628:  CLRF   FAA
1162A:  MOVLW  15
1162C:  MOVWF  FA9
1162E:  MOVFF  390,FA8
11632:  BCF    FA6.6
11634:  BCF    FA6.7
11636:  BSF    FA6.2
11638:  MOVF   FF2,W
1163A:  MOVWF  00
1163C:  BCF    FF2.6
1163E:  BCF    FF2.7
11640:  MOVLB  F
11642:  MOVLW  55
11644:  MOVWF  FA7
11646:  MOVLW  AA
11648:  MOVWF  FA7
1164A:  BSF    FA6.1
1164C:  BTFSC  FA6.1
1164E:  GOTO   1164C
11652:  BCF    FA6.2
11654:  MOVF   00,W
11656:  IORWF  FF2,F
....................                delay_ms(10); 
11658:  MOVLW  0A
1165A:  MOVLB  7
1165C:  MOVWF  x18
1165E:  MOVLB  0
11660:  CALL   21D6
....................                write_eeprom(22,Sensor[0].Ajusten); 
11664:  CLRF   FAA
11666:  MOVLW  16
11668:  MOVWF  FA9
1166A:  MOVFF  391,FA8
1166E:  BCF    FA6.6
11670:  BCF    FA6.7
11672:  BSF    FA6.2
11674:  MOVF   FF2,W
11676:  MOVWF  00
11678:  BCF    FF2.6
1167A:  BCF    FF2.7
1167C:  MOVLB  F
1167E:  MOVLW  55
11680:  MOVWF  FA7
11682:  MOVLW  AA
11684:  MOVWF  FA7
11686:  BSF    FA6.1
11688:  BTFSC  FA6.1
1168A:  GOTO   11688
1168E:  BCF    FA6.2
11690:  MOVF   00,W
11692:  IORWF  FF2,F
....................                delay_ms(10); 
11694:  MOVLW  0A
11696:  MOVLB  7
11698:  MOVWF  x18
1169A:  MOVLB  0
1169C:  CALL   21D6
....................                write_eeprom(23,Sensor[1].Ajuste); 
116A0:  CLRF   FAA
116A2:  MOVLW  17
116A4:  MOVWF  FA9
116A6:  MOVFF  4F4,FA8
116AA:  BCF    FA6.6
116AC:  BCF    FA6.7
116AE:  BSF    FA6.2
116B0:  MOVF   FF2,W
116B2:  MOVWF  00
116B4:  BCF    FF2.6
116B6:  BCF    FF2.7
116B8:  MOVLB  F
116BA:  MOVLW  55
116BC:  MOVWF  FA7
116BE:  MOVLW  AA
116C0:  MOVWF  FA7
116C2:  BSF    FA6.1
116C4:  BTFSC  FA6.1
116C6:  GOTO   116C4
116CA:  BCF    FA6.2
116CC:  MOVF   00,W
116CE:  IORWF  FF2,F
....................                delay_ms(10); 
116D0:  MOVLW  0A
116D2:  MOVLB  7
116D4:  MOVWF  x18
116D6:  MOVLB  0
116D8:  CALL   21D6
....................                write_eeprom(24,Sensor[1].Ajusten); 
116DC:  CLRF   FAA
116DE:  MOVLW  18
116E0:  MOVWF  FA9
116E2:  MOVFF  4F5,FA8
116E6:  BCF    FA6.6
116E8:  BCF    FA6.7
116EA:  BSF    FA6.2
116EC:  MOVF   FF2,W
116EE:  MOVWF  00
116F0:  BCF    FF2.6
116F2:  BCF    FF2.7
116F4:  MOVLB  F
116F6:  MOVLW  55
116F8:  MOVWF  FA7
116FA:  MOVLW  AA
116FC:  MOVWF  FA7
116FE:  BSF    FA6.1
11700:  BTFSC  FA6.1
11702:  GOTO   11700
11706:  BCF    FA6.2
11708:  MOVF   00,W
1170A:  IORWF  FF2,F
....................                delay_ms(10); 
1170C:  MOVLW  0A
1170E:  MOVLB  7
11710:  MOVWF  x18
11712:  MOVLB  0
11714:  CALL   21D6
....................                write_eeprom(25,(int8)MediaMovil); 
11718:  CLRF   FAA
1171A:  MOVLW  19
1171C:  MOVWF  FA9
1171E:  MOVFF  222,FA8
11722:  BCF    FA6.6
11724:  BCF    FA6.7
11726:  BSF    FA6.2
11728:  MOVF   FF2,W
1172A:  MOVWF  00
1172C:  BCF    FF2.6
1172E:  BCF    FF2.7
11730:  MOVLB  F
11732:  MOVLW  55
11734:  MOVWF  FA7
11736:  MOVLW  AA
11738:  MOVWF  FA7
1173A:  BSF    FA6.1
1173C:  BTFSC  FA6.1
1173E:  GOTO   1173C
11742:  BCF    FA6.2
11744:  MOVF   00,W
11746:  IORWF  FF2,F
....................                delay_ms(10); 
11748:  MOVLW  0A
1174A:  MOVLB  7
1174C:  MOVWF  x18
1174E:  MOVLB  0
11750:  CALL   21D6
....................                write_eeprom(26,(int8)Tciclo); 
11754:  MOVFF  237,717
11758:  MOVFF  236,716
1175C:  MOVFF  235,715
11760:  MOVFF  234,714
11764:  CALL   5424
11768:  MOVFF  01,702
1176C:  CLRF   FAA
1176E:  MOVLW  1A
11770:  MOVWF  FA9
11772:  MOVFF  702,FA8
11776:  BCF    FA6.6
11778:  BCF    FA6.7
1177A:  BSF    FA6.2
1177C:  MOVF   FF2,W
1177E:  MOVWF  00
11780:  BCF    FF2.6
11782:  BCF    FF2.7
11784:  MOVLB  F
11786:  MOVLW  55
11788:  MOVWF  FA7
1178A:  MOVLW  AA
1178C:  MOVWF  FA7
1178E:  BSF    FA6.1
11790:  BTFSC  FA6.1
11792:  GOTO   11790
11796:  BCF    FA6.2
11798:  MOVF   00,W
1179A:  IORWF  FF2,F
....................                delay_ms(10); 
1179C:  MOVLW  0A
1179E:  MOVLB  7
117A0:  MOVWF  x18
117A2:  MOVLB  0
117A4:  CALL   21D6
....................                write_eeprom(31,Atmosferica); 
117A8:  CLRF   FAA
117AA:  MOVLW  1F
117AC:  MOVWF  FA9
117AE:  MOVFF  2F6,FA8
117B2:  BCF    FA6.6
117B4:  BCF    FA6.7
117B6:  BSF    FA6.2
117B8:  MOVF   FF2,W
117BA:  MOVWF  00
117BC:  BCF    FF2.6
117BE:  BCF    FF2.7
117C0:  MOVLB  F
117C2:  MOVLW  55
117C4:  MOVWF  FA7
117C6:  MOVLW  AA
117C8:  MOVWF  FA7
117CA:  BSF    FA6.1
117CC:  BTFSC  FA6.1
117CE:  GOTO   117CC
117D2:  BCF    FA6.2
117D4:  MOVF   00,W
117D6:  IORWF  FF2,F
....................                delay_ms(10); 
117D8:  MOVLW  0A
117DA:  MOVLB  7
117DC:  MOVWF  x18
117DE:  MOVLB  0
117E0:  CALL   21D6
....................                write_eeprom(32,Tapertura); 
117E4:  CLRF   FAA
117E6:  MOVLW  20
117E8:  MOVWF  FA9
117EA:  MOVFF  2A6,FA8
117EE:  BCF    FA6.6
117F0:  BCF    FA6.7
117F2:  BSF    FA6.2
117F4:  MOVF   FF2,W
117F6:  MOVWF  00
117F8:  BCF    FF2.6
117FA:  BCF    FF2.7
117FC:  MOVLB  F
117FE:  MOVLW  55
11800:  MOVWF  FA7
11802:  MOVLW  AA
11804:  MOVWF  FA7
11806:  BSF    FA6.1
11808:  BTFSC  FA6.1
1180A:  GOTO   11808
1180E:  BCF    FA6.2
11810:  MOVF   00,W
11812:  IORWF  FF2,F
....................                delay_ms(10); 
11814:  MOVLW  0A
11816:  MOVLB  7
11818:  MOVWF  x18
1181A:  MOVLB  0
1181C:  CALL   21D6
....................                write_eeprom(50,pulsosConfigurados); 
11820:  CLRF   FAA
11822:  MOVLW  32
11824:  MOVWF  FA9
11826:  MOVFF  27F,FA8
1182A:  BCF    FA6.6
1182C:  BCF    FA6.7
1182E:  BSF    FA6.2
11830:  MOVF   FF2,W
11832:  MOVWF  00
11834:  BCF    FF2.6
11836:  BCF    FF2.7
11838:  MOVLB  F
1183A:  MOVLW  55
1183C:  MOVWF  FA7
1183E:  MOVLW  AA
11840:  MOVWF  FA7
11842:  BSF    FA6.1
11844:  BTFSC  FA6.1
11846:  GOTO   11844
1184A:  BCF    FA6.2
1184C:  MOVF   00,W
1184E:  IORWF  FF2,F
....................                delay_ms(10); 
11850:  MOVLW  0A
11852:  MOVLB  7
11854:  MOVWF  x18
11856:  MOVLB  0
11858:  CALL   21D6
....................                write_eeprom(51,vacioTest); 
1185C:  CLRF   FAA
1185E:  MOVLW  33
11860:  MOVWF  FA9
11862:  MOVFF  280,FA8
11866:  BCF    FA6.6
11868:  BCF    FA6.7
1186A:  BSF    FA6.2
1186C:  MOVF   FF2,W
1186E:  MOVWF  00
11870:  BCF    FF2.6
11872:  BCF    FF2.7
11874:  MOVLB  F
11876:  MOVLW  55
11878:  MOVWF  FA7
1187A:  MOVLW  AA
1187C:  MOVWF  FA7
1187E:  BSF    FA6.1
11880:  BTFSC  FA6.1
11882:  GOTO   11880
11886:  BCF    FA6.2
11888:  MOVF   00,W
1188A:  IORWF  FF2,F
....................                delay_ms(10); 
1188C:  MOVLW  0A
1188E:  MOVLB  7
11890:  MOVWF  x18
11892:  MOVLB  0
11894:  CALL   21D6
....................                write_eeprom(52,vacioCiclo); 
11898:  CLRF   FAA
1189A:  MOVLW  34
1189C:  MOVWF  FA9
1189E:  MOVFF  281,FA8
118A2:  BCF    FA6.6
118A4:  BCF    FA6.7
118A6:  BSF    FA6.2
118A8:  MOVF   FF2,W
118AA:  MOVWF  00
118AC:  BCF    FF2.6
118AE:  BCF    FF2.7
118B0:  MOVLB  F
118B2:  MOVLW  55
118B4:  MOVWF  FA7
118B6:  MOVLW  AA
118B8:  MOVWF  FA7
118BA:  BSF    FA6.1
118BC:  BTFSC  FA6.1
118BE:  GOTO   118BC
118C2:  BCF    FA6.2
118C4:  MOVF   00,W
118C6:  IORWF  FF2,F
....................                delay_ms(10); 
118C8:  MOVLW  0A
118CA:  MOVLB  7
118CC:  MOVWF  x18
118CE:  MOVLB  0
118D0:  CALL   21D6
....................                histe=(int8)(Histeresis*10); 
118D4:  MOVFF  203,71B
118D8:  MOVFF  202,71A
118DC:  MOVFF  201,719
118E0:  MOVFF  200,718
118E4:  MOVLB  7
118E6:  CLRF   x1F
118E8:  CLRF   x1E
118EA:  MOVLW  20
118EC:  MOVWF  x1D
118EE:  MOVLW  82
118F0:  MOVWF  x1C
118F2:  MOVLB  0
118F4:  CALL   47E8
118F8:  MOVFF  03,717
118FC:  MOVFF  02,716
11900:  MOVFF  01,715
11904:  MOVFF  00,714
11908:  CALL   5424
1190C:  MOVFF  01,22A
....................                write_eeprom(53,histe); 
11910:  CLRF   FAA
11912:  MOVLW  35
11914:  MOVWF  FA9
11916:  MOVFF  22A,FA8
1191A:  BCF    FA6.6
1191C:  BCF    FA6.7
1191E:  BSF    FA6.2
11920:  MOVF   FF2,W
11922:  MOVWF  00
11924:  BCF    FF2.6
11926:  BCF    FF2.7
11928:  MOVLB  F
1192A:  MOVLW  55
1192C:  MOVWF  FA7
1192E:  MOVLW  AA
11930:  MOVWF  FA7
11932:  BSF    FA6.1
11934:  BTFSC  FA6.1
11936:  GOTO   11934
1193A:  BCF    FA6.2
1193C:  MOVF   00,W
1193E:  IORWF  FF2,F
....................                delay_ms(10); 
11940:  MOVLW  0A
11942:  MOVLB  7
11944:  MOVWF  x18
11946:  MOVLB  0
11948:  CALL   21D6
....................                desviacion=(int8)(desvio*10); 
1194C:  MOVFF  257,71B
11950:  MOVFF  256,71A
11954:  MOVFF  255,719
11958:  MOVFF  254,718
1195C:  MOVLB  7
1195E:  CLRF   x1F
11960:  CLRF   x1E
11962:  MOVLW  20
11964:  MOVWF  x1D
11966:  MOVLW  82
11968:  MOVWF  x1C
1196A:  MOVLB  0
1196C:  CALL   47E8
11970:  MOVFF  03,717
11974:  MOVFF  02,716
11978:  MOVFF  01,715
1197C:  MOVFF  00,714
11980:  CALL   5424
11984:  MOVFF  01,22B
....................                write_eeprom(54,desviacion); 
11988:  CLRF   FAA
1198A:  MOVLW  36
1198C:  MOVWF  FA9
1198E:  MOVFF  22B,FA8
11992:  BCF    FA6.6
11994:  BCF    FA6.7
11996:  BSF    FA6.2
11998:  MOVF   FF2,W
1199A:  MOVWF  00
1199C:  BCF    FF2.6
1199E:  BCF    FF2.7
119A0:  MOVLB  F
119A2:  MOVLW  55
119A4:  MOVWF  FA7
119A6:  MOVLW  AA
119A8:  MOVWF  FA7
119AA:  BSF    FA6.1
119AC:  BTFSC  FA6.1
119AE:  GOTO   119AC
119B2:  BCF    FA6.2
119B4:  MOVF   00,W
119B6:  IORWF  FF2,F
....................                delay_ms(10); 
119B8:  MOVLW  0A
119BA:  MOVLB  7
119BC:  MOVWF  x18
119BE:  MOVLB  0
119C0:  CALL   21D6
....................                GuardaEEPROM=ON; 
119C4:  MOVLB  1
119C6:  BSF    x2D.1
....................             } 
....................             printf("page Menu"); 
119C8:  MOVLW  60
119CA:  MOVWF  FF6
119CC:  MOVLW  21
119CE:  MOVWF  FF7
119D0:  MOVLW  00
119D2:  MOVWF  FF8
119D4:  MOVLB  0
119D6:  CALL   4720
....................             SendDataDisplay(); 
119DA:  CALL   4752
....................             //BorraBuffer(); 
....................          } 
....................       } 
....................       printf("fecha.txt=\"Fecha:%02u/%02u/20%02u    Hora: %02u:%02u\"",Dia,Mes,Year,Hora,Minuto); 
119DE:  MOVLW  6A
119E0:  MOVWF  FF6
119E2:  MOVLW  21
119E4:  MOVWF  FF7
119E6:  MOVLW  00
119E8:  MOVWF  FF8
119EA:  MOVLW  11
119EC:  MOVLB  7
119EE:  MOVWF  x08
119F0:  MOVLB  0
119F2:  CALL   628E
119F6:  MOVFF  2F0,708
119FA:  MOVLW  01
119FC:  MOVLB  7
119FE:  MOVWF  x09
11A00:  MOVLB  0
11A02:  CALL   6312
11A06:  MOVLW  2F
11A08:  BTFSS  F9E.4
11A0A:  GOTO   11A08
11A0E:  MOVWF  FAD
11A10:  MOVFF  2EF,708
11A14:  MOVLW  01
11A16:  MOVLB  7
11A18:  MOVWF  x09
11A1A:  MOVLB  0
11A1C:  CALL   6312
11A20:  MOVLW  2F
11A22:  BTFSS  F9E.4
11A24:  GOTO   11A22
11A28:  MOVWF  FAD
11A2A:  MOVLW  32
11A2C:  BTFSS  F9E.4
11A2E:  GOTO   11A2C
11A32:  MOVWF  FAD
11A34:  MOVLW  30
11A36:  BTFSS  F9E.4
11A38:  GOTO   11A36
11A3C:  MOVWF  FAD
11A3E:  MOVFF  2EE,708
11A42:  MOVLW  01
11A44:  MOVLB  7
11A46:  MOVWF  x09
11A48:  MOVLB  0
11A4A:  CALL   6312
11A4E:  MOVLW  8B
11A50:  MOVWF  FF6
11A52:  MOVLW  21
11A54:  MOVWF  FF7
11A56:  MOVLW  00
11A58:  MOVWF  FF8
11A5A:  MOVLW  0A
11A5C:  MOVLB  7
11A5E:  MOVWF  x08
11A60:  MOVLB  0
11A62:  CALL   628E
11A66:  MOVFF  2F1,708
11A6A:  MOVLW  01
11A6C:  MOVLB  7
11A6E:  MOVWF  x09
11A70:  MOVLB  0
11A72:  CALL   6312
11A76:  MOVLW  3A
11A78:  BTFSS  F9E.4
11A7A:  GOTO   11A78
11A7E:  MOVWF  FAD
11A80:  MOVFF  2F2,708
11A84:  MOVLW  01
11A86:  MOVLB  7
11A88:  MOVWF  x09
11A8A:  MOVLB  0
11A8C:  CALL   6312
11A90:  MOVLW  22
11A92:  BTFSS  F9E.4
11A94:  GOTO   11A92
11A98:  MOVWF  FAD
....................       SendDataDisplay();  
11A9A:  CALL   4752
....................     } 
.................... //_--------------------------------------------------------------------------------------------------------------------------------------------------------        
....................  
....................    } 
11A9E:  MOVLB  0
11AA0:  GOTO   107FE
.................... } 
11AA4:  SLEEP 

Configuration Fuses:
   Word  1: 0200   HS NOIESO NOFCMEN
   Word  2: 1908   NOBROWNOUT WDT BORV42 PUT WDT4096
   Word  3: 0000   NOPBADEN NOLPT1OSC NOMCLR
   Word  4: 00B0   NOSTVREN NODEBUG NOLVP NOXINST BBSIZ4K
   Word  5: C03F   NOPROTECT NOCPD NOCPB
   Word  6: E03F   NOWRT NOWRTD NOWRTC NOWRTB
   Word  7: 403F   NOEBTR NOEBTRB
