CCS PCH C Compiler, Version 4.104, 5967               26-sept.-18 12:30

               Filename: H:\JP\JP\Laboratorio\Autoclave\Autoclave Horizontal\Sin Precamara\2018\Autoclave 23L-V3.1  Handler #004587845\Firmware V4.0\GLCD_Controller\GLCD_Controller.lst

               ROM used: 51804 bytes (53%)
                         Largest free fragment is 32768
               RAM used: 1841 (55%) at main() level
                         1895 (57%) worst case
               Stack:    7 worst case (6 in main + 1 for interrupts)

*
00000:  GOTO   4B42
*
00008:  MOVWF  04
0000A:  MOVFF  FD8,05
0000E:  MOVFF  FE0,06
00012:  MOVLB  0
00014:  MOVFF  FE9,0C
00018:  MOVFF  FEA,07
0001C:  MOVFF  FE1,08
00020:  MOVFF  FE2,09
00024:  MOVFF  FD9,0A
00028:  MOVFF  FDA,0B
0002C:  MOVFF  FF3,12
00030:  MOVFF  FF4,13
00034:  MOVFF  FFA,14
00038:  MOVFF  FFB,15
0003C:  MOVFF  00,0E
00040:  MOVFF  01,0F
00044:  MOVFF  02,10
00048:  MOVFF  03,11
0004C:  BTFSS  FF2.5
0004E:  GOTO   0058
00052:  BTFSC  FF2.2
00054:  GOTO   15B0
00058:  BTFSS  F9D.0
0005A:  GOTO   0064
0005E:  BTFSC  F9E.0
00060:  GOTO   1618
00064:  MOVFF  0E,00
00068:  MOVFF  0F,01
0006C:  MOVFF  10,02
00070:  MOVFF  11,03
00074:  MOVFF  0C,FE9
00078:  MOVFF  07,FEA
0007C:  BSF    07.7
0007E:  MOVFF  08,FE1
00082:  MOVFF  09,FE2
00086:  MOVFF  0A,FD9
0008A:  MOVFF  0B,FDA
0008E:  MOVFF  12,FF3
00092:  MOVFF  13,FF4
00096:  MOVFF  14,FFA
0009A:  MOVFF  15,FFB
0009E:  MOVF   04,W
000A0:  MOVFF  06,FE0
000A4:  MOVFF  05,FD8
000A8:  RETFIE 0
.................... //Falta crear menu de ajuste de variables y de norma CFR21 
....................  
.................... #include <18F4685.h> 
.................... //////// Standard Header file for the PIC18F4685 device //////////////// 
.................... #device PIC18F4685 
.................... #list 
....................  
.................... #device adc=10 
.................... #fuses HS,NOWDT,NOPROTECT,NOLVP,NODEBUG,NOSTVREN,NOPUT,NOCPD,NOWRT,NOIESO,NOFCMEN,NOPBADEN,NOWRTC,NOWRTB,NOEBTR,NOEBTRB,NOCPB,NOXINST,NOLPT1OSC,NOMCLR 
.................... #use delay(clock=20000000) 
*
0174A:  MOVLW  07
0174C:  MOVWF  FEA
0174E:  MOVLW  33
01750:  MOVWF  FE9
01752:  MOVF   FEF,W
01754:  BZ    1770
01756:  MOVLW  06
01758:  MOVWF  01
0175A:  CLRF   00
0175C:  DECFSZ 00,F
0175E:  BRA    175C
01760:  DECFSZ 01,F
01762:  BRA    175A
01764:  MOVLW  7B
01766:  MOVWF  00
01768:  DECFSZ 00,F
0176A:  BRA    1768
0176C:  DECFSZ FEF,F
0176E:  BRA    1756
01770:  RETLW  00
.................... #use i2c(Master,slow,sda=PIN_C4,scl=PIN_C3) 
*
02BB2:  MOVLW  08
02BB4:  MOVWF  01
02BB6:  MOVLW  05
02BB8:  MOVWF  00
02BBA:  DECFSZ 00,F
02BBC:  BRA    2BBA
02BBE:  BCF    F8B.3
02BC0:  BCF    F94.3
02BC2:  MOVLW  06
02BC4:  MOVWF  00
02BC6:  DECFSZ 00,F
02BC8:  BRA    2BC6
02BCA:  MOVLB  7
02BCC:  RLCF   x31,F
02BCE:  BCF    F8B.4
02BD0:  BTFSC  FD8.0
02BD2:  BSF    F94.4
02BD4:  BTFSS  FD8.0
02BD6:  BCF    F94.4
02BD8:  BSF    F94.3
02BDA:  BTFSS  F82.3
02BDC:  BRA    2BDA
02BDE:  DECFSZ 01,F
02BE0:  BRA    2BE4
02BE2:  BRA    2BE8
02BE4:  MOVLB  0
02BE6:  BRA    2BB6
02BE8:  MOVLW  05
02BEA:  MOVWF  00
02BEC:  DECFSZ 00,F
02BEE:  BRA    2BEC
02BF0:  BCF    F8B.3
02BF2:  BCF    F94.3
02BF4:  NOP   
02BF6:  BSF    F94.4
02BF8:  MOVLW  06
02BFA:  MOVWF  00
02BFC:  DECFSZ 00,F
02BFE:  BRA    2BFC
02C00:  MOVLW  06
02C02:  MOVWF  00
02C04:  DECFSZ 00,F
02C06:  BRA    2C04
02C08:  BSF    F94.3
02C0A:  BTFSS  F82.3
02C0C:  BRA    2C0A
02C0E:  CLRF   01
02C10:  MOVLW  06
02C12:  MOVWF  00
02C14:  DECFSZ 00,F
02C16:  BRA    2C14
02C18:  BTFSC  F82.4
02C1A:  BSF    01.0
02C1C:  BCF    F8B.3
02C1E:  BCF    F94.3
02C20:  BCF    F8B.4
02C22:  BCF    F94.4
02C24:  MOVLB  0
02C26:  RETLW  00
*
02CC2:  MOVLW  08
02CC4:  MOVLB  7
02CC6:  MOVWF  x31
02CC8:  MOVFF  00,732
02CCC:  BSF    F94.4
02CCE:  MOVLW  06
02CD0:  MOVWF  00
02CD2:  DECFSZ 00,F
02CD4:  BRA    2CD2
02CD6:  BSF    F94.3
02CD8:  BTFSS  F82.3
02CDA:  BRA    2CD8
02CDC:  BTFSC  F82.4
02CDE:  BSF    FD8.0
02CE0:  BTFSS  F82.4
02CE2:  BCF    FD8.0
02CE4:  RLCF   01,F
02CE6:  MOVLW  05
02CE8:  MOVWF  00
02CEA:  DECFSZ 00,F
02CEC:  BRA    2CEA
02CEE:  BCF    F94.3
02CF0:  BCF    F8B.3
02CF2:  DECFSZ x31,F
02CF4:  BRA    2CCC
02CF6:  BSF    F94.4
02CF8:  MOVLW  06
02CFA:  MOVWF  00
02CFC:  DECFSZ 00,F
02CFE:  BRA    2CFC
02D00:  BCF    F8B.4
02D02:  MOVF   x32,W
02D04:  BTFSS  FD8.2
02D06:  BCF    F94.4
02D08:  NOP   
02D0A:  BSF    F94.3
02D0C:  BTFSS  F82.3
02D0E:  BRA    2D0C
02D10:  MOVLW  05
02D12:  MOVWF  00
02D14:  DECFSZ 00,F
02D16:  BRA    2D14
02D18:  BCF    F8B.3
02D1A:  BCF    F94.3
02D1C:  MOVLW  06
02D1E:  MOVWF  00
02D20:  DECFSZ 00,F
02D22:  BRA    2D20
02D24:  BCF    F8B.4
02D26:  BCF    F94.4
02D28:  MOVLB  0
02D2A:  GOTO   3268 (RETURN)
.................... #include "HDM64GS12.c" 
.................... ///////////////////////////////////////////////////////////////////////// 
.................... ////                           HDM64GS12.c                           //// 
.................... ////                                                                 //// 
.................... //// This file contains drivers for using a Hantronix HDM64GS12 with //// 
.................... //// a KS0108 display controller. The HDM64GS12 is 128 by 64 pixels. //// 
.................... //// The driver treats the upper left pixel as (0,0).                //// 
.................... ////                                                                 //// 
.................... //// Use #define FAST_GLCD if the target chip has at least 1k of RAM //// 
.................... //// to decrease the time it takes to update the display.            //// 
.................... //// glcd_update() must then be called to update the display after   //// 
.................... //// changing the pixel information.                                 //// 
.................... //// See ex_glcd.c for suggested usage.                              //// 
.................... //// See KS0108.c for controlling a single 64 by 64 display          //// 
.................... ///////////////////////////////////////////////////////////////////////// 
.................... ////                                                                 //// 
.................... //// LCD Pin connections:                                            //// 
.................... //// (These can be changed as needed in the following defines).      //// 
.................... ////  * 1: VSS is connected to GND                                   //// 
.................... ////  * 2: VDD is connected to +5V                                   //// 
.................... ////  * 3: V0  - LCD operating voltage (Constrast adjustment)        //// 
.................... ////  * 4: D/I - Data or Instruction is connected to B2              //// 
.................... ////  * 5: R/W - Read or Write is connected to B4                    //// 
.................... ////  * 6: Enable is connected to B5                                 //// 
.................... ////  *7-14: Data Bus 0 to 7 is connected to port d                  //// 
.................... ////  *15: Chip Select 1 is connected to B0                          //// 
.................... ////  *16: Chip Select 2 is connected to B1                          //// 
.................... ////  *17: Reset is connected to C0                                  //// 
.................... ////  *18: Negative voltage is also connected to the 20k Ohm POT     //// 
.................... ////  *19: Positive voltage for LED backlight is connected to +5V    //// 
.................... ////  *20: Negavtive voltage for LED backlight is connected to GND   //// 
.................... ////                                                                 //// 
.................... ///////////////////////////////////////////////////////////////////////// 
.................... ////                                                                 //// 
.................... ////  glcd_init(mode)                                                //// 
.................... ////     * Must be called before any other function.                 //// 
.................... ////       - mode can be ON or OFF to turn the LCD on or off         //// 
.................... ////                                                                 //// 
.................... ////  glcd_pixel(x,y,color)                                          //// 
.................... ////     * Sets the pixel to the given color.                        //// 
.................... ////       - color can be ON or OFF                                  //// 
.................... ////                                                                 //// 
.................... ////  glcd_fillScreen(color)                                         //// 
.................... ////     * Fills the entire LCD with the given color.                //// 
.................... ////       - color can be ON or OFF                                  //// 
.................... ////                                                                 //// 
.................... ////  glcd_update()                                                  //// 
.................... ////     * Write the display data stored in RAM to the LCD           //// 
.................... ////     * Only available if FAST_GLCD is defined                    //// 
.................... ////                                                                 //// 
.................... ///////////////////////////////////////////////////////////////////////// 
.................... ////        (C) Copyright 1996, 2004 Custom Computer Services        //// 
.................... //// This source code may only be used by licensed users of the CCS  //// 
.................... //// C compiler.  This source code may only be distributed to other  //// 
.................... //// licensed users of the CCS C compiler.  No other use,            //// 
.................... //// reproduction or distribution is permitted without written       //// 
.................... //// permission.  Derivative programs created using this software    //// 
.................... //// in object code form are not restricted in any way.              //// 
.................... ///////////////////////////////////////////////////////////////////////// 
....................  
....................  
....................  
.................... #ifndef HDM64GS12 
.................... #define HDM64GS12 
....................  
.................... #ifndef FAST_GLCD 
.................... #define FAST_GLCD 
....................  
.................... #ifndef GLCD_WIDTH 
.................... #define GLCD_WIDTH   128 
.................... #endif 
....................  
.................... #ifndef GLCD_CS1 
.................... #define GLCD_CS1     PIN_B0   // Chip Selection 1 
.................... #endif 
....................  
.................... #ifndef GLCD_CS2 
.................... #define GLCD_CS2     PIN_B1   // Chip Selection 2 
.................... #endif 
....................  
.................... #ifndef GLCD_DI 
.................... #define GLCD_DI      PIN_B5   // Data or Instruction input 
.................... #endif 
....................  
.................... #ifndef GLCD_RW 
.................... #define GLCD_RW      PIN_B4   // Read/Write 
.................... #endif 
....................  
.................... #ifndef GLCD_E 
.................... #define GLCD_E       PIN_B3   // Enable 
.................... #endif 
....................  
.................... #ifndef GLCD_RST 
.................... #define GLCD_RST     PIN_B2   // Reset 
.................... #endif 
....................  
.................... #define GLCD_LEFT    0 
.................... #define GLCD_RIGHT   1 
....................  
.................... #ifndef ON 
.................... #define ON           1 
.................... #endif 
....................  
.................... #ifndef OFF 
.................... #define OFF          0 
.................... #endif 
....................  
.................... ///////////////////////////////////////////////////////////////////////// 
.................... // Function Prototypes 
.................... ///////////////////////////////////////////////////////////////////////// 
.................... void glcd_init(int1 mode); 
.................... void glcd_pixel(int8 x, int8 y, int1 color); 
.................... void glcd_fillScreen(int1 color); 
.................... void glcd_writeByte(int1 side, BYTE data); 
.................... BYTE glcd_readByte(int1 side); 
.................... void glcd_update(); 
.................... ///////////////////////////////////////////////////////////////////////// 
....................  
.................... #ifdef FAST_GLCD 
.................... struct 
.................... { 
....................    int8 left[512]; 
....................    int8 right[512]; 
.................... } displayData; 
.................... #endif 
....................  
....................  
.................... // Purpose:       Initialize the LCD. 
.................... //                Call before using any other LCD function. 
.................... // Inputs:        OFF - Turns the LCD off 
.................... //                ON  - Turns the LCD on 
.................... void glcd_init(int1 mode) 
.................... { 
....................    // Initialze some pins 
....................    output_high(GLCD_RST); 
*
01D40:  BCF    F93.2
01D42:  BSF    F8A.2
....................    output_low(GLCD_E); 
01D44:  BCF    F93.3
01D46:  BCF    F8A.3
....................    output_low(GLCD_CS1); 
01D48:  BCF    F93.0
01D4A:  BCF    F8A.0
....................    output_low(GLCD_CS2); 
01D4C:  BCF    F93.1
01D4E:  BCF    F8A.1
....................  
....................    output_low(GLCD_DI);                 // Set for instruction 
01D50:  BCF    F93.5
01D52:  BCF    F8A.5
....................    glcd_writeByte(GLCD_LEFT,  0xC0);    // Specify first RAM line at the top 
01D54:  MOVLB  7
01D56:  CLRF   x45
01D58:  MOVLW  C0
01D5A:  MOVWF  x46
01D5C:  MOVLB  0
01D5E:  RCALL  1BF8
....................    glcd_writeByte(GLCD_RIGHT, 0xC0);    //   of the screen 
01D60:  MOVLW  01
01D62:  MOVLB  7
01D64:  MOVWF  x45
01D66:  MOVLW  C0
01D68:  MOVWF  x46
01D6A:  MOVLB  0
01D6C:  RCALL  1BF8
....................    glcd_writeByte(GLCD_LEFT,  0x40);    // Set the column address to 0 
01D6E:  MOVLB  7
01D70:  CLRF   x45
01D72:  MOVLW  40
01D74:  MOVWF  x46
01D76:  MOVLB  0
01D78:  RCALL  1BF8
....................    glcd_writeByte(GLCD_RIGHT, 0x40); 
01D7A:  MOVLW  01
01D7C:  MOVLB  7
01D7E:  MOVWF  x45
01D80:  MOVLW  40
01D82:  MOVWF  x46
01D84:  MOVLB  0
01D86:  RCALL  1BF8
....................    glcd_writeByte(GLCD_LEFT,  0xB8);    // Set the page address to 0 
01D88:  MOVLB  7
01D8A:  CLRF   x45
01D8C:  MOVLW  B8
01D8E:  MOVWF  x46
01D90:  MOVLB  0
01D92:  RCALL  1BF8
....................    glcd_writeByte(GLCD_RIGHT, 0xB8); 
01D94:  MOVLW  01
01D96:  MOVLB  7
01D98:  MOVWF  x45
01D9A:  MOVLW  B8
01D9C:  MOVWF  x46
01D9E:  MOVLB  0
01DA0:  RCALL  1BF8
....................  
....................    if(mode == ON) 
01DA2:  MOVLB  7
01DA4:  DECFSZ x2D,W
01DA6:  BRA    1DC4
....................    { 
....................       glcd_writeByte(GLCD_LEFT,  0x3F); // Turn the display on 
01DA8:  CLRF   x45
01DAA:  MOVLW  3F
01DAC:  MOVWF  x46
01DAE:  MOVLB  0
01DB0:  RCALL  1BF8
....................       glcd_writeByte(GLCD_RIGHT, 0x3F); 
01DB2:  MOVLW  01
01DB4:  MOVLB  7
01DB6:  MOVWF  x45
01DB8:  MOVLW  3F
01DBA:  MOVWF  x46
01DBC:  MOVLB  0
01DBE:  RCALL  1BF8
....................    } 
....................    else 
01DC0:  BRA    1DDC
01DC2:  MOVLB  7
....................    { 
....................       glcd_writeByte(GLCD_LEFT,  0x3E); // Turn the display off 
01DC4:  CLRF   x45
01DC6:  MOVLW  3E
01DC8:  MOVWF  x46
01DCA:  MOVLB  0
01DCC:  RCALL  1BF8
....................       glcd_writeByte(GLCD_RIGHT, 0x3E); 
01DCE:  MOVLW  01
01DD0:  MOVLB  7
01DD2:  MOVWF  x45
01DD4:  MOVLW  3E
01DD6:  MOVWF  x46
01DD8:  MOVLB  0
01DDA:  RCALL  1BF8
....................    } 
....................  
....................    glcd_fillScreen(OFF);                // Clear the display 
01DDC:  MOVLB  7
01DDE:  CLRF   x2E
01DE0:  MOVLB  0
01DE2:  RCALL  1C2E
....................  
....................    #ifdef FAST_GLCD 
....................    glcd_update(); 
01DE4:  RCALL  1C88
....................    #endif 
.................... } 
01DE6:  RETLW  00
....................  
....................  
.................... // Purpose:    Update the LCD with data from the display arrays 
.................... #ifdef FAST_GLCD 
.................... void glcd_update() 
.................... { 
....................    int8 i, j; 
....................    int8 *p1, *p2; 
....................  
....................    p1 = displayData.left; 
*
01C88:  MOVLB  7
01C8A:  CLRF   x41
01C8C:  MOVLW  17
01C8E:  MOVWF  x40
....................    p2 = displayData.right; 
01C90:  MOVLW  02
01C92:  MOVWF  x43
01C94:  MOVLW  17
01C96:  MOVWF  x42
....................  
....................    // Loop through the vertical pages 
....................    for(i = 0; i < 8; ++i) 
01C98:  CLRF   x3E
01C9A:  MOVF   x3E,W
01C9C:  SUBLW  07
01C9E:  BNC   1D3C
....................    { 
....................       output_low(GLCD_DI);                      // Set for instruction 
01CA0:  BCF    F93.5
01CA2:  BCF    F8A.5
....................       glcd_writeByte(GLCD_LEFT, 0x40);          // Set horizontal address to 0 
01CA4:  CLRF   x45
01CA6:  MOVLW  40
01CA8:  MOVWF  x46
01CAA:  MOVLB  0
01CAC:  RCALL  1BF8
....................       glcd_writeByte(GLCD_RIGHT, 0x40); 
01CAE:  MOVLW  01
01CB0:  MOVLB  7
01CB2:  MOVWF  x45
01CB4:  MOVLW  40
01CB6:  MOVWF  x46
01CB8:  MOVLB  0
01CBA:  RCALL  1BF8
....................       glcd_writeByte(GLCD_LEFT, i | 0xB8);      // Set page address 
01CBC:  MOVLB  7
01CBE:  MOVF   x3E,W
01CC0:  IORLW  B8
01CC2:  MOVWF  x44
01CC4:  CLRF   x45
01CC6:  MOVWF  x46
01CC8:  MOVLB  0
01CCA:  RCALL  1BF8
....................       glcd_writeByte(GLCD_RIGHT, i | 0xB8); 
01CCC:  MOVLB  7
01CCE:  MOVF   x3E,W
01CD0:  IORLW  B8
01CD2:  MOVWF  x44
01CD4:  MOVLW  01
01CD6:  MOVWF  x45
01CD8:  MOVFF  744,746
01CDC:  MOVLB  0
01CDE:  RCALL  1BF8
....................       output_high(GLCD_DI);                     // Set for data 
01CE0:  BCF    F93.5
01CE2:  BSF    F8A.5
....................  
....................       // Loop through the horizontal sections 
....................       for(j = 0; j < 64; ++j) 
01CE4:  MOVLB  7
01CE6:  CLRF   x3F
01CE8:  MOVF   x3F,W
01CEA:  SUBLW  3F
01CEC:  BNC   1D38
....................       { 
....................          glcd_writeByte(GLCD_LEFT, *p1++);      // Turn pixels on or off 
01CEE:  MOVFF  741,03
01CF2:  MOVF   x40,W
01CF4:  INCF   x40,F
01CF6:  BTFSC  FD8.2
01CF8:  INCF   x41,F
01CFA:  MOVWF  FE9
01CFC:  MOVFF  03,FEA
01D00:  MOVFF  FEF,744
01D04:  CLRF   x45
01D06:  MOVFF  744,746
01D0A:  MOVLB  0
01D0C:  RCALL  1BF8
....................          glcd_writeByte(GLCD_RIGHT, *p2++);     // Turn pixels on or off 
01D0E:  MOVLB  7
01D10:  MOVFF  743,03
01D14:  MOVF   x42,W
01D16:  INCF   x42,F
01D18:  BTFSC  FD8.2
01D1A:  INCF   x43,F
01D1C:  MOVWF  FE9
01D1E:  MOVFF  03,FEA
01D22:  MOVFF  FEF,744
01D26:  MOVLW  01
01D28:  MOVWF  x45
01D2A:  MOVFF  744,746
01D2E:  MOVLB  0
01D30:  RCALL  1BF8
....................       } 
01D32:  MOVLB  7
01D34:  INCF   x3F,F
01D36:  BRA    1CE8
....................    } 
01D38:  INCF   x3E,F
01D3A:  BRA    1C9A
.................... } 
01D3C:  MOVLB  0
01D3E:  RETLW  00
.................... #endif 
....................  
....................  
.................... // Purpose:    Turn a pixel on a graphic LCD on or off 
.................... // Inputs:     1) x - the x coordinate of the pixel 
.................... //             2) y - the y coordinate of the pixel 
.................... //             3) color - ON or OFF 
.................... void glcd_pixel(int8 x, int8 y, int1 color) 
.................... #ifdef FAST_GLCD 
.................... { 
....................    int8* p; 
....................    int16 temp; 
....................    temp =  y/8; 
*
01DE8:  MOVLB  7
01DEA:  CLRF   x64
01DEC:  RRCF   x5F,W
01DEE:  MOVWF  x63
01DF0:  RRCF   x63,F
01DF2:  RRCF   x63,F
01DF4:  MOVLW  1F
01DF6:  ANDWF  x63,F
....................    temp *= 64; 
01DF8:  RLCF   x63,F
01DFA:  RLCF   x64,F
01DFC:  RLCF   x63,F
01DFE:  RLCF   x64,F
01E00:  RLCF   x63,F
01E02:  RLCF   x64,F
01E04:  RLCF   x63,F
01E06:  RLCF   x64,F
01E08:  RLCF   x63,F
01E0A:  RLCF   x64,F
01E0C:  RLCF   x63,F
01E0E:  RLCF   x64,F
01E10:  MOVLW  C0
01E12:  ANDWF  x63,F
....................    temp += x; 
01E14:  MOVF   x5E,W
01E16:  ADDWF  x63,F
01E18:  MOVLW  00
01E1A:  ADDWFC x64,F
....................  
....................    if(x > 63) 
01E1C:  MOVF   x5E,W
01E1E:  SUBLW  3F
01E20:  BC    1E3C
....................    { 
....................       p = displayData.right + temp - 64; 
01E22:  MOVLW  17
01E24:  ADDWF  x63,W
01E26:  MOVWF  x65
01E28:  MOVLW  02
01E2A:  ADDWFC x64,W
01E2C:  MOVWF  x66
01E2E:  MOVLW  40
01E30:  SUBWF  x65,W
01E32:  MOVWF  x61
01E34:  MOVLW  00
01E36:  SUBWFB x66,W
01E38:  MOVWF  x62
....................    } 
....................    else 
01E3A:  BRA    1E48
....................    { 
....................       p = displayData.left + temp; 
01E3C:  MOVLW  17
01E3E:  ADDWF  x63,W
01E40:  MOVWF  x61
01E42:  MOVLW  00
01E44:  ADDWFC x64,W
01E46:  MOVWF  x62
....................    } 
....................  
....................    if(color) 
01E48:  MOVF   x60,F
01E4A:  BZ    1E76
....................    { 
....................       bit_set(*p, y%8); 
01E4C:  MOVFF  762,03
01E50:  MOVFF  761,FE9
01E54:  MOVFF  762,FEA
01E58:  MOVF   x5F,W
01E5A:  ANDLW  07
01E5C:  MOVWF  x65
01E5E:  MOVLW  01
01E60:  MOVWF  00
01E62:  MOVF   x65,W
01E64:  MOVWF  01
01E66:  BZ    1E70
01E68:  BCF    FD8.0
01E6A:  RLCF   00,F
01E6C:  DECFSZ 01,F
01E6E:  BRA    1E68
01E70:  MOVF   00,W
01E72:  IORWF  FEF,F
....................    } 
....................    else 
01E74:  BRA    1EA0
....................    { 
....................       bit_clear(*p, y%8); 
01E76:  MOVFF  762,03
01E7A:  MOVFF  761,FE9
01E7E:  MOVFF  762,FEA
01E82:  MOVF   x5F,W
01E84:  ANDLW  07
01E86:  MOVWF  x65
01E88:  MOVLW  01
01E8A:  MOVWF  00
01E8C:  MOVF   x65,W
01E8E:  MOVWF  01
01E90:  BZ    1E9A
01E92:  BCF    FD8.0
01E94:  RLCF   00,F
01E96:  DECFSZ 01,F
01E98:  BRA    1E92
01E9A:  MOVF   00,W
01E9C:  XORLW  FF
01E9E:  ANDWF  FEF,F
....................    } 
.................... } 
01EA0:  MOVLB  0
01EA2:  RETLW  00
.................... #else 
.................... { 
....................    BYTE data; 
....................    int1 side = GLCD_LEFT;  // Stores which chip to use on the LCD 
....................  
....................    if(x > 63)              // Check for first or second display area 
....................    { 
....................       x -= 64; 
....................       side = GLCD_RIGHT; 
....................    } 
....................  
....................    output_low(GLCD_DI);                         // Set for instruction 
....................    bit_clear(x,7);                              // Clear the MSB. Part of an instruction code 
....................    bit_set(x,6);                                // Set bit 6. Also part of an instruction code 
....................    glcd_writeByte(side, x);                     // Set the horizontal address 
....................    glcd_writeByte(side, (y/8 & 0xBF) | 0xB8);   // Set the vertical page address 
....................    output_high(GLCD_DI);                        // Set for data 
....................    glcd_readByte(side);                         // Need two reads to get data 
....................    data = glcd_readByte(side);                  //  at new address 
....................  
....................    if(color == ON) 
....................       bit_set(data, y%8);        // Turn the pixel on 
....................    else                          // or 
....................       bit_clear(data, y%8);      // turn the pixel off 
....................  
....................    output_low(GLCD_DI);          // Set for instruction 
....................    glcd_writeByte(side, x);      // Set the horizontal address 
....................    output_high(GLCD_DI);         // Set for data 
....................    glcd_writeByte(side, data);   // Write the pixel data 
.................... } 
.................... #endif 
....................  
....................  
.................... // Purpose:    Fill the LCD screen with the passed in color 
.................... // Inputs:     ON  - turn all the pixels on 
.................... //             OFF - turn all the pixels off 
.................... void glcd_fillScreen(int1 color) 
.................... #ifdef FAST_GLCD 
.................... { 
....................    int8  data; 
....................    int8  *p1, *p2; 
....................    int16 i; 
....................  
....................    p1 = displayData.left; 
*
01C2E:  MOVLB  7
01C30:  CLRF   x31
01C32:  MOVLW  17
01C34:  MOVWF  x30
....................    p2 = displayData.right; 
01C36:  MOVLW  02
01C38:  MOVWF  x33
01C3A:  MOVLW  17
01C3C:  MOVWF  x32
....................    data = 0xFF * color; 
01C3E:  MOVF   x2E,W
01C40:  MULLW  FF
01C42:  MOVFF  FF3,72F
....................  
....................    for(i=0; i<512; ++i) 
01C46:  CLRF   x35
01C48:  CLRF   x34
01C4A:  MOVF   x35,W
01C4C:  SUBLW  01
01C4E:  BNC   1C84
....................    { 
....................       *p1++ = data; 
01C50:  MOVFF  731,03
01C54:  MOVF   x30,W
01C56:  INCF   x30,F
01C58:  BTFSC  FD8.2
01C5A:  INCF   x31,F
01C5C:  MOVWF  FE9
01C5E:  MOVFF  03,FEA
01C62:  MOVFF  72F,FEF
....................       *p2++ = data; 
01C66:  MOVFF  733,03
01C6A:  MOVF   x32,W
01C6C:  INCF   x32,F
01C6E:  BTFSC  FD8.2
01C70:  INCF   x33,F
01C72:  MOVWF  FE9
01C74:  MOVFF  03,FEA
01C78:  MOVFF  72F,FEF
....................    } 
01C7C:  INCF   x34,F
01C7E:  BTFSC  FD8.2
01C80:  INCF   x35,F
01C82:  BRA    1C4A
.................... } 
01C84:  MOVLB  0
01C86:  RETLW  00
.................... #else 
.................... { 
....................    int8 i, j; 
....................  
....................    // Loop through the vertical pages 
....................    for(i = 0; i < 8; ++i) 
....................    { 
....................       output_low(GLCD_DI);                      // Set for instruction 
....................       glcd_writeByte(GLCD_LEFT, 0b01000000);    // Set horizontal address to 0 
....................       glcd_writeByte(GLCD_RIGHT, 0b01000000); 
....................       glcd_writeByte(GLCD_LEFT, i | 0b10111000);// Set page address 
....................       glcd_writeByte(GLCD_RIGHT, i | 0b10111000); 
....................       output_high(GLCD_DI);                     // Set for data 
....................  
....................       // Loop through the horizontal sections 
....................       for(j = 0; j < 64; ++j) 
....................       { 
....................          glcd_writeByte(GLCD_LEFT, 0xFF*color);  // Turn pixels on or off 
....................          glcd_writeByte(GLCD_RIGHT, 0xFF*color); // Turn pixels on or off 
....................       } 
....................    } 
.................... } 
.................... #endif 
....................  
....................  
.................... // Purpose:    Write a byte of data to the specified chip 
.................... // Inputs:     1) chipSelect - which chip to write the data to 
.................... //             2) data - the byte of data to write 
.................... void glcd_writeByte(int1 side, BYTE data) 
.................... { 
....................    if(side)                   // Choose which side to write to 
*
01BF8:  MOVLB  7
01BFA:  MOVF   x45,F
01BFC:  BZ    1C04
....................       output_high(GLCD_CS2); 
01BFE:  BCF    F93.1
01C00:  BSF    F8A.1
....................    else 
01C02:  BRA    1C08
....................       output_high(GLCD_CS1); 
01C04:  BCF    F93.0
01C06:  BSF    F8A.0
....................  
....................    output_low(GLCD_RW);       // Set for writing 
01C08:  BCF    F93.4
01C0A:  BCF    F8A.4
....................    output_d(data);            // Put the data on the port 
01C0C:  CLRF   F95
01C0E:  MOVFF  746,F8C
....................    delay_cycles(1); 
01C12:  NOP   
....................    output_high(GLCD_E);       // Pulse the enable pin 
01C14:  BCF    F93.3
01C16:  BSF    F8A.3
....................    delay_cycles(5); 
01C18:  BRA    1C1A
01C1A:  BRA    1C1C
01C1C:  NOP   
....................    output_low(GLCD_E); 
01C1E:  BCF    F93.3
01C20:  BCF    F8A.3
....................  
....................    output_low(GLCD_CS1);      // Reset the chip select lines 
01C22:  BCF    F93.0
01C24:  BCF    F8A.0
....................    output_low(GLCD_CS2); 
01C26:  BCF    F93.1
01C28:  BCF    F8A.1
.................... } 
01C2A:  MOVLB  0
01C2C:  RETLW  00
....................  
....................  
.................... // Purpose:    Reads a byte of data from the specified chip 
.................... // Ouputs:     A byte of data read from the chip 
.................... BYTE glcd_readByte(int1 side) 
.................... { 
....................    BYTE data;                 // Stores the data read from the LCD 
....................  
....................    set_tris_d(0xFF);          // Set port d to input 
....................    output_high(GLCD_RW);      // Set for reading 
....................  
....................    if(side)                   // Choose which side to write to 
....................       output_high(GLCD_CS2); 
....................    else 
....................       output_high(GLCD_CS1); 
....................  
....................    delay_cycles(1); 
....................    output_high(GLCD_E);       // Pulse the enable pin 
....................    delay_cycles(4); 
....................    data = input_d();          // Get the data from the display's output register 
....................    output_low(GLCD_E); 
....................  
....................    output_low(GLCD_CS1);      // Reset the chip select lines 
....................    output_low(GLCD_CS2); 
....................    return data;               // Return the read data 
.................... } 
....................  
.................... #endif 
....................  
.................... #include "GRAPHICS.c" 
.................... ///////////////////////////////////////////////////////////////////////// 
.................... ////                          graphics.c                             //// 
.................... ////                                                                 //// 
.................... ////   This file contains functions to draw lines, rectangles, bars, //// 
.................... ////   circles and text to a display. A function which draws a       //// 
.................... ////   single pixel must be defined before calling the functions in  //// 
.................... ////   this file. Call it glcd_pixel(x, y, color) where x is the     //// 
.................... ////   horizontal coordinate, y is the vertical coordinate, and      //// 
.................... ////   color is 1 bit to turn the pixel on or off.                   //// 
.................... ////                                                                 //// 
.................... ////   * Note: (0, 0) is treated as the upper left corner            //// 
.................... ////                                                                 //// 
.................... ///////////////////////////////////////////////////////////////////////// 
.................... ////                                                                 //// 
.................... ////  glcd_line(x1, y1, x2, y2, color)                               //// 
.................... ////     * Draws a line from the first point to the second point     //// 
.................... ////       with the given color                                      //// 
.................... ////       - color can be ON or OFF                                  //// 
.................... ////                                                                 //// 
.................... ////  glcd_rect(x1, y1, x2, y2, fill, color)                         //// 
.................... ////     * Draws a rectangle with one corner at point (x1,y1) and    //// 
.................... ////       the other corner at point (x2,y2)                         //// 
.................... ////       - fill can be YES or NO                                   //// 
.................... ////       - color can be ON or OFF                                  //// 
.................... ////                                                                 //// 
.................... ////  glcd_bar(x1, y1, x2, y2, width, color)                         //// 
.................... ////     * Draws a bar (wide line) from the first point to the       //// 
.................... ////       second point                                              //// 
.................... ////       - width is the number of pixels wide                      //// 
.................... ////       - color is ON or OFF                                      //// 
.................... ////                                                                 //// 
.................... ////  glcd_circle(x, y, radius, fill, color)                         //// 
.................... ////     * Draws a circle with center at (x,y)                       //// 
.................... ////       - fill can be YES or NO                                   //// 
.................... ////       - color can be ON or OFF                                  //// 
.................... ////                                                                 //// 
.................... ////  glcd_text57(x, y, textptr, size, color)                        //// 
.................... ////     * Write the null terminated text pointed to by textptr with //// 
.................... ////       the upper left coordinate of the first character at (x,y) //// 
.................... ////       Characters are 5 pixels wide and 7 pixels tall            //// 
.................... ////       - size is an integer that scales the size of the text     //// 
.................... ////       - color is ON or OFF                                      //// 
.................... ////     * Note - This function wraps characters to the next line    //// 
.................... ////              use #define GLCD_WIDTH to specify a display width  //// 
.................... ////                                                                 //// 
.................... ///////////////////////////////////////////////////////////////////////// 
.................... ////        (C) Copyright 1996, 2004 Custom Computer Services        //// 
.................... //// This source code may only be used by licensed users of the CCS  //// 
.................... //// C compiler.  This source code may only be distributed to other  //// 
.................... //// licensed users of the CCS C compiler.  No other use,            //// 
.................... //// reproduction or distribution is permitted without written       //// 
.................... //// permission.  Derivative programs created using this software    //// 
.................... //// in object code form are not restricted in any way.              //// 
.................... ///////////////////////////////////////////////////////////////////////// 
....................  
....................  
.................... ///////////////////////////////////////////////////////////////////////// 
.................... #ifndef GRAPHICS_DRAWING_FUNCTIONS 
.................... #define GRAPHICS_DRAWING_FUNCTIONS 
.................... ///////////////////////////////////////////////////////////////////////// 
....................  
....................  
.................... ///////////////////////////////////////////////////////////////////////// 
.................... #ifndef ON 
.................... #define ON  1 
.................... #endif 
....................  
.................... #ifndef OFF 
.................... #define OFF 0 
.................... #endif 
....................  
.................... #ifndef YES 
.................... #define YES 1 
.................... #endif 
....................  
.................... #ifndef NO 
.................... #define NO  0 
.................... #endif 
.................... ///////////////////////////////////////////////////////////////////////// 
....................  
....................  
.................... ///////////////////////////////////////////////////////////////////////// 
.................... //// Defines a 5x7 font 
.................... ///////////////////////////////////////////////////////////////////////// 
.................... const int8 FONT[51][5] ={0x00, 0x00, 0x00, 0x00, 0x00, // SPACE 
....................                          0x00, 0x00, 0x5F, 0x00, 0x00, // ! 
....................                          0x00, 0x03, 0x00, 0x03, 0x00, // " 
....................                          0x14, 0x3E, 0x14, 0x3E, 0x14, // # 
....................                          0x24, 0x2A, 0x7F, 0x2A, 0x12, // $ 
....................                          0x43, 0x33, 0x08, 0x66, 0x61, // % 
....................                          0x36, 0x49, 0x55, 0x22, 0x50, // & 
....................                          0x00, 0x05, 0x03, 0x00, 0x00, // ' 
....................                          0x00, 0x1C, 0x22, 0x41, 0x00, // ( 
....................                          0x00, 0x41, 0x22, 0x1C, 0x00, // ) 
....................                          0x14, 0x08, 0x3E, 0x08, 0x14, // * 
....................                          0x08, 0x08, 0x3E, 0x08, 0x08, // + 
....................                          0x00, 0x50, 0x30, 0x00, 0x00, // , 
....................                          0x08, 0x08, 0x08, 0x08, 0x08, // - 
....................                          0x00, 0x60, 0x60, 0x00, 0x00, // . 
....................                          0x20, 0x10, 0x08, 0x04, 0x02, // / 
....................                          0x3E, 0x51, 0x49, 0x45, 0x3E, // 0 
....................                          0x00, 0x04, 0x02, 0x7F, 0x00, // 1 
....................                          0x42, 0x61, 0x51, 0x49, 0x46, // 2 
....................                          0x22, 0x41, 0x49, 0x49, 0x36, // 3 
....................                          0x18, 0x14, 0x12, 0x7F, 0x10, // 4 
....................                          0x27, 0x45, 0x45, 0x45, 0x39, // 5 
....................                          0x3E, 0x49, 0x49, 0x49, 0x32, // 6 
....................                          0x01, 0x01, 0x71, 0x09, 0x07, // 7 
....................                          0x36, 0x49, 0x49, 0x49, 0x36, // 8 
....................                          0x26, 0x49, 0x49, 0x49, 0x3E, // 9 
....................                          0x00, 0x36, 0x36, 0x00, 0x00, // : 
....................                          0x00, 0x56, 0x36, 0x00, 0x00, // ; 
....................                          0x08, 0x14, 0x22, 0x41, 0x00, // < 
....................                          0x14, 0x14, 0x14, 0x14, 0x14, // = 
....................                          0x00, 0x41, 0x22, 0x14, 0x08, // > 
....................                          0x02, 0x01, 0x51, 0x09, 0x06, // ? 
....................                          0x3E, 0x41, 0x59, 0x55, 0x5E, // @ 
....................                          0x7E, 0x09, 0x09, 0x09, 0x7E, // A 
....................                          0x7F, 0x49, 0x49, 0x49, 0x36, // B 
....................                          0x3E, 0x41, 0x41, 0x41, 0x22, // C 
....................                          0x7F, 0x41, 0x41, 0x41, 0x3E, // D 
....................                          0x7F, 0x49, 0x49, 0x49, 0x41, // E 
....................                          0x7F, 0x09, 0x09, 0x09, 0x01, // F 
....................                          0x3E, 0x41, 0x41, 0x49, 0x3A, // G 
....................                          0x7F, 0x08, 0x08, 0x08, 0x7F, // H 
....................                          0x00, 0x41, 0x7F, 0x41, 0x00, // I 
....................                          0x30, 0x40, 0x40, 0x40, 0x3F, // J 
....................                          0x7F, 0x08, 0x14, 0x22, 0x41, // K 
....................                          0x7F, 0x40, 0x40, 0x40, 0x40, // L 
....................                          0x7F, 0x02, 0x0C, 0x02, 0x7F, // M 
....................                          0x7F, 0x02, 0x04, 0x08, 0x7F, // N 
....................                          0x3E, 0x41, 0x41, 0x41, 0x3E, // O 
....................                          0x7F, 0x09, 0x09, 0x09, 0x06, // P 
....................                          0x1E, 0x21, 0x21, 0x21, 0x5E, // Q 
....................                          0x7F, 0x09, 0x09, 0x09, 0x76};// R 
....................  
.................... const int8 FONT2[44][5]={0x26, 0x49, 0x49, 0x49, 0x32, // S 
....................                          0x01, 0x01, 0x7F, 0x01, 0x01, // T 
....................                          0x3F, 0x40, 0x40, 0x40, 0x3F, // U 
....................                          0x1F, 0x20, 0x40, 0x20, 0x1F, // V 
....................                          0x7F, 0x20, 0x10, 0x20, 0x7F, // W 
....................                          0x41, 0x22, 0x1C, 0x22, 0x41, // X 
....................                          0x07, 0x08, 0x70, 0x08, 0x07, // Y 
....................                          0x61, 0x51, 0x49, 0x45, 0x43, // Z 
....................                          0x00, 0x7F, 0x41, 0x00, 0x00, // [ 
....................                          0x02, 0x04, 0x08, 0x10, 0x20, // \ 
....................                          0x00, 0x00, 0x41, 0x7F, 0x00, // ] 
....................                          0x04, 0x02, 0x01, 0x02, 0x04, // ^ 
....................                          0x40, 0x40, 0x40, 0x40, 0x40, // _ 
....................                          0x00, 0x01, 0x02, 0x04, 0x00, // ` 
....................                          0x20, 0x54, 0x54, 0x54, 0x78, // a 
....................                          0x7F, 0x44, 0x44, 0x44, 0x38, // b 
....................                          0x38, 0x44, 0x44, 0x44, 0x44, // c 
....................                          0x38, 0x44, 0x44, 0x44, 0x7F, // d 
....................                          0x38, 0x54, 0x54, 0x54, 0x18, // e 
....................                          0x04, 0x04, 0x7E, 0x05, 0x05, // f 
....................                          0x08, 0x54, 0x54, 0x54, 0x3C, // g 
....................                          0x7F, 0x08, 0x04, 0x04, 0x78, // h 
....................                          0x00, 0x44, 0x7D, 0x40, 0x00, // i 
....................                          0x20, 0x40, 0x44, 0x3D, 0x00, // j 
....................                          0x7F, 0x10, 0x28, 0x44, 0x00, // k 
....................                          0x00, 0x41, 0x7F, 0x40, 0x00, // l 
....................                          0x7C, 0x04, 0x78, 0x04, 0x78, // m 
....................                          0x7C, 0x08, 0x04, 0x04, 0x78, // n 
....................                          0x38, 0x44, 0x44, 0x44, 0x38, // o 
....................                          0x7C, 0x14, 0x14, 0x14, 0x08, // p 
....................                          0x08, 0x14, 0x14, 0x14, 0x7C, // q 
....................                          0x00, 0x7C, 0x08, 0x04, 0x04, // r 
....................                          0x48, 0x54, 0x54, 0x54, 0x20, // s 
....................                          0x04, 0x04, 0x3F, 0x44, 0x44, // t 
....................                          0x3C, 0x40, 0x40, 0x20, 0x7C, // u 
....................                          0x1C, 0x20, 0x40, 0x20, 0x1C, // v 
....................                          0x3C, 0x40, 0x30, 0x40, 0x3C, // w 
....................                          0x44, 0x28, 0x10, 0x28, 0x44, // x 
....................                          0x0C, 0x50, 0x50, 0x50, 0x3C, // y 
....................                          0x44, 0x64, 0x54, 0x4C, 0x44, // z 
....................                          0x00, 0x08, 0x36, 0x41, 0x41, // { 
....................                          0x00, 0x00, 0x7F, 0x00, 0x00, // | 
....................                          0x41, 0x41, 0x36, 0x08, 0x00, // } 
....................                          0x02, 0x01, 0x02, 0x04, 0x02};// ~ 
.................... ///////////////////////////////////////////////////////////////////////// 
....................  
....................  
.................... ///////////////////////////////////////////////////////////////////////// 
.................... // Purpose:       Draw a line on a graphic LCD using Bresenham's 
.................... //                line drawing algorithm 
.................... // Inputs:        (x1, y1) - the start coordinate 
.................... //                (x2, y2) - the end coordinate 
.................... //                color - ON or OFF 
.................... // Dependencies:  glcd_pixel() 
.................... ///////////////////////////////////////////////////////////////////////// 
.................... #ifdef LARGE_LCD 
.................... void glcd_line(int16 x1, int16 y1, int16 x2, int16 y2, int1 color) 
.................... #else 
.................... void glcd_line(int8 x1, int8 y1, int8 x2, int8 y2, int1 color) 
.................... #endif 
.................... { 
*
0205C:  MOVLW  01
0205E:  MOVLB  7
02060:  MOVWF  x57
02062:  MOVWF  x58
02064:  CLRF   x5D
....................    int16        dy, dx; 
....................    signed int8  addx=1, addy=1; 
....................    signed int16 P, diff; 
....................  
....................    #ifdef LARGE_LCD 
....................    int16 i=0; 
....................    dx = abs((signed int16)(x2 - x1)); 
....................    dy = abs((signed int16)(y2 - y1)); 
....................    #else 
....................    int8 i=0; 
....................    dx = abs((signed int8)(x2 - x1)); 
02066:  MOVF   x4E,W
02068:  SUBWF  x50,W
0206A:  MOVWF  x5E
0206C:  MOVF   x5E,W
0206E:  BTFSS  x5E.7
02070:  BRA    2078
02072:  MOVLW  00
02074:  BSF    FD8.0
02076:  SUBFWB x5E,W
02078:  CLRF   03
0207A:  MOVWF  x55
0207C:  MOVFF  03,756
....................    dy = abs((signed int8)(y2 - y1)); 
02080:  MOVF   x4F,W
02082:  SUBWF  x51,W
02084:  MOVWF  x5E
02086:  MOVF   x5E,W
02088:  BTFSS  x5E.7
0208A:  BRA    2092
0208C:  MOVLW  00
0208E:  BSF    FD8.0
02090:  SUBFWB x5E,W
02092:  CLRF   03
02094:  MOVWF  x53
02096:  MOVFF  03,754
....................    #endif 
....................  
....................    if(x1 > x2) 
0209A:  MOVF   x4E,W
0209C:  SUBWF  x50,W
0209E:  BC    20A4
....................       addx = -1; 
020A0:  MOVLW  FF
020A2:  MOVWF  x57
....................    if(y1 > y2) 
020A4:  MOVF   x4F,W
020A6:  SUBWF  x51,W
020A8:  BC    20AE
....................       addy = -1; 
020AA:  MOVLW  FF
020AC:  MOVWF  x58
....................  
....................    if(dx >= dy) 
020AE:  MOVF   x54,W
020B0:  SUBWF  x56,W
020B2:  BNC   212A
020B4:  BNZ   20BC
020B6:  MOVF   x53,W
020B8:  SUBWF  x55,W
020BA:  BNC   212A
....................    { 
....................       dy *= 2; 
020BC:  BCF    FD8.0
020BE:  RLCF   x53,F
020C0:  RLCF   x54,F
....................       P = dy - dx; 
020C2:  MOVF   x55,W
020C4:  SUBWF  x53,W
020C6:  MOVWF  00
020C8:  MOVF   x56,W
020CA:  SUBWFB x54,W
020CC:  MOVFF  00,759
020D0:  MOVWF  x5A
....................       diff = P - dx; 
020D2:  MOVF   x55,W
020D4:  SUBWF  x59,W
020D6:  MOVWF  x5B
020D8:  MOVF   x56,W
020DA:  SUBWFB x5A,W
020DC:  MOVWF  x5C
....................  
....................       for(; i<=dx; ++i) 
020DE:  MOVF   x56,F
020E0:  BNZ   20E8
020E2:  MOVF   x5D,W
020E4:  SUBWF  x55,W
020E6:  BNC   2128
....................       { 
....................          glcd_pixel(x1, y1, color); 
020E8:  MOVFF  74E,75E
020EC:  MOVFF  74F,75F
020F0:  MOVFF  752,760
020F4:  MOVLB  0
020F6:  RCALL  1DE8
....................  
....................          if(P < 0) 
020F8:  MOVLB  7
020FA:  BTFSC  x5A.7
020FC:  BRA    2100
020FE:  BRA    2110
....................          { 
....................             P  += dy; 
02100:  MOVF   x53,W
02102:  ADDWF  x59,F
02104:  MOVF   x54,W
02106:  ADDWFC x5A,F
....................             x1 += addx; 
02108:  MOVF   x57,W
0210A:  ADDWF  x4E,W
0210C:  MOVWF  x4E
....................          } 
....................          else 
0210E:  BRA    2124
....................          { 
....................             P  += diff; 
02110:  MOVF   x5B,W
02112:  ADDWF  x59,F
02114:  MOVF   x5C,W
02116:  ADDWFC x5A,F
....................             x1 += addx; 
02118:  MOVF   x57,W
0211A:  ADDWF  x4E,W
0211C:  MOVWF  x4E
....................             y1 += addy; 
0211E:  MOVF   x58,W
02120:  ADDWF  x4F,W
02122:  MOVWF  x4F
....................          } 
....................       } 
02124:  INCF   x5D,F
02126:  BRA    20DE
....................    } 
....................    else 
02128:  BRA    2196
....................    { 
....................       dx *= 2; 
0212A:  BCF    FD8.0
0212C:  RLCF   x55,F
0212E:  RLCF   x56,F
....................       P = dx - dy; 
02130:  MOVF   x53,W
02132:  SUBWF  x55,W
02134:  MOVWF  00
02136:  MOVF   x54,W
02138:  SUBWFB x56,W
0213A:  MOVFF  00,759
0213E:  MOVWF  x5A
....................       diff = P - dy; 
02140:  MOVF   x53,W
02142:  SUBWF  x59,W
02144:  MOVWF  x5B
02146:  MOVF   x54,W
02148:  SUBWFB x5A,W
0214A:  MOVWF  x5C
....................  
....................       for(; i<=dy; ++i) 
0214C:  MOVF   x54,F
0214E:  BNZ   2156
02150:  MOVF   x5D,W
02152:  SUBWF  x53,W
02154:  BNC   2196
....................       { 
....................          glcd_pixel(x1, y1, color); 
02156:  MOVFF  74E,75E
0215A:  MOVFF  74F,75F
0215E:  MOVFF  752,760
02162:  MOVLB  0
02164:  RCALL  1DE8
....................  
....................          if(P < 0) 
02166:  MOVLB  7
02168:  BTFSC  x5A.7
0216A:  BRA    216E
0216C:  BRA    217E
....................          { 
....................             P  += dx; 
0216E:  MOVF   x55,W
02170:  ADDWF  x59,F
02172:  MOVF   x56,W
02174:  ADDWFC x5A,F
....................             y1 += addy; 
02176:  MOVF   x58,W
02178:  ADDWF  x4F,W
0217A:  MOVWF  x4F
....................          } 
....................          else 
0217C:  BRA    2192
....................          { 
....................             P  += diff; 
0217E:  MOVF   x5B,W
02180:  ADDWF  x59,F
02182:  MOVF   x5C,W
02184:  ADDWFC x5A,F
....................             x1 += addx; 
02186:  MOVF   x57,W
02188:  ADDWF  x4E,W
0218A:  MOVWF  x4E
....................             y1 += addy; 
0218C:  MOVF   x58,W
0218E:  ADDWF  x4F,W
02190:  MOVWF  x4F
....................          } 
....................       } 
02192:  INCF   x5D,F
02194:  BRA    214C
....................    } 
.................... } 
02196:  MOVLB  0
02198:  RETLW  00
....................  
....................  
.................... ///////////////////////////////////////////////////////////////////////// 
.................... // Purpose:       Draw a rectangle on a graphic LCD 
.................... // Inputs:        (x1, y1) - the start coordinate 
.................... //                (x2, y2) - the end coordinate 
.................... //                fill  - YES or NO 
.................... //                color - ON or OFF 
.................... // Dependencies:  glcd_pixel(), glcd_line() 
.................... ///////////////////////////////////////////////////////////////////////// 
.................... #ifdef LARGE_LCD 
.................... void glcd_rect(int16 x1, int16 y1, int16 x2, int16 y2, int1 fill, int1 color) 
.................... #else 
.................... void glcd_rect(int8 x1, int8 y1, int8 x2, int8 y2, int1 fill, int1 color) 
.................... #endif 
.................... { 
....................    if(fill) 
0219A:  MOVLB  7
0219C:  MOVF   x47,F
0219E:  BZ    21FC
....................    { 
....................       #ifdef LARGE_LCD 
....................       int16 i, xmin, xmax, ymin, ymax; 
....................       #else 
....................       int8  i, xmin, xmax, ymin, ymax; 
....................       #endif 
....................  
....................       if(x1 < x2)                            //  Find x min and max 
021A0:  MOVF   x45,W
021A2:  SUBWF  x43,W
021A4:  BC    21B0
....................       { 
....................          xmin = x1; 
021A6:  MOVFF  743,74A
....................          xmax = x2; 
021AA:  MOVFF  745,74B
....................       } 
....................       else 
021AE:  BRA    21B8
....................       { 
....................          xmin = x2; 
021B0:  MOVFF  745,74A
....................          xmax = x1; 
021B4:  MOVFF  743,74B
....................       } 
....................  
....................       if(y1 < y2)                            // Find the y min and max 
021B8:  MOVF   x46,W
021BA:  SUBWF  x44,W
021BC:  BC    21C8
....................       { 
....................          ymin = y1; 
021BE:  MOVFF  744,74C
....................          ymax = y2; 
021C2:  MOVFF  746,74D
....................       } 
....................       else 
021C6:  BRA    21D0
....................       { 
....................          ymin = y2; 
021C8:  MOVFF  746,74C
....................          ymax = y1; 
021CC:  MOVFF  744,74D
....................       } 
....................  
....................       for(; xmin <= xmax; ++xmin) 
021D0:  MOVF   x4A,W
021D2:  SUBWF  x4B,W
021D4:  BNC   21FA
....................       { 
....................          for(i=ymin; i<=ymax; ++i) 
021D6:  MOVFF  74C,749
021DA:  MOVF   x49,W
021DC:  SUBWF  x4D,W
021DE:  BNC   21F6
....................          { 
....................             glcd_pixel(xmin, i, color); 
021E0:  MOVFF  74A,75E
021E4:  MOVFF  749,75F
021E8:  MOVFF  748,760
021EC:  MOVLB  0
021EE:  RCALL  1DE8
....................          } 
021F0:  MOVLB  7
021F2:  INCF   x49,F
021F4:  BRA    21DA
....................       } 
021F6:  INCF   x4A,F
021F8:  BRA    21D0
....................    } 
....................    else 
021FA:  BRA    2258
....................    { 
....................       glcd_line(x1, y1, x2, y1, color);      // Draw the 4 sides 
021FC:  MOVFF  743,74E
02200:  MOVFF  744,74F
02204:  MOVFF  745,750
02208:  MOVFF  744,751
0220C:  MOVFF  748,752
02210:  MOVLB  0
02212:  RCALL  205C
....................       glcd_line(x1, y2, x2, y2, color); 
02214:  MOVFF  743,74E
02218:  MOVFF  746,74F
0221C:  MOVFF  745,750
02220:  MOVFF  746,751
02224:  MOVFF  748,752
02228:  RCALL  205C
....................       glcd_line(x1, y1, x1, y2, color); 
0222A:  MOVFF  743,74E
0222E:  MOVFF  744,74F
02232:  MOVFF  743,750
02236:  MOVFF  746,751
0223A:  MOVFF  748,752
0223E:  RCALL  205C
....................       glcd_line(x2, y1, x2, y2, color); 
02240:  MOVFF  745,74E
02244:  MOVFF  744,74F
02248:  MOVFF  745,750
0224C:  MOVFF  746,751
02250:  MOVFF  748,752
02254:  RCALL  205C
02256:  MOVLB  7
....................    } 
.................... } 
02258:  MOVLB  0
0225A:  RETLW  00
....................  
.................... ///////////////////////////////////////////////////////////////////////// 
.................... // Purpose:       Draw a bar (wide line) on a graphic LCD 
.................... // Inputs:        (x1, y1) - the start coordinate 
.................... //                (x2, y2) - the end coordinate 
.................... //                width  - The number of pixels wide 
.................... //                color - ON or OFF 
.................... ///////////////////////////////////////////////////////////////////////// 
.................... #ifdef LARGE_LCD 
.................... void glcd_bar(int16 x1, int16 y1, int16 x2, int16 y2, int8 width, int1 color) 
.................... #else 
.................... void glcd_bar(int8 x1, int8 y1, int8 x2, int8 y2, int8 width, int1 color) 
.................... #endif 
.................... { 
....................    int8         half_width; 
....................    signed int16 dy, dx; 
....................    signed int8  addx=1, addy=1, j; 
....................    signed int16 P, diff, c1, c2; 
....................  
....................    #ifdef LARGE_LCD 
....................    int16 i=0; 
....................    dx = abs((signed int16)(x2 - x1)); 
....................    dy = abs((signed int16)(y2 - y1)); 
....................    #else 
....................    int8 i=0; 
....................    dx = abs((signed int8)(x2 - x1)); 
....................    dy = abs((signed int8)(y2 - y1)); 
....................    #endif 
....................  
....................    half_width = width/2; 
....................    c1 = -(dx*x1 + dy*y1); 
....................    c2 = -(dx*x2 + dy*y2); 
....................  
....................    if(x1 > x2) 
....................    { 
....................       signed int16 temp; 
....................       temp = c1; 
....................       c1 = c2; 
....................       c2 = temp; 
....................       addx = -1; 
....................    } 
....................    if(y1 > y2) 
....................    { 
....................       signed int16 temp; 
....................       temp = c1; 
....................       c1 = c2; 
....................       c2 = temp; 
....................       addy = -1; 
....................    } 
....................  
....................    if(dx >= dy) 
....................    { 
....................       P = 2*dy - dx; 
....................       diff = P - dx; 
....................  
....................       for(i=0; i<=dx; ++i) 
....................       { 
....................          for(j=-half_width; j<half_width+width%2; ++j) 
....................          { 
....................             #ifdef LARGE_LCD 
....................             int16 temp; 
....................             #else 
....................             int8 temp; 
....................             #endif 
....................  
....................             temp = dx*x1+dy*(y1+j);    // Use more RAM to increase speed 
....................             if(temp+c1 >= 0 && temp+c2 <=0) 
....................                glcd_pixel(x1, y1+j, color); 
....................          } 
....................          if(P < 0) 
....................          { 
....................             P  += 2*dy; 
....................             x1 += addx; 
....................          } 
....................          else 
....................          { 
....................             P  += diff; 
....................             x1 += addx; 
....................             y1 += addy; 
....................          } 
....................       } 
....................    } 
....................    else 
....................    { 
....................       P = 2*dx - dy; 
....................       diff = P - dy; 
....................  
....................       for(i=0; i<=dy; ++i) 
....................       { 
....................          if(P < 0) 
....................          { 
....................             P  += 2*dx; 
....................             y1 += addy; 
....................          } 
....................          else 
....................          { 
....................             P  += diff; 
....................             x1 += addx; 
....................             y1 += addy; 
....................          } 
....................          for(j=-half_width; j<half_width+width%2; ++j) 
....................          { 
....................             #ifdef LARGE_LCD 
....................             int16 temp; 
....................             #else 
....................             int8 temp; 
....................             #endif 
....................  
....................             temp = dx*x1+dy*(y1+j);    // Use more RAM to increase speed 
....................             if(temp+c1 >= 0 && temp+c2 <=0) 
....................                glcd_pixel(x1+j, y1, color); 
....................          } 
....................       } 
....................    } 
.................... } 
....................  
....................  
.................... ///////////////////////////////////////////////////////////////////////// 
.................... // Purpose:       Draw a circle on a graphic LCD 
.................... // Inputs:        (x,y) - the center of the circle 
.................... //                radius - the radius of the circle 
.................... //                fill - YES or NO 
.................... //                color - ON or OFF 
.................... ///////////////////////////////////////////////////////////////////////// 
.................... #ifdef LARGE_LCD 
.................... void glcd_circle(int16 x, int16 y, int16 radius, int1 fill, int1 color) 
.................... #else 
.................... void glcd_circle(int8 x, int8 y, int8 radius, int1 fill, int1 color) 
.................... #endif 
.................... { 
....................    #ifdef LARGE_LCD 
....................    signed int16 a, b, P; 
....................    #else 
....................    signed int8  a, b, P; 
....................    #endif 
....................  
....................    a = 0; 
*
03B5E:  MOVLB  7
03B60:  CLRF   x32
....................    b = radius; 
03B62:  MOVFF  72F,733
....................    P = 1 - radius; 
03B66:  MOVLW  01
03B68:  BSF    FD8.0
03B6A:  SUBFWB x2F,W
03B6C:  MOVWF  x34
....................  
....................    do 
....................    { 
....................       if(fill) 
03B6E:  MOVF   x30,F
03B70:  BZ    3C3C
....................       { 
....................          glcd_line(x-a, y+b, x+a, y+b, color); 
03B72:  MOVF   x32,W
03B74:  SUBWF  x2D,W
03B76:  MOVWF  x35
03B78:  MOVF   x33,W
03B7A:  ADDWF  x2E,W
03B7C:  MOVWF  x36
03B7E:  MOVF   x32,W
03B80:  ADDWF  x2D,W
03B82:  MOVWF  x37
03B84:  MOVF   x33,W
03B86:  ADDWF  x2E,W
03B88:  MOVWF  x38
03B8A:  MOVFF  735,74E
03B8E:  MOVFF  736,74F
03B92:  MOVFF  737,750
03B96:  MOVWF  x51
03B98:  MOVFF  731,752
03B9C:  MOVLB  0
03B9E:  CALL   205C
....................          glcd_line(x-a, y-b, x+a, y-b, color); 
03BA2:  MOVLB  7
03BA4:  MOVF   x32,W
03BA6:  SUBWF  x2D,W
03BA8:  MOVWF  x35
03BAA:  MOVF   x33,W
03BAC:  SUBWF  x2E,W
03BAE:  MOVWF  x36
03BB0:  MOVF   x32,W
03BB2:  ADDWF  x2D,W
03BB4:  MOVWF  x37
03BB6:  MOVF   x33,W
03BB8:  SUBWF  x2E,W
03BBA:  MOVWF  x38
03BBC:  MOVFF  735,74E
03BC0:  MOVFF  736,74F
03BC4:  MOVFF  737,750
03BC8:  MOVWF  x51
03BCA:  MOVFF  731,752
03BCE:  MOVLB  0
03BD0:  CALL   205C
....................          glcd_line(x-b, y+a, x+b, y+a, color); 
03BD4:  MOVLB  7
03BD6:  MOVF   x33,W
03BD8:  SUBWF  x2D,W
03BDA:  MOVWF  x35
03BDC:  MOVF   x32,W
03BDE:  ADDWF  x2E,W
03BE0:  MOVWF  x36
03BE2:  MOVF   x33,W
03BE4:  ADDWF  x2D,W
03BE6:  MOVWF  x37
03BE8:  MOVF   x32,W
03BEA:  ADDWF  x2E,W
03BEC:  MOVWF  x38
03BEE:  MOVFF  735,74E
03BF2:  MOVFF  736,74F
03BF6:  MOVFF  737,750
03BFA:  MOVWF  x51
03BFC:  MOVFF  731,752
03C00:  MOVLB  0
03C02:  CALL   205C
....................          glcd_line(x-b, y-a, x+b, y-a, color); 
03C06:  MOVLB  7
03C08:  MOVF   x33,W
03C0A:  SUBWF  x2D,W
03C0C:  MOVWF  x35
03C0E:  MOVF   x32,W
03C10:  SUBWF  x2E,W
03C12:  MOVWF  x36
03C14:  MOVF   x33,W
03C16:  ADDWF  x2D,W
03C18:  MOVWF  x37
03C1A:  MOVF   x32,W
03C1C:  SUBWF  x2E,W
03C1E:  MOVWF  x38
03C20:  MOVFF  735,74E
03C24:  MOVFF  736,74F
03C28:  MOVFF  737,750
03C2C:  MOVWF  x51
03C2E:  MOVFF  731,752
03C32:  MOVLB  0
03C34:  CALL   205C
....................       } 
....................       else 
03C38:  BRA    3D2A
03C3A:  MOVLB  7
....................       { 
....................          glcd_pixel(a+x, b+y, color); 
03C3C:  MOVF   x2D,W
03C3E:  ADDWF  x32,W
03C40:  MOVWF  x35
03C42:  MOVF   x2E,W
03C44:  ADDWF  x33,W
03C46:  MOVWF  x36
03C48:  MOVFF  735,75E
03C4C:  MOVWF  x5F
03C4E:  MOVFF  731,760
03C52:  MOVLB  0
03C54:  CALL   1DE8
....................          glcd_pixel(b+x, a+y, color); 
03C58:  MOVLB  7
03C5A:  MOVF   x2D,W
03C5C:  ADDWF  x33,W
03C5E:  MOVWF  x35
03C60:  MOVF   x2E,W
03C62:  ADDWF  x32,W
03C64:  MOVWF  x36
03C66:  MOVFF  735,75E
03C6A:  MOVWF  x5F
03C6C:  MOVFF  731,760
03C70:  MOVLB  0
03C72:  CALL   1DE8
....................          glcd_pixel(x-a, b+y, color); 
03C76:  MOVLB  7
03C78:  MOVF   x32,W
03C7A:  SUBWF  x2D,W
03C7C:  MOVWF  x35
03C7E:  MOVF   x2E,W
03C80:  ADDWF  x33,W
03C82:  MOVWF  x36
03C84:  MOVFF  735,75E
03C88:  MOVWF  x5F
03C8A:  MOVFF  731,760
03C8E:  MOVLB  0
03C90:  CALL   1DE8
....................          glcd_pixel(x-b, a+y, color); 
03C94:  MOVLB  7
03C96:  MOVF   x33,W
03C98:  SUBWF  x2D,W
03C9A:  MOVWF  x35
03C9C:  MOVF   x2E,W
03C9E:  ADDWF  x32,W
03CA0:  MOVWF  x36
03CA2:  MOVFF  735,75E
03CA6:  MOVWF  x5F
03CA8:  MOVFF  731,760
03CAC:  MOVLB  0
03CAE:  CALL   1DE8
....................          glcd_pixel(b+x, y-a, color); 
03CB2:  MOVLB  7
03CB4:  MOVF   x2D,W
03CB6:  ADDWF  x33,W
03CB8:  MOVWF  x35
03CBA:  MOVF   x32,W
03CBC:  SUBWF  x2E,W
03CBE:  MOVWF  x36
03CC0:  MOVFF  735,75E
03CC4:  MOVWF  x5F
03CC6:  MOVFF  731,760
03CCA:  MOVLB  0
03CCC:  CALL   1DE8
....................          glcd_pixel(a+x, y-b, color); 
03CD0:  MOVLB  7
03CD2:  MOVF   x2D,W
03CD4:  ADDWF  x32,W
03CD6:  MOVWF  x35
03CD8:  MOVF   x33,W
03CDA:  SUBWF  x2E,W
03CDC:  MOVWF  x36
03CDE:  MOVFF  735,75E
03CE2:  MOVWF  x5F
03CE4:  MOVFF  731,760
03CE8:  MOVLB  0
03CEA:  CALL   1DE8
....................          glcd_pixel(x-a, y-b, color); 
03CEE:  MOVLB  7
03CF0:  MOVF   x32,W
03CF2:  SUBWF  x2D,W
03CF4:  MOVWF  x35
03CF6:  MOVF   x33,W
03CF8:  SUBWF  x2E,W
03CFA:  MOVWF  x36
03CFC:  MOVFF  735,75E
03D00:  MOVWF  x5F
03D02:  MOVFF  731,760
03D06:  MOVLB  0
03D08:  CALL   1DE8
....................          glcd_pixel(x-b, y-a, color); 
03D0C:  MOVLB  7
03D0E:  MOVF   x33,W
03D10:  SUBWF  x2D,W
03D12:  MOVWF  x35
03D14:  MOVF   x32,W
03D16:  SUBWF  x2E,W
03D18:  MOVWF  x36
03D1A:  MOVFF  735,75E
03D1E:  MOVWF  x5F
03D20:  MOVFF  731,760
03D24:  MOVLB  0
03D26:  CALL   1DE8
....................       } 
....................  
....................       if(P < 0) 
03D2A:  MOVLB  7
03D2C:  BTFSC  x34.7
03D2E:  BRA    3D32
03D30:  BRA    3D4E
....................          P += 3 + 2 * a++; 
03D32:  MOVF   x32,W
03D34:  INCF   x32,F
03D36:  MOVWF  x35
03D38:  MOVLW  02
03D3A:  MOVWF  x36
03D3C:  MOVFF  735,737
03D40:  MOVLB  0
03D42:  RCALL  3B10
03D44:  MOVF   01,W
03D46:  ADDLW  03
03D48:  MOVLB  7
03D4A:  ADDWF  x34,F
....................       else 
03D4C:  BRA    3D70
....................          P += 5 + 2 * (a++ - b--); 
03D4E:  MOVF   x32,W
03D50:  INCF   x32,F
03D52:  MOVWF  x35
03D54:  MOVF   x33,W
03D56:  DECF   x33,F
03D58:  SUBWF  x35,W
03D5A:  MOVWF  x35
03D5C:  MOVLW  02
03D5E:  MOVWF  x36
03D60:  MOVFF  735,737
03D64:  MOVLB  0
03D66:  RCALL  3B10
03D68:  MOVF   01,W
03D6A:  ADDLW  05
03D6C:  MOVLB  7
03D6E:  ADDWF  x34,F
....................     } while(a <= b); 
03D70:  MOVF   x32,W
03D72:  XORLW  80
03D74:  MOVWF  00
03D76:  MOVF   x33,W
03D78:  XORLW  80
03D7A:  SUBWF  00,W
03D7C:  BTFSC  FD8.2
03D7E:  BRA    3B6E
03D80:  BTFSS  FD8.0
03D82:  BRA    3B6E
.................... } 
03D84:  MOVLB  0
03D86:  RETLW  00
....................  
....................  
.................... ///////////////////////////////////////////////////////////////////////// 
.................... // Purpose:       Write text on a graphic LCD 
.................... // Inputs:        (x,y) - The upper left coordinate of the first letter 
.................... //                textptr - A pointer to an array of text to display 
.................... //                size - The size of the text: 1 = 5x7, 2 = 10x14, ... 
.................... //                color - ON or OFF 
.................... ///////////////////////////////////////////////////////////////////////// 
.................... #ifdef LARGE_LCD 
.................... void glcd_text57(int16 x, int16 y, char* textptr, int8 size, int1 color) 
.................... #else 
.................... void glcd_text57(int8 x, int8 y, char* textptr, int8 size, int1 color) 
.................... #endif 
.................... { 
....................    int8 j, k, l, m;                       // Loop counters 
....................    int8 pixelData[5];                     // Stores character data 
....................  
....................    for(; *textptr != '\0'; ++textptr, ++x)// Loop through the passed string 
*
01EA4:  MOVFF  744,03
01EA8:  MOVLB  7
01EAA:  MOVFF  743,FE9
01EAE:  MOVFF  744,FEA
01EB2:  MOVF   FEF,F
01EB4:  BTFSC  FD8.2
01EB6:  BRA    2058
....................    { 
....................       if(*textptr < 'S') // Checks if the letter is in the first font array 
01EB8:  MOVFF  744,03
01EBC:  MOVFF  743,FE9
01EC0:  MOVFF  744,FEA
01EC4:  MOVF   FEF,W
01EC6:  SUBLW  52
01EC8:  BNC   1F18
....................          memcpy(pixelData, FONT[*textptr - ' '], 5); 
01ECA:  MOVFF  744,03
01ECE:  MOVFF  743,FE9
01ED2:  MOVFF  744,FEA
01ED6:  MOVLW  20
01ED8:  SUBWF  FEF,W
01EDA:  MULLW  05
01EDC:  MOVF   FF3,W
01EDE:  CLRF   03
01EE0:  MOVWF  x50
01EE2:  MOVLW  07
01EE4:  MOVWF  FEA
01EE6:  MOVLW  4B
01EE8:  MOVWF  FE9
01EEA:  CLRF   x54
01EEC:  MOVFF  750,753
01EF0:  MOVFF  FF2,751
01EF4:  BCF    FF2.7
01EF6:  MOVLW  05
01EF8:  MOVWF  01
01EFA:  CLRF   FF7
01EFC:  MOVF   x50,W
01EFE:  MOVLB  0
01F00:  CALL   00AA
01F04:  TBLRD*-
01F06:  TBLRD*+
01F08:  MOVFF  FF5,FEE
01F0C:  DECFSZ 01,F
01F0E:  BRA    1F06
01F10:  MOVLB  7
01F12:  BTFSC  x51.7
01F14:  BSF    FF2.7
....................       else if(*textptr <= '~') // Check if the letter is in the second font array 
01F16:  BRA    1F82
01F18:  MOVFF  744,03
01F1C:  MOVFF  743,FE9
01F20:  MOVFF  744,FEA
01F24:  MOVF   FEF,W
01F26:  SUBLW  7E
01F28:  BNC   1F78
....................          memcpy(pixelData, FONT2[*textptr - 'S'], 5); 
01F2A:  MOVFF  744,03
01F2E:  MOVFF  743,FE9
01F32:  MOVFF  744,FEA
01F36:  MOVLW  53
01F38:  SUBWF  FEF,W
01F3A:  MULLW  05
01F3C:  MOVF   FF3,W
01F3E:  CLRF   03
01F40:  MOVWF  x50
01F42:  MOVLW  07
01F44:  MOVWF  FEA
01F46:  MOVLW  4B
01F48:  MOVWF  FE9
01F4A:  CLRF   x54
01F4C:  MOVFF  750,753
01F50:  MOVFF  FF2,751
01F54:  BCF    FF2.7
01F56:  MOVLW  05
01F58:  MOVWF  01
01F5A:  CLRF   FF7
01F5C:  MOVF   x50,W
01F5E:  MOVLB  0
01F60:  CALL   01C8
01F64:  TBLRD*-
01F66:  TBLRD*+
01F68:  MOVFF  FF5,FEE
01F6C:  DECFSZ 01,F
01F6E:  BRA    1F66
01F70:  MOVLB  7
01F72:  BTFSC  x51.7
01F74:  BSF    FF2.7
....................       else 
01F76:  BRA    1F82
....................          memcpy(pixelData, FONT[0], 5);   // Default to space 
01F78:  CLRF   x4B
01F7A:  CLRF   x4C
01F7C:  CLRF   x4D
01F7E:  CLRF   x4E
01F80:  CLRF   x4F
....................  
....................       // Handles newline and carriage returns 
....................       switch(*textptr) 
....................       { 
01F82:  MOVFF  744,03
01F86:  MOVF   x43,W
01F88:  MOVWF  FE9
01F8A:  MOVFF  03,FEA
01F8E:  MOVF   FEF,W
01F90:  XORLW  0A
01F92:  MOVLB  0
01F94:  BZ    1F9C
01F96:  XORLW  07
01F98:  BZ    1FAC
01F9A:  BRA    1FB2
....................          case '\n': 
....................             y += 7*size + 1; 
01F9C:  MOVLB  7
01F9E:  MOVF   x45,W
01FA0:  MULLW  07
01FA2:  MOVF   FF3,W
01FA4:  ADDLW  01
01FA6:  ADDWF  x42,F
....................             continue; 
01FA8:  BRA    204A
01FAA:  MOVLB  0
....................          case '\r': 
....................             x = 0; 
01FAC:  MOVLB  7
01FAE:  CLRF   x41
....................             continue; 
01FB0:  BRA    204A
....................       } 
....................  
....................       if(x+5*size >= GLCD_WIDTH)          // Performs character wrapping 
01FB2:  MOVLB  7
01FB4:  MOVF   x45,W
01FB6:  MULLW  05
01FB8:  MOVF   FF3,W
01FBA:  ADDWF  x41,W
01FBC:  SUBLW  7F
01FBE:  BC    1FCC
....................       { 
....................          x = 0;                           // Set x at far left position 
01FC0:  CLRF   x41
....................          y += 7*size + 1;                 // Set y at next position down 
01FC2:  MOVF   x45,W
01FC4:  MULLW  07
01FC6:  MOVF   FF3,W
01FC8:  ADDLW  01
01FCA:  ADDWF  x42,F
....................       } 
....................       for(j=0; j<5; ++j, x+=size)         // Loop through character byte data 
01FCC:  CLRF   x47
01FCE:  MOVF   x47,W
01FD0:  SUBLW  04
01FD2:  BNC   204A
....................       { 
....................          for(k=0; k < 7; ++k)             // Loop through the vertical pixels 
01FD4:  CLRF   x48
01FD6:  MOVF   x48,W
01FD8:  SUBLW  06
01FDA:  BNC   2042
....................          { 
....................             if(bit_test(pixelData[j], k)) // Check if the pixel should be set 
01FDC:  CLRF   03
01FDE:  MOVF   x47,W
01FE0:  ADDLW  4B
01FE2:  MOVWF  FE9
01FE4:  MOVLW  07
01FE6:  ADDWFC 03,W
01FE8:  MOVWF  FEA
01FEA:  MOVFF  FEF,750
01FEE:  MOVFF  750,00
01FF2:  MOVF   x48,W
01FF4:  MOVWF  01
01FF6:  BZ    2000
01FF8:  BCF    FD8.0
01FFA:  RRCF   00,F
01FFC:  DECFSZ 01,F
01FFE:  BRA    1FF8
02000:  BTFSS  00.0
02002:  BRA    203E
....................             { 
....................                for(l=0; l < size; ++l)    // These two loops change the 
02004:  CLRF   x49
02006:  MOVF   x45,W
02008:  SUBWF  x49,W
0200A:  BC    203E
....................                {                          // character's size 
....................                   for(m=0; m < size; ++m) 
0200C:  CLRF   x4A
0200E:  MOVF   x45,W
02010:  SUBWF  x4A,W
02012:  BC    203A
....................                   { 
....................                      glcd_pixel(x+m, y+k*size+l, color); // Draws the pixel 
02014:  MOVF   x4A,W
02016:  ADDWF  x41,W
02018:  MOVWF  x50
0201A:  MOVF   x48,W
0201C:  MULWF  x45
0201E:  MOVF   FF3,W
02020:  ADDWF  x42,W
02022:  ADDWF  x49,W
02024:  MOVWF  x51
02026:  MOVFF  750,75E
0202A:  MOVWF  x5F
0202C:  MOVFF  746,760
02030:  MOVLB  0
02032:  RCALL  1DE8
....................                   } 
02034:  MOVLB  7
02036:  INCF   x4A,F
02038:  BRA    200E
....................                } 
0203A:  INCF   x49,F
0203C:  BRA    2006
....................             } 
....................          } 
0203E:  INCF   x48,F
02040:  BRA    1FD6
....................       } 
02042:  INCF   x47,F
02044:  MOVF   x45,W
02046:  ADDWF  x41,F
02048:  BRA    1FCE
....................    } 
0204A:  INCF   x43,F
0204C:  BTFSC  FD8.2
0204E:  INCF   x44,F
02050:  INCF   x41,F
02052:  MOVLB  0
02054:  BRA    1EA4
02056:  MOVLB  7
.................... } 
02058:  MOVLB  0
0205A:  RETLW  00
....................  
.................... #endif 
....................  
.................... #include "imagen.h" 
.................... const int8 Proceso [64][16] = { 
.................... 0x00, 0x00, 0x00, 0x00, 0x00, 0x00, 0x00, 0x00, 0x00, 0x00, 0x00, 0x00, 0x00, 0x00, 0x00, 0x00, 
.................... 0x00, 0x00, 0x00, 0x00, 0x00, 0x00, 0x00, 0x00, 0x00, 0x00, 0x00, 0x00, 0x00, 0x00, 0x00, 0x00, 
.................... 0x00, 0x00, 0x00, 0x00, 0x00, 0x00, 0x00, 0x00, 0x00, 0x00, 0x00, 0x00, 0x00, 0x00, 0x00, 0x00, 
.................... 0x00, 0x00, 0x00, 0x00, 0x00, 0x00, 0x00, 0x00, 0x00, 0x00, 0x00, 0x00, 0x00, 0x00, 0x00, 0x00, 
.................... 0x00, 0x00, 0x00, 0x00, 0x00, 0x00, 0x00, 0x00, 0x00, 0x00, 0x00, 0x00, 0x00, 0x00, 0x00, 0x00, 
.................... 0x00, 0x00, 0x00, 0x00, 0x00, 0x00, 0x00, 0x00, 0x00, 0x00, 0x00, 0x00, 0x00, 0x00, 0x00, 0x00, 
.................... 0x00, 0x00, 0x00, 0x00, 0x00, 0x00, 0x00, 0x00, 0x00, 0x00, 0x00, 0x00, 0x00, 0x00, 0x00, 0x00, 
.................... 0x00, 0x00, 0x00, 0x00, 0x00, 0x00, 0x00, 0x00, 0x00, 0x00, 0x00, 0x00, 0x00, 0x00, 0x00, 0x00, 
.................... 0x00, 0x00, 0x00, 0x00, 0x00, 0x00, 0x00, 0x00, 0x00, 0x00, 0x00, 0x00, 0x00, 0x00, 0x00, 0x00, 
.................... 0x00, 0x00, 0x00, 0x00, 0x00, 0x00, 0x00, 0x00, 0x00, 0x00, 0x00, 0x00, 0x00, 0x00, 0x00, 0x00, 
.................... 0x00, 0x00, 0x00, 0x00, 0x00, 0x00, 0x00, 0x00, 0x00, 0x00, 0x00, 0x00, 0x00, 0x00, 0x00, 0x00, 
.................... 0x00, 0x00, 0x00, 0x00, 0x00, 0x00, 0x00, 0x00, 0x00, 0x00, 0x00, 0x00, 0x00, 0x00, 0x00, 0x00, 
.................... 0x00, 0x00, 0x00, 0x00, 0x00, 0x00, 0x00, 0x00, 0x00, 0x00, 0x00, 0x00, 0x00, 0x00, 0x00, 0x00, 
.................... 0x00, 0x00, 0x00, 0x00, 0x00, 0x00, 0x00, 0x00, 0x00, 0x00, 0x00, 0x00, 0x00, 0x00, 0x00, 0x00, 
.................... 0x00, 0x00, 0x00, 0x00, 0x00, 0x00, 0x00, 0x00, 0x00, 0x00, 0x00, 0x00, 0x00, 0x00, 0x00, 0x00, 
.................... 0x08, 0x00, 0x00, 0x00, 0x00, 0x00, 0x00, 0x00, 0x00, 0x00, 0x00, 0x00, 0x00, 0x00, 0x00, 0x00, 
.................... 0x1C, 0x00, 0x00, 0x00, 0x00, 0x00, 0x00, 0x00, 0x00, 0x00, 0x00, 0x00, 0x00, 0x00, 0x00, 0x00, 
.................... 0x3E, 0x00, 0x00, 0x00, 0x00, 0x00, 0x00, 0x00, 0x00, 0x00, 0x00, 0x00, 0x00, 0x00, 0x00, 0x00, 
.................... 0x08, 0x00, 0x00, 0x00, 0x00, 0x00, 0x00, 0x00, 0x00, 0x00, 0x00, 0x00, 0x00, 0x00, 0x00, 0x00, 
.................... 0x08, 0x00, 0x00, 0x00, 0x00, 0x00, 0x00, 0x00, 0x00, 0x00, 0x00, 0x00, 0x00, 0x00, 0x00, 0x00, 
.................... 0x08, 0x00, 0x00, 0x00, 0x00, 0x00, 0x00, 0x00, 0x00, 0x00, 0x00, 0x00, 0x00, 0x00, 0x00, 0x00, 
.................... 0x08, 0x00, 0x00, 0x01, 0xFF, 0xFF, 0xFE, 0x00, 0x00, 0x00, 0x00, 0x00, 0x00, 0x00, 0x00, 0x00, 
.................... 0x08, 0x00, 0x00, 0x02, 0x00, 0x00, 0x01, 0x00, 0x00, 0x00, 0x00, 0x00, 0x00, 0x00, 0x00, 0x00, 
.................... 0x08, 0x00, 0x00, 0x02, 0x00, 0x00, 0x00, 0x80, 0x00, 0x00, 0x00, 0x00, 0x00, 0x00, 0x00, 0x00, 
.................... 0x08, 0x00, 0x00, 0x04, 0x00, 0x00, 0x00, 0x40, 0x00, 0x00, 0x00, 0x00, 0x00, 0x00, 0x00, 0x00, 
.................... 0x08, 0x00, 0x00, 0x08, 0x00, 0x00, 0x00, 0x20, 0x00, 0x00, 0x00, 0x00, 0x00, 0x00, 0x00, 0x00, 
.................... 0x08, 0x00, 0x00, 0x08, 0x00, 0x00, 0x00, 0x10, 0x00, 0x00, 0x00, 0x00, 0x00, 0x00, 0x00, 0x00, 
.................... 0x08, 0x00, 0x00, 0x10, 0x00, 0x00, 0x00, 0x08, 0x00, 0x00, 0x00, 0x00, 0x00, 0x00, 0x00, 0x00, 
.................... 0x08, 0x00, 0x00, 0x10, 0x00, 0x00, 0x00, 0x08, 0x00, 0x00, 0x00, 0x00, 0x00, 0x00, 0x00, 0x00, 
.................... 0x08, 0x00, 0x00, 0x20, 0x00, 0x00, 0x00, 0x04, 0x00, 0x00, 0x00, 0x00, 0x00, 0x00, 0x00, 0x00, 
.................... 0x08, 0x00, 0x00, 0x40, 0x00, 0x00, 0x00, 0x02, 0x00, 0x00, 0x00, 0x00, 0x00, 0x00, 0x00, 0x00, 
.................... 0x08, 0x00, 0x00, 0x40, 0x00, 0x00, 0x00, 0x01, 0x00, 0x00, 0x00, 0x00, 0x00, 0x00, 0x00, 0x00, 
.................... 0x08, 0x00, 0x00, 0x80, 0x00, 0x00, 0x00, 0x00, 0x80, 0x00, 0x00, 0x00, 0x00, 0x00, 0x00, 0x00, 
.................... 0x08, 0x00, 0x01, 0x00, 0x00, 0x00, 0x00, 0x00, 0x40, 0x00, 0x00, 0x00, 0x00, 0x00, 0x00, 0x00, 
.................... 0x08, 0x00, 0x01, 0x00, 0x00, 0x00, 0x00, 0x00, 0x20, 0x00, 0x00, 0x00, 0x00, 0x00, 0x00, 0x00, 
.................... 0x08, 0x00, 0x02, 0x00, 0x00, 0x00, 0x00, 0x00, 0x10, 0x00, 0x00, 0x00, 0x00, 0x00, 0x00, 0x00, 
.................... 0x08, 0x00, 0x02, 0x00, 0x00, 0x00, 0x00, 0x00, 0x00, 0x00, 0x00, 0x00, 0x00, 0x00, 0x00, 0x00, 
.................... 0x08, 0x00, 0x04, 0x00, 0x00, 0x00, 0x00, 0x00, 0x00, 0x00, 0x00, 0x00, 0x00, 0x00, 0x00, 0x00, 
.................... 0x08, 0x00, 0x08, 0x00, 0x00, 0x00, 0x00, 0x00, 0x00, 0x00, 0x00, 0x00, 0x00, 0x00, 0x00, 0x00, 
.................... 0x08, 0x00, 0x08, 0x00, 0x00, 0x00, 0x00, 0x00, 0x00, 0x00, 0x00, 0x00, 0x00, 0x00, 0x00, 0x00, 
.................... 0x08, 0x00, 0x10, 0x00, 0x00, 0x00, 0x00, 0x00, 0x00, 0x00, 0x00, 0x00, 0x00, 0x00, 0x00, 0x00, 
.................... 0x08, 0x00, 0x20, 0x00, 0x00, 0x00, 0x00, 0x00, 0x00, 0x00, 0x00, 0x00, 0x00, 0x00, 0x00, 0x00, 
.................... 0x08, 0x00, 0x20, 0x00, 0x00, 0x00, 0x00, 0x00, 0x00, 0x00, 0x00, 0x00, 0x00, 0x00, 0x00, 0x00, 
.................... 0x08, 0x00, 0x40, 0x00, 0x00, 0x00, 0x00, 0x00, 0x00, 0x00, 0x00, 0x00, 0x00, 0x00, 0x00, 0x00, 
.................... 0x08, 0x00, 0x40, 0x00, 0x00, 0x00, 0x00, 0x00, 0x00, 0x00, 0x00, 0x00, 0x00, 0x00, 0x00, 0x00, 
.................... 0x08, 0x00, 0x80, 0x00, 0x00, 0x00, 0x00, 0x00, 0x00, 0x00, 0x00, 0x00, 0x00, 0x00, 0x00, 0x00, 
.................... 0x08, 0x01, 0x00, 0x00, 0x00, 0x00, 0x00, 0x00, 0x00, 0x00, 0x00, 0x00, 0x00, 0x00, 0x00, 0x00, 
.................... 0x08, 0x01, 0x00, 0x00, 0x00, 0x00, 0x00, 0x00, 0x00, 0x00, 0x00, 0x00, 0x00, 0x00, 0x00, 0x00, 
.................... 0x0F, 0xFE, 0x00, 0x00, 0x00, 0x00, 0x00, 0x00, 0x00, 0x00, 0x00, 0x00, 0x00, 0x00, 0x00, 0x00, 
.................... 0x08, 0x00, 0x00, 0x00, 0x00, 0x00, 0x00, 0x00, 0x00, 0x00, 0x00, 0x00, 0x00, 0x00, 0x00, 0x00, 
.................... 0x08, 0x00, 0x00, 0x00, 0x00, 0x00, 0x00, 0x00, 0x00, 0x00, 0x00, 0x00, 0x00, 0x00, 0x00, 0x00, 
.................... 0x08, 0x00, 0x00, 0x00, 0x00, 0x00, 0x00, 0x00, 0x00, 0x00, 0x00, 0x00, 0x00, 0x00, 0x00, 0x00, 
.................... 0x08, 0x00, 0x00, 0x00, 0x00, 0x00, 0x00, 0x00, 0x00, 0x02, 0x00, 0x00, 0x00, 0x00, 0x00, 0x00, 
.................... 0x08, 0x00, 0x00, 0x00, 0x00, 0x00, 0x00, 0x00, 0x00, 0x03, 0x00, 0x00, 0x00, 0x00, 0x00, 0x00, 
.................... 0x3F, 0xFF, 0xFF, 0xFF, 0xFF, 0xFF, 0xFF, 0xFF, 0xFF, 0xFF, 0x80, 0x00, 0x00, 0x00, 0x00, 0x00, 
.................... 0x00, 0x00, 0x00, 0x00, 0x00, 0x00, 0x00, 0x00, 0x00, 0x03, 0x00, 0x00, 0x00, 0x00, 0x00, 0x00, 
.................... 0x00, 0x00, 0x00, 0x00, 0x00, 0x00, 0x00, 0x00, 0x00, 0x02, 0x00, 0x00, 0x00, 0x00, 0x00, 0x00, 
.................... 0x00, 0x00, 0x00, 0x00, 0x00, 0x00, 0x00, 0x00, 0x00, 0x00, 0x00, 0x00, 0x00, 0x00, 0x00, 0x00, 
.................... 0x00, 0x00, 0x00, 0x00, 0x00, 0x00, 0x00, 0x00, 0x00, 0x00, 0x00, 0x00, 0x00, 0x00, 0x00, 0x00, 
.................... 0x00, 0x00, 0x00, 0x00, 0x00, 0x00, 0x00, 0x00, 0x00, 0x00, 0x00, 0x00, 0x00, 0x00, 0x00, 0x00, 
.................... 0x00, 0x00, 0x00, 0x00, 0x00, 0x00, 0x00, 0x00, 0x00, 0x00, 0x00, 0x00, 0x00, 0x00, 0x00, 0x00, 
.................... 0x00, 0x00, 0x00, 0x00, 0x00, 0x00, 0x00, 0x00, 0x00, 0x00, 0x00, 0x00, 0x00, 0x00, 0x00, 0x00, 
.................... 0x00, 0x00, 0x00, 0x00, 0x00, 0x00, 0x00, 0x00, 0x00, 0x00, 0x00, 0x00, 0x00, 0x00, 0x00, 0x00, 
.................... 0x00, 0x00, 0x00, 0x00, 0x00, 0x00, 0x00, 0x00, 0x00, 0x00, 0x00, 0x00, 0x00, 0x00, 0x00, 0x00 
.................... }; 
....................  
....................  
....................  
....................  
.................... #define   UP            !input(PIN_A4) 
.................... #define   DOWN          !input(PIN_A5) 
.................... #define   RIGHT         !input(PIN_E0) 
.................... #define   LEFT          !input(PIN_E1) 
....................  
.................... #define   DOOR          !input(PIN_E2) 
.................... #define   STOP          !input(PIN_B6) 
.................... #define   TERM          !input(PIN_B7) 
....................  
.................... #define   HIGH          input(PIN_C0) 
.................... #define   LOW           input(PIN_C1) 
....................  
.................... #define   Display_on       output_bit(PIN_C7,1) 
.................... #define   Display_off      output_bit(PIN_C7,0) 
....................  
.................... #define   SSR_on           output_bit(PIN_C2,0) 
.................... #define   SSR_off          output_bit(PIN_C2,1) 
....................  
.................... #define   Desfogue_on      output_bit(PIN_C5,0) 
.................... #define   Desfogue_off     output_bit(PIN_C5,1) 
....................  
.................... #define   AguaIn_on        output_bit(PIN_C6,0) 
.................... #define   AguaIn_off       output_bit(PIN_C6,1) 
....................  
.................... //Comunicacion//------------------------ 
.................... byte txbuf[0X20]; 
.................... byte SlaveA0Tx[0X20]; 
.................... byte dato=0;            //Contendr la informacin a enviar o recibir 
.................... byte direccion=0;       //Contendr la direccin del esclavo en el bus I2C 
.................... byte posicion=0;        //Contendr la posicin en el buffer de memoria del esclavo donde se almacenar o de donde se recuperar el dato 
.................... byte ByteConfig1=0,ByteConfig2=0,ByteConfig3=0; 
....................  
.................... //Alarmas//--------------------- 
.................... short AlarmaTiempoProlongado=OFF,AlarmaSobreTemperatura=OFF,AlarmaLlenado=OFF,AlarmaTermostato=OFF,AlarmaPuerta=OFF,AlarmaEmergencia=OFF; 
....................  
.................... //Banderas//-------------------- 
.................... short IniciaLlenado=OFF,CalderinLleno=OFF,IniciaCiclo=OFF,Esterilizando=OFF,Secando=OFF,SensadoNivel=OFF,Desfogando=OFF,DesfogueSuave=OFF; 
.................... short EstadoDesfogue=OFF,EstadoAgua=OFF,EstadoSSR=OFF,PruebaEstados=OFF,disp_Guarda=OFF,Ciclo=OFF,flagCalentando=OFF,flagEsterilizando=OFF; 
.................... short flagDesfogando=OFF; 
....................  
.................... //Tiempos//--------------------- 
.................... int16 TiempoCiclo=0,TiempoLlenado=0,TiempoSensadoNivel=0,Tp=0,Tc=0; 
.................... signed int  Testerilizacion[4]={0,0,0,0};   // Tiempo transcurrido 
.................... signed int  Testerilizacionp[4]={0,0,0,0};   // Tiempo transcurrido 
.................... signed int  Tsecado[4]={0,0,0,0};   // Tiempo transcurrido 
.................... signed int  Tsecadop[4]={0,0,0,0};   // Tiempo transcurrido 
....................  
.................... //Control//------------------------ 
.................... float promedio[80]={0.0,0.0,0.0,0.0,0.0,0.0,0.0,0.0,0.0,0.0,0.0,0.0,0.0,0.0,0.0,0.0,0.0,0.0,0.0,0.0,0.0,0.0,0.0,0.0,0.0,0.0,0.0,0.0,0.0,0.0,0.0,0.0,0.0,0.0,0.0,0.0,0.0,0.0,0.0,0.0,0.0,0.0,0.0,0.0,0.0,0.0,0.0,0.0,0.0,0.0,0.0,0.0,0.0,0.0,0.0,0.0,0.0,0.0,0.0,0.0,0.0,0.0,0.0,0.0}; 
.................... float PromPresion[20]={0.0,0.0,0.0,0.0,0.0,0.0,0.0,0.0,0.0,0.0,0.0,0.0,0.0,0.0,0.0,0.0,0.0,0.0,0.0,0.0}; 
.................... float PromPresionp[20]={0.0,0.0,0.0,0.0,0.0,0.0,0.0,0.0,0.0,0.0,0.0,0.0,0.0,0.0,0.0,0.0,0.0,0.0,0.0,0.0}; 
.................... float Gain=40.2,RPT100=0.5,Temporal=0.0; 
.................... float X[2]={0.0,0.0}; 
.................... float promediopresion=0.0,Aumento=0.0,promediopresionp=0.0; 
.................... int8 h=0,l=0,Ajuste=0,Ajusten=0,MediaMovil=20,TTrampa=0; 
.................... float V0=0.0,R1=6110.0,Pt,Tciclo=10.0,Tpulso=0.0,error=0.0,Prom=0.0,Temperature=0.0,tmp=0.0,Ganancia=25.0,Ganancia2=20.0,desvio=2.0; 
.................... float V1=0.0,Presion=0.0,V2=0.0,Presionp=0.0; 
.................... float Temperatura=0.0,K=0.006429; 
.................... float a=0.0011,b=2.3302,c=-244.0723; 
.................... int8 Integral=0,Derivativo=0; 
....................  
.................... //Varios//-------------------------------- 
.................... char kpa[]="kPa"; 
.................... short Flanco=0,Flanco1=0,Flanco2=0,visual=1,desfoguelento=0,Lectura=0; 
.................... short disp_Stop=0,flagTC=0,flagPersonalizado=0; 
.................... int8 Control=0,tiemporecta=0,Controlando=0; 
.................... int8 Menu=0, unidad=1,i=0,CiclosL=0,CiclosH=0; 
.................... int8 Setpoint=0,Opcion=1,tiempo_esterilizacion=0,tiempo_secado=0; 
.................... int16 tiempos=0,tiempos3=0,tiempoctrl=0,Nivel=0,tinicio=0,PresionCamara=0,PresionPreCamara=0,Ciclos=0,NivelSeleccionado=0; 
.................... signed int  Contrasena[4]={0,0,0,0};      // Contrasena de 4 digitos 
.................... signed int  Password[4]={0,0,0,0};        // Contrasena Almacenada de 4 digitos 
.................... int8 r=0,t=0,r2=0,t2=0,TiempoControl=0; 
.................... int8 y=0; 
.................... int16 t_exhaust=0; 
....................  
.................... #include "Funciones.h" 
....................  
.................... typedef struct{ 
....................    char Letra[30]; 
....................    char Estado[4]; 
.................... }MENUU; 
....................  
.................... MENUU Menus; 
....................  
....................  
.................... void displayTemperatura(int16 digito, int x, int y, int sombreado, int tamano) 
.................... { 
....................    char voltage[9]; 
....................     
....................    if(sombreado==2) 
*
0498A:  MOVLB  7
0498C:  MOVF   x33,W
0498E:  SUBLW  02
04990:  BNZ   4A06
....................    { 
....................       sprintf(voltage, "%04Lu", digito); 
04992:  MOVLW  07
04994:  MOVWF  x2C
04996:  MOVLW  35
04998:  MOVWF  x2B
0499A:  MOVLW  09
0499C:  MOVWF  FE9
0499E:  MOVFF  730,73F
049A2:  MOVFF  72F,73E
049A6:  MOVLB  0
049A8:  RCALL  48CC
....................       glcd_rect(x, y, x+(tamano*18), y+(tamano*8), YES, ON); 
049AA:  MOVLB  7
049AC:  MOVF   x34,W
049AE:  MULLW  12
049B0:  MOVF   FF3,W
049B2:  ADDWF  x31,W
049B4:  MOVWF  x3E
049B6:  MOVF   x34,W
049B8:  MULLW  08
049BA:  MOVF   FF3,W
049BC:  ADDWF  x32,W
049BE:  MOVWF  x3F
049C0:  MOVFF  731,743
049C4:  MOVFF  732,744
049C8:  MOVFF  73E,745
049CC:  MOVWF  x46
049CE:  MOVLW  01
049D0:  MOVWF  x47
049D2:  MOVWF  x48
049D4:  MOVLB  0
049D6:  CALL   219A
....................       glcd_text57(x+1, y+1, voltage, tamano, OFF); 
049DA:  MOVLW  01
049DC:  MOVLB  7
049DE:  ADDWF  x31,W
049E0:  MOVWF  x3E
049E2:  MOVLW  01
049E4:  ADDWF  x32,W
049E6:  MOVWF  x3F
049E8:  MOVFF  73E,741
049EC:  MOVWF  x42
049EE:  MOVLW  07
049F0:  MOVWF  x44
049F2:  MOVLW  35
049F4:  MOVWF  x43
049F6:  MOVFF  734,745
049FA:  CLRF   x46
049FC:  MOVLB  0
049FE:  CALL   1EA4
....................    } 
....................    else 
04A02:  BRA    4B38
04A04:  MOVLB  7
....................    { 
....................       sprintf(voltage, "%04Lu", digito); 
04A06:  MOVLW  07
04A08:  MOVWF  x2C
04A0A:  MOVLW  35
04A0C:  MOVWF  x2B
04A0E:  MOVLW  09
04A10:  MOVWF  FE9
04A12:  MOVFF  730,73F
04A16:  MOVFF  72F,73E
04A1A:  MOVLB  0
04A1C:  RCALL  48CC
....................     
....................       if(sombreado==4) 
04A1E:  MOVLB  7
04A20:  MOVF   x33,W
04A22:  SUBLW  04
04A24:  BNZ   4A80
....................       { 
....................          glcd_rect(x, y, x+(tamano*16), y+(tamano*8), YES, OFF); 
04A26:  MOVF   x34,W
04A28:  MULLW  10
04A2A:  MOVF   FF3,W
04A2C:  ADDWF  x31,W
04A2E:  MOVWF  x3E
04A30:  MOVF   x34,W
04A32:  MULLW  08
04A34:  MOVF   FF3,W
04A36:  ADDWF  x32,W
04A38:  MOVWF  x3F
04A3A:  MOVFF  731,743
04A3E:  MOVFF  732,744
04A42:  MOVFF  73E,745
04A46:  MOVWF  x46
04A48:  MOVLW  01
04A4A:  MOVWF  x47
04A4C:  CLRF   x48
04A4E:  MOVLB  0
04A50:  CALL   219A
....................          glcd_text57(x+1, y+1, voltage, tamano, ON); 
04A54:  MOVLW  01
04A56:  MOVLB  7
04A58:  ADDWF  x31,W
04A5A:  MOVWF  x3E
04A5C:  MOVLW  01
04A5E:  ADDWF  x32,W
04A60:  MOVWF  x3F
04A62:  MOVFF  73E,741
04A66:  MOVWF  x42
04A68:  MOVLW  07
04A6A:  MOVWF  x44
04A6C:  MOVLW  35
04A6E:  MOVWF  x43
04A70:  MOVFF  734,745
04A74:  MOVLW  01
04A76:  MOVWF  x46
04A78:  MOVLB  0
04A7A:  CALL   1EA4
04A7E:  MOVLB  7
....................       } 
....................       if(sombreado==1) 
04A80:  DECFSZ x33,W
04A82:  BRA    4ADC
....................          {glcd_rect(x, y, x+(tamano*5), y+(tamano*8), YES, ON);glcd_text57(x+1, y+1, voltage, tamano, OFF);} 
04A84:  MOVF   x34,W
04A86:  MULLW  05
04A88:  MOVF   FF3,W
04A8A:  ADDWF  x31,W
04A8C:  MOVWF  x3E
04A8E:  MOVF   x34,W
04A90:  MULLW  08
04A92:  MOVF   FF3,W
04A94:  ADDWF  x32,W
04A96:  MOVWF  x3F
04A98:  MOVFF  731,743
04A9C:  MOVFF  732,744
04AA0:  MOVFF  73E,745
04AA4:  MOVWF  x46
04AA6:  MOVLW  01
04AA8:  MOVWF  x47
04AAA:  MOVWF  x48
04AAC:  MOVLB  0
04AAE:  CALL   219A
04AB2:  MOVLW  01
04AB4:  MOVLB  7
04AB6:  ADDWF  x31,W
04AB8:  MOVWF  x3E
04ABA:  MOVLW  01
04ABC:  ADDWF  x32,W
04ABE:  MOVWF  x3F
04AC0:  MOVFF  73E,741
04AC4:  MOVWF  x42
04AC6:  MOVLW  07
04AC8:  MOVWF  x44
04ACA:  MOVLW  35
04ACC:  MOVWF  x43
04ACE:  MOVFF  734,745
04AD2:  CLRF   x46
04AD4:  MOVLB  0
04AD6:  CALL   1EA4
04ADA:  MOVLB  7
....................       if(sombreado==0) 
04ADC:  MOVF   x33,F
04ADE:  BNZ   4B3A
....................          {glcd_rect(x, y, x+(tamano*5), y+(tamano*8), YES, OFF);glcd_text57(x+1, y+1, voltage, tamano, ON);} 
04AE0:  MOVF   x34,W
04AE2:  MULLW  05
04AE4:  MOVF   FF3,W
04AE6:  ADDWF  x31,W
04AE8:  MOVWF  x3E
04AEA:  MOVF   x34,W
04AEC:  MULLW  08
04AEE:  MOVF   FF3,W
04AF0:  ADDWF  x32,W
04AF2:  MOVWF  x3F
04AF4:  MOVFF  731,743
04AF8:  MOVFF  732,744
04AFC:  MOVFF  73E,745
04B00:  MOVWF  x46
04B02:  MOVLW  01
04B04:  MOVWF  x47
04B06:  CLRF   x48
04B08:  MOVLB  0
04B0A:  CALL   219A
04B0E:  MOVLW  01
04B10:  MOVLB  7
04B12:  ADDWF  x31,W
04B14:  MOVWF  x3E
04B16:  MOVLW  01
04B18:  ADDWF  x32,W
04B1A:  MOVWF  x3F
04B1C:  MOVFF  73E,741
04B20:  MOVWF  x42
04B22:  MOVLW  07
04B24:  MOVWF  x44
04B26:  MOVLW  35
04B28:  MOVWF  x43
04B2A:  MOVFF  734,745
04B2E:  MOVLW  01
04B30:  MOVWF  x46
04B32:  MOVLB  0
04B34:  CALL   1EA4
04B38:  MOVLB  7
....................    } 
....................    glcd_update(); 
04B3A:  MOVLB  0
04B3C:  CALL   1C88
.................... } 
04B40:  RETLW  00
....................  
....................  
.................... void displayTemps(char palabra[30], char digito[3], int x, int y, int sombreado, int tamano) 
.................... {   
....................    if(sombreado==1) 
*
0379A:  MOVLB  7
0379C:  DECFSZ x33,W
0379E:  BRA    3866
....................    { 
....................       //sprintf(voltage, "%03Lu", digito); 
....................       glcd_rect(0, y, 127, y+(tamano*8), YES, ON); 
037A0:  MOVF   x34,W
037A2:  MULLW  08
037A4:  MOVF   FF3,W
037A6:  ADDWF  x32,W
037A8:  MOVWF  x35
037AA:  CLRF   x43
037AC:  MOVFF  732,744
037B0:  MOVLW  7F
037B2:  MOVWF  x45
037B4:  MOVFF  735,746
037B8:  MOVLW  01
037BA:  MOVWF  x47
037BC:  MOVWF  x48
037BE:  MOVLB  0
037C0:  CALL   219A
....................       strcpy(Menus.Letra,palabra); 
037C4:  MOVLB  7
037C6:  MOVFF  72D,01
037CA:  MOVFF  72E,03
037CE:  MOVFF  72D,735
037D2:  MOVFF  72E,736
037D6:  MOVLW  07
037D8:  MOVWF  FEA
037DA:  MOVLW  09
037DC:  MOVWF  FE9
037DE:  MOVFF  72E,FE2
037E2:  MOVFF  72D,FE1
037E6:  MOVF   FE7,F
037E8:  MOVFF  FE6,FEE
037EC:  BNZ   37E6
....................       glcd_text57(x+1, y+1, Menus.Letra, tamano, OFF); 
037EE:  MOVLW  01
037F0:  ADDWF  x31,W
037F2:  MOVWF  x35
037F4:  MOVLW  01
037F6:  ADDWF  x32,W
037F8:  MOVWF  x36
037FA:  MOVFF  735,741
037FE:  MOVWF  x42
03800:  MOVLW  07
03802:  MOVWF  x44
03804:  MOVLW  09
03806:  MOVWF  x43
03808:  MOVFF  734,745
0380C:  CLRF   x46
0380E:  MOVLB  0
03810:  CALL   1EA4
....................       strcpy(Menus.Letra,digito); 
03814:  MOVLB  7
03816:  MOVFF  72F,01
0381A:  MOVFF  730,03
0381E:  MOVFF  72F,735
03822:  MOVFF  730,736
03826:  MOVLW  07
03828:  MOVWF  FEA
0382A:  MOVLW  09
0382C:  MOVWF  FE9
0382E:  MOVFF  730,FE2
03832:  MOVFF  72F,FE1
03836:  MOVF   FE7,F
03838:  MOVFF  FE6,FEE
0383C:  BNZ   3836
....................       glcd_text57(x+90, y+1, Menus.Letra, tamano, OFF); 
0383E:  MOVLW  5A
03840:  ADDWF  x31,W
03842:  MOVWF  x35
03844:  MOVLW  01
03846:  ADDWF  x32,W
03848:  MOVWF  x36
0384A:  MOVFF  735,741
0384E:  MOVWF  x42
03850:  MOVLW  07
03852:  MOVWF  x44
03854:  MOVLW  09
03856:  MOVWF  x43
03858:  MOVFF  734,745
0385C:  CLRF   x46
0385E:  MOVLB  0
03860:  CALL   1EA4
03864:  MOVLB  7
....................       //strcpy(Menus.Letra,"C"); 
....................       //glcd_text57(x+120, y+1, Menus.Letra, tamano, OFF); 
....................       //glcd_circle(x+115,y-1,1,NO,OFF); 
....................    } 
....................    if(sombreado==0) 
03866:  MOVF   x33,F
03868:  BNZ   3932
....................    { 
....................       //sprintf(voltage, "%03Lu", digito); 
....................       glcd_rect(0, y, 127, y+(tamano*8), YES, OFF); 
0386A:  MOVF   x34,W
0386C:  MULLW  08
0386E:  MOVF   FF3,W
03870:  ADDWF  x32,W
03872:  MOVWF  x35
03874:  CLRF   x43
03876:  MOVFF  732,744
0387A:  MOVLW  7F
0387C:  MOVWF  x45
0387E:  MOVFF  735,746
03882:  MOVLW  01
03884:  MOVWF  x47
03886:  CLRF   x48
03888:  MOVLB  0
0388A:  CALL   219A
....................       strcpy(Menus.Letra,palabra); 
0388E:  MOVLB  7
03890:  MOVFF  72D,01
03894:  MOVFF  72E,03
03898:  MOVFF  72D,735
0389C:  MOVFF  72E,736
038A0:  MOVLW  07
038A2:  MOVWF  FEA
038A4:  MOVLW  09
038A6:  MOVWF  FE9
038A8:  MOVFF  72E,FE2
038AC:  MOVFF  72D,FE1
038B0:  MOVF   FE7,F
038B2:  MOVFF  FE6,FEE
038B6:  BNZ   38B0
....................       glcd_text57(x+1, y+1, Menus.Letra, tamano, ON); 
038B8:  MOVLW  01
038BA:  ADDWF  x31,W
038BC:  MOVWF  x35
038BE:  MOVLW  01
038C0:  ADDWF  x32,W
038C2:  MOVWF  x36
038C4:  MOVFF  735,741
038C8:  MOVWF  x42
038CA:  MOVLW  07
038CC:  MOVWF  x44
038CE:  MOVLW  09
038D0:  MOVWF  x43
038D2:  MOVFF  734,745
038D6:  MOVLW  01
038D8:  MOVWF  x46
038DA:  MOVLB  0
038DC:  CALL   1EA4
....................       strcpy(Menus.Letra,digito); 
038E0:  MOVLB  7
038E2:  MOVFF  72F,01
038E6:  MOVFF  730,03
038EA:  MOVFF  72F,735
038EE:  MOVFF  730,736
038F2:  MOVLW  07
038F4:  MOVWF  FEA
038F6:  MOVLW  09
038F8:  MOVWF  FE9
038FA:  MOVFF  730,FE2
038FE:  MOVFF  72F,FE1
03902:  MOVF   FE7,F
03904:  MOVFF  FE6,FEE
03908:  BNZ   3902
....................       glcd_text57(x+90, y+1, Menus.Letra, tamano, ON); 
0390A:  MOVLW  5A
0390C:  ADDWF  x31,W
0390E:  MOVWF  x35
03910:  MOVLW  01
03912:  ADDWF  x32,W
03914:  MOVWF  x36
03916:  MOVFF  735,741
0391A:  MOVWF  x42
0391C:  MOVLW  07
0391E:  MOVWF  x44
03920:  MOVLW  09
03922:  MOVWF  x43
03924:  MOVFF  734,745
03928:  MOVLW  01
0392A:  MOVWF  x46
0392C:  MOVLB  0
0392E:  CALL   1EA4
....................       //strcpy(Menus.Letra,"C"); 
....................       //glcd_text57(x+120, y+1, Menus.Letra, tamano, ON); 
....................       //glcd_circle(x+115,y-1,1,NO,ON); 
....................    } 
....................    glcd_update(); 
03932:  MOVLB  0
03934:  CALL   1C88
.................... } 
03938:  RETLW  00
....................  
.................... void displayTT(float adc,int x,int y,int w) { 
....................    char voltage[9];     
....................    sprintf(voltage, "%03.1f",adc); // Converts adc to text 
*
04854:  MOVLW  07
04856:  MOVLB  7
04858:  MOVWF  x2C
0485A:  MOVLW  34
0485C:  MOVWF  x2B
0485E:  MOVLW  42
04860:  MOVWF  FE9
04862:  MOVFF  730,744
04866:  MOVFF  72F,743
0486A:  MOVFF  72E,742
0486E:  MOVFF  72D,741
04872:  MOVLW  01
04874:  MOVWF  x45
04876:  MOVLB  0
04878:  RCALL  4628
....................    glcd_rect(x, y, x+(w*27), y+(w*8), YES, OFF); 
0487A:  MOVLB  7
0487C:  MOVF   x33,W
0487E:  MULLW  1B
04880:  MOVF   FF3,W
04882:  ADDWF  x31,W
04884:  MOVWF  x3D
04886:  MOVF   x33,W
04888:  MULLW  08
0488A:  MOVF   FF3,W
0488C:  ADDWF  x32,W
0488E:  MOVWF  x3E
04890:  MOVFF  731,743
04894:  MOVFF  732,744
04898:  MOVFF  73D,745
0489C:  MOVWF  x46
0489E:  MOVLW  01
048A0:  MOVWF  x47
048A2:  CLRF   x48
048A4:  MOVLB  0
048A6:  CALL   219A
....................    /*glcd_rect(x, y, x+53, y+15, YES, ON);*/glcd_text57(x, y, voltage, w, ON); 
048AA:  MOVFF  731,741
048AE:  MOVFF  732,742
048B2:  MOVLW  07
048B4:  MOVLB  7
048B6:  MOVWF  x44
048B8:  MOVLW  34
048BA:  MOVWF  x43
048BC:  MOVFF  733,745
048C0:  MOVLW  01
048C2:  MOVWF  x46
048C4:  MOVLB  0
048C6:  CALL   1EA4
.................... } 
048CA:  RETLW  00
....................  
.................... void Limpia(int x1,int x2,int y){ 
....................    glcd_rect(x1, y, x2, y+7, YES, OFF); 
.................... } 
....................  
.................... void displayT(float adc,int x,int y,int w) { 
....................    char voltage[9];     
....................    sprintf(voltage, "%03.0f",adc); // Converts adc to text 
*
047DC:  MOVLW  07
047DE:  MOVLB  7
047E0:  MOVWF  x2C
047E2:  MOVLW  38
047E4:  MOVWF  x2B
047E6:  MOVLW  42
047E8:  MOVWF  FE9
047EA:  MOVFF  734,744
047EE:  MOVFF  733,743
047F2:  MOVFF  732,742
047F6:  MOVFF  731,741
047FA:  CLRF   x45
047FC:  MOVLB  0
047FE:  RCALL  4628
....................    glcd_rect(x, y, x+(w*27), y+(w*8), YES, OFF); 
04800:  MOVLB  7
04802:  MOVF   x37,W
04804:  MULLW  1B
04806:  MOVF   FF3,W
04808:  ADDWF  x35,W
0480A:  MOVWF  x41
0480C:  MOVF   x37,W
0480E:  MULLW  08
04810:  MOVF   FF3,W
04812:  ADDWF  x36,W
04814:  MOVWF  x42
04816:  MOVFF  735,743
0481A:  MOVFF  736,744
0481E:  MOVFF  741,745
04822:  MOVWF  x46
04824:  MOVLW  01
04826:  MOVWF  x47
04828:  CLRF   x48
0482A:  MOVLB  0
0482C:  CALL   219A
....................    /*glcd_rect(x, y, x+53, y+15, YES, ON);*/glcd_text57(x, y, voltage, w, ON); 
04830:  MOVFF  735,741
04834:  MOVFF  736,742
04838:  MOVLW  07
0483A:  MOVLB  7
0483C:  MOVWF  x44
0483E:  MOVLW  38
04840:  MOVWF  x43
04842:  MOVFF  737,745
04846:  MOVLW  01
04848:  MOVWF  x46
0484A:  MOVLB  0
0484C:  CALL   1EA4
.................... } 
04850:  GOTO   A55E (RETURN)
....................  
.................... void displayContrasena(int digito, int x, int y, int sombreado) 
.................... { 
....................    char voltage[9]; 
....................    sprintf(voltage, "%i", digito); 
*
02482:  MOVLW  07
02484:  MOVLB  7
02486:  MOVWF  x2C
02488:  MOVLW  33
0248A:  MOVWF  x2B
0248C:  MOVFF  72F,73C
02490:  MOVLW  1F
02492:  MOVWF  x3D
02494:  MOVLB  0
02496:  BRA    23A2
....................     
....................    if(sombreado==1) 
02498:  MOVLB  7
0249A:  DECFSZ x32,W
0249C:  BRA    24EC
....................       {glcd_rect(x, y, x+18, y+24, YES, ON);glcd_text57(x+2, y+1, voltage, 2, OFF);} 
0249E:  MOVLW  12
024A0:  ADDWF  x30,W
024A2:  MOVWF  x3C
024A4:  MOVLW  18
024A6:  ADDWF  x31,W
024A8:  MOVWF  x3D
024AA:  MOVFF  730,743
024AE:  MOVFF  731,744
024B2:  MOVFF  73C,745
024B6:  MOVWF  x46
024B8:  MOVLW  01
024BA:  MOVWF  x47
024BC:  MOVWF  x48
024BE:  MOVLB  0
024C0:  RCALL  219A
024C2:  MOVLW  02
024C4:  MOVLB  7
024C6:  ADDWF  x30,W
024C8:  MOVWF  x3C
024CA:  MOVLW  01
024CC:  ADDWF  x31,W
024CE:  MOVWF  x3D
024D0:  MOVFF  73C,741
024D4:  MOVWF  x42
024D6:  MOVLW  07
024D8:  MOVWF  x44
024DA:  MOVLW  33
024DC:  MOVWF  x43
024DE:  MOVLW  02
024E0:  MOVWF  x45
024E2:  CLRF   x46
024E4:  MOVLB  0
024E6:  RCALL  1EA4
....................    else    
024E8:  BRA    2536
024EA:  MOVLB  7
....................       {glcd_rect(x, y, x+18, y+24, NO, OFF);glcd_text57(x+2, y+1, voltage, 2, ON);} 
024EC:  MOVLW  12
024EE:  ADDWF  x30,W
024F0:  MOVWF  x3C
024F2:  MOVLW  18
024F4:  ADDWF  x31,W
024F6:  MOVWF  x3D
024F8:  MOVFF  730,743
024FC:  MOVFF  731,744
02500:  MOVFF  73C,745
02504:  MOVWF  x46
02506:  CLRF   x47
02508:  CLRF   x48
0250A:  MOVLB  0
0250C:  RCALL  219A
0250E:  MOVLW  02
02510:  MOVLB  7
02512:  ADDWF  x30,W
02514:  MOVWF  x3C
02516:  MOVLW  01
02518:  ADDWF  x31,W
0251A:  MOVWF  x3D
0251C:  MOVFF  73C,741
02520:  MOVWF  x42
02522:  MOVLW  07
02524:  MOVWF  x44
02526:  MOVLW  33
02528:  MOVWF  x43
0252A:  MOVLW  02
0252C:  MOVWF  x45
0252E:  MOVLW  01
02530:  MOVWF  x46
02532:  MOVLB  0
02534:  RCALL  1EA4
....................  
.................... } 
02536:  RETLW  00
....................  
.................... void displayMenu(char palabra[30], int x, int y, int sombreado, int tamano) 
.................... { 
....................    strcpy(Menus.Letra,palabra); 
*
0225C:  MOVLB  7
0225E:  MOVFF  72D,01
02262:  MOVFF  72E,03
02266:  MOVFF  72D,733
0226A:  MOVFF  72E,734
0226E:  MOVLW  07
02270:  MOVWF  FEA
02272:  MOVLW  09
02274:  MOVWF  FE9
02276:  MOVFF  72E,FE2
0227A:  MOVFF  72D,FE1
0227E:  MOVF   FE7,F
02280:  MOVFF  FE6,FEE
02284:  BNZ   227E
....................    if(sombreado==2) 
02286:  MOVF   x31,W
02288:  SUBLW  02
0228A:  BNZ   22B4
....................       {glcd_text57(x+1, y+1, Menus.Letra, tamano, ON);} 
0228C:  MOVLW  01
0228E:  ADDWF  x2F,W
02290:  MOVWF  x33
02292:  MOVLW  01
02294:  ADDWF  x30,W
02296:  MOVWF  x34
02298:  MOVFF  733,741
0229C:  MOVWF  x42
0229E:  MOVLW  07
022A0:  MOVWF  x44
022A2:  MOVLW  09
022A4:  MOVWF  x43
022A6:  MOVFF  732,745
022AA:  MOVLW  01
022AC:  MOVWF  x46
022AE:  MOVLB  0
022B0:  RCALL  1EA4
022B2:  MOVLB  7
....................    if(sombreado==1) 
022B4:  DECFSZ x31,W
022B6:  BRA    2302
....................       {glcd_rect(0, y, 127, y+(tamano*8), YES, ON);glcd_text57(x+1, y+1, Menus.Letra, tamano, OFF);} 
022B8:  MOVF   x32,W
022BA:  MULLW  08
022BC:  MOVF   FF3,W
022BE:  ADDWF  x30,W
022C0:  MOVWF  x33
022C2:  CLRF   x43
022C4:  MOVFF  730,744
022C8:  MOVLW  7F
022CA:  MOVWF  x45
022CC:  MOVFF  733,746
022D0:  MOVLW  01
022D2:  MOVWF  x47
022D4:  MOVWF  x48
022D6:  MOVLB  0
022D8:  RCALL  219A
022DA:  MOVLW  01
022DC:  MOVLB  7
022DE:  ADDWF  x2F,W
022E0:  MOVWF  x33
022E2:  MOVLW  01
022E4:  ADDWF  x30,W
022E6:  MOVWF  x34
022E8:  MOVFF  733,741
022EC:  MOVWF  x42
022EE:  MOVLW  07
022F0:  MOVWF  x44
022F2:  MOVLW  09
022F4:  MOVWF  x43
022F6:  MOVFF  732,745
022FA:  CLRF   x46
022FC:  MOVLB  0
022FE:  RCALL  1EA4
02300:  MOVLB  7
....................    if(sombreado==0) 
02302:  MOVF   x31,F
02304:  BNZ   2350
....................       {glcd_rect(0, y, 127, y+(tamano*8), YES, OFF);glcd_text57(x+1, y+1, Menus.Letra, tamano, ON);} 
02306:  MOVF   x32,W
02308:  MULLW  08
0230A:  MOVF   FF3,W
0230C:  ADDWF  x30,W
0230E:  MOVWF  x33
02310:  CLRF   x43
02312:  MOVFF  730,744
02316:  MOVLW  7F
02318:  MOVWF  x45
0231A:  MOVFF  733,746
0231E:  MOVLW  01
02320:  MOVWF  x47
02322:  CLRF   x48
02324:  MOVLB  0
02326:  RCALL  219A
02328:  MOVLW  01
0232A:  MOVLB  7
0232C:  ADDWF  x2F,W
0232E:  MOVWF  x33
02330:  MOVLW  01
02332:  ADDWF  x30,W
02334:  MOVWF  x34
02336:  MOVFF  733,741
0233A:  MOVWF  x42
0233C:  MOVLW  07
0233E:  MOVWF  x44
02340:  MOVLW  09
02342:  MOVWF  x43
02344:  MOVFF  732,745
02348:  MOVLW  01
0234A:  MOVWF  x46
0234C:  MOVLB  0
0234E:  RCALL  1EA4
....................    glcd_update(); 
02350:  MOVLB  0
02352:  RCALL  1C88
.................... } 
02354:  RETLW  00
....................  
.................... void displayTiempo(int digito, int x, int y, int sombreado, int tamano) 
.................... { 
....................    char voltage[9]; 
....................     
....................    if(sombreado==2) 
*
039C0:  MOVLB  7
039C2:  MOVF   x30,W
039C4:  SUBLW  02
039C6:  BNZ   3A38
....................    { 
....................       sprintf(voltage, "%03u", digito); 
039C8:  MOVLW  07
039CA:  MOVWF  x2C
039CC:  MOVLW  32
039CE:  MOVWF  x2B
039D0:  MOVFF  72D,73B
039D4:  MOVLW  03
039D6:  MOVWF  x3C
039D8:  MOVLB  0
039DA:  RCALL  393A
....................       glcd_rect(x, y, x+(tamano*18), y+(tamano*8), YES, ON); 
039DC:  MOVLB  7
039DE:  MOVF   x31,W
039E0:  MULLW  12
039E2:  MOVF   FF3,W
039E4:  ADDWF  x2E,W
039E6:  MOVWF  x3B
039E8:  MOVF   x31,W
039EA:  MULLW  08
039EC:  MOVF   FF3,W
039EE:  ADDWF  x2F,W
039F0:  MOVWF  x3C
039F2:  MOVFF  72E,743
039F6:  MOVFF  72F,744
039FA:  MOVFF  73B,745
039FE:  MOVWF  x46
03A00:  MOVLW  01
03A02:  MOVWF  x47
03A04:  MOVWF  x48
03A06:  MOVLB  0
03A08:  CALL   219A
....................       glcd_text57(x+1, y+1, voltage, tamano, OFF); 
03A0C:  MOVLW  01
03A0E:  MOVLB  7
03A10:  ADDWF  x2E,W
03A12:  MOVWF  x3B
03A14:  MOVLW  01
03A16:  ADDWF  x2F,W
03A18:  MOVWF  x3C
03A1A:  MOVFF  73B,741
03A1E:  MOVWF  x42
03A20:  MOVLW  07
03A22:  MOVWF  x44
03A24:  MOVLW  32
03A26:  MOVWF  x43
03A28:  MOVFF  731,745
03A2C:  CLRF   x46
03A2E:  MOVLB  0
03A30:  CALL   1EA4
....................    } 
....................    else 
03A34:  BRA    3B06
03A36:  MOVLB  7
....................    { 
....................       sprintf(voltage, "%u", digito); 
03A38:  MOVLW  07
03A3A:  MOVWF  x2C
03A3C:  MOVLW  32
03A3E:  MOVWF  x2B
03A40:  MOVFF  72D,73B
03A44:  MOVLW  1B
03A46:  MOVWF  x3C
03A48:  MOVLB  0
03A4A:  RCALL  393A
....................     
....................       if(sombreado==1) 
03A4C:  MOVLB  7
03A4E:  DECFSZ x30,W
03A50:  BRA    3AAA
....................          {glcd_rect(x, y, x+(tamano*5), y+(tamano*8), YES, ON);glcd_text57(x+1, y+1, voltage, tamano, OFF);} 
03A52:  MOVF   x31,W
03A54:  MULLW  05
03A56:  MOVF   FF3,W
03A58:  ADDWF  x2E,W
03A5A:  MOVWF  x3B
03A5C:  MOVF   x31,W
03A5E:  MULLW  08
03A60:  MOVF   FF3,W
03A62:  ADDWF  x2F,W
03A64:  MOVWF  x3C
03A66:  MOVFF  72E,743
03A6A:  MOVFF  72F,744
03A6E:  MOVFF  73B,745
03A72:  MOVWF  x46
03A74:  MOVLW  01
03A76:  MOVWF  x47
03A78:  MOVWF  x48
03A7A:  MOVLB  0
03A7C:  CALL   219A
03A80:  MOVLW  01
03A82:  MOVLB  7
03A84:  ADDWF  x2E,W
03A86:  MOVWF  x3B
03A88:  MOVLW  01
03A8A:  ADDWF  x2F,W
03A8C:  MOVWF  x3C
03A8E:  MOVFF  73B,741
03A92:  MOVWF  x42
03A94:  MOVLW  07
03A96:  MOVWF  x44
03A98:  MOVLW  32
03A9A:  MOVWF  x43
03A9C:  MOVFF  731,745
03AA0:  CLRF   x46
03AA2:  MOVLB  0
03AA4:  CALL   1EA4
03AA8:  MOVLB  7
....................       if(sombreado==0) 
03AAA:  MOVF   x30,F
03AAC:  BNZ   3B08
....................          {glcd_rect(x, y, x+(tamano*5), y+(tamano*8), YES, OFF);glcd_text57(x+1, y+1, voltage, tamano, ON);} 
03AAE:  MOVF   x31,W
03AB0:  MULLW  05
03AB2:  MOVF   FF3,W
03AB4:  ADDWF  x2E,W
03AB6:  MOVWF  x3B
03AB8:  MOVF   x31,W
03ABA:  MULLW  08
03ABC:  MOVF   FF3,W
03ABE:  ADDWF  x2F,W
03AC0:  MOVWF  x3C
03AC2:  MOVFF  72E,743
03AC6:  MOVFF  72F,744
03ACA:  MOVFF  73B,745
03ACE:  MOVWF  x46
03AD0:  MOVLW  01
03AD2:  MOVWF  x47
03AD4:  CLRF   x48
03AD6:  MOVLB  0
03AD8:  CALL   219A
03ADC:  MOVLW  01
03ADE:  MOVLB  7
03AE0:  ADDWF  x2E,W
03AE2:  MOVWF  x3B
03AE4:  MOVLW  01
03AE6:  ADDWF  x2F,W
03AE8:  MOVWF  x3C
03AEA:  MOVFF  73B,741
03AEE:  MOVWF  x42
03AF0:  MOVLW  07
03AF2:  MOVWF  x44
03AF4:  MOVLW  32
03AF6:  MOVWF  x43
03AF8:  MOVFF  731,745
03AFC:  MOVLW  01
03AFE:  MOVWF  x46
03B00:  MOVLB  0
03B02:  CALL   1EA4
03B06:  MOVLB  7
....................    } 
....................    glcd_update(); 
03B08:  MOVLB  0
03B0A:  CALL   1C88
.................... } 
03B0E:  RETLW  00
....................  
.................... void glcd_imagen(int8 x) 
.................... { 
....................    char i,j; 
....................    signed char k;  
....................     
....................    if(x==5){ 
*
03696:  MOVLB  7
03698:  MOVF   x2D,W
0369A:  SUBLW  05
0369C:  BNZ   3742
....................    for( i = 0 ; i < 64 ; i ++ ) 
0369E:  CLRF   x2E
036A0:  MOVF   x2E,W
036A2:  SUBLW  3F
036A4:  BNC   3742
....................    {   
....................       for( j = 0 ; j < 16 ; j ++) 
036A6:  CLRF   x2F
036A8:  MOVF   x2F,W
036AA:  SUBLW  0F
036AC:  BNC   373E
....................       {     
....................          for(k=7;k>-1;k--) 
036AE:  MOVLW  07
036B0:  MOVWF  x30
036B2:  MOVF   x30,W
036B4:  XORLW  80
036B6:  SUBLW  7F
036B8:  BC    373A
....................          {       
....................             if( bit_test(Proceso[i][j] ,7-k ))  
036BA:  CLRF   x32
036BC:  MOVFF  72E,731
036C0:  CLRF   x34
036C2:  MOVLW  10
036C4:  MOVWF  x33
036C6:  MOVLB  0
036C8:  CALL   2590
036CC:  MOVFF  02,732
036D0:  MOVFF  01,731
036D4:  MOVLB  7
036D6:  MOVF   x2F,W
036D8:  ADDWF  01,W
036DA:  MOVWF  01
036DC:  MOVLW  00
036DE:  ADDWFC 02,W
036E0:  MOVWF  03
036E2:  MOVF   01,W
036E4:  MOVFF  FF2,731
036E8:  BCF    FF2.7
036EA:  MOVFF  03,FF7
036EE:  MOVLB  0
036F0:  CALL   02C2
036F4:  MOVLB  7
036F6:  BTFSC  x31.7
036F8:  BSF    FF2.7
036FA:  MOVWF  x31
036FC:  MOVLW  07
036FE:  BSF    FD8.0
03700:  SUBFWB x30,W
03702:  MOVWF  x32
03704:  MOVFF  731,00
03708:  MOVF   x32,W
0370A:  MOVWF  01
0370C:  BZ    3716
0370E:  BCF    FD8.0
03710:  RRCF   00,F
03712:  DECFSZ 01,F
03714:  BRA    370E
03716:  BTFSS  00.0
03718:  BRA    3736
....................                glcd_pixel( j*8+k,i, ON ); 
0371A:  MOVF   x2F,W
0371C:  MULLW  08
0371E:  MOVF   FF3,W
03720:  ADDWF  x30,W
03722:  MOVWF  x31
03724:  MOVWF  x5E
03726:  MOVFF  72E,75F
0372A:  MOVLW  01
0372C:  MOVWF  x60
0372E:  MOVLB  0
03730:  CALL   1DE8
03734:  MOVLB  7
....................          }   
03736:  DECF   x30,F
03738:  BRA    36B2
....................       } 
0373A:  INCF   x2F,F
0373C:  BRA    36A8
....................    } 
0373E:  INCF   x2E,F
03740:  BRA    36A0
....................    } 
....................     
.................... } 
03742:  MOVLB  0
03744:  RETLW  00
....................  
.................... void CuadroCalentando(short estado){ 
....................    if(estado){ 
03746:  MOVLB  7
03748:  MOVF   x2D,F
0374A:  BZ    3770
....................       glcd_rect(15, 18, 30, 53, NO, ON); 
0374C:  MOVLW  0F
0374E:  MOVWF  x43
03750:  MOVLW  12
03752:  MOVWF  x44
03754:  MOVLW  1E
03756:  MOVWF  x45
03758:  MOVLW  35
0375A:  MOVWF  x46
0375C:  CLRF   x47
0375E:  MOVLW  01
03760:  MOVWF  x48
03762:  MOVLB  0
03764:  CALL   219A
....................       flagCalentando=OFF; 
03768:  MOVLB  4
0376A:  BCF    x5F.4
....................    }else{ 
0376C:  BRA    3796
0376E:  MOVLB  7
....................       if(!flagCalentando){ 
03770:  MOVLB  4
03772:  BTFSC  x5F.4
03774:  BRA    3796
....................          glcd_rect(15, 18, 30, 53, NO, OFF); 
03776:  MOVLW  0F
03778:  MOVLB  7
0377A:  MOVWF  x43
0377C:  MOVLW  12
0377E:  MOVWF  x44
03780:  MOVLW  1E
03782:  MOVWF  x45
03784:  MOVLW  35
03786:  MOVWF  x46
03788:  CLRF   x47
0378A:  CLRF   x48
0378C:  MOVLB  0
0378E:  CALL   219A
....................          flagCalentando=ON; 
03792:  MOVLB  4
03794:  BSF    x5F.4
....................       } 
....................    } 
.................... } 
03796:  MOVLB  0
03798:  RETLW  00
....................  
.................... void CuadroEsterilizando(short estado){ 
....................    if(estado){ 
*
03F3A:  MOVLB  7
03F3C:  MOVF   x2D,F
03F3E:  BZ    3F64
....................       glcd_rect(25, 18, 60, 26, NO, ON); 
03F40:  MOVLW  19
03F42:  MOVWF  x43
03F44:  MOVLW  12
03F46:  MOVWF  x44
03F48:  MOVLW  3C
03F4A:  MOVWF  x45
03F4C:  MOVLW  1A
03F4E:  MOVWF  x46
03F50:  CLRF   x47
03F52:  MOVLW  01
03F54:  MOVWF  x48
03F56:  MOVLB  0
03F58:  CALL   219A
....................       flagEsterilizando=OFF; 
03F5C:  MOVLB  4
03F5E:  BCF    x5F.5
....................    }else{ 
03F60:  BRA    3F8A
03F62:  MOVLB  7
....................       if(!flagEsterilizando){ 
03F64:  MOVLB  4
03F66:  BTFSC  x5F.5
03F68:  BRA    3F8A
....................          glcd_rect(25, 18, 60, 26, NO, OFF); 
03F6A:  MOVLW  19
03F6C:  MOVLB  7
03F6E:  MOVWF  x43
03F70:  MOVLW  12
03F72:  MOVWF  x44
03F74:  MOVLW  3C
03F76:  MOVWF  x45
03F78:  MOVLW  1A
03F7A:  MOVWF  x46
03F7C:  CLRF   x47
03F7E:  CLRF   x48
03F80:  MOVLB  0
03F82:  CALL   219A
....................          flagEsterilizando=ON; 
03F86:  MOVLB  4
03F88:  BSF    x5F.5
....................       } 
....................    } 
.................... } 
03F8A:  MOVLB  0
03F8C:  RETLW  00
....................  
.................... void CuadroDesfogando(short estado){ 
....................    if(estado){ 
*
03EE6:  MOVLB  7
03EE8:  MOVF   x2D,F
03EEA:  BZ    3F10
....................       glcd_rect(55, 18, 68, 53, NO, ON); 
03EEC:  MOVLW  37
03EEE:  MOVWF  x43
03EF0:  MOVLW  12
03EF2:  MOVWF  x44
03EF4:  MOVLW  44
03EF6:  MOVWF  x45
03EF8:  MOVLW  35
03EFA:  MOVWF  x46
03EFC:  CLRF   x47
03EFE:  MOVLW  01
03F00:  MOVWF  x48
03F02:  MOVLB  0
03F04:  CALL   219A
....................       flagDesfogando=OFF; 
03F08:  MOVLB  4
03F0A:  BCF    x5F.6
....................    }else{ 
03F0C:  BRA    3F36
03F0E:  MOVLB  7
....................       if(!flagDesfogando){ 
03F10:  MOVLB  4
03F12:  BTFSC  x5F.6
03F14:  BRA    3F36
....................          glcd_rect(55, 18, 68, 53, NO, OFF); 
03F16:  MOVLW  37
03F18:  MOVLB  7
03F1A:  MOVWF  x43
03F1C:  MOVLW  12
03F1E:  MOVWF  x44
03F20:  MOVLW  44
03F22:  MOVWF  x45
03F24:  MOVLW  35
03F26:  MOVWF  x46
03F28:  CLRF   x47
03F2A:  CLRF   x48
03F2C:  MOVLB  0
03F2E:  CALL   219A
....................          flagDesfogando=ON; 
03F32:  MOVLB  4
03F34:  BSF    x5F.6
....................       } 
....................    } 
.................... } 
03F36:  MOVLB  0
03F38:  RETLW  00
....................  
.................... void BorraStatus(){ 
....................    glcd_rect(0, 55, 127, 63, YES, OFF); 
*
03EC8:  MOVLB  7
03ECA:  CLRF   x43
03ECC:  MOVLW  37
03ECE:  MOVWF  x44
03ED0:  MOVLW  7F
03ED2:  MOVWF  x45
03ED4:  MOVLW  3F
03ED6:  MOVWF  x46
03ED8:  MOVLW  01
03EDA:  MOVWF  x47
03EDC:  CLRF   x48
03EDE:  MOVLB  0
03EE0:  CALL   219A
.................... } 
03EE4:  RETLW  00
....................  
....................  
....................  
.................... //Funciones//---------------------------- 
.................... void MuestraTiemposProgramados(){ 
.................... // Muestra Valor de esterilizacion programado. 
....................    displayTiempo(Testerilizacionp[3],36,0,0,1);displayTiempo(Testerilizacionp[2],42,0,0,1); 
*
03D88:  MOVFF  471,72D
03D8C:  MOVLW  24
03D8E:  MOVLB  7
03D90:  MOVWF  x2E
03D92:  CLRF   x2F
03D94:  CLRF   x30
03D96:  MOVLW  01
03D98:  MOVWF  x31
03D9A:  MOVLB  0
03D9C:  RCALL  39C0
03D9E:  MOVFF  470,72D
03DA2:  MOVLW  2A
03DA4:  MOVLB  7
03DA6:  MOVWF  x2E
03DA8:  CLRF   x2F
03DAA:  CLRF   x30
03DAC:  MOVLW  01
03DAE:  MOVWF  x31
03DB0:  MOVLB  0
03DB2:  RCALL  39C0
....................    strcpy(Menus.Letra,":");displayMenu(Menus.Letra,49,0,2,1);  
03DB4:  MOVLW  07
03DB6:  MOVWF  FEA
03DB8:  MOVLW  09
03DBA:  MOVWF  FE9
03DBC:  MOVFF  FF2,72D
03DC0:  BCF    FF2.7
03DC2:  MOVLW  00
03DC4:  CALL   06DE
03DC8:  TBLRD*-
03DCA:  TBLRD*+
03DCC:  MOVF   FF5,W
03DCE:  MOVWF  FEE
03DD0:  IORLW  00
03DD2:  BNZ   3DCA
03DD4:  MOVLB  7
03DD6:  BTFSC  x2D.7
03DD8:  BSF    FF2.7
03DDA:  MOVLW  07
03DDC:  MOVWF  x2E
03DDE:  MOVLW  09
03DE0:  MOVWF  x2D
03DE2:  MOVLW  31
03DE4:  MOVWF  x2F
03DE6:  CLRF   x30
03DE8:  MOVLW  02
03DEA:  MOVWF  x31
03DEC:  MOVLW  01
03DEE:  MOVWF  x32
03DF0:  MOVLB  0
03DF2:  CALL   225C
....................    displayTiempo(Testerilizacionp[1],54,0,0,1);displayTiempo(Testerilizacionp[0],60,0,0,1); 
03DF6:  MOVFF  46F,72D
03DFA:  MOVLW  36
03DFC:  MOVLB  7
03DFE:  MOVWF  x2E
03E00:  CLRF   x2F
03E02:  CLRF   x30
03E04:  MOVLW  01
03E06:  MOVWF  x31
03E08:  MOVLB  0
03E0A:  RCALL  39C0
03E0C:  MOVFF  46E,72D
03E10:  MOVLW  3C
03E12:  MOVLB  7
03E14:  MOVWF  x2E
03E16:  CLRF   x2F
03E18:  CLRF   x30
03E1A:  MOVLW  01
03E1C:  MOVWF  x31
03E1E:  MOVLB  0
03E20:  RCALL  39C0
.................... // Muestra tiempo de secado programado. 
....................    displayTiempo(Tsecadop[3],36,8,0,1);displayTiempo(Tsecadop[2],42,8,0,1); 
03E22:  MOVFF  479,72D
03E26:  MOVLW  24
03E28:  MOVLB  7
03E2A:  MOVWF  x2E
03E2C:  MOVLW  08
03E2E:  MOVWF  x2F
03E30:  CLRF   x30
03E32:  MOVLW  01
03E34:  MOVWF  x31
03E36:  MOVLB  0
03E38:  RCALL  39C0
03E3A:  MOVFF  478,72D
03E3E:  MOVLW  2A
03E40:  MOVLB  7
03E42:  MOVWF  x2E
03E44:  MOVLW  08
03E46:  MOVWF  x2F
03E48:  CLRF   x30
03E4A:  MOVLW  01
03E4C:  MOVWF  x31
03E4E:  MOVLB  0
03E50:  RCALL  39C0
....................    strcpy(Menus.Letra,":");displayMenu(Menus.Letra,49,8,2,1);  
03E52:  MOVLW  07
03E54:  MOVWF  FEA
03E56:  MOVLW  09
03E58:  MOVWF  FE9
03E5A:  MOVFF  FF2,72D
03E5E:  BCF    FF2.7
03E60:  MOVLW  00
03E62:  CALL   06DE
03E66:  TBLRD*-
03E68:  TBLRD*+
03E6A:  MOVF   FF5,W
03E6C:  MOVWF  FEE
03E6E:  IORLW  00
03E70:  BNZ   3E68
03E72:  MOVLB  7
03E74:  BTFSC  x2D.7
03E76:  BSF    FF2.7
03E78:  MOVLW  07
03E7A:  MOVWF  x2E
03E7C:  MOVLW  09
03E7E:  MOVWF  x2D
03E80:  MOVLW  31
03E82:  MOVWF  x2F
03E84:  MOVLW  08
03E86:  MOVWF  x30
03E88:  MOVLW  02
03E8A:  MOVWF  x31
03E8C:  MOVLW  01
03E8E:  MOVWF  x32
03E90:  MOVLB  0
03E92:  CALL   225C
....................    displayTiempo(Tsecadop[1],54,8,0,1);displayTiempo(Tsecadop[0],60,8,0,1); 
03E96:  MOVFF  477,72D
03E9A:  MOVLW  36
03E9C:  MOVLB  7
03E9E:  MOVWF  x2E
03EA0:  MOVLW  08
03EA2:  MOVWF  x2F
03EA4:  CLRF   x30
03EA6:  MOVLW  01
03EA8:  MOVWF  x31
03EAA:  MOVLB  0
03EAC:  RCALL  39C0
03EAE:  MOVFF  476,72D
03EB2:  MOVLW  3C
03EB4:  MOVLB  7
03EB6:  MOVWF  x2E
03EB8:  MOVLW  08
03EBA:  MOVWF  x2F
03EBC:  CLRF   x30
03EBE:  MOVLW  01
03EC0:  MOVWF  x31
03EC2:  MOVLB  0
03EC4:  RCALL  39C0
.................... } 
03EC6:  RETLW  00
....................  
.................... void ActualizaRecta(){ 
....................    X[y]=Temperature; 
*
03F8E:  MOVLB  7
03F90:  MOVF   x06,W
03F92:  MULLW  04
03F94:  MOVF   FF3,W
03F96:  CLRF   03
03F98:  ADDLW  66
03F9A:  MOVWF  FE9
03F9C:  MOVLW  06
03F9E:  ADDWFC 03,W
03FA0:  MOVWF  FEA
03FA2:  MOVFF  69C,FEF
03FA6:  MOVFF  69D,FEC
03FAA:  MOVFF  69E,FEC
03FAE:  MOVFF  69F,FEC
....................    y++; 
03FB2:  INCF   x06,F
....................    if(y>=2) 
03FB4:  MOVF   x06,W
03FB6:  SUBLW  01
03FB8:  BC    3FF6
....................    { 
....................       y=0; 
03FBA:  CLRF   x06
....................       Aumento=X[1]-X[0]; 
03FBC:  BSF    FD8.1
03FBE:  MOVFF  66D,735
03FC2:  MOVFF  66C,734
03FC6:  MOVFF  66B,733
03FCA:  MOVFF  66A,732
03FCE:  MOVFF  669,739
03FD2:  MOVFF  668,738
03FD6:  MOVFF  667,737
03FDA:  MOVFF  666,736
03FDE:  MOVLB  0
03FE0:  CALL   1906
03FE4:  MOVFF  03,675
03FE8:  MOVFF  02,674
03FEC:  MOVFF  01,673
03FF0:  MOVFF  00,672
03FF4:  MOVLB  7
....................    } 
.................... } 
03FF6:  MOVLB  0
03FF8:  GOTO   4074 (RETURN)
....................  
.................... // Funcion para conversor analogo-digital 
.................... float sensores(int x){ 
.................... float y;set_adc_channel(x);delay_ms(1);y=read_adc();return (y); 
*
02538:  MOVLB  7
0253A:  RLCF   x2E,W
0253C:  MOVWF  00
0253E:  RLCF   00,F
02540:  MOVLW  FC
02542:  ANDWF  00,F
02544:  MOVFF  00,01
02548:  MOVF   FC2,W
0254A:  ANDLW  C3
0254C:  IORWF  00,W
0254E:  MOVWF  FC2
02550:  MOVLW  01
02552:  MOVWF  x33
02554:  MOVLB  0
02556:  CALL   174A
0255A:  BSF    FC2.1
0255C:  BTFSC  FC2.1
0255E:  BRA    255C
02560:  MOVFF  FC4,734
02564:  MOVFF  FC3,733
02568:  MOVLB  0
0256A:  CALL   1772
0256E:  MOVFF  03,732
02572:  MOVFF  02,731
02576:  MOVFF  01,730
0257A:  MOVFF  00,72F
0257E:  MOVFF  72F,00
02582:  MOVFF  730,01
02586:  MOVFF  731,02
0258A:  MOVFF  732,03
.................... } 
0258E:  RETLW  00
.................... float LeerPT100(int media) 
.................... { 
....................    Prom=0.0; 
*
026A8:  MOVLB  6
026AA:  CLRF   x9B
026AC:  CLRF   x9A
026AE:  CLRF   x99
026B0:  CLRF   x98
....................    V0 = sensores(0);   //Lectura de Divisor de Voltaje de PT100 con resistencia de 6.18k (+-2%) 
026B2:  MOVLB  7
026B4:  CLRF   x2E
026B6:  MOVLB  0
026B8:  RCALL  2538
026BA:  MOVFF  03,683
026BE:  MOVFF  02,682
026C2:  MOVFF  01,681
026C6:  MOVFF  00,680
....................    V0 = V0/Gain; // Se elimina la ganancia 
026CA:  MOVFF  683,735
026CE:  MOVFF  682,734
026D2:  MOVFF  681,733
026D6:  MOVFF  680,732
026DA:  MOVFF  65D,739
026DE:  MOVFF  65C,738
026E2:  MOVFF  65B,737
026E6:  MOVFF  65A,736
026EA:  CALL   17A8
026EE:  MOVFF  03,683
026F2:  MOVFF  02,682
026F6:  MOVFF  01,681
026FA:  MOVFF  00,680
....................    Pt=(R1)/((1024.0/V0)-1.0); // Se calcula el valor de la PT100 
026FE:  MOVLB  7
02700:  CLRF   x35
02702:  CLRF   x34
02704:  CLRF   x33
02706:  MOVLW  89
02708:  MOVWF  x32
0270A:  MOVFF  683,739
0270E:  MOVFF  682,738
02712:  MOVFF  681,737
02716:  MOVFF  680,736
0271A:  MOVLB  0
0271C:  CALL   17A8
02720:  MOVFF  00,72E
02724:  MOVFF  01,72F
02728:  MOVFF  02,730
0272C:  MOVFF  03,731
02730:  BSF    FD8.1
02732:  MOVFF  03,735
02736:  MOVFF  02,734
0273A:  MOVFF  01,733
0273E:  MOVFF  00,732
02742:  MOVLB  7
02744:  CLRF   x39
02746:  CLRF   x38
02748:  CLRF   x37
0274A:  MOVLW  7F
0274C:  MOVWF  x36
0274E:  MOVLB  0
02750:  CALL   1906
02754:  MOVFF  687,735
02758:  MOVFF  686,734
0275C:  MOVFF  685,733
02760:  MOVFF  684,732
02764:  MOVFF  03,739
02768:  MOVFF  02,738
0276C:  MOVFF  01,737
02770:  MOVFF  00,736
02774:  CALL   17A8
02778:  MOVFF  03,68B
0277C:  MOVFF  02,68A
02780:  MOVFF  01,689
02784:  MOVFF  00,688
....................    Pt=Pt-RPT100; //Ajuste de impedancia de cableado de PT100 
02788:  BSF    FD8.1
0278A:  MOVFF  68B,735
0278E:  MOVFF  68A,734
02792:  MOVFF  689,733
02796:  MOVFF  688,732
0279A:  MOVFF  661,739
0279E:  MOVFF  660,738
027A2:  MOVFF  65F,737
027A6:  MOVFF  65E,736
027AA:  CALL   1906
027AE:  MOVFF  03,68B
027B2:  MOVFF  02,68A
027B6:  MOVFF  01,689
027BA:  MOVFF  00,688
....................    //Temperature=(Pt-100.0)/(0.385);  // Ecuacin determinada por linealizacin en Matlab. Revisar este polinomio.   
....................              
....................    if(l>(media-1)) 
027BE:  MOVLW  01
027C0:  MOVLB  7
027C2:  SUBWF  x2D,W
027C4:  MOVLB  6
027C6:  SUBWF  x7B,W
027C8:  BZ    27CE
027CA:  BNC   27CE
....................    {l=0;} 
027CC:  CLRF   x7B
....................    //promedio[l]=Temperature;l++; 
....................    promedio[l]=Pt;l++; 
027CE:  MOVLB  7
027D0:  CLRF   x32
027D2:  MOVFF  67B,731
027D6:  CLRF   x34
027D8:  MOVLW  04
027DA:  MOVWF  x33
027DC:  MOVLB  0
027DE:  RCALL  2590
027E0:  MOVF   01,W
027E2:  ADDLW  7A
027E4:  MOVWF  FE9
027E6:  MOVLW  04
027E8:  ADDWFC 02,W
027EA:  MOVWF  FEA
027EC:  MOVFF  688,FEF
027F0:  MOVFF  689,FEC
027F4:  MOVFF  68A,FEC
027F8:  MOVFF  68B,FEC
027FC:  MOVLB  6
027FE:  INCF   x7B,F
....................           
....................    for(h=0;h<media;h++) 
02800:  CLRF   x7A
02802:  MOVLB  7
02804:  MOVF   x2D,W
02806:  MOVLB  6
02808:  SUBWF  x7A,W
0280A:  BC    288A
....................    { 
....................       Prom+=promedio[h]; 
0280C:  MOVLB  7
0280E:  CLRF   x32
02810:  MOVFF  67A,731
02814:  CLRF   x34
02816:  MOVLW  04
02818:  MOVWF  x33
0281A:  MOVLB  0
0281C:  RCALL  2590
0281E:  MOVFF  02,03
02822:  MOVF   01,W
02824:  ADDLW  7A
02826:  MOVWF  FE9
02828:  MOVLW  04
0282A:  ADDWFC 02,W
0282C:  MOVWF  FEA
0282E:  MOVFF  FEF,00
02832:  MOVFF  FEC,01
02836:  MOVFF  FEC,02
0283A:  MOVFF  FEC,03
0283E:  MOVFF  FEA,72F
02842:  MOVFF  FE9,72E
02846:  BCF    FD8.1
02848:  MOVFF  69B,735
0284C:  MOVFF  69A,734
02850:  MOVFF  699,733
02854:  MOVFF  698,732
02858:  MOVFF  03,739
0285C:  MOVFF  02,738
02860:  MOVFF  01,737
02864:  MOVFF  00,736
02868:  CALL   1906
0286C:  MOVFF  72F,FEA
02870:  MOVFF  72E,FE9
02874:  MOVFF  03,69B
02878:  MOVFF  02,69A
0287C:  MOVFF  01,699
02880:  MOVFF  00,698
....................    }  
02884:  MOVLB  6
02886:  INCF   x7A,F
02888:  BRA    2802
....................    Prom=Prom/media;    
0288A:  MOVLB  7
0288C:  CLRF   x34
0288E:  MOVFF  72D,733
02892:  MOVLB  0
02894:  CALL   1772
02898:  MOVFF  69B,735
0289C:  MOVFF  69A,734
028A0:  MOVFF  699,733
028A4:  MOVFF  698,732
028A8:  MOVFF  03,739
028AC:  MOVFF  02,738
028B0:  MOVFF  01,737
028B4:  MOVFF  00,736
028B8:  CALL   17A8
028BC:  MOVFF  03,69B
028C0:  MOVFF  02,69A
028C4:  MOVFF  01,699
028C8:  MOVFF  00,698
....................    //Temperature=(Prom-100.0)/(0.385);  // Ecuacin determinada por linealizacin en Matlab. Revisar este polinomio.   
....................    Temperature=((Prom*Prom)*a)+(Prom*b)+c;  // Ecuacin determinada por linealizacin en Matlab. Revisar este polinomio. 
028CC:  MOVFF  69B,751
028D0:  MOVFF  69A,750
028D4:  MOVFF  699,74F
028D8:  MOVFF  698,74E
028DC:  MOVFF  69B,755
028E0:  MOVFF  69A,754
028E4:  MOVFF  699,753
028E8:  MOVFF  698,752
028EC:  RCALL  25B2
028EE:  MOVFF  00,72E
028F2:  MOVFF  01,72F
028F6:  MOVFF  02,730
028FA:  MOVFF  03,731
028FE:  MOVFF  03,751
02902:  MOVFF  02,750
02906:  MOVFF  01,74F
0290A:  MOVFF  00,74E
0290E:  MOVFF  6CB,755
02912:  MOVFF  6CA,754
02916:  MOVFF  6C9,753
0291A:  MOVFF  6C8,752
0291E:  RCALL  25B2
02920:  MOVFF  00,72E
02924:  MOVFF  01,72F
02928:  MOVFF  02,730
0292C:  MOVFF  03,731
02930:  MOVFF  69B,751
02934:  MOVFF  69A,750
02938:  MOVFF  699,74F
0293C:  MOVFF  698,74E
02940:  MOVFF  6CF,755
02944:  MOVFF  6CE,754
02948:  MOVFF  6CD,753
0294C:  MOVFF  6CC,752
02950:  RCALL  25B2
02952:  BCF    FD8.1
02954:  MOVFF  731,735
02958:  MOVFF  730,734
0295C:  MOVFF  72F,733
02960:  MOVFF  72E,732
02964:  MOVFF  03,739
02968:  MOVFF  02,738
0296C:  MOVFF  01,737
02970:  MOVFF  00,736
02974:  CALL   1906
02978:  MOVFF  00,72E
0297C:  MOVFF  01,72F
02980:  MOVFF  02,730
02984:  MOVFF  03,731
02988:  BCF    FD8.1
0298A:  MOVFF  03,735
0298E:  MOVFF  02,734
02992:  MOVFF  01,733
02996:  MOVFF  00,732
0299A:  MOVFF  6D3,739
0299E:  MOVFF  6D2,738
029A2:  MOVFF  6D1,737
029A6:  MOVFF  6D0,736
029AA:  CALL   1906
029AE:  MOVFF  03,69F
029B2:  MOVFF  02,69E
029B6:  MOVFF  01,69D
029BA:  MOVFF  00,69C
....................    Temperature+=((float)Ajuste-(float)Ajusten); 
029BE:  MOVLB  7
029C0:  CLRF   x34
029C2:  MOVFF  67C,733
029C6:  MOVLB  0
029C8:  CALL   1772
029CC:  MOVFF  00,72E
029D0:  MOVFF  01,72F
029D4:  MOVFF  02,730
029D8:  MOVFF  03,731
029DC:  MOVLB  7
029DE:  CLRF   x34
029E0:  MOVFF  67D,733
029E4:  MOVLB  0
029E6:  CALL   1772
029EA:  BSF    FD8.1
029EC:  MOVFF  731,735
029F0:  MOVFF  730,734
029F4:  MOVFF  72F,733
029F8:  MOVFF  72E,732
029FC:  MOVFF  03,739
02A00:  MOVFF  02,738
02A04:  MOVFF  01,737
02A08:  MOVFF  00,736
02A0C:  CALL   1906
02A10:  BCF    FD8.1
02A12:  MOVFF  69F,735
02A16:  MOVFF  69E,734
02A1A:  MOVFF  69D,733
02A1E:  MOVFF  69C,732
02A22:  MOVFF  03,739
02A26:  MOVFF  02,738
02A2A:  MOVFF  01,737
02A2E:  MOVFF  00,736
02A32:  CALL   1906
02A36:  MOVFF  03,69F
02A3A:  MOVFF  02,69E
02A3E:  MOVFF  01,69D
02A42:  MOVFF  00,69C
....................     
....................    //return Prom; 
....................    return Temperature; 
02A46:  MOVFF  69C,00
02A4A:  MOVFF  69D,01
02A4E:  MOVFF  69E,02
02A52:  MOVFF  69F,03
.................... } 
02A56:  RETLW  00
....................  
.................... float Leer_Sensor_Presion_Camara(int media){ 
....................    promediopresion=0.0; 
*
032AA:  MOVLB  6
032AC:  CLRF   x71
032AE:  CLRF   x70
032B0:  CLRF   x6F
032B2:  CLRF   x6E
....................    V1 = sensores(2);   //Lectura de Divisor de Voltaje de PT100 con resistencia de 1k (+-10%) 
032B4:  MOVLW  02
032B6:  MOVLB  7
032B8:  MOVWF  x2E
032BA:  MOVLB  0
032BC:  CALL   2538
032C0:  MOVFF  03,6B3
032C4:  MOVFF  02,6B2
032C8:  MOVFF  01,6B1
032CC:  MOVFF  00,6B0
....................    V1 = V1*(5.0/1024.0); 
032D0:  MOVFF  6B3,751
032D4:  MOVFF  6B2,750
032D8:  MOVFF  6B1,74F
032DC:  MOVFF  6B0,74E
032E0:  MOVLB  7
032E2:  CLRF   x55
032E4:  CLRF   x54
032E6:  MOVLW  20
032E8:  MOVWF  x53
032EA:  MOVLW  77
032EC:  MOVWF  x52
032EE:  MOVLB  0
032F0:  CALL   25B2
032F4:  MOVFF  03,6B3
032F8:  MOVFF  02,6B2
032FC:  MOVFF  01,6B1
03300:  MOVFF  00,6B0
....................    Presion=(V1-0.2)/(K); 
03304:  BSF    FD8.1
03306:  MOVFF  6B3,735
0330A:  MOVFF  6B2,734
0330E:  MOVFF  6B1,733
03312:  MOVFF  6B0,732
03316:  MOVLW  CD
03318:  MOVLB  7
0331A:  MOVWF  x39
0331C:  MOVLW  CC
0331E:  MOVWF  x38
03320:  MOVLW  4C
03322:  MOVWF  x37
03324:  MOVLW  7C
03326:  MOVWF  x36
03328:  MOVLB  0
0332A:  CALL   1906
0332E:  MOVFF  00,72E
03332:  MOVFF  01,72F
03336:  MOVFF  02,730
0333A:  MOVFF  03,731
0333E:  MOVFF  03,735
03342:  MOVFF  02,734
03346:  MOVFF  01,733
0334A:  MOVFF  00,732
0334E:  MOVFF  6C7,739
03352:  MOVFF  6C6,738
03356:  MOVFF  6C5,737
0335A:  MOVFF  6C4,736
0335E:  CALL   17A8
03362:  MOVFF  03,6B7
03366:  MOVFF  02,6B6
0336A:  MOVFF  01,6B5
0336E:  MOVFF  00,6B4
....................     
....................    if(Presion<0.0) 
03372:  MOVFF  6B7,734
03376:  MOVFF  6B6,733
0337A:  MOVFF  6B5,732
0337E:  MOVFF  6B4,731
03382:  MOVLB  7
03384:  CLRF   x38
03386:  CLRF   x37
03388:  CLRF   x36
0338A:  CLRF   x35
0338C:  MOVLB  0
0338E:  CALL   1B7E
03392:  BNC   339E
....................    { 
....................       Presion=0.0; 
03394:  MOVLB  6
03396:  CLRF   xB7
03398:  CLRF   xB6
0339A:  CLRF   xB5
0339C:  CLRF   xB4
....................    } 
....................     
....................    if(r>media-1) 
0339E:  MOVLW  01
033A0:  MOVLB  7
033A2:  SUBWF  x2D,W
033A4:  SUBWF  x01,W
033A6:  BZ    33AC
033A8:  BNC   33AC
....................    {r=0;} 
033AA:  CLRF   x01
....................    PromPresion[r]=Presion;r++; 
033AC:  MOVF   x01,W
033AE:  MULLW  04
033B0:  MOVF   FF3,W
033B2:  CLRF   03
033B4:  ADDLW  BA
033B6:  MOVWF  FE9
033B8:  MOVLW  05
033BA:  ADDWFC 03,W
033BC:  MOVWF  FEA
033BE:  MOVFF  6B4,FEF
033C2:  MOVFF  6B5,FEC
033C6:  MOVFF  6B6,FEC
033CA:  MOVFF  6B7,FEC
033CE:  INCF   x01,F
....................           
....................    for(t=0;t<=(media-1);t++) 
033D0:  CLRF   x02
033D2:  MOVLW  01
033D4:  SUBWF  x2D,W
033D6:  SUBWF  x02,W
033D8:  BZ    33DC
033DA:  BC    344C
....................    { 
....................       promediopresion+=PromPresion[t]; 
033DC:  MOVF   x02,W
033DE:  MULLW  04
033E0:  MOVF   FF3,W
033E2:  CLRF   03
033E4:  ADDLW  BA
033E6:  MOVWF  FE9
033E8:  MOVLW  05
033EA:  ADDWFC 03,W
033EC:  MOVWF  FEA
033EE:  MOVFF  FEF,00
033F2:  MOVFF  FEC,01
033F6:  MOVFF  FEC,02
033FA:  MOVFF  FEC,03
033FE:  MOVFF  FEA,72F
03402:  MOVFF  FE9,72E
03406:  BCF    FD8.1
03408:  MOVFF  671,735
0340C:  MOVFF  670,734
03410:  MOVFF  66F,733
03414:  MOVFF  66E,732
03418:  MOVFF  03,739
0341C:  MOVFF  02,738
03420:  MOVFF  01,737
03424:  MOVFF  00,736
03428:  MOVLB  0
0342A:  CALL   1906
0342E:  MOVFF  72F,FEA
03432:  MOVFF  72E,FE9
03436:  MOVFF  03,671
0343A:  MOVFF  02,670
0343E:  MOVFF  01,66F
03442:  MOVFF  00,66E
....................    }  
03446:  MOVLB  7
03448:  INCF   x02,F
0344A:  BRA    33D2
....................    promediopresion=promediopresion/media;    
0344C:  CLRF   x34
0344E:  MOVFF  72D,733
03452:  MOVLB  0
03454:  CALL   1772
03458:  MOVFF  671,735
0345C:  MOVFF  670,734
03460:  MOVFF  66F,733
03464:  MOVFF  66E,732
03468:  MOVFF  03,739
0346C:  MOVFF  02,738
03470:  MOVFF  01,737
03474:  MOVFF  00,736
03478:  CALL   17A8
0347C:  MOVFF  03,671
03480:  MOVFF  02,670
03484:  MOVFF  01,66F
03488:  MOVFF  00,66E
....................     
....................    return promediopresion; 
0348C:  MOVFF  66E,00
03490:  MOVFF  66F,01
03494:  MOVFF  670,02
03498:  MOVFF  671,03
.................... } 
0349C:  GOTO   5DB0 (RETURN)
....................  
.................... float Leer_Sensor_Presion_PreCamara(int media){ 
....................    promediopresionp=0.0; 
034A0:  MOVLB  6
034A2:  CLRF   x79
034A4:  CLRF   x78
034A6:  CLRF   x77
034A8:  CLRF   x76
....................    V2 = sensores(3);   //Lectura de Divisor de Voltaje de PT100 con resistencia de 1k (+-10%) 
034AA:  MOVLW  03
034AC:  MOVLB  7
034AE:  MOVWF  x2E
034B0:  MOVLB  0
034B2:  CALL   2538
034B6:  MOVFF  03,6BB
034BA:  MOVFF  02,6BA
034BE:  MOVFF  01,6B9
034C2:  MOVFF  00,6B8
....................    V2 = V2*(5.0/1024.0); 
034C6:  MOVFF  6BB,751
034CA:  MOVFF  6BA,750
034CE:  MOVFF  6B9,74F
034D2:  MOVFF  6B8,74E
034D6:  MOVLB  7
034D8:  CLRF   x55
034DA:  CLRF   x54
034DC:  MOVLW  20
034DE:  MOVWF  x53
034E0:  MOVLW  77
034E2:  MOVWF  x52
034E4:  MOVLB  0
034E6:  CALL   25B2
034EA:  MOVFF  03,6BB
034EE:  MOVFF  02,6BA
034F2:  MOVFF  01,6B9
034F6:  MOVFF  00,6B8
....................    Presionp=(V2-0.2)/(K); 
034FA:  BSF    FD8.1
034FC:  MOVFF  6BB,735
03500:  MOVFF  6BA,734
03504:  MOVFF  6B9,733
03508:  MOVFF  6B8,732
0350C:  MOVLW  CD
0350E:  MOVLB  7
03510:  MOVWF  x39
03512:  MOVLW  CC
03514:  MOVWF  x38
03516:  MOVLW  4C
03518:  MOVWF  x37
0351A:  MOVLW  7C
0351C:  MOVWF  x36
0351E:  MOVLB  0
03520:  CALL   1906
03524:  MOVFF  00,72E
03528:  MOVFF  01,72F
0352C:  MOVFF  02,730
03530:  MOVFF  03,731
03534:  MOVFF  03,735
03538:  MOVFF  02,734
0353C:  MOVFF  01,733
03540:  MOVFF  00,732
03544:  MOVFF  6C7,739
03548:  MOVFF  6C6,738
0354C:  MOVFF  6C5,737
03550:  MOVFF  6C4,736
03554:  CALL   17A8
03558:  MOVFF  03,6BF
0355C:  MOVFF  02,6BE
03560:  MOVFF  01,6BD
03564:  MOVFF  00,6BC
....................     
....................    if(Presionp<0.0) 
03568:  MOVFF  6BF,734
0356C:  MOVFF  6BE,733
03570:  MOVFF  6BD,732
03574:  MOVFF  6BC,731
03578:  MOVLB  7
0357A:  CLRF   x38
0357C:  CLRF   x37
0357E:  CLRF   x36
03580:  CLRF   x35
03582:  MOVLB  0
03584:  CALL   1B7E
03588:  BNC   3594
....................    { 
....................       Presionp=0.0; 
0358A:  MOVLB  6
0358C:  CLRF   xBF
0358E:  CLRF   xBE
03590:  CLRF   xBD
03592:  CLRF   xBC
....................    } 
....................     
....................    if(r2>media-1) 
03594:  MOVLW  01
03596:  MOVLB  7
03598:  SUBWF  x2D,W
0359A:  SUBWF  x03,W
0359C:  BZ    35A2
0359E:  BNC   35A2
....................    {r2=0;} 
035A0:  CLRF   x03
....................    PromPresionp[r2]=Presionp;r2++; 
035A2:  MOVF   x03,W
035A4:  MULLW  04
035A6:  MOVF   FF3,W
035A8:  CLRF   03
035AA:  ADDLW  0A
035AC:  MOVWF  FE9
035AE:  MOVLW  06
035B0:  ADDWFC 03,W
035B2:  MOVWF  FEA
035B4:  MOVFF  6BC,FEF
035B8:  MOVFF  6BD,FEC
035BC:  MOVFF  6BE,FEC
035C0:  MOVFF  6BF,FEC
035C4:  INCF   x03,F
....................           
....................    for(t2=0;t2<=(media-1);t2++) 
035C6:  CLRF   x04
035C8:  MOVLW  01
035CA:  SUBWF  x2D,W
035CC:  SUBWF  x04,W
035CE:  BZ    35D2
035D0:  BC    3642
....................    { 
....................       promediopresionp+=PromPresionp[t2]; 
035D2:  MOVF   x04,W
035D4:  MULLW  04
035D6:  MOVF   FF3,W
035D8:  CLRF   03
035DA:  ADDLW  0A
035DC:  MOVWF  FE9
035DE:  MOVLW  06
035E0:  ADDWFC 03,W
035E2:  MOVWF  FEA
035E4:  MOVFF  FEF,00
035E8:  MOVFF  FEC,01
035EC:  MOVFF  FEC,02
035F0:  MOVFF  FEC,03
035F4:  MOVFF  FEA,72F
035F8:  MOVFF  FE9,72E
035FC:  BCF    FD8.1
035FE:  MOVFF  679,735
03602:  MOVFF  678,734
03606:  MOVFF  677,733
0360A:  MOVFF  676,732
0360E:  MOVFF  03,739
03612:  MOVFF  02,738
03616:  MOVFF  01,737
0361A:  MOVFF  00,736
0361E:  MOVLB  0
03620:  CALL   1906
03624:  MOVFF  72F,FEA
03628:  MOVFF  72E,FE9
0362C:  MOVFF  03,679
03630:  MOVFF  02,678
03634:  MOVFF  01,677
03638:  MOVFF  00,676
....................    }  
0363C:  MOVLB  7
0363E:  INCF   x04,F
03640:  BRA    35C8
....................    promediopresionp=promediopresionp/media;    
03642:  CLRF   x34
03644:  MOVFF  72D,733
03648:  MOVLB  0
0364A:  CALL   1772
0364E:  MOVFF  679,735
03652:  MOVFF  678,734
03656:  MOVFF  677,733
0365A:  MOVFF  676,732
0365E:  MOVFF  03,739
03662:  MOVFF  02,738
03666:  MOVFF  01,737
0366A:  MOVFF  00,736
0366E:  CALL   17A8
03672:  MOVFF  03,679
03676:  MOVFF  02,678
0367A:  MOVFF  01,677
0367E:  MOVFF  00,676
....................     
....................    return promediopresionp; 
03682:  MOVFF  676,00
03686:  MOVFF  677,01
0368A:  MOVFF  678,02
0368E:  MOVFF  679,03
.................... } 
03692:  GOTO   5DD8 (RETURN)
....................  
.................... void Controla(){ 
....................    if(tiemporecta>=Derivativo/2.0) 
*
03FFC:  MOVLB  7
03FFE:  CLRF   x34
04000:  MOVFF  6D5,733
04004:  MOVLB  0
04006:  CALL   1772
0400A:  MOVFF  03,735
0400E:  MOVFF  02,734
04012:  MOVFF  01,733
04016:  MOVFF  00,732
0401A:  MOVLB  7
0401C:  CLRF   x39
0401E:  CLRF   x38
04020:  CLRF   x37
04022:  MOVLW  80
04024:  MOVWF  x36
04026:  MOVLB  0
04028:  CALL   17A8
0402C:  MOVFF  00,72D
04030:  MOVFF  01,72E
04034:  MOVFF  02,72F
04038:  MOVFF  03,730
0403C:  MOVLB  7
0403E:  CLRF   x34
04040:  MOVFF  6DC,733
04044:  MOVLB  0
04046:  CALL   1772
0404A:  MOVFF  730,734
0404E:  MOVFF  72F,733
04052:  MOVFF  72E,732
04056:  MOVFF  72D,731
0405A:  MOVFF  03,738
0405E:  MOVFF  02,737
04062:  MOVFF  01,736
04066:  MOVFF  00,735
0406A:  CALL   1B7E
0406E:  BC    4072
04070:  BNZ   4078
....................    { 
....................       ActualizaRecta(); 
04072:  BRA    3F8E
....................       tiemporecta=0; 
04074:  MOVLB  6
04076:  CLRF   xDC
....................    }  
.................... //-------------------------------Control de Calentamiento------------------------------------------------------------//          
....................    error=desvio+Setpoint-Temperatura;      // Clculo del error ****** 
04078:  MOVLB  7
0407A:  CLRF   x34
0407C:  MOVFF  6E3,733
04080:  MOVLB  0
04082:  CALL   1772
04086:  BCF    FD8.1
04088:  MOVFF  6AF,735
0408C:  MOVFF  6AE,734
04090:  MOVFF  6AD,733
04094:  MOVFF  6AC,732
04098:  MOVFF  03,739
0409C:  MOVFF  02,738
040A0:  MOVFF  01,737
040A4:  MOVFF  00,736
040A8:  CALL   1906
040AC:  MOVFF  00,72D
040B0:  MOVFF  01,72E
040B4:  MOVFF  02,72F
040B8:  MOVFF  03,730
040BC:  BSF    FD8.1
040BE:  MOVFF  03,735
040C2:  MOVFF  02,734
040C6:  MOVFF  01,733
040CA:  MOVFF  00,732
040CE:  MOVFF  6C3,739
040D2:  MOVFF  6C2,738
040D6:  MOVFF  6C1,737
040DA:  MOVFF  6C0,736
040DE:  CALL   1906
040E2:  MOVFF  03,697
040E6:  MOVFF  02,696
040EA:  MOVFF  01,695
040EE:  MOVFF  00,694
....................     
....................    if(error>1.8 && error<15 && Aumento<0.3) 
040F2:  MOVLW  66
040F4:  MOVLB  7
040F6:  MOVWF  x34
040F8:  MOVWF  x33
040FA:  MOVWF  x32
040FC:  MOVLW  7F
040FE:  MOVWF  x31
04100:  MOVFF  697,738
04104:  MOVFF  696,737
04108:  MOVFF  695,736
0410C:  MOVFF  694,735
04110:  MOVLB  0
04112:  CALL   1B7E
04116:  BTFSS  FD8.0
04118:  BRA    4314
0411A:  MOVFF  697,734
0411E:  MOVFF  696,733
04122:  MOVFF  695,732
04126:  MOVFF  694,731
0412A:  MOVLB  7
0412C:  CLRF   x38
0412E:  CLRF   x37
04130:  MOVLW  70
04132:  MOVWF  x36
04134:  MOVLW  82
04136:  MOVWF  x35
04138:  MOVLB  0
0413A:  CALL   1B7E
0413E:  BTFSS  FD8.0
04140:  BRA    4314
04142:  MOVFF  675,734
04146:  MOVFF  674,733
0414A:  MOVFF  673,732
0414E:  MOVFF  672,731
04152:  MOVLW  9A
04154:  MOVLB  7
04156:  MOVWF  x38
04158:  MOVLW  99
0415A:  MOVWF  x37
0415C:  MOVLW  19
0415E:  MOVWF  x36
04160:  MOVLW  7D
04162:  MOVWF  x35
04164:  MOVLB  0
04166:  CALL   1B7E
0416A:  BTFSS  FD8.0
0416C:  BRA    4314
....................    { 
....................       if(Tpulso<4.0) 
0416E:  MOVFF  693,734
04172:  MOVFF  692,733
04176:  MOVFF  691,732
0417A:  MOVFF  690,731
0417E:  MOVLB  7
04180:  CLRF   x38
04182:  CLRF   x37
04184:  CLRF   x36
04186:  MOVLW  81
04188:  MOVWF  x35
0418A:  MOVLB  0
0418C:  CALL   1B7E
04190:  BTFSS  FD8.0
04192:  BRA    430E
....................       { 
....................          flagTC=1; 
04194:  MOVLB  6
04196:  BSF    xDA.6
....................          if(TiempoControl>=Derivativo) 
04198:  MOVF   xD5,W
0419A:  MOVLB  7
0419C:  SUBWF  x05,W
0419E:  BTFSS  FD8.0
041A0:  BRA    430A
....................          { 
....................             TiempoControl=0; 
041A2:  CLRF   x05
....................             if(Aumento<-0.5){ 
041A4:  MOVFF  675,734
041A8:  MOVFF  674,733
041AC:  MOVFF  673,732
041B0:  MOVFF  672,731
041B4:  CLRF   x38
041B6:  CLRF   x37
041B8:  MOVLW  80
041BA:  MOVWF  x36
041BC:  MOVLW  7E
041BE:  MOVWF  x35
041C0:  MOVLB  0
041C2:  CALL   1B7E
041C6:  BNC   4232
....................                Ganancia+=Integral+0.5; 
041C8:  MOVLB  7
041CA:  CLRF   x34
041CC:  MOVFF  6D4,733
041D0:  MOVLB  0
041D2:  CALL   1772
041D6:  BCF    FD8.1
041D8:  MOVFF  03,735
041DC:  MOVFF  02,734
041E0:  MOVFF  01,733
041E4:  MOVFF  00,732
041E8:  MOVLB  7
041EA:  CLRF   x39
041EC:  CLRF   x38
041EE:  CLRF   x37
041F0:  MOVLW  7E
041F2:  MOVWF  x36
041F4:  MOVLB  0
041F6:  CALL   1906
041FA:  BCF    FD8.1
041FC:  MOVFF  6A7,735
04200:  MOVFF  6A6,734
04204:  MOVFF  6A5,733
04208:  MOVFF  6A4,732
0420C:  MOVFF  03,739
04210:  MOVFF  02,738
04214:  MOVFF  01,737
04218:  MOVFF  00,736
0421C:  CALL   1906
04220:  MOVFF  03,6A7
04224:  MOVFF  02,6A6
04228:  MOVFF  01,6A5
0422C:  MOVFF  00,6A4
....................             }else{ 
04230:  BRA    4308
....................                if(Aumento<-0.1){ 
04232:  MOVFF  675,734
04236:  MOVFF  674,733
0423A:  MOVFF  673,732
0423E:  MOVFF  672,731
04242:  MOVLW  CD
04244:  MOVLB  7
04246:  MOVWF  x38
04248:  MOVLW  CC
0424A:  MOVWF  x37
0424C:  MOVWF  x36
0424E:  MOVLW  7B
04250:  MOVWF  x35
04252:  MOVLB  0
04254:  CALL   1B7E
04258:  BNC   42A0
....................                   Ganancia+=Integral; 
0425A:  MOVLB  7
0425C:  CLRF   x34
0425E:  MOVFF  6D4,733
04262:  MOVLB  0
04264:  CALL   1772
04268:  BCF    FD8.1
0426A:  MOVFF  6A7,735
0426E:  MOVFF  6A6,734
04272:  MOVFF  6A5,733
04276:  MOVFF  6A4,732
0427A:  MOVFF  03,739
0427E:  MOVFF  02,738
04282:  MOVFF  01,737
04286:  MOVFF  00,736
0428A:  CALL   1906
0428E:  MOVFF  03,6A7
04292:  MOVFF  02,6A6
04296:  MOVFF  01,6A5
0429A:  MOVFF  00,6A4
....................                }else{ 
0429E:  BRA    4308
....................                   Ganancia+=Integral-0.5; 
042A0:  MOVLB  7
042A2:  CLRF   x34
042A4:  MOVFF  6D4,733
042A8:  MOVLB  0
042AA:  CALL   1772
042AE:  BSF    FD8.1
042B0:  MOVFF  03,735
042B4:  MOVFF  02,734
042B8:  MOVFF  01,733
042BC:  MOVFF  00,732
042C0:  MOVLB  7
042C2:  CLRF   x39
042C4:  CLRF   x38
042C6:  CLRF   x37
042C8:  MOVLW  7E
042CA:  MOVWF  x36
042CC:  MOVLB  0
042CE:  CALL   1906
042D2:  BCF    FD8.1
042D4:  MOVFF  6A7,735
042D8:  MOVFF  6A6,734
042DC:  MOVFF  6A5,733
042E0:  MOVFF  6A4,732
042E4:  MOVFF  03,739
042E8:  MOVFF  02,738
042EC:  MOVFF  01,737
042F0:  MOVFF  00,736
042F4:  CALL   1906
042F8:  MOVFF  03,6A7
042FC:  MOVFF  02,6A6
04300:  MOVFF  01,6A5
04304:  MOVFF  00,6A4
04308:  MOVLB  7
....................                } 
....................             } 
....................          } 
....................       }else{ 
0430A:  BRA    4314
0430C:  MOVLB  0
....................          flagTC=0; 
0430E:  MOVLB  6
04310:  BCF    xDA.6
04312:  MOVLB  7
....................       } 
....................    } 
....................     
....................    if(error<-0.3) 
04314:  MOVFF  697,734
04318:  MOVFF  696,733
0431C:  MOVFF  695,732
04320:  MOVFF  694,731
04324:  MOVLW  9A
04326:  MOVLB  7
04328:  MOVWF  x38
0432A:  MOVLW  99
0432C:  MOVWF  x37
0432E:  MOVWF  x36
04330:  MOVLW  7D
04332:  MOVWF  x35
04334:  MOVLB  0
04336:  CALL   1B7E
0433A:  BNC   434C
....................    { 
....................       Ganancia=Ganancia2; 
0433C:  MOVFF  6AB,6A7
04340:  MOVFF  6AA,6A6
04344:  MOVFF  6A9,6A5
04348:  MOVFF  6A8,6A4
....................    } 
....................     
....................    if(Ganancia<1) 
0434C:  MOVFF  6A7,734
04350:  MOVFF  6A6,733
04354:  MOVFF  6A5,732
04358:  MOVFF  6A4,731
0435C:  MOVLB  7
0435E:  CLRF   x38
04360:  CLRF   x37
04362:  CLRF   x36
04364:  MOVLW  7F
04366:  MOVWF  x35
04368:  MOVLB  0
0436A:  CALL   1B7E
0436E:  BNC   437C
....................    { 
....................       Ganancia=1; 
04370:  MOVLB  6
04372:  CLRF   xA7
04374:  CLRF   xA6
04376:  CLRF   xA5
04378:  MOVLW  7F
0437A:  MOVWF  xA4
....................    } 
....................     
....................    if(error<0.0)     // Anti Wind_DOWN     
0437C:  MOVFF  697,734
04380:  MOVFF  696,733
04384:  MOVFF  695,732
04388:  MOVFF  694,731
0438C:  MOVLB  7
0438E:  CLRF   x38
04390:  CLRF   x37
04392:  CLRF   x36
04394:  CLRF   x35
04396:  MOVLB  0
04398:  CALL   1B7E
0439C:  BNC   43AA
....................    { 
....................       error=0.0; 
0439E:  MOVLB  6
043A0:  CLRF   x97
043A2:  CLRF   x96
043A4:  CLRF   x95
043A6:  CLRF   x94
043A8:  MOVLB  0
....................    } 
....................    //tmp=(Setpoint-Prom)*Ganancia;  // Control Proporcional. 
....................    tmp=error*Ganancia;  // Control Proporcional. 
043AA:  MOVFF  697,751
043AE:  MOVFF  696,750
043B2:  MOVFF  695,74F
043B6:  MOVFF  694,74E
043BA:  MOVFF  6A7,755
043BE:  MOVFF  6A6,754
043C2:  MOVFF  6A5,753
043C6:  MOVFF  6A4,752
043CA:  CALL   25B2
043CE:  MOVFF  03,6A3
043D2:  MOVFF  02,6A2
043D6:  MOVFF  01,6A1
043DA:  MOVFF  00,6A0
....................           
....................    if(tmp>Setpoint)   // Anti Wind-UP       
043DE:  MOVLB  7
043E0:  CLRF   x34
043E2:  MOVFF  6E3,733
043E6:  MOVLB  0
043E8:  CALL   1772
043EC:  MOVFF  03,734
043F0:  MOVFF  02,733
043F4:  MOVFF  01,732
043F8:  MOVFF  00,731
043FC:  MOVFF  6A3,738
04400:  MOVFF  6A2,737
04404:  MOVFF  6A1,736
04408:  MOVFF  6A0,735
0440C:  CALL   1B7E
04410:  BNC   4430
....................    { 
....................       tmp=Setpoint; 
04412:  MOVLB  7
04414:  CLRF   x34
04416:  MOVFF  6E3,733
0441A:  MOVLB  0
0441C:  CALL   1772
04420:  MOVFF  03,6A3
04424:  MOVFF  02,6A2
04428:  MOVFF  01,6A1
0442C:  MOVFF  00,6A0
....................    } 
....................                 
....................    if(tmp<0.0)     // Anti Wind_DOWN     
04430:  MOVFF  6A3,734
04434:  MOVFF  6A2,733
04438:  MOVFF  6A1,732
0443C:  MOVFF  6A0,731
04440:  MOVLB  7
04442:  CLRF   x38
04444:  CLRF   x37
04446:  CLRF   x36
04448:  CLRF   x35
0444A:  MOVLB  0
0444C:  CALL   1B7E
04450:  BNC   445C
....................    { 
....................       tmp=0.0; 
04452:  MOVLB  6
04454:  CLRF   xA3
04456:  CLRF   xA2
04458:  CLRF   xA1
0445A:  CLRF   xA0
....................    } 
....................     
....................    // Tpulso(t)= Tciclo*(y(t)-ymin)/(ymax - ymin); calculo de ciclo util para control de resistencia.ymax=140.ymin=0; 
....................    // Tpulso es float, hay que pasar ese ciclo a una salida de un puerto usando el TMR1. 
....................    Tpulso=(tmp/Setpoint)*Tciclo;   
0445C:  MOVLB  7
0445E:  CLRF   x34
04460:  MOVFF  6E3,733
04464:  MOVLB  0
04466:  CALL   1772
0446A:  MOVFF  6A3,735
0446E:  MOVFF  6A2,734
04472:  MOVFF  6A1,733
04476:  MOVFF  6A0,732
0447A:  MOVFF  03,739
0447E:  MOVFF  02,738
04482:  MOVFF  01,737
04486:  MOVFF  00,736
0448A:  CALL   17A8
0448E:  MOVFF  00,72D
04492:  MOVFF  01,72E
04496:  MOVFF  02,72F
0449A:  MOVFF  03,730
0449E:  MOVFF  03,751
044A2:  MOVFF  02,750
044A6:  MOVFF  01,74F
044AA:  MOVFF  00,74E
044AE:  MOVFF  68F,755
044B2:  MOVFF  68E,754
044B6:  MOVFF  68D,753
044BA:  MOVFF  68C,752
044BE:  CALL   25B2
044C2:  MOVFF  03,693
044C6:  MOVFF  02,692
044CA:  MOVFF  01,691
044CE:  MOVFF  00,690
....................                                        
....................    Tp=(Tpulso/0.005); 
044D2:  MOVFF  693,735
044D6:  MOVFF  692,734
044DA:  MOVFF  691,733
044DE:  MOVFF  690,732
044E2:  MOVLW  0A
044E4:  MOVLB  7
044E6:  MOVWF  x39
044E8:  MOVLW  D7
044EA:  MOVWF  x38
044EC:  MOVLW  23
044EE:  MOVWF  x37
044F0:  MOVLW  77
044F2:  MOVWF  x36
044F4:  MOVLB  0
044F6:  CALL   17A8
044FA:  MOVFF  03,730
044FE:  MOVFF  02,72F
04502:  MOVFF  01,72E
04506:  MOVFF  00,72D
0450A:  CALL   2A58
0450E:  MOVFF  02,467
04512:  MOVFF  01,466
....................    Tc=(Tciclo/0.005); 
04516:  MOVFF  68F,735
0451A:  MOVFF  68E,734
0451E:  MOVFF  68D,733
04522:  MOVFF  68C,732
04526:  MOVLW  0A
04528:  MOVLB  7
0452A:  MOVWF  x39
0452C:  MOVLW  D7
0452E:  MOVWF  x38
04530:  MOVLW  23
04532:  MOVWF  x37
04534:  MOVLW  77
04536:  MOVWF  x36
04538:  MOVLB  0
0453A:  CALL   17A8
0453E:  MOVFF  03,730
04542:  MOVFF  02,72F
04546:  MOVFF  01,72E
0454A:  MOVFF  00,72D
0454E:  CALL   2A58
04552:  MOVFF  02,469
04556:  MOVFF  01,468
....................    Controlando=1;    
0455A:  MOVLW  01
0455C:  MOVLB  6
0455E:  MOVWF  xDD
.................... //--------------------------------------------------------------------------------------------------------------------//    
.................... } 
04560:  MOVLB  0
04562:  RETLW  00
....................  
.................... void Envio_I2C(direccion, posicion, dato){ 
....................  
....................    i2c_start();            // Comienzo comunicacin 
*
02C28:  BSF    F94.4
02C2A:  MOVLW  05
02C2C:  MOVWF  00
02C2E:  DECFSZ 00,F
02C30:  BRA    2C2E
02C32:  BSF    F94.3
02C34:  MOVLW  06
02C36:  MOVWF  00
02C38:  DECFSZ 00,F
02C3A:  BRA    2C38
02C3C:  BCF    F8B.4
02C3E:  BCF    F94.4
02C40:  MOVLW  05
02C42:  MOVWF  00
02C44:  DECFSZ 00,F
02C46:  BRA    2C44
02C48:  BCF    F8B.3
02C4A:  BCF    F94.3
....................    i2c_write(direccion);   // Direccin del esclavo en el bus I2C 
02C4C:  MOVFF  72E,731
02C50:  RCALL  2BB2
....................    i2c_write(posicion);    // Posicin donde se guardara el dato transmitido 
02C52:  MOVFF  72F,731
02C56:  RCALL  2BB2
....................    i2c_write(dato);        // Dato a transmitir 
02C58:  MOVFF  730,731
02C5C:  RCALL  2BB2
....................    i2c_stop();             // Fin comunicacin 
02C5E:  BCF    F94.4
02C60:  NOP   
02C62:  BSF    F94.3
02C64:  BTFSS  F82.3
02C66:  BRA    2C64
02C68:  MOVLW  05
02C6A:  MOVWF  00
02C6C:  DECFSZ 00,F
02C6E:  BRA    2C6C
02C70:  BRA    2C72
02C72:  NOP   
02C74:  BSF    F94.4
02C76:  MOVLW  05
02C78:  MOVWF  00
02C7A:  DECFSZ 00,F
02C7C:  BRA    2C7A
....................  } 
02C7E:  GOTO   2CB8 (RETURN)
....................  
.................... void Lectura_I2C (byte direccion, byte posicion, byte &dato) { 
....................  
....................    i2c_start();            // Comienzo de la comunicacin 
*
031FC:  BSF    F94.4
031FE:  MOVLW  05
03200:  MOVWF  00
03202:  DECFSZ 00,F
03204:  BRA    3202
03206:  BSF    F94.3
03208:  MOVLW  06
0320A:  MOVWF  00
0320C:  DECFSZ 00,F
0320E:  BRA    320C
03210:  BCF    F8B.4
03212:  BCF    F94.4
03214:  MOVLW  05
03216:  MOVWF  00
03218:  DECFSZ 00,F
0321A:  BRA    3218
0321C:  BCF    F8B.3
0321E:  BCF    F94.3
....................    i2c_write(direccion);   // Direccin del esclavo en el bus I2C 
03220:  MOVFF  72D,731
03224:  MOVLB  0
03226:  RCALL  2BB2
....................    i2c_write(posicion);    // Posicin de donde se leer el dato en el esclavo 
03228:  MOVFF  72E,731
0322C:  RCALL  2BB2
....................    i2c_start();            // Reinicio 
0322E:  BSF    F94.4
03230:  MOVLW  05
03232:  MOVWF  00
03234:  DECFSZ 00,F
03236:  BRA    3234
03238:  BSF    F94.3
0323A:  MOVLW  06
0323C:  MOVWF  00
0323E:  DECFSZ 00,F
03240:  BRA    323E
03242:  BTFSS  F82.3
03244:  BRA    3242
03246:  BCF    F8B.4
03248:  BCF    F94.4
0324A:  MOVLW  05
0324C:  MOVWF  00
0324E:  DECFSZ 00,F
03250:  BRA    324E
03252:  BCF    F8B.3
03254:  BCF    F94.3
....................    i2c_write(direccion+1); // Direccin del esclavo en modo lectura 
03256:  MOVLW  01
03258:  MOVLB  7
0325A:  ADDWF  x2D,W
0325C:  MOVWF  x2F
0325E:  MOVWF  x31
03260:  MOVLB  0
03262:  RCALL  2BB2
....................    dato=i2c_read(0);       // Lectura del dato 
03264:  CLRF   00
03266:  BRA    2CC2
03268:  MOVFF  01,457
....................    i2c_stop();             // Fin comunicacin 
0326C:  BCF    F94.4
0326E:  NOP   
03270:  BSF    F94.3
03272:  BTFSS  F82.3
03274:  BRA    3272
03276:  MOVLW  05
03278:  MOVWF  00
0327A:  DECFSZ 00,F
0327C:  BRA    327A
0327E:  BRA    3280
03280:  NOP   
03282:  BSF    F94.4
03284:  MOVLW  05
03286:  MOVWF  00
03288:  DECFSZ 00,F
0328A:  BRA    3288
.................... } 
....................  
.................... void Carga_Vector(void){ 
....................    SlaveA0Tx[0]=(int8)Temperatura; 
*
02A94:  MOVFF  6C3,730
02A98:  MOVFF  6C2,72F
02A9C:  MOVFF  6C1,72E
02AA0:  MOVFF  6C0,72D
02AA4:  RCALL  2A58
02AA6:  MOVFF  01,437
....................    SlaveA0Tx[1]=(Temperatura-((int8)Temperatura))*10; 
02AAA:  MOVFF  6C3,730
02AAE:  MOVFF  6C2,72F
02AB2:  MOVFF  6C1,72E
02AB6:  MOVFF  6C0,72D
02ABA:  RCALL  2A58
02ABC:  MOVLB  7
02ABE:  CLRF   x34
02AC0:  MOVFF  01,733
02AC4:  MOVLB  0
02AC6:  CALL   1772
02ACA:  BSF    FD8.1
02ACC:  MOVFF  6C3,735
02AD0:  MOVFF  6C2,734
02AD4:  MOVFF  6C1,733
02AD8:  MOVFF  6C0,732
02ADC:  MOVFF  03,739
02AE0:  MOVFF  02,738
02AE4:  MOVFF  01,737
02AE8:  MOVFF  00,736
02AEC:  CALL   1906
02AF0:  MOVFF  00,72D
02AF4:  MOVFF  01,72E
02AF8:  MOVFF  02,72F
02AFC:  MOVFF  03,730
02B00:  MOVFF  03,751
02B04:  MOVFF  02,750
02B08:  MOVFF  01,74F
02B0C:  MOVFF  00,74E
02B10:  MOVLB  7
02B12:  CLRF   x55
02B14:  CLRF   x54
02B16:  MOVLW  20
02B18:  MOVWF  x53
02B1A:  MOVLW  82
02B1C:  MOVWF  x52
02B1E:  MOVLB  0
02B20:  RCALL  25B2
02B22:  MOVFF  03,730
02B26:  MOVFF  02,72F
02B2A:  MOVFF  01,72E
02B2E:  MOVFF  00,72D
02B32:  RCALL  2A58
02B34:  MOVFF  01,438
....................    SlaveA0Tx[2]=make8((int16)PresionCamara,0); 
02B38:  MOVFF  6F1,439
02B3C:  MOVLB  4
....................    SlaveA0Tx[3]=make8((int16)PresionCamara,1); 
02B3E:  MOVFF  6F2,43A
02B42:  MOVLB  4
....................    SlaveA0Tx[4]=make8((int16)PresionPreCamara,0); 
02B44:  MOVFF  6F3,43B
02B48:  MOVLB  4
....................    SlaveA0Tx[5]=make8((int16)PresionPreCamara,1); 
02B4A:  MOVFF  6F4,43C
02B4E:  MOVLB  4
....................    SlaveA0Tx[6]=(int8)Tpulso*10; 
02B50:  MOVFF  693,730
02B54:  MOVFF  692,72F
02B58:  MOVFF  691,72E
02B5C:  MOVFF  690,72D
02B60:  MOVLB  0
02B62:  RCALL  2A58
02B64:  MOVF   01,W
02B66:  MULLW  0A
02B68:  MOVFF  FF3,43D
02B6C:  MOVLB  4
....................    SlaveA0Tx[7]=HIGH; 
02B6E:  BSF    F94.0
02B70:  CLRF   x3E
02B72:  BTFSC  F82.0
02B74:  INCF   x3E,F
....................    SlaveA0Tx[8]=LOW; 
02B76:  BSF    F94.1
02B78:  CLRF   x3F
02B7A:  BTFSC  F82.1
02B7C:  INCF   x3F,F
....................    SlaveA0Tx[9]=TERM; 
02B7E:  BSF    F93.7
02B80:  CLRF   x40
02B82:  BTFSS  F81.7
02B84:  INCF   x40,F
....................    SlaveA0Tx[10]=DOOR; 
02B86:  BSF    F96.2
02B88:  CLRF   x41
02B8A:  BTFSS  F84.2
02B8C:  INCF   x41,F
....................    SlaveA0Tx[11]=STOP; 
02B8E:  BSF    F93.6
02B90:  CLRF   x42
02B92:  BTFSS  F81.6
02B94:  INCF   x42,F
....................    SlaveA0Tx[12]=(int8)error; 
02B96:  MOVFF  697,730
02B9A:  MOVFF  696,72F
02B9E:  MOVFF  695,72E
02BA2:  MOVFF  694,72D
02BA6:  MOVLB  0
02BA8:  RCALL  2A58
02BAA:  MOVFF  01,443
.................... } 
02BAE:  GOTO   2C84 (RETURN)
....................  
.................... void Lee_Vector(void){ 
....................    ByteConfig1=txbuf[0]; 
*
02D2E:  MOVFF  417,45A
....................    ByteConfig2=txbuf[1]; 
02D32:  MOVFF  418,45B
....................    ByteConfig3=txbuf[2]; 
02D36:  MOVFF  419,45C
....................     
....................    if(ByteConfig1==10 && ByteConfig2==20 && ByteConfig3==30){ 
02D3A:  MOVLB  4
02D3C:  MOVF   x5A,W
02D3E:  SUBLW  0A
02D40:  BTFSS  FD8.2
02D42:  BRA    2E48
02D44:  MOVF   x5B,W
02D46:  SUBLW  14
02D48:  BTFSS  FD8.2
02D4A:  BRA    2E48
02D4C:  MOVF   x5C,W
02D4E:  SUBLW  1E
02D50:  BNZ   2E48
....................       Ganancia=txbuf[3]; 
02D52:  MOVLB  7
02D54:  CLRF   x34
02D56:  MOVFF  41A,733
02D5A:  MOVLB  0
02D5C:  CALL   1772
02D60:  MOVFF  03,6A7
02D64:  MOVFF  02,6A6
02D68:  MOVFF  01,6A5
02D6C:  MOVFF  00,6A4
....................       Ajuste=txbuf[4]; 
02D70:  MOVFF  41B,67C
....................       Ajusten=txbuf[5]; 
02D74:  MOVFF  41C,67D
....................       Desvio=txbuf[6]; 
02D78:  MOVLB  7
02D7A:  CLRF   x34
02D7C:  MOVFF  41D,733
02D80:  MOVLB  0
02D82:  CALL   1772
02D86:  MOVFF  03,6AF
02D8A:  MOVFF  02,6AE
02D8E:  MOVFF  01,6AD
02D92:  MOVFF  00,6AC
....................       MediaMovil=txbuf[7]; 
02D96:  MOVFF  41E,67E
....................       Tciclo=txbuf[8]; 
02D9A:  MOVLB  7
02D9C:  CLRF   x34
02D9E:  MOVFF  41F,733
02DA2:  MOVLB  0
02DA4:  CALL   1772
02DA8:  MOVFF  03,68F
02DAC:  MOVFF  02,68E
02DB0:  MOVFF  01,68D
02DB4:  MOVFF  00,68C
....................       Integral=txbuf[9]; 
02DB8:  MOVFF  420,6D4
....................       Derivativo=txbuf[10]; 
02DBC:  MOVFF  421,6D5
....................       Gain=txbuf[11]+(txbuf[12]/10); 
02DC0:  MOVFF  423,742
02DC4:  MOVLW  0A
02DC6:  MOVLB  7
02DC8:  MOVWF  x43
02DCA:  MOVLB  0
02DCC:  CALL   2356
02DD0:  MOVF   01,W
02DD2:  MOVLB  4
02DD4:  ADDWF  x22,W
02DD6:  MOVLB  7
02DD8:  CLRF   x34
02DDA:  MOVWF  x33
02DDC:  MOVLB  0
02DDE:  CALL   1772
02DE2:  MOVFF  03,65D
02DE6:  MOVFF  02,65C
02DEA:  MOVFF  01,65B
02DEE:  MOVFF  00,65A
....................       R1=make16(txbuf[14],txbuf[13]); 
02DF2:  MOVFF  425,03
02DF6:  MOVFF  424,733
02DFA:  MOVFF  425,734
02DFE:  MOVLB  0
02E00:  CALL   1772
02E04:  MOVFF  03,687
02E08:  MOVFF  02,686
02E0C:  MOVFF  01,685
02E10:  MOVFF  00,684
....................       RPT100=txbuf[15]+(txbuf[16]/10); 
02E14:  MOVFF  427,742
02E18:  MOVLW  0A
02E1A:  MOVLB  7
02E1C:  MOVWF  x43
02E1E:  MOVLB  0
02E20:  CALL   2356
02E24:  MOVF   01,W
02E26:  MOVLB  4
02E28:  ADDWF  x26,W
02E2A:  MOVLB  7
02E2C:  CLRF   x34
02E2E:  MOVWF  x33
02E30:  MOVLB  0
02E32:  CALL   1772
02E36:  MOVFF  03,661
02E3A:  MOVFF  02,660
02E3E:  MOVFF  01,65F
02E42:  MOVFF  00,65E
02E46:  MOVLB  4
....................    } 
....................     
....................    if(txbuf[17]==50){ 
02E48:  MOVF   x28,W
02E4A:  SUBLW  32
02E4C:  BTFSS  FD8.2
02E4E:  BRA    31D8
....................       if(!disp_Guarda){ 
02E50:  BTFSC  x5F.2
02E52:  BRA    2EE6
....................          glcd_fillScreen(OFF);disp_Guarda=ON; 
02E54:  MOVLB  7
02E56:  CLRF   x2E
02E58:  MOVLB  0
02E5A:  CALL   1C2E
02E5E:  MOVLB  4
02E60:  BSF    x5F.2
....................          strcpy(Menus.Letra,"Configuracion");displayMenu(Menus.Letra,0,10,0,2); 
02E62:  MOVLW  07
02E64:  MOVWF  FEA
02E66:  MOVLW  09
02E68:  MOVWF  FE9
02E6A:  MOVFF  FF2,72D
02E6E:  BCF    FF2.7
02E70:  MOVLW  00
02E72:  MOVLB  0
02E74:  CALL   06FE
02E78:  TBLRD*-
02E7A:  TBLRD*+
02E7C:  MOVF   FF5,W
02E7E:  MOVWF  FEE
02E80:  IORLW  00
02E82:  BNZ   2E7A
02E84:  MOVLB  7
02E86:  BTFSC  x2D.7
02E88:  BSF    FF2.7
02E8A:  MOVLW  07
02E8C:  MOVWF  x2E
02E8E:  MOVLW  09
02E90:  MOVWF  x2D
02E92:  CLRF   x2F
02E94:  MOVLW  0A
02E96:  MOVWF  x30
02E98:  CLRF   x31
02E9A:  MOVLW  02
02E9C:  MOVWF  x32
02E9E:  MOVLB  0
02EA0:  CALL   225C
....................          strcpy(Menus.Letra,"   Guardada  ");displayMenu(Menus.Letra,0,30,0,2); 
02EA4:  MOVLW  07
02EA6:  MOVWF  FEA
02EA8:  MOVLW  09
02EAA:  MOVWF  FE9
02EAC:  MOVFF  FF2,72D
02EB0:  BCF    FF2.7
02EB2:  MOVLW  00
02EB4:  CALL   072A
02EB8:  TBLRD*-
02EBA:  TBLRD*+
02EBC:  MOVF   FF5,W
02EBE:  MOVWF  FEE
02EC0:  IORLW  00
02EC2:  BNZ   2EBA
02EC4:  MOVLB  7
02EC6:  BTFSC  x2D.7
02EC8:  BSF    FF2.7
02ECA:  MOVLW  07
02ECC:  MOVWF  x2E
02ECE:  MOVLW  09
02ED0:  MOVWF  x2D
02ED2:  CLRF   x2F
02ED4:  MOVLW  1E
02ED6:  MOVWF  x30
02ED8:  CLRF   x31
02EDA:  MOVLW  02
02EDC:  MOVWF  x32
02EDE:  MOVLB  0
02EE0:  CALL   225C
02EE4:  MOVLB  4
....................       } 
....................       write_eeprom(20,Ganancia); 
02EE6:  CLRF   FAA
02EE8:  MOVLW  14
02EEA:  MOVWF  FA9
02EEC:  MOVFF  6A4,FA8
02EF0:  BCF    FA6.6
02EF2:  BCF    FA6.7
02EF4:  BSF    FA6.2
02EF6:  MOVF   FF2,W
02EF8:  MOVWF  00
02EFA:  BCF    FF2.7
02EFC:  MOVLB  F
02EFE:  MOVLW  55
02F00:  MOVWF  FA7
02F02:  MOVLW  AA
02F04:  MOVWF  FA7
02F06:  BSF    FA6.1
02F08:  BTFSC  FA6.1
02F0A:  BRA    2F08
02F0C:  BCF    FA6.2
02F0E:  MOVF   00,W
02F10:  IORWF  FF2,F
....................       delay_ms(10); 
02F12:  MOVLW  0A
02F14:  MOVLB  7
02F16:  MOVWF  x33
02F18:  MOVLB  0
02F1A:  CALL   174A
....................       write_eeprom(21,(int8)Ajuste); 
02F1E:  CLRF   FAA
02F20:  MOVLW  15
02F22:  MOVWF  FA9
02F24:  MOVFF  67C,FA8
02F28:  BCF    FA6.6
02F2A:  BCF    FA6.7
02F2C:  BSF    FA6.2
02F2E:  MOVF   FF2,W
02F30:  MOVWF  00
02F32:  BCF    FF2.7
02F34:  MOVLB  F
02F36:  MOVLW  55
02F38:  MOVWF  FA7
02F3A:  MOVLW  AA
02F3C:  MOVWF  FA7
02F3E:  BSF    FA6.1
02F40:  BTFSC  FA6.1
02F42:  BRA    2F40
02F44:  BCF    FA6.2
02F46:  MOVF   00,W
02F48:  IORWF  FF2,F
....................       delay_ms(10); 
02F4A:  MOVLW  0A
02F4C:  MOVLB  7
02F4E:  MOVWF  x33
02F50:  MOVLB  0
02F52:  CALL   174A
....................       write_eeprom(22,(int8)Ajusten); 
02F56:  CLRF   FAA
02F58:  MOVLW  16
02F5A:  MOVWF  FA9
02F5C:  MOVFF  67D,FA8
02F60:  BCF    FA6.6
02F62:  BCF    FA6.7
02F64:  BSF    FA6.2
02F66:  MOVF   FF2,W
02F68:  MOVWF  00
02F6A:  BCF    FF2.7
02F6C:  MOVLB  F
02F6E:  MOVLW  55
02F70:  MOVWF  FA7
02F72:  MOVLW  AA
02F74:  MOVWF  FA7
02F76:  BSF    FA6.1
02F78:  BTFSC  FA6.1
02F7A:  BRA    2F78
02F7C:  BCF    FA6.2
02F7E:  MOVF   00,W
02F80:  IORWF  FF2,F
....................       delay_ms(10); 
02F82:  MOVLW  0A
02F84:  MOVLB  7
02F86:  MOVWF  x33
02F88:  MOVLB  0
02F8A:  CALL   174A
....................       //Desvio=read_eeprom(23); 
....................       write_eeprom(24,(int8)MediaMovil); 
02F8E:  CLRF   FAA
02F90:  MOVLW  18
02F92:  MOVWF  FA9
02F94:  MOVFF  67E,FA8
02F98:  BCF    FA6.6
02F9A:  BCF    FA6.7
02F9C:  BSF    FA6.2
02F9E:  MOVF   FF2,W
02FA0:  MOVWF  00
02FA2:  BCF    FF2.7
02FA4:  MOVLB  F
02FA6:  MOVLW  55
02FA8:  MOVWF  FA7
02FAA:  MOVLW  AA
02FAC:  MOVWF  FA7
02FAE:  BSF    FA6.1
02FB0:  BTFSC  FA6.1
02FB2:  BRA    2FB0
02FB4:  BCF    FA6.2
02FB6:  MOVF   00,W
02FB8:  IORWF  FF2,F
....................       delay_ms(10); 
02FBA:  MOVLW  0A
02FBC:  MOVLB  7
02FBE:  MOVWF  x33
02FC0:  MOVLB  0
02FC2:  CALL   174A
....................       write_eeprom(25,(int8)Tciclo); 
02FC6:  MOVFF  68F,730
02FCA:  MOVFF  68E,72F
02FCE:  MOVFF  68D,72E
02FD2:  MOVFF  68C,72D
02FD6:  RCALL  2A58
02FD8:  MOVFF  01,72D
02FDC:  CLRF   FAA
02FDE:  MOVLW  19
02FE0:  MOVWF  FA9
02FE2:  MOVFF  72D,FA8
02FE6:  BCF    FA6.6
02FE8:  BCF    FA6.7
02FEA:  BSF    FA6.2
02FEC:  MOVF   FF2,W
02FEE:  MOVWF  00
02FF0:  BCF    FF2.7
02FF2:  MOVLB  F
02FF4:  MOVLW  55
02FF6:  MOVWF  FA7
02FF8:  MOVLW  AA
02FFA:  MOVWF  FA7
02FFC:  BSF    FA6.1
02FFE:  BTFSC  FA6.1
03000:  BRA    2FFE
03002:  BCF    FA6.2
03004:  MOVF   00,W
03006:  IORWF  FF2,F
....................       delay_ms(10); 
03008:  MOVLW  0A
0300A:  MOVLB  7
0300C:  MOVWF  x33
0300E:  MOVLB  0
03010:  CALL   174A
....................       write_eeprom(26,(int8)Integral); 
03014:  CLRF   FAA
03016:  MOVLW  1A
03018:  MOVWF  FA9
0301A:  MOVFF  6D4,FA8
0301E:  BCF    FA6.6
03020:  BCF    FA6.7
03022:  BSF    FA6.2
03024:  MOVF   FF2,W
03026:  MOVWF  00
03028:  BCF    FF2.7
0302A:  MOVLB  F
0302C:  MOVLW  55
0302E:  MOVWF  FA7
03030:  MOVLW  AA
03032:  MOVWF  FA7
03034:  BSF    FA6.1
03036:  BTFSC  FA6.1
03038:  BRA    3036
0303A:  BCF    FA6.2
0303C:  MOVF   00,W
0303E:  IORWF  FF2,F
....................       delay_ms(10); 
03040:  MOVLW  0A
03042:  MOVLB  7
03044:  MOVWF  x33
03046:  MOVLB  0
03048:  CALL   174A
....................       write_eeprom(27,(int8)Derivativo); 
0304C:  CLRF   FAA
0304E:  MOVLW  1B
03050:  MOVWF  FA9
03052:  MOVFF  6D5,FA8
03056:  BCF    FA6.6
03058:  BCF    FA6.7
0305A:  BSF    FA6.2
0305C:  MOVF   FF2,W
0305E:  MOVWF  00
03060:  BCF    FF2.7
03062:  MOVLB  F
03064:  MOVLW  55
03066:  MOVWF  FA7
03068:  MOVLW  AA
0306A:  MOVWF  FA7
0306C:  BSF    FA6.1
0306E:  BTFSC  FA6.1
03070:  BRA    306E
03072:  BCF    FA6.2
03074:  MOVF   00,W
03076:  IORWF  FF2,F
....................       delay_ms(10); 
03078:  MOVLW  0A
0307A:  MOVLB  7
0307C:  MOVWF  x33
0307E:  MOVLB  0
03080:  CALL   174A
....................       write_eeprom(28,(int8)txbuf[11]); 
03084:  CLRF   FAA
03086:  MOVLW  1C
03088:  MOVWF  FA9
0308A:  MOVFF  422,FA8
0308E:  BCF    FA6.6
03090:  BCF    FA6.7
03092:  BSF    FA6.2
03094:  MOVF   FF2,W
03096:  MOVWF  00
03098:  BCF    FF2.7
0309A:  MOVLB  F
0309C:  MOVLW  55
0309E:  MOVWF  FA7
030A0:  MOVLW  AA
030A2:  MOVWF  FA7
030A4:  BSF    FA6.1
030A6:  BTFSC  FA6.1
030A8:  BRA    30A6
030AA:  BCF    FA6.2
030AC:  MOVF   00,W
030AE:  IORWF  FF2,F
....................       delay_ms(10); 
030B0:  MOVLW  0A
030B2:  MOVLB  7
030B4:  MOVWF  x33
030B6:  MOVLB  0
030B8:  CALL   174A
....................       write_eeprom(29,(int8)txbuf[12]); 
030BC:  CLRF   FAA
030BE:  MOVLW  1D
030C0:  MOVWF  FA9
030C2:  MOVFF  423,FA8
030C6:  BCF    FA6.6
030C8:  BCF    FA6.7
030CA:  BSF    FA6.2
030CC:  MOVF   FF2,W
030CE:  MOVWF  00
030D0:  BCF    FF2.7
030D2:  MOVLB  F
030D4:  MOVLW  55
030D6:  MOVWF  FA7
030D8:  MOVLW  AA
030DA:  MOVWF  FA7
030DC:  BSF    FA6.1
030DE:  BTFSC  FA6.1
030E0:  BRA    30DE
030E2:  BCF    FA6.2
030E4:  MOVF   00,W
030E6:  IORWF  FF2,F
....................       delay_ms(10); 
030E8:  MOVLW  0A
030EA:  MOVLB  7
030EC:  MOVWF  x33
030EE:  MOVLB  0
030F0:  CALL   174A
....................       write_eeprom(30,(int8)txbuf[13]); 
030F4:  CLRF   FAA
030F6:  MOVLW  1E
030F8:  MOVWF  FA9
030FA:  MOVFF  424,FA8
030FE:  BCF    FA6.6
03100:  BCF    FA6.7
03102:  BSF    FA6.2
03104:  MOVF   FF2,W
03106:  MOVWF  00
03108:  BCF    FF2.7
0310A:  MOVLB  F
0310C:  MOVLW  55
0310E:  MOVWF  FA7
03110:  MOVLW  AA
03112:  MOVWF  FA7
03114:  BSF    FA6.1
03116:  BTFSC  FA6.1
03118:  BRA    3116
0311A:  BCF    FA6.2
0311C:  MOVF   00,W
0311E:  IORWF  FF2,F
....................       delay_ms(10); 
03120:  MOVLW  0A
03122:  MOVLB  7
03124:  MOVWF  x33
03126:  MOVLB  0
03128:  CALL   174A
....................       write_eeprom(31,(int8)txbuf[14]); 
0312C:  CLRF   FAA
0312E:  MOVLW  1F
03130:  MOVWF  FA9
03132:  MOVFF  425,FA8
03136:  BCF    FA6.6
03138:  BCF    FA6.7
0313A:  BSF    FA6.2
0313C:  MOVF   FF2,W
0313E:  MOVWF  00
03140:  BCF    FF2.7
03142:  MOVLB  F
03144:  MOVLW  55
03146:  MOVWF  FA7
03148:  MOVLW  AA
0314A:  MOVWF  FA7
0314C:  BSF    FA6.1
0314E:  BTFSC  FA6.1
03150:  BRA    314E
03152:  BCF    FA6.2
03154:  MOVF   00,W
03156:  IORWF  FF2,F
....................       delay_ms(10); 
03158:  MOVLW  0A
0315A:  MOVLB  7
0315C:  MOVWF  x33
0315E:  MOVLB  0
03160:  CALL   174A
....................       write_eeprom(32,(int8)txbuf[15]); 
03164:  CLRF   FAA
03166:  MOVLW  20
03168:  MOVWF  FA9
0316A:  MOVFF  426,FA8
0316E:  BCF    FA6.6
03170:  BCF    FA6.7
03172:  BSF    FA6.2
03174:  MOVF   FF2,W
03176:  MOVWF  00
03178:  BCF    FF2.7
0317A:  MOVLB  F
0317C:  MOVLW  55
0317E:  MOVWF  FA7
03180:  MOVLW  AA
03182:  MOVWF  FA7
03184:  BSF    FA6.1
03186:  BTFSC  FA6.1
03188:  BRA    3186
0318A:  BCF    FA6.2
0318C:  MOVF   00,W
0318E:  IORWF  FF2,F
....................       delay_ms(10); 
03190:  MOVLW  0A
03192:  MOVLB  7
03194:  MOVWF  x33
03196:  MOVLB  0
03198:  CALL   174A
....................       write_eeprom(33,(int8)txbuf[16]); 
0319C:  CLRF   FAA
0319E:  MOVLW  21
031A0:  MOVWF  FA9
031A2:  MOVFF  427,FA8
031A6:  BCF    FA6.6
031A8:  BCF    FA6.7
031AA:  BSF    FA6.2
031AC:  MOVF   FF2,W
031AE:  MOVWF  00
031B0:  BCF    FF2.7
031B2:  MOVLB  F
031B4:  MOVLW  55
031B6:  MOVWF  FA7
031B8:  MOVLW  AA
031BA:  MOVWF  FA7
031BC:  BSF    FA6.1
031BE:  BTFSC  FA6.1
031C0:  BRA    31BE
031C2:  BCF    FA6.2
031C4:  MOVF   00,W
031C6:  IORWF  FF2,F
....................       delay_ms(10); 
031C8:  MOVLW  0A
031CA:  MOVLB  7
031CC:  MOVWF  x33
031CE:  MOVLB  0
031D0:  CALL   174A
....................    }else{ 
031D4:  BRA    31DA
031D6:  MOVLB  4
....................       disp_Guarda=OFF; 
031D8:  BCF    x5F.2
031DA:  MOVLB  0
....................    } 
.................... } 
031DC:  GOTO   32A8 (RETURN)
....................  
.................... void Envio_Esclavos(void){ 
....................    Carga_Vector(); 
*
02C82:  BRA    2A94
....................    for(i=0;i<13;i++) 
02C84:  MOVLB  6
02C86:  CLRF   xE0
02C88:  MOVF   xE0,W
02C8A:  SUBLW  0C
02C8C:  BNC   2CBE
....................    { 
....................       direccion=0xA0; 
02C8E:  MOVLW  A0
02C90:  MOVLB  4
02C92:  MOVWF  x58
....................       Envio_I2C(direccion,i,SlaveA0Tx[i]); 
02C94:  CLRF   03
02C96:  MOVLB  6
02C98:  MOVF   xE0,W
02C9A:  ADDLW  37
02C9C:  MOVWF  FE9
02C9E:  MOVLW  04
02CA0:  ADDWFC 03,W
02CA2:  MOVWF  FEA
02CA4:  MOVFF  FEF,72D
02CA8:  MOVFF  458,72E
02CAC:  MOVFF  6E0,72F
02CB0:  MOVFF  72D,730
02CB4:  MOVLB  0
02CB6:  BRA    2C28
....................    }  
02CB8:  MOVLB  6
02CBA:  INCF   xE0,F
02CBC:  BRA    2C88
.................... } 
02CBE:  MOVLB  0
02CC0:  RETLW  00
.................... void Lectura_Esclavos(void){ 
....................    for(i=0;i<18;i++) 
*
031E0:  MOVLB  6
031E2:  CLRF   xE0
031E4:  MOVF   xE0,W
031E6:  SUBLW  11
031E8:  BNC   32A4
....................    { 
....................       direccion=0xA0;                        //Direccin en el bus I2c 
031EA:  MOVLW  A0
031EC:  MOVLB  4
031EE:  MOVWF  x58
....................       posicion=i;                         //Posicin de memoria a leer 
031F0:  MOVFF  6E0,459
....................       Lectura_I2C(direccion, posicion, dato);    //Lectura por I2C 
031F4:  MOVFF  458,72D
031F8:  MOVFF  459,72E
....................       txbuf[i]=(int8)dato; 
*
0328C:  CLRF   03
0328E:  MOVLB  6
03290:  MOVF   xE0,W
03292:  ADDLW  17
03294:  MOVWF  FE9
03296:  MOVLW  04
03298:  ADDWFC 03,W
0329A:  MOVWF  FEA
0329C:  MOVFF  457,FEF
....................    } 
032A0:  INCF   xE0,F
032A2:  BRA    31E4
....................    Lee_Vector(); 
032A4:  MOVLB  0
032A6:  BRA    2D2E
.................... } 
032A8:  RETLW  00
....................  
.................... #int_TIMER0 
.................... void temp0s(void){ 
....................    set_timer0(0); 
*
015B0:  CLRF   FD7
015B2:  CLRF   FD6
....................    t_exhaust++; 
015B4:  MOVLB  7
015B6:  INCF   x07,F
015B8:  BTFSC  FD8.2
015BA:  INCF   x08,F
....................    if(DesfogueSuave) 
015BC:  MOVLB  4
015BE:  BTFSS  x5E.5
015C0:  BRA    1610
....................    { 
....................       if(Nivel<6) 
015C2:  MOVLB  6
015C4:  MOVF   xEE,F
015C6:  BNZ   1608
015C8:  MOVF   xED,W
015CA:  SUBLW  05
015CC:  BNC   1608
....................       { 
....................          if(t_exhaust<=NivelSeleccionado) // Si el tiempo es menor o igual al tiempo de control se enciende la resistencia de lo contrario se apaga. 
015CE:  MOVLB  7
015D0:  MOVF   x08,W
015D2:  MOVLB  6
015D4:  SUBWF  xF8,W
015D6:  BNC   15EA
015D8:  BNZ   15E4
015DA:  MOVLB  7
015DC:  MOVF   x07,W
015DE:  MOVLB  6
015E0:  SUBWF  xF7,W
015E2:  BNC   15EA
....................          { 
....................             Desfogue_on; 
015E4:  BCF    F8B.5
015E6:  BCF    F94.5
....................          }else{             
015E8:  BRA    15EE
....................             Desfogue_off; 
015EA:  BSF    F8B.5
015EC:  BCF    F94.5
....................          }    
....................        
....................          if(t_exhaust>=60000) // Si el tiempo de control es mayor al tiempo de ciclo se reinicia tiempo de control 
015EE:  MOVLB  7
015F0:  MOVF   x08,W
015F2:  SUBLW  E9
015F4:  BC    1604
015F6:  XORLW  FF
015F8:  BNZ   1600
015FA:  MOVF   x07,W
015FC:  SUBLW  5F
015FE:  BC    1604
....................          { 
....................             t_exhaust=0; 
01600:  CLRF   x08
01602:  CLRF   x07
....................          } // tiempoctrl incrementa una unidad cada Xms, por eso se dividen los tiempos por 0.005. 
....................       } 
....................       else 
01604:  BRA    160E
01606:  MOVLB  6
....................       { 
....................          Desfogue_on; 
01608:  BCF    F8B.5
0160A:  BCF    F94.5
0160C:  MOVLB  7
0160E:  MOVLB  4
....................       } 
....................    }   
.................... } 
....................  
01610:  BCF    FF2.2
01612:  MOVLB  0
01614:  GOTO   0064
.................... #int_TIMER1 
.................... void temp1s(void){ 
....................     
....................    set_timer1(40536); // Se repite cada 5ms 
01618:  MOVLW  9E
0161A:  MOVWF  FCF
0161C:  MOVLW  58
0161E:  MOVWF  FCE
....................    tiempos++; 
01620:  MOVLB  6
01622:  INCF   xE7,F
01624:  BTFSC  FD8.2
01626:  INCF   xE8,F
....................    tiempos3++; 
01628:  INCF   xE9,F
0162A:  BTFSC  FD8.2
0162C:  INCF   xEA,F
....................    tiempoctrl++; 
0162E:  INCF   xEB,F
01630:  BTFSC  FD8.2
01632:  INCF   xEC,F
....................     
....................    if(Controlando==1){ 
01634:  DECFSZ xDD,W
01636:  BRA    1674
....................       if(tiempoctrl<Tp) // Si el tiempo es menor o igual al tiempo de control se enciende la resistencia de lo contrario se apaga. 
01638:  MOVF   xEC,W
0163A:  MOVLB  4
0163C:  SUBWF  x67,W
0163E:  BNC   1658
01640:  BNZ   1652
01642:  MOVF   x66,W
01644:  MOVLB  6
01646:  SUBWF  xEB,W
01648:  BTFSS  FD8.0
0164A:  BRA    1650
0164C:  MOVLB  4
0164E:  BRA    1658
01650:  MOVLB  4
....................       { 
....................          SSR_on; 
01652:  BCF    F8B.2
01654:  BCF    F94.2
....................       } 
....................       else          
01656:  BRA    165C
....................       { 
....................          SSR_off; 
01658:  BSF    F8B.2
0165A:  BCF    F94.2
....................       } 
....................              
....................       if(tiempoctrl>=Tc) // Si el tiempo de control es mayor al tiempo de ciclo se reinicia tiempo de control 
0165C:  MOVF   x69,W
0165E:  MOVLB  6
01660:  SUBWF  xEC,W
01662:  BNC   1674
01664:  BNZ   1670
01666:  MOVLB  4
01668:  MOVF   x68,W
0166A:  MOVLB  6
0166C:  SUBWF  xEB,W
0166E:  BNC   1674
....................       { 
....................          tiempoctrl=0; 
01670:  CLRF   xEC
01672:  CLRF   xEB
....................       } // tiempoctrl incrementa una unidad cada 5ms, por eso se dividen los tiempos por 0.005. 
....................    } 
....................     
....................    if(tiempos>=200)  // 12000 para que incremente cada minuto, 200para que incremente cada segundo. 
01674:  MOVF   xE8,F
01676:  BNZ   1680
01678:  MOVF   xE7,W
0167A:  SUBLW  C7
0167C:  BTFSC  FD8.0
0167E:  BRA    1742
....................    { 
....................       if(flagTC) 
01680:  BTFSS  xDA.6
01682:  BRA    168A
....................          TiempoControl++; 
01684:  MOVLB  7
01686:  INCF   x05,F
01688:  MOVLB  6
....................        
....................       tiemporecta++; 
0168A:  INCF   xDC,F
....................       if(IniciaCiclo && !Esterilizando){ 
0168C:  MOVLB  4
0168E:  BTFSS  x5E.0
01690:  BRA    169C
01692:  BTFSC  x5E.1
01694:  BRA    169C
....................          TiempoCiclo++; 
01696:  INCF   x60,F
01698:  BTFSC  FD8.2
0169A:  INCF   x61,F
....................       } 
....................        
....................       if(IniciaLlenado && !CalderinLleno){ 
0169C:  BTFSS  x5D.6
0169E:  BRA    16AA
016A0:  BTFSC  x5D.7
016A2:  BRA    16AA
....................          TiempoLlenado++; 
016A4:  INCF   x62,F
016A6:  BTFSC  FD8.2
016A8:  INCF   x63,F
....................       } 
....................        
....................       if(SensadoNivel){ 
016AA:  BTFSS  x5E.3
016AC:  BRA    16B4
....................          TiempoSensadoNivel++; 
016AE:  INCF   x64,F
016B0:  BTFSC  FD8.2
016B2:  INCF   x65,F
....................       } 
....................        
....................       tiempos=0;Lectura=1;tinicio++; 
016B4:  MOVLB  6
016B6:  CLRF   xE8
016B8:  CLRF   xE7
016BA:  BSF    xDA.4
016BC:  INCF   xEF,F
016BE:  BTFSC  FD8.2
016C0:  INCF   xF0,F
....................     
....................       if(Esterilizando && !Desfogando) 
016C2:  MOVLB  4
016C4:  BTFSS  x5E.1
016C6:  BRA    1704
016C8:  BTFSC  x5E.4
016CA:  BRA    1704
....................       {                
....................          Testerilizacion[0]++; 
016CC:  INCF   x6A,F
....................          if(Testerilizacion[0]>9) 
016CE:  BTFSC  x6A.7
016D0:  BRA    16DC
016D2:  MOVF   x6A,W
016D4:  SUBLW  09
016D6:  BC    16DC
....................             {Testerilizacion[0]=0; 
016D8:  CLRF   x6A
....................             Testerilizacion[1]++;} 
016DA:  INCF   x6B,F
....................          if(Testerilizacion[1]>5) 
016DC:  BTFSC  x6B.7
016DE:  BRA    16EA
016E0:  MOVF   x6B,W
016E2:  SUBLW  05
016E4:  BC    16EA
....................             {Testerilizacion[1]=0; 
016E6:  CLRF   x6B
....................              Testerilizacion[2]++;} 
016E8:  INCF   x6C,F
....................             if(Testerilizacion[2]>9) 
016EA:  BTFSC  x6C.7
016EC:  BRA    16F8
016EE:  MOVF   x6C,W
016F0:  SUBLW  09
016F2:  BC    16F8
....................                {Testerilizacion[2]=0; 
016F4:  CLRF   x6C
....................                 Testerilizacion[3]++;} 
016F6:  INCF   x6D,F
....................                if(Testerilizacion[3]>5) 
016F8:  BTFSC  x6D.7
016FA:  BRA    1704
016FC:  MOVF   x6D,W
016FE:  SUBLW  05
01700:  BC    1704
....................                   {Testerilizacion[3]=0;} 
01702:  CLRF   x6D
....................       }        
....................        
....................       if(Secando) 
01704:  BTFSS  x5E.2
01706:  BRA    1740
....................       {                
....................          Tsecado[0]++; 
01708:  INCF   x72,F
....................          if(Tsecado[0]>9) 
0170A:  BTFSC  x72.7
0170C:  BRA    1718
0170E:  MOVF   x72,W
01710:  SUBLW  09
01712:  BC    1718
....................             {Tsecado[0]=0; 
01714:  CLRF   x72
....................              Tsecado[1]++;} 
01716:  INCF   x73,F
....................           if(Tsecado[1]>5) 
01718:  BTFSC  x73.7
0171A:  BRA    1726
0171C:  MOVF   x73,W
0171E:  SUBLW  05
01720:  BC    1726
....................             {Tsecado[1]=0; 
01722:  CLRF   x73
....................              Tsecado[2]++;} 
01724:  INCF   x74,F
....................             if(Tsecado[2]>9) 
01726:  BTFSC  x74.7
01728:  BRA    1734
0172A:  MOVF   x74,W
0172C:  SUBLW  09
0172E:  BC    1734
....................                {Tsecado[2]=0; 
01730:  CLRF   x74
....................                 Tsecado[3]++;} 
01732:  INCF   x75,F
....................                if(Tsecado[3]>5) 
01734:  BTFSC  x75.7
01736:  BRA    1740
01738:  MOVF   x75,W
0173A:  SUBLW  05
0173C:  BC    1740
....................                   {Tsecado[3]=0;} 
0173E:  CLRF   x75
01740:  MOVLB  6
....................          }   
....................    } 
.................... } 
....................  
....................  
01742:  BCF    F9E.0
01744:  MOVLB  0
01746:  GOTO   0064
.................... void main() 
.................... { 
*
04B42:  CLRF   FF8
04B44:  BCF    FD0.7
04B46:  BSF    07.7
04B48:  CLRF   FEA
04B4A:  CLRF   FE9
04B4C:  MOVLB  4
04B4E:  CLRF   x57
04B50:  CLRF   x58
04B52:  CLRF   x59
04B54:  CLRF   x5A
04B56:  CLRF   x5B
04B58:  CLRF   x5C
04B5A:  BCF    x5D.0
04B5C:  BCF    x5D.1
04B5E:  BCF    x5D.2
04B60:  BCF    x5D.3
04B62:  BCF    x5D.4
04B64:  BCF    x5D.5
04B66:  BCF    x5D.6
04B68:  BCF    x5D.7
04B6A:  BCF    x5E.0
04B6C:  BCF    x5E.1
04B6E:  BCF    x5E.2
04B70:  BCF    x5E.3
04B72:  BCF    x5E.4
04B74:  BCF    x5E.5
04B76:  BCF    x5E.6
04B78:  BCF    x5E.7
04B7A:  BCF    x5F.0
04B7C:  BCF    x5F.1
04B7E:  BCF    x5F.2
04B80:  BCF    x5F.3
04B82:  BCF    x5F.4
04B84:  BCF    x5F.5
04B86:  BCF    x5F.6
04B88:  CLRF   x61
04B8A:  CLRF   x60
04B8C:  CLRF   x63
04B8E:  CLRF   x62
04B90:  CLRF   x65
04B92:  CLRF   x64
04B94:  CLRF   x67
04B96:  CLRF   x66
04B98:  CLRF   x69
04B9A:  CLRF   x68
04B9C:  MOVLW  CD
04B9E:  MOVLB  6
04BA0:  MOVWF  x5D
04BA2:  MOVLW  CC
04BA4:  MOVWF  x5C
04BA6:  MOVLW  20
04BA8:  MOVWF  x5B
04BAA:  MOVLW  84
04BAC:  MOVWF  x5A
04BAE:  CLRF   x61
04BB0:  CLRF   x60
04BB2:  CLRF   x5F
04BB4:  MOVLW  7E
04BB6:  MOVWF  x5E
04BB8:  CLRF   x65
04BBA:  CLRF   x64
04BBC:  CLRF   x63
04BBE:  CLRF   x62
04BC0:  CLRF   x71
04BC2:  CLRF   x70
04BC4:  CLRF   x6F
04BC6:  CLRF   x6E
04BC8:  CLRF   x75
04BCA:  CLRF   x74
04BCC:  CLRF   x73
04BCE:  CLRF   x72
04BD0:  CLRF   x79
04BD2:  CLRF   x78
04BD4:  CLRF   x77
04BD6:  CLRF   x76
04BD8:  CLRF   x7A
04BDA:  CLRF   x7B
04BDC:  CLRF   x7C
04BDE:  CLRF   x7D
04BE0:  MOVLW  14
04BE2:  MOVWF  x7E
04BE4:  CLRF   x7F
04BE6:  CLRF   x83
04BE8:  CLRF   x82
04BEA:  CLRF   x81
04BEC:  CLRF   x80
04BEE:  CLRF   x87
04BF0:  MOVLW  F0
04BF2:  MOVWF  x86
04BF4:  MOVLW  3E
04BF6:  MOVWF  x85
04BF8:  MOVLW  8B
04BFA:  MOVWF  x84
04BFC:  CLRF   x8F
04BFE:  CLRF   x8E
04C00:  MOVLW  20
04C02:  MOVWF  x8D
04C04:  MOVLW  82
04C06:  MOVWF  x8C
04C08:  CLRF   x93
04C0A:  CLRF   x92
04C0C:  CLRF   x91
04C0E:  CLRF   x90
04C10:  CLRF   x97
04C12:  CLRF   x96
04C14:  CLRF   x95
04C16:  CLRF   x94
04C18:  CLRF   x9B
04C1A:  CLRF   x9A
04C1C:  CLRF   x99
04C1E:  CLRF   x98
04C20:  CLRF   x9F
04C22:  CLRF   x9E
04C24:  CLRF   x9D
04C26:  CLRF   x9C
04C28:  CLRF   xA3
04C2A:  CLRF   xA2
04C2C:  CLRF   xA1
04C2E:  CLRF   xA0
04C30:  CLRF   xA7
04C32:  CLRF   xA6
04C34:  MOVLW  48
04C36:  MOVWF  xA5
04C38:  MOVLW  83
04C3A:  MOVWF  xA4
04C3C:  CLRF   xAB
04C3E:  CLRF   xAA
04C40:  MOVLW  20
04C42:  MOVWF  xA9
04C44:  MOVLW  83
04C46:  MOVWF  xA8
04C48:  CLRF   xAF
04C4A:  CLRF   xAE
04C4C:  CLRF   xAD
04C4E:  MOVLW  80
04C50:  MOVWF  xAC
04C52:  CLRF   xB3
04C54:  CLRF   xB2
04C56:  CLRF   xB1
04C58:  CLRF   xB0
04C5A:  CLRF   xB7
04C5C:  CLRF   xB6
04C5E:  CLRF   xB5
04C60:  CLRF   xB4
04C62:  CLRF   xBB
04C64:  CLRF   xBA
04C66:  CLRF   xB9
04C68:  CLRF   xB8
04C6A:  CLRF   xBF
04C6C:  CLRF   xBE
04C6E:  CLRF   xBD
04C70:  CLRF   xBC
04C72:  CLRF   xC3
04C74:  CLRF   xC2
04C76:  CLRF   xC1
04C78:  CLRF   xC0
04C7A:  MOVLW  5C
04C7C:  MOVWF  xC7
04C7E:  MOVLW  AA
04C80:  MOVWF  xC6
04C82:  MOVLW  52
04C84:  MOVWF  xC5
04C86:  MOVLW  77
04C88:  MOVWF  xC4
04C8A:  MOVLW  E0
04C8C:  MOVWF  xCB
04C8E:  MOVLW  2D
04C90:  MOVWF  xCA
04C92:  MOVLW  10
04C94:  MOVWF  xC9
04C96:  MOVLW  75
04C98:  MOVWF  xC8
04C9A:  MOVLW  FF
04C9C:  MOVWF  xCF
04C9E:  MOVLW  21
04CA0:  MOVWF  xCE
04CA2:  MOVLW  15
04CA4:  MOVWF  xCD
04CA6:  MOVLW  80
04CA8:  MOVWF  xCC
04CAA:  MOVLW  82
04CAC:  MOVWF  xD3
04CAE:  MOVLW  12
04CB0:  MOVWF  xD2
04CB2:  MOVLW  F4
04CB4:  MOVWF  xD1
04CB6:  MOVLW  86
04CB8:  MOVWF  xD0
04CBA:  CLRF   xD4
04CBC:  CLRF   xD5
04CBE:  MOVLB  4
04CC0:  BCF    x5F.7
04CC2:  MOVLB  6
04CC4:  BCF    xDA.0
04CC6:  BCF    xDA.1
04CC8:  BSF    xDA.2
04CCA:  BCF    xDA.3
04CCC:  BCF    xDA.4
04CCE:  BCF    xDA.5
04CD0:  BCF    xDA.6
04CD2:  BCF    xDA.7
04CD4:  CLRF   xDB
04CD6:  CLRF   xDC
04CD8:  CLRF   xDD
04CDA:  CLRF   xDE
04CDC:  MOVLW  01
04CDE:  MOVWF  xDF
04CE0:  CLRF   xE0
04CE2:  CLRF   xE1
04CE4:  CLRF   xE2
04CE6:  CLRF   xE3
04CE8:  MOVWF  xE4
04CEA:  CLRF   xE5
04CEC:  CLRF   xE6
04CEE:  CLRF   xE8
04CF0:  CLRF   xE7
04CF2:  CLRF   xEA
04CF4:  CLRF   xE9
04CF6:  CLRF   xEC
04CF8:  CLRF   xEB
04CFA:  CLRF   xEE
04CFC:  CLRF   xED
04CFE:  CLRF   xF0
04D00:  CLRF   xEF
04D02:  CLRF   xF2
04D04:  CLRF   xF1
04D06:  CLRF   xF4
04D08:  CLRF   xF3
04D0A:  CLRF   xF6
04D0C:  CLRF   xF5
04D0E:  CLRF   xF8
04D10:  CLRF   xF7
04D12:  MOVLB  7
04D14:  CLRF   x01
04D16:  CLRF   x02
04D18:  CLRF   x03
04D1A:  CLRF   x04
04D1C:  CLRF   x05
04D1E:  CLRF   x06
04D20:  CLRF   x08
04D22:  CLRF   x07
04D24:  MOVF   FC1,W
04D26:  ANDLW  C0
04D28:  IORLW  0F
04D2A:  MOVWF  FC1
04D2C:  MOVLW  07
04D2E:  MOVWF  FB4
04D30:  MOVLB  4
04D32:  CLRF   x6A
04D34:  CLRF   x6B
04D36:  CLRF   x6C
04D38:  CLRF   x6D
04D3A:  CLRF   x6E
04D3C:  CLRF   x6F
04D3E:  CLRF   x70
04D40:  CLRF   x71
04D42:  CLRF   x72
04D44:  CLRF   x73
04D46:  CLRF   x74
04D48:  CLRF   x75
04D4A:  CLRF   x76
04D4C:  CLRF   x77
04D4E:  CLRF   x78
04D50:  CLRF   x79
04D52:  CLRF   x7A
04D54:  CLRF   x7B
04D56:  CLRF   x7C
04D58:  CLRF   x7D
04D5A:  CLRF   x7E
04D5C:  CLRF   x7F
04D5E:  CLRF   x80
04D60:  CLRF   x81
04D62:  CLRF   x82
04D64:  CLRF   x83
04D66:  CLRF   x84
04D68:  CLRF   x85
04D6A:  CLRF   x86
04D6C:  CLRF   x87
04D6E:  CLRF   x88
04D70:  CLRF   x89
04D72:  CLRF   x8A
04D74:  CLRF   x8B
04D76:  CLRF   x8C
04D78:  CLRF   x8D
04D7A:  CLRF   x8E
04D7C:  CLRF   x8F
04D7E:  CLRF   x90
04D80:  CLRF   x91
04D82:  CLRF   x92
04D84:  CLRF   x93
04D86:  CLRF   x94
04D88:  CLRF   x95
04D8A:  CLRF   x96
04D8C:  CLRF   x97
04D8E:  CLRF   x98
04D90:  CLRF   x99
04D92:  CLRF   x9A
04D94:  CLRF   x9B
04D96:  CLRF   x9C
04D98:  CLRF   x9D
04D9A:  CLRF   x9E
04D9C:  CLRF   x9F
04D9E:  CLRF   xA0
04DA0:  CLRF   xA1
04DA2:  CLRF   xA2
04DA4:  CLRF   xA3
04DA6:  CLRF   xA4
04DA8:  CLRF   xA5
04DAA:  CLRF   xA6
04DAC:  CLRF   xA7
04DAE:  CLRF   xA8
04DB0:  CLRF   xA9
04DB2:  CLRF   xAA
04DB4:  CLRF   xAB
04DB6:  CLRF   xAC
04DB8:  CLRF   xAD
04DBA:  CLRF   xAE
04DBC:  CLRF   xAF
04DBE:  CLRF   xB0
04DC0:  CLRF   xB1
04DC2:  CLRF   xB2
04DC4:  CLRF   xB3
04DC6:  CLRF   xB4
04DC8:  CLRF   xB5
04DCA:  CLRF   xB6
04DCC:  CLRF   xB7
04DCE:  CLRF   xB8
04DD0:  CLRF   xB9
04DD2:  CLRF   xBA
04DD4:  CLRF   xBB
04DD6:  CLRF   xBC
04DD8:  CLRF   xBD
04DDA:  CLRF   xBE
04DDC:  CLRF   xBF
04DDE:  CLRF   xC0
04DE0:  CLRF   xC1
04DE2:  CLRF   xC2
04DE4:  CLRF   xC3
04DE6:  CLRF   xC4
04DE8:  CLRF   xC5
04DEA:  CLRF   xC6
04DEC:  CLRF   xC7
04DEE:  CLRF   xC8
04DF0:  CLRF   xC9
04DF2:  CLRF   xCA
04DF4:  CLRF   xCB
04DF6:  CLRF   xCC
04DF8:  CLRF   xCD
04DFA:  CLRF   xCE
04DFC:  CLRF   xCF
04DFE:  CLRF   xD0
04E00:  CLRF   xD1
04E02:  CLRF   xD2
04E04:  CLRF   xD3
04E06:  CLRF   xD4
04E08:  CLRF   xD5
04E0A:  CLRF   xD6
04E0C:  CLRF   xD7
04E0E:  CLRF   xD8
04E10:  CLRF   xD9
04E12:  CLRF   xDA
04E14:  CLRF   xDB
04E16:  CLRF   xDC
04E18:  CLRF   xDD
04E1A:  CLRF   xDE
04E1C:  CLRF   xDF
04E1E:  CLRF   xE0
04E20:  CLRF   xE1
04E22:  CLRF   xE2
04E24:  CLRF   xE3
04E26:  CLRF   xE4
04E28:  CLRF   xE5
04E2A:  CLRF   xE6
04E2C:  CLRF   xE7
04E2E:  CLRF   xE8
04E30:  CLRF   xE9
04E32:  CLRF   xEA
04E34:  CLRF   xEB
04E36:  CLRF   xEC
04E38:  CLRF   xED
04E3A:  CLRF   xEE
04E3C:  CLRF   xEF
04E3E:  CLRF   xF0
04E40:  CLRF   xF1
04E42:  CLRF   xF2
04E44:  CLRF   xF3
04E46:  CLRF   xF4
04E48:  CLRF   xF5
04E4A:  CLRF   xF6
04E4C:  CLRF   xF7
04E4E:  CLRF   xF8
04E50:  CLRF   xF9
04E52:  CLRF   xFA
04E54:  CLRF   xFB
04E56:  CLRF   xFC
04E58:  CLRF   xFD
04E5A:  CLRF   xFE
04E5C:  CLRF   xFF
04E5E:  MOVLB  5
04E60:  CLRF   x00
04E62:  CLRF   x01
04E64:  CLRF   x02
04E66:  CLRF   x03
04E68:  CLRF   x04
04E6A:  CLRF   x05
04E6C:  CLRF   x06
04E6E:  CLRF   x07
04E70:  CLRF   x08
04E72:  CLRF   x09
04E74:  CLRF   x0A
04E76:  CLRF   x0B
04E78:  CLRF   x0C
04E7A:  CLRF   x0D
04E7C:  CLRF   x0E
04E7E:  CLRF   x0F
04E80:  CLRF   x10
04E82:  CLRF   x11
04E84:  CLRF   x12
04E86:  CLRF   x13
04E88:  CLRF   x14
04E8A:  CLRF   x15
04E8C:  CLRF   x16
04E8E:  CLRF   x17
04E90:  CLRF   x18
04E92:  CLRF   x19
04E94:  CLRF   x1A
04E96:  CLRF   x1B
04E98:  CLRF   x1C
04E9A:  CLRF   x1D
04E9C:  CLRF   x1E
04E9E:  CLRF   x1F
04EA0:  CLRF   x20
04EA2:  CLRF   x21
04EA4:  CLRF   x22
04EA6:  CLRF   x23
04EA8:  CLRF   x24
04EAA:  CLRF   x25
04EAC:  CLRF   x26
04EAE:  CLRF   x27
04EB0:  CLRF   x28
04EB2:  CLRF   x29
04EB4:  CLRF   x2A
04EB6:  CLRF   x2B
04EB8:  CLRF   x2C
04EBA:  CLRF   x2D
04EBC:  CLRF   x2E
04EBE:  CLRF   x2F
04EC0:  CLRF   x30
04EC2:  CLRF   x31
04EC4:  CLRF   x32
04EC6:  CLRF   x33
04EC8:  CLRF   x34
04ECA:  CLRF   x35
04ECC:  CLRF   x36
04ECE:  CLRF   x37
04ED0:  CLRF   x38
04ED2:  CLRF   x39
04ED4:  CLRF   x3A
04ED6:  CLRF   x3B
04ED8:  CLRF   x3C
04EDA:  CLRF   x3D
04EDC:  CLRF   x3E
04EDE:  CLRF   x3F
04EE0:  CLRF   x40
04EE2:  CLRF   x41
04EE4:  CLRF   x42
04EE6:  CLRF   x43
04EE8:  CLRF   x44
04EEA:  CLRF   x45
04EEC:  CLRF   x46
04EEE:  CLRF   x47
04EF0:  CLRF   x48
04EF2:  CLRF   x49
04EF4:  CLRF   x4A
04EF6:  CLRF   x4B
04EF8:  CLRF   x4C
04EFA:  CLRF   x4D
04EFC:  CLRF   x4E
04EFE:  CLRF   x4F
04F00:  CLRF   x50
04F02:  CLRF   x51
04F04:  CLRF   x52
04F06:  CLRF   x53
04F08:  CLRF   x54
04F0A:  CLRF   x55
04F0C:  CLRF   x56
04F0E:  CLRF   x57
04F10:  CLRF   x58
04F12:  CLRF   x59
04F14:  CLRF   x5A
04F16:  CLRF   x5B
04F18:  CLRF   x5C
04F1A:  CLRF   x5D
04F1C:  CLRF   x5E
04F1E:  CLRF   x5F
04F20:  CLRF   x60
04F22:  CLRF   x61
04F24:  CLRF   x62
04F26:  CLRF   x63
04F28:  CLRF   x64
04F2A:  CLRF   x65
04F2C:  CLRF   x66
04F2E:  CLRF   x67
04F30:  CLRF   x68
04F32:  CLRF   x69
04F34:  CLRF   x6A
04F36:  CLRF   x6B
04F38:  CLRF   x6C
04F3A:  CLRF   x6D
04F3C:  CLRF   x6E
04F3E:  CLRF   x6F
04F40:  CLRF   x70
04F42:  CLRF   x71
04F44:  CLRF   x72
04F46:  CLRF   x73
04F48:  CLRF   x74
04F4A:  CLRF   x75
04F4C:  CLRF   x76
04F4E:  CLRF   x77
04F50:  CLRF   x78
04F52:  CLRF   x79
04F54:  CLRF   x7A
04F56:  CLRF   x7B
04F58:  CLRF   x7C
04F5A:  CLRF   x7D
04F5C:  CLRF   x7E
04F5E:  CLRF   x7F
04F60:  CLRF   x80
04F62:  CLRF   x81
04F64:  CLRF   x82
04F66:  CLRF   x83
04F68:  CLRF   x84
04F6A:  CLRF   x85
04F6C:  CLRF   x86
04F6E:  CLRF   x87
04F70:  CLRF   x88
04F72:  CLRF   x89
04F74:  CLRF   x8A
04F76:  CLRF   x8B
04F78:  CLRF   x8C
04F7A:  CLRF   x8D
04F7C:  CLRF   x8E
04F7E:  CLRF   x8F
04F80:  CLRF   x90
04F82:  CLRF   x91
04F84:  CLRF   x92
04F86:  CLRF   x93
04F88:  CLRF   x94
04F8A:  CLRF   x95
04F8C:  CLRF   x96
04F8E:  CLRF   x97
04F90:  CLRF   x98
04F92:  CLRF   x99
04F94:  CLRF   x9A
04F96:  CLRF   x9B
04F98:  CLRF   x9C
04F9A:  CLRF   x9D
04F9C:  CLRF   x9E
04F9E:  CLRF   x9F
04FA0:  CLRF   xA0
04FA2:  CLRF   xA1
04FA4:  CLRF   xA2
04FA6:  CLRF   xA3
04FA8:  CLRF   xA4
04FAA:  CLRF   xA5
04FAC:  CLRF   xA6
04FAE:  CLRF   xA7
04FB0:  CLRF   xA8
04FB2:  CLRF   xA9
04FB4:  CLRF   xAA
04FB6:  CLRF   xAB
04FB8:  CLRF   xAC
04FBA:  CLRF   xAD
04FBC:  CLRF   xAE
04FBE:  CLRF   xAF
04FC0:  CLRF   xB0
04FC2:  CLRF   xB1
04FC4:  CLRF   xB2
04FC6:  CLRF   xB3
04FC8:  CLRF   xB4
04FCA:  CLRF   xB5
04FCC:  CLRF   xB6
04FCE:  CLRF   xB7
04FD0:  CLRF   xB8
04FD2:  CLRF   xB9
04FD4:  CLRF   xBA
04FD6:  CLRF   xBB
04FD8:  CLRF   xBC
04FDA:  CLRF   xBD
04FDC:  CLRF   xBE
04FDE:  CLRF   xBF
04FE0:  CLRF   xC0
04FE2:  CLRF   xC1
04FE4:  CLRF   xC2
04FE6:  CLRF   xC3
04FE8:  CLRF   xC4
04FEA:  CLRF   xC5
04FEC:  CLRF   xC6
04FEE:  CLRF   xC7
04FF0:  CLRF   xC8
04FF2:  CLRF   xC9
04FF4:  CLRF   xCA
04FF6:  CLRF   xCB
04FF8:  CLRF   xCC
04FFA:  CLRF   xCD
04FFC:  CLRF   xCE
04FFE:  CLRF   xCF
05000:  CLRF   xD0
05002:  CLRF   xD1
05004:  CLRF   xD2
05006:  CLRF   xD3
05008:  CLRF   xD4
0500A:  CLRF   xD5
0500C:  CLRF   xD6
0500E:  CLRF   xD7
05010:  CLRF   xD8
05012:  CLRF   xD9
05014:  CLRF   xDA
05016:  CLRF   xDB
05018:  CLRF   xDC
0501A:  CLRF   xDD
0501C:  CLRF   xDE
0501E:  CLRF   xDF
05020:  CLRF   xE0
05022:  CLRF   xE1
05024:  CLRF   xE2
05026:  CLRF   xE3
05028:  CLRF   xE4
0502A:  CLRF   xE5
0502C:  CLRF   xE6
0502E:  CLRF   xE7
05030:  CLRF   xE8
05032:  CLRF   xE9
05034:  CLRF   xEA
05036:  CLRF   xEB
05038:  CLRF   xEC
0503A:  CLRF   xED
0503C:  CLRF   xEE
0503E:  CLRF   xEF
05040:  CLRF   xF0
05042:  CLRF   xF1
05044:  CLRF   xF2
05046:  CLRF   xF3
05048:  CLRF   xF4
0504A:  CLRF   xF5
0504C:  CLRF   xF6
0504E:  CLRF   xF7
05050:  CLRF   xF8
05052:  CLRF   xF9
05054:  CLRF   xFA
05056:  CLRF   xFB
05058:  CLRF   xFC
0505A:  CLRF   xFD
0505C:  CLRF   xFE
0505E:  CLRF   xFF
05060:  MOVLB  6
05062:  CLRF   x00
05064:  CLRF   x01
05066:  CLRF   x02
05068:  CLRF   x03
0506A:  CLRF   x04
0506C:  CLRF   x05
0506E:  CLRF   x06
05070:  CLRF   x07
05072:  CLRF   x08
05074:  CLRF   x09
05076:  CLRF   x0A
05078:  CLRF   x0B
0507A:  CLRF   x0C
0507C:  CLRF   x0D
0507E:  CLRF   x0E
05080:  CLRF   x0F
05082:  CLRF   x10
05084:  CLRF   x11
05086:  CLRF   x12
05088:  CLRF   x13
0508A:  CLRF   x14
0508C:  CLRF   x15
0508E:  CLRF   x16
05090:  CLRF   x17
05092:  CLRF   x18
05094:  CLRF   x19
05096:  CLRF   x1A
05098:  CLRF   x1B
0509A:  CLRF   x1C
0509C:  CLRF   x1D
0509E:  CLRF   x1E
050A0:  CLRF   x1F
050A2:  CLRF   x20
050A4:  CLRF   x21
050A6:  CLRF   x22
050A8:  CLRF   x23
050AA:  CLRF   x24
050AC:  CLRF   x25
050AE:  CLRF   x26
050B0:  CLRF   x27
050B2:  CLRF   x28
050B4:  CLRF   x29
050B6:  CLRF   x2A
050B8:  CLRF   x2B
050BA:  CLRF   x2C
050BC:  CLRF   x2D
050BE:  CLRF   x2E
050C0:  CLRF   x2F
050C2:  CLRF   x30
050C4:  CLRF   x31
050C6:  CLRF   x32
050C8:  CLRF   x33
050CA:  CLRF   x34
050CC:  CLRF   x35
050CE:  CLRF   x36
050D0:  CLRF   x37
050D2:  CLRF   x38
050D4:  CLRF   x39
050D6:  CLRF   x3A
050D8:  CLRF   x3B
050DA:  CLRF   x3C
050DC:  CLRF   x3D
050DE:  CLRF   x3E
050E0:  CLRF   x3F
050E2:  CLRF   x40
050E4:  CLRF   x41
050E6:  CLRF   x42
050E8:  CLRF   x43
050EA:  CLRF   x44
050EC:  CLRF   x45
050EE:  CLRF   x46
050F0:  CLRF   x47
050F2:  CLRF   x48
050F4:  CLRF   x49
050F6:  CLRF   x4A
050F8:  CLRF   x4B
050FA:  CLRF   x4C
050FC:  CLRF   x4D
050FE:  CLRF   x4E
05100:  CLRF   x4F
05102:  CLRF   x50
05104:  CLRF   x51
05106:  CLRF   x52
05108:  CLRF   x53
0510A:  CLRF   x54
0510C:  CLRF   x55
0510E:  CLRF   x56
05110:  CLRF   x57
05112:  CLRF   x58
05114:  CLRF   x59
05116:  CLRF   x66
05118:  CLRF   x67
0511A:  CLRF   x68
0511C:  CLRF   x69
0511E:  CLRF   x6A
05120:  CLRF   x6B
05122:  CLRF   x6C
05124:  CLRF   x6D
05126:  MOVLW  6B
05128:  MOVWF  xD6
0512A:  MOVLW  50
0512C:  MOVWF  xD7
0512E:  MOVLW  61
05130:  MOVWF  xD8
05132:  CLRF   xD9
05134:  CLRF   xF9
05136:  CLRF   xFA
05138:  CLRF   xFB
0513A:  CLRF   xFC
0513C:  CLRF   xFD
0513E:  CLRF   xFE
05140:  CLRF   xFF
05142:  MOVLB  7
05144:  CLRF   x00
05146:  CLRF   x2B
05148:  CLRF   x2C
....................    Display_on; 
0514A:  BSF    F8B.7
0514C:  BCF    F94.7
....................    for (posicion=0;posicion<0x10;posicion++) 
0514E:  MOVLB  4
05150:  CLRF   x59
05152:  MOVF   x59,W
05154:  SUBLW  0F
05156:  BNC   516C
....................    { 
....................       SlaveA0Tx[posicion] = 0x00; 
05158:  CLRF   03
0515A:  MOVF   x59,W
0515C:  ADDLW  37
0515E:  MOVWF  FE9
05160:  MOVLW  04
05162:  ADDWFC 03,W
05164:  MOVWF  FEA
05166:  CLRF   FEF
....................    } 
05168:  INCF   x59,F
0516A:  BRA    5152
....................     
....................    delay_ms(1000);    
0516C:  MOVLW  04
0516E:  MOVLB  7
05170:  MOVWF  x2D
05172:  MOVLW  FA
05174:  MOVWF  x33
05176:  MOVLB  0
05178:  CALL   174A
0517C:  MOVLB  7
0517E:  DECFSZ x2D,F
05180:  BRA    5172
....................    //enable_interrupts(INT_SSP); 
....................    setup_timer_0(RTCC_8_BIT|RTCC_DIV_1); 
05182:  MOVLW  C8
05184:  MOVWF  FD5
....................    enable_interrupts(INT_TIMER0); 
05186:  BSF    FF2.5
....................    setup_timer_1(T1_INTERNAL|T1_DIV_BY_1); 
05188:  MOVLW  85
0518A:  MOVWF  FCD
....................    enable_interrupts(INT_TIMER1); 
0518C:  BSF    F9D.0
....................    setup_adc_ports(AN0_TO_AN3); 
0518E:  MOVF   FC1,W
05190:  ANDLW  C0
05192:  IORLW  0B
05194:  MOVWF  FC1
....................    setup_adc(ADC_CLOCK_DIV_32 ); 
05196:  MOVF   FC0,W
05198:  ANDLW  C0
0519A:  IORLW  02
0519C:  MOVWF  FC0
0519E:  BSF    FC0.7
051A0:  BSF    FC2.0
....................    enable_interrupts(global); 
051A2:  MOVLW  C0
051A4:  IORWF  FF2,F
....................  
.................... //Lectura EEPROM//-------------------------- 
....................    Testerilizacionp[0]=read_eeprom(0); 
051A6:  MOVFF  FF2,72D
051AA:  BCF    FF2.7
051AC:  CLRF   FAA
051AE:  CLRF   FA9
051B0:  BCF    FA6.6
051B2:  BCF    FA6.7
051B4:  BSF    FA6.0
051B6:  MOVF   FA8,W
051B8:  BTFSC  x2D.7
051BA:  BSF    FF2.7
051BC:  MOVLB  4
051BE:  MOVWF  x6E
....................    delay_ms(10); 
051C0:  MOVLW  0A
051C2:  MOVLB  7
051C4:  MOVWF  x33
051C6:  MOVLB  0
051C8:  CALL   174A
....................    Testerilizacionp[1]=read_eeprom(1); 
051CC:  MOVFF  FF2,72D
051D0:  BCF    FF2.7
051D2:  CLRF   FAA
051D4:  MOVLW  01
051D6:  MOVWF  FA9
051D8:  BCF    FA6.6
051DA:  BCF    FA6.7
051DC:  BSF    FA6.0
051DE:  MOVF   FA8,W
051E0:  MOVLB  7
051E2:  BTFSC  x2D.7
051E4:  BSF    FF2.7
051E6:  MOVLB  4
051E8:  MOVWF  x6F
....................    delay_ms(10); 
051EA:  MOVLW  0A
051EC:  MOVLB  7
051EE:  MOVWF  x33
051F0:  MOVLB  0
051F2:  CALL   174A
....................    Testerilizacionp[2]=read_eeprom(2); 
051F6:  MOVFF  FF2,72D
051FA:  BCF    FF2.7
051FC:  CLRF   FAA
051FE:  MOVLW  02
05200:  MOVWF  FA9
05202:  BCF    FA6.6
05204:  BCF    FA6.7
05206:  BSF    FA6.0
05208:  MOVF   FA8,W
0520A:  MOVLB  7
0520C:  BTFSC  x2D.7
0520E:  BSF    FF2.7
05210:  MOVLB  4
05212:  MOVWF  x70
....................    delay_ms(10); 
05214:  MOVLW  0A
05216:  MOVLB  7
05218:  MOVWF  x33
0521A:  MOVLB  0
0521C:  CALL   174A
....................    Testerilizacionp[3]=read_eeprom(3); 
05220:  MOVFF  FF2,72D
05224:  BCF    FF2.7
05226:  CLRF   FAA
05228:  MOVLW  03
0522A:  MOVWF  FA9
0522C:  BCF    FA6.6
0522E:  BCF    FA6.7
05230:  BSF    FA6.0
05232:  MOVF   FA8,W
05234:  MOVLB  7
05236:  BTFSC  x2D.7
05238:  BSF    FF2.7
0523A:  MOVLB  4
0523C:  MOVWF  x71
....................    delay_ms(10); 
0523E:  MOVLW  0A
05240:  MOVLB  7
05242:  MOVWF  x33
05244:  MOVLB  0
05246:  CALL   174A
....................    Tsecadop[0]=read_eeprom(4); 
0524A:  MOVFF  FF2,72D
0524E:  BCF    FF2.7
05250:  CLRF   FAA
05252:  MOVLW  04
05254:  MOVWF  FA9
05256:  BCF    FA6.6
05258:  BCF    FA6.7
0525A:  BSF    FA6.0
0525C:  MOVF   FA8,W
0525E:  MOVLB  7
05260:  BTFSC  x2D.7
05262:  BSF    FF2.7
05264:  MOVLB  4
05266:  MOVWF  x76
....................    delay_ms(10); 
05268:  MOVLW  0A
0526A:  MOVLB  7
0526C:  MOVWF  x33
0526E:  MOVLB  0
05270:  CALL   174A
....................    Tsecadop[1]=read_eeprom(5); 
05274:  MOVFF  FF2,72D
05278:  BCF    FF2.7
0527A:  CLRF   FAA
0527C:  MOVLW  05
0527E:  MOVWF  FA9
05280:  BCF    FA6.6
05282:  BCF    FA6.7
05284:  BSF    FA6.0
05286:  MOVF   FA8,W
05288:  MOVLB  7
0528A:  BTFSC  x2D.7
0528C:  BSF    FF2.7
0528E:  MOVLB  4
05290:  MOVWF  x77
....................    delay_ms(10); 
05292:  MOVLW  0A
05294:  MOVLB  7
05296:  MOVWF  x33
05298:  MOVLB  0
0529A:  CALL   174A
....................    Tsecadop[2]=read_eeprom(6); 
0529E:  MOVFF  FF2,72D
052A2:  BCF    FF2.7
052A4:  CLRF   FAA
052A6:  MOVLW  06
052A8:  MOVWF  FA9
052AA:  BCF    FA6.6
052AC:  BCF    FA6.7
052AE:  BSF    FA6.0
052B0:  MOVF   FA8,W
052B2:  MOVLB  7
052B4:  BTFSC  x2D.7
052B6:  BSF    FF2.7
052B8:  MOVLB  4
052BA:  MOVWF  x78
....................    delay_ms(10); 
052BC:  MOVLW  0A
052BE:  MOVLB  7
052C0:  MOVWF  x33
052C2:  MOVLB  0
052C4:  CALL   174A
....................    Tsecadop[3]=read_eeprom(7); 
052C8:  MOVFF  FF2,72D
052CC:  BCF    FF2.7
052CE:  CLRF   FAA
052D0:  MOVLW  07
052D2:  MOVWF  FA9
052D4:  BCF    FA6.6
052D6:  BCF    FA6.7
052D8:  BSF    FA6.0
052DA:  MOVF   FA8,W
052DC:  MOVLB  7
052DE:  BTFSC  x2D.7
052E0:  BSF    FF2.7
052E2:  MOVLB  4
052E4:  MOVWF  x79
....................    delay_ms(10); 
052E6:  MOVLW  0A
052E8:  MOVLB  7
052EA:  MOVWF  x33
052EC:  MOVLB  0
052EE:  CALL   174A
....................    Setpoint=read_eeprom(8); 
052F2:  MOVFF  FF2,72D
052F6:  BCF    FF2.7
052F8:  CLRF   FAA
052FA:  MOVLW  08
052FC:  MOVWF  FA9
052FE:  BCF    FA6.6
05300:  BCF    FA6.7
05302:  BSF    FA6.0
05304:  MOVF   FA8,W
05306:  MOVLB  7
05308:  BTFSC  x2D.7
0530A:  BSF    FF2.7
0530C:  MOVLB  6
0530E:  MOVWF  xE3
....................    delay_ms(10); 
05310:  MOVLW  0A
05312:  MOVLB  7
05314:  MOVWF  x33
05316:  MOVLB  0
05318:  CALL   174A
....................    Nivel=read_eeprom(9); 
0531C:  MOVFF  FF2,72D
05320:  BCF    FF2.7
05322:  CLRF   FAA
05324:  MOVLW  09
05326:  MOVWF  FA9
05328:  BCF    FA6.6
0532A:  BCF    FA6.7
0532C:  BSF    FA6.0
0532E:  MOVF   FA8,W
05330:  MOVLB  7
05332:  BTFSC  x2D.7
05334:  BSF    FF2.7
05336:  MOVLB  6
05338:  CLRF   xEE
0533A:  MOVWF  xED
....................    delay_ms(10); 
0533C:  MOVLW  0A
0533E:  MOVLB  7
05340:  MOVWF  x33
05342:  MOVLB  0
05344:  CALL   174A
....................    Password[0]=read_eeprom(10); 
05348:  MOVFF  FF2,72D
0534C:  BCF    FF2.7
0534E:  CLRF   FAA
05350:  MOVLW  0A
05352:  MOVWF  FA9
05354:  BCF    FA6.6
05356:  BCF    FA6.7
05358:  BSF    FA6.0
0535A:  MOVF   FA8,W
0535C:  MOVLB  7
0535E:  BTFSC  x2D.7
05360:  BSF    FF2.7
05362:  MOVLB  6
05364:  MOVWF  xFD
....................    delay_ms(10); 
05366:  MOVLW  0A
05368:  MOVLB  7
0536A:  MOVWF  x33
0536C:  MOVLB  0
0536E:  CALL   174A
....................    Password[1]=read_eeprom(11); 
05372:  MOVFF  FF2,72D
05376:  BCF    FF2.7
05378:  CLRF   FAA
0537A:  MOVLW  0B
0537C:  MOVWF  FA9
0537E:  BCF    FA6.6
05380:  BCF    FA6.7
05382:  BSF    FA6.0
05384:  MOVF   FA8,W
05386:  MOVLB  7
05388:  BTFSC  x2D.7
0538A:  BSF    FF2.7
0538C:  MOVLB  6
0538E:  MOVWF  xFE
....................    delay_ms(10); 
05390:  MOVLW  0A
05392:  MOVLB  7
05394:  MOVWF  x33
05396:  MOVLB  0
05398:  CALL   174A
....................    Password[2]=read_eeprom(12); 
0539C:  MOVFF  FF2,72D
053A0:  BCF    FF2.7
053A2:  CLRF   FAA
053A4:  MOVLW  0C
053A6:  MOVWF  FA9
053A8:  BCF    FA6.6
053AA:  BCF    FA6.7
053AC:  BSF    FA6.0
053AE:  MOVF   FA8,W
053B0:  MOVLB  7
053B2:  BTFSC  x2D.7
053B4:  BSF    FF2.7
053B6:  MOVLB  6
053B8:  MOVWF  xFF
....................    delay_ms(10); 
053BA:  MOVLW  0A
053BC:  MOVLB  7
053BE:  MOVWF  x33
053C0:  MOVLB  0
053C2:  CALL   174A
....................    Password[3]=read_eeprom(13); 
053C6:  MOVFF  FF2,72D
053CA:  BCF    FF2.7
053CC:  CLRF   FAA
053CE:  MOVLW  0D
053D0:  MOVWF  FA9
053D2:  BCF    FA6.6
053D4:  BCF    FA6.7
053D6:  BSF    FA6.0
053D8:  MOVF   FA8,W
053DA:  MOVLB  7
053DC:  BTFSC  x2D.7
053DE:  BSF    FF2.7
053E0:  MOVWF  x00
....................    delay_ms(10); 
053E2:  MOVLW  0A
053E4:  MOVWF  x33
053E6:  MOVLB  0
053E8:  CALL   174A
....................    Ganancia=read_eeprom(20); 
053EC:  MOVFF  FF2,72D
053F0:  BCF    FF2.7
053F2:  CLRF   FAA
053F4:  MOVLW  14
053F6:  MOVWF  FA9
053F8:  BCF    FA6.6
053FA:  BCF    FA6.7
053FC:  BSF    FA6.0
053FE:  MOVF   FA8,W
05400:  MOVLB  7
05402:  BTFSC  x2D.7
05404:  BSF    FF2.7
05406:  CLRF   x34
05408:  MOVWF  x33
0540A:  MOVLB  0
0540C:  CALL   1772
05410:  MOVFF  03,6A7
05414:  MOVFF  02,6A6
05418:  MOVFF  01,6A5
0541C:  MOVFF  00,6A4
....................    delay_ms(10); 
05420:  MOVLW  0A
05422:  MOVLB  7
05424:  MOVWF  x33
05426:  MOVLB  0
05428:  CALL   174A
....................    Ajuste=read_eeprom(21); 
0542C:  MOVFF  FF2,72D
05430:  BCF    FF2.7
05432:  CLRF   FAA
05434:  MOVLW  15
05436:  MOVWF  FA9
05438:  BCF    FA6.6
0543A:  BCF    FA6.7
0543C:  BSF    FA6.0
0543E:  MOVF   FA8,W
05440:  MOVLB  7
05442:  BTFSC  x2D.7
05444:  BSF    FF2.7
05446:  MOVLB  6
05448:  MOVWF  x7C
....................    delay_ms(10); 
0544A:  MOVLW  0A
0544C:  MOVLB  7
0544E:  MOVWF  x33
05450:  MOVLB  0
05452:  CALL   174A
....................    Ajusten=read_eeprom(22); 
05456:  MOVFF  FF2,72D
0545A:  BCF    FF2.7
0545C:  CLRF   FAA
0545E:  MOVLW  16
05460:  MOVWF  FA9
05462:  BCF    FA6.6
05464:  BCF    FA6.7
05466:  BSF    FA6.0
05468:  MOVF   FA8,W
0546A:  MOVLB  7
0546C:  BTFSC  x2D.7
0546E:  BSF    FF2.7
05470:  MOVLB  6
05472:  MOVWF  x7D
....................    delay_ms(10); 
05474:  MOVLW  0A
05476:  MOVLB  7
05478:  MOVWF  x33
0547A:  MOVLB  0
0547C:  CALL   174A
....................    //Desvio=read_eeprom(23); 
....................    MediaMovil=read_eeprom(24); 
05480:  MOVFF  FF2,72D
05484:  BCF    FF2.7
05486:  CLRF   FAA
05488:  MOVLW  18
0548A:  MOVWF  FA9
0548C:  BCF    FA6.6
0548E:  BCF    FA6.7
05490:  BSF    FA6.0
05492:  MOVF   FA8,W
05494:  MOVLB  7
05496:  BTFSC  x2D.7
05498:  BSF    FF2.7
0549A:  MOVLB  6
0549C:  MOVWF  x7E
....................    delay_ms(10); 
0549E:  MOVLW  0A
054A0:  MOVLB  7
054A2:  MOVWF  x33
054A4:  MOVLB  0
054A6:  CALL   174A
....................    Tciclo=read_eeprom(25); 
054AA:  MOVFF  FF2,72D
054AE:  BCF    FF2.7
054B0:  CLRF   FAA
054B2:  MOVLW  19
054B4:  MOVWF  FA9
054B6:  BCF    FA6.6
054B8:  BCF    FA6.7
054BA:  BSF    FA6.0
054BC:  MOVF   FA8,W
054BE:  MOVLB  7
054C0:  BTFSC  x2D.7
054C2:  BSF    FF2.7
054C4:  CLRF   x34
054C6:  MOVWF  x33
054C8:  MOVLB  0
054CA:  CALL   1772
054CE:  MOVFF  03,68F
054D2:  MOVFF  02,68E
054D6:  MOVFF  01,68D
054DA:  MOVFF  00,68C
....................    delay_ms(10); 
054DE:  MOVLW  0A
054E0:  MOVLB  7
054E2:  MOVWF  x33
054E4:  MOVLB  0
054E6:  CALL   174A
....................    Integral=read_eeprom(26); 
054EA:  MOVFF  FF2,72D
054EE:  BCF    FF2.7
054F0:  CLRF   FAA
054F2:  MOVLW  1A
054F4:  MOVWF  FA9
054F6:  BCF    FA6.6
054F8:  BCF    FA6.7
054FA:  BSF    FA6.0
054FC:  MOVF   FA8,W
054FE:  MOVLB  7
05500:  BTFSC  x2D.7
05502:  BSF    FF2.7
05504:  MOVLB  6
05506:  MOVWF  xD4
....................    delay_ms(10); 
05508:  MOVLW  0A
0550A:  MOVLB  7
0550C:  MOVWF  x33
0550E:  MOVLB  0
05510:  CALL   174A
....................    Derivativo=read_eeprom(27); 
05514:  MOVFF  FF2,72D
05518:  BCF    FF2.7
0551A:  CLRF   FAA
0551C:  MOVLW  1B
0551E:  MOVWF  FA9
05520:  BCF    FA6.6
05522:  BCF    FA6.7
05524:  BSF    FA6.0
05526:  MOVF   FA8,W
05528:  MOVLB  7
0552A:  BTFSC  x2D.7
0552C:  BSF    FF2.7
0552E:  MOVLB  6
05530:  MOVWF  xD5
....................    delay_ms(10); 
05532:  MOVLW  0A
05534:  MOVLB  7
05536:  MOVWF  x33
05538:  MOVLB  0
0553A:  CALL   174A
....................    Temporal=read_eeprom(29); 
0553E:  MOVFF  FF2,72D
05542:  BCF    FF2.7
05544:  CLRF   FAA
05546:  MOVLW  1D
05548:  MOVWF  FA9
0554A:  BCF    FA6.6
0554C:  BCF    FA6.7
0554E:  BSF    FA6.0
05550:  MOVF   FA8,W
05552:  MOVLB  7
05554:  BTFSC  x2D.7
05556:  BSF    FF2.7
05558:  CLRF   x34
0555A:  MOVWF  x33
0555C:  MOVLB  0
0555E:  CALL   1772
05562:  MOVFF  03,665
05566:  MOVFF  02,664
0556A:  MOVFF  01,663
0556E:  MOVFF  00,662
....................    Temporal=Temporal/10.0; 
05572:  MOVFF  665,735
05576:  MOVFF  664,734
0557A:  MOVFF  663,733
0557E:  MOVFF  662,732
05582:  MOVLB  7
05584:  CLRF   x39
05586:  CLRF   x38
05588:  MOVLW  20
0558A:  MOVWF  x37
0558C:  MOVLW  82
0558E:  MOVWF  x36
05590:  MOVLB  0
05592:  CALL   17A8
05596:  MOVFF  03,665
0559A:  MOVFF  02,664
0559E:  MOVFF  01,663
055A2:  MOVFF  00,662
....................    delay_ms(10); 
055A6:  MOVLW  0A
055A8:  MOVLB  7
055AA:  MOVWF  x33
055AC:  MOVLB  0
055AE:  CALL   174A
....................    Gain=read_eeprom(28)+Temporal; 
055B2:  MOVFF  FF2,72D
055B6:  BCF    FF2.7
055B8:  CLRF   FAA
055BA:  MOVLW  1C
055BC:  MOVWF  FA9
055BE:  BCF    FA6.6
055C0:  BCF    FA6.7
055C2:  BSF    FA6.0
055C4:  MOVF   FA8,W
055C6:  MOVLB  7
055C8:  BTFSC  x2D.7
055CA:  BSF    FF2.7
055CC:  CLRF   x34
055CE:  MOVWF  x33
055D0:  MOVLB  0
055D2:  CALL   1772
055D6:  BCF    FD8.1
055D8:  MOVFF  03,735
055DC:  MOVFF  02,734
055E0:  MOVFF  01,733
055E4:  MOVFF  00,732
055E8:  MOVFF  665,739
055EC:  MOVFF  664,738
055F0:  MOVFF  663,737
055F4:  MOVFF  662,736
055F8:  CALL   1906
055FC:  MOVFF  03,65D
05600:  MOVFF  02,65C
05604:  MOVFF  01,65B
05608:  MOVFF  00,65A
....................    delay_ms(10); 
0560C:  MOVLW  0A
0560E:  MOVLB  7
05610:  MOVWF  x33
05612:  MOVLB  0
05614:  CALL   174A
....................    R1=make16(read_eeprom(31),read_eeprom(30)); 
05618:  MOVFF  FF2,72D
0561C:  BCF    FF2.7
0561E:  CLRF   FAA
05620:  MOVLW  1F
05622:  MOVWF  FA9
05624:  BCF    FA6.6
05626:  BCF    FA6.7
05628:  BSF    FA6.0
0562A:  MOVF   FA8,W
0562C:  MOVLB  7
0562E:  BTFSC  x2D.7
05630:  BSF    FF2.7
05632:  MOVWF  x2E
05634:  MOVFF  FF2,72F
05638:  BCF    FF2.7
0563A:  CLRF   FAA
0563C:  MOVLW  1E
0563E:  MOVWF  FA9
05640:  BCF    FA6.6
05642:  BCF    FA6.7
05644:  BSF    FA6.0
05646:  MOVF   FA8,W
05648:  BTFSC  x2F.7
0564A:  BSF    FF2.7
0564C:  MOVWF  x30
0564E:  MOVFF  72E,03
05652:  MOVF   x30,W
05654:  MOVWF  x33
05656:  MOVFF  03,734
0565A:  MOVLB  0
0565C:  CALL   1772
05660:  MOVFF  03,687
05664:  MOVFF  02,686
05668:  MOVFF  01,685
0566C:  MOVFF  00,684
....................    delay_ms(10); 
05670:  MOVLW  0A
05672:  MOVLB  7
05674:  MOVWF  x33
05676:  MOVLB  0
05678:  CALL   174A
....................    Temporal=read_eeprom(33); 
0567C:  MOVFF  FF2,72D
05680:  BCF    FF2.7
05682:  CLRF   FAA
05684:  MOVLW  21
05686:  MOVWF  FA9
05688:  BCF    FA6.6
0568A:  BCF    FA6.7
0568C:  BSF    FA6.0
0568E:  MOVF   FA8,W
05690:  MOVLB  7
05692:  BTFSC  x2D.7
05694:  BSF    FF2.7
05696:  CLRF   x34
05698:  MOVWF  x33
0569A:  MOVLB  0
0569C:  CALL   1772
056A0:  MOVFF  03,665
056A4:  MOVFF  02,664
056A8:  MOVFF  01,663
056AC:  MOVFF  00,662
....................    Temporal=Temporal/10.0; 
056B0:  MOVFF  665,735
056B4:  MOVFF  664,734
056B8:  MOVFF  663,733
056BC:  MOVFF  662,732
056C0:  MOVLB  7
056C2:  CLRF   x39
056C4:  CLRF   x38
056C6:  MOVLW  20
056C8:  MOVWF  x37
056CA:  MOVLW  82
056CC:  MOVWF  x36
056CE:  MOVLB  0
056D0:  CALL   17A8
056D4:  MOVFF  03,665
056D8:  MOVFF  02,664
056DC:  MOVFF  01,663
056E0:  MOVFF  00,662
....................    delay_ms(10); 
056E4:  MOVLW  0A
056E6:  MOVLB  7
056E8:  MOVWF  x33
056EA:  MOVLB  0
056EC:  CALL   174A
....................    RPT100=read_eeprom(32)+Temporal; 
056F0:  MOVFF  FF2,72D
056F4:  BCF    FF2.7
056F6:  CLRF   FAA
056F8:  MOVLW  20
056FA:  MOVWF  FA9
056FC:  BCF    FA6.6
056FE:  BCF    FA6.7
05700:  BSF    FA6.0
05702:  MOVF   FA8,W
05704:  MOVLB  7
05706:  BTFSC  x2D.7
05708:  BSF    FF2.7
0570A:  CLRF   x34
0570C:  MOVWF  x33
0570E:  MOVLB  0
05710:  CALL   1772
05714:  BCF    FD8.1
05716:  MOVFF  03,735
0571A:  MOVFF  02,734
0571E:  MOVFF  01,733
05722:  MOVFF  00,732
05726:  MOVFF  665,739
0572A:  MOVFF  664,738
0572E:  MOVFF  663,737
05732:  MOVFF  662,736
05736:  CALL   1906
0573A:  MOVFF  03,661
0573E:  MOVFF  02,660
05742:  MOVFF  01,65F
05746:  MOVFF  00,65E
....................    delay_ms(10); 
0574A:  MOVLW  0A
0574C:  MOVLB  7
0574E:  MOVWF  x33
05750:  MOVLB  0
05752:  CALL   174A
....................    CiclosL=read_eeprom(37); 
05756:  MOVFF  FF2,72D
0575A:  BCF    FF2.7
0575C:  CLRF   FAA
0575E:  MOVLW  25
05760:  MOVWF  FA9
05762:  BCF    FA6.6
05764:  BCF    FA6.7
05766:  BSF    FA6.0
05768:  MOVF   FA8,W
0576A:  MOVLB  7
0576C:  BTFSC  x2D.7
0576E:  BSF    FF2.7
05770:  MOVLB  6
05772:  MOVWF  xE1
....................    delay_ms(10); 
05774:  MOVLW  0A
05776:  MOVLB  7
05778:  MOVWF  x33
0577A:  MOVLB  0
0577C:  CALL   174A
....................    CiclosH=read_eeprom(38); 
05780:  MOVFF  FF2,72D
05784:  BCF    FF2.7
05786:  CLRF   FAA
05788:  MOVLW  26
0578A:  MOVWF  FA9
0578C:  BCF    FA6.6
0578E:  BCF    FA6.7
05790:  BSF    FA6.0
05792:  MOVF   FA8,W
05794:  MOVLB  7
05796:  BTFSC  x2D.7
05798:  BSF    FF2.7
0579A:  MOVLB  6
0579C:  MOVWF  xE2
....................    delay_ms(10); 
0579E:  MOVLW  0A
057A0:  MOVLB  7
057A2:  MOVWF  x33
057A4:  MOVLB  0
057A6:  CALL   174A
....................    Ciclos=make16(CiclosH,CiclosL); 
057AA:  MOVFF  6E2,6F6
057AE:  MOVFF  6E1,6F5
....................    delay_ms(10); 
057B2:  MOVLW  0A
057B4:  MOVLB  7
057B6:  MOVWF  x33
057B8:  MOVLB  0
057BA:  CALL   174A
....................    TTrampa=read_eeprom(39); 
057BE:  MOVFF  FF2,72D
057C2:  BCF    FF2.7
057C4:  CLRF   FAA
057C6:  MOVLW  27
057C8:  MOVWF  FA9
057CA:  BCF    FA6.6
057CC:  BCF    FA6.7
057CE:  BSF    FA6.0
057D0:  MOVF   FA8,W
057D2:  MOVLB  7
057D4:  BTFSC  x2D.7
057D6:  BSF    FF2.7
057D8:  MOVLB  6
057DA:  MOVWF  x7F
....................     
....................    if(Testerilizacionp[0]>9)Testerilizacionp[0]=0; 
057DC:  MOVLB  4
057DE:  BTFSC  x6E.7
057E0:  BRA    57EA
057E2:  MOVF   x6E,W
057E4:  SUBLW  09
057E6:  BTFSS  FD8.0
057E8:  CLRF   x6E
....................    if(Testerilizacionp[1]>9)Testerilizacionp[1]=0; 
057EA:  BTFSC  x6F.7
057EC:  BRA    57F6
057EE:  MOVF   x6F,W
057F0:  SUBLW  09
057F2:  BTFSS  FD8.0
057F4:  CLRF   x6F
....................    if(Testerilizacionp[2]>9)Testerilizacionp[2]=0; 
057F6:  BTFSC  x70.7
057F8:  BRA    5802
057FA:  MOVF   x70,W
057FC:  SUBLW  09
057FE:  BTFSS  FD8.0
05800:  CLRF   x70
....................    if(Testerilizacionp[3]>9)Testerilizacionp[3]=0; 
05802:  BTFSC  x71.7
05804:  BRA    580E
05806:  MOVF   x71,W
05808:  SUBLW  09
0580A:  BTFSS  FD8.0
0580C:  CLRF   x71
....................    if(Password[0]>9)Password[0]=0; 
0580E:  MOVLB  6
05810:  BTFSC  xFD.7
05812:  BRA    581C
05814:  MOVF   xFD,W
05816:  SUBLW  09
05818:  BTFSS  FD8.0
0581A:  CLRF   xFD
....................    if(Password[1]>9)Password[1]=0; 
0581C:  BTFSC  xFE.7
0581E:  BRA    5828
05820:  MOVF   xFE,W
05822:  SUBLW  09
05824:  BTFSS  FD8.0
05826:  CLRF   xFE
....................    if(Password[2]>9)Password[2]=0; 
05828:  BTFSC  xFF.7
0582A:  BRA    5834
0582C:  MOVF   xFF,W
0582E:  SUBLW  09
05830:  BTFSS  FD8.0
05832:  CLRF   xFF
....................    if(Password[3]>9)Password[3]=0; 
05834:  MOVLB  7
05836:  BTFSC  x00.7
05838:  BRA    5842
0583A:  MOVF   x00,W
0583C:  SUBLW  09
0583E:  BTFSS  FD8.0
05840:  CLRF   x00
....................    if(Ganancia>20.0)Ganancia=15.0; 
05842:  CLRF   x34
05844:  CLRF   x33
05846:  MOVLW  20
05848:  MOVWF  x32
0584A:  MOVLW  83
0584C:  MOVWF  x31
0584E:  MOVFF  6A7,738
05852:  MOVFF  6A6,737
05856:  MOVFF  6A5,736
0585A:  MOVFF  6A4,735
0585E:  MOVLB  0
05860:  CALL   1B7E
05864:  BNC   5874
05866:  MOVLB  6
05868:  CLRF   xA7
0586A:  CLRF   xA6
0586C:  MOVLW  70
0586E:  MOVWF  xA5
05870:  MOVLW  82
05872:  MOVWF  xA4
....................    if(Integral>10.0)Integral=1.0; 
05874:  MOVLB  7
05876:  CLRF   x34
05878:  MOVFF  6D4,733
0587C:  MOVLB  0
0587E:  CALL   1772
05882:  MOVLB  7
05884:  CLRF   x34
05886:  CLRF   x33
05888:  MOVLW  20
0588A:  MOVWF  x32
0588C:  MOVLW  82
0588E:  MOVWF  x31
05890:  MOVFF  03,738
05894:  MOVFF  02,737
05898:  MOVFF  01,736
0589C:  MOVFF  00,735
058A0:  MOVLB  0
058A2:  CALL   1B7E
058A6:  BNC   58AE
058A8:  MOVLW  01
058AA:  MOVLB  6
058AC:  MOVWF  xD4
....................    if(Derivativo>90.0)Derivativo=15.0; 
058AE:  MOVLB  7
058B0:  CLRF   x34
058B2:  MOVFF  6D5,733
058B6:  MOVLB  0
058B8:  CALL   1772
058BC:  MOVLB  7
058BE:  CLRF   x34
058C0:  CLRF   x33
058C2:  MOVLW  34
058C4:  MOVWF  x32
058C6:  MOVLW  85
058C8:  MOVWF  x31
058CA:  MOVFF  03,738
058CE:  MOVFF  02,737
058D2:  MOVFF  01,736
058D6:  MOVFF  00,735
058DA:  MOVLB  0
058DC:  CALL   1B7E
058E0:  BNC   58E8
058E2:  MOVLW  0F
058E4:  MOVLB  6
058E6:  MOVWF  xD5
....................    if(Tciclo>10)Tciclo=10; 
058E8:  MOVLB  7
058EA:  CLRF   x34
058EC:  CLRF   x33
058EE:  MOVLW  20
058F0:  MOVWF  x32
058F2:  MOVLW  82
058F4:  MOVWF  x31
058F6:  MOVFF  68F,738
058FA:  MOVFF  68E,737
058FE:  MOVFF  68D,736
05902:  MOVFF  68C,735
05906:  MOVLB  0
05908:  CALL   1B7E
0590C:  BNC   591C
0590E:  MOVLB  6
05910:  CLRF   x8F
05912:  CLRF   x8E
05914:  MOVLW  20
05916:  MOVWF  x8D
05918:  MOVLW  82
0591A:  MOVWF  x8C
....................    if(Ajuste>50)Ajuste=0; 
0591C:  MOVLB  6
0591E:  MOVF   x7C,W
05920:  SUBLW  32
05922:  BTFSS  FD8.0
05924:  CLRF   x7C
....................    if(Ajusten>50)Ajusten=0; 
05926:  MOVF   x7D,W
05928:  SUBLW  32
0592A:  BTFSS  FD8.0
0592C:  CLRF   x7D
....................    if(MediaMovil>80)MediaMovil=80; 
0592E:  MOVF   x7E,W
05930:  SUBLW  50
05932:  BC    5938
05934:  MOVLW  50
05936:  MOVWF  x7E
....................    if(Gain>50)Gain=40.2; 
05938:  MOVLB  7
0593A:  CLRF   x34
0593C:  CLRF   x33
0593E:  MOVLW  48
05940:  MOVWF  x32
05942:  MOVLW  84
05944:  MOVWF  x31
05946:  MOVFF  65D,738
0594A:  MOVFF  65C,737
0594E:  MOVFF  65B,736
05952:  MOVFF  65A,735
05956:  MOVLB  0
05958:  CALL   1B7E
0595C:  BNC   5970
0595E:  MOVLW  CD
05960:  MOVLB  6
05962:  MOVWF  x5D
05964:  MOVLW  CC
05966:  MOVWF  x5C
05968:  MOVLW  20
0596A:  MOVWF  x5B
0596C:  MOVLW  84
0596E:  MOVWF  x5A
....................    if(R1>6400)R1=6200; 
05970:  MOVLB  7
05972:  CLRF   x34
05974:  CLRF   x33
05976:  MOVLW  48
05978:  MOVWF  x32
0597A:  MOVLW  8B
0597C:  MOVWF  x31
0597E:  MOVFF  687,738
05982:  MOVFF  686,737
05986:  MOVFF  685,736
0598A:  MOVFF  684,735
0598E:  MOVLB  0
05990:  CALL   1B7E
05994:  BNC   59A6
05996:  MOVLB  6
05998:  CLRF   x87
0599A:  MOVLW  C0
0599C:  MOVWF  x86
0599E:  MOVLW  41
059A0:  MOVWF  x85
059A2:  MOVLW  8B
059A4:  MOVWF  x84
....................    if(RPT100>2.0)RPT100=0.5; 
059A6:  MOVLB  7
059A8:  CLRF   x34
059AA:  CLRF   x33
059AC:  CLRF   x32
059AE:  MOVLW  80
059B0:  MOVWF  x31
059B2:  MOVFF  661,738
059B6:  MOVFF  660,737
059BA:  MOVFF  65F,736
059BE:  MOVFF  65E,735
059C2:  MOVLB  0
059C4:  CALL   1B7E
059C8:  BNC   59D6
059CA:  MOVLB  6
059CC:  CLRF   x61
059CE:  CLRF   x60
059D0:  CLRF   x5F
059D2:  MOVLW  7E
059D4:  MOVWF  x5E
....................    if(Ciclos>60000)Ciclos=0; 
059D6:  MOVLB  6
059D8:  MOVF   xF6,W
059DA:  SUBLW  E9
059DC:  BC    59EC
059DE:  XORLW  FF
059E0:  BNZ   59E8
059E2:  MOVF   xF5,W
059E4:  SUBLW  60
059E6:  BC    59EC
059E8:  CLRF   xF6
059EA:  CLRF   xF5
....................    if(TTrampa>100)TTrampa=80; 
059EC:  MOVF   x7F,W
059EE:  SUBLW  64
059F0:  BC    59F6
059F2:  MOVLW  50
059F4:  MOVWF  x7F
....................     
.................... //Mensaje Bienvenida//-----------------------------    
....................    glcd_init(ON);             //Inicializa la glcd 
059F6:  MOVLW  01
059F8:  MOVLB  7
059FA:  MOVWF  x2D
059FC:  MOVLB  0
059FE:  CALL   1D40
....................    glcd_fillScreen(OFF);      //Limpia la pantalla 
05A02:  MOVLB  7
05A04:  CLRF   x2E
05A06:  MOVLB  0
05A08:  CALL   1C2E
....................    strcpy(Menus.Letra,"JP Inglobal"); 
05A0C:  MOVLW  07
05A0E:  MOVWF  FEA
05A10:  MOVLW  09
05A12:  MOVWF  FE9
05A14:  MOVFF  FF2,72D
05A18:  BCF    FF2.7
05A1A:  MOVLW  00
05A1C:  CALL   0756
05A20:  TBLRD*-
05A22:  TBLRD*+
05A24:  MOVF   FF5,W
05A26:  MOVWF  FEE
05A28:  IORLW  00
05A2A:  BNZ   5A22
05A2C:  MOVLB  7
05A2E:  BTFSC  x2D.7
05A30:  BSF    FF2.7
....................    displayMenu(Menus.Letra,0,0,0,2);      
05A32:  MOVLW  07
05A34:  MOVWF  x2E
05A36:  MOVLW  09
05A38:  MOVWF  x2D
05A3A:  CLRF   x2F
05A3C:  CLRF   x30
05A3E:  CLRF   x31
05A40:  MOVLW  02
05A42:  MOVWF  x32
05A44:  MOVLB  0
05A46:  CALL   225C
....................    strcpy(Menus.Letra," Autoclave Horizontal"); 
05A4A:  MOVLW  07
05A4C:  MOVWF  FEA
05A4E:  MOVLW  09
05A50:  MOVWF  FE9
05A52:  MOVFF  FF2,72D
05A56:  BCF    FF2.7
05A58:  MOVLW  00
05A5A:  CALL   0780
05A5E:  TBLRD*-
05A60:  TBLRD*+
05A62:  MOVF   FF5,W
05A64:  MOVWF  FEE
05A66:  IORLW  00
05A68:  BNZ   5A60
05A6A:  MOVLB  7
05A6C:  BTFSC  x2D.7
05A6E:  BSF    FF2.7
....................    displayMenu(Menus.Letra,0,20,0,1);        
05A70:  MOVLW  07
05A72:  MOVWF  x2E
05A74:  MOVLW  09
05A76:  MOVWF  x2D
05A78:  CLRF   x2F
05A7A:  MOVLW  14
05A7C:  MOVWF  x30
05A7E:  CLRF   x31
05A80:  MOVLW  01
05A82:  MOVWF  x32
05A84:  MOVLB  0
05A86:  CALL   225C
....................    strcpy(Menus.Letra," 23 Litros  "); 
05A8A:  MOVLW  07
05A8C:  MOVWF  FEA
05A8E:  MOVLW  09
05A90:  MOVWF  FE9
05A92:  MOVFF  FF2,72D
05A96:  BCF    FF2.7
05A98:  MOVLW  00
05A9A:  CALL   07B4
05A9E:  TBLRD*-
05AA0:  TBLRD*+
05AA2:  MOVF   FF5,W
05AA4:  MOVWF  FEE
05AA6:  IORLW  00
05AA8:  BNZ   5AA0
05AAA:  MOVLB  7
05AAC:  BTFSC  x2D.7
05AAE:  BSF    FF2.7
....................    displayMenu(Menus.Letra,0,35,0,2); 
05AB0:  MOVLW  07
05AB2:  MOVWF  x2E
05AB4:  MOVLW  09
05AB6:  MOVWF  x2D
05AB8:  CLRF   x2F
05ABA:  MOVLW  23
05ABC:  MOVWF  x30
05ABE:  CLRF   x31
05AC0:  MOVLW  02
05AC2:  MOVWF  x32
05AC4:  MOVLB  0
05AC6:  CALL   225C
....................    delay_ms(3000); 
05ACA:  MOVLW  0C
05ACC:  MOVLB  7
05ACE:  MOVWF  x2D
05AD0:  MOVLW  FA
05AD2:  MOVWF  x33
05AD4:  MOVLB  0
05AD6:  CALL   174A
05ADA:  MOVLB  7
05ADC:  DECFSZ x2D,F
05ADE:  BRA    5AD0
....................    glcd_fillScreen(OFF);      //Limpia la pantalla 
05AE0:  CLRF   x2E
05AE2:  MOVLB  0
05AE4:  CALL   1C2E
....................    displayContrasena(Contrasena[0],20,30,1); 
05AE8:  MOVFF  6F9,72F
05AEC:  MOVLW  14
05AEE:  MOVLB  7
05AF0:  MOVWF  x30
05AF2:  MOVLW  1E
05AF4:  MOVWF  x31
05AF6:  MOVLW  01
05AF8:  MOVWF  x32
05AFA:  MOVLB  0
05AFC:  CALL   2482
....................    displayContrasena(Contrasena[1],40,30,0); 
05B00:  MOVFF  6FA,72F
05B04:  MOVLW  28
05B06:  MOVLB  7
05B08:  MOVWF  x30
05B0A:  MOVLW  1E
05B0C:  MOVWF  x31
05B0E:  CLRF   x32
05B10:  MOVLB  0
05B12:  CALL   2482
....................    displayContrasena(Contrasena[2],60,30,0); 
05B16:  MOVFF  6FB,72F
05B1A:  MOVLW  3C
05B1C:  MOVLB  7
05B1E:  MOVWF  x30
05B20:  MOVLW  1E
05B22:  MOVWF  x31
05B24:  CLRF   x32
05B26:  MOVLB  0
05B28:  CALL   2482
....................    displayContrasena(Contrasena[3],80,30,0); 
05B2C:  MOVFF  6FC,72F
05B30:  MOVLW  50
05B32:  MOVLB  7
05B34:  MOVWF  x30
05B36:  MOVLW  1E
05B38:  MOVWF  x31
05B3A:  CLRF   x32
05B3C:  MOVLB  0
05B3E:  CALL   2482
....................     
....................    if(UP && DOWN)// && RIGHT && LEFT) 
05B42:  BSF    F92.4
05B44:  BTFSC  F80.4
05B46:  BRA    5BD2
05B48:  BSF    F92.5
05B4A:  BTFSC  F80.5
05B4C:  BRA    5BD2
....................    { 
....................       delay_ms(500); 
05B4E:  MOVLW  02
05B50:  MOVLB  7
05B52:  MOVWF  x2D
05B54:  MOVLW  FA
05B56:  MOVWF  x33
05B58:  MOVLB  0
05B5A:  CALL   174A
05B5E:  MOVLB  7
05B60:  DECFSZ x2D,F
05B62:  BRA    5B54
....................       glcd_fillScreen(OFF); 
05B64:  CLRF   x2E
05B66:  MOVLB  0
05B68:  CALL   1C2E
....................       strcpy(Menus.Letra,"Cargando.."); 
05B6C:  MOVLW  07
05B6E:  MOVWF  FEA
05B70:  MOVLW  09
05B72:  MOVWF  FE9
05B74:  MOVFF  FF2,72D
05B78:  BCF    FF2.7
05B7A:  MOVLW  00
05B7C:  CALL   07E0
05B80:  TBLRD*-
05B82:  TBLRD*+
05B84:  MOVF   FF5,W
05B86:  MOVWF  FEE
05B88:  IORLW  00
05B8A:  BNZ   5B82
05B8C:  MOVLB  7
05B8E:  BTFSC  x2D.7
05B90:  BSF    FF2.7
....................       displayMenu(Menus.Letra,0,30,1,1); 
05B92:  MOVLW  07
05B94:  MOVWF  x2E
05B96:  MOVLW  09
05B98:  MOVWF  x2D
05B9A:  CLRF   x2F
05B9C:  MOVLW  1E
05B9E:  MOVWF  x30
05BA0:  MOVLW  01
05BA2:  MOVWF  x31
05BA4:  MOVWF  x32
05BA6:  MOVLB  0
05BA8:  CALL   225C
....................       delay_ms(2000); 
05BAC:  MOVLW  08
05BAE:  MOVLB  7
05BB0:  MOVWF  x2D
05BB2:  MOVLW  FA
05BB4:  MOVWF  x33
05BB6:  MOVLB  0
05BB8:  CALL   174A
05BBC:  MOVLB  7
05BBE:  DECFSZ x2D,F
05BC0:  BRA    5BB2
....................       Menu=100; 
05BC2:  MOVLW  64
05BC4:  MOVLB  6
05BC6:  MOVWF  xDE
....................       glcd_fillScreen(OFF); 
05BC8:  MOVLB  7
05BCA:  CLRF   x2E
05BCC:  MOVLB  0
05BCE:  CALL   1C2E
....................    } 
....................     
....................    for(i=0;i<MediaMovil;i++){ 
05BD2:  MOVLB  6
05BD4:  CLRF   xE0
05BD6:  MOVF   x7E,W
05BD8:  SUBWF  xE0,W
05BDA:  BC    5BFC
....................       Temperatura=LeerPT100(MediaMovil); 
05BDC:  MOVFF  67E,72D
05BE0:  MOVLB  0
05BE2:  CALL   26A8
05BE6:  MOVFF  03,6C3
05BEA:  MOVFF  02,6C2
05BEE:  MOVFF  01,6C1
05BF2:  MOVFF  00,6C0
....................    } 
05BF6:  MOVLB  6
05BF8:  INCF   xE0,F
05BFA:  BRA    5BD6
....................     
....................    if(RIGHT){ 
05BFC:  BSF    F96.0
05BFE:  BTFSC  F84.0
05C00:  BRA    5C88
....................       delay_ms(500); 
05C02:  MOVLW  02
05C04:  MOVLB  7
05C06:  MOVWF  x2D
05C08:  MOVLW  FA
05C0A:  MOVWF  x33
05C0C:  MOVLB  0
05C0E:  CALL   174A
05C12:  MOVLB  7
05C14:  DECFSZ x2D,F
05C16:  BRA    5C08
....................       glcd_fillScreen(OFF); 
05C18:  CLRF   x2E
05C1A:  MOVLB  0
05C1C:  CALL   1C2E
....................       strcpy(Menus.Letra,"Cargando.."); 
05C20:  MOVLW  07
05C22:  MOVWF  FEA
05C24:  MOVLW  09
05C26:  MOVWF  FE9
05C28:  MOVFF  FF2,72D
05C2C:  BCF    FF2.7
05C2E:  MOVLW  00
05C30:  CALL   07E0
05C34:  TBLRD*-
05C36:  TBLRD*+
05C38:  MOVF   FF5,W
05C3A:  MOVWF  FEE
05C3C:  IORLW  00
05C3E:  BNZ   5C36
05C40:  MOVLB  7
05C42:  BTFSC  x2D.7
05C44:  BSF    FF2.7
....................       displayMenu(Menus.Letra,0,30,1,1); 
05C46:  MOVLW  07
05C48:  MOVWF  x2E
05C4A:  MOVLW  09
05C4C:  MOVWF  x2D
05C4E:  CLRF   x2F
05C50:  MOVLW  1E
05C52:  MOVWF  x30
05C54:  MOVLW  01
05C56:  MOVWF  x31
05C58:  MOVWF  x32
05C5A:  MOVLB  0
05C5C:  CALL   225C
....................       delay_ms(2000); 
05C60:  MOVLW  08
05C62:  MOVLB  7
05C64:  MOVWF  x2D
05C66:  MOVLW  FA
05C68:  MOVWF  x33
05C6A:  MOVLB  0
05C6C:  CALL   174A
05C70:  MOVLB  7
05C72:  DECFSZ x2D,F
05C74:  BRA    5C66
....................       Menu=211; 
05C76:  MOVLW  D3
05C78:  MOVLB  6
05C7A:  MOVWF  xDE
....................       glcd_fillScreen(OFF); 
05C7C:  MOVLB  7
05C7E:  CLRF   x2E
05C80:  MOVLB  0
05C82:  CALL   1C2E
05C86:  MOVLB  6
....................    } 
....................     
....................    if(LEFT){ 
05C88:  BSF    F96.1
05C8A:  BTFSC  F84.1
05C8C:  BRA    5D12
....................       delay_ms(500); 
05C8E:  MOVLW  02
05C90:  MOVLB  7
05C92:  MOVWF  x2D
05C94:  MOVLW  FA
05C96:  MOVWF  x33
05C98:  MOVLB  0
05C9A:  CALL   174A
05C9E:  MOVLB  7
05CA0:  DECFSZ x2D,F
05CA2:  BRA    5C94
....................       glcd_fillScreen(OFF); 
05CA4:  CLRF   x2E
05CA6:  MOVLB  0
05CA8:  CALL   1C2E
....................       strcpy(Menus.Letra,"Cargando.."); 
05CAC:  MOVLW  07
05CAE:  MOVWF  FEA
05CB0:  MOVLW  09
05CB2:  MOVWF  FE9
05CB4:  MOVFF  FF2,72D
05CB8:  BCF    FF2.7
05CBA:  MOVLW  00
05CBC:  CALL   07E0
05CC0:  TBLRD*-
05CC2:  TBLRD*+
05CC4:  MOVF   FF5,W
05CC6:  MOVWF  FEE
05CC8:  IORLW  00
05CCA:  BNZ   5CC2
05CCC:  MOVLB  7
05CCE:  BTFSC  x2D.7
05CD0:  BSF    FF2.7
....................       displayMenu(Menus.Letra,0,30,1,1); 
05CD2:  MOVLW  07
05CD4:  MOVWF  x2E
05CD6:  MOVLW  09
05CD8:  MOVWF  x2D
05CDA:  CLRF   x2F
05CDC:  MOVLW  1E
05CDE:  MOVWF  x30
05CE0:  MOVLW  01
05CE2:  MOVWF  x31
05CE4:  MOVWF  x32
05CE6:  MOVLB  0
05CE8:  CALL   225C
....................       delay_ms(2000); 
05CEC:  MOVLW  08
05CEE:  MOVLB  7
05CF0:  MOVWF  x2D
05CF2:  MOVLW  FA
05CF4:  MOVWF  x33
05CF6:  MOVLB  0
05CF8:  CALL   174A
05CFC:  MOVLB  7
05CFE:  DECFSZ x2D,F
05D00:  BRA    5CF2
....................       Menu=200; 
05D02:  MOVLW  C8
05D04:  MOVLB  6
05D06:  MOVWF  xDE
....................       glcd_fillScreen(OFF); 
05D08:  MOVLB  7
05D0A:  CLRF   x2E
05D0C:  MOVLB  0
05D0E:  CALL   1C2E
....................    } 
....................     
....................    if(Temperatura>60)TTrampa=TTrampa+5; 
05D12:  MOVLB  7
05D14:  CLRF   x34
05D16:  CLRF   x33
05D18:  MOVLW  70
05D1A:  MOVWF  x32
05D1C:  MOVLW  84
05D1E:  MOVWF  x31
05D20:  MOVFF  6C3,738
05D24:  MOVFF  6C2,737
05D28:  MOVFF  6C1,736
05D2C:  MOVFF  6C0,735
05D30:  MOVLB  0
05D32:  CALL   1B7E
05D36:  BNC   5D40
05D38:  MOVLW  05
05D3A:  MOVLB  6
05D3C:  ADDWF  x7F,F
05D3E:  MOVLB  0
....................     
....................    while(true) 
....................    { 
....................       Envio_Esclavos(); 
05D40:  CALL   2C82
....................       delay_ms(1); 
05D44:  MOVLW  01
05D46:  MOVLB  7
05D48:  MOVWF  x33
05D4A:  MOVLB  0
05D4C:  CALL   174A
....................       Lectura_Esclavos(); 
05D50:  CALL   31E0
....................  
....................       // Monitoreo Nivel de Agua//-------------------------------------- 
....................             if(!LOW){//Si no sensa agua en el nivel alto y no se ha llenado el calderin          
05D54:  BSF    F94.1
05D56:  BTFSC  F82.1
05D58:  BRA    5D68
....................                TiempoSensadoNivel=0; 
05D5A:  MOVLB  4
05D5C:  CLRF   x65
05D5E:  CLRF   x64
....................                Controlando=0;    
05D60:  MOVLB  6
05D62:  CLRF   xDD
....................             } else{ 
05D64:  BRA    5D80
05D66:  MOVLB  0
....................                if(TiempoSensadoNivel>2) 
05D68:  MOVLB  4
05D6A:  MOVF   x65,F
05D6C:  BNZ   5D74
05D6E:  MOVF   x64,W
05D70:  SUBLW  02
05D72:  BC    5D7C
....................                { 
....................                   SensadoNivel=OFF; 
05D74:  BCF    x5E.3
....................                   CalderinLleno=ON; 
05D76:  BSF    x5D.7
....................                   IniciaLlenado=OFF;                   
05D78:  BCF    x5D.6
....................                }else{ 
05D7A:  BRA    5D7E
....................                   SensadoNivel=ON; 
05D7C:  BSF    x5E.3
05D7E:  MOVLB  6
....................                } 
....................             } 
....................  
.................... // Tiempo de Muestreo//-------------------------------------- 
....................       if(tiempos3>=20){ 
05D80:  MOVF   xEA,F
05D82:  BNZ   5D8A
05D84:  MOVF   xE9,W
05D86:  SUBLW  13
05D88:  BC    5DFA
....................          Temperatura=LeerPt100(MediaMovil); 
05D8A:  MOVFF  67E,72D
05D8E:  MOVLB  0
05D90:  CALL   26A8
05D94:  MOVFF  03,6C3
05D98:  MOVFF  02,6C2
05D9C:  MOVFF  01,6C1
05DA0:  MOVFF  00,6C0
....................          PresionCamara=Leer_Sensor_Presion_Camara(5); 
05DA4:  MOVLW  05
05DA6:  MOVLB  7
05DA8:  MOVWF  x2D
05DAA:  MOVLB  0
05DAC:  GOTO   32AA
05DB0:  MOVFF  03,730
05DB4:  MOVFF  02,72F
05DB8:  MOVFF  01,72E
05DBC:  MOVFF  00,72D
05DC0:  CALL   2A58
05DC4:  MOVFF  02,6F2
05DC8:  MOVFF  01,6F1
....................          PresionPreCamara=Leer_Sensor_Presion_PreCamara(5); 
05DCC:  MOVLW  05
05DCE:  MOVLB  7
05DD0:  MOVWF  x2D
05DD2:  MOVLB  0
05DD4:  GOTO   34A0
05DD8:  MOVFF  03,730
05DDC:  MOVFF  02,72F
05DE0:  MOVFF  01,72E
05DE4:  MOVFF  00,72D
05DE8:  CALL   2A58
05DEC:  MOVFF  02,6F4
05DF0:  MOVFF  01,6F3
....................          tiempos3=0; 
05DF4:  MOVLB  6
05DF6:  CLRF   xEA
05DF8:  CLRF   xE9
....................       } 
....................        
.................... // Monitoreo Parada Emergencia//--------------------------------------       
....................       if(!STOP && !IniciaCiclo && !PruebaEstados){ 
05DFA:  BSF    F93.6
05DFC:  BTFSS  F81.6
05DFE:  BRA    5EC2
05E00:  MOVLB  4
05E02:  BTFSS  x5E.0
05E04:  BRA    5E0A
05E06:  MOVLB  6
05E08:  BRA    5EC2
05E0A:  BTFSS  x5F.1
05E0C:  BRA    5E12
05E0E:  MOVLB  6
05E10:  BRA    5EC2
....................          if(!disp_Stop) 
05E12:  MOVLB  6
05E14:  BTFSC  xDA.5
05E16:  BRA    5E2A
....................          { 
....................             glcd_fillScreen(OFF);disp_Stop=1;Menu=255; 
05E18:  MOVLB  7
05E1A:  CLRF   x2E
05E1C:  MOVLB  0
05E1E:  CALL   1C2E
05E22:  MOVLB  6
05E24:  BSF    xDA.5
05E26:  MOVLW  FF
05E28:  MOVWF  xDE
....................          } 
....................          Controlando=0; 
05E2A:  CLRF   xDD
....................          Desfogue_on; 
05E2C:  BCF    F8B.5
05E2E:  BCF    F94.5
....................          AguaIn_off; 
05E30:  BSF    F8B.6
05E32:  BCF    F94.6
....................          SSR_off; 
05E34:  BSF    F8B.2
05E36:  BCF    F94.2
....................          DesfogueSuave=OFF; 
05E38:  MOVLB  4
05E3A:  BCF    x5E.5
....................          strcpy(Menus.Letra,"  !Parada!");displayMenu(Menus.Letra,0,10,0,2); 
05E3C:  MOVLW  07
05E3E:  MOVWF  FEA
05E40:  MOVLW  09
05E42:  MOVWF  FE9
05E44:  MOVFF  FF2,72D
05E48:  BCF    FF2.7
05E4A:  MOVLW  00
05E4C:  MOVLB  0
05E4E:  CALL   080A
05E52:  TBLRD*-
05E54:  TBLRD*+
05E56:  MOVF   FF5,W
05E58:  MOVWF  FEE
05E5A:  IORLW  00
05E5C:  BNZ   5E54
05E5E:  MOVLB  7
05E60:  BTFSC  x2D.7
05E62:  BSF    FF2.7
05E64:  MOVLW  07
05E66:  MOVWF  x2E
05E68:  MOVLW  09
05E6A:  MOVWF  x2D
05E6C:  CLRF   x2F
05E6E:  MOVLW  0A
05E70:  MOVWF  x30
05E72:  CLRF   x31
05E74:  MOVLW  02
05E76:  MOVWF  x32
05E78:  MOVLB  0
05E7A:  CALL   225C
....................          strcpy(Menus.Letra," !Activada!");displayMenu(Menus.Letra,0,30,0,2); 
05E7E:  MOVLW  07
05E80:  MOVWF  FEA
05E82:  MOVLW  09
05E84:  MOVWF  FE9
05E86:  MOVFF  FF2,72D
05E8A:  BCF    FF2.7
05E8C:  MOVLW  00
05E8E:  CALL   0834
05E92:  TBLRD*-
05E94:  TBLRD*+
05E96:  MOVF   FF5,W
05E98:  MOVWF  FEE
05E9A:  IORLW  00
05E9C:  BNZ   5E94
05E9E:  MOVLB  7
05EA0:  BTFSC  x2D.7
05EA2:  BSF    FF2.7
05EA4:  MOVLW  07
05EA6:  MOVWF  x2E
05EA8:  MOVLW  09
05EAA:  MOVWF  x2D
05EAC:  CLRF   x2F
05EAE:  MOVLW  1E
05EB0:  MOVWF  x30
05EB2:  CLRF   x31
05EB4:  MOVLW  02
05EB6:  MOVWF  x32
05EB8:  MOVLB  0
05EBA:  CALL   225C
....................       }else{ 
05EBE:  BRA    5ECA
05EC0:  MOVLB  6
....................          if(disp_Stop){ 
05EC2:  BTFSS  xDA.5
05EC4:  BRA    5EC8
....................             reset_cpu(); 
05EC6:  RESET
05EC8:  MOVLB  0
....................          } 
....................       } 
....................        
....................       glcd_update(); 
05ECA:  CALL   1C88
....................        
....................       if(UP || DOWN || RIGHT || LEFT) 
05ECE:  BSF    F92.4
05ED0:  BTFSS  F80.4
05ED2:  BRA    5EE6
05ED4:  BSF    F92.5
05ED6:  BTFSS  F80.5
05ED8:  BRA    5EE6
05EDA:  BSF    F96.0
05EDC:  BTFSS  F84.0
05EDE:  BRA    5EE6
05EE0:  BSF    F96.1
05EE2:  BTFSC  F84.1
05EE4:  BRA    5EEE
....................       { 
....................          tinicio=0; 
05EE6:  MOVLB  6
05EE8:  CLRF   xF0
05EEA:  CLRF   xEF
05EEC:  MOVLB  0
....................       } 
....................        
....................       while(tinicio>=14400) 
....................       { 
05EEE:  MOVLB  6
05EF0:  MOVF   xF0,W
05EF2:  SUBLW  37
05EF4:  BC    5F12
05EF6:  XORLW  FF
05EF8:  BNZ   5F00
05EFA:  MOVF   xEF,W
05EFC:  SUBLW  3F
05EFE:  BC    5F12
....................          glcd_fillscreen(OFF); 
05F00:  MOVLB  7
05F02:  CLRF   x2E
05F04:  MOVLB  0
05F06:  CALL   1C2E
....................          Display_off; 
05F0A:  BCF    F8B.7
05F0C:  BCF    F94.7
....................       } 
05F0E:  BRA    5EEE
05F10:  MOVLB  6
....................        
....................        
.................... //_-------------------------------------------------------------------------------------------------------------------------------------------------------- 
....................       if(Menu==0){ //Menu de Contrasea. 
05F12:  MOVF   xDE,F
05F14:  BTFSS  FD8.2
05F16:  BRA    64C0
....................        
....................       strcpy(Menus.Letra,"Clave"); 
05F18:  MOVLW  07
05F1A:  MOVWF  FEA
05F1C:  MOVLW  09
05F1E:  MOVWF  FE9
05F20:  MOVFF  FF2,72D
05F24:  BCF    FF2.7
05F26:  MOVLW  00
05F28:  MOVLB  0
05F2A:  CALL   085E
05F2E:  TBLRD*-
05F30:  TBLRD*+
05F32:  MOVF   FF5,W
05F34:  MOVWF  FEE
05F36:  IORLW  00
05F38:  BNZ   5F30
05F3A:  MOVLB  7
05F3C:  BTFSC  x2D.7
05F3E:  BSF    FF2.7
....................       displayMenu(Menus.Letra,30,0,1,2);      
05F40:  MOVLW  07
05F42:  MOVWF  x2E
05F44:  MOVLW  09
05F46:  MOVWF  x2D
05F48:  MOVLW  1E
05F4A:  MOVWF  x2F
05F4C:  CLRF   x30
05F4E:  MOVLW  01
05F50:  MOVWF  x31
05F52:  MOVLW  02
05F54:  MOVWF  x32
05F56:  MOVLB  0
05F58:  CALL   225C
....................        
....................       if(UP)//Si oprime hacia arriba 
05F5C:  BSF    F92.4
05F5E:  BTFSC  F80.4
05F60:  BRA    603A
....................       { 
....................          if(Flanco == 0) 
05F62:  MOVLB  4
05F64:  BTFSC  x5F.7
05F66:  BRA    6038
....................          { 
....................             Flanco = 1;delay_ms(30); 
05F68:  BSF    x5F.7
05F6A:  MOVLW  1E
05F6C:  MOVLB  7
05F6E:  MOVWF  x33
05F70:  MOVLB  0
05F72:  CALL   174A
....................             for(i=1;i<=4;i++) 
05F76:  MOVLW  01
05F78:  MOVLB  6
05F7A:  MOVWF  xE0
05F7C:  MOVF   xE0,W
05F7E:  SUBLW  04
05F80:  BNC   6036
....................             { 
....................                if(unidad==i) 
05F82:  MOVF   xE0,W
05F84:  SUBWF  xDF,W
05F86:  BNZ   5FFE
....................                { 
....................                   Contrasena[i-1]++; 
05F88:  MOVLW  01
05F8A:  SUBWF  xE0,W
05F8C:  CLRF   03
05F8E:  ADDLW  F9
05F90:  MOVWF  FE9
05F92:  MOVLW  06
05F94:  ADDWFC 03,W
05F96:  MOVWF  FEA
05F98:  INCF   FEF,F
....................                   if(Contrasena[i-1]>9)    
05F9A:  MOVLW  01
05F9C:  SUBWF  xE0,W
05F9E:  CLRF   03
05FA0:  ADDLW  F9
05FA2:  MOVWF  FE9
05FA4:  MOVLW  06
05FA6:  ADDWFC 03,W
05FA8:  MOVWF  FEA
05FAA:  BTFSC  FEF.7
05FAC:  BRA    5FC6
05FAE:  MOVF   FEF,W
05FB0:  SUBLW  09
05FB2:  BC    5FC6
....................                   { 
....................                      Contrasena[i-1]=0; 
05FB4:  MOVLW  01
05FB6:  SUBWF  xE0,W
05FB8:  CLRF   03
05FBA:  ADDLW  F9
05FBC:  MOVWF  FE9
05FBE:  MOVLW  06
05FC0:  ADDWFC 03,W
05FC2:  MOVWF  FEA
05FC4:  CLRF   FEF
....................                   } 
....................                   displayContrasena(Contrasena[i-1],i*20,30,1); 
05FC6:  MOVLW  01
05FC8:  SUBWF  xE0,W
05FCA:  CLRF   03
05FCC:  ADDLW  F9
05FCE:  MOVWF  FE9
05FD0:  MOVLW  06
05FD2:  ADDWFC 03,W
05FD4:  MOVWF  FEA
05FD6:  MOVFF  FEF,72D
05FDA:  MOVF   xE0,W
05FDC:  MULLW  14
05FDE:  MOVFF  FF3,72E
05FE2:  MOVLB  7
05FE4:  MOVFF  72D,72F
05FE8:  MOVFF  72E,730
05FEC:  MOVLW  1E
05FEE:  MOVWF  x31
05FF0:  MOVLW  01
05FF2:  MOVWF  x32
05FF4:  MOVLB  0
05FF6:  CALL   2482
....................                } 
....................                else 
05FFA:  BRA    6030
05FFC:  MOVLB  6
....................                { 
....................                   displayContrasena(Contrasena[i-1],i*20,30,0); 
05FFE:  MOVLW  01
06000:  SUBWF  xE0,W
06002:  CLRF   03
06004:  ADDLW  F9
06006:  MOVWF  FE9
06008:  MOVLW  06
0600A:  ADDWFC 03,W
0600C:  MOVWF  FEA
0600E:  MOVFF  FEF,72D
06012:  MOVF   xE0,W
06014:  MULLW  14
06016:  MOVFF  FF3,72E
0601A:  MOVLB  7
0601C:  MOVFF  72D,72F
06020:  MOVFF  72E,730
06024:  MOVLW  1E
06026:  MOVWF  x31
06028:  CLRF   x32
0602A:  MOVLB  0
0602C:  CALL   2482
....................                } 
....................             } 
06030:  MOVLB  6
06032:  INCF   xE0,F
06034:  BRA    5F7C
06036:  MOVLB  4
....................          } 
....................       } 
....................          else 
06038:  BRA    603E
....................             {Flanco = 0;} 
0603A:  MOVLB  4
0603C:  BCF    x5F.7
....................              
....................       if(DOWN)//Si oprime hacia abajo 
0603E:  BSF    F92.5
06040:  BTFSC  F80.5
06042:  BRA    6118
....................       { 
....................          if(Flanco2 == 0) 
06044:  MOVLB  6
06046:  BTFSC  xDA.1
06048:  BRA    6116
....................             {Flanco2 = 1;delay_ms(30); 
0604A:  BSF    xDA.1
0604C:  MOVLW  1E
0604E:  MOVLB  7
06050:  MOVWF  x33
06052:  MOVLB  0
06054:  CALL   174A
....................                for(i=1;i<=4;i++) 
06058:  MOVLW  01
0605A:  MOVLB  6
0605C:  MOVWF  xE0
0605E:  MOVF   xE0,W
06060:  SUBLW  04
06062:  BNC   6116
....................                { 
....................                   if(unidad==i) 
06064:  MOVF   xE0,W
06066:  SUBWF  xDF,W
06068:  BNZ   60DE
....................                   {Contrasena[i-1]--;  
0606A:  MOVLW  01
0606C:  SUBWF  xE0,W
0606E:  CLRF   03
06070:  ADDLW  F9
06072:  MOVWF  FE9
06074:  MOVLW  06
06076:  ADDWFC 03,W
06078:  MOVWF  FEA
0607A:  DECF   FEF,F
....................                      if(Contrasena[i-1]<0) 
0607C:  MOVLW  01
0607E:  SUBWF  xE0,W
06080:  CLRF   03
06082:  ADDLW  F9
06084:  MOVWF  FE9
06086:  MOVLW  06
06088:  ADDWFC 03,W
0608A:  MOVWF  FEA
0608C:  BTFSC  FEF.7
0608E:  BRA    6092
06090:  BRA    60A6
....................                         {Contrasena[i-1]=9;} 
06092:  MOVLW  01
06094:  SUBWF  xE0,W
06096:  CLRF   03
06098:  ADDLW  F9
0609A:  MOVWF  FE9
0609C:  MOVLW  06
0609E:  ADDWFC 03,W
060A0:  MOVWF  FEA
060A2:  MOVLW  09
060A4:  MOVWF  FEF
....................                    displayContrasena(Contrasena[i-1],i*20,30,1);} 
060A6:  MOVLW  01
060A8:  SUBWF  xE0,W
060AA:  CLRF   03
060AC:  ADDLW  F9
060AE:  MOVWF  FE9
060B0:  MOVLW  06
060B2:  ADDWFC 03,W
060B4:  MOVWF  FEA
060B6:  MOVFF  FEF,72D
060BA:  MOVF   xE0,W
060BC:  MULLW  14
060BE:  MOVFF  FF3,72E
060C2:  MOVLB  7
060C4:  MOVFF  72D,72F
060C8:  MOVFF  72E,730
060CC:  MOVLW  1E
060CE:  MOVWF  x31
060D0:  MOVLW  01
060D2:  MOVWF  x32
060D4:  MOVLB  0
060D6:  CALL   2482
....................                   else 
060DA:  BRA    6110
060DC:  MOVLB  6
....................                   {displayContrasena(Contrasena[i-1],i*20,30,0);} 
060DE:  MOVLW  01
060E0:  SUBWF  xE0,W
060E2:  CLRF   03
060E4:  ADDLW  F9
060E6:  MOVWF  FE9
060E8:  MOVLW  06
060EA:  ADDWFC 03,W
060EC:  MOVWF  FEA
060EE:  MOVFF  FEF,72D
060F2:  MOVF   xE0,W
060F4:  MULLW  14
060F6:  MOVFF  FF3,72E
060FA:  MOVLB  7
060FC:  MOVFF  72D,72F
06100:  MOVFF  72E,730
06104:  MOVLW  1E
06106:  MOVWF  x31
06108:  CLRF   x32
0610A:  MOVLB  0
0610C:  CALL   2482
....................                }       
06110:  MOVLB  6
06112:  INCF   xE0,F
06114:  BRA    605E
....................             }      
....................       } 
....................          else 
06116:  BRA    611C
....................             {Flanco2 = 0;}   
06118:  MOVLB  6
0611A:  BCF    xDA.1
....................              
....................       if(RIGHT)//Si oprime RIGHT 
0611C:  BSF    F96.0
0611E:  BTFSC  F84.0
06120:  BRA    61BA
....................       { 
....................          if(Flanco1 == 0) 
06122:  BTFSC  xDA.0
06124:  BRA    61B8
....................             {Flanco1 = 1;delay_ms(30);unidad++; 
06126:  BSF    xDA.0
06128:  MOVLW  1E
0612A:  MOVLB  7
0612C:  MOVWF  x33
0612E:  MOVLB  0
06130:  CALL   174A
06134:  MOVLB  6
06136:  INCF   xDF,F
....................                for(i=1;i<=4;i++) 
06138:  MOVLW  01
0613A:  MOVWF  xE0
0613C:  MOVF   xE0,W
0613E:  SUBLW  04
06140:  BNC   61B8
....................                { 
....................                   if(unidad==i) 
06142:  MOVF   xE0,W
06144:  SUBWF  xDF,W
06146:  BNZ   6180
....................                   {displayContrasena(Contrasena[i-1],i*20,30,1);} 
06148:  MOVLW  01
0614A:  SUBWF  xE0,W
0614C:  CLRF   03
0614E:  ADDLW  F9
06150:  MOVWF  FE9
06152:  MOVLW  06
06154:  ADDWFC 03,W
06156:  MOVWF  FEA
06158:  MOVFF  FEF,72D
0615C:  MOVF   xE0,W
0615E:  MULLW  14
06160:  MOVFF  FF3,72E
06164:  MOVLB  7
06166:  MOVFF  72D,72F
0616A:  MOVFF  72E,730
0616E:  MOVLW  1E
06170:  MOVWF  x31
06172:  MOVLW  01
06174:  MOVWF  x32
06176:  MOVLB  0
06178:  CALL   2482
....................                   else 
0617C:  BRA    61B2
0617E:  MOVLB  6
....................                   {displayContrasena(Contrasena[i-1],i*20,30,0);} 
06180:  MOVLW  01
06182:  SUBWF  xE0,W
06184:  CLRF   03
06186:  ADDLW  F9
06188:  MOVWF  FE9
0618A:  MOVLW  06
0618C:  ADDWFC 03,W
0618E:  MOVWF  FEA
06190:  MOVFF  FEF,72D
06194:  MOVF   xE0,W
06196:  MULLW  14
06198:  MOVFF  FF3,72E
0619C:  MOVLB  7
0619E:  MOVFF  72D,72F
061A2:  MOVFF  72E,730
061A6:  MOVLW  1E
061A8:  MOVWF  x31
061AA:  CLRF   x32
061AC:  MOVLB  0
061AE:  CALL   2482
....................                } 
061B2:  MOVLB  6
061B4:  INCF   xE0,F
061B6:  BRA    613C
....................             } 
....................       } 
....................          else 
061B8:  BRA    61BC
....................             {Flanco1 = 0;}   
061BA:  BCF    xDA.0
....................      
....................       if(unidad>4) 
061BC:  MOVF   xDF,W
061BE:  SUBLW  04
061C0:  BTFSC  FD8.0
061C2:  BRA    64C0
....................       {glcd_fillScreen(OFF);unidad=4; 
061C4:  MOVLB  7
061C6:  CLRF   x2E
061C8:  MOVLB  0
061CA:  CALL   1C2E
061CE:  MOVLW  04
061D0:  MOVLB  6
061D2:  MOVWF  xDF
....................          if(Contrasena[0]==3&&Contrasena[1]==8&&Contrasena[2]==9&&Contrasena[3]==2) // Si Ingresa clave para reset general del sistema. 
061D4:  MOVF   xF9,W
061D6:  SUBLW  03
061D8:  BTFSS  FD8.2
061DA:  BRA    62CA
061DC:  MOVF   xFA,W
061DE:  SUBLW  08
061E0:  BNZ   62CA
061E2:  MOVF   xFB,W
061E4:  SUBLW  09
061E6:  BNZ   62CA
061E8:  MOVF   xFC,W
061EA:  SUBLW  02
061EC:  BNZ   62CA
....................             {write_eeprom(10,0);delay_ms(20);write_eeprom(11,0);delay_ms(20);// Reestablece a contrasea de Fabrica y reinicia Programa. 
061EE:  CLRF   FAA
061F0:  MOVLW  0A
061F2:  MOVWF  FA9
061F4:  CLRF   FA8
061F6:  BCF    FA6.6
061F8:  BCF    FA6.7
061FA:  BSF    FA6.2
061FC:  MOVF   FF2,W
061FE:  MOVWF  00
06200:  BCF    FF2.7
06202:  MOVLB  F
06204:  MOVLW  55
06206:  MOVWF  FA7
06208:  MOVLW  AA
0620A:  MOVWF  FA7
0620C:  BSF    FA6.1
0620E:  BTFSC  FA6.1
06210:  BRA    620E
06212:  BCF    FA6.2
06214:  MOVF   00,W
06216:  IORWF  FF2,F
06218:  MOVLW  14
0621A:  MOVLB  7
0621C:  MOVWF  x33
0621E:  MOVLB  0
06220:  CALL   174A
06224:  CLRF   FAA
06226:  MOVLW  0B
06228:  MOVWF  FA9
0622A:  CLRF   FA8
0622C:  BCF    FA6.6
0622E:  BCF    FA6.7
06230:  BSF    FA6.2
06232:  MOVF   FF2,W
06234:  MOVWF  00
06236:  BCF    FF2.7
06238:  MOVLB  F
0623A:  MOVLW  55
0623C:  MOVWF  FA7
0623E:  MOVLW  AA
06240:  MOVWF  FA7
06242:  BSF    FA6.1
06244:  BTFSC  FA6.1
06246:  BRA    6244
06248:  BCF    FA6.2
0624A:  MOVF   00,W
0624C:  IORWF  FF2,F
0624E:  MOVLW  14
06250:  MOVLB  7
06252:  MOVWF  x33
06254:  MOVLB  0
06256:  CALL   174A
....................              write_eeprom(12,0);delay_ms(20);write_eeprom(13,0);delay_ms(20); 
0625A:  CLRF   FAA
0625C:  MOVLW  0C
0625E:  MOVWF  FA9
06260:  CLRF   FA8
06262:  BCF    FA6.6
06264:  BCF    FA6.7
06266:  BSF    FA6.2
06268:  MOVF   FF2,W
0626A:  MOVWF  00
0626C:  BCF    FF2.7
0626E:  MOVLB  F
06270:  MOVLW  55
06272:  MOVWF  FA7
06274:  MOVLW  AA
06276:  MOVWF  FA7
06278:  BSF    FA6.1
0627A:  BTFSC  FA6.1
0627C:  BRA    627A
0627E:  BCF    FA6.2
06280:  MOVF   00,W
06282:  IORWF  FF2,F
06284:  MOVLW  14
06286:  MOVLB  7
06288:  MOVWF  x33
0628A:  MOVLB  0
0628C:  CALL   174A
06290:  CLRF   FAA
06292:  MOVLW  0D
06294:  MOVWF  FA9
06296:  CLRF   FA8
06298:  BCF    FA6.6
0629A:  BCF    FA6.7
0629C:  BSF    FA6.2
0629E:  MOVF   FF2,W
062A0:  MOVWF  00
062A2:  BCF    FF2.7
062A4:  MOVLB  F
062A6:  MOVLW  55
062A8:  MOVWF  FA7
062AA:  MOVLW  AA
062AC:  MOVWF  FA7
062AE:  BSF    FA6.1
062B0:  BTFSC  FA6.1
062B2:  BRA    62B0
062B4:  BCF    FA6.2
062B6:  MOVF   00,W
062B8:  IORWF  FF2,F
062BA:  MOVLW  14
062BC:  MOVLB  7
062BE:  MOVWF  x33
062C0:  MOVLB  0
062C2:  CALL   174A
....................              reset_cpu();}         
062C6:  RESET
062C8:  MOVLB  6
....................           
....................          if((Contrasena[0]==Password[0])&&(Contrasena[1]==Password[1])&&(Contrasena[2]==Password[2])&&(Contrasena[3]==Password[3])) 
062CA:  MOVF   xFD,W
062CC:  SUBWF  xF9,W
062CE:  BNZ   63A4
062D0:  MOVF   xFE,W
062D2:  SUBWF  xFA,W
062D4:  BNZ   63A4
062D6:  MOVF   xFF,W
062D8:  SUBWF  xFB,W
062DA:  BNZ   63A4
062DC:  MOVLB  7
062DE:  MOVF   x00,W
062E0:  MOVLB  6
062E2:  SUBWF  xFC,W
062E4:  BNZ   63A4
....................          { 
....................             glcd_fillScreen(OFF); 
062E6:  MOVLB  7
062E8:  CLRF   x2E
062EA:  MOVLB  0
062EC:  CALL   1C2E
....................             strcpy(Menus.Letra,"Clave"); 
062F0:  MOVLW  07
062F2:  MOVWF  FEA
062F4:  MOVLW  09
062F6:  MOVWF  FE9
062F8:  MOVFF  FF2,72D
062FC:  BCF    FF2.7
062FE:  MOVLW  00
06300:  CALL   085E
06304:  TBLRD*-
06306:  TBLRD*+
06308:  MOVF   FF5,W
0630A:  MOVWF  FEE
0630C:  IORLW  00
0630E:  BNZ   6306
06310:  MOVLB  7
06312:  BTFSC  x2D.7
06314:  BSF    FF2.7
....................             displayMenu(Menus.Letra,30,0,0,2); 
06316:  MOVLW  07
06318:  MOVWF  x2E
0631A:  MOVLW  09
0631C:  MOVWF  x2D
0631E:  MOVLW  1E
06320:  MOVWF  x2F
06322:  CLRF   x30
06324:  CLRF   x31
06326:  MOVLW  02
06328:  MOVWF  x32
0632A:  MOVLB  0
0632C:  CALL   225C
....................             strcpy(Menus.Letra,"Correcta"); 
06330:  MOVLW  07
06332:  MOVWF  FEA
06334:  MOVLW  09
06336:  MOVWF  FE9
06338:  MOVFF  FF2,72D
0633C:  BCF    FF2.7
0633E:  MOVLW  00
06340:  CALL   0882
06344:  TBLRD*-
06346:  TBLRD*+
06348:  MOVF   FF5,W
0634A:  MOVWF  FEE
0634C:  IORLW  00
0634E:  BNZ   6346
06350:  MOVLB  7
06352:  BTFSC  x2D.7
06354:  BSF    FF2.7
....................             displayMenu(Menus.Letra,15,30,0,2); 
06356:  MOVLW  07
06358:  MOVWF  x2E
0635A:  MOVLW  09
0635C:  MOVWF  x2D
0635E:  MOVLW  0F
06360:  MOVWF  x2F
06362:  MOVLW  1E
06364:  MOVWF  x30
06366:  CLRF   x31
06368:  MOVLW  02
0636A:  MOVWF  x32
0636C:  MOVLB  0
0636E:  CALL   225C
....................             Menu=1;glcd_update();delay_ms(1000); 
06372:  MOVLW  01
06374:  MOVLB  6
06376:  MOVWF  xDE
06378:  MOVLB  0
0637A:  CALL   1C88
0637E:  MOVLW  04
06380:  MOVLB  7
06382:  MOVWF  x2D
06384:  MOVLW  FA
06386:  MOVWF  x33
06388:  MOVLB  0
0638A:  CALL   174A
0638E:  MOVLB  7
06390:  DECFSZ x2D,F
06392:  BRA    6384
....................             glcd_fillScreen(OFF);unidad=1; 
06394:  CLRF   x2E
06396:  MOVLB  0
06398:  CALL   1C2E
0639C:  MOVLW  01
0639E:  MOVLB  6
063A0:  MOVWF  xDF
....................          }// Esta parte se puede agregar en el Menu 1 dependiendo de la ubicacin del vidrio. 
....................          else 
063A2:  BRA    64C0
....................          { 
....................             glcd_fillScreen(OFF); 
063A4:  MOVLB  7
063A6:  CLRF   x2E
063A8:  MOVLB  0
063AA:  CALL   1C2E
....................             strcpy(Menus.Letra,"Clave"); 
063AE:  MOVLW  07
063B0:  MOVWF  FEA
063B2:  MOVLW  09
063B4:  MOVWF  FE9
063B6:  MOVFF  FF2,72D
063BA:  BCF    FF2.7
063BC:  MOVLW  00
063BE:  CALL   085E
063C2:  TBLRD*-
063C4:  TBLRD*+
063C6:  MOVF   FF5,W
063C8:  MOVWF  FEE
063CA:  IORLW  00
063CC:  BNZ   63C4
063CE:  MOVLB  7
063D0:  BTFSC  x2D.7
063D2:  BSF    FF2.7
....................             displayMenu(Menus.Letra,30,0,0,2); 
063D4:  MOVLW  07
063D6:  MOVWF  x2E
063D8:  MOVLW  09
063DA:  MOVWF  x2D
063DC:  MOVLW  1E
063DE:  MOVWF  x2F
063E0:  CLRF   x30
063E2:  CLRF   x31
063E4:  MOVLW  02
063E6:  MOVWF  x32
063E8:  MOVLB  0
063EA:  CALL   225C
....................             strcpy(Menus.Letra,"Incorrecta"); 
063EE:  MOVLW  07
063F0:  MOVWF  FEA
063F2:  MOVLW  09
063F4:  MOVWF  FE9
063F6:  MOVFF  FF2,72D
063FA:  BCF    FF2.7
063FC:  MOVLW  00
063FE:  CALL   08AA
06402:  TBLRD*-
06404:  TBLRD*+
06406:  MOVF   FF5,W
06408:  MOVWF  FEE
0640A:  IORLW  00
0640C:  BNZ   6404
0640E:  MOVLB  7
06410:  BTFSC  x2D.7
06412:  BSF    FF2.7
....................             displayMenu(Menus.Letra,0,30,0,2); 
06414:  MOVLW  07
06416:  MOVWF  x2E
06418:  MOVLW  09
0641A:  MOVWF  x2D
0641C:  CLRF   x2F
0641E:  MOVLW  1E
06420:  MOVWF  x30
06422:  CLRF   x31
06424:  MOVLW  02
06426:  MOVWF  x32
06428:  MOVLB  0
0642A:  CALL   225C
....................             Menu=0;glcd_update();delay_ms(1000); 
0642E:  MOVLB  6
06430:  CLRF   xDE
06432:  MOVLB  0
06434:  CALL   1C88
06438:  MOVLW  04
0643A:  MOVLB  7
0643C:  MOVWF  x2D
0643E:  MOVLW  FA
06440:  MOVWF  x33
06442:  MOVLB  0
06444:  CALL   174A
06448:  MOVLB  7
0644A:  DECFSZ x2D,F
0644C:  BRA    643E
....................             glcd_fillScreen(OFF);unidad=1; 
0644E:  CLRF   x2E
06450:  MOVLB  0
06452:  CALL   1C2E
06456:  MOVLW  01
06458:  MOVLB  6
0645A:  MOVWF  xDF
....................             Contrasena[0]=0;Contrasena[1]=0;Contrasena[2]=0;Contrasena[3]=0; 
0645C:  CLRF   xF9
0645E:  CLRF   xFA
06460:  CLRF   xFB
06462:  CLRF   xFC
....................             displayContrasena(Contrasena[0],20,30,1); 
06464:  MOVFF  6F9,72F
06468:  MOVLW  14
0646A:  MOVLB  7
0646C:  MOVWF  x30
0646E:  MOVLW  1E
06470:  MOVWF  x31
06472:  MOVLW  01
06474:  MOVWF  x32
06476:  MOVLB  0
06478:  CALL   2482
....................             displayContrasena(Contrasena[1],40,30,0); 
0647C:  MOVFF  6FA,72F
06480:  MOVLW  28
06482:  MOVLB  7
06484:  MOVWF  x30
06486:  MOVLW  1E
06488:  MOVWF  x31
0648A:  CLRF   x32
0648C:  MOVLB  0
0648E:  CALL   2482
....................             displayContrasena(Contrasena[2],60,30,0); 
06492:  MOVFF  6FB,72F
06496:  MOVLW  3C
06498:  MOVLB  7
0649A:  MOVWF  x30
0649C:  MOVLW  1E
0649E:  MOVWF  x31
064A0:  CLRF   x32
064A2:  MOVLB  0
064A4:  CALL   2482
....................             displayContrasena(Contrasena[3],80,30,0); 
064A8:  MOVFF  6FC,72F
064AC:  MOVLW  50
064AE:  MOVLB  7
064B0:  MOVWF  x30
064B2:  MOVLW  1E
064B4:  MOVWF  x31
064B6:  CLRF   x32
064B8:  MOVLB  0
064BA:  CALL   2482
064BE:  MOVLB  6
....................          } 
....................       } 
....................     } 
.................... //_--------------------------------------------------------------------------------------------------------------------------------------------------------        
....................  
.................... //_-------------------------------------------------------------------------------------------------------------------------------------------------------- 
....................       if(Menu==1){ //Menu Principal.       
064C0:  DECFSZ xDE,W
064C2:  BRA    6AE0
....................        
....................       if(visual==1) 
064C4:  BTFSS  xDA.2
064C6:  BRA    6A58
....................       { 
....................          if(Opcion>7) 
064C8:  MOVF   xE4,W
064CA:  SUBLW  07
064CC:  BC    64D2
....................          {Opcion=1;} 
064CE:  MOVLW  01
064D0:  MOVWF  xE4
....................          if(Opcion<1) 
064D2:  MOVF   xE4,F
064D4:  BNZ   64DA
....................          {Opcion=7;} 
064D6:  MOVLW  07
064D8:  MOVWF  xE4
....................           
....................          strcpy(Menus.Letra,"Menu Principal"); 
064DA:  MOVLW  07
064DC:  MOVWF  FEA
064DE:  MOVLW  09
064E0:  MOVWF  FE9
064E2:  MOVFF  FF2,72D
064E6:  BCF    FF2.7
064E8:  MOVLW  00
064EA:  MOVLB  0
064EC:  CALL   08D4
064F0:  TBLRD*-
064F2:  TBLRD*+
064F4:  MOVF   FF5,W
064F6:  MOVWF  FEE
064F8:  IORLW  00
064FA:  BNZ   64F2
064FC:  MOVLB  7
064FE:  BTFSC  x2D.7
06500:  BSF    FF2.7
....................          displayMenu(Menus.Letra,30,0,1,1); 
06502:  MOVLW  07
06504:  MOVWF  x2E
06506:  MOVLW  09
06508:  MOVWF  x2D
0650A:  MOVLW  1E
0650C:  MOVWF  x2F
0650E:  CLRF   x30
06510:  MOVLW  01
06512:  MOVWF  x31
06514:  MOVWF  x32
06516:  MOVLB  0
06518:  CALL   225C
....................        
....................          if(Opcion<=6) 
0651C:  MOVLB  6
0651E:  MOVF   xE4,W
06520:  SUBLW  06
06522:  BTFSS  FD8.0
06524:  BRA    6888
....................          { 
....................             if(Opcion==1) 
06526:  DECFSZ xE4,W
06528:  BRA    6570
....................                {strcpy(Menus.Letra,"Caucho"); 
0652A:  MOVLW  07
0652C:  MOVWF  FEA
0652E:  MOVLW  09
06530:  MOVWF  FE9
06532:  MOVFF  FF2,72D
06536:  BCF    FF2.7
06538:  MOVLW  00
0653A:  MOVLB  0
0653C:  CALL   0902
06540:  TBLRD*-
06542:  TBLRD*+
06544:  MOVF   FF5,W
06546:  MOVWF  FEE
06548:  IORLW  00
0654A:  BNZ   6542
0654C:  MOVLB  7
0654E:  BTFSC  x2D.7
06550:  BSF    FF2.7
....................                displayMenu(Menus.Letra,0,10,1,1);} 
06552:  MOVLW  07
06554:  MOVWF  x2E
06556:  MOVLW  09
06558:  MOVWF  x2D
0655A:  CLRF   x2F
0655C:  MOVLW  0A
0655E:  MOVWF  x30
06560:  MOVLW  01
06562:  MOVWF  x31
06564:  MOVWF  x32
06566:  MOVLB  0
06568:  CALL   225C
....................             else 
0656C:  BRA    65B2
0656E:  MOVLB  6
....................                {strcpy(Menus.Letra,"Caucho"); 
06570:  MOVLW  07
06572:  MOVWF  FEA
06574:  MOVLW  09
06576:  MOVWF  FE9
06578:  MOVFF  FF2,72D
0657C:  BCF    FF2.7
0657E:  MOVLW  00
06580:  MOVLB  0
06582:  CALL   0902
06586:  TBLRD*-
06588:  TBLRD*+
0658A:  MOVF   FF5,W
0658C:  MOVWF  FEE
0658E:  IORLW  00
06590:  BNZ   6588
06592:  MOVLB  7
06594:  BTFSC  x2D.7
06596:  BSF    FF2.7
....................                displayMenu(Menus.Letra,0,10,0,1);} 
06598:  MOVLW  07
0659A:  MOVWF  x2E
0659C:  MOVLW  09
0659E:  MOVWF  x2D
065A0:  CLRF   x2F
065A2:  MOVLW  0A
065A4:  MOVWF  x30
065A6:  CLRF   x31
065A8:  MOVLW  01
065AA:  MOVWF  x32
065AC:  MOVLB  0
065AE:  CALL   225C
....................              
....................             if(Opcion==2)    
065B2:  MOVLB  6
065B4:  MOVF   xE4,W
065B6:  SUBLW  02
065B8:  BNZ   6600
....................                {strcpy(Menus.Letra,"Liquidos"); 
065BA:  MOVLW  07
065BC:  MOVWF  FEA
065BE:  MOVLW  09
065C0:  MOVWF  FE9
065C2:  MOVFF  FF2,72D
065C6:  BCF    FF2.7
065C8:  MOVLW  00
065CA:  MOVLB  0
065CC:  CALL   0928
065D0:  TBLRD*-
065D2:  TBLRD*+
065D4:  MOVF   FF5,W
065D6:  MOVWF  FEE
065D8:  IORLW  00
065DA:  BNZ   65D2
065DC:  MOVLB  7
065DE:  BTFSC  x2D.7
065E0:  BSF    FF2.7
....................                displayMenu(Menus.Letra,0,19,1,1);} 
065E2:  MOVLW  07
065E4:  MOVWF  x2E
065E6:  MOVLW  09
065E8:  MOVWF  x2D
065EA:  CLRF   x2F
065EC:  MOVLW  13
065EE:  MOVWF  x30
065F0:  MOVLW  01
065F2:  MOVWF  x31
065F4:  MOVWF  x32
065F6:  MOVLB  0
065F8:  CALL   225C
....................             else 
065FC:  BRA    6642
065FE:  MOVLB  6
....................                {strcpy(Menus.Letra,"Liquidos"); 
06600:  MOVLW  07
06602:  MOVWF  FEA
06604:  MOVLW  09
06606:  MOVWF  FE9
06608:  MOVFF  FF2,72D
0660C:  BCF    FF2.7
0660E:  MOVLW  00
06610:  MOVLB  0
06612:  CALL   0928
06616:  TBLRD*-
06618:  TBLRD*+
0661A:  MOVF   FF5,W
0661C:  MOVWF  FEE
0661E:  IORLW  00
06620:  BNZ   6618
06622:  MOVLB  7
06624:  BTFSC  x2D.7
06626:  BSF    FF2.7
....................                displayMenu(Menus.Letra,0,19,0,1);}    
06628:  MOVLW  07
0662A:  MOVWF  x2E
0662C:  MOVLW  09
0662E:  MOVWF  x2D
06630:  CLRF   x2F
06632:  MOVLW  13
06634:  MOVWF  x30
06636:  CLRF   x31
06638:  MOVLW  01
0663A:  MOVWF  x32
0663C:  MOVLB  0
0663E:  CALL   225C
....................                 
....................              if(Opcion==3)    
06642:  MOVLB  6
06644:  MOVF   xE4,W
06646:  SUBLW  03
06648:  BNZ   6690
....................                {strcpy(Menus.Letra,"Instrumental Suave"); 
0664A:  MOVLW  07
0664C:  MOVWF  FEA
0664E:  MOVLW  09
06650:  MOVWF  FE9
06652:  MOVFF  FF2,72D
06656:  BCF    FF2.7
06658:  MOVLW  00
0665A:  MOVLB  0
0665C:  CALL   0950
06660:  TBLRD*-
06662:  TBLRD*+
06664:  MOVF   FF5,W
06666:  MOVWF  FEE
06668:  IORLW  00
0666A:  BNZ   6662
0666C:  MOVLB  7
0666E:  BTFSC  x2D.7
06670:  BSF    FF2.7
....................                displayMenu(Menus.Letra,0,28,1,1);} 
06672:  MOVLW  07
06674:  MOVWF  x2E
06676:  MOVLW  09
06678:  MOVWF  x2D
0667A:  CLRF   x2F
0667C:  MOVLW  1C
0667E:  MOVWF  x30
06680:  MOVLW  01
06682:  MOVWF  x31
06684:  MOVWF  x32
06686:  MOVLB  0
06688:  CALL   225C
....................             else 
0668C:  BRA    66D2
0668E:  MOVLB  6
....................                {strcpy(Menus.Letra,"Instrumental Suave"); 
06690:  MOVLW  07
06692:  MOVWF  FEA
06694:  MOVLW  09
06696:  MOVWF  FE9
06698:  MOVFF  FF2,72D
0669C:  BCF    FF2.7
0669E:  MOVLW  00
066A0:  MOVLB  0
066A2:  CALL   0950
066A6:  TBLRD*-
066A8:  TBLRD*+
066AA:  MOVF   FF5,W
066AC:  MOVWF  FEE
066AE:  IORLW  00
066B0:  BNZ   66A8
066B2:  MOVLB  7
066B4:  BTFSC  x2D.7
066B6:  BSF    FF2.7
....................                displayMenu(Menus.Letra,0,28,0,1);} 
066B8:  MOVLW  07
066BA:  MOVWF  x2E
066BC:  MOVLW  09
066BE:  MOVWF  x2D
066C0:  CLRF   x2F
066C2:  MOVLW  1C
066C4:  MOVWF  x30
066C6:  CLRF   x31
066C8:  MOVLW  01
066CA:  MOVWF  x32
066CC:  MOVLB  0
066CE:  CALL   225C
....................                 
....................             if(Opcion==4)    
066D2:  MOVLB  6
066D4:  MOVF   xE4,W
066D6:  SUBLW  04
066D8:  BNZ   6720
....................                {strcpy(Menus.Letra,"Textil e Instrumental"); 
066DA:  MOVLW  07
066DC:  MOVWF  FEA
066DE:  MOVLW  09
066E0:  MOVWF  FE9
066E2:  MOVFF  FF2,72D
066E6:  BCF    FF2.7
066E8:  MOVLW  00
066EA:  MOVLB  0
066EC:  CALL   0982
066F0:  TBLRD*-
066F2:  TBLRD*+
066F4:  MOVF   FF5,W
066F6:  MOVWF  FEE
066F8:  IORLW  00
066FA:  BNZ   66F2
066FC:  MOVLB  7
066FE:  BTFSC  x2D.7
06700:  BSF    FF2.7
....................                displayMenu(Menus.Letra,0,37,1,1);} 
06702:  MOVLW  07
06704:  MOVWF  x2E
06706:  MOVLW  09
06708:  MOVWF  x2D
0670A:  CLRF   x2F
0670C:  MOVLW  25
0670E:  MOVWF  x30
06710:  MOVLW  01
06712:  MOVWF  x31
06714:  MOVWF  x32
06716:  MOVLB  0
06718:  CALL   225C
....................             else 
0671C:  BRA    6762
0671E:  MOVLB  6
....................                {strcpy(Menus.Letra,"Textil e Instrumental"); 
06720:  MOVLW  07
06722:  MOVWF  FEA
06724:  MOVLW  09
06726:  MOVWF  FE9
06728:  MOVFF  FF2,72D
0672C:  BCF    FF2.7
0672E:  MOVLW  00
06730:  MOVLB  0
06732:  CALL   0982
06736:  TBLRD*-
06738:  TBLRD*+
0673A:  MOVF   FF5,W
0673C:  MOVWF  FEE
0673E:  IORLW  00
06740:  BNZ   6738
06742:  MOVLB  7
06744:  BTFSC  x2D.7
06746:  BSF    FF2.7
....................                displayMenu(Menus.Letra,0,37,0,1);}    
06748:  MOVLW  07
0674A:  MOVWF  x2E
0674C:  MOVLW  09
0674E:  MOVWF  x2D
06750:  CLRF   x2F
06752:  MOVLW  25
06754:  MOVWF  x30
06756:  CLRF   x31
06758:  MOVLW  01
0675A:  MOVWF  x32
0675C:  MOVLB  0
0675E:  CALL   225C
....................                 
....................             if(Opcion==5)    
06762:  MOVLB  6
06764:  MOVF   xE4,W
06766:  SUBLW  05
06768:  BNZ   67B0
....................                {strcpy(Menus.Letra,"Personalizado"); 
0676A:  MOVLW  07
0676C:  MOVWF  FEA
0676E:  MOVLW  09
06770:  MOVWF  FE9
06772:  MOVFF  FF2,72D
06776:  BCF    FF2.7
06778:  MOVLW  00
0677A:  MOVLB  0
0677C:  CALL   09B6
06780:  TBLRD*-
06782:  TBLRD*+
06784:  MOVF   FF5,W
06786:  MOVWF  FEE
06788:  IORLW  00
0678A:  BNZ   6782
0678C:  MOVLB  7
0678E:  BTFSC  x2D.7
06790:  BSF    FF2.7
....................                displayMenu(Menus.Letra,0,46,1,1);} 
06792:  MOVLW  07
06794:  MOVWF  x2E
06796:  MOVLW  09
06798:  MOVWF  x2D
0679A:  CLRF   x2F
0679C:  MOVLW  2E
0679E:  MOVWF  x30
067A0:  MOVLW  01
067A2:  MOVWF  x31
067A4:  MOVWF  x32
067A6:  MOVLB  0
067A8:  CALL   225C
....................             else 
067AC:  BRA    67F2
067AE:  MOVLB  6
....................                {strcpy(Menus.Letra,"Personalizado"); 
067B0:  MOVLW  07
067B2:  MOVWF  FEA
067B4:  MOVLW  09
067B6:  MOVWF  FE9
067B8:  MOVFF  FF2,72D
067BC:  BCF    FF2.7
067BE:  MOVLW  00
067C0:  MOVLB  0
067C2:  CALL   09B6
067C6:  TBLRD*-
067C8:  TBLRD*+
067CA:  MOVF   FF5,W
067CC:  MOVWF  FEE
067CE:  IORLW  00
067D0:  BNZ   67C8
067D2:  MOVLB  7
067D4:  BTFSC  x2D.7
067D6:  BSF    FF2.7
....................                displayMenu(Menus.Letra,0,46,0,1);}   
067D8:  MOVLW  07
067DA:  MOVWF  x2E
067DC:  MOVLW  09
067DE:  MOVWF  x2D
067E0:  CLRF   x2F
067E2:  MOVLW  2E
067E4:  MOVWF  x30
067E6:  CLRF   x31
067E8:  MOVLW  01
067EA:  MOVWF  x32
067EC:  MOVLB  0
067EE:  CALL   225C
....................                 
....................             if(Opcion==6)    
067F2:  MOVLB  6
067F4:  MOVF   xE4,W
067F6:  SUBLW  06
067F8:  BNZ   6840
....................                {strcpy(Menus.Letra,"Cambio Clave"); 
067FA:  MOVLW  07
067FC:  MOVWF  FEA
067FE:  MOVLW  09
06800:  MOVWF  FE9
06802:  MOVFF  FF2,72D
06806:  BCF    FF2.7
06808:  MOVLW  00
0680A:  MOVLB  0
0680C:  CALL   09E2
06810:  TBLRD*-
06812:  TBLRD*+
06814:  MOVF   FF5,W
06816:  MOVWF  FEE
06818:  IORLW  00
0681A:  BNZ   6812
0681C:  MOVLB  7
0681E:  BTFSC  x2D.7
06820:  BSF    FF2.7
....................                displayMenu(Menus.Letra,0,55,1,1);} 
06822:  MOVLW  07
06824:  MOVWF  x2E
06826:  MOVLW  09
06828:  MOVWF  x2D
0682A:  CLRF   x2F
0682C:  MOVLW  37
0682E:  MOVWF  x30
06830:  MOVLW  01
06832:  MOVWF  x31
06834:  MOVWF  x32
06836:  MOVLB  0
06838:  CALL   225C
....................             else 
0683C:  BRA    6882
0683E:  MOVLB  6
....................                {strcpy(Menus.Letra,"Cambio Clave"); 
06840:  MOVLW  07
06842:  MOVWF  FEA
06844:  MOVLW  09
06846:  MOVWF  FE9
06848:  MOVFF  FF2,72D
0684C:  BCF    FF2.7
0684E:  MOVLW  00
06850:  MOVLB  0
06852:  CALL   09E2
06856:  TBLRD*-
06858:  TBLRD*+
0685A:  MOVF   FF5,W
0685C:  MOVWF  FEE
0685E:  IORLW  00
06860:  BNZ   6858
06862:  MOVLB  7
06864:  BTFSC  x2D.7
06866:  BSF    FF2.7
....................                displayMenu(Menus.Letra,0,55,0,1);}      
06868:  MOVLW  07
0686A:  MOVWF  x2E
0686C:  MOVLW  09
0686E:  MOVWF  x2D
06870:  CLRF   x2F
06872:  MOVLW  37
06874:  MOVWF  x30
06876:  CLRF   x31
06878:  MOVLW  01
0687A:  MOVWF  x32
0687C:  MOVLB  0
0687E:  CALL   225C
....................                visual=0; 
06882:  MOVLB  6
06884:  BCF    xDA.2
....................          } 
....................          else 
06886:  BRA    6A58
....................          { 
....................             if(Opcion==7) 
06888:  MOVF   xE4,W
0688A:  SUBLW  07
0688C:  BNZ   68D4
....................                {strcpy(Menus.Letra,"Prueba Comp."); 
0688E:  MOVLW  07
06890:  MOVWF  FEA
06892:  MOVLW  09
06894:  MOVWF  FE9
06896:  MOVFF  FF2,72D
0689A:  BCF    FF2.7
0689C:  MOVLW  00
0689E:  MOVLB  0
068A0:  CALL   0A0E
068A4:  TBLRD*-
068A6:  TBLRD*+
068A8:  MOVF   FF5,W
068AA:  MOVWF  FEE
068AC:  IORLW  00
068AE:  BNZ   68A6
068B0:  MOVLB  7
068B2:  BTFSC  x2D.7
068B4:  BSF    FF2.7
....................                displayMenu(Menus.Letra,0,10,1,1);} 
068B6:  MOVLW  07
068B8:  MOVWF  x2E
068BA:  MOVLW  09
068BC:  MOVWF  x2D
068BE:  CLRF   x2F
068C0:  MOVLW  0A
068C2:  MOVWF  x30
068C4:  MOVLW  01
068C6:  MOVWF  x31
068C8:  MOVWF  x32
068CA:  MOVLB  0
068CC:  CALL   225C
....................             else 
068D0:  BRA    6916
068D2:  MOVLB  6
....................                {strcpy(Menus.Letra,"Prueba Comp."); 
068D4:  MOVLW  07
068D6:  MOVWF  FEA
068D8:  MOVLW  09
068DA:  MOVWF  FE9
068DC:  MOVFF  FF2,72D
068E0:  BCF    FF2.7
068E2:  MOVLW  00
068E4:  MOVLB  0
068E6:  CALL   0A0E
068EA:  TBLRD*-
068EC:  TBLRD*+
068EE:  MOVF   FF5,W
068F0:  MOVWF  FEE
068F2:  IORLW  00
068F4:  BNZ   68EC
068F6:  MOVLB  7
068F8:  BTFSC  x2D.7
068FA:  BSF    FF2.7
....................                displayMenu(Menus.Letra,0,10,0,1);} 
068FC:  MOVLW  07
068FE:  MOVWF  x2E
06900:  MOVLW  09
06902:  MOVWF  x2D
06904:  CLRF   x2F
06906:  MOVLW  0A
06908:  MOVWF  x30
0690A:  CLRF   x31
0690C:  MOVLW  01
0690E:  MOVWF  x32
06910:  MOVLB  0
06912:  CALL   225C
....................                 
....................                strcpy(Menus.Letra,"           "); 
06916:  MOVLW  07
06918:  MOVWF  FEA
0691A:  MOVLW  09
0691C:  MOVWF  FE9
0691E:  MOVFF  FF2,72D
06922:  BCF    FF2.7
06924:  MOVLW  00
06926:  CALL   0A3A
0692A:  TBLRD*-
0692C:  TBLRD*+
0692E:  MOVF   FF5,W
06930:  MOVWF  FEE
06932:  IORLW  00
06934:  BNZ   692C
06936:  MOVLB  7
06938:  BTFSC  x2D.7
0693A:  BSF    FF2.7
....................                displayMenu(Menus.Letra,0,19,0,1); 
0693C:  MOVLW  07
0693E:  MOVWF  x2E
06940:  MOVLW  09
06942:  MOVWF  x2D
06944:  CLRF   x2F
06946:  MOVLW  13
06948:  MOVWF  x30
0694A:  CLRF   x31
0694C:  MOVLW  01
0694E:  MOVWF  x32
06950:  MOVLB  0
06952:  CALL   225C
....................                 
....................                strcpy(Menus.Letra,"           "); 
06956:  MOVLW  07
06958:  MOVWF  FEA
0695A:  MOVLW  09
0695C:  MOVWF  FE9
0695E:  MOVFF  FF2,72D
06962:  BCF    FF2.7
06964:  MOVLW  00
06966:  CALL   0A3A
0696A:  TBLRD*-
0696C:  TBLRD*+
0696E:  MOVF   FF5,W
06970:  MOVWF  FEE
06972:  IORLW  00
06974:  BNZ   696C
06976:  MOVLB  7
06978:  BTFSC  x2D.7
0697A:  BSF    FF2.7
....................                displayMenu(Menus.Letra,0,28,0,1); 
0697C:  MOVLW  07
0697E:  MOVWF  x2E
06980:  MOVLW  09
06982:  MOVWF  x2D
06984:  CLRF   x2F
06986:  MOVLW  1C
06988:  MOVWF  x30
0698A:  CLRF   x31
0698C:  MOVLW  01
0698E:  MOVWF  x32
06990:  MOVLB  0
06992:  CALL   225C
....................                 
....................                strcpy(Menus.Letra,"           "); 
06996:  MOVLW  07
06998:  MOVWF  FEA
0699A:  MOVLW  09
0699C:  MOVWF  FE9
0699E:  MOVFF  FF2,72D
069A2:  BCF    FF2.7
069A4:  MOVLW  00
069A6:  CALL   0A3A
069AA:  TBLRD*-
069AC:  TBLRD*+
069AE:  MOVF   FF5,W
069B0:  MOVWF  FEE
069B2:  IORLW  00
069B4:  BNZ   69AC
069B6:  MOVLB  7
069B8:  BTFSC  x2D.7
069BA:  BSF    FF2.7
....................                displayMenu(Menus.Letra,0,37,0,1); 
069BC:  MOVLW  07
069BE:  MOVWF  x2E
069C0:  MOVLW  09
069C2:  MOVWF  x2D
069C4:  CLRF   x2F
069C6:  MOVLW  25
069C8:  MOVWF  x30
069CA:  CLRF   x31
069CC:  MOVLW  01
069CE:  MOVWF  x32
069D0:  MOVLB  0
069D2:  CALL   225C
....................                 
....................                strcpy(Menus.Letra,"           "); 
069D6:  MOVLW  07
069D8:  MOVWF  FEA
069DA:  MOVLW  09
069DC:  MOVWF  FE9
069DE:  MOVFF  FF2,72D
069E2:  BCF    FF2.7
069E4:  MOVLW  00
069E6:  CALL   0A3A
069EA:  TBLRD*-
069EC:  TBLRD*+
069EE:  MOVF   FF5,W
069F0:  MOVWF  FEE
069F2:  IORLW  00
069F4:  BNZ   69EC
069F6:  MOVLB  7
069F8:  BTFSC  x2D.7
069FA:  BSF    FF2.7
....................                displayMenu(Menus.Letra,0,46,0,1); 
069FC:  MOVLW  07
069FE:  MOVWF  x2E
06A00:  MOVLW  09
06A02:  MOVWF  x2D
06A04:  CLRF   x2F
06A06:  MOVLW  2E
06A08:  MOVWF  x30
06A0A:  CLRF   x31
06A0C:  MOVLW  01
06A0E:  MOVWF  x32
06A10:  MOVLB  0
06A12:  CALL   225C
....................                 
....................                strcpy(Menus.Letra,"           "); 
06A16:  MOVLW  07
06A18:  MOVWF  FEA
06A1A:  MOVLW  09
06A1C:  MOVWF  FE9
06A1E:  MOVFF  FF2,72D
06A22:  BCF    FF2.7
06A24:  MOVLW  00
06A26:  CALL   0A3A
06A2A:  TBLRD*-
06A2C:  TBLRD*+
06A2E:  MOVF   FF5,W
06A30:  MOVWF  FEE
06A32:  IORLW  00
06A34:  BNZ   6A2C
06A36:  MOVLB  7
06A38:  BTFSC  x2D.7
06A3A:  BSF    FF2.7
....................                displayMenu(Menus.Letra,0,55,0,1); 
06A3C:  MOVLW  07
06A3E:  MOVWF  x2E
06A40:  MOVLW  09
06A42:  MOVWF  x2D
06A44:  CLRF   x2F
06A46:  MOVLW  37
06A48:  MOVWF  x30
06A4A:  CLRF   x31
06A4C:  MOVLW  01
06A4E:  MOVWF  x32
06A50:  MOVLB  0
06A52:  CALL   225C
06A56:  MOVLB  6
....................          } 
....................       } 
....................        
....................       if(UP){ 
06A58:  BSF    F92.4
06A5A:  BTFSC  F80.4
06A5C:  BRA    6A7E
....................          if(Flanco == 0){ 
06A5E:  MOVLB  4
06A60:  BTFSC  x5F.7
06A62:  BRA    6A7A
....................             Flanco = 1;delay_ms(10);Opcion--;visual=1; 
06A64:  BSF    x5F.7
06A66:  MOVLW  0A
06A68:  MOVLB  7
06A6A:  MOVWF  x33
06A6C:  MOVLB  0
06A6E:  CALL   174A
06A72:  MOVLB  6
06A74:  DECF   xE4,F
06A76:  BSF    xDA.2
06A78:  MOVLB  4
....................          } 
....................       }else{ 
06A7A:  BRA    6A82
06A7C:  MOVLB  6
....................          Flanco = 0; 
06A7E:  MOVLB  4
06A80:  BCF    x5F.7
....................       } 
....................                    
....................       if(DOWN){ 
06A82:  BSF    F92.5
06A84:  BTFSC  F80.5
06A86:  BRA    6AA6
....................          if(Flanco2 == 0){ 
06A88:  MOVLB  6
06A8A:  BTFSC  xDA.1
06A8C:  BRA    6AA2
....................             Flanco2 = 1;delay_ms(10);Opcion++;visual=1; 
06A8E:  BSF    xDA.1
06A90:  MOVLW  0A
06A92:  MOVLB  7
06A94:  MOVWF  x33
06A96:  MOVLB  0
06A98:  CALL   174A
06A9C:  MOVLB  6
06A9E:  INCF   xE4,F
06AA0:  BSF    xDA.2
....................          }      
....................       }else{ 
06AA2:  BRA    6AAA
06AA4:  MOVLB  4
....................          Flanco2 = 0; 
06AA6:  MOVLB  6
06AA8:  BCF    xDA.1
....................       } 
....................                 
....................        if(RIGHT)//Si oprime SET 
06AAA:  BSF    F96.0
06AAC:  BTFSC  F84.0
06AAE:  BRA    6ADE
....................          {  if(Flanco1 == 0)  
06AB0:  BTFSC  xDA.0
06AB2:  BRA    6ADC
....................                {Flanco1 = 1;delay_ms(30);Menu=Opcion+3;Opcion=1;glcd_fillscreen(OFF);visual=1; 
06AB4:  BSF    xDA.0
06AB6:  MOVLW  1E
06AB8:  MOVLB  7
06ABA:  MOVWF  x33
06ABC:  MOVLB  0
06ABE:  CALL   174A
06AC2:  MOVLW  03
06AC4:  MOVLB  6
06AC6:  ADDWF  xE4,W
06AC8:  MOVWF  xDE
06ACA:  MOVLW  01
06ACC:  MOVWF  xE4
06ACE:  MOVLB  7
06AD0:  CLRF   x2E
06AD2:  MOVLB  0
06AD4:  CALL   1C2E
06AD8:  MOVLB  6
06ADA:  BSF    xDA.2
....................                } 
....................          } 
....................             else 
06ADC:  BRA    6AE0
....................                {Flanco1 = 0;}   
06ADE:  BCF    xDA.0
....................    } 
.................... //_--------------------------------------------------------------------------------------------------------------------------------------------------------        
....................  
.................... //_--------------------------------------------------------------------------------------------------------------------------------------------------------       
....................       if(Menu==4){ // Menu de Caucho 
06AE0:  MOVF   xDE,W
06AE2:  SUBLW  04
06AE4:  BTFSS  FD8.2
06AE6:  BRA    6CB8
....................        
....................       if(visual==1) 
06AE8:  BTFSS  xDA.2
06AEA:  BRA    6C40
....................       { 
....................          glcd_imagen(2); //Guante 
06AEC:  MOVLW  02
06AEE:  MOVLB  7
06AF0:  MOVWF  x2D
06AF2:  MOVLB  0
06AF4:  CALL   3696
....................          strcpy(Menus.Letra,"Caucho"); 
06AF8:  MOVLW  07
06AFA:  MOVWF  FEA
06AFC:  MOVLW  09
06AFE:  MOVWF  FE9
06B00:  MOVFF  FF2,72D
06B04:  BCF    FF2.7
06B06:  MOVLW  00
06B08:  CALL   0902
06B0C:  TBLRD*-
06B0E:  TBLRD*+
06B10:  MOVF   FF5,W
06B12:  MOVWF  FEE
06B14:  IORLW  00
06B16:  BNZ   6B0E
06B18:  MOVLB  7
06B1A:  BTFSC  x2D.7
06B1C:  BSF    FF2.7
....................          displayMenu(Menus.Letra,20,0,1,2); 
06B1E:  MOVLW  07
06B20:  MOVWF  x2E
06B22:  MOVLW  09
06B24:  MOVWF  x2D
06B26:  MOVLW  14
06B28:  MOVWF  x2F
06B2A:  CLRF   x30
06B2C:  MOVLW  01
06B2E:  MOVWF  x31
06B30:  MOVLW  02
06B32:  MOVWF  x32
06B34:  MOVLB  0
06B36:  CALL   225C
....................          
....................          strcpy(Menus.Letra,"Caucho"); 
06B3A:  MOVLW  07
06B3C:  MOVWF  FEA
06B3E:  MOVLW  09
06B40:  MOVWF  FE9
06B42:  MOVFF  FF2,72D
06B46:  BCF    FF2.7
06B48:  MOVLW  00
06B4A:  CALL   0902
06B4E:  TBLRD*-
06B50:  TBLRD*+
06B52:  MOVF   FF5,W
06B54:  MOVWF  FEE
06B56:  IORLW  00
06B58:  BNZ   6B50
06B5A:  MOVLB  7
06B5C:  BTFSC  x2D.7
06B5E:  BSF    FF2.7
....................          displayMenu(Menus.Letra,7,55,0,1); 
06B60:  MOVLW  07
06B62:  MOVWF  x2E
06B64:  MOVLW  09
06B66:  MOVWF  x2D
06B68:  MOVLW  07
06B6A:  MOVWF  x2F
06B6C:  MOVLW  37
06B6E:  MOVWF  x30
06B70:  CLRF   x31
06B72:  MOVLW  01
06B74:  MOVWF  x32
06B76:  MOVLB  0
06B78:  CALL   225C
....................           
....................          strcpy(Menus.Letra,"Temperatura:121 C"); 
06B7C:  MOVLW  07
06B7E:  MOVWF  FEA
06B80:  MOVLW  09
06B82:  MOVWF  FE9
06B84:  MOVFF  FF2,72D
06B88:  BCF    FF2.7
06B8A:  MOVLW  00
06B8C:  CALL   0A64
06B90:  TBLRD*-
06B92:  TBLRD*+
06B94:  MOVF   FF5,W
06B96:  MOVWF  FEE
06B98:  IORLW  00
06B9A:  BNZ   6B92
06B9C:  MOVLB  7
06B9E:  BTFSC  x2D.7
06BA0:  BSF    FF2.7
....................          displayMenu(Menus.Letra,0,26,0,1); 
06BA2:  MOVLW  07
06BA4:  MOVWF  x2E
06BA6:  MOVLW  09
06BA8:  MOVWF  x2D
06BAA:  CLRF   x2F
06BAC:  MOVLW  1A
06BAE:  MOVWF  x30
06BB0:  CLRF   x31
06BB2:  MOVLW  01
06BB4:  MOVWF  x32
06BB6:  MOVLB  0
06BB8:  CALL   225C
....................          strcpy(Menus.Letra,"T. Esterilizacion:15m"); 
06BBC:  MOVLW  07
06BBE:  MOVWF  FEA
06BC0:  MOVLW  09
06BC2:  MOVWF  FE9
06BC4:  MOVFF  FF2,72D
06BC8:  BCF    FF2.7
06BCA:  MOVLW  00
06BCC:  CALL   0A94
06BD0:  TBLRD*-
06BD2:  TBLRD*+
06BD4:  MOVF   FF5,W
06BD6:  MOVWF  FEE
06BD8:  IORLW  00
06BDA:  BNZ   6BD2
06BDC:  MOVLB  7
06BDE:  BTFSC  x2D.7
06BE0:  BSF    FF2.7
....................          displayMenu(Menus.Letra,0,36,0,1); 
06BE2:  MOVLW  07
06BE4:  MOVWF  x2E
06BE6:  MOVLW  09
06BE8:  MOVWF  x2D
06BEA:  CLRF   x2F
06BEC:  MOVLW  24
06BEE:  MOVWF  x30
06BF0:  CLRF   x31
06BF2:  MOVLW  01
06BF4:  MOVWF  x32
06BF6:  MOVLB  0
06BF8:  CALL   225C
....................          strcpy(Menus.Letra,"T. Secado= 15m"); 
06BFC:  MOVLW  07
06BFE:  MOVWF  FEA
06C00:  MOVLW  09
06C02:  MOVWF  FE9
06C04:  MOVFF  FF2,72D
06C08:  BCF    FF2.7
06C0A:  MOVLW  00
06C0C:  CALL   0AC8
06C10:  TBLRD*-
06C12:  TBLRD*+
06C14:  MOVF   FF5,W
06C16:  MOVWF  FEE
06C18:  IORLW  00
06C1A:  BNZ   6C12
06C1C:  MOVLB  7
06C1E:  BTFSC  x2D.7
06C20:  BSF    FF2.7
....................          displayMenu(Menus.Letra,0,46,0,1); 
06C22:  MOVLW  07
06C24:  MOVWF  x2E
06C26:  MOVLW  09
06C28:  MOVWF  x2D
06C2A:  CLRF   x2F
06C2C:  MOVLW  2E
06C2E:  MOVWF  x30
06C30:  CLRF   x31
06C32:  MOVLW  01
06C34:  MOVWF  x32
06C36:  MOVLB  0
06C38:  CALL   225C
....................          visual=0; 
06C3C:  MOVLB  6
06C3E:  BCF    xDA.2
....................       } 
....................        
....................       if(LEFT)// Si oprime Izquier|da 
06C40:  BSF    F96.1
06C42:  BTFSC  F84.1
06C44:  BRA    6C66
....................       {  
....................          delay_ms(30);Menu=1;glcd_fillScreen(OFF);visual=1; 
06C46:  MOVLW  1E
06C48:  MOVLB  7
06C4A:  MOVWF  x33
06C4C:  MOVLB  0
06C4E:  CALL   174A
06C52:  MOVLW  01
06C54:  MOVLB  6
06C56:  MOVWF  xDE
06C58:  MOVLB  7
06C5A:  CLRF   x2E
06C5C:  MOVLB  0
06C5E:  CALL   1C2E
06C62:  MOVLB  6
06C64:  BSF    xDA.2
....................       } 
....................  
....................       if(RIGHT)// Si oprime derecha 
06C66:  BSF    F96.0
06C68:  BTFSC  F84.0
06C6A:  BRA    6CB8
....................       { 
....................          Testerilizacionp[0]=0;Testerilizacionp[1]=0;Testerilizacionp[2]=5;Testerilizacionp[3]=1; 
06C6C:  MOVLB  4
06C6E:  CLRF   x6E
06C70:  CLRF   x6F
06C72:  MOVLW  05
06C74:  MOVWF  x70
06C76:  MOVLW  01
06C78:  MOVWF  x71
....................          visual=1; 
06C7A:  MOVLB  6
06C7C:  BSF    xDA.2
....................          Tsecadop[0]=0;Tsecadop[1]=0;Tsecadop[2]=5;Tsecadop[3]=1; 
06C7E:  MOVLB  4
06C80:  CLRF   x76
06C82:  CLRF   x77
06C84:  MOVLW  05
06C86:  MOVWF  x78
06C88:  MOVLW  01
06C8A:  MOVWF  x79
....................          Setpoint=121; 
06C8C:  MOVLW  79
06C8E:  MOVLB  6
06C90:  MOVWF  xE3
....................          Menu=20; 
06C92:  MOVLW  14
06C94:  MOVWF  xDE
....................          tiempo_secado=0; 
06C96:  CLRF   xE6
....................          glcd_fillScreen(OFF); 
06C98:  MOVLB  7
06C9A:  CLRF   x2E
06C9C:  MOVLB  0
06C9E:  CALL   1C2E
....................          CuadroCalentando(ON); 
06CA2:  MOVLW  01
06CA4:  MOVLB  7
06CA6:  MOVWF  x2D
06CA8:  MOVLB  0
06CAA:  CALL   3746
....................          desfoguelento=0; 
06CAE:  MOVLB  6
06CB0:  BCF    xDA.3
....................          IniciaCiclo=ON; 
06CB2:  MOVLB  4
06CB4:  BSF    x5E.0
06CB6:  MOVLB  6
....................       } 
....................      
....................     }     
.................... //_--------------------------------------------------------------------------------------------------------------------------------------------------------     
....................  
.................... //_--------------------------------------------------------------------------------------------------------------------------------------------------------       
....................       if(Menu==5){ // Menu de Liquido       
06CB8:  MOVF   xDE,W
06CBA:  SUBLW  05
06CBC:  BTFSS  FD8.2
06CBE:  BRA    6E8C
....................        
....................       if(visual==1) 
06CC0:  BTFSS  xDA.2
06CC2:  BRA    6E1A
....................       { 
....................          glcd_imagen(4); //ErlenMeyer con Liquido 
06CC4:  MOVLW  04
06CC6:  MOVLB  7
06CC8:  MOVWF  x2D
06CCA:  MOVLB  0
06CCC:  CALL   3696
....................          strcpy(Menus.Letra,"Liquidos"); 
06CD0:  MOVLW  07
06CD2:  MOVWF  FEA
06CD4:  MOVLW  09
06CD6:  MOVWF  FE9
06CD8:  MOVFF  FF2,72D
06CDC:  BCF    FF2.7
06CDE:  MOVLW  00
06CE0:  CALL   0928
06CE4:  TBLRD*-
06CE6:  TBLRD*+
06CE8:  MOVF   FF5,W
06CEA:  MOVWF  FEE
06CEC:  IORLW  00
06CEE:  BNZ   6CE6
06CF0:  MOVLB  7
06CF2:  BTFSC  x2D.7
06CF4:  BSF    FF2.7
....................          displayMenu(Menus.Letra,20,0,1,2); 
06CF6:  MOVLW  07
06CF8:  MOVWF  x2E
06CFA:  MOVLW  09
06CFC:  MOVWF  x2D
06CFE:  MOVLW  14
06D00:  MOVWF  x2F
06D02:  CLRF   x30
06D04:  MOVLW  01
06D06:  MOVWF  x31
06D08:  MOVLW  02
06D0A:  MOVWF  x32
06D0C:  MOVLB  0
06D0E:  CALL   225C
....................        
....................          strcpy(Menus.Letra,"Liquidos"); 
06D12:  MOVLW  07
06D14:  MOVWF  FEA
06D16:  MOVLW  09
06D18:  MOVWF  FE9
06D1A:  MOVFF  FF2,72D
06D1E:  BCF    FF2.7
06D20:  MOVLW  00
06D22:  CALL   0928
06D26:  TBLRD*-
06D28:  TBLRD*+
06D2A:  MOVF   FF5,W
06D2C:  MOVWF  FEE
06D2E:  IORLW  00
06D30:  BNZ   6D28
06D32:  MOVLB  7
06D34:  BTFSC  x2D.7
06D36:  BSF    FF2.7
....................          displayMenu(Menus.Letra,7,55,2,1); 
06D38:  MOVLW  07
06D3A:  MOVWF  x2E
06D3C:  MOVLW  09
06D3E:  MOVWF  x2D
06D40:  MOVLW  07
06D42:  MOVWF  x2F
06D44:  MOVLW  37
06D46:  MOVWF  x30
06D48:  MOVLW  02
06D4A:  MOVWF  x31
06D4C:  MOVLW  01
06D4E:  MOVWF  x32
06D50:  MOVLB  0
06D52:  CALL   225C
....................           
....................          strcpy(Menus.Letra,"Temperatura:121 C"); 
06D56:  MOVLW  07
06D58:  MOVWF  FEA
06D5A:  MOVLW  09
06D5C:  MOVWF  FE9
06D5E:  MOVFF  FF2,72D
06D62:  BCF    FF2.7
06D64:  MOVLW  00
06D66:  CALL   0A64
06D6A:  TBLRD*-
06D6C:  TBLRD*+
06D6E:  MOVF   FF5,W
06D70:  MOVWF  FEE
06D72:  IORLW  00
06D74:  BNZ   6D6C
06D76:  MOVLB  7
06D78:  BTFSC  x2D.7
06D7A:  BSF    FF2.7
....................          displayMenu(Menus.Letra,0,26,0,1); 
06D7C:  MOVLW  07
06D7E:  MOVWF  x2E
06D80:  MOVLW  09
06D82:  MOVWF  x2D
06D84:  CLRF   x2F
06D86:  MOVLW  1A
06D88:  MOVWF  x30
06D8A:  CLRF   x31
06D8C:  MOVLW  01
06D8E:  MOVWF  x32
06D90:  MOVLB  0
06D92:  CALL   225C
....................          strcpy(Menus.Letra,"T. Esterilizacion:20m"); 
06D96:  MOVLW  07
06D98:  MOVWF  FEA
06D9A:  MOVLW  09
06D9C:  MOVWF  FE9
06D9E:  MOVFF  FF2,72D
06DA2:  BCF    FF2.7
06DA4:  MOVLW  00
06DA6:  CALL   0AF6
06DAA:  TBLRD*-
06DAC:  TBLRD*+
06DAE:  MOVF   FF5,W
06DB0:  MOVWF  FEE
06DB2:  IORLW  00
06DB4:  BNZ   6DAC
06DB6:  MOVLB  7
06DB8:  BTFSC  x2D.7
06DBA:  BSF    FF2.7
....................          displayMenu(Menus.Letra,0,36,0,1); 
06DBC:  MOVLW  07
06DBE:  MOVWF  x2E
06DC0:  MOVLW  09
06DC2:  MOVWF  x2D
06DC4:  CLRF   x2F
06DC6:  MOVLW  24
06DC8:  MOVWF  x30
06DCA:  CLRF   x31
06DCC:  MOVLW  01
06DCE:  MOVWF  x32
06DD0:  MOVLB  0
06DD2:  CALL   225C
....................          strcpy(Menus.Letra,"T. Secado= N/A"); 
06DD6:  MOVLW  07
06DD8:  MOVWF  FEA
06DDA:  MOVLW  09
06DDC:  MOVWF  FE9
06DDE:  MOVFF  FF2,72D
06DE2:  BCF    FF2.7
06DE4:  MOVLW  00
06DE6:  CALL   0B2A
06DEA:  TBLRD*-
06DEC:  TBLRD*+
06DEE:  MOVF   FF5,W
06DF0:  MOVWF  FEE
06DF2:  IORLW  00
06DF4:  BNZ   6DEC
06DF6:  MOVLB  7
06DF8:  BTFSC  x2D.7
06DFA:  BSF    FF2.7
....................          displayMenu(Menus.Letra,0,46,0,1);     
06DFC:  MOVLW  07
06DFE:  MOVWF  x2E
06E00:  MOVLW  09
06E02:  MOVWF  x2D
06E04:  CLRF   x2F
06E06:  MOVLW  2E
06E08:  MOVWF  x30
06E0A:  CLRF   x31
06E0C:  MOVLW  01
06E0E:  MOVWF  x32
06E10:  MOVLB  0
06E12:  CALL   225C
....................          visual=0; 
06E16:  MOVLB  6
06E18:  BCF    xDA.2
....................       }    
....................           
....................       if(LEFT)// Si oprime Izquier|da 
06E1A:  BSF    F96.1
06E1C:  BTFSC  F84.1
06E1E:  BRA    6E40
....................       {  
....................          delay_ms(30);Menu=1;glcd_fillScreen(OFF);visual=1; 
06E20:  MOVLW  1E
06E22:  MOVLB  7
06E24:  MOVWF  x33
06E26:  MOVLB  0
06E28:  CALL   174A
06E2C:  MOVLW  01
06E2E:  MOVLB  6
06E30:  MOVWF  xDE
06E32:  MOVLB  7
06E34:  CLRF   x2E
06E36:  MOVLB  0
06E38:  CALL   1C2E
06E3C:  MOVLB  6
06E3E:  BSF    xDA.2
....................       }                
....................  
....................       if(RIGHT)// Si oprime derecha 
06E40:  BSF    F96.0
06E42:  BTFSC  F84.0
06E44:  BRA    6E8C
....................       { 
....................          Testerilizacionp[0]=0;Testerilizacionp[1]=0;Testerilizacionp[2]=0;Testerilizacionp[3]=2; 
06E46:  MOVLB  4
06E48:  CLRF   x6E
06E4A:  CLRF   x6F
06E4C:  CLRF   x70
06E4E:  MOVLW  02
06E50:  MOVWF  x71
....................          desfoguelento=1;visual=1; 
06E52:  MOVLB  6
06E54:  BSF    xDA.3
06E56:  BSF    xDA.2
....................          Tsecadop[0]=0;Tsecadop[1]=0;Tsecadop[2]=0;Tsecadop[3]=0; 
06E58:  MOVLB  4
06E5A:  CLRF   x76
06E5C:  CLRF   x77
06E5E:  CLRF   x78
06E60:  CLRF   x79
....................          Setpoint=121;Menu=14; 
06E62:  MOVLW  79
06E64:  MOVLB  6
06E66:  MOVWF  xE3
06E68:  MOVLW  0E
06E6A:  MOVWF  xDE
....................          delay_ms(700);glcd_fillScreen(OFF); 
06E6C:  MOVLW  04
06E6E:  MOVLB  7
06E70:  MOVWF  x2D
06E72:  MOVLW  AF
06E74:  MOVWF  x33
06E76:  MOVLB  0
06E78:  CALL   174A
06E7C:  MOVLB  7
06E7E:  DECFSZ x2D,F
06E80:  BRA    6E72
06E82:  CLRF   x2E
06E84:  MOVLB  0
06E86:  CALL   1C2E
06E8A:  MOVLB  6
....................       } 
....................     }     
.................... //_--------------------------------------------------------------------------------------------------------------------------------------------------------     
....................  
.................... //_--------------------------------------------------------------------------------------------------------------------------------------------------------       
....................       if(Menu==6){ // Menu de Instrumental Suave      
06E8C:  MOVF   xDE,W
06E8E:  SUBLW  06
06E90:  BTFSS  FD8.2
06E92:  BRA    7060
....................        
....................       if(visual==1) 
06E94:  BTFSS  xDA.2
06E96:  BRA    6FEC
....................       { 
....................          glcd_imagen(3); //Erlen Meyer 
06E98:  MOVLW  03
06E9A:  MOVLB  7
06E9C:  MOVWF  x2D
06E9E:  MOVLB  0
06EA0:  CALL   3696
....................           
....................          strcpy(Menus.Letra,"Ins. Suave"); 
06EA4:  MOVLW  07
06EA6:  MOVWF  FEA
06EA8:  MOVLW  09
06EAA:  MOVWF  FE9
06EAC:  MOVFF  FF2,72D
06EB0:  BCF    FF2.7
06EB2:  MOVLW  00
06EB4:  CALL   0B58
06EB8:  TBLRD*-
06EBA:  TBLRD*+
06EBC:  MOVF   FF5,W
06EBE:  MOVWF  FEE
06EC0:  IORLW  00
06EC2:  BNZ   6EBA
06EC4:  MOVLB  7
06EC6:  BTFSC  x2D.7
06EC8:  BSF    FF2.7
....................          displayMenu(Menus.Letra,0,0,1,2); 
06ECA:  MOVLW  07
06ECC:  MOVWF  x2E
06ECE:  MOVLW  09
06ED0:  MOVWF  x2D
06ED2:  CLRF   x2F
06ED4:  CLRF   x30
06ED6:  MOVLW  01
06ED8:  MOVWF  x31
06EDA:  MOVLW  02
06EDC:  MOVWF  x32
06EDE:  MOVLB  0
06EE0:  CALL   225C
....................           
....................          strcpy(Menus.Letra,"Instrumental Suave"); 
06EE4:  MOVLW  07
06EE6:  MOVWF  FEA
06EE8:  MOVLW  09
06EEA:  MOVWF  FE9
06EEC:  MOVFF  FF2,72D
06EF0:  BCF    FF2.7
06EF2:  MOVLW  00
06EF4:  CALL   0950
06EF8:  TBLRD*-
06EFA:  TBLRD*+
06EFC:  MOVF   FF5,W
06EFE:  MOVWF  FEE
06F00:  IORLW  00
06F02:  BNZ   6EFA
06F04:  MOVLB  7
06F06:  BTFSC  x2D.7
06F08:  BSF    FF2.7
....................          displayMenu(Menus.Letra,7,55,2,1); 
06F0A:  MOVLW  07
06F0C:  MOVWF  x2E
06F0E:  MOVLW  09
06F10:  MOVWF  x2D
06F12:  MOVLW  07
06F14:  MOVWF  x2F
06F16:  MOVLW  37
06F18:  MOVWF  x30
06F1A:  MOVLW  02
06F1C:  MOVWF  x31
06F1E:  MOVLW  01
06F20:  MOVWF  x32
06F22:  MOVLB  0
06F24:  CALL   225C
....................           
....................          strcpy(Menus.Letra,"Temperatura:121 C"); 
06F28:  MOVLW  07
06F2A:  MOVWF  FEA
06F2C:  MOVLW  09
06F2E:  MOVWF  FE9
06F30:  MOVFF  FF2,72D
06F34:  BCF    FF2.7
06F36:  MOVLW  00
06F38:  CALL   0A64
06F3C:  TBLRD*-
06F3E:  TBLRD*+
06F40:  MOVF   FF5,W
06F42:  MOVWF  FEE
06F44:  IORLW  00
06F46:  BNZ   6F3E
06F48:  MOVLB  7
06F4A:  BTFSC  x2D.7
06F4C:  BSF    FF2.7
....................          displayMenu(Menus.Letra,0,26,0,1); 
06F4E:  MOVLW  07
06F50:  MOVWF  x2E
06F52:  MOVLW  09
06F54:  MOVWF  x2D
06F56:  CLRF   x2F
06F58:  MOVLW  1A
06F5A:  MOVWF  x30
06F5C:  CLRF   x31
06F5E:  MOVLW  01
06F60:  MOVWF  x32
06F62:  MOVLB  0
06F64:  CALL   225C
....................          strcpy(Menus.Letra,"T. Esterilizacion:15m"); 
06F68:  MOVLW  07
06F6A:  MOVWF  FEA
06F6C:  MOVLW  09
06F6E:  MOVWF  FE9
06F70:  MOVFF  FF2,72D
06F74:  BCF    FF2.7
06F76:  MOVLW  00
06F78:  CALL   0A94
06F7C:  TBLRD*-
06F7E:  TBLRD*+
06F80:  MOVF   FF5,W
06F82:  MOVWF  FEE
06F84:  IORLW  00
06F86:  BNZ   6F7E
06F88:  MOVLB  7
06F8A:  BTFSC  x2D.7
06F8C:  BSF    FF2.7
....................          displayMenu(Menus.Letra,0,36,0,1); 
06F8E:  MOVLW  07
06F90:  MOVWF  x2E
06F92:  MOVLW  09
06F94:  MOVWF  x2D
06F96:  CLRF   x2F
06F98:  MOVLW  24
06F9A:  MOVWF  x30
06F9C:  CLRF   x31
06F9E:  MOVLW  01
06FA0:  MOVWF  x32
06FA2:  MOVLB  0
06FA4:  CALL   225C
....................          strcpy(Menus.Letra,"T. Secado= N/A"); 
06FA8:  MOVLW  07
06FAA:  MOVWF  FEA
06FAC:  MOVLW  09
06FAE:  MOVWF  FE9
06FB0:  MOVFF  FF2,72D
06FB4:  BCF    FF2.7
06FB6:  MOVLW  00
06FB8:  CALL   0B2A
06FBC:  TBLRD*-
06FBE:  TBLRD*+
06FC0:  MOVF   FF5,W
06FC2:  MOVWF  FEE
06FC4:  IORLW  00
06FC6:  BNZ   6FBE
06FC8:  MOVLB  7
06FCA:  BTFSC  x2D.7
06FCC:  BSF    FF2.7
....................          displayMenu(Menus.Letra,0,46,0,1);            
06FCE:  MOVLW  07
06FD0:  MOVWF  x2E
06FD2:  MOVLW  09
06FD4:  MOVWF  x2D
06FD6:  CLRF   x2F
06FD8:  MOVLW  2E
06FDA:  MOVWF  x30
06FDC:  CLRF   x31
06FDE:  MOVLW  01
06FE0:  MOVWF  x32
06FE2:  MOVLB  0
06FE4:  CALL   225C
....................          visual=0; 
06FE8:  MOVLB  6
06FEA:  BCF    xDA.2
....................       } 
....................  
....................       if(LEFT)// Si oprime Izquier|da 
06FEC:  BSF    F96.1
06FEE:  BTFSC  F84.1
06FF0:  BRA    7012
....................       {  
....................          delay_ms(30);Menu=1;glcd_fillScreen(OFF);visual=1; 
06FF2:  MOVLW  1E
06FF4:  MOVLB  7
06FF6:  MOVWF  x33
06FF8:  MOVLB  0
06FFA:  CALL   174A
06FFE:  MOVLW  01
07000:  MOVLB  6
07002:  MOVWF  xDE
07004:  MOVLB  7
07006:  CLRF   x2E
07008:  MOVLB  0
0700A:  CALL   1C2E
0700E:  MOVLB  6
07010:  BSF    xDA.2
....................       }             
....................  
....................       if(RIGHT)// Si oprime derecha 
07012:  BSF    F96.0
07014:  BTFSC  F84.0
07016:  BRA    7060
....................       { 
....................          Testerilizacionp[0]=0;Testerilizacionp[1]=0;Testerilizacionp[2]=5;Testerilizacionp[3]=1; 
07018:  MOVLB  4
0701A:  CLRF   x6E
0701C:  CLRF   x6F
0701E:  MOVLW  05
07020:  MOVWF  x70
07022:  MOVLW  01
07024:  MOVWF  x71
....................          desfoguelento=1;visual=1; 
07026:  MOVLB  6
07028:  BSF    xDA.3
0702A:  BSF    xDA.2
....................          Tsecadop[0]=0;Tsecadop[1]=0;Tsecadop[2]=0;Tsecadop[3]=0; 
0702C:  MOVLB  4
0702E:  CLRF   x76
07030:  CLRF   x77
07032:  CLRF   x78
07034:  CLRF   x79
....................          Setpoint=121;Menu=14;delay_ms(700);glcd_fillScreen(OFF); 
07036:  MOVLW  79
07038:  MOVLB  6
0703A:  MOVWF  xE3
0703C:  MOVLW  0E
0703E:  MOVWF  xDE
07040:  MOVLW  04
07042:  MOVLB  7
07044:  MOVWF  x2D
07046:  MOVLW  AF
07048:  MOVWF  x33
0704A:  MOVLB  0
0704C:  CALL   174A
07050:  MOVLB  7
07052:  DECFSZ x2D,F
07054:  BRA    7046
07056:  CLRF   x2E
07058:  MOVLB  0
0705A:  CALL   1C2E
0705E:  MOVLB  6
....................       } 
....................      
....................     }     
.................... //_--------------------------------------------------------------------------------------------------------------------------------------------------------     
....................  
....................  //_-------------------------------------------------------------------------------------------------------------------------------------------------------- 
....................       if(Menu==7){ // Menu de textil e instrumental      
07060:  MOVF   xDE,W
07062:  SUBLW  07
07064:  BTFSS  FD8.2
07066:  BRA    7234
....................        
....................       if(visual==1) 
07068:  BTFSS  xDA.2
0706A:  BRA    71BE
....................       { 
....................          glcd_imagen(1); //Tijeras y Camisa 
0706C:  MOVLW  01
0706E:  MOVLB  7
07070:  MOVWF  x2D
07072:  MOVLB  0
07074:  CALL   3696
....................          strcpy(Menus.Letra,"Tex & Ins"); 
07078:  MOVLW  07
0707A:  MOVWF  FEA
0707C:  MOVLW  09
0707E:  MOVWF  FE9
07080:  MOVFF  FF2,72D
07084:  BCF    FF2.7
07086:  MOVLW  00
07088:  CALL   0B82
0708C:  TBLRD*-
0708E:  TBLRD*+
07090:  MOVF   FF5,W
07092:  MOVWF  FEE
07094:  IORLW  00
07096:  BNZ   708E
07098:  MOVLB  7
0709A:  BTFSC  x2D.7
0709C:  BSF    FF2.7
....................          displayMenu(Menus.Letra,0,0,1,2); 
0709E:  MOVLW  07
070A0:  MOVWF  x2E
070A2:  MOVLW  09
070A4:  MOVWF  x2D
070A6:  CLRF   x2F
070A8:  CLRF   x30
070AA:  MOVLW  01
070AC:  MOVWF  x31
070AE:  MOVLW  02
070B0:  MOVWF  x32
070B2:  MOVLB  0
070B4:  CALL   225C
....................        
....................          strcpy(Menus.Letra,"Textil e Instrumental"); 
070B8:  MOVLW  07
070BA:  MOVWF  FEA
070BC:  MOVLW  09
070BE:  MOVWF  FE9
070C0:  MOVFF  FF2,72D
070C4:  BCF    FF2.7
070C6:  MOVLW  00
070C8:  CALL   0982
070CC:  TBLRD*-
070CE:  TBLRD*+
070D0:  MOVF   FF5,W
070D2:  MOVWF  FEE
070D4:  IORLW  00
070D6:  BNZ   70CE
070D8:  MOVLB  7
070DA:  BTFSC  x2D.7
070DC:  BSF    FF2.7
....................          displayMenu(Menus.Letra,0,55,2,1); 
070DE:  MOVLW  07
070E0:  MOVWF  x2E
070E2:  MOVLW  09
070E4:  MOVWF  x2D
070E6:  CLRF   x2F
070E8:  MOVLW  37
070EA:  MOVWF  x30
070EC:  MOVLW  02
070EE:  MOVWF  x31
070F0:  MOVLW  01
070F2:  MOVWF  x32
070F4:  MOVLB  0
070F6:  CALL   225C
....................           
....................          strcpy(Menus.Letra,"Temperatura:121 C"); 
070FA:  MOVLW  07
070FC:  MOVWF  FEA
070FE:  MOVLW  09
07100:  MOVWF  FE9
07102:  MOVFF  FF2,72D
07106:  BCF    FF2.7
07108:  MOVLW  00
0710A:  CALL   0A64
0710E:  TBLRD*-
07110:  TBLRD*+
07112:  MOVF   FF5,W
07114:  MOVWF  FEE
07116:  IORLW  00
07118:  BNZ   7110
0711A:  MOVLB  7
0711C:  BTFSC  x2D.7
0711E:  BSF    FF2.7
....................          displayMenu(Menus.Letra,0,26,0,1); 
07120:  MOVLW  07
07122:  MOVWF  x2E
07124:  MOVLW  09
07126:  MOVWF  x2D
07128:  CLRF   x2F
0712A:  MOVLW  1A
0712C:  MOVWF  x30
0712E:  CLRF   x31
07130:  MOVLW  01
07132:  MOVWF  x32
07134:  MOVLB  0
07136:  CALL   225C
....................          strcpy(Menus.Letra,"T. Esterilizacion:25m"); 
0713A:  MOVLW  07
0713C:  MOVWF  FEA
0713E:  MOVLW  09
07140:  MOVWF  FE9
07142:  MOVFF  FF2,72D
07146:  BCF    FF2.7
07148:  MOVLW  00
0714A:  CALL   0BAA
0714E:  TBLRD*-
07150:  TBLRD*+
07152:  MOVF   FF5,W
07154:  MOVWF  FEE
07156:  IORLW  00
07158:  BNZ   7150
0715A:  MOVLB  7
0715C:  BTFSC  x2D.7
0715E:  BSF    FF2.7
....................          displayMenu(Menus.Letra,0,36,0,1); 
07160:  MOVLW  07
07162:  MOVWF  x2E
07164:  MOVLW  09
07166:  MOVWF  x2D
07168:  CLRF   x2F
0716A:  MOVLW  24
0716C:  MOVWF  x30
0716E:  CLRF   x31
07170:  MOVLW  01
07172:  MOVWF  x32
07174:  MOVLB  0
07176:  CALL   225C
....................          strcpy(Menus.Letra,"T. Secado= 10m"); 
0717A:  MOVLW  07
0717C:  MOVWF  FEA
0717E:  MOVLW  09
07180:  MOVWF  FE9
07182:  MOVFF  FF2,72D
07186:  BCF    FF2.7
07188:  MOVLW  00
0718A:  CALL   0BDE
0718E:  TBLRD*-
07190:  TBLRD*+
07192:  MOVF   FF5,W
07194:  MOVWF  FEE
07196:  IORLW  00
07198:  BNZ   7190
0719A:  MOVLB  7
0719C:  BTFSC  x2D.7
0719E:  BSF    FF2.7
....................          displayMenu(Menus.Letra,0,46,0,1);            
071A0:  MOVLW  07
071A2:  MOVWF  x2E
071A4:  MOVLW  09
071A6:  MOVWF  x2D
071A8:  CLRF   x2F
071AA:  MOVLW  2E
071AC:  MOVWF  x30
071AE:  CLRF   x31
071B0:  MOVLW  01
071B2:  MOVWF  x32
071B4:  MOVLB  0
071B6:  CALL   225C
....................          visual=0; 
071BA:  MOVLB  6
071BC:  BCF    xDA.2
....................       } 
....................  
....................       if(LEFT)// Si oprime Izquier|da 
071BE:  BSF    F96.1
071C0:  BTFSC  F84.1
071C2:  BRA    71E4
....................       {  
....................          delay_ms(30);Menu=1;glcd_fillScreen(OFF);visual=1; 
071C4:  MOVLW  1E
071C6:  MOVLB  7
071C8:  MOVWF  x33
071CA:  MOVLB  0
071CC:  CALL   174A
071D0:  MOVLW  01
071D2:  MOVLB  6
071D4:  MOVWF  xDE
071D6:  MOVLB  7
071D8:  CLRF   x2E
071DA:  MOVLB  0
071DC:  CALL   1C2E
071E0:  MOVLB  6
071E2:  BSF    xDA.2
....................       }                  
....................  
....................       if(RIGHT)// Si oprime derecha 
071E4:  BSF    F96.0
071E6:  BTFSC  F84.0
071E8:  BRA    7234
....................       { 
....................          Testerilizacionp[0]=0;Testerilizacionp[1]=0;Testerilizacionp[2]=5;Testerilizacionp[3]=2; 
071EA:  MOVLB  4
071EC:  CLRF   x6E
071EE:  CLRF   x6F
071F0:  MOVLW  05
071F2:  MOVWF  x70
071F4:  MOVLW  02
071F6:  MOVWF  x71
....................          visual=1; 
071F8:  MOVLB  6
071FA:  BSF    xDA.2
....................          Tsecadop[0]=0;Tsecadop[1]=0;Tsecadop[2]=0;Tsecadop[3]=1; 
071FC:  MOVLB  4
071FE:  CLRF   x76
07200:  CLRF   x77
07202:  CLRF   x78
07204:  MOVLW  01
07206:  MOVWF  x79
....................          Setpoint=121; 
07208:  MOVLW  79
0720A:  MOVLB  6
0720C:  MOVWF  xE3
....................          Menu=20; 
0720E:  MOVLW  14
07210:  MOVWF  xDE
....................          tiempo_secado=0; 
07212:  CLRF   xE6
....................          glcd_fillScreen(OFF); 
07214:  MOVLB  7
07216:  CLRF   x2E
07218:  MOVLB  0
0721A:  CALL   1C2E
....................          CuadroCalentando(ON); 
0721E:  MOVLW  01
07220:  MOVLB  7
07222:  MOVWF  x2D
07224:  MOVLB  0
07226:  CALL   3746
....................          desfoguelento=0; 
0722A:  MOVLB  6
0722C:  BCF    xDA.3
....................          IniciaCiclo=ON; 
0722E:  MOVLB  4
07230:  BSF    x5E.0
07232:  MOVLB  6
....................       } 
....................      
....................     }     
.................... //_--------------------------------------------------------------------------------------------------------------------------------------------------------     
....................  
.................... //_--------------------------------------------------------------------------------------------------------------------------------------------------------       
....................       if(Menu==8){ // Menu de Proceso Personalizado 
07234:  MOVF   xDE,W
07236:  SUBLW  08
07238:  BTFSS  FD8.2
0723A:  BRA    7622
....................          
....................          if(visual==1) 
0723C:  BTFSS  xDA.2
0723E:  BRA    7564
....................          { 
....................             if(Opcion>5) 
07240:  MOVF   xE4,W
07242:  SUBLW  05
07244:  BC    724A
....................             {Opcion=1;} 
07246:  MOVLW  01
07248:  MOVWF  xE4
....................             if(Opcion<1) 
0724A:  MOVF   xE4,F
0724C:  BNZ   7252
....................             {Opcion=5;} 
0724E:  MOVLW  05
07250:  MOVWF  xE4
....................              
....................             strcpy(Menus.Letra,"Proceso Personalizado"); 
07252:  MOVLW  07
07254:  MOVWF  FEA
07256:  MOVLW  09
07258:  MOVWF  FE9
0725A:  MOVFF  FF2,72D
0725E:  BCF    FF2.7
07260:  MOVLW  00
07262:  MOVLB  0
07264:  CALL   0C0C
07268:  TBLRD*-
0726A:  TBLRD*+
0726C:  MOVF   FF5,W
0726E:  MOVWF  FEE
07270:  IORLW  00
07272:  BNZ   726A
07274:  MOVLB  7
07276:  BTFSC  x2D.7
07278:  BSF    FF2.7
....................             displayMenu(Menus.Letra,0,0,1,1); 
0727A:  MOVLW  07
0727C:  MOVWF  x2E
0727E:  MOVLW  09
07280:  MOVWF  x2D
07282:  CLRF   x2F
07284:  CLRF   x30
07286:  MOVLW  01
07288:  MOVWF  x31
0728A:  MOVWF  x32
0728C:  MOVLB  0
0728E:  CALL   225C
....................        
....................             if(Opcion==1)    
07292:  MOVLB  6
07294:  DECFSZ xE4,W
07296:  BRA    72DE
....................                {strcpy(Menus.Letra,"T. Esterilizacion"); 
07298:  MOVLW  07
0729A:  MOVWF  FEA
0729C:  MOVLW  09
0729E:  MOVWF  FE9
072A0:  MOVFF  FF2,72D
072A4:  BCF    FF2.7
072A6:  MOVLW  00
072A8:  MOVLB  0
072AA:  CALL   0C40
072AE:  TBLRD*-
072B0:  TBLRD*+
072B2:  MOVF   FF5,W
072B4:  MOVWF  FEE
072B6:  IORLW  00
072B8:  BNZ   72B0
072BA:  MOVLB  7
072BC:  BTFSC  x2D.7
072BE:  BSF    FF2.7
....................                displayMenu(Menus.Letra,0,10,1,1);} 
072C0:  MOVLW  07
072C2:  MOVWF  x2E
072C4:  MOVLW  09
072C6:  MOVWF  x2D
072C8:  CLRF   x2F
072CA:  MOVLW  0A
072CC:  MOVWF  x30
072CE:  MOVLW  01
072D0:  MOVWF  x31
072D2:  MOVWF  x32
072D4:  MOVLB  0
072D6:  CALL   225C
....................             else 
072DA:  BRA    7320
072DC:  MOVLB  6
....................                {strcpy(Menus.Letra,"T. Esterilizacion"); 
072DE:  MOVLW  07
072E0:  MOVWF  FEA
072E2:  MOVLW  09
072E4:  MOVWF  FE9
072E6:  MOVFF  FF2,72D
072EA:  BCF    FF2.7
072EC:  MOVLW  00
072EE:  MOVLB  0
072F0:  CALL   0C40
072F4:  TBLRD*-
072F6:  TBLRD*+
072F8:  MOVF   FF5,W
072FA:  MOVWF  FEE
072FC:  IORLW  00
072FE:  BNZ   72F6
07300:  MOVLB  7
07302:  BTFSC  x2D.7
07304:  BSF    FF2.7
....................                displayMenu(Menus.Letra,0,10,0,1);} 
07306:  MOVLW  07
07308:  MOVWF  x2E
0730A:  MOVLW  09
0730C:  MOVWF  x2D
0730E:  CLRF   x2F
07310:  MOVLW  0A
07312:  MOVWF  x30
07314:  CLRF   x31
07316:  MOVLW  01
07318:  MOVWF  x32
0731A:  MOVLB  0
0731C:  CALL   225C
....................              
....................             if(Opcion==2)    
07320:  MOVLB  6
07322:  MOVF   xE4,W
07324:  SUBLW  02
07326:  BNZ   736E
....................                {strcpy(Menus.Letra,"T. Secado"); 
07328:  MOVLW  07
0732A:  MOVWF  FEA
0732C:  MOVLW  09
0732E:  MOVWF  FE9
07330:  MOVFF  FF2,72D
07334:  BCF    FF2.7
07336:  MOVLW  00
07338:  MOVLB  0
0733A:  CALL   0C70
0733E:  TBLRD*-
07340:  TBLRD*+
07342:  MOVF   FF5,W
07344:  MOVWF  FEE
07346:  IORLW  00
07348:  BNZ   7340
0734A:  MOVLB  7
0734C:  BTFSC  x2D.7
0734E:  BSF    FF2.7
....................                displayMenu(Menus.Letra,0,20,1,1);} 
07350:  MOVLW  07
07352:  MOVWF  x2E
07354:  MOVLW  09
07356:  MOVWF  x2D
07358:  CLRF   x2F
0735A:  MOVLW  14
0735C:  MOVWF  x30
0735E:  MOVLW  01
07360:  MOVWF  x31
07362:  MOVWF  x32
07364:  MOVLB  0
07366:  CALL   225C
....................             else 
0736A:  BRA    73B0
0736C:  MOVLB  6
....................                {strcpy(Menus.Letra,"T. Secado"); 
0736E:  MOVLW  07
07370:  MOVWF  FEA
07372:  MOVLW  09
07374:  MOVWF  FE9
07376:  MOVFF  FF2,72D
0737A:  BCF    FF2.7
0737C:  MOVLW  00
0737E:  MOVLB  0
07380:  CALL   0C70
07384:  TBLRD*-
07386:  TBLRD*+
07388:  MOVF   FF5,W
0738A:  MOVWF  FEE
0738C:  IORLW  00
0738E:  BNZ   7386
07390:  MOVLB  7
07392:  BTFSC  x2D.7
07394:  BSF    FF2.7
....................                displayMenu(Menus.Letra,0,20,0,1);}    
07396:  MOVLW  07
07398:  MOVWF  x2E
0739A:  MOVLW  09
0739C:  MOVWF  x2D
0739E:  CLRF   x2F
073A0:  MOVLW  14
073A2:  MOVWF  x30
073A4:  CLRF   x31
073A6:  MOVLW  01
073A8:  MOVWF  x32
073AA:  MOVLB  0
073AC:  CALL   225C
....................                 
....................              if(Opcion==3)    
073B0:  MOVLB  6
073B2:  MOVF   xE4,W
073B4:  SUBLW  03
073B6:  BNZ   73FE
....................                {strcpy(Menus.Letra,"Temperatura"); 
073B8:  MOVLW  07
073BA:  MOVWF  FEA
073BC:  MOVLW  09
073BE:  MOVWF  FE9
073C0:  MOVFF  FF2,72D
073C4:  BCF    FF2.7
073C6:  MOVLW  00
073C8:  MOVLB  0
073CA:  CALL   0C98
073CE:  TBLRD*-
073D0:  TBLRD*+
073D2:  MOVF   FF5,W
073D4:  MOVWF  FEE
073D6:  IORLW  00
073D8:  BNZ   73D0
073DA:  MOVLB  7
073DC:  BTFSC  x2D.7
073DE:  BSF    FF2.7
....................                displayMenu(Menus.Letra,0,30,1,1);} 
073E0:  MOVLW  07
073E2:  MOVWF  x2E
073E4:  MOVLW  09
073E6:  MOVWF  x2D
073E8:  CLRF   x2F
073EA:  MOVLW  1E
073EC:  MOVWF  x30
073EE:  MOVLW  01
073F0:  MOVWF  x31
073F2:  MOVWF  x32
073F4:  MOVLB  0
073F6:  CALL   225C
....................             else 
073FA:  BRA    7440
073FC:  MOVLB  6
....................                {strcpy(Menus.Letra,"Temperatura"); 
073FE:  MOVLW  07
07400:  MOVWF  FEA
07402:  MOVLW  09
07404:  MOVWF  FE9
07406:  MOVFF  FF2,72D
0740A:  BCF    FF2.7
0740C:  MOVLW  00
0740E:  MOVLB  0
07410:  CALL   0C98
07414:  TBLRD*-
07416:  TBLRD*+
07418:  MOVF   FF5,W
0741A:  MOVWF  FEE
0741C:  IORLW  00
0741E:  BNZ   7416
07420:  MOVLB  7
07422:  BTFSC  x2D.7
07424:  BSF    FF2.7
....................                displayMenu(Menus.Letra,0,30,0,1);} 
07426:  MOVLW  07
07428:  MOVWF  x2E
0742A:  MOVLW  09
0742C:  MOVWF  x2D
0742E:  CLRF   x2F
07430:  MOVLW  1E
07432:  MOVWF  x30
07434:  CLRF   x31
07436:  MOVLW  01
07438:  MOVWF  x32
0743A:  MOVLB  0
0743C:  CALL   225C
....................                 
....................             if(Opcion==4)    
07440:  MOVLB  6
07442:  MOVF   xE4,W
07444:  SUBLW  04
07446:  BNZ   748E
....................                {strcpy(Menus.Letra,"Nivel de desfogue"); 
07448:  MOVLW  07
0744A:  MOVWF  FEA
0744C:  MOVLW  09
0744E:  MOVWF  FE9
07450:  MOVFF  FF2,72D
07454:  BCF    FF2.7
07456:  MOVLW  00
07458:  MOVLB  0
0745A:  CALL   0CC2
0745E:  TBLRD*-
07460:  TBLRD*+
07462:  MOVF   FF5,W
07464:  MOVWF  FEE
07466:  IORLW  00
07468:  BNZ   7460
0746A:  MOVLB  7
0746C:  BTFSC  x2D.7
0746E:  BSF    FF2.7
....................                displayMenu(Menus.Letra,0,40,1,1);} 
07470:  MOVLW  07
07472:  MOVWF  x2E
07474:  MOVLW  09
07476:  MOVWF  x2D
07478:  CLRF   x2F
0747A:  MOVLW  28
0747C:  MOVWF  x30
0747E:  MOVLW  01
07480:  MOVWF  x31
07482:  MOVWF  x32
07484:  MOVLB  0
07486:  CALL   225C
....................             else 
0748A:  BRA    74D0
0748C:  MOVLB  6
....................                {strcpy(Menus.Letra,"Nivel de desfogue"); 
0748E:  MOVLW  07
07490:  MOVWF  FEA
07492:  MOVLW  09
07494:  MOVWF  FE9
07496:  MOVFF  FF2,72D
0749A:  BCF    FF2.7
0749C:  MOVLW  00
0749E:  MOVLB  0
074A0:  CALL   0CC2
074A4:  TBLRD*-
074A6:  TBLRD*+
074A8:  MOVF   FF5,W
074AA:  MOVWF  FEE
074AC:  IORLW  00
074AE:  BNZ   74A6
074B0:  MOVLB  7
074B2:  BTFSC  x2D.7
074B4:  BSF    FF2.7
....................                displayMenu(Menus.Letra,0,40,0,1);}    
074B6:  MOVLW  07
074B8:  MOVWF  x2E
074BA:  MOVLW  09
074BC:  MOVWF  x2D
074BE:  CLRF   x2F
074C0:  MOVLW  28
074C2:  MOVWF  x30
074C4:  CLRF   x31
074C6:  MOVLW  01
074C8:  MOVWF  x32
074CA:  MOVLB  0
074CC:  CALL   225C
....................                 
....................             if(Opcion==5)    
074D0:  MOVLB  6
074D2:  MOVF   xE4,W
074D4:  SUBLW  05
074D6:  BNZ   751E
....................                {strcpy(Menus.Letra,"Continuar"); 
074D8:  MOVLW  07
074DA:  MOVWF  FEA
074DC:  MOVLW  09
074DE:  MOVWF  FE9
074E0:  MOVFF  FF2,72D
074E4:  BCF    FF2.7
074E6:  MOVLW  00
074E8:  MOVLB  0
074EA:  CALL   0CF2
074EE:  TBLRD*-
074F0:  TBLRD*+
074F2:  MOVF   FF5,W
074F4:  MOVWF  FEE
074F6:  IORLW  00
074F8:  BNZ   74F0
074FA:  MOVLB  7
074FC:  BTFSC  x2D.7
074FE:  BSF    FF2.7
....................                displayMenu(Menus.Letra,0,50,1,1);} 
07500:  MOVLW  07
07502:  MOVWF  x2E
07504:  MOVLW  09
07506:  MOVWF  x2D
07508:  CLRF   x2F
0750A:  MOVLW  32
0750C:  MOVWF  x30
0750E:  MOVLW  01
07510:  MOVWF  x31
07512:  MOVWF  x32
07514:  MOVLB  0
07516:  CALL   225C
....................             else 
0751A:  BRA    7560
0751C:  MOVLB  6
....................                {strcpy(Menus.Letra,"Continuar"); 
0751E:  MOVLW  07
07520:  MOVWF  FEA
07522:  MOVLW  09
07524:  MOVWF  FE9
07526:  MOVFF  FF2,72D
0752A:  BCF    FF2.7
0752C:  MOVLW  00
0752E:  MOVLB  0
07530:  CALL   0CF2
07534:  TBLRD*-
07536:  TBLRD*+
07538:  MOVF   FF5,W
0753A:  MOVWF  FEE
0753C:  IORLW  00
0753E:  BNZ   7536
07540:  MOVLB  7
07542:  BTFSC  x2D.7
07544:  BSF    FF2.7
....................                displayMenu(Menus.Letra,0,50,0,1);}   
07546:  MOVLW  07
07548:  MOVWF  x2E
0754A:  MOVLW  09
0754C:  MOVWF  x2D
0754E:  CLRF   x2F
07550:  MOVLW  32
07552:  MOVWF  x30
07554:  CLRF   x31
07556:  MOVLW  01
07558:  MOVWF  x32
0755A:  MOVLB  0
0755C:  CALL   225C
....................                           
....................             visual=0; 
07560:  MOVLB  6
07562:  BCF    xDA.2
....................          } 
....................          if(UP)//Si oprime hacia arriba 
07564:  BSF    F92.4
07566:  BTFSC  F80.4
07568:  BRA    7588
....................          {  if(Flanco == 0)  
0756A:  MOVLB  4
0756C:  BTFSC  x5F.7
0756E:  BRA    7586
....................                {Flanco = 1;delay_ms(30);Opcion--;visual=1; 
07570:  BSF    x5F.7
07572:  MOVLW  1E
07574:  MOVLB  7
07576:  MOVWF  x33
07578:  MOVLB  0
0757A:  CALL   174A
0757E:  MOVLB  6
07580:  DECF   xE4,F
07582:  BSF    xDA.2
07584:  MOVLB  4
....................                } 
....................          } 
....................             else 
07586:  BRA    758C
....................                {Flanco = 0;} 
07588:  MOVLB  4
0758A:  BCF    x5F.7
....................                    
....................          if(DOWN)//Si oprime hacia abajo 
0758C:  BSF    F92.5
0758E:  BTFSC  F80.5
07590:  BRA    75AE
....................          {  if(Flanco2 == 0)  
07592:  MOVLB  6
07594:  BTFSC  xDA.1
07596:  BRA    75AC
....................                {Flanco2 = 1;delay_ms(30);Opcion++;visual=1; 
07598:  BSF    xDA.1
0759A:  MOVLW  1E
0759C:  MOVLB  7
0759E:  MOVWF  x33
075A0:  MOVLB  0
075A2:  CALL   174A
075A6:  MOVLB  6
075A8:  INCF   xE4,F
075AA:  BSF    xDA.2
....................                }      
....................          } 
....................             else 
075AC:  BRA    75B2
....................                {Flanco2 = 0;}   
075AE:  MOVLB  6
075B0:  BCF    xDA.1
....................                 
....................          if(RIGHT)//Si oprime SET 
075B2:  BSF    F96.0
075B4:  BTFSC  F84.0
075B6:  BRA    75F0
....................          {  if(Flanco1 == 0)  
075B8:  BTFSC  xDA.0
075BA:  BRA    75EE
....................                {Flanco1 = 1;delay_ms(300);Menu=Opcion+10;Opcion=1;glcd_fillscreen(OFF);visual=1; 
075BC:  BSF    xDA.0
075BE:  MOVLW  02
075C0:  MOVLB  7
075C2:  MOVWF  x2D
075C4:  MOVLW  96
075C6:  MOVWF  x33
075C8:  MOVLB  0
075CA:  CALL   174A
075CE:  MOVLB  7
075D0:  DECFSZ x2D,F
075D2:  BRA    75C4
075D4:  MOVLW  0A
075D6:  MOVLB  6
075D8:  ADDWF  xE4,W
075DA:  MOVWF  xDE
075DC:  MOVLW  01
075DE:  MOVWF  xE4
075E0:  MOVLB  7
075E2:  CLRF   x2E
075E4:  MOVLB  0
075E6:  CALL   1C2E
075EA:  MOVLB  6
075EC:  BSF    xDA.2
....................                } 
....................          } 
....................             else 
075EE:  BRA    75F2
....................                {Flanco1 = 0;}   
075F0:  BCF    xDA.0
....................                 
....................          if(LEFT)//Si oprime boton de Toma. 
075F2:  BSF    F96.1
075F4:  BTFSC  F84.1
075F6:  BRA    7622
....................          {delay_ms(700);Menu=1;glcd_fillscreen(OFF);visual=1;} 
075F8:  MOVLW  04
075FA:  MOVLB  7
075FC:  MOVWF  x2D
075FE:  MOVLW  AF
07600:  MOVWF  x33
07602:  MOVLB  0
07604:  CALL   174A
07608:  MOVLB  7
0760A:  DECFSZ x2D,F
0760C:  BRA    75FE
0760E:  MOVLW  01
07610:  MOVLB  6
07612:  MOVWF  xDE
07614:  MOVLB  7
07616:  CLRF   x2E
07618:  MOVLB  0
0761A:  CALL   1C2E
0761E:  MOVLB  6
07620:  BSF    xDA.2
....................           
....................     }     
.................... //_--------------------------------------------------------------------------------------------------------------------------------------------------------     
....................  
.................... //_--------------------------------------------------------------------------------------------------------------------------------------------------------       
....................       if(Menu==9){ // Menu de Cambio de Contrasea 
07622:  MOVF   xDE,W
07624:  SUBLW  09
07626:  BTFSS  FD8.2
07628:  BRA    7AF0
....................          
....................       strcpy(Menus.Letra,"Clave"); 
0762A:  MOVLW  07
0762C:  MOVWF  FEA
0762E:  MOVLW  09
07630:  MOVWF  FE9
07632:  MOVFF  FF2,72D
07636:  BCF    FF2.7
07638:  MOVLW  00
0763A:  MOVLB  0
0763C:  CALL   085E
07640:  TBLRD*-
07642:  TBLRD*+
07644:  MOVF   FF5,W
07646:  MOVWF  FEE
07648:  IORLW  00
0764A:  BNZ   7642
0764C:  MOVLB  7
0764E:  BTFSC  x2D.7
07650:  BSF    FF2.7
....................       displayMenu(Menus.Letra,30,0,1,2);      
07652:  MOVLW  07
07654:  MOVWF  x2E
07656:  MOVLW  09
07658:  MOVWF  x2D
0765A:  MOVLW  1E
0765C:  MOVWF  x2F
0765E:  CLRF   x30
07660:  MOVLW  01
07662:  MOVWF  x31
07664:  MOVLW  02
07666:  MOVWF  x32
07668:  MOVLB  0
0766A:  CALL   225C
....................        
....................       if(unidad==1) 
0766E:  MOVLB  6
07670:  DECFSZ xDF,W
07672:  BRA    76D2
....................       { 
....................          displayContrasena(Contrasena[0],20,30,1); 
07674:  MOVFF  6F9,72F
07678:  MOVLW  14
0767A:  MOVLB  7
0767C:  MOVWF  x30
0767E:  MOVLW  1E
07680:  MOVWF  x31
07682:  MOVLW  01
07684:  MOVWF  x32
07686:  MOVLB  0
07688:  CALL   2482
....................          displayContrasena(Contrasena[1],40,30,0); 
0768C:  MOVFF  6FA,72F
07690:  MOVLW  28
07692:  MOVLB  7
07694:  MOVWF  x30
07696:  MOVLW  1E
07698:  MOVWF  x31
0769A:  CLRF   x32
0769C:  MOVLB  0
0769E:  CALL   2482
....................          displayContrasena(Contrasena[2],60,30,0); 
076A2:  MOVFF  6FB,72F
076A6:  MOVLW  3C
076A8:  MOVLB  7
076AA:  MOVWF  x30
076AC:  MOVLW  1E
076AE:  MOVWF  x31
076B0:  CLRF   x32
076B2:  MOVLB  0
076B4:  CALL   2482
....................          displayContrasena(Contrasena[3],80,30,0); 
076B8:  MOVFF  6FC,72F
076BC:  MOVLW  50
076BE:  MOVLB  7
076C0:  MOVWF  x30
076C2:  MOVLW  1E
076C4:  MOVWF  x31
076C6:  CLRF   x32
076C8:  MOVLB  0
076CA:  CALL   2482
....................       } 
....................       else 
076CE:  BRA    77FA
076D0:  MOVLB  6
....................       { 
....................          if(unidad==2) 
076D2:  MOVF   xDF,W
076D4:  SUBLW  02
076D6:  BNZ   7736
....................          { 
....................             displayContrasena(Contrasena[0],20,30,0); 
076D8:  MOVFF  6F9,72F
076DC:  MOVLW  14
076DE:  MOVLB  7
076E0:  MOVWF  x30
076E2:  MOVLW  1E
076E4:  MOVWF  x31
076E6:  CLRF   x32
076E8:  MOVLB  0
076EA:  CALL   2482
....................             displayContrasena(Contrasena[1],40,30,1); 
076EE:  MOVFF  6FA,72F
076F2:  MOVLW  28
076F4:  MOVLB  7
076F6:  MOVWF  x30
076F8:  MOVLW  1E
076FA:  MOVWF  x31
076FC:  MOVLW  01
076FE:  MOVWF  x32
07700:  MOVLB  0
07702:  CALL   2482
....................             displayContrasena(Contrasena[2],60,30,0); 
07706:  MOVFF  6FB,72F
0770A:  MOVLW  3C
0770C:  MOVLB  7
0770E:  MOVWF  x30
07710:  MOVLW  1E
07712:  MOVWF  x31
07714:  CLRF   x32
07716:  MOVLB  0
07718:  CALL   2482
....................             displayContrasena(Contrasena[3],80,30,0); 
0771C:  MOVFF  6FC,72F
07720:  MOVLW  50
07722:  MOVLB  7
07724:  MOVWF  x30
07726:  MOVLW  1E
07728:  MOVWF  x31
0772A:  CLRF   x32
0772C:  MOVLB  0
0772E:  CALL   2482
....................          } 
....................          else 
07732:  BRA    77FA
07734:  MOVLB  6
....................          { 
....................             if(unidad==3) 
07736:  MOVF   xDF,W
07738:  SUBLW  03
0773A:  BNZ   779A
....................             { 
....................                displayContrasena(Contrasena[0],20,30,0); 
0773C:  MOVFF  6F9,72F
07740:  MOVLW  14
07742:  MOVLB  7
07744:  MOVWF  x30
07746:  MOVLW  1E
07748:  MOVWF  x31
0774A:  CLRF   x32
0774C:  MOVLB  0
0774E:  CALL   2482
....................                displayContrasena(Contrasena[1],40,30,0); 
07752:  MOVFF  6FA,72F
07756:  MOVLW  28
07758:  MOVLB  7
0775A:  MOVWF  x30
0775C:  MOVLW  1E
0775E:  MOVWF  x31
07760:  CLRF   x32
07762:  MOVLB  0
07764:  CALL   2482
....................                displayContrasena(Contrasena[2],60,30,1); 
07768:  MOVFF  6FB,72F
0776C:  MOVLW  3C
0776E:  MOVLB  7
07770:  MOVWF  x30
07772:  MOVLW  1E
07774:  MOVWF  x31
07776:  MOVLW  01
07778:  MOVWF  x32
0777A:  MOVLB  0
0777C:  CALL   2482
....................                displayContrasena(Contrasena[3],80,30,0); 
07780:  MOVFF  6FC,72F
07784:  MOVLW  50
07786:  MOVLB  7
07788:  MOVWF  x30
0778A:  MOVLW  1E
0778C:  MOVWF  x31
0778E:  CLRF   x32
07790:  MOVLB  0
07792:  CALL   2482
....................             } 
....................             else 
07796:  BRA    77FA
07798:  MOVLB  6
....................             { 
....................                if(unidad==4) 
0779A:  MOVF   xDF,W
0779C:  SUBLW  04
0779E:  BNZ   77FC
....................                { 
....................                   displayContrasena(Contrasena[0],20,30,0); 
077A0:  MOVFF  6F9,72F
077A4:  MOVLW  14
077A6:  MOVLB  7
077A8:  MOVWF  x30
077AA:  MOVLW  1E
077AC:  MOVWF  x31
077AE:  CLRF   x32
077B0:  MOVLB  0
077B2:  CALL   2482
....................                   displayContrasena(Contrasena[1],40,30,0); 
077B6:  MOVFF  6FA,72F
077BA:  MOVLW  28
077BC:  MOVLB  7
077BE:  MOVWF  x30
077C0:  MOVLW  1E
077C2:  MOVWF  x31
077C4:  CLRF   x32
077C6:  MOVLB  0
077C8:  CALL   2482
....................                   displayContrasena(Contrasena[2],60,30,0); 
077CC:  MOVFF  6FB,72F
077D0:  MOVLW  3C
077D2:  MOVLB  7
077D4:  MOVWF  x30
077D6:  MOVLW  1E
077D8:  MOVWF  x31
077DA:  CLRF   x32
077DC:  MOVLB  0
077DE:  CALL   2482
....................                   displayContrasena(Contrasena[3],80,30,1); 
077E2:  MOVFF  6FC,72F
077E6:  MOVLW  50
077E8:  MOVLB  7
077EA:  MOVWF  x30
077EC:  MOVLW  1E
077EE:  MOVWF  x31
077F0:  MOVLW  01
077F2:  MOVWF  x32
077F4:  MOVLB  0
077F6:  CALL   2482
077FA:  MOVLB  6
....................                } 
....................             } 
....................          } 
....................       } 
....................        
....................       if(UP)//Si oprime hacia arriba 
077FC:  BSF    F92.4
077FE:  BTFSC  F80.4
07800:  BRA    7870
....................       { 
....................          if(Flanco == 0) 
07802:  MOVLB  4
07804:  BTFSC  x5F.7
07806:  BRA    786C
....................          { 
....................             Flanco = 1;delay_ms(30); 
07808:  BSF    x5F.7
0780A:  MOVLW  1E
0780C:  MOVLB  7
0780E:  MOVWF  x33
07810:  MOVLB  0
07812:  CALL   174A
....................             for(i=1;i<=4;i++) 
07816:  MOVLW  01
07818:  MOVLB  6
0781A:  MOVWF  xE0
0781C:  MOVF   xE0,W
0781E:  SUBLW  04
07820:  BNC   786A
....................             { 
....................                if(unidad==i) 
07822:  MOVF   xE0,W
07824:  SUBWF  xDF,W
07826:  BNZ   7866
....................                { 
....................                   Contrasena[i-1]++; 
07828:  MOVLW  01
0782A:  SUBWF  xE0,W
0782C:  CLRF   03
0782E:  ADDLW  F9
07830:  MOVWF  FE9
07832:  MOVLW  06
07834:  ADDWFC 03,W
07836:  MOVWF  FEA
07838:  INCF   FEF,F
....................                   if(Contrasena[i-1]>9)    
0783A:  MOVLW  01
0783C:  SUBWF  xE0,W
0783E:  CLRF   03
07840:  ADDLW  F9
07842:  MOVWF  FE9
07844:  MOVLW  06
07846:  ADDWFC 03,W
07848:  MOVWF  FEA
0784A:  BTFSC  FEF.7
0784C:  BRA    7866
0784E:  MOVF   FEF,W
07850:  SUBLW  09
07852:  BC    7866
....................                   { 
....................                      Contrasena[i-1]=0; 
07854:  MOVLW  01
07856:  SUBWF  xE0,W
07858:  CLRF   03
0785A:  ADDLW  F9
0785C:  MOVWF  FE9
0785E:  MOVLW  06
07860:  ADDWFC 03,W
07862:  MOVWF  FEA
07864:  CLRF   FEF
....................                   } 
....................                } 
....................             } 
07866:  INCF   xE0,F
07868:  BRA    781C
0786A:  MOVLB  4
....................          } 
....................       } 
....................       else 
0786C:  BRA    7874
0786E:  MOVLB  6
....................       { 
....................          Flanco = 0; 
07870:  MOVLB  4
07872:  BCF    x5F.7
....................       } 
....................              
....................       if(DOWN)//Si oprime hacia abajo 
07874:  BSF    F92.5
07876:  BTFSC  F80.5
07878:  BRA    78E4
....................       { 
....................          if(Flanco2 == 0) 
0787A:  MOVLB  6
0787C:  BTFSC  xDA.1
0787E:  BRA    78E0
....................             {Flanco2 = 1;delay_ms(30); 
07880:  BSF    xDA.1
07882:  MOVLW  1E
07884:  MOVLB  7
07886:  MOVWF  x33
07888:  MOVLB  0
0788A:  CALL   174A
....................                for(i=1;i<=4;i++) 
0788E:  MOVLW  01
07890:  MOVLB  6
07892:  MOVWF  xE0
07894:  MOVF   xE0,W
07896:  SUBLW  04
07898:  BNC   78E0
....................                { 
....................                   if(unidad==i) 
0789A:  MOVF   xE0,W
0789C:  SUBWF  xDF,W
0789E:  BNZ   78DC
....................                   {Contrasena[i-1]--;  
078A0:  MOVLW  01
078A2:  SUBWF  xE0,W
078A4:  CLRF   03
078A6:  ADDLW  F9
078A8:  MOVWF  FE9
078AA:  MOVLW  06
078AC:  ADDWFC 03,W
078AE:  MOVWF  FEA
078B0:  DECF   FEF,F
....................                      if(Contrasena[i-1]<0) 
078B2:  MOVLW  01
078B4:  SUBWF  xE0,W
078B6:  CLRF   03
078B8:  ADDLW  F9
078BA:  MOVWF  FE9
078BC:  MOVLW  06
078BE:  ADDWFC 03,W
078C0:  MOVWF  FEA
078C2:  BTFSC  FEF.7
078C4:  BRA    78C8
078C6:  BRA    78DC
....................                         {Contrasena[i-1]=9;} 
078C8:  MOVLW  01
078CA:  SUBWF  xE0,W
078CC:  CLRF   03
078CE:  ADDLW  F9
078D0:  MOVWF  FE9
078D2:  MOVLW  06
078D4:  ADDWFC 03,W
078D6:  MOVWF  FEA
078D8:  MOVLW  09
078DA:  MOVWF  FEF
....................                   } 
....................                }       
078DC:  INCF   xE0,F
078DE:  BRA    7894
....................             }      
....................       } 
....................       else 
078E0:  BRA    78E8
078E2:  MOVLB  4
....................       { 
....................          Flanco2 = 0; 
078E4:  MOVLB  6
078E6:  BCF    xDA.1
....................       } 
....................              
....................       if(RIGHT)//Si oprime RIGHT 
078E8:  BSF    F96.0
078EA:  BTFSC  F84.0
078EC:  BRA    7910
....................       { 
....................          if(Flanco1 == 0) 
078EE:  BTFSC  xDA.0
078F0:  BRA    790E
....................             {Flanco1 = 1;delay_ms(300);unidad++;} 
078F2:  BSF    xDA.0
078F4:  MOVLW  02
078F6:  MOVLB  7
078F8:  MOVWF  x2D
078FA:  MOVLW  96
078FC:  MOVWF  x33
078FE:  MOVLB  0
07900:  CALL   174A
07904:  MOVLB  7
07906:  DECFSZ x2D,F
07908:  BRA    78FA
0790A:  MOVLB  6
0790C:  INCF   xDF,F
....................       } 
....................       else 
0790E:  BRA    7912
....................       { 
....................          Flanco1 = 0; 
07910:  BCF    xDA.0
....................       } 
....................        
....................       if(LEFT)//Si oprime Izquierda 
07912:  BSF    F96.1
07914:  BTFSC  F84.1
07916:  BRA    7940
....................       { 
....................          delay_ms(700);Menu=1;glcd_fillscreen(OFF); 
07918:  MOVLW  04
0791A:  MOVLB  7
0791C:  MOVWF  x2D
0791E:  MOVLW  AF
07920:  MOVWF  x33
07922:  MOVLB  0
07924:  CALL   174A
07928:  MOVLB  7
0792A:  DECFSZ x2D,F
0792C:  BRA    791E
0792E:  MOVLW  01
07930:  MOVLB  6
07932:  MOVWF  xDE
07934:  MOVLB  7
07936:  CLRF   x2E
07938:  MOVLB  0
0793A:  CALL   1C2E
0793E:  MOVLB  6
....................       } 
....................        
....................       if(unidad>4) 
07940:  MOVF   xDF,W
07942:  SUBLW  04
07944:  BTFSC  FD8.0
07946:  BRA    7AF0
....................       {glcd_fillScreen(OFF); 
07948:  MOVLB  7
0794A:  CLRF   x2E
0794C:  MOVLB  0
0794E:  CALL   1C2E
....................           
....................          if((Contrasena[0]==Password[0])&&(Contrasena[1]==Password[1])&&(Contrasena[2]==Password[2])&&(Contrasena[3]==Password[3])) 
07952:  MOVLB  6
07954:  MOVF   xFD,W
07956:  SUBWF  xF9,W
07958:  BNZ   7A2E
0795A:  MOVF   xFE,W
0795C:  SUBWF  xFA,W
0795E:  BNZ   7A2E
07960:  MOVF   xFF,W
07962:  SUBWF  xFB,W
07964:  BNZ   7A2E
07966:  MOVLB  7
07968:  MOVF   x00,W
0796A:  MOVLB  6
0796C:  SUBWF  xFC,W
0796E:  BNZ   7A2E
....................          { 
....................             glcd_fillScreen(OFF); 
07970:  MOVLB  7
07972:  CLRF   x2E
07974:  MOVLB  0
07976:  CALL   1C2E
....................             strcpy(Menus.Letra,"Clave"); 
0797A:  MOVLW  07
0797C:  MOVWF  FEA
0797E:  MOVLW  09
07980:  MOVWF  FE9
07982:  MOVFF  FF2,72D
07986:  BCF    FF2.7
07988:  MOVLW  00
0798A:  CALL   085E
0798E:  TBLRD*-
07990:  TBLRD*+
07992:  MOVF   FF5,W
07994:  MOVWF  FEE
07996:  IORLW  00
07998:  BNZ   7990
0799A:  MOVLB  7
0799C:  BTFSC  x2D.7
0799E:  BSF    FF2.7
....................             displayMenu(Menus.Letra,30,0,0,2); 
079A0:  MOVLW  07
079A2:  MOVWF  x2E
079A4:  MOVLW  09
079A6:  MOVWF  x2D
079A8:  MOVLW  1E
079AA:  MOVWF  x2F
079AC:  CLRF   x30
079AE:  CLRF   x31
079B0:  MOVLW  02
079B2:  MOVWF  x32
079B4:  MOVLB  0
079B6:  CALL   225C
....................             strcpy(Menus.Letra,"Correcta"); 
079BA:  MOVLW  07
079BC:  MOVWF  FEA
079BE:  MOVLW  09
079C0:  MOVWF  FE9
079C2:  MOVFF  FF2,72D
079C6:  BCF    FF2.7
079C8:  MOVLW  00
079CA:  CALL   0882
079CE:  TBLRD*-
079D0:  TBLRD*+
079D2:  MOVF   FF5,W
079D4:  MOVWF  FEE
079D6:  IORLW  00
079D8:  BNZ   79D0
079DA:  MOVLB  7
079DC:  BTFSC  x2D.7
079DE:  BSF    FF2.7
....................             displayMenu(Menus.Letra,15,30,0,2); 
079E0:  MOVLW  07
079E2:  MOVWF  x2E
079E4:  MOVLW  09
079E6:  MOVWF  x2D
079E8:  MOVLW  0F
079EA:  MOVWF  x2F
079EC:  MOVLW  1E
079EE:  MOVWF  x30
079F0:  CLRF   x31
079F2:  MOVLW  02
079F4:  MOVWF  x32
079F6:  MOVLB  0
079F8:  CALL   225C
....................             Menu=91;glcd_update();delay_ms(1000); 
079FC:  MOVLW  5B
079FE:  MOVLB  6
07A00:  MOVWF  xDE
07A02:  MOVLB  0
07A04:  CALL   1C88
07A08:  MOVLW  04
07A0A:  MOVLB  7
07A0C:  MOVWF  x2D
07A0E:  MOVLW  FA
07A10:  MOVWF  x33
07A12:  MOVLB  0
07A14:  CALL   174A
07A18:  MOVLB  7
07A1A:  DECFSZ x2D,F
07A1C:  BRA    7A0E
....................             glcd_fillScreen(OFF);unidad=1; 
07A1E:  CLRF   x2E
07A20:  MOVLB  0
07A22:  CALL   1C2E
07A26:  MOVLW  01
07A28:  MOVLB  6
07A2A:  MOVWF  xDF
....................          }// Esta parte se puede agregar en el Menu 1 dependiendo de la ubicacin del vidrio. 
....................          else 
07A2C:  BRA    7AF0
....................          { 
....................             glcd_fillScreen(OFF); 
07A2E:  MOVLB  7
07A30:  CLRF   x2E
07A32:  MOVLB  0
07A34:  CALL   1C2E
....................             strcpy(Menus.Letra,"Clave"); 
07A38:  MOVLW  07
07A3A:  MOVWF  FEA
07A3C:  MOVLW  09
07A3E:  MOVWF  FE9
07A40:  MOVFF  FF2,72D
07A44:  BCF    FF2.7
07A46:  MOVLW  00
07A48:  CALL   085E
07A4C:  TBLRD*-
07A4E:  TBLRD*+
07A50:  MOVF   FF5,W
07A52:  MOVWF  FEE
07A54:  IORLW  00
07A56:  BNZ   7A4E
07A58:  MOVLB  7
07A5A:  BTFSC  x2D.7
07A5C:  BSF    FF2.7
....................             displayMenu(Menus.Letra,30,0,0,2); 
07A5E:  MOVLW  07
07A60:  MOVWF  x2E
07A62:  MOVLW  09
07A64:  MOVWF  x2D
07A66:  MOVLW  1E
07A68:  MOVWF  x2F
07A6A:  CLRF   x30
07A6C:  CLRF   x31
07A6E:  MOVLW  02
07A70:  MOVWF  x32
07A72:  MOVLB  0
07A74:  CALL   225C
....................             strcpy(Menus.Letra,"Incorrecta"); 
07A78:  MOVLW  07
07A7A:  MOVWF  FEA
07A7C:  MOVLW  09
07A7E:  MOVWF  FE9
07A80:  MOVFF  FF2,72D
07A84:  BCF    FF2.7
07A86:  MOVLW  00
07A88:  CALL   08AA
07A8C:  TBLRD*-
07A8E:  TBLRD*+
07A90:  MOVF   FF5,W
07A92:  MOVWF  FEE
07A94:  IORLW  00
07A96:  BNZ   7A8E
07A98:  MOVLB  7
07A9A:  BTFSC  x2D.7
07A9C:  BSF    FF2.7
....................             displayMenu(Menus.Letra,0,30,0,2); 
07A9E:  MOVLW  07
07AA0:  MOVWF  x2E
07AA2:  MOVLW  09
07AA4:  MOVWF  x2D
07AA6:  CLRF   x2F
07AA8:  MOVLW  1E
07AAA:  MOVWF  x30
07AAC:  CLRF   x31
07AAE:  MOVLW  02
07AB0:  MOVWF  x32
07AB2:  MOVLB  0
07AB4:  CALL   225C
....................             Menu=1;glcd_update();delay_ms(1000); 
07AB8:  MOVLW  01
07ABA:  MOVLB  6
07ABC:  MOVWF  xDE
07ABE:  MOVLB  0
07AC0:  CALL   1C88
07AC4:  MOVLW  04
07AC6:  MOVLB  7
07AC8:  MOVWF  x2D
07ACA:  MOVLW  FA
07ACC:  MOVWF  x33
07ACE:  MOVLB  0
07AD0:  CALL   174A
07AD4:  MOVLB  7
07AD6:  DECFSZ x2D,F
07AD8:  BRA    7ACA
....................             glcd_fillScreen(OFF);unidad=1; 
07ADA:  CLRF   x2E
07ADC:  MOVLB  0
07ADE:  CALL   1C2E
07AE2:  MOVLW  01
07AE4:  MOVLB  6
07AE6:  MOVWF  xDF
....................             Contrasena[0]=0;Contrasena[1]=0;Contrasena[2]=0;Contrasena[3]=0; 
07AE8:  CLRF   xF9
07AEA:  CLRF   xFA
07AEC:  CLRF   xFB
07AEE:  CLRF   xFC
....................          } 
....................       } 
....................     }     
.................... //_--------------------------------------------------------------------------------------------------------------------------------------------------------     
....................  
.................... //_--------------------------------------------------------------------------------------------------------------------------------------------------------       
....................       if(Menu==91){ // Menu de Cambio de Contrasea 
07AF0:  MOVF   xDE,W
07AF2:  SUBLW  5B
07AF4:  BTFSS  FD8.2
07AF6:  BRA    7EE6
....................          
....................       strcpy(Menus.Letra,"Clave Nueva"); 
07AF8:  MOVLW  07
07AFA:  MOVWF  FEA
07AFC:  MOVLW  09
07AFE:  MOVWF  FE9
07B00:  MOVFF  FF2,72D
07B04:  BCF    FF2.7
07B06:  MOVLW  00
07B08:  MOVLB  0
07B0A:  CALL   0D1A
07B0E:  TBLRD*-
07B10:  TBLRD*+
07B12:  MOVF   FF5,W
07B14:  MOVWF  FEE
07B16:  IORLW  00
07B18:  BNZ   7B10
07B1A:  MOVLB  7
07B1C:  BTFSC  x2D.7
07B1E:  BSF    FF2.7
....................       displayMenu(Menus.Letra,0,0,1,2);      
07B20:  MOVLW  07
07B22:  MOVWF  x2E
07B24:  MOVLW  09
07B26:  MOVWF  x2D
07B28:  CLRF   x2F
07B2A:  CLRF   x30
07B2C:  MOVLW  01
07B2E:  MOVWF  x31
07B30:  MOVLW  02
07B32:  MOVWF  x32
07B34:  MOVLB  0
07B36:  CALL   225C
....................        
....................       if(unidad==1) 
07B3A:  MOVLB  6
07B3C:  DECFSZ xDF,W
07B3E:  BRA    7B9E
....................       { 
....................          displayContrasena(Password[0],20,30,1); 
07B40:  MOVFF  6FD,72F
07B44:  MOVLW  14
07B46:  MOVLB  7
07B48:  MOVWF  x30
07B4A:  MOVLW  1E
07B4C:  MOVWF  x31
07B4E:  MOVLW  01
07B50:  MOVWF  x32
07B52:  MOVLB  0
07B54:  CALL   2482
....................          displayContrasena(Password[1],40,30,0); 
07B58:  MOVFF  6FE,72F
07B5C:  MOVLW  28
07B5E:  MOVLB  7
07B60:  MOVWF  x30
07B62:  MOVLW  1E
07B64:  MOVWF  x31
07B66:  CLRF   x32
07B68:  MOVLB  0
07B6A:  CALL   2482
....................          displayContrasena(Password[2],60,30,0); 
07B6E:  MOVFF  6FF,72F
07B72:  MOVLW  3C
07B74:  MOVLB  7
07B76:  MOVWF  x30
07B78:  MOVLW  1E
07B7A:  MOVWF  x31
07B7C:  CLRF   x32
07B7E:  MOVLB  0
07B80:  CALL   2482
....................          displayContrasena(Password[3],80,30,0); 
07B84:  MOVFF  700,72F
07B88:  MOVLW  50
07B8A:  MOVLB  7
07B8C:  MOVWF  x30
07B8E:  MOVLW  1E
07B90:  MOVWF  x31
07B92:  CLRF   x32
07B94:  MOVLB  0
07B96:  CALL   2482
....................       } 
....................       else 
07B9A:  BRA    7CC6
07B9C:  MOVLB  6
....................       { 
....................          if(unidad==2) 
07B9E:  MOVF   xDF,W
07BA0:  SUBLW  02
07BA2:  BNZ   7C02
....................          { 
....................             displayContrasena(Password[0],20,30,0); 
07BA4:  MOVFF  6FD,72F
07BA8:  MOVLW  14
07BAA:  MOVLB  7
07BAC:  MOVWF  x30
07BAE:  MOVLW  1E
07BB0:  MOVWF  x31
07BB2:  CLRF   x32
07BB4:  MOVLB  0
07BB6:  CALL   2482
....................             displayContrasena(Password[1],40,30,1); 
07BBA:  MOVFF  6FE,72F
07BBE:  MOVLW  28
07BC0:  MOVLB  7
07BC2:  MOVWF  x30
07BC4:  MOVLW  1E
07BC6:  MOVWF  x31
07BC8:  MOVLW  01
07BCA:  MOVWF  x32
07BCC:  MOVLB  0
07BCE:  CALL   2482
....................             displayContrasena(Password[2],60,30,0); 
07BD2:  MOVFF  6FF,72F
07BD6:  MOVLW  3C
07BD8:  MOVLB  7
07BDA:  MOVWF  x30
07BDC:  MOVLW  1E
07BDE:  MOVWF  x31
07BE0:  CLRF   x32
07BE2:  MOVLB  0
07BE4:  CALL   2482
....................             displayContrasena(Password[3],80,30,0); 
07BE8:  MOVFF  700,72F
07BEC:  MOVLW  50
07BEE:  MOVLB  7
07BF0:  MOVWF  x30
07BF2:  MOVLW  1E
07BF4:  MOVWF  x31
07BF6:  CLRF   x32
07BF8:  MOVLB  0
07BFA:  CALL   2482
....................          } 
....................          else 
07BFE:  BRA    7CC6
07C00:  MOVLB  6
....................          { 
....................             if(unidad==3) 
07C02:  MOVF   xDF,W
07C04:  SUBLW  03
07C06:  BNZ   7C66
....................             { 
....................                displayContrasena(Password[0],20,30,0); 
07C08:  MOVFF  6FD,72F
07C0C:  MOVLW  14
07C0E:  MOVLB  7
07C10:  MOVWF  x30
07C12:  MOVLW  1E
07C14:  MOVWF  x31
07C16:  CLRF   x32
07C18:  MOVLB  0
07C1A:  CALL   2482
....................                displayContrasena(Password[1],40,30,0); 
07C1E:  MOVFF  6FE,72F
07C22:  MOVLW  28
07C24:  MOVLB  7
07C26:  MOVWF  x30
07C28:  MOVLW  1E
07C2A:  MOVWF  x31
07C2C:  CLRF   x32
07C2E:  MOVLB  0
07C30:  CALL   2482
....................                displayContrasena(Password[2],60,30,1); 
07C34:  MOVFF  6FF,72F
07C38:  MOVLW  3C
07C3A:  MOVLB  7
07C3C:  MOVWF  x30
07C3E:  MOVLW  1E
07C40:  MOVWF  x31
07C42:  MOVLW  01
07C44:  MOVWF  x32
07C46:  MOVLB  0
07C48:  CALL   2482
....................                displayContrasena(Password[3],80,30,0); 
07C4C:  MOVFF  700,72F
07C50:  MOVLW  50
07C52:  MOVLB  7
07C54:  MOVWF  x30
07C56:  MOVLW  1E
07C58:  MOVWF  x31
07C5A:  CLRF   x32
07C5C:  MOVLB  0
07C5E:  CALL   2482
....................             } 
....................             else 
07C62:  BRA    7CC6
07C64:  MOVLB  6
....................             { 
....................                if(unidad==4) 
07C66:  MOVF   xDF,W
07C68:  SUBLW  04
07C6A:  BNZ   7CC8
....................                { 
....................                   displayContrasena(Password[0],20,30,0); 
07C6C:  MOVFF  6FD,72F
07C70:  MOVLW  14
07C72:  MOVLB  7
07C74:  MOVWF  x30
07C76:  MOVLW  1E
07C78:  MOVWF  x31
07C7A:  CLRF   x32
07C7C:  MOVLB  0
07C7E:  CALL   2482
....................                   displayContrasena(Password[1],40,30,0); 
07C82:  MOVFF  6FE,72F
07C86:  MOVLW  28
07C88:  MOVLB  7
07C8A:  MOVWF  x30
07C8C:  MOVLW  1E
07C8E:  MOVWF  x31
07C90:  CLRF   x32
07C92:  MOVLB  0
07C94:  CALL   2482
....................                   displayContrasena(Password[2],60,30,0); 
07C98:  MOVFF  6FF,72F
07C9C:  MOVLW  3C
07C9E:  MOVLB  7
07CA0:  MOVWF  x30
07CA2:  MOVLW  1E
07CA4:  MOVWF  x31
07CA6:  CLRF   x32
07CA8:  MOVLB  0
07CAA:  CALL   2482
....................                   displayContrasena(Password[3],80,30,1); 
07CAE:  MOVFF  700,72F
07CB2:  MOVLW  50
07CB4:  MOVLB  7
07CB6:  MOVWF  x30
07CB8:  MOVLW  1E
07CBA:  MOVWF  x31
07CBC:  MOVLW  01
07CBE:  MOVWF  x32
07CC0:  MOVLB  0
07CC2:  CALL   2482
07CC6:  MOVLB  6
....................                } 
....................             } 
....................          } 
....................       } 
....................        
....................       if(UP)//Si oprime hacia arriba 
07CC8:  BSF    F92.4
07CCA:  BTFSC  F80.4
07CCC:  BRA    7D3C
....................       { 
....................          if(Flanco == 0) 
07CCE:  MOVLB  4
07CD0:  BTFSC  x5F.7
07CD2:  BRA    7D38
....................          { 
....................             Flanco = 1;delay_ms(30); 
07CD4:  BSF    x5F.7
07CD6:  MOVLW  1E
07CD8:  MOVLB  7
07CDA:  MOVWF  x33
07CDC:  MOVLB  0
07CDE:  CALL   174A
....................             for(i=1;i<=4;i++) 
07CE2:  MOVLW  01
07CE4:  MOVLB  6
07CE6:  MOVWF  xE0
07CE8:  MOVF   xE0,W
07CEA:  SUBLW  04
07CEC:  BNC   7D36
....................             { 
....................                if(unidad==i) 
07CEE:  MOVF   xE0,W
07CF0:  SUBWF  xDF,W
07CF2:  BNZ   7D32
....................                { 
....................                   Password[i-1]++; 
07CF4:  MOVLW  01
07CF6:  SUBWF  xE0,W
07CF8:  CLRF   03
07CFA:  ADDLW  FD
07CFC:  MOVWF  FE9
07CFE:  MOVLW  06
07D00:  ADDWFC 03,W
07D02:  MOVWF  FEA
07D04:  INCF   FEF,F
....................                   if(Password[i-1]>9)    
07D06:  MOVLW  01
07D08:  SUBWF  xE0,W
07D0A:  CLRF   03
07D0C:  ADDLW  FD
07D0E:  MOVWF  FE9
07D10:  MOVLW  06
07D12:  ADDWFC 03,W
07D14:  MOVWF  FEA
07D16:  BTFSC  FEF.7
07D18:  BRA    7D32
07D1A:  MOVF   FEF,W
07D1C:  SUBLW  09
07D1E:  BC    7D32
....................                   { 
....................                      Password[i-1]=0; 
07D20:  MOVLW  01
07D22:  SUBWF  xE0,W
07D24:  CLRF   03
07D26:  ADDLW  FD
07D28:  MOVWF  FE9
07D2A:  MOVLW  06
07D2C:  ADDWFC 03,W
07D2E:  MOVWF  FEA
07D30:  CLRF   FEF
....................                   } 
....................                } 
....................             } 
07D32:  INCF   xE0,F
07D34:  BRA    7CE8
07D36:  MOVLB  4
....................          } 
....................       } 
....................       else 
07D38:  BRA    7D40
07D3A:  MOVLB  6
....................       { 
....................          Flanco = 0; 
07D3C:  MOVLB  4
07D3E:  BCF    x5F.7
....................       } 
....................              
....................       if(DOWN)//Si oprime hacia abajo 
07D40:  BSF    F92.5
07D42:  BTFSC  F80.5
07D44:  BRA    7DB0
....................       { 
....................          if(Flanco2 == 0) 
07D46:  MOVLB  6
07D48:  BTFSC  xDA.1
07D4A:  BRA    7DAC
....................             {Flanco2 = 1;delay_ms(30); 
07D4C:  BSF    xDA.1
07D4E:  MOVLW  1E
07D50:  MOVLB  7
07D52:  MOVWF  x33
07D54:  MOVLB  0
07D56:  CALL   174A
....................                for(i=1;i<=4;i++) 
07D5A:  MOVLW  01
07D5C:  MOVLB  6
07D5E:  MOVWF  xE0
07D60:  MOVF   xE0,W
07D62:  SUBLW  04
07D64:  BNC   7DAC
....................                { 
....................                   if(unidad==i) 
07D66:  MOVF   xE0,W
07D68:  SUBWF  xDF,W
07D6A:  BNZ   7DA8
....................                   { 
....................                      Password[i-1]--; 
07D6C:  MOVLW  01
07D6E:  SUBWF  xE0,W
07D70:  CLRF   03
07D72:  ADDLW  FD
07D74:  MOVWF  FE9
07D76:  MOVLW  06
07D78:  ADDWFC 03,W
07D7A:  MOVWF  FEA
07D7C:  DECF   FEF,F
....................                      if(Password[i-1]<0) 
07D7E:  MOVLW  01
07D80:  SUBWF  xE0,W
07D82:  CLRF   03
07D84:  ADDLW  FD
07D86:  MOVWF  FE9
07D88:  MOVLW  06
07D8A:  ADDWFC 03,W
07D8C:  MOVWF  FEA
07D8E:  BTFSC  FEF.7
07D90:  BRA    7D94
07D92:  BRA    7DA8
....................                      { 
....................                         Password[i-1]=9; 
07D94:  MOVLW  01
07D96:  SUBWF  xE0,W
07D98:  CLRF   03
07D9A:  ADDLW  FD
07D9C:  MOVWF  FE9
07D9E:  MOVLW  06
07DA0:  ADDWFC 03,W
07DA2:  MOVWF  FEA
07DA4:  MOVLW  09
07DA6:  MOVWF  FEF
....................                      } 
....................                   } 
....................                }       
07DA8:  INCF   xE0,F
07DAA:  BRA    7D60
....................             }      
....................       } 
....................       else 
07DAC:  BRA    7DB4
07DAE:  MOVLB  4
....................       { 
....................          Flanco2 = 0; 
07DB0:  MOVLB  6
07DB2:  BCF    xDA.1
....................       } 
....................              
....................       if(RIGHT)//Si oprime RIGHT 
07DB4:  BSF    F96.0
07DB6:  BTFSC  F84.0
07DB8:  BRA    7DDC
....................       { 
....................          if(Flanco1 == 0) 
07DBA:  BTFSC  xDA.0
07DBC:  BRA    7DDA
....................             {Flanco1 = 1;delay_ms(300);unidad++;} 
07DBE:  BSF    xDA.0
07DC0:  MOVLW  02
07DC2:  MOVLB  7
07DC4:  MOVWF  x2D
07DC6:  MOVLW  96
07DC8:  MOVWF  x33
07DCA:  MOVLB  0
07DCC:  CALL   174A
07DD0:  MOVLB  7
07DD2:  DECFSZ x2D,F
07DD4:  BRA    7DC6
07DD6:  MOVLB  6
07DD8:  INCF   xDF,F
....................       } 
....................       else 
07DDA:  BRA    7DDE
....................       { 
....................          Flanco1 = 0; 
07DDC:  BCF    xDA.0
....................       } 
....................        
....................       if(LEFT)//Si oprime Izquierda 
07DDE:  BSF    F96.1
07DE0:  BTFSC  F84.1
07DE2:  BRA    7E0C
....................       { 
....................          delay_ms(700);Menu=1;glcd_fillscreen(OFF); 
07DE4:  MOVLW  04
07DE6:  MOVLB  7
07DE8:  MOVWF  x2D
07DEA:  MOVLW  AF
07DEC:  MOVWF  x33
07DEE:  MOVLB  0
07DF0:  CALL   174A
07DF4:  MOVLB  7
07DF6:  DECFSZ x2D,F
07DF8:  BRA    7DEA
07DFA:  MOVLW  01
07DFC:  MOVLB  6
07DFE:  MOVWF  xDE
07E00:  MOVLB  7
07E02:  CLRF   x2E
07E04:  MOVLB  0
07E06:  CALL   1C2E
07E0A:  MOVLB  6
....................       } 
....................        
....................       if(unidad>4) 
07E0C:  MOVF   xDF,W
07E0E:  SUBLW  04
07E10:  BC    7EE6
....................       { 
....................          Opcion=1;unidad=1; 
07E12:  MOVLW  01
07E14:  MOVWF  xE4
07E16:  MOVWF  xDF
....................          write_eeprom(10,Password[0]);write_eeprom(11,Password[1]);write_eeprom(12,Password[2]);write_eeprom(13,Password[3]); 
07E18:  CLRF   FAA
07E1A:  MOVLW  0A
07E1C:  MOVWF  FA9
07E1E:  MOVFF  6FD,FA8
07E22:  BCF    FA6.6
07E24:  BCF    FA6.7
07E26:  BSF    FA6.2
07E28:  MOVF   FF2,W
07E2A:  MOVWF  00
07E2C:  BCF    FF2.7
07E2E:  MOVLB  F
07E30:  MOVLW  55
07E32:  MOVWF  FA7
07E34:  MOVLW  AA
07E36:  MOVWF  FA7
07E38:  BSF    FA6.1
07E3A:  BTFSC  FA6.1
07E3C:  BRA    7E3A
07E3E:  BCF    FA6.2
07E40:  MOVF   00,W
07E42:  IORWF  FF2,F
07E44:  CLRF   FAA
07E46:  MOVLW  0B
07E48:  MOVWF  FA9
07E4A:  MOVFF  6FE,FA8
07E4E:  BCF    FA6.6
07E50:  BCF    FA6.7
07E52:  BSF    FA6.2
07E54:  MOVF   FF2,W
07E56:  MOVWF  00
07E58:  BCF    FF2.7
07E5A:  MOVLW  55
07E5C:  MOVWF  FA7
07E5E:  MOVLW  AA
07E60:  MOVWF  FA7
07E62:  BSF    FA6.1
07E64:  BTFSC  FA6.1
07E66:  BRA    7E64
07E68:  BCF    FA6.2
07E6A:  MOVF   00,W
07E6C:  IORWF  FF2,F
07E6E:  CLRF   FAA
07E70:  MOVLW  0C
07E72:  MOVWF  FA9
07E74:  MOVFF  6FF,FA8
07E78:  BCF    FA6.6
07E7A:  BCF    FA6.7
07E7C:  BSF    FA6.2
07E7E:  MOVF   FF2,W
07E80:  MOVWF  00
07E82:  BCF    FF2.7
07E84:  MOVLW  55
07E86:  MOVWF  FA7
07E88:  MOVLW  AA
07E8A:  MOVWF  FA7
07E8C:  BSF    FA6.1
07E8E:  BTFSC  FA6.1
07E90:  BRA    7E8E
07E92:  BCF    FA6.2
07E94:  MOVF   00,W
07E96:  IORWF  FF2,F
07E98:  CLRF   FAA
07E9A:  MOVLW  0D
07E9C:  MOVWF  FA9
07E9E:  MOVFF  700,FA8
07EA2:  BCF    FA6.6
07EA4:  BCF    FA6.7
07EA6:  BSF    FA6.2
07EA8:  MOVF   FF2,W
07EAA:  MOVWF  00
07EAC:  BCF    FF2.7
07EAE:  MOVLW  55
07EB0:  MOVWF  FA7
07EB2:  MOVLW  AA
07EB4:  MOVWF  FA7
07EB6:  BSF    FA6.1
07EB8:  BTFSC  FA6.1
07EBA:  BRA    7EB8
07EBC:  BCF    FA6.2
07EBE:  MOVF   00,W
07EC0:  IORWF  FF2,F
....................          delay_ms(1000);glcd_fillScreen(OFF);Menu=1; 
07EC2:  MOVLW  04
07EC4:  MOVLB  7
07EC6:  MOVWF  x2D
07EC8:  MOVLW  FA
07ECA:  MOVWF  x33
07ECC:  MOVLB  0
07ECE:  CALL   174A
07ED2:  MOVLB  7
07ED4:  DECFSZ x2D,F
07ED6:  BRA    7EC8
07ED8:  CLRF   x2E
07EDA:  MOVLB  0
07EDC:  CALL   1C2E
07EE0:  MOVLW  01
07EE2:  MOVLB  6
07EE4:  MOVWF  xDE
....................       } 
....................     }     
.................... //_--------------------------------------------------------------------------------------------------------------------------------------------------------     
....................  
.................... //_--------------------------------------------------------------------------------------------------------------------------------------------------------       
....................       if(Menu==10){ // Menu de Prueba de Componentes 
07EE6:  MOVF   xDE,W
07EE8:  SUBLW  0A
07EEA:  BTFSS  FD8.2
07EEC:  GOTO   8CDA
....................       PruebaEstados=ON; 
07EF0:  MOVLB  4
07EF2:  BSF    x5F.1
....................          if(Opcion>8) 
07EF4:  MOVLB  6
07EF6:  MOVF   xE4,W
07EF8:  SUBLW  08
07EFA:  BC    7F00
....................          {Opcion=1;} 
07EFC:  MOVLW  01
07EFE:  MOVWF  xE4
....................          if(Opcion<1) 
07F00:  MOVF   xE4,F
07F02:  BNZ   7F08
....................          {Opcion=8;} 
07F04:  MOVLW  08
07F06:  MOVWF  xE4
....................           
....................       if(Opcion<7){ 
07F08:  MOVF   xE4,W
07F0A:  SUBLW  06
07F0C:  BTFSS  FD8.0
07F0E:  GOTO   88BA
....................          if(Opcion==1)    
07F12:  DECFSZ xE4,W
07F14:  BRA    7FE8
....................          { 
....................             strcpy(Menus.Letra,"EV Desfogue"); 
07F16:  MOVLW  07
07F18:  MOVWF  FEA
07F1A:  MOVLW  09
07F1C:  MOVWF  FE9
07F1E:  MOVFF  FF2,72D
07F22:  BCF    FF2.7
07F24:  MOVLW  00
07F26:  MOVLB  0
07F28:  CALL   0D44
07F2C:  TBLRD*-
07F2E:  TBLRD*+
07F30:  MOVF   FF5,W
07F32:  MOVWF  FEE
07F34:  IORLW  00
07F36:  BNZ   7F2E
07F38:  MOVLB  7
07F3A:  BTFSC  x2D.7
07F3C:  BSF    FF2.7
....................             if(EstadoDesfogue){ 
07F3E:  MOVLB  4
07F40:  BTFSS  x5E.6
07F42:  BRA    7F96
....................                strcpy(Menus.Estado,"ON"); 
07F44:  MOVLW  07
07F46:  MOVWF  FEA
07F48:  MOVLW  27
07F4A:  MOVWF  FE9
07F4C:  MOVFF  FF2,72D
07F50:  BCF    FF2.7
07F52:  MOVLW  00
07F54:  MOVLB  0
07F56:  CALL   0D6E
07F5A:  TBLRD*-
07F5C:  TBLRD*+
07F5E:  MOVF   FF5,W
07F60:  MOVWF  FEE
07F62:  IORLW  00
07F64:  BNZ   7F5C
07F66:  MOVLB  7
07F68:  BTFSC  x2D.7
07F6A:  BSF    FF2.7
....................                displayTemps(Menus.Letra,Menus.Estado,0,9,1,1); 
07F6C:  MOVLW  07
07F6E:  MOVWF  x2E
07F70:  MOVLW  09
07F72:  MOVWF  x2D
07F74:  MOVLW  07
07F76:  MOVWF  x30
07F78:  MOVLW  27
07F7A:  MOVWF  x2F
07F7C:  CLRF   x31
07F7E:  MOVLW  09
07F80:  MOVWF  x32
07F82:  MOVLW  01
07F84:  MOVWF  x33
07F86:  MOVWF  x34
07F88:  MOVLB  0
07F8A:  CALL   379A
....................                Desfogue_on; 
07F8E:  BCF    F8B.5
07F90:  BCF    F94.5
....................             } 
....................             else{ 
07F92:  BRA    7FE4
07F94:  MOVLB  4
....................                strcpy(Menus.Estado,"OFF"); 
07F96:  MOVLW  07
07F98:  MOVWF  FEA
07F9A:  MOVLW  27
07F9C:  MOVWF  FE9
07F9E:  MOVFF  FF2,72D
07FA2:  BCF    FF2.7
07FA4:  MOVLW  00
07FA6:  MOVLB  0
07FA8:  CALL   0D90
07FAC:  TBLRD*-
07FAE:  TBLRD*+
07FB0:  MOVF   FF5,W
07FB2:  MOVWF  FEE
07FB4:  IORLW  00
07FB6:  BNZ   7FAE
07FB8:  MOVLB  7
07FBA:  BTFSC  x2D.7
07FBC:  BSF    FF2.7
....................                displayTemps(Menus.Letra,Menus.Estado,0,9,1,1); 
07FBE:  MOVLW  07
07FC0:  MOVWF  x2E
07FC2:  MOVLW  09
07FC4:  MOVWF  x2D
07FC6:  MOVLW  07
07FC8:  MOVWF  x30
07FCA:  MOVLW  27
07FCC:  MOVWF  x2F
07FCE:  CLRF   x31
07FD0:  MOVLW  09
07FD2:  MOVWF  x32
07FD4:  MOVLW  01
07FD6:  MOVWF  x33
07FD8:  MOVWF  x34
07FDA:  MOVLB  0
07FDC:  CALL   379A
....................                Desfogue_off; 
07FE0:  BSF    F8B.5
07FE2:  BCF    F94.5
....................             } 
....................          } 
....................          else 
07FE4:  BRA    80AE
07FE6:  MOVLB  6
....................          { 
....................             strcpy(Menus.Letra,"EV Desfogue"); 
07FE8:  MOVLW  07
07FEA:  MOVWF  FEA
07FEC:  MOVLW  09
07FEE:  MOVWF  FE9
07FF0:  MOVFF  FF2,72D
07FF4:  BCF    FF2.7
07FF6:  MOVLW  00
07FF8:  MOVLB  0
07FFA:  CALL   0D44
07FFE:  TBLRD*-
08000:  TBLRD*+
08002:  MOVF   FF5,W
08004:  MOVWF  FEE
08006:  IORLW  00
08008:  BNZ   8000
0800A:  MOVLB  7
0800C:  BTFSC  x2D.7
0800E:  BSF    FF2.7
....................             if(EstadoDesfogue){ 
08010:  MOVLB  4
08012:  BTFSS  x5E.6
08014:  BRA    8064
....................                strcpy(Menus.Estado,"ON"); 
08016:  MOVLW  07
08018:  MOVWF  FEA
0801A:  MOVLW  27
0801C:  MOVWF  FE9
0801E:  MOVFF  FF2,72D
08022:  BCF    FF2.7
08024:  MOVLW  00
08026:  MOVLB  0
08028:  CALL   0D6E
0802C:  TBLRD*-
0802E:  TBLRD*+
08030:  MOVF   FF5,W
08032:  MOVWF  FEE
08034:  IORLW  00
08036:  BNZ   802E
08038:  MOVLB  7
0803A:  BTFSC  x2D.7
0803C:  BSF    FF2.7
....................                displayTemps(Menus.Letra,Menus.Estado,0,9,0,1); 
0803E:  MOVLW  07
08040:  MOVWF  x2E
08042:  MOVLW  09
08044:  MOVWF  x2D
08046:  MOVLW  07
08048:  MOVWF  x30
0804A:  MOVLW  27
0804C:  MOVWF  x2F
0804E:  CLRF   x31
08050:  MOVLW  09
08052:  MOVWF  x32
08054:  CLRF   x33
08056:  MOVLW  01
08058:  MOVWF  x34
0805A:  MOVLB  0
0805C:  CALL   379A
....................             } 
....................             else{ 
08060:  BRA    80AE
08062:  MOVLB  4
....................                strcpy(Menus.Estado,"OFF"); 
08064:  MOVLW  07
08066:  MOVWF  FEA
08068:  MOVLW  27
0806A:  MOVWF  FE9
0806C:  MOVFF  FF2,72D
08070:  BCF    FF2.7
08072:  MOVLW  00
08074:  MOVLB  0
08076:  CALL   0D90
0807A:  TBLRD*-
0807C:  TBLRD*+
0807E:  MOVF   FF5,W
08080:  MOVWF  FEE
08082:  IORLW  00
08084:  BNZ   807C
08086:  MOVLB  7
08088:  BTFSC  x2D.7
0808A:  BSF    FF2.7
....................                displayTemps(Menus.Letra,Menus.Estado,0,9,0,1); 
0808C:  MOVLW  07
0808E:  MOVWF  x2E
08090:  MOVLW  09
08092:  MOVWF  x2D
08094:  MOVLW  07
08096:  MOVWF  x30
08098:  MOVLW  27
0809A:  MOVWF  x2F
0809C:  CLRF   x31
0809E:  MOVLW  09
080A0:  MOVWF  x32
080A2:  CLRF   x33
080A4:  MOVLW  01
080A6:  MOVWF  x34
080A8:  MOVLB  0
080AA:  CALL   379A
....................             } 
....................          } 
....................           
....................          if(Opcion==2)    
080AE:  MOVLB  6
080B0:  MOVF   xE4,W
080B2:  SUBLW  02
080B4:  BNZ   8188
....................          { 
....................             strcpy(Menus.Letra,"EV Agua"); 
080B6:  MOVLW  07
080B8:  MOVWF  FEA
080BA:  MOVLW  09
080BC:  MOVWF  FE9
080BE:  MOVFF  FF2,72D
080C2:  BCF    FF2.7
080C4:  MOVLW  00
080C6:  MOVLB  0
080C8:  CALL   0DB2
080CC:  TBLRD*-
080CE:  TBLRD*+
080D0:  MOVF   FF5,W
080D2:  MOVWF  FEE
080D4:  IORLW  00
080D6:  BNZ   80CE
080D8:  MOVLB  7
080DA:  BTFSC  x2D.7
080DC:  BSF    FF2.7
....................             if(EstadoAgua){ 
080DE:  MOVLB  4
080E0:  BTFSS  x5E.7
080E2:  BRA    8136
....................                strcpy(Menus.Estado,"ON"); 
080E4:  MOVLW  07
080E6:  MOVWF  FEA
080E8:  MOVLW  27
080EA:  MOVWF  FE9
080EC:  MOVFF  FF2,72D
080F0:  BCF    FF2.7
080F2:  MOVLW  00
080F4:  MOVLB  0
080F6:  CALL   0D6E
080FA:  TBLRD*-
080FC:  TBLRD*+
080FE:  MOVF   FF5,W
08100:  MOVWF  FEE
08102:  IORLW  00
08104:  BNZ   80FC
08106:  MOVLB  7
08108:  BTFSC  x2D.7
0810A:  BSF    FF2.7
....................                displayTemps(Menus.Letra,Menus.Estado,0,18,1,1); 
0810C:  MOVLW  07
0810E:  MOVWF  x2E
08110:  MOVLW  09
08112:  MOVWF  x2D
08114:  MOVLW  07
08116:  MOVWF  x30
08118:  MOVLW  27
0811A:  MOVWF  x2F
0811C:  CLRF   x31
0811E:  MOVLW  12
08120:  MOVWF  x32
08122:  MOVLW  01
08124:  MOVWF  x33
08126:  MOVWF  x34
08128:  MOVLB  0
0812A:  CALL   379A
....................                AguaIn_on; 
0812E:  BCF    F8B.6
08130:  BCF    F94.6
....................             } 
....................             else{ 
08132:  BRA    8184
08134:  MOVLB  4
....................                strcpy(Menus.Estado,"OFF"); 
08136:  MOVLW  07
08138:  MOVWF  FEA
0813A:  MOVLW  27
0813C:  MOVWF  FE9
0813E:  MOVFF  FF2,72D
08142:  BCF    FF2.7
08144:  MOVLW  00
08146:  MOVLB  0
08148:  CALL   0D90
0814C:  TBLRD*-
0814E:  TBLRD*+
08150:  MOVF   FF5,W
08152:  MOVWF  FEE
08154:  IORLW  00
08156:  BNZ   814E
08158:  MOVLB  7
0815A:  BTFSC  x2D.7
0815C:  BSF    FF2.7
....................                displayTemps(Menus.Letra,Menus.Estado,0,18,1,1); 
0815E:  MOVLW  07
08160:  MOVWF  x2E
08162:  MOVLW  09
08164:  MOVWF  x2D
08166:  MOVLW  07
08168:  MOVWF  x30
0816A:  MOVLW  27
0816C:  MOVWF  x2F
0816E:  CLRF   x31
08170:  MOVLW  12
08172:  MOVWF  x32
08174:  MOVLW  01
08176:  MOVWF  x33
08178:  MOVWF  x34
0817A:  MOVLB  0
0817C:  CALL   379A
....................                AguaIn_off; 
08180:  BSF    F8B.6
08182:  BCF    F94.6
....................             } 
....................          } 
....................          else 
08184:  BRA    824E
08186:  MOVLB  6
....................          { 
....................             strcpy(Menus.Letra,"EV Agua"); 
08188:  MOVLW  07
0818A:  MOVWF  FEA
0818C:  MOVLW  09
0818E:  MOVWF  FE9
08190:  MOVFF  FF2,72D
08194:  BCF    FF2.7
08196:  MOVLW  00
08198:  MOVLB  0
0819A:  CALL   0DB2
0819E:  TBLRD*-
081A0:  TBLRD*+
081A2:  MOVF   FF5,W
081A4:  MOVWF  FEE
081A6:  IORLW  00
081A8:  BNZ   81A0
081AA:  MOVLB  7
081AC:  BTFSC  x2D.7
081AE:  BSF    FF2.7
....................             if(EstadoAgua){ 
081B0:  MOVLB  4
081B2:  BTFSS  x5E.7
081B4:  BRA    8204
....................                strcpy(Menus.Estado,"ON"); 
081B6:  MOVLW  07
081B8:  MOVWF  FEA
081BA:  MOVLW  27
081BC:  MOVWF  FE9
081BE:  MOVFF  FF2,72D
081C2:  BCF    FF2.7
081C4:  MOVLW  00
081C6:  MOVLB  0
081C8:  CALL   0D6E
081CC:  TBLRD*-
081CE:  TBLRD*+
081D0:  MOVF   FF5,W
081D2:  MOVWF  FEE
081D4:  IORLW  00
081D6:  BNZ   81CE
081D8:  MOVLB  7
081DA:  BTFSC  x2D.7
081DC:  BSF    FF2.7
....................                displayTemps(Menus.Letra,Menus.Estado,0,18,0,1); 
081DE:  MOVLW  07
081E0:  MOVWF  x2E
081E2:  MOVLW  09
081E4:  MOVWF  x2D
081E6:  MOVLW  07
081E8:  MOVWF  x30
081EA:  MOVLW  27
081EC:  MOVWF  x2F
081EE:  CLRF   x31
081F0:  MOVLW  12
081F2:  MOVWF  x32
081F4:  CLRF   x33
081F6:  MOVLW  01
081F8:  MOVWF  x34
081FA:  MOVLB  0
081FC:  CALL   379A
....................             }else{ 
08200:  BRA    824E
08202:  MOVLB  4
....................                strcpy(Menus.Estado,"OFF"); 
08204:  MOVLW  07
08206:  MOVWF  FEA
08208:  MOVLW  27
0820A:  MOVWF  FE9
0820C:  MOVFF  FF2,72D
08210:  BCF    FF2.7
08212:  MOVLW  00
08214:  MOVLB  0
08216:  CALL   0D90
0821A:  TBLRD*-
0821C:  TBLRD*+
0821E:  MOVF   FF5,W
08220:  MOVWF  FEE
08222:  IORLW  00
08224:  BNZ   821C
08226:  MOVLB  7
08228:  BTFSC  x2D.7
0822A:  BSF    FF2.7
....................                displayTemps(Menus.Letra,Menus.Estado,0,18,0,1); 
0822C:  MOVLW  07
0822E:  MOVWF  x2E
08230:  MOVLW  09
08232:  MOVWF  x2D
08234:  MOVLW  07
08236:  MOVWF  x30
08238:  MOVLW  27
0823A:  MOVWF  x2F
0823C:  CLRF   x31
0823E:  MOVLW  12
08240:  MOVWF  x32
08242:  CLRF   x33
08244:  MOVLW  01
08246:  MOVWF  x34
08248:  MOVLB  0
0824A:  CALL   379A
....................             } 
....................          } 
....................              
....................          if(Opcion==3)    
0824E:  MOVLB  6
08250:  MOVF   xE4,W
08252:  SUBLW  03
08254:  BNZ   8328
....................          { 
....................             strcpy(Menus.Letra,"SSR"); 
08256:  MOVLW  07
08258:  MOVWF  FEA
0825A:  MOVLW  09
0825C:  MOVWF  FE9
0825E:  MOVFF  FF2,72D
08262:  BCF    FF2.7
08264:  MOVLW  00
08266:  MOVLB  0
08268:  CALL   0DD8
0826C:  TBLRD*-
0826E:  TBLRD*+
08270:  MOVF   FF5,W
08272:  MOVWF  FEE
08274:  IORLW  00
08276:  BNZ   826E
08278:  MOVLB  7
0827A:  BTFSC  x2D.7
0827C:  BSF    FF2.7
....................             if(EstadoSSR){ 
0827E:  MOVLB  4
08280:  BTFSS  x5F.0
08282:  BRA    82D6
....................                strcpy(Menus.Estado,"ON"); 
08284:  MOVLW  07
08286:  MOVWF  FEA
08288:  MOVLW  27
0828A:  MOVWF  FE9
0828C:  MOVFF  FF2,72D
08290:  BCF    FF2.7
08292:  MOVLW  00
08294:  MOVLB  0
08296:  CALL   0D6E
0829A:  TBLRD*-
0829C:  TBLRD*+
0829E:  MOVF   FF5,W
082A0:  MOVWF  FEE
082A2:  IORLW  00
082A4:  BNZ   829C
082A6:  MOVLB  7
082A8:  BTFSC  x2D.7
082AA:  BSF    FF2.7
....................                displayTemps(Menus.Letra,Menus.Estado,0,27,1,1); 
082AC:  MOVLW  07
082AE:  MOVWF  x2E
082B0:  MOVLW  09
082B2:  MOVWF  x2D
082B4:  MOVLW  07
082B6:  MOVWF  x30
082B8:  MOVLW  27
082BA:  MOVWF  x2F
082BC:  CLRF   x31
082BE:  MOVLW  1B
082C0:  MOVWF  x32
082C2:  MOVLW  01
082C4:  MOVWF  x33
082C6:  MOVWF  x34
082C8:  MOVLB  0
082CA:  CALL   379A
....................                SSR_on; 
082CE:  BCF    F8B.2
082D0:  BCF    F94.2
....................             }else{ 
082D2:  BRA    8324
082D4:  MOVLB  4
....................                strcpy(Menus.Estado,"OFF"); 
082D6:  MOVLW  07
082D8:  MOVWF  FEA
082DA:  MOVLW  27
082DC:  MOVWF  FE9
082DE:  MOVFF  FF2,72D
082E2:  BCF    FF2.7
082E4:  MOVLW  00
082E6:  MOVLB  0
082E8:  CALL   0D90
082EC:  TBLRD*-
082EE:  TBLRD*+
082F0:  MOVF   FF5,W
082F2:  MOVWF  FEE
082F4:  IORLW  00
082F6:  BNZ   82EE
082F8:  MOVLB  7
082FA:  BTFSC  x2D.7
082FC:  BSF    FF2.7
....................                displayTemps(Menus.Letra,Menus.Estado,0,27,1,1); 
082FE:  MOVLW  07
08300:  MOVWF  x2E
08302:  MOVLW  09
08304:  MOVWF  x2D
08306:  MOVLW  07
08308:  MOVWF  x30
0830A:  MOVLW  27
0830C:  MOVWF  x2F
0830E:  CLRF   x31
08310:  MOVLW  1B
08312:  MOVWF  x32
08314:  MOVLW  01
08316:  MOVWF  x33
08318:  MOVWF  x34
0831A:  MOVLB  0
0831C:  CALL   379A
....................                SSR_off; 
08320:  BSF    F8B.2
08322:  BCF    F94.2
....................             } 
....................          } 
....................          else 
08324:  BRA    83EE
08326:  MOVLB  6
....................          { 
....................             strcpy(Menus.Letra,"SSR"); 
08328:  MOVLW  07
0832A:  MOVWF  FEA
0832C:  MOVLW  09
0832E:  MOVWF  FE9
08330:  MOVFF  FF2,72D
08334:  BCF    FF2.7
08336:  MOVLW  00
08338:  MOVLB  0
0833A:  CALL   0DD8
0833E:  TBLRD*-
08340:  TBLRD*+
08342:  MOVF   FF5,W
08344:  MOVWF  FEE
08346:  IORLW  00
08348:  BNZ   8340
0834A:  MOVLB  7
0834C:  BTFSC  x2D.7
0834E:  BSF    FF2.7
....................             if(EstadoSSR){ 
08350:  MOVLB  4
08352:  BTFSS  x5F.0
08354:  BRA    83A4
....................                strcpy(Menus.Estado,"ON"); 
08356:  MOVLW  07
08358:  MOVWF  FEA
0835A:  MOVLW  27
0835C:  MOVWF  FE9
0835E:  MOVFF  FF2,72D
08362:  BCF    FF2.7
08364:  MOVLW  00
08366:  MOVLB  0
08368:  CALL   0D6E
0836C:  TBLRD*-
0836E:  TBLRD*+
08370:  MOVF   FF5,W
08372:  MOVWF  FEE
08374:  IORLW  00
08376:  BNZ   836E
08378:  MOVLB  7
0837A:  BTFSC  x2D.7
0837C:  BSF    FF2.7
....................                displayTemps(Menus.Letra,Menus.Estado,0,27,0,1); 
0837E:  MOVLW  07
08380:  MOVWF  x2E
08382:  MOVLW  09
08384:  MOVWF  x2D
08386:  MOVLW  07
08388:  MOVWF  x30
0838A:  MOVLW  27
0838C:  MOVWF  x2F
0838E:  CLRF   x31
08390:  MOVLW  1B
08392:  MOVWF  x32
08394:  CLRF   x33
08396:  MOVLW  01
08398:  MOVWF  x34
0839A:  MOVLB  0
0839C:  CALL   379A
....................             }else{ 
083A0:  BRA    83EE
083A2:  MOVLB  4
....................                strcpy(Menus.Estado,"OFF"); 
083A4:  MOVLW  07
083A6:  MOVWF  FEA
083A8:  MOVLW  27
083AA:  MOVWF  FE9
083AC:  MOVFF  FF2,72D
083B0:  BCF    FF2.7
083B2:  MOVLW  00
083B4:  MOVLB  0
083B6:  CALL   0D90
083BA:  TBLRD*-
083BC:  TBLRD*+
083BE:  MOVF   FF5,W
083C0:  MOVWF  FEE
083C2:  IORLW  00
083C4:  BNZ   83BC
083C6:  MOVLB  7
083C8:  BTFSC  x2D.7
083CA:  BSF    FF2.7
....................                displayTemps(Menus.Letra,Menus.Estado,0,27,0,1); 
083CC:  MOVLW  07
083CE:  MOVWF  x2E
083D0:  MOVLW  09
083D2:  MOVWF  x2D
083D4:  MOVLW  07
083D6:  MOVWF  x30
083D8:  MOVLW  27
083DA:  MOVWF  x2F
083DC:  CLRF   x31
083DE:  MOVLW  1B
083E0:  MOVWF  x32
083E2:  CLRF   x33
083E4:  MOVLW  01
083E6:  MOVWF  x34
083E8:  MOVLB  0
083EA:  CALL   379A
....................             } 
....................          } 
....................           
....................          if(Opcion==4)    
083EE:  MOVLB  6
083F0:  MOVF   xE4,W
083F2:  SUBLW  04
083F4:  BNZ   84C0
....................          { 
....................             strcpy(Menus.Letra,"Nivel Alto"); 
083F6:  MOVLW  07
083F8:  MOVWF  FEA
083FA:  MOVLW  09
083FC:  MOVWF  FE9
083FE:  MOVFF  FF2,72D
08402:  BCF    FF2.7
08404:  MOVLW  00
08406:  MOVLB  0
08408:  CALL   0DFA
0840C:  TBLRD*-
0840E:  TBLRD*+
08410:  MOVF   FF5,W
08412:  MOVWF  FEE
08414:  IORLW  00
08416:  BNZ   840E
08418:  MOVLB  7
0841A:  BTFSC  x2D.7
0841C:  BSF    FF2.7
....................             if(HIGH){ 
0841E:  BSF    F94.0
08420:  BTFSS  F82.0
08422:  BRA    8472
....................                strcpy(Menus.Estado,"ON"); 
08424:  MOVLW  07
08426:  MOVWF  FEA
08428:  MOVLW  27
0842A:  MOVWF  FE9
0842C:  MOVFF  FF2,72D
08430:  BCF    FF2.7
08432:  MOVLW  00
08434:  MOVLB  0
08436:  CALL   0D6E
0843A:  TBLRD*-
0843C:  TBLRD*+
0843E:  MOVF   FF5,W
08440:  MOVWF  FEE
08442:  IORLW  00
08444:  BNZ   843C
08446:  MOVLB  7
08448:  BTFSC  x2D.7
0844A:  BSF    FF2.7
....................                displayTemps(Menus.Letra,Menus.Estado,0,36,1,1); 
0844C:  MOVLW  07
0844E:  MOVWF  x2E
08450:  MOVLW  09
08452:  MOVWF  x2D
08454:  MOVLW  07
08456:  MOVWF  x30
08458:  MOVLW  27
0845A:  MOVWF  x2F
0845C:  CLRF   x31
0845E:  MOVLW  24
08460:  MOVWF  x32
08462:  MOVLW  01
08464:  MOVWF  x33
08466:  MOVWF  x34
08468:  MOVLB  0
0846A:  CALL   379A
....................             }else{ 
0846E:  BRA    84BC
08470:  MOVLB  7
....................                strcpy(Menus.Estado,"OFF"); 
08472:  MOVLW  07
08474:  MOVWF  FEA
08476:  MOVLW  27
08478:  MOVWF  FE9
0847A:  MOVFF  FF2,72D
0847E:  BCF    FF2.7
08480:  MOVLW  00
08482:  MOVLB  0
08484:  CALL   0D90
08488:  TBLRD*-
0848A:  TBLRD*+
0848C:  MOVF   FF5,W
0848E:  MOVWF  FEE
08490:  IORLW  00
08492:  BNZ   848A
08494:  MOVLB  7
08496:  BTFSC  x2D.7
08498:  BSF    FF2.7
....................                displayTemps(Menus.Letra,Menus.Estado,0,36,1,1); 
0849A:  MOVLW  07
0849C:  MOVWF  x2E
0849E:  MOVLW  09
084A0:  MOVWF  x2D
084A2:  MOVLW  07
084A4:  MOVWF  x30
084A6:  MOVLW  27
084A8:  MOVWF  x2F
084AA:  CLRF   x31
084AC:  MOVLW  24
084AE:  MOVWF  x32
084B0:  MOVLW  01
084B2:  MOVWF  x33
084B4:  MOVWF  x34
084B6:  MOVLB  0
084B8:  CALL   379A
....................             } 
....................          } 
....................          else 
084BC:  BRA    8586
084BE:  MOVLB  6
....................          { 
....................             strcpy(Menus.Letra,"Nivel Alto"); 
084C0:  MOVLW  07
084C2:  MOVWF  FEA
084C4:  MOVLW  09
084C6:  MOVWF  FE9
084C8:  MOVFF  FF2,72D
084CC:  BCF    FF2.7
084CE:  MOVLW  00
084D0:  MOVLB  0
084D2:  CALL   0DFA
084D6:  TBLRD*-
084D8:  TBLRD*+
084DA:  MOVF   FF5,W
084DC:  MOVWF  FEE
084DE:  IORLW  00
084E0:  BNZ   84D8
084E2:  MOVLB  7
084E4:  BTFSC  x2D.7
084E6:  BSF    FF2.7
....................             if(HIGH){ 
084E8:  BSF    F94.0
084EA:  BTFSS  F82.0
084EC:  BRA    853C
....................                strcpy(Menus.Estado,"ON"); 
084EE:  MOVLW  07
084F0:  MOVWF  FEA
084F2:  MOVLW  27
084F4:  MOVWF  FE9
084F6:  MOVFF  FF2,72D
084FA:  BCF    FF2.7
084FC:  MOVLW  00
084FE:  MOVLB  0
08500:  CALL   0D6E
08504:  TBLRD*-
08506:  TBLRD*+
08508:  MOVF   FF5,W
0850A:  MOVWF  FEE
0850C:  IORLW  00
0850E:  BNZ   8506
08510:  MOVLB  7
08512:  BTFSC  x2D.7
08514:  BSF    FF2.7
....................                displayTemps(Menus.Letra,Menus.Estado,0,36,0,1); 
08516:  MOVLW  07
08518:  MOVWF  x2E
0851A:  MOVLW  09
0851C:  MOVWF  x2D
0851E:  MOVLW  07
08520:  MOVWF  x30
08522:  MOVLW  27
08524:  MOVWF  x2F
08526:  CLRF   x31
08528:  MOVLW  24
0852A:  MOVWF  x32
0852C:  CLRF   x33
0852E:  MOVLW  01
08530:  MOVWF  x34
08532:  MOVLB  0
08534:  CALL   379A
....................             }else{ 
08538:  BRA    8586
0853A:  MOVLB  7
....................                strcpy(Menus.Estado,"OFF"); 
0853C:  MOVLW  07
0853E:  MOVWF  FEA
08540:  MOVLW  27
08542:  MOVWF  FE9
08544:  MOVFF  FF2,72D
08548:  BCF    FF2.7
0854A:  MOVLW  00
0854C:  MOVLB  0
0854E:  CALL   0D90
08552:  TBLRD*-
08554:  TBLRD*+
08556:  MOVF   FF5,W
08558:  MOVWF  FEE
0855A:  IORLW  00
0855C:  BNZ   8554
0855E:  MOVLB  7
08560:  BTFSC  x2D.7
08562:  BSF    FF2.7
....................                displayTemps(Menus.Letra,Menus.Estado,0,36,0,1); 
08564:  MOVLW  07
08566:  MOVWF  x2E
08568:  MOVLW  09
0856A:  MOVWF  x2D
0856C:  MOVLW  07
0856E:  MOVWF  x30
08570:  MOVLW  27
08572:  MOVWF  x2F
08574:  CLRF   x31
08576:  MOVLW  24
08578:  MOVWF  x32
0857A:  CLRF   x33
0857C:  MOVLW  01
0857E:  MOVWF  x34
08580:  MOVLB  0
08582:  CALL   379A
....................             } 
....................          } 
....................                 
....................          if(Opcion==5)    
08586:  MOVLB  6
08588:  MOVF   xE4,W
0858A:  SUBLW  05
0858C:  BNZ   8658
....................          { 
....................             strcpy(Menus.Letra,"Nivel Bajo"); 
0858E:  MOVLW  07
08590:  MOVWF  FEA
08592:  MOVLW  09
08594:  MOVWF  FE9
08596:  MOVFF  FF2,72D
0859A:  BCF    FF2.7
0859C:  MOVLW  00
0859E:  MOVLB  0
085A0:  CALL   0E24
085A4:  TBLRD*-
085A6:  TBLRD*+
085A8:  MOVF   FF5,W
085AA:  MOVWF  FEE
085AC:  IORLW  00
085AE:  BNZ   85A6
085B0:  MOVLB  7
085B2:  BTFSC  x2D.7
085B4:  BSF    FF2.7
....................             if(LOW){ 
085B6:  BSF    F94.1
085B8:  BTFSS  F82.1
085BA:  BRA    860A
....................                strcpy(Menus.Estado,"ON"); 
085BC:  MOVLW  07
085BE:  MOVWF  FEA
085C0:  MOVLW  27
085C2:  MOVWF  FE9
085C4:  MOVFF  FF2,72D
085C8:  BCF    FF2.7
085CA:  MOVLW  00
085CC:  MOVLB  0
085CE:  CALL   0D6E
085D2:  TBLRD*-
085D4:  TBLRD*+
085D6:  MOVF   FF5,W
085D8:  MOVWF  FEE
085DA:  IORLW  00
085DC:  BNZ   85D4
085DE:  MOVLB  7
085E0:  BTFSC  x2D.7
085E2:  BSF    FF2.7
....................                displayTemps(Menus.Letra,Menus.Estado,0,45,1,1); 
085E4:  MOVLW  07
085E6:  MOVWF  x2E
085E8:  MOVLW  09
085EA:  MOVWF  x2D
085EC:  MOVLW  07
085EE:  MOVWF  x30
085F0:  MOVLW  27
085F2:  MOVWF  x2F
085F4:  CLRF   x31
085F6:  MOVLW  2D
085F8:  MOVWF  x32
085FA:  MOVLW  01
085FC:  MOVWF  x33
085FE:  MOVWF  x34
08600:  MOVLB  0
08602:  CALL   379A
....................             }else{ 
08606:  BRA    8654
08608:  MOVLB  7
....................                strcpy(Menus.Estado,"OFF"); 
0860A:  MOVLW  07
0860C:  MOVWF  FEA
0860E:  MOVLW  27
08610:  MOVWF  FE9
08612:  MOVFF  FF2,72D
08616:  BCF    FF2.7
08618:  MOVLW  00
0861A:  MOVLB  0
0861C:  CALL   0D90
08620:  TBLRD*-
08622:  TBLRD*+
08624:  MOVF   FF5,W
08626:  MOVWF  FEE
08628:  IORLW  00
0862A:  BNZ   8622
0862C:  MOVLB  7
0862E:  BTFSC  x2D.7
08630:  BSF    FF2.7
....................                displayTemps(Menus.Letra,Menus.Estado,0,45,1,1); 
08632:  MOVLW  07
08634:  MOVWF  x2E
08636:  MOVLW  09
08638:  MOVWF  x2D
0863A:  MOVLW  07
0863C:  MOVWF  x30
0863E:  MOVLW  27
08640:  MOVWF  x2F
08642:  CLRF   x31
08644:  MOVLW  2D
08646:  MOVWF  x32
08648:  MOVLW  01
0864A:  MOVWF  x33
0864C:  MOVWF  x34
0864E:  MOVLB  0
08650:  CALL   379A
....................             } 
....................          } 
....................          else 
08654:  BRA    871E
08656:  MOVLB  6
....................          { 
....................             strcpy(Menus.Letra,"Nivel Bajo"); 
08658:  MOVLW  07
0865A:  MOVWF  FEA
0865C:  MOVLW  09
0865E:  MOVWF  FE9
08660:  MOVFF  FF2,72D
08664:  BCF    FF2.7
08666:  MOVLW  00
08668:  MOVLB  0
0866A:  CALL   0E24
0866E:  TBLRD*-
08670:  TBLRD*+
08672:  MOVF   FF5,W
08674:  MOVWF  FEE
08676:  IORLW  00
08678:  BNZ   8670
0867A:  MOVLB  7
0867C:  BTFSC  x2D.7
0867E:  BSF    FF2.7
....................             if(LOW){ 
08680:  BSF    F94.1
08682:  BTFSS  F82.1
08684:  BRA    86D4
....................                strcpy(Menus.Estado,"ON"); 
08686:  MOVLW  07
08688:  MOVWF  FEA
0868A:  MOVLW  27
0868C:  MOVWF  FE9
0868E:  MOVFF  FF2,72D
08692:  BCF    FF2.7
08694:  MOVLW  00
08696:  MOVLB  0
08698:  CALL   0D6E
0869C:  TBLRD*-
0869E:  TBLRD*+
086A0:  MOVF   FF5,W
086A2:  MOVWF  FEE
086A4:  IORLW  00
086A6:  BNZ   869E
086A8:  MOVLB  7
086AA:  BTFSC  x2D.7
086AC:  BSF    FF2.7
....................                displayTemps(Menus.Letra,Menus.Estado,0,45,0,1); 
086AE:  MOVLW  07
086B0:  MOVWF  x2E
086B2:  MOVLW  09
086B4:  MOVWF  x2D
086B6:  MOVLW  07
086B8:  MOVWF  x30
086BA:  MOVLW  27
086BC:  MOVWF  x2F
086BE:  CLRF   x31
086C0:  MOVLW  2D
086C2:  MOVWF  x32
086C4:  CLRF   x33
086C6:  MOVLW  01
086C8:  MOVWF  x34
086CA:  MOVLB  0
086CC:  CALL   379A
....................             }else{ 
086D0:  BRA    871E
086D2:  MOVLB  7
....................                strcpy(Menus.Estado,"OFF"); 
086D4:  MOVLW  07
086D6:  MOVWF  FEA
086D8:  MOVLW  27
086DA:  MOVWF  FE9
086DC:  MOVFF  FF2,72D
086E0:  BCF    FF2.7
086E2:  MOVLW  00
086E4:  MOVLB  0
086E6:  CALL   0D90
086EA:  TBLRD*-
086EC:  TBLRD*+
086EE:  MOVF   FF5,W
086F0:  MOVWF  FEE
086F2:  IORLW  00
086F4:  BNZ   86EC
086F6:  MOVLB  7
086F8:  BTFSC  x2D.7
086FA:  BSF    FF2.7
....................                displayTemps(Menus.Letra,Menus.Estado,0,45,0,1); 
086FC:  MOVLW  07
086FE:  MOVWF  x2E
08700:  MOVLW  09
08702:  MOVWF  x2D
08704:  MOVLW  07
08706:  MOVWF  x30
08708:  MOVLW  27
0870A:  MOVWF  x2F
0870C:  CLRF   x31
0870E:  MOVLW  2D
08710:  MOVWF  x32
08712:  CLRF   x33
08714:  MOVLW  01
08716:  MOVWF  x34
08718:  MOVLB  0
0871A:  CALL   379A
....................             } 
....................          } 
....................           
....................          if(Opcion==6)    
0871E:  MOVLB  6
08720:  MOVF   xE4,W
08722:  SUBLW  06
08724:  BNZ   87F0
....................          { 
....................             strcpy(Menus.Letra,"Switch Puerta"); 
08726:  MOVLW  07
08728:  MOVWF  FEA
0872A:  MOVLW  09
0872C:  MOVWF  FE9
0872E:  MOVFF  FF2,72D
08732:  BCF    FF2.7
08734:  MOVLW  00
08736:  MOVLB  0
08738:  CALL   0E4E
0873C:  TBLRD*-
0873E:  TBLRD*+
08740:  MOVF   FF5,W
08742:  MOVWF  FEE
08744:  IORLW  00
08746:  BNZ   873E
08748:  MOVLB  7
0874A:  BTFSC  x2D.7
0874C:  BSF    FF2.7
....................             if(DOOR){ 
0874E:  BSF    F96.2
08750:  BTFSC  F84.2
08752:  BRA    87A2
....................                strcpy(Menus.Estado,"OFF"); 
08754:  MOVLW  07
08756:  MOVWF  FEA
08758:  MOVLW  27
0875A:  MOVWF  FE9
0875C:  MOVFF  FF2,72D
08760:  BCF    FF2.7
08762:  MOVLW  00
08764:  MOVLB  0
08766:  CALL   0D90
0876A:  TBLRD*-
0876C:  TBLRD*+
0876E:  MOVF   FF5,W
08770:  MOVWF  FEE
08772:  IORLW  00
08774:  BNZ   876C
08776:  MOVLB  7
08778:  BTFSC  x2D.7
0877A:  BSF    FF2.7
....................                displayTemps(Menus.Letra,Menus.Estado,0,54,1,1); 
0877C:  MOVLW  07
0877E:  MOVWF  x2E
08780:  MOVLW  09
08782:  MOVWF  x2D
08784:  MOVLW  07
08786:  MOVWF  x30
08788:  MOVLW  27
0878A:  MOVWF  x2F
0878C:  CLRF   x31
0878E:  MOVLW  36
08790:  MOVWF  x32
08792:  MOVLW  01
08794:  MOVWF  x33
08796:  MOVWF  x34
08798:  MOVLB  0
0879A:  CALL   379A
....................             }else{ 
0879E:  BRA    87EC
087A0:  MOVLB  7
....................                strcpy(Menus.Estado,"ON"); 
087A2:  MOVLW  07
087A4:  MOVWF  FEA
087A6:  MOVLW  27
087A8:  MOVWF  FE9
087AA:  MOVFF  FF2,72D
087AE:  BCF    FF2.7
087B0:  MOVLW  00
087B2:  MOVLB  0
087B4:  CALL   0D6E
087B8:  TBLRD*-
087BA:  TBLRD*+
087BC:  MOVF   FF5,W
087BE:  MOVWF  FEE
087C0:  IORLW  00
087C2:  BNZ   87BA
087C4:  MOVLB  7
087C6:  BTFSC  x2D.7
087C8:  BSF    FF2.7
....................                displayTemps(Menus.Letra,Menus.Estado,0,54,1,1); 
087CA:  MOVLW  07
087CC:  MOVWF  x2E
087CE:  MOVLW  09
087D0:  MOVWF  x2D
087D2:  MOVLW  07
087D4:  MOVWF  x30
087D6:  MOVLW  27
087D8:  MOVWF  x2F
087DA:  CLRF   x31
087DC:  MOVLW  36
087DE:  MOVWF  x32
087E0:  MOVLW  01
087E2:  MOVWF  x33
087E4:  MOVWF  x34
087E6:  MOVLB  0
087E8:  CALL   379A
....................             } 
....................          } 
....................          else 
087EC:  BRA    88B6
087EE:  MOVLB  6
....................          { 
....................             strcpy(Menus.Letra,"Switch Puerta"); 
087F0:  MOVLW  07
087F2:  MOVWF  FEA
087F4:  MOVLW  09
087F6:  MOVWF  FE9
087F8:  MOVFF  FF2,72D
087FC:  BCF    FF2.7
087FE:  MOVLW  00
08800:  MOVLB  0
08802:  CALL   0E4E
08806:  TBLRD*-
08808:  TBLRD*+
0880A:  MOVF   FF5,W
0880C:  MOVWF  FEE
0880E:  IORLW  00
08810:  BNZ   8808
08812:  MOVLB  7
08814:  BTFSC  x2D.7
08816:  BSF    FF2.7
....................             if(DOOR){ 
08818:  BSF    F96.2
0881A:  BTFSC  F84.2
0881C:  BRA    886C
....................                strcpy(Menus.Estado,"OFF"); 
0881E:  MOVLW  07
08820:  MOVWF  FEA
08822:  MOVLW  27
08824:  MOVWF  FE9
08826:  MOVFF  FF2,72D
0882A:  BCF    FF2.7
0882C:  MOVLW  00
0882E:  MOVLB  0
08830:  CALL   0D90
08834:  TBLRD*-
08836:  TBLRD*+
08838:  MOVF   FF5,W
0883A:  MOVWF  FEE
0883C:  IORLW  00
0883E:  BNZ   8836
08840:  MOVLB  7
08842:  BTFSC  x2D.7
08844:  BSF    FF2.7
....................                displayTemps(Menus.Letra,Menus.Estado,0,54,0,1); 
08846:  MOVLW  07
08848:  MOVWF  x2E
0884A:  MOVLW  09
0884C:  MOVWF  x2D
0884E:  MOVLW  07
08850:  MOVWF  x30
08852:  MOVLW  27
08854:  MOVWF  x2F
08856:  CLRF   x31
08858:  MOVLW  36
0885A:  MOVWF  x32
0885C:  CLRF   x33
0885E:  MOVLW  01
08860:  MOVWF  x34
08862:  MOVLB  0
08864:  CALL   379A
....................             }else{ 
08868:  BRA    88B6
0886A:  MOVLB  7
....................                strcpy(Menus.Estado,"ON"); 
0886C:  MOVLW  07
0886E:  MOVWF  FEA
08870:  MOVLW  27
08872:  MOVWF  FE9
08874:  MOVFF  FF2,72D
08878:  BCF    FF2.7
0887A:  MOVLW  00
0887C:  MOVLB  0
0887E:  CALL   0D6E
08882:  TBLRD*-
08884:  TBLRD*+
08886:  MOVF   FF5,W
08888:  MOVWF  FEE
0888A:  IORLW  00
0888C:  BNZ   8884
0888E:  MOVLB  7
08890:  BTFSC  x2D.7
08892:  BSF    FF2.7
....................                displayTemps(Menus.Letra,Menus.Estado,0,54,0,1); 
08894:  MOVLW  07
08896:  MOVWF  x2E
08898:  MOVLW  09
0889A:  MOVWF  x2D
0889C:  MOVLW  07
0889E:  MOVWF  x30
088A0:  MOVLW  27
088A2:  MOVWF  x2F
088A4:  CLRF   x31
088A6:  MOVLW  36
088A8:  MOVWF  x32
088AA:  CLRF   x33
088AC:  MOVLW  01
088AE:  MOVWF  x34
088B0:  MOVLB  0
088B2:  CALL   379A
....................             } 
....................          } 
....................       }else{ 
088B6:  BRA    8BE8
088B8:  MOVLB  6
....................          if(Opcion==7)    
088BA:  MOVF   xE4,W
088BC:  SUBLW  07
088BE:  BNZ   898A
....................          { 
....................             strcpy(Menus.Letra,"Termostato"); 
088C0:  MOVLW  07
088C2:  MOVWF  FEA
088C4:  MOVLW  09
088C6:  MOVWF  FE9
088C8:  MOVFF  FF2,72D
088CC:  BCF    FF2.7
088CE:  MOVLW  00
088D0:  MOVLB  0
088D2:  CALL   0E7A
088D6:  TBLRD*-
088D8:  TBLRD*+
088DA:  MOVF   FF5,W
088DC:  MOVWF  FEE
088DE:  IORLW  00
088E0:  BNZ   88D8
088E2:  MOVLB  7
088E4:  BTFSC  x2D.7
088E6:  BSF    FF2.7
....................             if(TERM){ 
088E8:  BSF    F93.7
088EA:  BTFSC  F81.7
088EC:  BRA    893C
....................                strcpy(Menus.Estado,"OFF"); 
088EE:  MOVLW  07
088F0:  MOVWF  FEA
088F2:  MOVLW  27
088F4:  MOVWF  FE9
088F6:  MOVFF  FF2,72D
088FA:  BCF    FF2.7
088FC:  MOVLW  00
088FE:  MOVLB  0
08900:  CALL   0D90
08904:  TBLRD*-
08906:  TBLRD*+
08908:  MOVF   FF5,W
0890A:  MOVWF  FEE
0890C:  IORLW  00
0890E:  BNZ   8906
08910:  MOVLB  7
08912:  BTFSC  x2D.7
08914:  BSF    FF2.7
....................                displayTemps(Menus.Letra,Menus.Estado,0,18,1,1); 
08916:  MOVLW  07
08918:  MOVWF  x2E
0891A:  MOVLW  09
0891C:  MOVWF  x2D
0891E:  MOVLW  07
08920:  MOVWF  x30
08922:  MOVLW  27
08924:  MOVWF  x2F
08926:  CLRF   x31
08928:  MOVLW  12
0892A:  MOVWF  x32
0892C:  MOVLW  01
0892E:  MOVWF  x33
08930:  MOVWF  x34
08932:  MOVLB  0
08934:  CALL   379A
....................             }else{ 
08938:  BRA    8986
0893A:  MOVLB  7
....................                strcpy(Menus.Estado,"ON"); 
0893C:  MOVLW  07
0893E:  MOVWF  FEA
08940:  MOVLW  27
08942:  MOVWF  FE9
08944:  MOVFF  FF2,72D
08948:  BCF    FF2.7
0894A:  MOVLW  00
0894C:  MOVLB  0
0894E:  CALL   0D6E
08952:  TBLRD*-
08954:  TBLRD*+
08956:  MOVF   FF5,W
08958:  MOVWF  FEE
0895A:  IORLW  00
0895C:  BNZ   8954
0895E:  MOVLB  7
08960:  BTFSC  x2D.7
08962:  BSF    FF2.7
....................                displayTemps(Menus.Letra,Menus.Estado,0,18,1,1); 
08964:  MOVLW  07
08966:  MOVWF  x2E
08968:  MOVLW  09
0896A:  MOVWF  x2D
0896C:  MOVLW  07
0896E:  MOVWF  x30
08970:  MOVLW  27
08972:  MOVWF  x2F
08974:  CLRF   x31
08976:  MOVLW  12
08978:  MOVWF  x32
0897A:  MOVLW  01
0897C:  MOVWF  x33
0897E:  MOVWF  x34
08980:  MOVLB  0
08982:  CALL   379A
....................             } 
....................          } 
....................          else 
08986:  BRA    8A50
08988:  MOVLB  6
....................          { 
....................             strcpy(Menus.Letra,"Termostato"); 
0898A:  MOVLW  07
0898C:  MOVWF  FEA
0898E:  MOVLW  09
08990:  MOVWF  FE9
08992:  MOVFF  FF2,72D
08996:  BCF    FF2.7
08998:  MOVLW  00
0899A:  MOVLB  0
0899C:  CALL   0E7A
089A0:  TBLRD*-
089A2:  TBLRD*+
089A4:  MOVF   FF5,W
089A6:  MOVWF  FEE
089A8:  IORLW  00
089AA:  BNZ   89A2
089AC:  MOVLB  7
089AE:  BTFSC  x2D.7
089B0:  BSF    FF2.7
....................             if(TERM){ 
089B2:  BSF    F93.7
089B4:  BTFSC  F81.7
089B6:  BRA    8A06
....................                strcpy(Menus.Estado,"OFF"); 
089B8:  MOVLW  07
089BA:  MOVWF  FEA
089BC:  MOVLW  27
089BE:  MOVWF  FE9
089C0:  MOVFF  FF2,72D
089C4:  BCF    FF2.7
089C6:  MOVLW  00
089C8:  MOVLB  0
089CA:  CALL   0D90
089CE:  TBLRD*-
089D0:  TBLRD*+
089D2:  MOVF   FF5,W
089D4:  MOVWF  FEE
089D6:  IORLW  00
089D8:  BNZ   89D0
089DA:  MOVLB  7
089DC:  BTFSC  x2D.7
089DE:  BSF    FF2.7
....................                displayTemps(Menus.Letra,Menus.Estado,0,18,0,1); 
089E0:  MOVLW  07
089E2:  MOVWF  x2E
089E4:  MOVLW  09
089E6:  MOVWF  x2D
089E8:  MOVLW  07
089EA:  MOVWF  x30
089EC:  MOVLW  27
089EE:  MOVWF  x2F
089F0:  CLRF   x31
089F2:  MOVLW  12
089F4:  MOVWF  x32
089F6:  CLRF   x33
089F8:  MOVLW  01
089FA:  MOVWF  x34
089FC:  MOVLB  0
089FE:  CALL   379A
....................             }else{ 
08A02:  BRA    8A50
08A04:  MOVLB  7
....................                strcpy(Menus.Estado,"ON"); 
08A06:  MOVLW  07
08A08:  MOVWF  FEA
08A0A:  MOVLW  27
08A0C:  MOVWF  FE9
08A0E:  MOVFF  FF2,72D
08A12:  BCF    FF2.7
08A14:  MOVLW  00
08A16:  MOVLB  0
08A18:  CALL   0D6E
08A1C:  TBLRD*-
08A1E:  TBLRD*+
08A20:  MOVF   FF5,W
08A22:  MOVWF  FEE
08A24:  IORLW  00
08A26:  BNZ   8A1E
08A28:  MOVLB  7
08A2A:  BTFSC  x2D.7
08A2C:  BSF    FF2.7
....................                displayTemps(Menus.Letra,Menus.Estado,0,18,0,1); 
08A2E:  MOVLW  07
08A30:  MOVWF  x2E
08A32:  MOVLW  09
08A34:  MOVWF  x2D
08A36:  MOVLW  07
08A38:  MOVWF  x30
08A3A:  MOVLW  27
08A3C:  MOVWF  x2F
08A3E:  CLRF   x31
08A40:  MOVLW  12
08A42:  MOVWF  x32
08A44:  CLRF   x33
08A46:  MOVLW  01
08A48:  MOVWF  x34
08A4A:  MOVLB  0
08A4C:  CALL   379A
....................             } 
....................          } 
....................           
....................          if(Opcion==8)    
08A50:  MOVLB  6
08A52:  MOVF   xE4,W
08A54:  SUBLW  08
08A56:  BNZ   8B22
....................          { 
....................             strcpy(Menus.Letra,"Parada Emer."); 
08A58:  MOVLW  07
08A5A:  MOVWF  FEA
08A5C:  MOVLW  09
08A5E:  MOVWF  FE9
08A60:  MOVFF  FF2,72D
08A64:  BCF    FF2.7
08A66:  MOVLW  00
08A68:  MOVLB  0
08A6A:  CALL   0EA4
08A6E:  TBLRD*-
08A70:  TBLRD*+
08A72:  MOVF   FF5,W
08A74:  MOVWF  FEE
08A76:  IORLW  00
08A78:  BNZ   8A70
08A7A:  MOVLB  7
08A7C:  BTFSC  x2D.7
08A7E:  BSF    FF2.7
....................             if(STOP){ 
08A80:  BSF    F93.6
08A82:  BTFSC  F81.6
08A84:  BRA    8AD4
....................                strcpy(Menus.Estado,"OFF"); 
08A86:  MOVLW  07
08A88:  MOVWF  FEA
08A8A:  MOVLW  27
08A8C:  MOVWF  FE9
08A8E:  MOVFF  FF2,72D
08A92:  BCF    FF2.7
08A94:  MOVLW  00
08A96:  MOVLB  0
08A98:  CALL   0D90
08A9C:  TBLRD*-
08A9E:  TBLRD*+
08AA0:  MOVF   FF5,W
08AA2:  MOVWF  FEE
08AA4:  IORLW  00
08AA6:  BNZ   8A9E
08AA8:  MOVLB  7
08AAA:  BTFSC  x2D.7
08AAC:  BSF    FF2.7
....................                displayTemps(Menus.Letra,Menus.Estado,0,27,1,1); 
08AAE:  MOVLW  07
08AB0:  MOVWF  x2E
08AB2:  MOVLW  09
08AB4:  MOVWF  x2D
08AB6:  MOVLW  07
08AB8:  MOVWF  x30
08ABA:  MOVLW  27
08ABC:  MOVWF  x2F
08ABE:  CLRF   x31
08AC0:  MOVLW  1B
08AC2:  MOVWF  x32
08AC4:  MOVLW  01
08AC6:  MOVWF  x33
08AC8:  MOVWF  x34
08ACA:  MOVLB  0
08ACC:  CALL   379A
....................             }else{ 
08AD0:  BRA    8B1E
08AD2:  MOVLB  7
....................                strcpy(Menus.Estado,"ON"); 
08AD4:  MOVLW  07
08AD6:  MOVWF  FEA
08AD8:  MOVLW  27
08ADA:  MOVWF  FE9
08ADC:  MOVFF  FF2,72D
08AE0:  BCF    FF2.7
08AE2:  MOVLW  00
08AE4:  MOVLB  0
08AE6:  CALL   0D6E
08AEA:  TBLRD*-
08AEC:  TBLRD*+
08AEE:  MOVF   FF5,W
08AF0:  MOVWF  FEE
08AF2:  IORLW  00
08AF4:  BNZ   8AEC
08AF6:  MOVLB  7
08AF8:  BTFSC  x2D.7
08AFA:  BSF    FF2.7
....................                displayTemps(Menus.Letra,Menus.Estado,0,27,1,1); 
08AFC:  MOVLW  07
08AFE:  MOVWF  x2E
08B00:  MOVLW  09
08B02:  MOVWF  x2D
08B04:  MOVLW  07
08B06:  MOVWF  x30
08B08:  MOVLW  27
08B0A:  MOVWF  x2F
08B0C:  CLRF   x31
08B0E:  MOVLW  1B
08B10:  MOVWF  x32
08B12:  MOVLW  01
08B14:  MOVWF  x33
08B16:  MOVWF  x34
08B18:  MOVLB  0
08B1A:  CALL   379A
....................             } 
....................          } 
....................          else 
08B1E:  BRA    8BE8
08B20:  MOVLB  6
....................          { 
....................             strcpy(Menus.Letra,"Parada Emer."); 
08B22:  MOVLW  07
08B24:  MOVWF  FEA
08B26:  MOVLW  09
08B28:  MOVWF  FE9
08B2A:  MOVFF  FF2,72D
08B2E:  BCF    FF2.7
08B30:  MOVLW  00
08B32:  MOVLB  0
08B34:  CALL   0EA4
08B38:  TBLRD*-
08B3A:  TBLRD*+
08B3C:  MOVF   FF5,W
08B3E:  MOVWF  FEE
08B40:  IORLW  00
08B42:  BNZ   8B3A
08B44:  MOVLB  7
08B46:  BTFSC  x2D.7
08B48:  BSF    FF2.7
....................             if(STOP){ 
08B4A:  BSF    F93.6
08B4C:  BTFSC  F81.6
08B4E:  BRA    8B9E
....................                strcpy(Menus.Estado,"OFF"); 
08B50:  MOVLW  07
08B52:  MOVWF  FEA
08B54:  MOVLW  27
08B56:  MOVWF  FE9
08B58:  MOVFF  FF2,72D
08B5C:  BCF    FF2.7
08B5E:  MOVLW  00
08B60:  MOVLB  0
08B62:  CALL   0D90
08B66:  TBLRD*-
08B68:  TBLRD*+
08B6A:  MOVF   FF5,W
08B6C:  MOVWF  FEE
08B6E:  IORLW  00
08B70:  BNZ   8B68
08B72:  MOVLB  7
08B74:  BTFSC  x2D.7
08B76:  BSF    FF2.7
....................                displayTemps(Menus.Letra,Menus.Estado,0,27,0,1); 
08B78:  MOVLW  07
08B7A:  MOVWF  x2E
08B7C:  MOVLW  09
08B7E:  MOVWF  x2D
08B80:  MOVLW  07
08B82:  MOVWF  x30
08B84:  MOVLW  27
08B86:  MOVWF  x2F
08B88:  CLRF   x31
08B8A:  MOVLW  1B
08B8C:  MOVWF  x32
08B8E:  CLRF   x33
08B90:  MOVLW  01
08B92:  MOVWF  x34
08B94:  MOVLB  0
08B96:  CALL   379A
....................             }else{ 
08B9A:  BRA    8BE8
08B9C:  MOVLB  7
....................                strcpy(Menus.Estado,"ON"); 
08B9E:  MOVLW  07
08BA0:  MOVWF  FEA
08BA2:  MOVLW  27
08BA4:  MOVWF  FE9
08BA6:  MOVFF  FF2,72D
08BAA:  BCF    FF2.7
08BAC:  MOVLW  00
08BAE:  MOVLB  0
08BB0:  CALL   0D6E
08BB4:  TBLRD*-
08BB6:  TBLRD*+
08BB8:  MOVF   FF5,W
08BBA:  MOVWF  FEE
08BBC:  IORLW  00
08BBE:  BNZ   8BB6
08BC0:  MOVLB  7
08BC2:  BTFSC  x2D.7
08BC4:  BSF    FF2.7
....................                displayTemps(Menus.Letra,Menus.Estado,0,27,0,1); 
08BC6:  MOVLW  07
08BC8:  MOVWF  x2E
08BCA:  MOVLW  09
08BCC:  MOVWF  x2D
08BCE:  MOVLW  07
08BD0:  MOVWF  x30
08BD2:  MOVLW  27
08BD4:  MOVWF  x2F
08BD6:  CLRF   x31
08BD8:  MOVLW  1B
08BDA:  MOVWF  x32
08BDC:  CLRF   x33
08BDE:  MOVLW  01
08BE0:  MOVWF  x34
08BE2:  MOVLB  0
08BE4:  CALL   379A
....................             } 
....................          } 
....................       } 
....................           
....................          if(RIGHT)//Si oprime SET 
08BE8:  BSF    F96.0
08BEA:  BTFSC  F84.0
08BEC:  BRA    8C1C
....................          {  
....................             if(Opcion==1) 
08BEE:  MOVLB  6
08BF0:  DECFSZ xE4,W
08BF2:  BRA    8BFA
....................                EstadoDesfogue=!EstadoDesfogue; 
08BF4:  MOVLB  4
08BF6:  BTG    x5E.6
08BF8:  MOVLB  6
....................              
....................             if(Opcion==2) 
08BFA:  MOVF   xE4,W
08BFC:  SUBLW  02
08BFE:  BNZ   8C06
....................                EstadoAgua=!EstadoAgua; 
08C00:  MOVLB  4
08C02:  BTG    x5E.7
08C04:  MOVLB  6
....................                 
....................             if(Opcion==3) 
08C06:  MOVF   xE4,W
08C08:  SUBLW  03
08C0A:  BNZ   8C10
....................                EstadoSSR=!EstadoSSR; 
08C0C:  MOVLB  4
08C0E:  BTG    x5F.0
....................              
....................             delay_ms(100); 
08C10:  MOVLW  64
08C12:  MOVLB  7
08C14:  MOVWF  x33
08C16:  MOVLB  0
08C18:  CALL   174A
....................          } 
....................        
....................          strcpy(Menus.Letra,"Estados"); 
08C1C:  MOVLW  07
08C1E:  MOVWF  FEA
08C20:  MOVLW  09
08C22:  MOVWF  FE9
08C24:  MOVFF  FF2,72D
08C28:  BCF    FF2.7
08C2A:  MOVLW  00
08C2C:  CALL   0ED0
08C30:  TBLRD*-
08C32:  TBLRD*+
08C34:  MOVF   FF5,W
08C36:  MOVWF  FEE
08C38:  IORLW  00
08C3A:  BNZ   8C32
08C3C:  MOVLB  7
08C3E:  BTFSC  x2D.7
08C40:  BSF    FF2.7
....................          displayMenu(Menus.Letra,0,0,1,1); 
08C42:  MOVLW  07
08C44:  MOVWF  x2E
08C46:  MOVLW  09
08C48:  MOVWF  x2D
08C4A:  CLRF   x2F
08C4C:  CLRF   x30
08C4E:  MOVLW  01
08C50:  MOVWF  x31
08C52:  MOVWF  x32
08C54:  MOVLB  0
08C56:  CALL   225C
....................           
....................        
....................          if(UP)//Si oprime hacia arriba 
08C5A:  BSF    F92.4
08C5C:  BTFSC  F80.4
08C5E:  BRA    8C7A
....................          {   
....................             Opcion--;delay_ms(10);glcd_fillscreen(OFF); 
08C60:  MOVLB  6
08C62:  DECF   xE4,F
08C64:  MOVLW  0A
08C66:  MOVLB  7
08C68:  MOVWF  x33
08C6A:  MOVLB  0
08C6C:  CALL   174A
08C70:  MOVLB  7
08C72:  CLRF   x2E
08C74:  MOVLB  0
08C76:  CALL   1C2E
....................          } 
....................                 
....................          if(DOWN)//Si oprime hacia abajo 
08C7A:  BSF    F92.5
08C7C:  BTFSC  F80.5
08C7E:  BRA    8C9A
....................          {   
....................             Opcion++;delay_ms(10);glcd_fillscreen(OFF); 
08C80:  MOVLB  6
08C82:  INCF   xE4,F
08C84:  MOVLW  0A
08C86:  MOVLB  7
08C88:  MOVWF  x33
08C8A:  MOVLB  0
08C8C:  CALL   174A
08C90:  MOVLB  7
08C92:  CLRF   x2E
08C94:  MOVLB  0
08C96:  CALL   1C2E
....................          } 
....................                            
....................          if(LEFT)//Si oprime boton de Toma. 
08C9A:  BSF    F96.1
08C9C:  BTFSC  F84.1
08C9E:  BRA    8CD8
....................          { 
....................             PruebaEstados=OFF;Desfogue_off;AguaIn_off;SSR_off; 
08CA0:  MOVLB  4
08CA2:  BCF    x5F.1
08CA4:  BSF    F8B.5
08CA6:  BCF    F94.5
08CA8:  BSF    F8B.6
08CAA:  BCF    F94.6
08CAC:  BSF    F8B.2
08CAE:  BCF    F94.2
....................             glcd_fillscreen(OFF);Menu=1;delay_ms(500); 
08CB0:  MOVLB  7
08CB2:  CLRF   x2E
08CB4:  MOVLB  0
08CB6:  CALL   1C2E
08CBA:  MOVLW  01
08CBC:  MOVLB  6
08CBE:  MOVWF  xDE
08CC0:  MOVLW  02
08CC2:  MOVLB  7
08CC4:  MOVWF  x2D
08CC6:  MOVLW  FA
08CC8:  MOVWF  x33
08CCA:  MOVLB  0
08CCC:  CALL   174A
08CD0:  MOVLB  7
08CD2:  DECFSZ x2D,F
08CD4:  BRA    8CC6
08CD6:  MOVLB  0
08CD8:  MOVLB  6
....................          } 
....................      } 
.................... //_--------------------------------------------------------------------------------------------------------------------------------------------------------     
....................  
.................... //_--------------------------------------------------------------------------------------------------------------------------------------------------------       
....................       if(Menu==11){ // Menu de Tiempo de Esterilizacin 
08CDA:  MOVF   xDE,W
08CDC:  SUBLW  0B
08CDE:  BTFSS  FD8.2
08CE0:  BRA    8FEA
....................       
....................       if(visual==1) 
08CE2:  BTFSS  xDA.2
08CE4:  BRA    8E70
....................       { 
....................          if(unidad<1) 
08CE6:  MOVF   xDF,F
08CE8:  BNZ   8CEE
....................          {unidad=4;} 
08CEA:  MOVLW  04
08CEC:  MOVWF  xDF
....................           
....................          strcpy(Menus.Letra,"T. Ester."); 
08CEE:  MOVLW  07
08CF0:  MOVWF  FEA
08CF2:  MOVLW  09
08CF4:  MOVWF  FE9
08CF6:  MOVFF  FF2,72D
08CFA:  BCF    FF2.7
08CFC:  MOVLW  00
08CFE:  MOVLB  0
08D00:  CALL   0EF6
08D04:  TBLRD*-
08D06:  TBLRD*+
08D08:  MOVF   FF5,W
08D0A:  MOVWF  FEE
08D0C:  IORLW  00
08D0E:  BNZ   8D06
08D10:  MOVLB  7
08D12:  BTFSC  x2D.7
08D14:  BSF    FF2.7
....................          displayMenu(Menus.Letra,0,0,1,2); 
08D16:  MOVLW  07
08D18:  MOVWF  x2E
08D1A:  MOVLW  09
08D1C:  MOVWF  x2D
08D1E:  CLRF   x2F
08D20:  CLRF   x30
08D22:  MOVLW  01
08D24:  MOVWF  x31
08D26:  MOVLW  02
08D28:  MOVWF  x32
08D2A:  MOVLB  0
08D2C:  CALL   225C
....................           
....................          if(unidad==4) 
08D30:  MOVLB  6
08D32:  MOVF   xDF,W
08D34:  SUBLW  04
08D36:  BNZ   8D56
....................          {displayTiempo(Testerilizacionp[3],20,40,1,2);} 
08D38:  MOVFF  471,72D
08D3C:  MOVLW  14
08D3E:  MOVLB  7
08D40:  MOVWF  x2E
08D42:  MOVLW  28
08D44:  MOVWF  x2F
08D46:  MOVLW  01
08D48:  MOVWF  x30
08D4A:  MOVLW  02
08D4C:  MOVWF  x31
08D4E:  MOVLB  0
08D50:  CALL   39C0
....................          else 
08D54:  BRA    8D70
....................          {displayTiempo(Testerilizacionp[3],20,40,0,2);} 
08D56:  MOVFF  471,72D
08D5A:  MOVLW  14
08D5C:  MOVLB  7
08D5E:  MOVWF  x2E
08D60:  MOVLW  28
08D62:  MOVWF  x2F
08D64:  CLRF   x30
08D66:  MOVLW  02
08D68:  MOVWF  x31
08D6A:  MOVLB  0
08D6C:  CALL   39C0
....................           
....................          if(unidad==3) 
08D70:  MOVLB  6
08D72:  MOVF   xDF,W
08D74:  SUBLW  03
08D76:  BNZ   8D94
....................          {displayTiempo(Testerilizacionp[2],40,40,1,2);} 
08D78:  MOVFF  470,72D
08D7C:  MOVLW  28
08D7E:  MOVLB  7
08D80:  MOVWF  x2E
08D82:  MOVWF  x2F
08D84:  MOVLW  01
08D86:  MOVWF  x30
08D88:  MOVLW  02
08D8A:  MOVWF  x31
08D8C:  MOVLB  0
08D8E:  CALL   39C0
....................          else 
08D92:  BRA    8DAC
....................          {displayTiempo(Testerilizacionp[2],40,40,0,2);} 
08D94:  MOVFF  470,72D
08D98:  MOVLW  28
08D9A:  MOVLB  7
08D9C:  MOVWF  x2E
08D9E:  MOVWF  x2F
08DA0:  CLRF   x30
08DA2:  MOVLW  02
08DA4:  MOVWF  x31
08DA6:  MOVLB  0
08DA8:  CALL   39C0
....................           
....................          if(unidad==2) 
08DAC:  MOVLB  6
08DAE:  MOVF   xDF,W
08DB0:  SUBLW  02
08DB2:  BNZ   8DD2
....................          {displayTiempo(Testerilizacionp[1],70,40,1,2);} 
08DB4:  MOVFF  46F,72D
08DB8:  MOVLW  46
08DBA:  MOVLB  7
08DBC:  MOVWF  x2E
08DBE:  MOVLW  28
08DC0:  MOVWF  x2F
08DC2:  MOVLW  01
08DC4:  MOVWF  x30
08DC6:  MOVLW  02
08DC8:  MOVWF  x31
08DCA:  MOVLB  0
08DCC:  CALL   39C0
....................          else 
08DD0:  BRA    8DEC
....................          {displayTiempo(Testerilizacionp[1],70,40,0,2);} 
08DD2:  MOVFF  46F,72D
08DD6:  MOVLW  46
08DD8:  MOVLB  7
08DDA:  MOVWF  x2E
08DDC:  MOVLW  28
08DDE:  MOVWF  x2F
08DE0:  CLRF   x30
08DE2:  MOVLW  02
08DE4:  MOVWF  x31
08DE6:  MOVLB  0
08DE8:  CALL   39C0
....................           
....................          if(unidad==1) 
08DEC:  MOVLB  6
08DEE:  DECFSZ xDF,W
08DF0:  BRA    8E10
....................          {displayTiempo(Testerilizacionp[0],90,40,1,2);} 
08DF2:  MOVFF  46E,72D
08DF6:  MOVLW  5A
08DF8:  MOVLB  7
08DFA:  MOVWF  x2E
08DFC:  MOVLW  28
08DFE:  MOVWF  x2F
08E00:  MOVLW  01
08E02:  MOVWF  x30
08E04:  MOVLW  02
08E06:  MOVWF  x31
08E08:  MOVLB  0
08E0A:  CALL   39C0
....................          else 
08E0E:  BRA    8E2A
....................          {displayTiempo(Testerilizacionp[0],90,40,0,2);} 
08E10:  MOVFF  46E,72D
08E14:  MOVLW  5A
08E16:  MOVLB  7
08E18:  MOVWF  x2E
08E1A:  MOVLW  28
08E1C:  MOVWF  x2F
08E1E:  CLRF   x30
08E20:  MOVLW  02
08E22:  MOVWF  x31
08E24:  MOVLB  0
08E26:  CALL   39C0
....................           
....................          strcpy(Menus.Letra,":"); 
08E2A:  MOVLW  07
08E2C:  MOVWF  FEA
08E2E:  MOVLW  09
08E30:  MOVWF  FE9
08E32:  MOVFF  FF2,72D
08E36:  BCF    FF2.7
08E38:  MOVLW  00
08E3A:  CALL   06DE
08E3E:  TBLRD*-
08E40:  TBLRD*+
08E42:  MOVF   FF5,W
08E44:  MOVWF  FEE
08E46:  IORLW  00
08E48:  BNZ   8E40
08E4A:  MOVLB  7
08E4C:  BTFSC  x2D.7
08E4E:  BSF    FF2.7
....................          displayMenu(Menus.Letra,60,42,2,2);      
08E50:  MOVLW  07
08E52:  MOVWF  x2E
08E54:  MOVLW  09
08E56:  MOVWF  x2D
08E58:  MOVLW  3C
08E5A:  MOVWF  x2F
08E5C:  MOVLW  2A
08E5E:  MOVWF  x30
08E60:  MOVLW  02
08E62:  MOVWF  x31
08E64:  MOVWF  x32
08E66:  MOVLB  0
08E68:  CALL   225C
....................           
....................          visual=0; 
08E6C:  MOVLB  6
08E6E:  BCF    xDA.2
....................       } 
....................        
....................        
....................          if(UP)//Si oprime hacia arriba 
08E70:  BSF    F92.4
08E72:  BTFSC  F80.4
08E74:  BRA    8EB2
....................          {   
....................             if(Testerilizacionp[unidad-1]<9) 
08E76:  MOVLW  01
08E78:  SUBWF  xDF,W
08E7A:  CLRF   03
08E7C:  ADDLW  6E
08E7E:  MOVWF  FE9
08E80:  MOVLW  04
08E82:  ADDWFC 03,W
08E84:  MOVWF  FEA
08E86:  BTFSC  FEF.7
08E88:  BRA    8E90
08E8A:  MOVF   FEF,W
08E8C:  SUBLW  08
08E8E:  BNC   8EB2
....................             { 
....................                delay_ms(30);Testerilizacionp[unidad-1]++;visual=1; 
08E90:  MOVLW  1E
08E92:  MOVLB  7
08E94:  MOVWF  x33
08E96:  MOVLB  0
08E98:  CALL   174A
08E9C:  MOVLW  01
08E9E:  MOVLB  6
08EA0:  SUBWF  xDF,W
08EA2:  CLRF   03
08EA4:  ADDLW  6E
08EA6:  MOVWF  FE9
08EA8:  MOVLW  04
08EAA:  ADDWFC 03,W
08EAC:  MOVWF  FEA
08EAE:  INCF   FEF,F
08EB0:  BSF    xDA.2
....................             } 
....................          } 
....................                 
....................          if(DOWN)//Si oprime hacia abajo 
08EB2:  BSF    F92.5
08EB4:  BTFSC  F80.5
08EB6:  BRA    8EF4
....................          {   
....................             if(Testerilizacionp[unidad-1]>0) 
08EB8:  MOVLW  01
08EBA:  SUBWF  xDF,W
08EBC:  CLRF   03
08EBE:  ADDLW  6E
08EC0:  MOVWF  FE9
08EC2:  MOVLW  04
08EC4:  ADDWFC 03,W
08EC6:  MOVWF  FEA
08EC8:  BTFSC  FEF.7
08ECA:  BRA    8EF4
08ECC:  MOVF   FEF,W
08ECE:  SUBLW  00
08ED0:  BC    8EF4
....................             { 
....................                delay_ms(30);Testerilizacionp[unidad-1]--;visual=1;      
08ED2:  MOVLW  1E
08ED4:  MOVLB  7
08ED6:  MOVWF  x33
08ED8:  MOVLB  0
08EDA:  CALL   174A
08EDE:  MOVLW  01
08EE0:  MOVLB  6
08EE2:  SUBWF  xDF,W
08EE4:  CLRF   03
08EE6:  ADDLW  6E
08EE8:  MOVWF  FE9
08EEA:  MOVLW  04
08EEC:  ADDWFC 03,W
08EEE:  MOVWF  FEA
08EF0:  DECF   FEF,F
08EF2:  BSF    xDA.2
....................             } 
....................          } 
....................                 
....................          if(RIGHT)//Si oprime SET 
08EF4:  BSF    F96.0
08EF6:  BTFSC  F84.0
08EF8:  BRA    8F0C
....................          {   
....................             delay_ms(30);unidad--;visual=1; 
08EFA:  MOVLW  1E
08EFC:  MOVLB  7
08EFE:  MOVWF  x33
08F00:  MOVLB  0
08F02:  CALL   174A
08F06:  MOVLB  6
08F08:  DECF   xDF,F
08F0A:  BSF    xDA.2
....................          }  
....................                    
....................          if(LEFT)//Si oprime boton de Toma. 
08F0C:  BSF    F96.1
08F0E:  BTFSC  F84.1
08F10:  BRA    8FEA
....................          { 
....................             delay_ms(700);Menu=8;glcd_fillscreen(OFF);Opcion=1;visual=1; 
08F12:  MOVLW  04
08F14:  MOVLB  7
08F16:  MOVWF  x2D
08F18:  MOVLW  AF
08F1A:  MOVWF  x33
08F1C:  MOVLB  0
08F1E:  CALL   174A
08F22:  MOVLB  7
08F24:  DECFSZ x2D,F
08F26:  BRA    8F18
08F28:  MOVLW  08
08F2A:  MOVLB  6
08F2C:  MOVWF  xDE
08F2E:  MOVLB  7
08F30:  CLRF   x2E
08F32:  MOVLB  0
08F34:  CALL   1C2E
08F38:  MOVLW  01
08F3A:  MOVLB  6
08F3C:  MOVWF  xE4
08F3E:  BSF    xDA.2
....................             write_eeprom(0,Testerilizacionp[0]);write_eeprom(1,Testerilizacionp[1]); 
08F40:  CLRF   FAA
08F42:  CLRF   FA9
08F44:  MOVFF  46E,FA8
08F48:  BCF    FA6.6
08F4A:  BCF    FA6.7
08F4C:  BSF    FA6.2
08F4E:  MOVF   FF2,W
08F50:  MOVWF  00
08F52:  BCF    FF2.7
08F54:  MOVLB  F
08F56:  MOVLW  55
08F58:  MOVWF  FA7
08F5A:  MOVLW  AA
08F5C:  MOVWF  FA7
08F5E:  BSF    FA6.1
08F60:  BTFSC  FA6.1
08F62:  BRA    8F60
08F64:  BCF    FA6.2
08F66:  MOVF   00,W
08F68:  IORWF  FF2,F
08F6A:  CLRF   FAA
08F6C:  MOVLW  01
08F6E:  MOVWF  FA9
08F70:  MOVFF  46F,FA8
08F74:  BCF    FA6.6
08F76:  BCF    FA6.7
08F78:  BSF    FA6.2
08F7A:  MOVF   FF2,W
08F7C:  MOVWF  00
08F7E:  BCF    FF2.7
08F80:  MOVLW  55
08F82:  MOVWF  FA7
08F84:  MOVLW  AA
08F86:  MOVWF  FA7
08F88:  BSF    FA6.1
08F8A:  BTFSC  FA6.1
08F8C:  BRA    8F8A
08F8E:  BCF    FA6.2
08F90:  MOVF   00,W
08F92:  IORWF  FF2,F
....................             write_eeprom(2,Testerilizacionp[2]);write_eeprom(3,Testerilizacionp[3]); 
08F94:  CLRF   FAA
08F96:  MOVLW  02
08F98:  MOVWF  FA9
08F9A:  MOVFF  470,FA8
08F9E:  BCF    FA6.6
08FA0:  BCF    FA6.7
08FA2:  BSF    FA6.2
08FA4:  MOVFF  FF2,00
08FA8:  BCF    FF2.7
08FAA:  MOVLW  55
08FAC:  MOVWF  FA7
08FAE:  MOVLW  AA
08FB0:  MOVWF  FA7
08FB2:  BSF    FA6.1
08FB4:  BTFSC  FA6.1
08FB6:  BRA    8FB4
08FB8:  BCF    FA6.2
08FBA:  MOVF   00,W
08FBC:  IORWF  FF2,F
08FBE:  CLRF   FAA
08FC0:  MOVLW  03
08FC2:  MOVWF  FA9
08FC4:  MOVFF  471,FA8
08FC8:  BCF    FA6.6
08FCA:  BCF    FA6.7
08FCC:  BSF    FA6.2
08FCE:  MOVFF  FF2,00
08FD2:  BCF    FF2.7
08FD4:  MOVLW  55
08FD6:  MOVWF  FA7
08FD8:  MOVLW  AA
08FDA:  MOVWF  FA7
08FDC:  BSF    FA6.1
08FDE:  BTFSC  FA6.1
08FE0:  BRA    8FDE
08FE2:  BCF    FA6.2
08FE4:  MOVF   00,W
08FE6:  IORWF  FF2,F
08FE8:  MOVLB  6
....................          } 
....................      } 
.................... //_--------------------------------------------------------------------------------------------------------------------------------------------------------     
....................  
.................... //_--------------------------------------------------------------------------------------------------------------------------------------------------------       
....................       if(Menu==12){ // Menu de Tiempo de Secado 
08FEA:  MOVF   xDE,W
08FEC:  SUBLW  0C
08FEE:  BTFSS  FD8.2
08FF0:  BRA    92FC
....................       
....................       if(visual==1) 
08FF2:  BTFSS  xDA.2
08FF4:  BRA    9180
....................       { 
....................          if(unidad<1) 
08FF6:  MOVF   xDF,F
08FF8:  BNZ   8FFE
....................          {unidad=4;} 
08FFA:  MOVLW  04
08FFC:  MOVWF  xDF
....................           
....................          strcpy(Menus.Letra," Secado"); 
08FFE:  MOVLW  07
09000:  MOVWF  FEA
09002:  MOVLW  09
09004:  MOVWF  FE9
09006:  MOVFF  FF2,72D
0900A:  BCF    FF2.7
0900C:  MOVLW  00
0900E:  MOVLB  0
09010:  CALL   0F1E
09014:  TBLRD*-
09016:  TBLRD*+
09018:  MOVF   FF5,W
0901A:  MOVWF  FEE
0901C:  IORLW  00
0901E:  BNZ   9016
09020:  MOVLB  7
09022:  BTFSC  x2D.7
09024:  BSF    FF2.7
....................          displayMenu(Menus.Letra,0,0,1,2); 
09026:  MOVLW  07
09028:  MOVWF  x2E
0902A:  MOVLW  09
0902C:  MOVWF  x2D
0902E:  CLRF   x2F
09030:  CLRF   x30
09032:  MOVLW  01
09034:  MOVWF  x31
09036:  MOVLW  02
09038:  MOVWF  x32
0903A:  MOVLB  0
0903C:  CALL   225C
....................           
....................          if(unidad==4) 
09040:  MOVLB  6
09042:  MOVF   xDF,W
09044:  SUBLW  04
09046:  BNZ   9066
....................          {displayTiempo(Tsecadop[3],20,40,1,2);} 
09048:  MOVFF  479,72D
0904C:  MOVLW  14
0904E:  MOVLB  7
09050:  MOVWF  x2E
09052:  MOVLW  28
09054:  MOVWF  x2F
09056:  MOVLW  01
09058:  MOVWF  x30
0905A:  MOVLW  02
0905C:  MOVWF  x31
0905E:  MOVLB  0
09060:  CALL   39C0
....................          else 
09064:  BRA    9080
....................          {displayTiempo(Tsecadop[3],20,40,0,2);} 
09066:  MOVFF  479,72D
0906A:  MOVLW  14
0906C:  MOVLB  7
0906E:  MOVWF  x2E
09070:  MOVLW  28
09072:  MOVWF  x2F
09074:  CLRF   x30
09076:  MOVLW  02
09078:  MOVWF  x31
0907A:  MOVLB  0
0907C:  CALL   39C0
....................           
....................          if(unidad==3) 
09080:  MOVLB  6
09082:  MOVF   xDF,W
09084:  SUBLW  03
09086:  BNZ   90A4
....................          {displayTiempo(Tsecadop[2],40,40,1,2);} 
09088:  MOVFF  478,72D
0908C:  MOVLW  28
0908E:  MOVLB  7
09090:  MOVWF  x2E
09092:  MOVWF  x2F
09094:  MOVLW  01
09096:  MOVWF  x30
09098:  MOVLW  02
0909A:  MOVWF  x31
0909C:  MOVLB  0
0909E:  CALL   39C0
....................          else 
090A2:  BRA    90BC
....................          {displayTiempo(Tsecadop[2],40,40,0,2);} 
090A4:  MOVFF  478,72D
090A8:  MOVLW  28
090AA:  MOVLB  7
090AC:  MOVWF  x2E
090AE:  MOVWF  x2F
090B0:  CLRF   x30
090B2:  MOVLW  02
090B4:  MOVWF  x31
090B6:  MOVLB  0
090B8:  CALL   39C0
....................           
....................          if(unidad==2) 
090BC:  MOVLB  6
090BE:  MOVF   xDF,W
090C0:  SUBLW  02
090C2:  BNZ   90E2
....................          {displayTiempo(Tsecadop[1],70,40,1,2);} 
090C4:  MOVFF  477,72D
090C8:  MOVLW  46
090CA:  MOVLB  7
090CC:  MOVWF  x2E
090CE:  MOVLW  28
090D0:  MOVWF  x2F
090D2:  MOVLW  01
090D4:  MOVWF  x30
090D6:  MOVLW  02
090D8:  MOVWF  x31
090DA:  MOVLB  0
090DC:  CALL   39C0
....................          else 
090E0:  BRA    90FC
....................          {displayTiempo(Tsecadop[1],70,40,0,2);} 
090E2:  MOVFF  477,72D
090E6:  MOVLW  46
090E8:  MOVLB  7
090EA:  MOVWF  x2E
090EC:  MOVLW  28
090EE:  MOVWF  x2F
090F0:  CLRF   x30
090F2:  MOVLW  02
090F4:  MOVWF  x31
090F6:  MOVLB  0
090F8:  CALL   39C0
....................           
....................          if(unidad==1) 
090FC:  MOVLB  6
090FE:  DECFSZ xDF,W
09100:  BRA    9120
....................          {displayTiempo(Tsecadop[0],90,40,1,2);} 
09102:  MOVFF  476,72D
09106:  MOVLW  5A
09108:  MOVLB  7
0910A:  MOVWF  x2E
0910C:  MOVLW  28
0910E:  MOVWF  x2F
09110:  MOVLW  01
09112:  MOVWF  x30
09114:  MOVLW  02
09116:  MOVWF  x31
09118:  MOVLB  0
0911A:  CALL   39C0
....................          else 
0911E:  BRA    913A
....................          {displayTiempo(Tsecadop[0],90,40,0,2);} 
09120:  MOVFF  476,72D
09124:  MOVLW  5A
09126:  MOVLB  7
09128:  MOVWF  x2E
0912A:  MOVLW  28
0912C:  MOVWF  x2F
0912E:  CLRF   x30
09130:  MOVLW  02
09132:  MOVWF  x31
09134:  MOVLB  0
09136:  CALL   39C0
....................           
....................          strcpy(Menus.Letra,":"); 
0913A:  MOVLW  07
0913C:  MOVWF  FEA
0913E:  MOVLW  09
09140:  MOVWF  FE9
09142:  MOVFF  FF2,72D
09146:  BCF    FF2.7
09148:  MOVLW  00
0914A:  CALL   06DE
0914E:  TBLRD*-
09150:  TBLRD*+
09152:  MOVF   FF5,W
09154:  MOVWF  FEE
09156:  IORLW  00
09158:  BNZ   9150
0915A:  MOVLB  7
0915C:  BTFSC  x2D.7
0915E:  BSF    FF2.7
....................          displayMenu(Menus.Letra,60,42,2,2);  
09160:  MOVLW  07
09162:  MOVWF  x2E
09164:  MOVLW  09
09166:  MOVWF  x2D
09168:  MOVLW  3C
0916A:  MOVWF  x2F
0916C:  MOVLW  2A
0916E:  MOVWF  x30
09170:  MOVLW  02
09172:  MOVWF  x31
09174:  MOVWF  x32
09176:  MOVLB  0
09178:  CALL   225C
....................           
....................          visual=0; 
0917C:  MOVLB  6
0917E:  BCF    xDA.2
....................       } 
....................        
....................        
....................          if(UP)//Si oprime hacia arriba 
09180:  BSF    F92.4
09182:  BTFSC  F80.4
09184:  BRA    91C2
....................          {   
....................             if(Tsecadop[unidad-1]<9) 
09186:  MOVLW  01
09188:  SUBWF  xDF,W
0918A:  CLRF   03
0918C:  ADDLW  76
0918E:  MOVWF  FE9
09190:  MOVLW  04
09192:  ADDWFC 03,W
09194:  MOVWF  FEA
09196:  BTFSC  FEF.7
09198:  BRA    91A0
0919A:  MOVF   FEF,W
0919C:  SUBLW  08
0919E:  BNC   91C2
....................             { 
....................                delay_ms(30);Tsecadop[unidad-1]++;visual=1; 
091A0:  MOVLW  1E
091A2:  MOVLB  7
091A4:  MOVWF  x33
091A6:  MOVLB  0
091A8:  CALL   174A
091AC:  MOVLW  01
091AE:  MOVLB  6
091B0:  SUBWF  xDF,W
091B2:  CLRF   03
091B4:  ADDLW  76
091B6:  MOVWF  FE9
091B8:  MOVLW  04
091BA:  ADDWFC 03,W
091BC:  MOVWF  FEA
091BE:  INCF   FEF,F
091C0:  BSF    xDA.2
....................             } 
....................          } 
....................                 
....................          if(DOWN)//Si oprime hacia abajo 
091C2:  BSF    F92.5
091C4:  BTFSC  F80.5
091C6:  BRA    9204
....................          {   
....................             if(Tsecadop[unidad-1]>0) 
091C8:  MOVLW  01
091CA:  SUBWF  xDF,W
091CC:  CLRF   03
091CE:  ADDLW  76
091D0:  MOVWF  FE9
091D2:  MOVLW  04
091D4:  ADDWFC 03,W
091D6:  MOVWF  FEA
091D8:  BTFSC  FEF.7
091DA:  BRA    9204
091DC:  MOVF   FEF,W
091DE:  SUBLW  00
091E0:  BC    9204
....................             { 
....................                delay_ms(30);Tsecadop[unidad-1]--;visual=1;      
091E2:  MOVLW  1E
091E4:  MOVLB  7
091E6:  MOVWF  x33
091E8:  MOVLB  0
091EA:  CALL   174A
091EE:  MOVLW  01
091F0:  MOVLB  6
091F2:  SUBWF  xDF,W
091F4:  CLRF   03
091F6:  ADDLW  76
091F8:  MOVWF  FE9
091FA:  MOVLW  04
091FC:  ADDWFC 03,W
091FE:  MOVWF  FEA
09200:  DECF   FEF,F
09202:  BSF    xDA.2
....................             } 
....................          } 
....................                 
....................          if(RIGHT)//Si oprime SET 
09204:  BSF    F96.0
09206:  BTFSC  F84.0
09208:  BRA    921C
....................          {   
....................             delay_ms(30);unidad--;visual=1; 
0920A:  MOVLW  1E
0920C:  MOVLB  7
0920E:  MOVWF  x33
09210:  MOVLB  0
09212:  CALL   174A
09216:  MOVLB  6
09218:  DECF   xDF,F
0921A:  BSF    xDA.2
....................          }  
....................                    
....................          if(LEFT)//Si oprime boton de Toma. 
0921C:  BSF    F96.1
0921E:  BTFSC  F84.1
09220:  BRA    92FC
....................          { 
....................             delay_ms(700);Menu=8;glcd_fillscreen(OFF);Opcion=1;visual=1; 
09222:  MOVLW  04
09224:  MOVLB  7
09226:  MOVWF  x2D
09228:  MOVLW  AF
0922A:  MOVWF  x33
0922C:  MOVLB  0
0922E:  CALL   174A
09232:  MOVLB  7
09234:  DECFSZ x2D,F
09236:  BRA    9228
09238:  MOVLW  08
0923A:  MOVLB  6
0923C:  MOVWF  xDE
0923E:  MOVLB  7
09240:  CLRF   x2E
09242:  MOVLB  0
09244:  CALL   1C2E
09248:  MOVLW  01
0924A:  MOVLB  6
0924C:  MOVWF  xE4
0924E:  BSF    xDA.2
....................             write_eeprom(4,Tsecadop[0]);write_eeprom(5,Tsecadop[1]); 
09250:  CLRF   FAA
09252:  MOVLW  04
09254:  MOVWF  FA9
09256:  MOVFF  476,FA8
0925A:  BCF    FA6.6
0925C:  BCF    FA6.7
0925E:  BSF    FA6.2
09260:  MOVF   FF2,W
09262:  MOVWF  00
09264:  BCF    FF2.7
09266:  MOVLB  F
09268:  MOVLW  55
0926A:  MOVWF  FA7
0926C:  MOVLW  AA
0926E:  MOVWF  FA7
09270:  BSF    FA6.1
09272:  BTFSC  FA6.1
09274:  BRA    9272
09276:  BCF    FA6.2
09278:  MOVF   00,W
0927A:  IORWF  FF2,F
0927C:  CLRF   FAA
0927E:  MOVLW  05
09280:  MOVWF  FA9
09282:  MOVFF  477,FA8
09286:  BCF    FA6.6
09288:  BCF    FA6.7
0928A:  BSF    FA6.2
0928C:  MOVF   FF2,W
0928E:  MOVWF  00
09290:  BCF    FF2.7
09292:  MOVLW  55
09294:  MOVWF  FA7
09296:  MOVLW  AA
09298:  MOVWF  FA7
0929A:  BSF    FA6.1
0929C:  BTFSC  FA6.1
0929E:  BRA    929C
092A0:  BCF    FA6.2
092A2:  MOVF   00,W
092A4:  IORWF  FF2,F
....................             write_eeprom(6,Tsecadop[2]);write_eeprom(7,Tsecadop[3]); 
092A6:  CLRF   FAA
092A8:  MOVLW  06
092AA:  MOVWF  FA9
092AC:  MOVFF  478,FA8
092B0:  BCF    FA6.6
092B2:  BCF    FA6.7
092B4:  BSF    FA6.2
092B6:  MOVFF  FF2,00
092BA:  BCF    FF2.7
092BC:  MOVLW  55
092BE:  MOVWF  FA7
092C0:  MOVLW  AA
092C2:  MOVWF  FA7
092C4:  BSF    FA6.1
092C6:  BTFSC  FA6.1
092C8:  BRA    92C6
092CA:  BCF    FA6.2
092CC:  MOVF   00,W
092CE:  IORWF  FF2,F
092D0:  CLRF   FAA
092D2:  MOVLW  07
092D4:  MOVWF  FA9
092D6:  MOVFF  479,FA8
092DA:  BCF    FA6.6
092DC:  BCF    FA6.7
092DE:  BSF    FA6.2
092E0:  MOVFF  FF2,00
092E4:  BCF    FF2.7
092E6:  MOVLW  55
092E8:  MOVWF  FA7
092EA:  MOVLW  AA
092EC:  MOVWF  FA7
092EE:  BSF    FA6.1
092F0:  BTFSC  FA6.1
092F2:  BRA    92F0
092F4:  BCF    FA6.2
092F6:  MOVF   00,W
092F8:  IORWF  FF2,F
092FA:  MOVLB  6
....................          } 
....................      } 
.................... //_--------------------------------------------------------------------------------------------------------------------------------------------------------     
....................  
.................... //_--------------------------------------------------------------------------------------------------------------------------------------------------------       
....................       if(Menu==13){ // Menu de Temperatura 
092FC:  MOVF   xDE,W
092FE:  SUBLW  0D
09300:  BTFSS  FD8.2
09302:  BRA    943C
....................       
....................       if(visual==1) 
09304:  BTFSS  xDA.2
09306:  BRA    936E
....................       { 
....................          glcd_fillScreen(OFF); 
09308:  MOVLB  7
0930A:  CLRF   x2E
0930C:  MOVLB  0
0930E:  CALL   1C2E
....................          strcpy(Menus.Letra,"Temperatura"); 
09312:  MOVLW  07
09314:  MOVWF  FEA
09316:  MOVLW  09
09318:  MOVWF  FE9
0931A:  MOVFF  FF2,72D
0931E:  BCF    FF2.7
09320:  MOVLW  00
09322:  CALL   0C98
09326:  TBLRD*-
09328:  TBLRD*+
0932A:  MOVF   FF5,W
0932C:  MOVWF  FEE
0932E:  IORLW  00
09330:  BNZ   9328
09332:  MOVLB  7
09334:  BTFSC  x2D.7
09336:  BSF    FF2.7
....................          displayMenu(Menus.Letra,0,0,1,2); 
09338:  MOVLW  07
0933A:  MOVWF  x2E
0933C:  MOVLW  09
0933E:  MOVWF  x2D
09340:  CLRF   x2F
09342:  CLRF   x30
09344:  MOVLW  01
09346:  MOVWF  x31
09348:  MOVLW  02
0934A:  MOVWF  x32
0934C:  MOVLB  0
0934E:  CALL   225C
....................           
....................          displayTiempo(Setpoint,30,30,0,3); 
09352:  MOVFF  6E3,72D
09356:  MOVLW  1E
09358:  MOVLB  7
0935A:  MOVWF  x2E
0935C:  MOVWF  x2F
0935E:  CLRF   x30
09360:  MOVLW  03
09362:  MOVWF  x31
09364:  MOVLB  0
09366:  CALL   39C0
....................           
....................          visual=0; 
0936A:  MOVLB  6
0936C:  BCF    xDA.2
....................       } 
....................        
....................          if(UP)//Si oprime hacia arriba 
0936E:  BSF    F92.4
09370:  BTFSC  F80.4
09372:  BRA    93A6
....................          {   
....................             if(Setpoint<134) 
09374:  MOVF   xE3,W
09376:  SUBLW  85
09378:  BNC   93A6
....................             { 
....................                if(Setpoint<100) 
0937A:  MOVF   xE3,W
0937C:  SUBLW  63
0937E:  BNC   9394
....................                { 
....................                   Setpoint=100;delay_ms(100);visual=1; 
09380:  MOVLW  64
09382:  MOVWF  xE3
09384:  MOVLB  7
09386:  MOVWF  x33
09388:  MOVLB  0
0938A:  CALL   174A
0938E:  MOVLB  6
09390:  BSF    xDA.2
....................                } 
....................                else 
09392:  BRA    93A6
....................                { 
....................                   delay_ms(30);Setpoint++;visual=1; 
09394:  MOVLW  1E
09396:  MOVLB  7
09398:  MOVWF  x33
0939A:  MOVLB  0
0939C:  CALL   174A
093A0:  MOVLB  6
093A2:  INCF   xE3,F
093A4:  BSF    xDA.2
....................                } 
....................             } 
....................          } 
....................                 
....................          if(DOWN)//Si oprime hacia abajo 
093A6:  BSF    F92.5
093A8:  BTFSC  F80.5
093AA:  BRA    93C4
....................          {   
....................             if(Setpoint>105) 
093AC:  MOVF   xE3,W
093AE:  SUBLW  69
093B0:  BC    93C4
....................             { 
....................                delay_ms(30);Setpoint--;visual=1;      
093B2:  MOVLW  1E
093B4:  MOVLB  7
093B6:  MOVWF  x33
093B8:  MOVLB  0
093BA:  CALL   174A
093BE:  MOVLB  6
093C0:  DECF   xE3,F
093C2:  BSF    xDA.2
....................             } 
....................          } 
....................                 
....................          if(RIGHT)//Si oprime SET 
093C4:  BSF    F96.0
093C6:  BTFSC  F84.0
093C8:  BRA    93DA
....................          {   
....................             delay_ms(30);visual=1; 
093CA:  MOVLW  1E
093CC:  MOVLB  7
093CE:  MOVWF  x33
093D0:  MOVLB  0
093D2:  CALL   174A
093D6:  MOVLB  6
093D8:  BSF    xDA.2
....................          }  
....................                    
....................          if(LEFT)//Si oprime boton de Toma. 
093DA:  BSF    F96.1
093DC:  BTFSC  F84.1
093DE:  BRA    943C
....................          { 
....................             delay_ms(700);Menu=8;glcd_fillscreen(OFF);Opcion=1;visual=1; 
093E0:  MOVLW  04
093E2:  MOVLB  7
093E4:  MOVWF  x2D
093E6:  MOVLW  AF
093E8:  MOVWF  x33
093EA:  MOVLB  0
093EC:  CALL   174A
093F0:  MOVLB  7
093F2:  DECFSZ x2D,F
093F4:  BRA    93E6
093F6:  MOVLW  08
093F8:  MOVLB  6
093FA:  MOVWF  xDE
093FC:  MOVLB  7
093FE:  CLRF   x2E
09400:  MOVLB  0
09402:  CALL   1C2E
09406:  MOVLW  01
09408:  MOVLB  6
0940A:  MOVWF  xE4
0940C:  BSF    xDA.2
....................             write_eeprom(8,Setpoint); 
0940E:  CLRF   FAA
09410:  MOVLW  08
09412:  MOVWF  FA9
09414:  MOVFF  6E3,FA8
09418:  BCF    FA6.6
0941A:  BCF    FA6.7
0941C:  BSF    FA6.2
0941E:  MOVF   FF2,W
09420:  MOVWF  00
09422:  BCF    FF2.7
09424:  MOVLB  F
09426:  MOVLW  55
09428:  MOVWF  FA7
0942A:  MOVLW  AA
0942C:  MOVWF  FA7
0942E:  BSF    FA6.1
09430:  BTFSC  FA6.1
09432:  BRA    9430
09434:  BCF    FA6.2
09436:  MOVF   00,W
09438:  IORWF  FF2,F
0943A:  MOVLB  6
....................          } 
....................      } 
.................... //_--------------------------------------------------------------------------------------------------------------------------------------------------------     
....................  
.................... //_--------------------------------------------------------------------------------------------------------------------------------------------------------       
....................       if(Menu==14){ // Menu de Desfogue 
0943C:  MOVF   xDE,W
0943E:  SUBLW  0E
09440:  BTFSS  FD8.2
09442:  BRA    977C
....................       if(Nivel>6) 
09444:  MOVF   xEE,F
09446:  BNZ   944E
09448:  MOVF   xED,W
0944A:  SUBLW  06
0944C:  BC    9454
....................          Nivel=6; 
0944E:  CLRF   xEE
09450:  MOVLW  06
09452:  MOVWF  xED
....................           
....................       if(visual==1) 
09454:  BTFSS  xDA.2
09456:  BRA    94B8
....................       {          
....................          strcpy(Menus.Letra," Desfogue"); 
09458:  MOVLW  07
0945A:  MOVWF  FEA
0945C:  MOVLW  09
0945E:  MOVWF  FE9
09460:  MOVFF  FF2,72D
09464:  BCF    FF2.7
09466:  MOVLW  00
09468:  MOVLB  0
0946A:  CALL   0F44
0946E:  TBLRD*-
09470:  TBLRD*+
09472:  MOVF   FF5,W
09474:  MOVWF  FEE
09476:  IORLW  00
09478:  BNZ   9470
0947A:  MOVLB  7
0947C:  BTFSC  x2D.7
0947E:  BSF    FF2.7
....................          displayMenu(Menus.Letra,0,0,1,2); 
09480:  MOVLW  07
09482:  MOVWF  x2E
09484:  MOVLW  09
09486:  MOVWF  x2D
09488:  CLRF   x2F
0948A:  CLRF   x30
0948C:  MOVLW  01
0948E:  MOVWF  x31
09490:  MOVLW  02
09492:  MOVWF  x32
09494:  MOVLB  0
09496:  CALL   225C
....................           
....................          displayTiempo(Nivel,50,40,0,2); 
0949A:  MOVFF  6ED,72D
0949E:  MOVLW  32
094A0:  MOVLB  7
094A2:  MOVWF  x2E
094A4:  MOVLW  28
094A6:  MOVWF  x2F
094A8:  CLRF   x30
094AA:  MOVLW  02
094AC:  MOVWF  x31
094AE:  MOVLB  0
094B0:  CALL   39C0
....................           
....................          visual=0; 
094B4:  MOVLB  6
094B6:  BCF    xDA.2
....................       } 
....................        
....................        
....................          if(UP)//Si oprime hacia arriba 
094B8:  BSF    F92.4
094BA:  BTFSC  F80.4
094BC:  BRA    94DE
....................          {   
....................             if(Nivel<6) 
094BE:  MOVF   xEE,F
094C0:  BNZ   94DE
094C2:  MOVF   xED,W
094C4:  SUBLW  05
094C6:  BNC   94DE
....................             { 
....................                delay_ms(30);Nivel++;visual=1; 
094C8:  MOVLW  1E
094CA:  MOVLB  7
094CC:  MOVWF  x33
094CE:  MOVLB  0
094D0:  CALL   174A
094D4:  MOVLB  6
094D6:  INCF   xED,F
094D8:  BTFSC  FD8.2
094DA:  INCF   xEE,F
094DC:  BSF    xDA.2
....................             } 
....................          } 
....................                 
....................          if(DOWN)//Si oprime hacia abajo 
094DE:  BSF    F92.5
094E0:  BTFSC  F80.5
094E2:  BRA    9506
....................          {   
....................             if(Nivel>1) 
094E4:  MOVF   xEE,F
094E6:  BNZ   94EE
094E8:  MOVF   xED,W
094EA:  SUBLW  01
094EC:  BC    9506
....................             { 
....................                delay_ms(30);Nivel--;visual=1;      
094EE:  MOVLW  1E
094F0:  MOVLB  7
094F2:  MOVWF  x33
094F4:  MOVLB  0
094F6:  CALL   174A
094FA:  MOVLB  6
094FC:  MOVF   xED,W
094FE:  BTFSC  FD8.2
09500:  DECF   xEE,F
09502:  DECF   xED,F
09504:  BSF    xDA.2
....................             } 
....................          } 
....................           
....................          if(desfoguelento==1) 
09506:  BTFSS  xDA.3
09508:  BRA    96DE
....................          { 
....................             if(RIGHT)//Si oprime SET 
0950A:  BSF    F96.0
0950C:  BTFSC  F84.0
0950E:  BRA    96DC
....................             {   
....................                write_eeprom(9,Nivel); 
09510:  CLRF   FAA
09512:  MOVLW  09
09514:  MOVWF  FA9
09516:  MOVFF  6ED,FA8
0951A:  BCF    FA6.6
0951C:  BCF    FA6.7
0951E:  BSF    FA6.2
09520:  MOVF   FF2,W
09522:  MOVWF  00
09524:  BCF    FF2.7
09526:  MOVLB  F
09528:  MOVLW  55
0952A:  MOVWF  FA7
0952C:  MOVLW  AA
0952E:  MOVWF  FA7
09530:  BSF    FA6.1
09532:  BTFSC  FA6.1
09534:  BRA    9532
09536:  BCF    FA6.2
09538:  MOVF   00,W
0953A:  IORWF  FF2,F
....................                delay_ms(20); 
0953C:  MOVLW  14
0953E:  MOVLB  7
09540:  MOVWF  x33
09542:  MOVLB  0
09544:  CALL   174A
....................                NivelSeleccionado=9990*Nivel; 
09548:  MOVLW  27
0954A:  MOVLB  7
0954C:  MOVWF  x32
0954E:  MOVLW  06
09550:  MOVWF  x31
09552:  MOVFF  6EE,734
09556:  MOVFF  6ED,733
0955A:  MOVLB  0
0955C:  CALL   2590
09560:  MOVFF  02,6F8
09564:  MOVFF  01,6F7
....................                Menu=20;glcd_rect(15, 18, 30, 53, NO, ON);tiempo_secado=0;glcd_fillScreen(OFF); 
09568:  MOVLW  14
0956A:  MOVLB  6
0956C:  MOVWF  xDE
0956E:  MOVLW  0F
09570:  MOVLB  7
09572:  MOVWF  x43
09574:  MOVLW  12
09576:  MOVWF  x44
09578:  MOVLW  1E
0957A:  MOVWF  x45
0957C:  MOVLW  35
0957E:  MOVWF  x46
09580:  CLRF   x47
09582:  MOVLW  01
09584:  MOVWF  x48
09586:  MOVLB  0
09588:  CALL   219A
0958C:  MOVLB  6
0958E:  CLRF   xE6
09590:  MOVLB  7
09592:  CLRF   x2E
09594:  MOVLB  0
09596:  CALL   1C2E
....................                strcpy(Menus.Letra,"Calentando"); 
0959A:  MOVLW  07
0959C:  MOVWF  FEA
0959E:  MOVLW  09
095A0:  MOVWF  FE9
095A2:  MOVFF  FF2,72D
095A6:  BCF    FF2.7
095A8:  MOVLW  00
095AA:  CALL   0F6C
095AE:  TBLRD*-
095B0:  TBLRD*+
095B2:  MOVF   FF5,W
095B4:  MOVWF  FEE
095B6:  IORLW  00
095B8:  BNZ   95B0
095BA:  MOVLB  7
095BC:  BTFSC  x2D.7
095BE:  BSF    FF2.7
....................                displayMenu(Menus.Letra,0,55,2,1); 
095C0:  MOVLW  07
095C2:  MOVWF  x2E
095C4:  MOVLW  09
095C6:  MOVWF  x2D
095C8:  CLRF   x2F
095CA:  MOVLW  37
095CC:  MOVWF  x30
095CE:  MOVLW  02
095D0:  MOVWF  x31
095D2:  MOVLW  01
095D4:  MOVWF  x32
095D6:  MOVLB  0
095D8:  CALL   225C
....................                CuadroCalentando(ON); 
095DC:  MOVLW  01
095DE:  MOVLB  7
095E0:  MOVWF  x2D
095E2:  MOVLB  0
095E4:  CALL   3746
....................                glcd_imagen(5); 
095E8:  MOVLW  05
095EA:  MOVLB  7
095EC:  MOVWF  x2D
095EE:  MOVLB  0
095F0:  CALL   3696
....................                strcpy(Menus.Letra,"T est:");displayMenu(Menus.Letra,0,0,2,1); 
095F4:  MOVLW  07
095F6:  MOVWF  FEA
095F8:  MOVLW  09
095FA:  MOVWF  FE9
095FC:  MOVFF  FF2,72D
09600:  BCF    FF2.7
09602:  MOVLW  00
09604:  CALL   0F96
09608:  TBLRD*-
0960A:  TBLRD*+
0960C:  MOVF   FF5,W
0960E:  MOVWF  FEE
09610:  IORLW  00
09612:  BNZ   960A
09614:  MOVLB  7
09616:  BTFSC  x2D.7
09618:  BSF    FF2.7
0961A:  MOVLW  07
0961C:  MOVWF  x2E
0961E:  MOVLW  09
09620:  MOVWF  x2D
09622:  CLRF   x2F
09624:  CLRF   x30
09626:  MOVLW  02
09628:  MOVWF  x31
0962A:  MOVLW  01
0962C:  MOVWF  x32
0962E:  MOVLB  0
09630:  CALL   225C
....................                strcpy(Menus.Letra,"T sec:");displayMenu(Menus.Letra,0,8,2,1); 
09634:  MOVLW  07
09636:  MOVWF  FEA
09638:  MOVLW  09
0963A:  MOVWF  FE9
0963C:  MOVFF  FF2,72D
09640:  BCF    FF2.7
09642:  MOVLW  00
09644:  CALL   0FBC
09648:  TBLRD*-
0964A:  TBLRD*+
0964C:  MOVF   FF5,W
0964E:  MOVWF  FEE
09650:  IORLW  00
09652:  BNZ   964A
09654:  MOVLB  7
09656:  BTFSC  x2D.7
09658:  BSF    FF2.7
0965A:  MOVLW  07
0965C:  MOVWF  x2E
0965E:  MOVLW  09
09660:  MOVWF  x2D
09662:  CLRF   x2F
09664:  MOVLW  08
09666:  MOVWF  x30
09668:  MOVLW  02
0966A:  MOVWF  x31
0966C:  MOVLW  01
0966E:  MOVWF  x32
09670:  MOVLB  0
09672:  CALL   225C
....................                glcd_circle(95,40,2,NO,ON); 
09676:  MOVLW  5F
09678:  MOVLB  7
0967A:  MOVWF  x2D
0967C:  MOVLW  28
0967E:  MOVWF  x2E
09680:  MOVLW  02
09682:  MOVWF  x2F
09684:  CLRF   x30
09686:  MOVLW  01
09688:  MOVWF  x31
0968A:  MOVLB  0
0968C:  CALL   3B5E
....................                strcpy(Menus.Letra,"C");displayMenu(Menus.Letra,102,40,2,2); 
09690:  MOVLW  07
09692:  MOVWF  FEA
09694:  MOVLW  09
09696:  MOVWF  FE9
09698:  MOVFF  FF2,72D
0969C:  BCF    FF2.7
0969E:  MOVLW  00
096A0:  CALL   0FE2
096A4:  TBLRD*-
096A6:  TBLRD*+
096A8:  MOVF   FF5,W
096AA:  MOVWF  FEE
096AC:  IORLW  00
096AE:  BNZ   96A6
096B0:  MOVLB  7
096B2:  BTFSC  x2D.7
096B4:  BSF    FF2.7
096B6:  MOVLW  07
096B8:  MOVWF  x2E
096BA:  MOVLW  09
096BC:  MOVWF  x2D
096BE:  MOVLW  66
096C0:  MOVWF  x2F
096C2:  MOVLW  28
096C4:  MOVWF  x30
096C6:  MOVLW  02
096C8:  MOVWF  x31
096CA:  MOVWF  x32
096CC:  MOVLB  0
096CE:  CALL   225C
....................                MuestraTiemposProgramados(); 
096D2:  CALL   3D88
....................                IniciaCiclo=ON; 
096D6:  MOVLB  4
096D8:  BSF    x5E.0
096DA:  MOVLB  6
....................             }       
....................          } 
....................          else 
096DC:  BRA    977C
....................          { 
....................             if(LEFT)//Si oprime boton de Toma. 
096DE:  BSF    F96.1
096E0:  BTFSC  F84.1
096E2:  BRA    977C
....................             { 
....................                if(Nivel<6) 
096E4:  MOVF   xEE,F
096E6:  BNZ   96F2
096E8:  MOVF   xED,W
096EA:  SUBLW  05
096EC:  BNC   96F2
....................                { 
....................                   desfoguelento=1; 
096EE:  BSF    xDA.3
....................                } 
....................                else 
096F0:  BRA    96F4
....................                { 
....................                   desfoguelento=0; 
096F2:  BCF    xDA.3
....................                } 
....................                delay_ms(700);Menu=8;glcd_fillscreen(OFF);Opcion=1;visual=1; 
096F4:  MOVLW  04
096F6:  MOVLB  7
096F8:  MOVWF  x2D
096FA:  MOVLW  AF
096FC:  MOVWF  x33
096FE:  MOVLB  0
09700:  CALL   174A
09704:  MOVLB  7
09706:  DECFSZ x2D,F
09708:  BRA    96FA
0970A:  MOVLW  08
0970C:  MOVLB  6
0970E:  MOVWF  xDE
09710:  MOVLB  7
09712:  CLRF   x2E
09714:  MOVLB  0
09716:  CALL   1C2E
0971A:  MOVLW  01
0971C:  MOVLB  6
0971E:  MOVWF  xE4
09720:  BSF    xDA.2
....................                write_eeprom(9,Nivel); 
09722:  CLRF   FAA
09724:  MOVLW  09
09726:  MOVWF  FA9
09728:  MOVFF  6ED,FA8
0972C:  BCF    FA6.6
0972E:  BCF    FA6.7
09730:  BSF    FA6.2
09732:  MOVF   FF2,W
09734:  MOVWF  00
09736:  BCF    FF2.7
09738:  MOVLB  F
0973A:  MOVLW  55
0973C:  MOVWF  FA7
0973E:  MOVLW  AA
09740:  MOVWF  FA7
09742:  BSF    FA6.1
09744:  BTFSC  FA6.1
09746:  BRA    9744
09748:  BCF    FA6.2
0974A:  MOVF   00,W
0974C:  IORWF  FF2,F
....................                delay_ms(20); 
0974E:  MOVLW  14
09750:  MOVLB  7
09752:  MOVWF  x33
09754:  MOVLB  0
09756:  CALL   174A
....................                NivelSeleccionado=9990*Nivel; 
0975A:  MOVLW  27
0975C:  MOVLB  7
0975E:  MOVWF  x32
09760:  MOVLW  06
09762:  MOVWF  x31
09764:  MOVFF  6EE,734
09768:  MOVFF  6ED,733
0976C:  MOVLB  0
0976E:  CALL   2590
09772:  MOVFF  02,6F8
09776:  MOVFF  01,6F7
0977A:  MOVLB  6
....................             } 
....................          } 
....................      } 
.................... //_--------------------------------------------------------------------------------------------------------------------------------------------------------     
....................  
.................... //_-------------------------------------------------------------------------------------------------------------------------------------------------------- 
....................       if(Menu==15){ //Menu de Continuar 
0977C:  MOVF   xDE,W
0977E:  SUBLW  0F
09780:  BTFSS  FD8.2
09782:  BRA    9ACC
....................        
....................       if(visual==1) 
09784:  BTFSS  xDA.2
09786:  BRA    98EC
....................       { 
....................          strcpy(Menus.Letra,"Continuar"); 
09788:  MOVLW  07
0978A:  MOVWF  FEA
0978C:  MOVLW  09
0978E:  MOVWF  FE9
09790:  MOVFF  FF2,72D
09794:  BCF    FF2.7
09796:  MOVLW  00
09798:  MOVLB  0
0979A:  CALL   0CF2
0979E:  TBLRD*-
097A0:  TBLRD*+
097A2:  MOVF   FF5,W
097A4:  MOVWF  FEE
097A6:  IORLW  00
097A8:  BNZ   97A0
097AA:  MOVLB  7
097AC:  BTFSC  x2D.7
097AE:  BSF    FF2.7
....................          displayMenu(Menus.Letra,0,0,1,2); 
097B0:  MOVLW  07
097B2:  MOVWF  x2E
097B4:  MOVLW  09
097B6:  MOVWF  x2D
097B8:  CLRF   x2F
097BA:  CLRF   x30
097BC:  MOVLW  01
097BE:  MOVWF  x31
097C0:  MOVLW  02
097C2:  MOVWF  x32
097C4:  MOVLB  0
097C6:  CALL   225C
....................           
....................          if(Opcion==2) 
097CA:  MOVLB  6
097CC:  MOVF   xE4,W
097CE:  SUBLW  02
097D0:  BNZ   985C
....................          {strcpy(Menus.Letra,"SI"); 
097D2:  MOVLW  07
097D4:  MOVWF  FEA
097D6:  MOVLW  09
097D8:  MOVWF  FE9
097DA:  MOVFF  FF2,72D
097DE:  BCF    FF2.7
097E0:  MOVLW  00
097E2:  MOVLB  0
097E4:  CALL   1002
097E8:  TBLRD*-
097EA:  TBLRD*+
097EC:  MOVF   FF5,W
097EE:  MOVWF  FEE
097F0:  IORLW  00
097F2:  BNZ   97EA
097F4:  MOVLB  7
097F6:  BTFSC  x2D.7
097F8:  BSF    FF2.7
....................          displayMenu(Menus.Letra,50,25,1,2); 
097FA:  MOVLW  07
097FC:  MOVWF  x2E
097FE:  MOVLW  09
09800:  MOVWF  x2D
09802:  MOVLW  32
09804:  MOVWF  x2F
09806:  MOVLW  19
09808:  MOVWF  x30
0980A:  MOVLW  01
0980C:  MOVWF  x31
0980E:  MOVLW  02
09810:  MOVWF  x32
09812:  MOVLB  0
09814:  CALL   225C
....................          strcpy(Menus.Letra,"NO"); 
09818:  MOVLW  07
0981A:  MOVWF  FEA
0981C:  MOVLW  09
0981E:  MOVWF  FE9
09820:  MOVFF  FF2,72D
09824:  BCF    FF2.7
09826:  MOVLW  00
09828:  CALL   1024
0982C:  TBLRD*-
0982E:  TBLRD*+
09830:  MOVF   FF5,W
09832:  MOVWF  FEE
09834:  IORLW  00
09836:  BNZ   982E
09838:  MOVLB  7
0983A:  BTFSC  x2D.7
0983C:  BSF    FF2.7
....................          displayMenu(Menus.Letra,50,45,0,2); 
0983E:  MOVLW  07
09840:  MOVWF  x2E
09842:  MOVLW  09
09844:  MOVWF  x2D
09846:  MOVLW  32
09848:  MOVWF  x2F
0984A:  MOVLW  2D
0984C:  MOVWF  x30
0984E:  CLRF   x31
09850:  MOVLW  02
09852:  MOVWF  x32
09854:  MOVLB  0
09856:  CALL   225C
0985A:  MOVLB  6
....................          } 
....................          if(Opcion==1) 
0985C:  DECFSZ xE4,W
0985E:  BRA    98EA
....................          {strcpy(Menus.Letra,"SI"); 
09860:  MOVLW  07
09862:  MOVWF  FEA
09864:  MOVLW  09
09866:  MOVWF  FE9
09868:  MOVFF  FF2,72D
0986C:  BCF    FF2.7
0986E:  MOVLW  00
09870:  MOVLB  0
09872:  CALL   1002
09876:  TBLRD*-
09878:  TBLRD*+
0987A:  MOVF   FF5,W
0987C:  MOVWF  FEE
0987E:  IORLW  00
09880:  BNZ   9878
09882:  MOVLB  7
09884:  BTFSC  x2D.7
09886:  BSF    FF2.7
....................          displayMenu(Menus.Letra,50,25,0,2); 
09888:  MOVLW  07
0988A:  MOVWF  x2E
0988C:  MOVLW  09
0988E:  MOVWF  x2D
09890:  MOVLW  32
09892:  MOVWF  x2F
09894:  MOVLW  19
09896:  MOVWF  x30
09898:  CLRF   x31
0989A:  MOVLW  02
0989C:  MOVWF  x32
0989E:  MOVLB  0
098A0:  CALL   225C
....................          strcpy(Menus.Letra,"NO"); 
098A4:  MOVLW  07
098A6:  MOVWF  FEA
098A8:  MOVLW  09
098AA:  MOVWF  FE9
098AC:  MOVFF  FF2,72D
098B0:  BCF    FF2.7
098B2:  MOVLW  00
098B4:  CALL   1024
098B8:  TBLRD*-
098BA:  TBLRD*+
098BC:  MOVF   FF5,W
098BE:  MOVWF  FEE
098C0:  IORLW  00
098C2:  BNZ   98BA
098C4:  MOVLB  7
098C6:  BTFSC  x2D.7
098C8:  BSF    FF2.7
....................          displayMenu(Menus.Letra,50,45,1,2); 
098CA:  MOVLW  07
098CC:  MOVWF  x2E
098CE:  MOVLW  09
098D0:  MOVWF  x2D
098D2:  MOVLW  32
098D4:  MOVWF  x2F
098D6:  MOVLW  2D
098D8:  MOVWF  x30
098DA:  MOVLW  01
098DC:  MOVWF  x31
098DE:  MOVLW  02
098E0:  MOVWF  x32
098E2:  MOVLB  0
098E4:  CALL   225C
098E8:  MOVLB  6
....................          } 
....................          visual=0; 
098EA:  BCF    xDA.2
....................       } 
....................        
....................          
....................       if(UP)//Si oprime hacia arriba 
098EC:  BSF    F92.4
098EE:  BTFSC  F80.4
098F0:  BRA    98FC
....................       { 
....................          if(Opcion<2) 
098F2:  MOVF   xE4,W
098F4:  SUBLW  01
098F6:  BNC   98FA
....................          { 
....................             Opcion++; 
098F8:  INCF   xE4,F
....................          } 
....................          visual=1; 
098FA:  BSF    xDA.2
....................       } 
....................              
....................       if(DOWN)//Si oprime hacia abajo 
098FC:  BSF    F92.5
098FE:  BTFSC  F80.5
09900:  BRA    990C
....................       {   
....................          if(Opcion>1) 
09902:  MOVF   xE4,W
09904:  SUBLW  01
09906:  BC    990A
....................          { 
....................             Opcion--; 
09908:  DECF   xE4,F
....................          }   
....................          visual=1; 
0990A:  BSF    xDA.2
....................       } 
....................              
....................       if(RIGHT)//Si oprime SET 
0990C:  BSF    F96.0
0990E:  BTFSC  F84.0
09910:  BRA    9A96
....................       {   
....................          if(Opcion==2) 
09912:  MOVF   xE4,W
09914:  SUBLW  02
09916:  BTFSS  FD8.2
09918:  BRA    9A68
....................          { 
....................             Menu=20;glcd_rect(15, 18, 30, 53, NO, ON);tiempo_secado=0;enable_interrupts(global);glcd_fillScreen(OFF); 
0991A:  MOVLW  14
0991C:  MOVWF  xDE
0991E:  MOVLW  0F
09920:  MOVLB  7
09922:  MOVWF  x43
09924:  MOVLW  12
09926:  MOVWF  x44
09928:  MOVLW  1E
0992A:  MOVWF  x45
0992C:  MOVLW  35
0992E:  MOVWF  x46
09930:  CLRF   x47
09932:  MOVLW  01
09934:  MOVWF  x48
09936:  MOVLB  0
09938:  CALL   219A
0993C:  MOVLB  6
0993E:  CLRF   xE6
09940:  MOVLW  C0
09942:  IORWF  FF2,F
09944:  MOVLB  7
09946:  CLRF   x2E
09948:  MOVLB  0
0994A:  CALL   1C2E
....................             strcpy(Menus.Letra,"Calentando"); 
0994E:  MOVLW  07
09950:  MOVWF  FEA
09952:  MOVLW  09
09954:  MOVWF  FE9
09956:  MOVFF  FF2,72D
0995A:  BCF    FF2.7
0995C:  MOVLW  00
0995E:  CALL   0F6C
09962:  TBLRD*-
09964:  TBLRD*+
09966:  MOVF   FF5,W
09968:  MOVWF  FEE
0996A:  IORLW  00
0996C:  BNZ   9964
0996E:  MOVLB  7
09970:  BTFSC  x2D.7
09972:  BSF    FF2.7
....................             displayMenu(Menus.Letra,0,55,2,1); 
09974:  MOVLW  07
09976:  MOVWF  x2E
09978:  MOVLW  09
0997A:  MOVWF  x2D
0997C:  CLRF   x2F
0997E:  MOVLW  37
09980:  MOVWF  x30
09982:  MOVLW  02
09984:  MOVWF  x31
09986:  MOVLW  01
09988:  MOVWF  x32
0998A:  MOVLB  0
0998C:  CALL   225C
....................             CuadroCalentando(ON); 
09990:  MOVLW  01
09992:  MOVLB  7
09994:  MOVWF  x2D
09996:  MOVLB  0
09998:  CALL   3746
....................             glcd_imagen(5); 
0999C:  MOVLW  05
0999E:  MOVLB  7
099A0:  MOVWF  x2D
099A2:  MOVLB  0
099A4:  CALL   3696
....................             strcpy(Menus.Letra,"T est:");displayMenu(Menus.Letra,0,0,2,1); 
099A8:  MOVLW  07
099AA:  MOVWF  FEA
099AC:  MOVLW  09
099AE:  MOVWF  FE9
099B0:  MOVFF  FF2,72D
099B4:  BCF    FF2.7
099B6:  MOVLW  00
099B8:  CALL   0F96
099BC:  TBLRD*-
099BE:  TBLRD*+
099C0:  MOVF   FF5,W
099C2:  MOVWF  FEE
099C4:  IORLW  00
099C6:  BNZ   99BE
099C8:  MOVLB  7
099CA:  BTFSC  x2D.7
099CC:  BSF    FF2.7
099CE:  MOVLW  07
099D0:  MOVWF  x2E
099D2:  MOVLW  09
099D4:  MOVWF  x2D
099D6:  CLRF   x2F
099D8:  CLRF   x30
099DA:  MOVLW  02
099DC:  MOVWF  x31
099DE:  MOVLW  01
099E0:  MOVWF  x32
099E2:  MOVLB  0
099E4:  CALL   225C
....................             strcpy(Menus.Letra,"T sec:");displayMenu(Menus.Letra,0,8,2,1); 
099E8:  MOVLW  07
099EA:  MOVWF  FEA
099EC:  MOVLW  09
099EE:  MOVWF  FE9
099F0:  MOVFF  FF2,72D
099F4:  BCF    FF2.7
099F6:  MOVLW  00
099F8:  CALL   0FBC
099FC:  TBLRD*-
099FE:  TBLRD*+
09A00:  MOVF   FF5,W
09A02:  MOVWF  FEE
09A04:  IORLW  00
09A06:  BNZ   99FE
09A08:  MOVLB  7
09A0A:  BTFSC  x2D.7
09A0C:  BSF    FF2.7
09A0E:  MOVLW  07
09A10:  MOVWF  x2E
09A12:  MOVLW  09
09A14:  MOVWF  x2D
09A16:  CLRF   x2F
09A18:  MOVLW  08
09A1A:  MOVWF  x30
09A1C:  MOVLW  02
09A1E:  MOVWF  x31
09A20:  MOVLW  01
09A22:  MOVWF  x32
09A24:  MOVLB  0
09A26:  CALL   225C
....................             MuestraTiemposProgramados(); 
09A2A:  CALL   3D88
....................             if(Nivel<6) 
09A2E:  MOVLB  6
09A30:  MOVF   xEE,F
09A32:  BNZ   9A3E
09A34:  MOVF   xED,W
09A36:  SUBLW  05
09A38:  BNC   9A3E
....................                { 
....................                   desfoguelento=1; 
09A3A:  BSF    xDA.3
....................                } 
....................                else 
09A3C:  BRA    9A40
....................                { 
....................                   desfoguelento=0; 
09A3E:  BCF    xDA.3
....................                } 
....................                IniciaCiclo=ON; 
09A40:  MOVLB  4
09A42:  BSF    x5E.0
....................                NivelSeleccionado=9990*Nivel; 
09A44:  MOVLW  27
09A46:  MOVLB  7
09A48:  MOVWF  x32
09A4A:  MOVLW  06
09A4C:  MOVWF  x31
09A4E:  MOVFF  6EE,734
09A52:  MOVFF  6ED,733
09A56:  MOVLB  0
09A58:  CALL   2590
09A5C:  MOVFF  02,6F8
09A60:  MOVFF  01,6F7
....................          } 
....................          else 
09A64:  BRA    9A98
09A66:  MOVLB  6
....................          { 
....................             delay_ms(700);Menu=8;glcd_fillscreen(OFF);Opcion=1;visual=1; 
09A68:  MOVLW  04
09A6A:  MOVLB  7
09A6C:  MOVWF  x2D
09A6E:  MOVLW  AF
09A70:  MOVWF  x33
09A72:  MOVLB  0
09A74:  CALL   174A
09A78:  MOVLB  7
09A7A:  DECFSZ x2D,F
09A7C:  BRA    9A6E
09A7E:  MOVLW  08
09A80:  MOVLB  6
09A82:  MOVWF  xDE
09A84:  MOVLB  7
09A86:  CLRF   x2E
09A88:  MOVLB  0
09A8A:  CALL   1C2E
09A8E:  MOVLW  01
09A90:  MOVLB  6
09A92:  MOVWF  xE4
09A94:  BSF    xDA.2
09A96:  MOVLB  0
....................          }          
....................       }  
....................                    
....................       if(LEFT)//Si oprime boton de Toma. 
09A98:  BSF    F96.1
09A9A:  BTFSC  F84.1
09A9C:  BRA    9ACE
....................       { 
....................          delay_ms(700);Menu=8;glcd_fillscreen(OFF);Opcion=1;visual=1; 
09A9E:  MOVLW  04
09AA0:  MOVLB  7
09AA2:  MOVWF  x2D
09AA4:  MOVLW  AF
09AA6:  MOVWF  x33
09AA8:  MOVLB  0
09AAA:  CALL   174A
09AAE:  MOVLB  7
09AB0:  DECFSZ x2D,F
09AB2:  BRA    9AA4
09AB4:  MOVLW  08
09AB6:  MOVLB  6
09AB8:  MOVWF  xDE
09ABA:  MOVLB  7
09ABC:  CLRF   x2E
09ABE:  MOVLB  0
09AC0:  CALL   1C2E
09AC4:  MOVLW  01
09AC6:  MOVLB  6
09AC8:  MOVWF  xE4
09ACA:  BSF    xDA.2
09ACC:  MOVLB  0
....................       } 
....................      
....................      
....................     } 
.................... //_--------------------------------------------------------------------------------------------------------------------------------------------------------        
....................  
.................... //_--------------------------------------------------------------------------------------------------------------------------------------------------------     
....................    if(Menu==20){ // Este es el menu de cuando el proceso se inicio. 
09ACE:  MOVLB  6
09AD0:  MOVF   xDE,W
09AD2:  SUBLW  14
09AD4:  BTFSS  FD8.2
09AD6:  GOTO   A818
....................     
....................    //Lectura_Esclavos(); 
....................     
....................    //Envio_Esclavos(); 
....................    // Nuevo Flujo de Programa con logica 2018 para ajustar ciclos de Pre-Vacio y de Vacio al final del ciclo//    
....................     
....................    if(RIGHT){ 
09ADA:  BSF    F96.0
09ADC:  BTFSC  F84.0
09ADE:  BRA    9B0A
....................       glcd_init(ON); 
09AE0:  MOVLW  01
09AE2:  MOVLB  7
09AE4:  MOVWF  x2D
09AE6:  MOVLB  0
09AE8:  CALL   1D40
....................       delay_ms(1000); 
09AEC:  MOVLW  04
09AEE:  MOVLB  7
09AF0:  MOVWF  x2D
09AF2:  MOVLW  FA
09AF4:  MOVWF  x33
09AF6:  MOVLB  0
09AF8:  CALL   174A
09AFC:  MOVLB  7
09AFE:  DECFSZ x2D,F
09B00:  BRA    9AF2
....................       flagCalentando=OFF; 
09B02:  MOVLB  4
09B04:  BCF    x5F.4
....................       flagDesfogando=OFF; 
09B06:  BCF    x5F.6
....................       flagEsterilizando=OFF; 
09B08:  BCF    x5F.5
....................    } 
....................     
....................    if(TiempoCiclo>5400){ 
09B0A:  MOVLB  4
09B0C:  MOVF   x61,W
09B0E:  SUBLW  14
09B10:  BC    9B20
09B12:  XORLW  FF
09B14:  BNZ   9B1C
09B16:  MOVF   x60,W
09B18:  SUBLW  18
09B1A:  BC    9B20
....................       AlarmaTiempoProlongado=ON; 
09B1C:  BSF    x5D.0
....................    }else{ 
09B1E:  BRA    9B22
....................       AlarmaTiempoProlongado=OFF; 
09B20:  BCF    x5D.0
....................    } 
....................     
....................    if(Temperatura>Setpoint+3.0){ 
09B22:  MOVLB  7
09B24:  CLRF   x34
09B26:  MOVFF  6E3,733
09B2A:  MOVLB  0
09B2C:  CALL   1772
09B30:  BCF    FD8.1
09B32:  MOVFF  03,735
09B36:  MOVFF  02,734
09B3A:  MOVFF  01,733
09B3E:  MOVFF  00,732
09B42:  MOVLB  7
09B44:  CLRF   x39
09B46:  CLRF   x38
09B48:  MOVLW  40
09B4A:  MOVWF  x37
09B4C:  MOVLW  80
09B4E:  MOVWF  x36
09B50:  MOVLB  0
09B52:  CALL   1906
09B56:  MOVFF  03,734
09B5A:  MOVFF  02,733
09B5E:  MOVFF  01,732
09B62:  MOVFF  00,731
09B66:  MOVFF  6C3,738
09B6A:  MOVFF  6C2,737
09B6E:  MOVFF  6C1,736
09B72:  MOVFF  6C0,735
09B76:  CALL   1B7E
09B7A:  BNC   9B80
....................       AlarmaSobreTemperatura=ON; 
09B7C:  MOVLB  4
09B7E:  BSF    x5D.1
....................    } 
....................     
....................    if(TiempoLlenado>600){ 
09B80:  MOVLB  4
09B82:  MOVF   x63,W
09B84:  SUBLW  01
09B86:  BC    9B96
09B88:  XORLW  FF
09B8A:  BNZ   9B92
09B8C:  MOVF   x62,W
09B8E:  SUBLW  58
09B90:  BC    9B96
....................       AlarmaLlenado=ON; 
09B92:  BSF    x5D.2
....................    }else{ 
09B94:  BRA    9B98
....................       AlarmaLlenado=OFF; 
09B96:  BCF    x5D.2
....................    } 
....................     
....................    if(!TERM){ 
09B98:  BSF    F93.7
09B9A:  BTFSS  F81.7
09B9C:  BRA    9BA0
....................       AlarmaTermostato=ON; 
09B9E:  BSF    x5D.3
....................    } 
....................     
....................    if(!DOOR){ 
09BA0:  BSF    F96.2
09BA2:  BTFSS  F84.2
09BA4:  BRA    9BAE
....................       if(!Secando){ 
09BA6:  BTFSC  x5E.2
09BA8:  BRA    9BAC
....................          AlarmaPuerta=ON; 
09BAA:  BSF    x5D.4
....................       } 
....................    }else{ 
09BAC:  BRA    9BB0
....................       AlarmaPuerta=OFF; 
09BAE:  BCF    x5D.4
....................    } 
....................  
....................    if(!STOP){ 
09BB0:  BSF    F93.6
09BB2:  BTFSS  F81.6
09BB4:  BRA    9BB8
....................       AlarmaEmergencia=ON; 
09BB6:  BSF    x5D.5
....................    } 
....................     
....................    if(AlarmaPuerta || AlarmaTermostato || AlarmaLlenado || AlarmaSobreTemperatura || AlarmaTiempoProlongado || AlarmaEmergencia){ 
09BB8:  BTFSC  x5D.4
09BBA:  BRA    9BD0
09BBC:  BTFSC  x5D.3
09BBE:  BRA    9BD0
09BC0:  BTFSC  x5D.2
09BC2:  BRA    9BD0
09BC4:  BTFSC  x5D.1
09BC6:  BRA    9BD0
09BC8:  BTFSC  x5D.0
09BCA:  BRA    9BD0
09BCC:  BTFSS  x5D.5
09BCE:  BRA    9EDA
....................       if(AlarmaEmergencia) 
09BD0:  BTFSS  x5D.5
09BD2:  BRA    9C56
....................       { 
....................          BorraStatus(); 
09BD4:  MOVLB  0
09BD6:  CALL   3EC8
....................          strcpy(Menus.Letra,"Parada Emergencia");displayMenu(Menus.Letra,0,55,2,1); 
09BDA:  MOVLW  07
09BDC:  MOVWF  FEA
09BDE:  MOVLW  09
09BE0:  MOVWF  FE9
09BE2:  MOVFF  FF2,72D
09BE6:  BCF    FF2.7
09BE8:  MOVLW  00
09BEA:  CALL   1046
09BEE:  TBLRD*-
09BF0:  TBLRD*+
09BF2:  MOVF   FF5,W
09BF4:  MOVWF  FEE
09BF6:  IORLW  00
09BF8:  BNZ   9BF0
09BFA:  MOVLB  7
09BFC:  BTFSC  x2D.7
09BFE:  BSF    FF2.7
09C00:  MOVLW  07
09C02:  MOVWF  x2E
09C04:  MOVLW  09
09C06:  MOVWF  x2D
09C08:  CLRF   x2F
09C0A:  MOVLW  37
09C0C:  MOVWF  x30
09C0E:  MOVLW  02
09C10:  MOVWF  x31
09C12:  MOVLW  01
09C14:  MOVWF  x32
09C16:  MOVLB  0
09C18:  CALL   225C
....................          Desfogue_on; 
09C1C:  BCF    F8B.5
09C1E:  BCF    F94.5
....................          AguaIn_off; 
09C20:  BSF    F8B.6
09C22:  BCF    F94.6
....................          SSR_off; 
09C24:  BSF    F8B.2
09C26:  BCF    F94.2
....................          CuadroCalentando(OFF); 
09C28:  MOVLB  7
09C2A:  CLRF   x2D
09C2C:  MOVLB  0
09C2E:  CALL   3746
....................          CuadroDesfogando(OFF); 
09C32:  MOVLB  7
09C34:  CLRF   x2D
09C36:  MOVLB  0
09C38:  CALL   3EE6
....................          CuadroEsterilizando(OFF); 
09C3C:  MOVLB  7
09C3E:  CLRF   x2D
09C40:  MOVLB  0
09C42:  CALL   3F3A
....................          Esterilizando=OFF; 
09C46:  MOVLB  4
09C48:  BCF    x5E.1
....................          Desfogando=OFF; 
09C4A:  BCF    x5E.4
....................          DesfogueSuave=OFF; 
09C4C:  BCF    x5E.5
....................          //IniciaCiclo=OFF; 
....................          Controlando=0; 
09C4E:  MOVLB  6
09C50:  CLRF   xDD
....................       }else{ 
09C52:  BRA    9ED6
09C54:  MOVLB  4
....................          if(AlarmaPuerta) 
09C56:  BTFSS  x5D.4
09C58:  BRA    9CD2
....................          { 
....................             BorraStatus(); 
09C5A:  MOVLB  0
09C5C:  CALL   3EC8
....................             strcpy(Menus.Letra,"Puerta Abierta");displayMenu(Menus.Letra,0,55,2,1); 
09C60:  MOVLW  07
09C62:  MOVWF  FEA
09C64:  MOVLW  09
09C66:  MOVWF  FE9
09C68:  MOVFF  FF2,72D
09C6C:  BCF    FF2.7
09C6E:  MOVLW  00
09C70:  CALL   1076
09C74:  TBLRD*-
09C76:  TBLRD*+
09C78:  MOVF   FF5,W
09C7A:  MOVWF  FEE
09C7C:  IORLW  00
09C7E:  BNZ   9C76
09C80:  MOVLB  7
09C82:  BTFSC  x2D.7
09C84:  BSF    FF2.7
09C86:  MOVLW  07
09C88:  MOVWF  x2E
09C8A:  MOVLW  09
09C8C:  MOVWF  x2D
09C8E:  CLRF   x2F
09C90:  MOVLW  37
09C92:  MOVWF  x30
09C94:  MOVLW  02
09C96:  MOVWF  x31
09C98:  MOVLW  01
09C9A:  MOVWF  x32
09C9C:  MOVLB  0
09C9E:  CALL   225C
....................             SSR_off; 
09CA2:  BSF    F8B.2
09CA4:  BCF    F94.2
....................             CuadroCalentando(OFF); 
09CA6:  MOVLB  7
09CA8:  CLRF   x2D
09CAA:  MOVLB  0
09CAC:  CALL   3746
....................             CuadroDesfogando(OFF); 
09CB0:  MOVLB  7
09CB2:  CLRF   x2D
09CB4:  MOVLB  0
09CB6:  CALL   3EE6
....................             CuadroEsterilizando(OFF); 
09CBA:  MOVLB  7
09CBC:  CLRF   x2D
09CBE:  MOVLB  0
09CC0:  CALL   3F3A
....................             IniciaLlenado=OFF; 
09CC4:  MOVLB  4
09CC6:  BCF    x5D.6
....................             IniciaCiclo=OFF; 
09CC8:  BCF    x5E.0
....................             Controlando=0; 
09CCA:  MOVLB  6
09CCC:  CLRF   xDD
....................          }else{ 
09CCE:  BRA    9ED6
09CD0:  MOVLB  4
....................             if(AlarmaLlenado) 
09CD2:  BTFSS  x5D.2
09CD4:  BRA    9D50
....................             { 
....................                BorraStatus(); 
09CD6:  MOVLB  0
09CD8:  CALL   3EC8
....................                strcpy(Menus.Letra,"Error:EA01");displayMenu(Menus.Letra,0,55,2,1); 
09CDC:  MOVLW  07
09CDE:  MOVWF  FEA
09CE0:  MOVLW  09
09CE2:  MOVWF  FE9
09CE4:  MOVFF  FF2,72D
09CE8:  BCF    FF2.7
09CEA:  MOVLW  00
09CEC:  CALL   10A4
09CF0:  TBLRD*-
09CF2:  TBLRD*+
09CF4:  MOVF   FF5,W
09CF6:  MOVWF  FEE
09CF8:  IORLW  00
09CFA:  BNZ   9CF2
09CFC:  MOVLB  7
09CFE:  BTFSC  x2D.7
09D00:  BSF    FF2.7
09D02:  MOVLW  07
09D04:  MOVWF  x2E
09D06:  MOVLW  09
09D08:  MOVWF  x2D
09D0A:  CLRF   x2F
09D0C:  MOVLW  37
09D0E:  MOVWF  x30
09D10:  MOVLW  02
09D12:  MOVWF  x31
09D14:  MOVLW  01
09D16:  MOVWF  x32
09D18:  MOVLB  0
09D1A:  CALL   225C
....................                Desfogue_off; 
09D1E:  BSF    F8B.5
09D20:  BCF    F94.5
....................                AguaIn_off; 
09D22:  BSF    F8B.6
09D24:  BCF    F94.6
....................                SSR_off; 
09D26:  BSF    F8B.2
09D28:  BCF    F94.2
....................                CuadroCalentando(OFF); 
09D2A:  MOVLB  7
09D2C:  CLRF   x2D
09D2E:  MOVLB  0
09D30:  CALL   3746
....................                CuadroDesfogando(OFF); 
09D34:  MOVLB  7
09D36:  CLRF   x2D
09D38:  MOVLB  0
09D3A:  CALL   3EE6
....................                CuadroEsterilizando(OFF); 
09D3E:  MOVLB  7
09D40:  CLRF   x2D
09D42:  MOVLB  0
09D44:  CALL   3F3A
....................                Controlando=0; 
09D48:  MOVLB  6
09D4A:  CLRF   xDD
....................             }else{ 
09D4C:  BRA    9ED6
09D4E:  MOVLB  4
....................                if(AlarmaTermostato) // Alarma de Termostato 
09D50:  BTFSS  x5D.3
09D52:  BRA    9DDE
....................                { 
....................                   BorraStatus(); 
09D54:  MOVLB  0
09D56:  CALL   3EC8
....................                   tiempo_esterilizacion=0;tiempo_secado=0;          
09D5A:  MOVLB  6
09D5C:  CLRF   xE5
09D5E:  CLRF   xE6
....................                   strcpy(Menus.Letra,"Error:EA02");displayMenu(Menus.Letra,0,55,2,1);           
09D60:  MOVLW  07
09D62:  MOVWF  FEA
09D64:  MOVLW  09
09D66:  MOVWF  FE9
09D68:  MOVFF  FF2,72D
09D6C:  BCF    FF2.7
09D6E:  MOVLW  00
09D70:  MOVLB  0
09D72:  CALL   10CE
09D76:  TBLRD*-
09D78:  TBLRD*+
09D7A:  MOVF   FF5,W
09D7C:  MOVWF  FEE
09D7E:  IORLW  00
09D80:  BNZ   9D78
09D82:  MOVLB  7
09D84:  BTFSC  x2D.7
09D86:  BSF    FF2.7
09D88:  MOVLW  07
09D8A:  MOVWF  x2E
09D8C:  MOVLW  09
09D8E:  MOVWF  x2D
09D90:  CLRF   x2F
09D92:  MOVLW  37
09D94:  MOVWF  x30
09D96:  MOVLW  02
09D98:  MOVWF  x31
09D9A:  MOVLW  01
09D9C:  MOVWF  x32
09D9E:  MOVLB  0
09DA0:  CALL   225C
....................                   Desfogue_on; 
09DA4:  BCF    F8B.5
09DA6:  BCF    F94.5
....................                   AguaIn_off; 
09DA8:  BSF    F8B.6
09DAA:  BCF    F94.6
....................                   SSR_off; 
09DAC:  BSF    F8B.2
09DAE:  BCF    F94.2
....................                   CuadroCalentando(OFF); 
09DB0:  MOVLB  7
09DB2:  CLRF   x2D
09DB4:  MOVLB  0
09DB6:  CALL   3746
....................                   CuadroDesfogando(OFF); 
09DBA:  MOVLB  7
09DBC:  CLRF   x2D
09DBE:  MOVLB  0
09DC0:  CALL   3EE6
....................                   CuadroEsterilizando(OFF); 
09DC4:  MOVLB  7
09DC6:  CLRF   x2D
09DC8:  MOVLB  0
09DCA:  CALL   3F3A
....................                   Esterilizando=OFF; 
09DCE:  MOVLB  4
09DD0:  BCF    x5E.1
....................                   Desfogando=OFF; 
09DD2:  BCF    x5E.4
....................                   IniciaCiclo=OFF; 
09DD4:  BCF    x5E.0
....................                   Controlando=0; 
09DD6:  MOVLB  6
09DD8:  CLRF   xDD
....................                }else{ 
09DDA:  BRA    9ED6
09DDC:  MOVLB  4
....................                   if(AlarmaSobreTemperatura) // Alarma de Sobre Temperatura 
09DDE:  BTFSS  x5D.1
09DE0:  BRA    9E60
....................                   { 
....................                      BorraStatus(); 
09DE2:  MOVLB  0
09DE4:  CALL   3EC8
....................                      tiempo_esterilizacion=0;tiempo_secado=0;          
09DE8:  MOVLB  6
09DEA:  CLRF   xE5
09DEC:  CLRF   xE6
....................                      strcpy(Menus.Letra,"Error:ET02");displayMenu(Menus.Letra,0,55,2,1); 
09DEE:  MOVLW  07
09DF0:  MOVWF  FEA
09DF2:  MOVLW  09
09DF4:  MOVWF  FE9
09DF6:  MOVFF  FF2,72D
09DFA:  BCF    FF2.7
09DFC:  MOVLW  00
09DFE:  MOVLB  0
09E00:  CALL   10F8
09E04:  TBLRD*-
09E06:  TBLRD*+
09E08:  MOVF   FF5,W
09E0A:  MOVWF  FEE
09E0C:  IORLW  00
09E0E:  BNZ   9E06
09E10:  MOVLB  7
09E12:  BTFSC  x2D.7
09E14:  BSF    FF2.7
09E16:  MOVLW  07
09E18:  MOVWF  x2E
09E1A:  MOVLW  09
09E1C:  MOVWF  x2D
09E1E:  CLRF   x2F
09E20:  MOVLW  37
09E22:  MOVWF  x30
09E24:  MOVLW  02
09E26:  MOVWF  x31
09E28:  MOVLW  01
09E2A:  MOVWF  x32
09E2C:  MOVLB  0
09E2E:  CALL   225C
....................                      Desfogue_on; 
09E32:  BCF    F8B.5
09E34:  BCF    F94.5
....................                      SSR_off; 
09E36:  BSF    F8B.2
09E38:  BCF    F94.2
....................                      CuadroCalentando(OFF); 
09E3A:  MOVLB  7
09E3C:  CLRF   x2D
09E3E:  MOVLB  0
09E40:  CALL   3746
....................                      CuadroDesfogando(OFF); 
09E44:  MOVLB  7
09E46:  CLRF   x2D
09E48:  MOVLB  0
09E4A:  CALL   3EE6
....................                      CuadroEsterilizando(OFF); 
09E4E:  MOVLB  7
09E50:  CLRF   x2D
09E52:  MOVLB  0
09E54:  CALL   3F3A
....................                      Controlando=0; 
09E58:  MOVLB  6
09E5A:  CLRF   xDD
....................                   }else{ 
09E5C:  BRA    9ED6
09E5E:  MOVLB  4
....................                      if(AlarmaTiempoProlongado) // Alarma de Error de Tiempo: Error por exceso de tiempo de calentamiento. 
09E60:  BTFSS  x5D.0
09E62:  BRA    9ED8
....................                      { 
....................                         BorraStatus(); 
09E64:  MOVLB  0
09E66:  CALL   3EC8
....................                         strcpy(Menus.Letra,"Error:ET01");displayMenu(Menus.Letra,0,55,2,1); 
09E6A:  MOVLW  07
09E6C:  MOVWF  FEA
09E6E:  MOVLW  09
09E70:  MOVWF  FE9
09E72:  MOVFF  FF2,72D
09E76:  BCF    FF2.7
09E78:  MOVLW  00
09E7A:  CALL   1122
09E7E:  TBLRD*-
09E80:  TBLRD*+
09E82:  MOVF   FF5,W
09E84:  MOVWF  FEE
09E86:  IORLW  00
09E88:  BNZ   9E80
09E8A:  MOVLB  7
09E8C:  BTFSC  x2D.7
09E8E:  BSF    FF2.7
09E90:  MOVLW  07
09E92:  MOVWF  x2E
09E94:  MOVLW  09
09E96:  MOVWF  x2D
09E98:  CLRF   x2F
09E9A:  MOVLW  37
09E9C:  MOVWF  x30
09E9E:  MOVLW  02
09EA0:  MOVWF  x31
09EA2:  MOVLW  01
09EA4:  MOVWF  x32
09EA6:  MOVLB  0
09EA8:  CALL   225C
....................                         Desfogue_on; 
09EAC:  BCF    F8B.5
09EAE:  BCF    F94.5
....................                         SSR_off; 
09EB0:  BSF    F8B.2
09EB2:  BCF    F94.2
....................                         CuadroCalentando(OFF); 
09EB4:  MOVLB  7
09EB6:  CLRF   x2D
09EB8:  MOVLB  0
09EBA:  CALL   3746
....................                         CuadroDesfogando(OFF); 
09EBE:  MOVLB  7
09EC0:  CLRF   x2D
09EC2:  MOVLB  0
09EC4:  CALL   3EE6
....................                         CuadroEsterilizando(OFF); 
09EC8:  MOVLB  7
09ECA:  CLRF   x2D
09ECC:  MOVLB  0
09ECE:  CALL   3F3A
....................                         Controlando=0; 
09ED2:  MOVLB  6
09ED4:  CLRF   xDD
09ED6:  MOVLB  4
....................                      } 
....................                   } 
....................                } 
....................             } 
....................          } 
....................       } 
....................    } 
....................    else 
09ED8:  BRA    A514
....................    {   
....................       IniciaCiclo=ON; 
09EDA:  BSF    x5E.0
....................          if(!CalderinLleno) 
09EDC:  BTFSC  x5D.7
09EDE:  BRA    9F38
....................          { 
....................             BorraStatus(); 
09EE0:  MOVLB  0
09EE2:  CALL   3EC8
....................             strcpy(Menus.Letra,"Aplique Agua");displayMenu(Menus.Letra,0,55,2,1); 
09EE6:  MOVLW  07
09EE8:  MOVWF  FEA
09EEA:  MOVLW  09
09EEC:  MOVWF  FE9
09EEE:  MOVFF  FF2,72D
09EF2:  BCF    FF2.7
09EF4:  MOVLW  00
09EF6:  CALL   114C
09EFA:  TBLRD*-
09EFC:  TBLRD*+
09EFE:  MOVF   FF5,W
09F00:  MOVWF  FEE
09F02:  IORLW  00
09F04:  BNZ   9EFC
09F06:  MOVLB  7
09F08:  BTFSC  x2D.7
09F0A:  BSF    FF2.7
09F0C:  MOVLW  07
09F0E:  MOVWF  x2E
09F10:  MOVLW  09
09F12:  MOVWF  x2D
09F14:  CLRF   x2F
09F16:  MOVLW  37
09F18:  MOVWF  x30
09F1A:  MOVLW  02
09F1C:  MOVWF  x31
09F1E:  MOVLW  01
09F20:  MOVWF  x32
09F22:  MOVLB  0
09F24:  CALL   225C
....................             Control=0; 
09F28:  MOVLB  6
09F2A:  CLRF   xDB
....................             IniciaLlenado=ON; 
09F2C:  MOVLB  4
09F2E:  BSF    x5D.6
....................             Controlando=0; 
09F30:  MOVLB  6
09F32:  CLRF   xDD
....................          } 
....................          else 
09F34:  BRA    A514
09F36:  MOVLB  4
....................          { 
....................             if(Temperatura>=((float)Setpoint-0.3)){ 
09F38:  MOVLB  7
09F3A:  CLRF   x34
09F3C:  MOVFF  6E3,733
09F40:  MOVLB  0
09F42:  CALL   1772
09F46:  MOVFF  00,72D
09F4A:  MOVFF  01,72E
09F4E:  MOVFF  02,72F
09F52:  MOVFF  03,730
09F56:  BSF    FD8.1
09F58:  MOVFF  03,735
09F5C:  MOVFF  02,734
09F60:  MOVFF  01,733
09F64:  MOVFF  00,732
09F68:  MOVLW  9A
09F6A:  MOVLB  7
09F6C:  MOVWF  x39
09F6E:  MOVLW  99
09F70:  MOVWF  x38
09F72:  MOVLW  19
09F74:  MOVWF  x37
09F76:  MOVLW  7D
09F78:  MOVWF  x36
09F7A:  MOVLB  0
09F7C:  CALL   1906
09F80:  MOVFF  03,734
09F84:  MOVFF  02,733
09F88:  MOVFF  01,732
09F8C:  MOVFF  00,731
09F90:  MOVFF  6C3,738
09F94:  MOVFF  6C2,737
09F98:  MOVFF  6C1,736
09F9C:  MOVFF  6C0,735
09FA0:  CALL   1B7E
09FA4:  BC    9FA8
09FA6:  BNZ   9FAC
....................                Esterilizando=ON; 
09FA8:  MOVLB  4
09FAA:  BSF    x5E.1
....................             } 
....................              
....................             if(Temperatura<((float)Setpoint-0.9) && !Desfogando){ 
09FAC:  MOVLB  7
09FAE:  CLRF   x34
09FB0:  MOVFF  6E3,733
09FB4:  MOVLB  0
09FB6:  CALL   1772
09FBA:  MOVFF  00,72D
09FBE:  MOVFF  01,72E
09FC2:  MOVFF  02,72F
09FC6:  MOVFF  03,730
09FCA:  BSF    FD8.1
09FCC:  MOVFF  03,735
09FD0:  MOVFF  02,734
09FD4:  MOVFF  01,733
09FD8:  MOVFF  00,732
09FDC:  MOVLW  66
09FDE:  MOVLB  7
09FE0:  MOVWF  x39
09FE2:  MOVWF  x38
09FE4:  MOVWF  x37
09FE6:  MOVLW  7E
09FE8:  MOVWF  x36
09FEA:  MOVLB  0
09FEC:  CALL   1906
09FF0:  MOVFF  6C3,734
09FF4:  MOVFF  6C2,733
09FF8:  MOVFF  6C1,732
09FFC:  MOVFF  6C0,731
0A000:  MOVFF  03,738
0A004:  MOVFF  02,737
0A008:  MOVFF  01,736
0A00C:  MOVFF  00,735
0A010:  CALL   1B7E
0A014:  BNC   A022
0A016:  MOVLB  4
0A018:  BTFSS  x5E.4
0A01A:  BRA    A020
0A01C:  MOVLB  0
0A01E:  BRA    A022
....................                Esterilizando=OFF; 
0A020:  BCF    x5E.1
....................             } 
....................              
....................             if(!Esterilizando) 
0A022:  MOVLB  4
0A024:  BTFSC  x5E.1
0A026:  BRA    A0CA
....................             { 
....................                CuadroCalentando(ON); 
0A028:  MOVLW  01
0A02A:  MOVLB  7
0A02C:  MOVWF  x2D
0A02E:  MOVLB  0
0A030:  CALL   3746
....................                BorraStatus(); 
0A034:  CALL   3EC8
....................                strcpy(Menus.Letra,"Calentando");displayMenu(Menus.Letra,0,55,2,1); 
0A038:  MOVLW  07
0A03A:  MOVWF  FEA
0A03C:  MOVLW  09
0A03E:  MOVWF  FE9
0A040:  MOVFF  FF2,72D
0A044:  BCF    FF2.7
0A046:  MOVLW  00
0A048:  CALL   0F6C
0A04C:  TBLRD*-
0A04E:  TBLRD*+
0A050:  MOVF   FF5,W
0A052:  MOVWF  FEE
0A054:  IORLW  00
0A056:  BNZ   A04E
0A058:  MOVLB  7
0A05A:  BTFSC  x2D.7
0A05C:  BSF    FF2.7
0A05E:  MOVLW  07
0A060:  MOVWF  x2E
0A062:  MOVLW  09
0A064:  MOVWF  x2D
0A066:  CLRF   x2F
0A068:  MOVLW  37
0A06A:  MOVWF  x30
0A06C:  MOVLW  02
0A06E:  MOVWF  x31
0A070:  MOVLW  01
0A072:  MOVWF  x32
0A074:  MOVLB  0
0A076:  CALL   225C
....................                Control=1; 
0A07A:  MOVLW  01
0A07C:  MOVLB  6
0A07E:  MOVWF  xDB
....................                Controla(); 
0A080:  MOVLB  0
0A082:  CALL   3FFC
....................                if(Temperatura<=TTrampa){ 
0A086:  MOVLB  7
0A088:  CLRF   x34
0A08A:  MOVFF  67F,733
0A08E:  MOVLB  0
0A090:  CALL   1772
0A094:  MOVFF  6C3,734
0A098:  MOVFF  6C2,733
0A09C:  MOVFF  6C1,732
0A0A0:  MOVFF  6C0,731
0A0A4:  MOVFF  03,738
0A0A8:  MOVFF  02,737
0A0AC:  MOVFF  01,736
0A0B0:  MOVFF  00,735
0A0B4:  CALL   1B7E
0A0B8:  BC    A0BC
0A0BA:  BNZ   A0C2
....................                   Desfogue_on; 
0A0BC:  BCF    F8B.5
0A0BE:  BCF    F94.5
....................                }else{ 
0A0C0:  BRA    A0C6
....................                   Desfogue_off; 
0A0C2:  BSF    F8B.5
0A0C4:  BCF    F94.5
....................                } 
....................             }else{ 
0A0C6:  BRA    A510
0A0C8:  MOVLB  4
....................                if((Testerilizacion[0]>=Testerilizacionp[0])&&(Testerilizacion[1]>=Testerilizacionp[1])&& 
....................                (Testerilizacion[2]>=Testerilizacionp[2])&&(Testerilizacion[3]>=Testerilizacionp[3])){  
0A0CA:  MOVF   x6E,W
0A0CC:  XORLW  80
0A0CE:  MOVWF  00
0A0D0:  MOVF   x6A,W
0A0D2:  XORLW  80
0A0D4:  SUBWF  00,W
0A0D6:  BZ    A0DC
0A0D8:  BTFSC  FD8.0
0A0DA:  BRA    A4A8
0A0DC:  MOVF   x6F,W
0A0DE:  XORLW  80
0A0E0:  MOVWF  00
0A0E2:  MOVF   x6B,W
0A0E4:  XORLW  80
0A0E6:  SUBWF  00,W
0A0E8:  BZ    A0EE
0A0EA:  BTFSC  FD8.0
0A0EC:  BRA    A4A8
0A0EE:  MOVF   x70,W
0A0F0:  XORLW  80
0A0F2:  MOVWF  00
0A0F4:  MOVF   x6C,W
0A0F6:  XORLW  80
0A0F8:  SUBWF  00,W
0A0FA:  BZ    A100
0A0FC:  BTFSC  FD8.0
0A0FE:  BRA    A4A8
0A100:  MOVF   x71,W
0A102:  XORLW  80
0A104:  MOVWF  00
0A106:  MOVF   x6D,W
0A108:  XORLW  80
0A10A:  SUBWF  00,W
0A10C:  BZ    A112
0A10E:  BTFSC  FD8.0
0A110:  BRA    A4A8
....................                   if(desfoguelento){ 
0A112:  MOVLB  6
0A114:  BTFSS  xDA.3
0A116:  BRA    A288
....................                      Controlando=0; 
0A118:  CLRF   xDD
....................                      if(PresionCamara<25){ 
0A11A:  MOVF   xF2,F
0A11C:  BTFSS  FD8.2
0A11E:  BRA    A21C
0A120:  MOVF   xF1,W
0A122:  SUBLW  18
0A124:  BTFSS  FD8.0
0A126:  BRA    A21C
....................                         Secando=OFF; 
0A128:  MOVLB  4
0A12A:  BCF    x5E.2
....................                         DesfogueSuave=OFF; 
0A12C:  BCF    x5E.5
....................                         Desfogue_on; 
0A12E:  BCF    F8B.5
0A130:  BCF    F94.5
....................                         if(PresionCamara<2){ 
0A132:  MOVLB  6
0A134:  MOVF   xF2,F
0A136:  BNZ   A21A
0A138:  MOVF   xF1,W
0A13A:  SUBLW  01
0A13C:  BNC   A21A
....................                            CuadroDesfogando(OFF); 
0A13E:  MOVLB  7
0A140:  CLRF   x2D
0A142:  MOVLB  0
0A144:  CALL   3EE6
....................                            BorraStatus(); 
0A148:  CALL   3EC8
....................                            strcpy(Menus.Letra,"Ciclo Finalizado");displayMenu(Menus.Letra,0,55,2,1); 
0A14C:  MOVLW  07
0A14E:  MOVWF  FEA
0A150:  MOVLW  09
0A152:  MOVWF  FE9
0A154:  MOVFF  FF2,72D
0A158:  BCF    FF2.7
0A15A:  MOVLW  00
0A15C:  CALL   1178
0A160:  TBLRD*-
0A162:  TBLRD*+
0A164:  MOVF   FF5,W
0A166:  MOVWF  FEE
0A168:  IORLW  00
0A16A:  BNZ   A162
0A16C:  MOVLB  7
0A16E:  BTFSC  x2D.7
0A170:  BSF    FF2.7
0A172:  MOVLW  07
0A174:  MOVWF  x2E
0A176:  MOVLW  09
0A178:  MOVWF  x2D
0A17A:  CLRF   x2F
0A17C:  MOVLW  37
0A17E:  MOVWF  x30
0A180:  MOVLW  02
0A182:  MOVWF  x31
0A184:  MOVLW  01
0A186:  MOVWF  x32
0A188:  MOVLB  0
0A18A:  CALL   225C
....................                            if(!Ciclo){ 
0A18E:  MOVLB  4
0A190:  BTFSC  x5F.3
0A192:  BRA    A218
....................                               Ciclo=ON; 
0A194:  BSF    x5F.3
....................                               Ciclos++; 
0A196:  MOVLB  6
0A198:  INCF   xF5,F
0A19A:  BTFSC  FD8.2
0A19C:  INCF   xF6,F
....................                               CiclosL=make8(Ciclos,0); 
0A19E:  MOVFF  6F5,6E1
....................                               CiclosH=make8(Ciclos,1); 
0A1A2:  MOVFF  6F6,6E2
....................                               write_eeprom(37,CiclosL); 
0A1A6:  CLRF   FAA
0A1A8:  MOVLW  25
0A1AA:  MOVWF  FA9
0A1AC:  MOVFF  6E1,FA8
0A1B0:  BCF    FA6.6
0A1B2:  BCF    FA6.7
0A1B4:  BSF    FA6.2
0A1B6:  MOVF   FF2,W
0A1B8:  MOVWF  00
0A1BA:  BCF    FF2.7
0A1BC:  MOVLB  F
0A1BE:  MOVLW  55
0A1C0:  MOVWF  FA7
0A1C2:  MOVLW  AA
0A1C4:  MOVWF  FA7
0A1C6:  BSF    FA6.1
0A1C8:  BTFSC  FA6.1
0A1CA:  BRA    A1C8
0A1CC:  BCF    FA6.2
0A1CE:  MOVF   00,W
0A1D0:  IORWF  FF2,F
....................                               delay_ms(20); 
0A1D2:  MOVLW  14
0A1D4:  MOVLB  7
0A1D6:  MOVWF  x33
0A1D8:  MOVLB  0
0A1DA:  CALL   174A
....................                               write_eeprom(38,CiclosH); 
0A1DE:  CLRF   FAA
0A1E0:  MOVLW  26
0A1E2:  MOVWF  FA9
0A1E4:  MOVFF  6E2,FA8
0A1E8:  BCF    FA6.6
0A1EA:  BCF    FA6.7
0A1EC:  BSF    FA6.2
0A1EE:  MOVF   FF2,W
0A1F0:  MOVWF  00
0A1F2:  BCF    FF2.7
0A1F4:  MOVLB  F
0A1F6:  MOVLW  55
0A1F8:  MOVWF  FA7
0A1FA:  MOVLW  AA
0A1FC:  MOVWF  FA7
0A1FE:  BSF    FA6.1
0A200:  BTFSC  FA6.1
0A202:  BRA    A200
0A204:  BCF    FA6.2
0A206:  MOVF   00,W
0A208:  IORWF  FF2,F
....................                               delay_ms(20); 
0A20A:  MOVLW  14
0A20C:  MOVLB  7
0A20E:  MOVWF  x33
0A210:  MOVLB  0
0A212:  CALL   174A
0A216:  MOVLB  4
0A218:  MOVLB  6
....................                            } 
....................                         } 
....................                      }else{ 
0A21A:  BRA    A286
....................                         Desfogando=ON; 
0A21C:  MOVLB  4
0A21E:  BSF    x5E.4
....................                         DesfogueSuave=ON; 
0A220:  BSF    x5E.5
....................                         CuadroEsterilizando(OFF); 
0A222:  MOVLB  7
0A224:  CLRF   x2D
0A226:  MOVLB  0
0A228:  CALL   3F3A
....................                         CuadroDesfogando(ON); 
0A22C:  MOVLW  01
0A22E:  MOVLB  7
0A230:  MOVWF  x2D
0A232:  MOVLB  0
0A234:  CALL   3EE6
....................                         BorraStatus(); 
0A238:  CALL   3EC8
....................                         strcpy(Menus.Letra,"Despresurizando");displayMenu(Menus.Letra,0,55,2,1); 
0A23C:  MOVLW  07
0A23E:  MOVWF  FEA
0A240:  MOVLW  09
0A242:  MOVWF  FE9
0A244:  MOVFF  FF2,72D
0A248:  BCF    FF2.7
0A24A:  MOVLW  00
0A24C:  CALL   11A8
0A250:  TBLRD*-
0A252:  TBLRD*+
0A254:  MOVF   FF5,W
0A256:  MOVWF  FEE
0A258:  IORLW  00
0A25A:  BNZ   A252
0A25C:  MOVLB  7
0A25E:  BTFSC  x2D.7
0A260:  BSF    FF2.7
0A262:  MOVLW  07
0A264:  MOVWF  x2E
0A266:  MOVLW  09
0A268:  MOVWF  x2D
0A26A:  CLRF   x2F
0A26C:  MOVLW  37
0A26E:  MOVWF  x30
0A270:  MOVLW  02
0A272:  MOVWF  x31
0A274:  MOVLW  01
0A276:  MOVWF  x32
0A278:  MOVLB  0
0A27A:  CALL   225C
....................                         Control=0; 
0A27E:  MOVLB  6
0A280:  CLRF   xDB
....................                         SSR_off; 
0A282:  BSF    F8B.2
0A284:  BCF    F94.2
....................                      } 
....................                   }else{ 
0A286:  BRA    A4A2
....................                      Desfogue_on; 
0A288:  BCF    F8B.5
0A28A:  BCF    F94.5
....................                      SSR_off; 
0A28C:  BSF    F8B.2
0A28E:  BCF    F94.2
....................                      Controlando=0; 
0A290:  CLRF   xDD
....................                      Control=0; 
0A292:  CLRF   xDB
....................                      if(PresionCamara<2){ 
0A294:  MOVF   xF2,F
0A296:  BTFSS  FD8.2
0A298:  BRA    A438
0A29A:  MOVF   xF1,W
0A29C:  SUBLW  01
0A29E:  BTFSS  FD8.0
0A2A0:  BRA    A438
....................                         if((Tsecado[0]>=Tsecadop[0])&&(Tsecado[1]>=Tsecadop[1])&&(Tsecado[2]>=Tsecadop[2])&&(Tsecado[3]>=Tsecadop[3])){ 
0A2A2:  MOVLB  4
0A2A4:  MOVF   x76,W
0A2A6:  XORLW  80
0A2A8:  MOVWF  00
0A2AA:  MOVF   x72,W
0A2AC:  XORLW  80
0A2AE:  SUBWF  00,W
0A2B0:  BZ    A2B6
0A2B2:  BTFSC  FD8.0
0A2B4:  BRA    A3E0
0A2B6:  MOVF   x77,W
0A2B8:  XORLW  80
0A2BA:  MOVWF  00
0A2BC:  MOVF   x73,W
0A2BE:  XORLW  80
0A2C0:  SUBWF  00,W
0A2C2:  BZ    A2C8
0A2C4:  BTFSC  FD8.0
0A2C6:  BRA    A3E0
0A2C8:  MOVF   x78,W
0A2CA:  XORLW  80
0A2CC:  MOVWF  00
0A2CE:  MOVF   x74,W
0A2D0:  XORLW  80
0A2D2:  SUBWF  00,W
0A2D4:  BZ    A2DA
0A2D6:  BTFSC  FD8.0
0A2D8:  BRA    A3E0
0A2DA:  MOVF   x79,W
0A2DC:  XORLW  80
0A2DE:  MOVWF  00
0A2E0:  MOVF   x75,W
0A2E2:  XORLW  80
0A2E4:  SUBWF  00,W
0A2E6:  BZ    A2EC
0A2E8:  BTFSC  FD8.0
0A2EA:  BRA    A3E0
....................                            Secando=OFF; 
0A2EC:  BCF    x5E.2
....................                            CuadroDesfogando(OFF); 
0A2EE:  MOVLB  7
0A2F0:  CLRF   x2D
0A2F2:  MOVLB  0
0A2F4:  CALL   3EE6
....................                            BorraStatus(); 
0A2F8:  CALL   3EC8
....................                            strcpy(Menus.Letra,"Ciclo Finalizado");displayMenu(Menus.Letra,0,55,2,1); 
0A2FC:  MOVLW  07
0A2FE:  MOVWF  FEA
0A300:  MOVLW  09
0A302:  MOVWF  FE9
0A304:  MOVFF  FF2,72D
0A308:  BCF    FF2.7
0A30A:  MOVLW  00
0A30C:  CALL   1178
0A310:  TBLRD*-
0A312:  TBLRD*+
0A314:  MOVF   FF5,W
0A316:  MOVWF  FEE
0A318:  IORLW  00
0A31A:  BNZ   A312
0A31C:  MOVLB  7
0A31E:  BTFSC  x2D.7
0A320:  BSF    FF2.7
0A322:  MOVLW  07
0A324:  MOVWF  x2E
0A326:  MOVLW  09
0A328:  MOVWF  x2D
0A32A:  CLRF   x2F
0A32C:  MOVLW  37
0A32E:  MOVWF  x30
0A330:  MOVLW  02
0A332:  MOVWF  x31
0A334:  MOVLW  01
0A336:  MOVWF  x32
0A338:  MOVLB  0
0A33A:  CALL   225C
....................                            if(!Ciclo){ 
0A33E:  MOVLB  4
0A340:  BTFSC  x5F.3
0A342:  BRA    A3C6
....................                               Ciclo=ON; 
0A344:  BSF    x5F.3
....................                               Ciclos++; 
0A346:  MOVLB  6
0A348:  INCF   xF5,F
0A34A:  BTFSC  FD8.2
0A34C:  INCF   xF6,F
....................                               CiclosL=make8(Ciclos,0); 
0A34E:  MOVFF  6F5,6E1
....................                               CiclosH=make8(Ciclos,1); 
0A352:  MOVFF  6F6,6E2
....................                               write_eeprom(37,CiclosL); 
0A356:  CLRF   FAA
0A358:  MOVLW  25
0A35A:  MOVWF  FA9
0A35C:  MOVFF  6E1,FA8
0A360:  BCF    FA6.6
0A362:  BCF    FA6.7
0A364:  BSF    FA6.2
0A366:  MOVF   FF2,W
0A368:  MOVWF  00
0A36A:  BCF    FF2.7
0A36C:  MOVLB  F
0A36E:  MOVLW  55
0A370:  MOVWF  FA7
0A372:  MOVLW  AA
0A374:  MOVWF  FA7
0A376:  BSF    FA6.1
0A378:  BTFSC  FA6.1
0A37A:  BRA    A378
0A37C:  BCF    FA6.2
0A37E:  MOVF   00,W
0A380:  IORWF  FF2,F
....................                               delay_ms(20); 
0A382:  MOVLW  14
0A384:  MOVLB  7
0A386:  MOVWF  x33
0A388:  MOVLB  0
0A38A:  CALL   174A
....................                               write_eeprom(38,CiclosH); 
0A38E:  CLRF   FAA
0A390:  MOVLW  26
0A392:  MOVWF  FA9
0A394:  MOVFF  6E2,FA8
0A398:  BCF    FA6.6
0A39A:  BCF    FA6.7
0A39C:  BSF    FA6.2
0A39E:  MOVF   FF2,W
0A3A0:  MOVWF  00
0A3A2:  BCF    FF2.7
0A3A4:  MOVLB  F
0A3A6:  MOVLW  55
0A3A8:  MOVWF  FA7
0A3AA:  MOVLW  AA
0A3AC:  MOVWF  FA7
0A3AE:  BSF    FA6.1
0A3B0:  BTFSC  FA6.1
0A3B2:  BRA    A3B0
0A3B4:  BCF    FA6.2
0A3B6:  MOVF   00,W
0A3B8:  IORWF  FF2,F
....................                               delay_ms(20); 
0A3BA:  MOVLW  14
0A3BC:  MOVLB  7
0A3BE:  MOVWF  x33
0A3C0:  MOVLB  0
0A3C2:  CALL   174A
....................                            } 
....................                            delay_ms(2000); 
0A3C6:  MOVLW  08
0A3C8:  MOVLB  7
0A3CA:  MOVWF  x2D
0A3CC:  MOVLW  FA
0A3CE:  MOVWF  x33
0A3D0:  MOVLB  0
0A3D2:  CALL   174A
0A3D6:  MOVLB  7
0A3D8:  DECFSZ x2D,F
0A3DA:  BRA    A3CC
....................                         }else{ 
0A3DC:  BRA    A434
0A3DE:  MOVLB  4
....................                            Secando=ON; 
0A3E0:  BSF    x5E.2
....................                            CuadroDesfogando(OFF); 
0A3E2:  MOVLB  7
0A3E4:  CLRF   x2D
0A3E6:  MOVLB  0
0A3E8:  CALL   3EE6
....................                            BorraStatus(); 
0A3EC:  CALL   3EC8
....................                            strcpy(Menus.Letra,"Secando");displayMenu(Menus.Letra,0,55,2,1); 
0A3F0:  MOVLW  07
0A3F2:  MOVWF  FEA
0A3F4:  MOVLW  09
0A3F6:  MOVWF  FE9
0A3F8:  MOVFF  FF2,72D
0A3FC:  BCF    FF2.7
0A3FE:  MOVLW  00
0A400:  CALL   11D6
0A404:  TBLRD*-
0A406:  TBLRD*+
0A408:  MOVF   FF5,W
0A40A:  MOVWF  FEE
0A40C:  IORLW  00
0A40E:  BNZ   A406
0A410:  MOVLB  7
0A412:  BTFSC  x2D.7
0A414:  BSF    FF2.7
0A416:  MOVLW  07
0A418:  MOVWF  x2E
0A41A:  MOVLW  09
0A41C:  MOVWF  x2D
0A41E:  CLRF   x2F
0A420:  MOVLW  37
0A422:  MOVWF  x30
0A424:  MOVLW  02
0A426:  MOVWF  x31
0A428:  MOVLW  01
0A42A:  MOVWF  x32
0A42C:  MOVLB  0
0A42E:  CALL   225C
0A432:  MOVLB  7
....................                         } 
....................                      }else{ 
0A434:  BRA    A4A4
0A436:  MOVLB  6
....................                         Desfogando=ON; 
0A438:  MOVLB  4
0A43A:  BSF    x5E.4
....................                         CuadroEsterilizando(OFF); 
0A43C:  MOVLB  7
0A43E:  CLRF   x2D
0A440:  MOVLB  0
0A442:  CALL   3F3A
....................                         CuadroDesfogando(ON); 
0A446:  MOVLW  01
0A448:  MOVLB  7
0A44A:  MOVWF  x2D
0A44C:  MOVLB  0
0A44E:  CALL   3EE6
....................                         BorraStatus(); 
0A452:  CALL   3EC8
....................                         strcpy(Menus.Letra,"Despresurizando");displayMenu(Menus.Letra,0,55,2,1); 
0A456:  MOVLW  07
0A458:  MOVWF  FEA
0A45A:  MOVLW  09
0A45C:  MOVWF  FE9
0A45E:  MOVFF  FF2,72D
0A462:  BCF    FF2.7
0A464:  MOVLW  00
0A466:  CALL   11A8
0A46A:  TBLRD*-
0A46C:  TBLRD*+
0A46E:  MOVF   FF5,W
0A470:  MOVWF  FEE
0A472:  IORLW  00
0A474:  BNZ   A46C
0A476:  MOVLB  7
0A478:  BTFSC  x2D.7
0A47A:  BSF    FF2.7
0A47C:  MOVLW  07
0A47E:  MOVWF  x2E
0A480:  MOVLW  09
0A482:  MOVWF  x2D
0A484:  CLRF   x2F
0A486:  MOVLW  37
0A488:  MOVWF  x30
0A48A:  MOVLW  02
0A48C:  MOVWF  x31
0A48E:  MOVLW  01
0A490:  MOVWF  x32
0A492:  MOVLB  0
0A494:  CALL   225C
....................                         Control=0; 
0A498:  MOVLB  6
0A49A:  CLRF   xDB
....................                         SSR_off; 
0A49C:  BSF    F8B.2
0A49E:  BCF    F94.2
....................                         Controlando=0; 
0A4A0:  CLRF   xDD
0A4A2:  MOVLB  7
....................                      } 
....................                   } 
....................                    
....................                }else{ 
0A4A4:  BRA    A512
0A4A6:  MOVLB  4
....................                   CuadroCalentando(OFF); 
0A4A8:  MOVLB  7
0A4AA:  CLRF   x2D
0A4AC:  MOVLB  0
0A4AE:  CALL   3746
....................                   CuadroEsterilizando(ON); 
0A4B2:  MOVLW  01
0A4B4:  MOVLB  7
0A4B6:  MOVWF  x2D
0A4B8:  MOVLB  0
0A4BA:  CALL   3F3A
....................                   BorraStatus(); 
0A4BE:  CALL   3EC8
....................                   strcpy(Menus.Letra,"Esterilizando");displayMenu(Menus.Letra,0,55,2,1); 
0A4C2:  MOVLW  07
0A4C4:  MOVWF  FEA
0A4C6:  MOVLW  09
0A4C8:  MOVWF  FE9
0A4CA:  MOVFF  FF2,72D
0A4CE:  BCF    FF2.7
0A4D0:  MOVLW  00
0A4D2:  CALL   11FC
0A4D6:  TBLRD*-
0A4D8:  TBLRD*+
0A4DA:  MOVF   FF5,W
0A4DC:  MOVWF  FEE
0A4DE:  IORLW  00
0A4E0:  BNZ   A4D8
0A4E2:  MOVLB  7
0A4E4:  BTFSC  x2D.7
0A4E6:  BSF    FF2.7
0A4E8:  MOVLW  07
0A4EA:  MOVWF  x2E
0A4EC:  MOVLW  09
0A4EE:  MOVWF  x2D
0A4F0:  CLRF   x2F
0A4F2:  MOVLW  37
0A4F4:  MOVWF  x30
0A4F6:  MOVLW  02
0A4F8:  MOVWF  x31
0A4FA:  MOVLW  01
0A4FC:  MOVWF  x32
0A4FE:  MOVLB  0
0A500:  CALL   225C
....................                   Control=1; 
0A504:  MOVLW  01
0A506:  MOVLB  6
0A508:  MOVWF  xDB
....................                   Controla(); 
0A50A:  MOVLB  0
0A50C:  CALL   3FFC
0A510:  MOVLB  7
0A512:  MOVLB  6
....................                } 
....................             } 
....................              
....................          } 
....................    } 
....................  
....................    if(Lectura==1)// Utilizado para visualizar la lectura de la temperatura 
0A514:  MOVLB  6
0A516:  BTFSS  xDA.4
0A518:  BRA    A818
....................    {                       
....................       Lectura=0; 
0A51A:  BCF    xDA.4
....................       displayT(PresionCamara,31,35,1); 
0A51C:  MOVFF  6F2,734
0A520:  MOVFF  6F1,733
0A524:  MOVLB  0
0A526:  CALL   1772
0A52A:  MOVFF  00,72D
0A52E:  MOVFF  01,72E
0A532:  MOVFF  02,72F
0A536:  MOVFF  03,730
0A53A:  MOVFF  03,734
0A53E:  MOVFF  02,733
0A542:  MOVFF  01,732
0A546:  MOVFF  00,731
0A54A:  MOVLW  1F
0A54C:  MOVLB  7
0A54E:  MOVWF  x35
0A550:  MOVLW  23
0A552:  MOVWF  x36
0A554:  MOVLW  01
0A556:  MOVWF  x37
0A558:  MOVLB  0
0A55A:  GOTO   47DC
....................       //displayT(PresionPreCamara,31,44,1); 
....................       glcd_rect(51, 35, 62, 48, YES, OFF);glcd_text57(52, 35, kpa, 1, ON); 
0A55E:  MOVLW  33
0A560:  MOVLB  7
0A562:  MOVWF  x43
0A564:  MOVLW  23
0A566:  MOVWF  x44
0A568:  MOVLW  3E
0A56A:  MOVWF  x45
0A56C:  MOVLW  30
0A56E:  MOVWF  x46
0A570:  MOVLW  01
0A572:  MOVWF  x47
0A574:  CLRF   x48
0A576:  MOVLB  0
0A578:  CALL   219A
0A57C:  MOVLW  34
0A57E:  MOVLB  7
0A580:  MOVWF  x41
0A582:  MOVLW  23
0A584:  MOVWF  x42
0A586:  MOVLW  06
0A588:  MOVWF  x44
0A58A:  MOVLW  D6
0A58C:  MOVWF  x43
0A58E:  MOVLW  01
0A590:  MOVWF  x45
0A592:  MOVWF  x46
0A594:  MOVLB  0
0A596:  CALL   1EA4
....................       //glcd_rect(51, 44, 62, 48, YES, OFF);glcd_text57(52, 44, kpa, 1, ON); 
....................       displayTT(Temperatura,69,20,2); 
0A59A:  MOVFF  6C3,730
0A59E:  MOVFF  6C2,72F
0A5A2:  MOVFF  6C1,72E
0A5A6:  MOVFF  6C0,72D
0A5AA:  MOVLW  45
0A5AC:  MOVLB  7
0A5AE:  MOVWF  x31
0A5B0:  MOVLW  14
0A5B2:  MOVWF  x32
0A5B4:  MOVLW  02
0A5B6:  MOVWF  x33
0A5B8:  MOVLB  0
0A5BA:  CALL   4854
....................       glcd_circle(95,40,2,NO,ON); 
0A5BE:  MOVLW  5F
0A5C0:  MOVLB  7
0A5C2:  MOVWF  x2D
0A5C4:  MOVLW  28
0A5C6:  MOVWF  x2E
0A5C8:  MOVLW  02
0A5CA:  MOVWF  x2F
0A5CC:  CLRF   x30
0A5CE:  MOVLW  01
0A5D0:  MOVWF  x31
0A5D2:  MOVLB  0
0A5D4:  CALL   3B5E
....................       strcpy(Menus.Letra,"C");displayMenu(Menus.Letra,102,40,2,2); 
0A5D8:  MOVLW  07
0A5DA:  MOVWF  FEA
0A5DC:  MOVLW  09
0A5DE:  MOVWF  FE9
0A5E0:  MOVFF  FF2,72D
0A5E4:  BCF    FF2.7
0A5E6:  MOVLW  00
0A5E8:  CALL   0FE2
0A5EC:  TBLRD*-
0A5EE:  TBLRD*+
0A5F0:  MOVF   FF5,W
0A5F2:  MOVWF  FEE
0A5F4:  IORLW  00
0A5F6:  BNZ   A5EE
0A5F8:  MOVLB  7
0A5FA:  BTFSC  x2D.7
0A5FC:  BSF    FF2.7
0A5FE:  MOVLW  07
0A600:  MOVWF  x2E
0A602:  MOVLW  09
0A604:  MOVWF  x2D
0A606:  MOVLW  66
0A608:  MOVWF  x2F
0A60A:  MOVLW  28
0A60C:  MOVWF  x30
0A60E:  MOVLW  02
0A610:  MOVWF  x31
0A612:  MOVWF  x32
0A614:  MOVLB  0
0A616:  CALL   225C
....................       displayTiempo(Setpoint,5,20,2,1); 
0A61A:  MOVFF  6E3,72D
0A61E:  MOVLW  05
0A620:  MOVLB  7
0A622:  MOVWF  x2E
0A624:  MOVLW  14
0A626:  MOVWF  x2F
0A628:  MOVLW  02
0A62A:  MOVWF  x30
0A62C:  MOVLW  01
0A62E:  MOVWF  x31
0A630:  MOVLB  0
0A632:  CALL   39C0
....................  
....................       glcd_imagen(5); 
0A636:  MOVLW  05
0A638:  MOVLB  7
0A63A:  MOVWF  x2D
0A63C:  MOVLB  0
0A63E:  CALL   3696
....................       strcpy(Menus.Letra,"T est:");displayMenu(Menus.Letra,0,0,2,1); 
0A642:  MOVLW  07
0A644:  MOVWF  FEA
0A646:  MOVLW  09
0A648:  MOVWF  FE9
0A64A:  MOVFF  FF2,72D
0A64E:  BCF    FF2.7
0A650:  MOVLW  00
0A652:  CALL   0F96
0A656:  TBLRD*-
0A658:  TBLRD*+
0A65A:  MOVF   FF5,W
0A65C:  MOVWF  FEE
0A65E:  IORLW  00
0A660:  BNZ   A658
0A662:  MOVLB  7
0A664:  BTFSC  x2D.7
0A666:  BSF    FF2.7
0A668:  MOVLW  07
0A66A:  MOVWF  x2E
0A66C:  MOVLW  09
0A66E:  MOVWF  x2D
0A670:  CLRF   x2F
0A672:  CLRF   x30
0A674:  MOVLW  02
0A676:  MOVWF  x31
0A678:  MOVLW  01
0A67A:  MOVWF  x32
0A67C:  MOVLB  0
0A67E:  CALL   225C
....................       strcpy(Menus.Letra,"T sec:");displayMenu(Menus.Letra,0,8,2,1); 
0A682:  MOVLW  07
0A684:  MOVWF  FEA
0A686:  MOVLW  09
0A688:  MOVWF  FE9
0A68A:  MOVFF  FF2,72D
0A68E:  BCF    FF2.7
0A690:  MOVLW  00
0A692:  CALL   0FBC
0A696:  TBLRD*-
0A698:  TBLRD*+
0A69A:  MOVF   FF5,W
0A69C:  MOVWF  FEE
0A69E:  IORLW  00
0A6A0:  BNZ   A698
0A6A2:  MOVLB  7
0A6A4:  BTFSC  x2D.7
0A6A6:  BSF    FF2.7
0A6A8:  MOVLW  07
0A6AA:  MOVWF  x2E
0A6AC:  MOVLW  09
0A6AE:  MOVWF  x2D
0A6B0:  CLRF   x2F
0A6B2:  MOVLW  08
0A6B4:  MOVWF  x30
0A6B6:  MOVLW  02
0A6B8:  MOVWF  x31
0A6BA:  MOVLW  01
0A6BC:  MOVWF  x32
0A6BE:  MOVLB  0
0A6C0:  CALL   225C
....................       MuestraTiemposProgramados(); 
0A6C4:  CALL   3D88
....................       // Muestra Valor de esterilizacion actual. 
....................       displayTiempo(Testerilizacion[3],80,0,0,1);displayTiempo(Testerilizacion[2],86,0,0,1); 
0A6C8:  MOVFF  46D,72D
0A6CC:  MOVLW  50
0A6CE:  MOVLB  7
0A6D0:  MOVWF  x2E
0A6D2:  CLRF   x2F
0A6D4:  CLRF   x30
0A6D6:  MOVLW  01
0A6D8:  MOVWF  x31
0A6DA:  MOVLB  0
0A6DC:  CALL   39C0
0A6E0:  MOVFF  46C,72D
0A6E4:  MOVLW  56
0A6E6:  MOVLB  7
0A6E8:  MOVWF  x2E
0A6EA:  CLRF   x2F
0A6EC:  CLRF   x30
0A6EE:  MOVLW  01
0A6F0:  MOVWF  x31
0A6F2:  MOVLB  0
0A6F4:  CALL   39C0
....................       strcpy(Menus.Letra,":");displayMenu(Menus.Letra,92,0,2,1);  
0A6F8:  MOVLW  07
0A6FA:  MOVWF  FEA
0A6FC:  MOVLW  09
0A6FE:  MOVWF  FE9
0A700:  MOVFF  FF2,72D
0A704:  BCF    FF2.7
0A706:  MOVLW  00
0A708:  CALL   06DE
0A70C:  TBLRD*-
0A70E:  TBLRD*+
0A710:  MOVF   FF5,W
0A712:  MOVWF  FEE
0A714:  IORLW  00
0A716:  BNZ   A70E
0A718:  MOVLB  7
0A71A:  BTFSC  x2D.7
0A71C:  BSF    FF2.7
0A71E:  MOVLW  07
0A720:  MOVWF  x2E
0A722:  MOVLW  09
0A724:  MOVWF  x2D
0A726:  MOVLW  5C
0A728:  MOVWF  x2F
0A72A:  CLRF   x30
0A72C:  MOVLW  02
0A72E:  MOVWF  x31
0A730:  MOVLW  01
0A732:  MOVWF  x32
0A734:  MOVLB  0
0A736:  CALL   225C
....................       displayTiempo(Testerilizacion[1],98,0,0,1);displayTiempo(Testerilizacion[0],104,0,0,1); 
0A73A:  MOVFF  46B,72D
0A73E:  MOVLW  62
0A740:  MOVLB  7
0A742:  MOVWF  x2E
0A744:  CLRF   x2F
0A746:  CLRF   x30
0A748:  MOVLW  01
0A74A:  MOVWF  x31
0A74C:  MOVLB  0
0A74E:  CALL   39C0
0A752:  MOVFF  46A,72D
0A756:  MOVLW  68
0A758:  MOVLB  7
0A75A:  MOVWF  x2E
0A75C:  CLRF   x2F
0A75E:  CLRF   x30
0A760:  MOVLW  01
0A762:  MOVWF  x31
0A764:  MOVLB  0
0A766:  CALL   39C0
....................       // Muestra tiempo de secado actual. 
....................       displayTiempo(Tsecado[3],80,8,0,1);displayTiempo(Tsecado[2],86,8,0,1); 
0A76A:  MOVFF  475,72D
0A76E:  MOVLW  50
0A770:  MOVLB  7
0A772:  MOVWF  x2E
0A774:  MOVLW  08
0A776:  MOVWF  x2F
0A778:  CLRF   x30
0A77A:  MOVLW  01
0A77C:  MOVWF  x31
0A77E:  MOVLB  0
0A780:  CALL   39C0
0A784:  MOVFF  474,72D
0A788:  MOVLW  56
0A78A:  MOVLB  7
0A78C:  MOVWF  x2E
0A78E:  MOVLW  08
0A790:  MOVWF  x2F
0A792:  CLRF   x30
0A794:  MOVLW  01
0A796:  MOVWF  x31
0A798:  MOVLB  0
0A79A:  CALL   39C0
....................       strcpy(Menus.Letra,":");displayMenu(Menus.Letra,92,8,2,1);  
0A79E:  MOVLW  07
0A7A0:  MOVWF  FEA
0A7A2:  MOVLW  09
0A7A4:  MOVWF  FE9
0A7A6:  MOVFF  FF2,72D
0A7AA:  BCF    FF2.7
0A7AC:  MOVLW  00
0A7AE:  CALL   06DE
0A7B2:  TBLRD*-
0A7B4:  TBLRD*+
0A7B6:  MOVF   FF5,W
0A7B8:  MOVWF  FEE
0A7BA:  IORLW  00
0A7BC:  BNZ   A7B4
0A7BE:  MOVLB  7
0A7C0:  BTFSC  x2D.7
0A7C2:  BSF    FF2.7
0A7C4:  MOVLW  07
0A7C6:  MOVWF  x2E
0A7C8:  MOVLW  09
0A7CA:  MOVWF  x2D
0A7CC:  MOVLW  5C
0A7CE:  MOVWF  x2F
0A7D0:  MOVLW  08
0A7D2:  MOVWF  x30
0A7D4:  MOVLW  02
0A7D6:  MOVWF  x31
0A7D8:  MOVLW  01
0A7DA:  MOVWF  x32
0A7DC:  MOVLB  0
0A7DE:  CALL   225C
....................       displayTiempo(Tsecado[1],98,8,0,1);displayTiempo(Tsecado[0],104,8,0,1); 
0A7E2:  MOVFF  473,72D
0A7E6:  MOVLW  62
0A7E8:  MOVLB  7
0A7EA:  MOVWF  x2E
0A7EC:  MOVLW  08
0A7EE:  MOVWF  x2F
0A7F0:  CLRF   x30
0A7F2:  MOVLW  01
0A7F4:  MOVWF  x31
0A7F6:  MOVLB  0
0A7F8:  CALL   39C0
0A7FC:  MOVFF  472,72D
0A800:  MOVLW  68
0A802:  MOVLB  7
0A804:  MOVWF  x2E
0A806:  MOVLW  08
0A808:  MOVWF  x2F
0A80A:  CLRF   x30
0A80C:  MOVLW  01
0A80E:  MOVWF  x31
0A810:  MOVLB  0
0A812:  CALL   39C0
0A816:  MOVLB  6
....................    } 
.................... } 
.................... //_-------------------------------------------------------------------------------------------------------------------------------------------------------- 
....................        
.................... //_-------------------------------------------------------------------------------------------------------------------------------------------------------- 
....................       if(Menu==100){ //Menu de Configuracin de Parametros de Control 
0A818:  MOVF   xDE,W
0A81A:  SUBLW  64
0A81C:  BTFSS  FD8.2
0A81E:  GOTO   AF70
....................        
....................       if(Opcion>11) 
0A822:  MOVF   xE4,W
0A824:  SUBLW  0B
0A826:  BC    A82C
....................       {Opcion=1;} 
0A828:  MOVLW  01
0A82A:  MOVWF  xE4
....................       if(Opcion<1) 
0A82C:  MOVF   xE4,F
0A82E:  BNZ   A834
....................       {Opcion=11;} 
0A830:  MOVLW  0B
0A832:  MOVWF  xE4
....................        
....................       if(Opcion<=6){ 
0A834:  MOVF   xE4,W
0A836:  SUBLW  06
0A838:  BTFSS  FD8.0
0A83A:  BRA    AB94
....................          if(Opcion==1)    
0A83C:  DECFSZ xE4,W
0A83E:  BRA    A884
....................             {strcpy(Menus.Letra,"Proporcional"); 
0A840:  MOVLW  07
0A842:  MOVWF  FEA
0A844:  MOVLW  09
0A846:  MOVWF  FE9
0A848:  MOVFF  FF2,72D
0A84C:  BCF    FF2.7
0A84E:  MOVLW  00
0A850:  MOVLB  0
0A852:  CALL   1228
0A856:  TBLRD*-
0A858:  TBLRD*+
0A85A:  MOVF   FF5,W
0A85C:  MOVWF  FEE
0A85E:  IORLW  00
0A860:  BNZ   A858
0A862:  MOVLB  7
0A864:  BTFSC  x2D.7
0A866:  BSF    FF2.7
....................             displayMenu(Menus.Letra,0,0,1,1);} 
0A868:  MOVLW  07
0A86A:  MOVWF  x2E
0A86C:  MOVLW  09
0A86E:  MOVWF  x2D
0A870:  CLRF   x2F
0A872:  CLRF   x30
0A874:  MOVLW  01
0A876:  MOVWF  x31
0A878:  MOVWF  x32
0A87A:  MOVLB  0
0A87C:  CALL   225C
....................          else 
0A880:  BRA    A8C4
0A882:  MOVLB  6
....................             {strcpy(Menus.Letra,"Proporcional"); 
0A884:  MOVLW  07
0A886:  MOVWF  FEA
0A888:  MOVLW  09
0A88A:  MOVWF  FE9
0A88C:  MOVFF  FF2,72D
0A890:  BCF    FF2.7
0A892:  MOVLW  00
0A894:  MOVLB  0
0A896:  CALL   1228
0A89A:  TBLRD*-
0A89C:  TBLRD*+
0A89E:  MOVF   FF5,W
0A8A0:  MOVWF  FEE
0A8A2:  IORLW  00
0A8A4:  BNZ   A89C
0A8A6:  MOVLB  7
0A8A8:  BTFSC  x2D.7
0A8AA:  BSF    FF2.7
....................             displayMenu(Menus.Letra,0,0,0,1);} 
0A8AC:  MOVLW  07
0A8AE:  MOVWF  x2E
0A8B0:  MOVLW  09
0A8B2:  MOVWF  x2D
0A8B4:  CLRF   x2F
0A8B6:  CLRF   x30
0A8B8:  CLRF   x31
0A8BA:  MOVLW  01
0A8BC:  MOVWF  x32
0A8BE:  MOVLB  0
0A8C0:  CALL   225C
....................           
....................          if(Opcion==2)    
0A8C4:  MOVLB  6
0A8C6:  MOVF   xE4,W
0A8C8:  SUBLW  02
0A8CA:  BNZ   A910
....................             {strcpy(Menus.Letra,"Integral"); 
0A8CC:  MOVLW  07
0A8CE:  MOVWF  FEA
0A8D0:  MOVLW  09
0A8D2:  MOVWF  FE9
0A8D4:  MOVFF  FF2,72D
0A8D8:  BCF    FF2.7
0A8DA:  MOVLW  00
0A8DC:  MOVLB  0
0A8DE:  CALL   1254
0A8E2:  TBLRD*-
0A8E4:  TBLRD*+
0A8E6:  MOVF   FF5,W
0A8E8:  MOVWF  FEE
0A8EA:  IORLW  00
0A8EC:  BNZ   A8E4
0A8EE:  MOVLB  7
0A8F0:  BTFSC  x2D.7
0A8F2:  BSF    FF2.7
....................             displayMenu(Menus.Letra,0,9,1,1);} 
0A8F4:  MOVLW  07
0A8F6:  MOVWF  x2E
0A8F8:  MOVLW  09
0A8FA:  MOVWF  x2D
0A8FC:  CLRF   x2F
0A8FE:  MOVWF  x30
0A900:  MOVLW  01
0A902:  MOVWF  x31
0A904:  MOVWF  x32
0A906:  MOVLB  0
0A908:  CALL   225C
....................          else 
0A90C:  BRA    A950
0A90E:  MOVLB  6
....................             {strcpy(Menus.Letra,"Integral"); 
0A910:  MOVLW  07
0A912:  MOVWF  FEA
0A914:  MOVLW  09
0A916:  MOVWF  FE9
0A918:  MOVFF  FF2,72D
0A91C:  BCF    FF2.7
0A91E:  MOVLW  00
0A920:  MOVLB  0
0A922:  CALL   1254
0A926:  TBLRD*-
0A928:  TBLRD*+
0A92A:  MOVF   FF5,W
0A92C:  MOVWF  FEE
0A92E:  IORLW  00
0A930:  BNZ   A928
0A932:  MOVLB  7
0A934:  BTFSC  x2D.7
0A936:  BSF    FF2.7
....................             displayMenu(Menus.Letra,0,9,0,1);} 
0A938:  MOVLW  07
0A93A:  MOVWF  x2E
0A93C:  MOVLW  09
0A93E:  MOVWF  x2D
0A940:  CLRF   x2F
0A942:  MOVWF  x30
0A944:  CLRF   x31
0A946:  MOVLW  01
0A948:  MOVWF  x32
0A94A:  MOVLB  0
0A94C:  CALL   225C
....................              
....................          if(Opcion==3)    
0A950:  MOVLB  6
0A952:  MOVF   xE4,W
0A954:  SUBLW  03
0A956:  BNZ   A99E
....................             {strcpy(Menus.Letra,"Derivativo"); 
0A958:  MOVLW  07
0A95A:  MOVWF  FEA
0A95C:  MOVLW  09
0A95E:  MOVWF  FE9
0A960:  MOVFF  FF2,72D
0A964:  BCF    FF2.7
0A966:  MOVLW  00
0A968:  MOVLB  0
0A96A:  CALL   127C
0A96E:  TBLRD*-
0A970:  TBLRD*+
0A972:  MOVF   FF5,W
0A974:  MOVWF  FEE
0A976:  IORLW  00
0A978:  BNZ   A970
0A97A:  MOVLB  7
0A97C:  BTFSC  x2D.7
0A97E:  BSF    FF2.7
....................             displayMenu(Menus.Letra,0,18,1,1);} 
0A980:  MOVLW  07
0A982:  MOVWF  x2E
0A984:  MOVLW  09
0A986:  MOVWF  x2D
0A988:  CLRF   x2F
0A98A:  MOVLW  12
0A98C:  MOVWF  x30
0A98E:  MOVLW  01
0A990:  MOVWF  x31
0A992:  MOVWF  x32
0A994:  MOVLB  0
0A996:  CALL   225C
....................          else 
0A99A:  BRA    A9E0
0A99C:  MOVLB  6
....................             {strcpy(Menus.Letra,"Derivativo"); 
0A99E:  MOVLW  07
0A9A0:  MOVWF  FEA
0A9A2:  MOVLW  09
0A9A4:  MOVWF  FE9
0A9A6:  MOVFF  FF2,72D
0A9AA:  BCF    FF2.7
0A9AC:  MOVLW  00
0A9AE:  MOVLB  0
0A9B0:  CALL   127C
0A9B4:  TBLRD*-
0A9B6:  TBLRD*+
0A9B8:  MOVF   FF5,W
0A9BA:  MOVWF  FEE
0A9BC:  IORLW  00
0A9BE:  BNZ   A9B6
0A9C0:  MOVLB  7
0A9C2:  BTFSC  x2D.7
0A9C4:  BSF    FF2.7
....................             displayMenu(Menus.Letra,0,18,0,1);}    
0A9C6:  MOVLW  07
0A9C8:  MOVWF  x2E
0A9CA:  MOVLW  09
0A9CC:  MOVWF  x2D
0A9CE:  CLRF   x2F
0A9D0:  MOVLW  12
0A9D2:  MOVWF  x30
0A9D4:  CLRF   x31
0A9D6:  MOVLW  01
0A9D8:  MOVWF  x32
0A9DA:  MOVLB  0
0A9DC:  CALL   225C
....................           
....................          if(Opcion==4)    
0A9E0:  MOVLB  6
0A9E2:  MOVF   xE4,W
0A9E4:  SUBLW  04
0A9E6:  BNZ   AA2E
....................             {strcpy(Menus.Letra,"Tciclo"); 
0A9E8:  MOVLW  07
0A9EA:  MOVWF  FEA
0A9EC:  MOVLW  09
0A9EE:  MOVWF  FE9
0A9F0:  MOVFF  FF2,72D
0A9F4:  BCF    FF2.7
0A9F6:  MOVLW  00
0A9F8:  MOVLB  0
0A9FA:  CALL   12A6
0A9FE:  TBLRD*-
0AA00:  TBLRD*+
0AA02:  MOVF   FF5,W
0AA04:  MOVWF  FEE
0AA06:  IORLW  00
0AA08:  BNZ   AA00
0AA0A:  MOVLB  7
0AA0C:  BTFSC  x2D.7
0AA0E:  BSF    FF2.7
....................             displayMenu(Menus.Letra,0,27,1,1);} 
0AA10:  MOVLW  07
0AA12:  MOVWF  x2E
0AA14:  MOVLW  09
0AA16:  MOVWF  x2D
0AA18:  CLRF   x2F
0AA1A:  MOVLW  1B
0AA1C:  MOVWF  x30
0AA1E:  MOVLW  01
0AA20:  MOVWF  x31
0AA22:  MOVWF  x32
0AA24:  MOVLB  0
0AA26:  CALL   225C
....................          else 
0AA2A:  BRA    AA70
0AA2C:  MOVLB  6
....................             {strcpy(Menus.Letra,"Tciclo"); 
0AA2E:  MOVLW  07
0AA30:  MOVWF  FEA
0AA32:  MOVLW  09
0AA34:  MOVWF  FE9
0AA36:  MOVFF  FF2,72D
0AA3A:  BCF    FF2.7
0AA3C:  MOVLW  00
0AA3E:  MOVLB  0
0AA40:  CALL   12A6
0AA44:  TBLRD*-
0AA46:  TBLRD*+
0AA48:  MOVF   FF5,W
0AA4A:  MOVWF  FEE
0AA4C:  IORLW  00
0AA4E:  BNZ   AA46
0AA50:  MOVLB  7
0AA52:  BTFSC  x2D.7
0AA54:  BSF    FF2.7
....................             displayMenu(Menus.Letra,0,27,0,1);} 
0AA56:  MOVLW  07
0AA58:  MOVWF  x2E
0AA5A:  MOVLW  09
0AA5C:  MOVWF  x2D
0AA5E:  CLRF   x2F
0AA60:  MOVLW  1B
0AA62:  MOVWF  x30
0AA64:  CLRF   x31
0AA66:  MOVLW  01
0AA68:  MOVWF  x32
0AA6A:  MOVLB  0
0AA6C:  CALL   225C
....................              
....................          if(Opcion==5)    
0AA70:  MOVLB  6
0AA72:  MOVF   xE4,W
0AA74:  SUBLW  05
0AA76:  BNZ   AABE
....................             {strcpy(Menus.Letra,"Ajuste +"); 
0AA78:  MOVLW  07
0AA7A:  MOVWF  FEA
0AA7C:  MOVLW  09
0AA7E:  MOVWF  FE9
0AA80:  MOVFF  FF2,72D
0AA84:  BCF    FF2.7
0AA86:  MOVLW  00
0AA88:  MOVLB  0
0AA8A:  CALL   12CC
0AA8E:  TBLRD*-
0AA90:  TBLRD*+
0AA92:  MOVF   FF5,W
0AA94:  MOVWF  FEE
0AA96:  IORLW  00
0AA98:  BNZ   AA90
0AA9A:  MOVLB  7
0AA9C:  BTFSC  x2D.7
0AA9E:  BSF    FF2.7
....................             displayMenu(Menus.Letra,0,36,1,1);} 
0AAA0:  MOVLW  07
0AAA2:  MOVWF  x2E
0AAA4:  MOVLW  09
0AAA6:  MOVWF  x2D
0AAA8:  CLRF   x2F
0AAAA:  MOVLW  24
0AAAC:  MOVWF  x30
0AAAE:  MOVLW  01
0AAB0:  MOVWF  x31
0AAB2:  MOVWF  x32
0AAB4:  MOVLB  0
0AAB6:  CALL   225C
....................          else 
0AABA:  BRA    AB00
0AABC:  MOVLB  6
....................             {strcpy(Menus.Letra,"Ajuste +"); 
0AABE:  MOVLW  07
0AAC0:  MOVWF  FEA
0AAC2:  MOVLW  09
0AAC4:  MOVWF  FE9
0AAC6:  MOVFF  FF2,72D
0AACA:  BCF    FF2.7
0AACC:  MOVLW  00
0AACE:  MOVLB  0
0AAD0:  CALL   12CC
0AAD4:  TBLRD*-
0AAD6:  TBLRD*+
0AAD8:  MOVF   FF5,W
0AADA:  MOVWF  FEE
0AADC:  IORLW  00
0AADE:  BNZ   AAD6
0AAE0:  MOVLB  7
0AAE2:  BTFSC  x2D.7
0AAE4:  BSF    FF2.7
....................             displayMenu(Menus.Letra,0,36,0,1);}    
0AAE6:  MOVLW  07
0AAE8:  MOVWF  x2E
0AAEA:  MOVLW  09
0AAEC:  MOVWF  x2D
0AAEE:  CLRF   x2F
0AAF0:  MOVLW  24
0AAF2:  MOVWF  x30
0AAF4:  CLRF   x31
0AAF6:  MOVLW  01
0AAF8:  MOVWF  x32
0AAFA:  MOVLB  0
0AAFC:  CALL   225C
....................                          
....................          if(Opcion==6)    
0AB00:  MOVLB  6
0AB02:  MOVF   xE4,W
0AB04:  SUBLW  06
0AB06:  BNZ   AB4E
....................             {strcpy(Menus.Letra,"Ajuste -"); 
0AB08:  MOVLW  07
0AB0A:  MOVWF  FEA
0AB0C:  MOVLW  09
0AB0E:  MOVWF  FE9
0AB10:  MOVFF  FF2,72D
0AB14:  BCF    FF2.7
0AB16:  MOVLW  00
0AB18:  MOVLB  0
0AB1A:  CALL   12F4
0AB1E:  TBLRD*-
0AB20:  TBLRD*+
0AB22:  MOVF   FF5,W
0AB24:  MOVWF  FEE
0AB26:  IORLW  00
0AB28:  BNZ   AB20
0AB2A:  MOVLB  7
0AB2C:  BTFSC  x2D.7
0AB2E:  BSF    FF2.7
....................             displayMenu(Menus.Letra,0,45,1,1);} 
0AB30:  MOVLW  07
0AB32:  MOVWF  x2E
0AB34:  MOVLW  09
0AB36:  MOVWF  x2D
0AB38:  CLRF   x2F
0AB3A:  MOVLW  2D
0AB3C:  MOVWF  x30
0AB3E:  MOVLW  01
0AB40:  MOVWF  x31
0AB42:  MOVWF  x32
0AB44:  MOVLB  0
0AB46:  CALL   225C
....................          else 
0AB4A:  BRA    AB90
0AB4C:  MOVLB  6
....................             {strcpy(Menus.Letra,"Ajuste -"); 
0AB4E:  MOVLW  07
0AB50:  MOVWF  FEA
0AB52:  MOVLW  09
0AB54:  MOVWF  FE9
0AB56:  MOVFF  FF2,72D
0AB5A:  BCF    FF2.7
0AB5C:  MOVLW  00
0AB5E:  MOVLB  0
0AB60:  CALL   12F4
0AB64:  TBLRD*-
0AB66:  TBLRD*+
0AB68:  MOVF   FF5,W
0AB6A:  MOVWF  FEE
0AB6C:  IORLW  00
0AB6E:  BNZ   AB66
0AB70:  MOVLB  7
0AB72:  BTFSC  x2D.7
0AB74:  BSF    FF2.7
....................             displayMenu(Menus.Letra,0,45,0,1);}      
0AB76:  MOVLW  07
0AB78:  MOVWF  x2E
0AB7A:  MOVLW  09
0AB7C:  MOVWF  x2D
0AB7E:  CLRF   x2F
0AB80:  MOVLW  2D
0AB82:  MOVWF  x30
0AB84:  CLRF   x31
0AB86:  MOVLW  01
0AB88:  MOVWF  x32
0AB8A:  MOVLB  0
0AB8C:  CALL   225C
....................       } 
....................       else{ 
0AB90:  BRA    AE9A
0AB92:  MOVLB  6
....................          if(Opcion==7)    
0AB94:  MOVF   xE4,W
0AB96:  SUBLW  07
0AB98:  BNZ   ABDE
....................             {strcpy(Menus.Letra,"Media Movil"); 
0AB9A:  MOVLW  07
0AB9C:  MOVWF  FEA
0AB9E:  MOVLW  09
0ABA0:  MOVWF  FE9
0ABA2:  MOVFF  FF2,72D
0ABA6:  BCF    FF2.7
0ABA8:  MOVLW  00
0ABAA:  MOVLB  0
0ABAC:  CALL   131C
0ABB0:  TBLRD*-
0ABB2:  TBLRD*+
0ABB4:  MOVF   FF5,W
0ABB6:  MOVWF  FEE
0ABB8:  IORLW  00
0ABBA:  BNZ   ABB2
0ABBC:  MOVLB  7
0ABBE:  BTFSC  x2D.7
0ABC0:  BSF    FF2.7
....................             displayMenu(Menus.Letra,0,0,1,1);} 
0ABC2:  MOVLW  07
0ABC4:  MOVWF  x2E
0ABC6:  MOVLW  09
0ABC8:  MOVWF  x2D
0ABCA:  CLRF   x2F
0ABCC:  CLRF   x30
0ABCE:  MOVLW  01
0ABD0:  MOVWF  x31
0ABD2:  MOVWF  x32
0ABD4:  MOVLB  0
0ABD6:  CALL   225C
....................          else 
0ABDA:  BRA    AC1E
0ABDC:  MOVLB  6
....................             {strcpy(Menus.Letra,"Media Movil"); 
0ABDE:  MOVLW  07
0ABE0:  MOVWF  FEA
0ABE2:  MOVLW  09
0ABE4:  MOVWF  FE9
0ABE6:  MOVFF  FF2,72D
0ABEA:  BCF    FF2.7
0ABEC:  MOVLW  00
0ABEE:  MOVLB  0
0ABF0:  CALL   131C
0ABF4:  TBLRD*-
0ABF6:  TBLRD*+
0ABF8:  MOVF   FF5,W
0ABFA:  MOVWF  FEE
0ABFC:  IORLW  00
0ABFE:  BNZ   ABF6
0AC00:  MOVLB  7
0AC02:  BTFSC  x2D.7
0AC04:  BSF    FF2.7
....................             displayMenu(Menus.Letra,0,0,0,1);}      
0AC06:  MOVLW  07
0AC08:  MOVWF  x2E
0AC0A:  MOVLW  09
0AC0C:  MOVWF  x2D
0AC0E:  CLRF   x2F
0AC10:  CLRF   x30
0AC12:  CLRF   x31
0AC14:  MOVLW  01
0AC16:  MOVWF  x32
0AC18:  MOVLB  0
0AC1A:  CALL   225C
....................              
....................          if(Opcion==8)    
0AC1E:  MOVLB  6
0AC20:  MOVF   xE4,W
0AC22:  SUBLW  08
0AC24:  BNZ   AC6A
....................             {strcpy(Menus.Letra,"Ganancia    "); 
0AC26:  MOVLW  07
0AC28:  MOVWF  FEA
0AC2A:  MOVLW  09
0AC2C:  MOVWF  FE9
0AC2E:  MOVFF  FF2,72D
0AC32:  BCF    FF2.7
0AC34:  MOVLW  00
0AC36:  MOVLB  0
0AC38:  CALL   1346
0AC3C:  TBLRD*-
0AC3E:  TBLRD*+
0AC40:  MOVF   FF5,W
0AC42:  MOVWF  FEE
0AC44:  IORLW  00
0AC46:  BNZ   AC3E
0AC48:  MOVLB  7
0AC4A:  BTFSC  x2D.7
0AC4C:  BSF    FF2.7
....................             displayMenu(Menus.Letra,0,9,1,1);} 
0AC4E:  MOVLW  07
0AC50:  MOVWF  x2E
0AC52:  MOVLW  09
0AC54:  MOVWF  x2D
0AC56:  CLRF   x2F
0AC58:  MOVWF  x30
0AC5A:  MOVLW  01
0AC5C:  MOVWF  x31
0AC5E:  MOVWF  x32
0AC60:  MOVLB  0
0AC62:  CALL   225C
....................          else 
0AC66:  BRA    ACAA
0AC68:  MOVLB  6
....................             {strcpy(Menus.Letra,"Ganancia    "); 
0AC6A:  MOVLW  07
0AC6C:  MOVWF  FEA
0AC6E:  MOVLW  09
0AC70:  MOVWF  FE9
0AC72:  MOVFF  FF2,72D
0AC76:  BCF    FF2.7
0AC78:  MOVLW  00
0AC7A:  MOVLB  0
0AC7C:  CALL   1346
0AC80:  TBLRD*-
0AC82:  TBLRD*+
0AC84:  MOVF   FF5,W
0AC86:  MOVWF  FEE
0AC88:  IORLW  00
0AC8A:  BNZ   AC82
0AC8C:  MOVLB  7
0AC8E:  BTFSC  x2D.7
0AC90:  BSF    FF2.7
....................             displayMenu(Menus.Letra,0,9,0,1);}   
0AC92:  MOVLW  07
0AC94:  MOVWF  x2E
0AC96:  MOVLW  09
0AC98:  MOVWF  x2D
0AC9A:  CLRF   x2F
0AC9C:  MOVWF  x30
0AC9E:  CLRF   x31
0ACA0:  MOVLW  01
0ACA2:  MOVWF  x32
0ACA4:  MOVLB  0
0ACA6:  CALL   225C
....................              
....................          if(Opcion==9)    
0ACAA:  MOVLB  6
0ACAC:  MOVF   xE4,W
0ACAE:  SUBLW  09
0ACB0:  BNZ   ACF8
....................             {strcpy(Menus.Letra,"R51         "); 
0ACB2:  MOVLW  07
0ACB4:  MOVWF  FEA
0ACB6:  MOVLW  09
0ACB8:  MOVWF  FE9
0ACBA:  MOVFF  FF2,72D
0ACBE:  BCF    FF2.7
0ACC0:  MOVLW  00
0ACC2:  MOVLB  0
0ACC4:  CALL   1372
0ACC8:  TBLRD*-
0ACCA:  TBLRD*+
0ACCC:  MOVF   FF5,W
0ACCE:  MOVWF  FEE
0ACD0:  IORLW  00
0ACD2:  BNZ   ACCA
0ACD4:  MOVLB  7
0ACD6:  BTFSC  x2D.7
0ACD8:  BSF    FF2.7
....................             displayMenu(Menus.Letra,0,18,1,1);} 
0ACDA:  MOVLW  07
0ACDC:  MOVWF  x2E
0ACDE:  MOVLW  09
0ACE0:  MOVWF  x2D
0ACE2:  CLRF   x2F
0ACE4:  MOVLW  12
0ACE6:  MOVWF  x30
0ACE8:  MOVLW  01
0ACEA:  MOVWF  x31
0ACEC:  MOVWF  x32
0ACEE:  MOVLB  0
0ACF0:  CALL   225C
....................          else 
0ACF4:  BRA    AD3A
0ACF6:  MOVLB  6
....................             {strcpy(Menus.Letra,"R51         "); 
0ACF8:  MOVLW  07
0ACFA:  MOVWF  FEA
0ACFC:  MOVLW  09
0ACFE:  MOVWF  FE9
0AD00:  MOVFF  FF2,72D
0AD04:  BCF    FF2.7
0AD06:  MOVLW  00
0AD08:  MOVLB  0
0AD0A:  CALL   1372
0AD0E:  TBLRD*-
0AD10:  TBLRD*+
0AD12:  MOVF   FF5,W
0AD14:  MOVWF  FEE
0AD16:  IORLW  00
0AD18:  BNZ   AD10
0AD1A:  MOVLB  7
0AD1C:  BTFSC  x2D.7
0AD1E:  BSF    FF2.7
....................             displayMenu(Menus.Letra,0,18,0,1);}      
0AD20:  MOVLW  07
0AD22:  MOVWF  x2E
0AD24:  MOVLW  09
0AD26:  MOVWF  x2D
0AD28:  CLRF   x2F
0AD2A:  MOVLW  12
0AD2C:  MOVWF  x30
0AD2E:  CLRF   x31
0AD30:  MOVLW  01
0AD32:  MOVWF  x32
0AD34:  MOVLB  0
0AD36:  CALL   225C
....................           
....................          if(Opcion==10)    
0AD3A:  MOVLB  6
0AD3C:  MOVF   xE4,W
0AD3E:  SUBLW  0A
0AD40:  BNZ   AD88
....................             {strcpy(Menus.Letra,"RPT100 B     "); 
0AD42:  MOVLW  07
0AD44:  MOVWF  FEA
0AD46:  MOVLW  09
0AD48:  MOVWF  FE9
0AD4A:  MOVFF  FF2,72D
0AD4E:  BCF    FF2.7
0AD50:  MOVLW  00
0AD52:  MOVLB  0
0AD54:  CALL   139E
0AD58:  TBLRD*-
0AD5A:  TBLRD*+
0AD5C:  MOVF   FF5,W
0AD5E:  MOVWF  FEE
0AD60:  IORLW  00
0AD62:  BNZ   AD5A
0AD64:  MOVLB  7
0AD66:  BTFSC  x2D.7
0AD68:  BSF    FF2.7
....................             displayMenu(Menus.Letra,0,27,1,1);} 
0AD6A:  MOVLW  07
0AD6C:  MOVWF  x2E
0AD6E:  MOVLW  09
0AD70:  MOVWF  x2D
0AD72:  CLRF   x2F
0AD74:  MOVLW  1B
0AD76:  MOVWF  x30
0AD78:  MOVLW  01
0AD7A:  MOVWF  x31
0AD7C:  MOVWF  x32
0AD7E:  MOVLB  0
0AD80:  CALL   225C
....................          else 
0AD84:  BRA    ADCA
0AD86:  MOVLB  6
....................             {strcpy(Menus.Letra,"RPT100 B     "); 
0AD88:  MOVLW  07
0AD8A:  MOVWF  FEA
0AD8C:  MOVLW  09
0AD8E:  MOVWF  FE9
0AD90:  MOVFF  FF2,72D
0AD94:  BCF    FF2.7
0AD96:  MOVLW  00
0AD98:  MOVLB  0
0AD9A:  CALL   139E
0AD9E:  TBLRD*-
0ADA0:  TBLRD*+
0ADA2:  MOVF   FF5,W
0ADA4:  MOVWF  FEE
0ADA6:  IORLW  00
0ADA8:  BNZ   ADA0
0ADAA:  MOVLB  7
0ADAC:  BTFSC  x2D.7
0ADAE:  BSF    FF2.7
....................             displayMenu(Menus.Letra,0,27,0,1);}      
0ADB0:  MOVLW  07
0ADB2:  MOVWF  x2E
0ADB4:  MOVLW  09
0ADB6:  MOVWF  x2D
0ADB8:  CLRF   x2F
0ADBA:  MOVLW  1B
0ADBC:  MOVWF  x30
0ADBE:  CLRF   x31
0ADC0:  MOVLW  01
0ADC2:  MOVWF  x32
0ADC4:  MOVLB  0
0ADC6:  CALL   225C
....................           
....................          if(Opcion==11)    
0ADCA:  MOVLB  6
0ADCC:  MOVF   xE4,W
0ADCE:  SUBLW  0B
0ADD0:  BNZ   AE18
....................             {strcpy(Menus.Letra,"T. Trampa    "); 
0ADD2:  MOVLW  07
0ADD4:  MOVWF  FEA
0ADD6:  MOVLW  09
0ADD8:  MOVWF  FE9
0ADDA:  MOVFF  FF2,72D
0ADDE:  BCF    FF2.7
0ADE0:  MOVLW  00
0ADE2:  MOVLB  0
0ADE4:  CALL   13CA
0ADE8:  TBLRD*-
0ADEA:  TBLRD*+
0ADEC:  MOVF   FF5,W
0ADEE:  MOVWF  FEE
0ADF0:  IORLW  00
0ADF2:  BNZ   ADEA
0ADF4:  MOVLB  7
0ADF6:  BTFSC  x2D.7
0ADF8:  BSF    FF2.7
....................             displayMenu(Menus.Letra,0,36,1,1);} 
0ADFA:  MOVLW  07
0ADFC:  MOVWF  x2E
0ADFE:  MOVLW  09
0AE00:  MOVWF  x2D
0AE02:  CLRF   x2F
0AE04:  MOVLW  24
0AE06:  MOVWF  x30
0AE08:  MOVLW  01
0AE0A:  MOVWF  x31
0AE0C:  MOVWF  x32
0AE0E:  MOVLB  0
0AE10:  CALL   225C
....................          else 
0AE14:  BRA    AE5A
0AE16:  MOVLB  6
....................             {strcpy(Menus.Letra,"T. Trampa    "); 
0AE18:  MOVLW  07
0AE1A:  MOVWF  FEA
0AE1C:  MOVLW  09
0AE1E:  MOVWF  FE9
0AE20:  MOVFF  FF2,72D
0AE24:  BCF    FF2.7
0AE26:  MOVLW  00
0AE28:  MOVLB  0
0AE2A:  CALL   13CA
0AE2E:  TBLRD*-
0AE30:  TBLRD*+
0AE32:  MOVF   FF5,W
0AE34:  MOVWF  FEE
0AE36:  IORLW  00
0AE38:  BNZ   AE30
0AE3A:  MOVLB  7
0AE3C:  BTFSC  x2D.7
0AE3E:  BSF    FF2.7
....................             displayMenu(Menus.Letra,0,36,0,1);}  
0AE40:  MOVLW  07
0AE42:  MOVWF  x2E
0AE44:  MOVLW  09
0AE46:  MOVWF  x2D
0AE48:  CLRF   x2F
0AE4A:  MOVLW  24
0AE4C:  MOVWF  x30
0AE4E:  CLRF   x31
0AE50:  MOVLW  01
0AE52:  MOVWF  x32
0AE54:  MOVLB  0
0AE56:  CALL   225C
....................              
....................             strcpy(Menus.Letra,"            "); 
0AE5A:  MOVLW  07
0AE5C:  MOVWF  FEA
0AE5E:  MOVLW  09
0AE60:  MOVWF  FE9
0AE62:  MOVFF  FF2,72D
0AE66:  BCF    FF2.7
0AE68:  MOVLW  00
0AE6A:  CALL   13F6
0AE6E:  TBLRD*-
0AE70:  TBLRD*+
0AE72:  MOVF   FF5,W
0AE74:  MOVWF  FEE
0AE76:  IORLW  00
0AE78:  BNZ   AE70
0AE7A:  MOVLB  7
0AE7C:  BTFSC  x2D.7
0AE7E:  BSF    FF2.7
....................             displayMenu(Menus.Letra,0,45,0,1); 
0AE80:  MOVLW  07
0AE82:  MOVWF  x2E
0AE84:  MOVLW  09
0AE86:  MOVWF  x2D
0AE88:  CLRF   x2F
0AE8A:  MOVLW  2D
0AE8C:  MOVWF  x30
0AE8E:  CLRF   x31
0AE90:  MOVLW  01
0AE92:  MOVWF  x32
0AE94:  MOVLB  0
0AE96:  CALL   225C
....................       }    
....................        
....................          if(UP)//Si oprime hacia arriba 
0AE9A:  BSF    F92.4
0AE9C:  BTFSC  F80.4
0AE9E:  BRA    AECA
....................          { 
....................             delay_ms(10); 
0AEA0:  MOVLW  0A
0AEA2:  MOVLB  7
0AEA4:  MOVWF  x33
0AEA6:  MOVLB  0
0AEA8:  CALL   174A
....................             if(Flanco == 0) 
0AEAC:  MOVLB  4
0AEAE:  BTFSC  x5F.7
0AEB0:  BRA    AEC8
....................                {Flanco = 1;delay_ms(30);Opcion--;visual=1; 
0AEB2:  BSF    x5F.7
0AEB4:  MOVLW  1E
0AEB6:  MOVLB  7
0AEB8:  MOVWF  x33
0AEBA:  MOVLB  0
0AEBC:  CALL   174A
0AEC0:  MOVLB  6
0AEC2:  DECF   xE4,F
0AEC4:  BSF    xDA.2
0AEC6:  MOVLB  4
....................                } 
....................          } 
....................             else 
0AEC8:  BRA    AECE
....................                {Flanco = 0;} 
0AECA:  MOVLB  4
0AECC:  BCF    x5F.7
....................                    
....................          if(DOWN)//Si oprime hacia abajo 
0AECE:  BSF    F92.5
0AED0:  BTFSC  F80.5
0AED2:  BRA    AEFC
....................          { 
....................             delay_ms(10); 
0AED4:  MOVLW  0A
0AED6:  MOVLB  7
0AED8:  MOVWF  x33
0AEDA:  MOVLB  0
0AEDC:  CALL   174A
....................             if(Flanco2 == 0) 
0AEE0:  MOVLB  6
0AEE2:  BTFSC  xDA.1
0AEE4:  BRA    AEFA
....................                {Flanco2 = 1;delay_ms(30);Opcion++;visual=1; 
0AEE6:  BSF    xDA.1
0AEE8:  MOVLW  1E
0AEEA:  MOVLB  7
0AEEC:  MOVWF  x33
0AEEE:  MOVLB  0
0AEF0:  CALL   174A
0AEF4:  MOVLB  6
0AEF6:  INCF   xE4,F
0AEF8:  BSF    xDA.2
....................                }      
....................          } 
....................             else 
0AEFA:  BRA    AF00
....................                {Flanco2 = 0;}   
0AEFC:  MOVLB  6
0AEFE:  BCF    xDA.1
....................                 
....................          if(RIGHT)//Si oprime SET 
0AF00:  BSF    F96.0
0AF02:  BTFSC  F84.0
0AF04:  BRA    AF42
....................          {   
....................             delay_ms(10); 
0AF06:  MOVLW  0A
0AF08:  MOVLB  7
0AF0A:  MOVWF  x33
0AF0C:  MOVLB  0
0AF0E:  CALL   174A
....................             if(Flanco1 == 0) 
0AF12:  MOVLB  6
0AF14:  BTFSC  xDA.0
0AF16:  BRA    AF40
....................                {Flanco1 = 1;delay_ms(30);Menu=Opcion+100;Opcion=1;glcd_fillscreen(OFF);visual=1; 
0AF18:  BSF    xDA.0
0AF1A:  MOVLW  1E
0AF1C:  MOVLB  7
0AF1E:  MOVWF  x33
0AF20:  MOVLB  0
0AF22:  CALL   174A
0AF26:  MOVLW  64
0AF28:  MOVLB  6
0AF2A:  ADDWF  xE4,W
0AF2C:  MOVWF  xDE
0AF2E:  MOVLW  01
0AF30:  MOVWF  xE4
0AF32:  MOVLB  7
0AF34:  CLRF   x2E
0AF36:  MOVLB  0
0AF38:  CALL   1C2E
0AF3C:  MOVLB  6
0AF3E:  BSF    xDA.2
....................                } 
....................          } 
....................             else 
0AF40:  BRA    AF44
....................                {Flanco1 = 0;}  
0AF42:  BCF    xDA.0
....................                 
....................          if(LEFT)//Si oprime boton de Toma. 
0AF44:  BSF    F96.1
0AF46:  BTFSC  F84.1
0AF48:  BRA    AF70
....................          { 
....................             delay_ms(10); 
0AF4A:  MOVLW  0A
0AF4C:  MOVLB  7
0AF4E:  MOVWF  x33
0AF50:  MOVLB  0
0AF52:  CALL   174A
....................             delay_ms(700);reset_cpu();          
0AF56:  MOVLW  04
0AF58:  MOVLB  7
0AF5A:  MOVWF  x2D
0AF5C:  MOVLW  AF
0AF5E:  MOVWF  x33
0AF60:  MOVLB  0
0AF62:  CALL   174A
0AF66:  MOVLB  7
0AF68:  DECFSZ x2D,F
0AF6A:  BRA    AF5C
0AF6C:  RESET
0AF6E:  MOVLB  6
....................          }       
....................          
....................     } 
.................... //_--------------------------------------------------------------------------------------------------------------------------------------------------------        
....................  
.................... //_--------------------------------------------------------------------------------------------------------------------------------------------------------       
....................       if(Menu==101){ // Menu de Ajuste de Ganancia 
0AF70:  MOVF   xDE,W
0AF72:  SUBLW  65
0AF74:  BTFSS  FD8.2
0AF76:  BRA    B1FE
....................        
....................       if(Ganancia>40) 
0AF78:  MOVLB  7
0AF7A:  CLRF   x34
0AF7C:  CLRF   x33
0AF7E:  MOVLW  20
0AF80:  MOVWF  x32
0AF82:  MOVLW  84
0AF84:  MOVWF  x31
0AF86:  MOVFF  6A7,738
0AF8A:  MOVFF  6A6,737
0AF8E:  MOVFF  6A5,736
0AF92:  MOVFF  6A4,735
0AF96:  MOVLB  0
0AF98:  CALL   1B7E
0AF9C:  BNC   AFAA
....................       { 
....................          Ganancia=2; 
0AF9E:  MOVLB  6
0AFA0:  CLRF   xA7
0AFA2:  CLRF   xA6
0AFA4:  CLRF   xA5
0AFA6:  MOVLW  80
0AFA8:  MOVWF  xA4
....................       } 
....................        
....................       if(visual==1) 
0AFAA:  MOVLB  6
0AFAC:  BTFSS  xDA.2
0AFAE:  BRA    B036
....................       { 
....................          glcd_fillScreen(OFF); 
0AFB0:  MOVLB  7
0AFB2:  CLRF   x2E
0AFB4:  MOVLB  0
0AFB6:  CALL   1C2E
....................          strcpy(Menus.Letra,"P"); 
0AFBA:  MOVLW  07
0AFBC:  MOVWF  FEA
0AFBE:  MOVLW  09
0AFC0:  MOVWF  FE9
0AFC2:  MOVFF  FF2,72D
0AFC6:  BCF    FF2.7
0AFC8:  MOVLW  00
0AFCA:  CALL   1422
0AFCE:  TBLRD*-
0AFD0:  TBLRD*+
0AFD2:  MOVF   FF5,W
0AFD4:  MOVWF  FEE
0AFD6:  IORLW  00
0AFD8:  BNZ   AFD0
0AFDA:  MOVLB  7
0AFDC:  BTFSC  x2D.7
0AFDE:  BSF    FF2.7
....................          displayMenu(Menus.Letra,0,0,1,2); 
0AFE0:  MOVLW  07
0AFE2:  MOVWF  x2E
0AFE4:  MOVLW  09
0AFE6:  MOVWF  x2D
0AFE8:  CLRF   x2F
0AFEA:  CLRF   x30
0AFEC:  MOVLW  01
0AFEE:  MOVWF  x31
0AFF0:  MOVLW  02
0AFF2:  MOVWF  x32
0AFF4:  MOVLB  0
0AFF6:  CALL   225C
....................           
....................          displayTemperatura(Ganancia,30,30,0,3); 
0AFFA:  MOVFF  6A7,730
0AFFE:  MOVFF  6A6,72F
0B002:  MOVFF  6A5,72E
0B006:  MOVFF  6A4,72D
0B00A:  CALL   2A58
0B00E:  MOVFF  02,72E
0B012:  MOVFF  01,72D
0B016:  MOVFF  02,730
0B01A:  MOVFF  01,72F
0B01E:  MOVLW  1E
0B020:  MOVLB  7
0B022:  MOVWF  x31
0B024:  MOVWF  x32
0B026:  CLRF   x33
0B028:  MOVLW  03
0B02A:  MOVWF  x34
0B02C:  MOVLB  0
0B02E:  CALL   498A
....................           
....................          visual=0; 
0B032:  MOVLB  6
0B034:  BCF    xDA.2
....................       } 
....................        
....................          if(UP)//Si oprime hacia arriba 
0B036:  BSF    F92.4
0B038:  BTFSC  F80.4
0B03A:  BRA    B0D4
....................          {   
....................             delay_ms(10); 
0B03C:  MOVLW  0A
0B03E:  MOVLB  7
0B040:  MOVWF  x33
0B042:  MOVLB  0
0B044:  CALL   174A
....................             if(Ganancia>40) 
0B048:  MOVLB  7
0B04A:  CLRF   x34
0B04C:  CLRF   x33
0B04E:  MOVLW  20
0B050:  MOVWF  x32
0B052:  MOVLW  84
0B054:  MOVWF  x31
0B056:  MOVFF  6A7,738
0B05A:  MOVFF  6A6,737
0B05E:  MOVFF  6A5,736
0B062:  MOVFF  6A4,735
0B066:  MOVLB  0
0B068:  CALL   1B7E
0B06C:  BNC   B090
....................             { 
....................                Ganancia=40;delay_ms(100);visual=1; 
0B06E:  MOVLB  6
0B070:  CLRF   xA7
0B072:  CLRF   xA6
0B074:  MOVLW  20
0B076:  MOVWF  xA5
0B078:  MOVLW  84
0B07A:  MOVWF  xA4
0B07C:  MOVLW  64
0B07E:  MOVLB  7
0B080:  MOVWF  x33
0B082:  MOVLB  0
0B084:  CALL   174A
0B088:  MOVLB  6
0B08A:  BSF    xDA.2
....................             } 
....................             else 
0B08C:  BRA    B0D4
0B08E:  MOVLB  0
....................             { 
....................                delay_ms(30);Ganancia+=1.0;visual=1; 
0B090:  MOVLW  1E
0B092:  MOVLB  7
0B094:  MOVWF  x33
0B096:  MOVLB  0
0B098:  CALL   174A
0B09C:  BCF    FD8.1
0B09E:  MOVFF  6A7,735
0B0A2:  MOVFF  6A6,734
0B0A6:  MOVFF  6A5,733
0B0AA:  MOVFF  6A4,732
0B0AE:  MOVLB  7
0B0B0:  CLRF   x39
0B0B2:  CLRF   x38
0B0B4:  CLRF   x37
0B0B6:  MOVLW  7F
0B0B8:  MOVWF  x36
0B0BA:  MOVLB  0
0B0BC:  CALL   1906
0B0C0:  MOVFF  03,6A7
0B0C4:  MOVFF  02,6A6
0B0C8:  MOVFF  01,6A5
0B0CC:  MOVFF  00,6A4
0B0D0:  MOVLB  6
0B0D2:  BSF    xDA.2
....................             } 
....................          } 
....................                 
....................          if(DOWN)//Si oprime hacia abajo 
0B0D4:  BSF    F92.5
0B0D6:  BTFSC  F80.5
0B0D8:  BRA    B14E
....................          {   
....................             delay_ms(10); 
0B0DA:  MOVLW  0A
0B0DC:  MOVLB  7
0B0DE:  MOVWF  x33
0B0E0:  MOVLB  0
0B0E2:  CALL   174A
....................             if(Ganancia>1) 
0B0E6:  MOVLB  7
0B0E8:  CLRF   x34
0B0EA:  CLRF   x33
0B0EC:  CLRF   x32
0B0EE:  MOVLW  7F
0B0F0:  MOVWF  x31
0B0F2:  MOVFF  6A7,738
0B0F6:  MOVFF  6A6,737
0B0FA:  MOVFF  6A5,736
0B0FE:  MOVFF  6A4,735
0B102:  MOVLB  0
0B104:  CALL   1B7E
0B108:  BNC   B150
....................             { 
....................                delay_ms(30);Ganancia-=1.0;visual=1;      
0B10A:  MOVLW  1E
0B10C:  MOVLB  7
0B10E:  MOVWF  x33
0B110:  MOVLB  0
0B112:  CALL   174A
0B116:  BSF    FD8.1
0B118:  MOVFF  6A7,735
0B11C:  MOVFF  6A6,734
0B120:  MOVFF  6A5,733
0B124:  MOVFF  6A4,732
0B128:  MOVLB  7
0B12A:  CLRF   x39
0B12C:  CLRF   x38
0B12E:  CLRF   x37
0B130:  MOVLW  7F
0B132:  MOVWF  x36
0B134:  MOVLB  0
0B136:  CALL   1906
0B13A:  MOVFF  03,6A7
0B13E:  MOVFF  02,6A6
0B142:  MOVFF  01,6A5
0B146:  MOVFF  00,6A4
0B14A:  MOVLB  6
0B14C:  BSF    xDA.2
0B14E:  MOVLB  0
....................             } 
....................          } 
....................                 
....................          if(RIGHT)//Si oprime SET 
0B150:  BSF    F96.0
0B152:  BTFSC  F84.0
0B154:  BRA    B174
....................          {   
....................             delay_ms(10); 
0B156:  MOVLW  0A
0B158:  MOVLB  7
0B15A:  MOVWF  x33
0B15C:  MOVLB  0
0B15E:  CALL   174A
....................             delay_ms(30);visual=1; 
0B162:  MOVLW  1E
0B164:  MOVLB  7
0B166:  MOVWF  x33
0B168:  MOVLB  0
0B16A:  CALL   174A
0B16E:  MOVLB  6
0B170:  BSF    xDA.2
0B172:  MOVLB  0
....................          }  
....................                    
....................          if(LEFT)//Si oprime boton de Toma. 
0B174:  BSF    F96.1
0B176:  BTFSC  F84.1
0B178:  BRA    B1FC
....................          { 
....................             delay_ms(10); 
0B17A:  MOVLW  0A
0B17C:  MOVLB  7
0B17E:  MOVWF  x33
0B180:  MOVLB  0
0B182:  CALL   174A
....................             delay_ms(700);Menu=100;glcd_fillscreen(OFF);Opcion=1;visual=1; 
0B186:  MOVLW  04
0B188:  MOVLB  7
0B18A:  MOVWF  x2D
0B18C:  MOVLW  AF
0B18E:  MOVWF  x33
0B190:  MOVLB  0
0B192:  CALL   174A
0B196:  MOVLB  7
0B198:  DECFSZ x2D,F
0B19A:  BRA    B18C
0B19C:  MOVLW  64
0B19E:  MOVLB  6
0B1A0:  MOVWF  xDE
0B1A2:  MOVLB  7
0B1A4:  CLRF   x2E
0B1A6:  MOVLB  0
0B1A8:  CALL   1C2E
0B1AC:  MOVLW  01
0B1AE:  MOVLB  6
0B1B0:  MOVWF  xE4
0B1B2:  BSF    xDA.2
....................             write_eeprom(20,(int8)Ganancia); 
0B1B4:  MOVFF  6A7,730
0B1B8:  MOVFF  6A6,72F
0B1BC:  MOVFF  6A5,72E
0B1C0:  MOVFF  6A4,72D
0B1C4:  MOVLB  0
0B1C6:  CALL   2A58
0B1CA:  MOVFF  01,72D
0B1CE:  CLRF   FAA
0B1D0:  MOVLW  14
0B1D2:  MOVWF  FA9
0B1D4:  MOVFF  72D,FA8
0B1D8:  BCF    FA6.6
0B1DA:  BCF    FA6.7
0B1DC:  BSF    FA6.2
0B1DE:  MOVF   FF2,W
0B1E0:  MOVWF  00
0B1E2:  BCF    FF2.7
0B1E4:  MOVLB  F
0B1E6:  MOVLW  55
0B1E8:  MOVWF  FA7
0B1EA:  MOVLW  AA
0B1EC:  MOVWF  FA7
0B1EE:  BSF    FA6.1
0B1F0:  BTFSC  FA6.1
0B1F2:  BRA    B1F0
0B1F4:  BCF    FA6.2
0B1F6:  MOVF   00,W
0B1F8:  IORWF  FF2,F
0B1FA:  MOVLB  0
0B1FC:  MOVLB  6
....................          } 
....................      } 
.................... //_-------------------------------------------------------------------------------------------------------------------------------------------------------- 
....................  
.................... //_--------------------------------------------------------------------------------------------------------------------------------------------------------       
....................       if(Menu==102){ // Menu de Ajuste de Integral 
0B1FE:  MOVF   xDE,W
0B200:  SUBLW  66
0B202:  BTFSS  FD8.2
0B204:  BRA    B40A
....................        
....................       if(Integral>40) 
0B206:  MOVF   xD4,W
0B208:  SUBLW  28
0B20A:  BC    B210
....................       { 
....................          Integral=1; 
0B20C:  MOVLW  01
0B20E:  MOVWF  xD4
....................       } 
....................        
....................       if(visual==1) 
0B210:  BTFSS  xDA.2
0B212:  BRA    B27C
....................       { 
....................          glcd_fillScreen(OFF); 
0B214:  MOVLB  7
0B216:  CLRF   x2E
0B218:  MOVLB  0
0B21A:  CALL   1C2E
....................          strcpy(Menus.Letra,"I"); 
0B21E:  MOVLW  07
0B220:  MOVWF  FEA
0B222:  MOVLW  09
0B224:  MOVWF  FE9
0B226:  MOVFF  FF2,72D
0B22A:  BCF    FF2.7
0B22C:  MOVLW  00
0B22E:  CALL   1442
0B232:  TBLRD*-
0B234:  TBLRD*+
0B236:  MOVF   FF5,W
0B238:  MOVWF  FEE
0B23A:  IORLW  00
0B23C:  BNZ   B234
0B23E:  MOVLB  7
0B240:  BTFSC  x2D.7
0B242:  BSF    FF2.7
....................          displayMenu(Menus.Letra,0,0,1,2); 
0B244:  MOVLW  07
0B246:  MOVWF  x2E
0B248:  MOVLW  09
0B24A:  MOVWF  x2D
0B24C:  CLRF   x2F
0B24E:  CLRF   x30
0B250:  MOVLW  01
0B252:  MOVWF  x31
0B254:  MOVLW  02
0B256:  MOVWF  x32
0B258:  MOVLB  0
0B25A:  CALL   225C
....................           
....................          displayTemperatura(Integral,30,30,0,3); 
0B25E:  MOVLB  7
0B260:  CLRF   x30
0B262:  MOVFF  6D4,72F
0B266:  MOVLW  1E
0B268:  MOVWF  x31
0B26A:  MOVWF  x32
0B26C:  CLRF   x33
0B26E:  MOVLW  03
0B270:  MOVWF  x34
0B272:  MOVLB  0
0B274:  CALL   498A
....................           
....................          visual=0; 
0B278:  MOVLB  6
0B27A:  BCF    xDA.2
....................       } 
....................        
....................          if(UP)//Si oprime hacia arriba 
0B27C:  BSF    F92.4
0B27E:  BTFSC  F80.4
0B280:  BRA    B306
....................          {   
....................             delay_ms(10); 
0B282:  MOVLW  0A
0B284:  MOVLB  7
0B286:  MOVWF  x33
0B288:  MOVLB  0
0B28A:  CALL   174A
....................             if(Integral>40) 
0B28E:  MOVLB  6
0B290:  MOVF   xD4,W
0B292:  SUBLW  28
0B294:  BC    B2AC
....................             { 
....................                Integral=40;delay_ms(100);visual=1; 
0B296:  MOVLW  28
0B298:  MOVWF  xD4
0B29A:  MOVLW  64
0B29C:  MOVLB  7
0B29E:  MOVWF  x33
0B2A0:  MOVLB  0
0B2A2:  CALL   174A
0B2A6:  MOVLB  6
0B2A8:  BSF    xDA.2
....................             } 
....................             else 
0B2AA:  BRA    B306
....................             { 
....................                delay_ms(30);Integral+=1.0;visual=1; 
0B2AC:  MOVLW  1E
0B2AE:  MOVLB  7
0B2B0:  MOVWF  x33
0B2B2:  MOVLB  0
0B2B4:  CALL   174A
0B2B8:  MOVLB  7
0B2BA:  CLRF   x34
0B2BC:  MOVFF  6D4,733
0B2C0:  MOVLB  0
0B2C2:  CALL   1772
0B2C6:  BCF    FD8.1
0B2C8:  MOVFF  03,735
0B2CC:  MOVFF  02,734
0B2D0:  MOVFF  01,733
0B2D4:  MOVFF  00,732
0B2D8:  MOVLB  7
0B2DA:  CLRF   x39
0B2DC:  CLRF   x38
0B2DE:  CLRF   x37
0B2E0:  MOVLW  7F
0B2E2:  MOVWF  x36
0B2E4:  MOVLB  0
0B2E6:  CALL   1906
0B2EA:  MOVFF  03,730
0B2EE:  MOVFF  02,72F
0B2F2:  MOVFF  01,72E
0B2F6:  MOVFF  00,72D
0B2FA:  CALL   2A58
0B2FE:  MOVFF  01,6D4
0B302:  MOVLB  6
0B304:  BSF    xDA.2
....................             } 
....................          } 
....................                 
....................          if(DOWN)//Si oprime hacia abajo 
0B306:  BSF    F92.5
0B308:  BTFSC  F80.5
0B30A:  BRA    B37A
....................          {   
....................             delay_ms(10); 
0B30C:  MOVLW  0A
0B30E:  MOVLB  7
0B310:  MOVWF  x33
0B312:  MOVLB  0
0B314:  CALL   174A
....................             if(Integral>1) 
0B318:  MOVLB  6
0B31A:  MOVF   xD4,W
0B31C:  SUBLW  01
0B31E:  BC    B37A
....................             { 
....................                delay_ms(30);Integral-=1.0;visual=1;      
0B320:  MOVLW  1E
0B322:  MOVLB  7
0B324:  MOVWF  x33
0B326:  MOVLB  0
0B328:  CALL   174A
0B32C:  MOVLB  7
0B32E:  CLRF   x34
0B330:  MOVFF  6D4,733
0B334:  MOVLB  0
0B336:  CALL   1772
0B33A:  BSF    FD8.1
0B33C:  MOVFF  03,735
0B340:  MOVFF  02,734
0B344:  MOVFF  01,733
0B348:  MOVFF  00,732
0B34C:  MOVLB  7
0B34E:  CLRF   x39
0B350:  CLRF   x38
0B352:  CLRF   x37
0B354:  MOVLW  7F
0B356:  MOVWF  x36
0B358:  MOVLB  0
0B35A:  CALL   1906
0B35E:  MOVFF  03,730
0B362:  MOVFF  02,72F
0B366:  MOVFF  01,72E
0B36A:  MOVFF  00,72D
0B36E:  CALL   2A58
0B372:  MOVFF  01,6D4
0B376:  MOVLB  6
0B378:  BSF    xDA.2
....................             } 
....................          } 
....................                 
....................          if(RIGHT)//Si oprime SET 
0B37A:  BSF    F96.0
0B37C:  BTFSC  F84.0
0B37E:  BRA    B39C
....................          {   
....................             delay_ms(10); 
0B380:  MOVLW  0A
0B382:  MOVLB  7
0B384:  MOVWF  x33
0B386:  MOVLB  0
0B388:  CALL   174A
....................             delay_ms(30);visual=1; 
0B38C:  MOVLW  1E
0B38E:  MOVLB  7
0B390:  MOVWF  x33
0B392:  MOVLB  0
0B394:  CALL   174A
0B398:  MOVLB  6
0B39A:  BSF    xDA.2
....................          }  
....................                    
....................          if(LEFT)//Si oprime boton de Toma. 
0B39C:  BSF    F96.1
0B39E:  BTFSC  F84.1
0B3A0:  BRA    B40A
....................          { 
....................             delay_ms(10); 
0B3A2:  MOVLW  0A
0B3A4:  MOVLB  7
0B3A6:  MOVWF  x33
0B3A8:  MOVLB  0
0B3AA:  CALL   174A
....................             delay_ms(700);Menu=100;glcd_fillscreen(OFF);Opcion=1;visual=1; 
0B3AE:  MOVLW  04
0B3B0:  MOVLB  7
0B3B2:  MOVWF  x2D
0B3B4:  MOVLW  AF
0B3B6:  MOVWF  x33
0B3B8:  MOVLB  0
0B3BA:  CALL   174A
0B3BE:  MOVLB  7
0B3C0:  DECFSZ x2D,F
0B3C2:  BRA    B3B4
0B3C4:  MOVLW  64
0B3C6:  MOVLB  6
0B3C8:  MOVWF  xDE
0B3CA:  MOVLB  7
0B3CC:  CLRF   x2E
0B3CE:  MOVLB  0
0B3D0:  CALL   1C2E
0B3D4:  MOVLW  01
0B3D6:  MOVLB  6
0B3D8:  MOVWF  xE4
0B3DA:  BSF    xDA.2
....................             write_eeprom(26,(int8)Integral); 
0B3DC:  CLRF   FAA
0B3DE:  MOVLW  1A
0B3E0:  MOVWF  FA9
0B3E2:  MOVFF  6D4,FA8
0B3E6:  BCF    FA6.6
0B3E8:  BCF    FA6.7
0B3EA:  BSF    FA6.2
0B3EC:  MOVF   FF2,W
0B3EE:  MOVWF  00
0B3F0:  BCF    FF2.7
0B3F2:  MOVLB  F
0B3F4:  MOVLW  55
0B3F6:  MOVWF  FA7
0B3F8:  MOVLW  AA
0B3FA:  MOVWF  FA7
0B3FC:  BSF    FA6.1
0B3FE:  BTFSC  FA6.1
0B400:  BRA    B3FE
0B402:  BCF    FA6.2
0B404:  MOVF   00,W
0B406:  IORWF  FF2,F
0B408:  MOVLB  6
....................          } 
....................      } 
.................... //_-------------------------------------------------------------------------------------------------------------------------------------------------------- 
....................  
.................... //_--------------------------------------------------------------------------------------------------------------------------------------------------------       
....................       if(Menu==103){ // Menu de Ajuste de Derivativo 
0B40A:  MOVF   xDE,W
0B40C:  SUBLW  67
0B40E:  BTFSS  FD8.2
0B410:  BRA    B616
....................        
....................       if(Derivativo>200) 
0B412:  MOVF   xD5,W
0B414:  SUBLW  C8
0B416:  BC    B41C
....................       { 
....................          Derivativo=2; 
0B418:  MOVLW  02
0B41A:  MOVWF  xD5
....................       } 
....................        
....................       if(visual==1) 
0B41C:  BTFSS  xDA.2
0B41E:  BRA    B488
....................       { 
....................          glcd_fillScreen(OFF); 
0B420:  MOVLB  7
0B422:  CLRF   x2E
0B424:  MOVLB  0
0B426:  CALL   1C2E
....................          strcpy(Menus.Letra,"D"); 
0B42A:  MOVLW  07
0B42C:  MOVWF  FEA
0B42E:  MOVLW  09
0B430:  MOVWF  FE9
0B432:  MOVFF  FF2,72D
0B436:  BCF    FF2.7
0B438:  MOVLW  00
0B43A:  CALL   1462
0B43E:  TBLRD*-
0B440:  TBLRD*+
0B442:  MOVF   FF5,W
0B444:  MOVWF  FEE
0B446:  IORLW  00
0B448:  BNZ   B440
0B44A:  MOVLB  7
0B44C:  BTFSC  x2D.7
0B44E:  BSF    FF2.7
....................          displayMenu(Menus.Letra,0,0,1,2); 
0B450:  MOVLW  07
0B452:  MOVWF  x2E
0B454:  MOVLW  09
0B456:  MOVWF  x2D
0B458:  CLRF   x2F
0B45A:  CLRF   x30
0B45C:  MOVLW  01
0B45E:  MOVWF  x31
0B460:  MOVLW  02
0B462:  MOVWF  x32
0B464:  MOVLB  0
0B466:  CALL   225C
....................           
....................          displayTemperatura(Derivativo,30,30,0,3); 
0B46A:  MOVLB  7
0B46C:  CLRF   x30
0B46E:  MOVFF  6D5,72F
0B472:  MOVLW  1E
0B474:  MOVWF  x31
0B476:  MOVWF  x32
0B478:  CLRF   x33
0B47A:  MOVLW  03
0B47C:  MOVWF  x34
0B47E:  MOVLB  0
0B480:  CALL   498A
....................           
....................          visual=0; 
0B484:  MOVLB  6
0B486:  BCF    xDA.2
....................       } 
....................        
....................          if(UP)//Si oprime hacia arriba 
0B488:  BSF    F92.4
0B48A:  BTFSC  F80.4
0B48C:  BRA    B512
....................          {   
....................             delay_ms(10); 
0B48E:  MOVLW  0A
0B490:  MOVLB  7
0B492:  MOVWF  x33
0B494:  MOVLB  0
0B496:  CALL   174A
....................             if(Derivativo>200) 
0B49A:  MOVLB  6
0B49C:  MOVF   xD5,W
0B49E:  SUBLW  C8
0B4A0:  BC    B4B8
....................             { 
....................                Derivativo=200;delay_ms(100);visual=1; 
0B4A2:  MOVLW  C8
0B4A4:  MOVWF  xD5
0B4A6:  MOVLW  64
0B4A8:  MOVLB  7
0B4AA:  MOVWF  x33
0B4AC:  MOVLB  0
0B4AE:  CALL   174A
0B4B2:  MOVLB  6
0B4B4:  BSF    xDA.2
....................             } 
....................             else 
0B4B6:  BRA    B512
....................             { 
....................                delay_ms(30);Derivativo+=1.0;visual=1; 
0B4B8:  MOVLW  1E
0B4BA:  MOVLB  7
0B4BC:  MOVWF  x33
0B4BE:  MOVLB  0
0B4C0:  CALL   174A
0B4C4:  MOVLB  7
0B4C6:  CLRF   x34
0B4C8:  MOVFF  6D5,733
0B4CC:  MOVLB  0
0B4CE:  CALL   1772
0B4D2:  BCF    FD8.1
0B4D4:  MOVFF  03,735
0B4D8:  MOVFF  02,734
0B4DC:  MOVFF  01,733
0B4E0:  MOVFF  00,732
0B4E4:  MOVLB  7
0B4E6:  CLRF   x39
0B4E8:  CLRF   x38
0B4EA:  CLRF   x37
0B4EC:  MOVLW  7F
0B4EE:  MOVWF  x36
0B4F0:  MOVLB  0
0B4F2:  CALL   1906
0B4F6:  MOVFF  03,730
0B4FA:  MOVFF  02,72F
0B4FE:  MOVFF  01,72E
0B502:  MOVFF  00,72D
0B506:  CALL   2A58
0B50A:  MOVFF  01,6D5
0B50E:  MOVLB  6
0B510:  BSF    xDA.2
....................             } 
....................          } 
....................                 
....................          if(DOWN)//Si oprime hacia abajo 
0B512:  BSF    F92.5
0B514:  BTFSC  F80.5
0B516:  BRA    B586
....................          {   
....................             delay_ms(10); 
0B518:  MOVLW  0A
0B51A:  MOVLB  7
0B51C:  MOVWF  x33
0B51E:  MOVLB  0
0B520:  CALL   174A
....................             if(Derivativo>1) 
0B524:  MOVLB  6
0B526:  MOVF   xD5,W
0B528:  SUBLW  01
0B52A:  BC    B586
....................             { 
....................                delay_ms(30);Derivativo-=1.0;visual=1;      
0B52C:  MOVLW  1E
0B52E:  MOVLB  7
0B530:  MOVWF  x33
0B532:  MOVLB  0
0B534:  CALL   174A
0B538:  MOVLB  7
0B53A:  CLRF   x34
0B53C:  MOVFF  6D5,733
0B540:  MOVLB  0
0B542:  CALL   1772
0B546:  BSF    FD8.1
0B548:  MOVFF  03,735
0B54C:  MOVFF  02,734
0B550:  MOVFF  01,733
0B554:  MOVFF  00,732
0B558:  MOVLB  7
0B55A:  CLRF   x39
0B55C:  CLRF   x38
0B55E:  CLRF   x37
0B560:  MOVLW  7F
0B562:  MOVWF  x36
0B564:  MOVLB  0
0B566:  CALL   1906
0B56A:  MOVFF  03,730
0B56E:  MOVFF  02,72F
0B572:  MOVFF  01,72E
0B576:  MOVFF  00,72D
0B57A:  CALL   2A58
0B57E:  MOVFF  01,6D5
0B582:  MOVLB  6
0B584:  BSF    xDA.2
....................             } 
....................          } 
....................                 
....................          if(RIGHT)//Si oprime SET 
0B586:  BSF    F96.0
0B588:  BTFSC  F84.0
0B58A:  BRA    B5A8
....................          {   
....................             delay_ms(10); 
0B58C:  MOVLW  0A
0B58E:  MOVLB  7
0B590:  MOVWF  x33
0B592:  MOVLB  0
0B594:  CALL   174A
....................             delay_ms(30);visual=1; 
0B598:  MOVLW  1E
0B59A:  MOVLB  7
0B59C:  MOVWF  x33
0B59E:  MOVLB  0
0B5A0:  CALL   174A
0B5A4:  MOVLB  6
0B5A6:  BSF    xDA.2
....................          }  
....................                    
....................          if(LEFT)//Si oprime boton de Toma. 
0B5A8:  BSF    F96.1
0B5AA:  BTFSC  F84.1
0B5AC:  BRA    B616
....................          { 
....................             delay_ms(10); 
0B5AE:  MOVLW  0A
0B5B0:  MOVLB  7
0B5B2:  MOVWF  x33
0B5B4:  MOVLB  0
0B5B6:  CALL   174A
....................             delay_ms(700);Menu=100;glcd_fillscreen(OFF);Opcion=1;visual=1; 
0B5BA:  MOVLW  04
0B5BC:  MOVLB  7
0B5BE:  MOVWF  x2D
0B5C0:  MOVLW  AF
0B5C2:  MOVWF  x33
0B5C4:  MOVLB  0
0B5C6:  CALL   174A
0B5CA:  MOVLB  7
0B5CC:  DECFSZ x2D,F
0B5CE:  BRA    B5C0
0B5D0:  MOVLW  64
0B5D2:  MOVLB  6
0B5D4:  MOVWF  xDE
0B5D6:  MOVLB  7
0B5D8:  CLRF   x2E
0B5DA:  MOVLB  0
0B5DC:  CALL   1C2E
0B5E0:  MOVLW  01
0B5E2:  MOVLB  6
0B5E4:  MOVWF  xE4
0B5E6:  BSF    xDA.2
....................             write_eeprom(27,(int8)Derivativo); 
0B5E8:  CLRF   FAA
0B5EA:  MOVLW  1B
0B5EC:  MOVWF  FA9
0B5EE:  MOVFF  6D5,FA8
0B5F2:  BCF    FA6.6
0B5F4:  BCF    FA6.7
0B5F6:  BSF    FA6.2
0B5F8:  MOVF   FF2,W
0B5FA:  MOVWF  00
0B5FC:  BCF    FF2.7
0B5FE:  MOVLB  F
0B600:  MOVLW  55
0B602:  MOVWF  FA7
0B604:  MOVLW  AA
0B606:  MOVWF  FA7
0B608:  BSF    FA6.1
0B60A:  BTFSC  FA6.1
0B60C:  BRA    B60A
0B60E:  BCF    FA6.2
0B610:  MOVF   00,W
0B612:  IORWF  FF2,F
0B614:  MOVLB  6
....................          } 
....................      } 
.................... //_-------------------------------------------------------------------------------------------------------------------------------------------------------- 
....................  
.................... //_--------------------------------------------------------------------------------------------------------------------------------------------------------       
....................       if(Menu==104){ // Menu de Tiempo de Ciclo 
0B616:  MOVF   xDE,W
0B618:  SUBLW  68
0B61A:  BTFSS  FD8.2
0B61C:  BRA    B8A6
....................        
....................       if(Tciclo>40) 
0B61E:  MOVLB  7
0B620:  CLRF   x34
0B622:  CLRF   x33
0B624:  MOVLW  20
0B626:  MOVWF  x32
0B628:  MOVLW  84
0B62A:  MOVWF  x31
0B62C:  MOVFF  68F,738
0B630:  MOVFF  68E,737
0B634:  MOVFF  68D,736
0B638:  MOVFF  68C,735
0B63C:  MOVLB  0
0B63E:  CALL   1B7E
0B642:  BNC   B652
....................       { 
....................          Tciclo=40; 
0B644:  MOVLB  6
0B646:  CLRF   x8F
0B648:  CLRF   x8E
0B64A:  MOVLW  20
0B64C:  MOVWF  x8D
0B64E:  MOVLW  84
0B650:  MOVWF  x8C
....................       } 
....................        
....................       if(visual==1) 
0B652:  MOVLB  6
0B654:  BTFSS  xDA.2
0B656:  BRA    B6DE
....................       { 
....................          glcd_fillScreen(OFF); 
0B658:  MOVLB  7
0B65A:  CLRF   x2E
0B65C:  MOVLB  0
0B65E:  CALL   1C2E
....................          strcpy(Menus.Letra,"Tciclo"); 
0B662:  MOVLW  07
0B664:  MOVWF  FEA
0B666:  MOVLW  09
0B668:  MOVWF  FE9
0B66A:  MOVFF  FF2,72D
0B66E:  BCF    FF2.7
0B670:  MOVLW  00
0B672:  CALL   12A6
0B676:  TBLRD*-
0B678:  TBLRD*+
0B67A:  MOVF   FF5,W
0B67C:  MOVWF  FEE
0B67E:  IORLW  00
0B680:  BNZ   B678
0B682:  MOVLB  7
0B684:  BTFSC  x2D.7
0B686:  BSF    FF2.7
....................          displayMenu(Menus.Letra,0,0,1,2); 
0B688:  MOVLW  07
0B68A:  MOVWF  x2E
0B68C:  MOVLW  09
0B68E:  MOVWF  x2D
0B690:  CLRF   x2F
0B692:  CLRF   x30
0B694:  MOVLW  01
0B696:  MOVWF  x31
0B698:  MOVLW  02
0B69A:  MOVWF  x32
0B69C:  MOVLB  0
0B69E:  CALL   225C
....................           
....................          displayTemperatura(Tciclo,30,30,0,3); 
0B6A2:  MOVFF  68F,730
0B6A6:  MOVFF  68E,72F
0B6AA:  MOVFF  68D,72E
0B6AE:  MOVFF  68C,72D
0B6B2:  CALL   2A58
0B6B6:  MOVFF  02,72E
0B6BA:  MOVFF  01,72D
0B6BE:  MOVFF  02,730
0B6C2:  MOVFF  01,72F
0B6C6:  MOVLW  1E
0B6C8:  MOVLB  7
0B6CA:  MOVWF  x31
0B6CC:  MOVWF  x32
0B6CE:  CLRF   x33
0B6D0:  MOVLW  03
0B6D2:  MOVWF  x34
0B6D4:  MOVLB  0
0B6D6:  CALL   498A
....................           
....................          visual=0; 
0B6DA:  MOVLB  6
0B6DC:  BCF    xDA.2
....................       } 
....................        
....................          if(UP)//Si oprime hacia arriba 
0B6DE:  BSF    F92.4
0B6E0:  BTFSC  F80.4
0B6E2:  BRA    B77C
....................          {   
....................             delay_ms(10); 
0B6E4:  MOVLW  0A
0B6E6:  MOVLB  7
0B6E8:  MOVWF  x33
0B6EA:  MOVLB  0
0B6EC:  CALL   174A
....................             if(Tciclo>40) 
0B6F0:  MOVLB  7
0B6F2:  CLRF   x34
0B6F4:  CLRF   x33
0B6F6:  MOVLW  20
0B6F8:  MOVWF  x32
0B6FA:  MOVLW  84
0B6FC:  MOVWF  x31
0B6FE:  MOVFF  68F,738
0B702:  MOVFF  68E,737
0B706:  MOVFF  68D,736
0B70A:  MOVFF  68C,735
0B70E:  MOVLB  0
0B710:  CALL   1B7E
0B714:  BNC   B738
....................             { 
....................                Tciclo=40;delay_ms(100);visual=1; 
0B716:  MOVLB  6
0B718:  CLRF   x8F
0B71A:  CLRF   x8E
0B71C:  MOVLW  20
0B71E:  MOVWF  x8D
0B720:  MOVLW  84
0B722:  MOVWF  x8C
0B724:  MOVLW  64
0B726:  MOVLB  7
0B728:  MOVWF  x33
0B72A:  MOVLB  0
0B72C:  CALL   174A
0B730:  MOVLB  6
0B732:  BSF    xDA.2
....................             } 
....................             else 
0B734:  BRA    B77C
0B736:  MOVLB  0
....................             { 
....................                delay_ms(30);Tciclo+=1.0;visual=1; 
0B738:  MOVLW  1E
0B73A:  MOVLB  7
0B73C:  MOVWF  x33
0B73E:  MOVLB  0
0B740:  CALL   174A
0B744:  BCF    FD8.1
0B746:  MOVFF  68F,735
0B74A:  MOVFF  68E,734
0B74E:  MOVFF  68D,733
0B752:  MOVFF  68C,732
0B756:  MOVLB  7
0B758:  CLRF   x39
0B75A:  CLRF   x38
0B75C:  CLRF   x37
0B75E:  MOVLW  7F
0B760:  MOVWF  x36
0B762:  MOVLB  0
0B764:  CALL   1906
0B768:  MOVFF  03,68F
0B76C:  MOVFF  02,68E
0B770:  MOVFF  01,68D
0B774:  MOVFF  00,68C
0B778:  MOVLB  6
0B77A:  BSF    xDA.2
....................             } 
....................          } 
....................                 
....................          if(DOWN)//Si oprime hacia abajo 
0B77C:  BSF    F92.5
0B77E:  BTFSC  F80.5
0B780:  BRA    B7F6
....................          {   
....................             delay_ms(10); 
0B782:  MOVLW  0A
0B784:  MOVLB  7
0B786:  MOVWF  x33
0B788:  MOVLB  0
0B78A:  CALL   174A
....................             if(Tciclo>1) 
0B78E:  MOVLB  7
0B790:  CLRF   x34
0B792:  CLRF   x33
0B794:  CLRF   x32
0B796:  MOVLW  7F
0B798:  MOVWF  x31
0B79A:  MOVFF  68F,738
0B79E:  MOVFF  68E,737
0B7A2:  MOVFF  68D,736
0B7A6:  MOVFF  68C,735
0B7AA:  MOVLB  0
0B7AC:  CALL   1B7E
0B7B0:  BNC   B7F8
....................             { 
....................                delay_ms(30);Tciclo-=1.0;visual=1;      
0B7B2:  MOVLW  1E
0B7B4:  MOVLB  7
0B7B6:  MOVWF  x33
0B7B8:  MOVLB  0
0B7BA:  CALL   174A
0B7BE:  BSF    FD8.1
0B7C0:  MOVFF  68F,735
0B7C4:  MOVFF  68E,734
0B7C8:  MOVFF  68D,733
0B7CC:  MOVFF  68C,732
0B7D0:  MOVLB  7
0B7D2:  CLRF   x39
0B7D4:  CLRF   x38
0B7D6:  CLRF   x37
0B7D8:  MOVLW  7F
0B7DA:  MOVWF  x36
0B7DC:  MOVLB  0
0B7DE:  CALL   1906
0B7E2:  MOVFF  03,68F
0B7E6:  MOVFF  02,68E
0B7EA:  MOVFF  01,68D
0B7EE:  MOVFF  00,68C
0B7F2:  MOVLB  6
0B7F4:  BSF    xDA.2
0B7F6:  MOVLB  0
....................             } 
....................          } 
....................                 
....................          if(RIGHT)//Si oprime SET 
0B7F8:  BSF    F96.0
0B7FA:  BTFSC  F84.0
0B7FC:  BRA    B81C
....................          {   
....................             delay_ms(10); 
0B7FE:  MOVLW  0A
0B800:  MOVLB  7
0B802:  MOVWF  x33
0B804:  MOVLB  0
0B806:  CALL   174A
....................             delay_ms(30);visual=1; 
0B80A:  MOVLW  1E
0B80C:  MOVLB  7
0B80E:  MOVWF  x33
0B810:  MOVLB  0
0B812:  CALL   174A
0B816:  MOVLB  6
0B818:  BSF    xDA.2
0B81A:  MOVLB  0
....................          }  
....................                    
....................          if(LEFT)//Si oprime boton de Toma. 
0B81C:  BSF    F96.1
0B81E:  BTFSC  F84.1
0B820:  BRA    B8A4
....................          { 
....................             delay_ms(10); 
0B822:  MOVLW  0A
0B824:  MOVLB  7
0B826:  MOVWF  x33
0B828:  MOVLB  0
0B82A:  CALL   174A
....................             delay_ms(700);Menu=100;glcd_fillscreen(OFF);Opcion=1;visual=1; 
0B82E:  MOVLW  04
0B830:  MOVLB  7
0B832:  MOVWF  x2D
0B834:  MOVLW  AF
0B836:  MOVWF  x33
0B838:  MOVLB  0
0B83A:  CALL   174A
0B83E:  MOVLB  7
0B840:  DECFSZ x2D,F
0B842:  BRA    B834
0B844:  MOVLW  64
0B846:  MOVLB  6
0B848:  MOVWF  xDE
0B84A:  MOVLB  7
0B84C:  CLRF   x2E
0B84E:  MOVLB  0
0B850:  CALL   1C2E
0B854:  MOVLW  01
0B856:  MOVLB  6
0B858:  MOVWF  xE4
0B85A:  BSF    xDA.2
....................             write_eeprom(25,(int8)Tciclo); 
0B85C:  MOVFF  68F,730
0B860:  MOVFF  68E,72F
0B864:  MOVFF  68D,72E
0B868:  MOVFF  68C,72D
0B86C:  MOVLB  0
0B86E:  CALL   2A58
0B872:  MOVFF  01,72D
0B876:  CLRF   FAA
0B878:  MOVLW  19
0B87A:  MOVWF  FA9
0B87C:  MOVFF  72D,FA8
0B880:  BCF    FA6.6
0B882:  BCF    FA6.7
0B884:  BSF    FA6.2
0B886:  MOVF   FF2,W
0B888:  MOVWF  00
0B88A:  BCF    FF2.7
0B88C:  MOVLB  F
0B88E:  MOVLW  55
0B890:  MOVWF  FA7
0B892:  MOVLW  AA
0B894:  MOVWF  FA7
0B896:  BSF    FA6.1
0B898:  BTFSC  FA6.1
0B89A:  BRA    B898
0B89C:  BCF    FA6.2
0B89E:  MOVF   00,W
0B8A0:  IORWF  FF2,F
0B8A2:  MOVLB  0
0B8A4:  MOVLB  6
....................          } 
....................      } 
.................... //_-------------------------------------------------------------------------------------------------------------------------------------------------------- 
....................  
.................... //_--------------------------------------------------------------------------------------------------------------------------------------------------------       
....................       if(Menu==105){ // Menu de Ajuste de Ajuste+ 
0B8A6:  MOVF   xDE,W
0B8A8:  SUBLW  69
0B8AA:  BTFSS  FD8.2
0B8AC:  BRA    BAAC
....................        
....................       if(Ajuste>100) 
0B8AE:  MOVF   x7C,W
0B8B0:  SUBLW  64
0B8B2:  BC    B8B6
....................       { 
....................          Ajuste=0; 
0B8B4:  CLRF   x7C
....................       } 
....................        
....................       if(visual==1) 
0B8B6:  BTFSS  xDA.2
0B8B8:  BRA    B922
....................       { 
....................          glcd_fillScreen(OFF); 
0B8BA:  MOVLB  7
0B8BC:  CLRF   x2E
0B8BE:  MOVLB  0
0B8C0:  CALL   1C2E
....................          strcpy(Menus.Letra,"Ajuste"); 
0B8C4:  MOVLW  07
0B8C6:  MOVWF  FEA
0B8C8:  MOVLW  09
0B8CA:  MOVWF  FE9
0B8CC:  MOVFF  FF2,72D
0B8D0:  BCF    FF2.7
0B8D2:  MOVLW  00
0B8D4:  CALL   1482
0B8D8:  TBLRD*-
0B8DA:  TBLRD*+
0B8DC:  MOVF   FF5,W
0B8DE:  MOVWF  FEE
0B8E0:  IORLW  00
0B8E2:  BNZ   B8DA
0B8E4:  MOVLB  7
0B8E6:  BTFSC  x2D.7
0B8E8:  BSF    FF2.7
....................          displayMenu(Menus.Letra,0,0,1,2); 
0B8EA:  MOVLW  07
0B8EC:  MOVWF  x2E
0B8EE:  MOVLW  09
0B8F0:  MOVWF  x2D
0B8F2:  CLRF   x2F
0B8F4:  CLRF   x30
0B8F6:  MOVLW  01
0B8F8:  MOVWF  x31
0B8FA:  MOVLW  02
0B8FC:  MOVWF  x32
0B8FE:  MOVLB  0
0B900:  CALL   225C
....................           
....................          displayTemperatura(Ajuste,30,30,0,3); 
0B904:  MOVLB  7
0B906:  CLRF   x30
0B908:  MOVFF  67C,72F
0B90C:  MOVLW  1E
0B90E:  MOVWF  x31
0B910:  MOVWF  x32
0B912:  CLRF   x33
0B914:  MOVLW  03
0B916:  MOVWF  x34
0B918:  MOVLB  0
0B91A:  CALL   498A
....................           
....................          visual=0; 
0B91E:  MOVLB  6
0B920:  BCF    xDA.2
....................       } 
....................        
....................          if(UP)//Si oprime hacia arriba 
0B922:  BSF    F92.4
0B924:  BTFSC  F80.4
0B926:  BRA    B9AA
....................          {   
....................             delay_ms(10); 
0B928:  MOVLW  0A
0B92A:  MOVLB  7
0B92C:  MOVWF  x33
0B92E:  MOVLB  0
0B930:  CALL   174A
....................             if(Ajuste>100) 
0B934:  MOVLB  6
0B936:  MOVF   x7C,W
0B938:  SUBLW  64
0B93A:  BC    B950
....................             { 
....................                Ajuste=100;delay_ms(100);visual=1; 
0B93C:  MOVLW  64
0B93E:  MOVWF  x7C
0B940:  MOVLB  7
0B942:  MOVWF  x33
0B944:  MOVLB  0
0B946:  CALL   174A
0B94A:  MOVLB  6
0B94C:  BSF    xDA.2
....................             } 
....................             else 
0B94E:  BRA    B9AA
....................             { 
....................                delay_ms(30);Ajuste+=1.0;visual=1; 
0B950:  MOVLW  1E
0B952:  MOVLB  7
0B954:  MOVWF  x33
0B956:  MOVLB  0
0B958:  CALL   174A
0B95C:  MOVLB  7
0B95E:  CLRF   x34
0B960:  MOVFF  67C,733
0B964:  MOVLB  0
0B966:  CALL   1772
0B96A:  BCF    FD8.1
0B96C:  MOVFF  03,735
0B970:  MOVFF  02,734
0B974:  MOVFF  01,733
0B978:  MOVFF  00,732
0B97C:  MOVLB  7
0B97E:  CLRF   x39
0B980:  CLRF   x38
0B982:  CLRF   x37
0B984:  MOVLW  7F
0B986:  MOVWF  x36
0B988:  MOVLB  0
0B98A:  CALL   1906
0B98E:  MOVFF  03,730
0B992:  MOVFF  02,72F
0B996:  MOVFF  01,72E
0B99A:  MOVFF  00,72D
0B99E:  CALL   2A58
0B9A2:  MOVFF  01,67C
0B9A6:  MOVLB  6
0B9A8:  BSF    xDA.2
....................             } 
....................          } 
....................                 
....................          if(DOWN)//Si oprime hacia abajo 
0B9AA:  BSF    F92.5
0B9AC:  BTFSC  F80.5
0B9AE:  BRA    BA1C
....................          {   
....................             delay_ms(10); 
0B9B0:  MOVLW  0A
0B9B2:  MOVLB  7
0B9B4:  MOVWF  x33
0B9B6:  MOVLB  0
0B9B8:  CALL   174A
....................             if(Ajuste>0) 
0B9BC:  MOVLB  6
0B9BE:  MOVF   x7C,F
0B9C0:  BZ    BA1C
....................             { 
....................                delay_ms(30);Ajuste-=1.0;visual=1;      
0B9C2:  MOVLW  1E
0B9C4:  MOVLB  7
0B9C6:  MOVWF  x33
0B9C8:  MOVLB  0
0B9CA:  CALL   174A
0B9CE:  MOVLB  7
0B9D0:  CLRF   x34
0B9D2:  MOVFF  67C,733
0B9D6:  MOVLB  0
0B9D8:  CALL   1772
0B9DC:  BSF    FD8.1
0B9DE:  MOVFF  03,735
0B9E2:  MOVFF  02,734
0B9E6:  MOVFF  01,733
0B9EA:  MOVFF  00,732
0B9EE:  MOVLB  7
0B9F0:  CLRF   x39
0B9F2:  CLRF   x38
0B9F4:  CLRF   x37
0B9F6:  MOVLW  7F
0B9F8:  MOVWF  x36
0B9FA:  MOVLB  0
0B9FC:  CALL   1906
0BA00:  MOVFF  03,730
0BA04:  MOVFF  02,72F
0BA08:  MOVFF  01,72E
0BA0C:  MOVFF  00,72D
0BA10:  CALL   2A58
0BA14:  MOVFF  01,67C
0BA18:  MOVLB  6
0BA1A:  BSF    xDA.2
....................             } 
....................          } 
....................                 
....................          if(RIGHT)//Si oprime SET 
0BA1C:  BSF    F96.0
0BA1E:  BTFSC  F84.0
0BA20:  BRA    BA3E
....................          {   
....................             delay_ms(10); 
0BA22:  MOVLW  0A
0BA24:  MOVLB  7
0BA26:  MOVWF  x33
0BA28:  MOVLB  0
0BA2A:  CALL   174A
....................             delay_ms(30);visual=1; 
0BA2E:  MOVLW  1E
0BA30:  MOVLB  7
0BA32:  MOVWF  x33
0BA34:  MOVLB  0
0BA36:  CALL   174A
0BA3A:  MOVLB  6
0BA3C:  BSF    xDA.2
....................          }  
....................                    
....................          if(LEFT)//Si oprime boton de Toma. 
0BA3E:  BSF    F96.1
0BA40:  BTFSC  F84.1
0BA42:  BRA    BAAC
....................          { 
....................             delay_ms(10); 
0BA44:  MOVLW  0A
0BA46:  MOVLB  7
0BA48:  MOVWF  x33
0BA4A:  MOVLB  0
0BA4C:  CALL   174A
....................             delay_ms(700);Menu=100;glcd_fillscreen(OFF);Opcion=1;visual=1; 
0BA50:  MOVLW  04
0BA52:  MOVLB  7
0BA54:  MOVWF  x2D
0BA56:  MOVLW  AF
0BA58:  MOVWF  x33
0BA5A:  MOVLB  0
0BA5C:  CALL   174A
0BA60:  MOVLB  7
0BA62:  DECFSZ x2D,F
0BA64:  BRA    BA56
0BA66:  MOVLW  64
0BA68:  MOVLB  6
0BA6A:  MOVWF  xDE
0BA6C:  MOVLB  7
0BA6E:  CLRF   x2E
0BA70:  MOVLB  0
0BA72:  CALL   1C2E
0BA76:  MOVLW  01
0BA78:  MOVLB  6
0BA7A:  MOVWF  xE4
0BA7C:  BSF    xDA.2
....................             write_eeprom(21,Ajuste); 
0BA7E:  CLRF   FAA
0BA80:  MOVLW  15
0BA82:  MOVWF  FA9
0BA84:  MOVFF  67C,FA8
0BA88:  BCF    FA6.6
0BA8A:  BCF    FA6.7
0BA8C:  BSF    FA6.2
0BA8E:  MOVF   FF2,W
0BA90:  MOVWF  00
0BA92:  BCF    FF2.7
0BA94:  MOVLB  F
0BA96:  MOVLW  55
0BA98:  MOVWF  FA7
0BA9A:  MOVLW  AA
0BA9C:  MOVWF  FA7
0BA9E:  BSF    FA6.1
0BAA0:  BTFSC  FA6.1
0BAA2:  BRA    BAA0
0BAA4:  BCF    FA6.2
0BAA6:  MOVF   00,W
0BAA8:  IORWF  FF2,F
0BAAA:  MOVLB  6
....................          } 
....................      } 
.................... //_-------------------------------------------------------------------------------------------------------------------------------------------------------- 
....................  
.................... //_--------------------------------------------------------------------------------------------------------------------------------------------------------       
....................       if(Menu==106){ // Menu de Ajuste de Ajuste - 
0BAAC:  MOVF   xDE,W
0BAAE:  SUBLW  6A
0BAB0:  BTFSS  FD8.2
0BAB2:  BRA    BCB2
....................        
....................       if(Ajusten>100) 
0BAB4:  MOVF   x7D,W
0BAB6:  SUBLW  64
0BAB8:  BC    BABC
....................       { 
....................          Ajusten=0; 
0BABA:  CLRF   x7D
....................       } 
....................        
....................       if(visual==1) 
0BABC:  BTFSS  xDA.2
0BABE:  BRA    BB28
....................       { 
....................          glcd_fillScreen(OFF); 
0BAC0:  MOVLB  7
0BAC2:  CLRF   x2E
0BAC4:  MOVLB  0
0BAC6:  CALL   1C2E
....................          strcpy(Menus.Letra,"Ajusten"); 
0BACA:  MOVLW  07
0BACC:  MOVWF  FEA
0BACE:  MOVLW  09
0BAD0:  MOVWF  FE9
0BAD2:  MOVFF  FF2,72D
0BAD6:  BCF    FF2.7
0BAD8:  MOVLW  00
0BADA:  CALL   14A8
0BADE:  TBLRD*-
0BAE0:  TBLRD*+
0BAE2:  MOVF   FF5,W
0BAE4:  MOVWF  FEE
0BAE6:  IORLW  00
0BAE8:  BNZ   BAE0
0BAEA:  MOVLB  7
0BAEC:  BTFSC  x2D.7
0BAEE:  BSF    FF2.7
....................          displayMenu(Menus.Letra,0,0,1,2); 
0BAF0:  MOVLW  07
0BAF2:  MOVWF  x2E
0BAF4:  MOVLW  09
0BAF6:  MOVWF  x2D
0BAF8:  CLRF   x2F
0BAFA:  CLRF   x30
0BAFC:  MOVLW  01
0BAFE:  MOVWF  x31
0BB00:  MOVLW  02
0BB02:  MOVWF  x32
0BB04:  MOVLB  0
0BB06:  CALL   225C
....................           
....................          displayTemperatura(Ajusten,30,30,0,3); 
0BB0A:  MOVLB  7
0BB0C:  CLRF   x30
0BB0E:  MOVFF  67D,72F
0BB12:  MOVLW  1E
0BB14:  MOVWF  x31
0BB16:  MOVWF  x32
0BB18:  CLRF   x33
0BB1A:  MOVLW  03
0BB1C:  MOVWF  x34
0BB1E:  MOVLB  0
0BB20:  CALL   498A
....................           
....................          visual=0; 
0BB24:  MOVLB  6
0BB26:  BCF    xDA.2
....................       } 
....................        
....................          if(UP)//Si oprime hacia arriba 
0BB28:  BSF    F92.4
0BB2A:  BTFSC  F80.4
0BB2C:  BRA    BBB0
....................          {   
....................             delay_ms(10); 
0BB2E:  MOVLW  0A
0BB30:  MOVLB  7
0BB32:  MOVWF  x33
0BB34:  MOVLB  0
0BB36:  CALL   174A
....................             if(Ajusten>100) 
0BB3A:  MOVLB  6
0BB3C:  MOVF   x7D,W
0BB3E:  SUBLW  64
0BB40:  BC    BB56
....................             { 
....................                Ajusten=100;delay_ms(100);visual=1; 
0BB42:  MOVLW  64
0BB44:  MOVWF  x7D
0BB46:  MOVLB  7
0BB48:  MOVWF  x33
0BB4A:  MOVLB  0
0BB4C:  CALL   174A
0BB50:  MOVLB  6
0BB52:  BSF    xDA.2
....................             } 
....................             else 
0BB54:  BRA    BBB0
....................             { 
....................                delay_ms(30);Ajusten+=1.0;visual=1; 
0BB56:  MOVLW  1E
0BB58:  MOVLB  7
0BB5A:  MOVWF  x33
0BB5C:  MOVLB  0
0BB5E:  CALL   174A
0BB62:  MOVLB  7
0BB64:  CLRF   x34
0BB66:  MOVFF  67D,733
0BB6A:  MOVLB  0
0BB6C:  CALL   1772
0BB70:  BCF    FD8.1
0BB72:  MOVFF  03,735
0BB76:  MOVFF  02,734
0BB7A:  MOVFF  01,733
0BB7E:  MOVFF  00,732
0BB82:  MOVLB  7
0BB84:  CLRF   x39
0BB86:  CLRF   x38
0BB88:  CLRF   x37
0BB8A:  MOVLW  7F
0BB8C:  MOVWF  x36
0BB8E:  MOVLB  0
0BB90:  CALL   1906
0BB94:  MOVFF  03,730
0BB98:  MOVFF  02,72F
0BB9C:  MOVFF  01,72E
0BBA0:  MOVFF  00,72D
0BBA4:  CALL   2A58
0BBA8:  MOVFF  01,67D
0BBAC:  MOVLB  6
0BBAE:  BSF    xDA.2
....................             } 
....................          } 
....................                 
....................          if(DOWN)//Si oprime hacia abajo 
0BBB0:  BSF    F92.5
0BBB2:  BTFSC  F80.5
0BBB4:  BRA    BC22
....................          {   
....................             delay_ms(10); 
0BBB6:  MOVLW  0A
0BBB8:  MOVLB  7
0BBBA:  MOVWF  x33
0BBBC:  MOVLB  0
0BBBE:  CALL   174A
....................             if(Ajusten>0) 
0BBC2:  MOVLB  6
0BBC4:  MOVF   x7D,F
0BBC6:  BZ    BC22
....................             { 
....................                delay_ms(30);Ajusten-=1.0;visual=1;      
0BBC8:  MOVLW  1E
0BBCA:  MOVLB  7
0BBCC:  MOVWF  x33
0BBCE:  MOVLB  0
0BBD0:  CALL   174A
0BBD4:  MOVLB  7
0BBD6:  CLRF   x34
0BBD8:  MOVFF  67D,733
0BBDC:  MOVLB  0
0BBDE:  CALL   1772
0BBE2:  BSF    FD8.1
0BBE4:  MOVFF  03,735
0BBE8:  MOVFF  02,734
0BBEC:  MOVFF  01,733
0BBF0:  MOVFF  00,732
0BBF4:  MOVLB  7
0BBF6:  CLRF   x39
0BBF8:  CLRF   x38
0BBFA:  CLRF   x37
0BBFC:  MOVLW  7F
0BBFE:  MOVWF  x36
0BC00:  MOVLB  0
0BC02:  CALL   1906
0BC06:  MOVFF  03,730
0BC0A:  MOVFF  02,72F
0BC0E:  MOVFF  01,72E
0BC12:  MOVFF  00,72D
0BC16:  CALL   2A58
0BC1A:  MOVFF  01,67D
0BC1E:  MOVLB  6
0BC20:  BSF    xDA.2
....................             } 
....................          } 
....................                 
....................          if(RIGHT)//Si oprime SET 
0BC22:  BSF    F96.0
0BC24:  BTFSC  F84.0
0BC26:  BRA    BC44
....................          {   
....................             delay_ms(10); 
0BC28:  MOVLW  0A
0BC2A:  MOVLB  7
0BC2C:  MOVWF  x33
0BC2E:  MOVLB  0
0BC30:  CALL   174A
....................             delay_ms(30);visual=1; 
0BC34:  MOVLW  1E
0BC36:  MOVLB  7
0BC38:  MOVWF  x33
0BC3A:  MOVLB  0
0BC3C:  CALL   174A
0BC40:  MOVLB  6
0BC42:  BSF    xDA.2
....................          }  
....................                    
....................          if(LEFT)//Si oprime boton de Toma. 
0BC44:  BSF    F96.1
0BC46:  BTFSC  F84.1
0BC48:  BRA    BCB2
....................          { 
....................             delay_ms(10); 
0BC4A:  MOVLW  0A
0BC4C:  MOVLB  7
0BC4E:  MOVWF  x33
0BC50:  MOVLB  0
0BC52:  CALL   174A
....................             delay_ms(700);Menu=100;glcd_fillscreen(OFF);Opcion=1;visual=1; 
0BC56:  MOVLW  04
0BC58:  MOVLB  7
0BC5A:  MOVWF  x2D
0BC5C:  MOVLW  AF
0BC5E:  MOVWF  x33
0BC60:  MOVLB  0
0BC62:  CALL   174A
0BC66:  MOVLB  7
0BC68:  DECFSZ x2D,F
0BC6A:  BRA    BC5C
0BC6C:  MOVLW  64
0BC6E:  MOVLB  6
0BC70:  MOVWF  xDE
0BC72:  MOVLB  7
0BC74:  CLRF   x2E
0BC76:  MOVLB  0
0BC78:  CALL   1C2E
0BC7C:  MOVLW  01
0BC7E:  MOVLB  6
0BC80:  MOVWF  xE4
0BC82:  BSF    xDA.2
....................             write_eeprom(22,Ajusten); 
0BC84:  CLRF   FAA
0BC86:  MOVLW  16
0BC88:  MOVWF  FA9
0BC8A:  MOVFF  67D,FA8
0BC8E:  BCF    FA6.6
0BC90:  BCF    FA6.7
0BC92:  BSF    FA6.2
0BC94:  MOVF   FF2,W
0BC96:  MOVWF  00
0BC98:  BCF    FF2.7
0BC9A:  MOVLB  F
0BC9C:  MOVLW  55
0BC9E:  MOVWF  FA7
0BCA0:  MOVLW  AA
0BCA2:  MOVWF  FA7
0BCA4:  BSF    FA6.1
0BCA6:  BTFSC  FA6.1
0BCA8:  BRA    BCA6
0BCAA:  BCF    FA6.2
0BCAC:  MOVF   00,W
0BCAE:  IORWF  FF2,F
0BCB0:  MOVLB  6
....................          } 
....................      } 
.................... //_-------------------------------------------------------------------------------------------------------------------------------------------------------- 
....................  
.................... //_--------------------------------------------------------------------------------------------------------------------------------------------------------       
....................       if(Menu==107){ // Menu de Ajuste de Media Movil 
0BCB2:  MOVF   xDE,W
0BCB4:  SUBLW  6B
0BCB6:  BTFSS  FD8.2
0BCB8:  BRA    BEBE
....................        
....................       if(MediaMovil>80) 
0BCBA:  MOVF   x7E,W
0BCBC:  SUBLW  50
0BCBE:  BC    BCC4
....................       { 
....................          MediaMovil=10; 
0BCC0:  MOVLW  0A
0BCC2:  MOVWF  x7E
....................       } 
....................        
....................       if(visual==1) 
0BCC4:  BTFSS  xDA.2
0BCC6:  BRA    BD30
....................       { 
....................          glcd_fillScreen(OFF); 
0BCC8:  MOVLB  7
0BCCA:  CLRF   x2E
0BCCC:  MOVLB  0
0BCCE:  CALL   1C2E
....................          strcpy(Menus.Letra,"Media"); 
0BCD2:  MOVLW  07
0BCD4:  MOVWF  FEA
0BCD6:  MOVLW  09
0BCD8:  MOVWF  FE9
0BCDA:  MOVFF  FF2,72D
0BCDE:  BCF    FF2.7
0BCE0:  MOVLW  00
0BCE2:  CALL   14CE
0BCE6:  TBLRD*-
0BCE8:  TBLRD*+
0BCEA:  MOVF   FF5,W
0BCEC:  MOVWF  FEE
0BCEE:  IORLW  00
0BCF0:  BNZ   BCE8
0BCF2:  MOVLB  7
0BCF4:  BTFSC  x2D.7
0BCF6:  BSF    FF2.7
....................          displayMenu(Menus.Letra,0,0,1,2); 
0BCF8:  MOVLW  07
0BCFA:  MOVWF  x2E
0BCFC:  MOVLW  09
0BCFE:  MOVWF  x2D
0BD00:  CLRF   x2F
0BD02:  CLRF   x30
0BD04:  MOVLW  01
0BD06:  MOVWF  x31
0BD08:  MOVLW  02
0BD0A:  MOVWF  x32
0BD0C:  MOVLB  0
0BD0E:  CALL   225C
....................           
....................          displayTemperatura(MediaMovil,30,30,0,3); 
0BD12:  MOVLB  7
0BD14:  CLRF   x30
0BD16:  MOVFF  67E,72F
0BD1A:  MOVLW  1E
0BD1C:  MOVWF  x31
0BD1E:  MOVWF  x32
0BD20:  CLRF   x33
0BD22:  MOVLW  03
0BD24:  MOVWF  x34
0BD26:  MOVLB  0
0BD28:  CALL   498A
....................           
....................          visual=0; 
0BD2C:  MOVLB  6
0BD2E:  BCF    xDA.2
....................       } 
....................        
....................          if(UP)//Si oprime hacia arriba 
0BD30:  BSF    F92.4
0BD32:  BTFSC  F80.4
0BD34:  BRA    BDBA
....................          {   
....................             delay_ms(10); 
0BD36:  MOVLW  0A
0BD38:  MOVLB  7
0BD3A:  MOVWF  x33
0BD3C:  MOVLB  0
0BD3E:  CALL   174A
....................             if(MediaMovil>79) 
0BD42:  MOVLB  6
0BD44:  MOVF   x7E,W
0BD46:  SUBLW  4F
0BD48:  BC    BD60
....................             { 
....................                MediaMovil=79;delay_ms(100);visual=1; 
0BD4A:  MOVLW  4F
0BD4C:  MOVWF  x7E
0BD4E:  MOVLW  64
0BD50:  MOVLB  7
0BD52:  MOVWF  x33
0BD54:  MOVLB  0
0BD56:  CALL   174A
0BD5A:  MOVLB  6
0BD5C:  BSF    xDA.2
....................             } 
....................             else 
0BD5E:  BRA    BDBA
....................             { 
....................                delay_ms(30);MediaMovil+=1.0;visual=1; 
0BD60:  MOVLW  1E
0BD62:  MOVLB  7
0BD64:  MOVWF  x33
0BD66:  MOVLB  0
0BD68:  CALL   174A
0BD6C:  MOVLB  7
0BD6E:  CLRF   x34
0BD70:  MOVFF  67E,733
0BD74:  MOVLB  0
0BD76:  CALL   1772
0BD7A:  BCF    FD8.1
0BD7C:  MOVFF  03,735
0BD80:  MOVFF  02,734
0BD84:  MOVFF  01,733
0BD88:  MOVFF  00,732
0BD8C:  MOVLB  7
0BD8E:  CLRF   x39
0BD90:  CLRF   x38
0BD92:  CLRF   x37
0BD94:  MOVLW  7F
0BD96:  MOVWF  x36
0BD98:  MOVLB  0
0BD9A:  CALL   1906
0BD9E:  MOVFF  03,730
0BDA2:  MOVFF  02,72F
0BDA6:  MOVFF  01,72E
0BDAA:  MOVFF  00,72D
0BDAE:  CALL   2A58
0BDB2:  MOVFF  01,67E
0BDB6:  MOVLB  6
0BDB8:  BSF    xDA.2
....................             } 
....................          } 
....................                 
....................          if(DOWN)//Si oprime hacia abajo 
0BDBA:  BSF    F92.5
0BDBC:  BTFSC  F80.5
0BDBE:  BRA    BE2E
....................          {   
....................             delay_ms(10); 
0BDC0:  MOVLW  0A
0BDC2:  MOVLB  7
0BDC4:  MOVWF  x33
0BDC6:  MOVLB  0
0BDC8:  CALL   174A
....................             if(MediaMovil>1) 
0BDCC:  MOVLB  6
0BDCE:  MOVF   x7E,W
0BDD0:  SUBLW  01
0BDD2:  BC    BE2E
....................             { 
....................                delay_ms(30);MediaMovil-=1.0;visual=1;      
0BDD4:  MOVLW  1E
0BDD6:  MOVLB  7
0BDD8:  MOVWF  x33
0BDDA:  MOVLB  0
0BDDC:  CALL   174A
0BDE0:  MOVLB  7
0BDE2:  CLRF   x34
0BDE4:  MOVFF  67E,733
0BDE8:  MOVLB  0
0BDEA:  CALL   1772
0BDEE:  BSF    FD8.1
0BDF0:  MOVFF  03,735
0BDF4:  MOVFF  02,734
0BDF8:  MOVFF  01,733
0BDFC:  MOVFF  00,732
0BE00:  MOVLB  7
0BE02:  CLRF   x39
0BE04:  CLRF   x38
0BE06:  CLRF   x37
0BE08:  MOVLW  7F
0BE0A:  MOVWF  x36
0BE0C:  MOVLB  0
0BE0E:  CALL   1906
0BE12:  MOVFF  03,730
0BE16:  MOVFF  02,72F
0BE1A:  MOVFF  01,72E
0BE1E:  MOVFF  00,72D
0BE22:  CALL   2A58
0BE26:  MOVFF  01,67E
0BE2A:  MOVLB  6
0BE2C:  BSF    xDA.2
....................             } 
....................          } 
....................                 
....................          if(RIGHT)//Si oprime SET 
0BE2E:  BSF    F96.0
0BE30:  BTFSC  F84.0
0BE32:  BRA    BE50
....................          {   
....................             delay_ms(10); 
0BE34:  MOVLW  0A
0BE36:  MOVLB  7
0BE38:  MOVWF  x33
0BE3A:  MOVLB  0
0BE3C:  CALL   174A
....................             delay_ms(30);visual=1; 
0BE40:  MOVLW  1E
0BE42:  MOVLB  7
0BE44:  MOVWF  x33
0BE46:  MOVLB  0
0BE48:  CALL   174A
0BE4C:  MOVLB  6
0BE4E:  BSF    xDA.2
....................          }  
....................                    
....................          if(LEFT)//Si oprime boton de Toma. 
0BE50:  BSF    F96.1
0BE52:  BTFSC  F84.1
0BE54:  BRA    BEBE
....................          { 
....................             delay_ms(10); 
0BE56:  MOVLW  0A
0BE58:  MOVLB  7
0BE5A:  MOVWF  x33
0BE5C:  MOVLB  0
0BE5E:  CALL   174A
....................             delay_ms(700);Menu=100;glcd_fillscreen(OFF);Opcion=1;visual=1; 
0BE62:  MOVLW  04
0BE64:  MOVLB  7
0BE66:  MOVWF  x2D
0BE68:  MOVLW  AF
0BE6A:  MOVWF  x33
0BE6C:  MOVLB  0
0BE6E:  CALL   174A
0BE72:  MOVLB  7
0BE74:  DECFSZ x2D,F
0BE76:  BRA    BE68
0BE78:  MOVLW  64
0BE7A:  MOVLB  6
0BE7C:  MOVWF  xDE
0BE7E:  MOVLB  7
0BE80:  CLRF   x2E
0BE82:  MOVLB  0
0BE84:  CALL   1C2E
0BE88:  MOVLW  01
0BE8A:  MOVLB  6
0BE8C:  MOVWF  xE4
0BE8E:  BSF    xDA.2
....................             write_eeprom(24,(int8)MediaMovil); 
0BE90:  CLRF   FAA
0BE92:  MOVLW  18
0BE94:  MOVWF  FA9
0BE96:  MOVFF  67E,FA8
0BE9A:  BCF    FA6.6
0BE9C:  BCF    FA6.7
0BE9E:  BSF    FA6.2
0BEA0:  MOVF   FF2,W
0BEA2:  MOVWF  00
0BEA4:  BCF    FF2.7
0BEA6:  MOVLB  F
0BEA8:  MOVLW  55
0BEAA:  MOVWF  FA7
0BEAC:  MOVLW  AA
0BEAE:  MOVWF  FA7
0BEB0:  BSF    FA6.1
0BEB2:  BTFSC  FA6.1
0BEB4:  BRA    BEB2
0BEB6:  BCF    FA6.2
0BEB8:  MOVF   00,W
0BEBA:  IORWF  FF2,F
0BEBC:  MOVLB  6
....................          } 
....................      } 
.................... //_-------------------------------------------------------------------------------------------------------------------------------------------------------- 
....................  
.................... //_--------------------------------------------------------------------------------------------------------------------------------------------------------       
....................       if(Menu==108){ // Menu de Ganancia Instrumentacion 
0BEBE:  MOVF   xDE,W
0BEC0:  SUBLW  6C
0BEC2:  BTFSS  FD8.2
0BEC4:  BRA    C1B0
....................        
....................       if(Gain>50 || Gain<30) 
0BEC6:  MOVLB  7
0BEC8:  CLRF   x34
0BECA:  CLRF   x33
0BECC:  MOVLW  48
0BECE:  MOVWF  x32
0BED0:  MOVLW  84
0BED2:  MOVWF  x31
0BED4:  MOVFF  65D,738
0BED8:  MOVFF  65C,737
0BEDC:  MOVFF  65B,736
0BEE0:  MOVFF  65A,735
0BEE4:  MOVLB  0
0BEE6:  CALL   1B7E
0BEEA:  BC    BF12
0BEEC:  MOVFF  65D,734
0BEF0:  MOVFF  65C,733
0BEF4:  MOVFF  65B,732
0BEF8:  MOVFF  65A,731
0BEFC:  MOVLB  7
0BEFE:  CLRF   x38
0BF00:  CLRF   x37
0BF02:  MOVLW  70
0BF04:  MOVWF  x36
0BF06:  MOVLW  83
0BF08:  MOVWF  x35
0BF0A:  MOVLB  0
0BF0C:  CALL   1B7E
0BF10:  BNC   BF22
....................       { 
....................          Gain=40; 
0BF12:  MOVLB  6
0BF14:  CLRF   x5D
0BF16:  CLRF   x5C
0BF18:  MOVLW  20
0BF1A:  MOVWF  x5B
0BF1C:  MOVLW  84
0BF1E:  MOVWF  x5A
0BF20:  MOVLB  0
....................       } 
....................          strcpy(Menus.Letra,"Ganancia"); 
0BF22:  MOVLW  07
0BF24:  MOVWF  FEA
0BF26:  MOVLW  09
0BF28:  MOVWF  FE9
0BF2A:  MOVFF  FF2,72D
0BF2E:  BCF    FF2.7
0BF30:  MOVLW  00
0BF32:  CALL   14F2
0BF36:  TBLRD*-
0BF38:  TBLRD*+
0BF3A:  MOVF   FF5,W
0BF3C:  MOVWF  FEE
0BF3E:  IORLW  00
0BF40:  BNZ   BF38
0BF42:  MOVLB  7
0BF44:  BTFSC  x2D.7
0BF46:  BSF    FF2.7
....................          displayMenu(Menus.Letra,0,0,1,2); 
0BF48:  MOVLW  07
0BF4A:  MOVWF  x2E
0BF4C:  MOVLW  09
0BF4E:  MOVWF  x2D
0BF50:  CLRF   x2F
0BF52:  CLRF   x30
0BF54:  MOVLW  01
0BF56:  MOVWF  x31
0BF58:  MOVLW  02
0BF5A:  MOVWF  x32
0BF5C:  MOVLB  0
0BF5E:  CALL   225C
....................           
....................          displayTT(Gain,30,30,2); 
0BF62:  MOVFF  65D,730
0BF66:  MOVFF  65C,72F
0BF6A:  MOVFF  65B,72E
0BF6E:  MOVFF  65A,72D
0BF72:  MOVLW  1E
0BF74:  MOVLB  7
0BF76:  MOVWF  x31
0BF78:  MOVWF  x32
0BF7A:  MOVLW  02
0BF7C:  MOVWF  x33
0BF7E:  MOVLB  0
0BF80:  CALL   4854
....................  
....................        
....................          if(UP)//Si oprime hacia arriba 
0BF84:  BSF    F92.4
0BF86:  BTFSC  F80.4
0BF88:  BRA    BFD0
....................          {   
....................             delay_ms(10); 
0BF8A:  MOVLW  0A
0BF8C:  MOVLB  7
0BF8E:  MOVWF  x33
0BF90:  MOVLB  0
0BF92:  CALL   174A
....................             Gain+=0.1; 
0BF96:  BCF    FD8.1
0BF98:  MOVFF  65D,735
0BF9C:  MOVFF  65C,734
0BFA0:  MOVFF  65B,733
0BFA4:  MOVFF  65A,732
0BFA8:  MOVLW  CD
0BFAA:  MOVLB  7
0BFAC:  MOVWF  x39
0BFAE:  MOVLW  CC
0BFB0:  MOVWF  x38
0BFB2:  MOVLW  4C
0BFB4:  MOVWF  x37
0BFB6:  MOVLW  7B
0BFB8:  MOVWF  x36
0BFBA:  MOVLB  0
0BFBC:  CALL   1906
0BFC0:  MOVFF  03,65D
0BFC4:  MOVFF  02,65C
0BFC8:  MOVFF  01,65B
0BFCC:  MOVFF  00,65A
....................          } 
....................                 
....................          if(DOWN)//Si oprime hacia abajo 
0BFD0:  BSF    F92.5
0BFD2:  BTFSC  F80.5
0BFD4:  BRA    C01C
....................          {   
....................             delay_ms(10); 
0BFD6:  MOVLW  0A
0BFD8:  MOVLB  7
0BFDA:  MOVWF  x33
0BFDC:  MOVLB  0
0BFDE:  CALL   174A
....................             Gain-=0.1; 
0BFE2:  BSF    FD8.1
0BFE4:  MOVFF  65D,735
0BFE8:  MOVFF  65C,734
0BFEC:  MOVFF  65B,733
0BFF0:  MOVFF  65A,732
0BFF4:  MOVLW  CD
0BFF6:  MOVLB  7
0BFF8:  MOVWF  x39
0BFFA:  MOVLW  CC
0BFFC:  MOVWF  x38
0BFFE:  MOVLW  4C
0C000:  MOVWF  x37
0C002:  MOVLW  7B
0C004:  MOVWF  x36
0C006:  MOVLB  0
0C008:  CALL   1906
0C00C:  MOVFF  03,65D
0C010:  MOVFF  02,65C
0C014:  MOVFF  01,65B
0C018:  MOVFF  00,65A
....................          } 
....................                 
....................          if(RIGHT)//Si oprime SET 
0C01C:  BSF    F96.0
0C01E:  BTFSC  F84.0
0C020:  BRA    C040
....................          {   
....................             delay_ms(10); 
0C022:  MOVLW  0A
0C024:  MOVLB  7
0C026:  MOVWF  x33
0C028:  MOVLB  0
0C02A:  CALL   174A
....................             delay_ms(30);visual=1; 
0C02E:  MOVLW  1E
0C030:  MOVLB  7
0C032:  MOVWF  x33
0C034:  MOVLB  0
0C036:  CALL   174A
0C03A:  MOVLB  6
0C03C:  BSF    xDA.2
0C03E:  MOVLB  0
....................          }  
....................                    
....................          if(LEFT)//Si oprime boton de Toma. 
0C040:  BSF    F96.1
0C042:  BTFSC  F84.1
0C044:  BRA    C1AE
....................          { 
....................             delay_ms(10); 
0C046:  MOVLW  0A
0C048:  MOVLB  7
0C04A:  MOVWF  x33
0C04C:  MOVLB  0
0C04E:  CALL   174A
....................             delay_ms(700);Menu=100;glcd_fillscreen(OFF);Opcion=1;visual=1; 
0C052:  MOVLW  04
0C054:  MOVLB  7
0C056:  MOVWF  x2D
0C058:  MOVLW  AF
0C05A:  MOVWF  x33
0C05C:  MOVLB  0
0C05E:  CALL   174A
0C062:  MOVLB  7
0C064:  DECFSZ x2D,F
0C066:  BRA    C058
0C068:  MOVLW  64
0C06A:  MOVLB  6
0C06C:  MOVWF  xDE
0C06E:  MOVLB  7
0C070:  CLRF   x2E
0C072:  MOVLB  0
0C074:  CALL   1C2E
0C078:  MOVLW  01
0C07A:  MOVLB  6
0C07C:  MOVWF  xE4
0C07E:  BSF    xDA.2
....................             write_eeprom(28,(int8)Gain); 
0C080:  MOVFF  65D,730
0C084:  MOVFF  65C,72F
0C088:  MOVFF  65B,72E
0C08C:  MOVFF  65A,72D
0C090:  MOVLB  0
0C092:  CALL   2A58
0C096:  MOVFF  01,72D
0C09A:  CLRF   FAA
0C09C:  MOVLW  1C
0C09E:  MOVWF  FA9
0C0A0:  MOVFF  72D,FA8
0C0A4:  BCF    FA6.6
0C0A6:  BCF    FA6.7
0C0A8:  BSF    FA6.2
0C0AA:  MOVF   FF2,W
0C0AC:  MOVWF  00
0C0AE:  BCF    FF2.7
0C0B0:  MOVLB  F
0C0B2:  MOVLW  55
0C0B4:  MOVWF  FA7
0C0B6:  MOVLW  AA
0C0B8:  MOVWF  FA7
0C0BA:  BSF    FA6.1
0C0BC:  BTFSC  FA6.1
0C0BE:  BRA    C0BC
0C0C0:  BCF    FA6.2
0C0C2:  MOVF   00,W
0C0C4:  IORWF  FF2,F
....................             delay_ms(10); 
0C0C6:  MOVLW  0A
0C0C8:  MOVLB  7
0C0CA:  MOVWF  x33
0C0CC:  MOVLB  0
0C0CE:  CALL   174A
....................             Temporal=Gain-((int8)Gain); 
0C0D2:  MOVFF  65D,730
0C0D6:  MOVFF  65C,72F
0C0DA:  MOVFF  65B,72E
0C0DE:  MOVFF  65A,72D
0C0E2:  CALL   2A58
0C0E6:  MOVLB  7
0C0E8:  CLRF   x34
0C0EA:  MOVFF  01,733
0C0EE:  MOVLB  0
0C0F0:  CALL   1772
0C0F4:  BSF    FD8.1
0C0F6:  MOVFF  65D,735
0C0FA:  MOVFF  65C,734
0C0FE:  MOVFF  65B,733
0C102:  MOVFF  65A,732
0C106:  MOVFF  03,739
0C10A:  MOVFF  02,738
0C10E:  MOVFF  01,737
0C112:  MOVFF  00,736
0C116:  CALL   1906
0C11A:  MOVFF  03,665
0C11E:  MOVFF  02,664
0C122:  MOVFF  01,663
0C126:  MOVFF  00,662
....................             Temporal=Temporal*10; 
0C12A:  MOVFF  665,751
0C12E:  MOVFF  664,750
0C132:  MOVFF  663,74F
0C136:  MOVFF  662,74E
0C13A:  MOVLB  7
0C13C:  CLRF   x55
0C13E:  CLRF   x54
0C140:  MOVLW  20
0C142:  MOVWF  x53
0C144:  MOVLW  82
0C146:  MOVWF  x52
0C148:  MOVLB  0
0C14A:  CALL   25B2
0C14E:  MOVFF  03,665
0C152:  MOVFF  02,664
0C156:  MOVFF  01,663
0C15A:  MOVFF  00,662
....................             write_eeprom(29,(int8)Temporal); 
0C15E:  MOVFF  665,730
0C162:  MOVFF  664,72F
0C166:  MOVFF  663,72E
0C16A:  MOVFF  662,72D
0C16E:  CALL   2A58
0C172:  MOVFF  01,72D
0C176:  CLRF   FAA
0C178:  MOVLW  1D
0C17A:  MOVWF  FA9
0C17C:  MOVFF  72D,FA8
0C180:  BCF    FA6.6
0C182:  BCF    FA6.7
0C184:  BSF    FA6.2
0C186:  MOVF   FF2,W
0C188:  MOVWF  00
0C18A:  BCF    FF2.7
0C18C:  MOVLB  F
0C18E:  MOVLW  55
0C190:  MOVWF  FA7
0C192:  MOVLW  AA
0C194:  MOVWF  FA7
0C196:  BSF    FA6.1
0C198:  BTFSC  FA6.1
0C19A:  BRA    C198
0C19C:  BCF    FA6.2
0C19E:  MOVF   00,W
0C1A0:  IORWF  FF2,F
....................             delay_ms(10); 
0C1A2:  MOVLW  0A
0C1A4:  MOVLB  7
0C1A6:  MOVWF  x33
0C1A8:  MOVLB  0
0C1AA:  CALL   174A
0C1AE:  MOVLB  6
....................          } 
....................      } 
.................... //_-------------------------------------------------------------------------------------------------------------------------------------------------------- 
....................  
.................... //_--------------------------------------------------------------------------------------------------------------------------------------------------------       
....................       if(Menu==109){ // Menu de Ajuste R1 
0C1B0:  MOVF   xDE,W
0C1B2:  SUBLW  6D
0C1B4:  BTFSS  FD8.2
0C1B6:  BRA    C450
....................        
....................       if(R1>6400 || R1<6000) 
0C1B8:  MOVLB  7
0C1BA:  CLRF   x34
0C1BC:  CLRF   x33
0C1BE:  MOVLW  48
0C1C0:  MOVWF  x32
0C1C2:  MOVLW  8B
0C1C4:  MOVWF  x31
0C1C6:  MOVFF  687,738
0C1CA:  MOVFF  686,737
0C1CE:  MOVFF  685,736
0C1D2:  MOVFF  684,735
0C1D6:  MOVLB  0
0C1D8:  CALL   1B7E
0C1DC:  BC    C206
0C1DE:  MOVFF  687,734
0C1E2:  MOVFF  686,733
0C1E6:  MOVFF  685,732
0C1EA:  MOVFF  684,731
0C1EE:  MOVLB  7
0C1F0:  CLRF   x38
0C1F2:  MOVLW  80
0C1F4:  MOVWF  x37
0C1F6:  MOVLW  3B
0C1F8:  MOVWF  x36
0C1FA:  MOVLW  8B
0C1FC:  MOVWF  x35
0C1FE:  MOVLB  0
0C200:  CALL   1B7E
0C204:  BNC   C218
....................       { 
....................          R1=6200; 
0C206:  MOVLB  6
0C208:  CLRF   x87
0C20A:  MOVLW  C0
0C20C:  MOVWF  x86
0C20E:  MOVLW  41
0C210:  MOVWF  x85
0C212:  MOVLW  8B
0C214:  MOVWF  x84
0C216:  MOVLB  0
....................       } 
....................  
....................          strcpy(Menus.Letra,"R51"); 
0C218:  MOVLW  07
0C21A:  MOVWF  FEA
0C21C:  MOVLW  09
0C21E:  MOVWF  FE9
0C220:  MOVFF  FF2,72D
0C224:  BCF    FF2.7
0C226:  MOVLW  00
0C228:  CALL   151A
0C22C:  TBLRD*-
0C22E:  TBLRD*+
0C230:  MOVF   FF5,W
0C232:  MOVWF  FEE
0C234:  IORLW  00
0C236:  BNZ   C22E
0C238:  MOVLB  7
0C23A:  BTFSC  x2D.7
0C23C:  BSF    FF2.7
....................          displayMenu(Menus.Letra,0,0,1,2); 
0C23E:  MOVLW  07
0C240:  MOVWF  x2E
0C242:  MOVLW  09
0C244:  MOVWF  x2D
0C246:  CLRF   x2F
0C248:  CLRF   x30
0C24A:  MOVLW  01
0C24C:  MOVWF  x31
0C24E:  MOVLW  02
0C250:  MOVWF  x32
0C252:  MOVLB  0
0C254:  CALL   225C
....................           
....................          displayTemperatura(R1,30,30,0,3); 
0C258:  MOVFF  687,730
0C25C:  MOVFF  686,72F
0C260:  MOVFF  685,72E
0C264:  MOVFF  684,72D
0C268:  CALL   2A58
0C26C:  MOVFF  02,72E
0C270:  MOVFF  01,72D
0C274:  MOVFF  02,730
0C278:  MOVFF  01,72F
0C27C:  MOVLW  1E
0C27E:  MOVLB  7
0C280:  MOVWF  x31
0C282:  MOVWF  x32
0C284:  CLRF   x33
0C286:  MOVLW  03
0C288:  MOVWF  x34
0C28A:  MOVLB  0
0C28C:  CALL   498A
....................  
....................          if(UP)//Si oprime hacia arriba 
0C290:  BSF    F92.4
0C292:  BTFSC  F80.4
0C294:  BRA    C2E0
....................          {   
....................             delay_ms(10); 
0C296:  MOVLW  0A
0C298:  MOVLB  7
0C29A:  MOVWF  x33
0C29C:  MOVLB  0
0C29E:  CALL   174A
....................             R1+=1.0; 
0C2A2:  BCF    FD8.1
0C2A4:  MOVFF  687,735
0C2A8:  MOVFF  686,734
0C2AC:  MOVFF  685,733
0C2B0:  MOVFF  684,732
0C2B4:  MOVLB  7
0C2B6:  CLRF   x39
0C2B8:  CLRF   x38
0C2BA:  CLRF   x37
0C2BC:  MOVLW  7F
0C2BE:  MOVWF  x36
0C2C0:  MOVLB  0
0C2C2:  CALL   1906
0C2C6:  MOVFF  03,687
0C2CA:  MOVFF  02,686
0C2CE:  MOVFF  01,685
0C2D2:  MOVFF  00,684
....................             glcd_fillscreen(OFF); 
0C2D6:  MOVLB  7
0C2D8:  CLRF   x2E
0C2DA:  MOVLB  0
0C2DC:  CALL   1C2E
....................          } 
....................                 
....................          if(DOWN)//Si oprime hacia abajo 
0C2E0:  BSF    F92.5
0C2E2:  BTFSC  F80.5
0C2E4:  BRA    C330
....................          {   
....................             delay_ms(10); 
0C2E6:  MOVLW  0A
0C2E8:  MOVLB  7
0C2EA:  MOVWF  x33
0C2EC:  MOVLB  0
0C2EE:  CALL   174A
....................             R1-=1.0; 
0C2F2:  BSF    FD8.1
0C2F4:  MOVFF  687,735
0C2F8:  MOVFF  686,734
0C2FC:  MOVFF  685,733
0C300:  MOVFF  684,732
0C304:  MOVLB  7
0C306:  CLRF   x39
0C308:  CLRF   x38
0C30A:  CLRF   x37
0C30C:  MOVLW  7F
0C30E:  MOVWF  x36
0C310:  MOVLB  0
0C312:  CALL   1906
0C316:  MOVFF  03,687
0C31A:  MOVFF  02,686
0C31E:  MOVFF  01,685
0C322:  MOVFF  00,684
....................             glcd_fillscreen(OFF); 
0C326:  MOVLB  7
0C328:  CLRF   x2E
0C32A:  MOVLB  0
0C32C:  CALL   1C2E
....................          } 
....................                 
....................          if(RIGHT)//Si oprime SET 
0C330:  BSF    F96.0
0C332:  BTFSC  F84.0
0C334:  BRA    C35C
....................          {   
....................             delay_ms(10); 
0C336:  MOVLW  0A
0C338:  MOVLB  7
0C33A:  MOVWF  x33
0C33C:  MOVLB  0
0C33E:  CALL   174A
....................             delay_ms(30);visual=1; 
0C342:  MOVLW  1E
0C344:  MOVLB  7
0C346:  MOVWF  x33
0C348:  MOVLB  0
0C34A:  CALL   174A
0C34E:  MOVLB  6
0C350:  BSF    xDA.2
....................             glcd_fillscreen(OFF); 
0C352:  MOVLB  7
0C354:  CLRF   x2E
0C356:  MOVLB  0
0C358:  CALL   1C2E
....................          }  
....................                    
....................          if(LEFT)//Si oprime boton de Toma. 
0C35C:  BSF    F96.1
0C35E:  BTFSC  F84.1
0C360:  BRA    C44E
....................          { 
....................             delay_ms(10); 
0C362:  MOVLW  0A
0C364:  MOVLB  7
0C366:  MOVWF  x33
0C368:  MOVLB  0
0C36A:  CALL   174A
....................             delay_ms(700);Menu=100;glcd_fillscreen(OFF);Opcion=1;visual=1; 
0C36E:  MOVLW  04
0C370:  MOVLB  7
0C372:  MOVWF  x2D
0C374:  MOVLW  AF
0C376:  MOVWF  x33
0C378:  MOVLB  0
0C37A:  CALL   174A
0C37E:  MOVLB  7
0C380:  DECFSZ x2D,F
0C382:  BRA    C374
0C384:  MOVLW  64
0C386:  MOVLB  6
0C388:  MOVWF  xDE
0C38A:  MOVLB  7
0C38C:  CLRF   x2E
0C38E:  MOVLB  0
0C390:  CALL   1C2E
0C394:  MOVLW  01
0C396:  MOVLB  6
0C398:  MOVWF  xE4
0C39A:  BSF    xDA.2
....................             write_eeprom(30,make8((int16)R1,0)); 
0C39C:  MOVFF  687,730
0C3A0:  MOVFF  686,72F
0C3A4:  MOVFF  685,72E
0C3A8:  MOVFF  684,72D
0C3AC:  MOVLB  0
0C3AE:  CALL   2A58
0C3B2:  MOVFF  02,72E
0C3B6:  MOVFF  01,72D
0C3BA:  MOVFF  72D,72F
0C3BE:  CLRF   FAA
0C3C0:  MOVLW  1E
0C3C2:  MOVWF  FA9
0C3C4:  MOVFF  72F,FA8
0C3C8:  BCF    FA6.6
0C3CA:  BCF    FA6.7
0C3CC:  BSF    FA6.2
0C3CE:  MOVF   FF2,W
0C3D0:  MOVWF  00
0C3D2:  BCF    FF2.7
0C3D4:  MOVLB  F
0C3D6:  MOVLW  55
0C3D8:  MOVWF  FA7
0C3DA:  MOVLW  AA
0C3DC:  MOVWF  FA7
0C3DE:  BSF    FA6.1
0C3E0:  BTFSC  FA6.1
0C3E2:  BRA    C3E0
0C3E4:  BCF    FA6.2
0C3E6:  MOVF   00,W
0C3E8:  IORWF  FF2,F
....................             delay_ms(10); 
0C3EA:  MOVLW  0A
0C3EC:  MOVLB  7
0C3EE:  MOVWF  x33
0C3F0:  MOVLB  0
0C3F2:  CALL   174A
....................             write_eeprom(31,make8((int16)R1,1)); 
0C3F6:  MOVFF  687,730
0C3FA:  MOVFF  686,72F
0C3FE:  MOVFF  685,72E
0C402:  MOVFF  684,72D
0C406:  CALL   2A58
0C40A:  MOVFF  02,72E
0C40E:  MOVFF  01,72D
0C412:  MOVFF  72E,72F
0C416:  CLRF   FAA
0C418:  MOVLW  1F
0C41A:  MOVWF  FA9
0C41C:  MOVFF  72F,FA8
0C420:  BCF    FA6.6
0C422:  BCF    FA6.7
0C424:  BSF    FA6.2
0C426:  MOVF   FF2,W
0C428:  MOVWF  00
0C42A:  BCF    FF2.7
0C42C:  MOVLB  F
0C42E:  MOVLW  55
0C430:  MOVWF  FA7
0C432:  MOVLW  AA
0C434:  MOVWF  FA7
0C436:  BSF    FA6.1
0C438:  BTFSC  FA6.1
0C43A:  BRA    C438
0C43C:  BCF    FA6.2
0C43E:  MOVF   00,W
0C440:  IORWF  FF2,F
....................             delay_ms(10); 
0C442:  MOVLW  0A
0C444:  MOVLB  7
0C446:  MOVWF  x33
0C448:  MOVLB  0
0C44A:  CALL   174A
0C44E:  MOVLB  6
....................          } 
....................      } 
.................... //_-------------------------------------------------------------------------------------------------------------------------------------------------------- 
....................  
.................... //_--------------------------------------------------------------------------------------------------------------------------------------------------------       
....................       if(Menu==110){ // Menu de Ajuste RPT100 
0C450:  MOVF   xDE,W
0C452:  SUBLW  6E
0C454:  BTFSS  FD8.2
0C456:  BRA    C734
....................        
....................       if(RPT100>2.0) 
0C458:  MOVLB  7
0C45A:  CLRF   x34
0C45C:  CLRF   x33
0C45E:  CLRF   x32
0C460:  MOVLW  80
0C462:  MOVWF  x31
0C464:  MOVFF  661,738
0C468:  MOVFF  660,737
0C46C:  MOVFF  65F,736
0C470:  MOVFF  65E,735
0C474:  MOVLB  0
0C476:  CALL   1B7E
0C47A:  BNC   C48A
....................       { 
....................          RPT100=0.5; 
0C47C:  MOVLB  6
0C47E:  CLRF   x61
0C480:  CLRF   x60
0C482:  CLRF   x5F
0C484:  MOVLW  7E
0C486:  MOVWF  x5E
0C488:  MOVLB  0
....................       } 
....................  
....................          strcpy(Menus.Letra,"RPT100"); 
0C48A:  MOVLW  07
0C48C:  MOVWF  FEA
0C48E:  MOVLW  09
0C490:  MOVWF  FE9
0C492:  MOVFF  FF2,72D
0C496:  BCF    FF2.7
0C498:  MOVLW  00
0C49A:  CALL   153C
0C49E:  TBLRD*-
0C4A0:  TBLRD*+
0C4A2:  MOVF   FF5,W
0C4A4:  MOVWF  FEE
0C4A6:  IORLW  00
0C4A8:  BNZ   C4A0
0C4AA:  MOVLB  7
0C4AC:  BTFSC  x2D.7
0C4AE:  BSF    FF2.7
....................          displayMenu(Menus.Letra,0,0,1,2); 
0C4B0:  MOVLW  07
0C4B2:  MOVWF  x2E
0C4B4:  MOVLW  09
0C4B6:  MOVWF  x2D
0C4B8:  CLRF   x2F
0C4BA:  CLRF   x30
0C4BC:  MOVLW  01
0C4BE:  MOVWF  x31
0C4C0:  MOVLW  02
0C4C2:  MOVWF  x32
0C4C4:  MOVLB  0
0C4C6:  CALL   225C
....................           
....................          displayTT(RPT100,30,30,2); 
0C4CA:  MOVFF  661,730
0C4CE:  MOVFF  660,72F
0C4D2:  MOVFF  65F,72E
0C4D6:  MOVFF  65E,72D
0C4DA:  MOVLW  1E
0C4DC:  MOVLB  7
0C4DE:  MOVWF  x31
0C4E0:  MOVWF  x32
0C4E2:  MOVLW  02
0C4E4:  MOVWF  x33
0C4E6:  MOVLB  0
0C4E8:  CALL   4854
....................  
....................          if(UP)//Si oprime hacia arriba 
0C4EC:  BSF    F92.4
0C4EE:  BTFSC  F80.4
0C4F0:  BRA    C542
....................          {   
....................             delay_ms(10); 
0C4F2:  MOVLW  0A
0C4F4:  MOVLB  7
0C4F6:  MOVWF  x33
0C4F8:  MOVLB  0
0C4FA:  CALL   174A
....................             RPT100+=0.1; 
0C4FE:  BCF    FD8.1
0C500:  MOVFF  661,735
0C504:  MOVFF  660,734
0C508:  MOVFF  65F,733
0C50C:  MOVFF  65E,732
0C510:  MOVLW  CD
0C512:  MOVLB  7
0C514:  MOVWF  x39
0C516:  MOVLW  CC
0C518:  MOVWF  x38
0C51A:  MOVLW  4C
0C51C:  MOVWF  x37
0C51E:  MOVLW  7B
0C520:  MOVWF  x36
0C522:  MOVLB  0
0C524:  CALL   1906
0C528:  MOVFF  03,661
0C52C:  MOVFF  02,660
0C530:  MOVFF  01,65F
0C534:  MOVFF  00,65E
....................             glcd_fillscreen(OFF); 
0C538:  MOVLB  7
0C53A:  CLRF   x2E
0C53C:  MOVLB  0
0C53E:  CALL   1C2E
....................          } 
....................                 
....................          if(DOWN)//Si oprime hacia abajo 
0C542:  BSF    F92.5
0C544:  BTFSC  F80.5
0C546:  BRA    C598
....................          {   
....................             delay_ms(10); 
0C548:  MOVLW  0A
0C54A:  MOVLB  7
0C54C:  MOVWF  x33
0C54E:  MOVLB  0
0C550:  CALL   174A
....................             RPT100-=0.1; 
0C554:  BSF    FD8.1
0C556:  MOVFF  661,735
0C55A:  MOVFF  660,734
0C55E:  MOVFF  65F,733
0C562:  MOVFF  65E,732
0C566:  MOVLW  CD
0C568:  MOVLB  7
0C56A:  MOVWF  x39
0C56C:  MOVLW  CC
0C56E:  MOVWF  x38
0C570:  MOVLW  4C
0C572:  MOVWF  x37
0C574:  MOVLW  7B
0C576:  MOVWF  x36
0C578:  MOVLB  0
0C57A:  CALL   1906
0C57E:  MOVFF  03,661
0C582:  MOVFF  02,660
0C586:  MOVFF  01,65F
0C58A:  MOVFF  00,65E
....................             glcd_fillscreen(OFF); 
0C58E:  MOVLB  7
0C590:  CLRF   x2E
0C592:  MOVLB  0
0C594:  CALL   1C2E
....................          } 
....................                 
....................          if(RIGHT)//Si oprime SET 
0C598:  BSF    F96.0
0C59A:  BTFSC  F84.0
0C59C:  BRA    C5C4
....................          {   
....................             delay_ms(10); 
0C59E:  MOVLW  0A
0C5A0:  MOVLB  7
0C5A2:  MOVWF  x33
0C5A4:  MOVLB  0
0C5A6:  CALL   174A
....................             delay_ms(30);visual=1; 
0C5AA:  MOVLW  1E
0C5AC:  MOVLB  7
0C5AE:  MOVWF  x33
0C5B0:  MOVLB  0
0C5B2:  CALL   174A
0C5B6:  MOVLB  6
0C5B8:  BSF    xDA.2
....................             glcd_fillscreen(OFF); 
0C5BA:  MOVLB  7
0C5BC:  CLRF   x2E
0C5BE:  MOVLB  0
0C5C0:  CALL   1C2E
....................          }  
....................                    
....................          if(LEFT)//Si oprime boton de Toma. 
0C5C4:  BSF    F96.1
0C5C6:  BTFSC  F84.1
0C5C8:  BRA    C732
....................          { 
....................             delay_ms(10); 
0C5CA:  MOVLW  0A
0C5CC:  MOVLB  7
0C5CE:  MOVWF  x33
0C5D0:  MOVLB  0
0C5D2:  CALL   174A
....................             delay_ms(700);Menu=100;glcd_fillscreen(OFF);Opcion=1;visual=1; 
0C5D6:  MOVLW  04
0C5D8:  MOVLB  7
0C5DA:  MOVWF  x2D
0C5DC:  MOVLW  AF
0C5DE:  MOVWF  x33
0C5E0:  MOVLB  0
0C5E2:  CALL   174A
0C5E6:  MOVLB  7
0C5E8:  DECFSZ x2D,F
0C5EA:  BRA    C5DC
0C5EC:  MOVLW  64
0C5EE:  MOVLB  6
0C5F0:  MOVWF  xDE
0C5F2:  MOVLB  7
0C5F4:  CLRF   x2E
0C5F6:  MOVLB  0
0C5F8:  CALL   1C2E
0C5FC:  MOVLW  01
0C5FE:  MOVLB  6
0C600:  MOVWF  xE4
0C602:  BSF    xDA.2
....................             write_eeprom(32,(int8)RPT100); 
0C604:  MOVFF  661,730
0C608:  MOVFF  660,72F
0C60C:  MOVFF  65F,72E
0C610:  MOVFF  65E,72D
0C614:  MOVLB  0
0C616:  CALL   2A58
0C61A:  MOVFF  01,72D
0C61E:  CLRF   FAA
0C620:  MOVLW  20
0C622:  MOVWF  FA9
0C624:  MOVFF  72D,FA8
0C628:  BCF    FA6.6
0C62A:  BCF    FA6.7
0C62C:  BSF    FA6.2
0C62E:  MOVF   FF2,W
0C630:  MOVWF  00
0C632:  BCF    FF2.7
0C634:  MOVLB  F
0C636:  MOVLW  55
0C638:  MOVWF  FA7
0C63A:  MOVLW  AA
0C63C:  MOVWF  FA7
0C63E:  BSF    FA6.1
0C640:  BTFSC  FA6.1
0C642:  BRA    C640
0C644:  BCF    FA6.2
0C646:  MOVF   00,W
0C648:  IORWF  FF2,F
....................             delay_ms(10); 
0C64A:  MOVLW  0A
0C64C:  MOVLB  7
0C64E:  MOVWF  x33
0C650:  MOVLB  0
0C652:  CALL   174A
....................             Temporal=RPT100-((int8)RPT100); 
0C656:  MOVFF  661,730
0C65A:  MOVFF  660,72F
0C65E:  MOVFF  65F,72E
0C662:  MOVFF  65E,72D
0C666:  CALL   2A58
0C66A:  MOVLB  7
0C66C:  CLRF   x34
0C66E:  MOVFF  01,733
0C672:  MOVLB  0
0C674:  CALL   1772
0C678:  BSF    FD8.1
0C67A:  MOVFF  661,735
0C67E:  MOVFF  660,734
0C682:  MOVFF  65F,733
0C686:  MOVFF  65E,732
0C68A:  MOVFF  03,739
0C68E:  MOVFF  02,738
0C692:  MOVFF  01,737
0C696:  MOVFF  00,736
0C69A:  CALL   1906
0C69E:  MOVFF  03,665
0C6A2:  MOVFF  02,664
0C6A6:  MOVFF  01,663
0C6AA:  MOVFF  00,662
....................             Temporal=Temporal*10; 
0C6AE:  MOVFF  665,751
0C6B2:  MOVFF  664,750
0C6B6:  MOVFF  663,74F
0C6BA:  MOVFF  662,74E
0C6BE:  MOVLB  7
0C6C0:  CLRF   x55
0C6C2:  CLRF   x54
0C6C4:  MOVLW  20
0C6C6:  MOVWF  x53
0C6C8:  MOVLW  82
0C6CA:  MOVWF  x52
0C6CC:  MOVLB  0
0C6CE:  CALL   25B2
0C6D2:  MOVFF  03,665
0C6D6:  MOVFF  02,664
0C6DA:  MOVFF  01,663
0C6DE:  MOVFF  00,662
....................             write_eeprom(33,(int8)Temporal); 
0C6E2:  MOVFF  665,730
0C6E6:  MOVFF  664,72F
0C6EA:  MOVFF  663,72E
0C6EE:  MOVFF  662,72D
0C6F2:  CALL   2A58
0C6F6:  MOVFF  01,72D
0C6FA:  CLRF   FAA
0C6FC:  MOVLW  21
0C6FE:  MOVWF  FA9
0C700:  MOVFF  72D,FA8
0C704:  BCF    FA6.6
0C706:  BCF    FA6.7
0C708:  BSF    FA6.2
0C70A:  MOVF   FF2,W
0C70C:  MOVWF  00
0C70E:  BCF    FF2.7
0C710:  MOVLB  F
0C712:  MOVLW  55
0C714:  MOVWF  FA7
0C716:  MOVLW  AA
0C718:  MOVWF  FA7
0C71A:  BSF    FA6.1
0C71C:  BTFSC  FA6.1
0C71E:  BRA    C71C
0C720:  BCF    FA6.2
0C722:  MOVF   00,W
0C724:  IORWF  FF2,F
....................             delay_ms(10); 
0C726:  MOVLW  0A
0C728:  MOVLB  7
0C72A:  MOVWF  x33
0C72C:  MOVLB  0
0C72E:  CALL   174A
0C732:  MOVLB  6
....................          } 
....................      } 
.................... //_-------------------------------------------------------------------------------------------------------------------------------------------------------- 
....................  
.................... //_--------------------------------------------------------------------------------------------------------------------------------------------------------       
....................       if(Menu==111){ // Menu de TTrampa 
0C734:  MOVF   xDE,W
0C736:  SUBLW  6F
0C738:  BTFSS  FD8.2
0C73A:  BRA    C88E
....................        
....................       if(TTrampa>100 || TTrampa<50) 
0C73C:  MOVF   x7F,W
0C73E:  SUBLW  64
0C740:  BNC   C748
0C742:  MOVF   x7F,W
0C744:  SUBLW  31
0C746:  BNC   C74C
....................       { 
....................          TTrampa=80; 
0C748:  MOVLW  50
0C74A:  MOVWF  x7F
....................       } 
....................  
....................          strcpy(Menus.Letra,"T. Trampa"); 
0C74C:  MOVLW  07
0C74E:  MOVWF  FEA
0C750:  MOVLW  09
0C752:  MOVWF  FE9
0C754:  MOVFF  FF2,72D
0C758:  BCF    FF2.7
0C75A:  MOVLW  00
0C75C:  MOVLB  0
0C75E:  CALL   1562
0C762:  TBLRD*-
0C764:  TBLRD*+
0C766:  MOVF   FF5,W
0C768:  MOVWF  FEE
0C76A:  IORLW  00
0C76C:  BNZ   C764
0C76E:  MOVLB  7
0C770:  BTFSC  x2D.7
0C772:  BSF    FF2.7
....................          displayMenu(Menus.Letra,0,0,1,2); 
0C774:  MOVLW  07
0C776:  MOVWF  x2E
0C778:  MOVLW  09
0C77A:  MOVWF  x2D
0C77C:  CLRF   x2F
0C77E:  CLRF   x30
0C780:  MOVLW  01
0C782:  MOVWF  x31
0C784:  MOVLW  02
0C786:  MOVWF  x32
0C788:  MOVLB  0
0C78A:  CALL   225C
....................           
....................          displayTemperatura(TTrampa,30,30,0,3); 
0C78E:  MOVLB  7
0C790:  CLRF   x30
0C792:  MOVFF  67F,72F
0C796:  MOVLW  1E
0C798:  MOVWF  x31
0C79A:  MOVWF  x32
0C79C:  CLRF   x33
0C79E:  MOVLW  03
0C7A0:  MOVWF  x34
0C7A2:  MOVLB  0
0C7A4:  CALL   498A
....................  
....................          if(UP)//Si oprime hacia arriba 
0C7A8:  BSF    F92.4
0C7AA:  BTFSC  F80.4
0C7AC:  BRA    C7C8
....................          {   
....................             delay_ms(10); 
0C7AE:  MOVLW  0A
0C7B0:  MOVLB  7
0C7B2:  MOVWF  x33
0C7B4:  MOVLB  0
0C7B6:  CALL   174A
....................             TTrampa++; 
0C7BA:  MOVLB  6
0C7BC:  INCF   x7F,F
....................             glcd_fillscreen(OFF); 
0C7BE:  MOVLB  7
0C7C0:  CLRF   x2E
0C7C2:  MOVLB  0
0C7C4:  CALL   1C2E
....................          } 
....................                 
....................          if(DOWN)//Si oprime hacia abajo 
0C7C8:  BSF    F92.5
0C7CA:  BTFSC  F80.5
0C7CC:  BRA    C7E8
....................          {   
....................             delay_ms(10); 
0C7CE:  MOVLW  0A
0C7D0:  MOVLB  7
0C7D2:  MOVWF  x33
0C7D4:  MOVLB  0
0C7D6:  CALL   174A
....................             TTrampa--; 
0C7DA:  MOVLB  6
0C7DC:  DECF   x7F,F
....................             glcd_fillscreen(OFF); 
0C7DE:  MOVLB  7
0C7E0:  CLRF   x2E
0C7E2:  MOVLB  0
0C7E4:  CALL   1C2E
....................          } 
....................                 
....................          if(RIGHT)//Si oprime SET 
0C7E8:  BSF    F96.0
0C7EA:  BTFSC  F84.0
0C7EC:  BRA    C814
....................          {   
....................             delay_ms(10); 
0C7EE:  MOVLW  0A
0C7F0:  MOVLB  7
0C7F2:  MOVWF  x33
0C7F4:  MOVLB  0
0C7F6:  CALL   174A
....................             delay_ms(30);visual=1; 
0C7FA:  MOVLW  1E
0C7FC:  MOVLB  7
0C7FE:  MOVWF  x33
0C800:  MOVLB  0
0C802:  CALL   174A
0C806:  MOVLB  6
0C808:  BSF    xDA.2
....................             glcd_fillscreen(OFF); 
0C80A:  MOVLB  7
0C80C:  CLRF   x2E
0C80E:  MOVLB  0
0C810:  CALL   1C2E
....................          }  
....................                    
....................          if(LEFT)//Si oprime boton de Toma. 
0C814:  BSF    F96.1
0C816:  BTFSC  F84.1
0C818:  BRA    C88C
....................          { 
....................             delay_ms(10); 
0C81A:  MOVLW  0A
0C81C:  MOVLB  7
0C81E:  MOVWF  x33
0C820:  MOVLB  0
0C822:  CALL   174A
....................             delay_ms(700);Menu=100;glcd_fillscreen(OFF);Opcion=1;visual=1; 
0C826:  MOVLW  04
0C828:  MOVLB  7
0C82A:  MOVWF  x2D
0C82C:  MOVLW  AF
0C82E:  MOVWF  x33
0C830:  MOVLB  0
0C832:  CALL   174A
0C836:  MOVLB  7
0C838:  DECFSZ x2D,F
0C83A:  BRA    C82C
0C83C:  MOVLW  64
0C83E:  MOVLB  6
0C840:  MOVWF  xDE
0C842:  MOVLB  7
0C844:  CLRF   x2E
0C846:  MOVLB  0
0C848:  CALL   1C2E
0C84C:  MOVLW  01
0C84E:  MOVLB  6
0C850:  MOVWF  xE4
0C852:  BSF    xDA.2
....................             write_eeprom(39,TTrampa); 
0C854:  CLRF   FAA
0C856:  MOVLW  27
0C858:  MOVWF  FA9
0C85A:  MOVFF  67F,FA8
0C85E:  BCF    FA6.6
0C860:  BCF    FA6.7
0C862:  BSF    FA6.2
0C864:  MOVF   FF2,W
0C866:  MOVWF  00
0C868:  BCF    FF2.7
0C86A:  MOVLB  F
0C86C:  MOVLW  55
0C86E:  MOVWF  FA7
0C870:  MOVLW  AA
0C872:  MOVWF  FA7
0C874:  BSF    FA6.1
0C876:  BTFSC  FA6.1
0C878:  BRA    C876
0C87A:  BCF    FA6.2
0C87C:  MOVF   00,W
0C87E:  IORWF  FF2,F
....................             delay_ms(10); 
0C880:  MOVLW  0A
0C882:  MOVLB  7
0C884:  MOVWF  x33
0C886:  MOVLB  0
0C888:  CALL   174A
0C88C:  MOVLB  6
....................          } 
....................      } 
.................... //_-------------------------------------------------------------------------------------------------------------------------------------------------------- 
....................  
....................   while(Menu==200) 
....................  { 
0C88E:  MOVF   xDE,W
0C890:  SUBLW  C8
0C892:  BNZ   C97E
....................     
....................    displayTiempo(txbuf[0],0,10,2,1); 
0C894:  MOVFF  417,72D
0C898:  MOVLB  7
0C89A:  CLRF   x2E
0C89C:  MOVLW  0A
0C89E:  MOVWF  x2F
0C8A0:  MOVLW  02
0C8A2:  MOVWF  x30
0C8A4:  MOVLW  01
0C8A6:  MOVWF  x31
0C8A8:  MOVLB  0
0C8AA:  CALL   39C0
....................    displayTiempo(txbuf[1],0,20,2,1); 
0C8AE:  MOVFF  418,72D
0C8B2:  MOVLB  7
0C8B4:  CLRF   x2E
0C8B6:  MOVLW  14
0C8B8:  MOVWF  x2F
0C8BA:  MOVLW  02
0C8BC:  MOVWF  x30
0C8BE:  MOVLW  01
0C8C0:  MOVWF  x31
0C8C2:  MOVLB  0
0C8C4:  CALL   39C0
....................    displayTiempo(txbuf[2],0,30,2,1); 
0C8C8:  MOVFF  419,72D
0C8CC:  MOVLB  7
0C8CE:  CLRF   x2E
0C8D0:  MOVLW  1E
0C8D2:  MOVWF  x2F
0C8D4:  MOVLW  02
0C8D6:  MOVWF  x30
0C8D8:  MOVLW  01
0C8DA:  MOVWF  x31
0C8DC:  MOVLB  0
0C8DE:  CALL   39C0
....................    displayTiempo(txbuf[3],0,40,2,1); 
0C8E2:  MOVFF  41A,72D
0C8E6:  MOVLB  7
0C8E8:  CLRF   x2E
0C8EA:  MOVLW  28
0C8EC:  MOVWF  x2F
0C8EE:  MOVLW  02
0C8F0:  MOVWF  x30
0C8F2:  MOVLW  01
0C8F4:  MOVWF  x31
0C8F6:  MOVLB  0
0C8F8:  CALL   39C0
....................    displayTiempo(SlaveA0Tx[0],0,50,2,1); 
0C8FC:  MOVFF  437,72D
0C900:  MOVLB  7
0C902:  CLRF   x2E
0C904:  MOVLW  32
0C906:  MOVWF  x2F
0C908:  MOVLW  02
0C90A:  MOVWF  x30
0C90C:  MOVLW  01
0C90E:  MOVWF  x31
0C910:  MOVLB  0
0C912:  CALL   39C0
....................    Lectura_Esclavos(); 
0C916:  CALL   31E0
....................    Envio_Esclavos(); 
0C91A:  CALL   2C82
....................    Opcion++; 
0C91E:  MOVLB  6
0C920:  INCF   xE4,F
....................    displayTiempo(SlaveA0Tx[1],50,10,2,1); 
0C922:  MOVFF  438,72D
0C926:  MOVLW  32
0C928:  MOVLB  7
0C92A:  MOVWF  x2E
0C92C:  MOVLW  0A
0C92E:  MOVWF  x2F
0C930:  MOVLW  02
0C932:  MOVWF  x30
0C934:  MOVLW  01
0C936:  MOVWF  x31
0C938:  MOVLB  0
0C93A:  CALL   39C0
....................    displayTiempo(SlaveA0Tx[2],50,20,2,1); 
0C93E:  MOVFF  439,72D
0C942:  MOVLW  32
0C944:  MOVLB  7
0C946:  MOVWF  x2E
0C948:  MOVLW  14
0C94A:  MOVWF  x2F
0C94C:  MOVLW  02
0C94E:  MOVWF  x30
0C950:  MOVLW  01
0C952:  MOVWF  x31
0C954:  MOVLB  0
0C956:  CALL   39C0
....................    displayTiempo(SlaveA0Tx[3],50,30,2,1);      
0C95A:  MOVFF  43A,72D
0C95E:  MOVLW  32
0C960:  MOVLB  7
0C962:  MOVWF  x2E
0C964:  MOVLW  1E
0C966:  MOVWF  x2F
0C968:  MOVLW  02
0C96A:  MOVWF  x30
0C96C:  MOVLW  01
0C96E:  MOVWF  x31
0C970:  MOVLB  0
0C972:  CALL   39C0
....................    glcd_update(); 
0C976:  CALL   1C88
....................  } 
0C97A:  MOVLB  6
0C97C:  BRA    C88E
....................   
....................  //_--------------------------------------------------------------------------------------------------------------------------------------------------------       
....................       if(Menu==211){ // Menu de Ciclos 
0C97E:  MOVF   xDE,W
0C980:  SUBLW  D3
0C982:  BNZ   CA58
....................          strcpy(Menus.Letra,"Ciclos"); 
0C984:  MOVLW  07
0C986:  MOVWF  FEA
0C988:  MOVLW  09
0C98A:  MOVWF  FE9
0C98C:  MOVFF  FF2,72D
0C990:  BCF    FF2.7
0C992:  MOVLW  00
0C994:  MOVLB  0
0C996:  CALL   158A
0C99A:  TBLRD*-
0C99C:  TBLRD*+
0C99E:  MOVF   FF5,W
0C9A0:  MOVWF  FEE
0C9A2:  IORLW  00
0C9A4:  BNZ   C99C
0C9A6:  MOVLB  7
0C9A8:  BTFSC  x2D.7
0C9AA:  BSF    FF2.7
....................          displayMenu(Menus.Letra,0,0,1,2); 
0C9AC:  MOVLW  07
0C9AE:  MOVWF  x2E
0C9B0:  MOVLW  09
0C9B2:  MOVWF  x2D
0C9B4:  CLRF   x2F
0C9B6:  CLRF   x30
0C9B8:  MOVLW  01
0C9BA:  MOVWF  x31
0C9BC:  MOVLW  02
0C9BE:  MOVWF  x32
0C9C0:  MOVLB  0
0C9C2:  CALL   225C
....................           
....................          displayTiempo(Ciclos,30,30,0,3);  
0C9C6:  MOVFF  6F5,72D
0C9CA:  MOVLW  1E
0C9CC:  MOVLB  7
0C9CE:  MOVWF  x2E
0C9D0:  MOVWF  x2F
0C9D2:  CLRF   x30
0C9D4:  MOVLW  03
0C9D6:  MOVWF  x31
0C9D8:  MOVLB  0
0C9DA:  CALL   39C0
....................                    
....................          if(RIGHT && LEFT)//Si oprime boton de Toma. 
0C9DE:  BSF    F96.0
0C9E0:  BTFSC  F84.0
0C9E2:  BRA    CA58
0C9E4:  BSF    F96.1
0C9E6:  BTFSC  F84.1
0C9E8:  BRA    CA58
....................          { 
....................             write_eeprom(37,0); 
0C9EA:  CLRF   FAA
0C9EC:  MOVLW  25
0C9EE:  MOVWF  FA9
0C9F0:  CLRF   FA8
0C9F2:  BCF    FA6.6
0C9F4:  BCF    FA6.7
0C9F6:  BSF    FA6.2
0C9F8:  MOVF   FF2,W
0C9FA:  MOVWF  00
0C9FC:  BCF    FF2.7
0C9FE:  MOVLB  F
0CA00:  MOVLW  55
0CA02:  MOVWF  FA7
0CA04:  MOVLW  AA
0CA06:  MOVWF  FA7
0CA08:  BSF    FA6.1
0CA0A:  BTFSC  FA6.1
0CA0C:  BRA    CA0A
0CA0E:  BCF    FA6.2
0CA10:  MOVF   00,W
0CA12:  IORWF  FF2,F
....................             delay_ms(20); 
0CA14:  MOVLW  14
0CA16:  MOVLB  7
0CA18:  MOVWF  x33
0CA1A:  MOVLB  0
0CA1C:  CALL   174A
....................             write_eeprom(38,0); 
0CA20:  CLRF   FAA
0CA22:  MOVLW  26
0CA24:  MOVWF  FA9
0CA26:  CLRF   FA8
0CA28:  BCF    FA6.6
0CA2A:  BCF    FA6.7
0CA2C:  BSF    FA6.2
0CA2E:  MOVF   FF2,W
0CA30:  MOVWF  00
0CA32:  BCF    FF2.7
0CA34:  MOVLB  F
0CA36:  MOVLW  55
0CA38:  MOVWF  FA7
0CA3A:  MOVLW  AA
0CA3C:  MOVWF  FA7
0CA3E:  BSF    FA6.1
0CA40:  BTFSC  FA6.1
0CA42:  BRA    CA40
0CA44:  BCF    FA6.2
0CA46:  MOVF   00,W
0CA48:  IORWF  FF2,F
....................             delay_ms(20); 
0CA4A:  MOVLW  14
0CA4C:  MOVLB  7
0CA4E:  MOVWF  x33
0CA50:  MOVLB  0
0CA52:  CALL   174A
....................             reset_cpu(); 
0CA56:  RESET
....................          } 
....................      } 
.................... //_--------------------------------------------------------------------------------------------------------------------------------------------------------     
....................    } 
0CA58:  MOVLB  0
0CA5A:  GOTO   5D40
.................... } 
0CA5E:  SLEEP 

Configuration Fuses:
   Word  1: 0200   HS NOIESO NOFCMEN
   Word  2: 1E1F   BROWNOUT NOWDT BORV20 NOPUT WDT32768
   Word  3: 0000   NOPBADEN NOLPT1OSC NOMCLR
   Word  4: 00B0   NOSTVREN NODEBUG NOLVP NOXINST BBSIZ4K
   Word  5: C03F   NOPROTECT NOCPD NOCPB
   Word  6: E03F   NOWRT NOWRTD NOWRTC NOWRTB
   Word  7: 403F   NOEBTR NOEBTRB
