CCS PCH C Compiler, Version 4.104, 5967               31-ene.-20 17:30

               Filename: D:\Laboratorio\Autoclave\Autoclave Horizontal\Con Precamara\2019\Autoclave 250L Doble Puerta UCC#0045879XX\FirmwareV2.0.0\NextionController\GLCD_Controller.lst

               ROM used: 60894 bytes (62%)
                         Largest free fragment is 32768
               RAM used: 1713 (51%) at main() level
                         1740 (52%) worst case
               Stack:    5 worst case (4 in main + 1 for interrupts)

*
00000:  GOTO   7858
*
00008:  GOTO   00AE
0000C:  NOP   
0000E:  NOP   
00010:  NOP   
00012:  NOP   
00014:  NOP   
00016:  NOP   
00018:  MOVWF  04
0001A:  MOVFF  FD8,05
0001E:  MOVFF  FE0,06
00022:  MOVLB  0
00024:  MOVFF  FE9,0C
00028:  MOVFF  FEA,07
0002C:  MOVFF  FE1,08
00030:  MOVFF  FE2,09
00034:  MOVFF  FD9,0A
00038:  MOVFF  FDA,0B
0003C:  MOVFF  FF3,12
00040:  MOVFF  FF4,13
00044:  MOVFF  FFA,14
00048:  MOVFF  FFB,15
0004C:  MOVFF  00,0E
00050:  MOVFF  01,0F
00054:  MOVFF  02,10
00058:  MOVFF  03,11
0005C:  BTFSS  F9D.0
0005E:  GOTO   0068
00062:  BTFSC  F9E.0
00064:  GOTO   05A2
00068:  MOVFF  0E,00
0006C:  MOVFF  0F,01
00070:  MOVFF  10,02
00074:  MOVFF  11,03
00078:  MOVFF  0C,FE9
0007C:  MOVFF  07,FEA
00080:  BSF    07.7
00082:  MOVFF  08,FE1
00086:  MOVFF  09,FE2
0008A:  MOVFF  0A,FD9
0008E:  MOVFF  0B,FDA
00092:  MOVFF  12,FF3
00096:  MOVFF  13,FF4
0009A:  MOVFF  14,FFA
0009E:  MOVFF  15,FFB
000A2:  MOVF   04,W
000A4:  MOVFF  06,FE0
000A8:  MOVFF  05,FD8
000AC:  RETFIE 0
000AE:  MOVWF  17
000B0:  MOVFF  FD8,18
000B4:  MOVFF  FE0,19
000B8:  MOVLB  0
000BA:  MOVFF  FE9,1F
000BE:  MOVFF  FEA,1A
000C2:  MOVFF  FE1,1B
000C6:  MOVFF  FE2,1C
000CA:  MOVFF  FD9,1D
000CE:  MOVFF  FDA,1E
000D2:  MOVFF  FF3,25
000D6:  MOVFF  FF4,26
000DA:  MOVFF  FFA,27
000DE:  MOVFF  FFB,28
000E2:  MOVFF  00,21
000E6:  MOVFF  01,22
000EA:  MOVFF  02,23
000EE:  MOVFF  03,24
000F2:  BTFSS  F9D.5
000F4:  GOTO   00FE
000F8:  BTFSC  F9E.5
000FA:  GOTO   053E
000FE:  MOVFF  21,00
00102:  MOVFF  22,01
00106:  MOVFF  23,02
0010A:  MOVFF  24,03
0010E:  MOVFF  1F,FE9
00112:  MOVFF  1A,FEA
00116:  BSF    1A.7
00118:  MOVFF  1B,FE1
0011C:  MOVFF  1C,FE2
00120:  MOVFF  1D,FD9
00124:  MOVFF  1E,FDA
00128:  MOVFF  25,FF3
0012C:  MOVFF  26,FF4
00130:  MOVFF  27,FFA
00134:  MOVFF  28,FFB
00138:  MOVF   17,W
0013A:  MOVFF  19,FE0
0013E:  MOVFF  18,FD8
00142:  RETFIE 0
.................... //Falta crear menu de ajuste de variables y de norma CFR21 
.................... //Falta revisar niveles de agua con variable calderin lleno de bomba de agua 
....................  
.................... #include <18F4685.h> 
.................... //////// Standard Header file for the PIC18F4685 device //////////////// 
.................... #device PIC18F4685 
.................... #list 
....................  
.................... #device adc=10 
.................... #device HIGH_INTS=TRUE //Activamos niveles de prioridad 
.................... #fuses HS,WDT8192,NOPROTECT,NOLVP,NODEBUG,NOSTVREN,NOPUT,NOCPD,NOWRT,NOIESO,NOFCMEN,NOPBADEN,NOWRTC,NOWRTB,NOEBTR,NOEBTRB,NOCPB,NOXINST,NOLPT1OSC,NOMCLR 
.................... #use delay(clock=20000000) 
*
01F70:  MOVLW  06
01F72:  MOVWF  FEA
01F74:  MOVLW  BA
01F76:  MOVWF  FE9
01F78:  MOVF   FEF,W
01F7A:  BZ    1F96
01F7C:  MOVLW  06
01F7E:  MOVWF  01
01F80:  CLRF   00
01F82:  DECFSZ 00,F
01F84:  BRA    1F82
01F86:  DECFSZ 01,F
01F88:  BRA    1F80
01F8A:  MOVLW  7B
01F8C:  MOVWF  00
01F8E:  DECFSZ 00,F
01F90:  BRA    1F8E
01F92:  DECFSZ FEF,F
01F94:  BRA    1F7C
01F96:  RETLW  00
.................... #use i2c(Master,slow,sda=PIN_C4,scl=PIN_C3) 
.................... #use rs232(baud=9600, xmit=PIN_C6, rcv=PIN_C7, bits=8, parity=N) 
*
0401C:  BTFSS  F9E.4
0401E:  BRA    401C
04020:  MOVWF  FAD
04022:  RETLW  00
.................... #include <stdio.h> 
.................... /////////////////////////////////////////////////////////////////////////// 
.................... ////        (C) Copyright 1996,2003 Custom Computer Services           //// 
.................... //// This source code may only be used by licensed users of the CCS C  //// 
.................... //// compiler.  This source code may only be distributed to other      //// 
.................... //// licensed users of the CCS C compiler.  No other use, reproduction //// 
.................... //// or distribution is permitted without written permission.          //// 
.................... //// Derivative programs created using this software in object code    //// 
.................... //// form are not restricted in any way.                               //// 
.................... /////////////////////////////////////////////////////////////////////////// 
....................  
.................... #ifndef _STDIO 
.................... #define _STDIO 
.................... #include <string.h> 
.................... //////////////////////////////////////////////////////////////////////////// 
.................... ////        (C) Copyright 1996,2008 Custom Computer Services            //// 
.................... //// This source code may only be used by licensed users of the CCS C   //// 
.................... //// compiler.  This source code may only be distributed to other       //// 
.................... //// licensed users of the CCS C compiler.  No other use, reproduction  //// 
.................... //// or distribution is permitted without written permission.           //// 
.................... //// Derivative programs created using this software in object code     //// 
.................... //// form are not restricted in any way.                                //// 
.................... //////////////////////////////////////////////////////////////////////////// 
....................  
.................... #ifndef _STRING 
.................... #define _STRING 
.................... #include <stddef.h> 
.................... /////////////////////////////////////////////////////////////////////////// 
.................... ////        (C) Copyright 1996,2003 Custom Computer Services           //// 
.................... //// This source code may only be used by licensed users of the CCS C  //// 
.................... //// compiler.  This source code may only be distributed to other      //// 
.................... //// licensed users of the CCS C compiler.  No other use, reproduction //// 
.................... //// or distribution is permitted without written permission.          //// 
.................... //// Derivative programs created using this software in object code    //// 
.................... //// form are not restricted in any way.                               //// 
.................... /////////////////////////////////////////////////////////////////////////// 
....................  
.................... #ifndef _STDDEF 
....................  
.................... #define _STDDEF 
....................  
.................... #if sizeof(unsigned int8 *)==1 
.................... #define ptrdiff_t unsigned int8 
.................... #else 
.................... #define ptrdiff_t unsigned int16 
.................... #endif 
....................  
.................... #define size_t unsigned int8 
.................... #define wchar_t char 
.................... #define NULL 0 
....................  
.................... #define offsetof(s,f) (offsetofbit(s,f)/8) 
....................  
.................... #endif 
....................  
.................... #include <ctype.h> 
.................... //////////////////////////////////////////////////////////////////////////// 
.................... ////        (C) Copyright 1996,2003 Custom Computer Services            //// 
.................... //// This source code may only be used by licensed users of the CCS C   //// 
.................... //// compiler.  This source code may only be distributed to other       //// 
.................... //// licensed users of the CCS C compiler.  No other use, reproduction  //// 
.................... //// or distribution is permitted without written permission.           //// 
.................... //// Derivative programs created using this software in object code     //// 
.................... //// form are not restricted in any way.                                //// 
.................... //////////////////////////////////////////////////////////////////////////// 
....................  
.................... #ifndef _CTYPE 
.................... #define _CTYPE 
....................  
.................... #define islower(x)  isamong(x,"abcdefghijklmnopqrstuvwxyz") 
.................... #define isupper(x)  isamong(x,"ABCDEFGHIJKLMNOPQRSTUVWXYZ") 
.................... #define isalnum(x)  isamong(x,"0123456789ABCDEFGHIJKLMNOPQRSTUVWXYZabcdefghijklmnopqrstuvwxyz") 
.................... #define isalpha(x)  isamong(x,"ABCDEFGHIJKLMNOPQRSTUVWXYZabcdefghijklmnopqrstuvwxyz") 
.................... #define isdigit(x)  isamong(x,"0123456789") 
.................... #define isspace(x)  ((x)==' ') 
.................... #define isxdigit(x) isamong(x,"0123456789ABCDEFabcdef") 
.................... #define iscntrl(x)  ((x)<' ') 
.................... #define isprint(x)  ((x)>=' ') 
.................... #define isgraph(x)  ((x)>' ') 
.................... #define ispunct(x)  (((x)>' ')&&!isalnum(x)) 
....................  
.................... #endif 
....................  
....................  
....................  
....................  
....................  
.................... ////////////////////////////////////////////// 
.................... //// Uncomment the following define to    //// 
.................... //// allow some functions to use a        //// 
.................... //// quicker algorithm, but use more ROM  //// 
.................... ////                                      //// 
.................... //// #define FASTER_BUT_MORE_ROM          //// 
.................... ////////////////////////////////////////////// 
....................  
....................  
....................  
.................... /*Copying functions*/ 
.................... /* standard template: 
....................    void *memmove(void *s1, void *s2, size_t n). 
....................    Copies max of n characters safely (not following ending '\0') 
....................    from s2 in s1; if s2 has less than n characters, appends 0 */ 
....................  
.................... char *memmove(void *s1,char *s2,size_t n) 
.................... { 
....................    char *sc1; 
....................    char *sc2; 
....................    sc1=s1; 
....................    sc2=s2; 
....................    if(sc2<sc1 && sc1 <sc2 +n) 
....................       for(sc1+=n,sc2+=n;0<n;--n) 
....................          *--sc1=*--sc2; 
....................    else 
....................       for(;0<n;--n) 
....................          *sc1++=*sc2++; 
....................   return s1; 
....................   } 
....................  
.................... /* Standard template: char *strcpy(char *s1, const char *s2) 
....................    copies the string s2 including the null character to s1. 
....................    This is a compiler built in to handle the different address 
....................    spaces */ 
....................  
.................... #define strcopy strcpy 
....................  
.................... /* standard template: 
....................    char *strncpy(char *s1, const char *s2, size_t n). 
....................    Copies max of n characters (not following ending '\0') 
....................    from s2 in s1; if s2 has less than n characters, appends 0 */ 
....................  
.................... char *strncpy(char *s1, char *s2, size_t n) 
.................... { 
....................   char *s; 
....................  
....................   for (s = s1; n > 0 && *s2 != '\0'; n--) 
....................      *s++ = *s2++; 
....................   for (; n > 0; n--) 
....................      *s++ = '\0'; 
....................  
....................   return(s1); 
.................... } 
.................... /***********************************************************/ 
....................  
.................... /*concatenation functions*/ 
.................... /* standard template: char *strcat(char *s1, const char *s2) 
.................... appends s2 to s1*/ 
....................  
.................... char *strcat(char *s1, char *s2) 
.................... { 
....................    char *s; 
....................  
....................    for (s = s1; *s != '\0'; ++s); 
....................    while(*s2 != '\0') 
....................    { 
....................       *s = *s2; 
....................       ++s; 
....................       ++s2; 
....................    } 
....................  
....................    *s = '\0'; 
....................    return(s1); 
.................... } 
.................... /* standard template: char *strncat(char *s1, char *s2,size_t n) 
.................... appends not more than n characters from s2 to s1*/ 
....................  
.................... char *strncat(char *s1, char *s2, size_t n) 
.................... { 
....................    char *s; 
....................  
....................    for (s = s1; *s != '\0'; ++s); 
....................    while(*s2 != '\0' && 0<n) 
....................    { 
....................       *s = *s2; 
....................       ++s; 
....................       ++s2; 
....................       --n; 
....................    } 
....................  
....................    *s = '\0'; 
....................    return(s1); 
.................... } 
....................  
.................... /***********************************************************/ 
....................  
....................  
.................... /*comparison functions*/ 
.................... /* standard template: signed int memcmp(void *s1, void *s2). 
....................    Compares s1 & s2; returns -1 if s1<s2, 0 if s1=s2, 1 if s1>s2 */ 
....................  
.................... signed int8 memcmp(void * s1,char *s2,size_t n) 
.................... { 
.................... char *su1, *su2; 
.................... for(su1=s1, su2=s2; 0<n; ++su1, ++su2, --n) 
.................... { 
....................    if(*su1!=*su2) 
....................       return ((*su1<*su2)?-1:+1); 
.................... } 
.................... return 0; 
.................... } 
....................  
.................... /* standard template: int strcmp(const char *s1, const char *s2). 
....................    Compares s1 & s2; returns -1 if s1<s2, 0 if s1=s2, 1 if s1>s2 */ 
....................  
.................... signed int8 strcmp(char *s1, char *s2) 
.................... { 
....................    for (; *s1 == *s2; s1++, s2++) 
....................       if (*s1 == '\0') 
....................          return(0); 
....................    return((*s1 < *s2) ? -1: 1); 
.................... } 
.................... /* standard template: int strcoll(const char *s1, const char *s2). 
....................    Compares s1 & s2; returns -1 if s1<s2, 0 if s1=s2, 1 if s1>s2 */ 
....................  
.................... signed int8 strcoll(char *s1, char *s2) 
.................... { 
....................    for (; *s1 == *s2; s1++, s2++) 
....................       if (*s1 == '\0') 
....................          return(0); 
....................    return((*s1 < *s2) ? -1: 1); 
.................... } 
....................  
.................... /* standard template: 
....................    int strncmp(const char *s1, const char *s2, size_t n). 
....................    Compares max of n characters (not following 0) from s1 to s2; 
....................    returns same as strcmp */ 
....................  
.................... signed int8 strncmp(char *s1, char *s2, size_t n) 
.................... { 
....................    for (; n > 0; s1++, s2++, n--) 
....................       if (*s1 != *s2) 
....................          return((*s1 <*s2) ? -1: 1); 
....................       else if (*s1 == '\0') 
....................          return(0); 
....................    return(0); 
.................... } 
.................... /* standard template: 
....................    int strxfrm(const char *s1, const char *s2, size_t n). 
....................    transforms maximum of n characters from s2 and places them into s1*/ 
.................... size_t strxfrm(char *s1, char *s2, size_t n) 
.................... { 
....................   char *s; 
....................   unsigned int8 n1; 
....................   n1=n; 
....................   for (s = s1; n > 0 && *s2 != '\0'; n--) 
....................      *s++ = *s2++; 
....................   for (; n > 0; n--) 
....................      *s++ = '\0'; 
....................  
....................   return(n1); 
.................... } 
....................  
....................  
....................  
....................  
....................  
.................... /***********************************************************/ 
.................... /*Search functions*/ 
.................... /* standard template: void *memchr(const char *s, int c). 
....................    Finds first occurrence of c in n characters of s */ 
....................  
.................... char *memchr(void *s,unsigned int8 c,size_t n) 
.................... { 
....................    char uc; 
....................    char *su; 
....................    uc=c; 
....................    for(su=s;0<n;++su,--n) 
....................       if(*su==uc) 
....................       return su; 
....................    return NULL; 
.................... } 
....................  
.................... /* standard template: char *strchr(const char *s, int c). 
....................    Finds first occurrence of c in s */ 
....................  
.................... char *strchr(char *s, unsigned int8 c) 
.................... { 
....................    for (; *s != c; s++) 
....................       if (*s == '\0') 
....................          return(0); 
....................    return(s); 
.................... } 
.................... /* standard template: 
....................    size_t strcspn(const char *s1, const char *s2). 
....................    Computes length of max initial segment of s1 that 
....................    consists entirely of characters NOT from s2*/ 
....................  
.................... unsigned int8  strcspn(char *s1, char *s2) 
.................... { 
....................    char *sc1, *sc2; 
....................  
....................    for (sc1 = s1; *sc1 != 0; sc1++) 
....................       for (sc2 = s2; *sc2 != 0; sc2++) 
....................          if (*sc1 == *sc2) 
....................             return(sc1 - s1); 
....................    return(sc1 - s1); 
.................... } 
.................... /* standard template: 
....................    char *strpbrk(const char *s1, const char *s2). 
....................    Locates first occurence of any character from s2 in s1; 
....................    returns s1 if s2 is empty string */ 
....................  
.................... char *strpbrk(char *s1, char *s2) 
.................... { 
....................    char *sc1, *sc2; 
....................  
....................    for (sc1 = s1; *sc1 != 0; sc1++) 
....................       for (sc2 = s2; *sc2 != 0; sc2++) 
....................          if (*sc1 == *sc2) 
....................             return(sc1); 
....................    return(0); 
.................... } 
....................  
....................  
.................... /* standard template: char *strrchr(const char *s, int c). 
....................    Finds last occurrence of c in s */ 
....................  
.................... char *strrchr(char *s, unsigned int8 c) 
.................... { 
....................    char *p; 
....................  
....................    for (p = 0; ; s++) 
....................    { 
....................       if (*s == c) 
....................          p = s; 
....................       if (*s == '\0') 
....................          return(p); 
....................    } 
.................... } 
.................... /* computes length of max initial segment of s1 consisting 
....................    entirely of characters from s2 */ 
....................  
.................... unsigned int8  strspn(char *s1, char *s2) 
.................... { 
....................    char *sc1, *sc2; 
....................  
....................    for (sc1 = s1; *sc1 != 0; sc1++) 
....................       for (sc2 = s2; ; sc2++) 
....................     if (*sc2 == '\0') 
....................        return(sc1 - s1); 
....................          else if (*sc1 == *sc2) 
....................             break; 
....................    return(sc1 - s1); 
.................... } 
.................... /* standard template: 
....................    char *strstr(const char *s1, const char *s2); 
....................    Locates first occurence of character sequence s2 in s1; 
....................    returns 0 if s2 is empty string 
....................  
....................    Uncomment #define FASTER_BUT_MORE_ROM at the top of the 
....................    file to use the faster algorithm */ 
.................... char *strstr(char *s1, char *s2) 
.................... { 
....................    char *s, *t; 
....................  
....................    #ifdef FASTER_BUT_MORE_ROM 
....................    if (*s2 == '\0') 
....................          return(s1); 
....................    #endif 
....................  
....................    while (*s1) 
....................    { 
....................       for(s = s1, t = s2; *t && (*s == *t); ++s, ++t); 
....................  
....................       if (*t == '\0') 
....................          return s1; 
....................       ++s1; 
....................       #ifdef FASTER_BUT_MORE_ROM 
....................          while(*s1 != '\0' && *s1 != *s2) 
....................             ++s1; 
....................       #endif 
....................    } 
....................    return 0; 
.................... } 
....................  
.................... /* standard template: char *strtok(char *s1, const char *s2). 
....................  
....................    Finds next token in s1 delimited by a character from separator 
....................    string s2 (which can be different from call to call).  First call 
....................    starts at beginning of s1 searching for first character NOT 
....................    contained in s2; returns 0 if none is found. 
....................    If one is found, it is the start of first token (return value). 
....................    Function then searches from there for a character contained in s2. 
....................    If none is found, current token extends to end of s1, and subsequent 
....................    searches for a token will return 0.  If one is found, it is 
....................    overwritten by '\0', which terminates current token.  Function saves 
....................    pointer to following character from which next search will start. 
....................    Each subsequent call, with 0 as first argument, starts searching 
....................    from saved pointer */ 
....................  
.................... char *strtok(char *s1, char *s2) 
.................... { 
....................    char *beg, *end; 
....................    static char *save; 
....................  
....................    beg = (s1)? s1: save; 
....................    beg += strspn(beg, s2); 
....................    if (*beg == '\0') 
....................    { 
....................       *save = ' '; 
....................       return(0); 
....................    } 
....................    end = strpbrk(beg, s2); 
....................    if (*end != '\0') 
....................    { 
....................       *end = '\0'; 
....................       end++; 
....................    } 
....................    save = end; 
....................    return(beg); 
.................... } 
....................  
.................... /*****************************************************************/ 
.................... /*Miscellaneous functions*/ 
.................... /* standard template 
.................... maps error number in errnum to an error message string 
.................... Returns: Pointer to string 
.................... */ 
.................... #ifdef _ERRNO 
.................... char * strerror(unsigned int8 errnum) 
.................... { 
.................... char s[15]; 
.................... switch( errnum) 
.................... { 
.................... case 0: 
....................    strcpy(s,"no errors"); 
....................    return s; 
.................... case EDOM : 
....................    strcpy(s,"domain error"); 
....................    return s; 
.................... case ERANGE: 
....................    strcpy(s,"range error"); 
....................    return s; 
.................... } 
.................... } 
.................... #ENDIF 
.................... /* standard template: size_t strlen(const char *s). 
....................    Computes length of s1 (preceding terminating 0) */ 
....................  
.................... unsigned int8 strlen(char *s) 
.................... { 
....................    char *sc; 
....................  
....................    for (sc = s; *sc != 0; sc++); 
....................    return(sc - s); 
.................... } 
....................  
.................... /* standard template: size_t stricmp(const char *s1, const char *s2). 
....................    Compares s1 to s2 ignoring case (upper vs. lower) */ 
....................  
.................... signed int8 stricmp(char *s1, char *s2) 
.................... { 
....................  for(; *s1==*s2||(isalpha(*s1)&&isalpha(*s2)&&(*s1==*s2+32||*s2==*s1+32)); 
....................     s1++, s2++) 
....................     if (*s1 == '\0') 
....................        return(0); 
....................  return((*s1 < *s2) ? -1: 1); 
.................... } 
....................  
....................  
.................... /* standard template: char *strlwr(char *s). 
....................    Replaces uppercase letters by lowercase; 
....................    returns pointer to new string s */ 
....................  
.................... char *strlwr(char *s) 
.................... { 
....................    char *p; 
....................  
....................    for (p = s; *p != '\0'; p++) 
....................       if (*p >= 'A' && *p <='Z') 
....................          *p += 'a' - 'A'; 
....................    return(s); 
.................... } 
....................  
....................  
.................... /************************************************************/ 
....................  
....................  
.................... #endif 
....................  
.................... #ifndef getc 
.................... #define getc getch 
.................... #define getchar getch 
.................... #define puts(s) {printf(s); putchar(13); putchar(10);} 
.................... #define putc putchar 
.................... #endif 
.................... /* maps error number to an error message. Writes a sequence of characters to 
.................... stderr stream thus: if s is not null then string pointed to by s follwed by 
.................... a colon (:) and a space and the appropriate error message returned by strerror 
.................... function with argument errno 
....................  
.................... Returns: no value 
.................... */ 
....................  
.................... #ifdef _ERRNO 
.................... void perror(char *s) 
.................... { 
....................   if(s) 
....................   fprintf(STDERR,"%s: ",s); 
....................   fprintf(STDERR,"%s\r\n",strerror(errno)); 
.................... } 
.................... #endif 
.................... #endif 
....................  
.................... #include <string.h> 
.................... //////////////////////////////////////////////////////////////////////////// 
.................... ////        (C) Copyright 1996,2008 Custom Computer Services            //// 
.................... //// This source code may only be used by licensed users of the CCS C   //// 
.................... //// compiler.  This source code may only be distributed to other       //// 
.................... //// licensed users of the CCS C compiler.  No other use, reproduction  //// 
.................... //// or distribution is permitted without written permission.           //// 
.................... //// Derivative programs created using this software in object code     //// 
.................... //// form are not restricted in any way.                                //// 
.................... //////////////////////////////////////////////////////////////////////////// 
....................  
.................... #ifndef _STRING 
.................... #define _STRING 
.................... #include <stddef.h> 
.................... #include <ctype.h> 
....................  
....................  
....................  
.................... ////////////////////////////////////////////// 
.................... //// Uncomment the following define to    //// 
.................... //// allow some functions to use a        //// 
.................... //// quicker algorithm, but use more ROM  //// 
.................... ////                                      //// 
.................... //// #define FASTER_BUT_MORE_ROM          //// 
.................... ////////////////////////////////////////////// 
....................  
....................  
....................  
.................... /*Copying functions*/ 
.................... /* standard template: 
....................    void *memmove(void *s1, void *s2, size_t n). 
....................    Copies max of n characters safely (not following ending '\0') 
....................    from s2 in s1; if s2 has less than n characters, appends 0 */ 
....................  
.................... char *memmove(void *s1,char *s2,size_t n) 
.................... { 
....................    char *sc1; 
....................    char *sc2; 
....................    sc1=s1; 
....................    sc2=s2; 
....................    if(sc2<sc1 && sc1 <sc2 +n) 
....................       for(sc1+=n,sc2+=n;0<n;--n) 
....................          *--sc1=*--sc2; 
....................    else 
....................       for(;0<n;--n) 
....................          *sc1++=*sc2++; 
....................   return s1; 
....................   } 
....................  
.................... /* Standard template: char *strcpy(char *s1, const char *s2) 
....................    copies the string s2 including the null character to s1. 
....................    This is a compiler built in to handle the different address 
....................    spaces */ 
....................  
.................... #define strcopy strcpy 
....................  
.................... /* standard template: 
....................    char *strncpy(char *s1, const char *s2, size_t n). 
....................    Copies max of n characters (not following ending '\0') 
....................    from s2 in s1; if s2 has less than n characters, appends 0 */ 
....................  
.................... char *strncpy(char *s1, char *s2, size_t n) 
.................... { 
....................   char *s; 
....................  
....................   for (s = s1; n > 0 && *s2 != '\0'; n--) 
....................      *s++ = *s2++; 
....................   for (; n > 0; n--) 
....................      *s++ = '\0'; 
....................  
....................   return(s1); 
.................... } 
.................... /***********************************************************/ 
....................  
.................... /*concatenation functions*/ 
.................... /* standard template: char *strcat(char *s1, const char *s2) 
.................... appends s2 to s1*/ 
....................  
.................... char *strcat(char *s1, char *s2) 
.................... { 
....................    char *s; 
....................  
....................    for (s = s1; *s != '\0'; ++s); 
....................    while(*s2 != '\0') 
....................    { 
....................       *s = *s2; 
....................       ++s; 
....................       ++s2; 
....................    } 
....................  
....................    *s = '\0'; 
....................    return(s1); 
.................... } 
.................... /* standard template: char *strncat(char *s1, char *s2,size_t n) 
.................... appends not more than n characters from s2 to s1*/ 
....................  
.................... char *strncat(char *s1, char *s2, size_t n) 
.................... { 
....................    char *s; 
....................  
....................    for (s = s1; *s != '\0'; ++s); 
....................    while(*s2 != '\0' && 0<n) 
....................    { 
....................       *s = *s2; 
....................       ++s; 
....................       ++s2; 
....................       --n; 
....................    } 
....................  
....................    *s = '\0'; 
....................    return(s1); 
.................... } 
....................  
.................... /***********************************************************/ 
....................  
....................  
.................... /*comparison functions*/ 
.................... /* standard template: signed int memcmp(void *s1, void *s2). 
....................    Compares s1 & s2; returns -1 if s1<s2, 0 if s1=s2, 1 if s1>s2 */ 
....................  
.................... signed int8 memcmp(void * s1,char *s2,size_t n) 
.................... { 
.................... char *su1, *su2; 
.................... for(su1=s1, su2=s2; 0<n; ++su1, ++su2, --n) 
.................... { 
....................    if(*su1!=*su2) 
....................       return ((*su1<*su2)?-1:+1); 
.................... } 
.................... return 0; 
.................... } 
....................  
.................... /* standard template: int strcmp(const char *s1, const char *s2). 
....................    Compares s1 & s2; returns -1 if s1<s2, 0 if s1=s2, 1 if s1>s2 */ 
....................  
.................... signed int8 strcmp(char *s1, char *s2) 
.................... { 
....................    for (; *s1 == *s2; s1++, s2++) 
....................       if (*s1 == '\0') 
....................          return(0); 
....................    return((*s1 < *s2) ? -1: 1); 
.................... } 
.................... /* standard template: int strcoll(const char *s1, const char *s2). 
....................    Compares s1 & s2; returns -1 if s1<s2, 0 if s1=s2, 1 if s1>s2 */ 
....................  
.................... signed int8 strcoll(char *s1, char *s2) 
.................... { 
....................    for (; *s1 == *s2; s1++, s2++) 
....................       if (*s1 == '\0') 
....................          return(0); 
....................    return((*s1 < *s2) ? -1: 1); 
.................... } 
....................  
.................... /* standard template: 
....................    int strncmp(const char *s1, const char *s2, size_t n). 
....................    Compares max of n characters (not following 0) from s1 to s2; 
....................    returns same as strcmp */ 
....................  
.................... signed int8 strncmp(char *s1, char *s2, size_t n) 
.................... { 
....................    for (; n > 0; s1++, s2++, n--) 
....................       if (*s1 != *s2) 
....................          return((*s1 <*s2) ? -1: 1); 
....................       else if (*s1 == '\0') 
....................          return(0); 
....................    return(0); 
.................... } 
.................... /* standard template: 
....................    int strxfrm(const char *s1, const char *s2, size_t n). 
....................    transforms maximum of n characters from s2 and places them into s1*/ 
.................... size_t strxfrm(char *s1, char *s2, size_t n) 
.................... { 
....................   char *s; 
....................   unsigned int8 n1; 
....................   n1=n; 
....................   for (s = s1; n > 0 && *s2 != '\0'; n--) 
....................      *s++ = *s2++; 
....................   for (; n > 0; n--) 
....................      *s++ = '\0'; 
....................  
....................   return(n1); 
.................... } 
....................  
....................  
....................  
....................  
....................  
.................... /***********************************************************/ 
.................... /*Search functions*/ 
.................... /* standard template: void *memchr(const char *s, int c). 
....................    Finds first occurrence of c in n characters of s */ 
....................  
.................... char *memchr(void *s,unsigned int8 c,size_t n) 
.................... { 
....................    char uc; 
....................    char *su; 
....................    uc=c; 
....................    for(su=s;0<n;++su,--n) 
....................       if(*su==uc) 
....................       return su; 
....................    return NULL; 
.................... } 
....................  
.................... /* standard template: char *strchr(const char *s, int c). 
....................    Finds first occurrence of c in s */ 
....................  
.................... char *strchr(char *s, unsigned int8 c) 
.................... { 
....................    for (; *s != c; s++) 
....................       if (*s == '\0') 
....................          return(0); 
....................    return(s); 
.................... } 
.................... /* standard template: 
....................    size_t strcspn(const char *s1, const char *s2). 
....................    Computes length of max initial segment of s1 that 
....................    consists entirely of characters NOT from s2*/ 
....................  
.................... unsigned int8  strcspn(char *s1, char *s2) 
.................... { 
....................    char *sc1, *sc2; 
....................  
....................    for (sc1 = s1; *sc1 != 0; sc1++) 
....................       for (sc2 = s2; *sc2 != 0; sc2++) 
....................          if (*sc1 == *sc2) 
....................             return(sc1 - s1); 
....................    return(sc1 - s1); 
.................... } 
.................... /* standard template: 
....................    char *strpbrk(const char *s1, const char *s2). 
....................    Locates first occurence of any character from s2 in s1; 
....................    returns s1 if s2 is empty string */ 
....................  
.................... char *strpbrk(char *s1, char *s2) 
.................... { 
....................    char *sc1, *sc2; 
....................  
....................    for (sc1 = s1; *sc1 != 0; sc1++) 
....................       for (sc2 = s2; *sc2 != 0; sc2++) 
....................          if (*sc1 == *sc2) 
....................             return(sc1); 
....................    return(0); 
.................... } 
....................  
....................  
.................... /* standard template: char *strrchr(const char *s, int c). 
....................    Finds last occurrence of c in s */ 
....................  
.................... char *strrchr(char *s, unsigned int8 c) 
.................... { 
....................    char *p; 
....................  
....................    for (p = 0; ; s++) 
....................    { 
....................       if (*s == c) 
....................          p = s; 
....................       if (*s == '\0') 
....................          return(p); 
....................    } 
.................... } 
.................... /* computes length of max initial segment of s1 consisting 
....................    entirely of characters from s2 */ 
....................  
.................... unsigned int8  strspn(char *s1, char *s2) 
.................... { 
....................    char *sc1, *sc2; 
....................  
....................    for (sc1 = s1; *sc1 != 0; sc1++) 
....................       for (sc2 = s2; ; sc2++) 
....................     if (*sc2 == '\0') 
....................        return(sc1 - s1); 
....................          else if (*sc1 == *sc2) 
....................             break; 
....................    return(sc1 - s1); 
.................... } 
.................... /* standard template: 
....................    char *strstr(const char *s1, const char *s2); 
....................    Locates first occurence of character sequence s2 in s1; 
....................    returns 0 if s2 is empty string 
....................  
....................    Uncomment #define FASTER_BUT_MORE_ROM at the top of the 
....................    file to use the faster algorithm */ 
.................... char *strstr(char *s1, char *s2) 
.................... { 
....................    char *s, *t; 
....................  
....................    #ifdef FASTER_BUT_MORE_ROM 
....................    if (*s2 == '\0') 
....................          return(s1); 
....................    #endif 
....................  
....................    while (*s1) 
....................    { 
....................       for(s = s1, t = s2; *t && (*s == *t); ++s, ++t); 
....................  
....................       if (*t == '\0') 
....................          return s1; 
....................       ++s1; 
....................       #ifdef FASTER_BUT_MORE_ROM 
....................          while(*s1 != '\0' && *s1 != *s2) 
....................             ++s1; 
....................       #endif 
....................    } 
....................    return 0; 
.................... } 
....................  
.................... /* standard template: char *strtok(char *s1, const char *s2). 
....................  
....................    Finds next token in s1 delimited by a character from separator 
....................    string s2 (which can be different from call to call).  First call 
....................    starts at beginning of s1 searching for first character NOT 
....................    contained in s2; returns 0 if none is found. 
....................    If one is found, it is the start of first token (return value). 
....................    Function then searches from there for a character contained in s2. 
....................    If none is found, current token extends to end of s1, and subsequent 
....................    searches for a token will return 0.  If one is found, it is 
....................    overwritten by '\0', which terminates current token.  Function saves 
....................    pointer to following character from which next search will start. 
....................    Each subsequent call, with 0 as first argument, starts searching 
....................    from saved pointer */ 
....................  
.................... char *strtok(char *s1, char *s2) 
.................... { 
....................    char *beg, *end; 
....................    static char *save; 
....................  
....................    beg = (s1)? s1: save; 
....................    beg += strspn(beg, s2); 
....................    if (*beg == '\0') 
....................    { 
....................       *save = ' '; 
....................       return(0); 
....................    } 
....................    end = strpbrk(beg, s2); 
....................    if (*end != '\0') 
....................    { 
....................       *end = '\0'; 
....................       end++; 
....................    } 
....................    save = end; 
....................    return(beg); 
.................... } 
....................  
.................... /*****************************************************************/ 
.................... /*Miscellaneous functions*/ 
.................... /* standard template 
.................... maps error number in errnum to an error message string 
.................... Returns: Pointer to string 
.................... */ 
.................... #ifdef _ERRNO 
.................... char * strerror(unsigned int8 errnum) 
.................... { 
.................... char s[15]; 
.................... switch( errnum) 
.................... { 
.................... case 0: 
....................    strcpy(s,"no errors"); 
....................    return s; 
.................... case EDOM : 
....................    strcpy(s,"domain error"); 
....................    return s; 
.................... case ERANGE: 
....................    strcpy(s,"range error"); 
....................    return s; 
.................... } 
.................... } 
.................... #ENDIF 
.................... /* standard template: size_t strlen(const char *s). 
....................    Computes length of s1 (preceding terminating 0) */ 
....................  
.................... unsigned int8 strlen(char *s) 
.................... { 
....................    char *sc; 
....................  
....................    for (sc = s; *sc != 0; sc++); 
....................    return(sc - s); 
.................... } 
....................  
.................... /* standard template: size_t stricmp(const char *s1, const char *s2). 
....................    Compares s1 to s2 ignoring case (upper vs. lower) */ 
....................  
.................... signed int8 stricmp(char *s1, char *s2) 
.................... { 
....................  for(; *s1==*s2||(isalpha(*s1)&&isalpha(*s2)&&(*s1==*s2+32||*s2==*s1+32)); 
....................     s1++, s2++) 
....................     if (*s1 == '\0') 
....................        return(0); 
....................  return((*s1 < *s2) ? -1: 1); 
.................... } 
....................  
....................  
.................... /* standard template: char *strlwr(char *s). 
....................    Replaces uppercase letters by lowercase; 
....................    returns pointer to new string s */ 
....................  
.................... char *strlwr(char *s) 
.................... { 
....................    char *p; 
....................  
....................    for (p = s; *p != '\0'; p++) 
....................       if (*p >= 'A' && *p <='Z') 
....................          *p += 'a' - 'A'; 
....................    return(s); 
.................... } 
....................  
....................  
.................... /************************************************************/ 
....................  
....................  
.................... #endif 
....................  
.................... #include <stdlib.h> 
.................... /////////////////////////////////////////////////////////////////////////// 
.................... ////        (C) Copyright 1996,2007 Custom Computer Services           //// 
.................... //// This source code may only be used by licensed users of the CCS C  //// 
.................... //// compiler.  This source code may only be distributed to other      //// 
.................... //// licensed users of the CCS C compiler.  No other use, reproduction //// 
.................... //// or distribution is permitted without written permission.          //// 
.................... //// Derivative programs created using this software in object code    //// 
.................... //// form are not restricted in any way.                               //// 
.................... /////////////////////////////////////////////////////////////////////////// 
....................  
.................... #ifndef _STDLIB 
.................... #define _STDLIB 
....................  
.................... //--------------------------------------------------------------------------- 
.................... // Definitions and types 
.................... //--------------------------------------------------------------------------- 
....................  
.................... #ifndef RAND_MAX 
.................... #define RAND_MAX  32767    // The value of which is the maximum value 
....................                            // ... returned by the rand function 
.................... #endif 
....................  
....................  
.................... #IF (sizeof(int16*)>1) 
.................... #DEFINE LONG_POINTERS 1 
.................... #ELSE  
.................... #DEFINE LONG_POINTERS 0 
.................... #ENDIF 
....................  
.................... typedef struct { 
....................    signed int quot; 
....................    signed int rem; 
.................... } div_t; 
....................  
.................... typedef struct { 
....................    signed long quot; 
....................    signed long rem; 
.................... } ldiv_t; 
....................  
.................... #include <stddef.h> 
.................... /////////////////////////////////////////////////////////////////////////// 
.................... ////        (C) Copyright 1996,2003 Custom Computer Services           //// 
.................... //// This source code may only be used by licensed users of the CCS C  //// 
.................... //// compiler.  This source code may only be distributed to other      //// 
.................... //// licensed users of the CCS C compiler.  No other use, reproduction //// 
.................... //// or distribution is permitted without written permission.          //// 
.................... //// Derivative programs created using this software in object code    //// 
.................... //// form are not restricted in any way.                               //// 
.................... /////////////////////////////////////////////////////////////////////////// 
....................  
.................... #ifndef _STDDEF 
....................  
.................... #define _STDDEF 
....................  
.................... #if sizeof(unsigned int8 *)==1 
.................... #define ptrdiff_t unsigned int8 
.................... #else 
.................... #define ptrdiff_t unsigned int16 
.................... #endif 
....................  
.................... #define size_t unsigned int8 
.................... #define wchar_t char 
.................... #define NULL 0 
....................  
.................... #define offsetof(s,f) (offsetofbit(s,f)/8) 
....................  
.................... #endif 
....................  
....................  
.................... //--------------------------------------------------------------------------- 
.................... // String conversion functions 
.................... //--------------------------------------------------------------------------- 
....................  
.................... /* Standard template: signed int  atoi(char * s) 
....................  * converts the initial portion of the string s to a signed int 
....................  * returns the converted value if any, 0 otherwise 
....................  */ 
.................... signed int atoi(char *s); 
....................  
.................... /* Syntax: signed int32  atoi32(char * s) 
....................    converts the initial portion of the string s to a signed int32 
....................    returns the converted value if any, 0 otherwise*/ 
.................... #if (sizeof(long)==4) 
....................  #define atoi32(s) atol(s) 
.................... #else  
....................  signed int32 atoi32(char *s); 
.................... #endif 
....................  
.................... #if defined(__PCD__) 
.................... // The following functions only work on the 24 bit compiler 
.................... // for the 30F, 33F, 24F and 24H parts 
.................... /* Syntax: signed int48  atoi48(char * s) 
....................    converts the initial portion of the string s to a signed int48 
....................    returns the converted value if any, 0 otherwise*/ 
....................     
.................... signed int48 atoi48(char *s); 
....................  
.................... /* Syntax: signed int64  atoi64(char * s) 
....................    converts the initial portion of the string s to a signed int64 
....................    returns the converted value if any, 0 otherwise*/ 
.................... signed int64 atoi64(char *s); 
.................... #endif 
....................  
.................... /* Syntax: char *  itoa(signed int32 num, int8 base, char * s) 
....................    converts the signed int32 to a string and 
....................    returns the converted value if any, 0 otherwise*/ 
.................... char * itoa(signed int32 num, unsigned int base, char * s); 
....................  
.................... /* Standard template: signed int16  atol(char * s) 
....................  * converts the initial portion of the string s to a signed int16 
....................  * returns the converted value if any, 0 otherwise 
....................  */ 
.................... signed long atol(char *s); 
....................  
.................... /* Standard template: int16 strtoul(char * s,char *endptr,signed int base) 
....................  * converts the initial portion of the string s, represented as an 
....................  * integral value of radix base  to a signed long. 
....................  * Returns the converted value if any, 0 otherwise 
....................  * the final string is returned in the endptr, if endptr is not null 
....................  */ 
.................... signed long strtol(char *s,char *endptr, signed int base); 
....................  
.................... /* Standard template: int16 strtoul(char * s,char *endptr,signed int base) 
....................  * converts the initial portion of the string s, represented as an 
....................  * integral value of radix base to a unsigned long. 
....................  * returns the converted value if any, 0 otherwise 
....................  * the final string is returned in the endptr, if endptr is not null 
....................  */ 
.................... unsigned long strtoul(char *s,char *endptr, signed int base); 
....................  
.................... /* Standart template: float strtof(char * s,char *endptr) 
....................                       float48 strtof48(char *s,char *endptr); 
....................                       float64 strtod(char *s,char *endptr); 
....................  * converts the initial portion of the string s to a float32, float48 or float64, 
....................  * returns the converted value if any, 0 otherwise 
....................  * the final string is returned in the endptr, if endptr is not null                    
.................... */ 
.................... float strtof(char *s,char *endptr); 
.................... #if defined(__PCD__) 
.................... float48 strtof48(char *s,char *endptr); 
.................... float64 strtod(char *s,char *endptr); 
.................... #else 
.................... //provided for compatibility 
.................... #define strtof48(s, e) strtof(s, e) 
.................... #define strtod(s, e) strtof(s, e) 
.................... #endif 
....................  
.................... /* Standard template: float32 atof(char * s) 
....................  * converts the initial portion of the string s to a float. 
....................  * returns the converted value if any, 0 otherwise 
....................  */ 
.................... #define atof(s)   strtof(s, 0) 
....................  
.................... #if defined(__PCD__) 
.................... // The following functions only work on the 24 bit compiler 
.................... // for the 30F, 33F, 24F and 24H parts 
....................  
.................... /* Standard template: float48 atof48(char * s) 
....................  * converts the initial portion of the string s to a float. 
....................  * returns the converted value if any, 0 otherwise 
....................  */ 
.................... #define atof48(s) strtof48(s, 0) 
....................  
.................... /* Standard template: float64 atof64(char * s) 
....................  * converts the initial portion of the string s to a float. 
....................  * returns the converted value if any, 0 otherwise 
....................  */ 
.................... #define atof64(s) strtod(s, 0) 
.................... #endif 
....................  
.................... /* Standard template: float32 atoe(char * s) 
....................  * converts the initial portion of the string s to a float. 
....................  * returns the converted value if any, 0 otherwise 
....................  * also handles E format numbers 
....................  */ 
.................... #if !defined(__PCD__) 
.................... float atoe(char * s); 
.................... #endif 
....................  
.................... #if defined(__PCD__) 
.................... float32 atoe(char * s); 
.................... #endif 
....................  
.................... //--------------------------------------------------------------------------- 
.................... // Pseudo-random sequence generation functions 
.................... //--------------------------------------------------------------------------- 
....................  
.................... /* The rand function computes a sequence of pseudo-random integers in 
....................  * the range 0 to RAND_MAX 
....................  * 
....................  * Parameters: 
....................  *       (none) 
....................  * 
....................  * Returns: 
....................  *       The pseudo-random integer 
....................  */ 
.................... unsigned int16 rand(void); 
....................  
.................... /* The srand function uses the argument as a seed for a new sequence of 
....................  * pseudo-random numbers to be returned by subsequent calls to rand. 
....................  * 
....................  * Parameters: 
....................  *       [in] seed: The seed value to start from. You might need to pass 
....................  * 
....................  * Returns: 
....................  *       (none) 
....................  * 
....................  * Remarks 
....................  *          The srand function sets the starting point for generating 
....................  *       a series of pseudorandom integers. To reinitialize the 
....................  *       generator, use 1 as the seed argument. Any other value for 
....................  *       seed sets the generator to a random starting point. rand 
....................  *       retrieves the pseudorandom numbers that are generated. 
....................  *       Calling rand before any call to srand generates the same 
....................  *       sequence as calling srand with seed passed as 1. 
....................  *          Usually, you need to pass a time here from outer source 
....................  *       so that the numbers will be different every time you run. 
....................  */ 
.................... void srand(unsigned int32 seed); 
....................  
.................... //--------------------------------------------------------------------------- 
.................... // Memory management functions 
.................... //--------------------------------------------------------------------------- 
....................  
.................... // Comming soon 
....................  
.................... //--------------------------------------------------------------------------- 
.................... // Communication with the environment 
.................... //--------------------------------------------------------------------------- 
....................  
.................... /* The function returns 0 always 
....................  */ 
.................... signed int8 system(char *string); 
....................  
.................... //--------------------------------------------------------------------------- 
.................... // Searching and sorting utilities 
.................... //--------------------------------------------------------------------------- 
....................  
.................... /* Performs a binary search of a sorted array.. 
....................  * 
....................  * Parameters: 
....................  *       [in] key: Object to search for 
....................  *       [in] base: Pointer to base of search data 
....................  *       [in] num: Number of elements 
....................  *       [in] width: Width of elements 
....................  *       [in] compare: Function that compares two elements 
....................  * 
....................  * Returns: 
....................  *       bsearch returns a pointer to an occurrence of key in the array pointed 
....................  *       to by base. If key is not found, the function returns NULL. If the 
....................  *       array is not in order or contains duplicate records with identical keys, 
....................  *       the result is unpredictable. 
....................  */ 
.................... //void *bsearch(const void *key, const void *base, size_t num, size_t width, 
.................... //              int (*compare)(const void *, const void *)); 
....................  
.................... /* Performs the shell-metzner sort (not the quick sort algorithm). The contents 
....................  * of the array are sorted into ascending order according to a comparison 
....................  * function pointed to by compar. 
....................  * 
....................  * Parameters: 
....................  *       [in] base: Pointer to base of search data 
....................  *       [in] num: Number of elements 
....................  *       [in] width: Width of elements 
....................  *       [in] compare: Function that compares two elements 
....................  * 
....................  * Returns: 
....................  *       (none) 
....................  */ 
.................... //void *qsort(const void *base, size_t num, size_t width, 
.................... //              int (*compare)(const void *, const void *)); 
....................  
.................... //--------------------------------------------------------------------------- 
.................... // Integer arithmetic functions 
.................... //--------------------------------------------------------------------------- 
....................  
.................... #define labs abs 
....................  
.................... div_t div(signed int numer, signed int denom); 
.................... ldiv_t ldiv(signed long numer, signed long denom); 
....................  
.................... //--------------------------------------------------------------------------- 
.................... // Multibyte character functions 
.................... //--------------------------------------------------------------------------- 
....................  
.................... // Not supported 
....................  
.................... //--------------------------------------------------------------------------- 
.................... // Multibyte string functions 
.................... //--------------------------------------------------------------------------- 
....................  
.................... // Not supported 
....................  
....................  
.................... //--------------------------------------------------------------------------- 
.................... // Internal implementation 
.................... //--------------------------------------------------------------------------- 
....................  
.................... #include <stddef.h> 
.................... /////////////////////////////////////////////////////////////////////////// 
.................... ////        (C) Copyright 1996,2003 Custom Computer Services           //// 
.................... //// This source code may only be used by licensed users of the CCS C  //// 
.................... //// compiler.  This source code may only be distributed to other      //// 
.................... //// licensed users of the CCS C compiler.  No other use, reproduction //// 
.................... //// or distribution is permitted without written permission.          //// 
.................... //// Derivative programs created using this software in object code    //// 
.................... //// form are not restricted in any way.                               //// 
.................... /////////////////////////////////////////////////////////////////////////// 
....................  
.................... #ifndef _STDDEF 
....................  
.................... #define _STDDEF 
....................  
.................... #if sizeof(unsigned int8 *)==1 
.................... #define ptrdiff_t unsigned int8 
.................... #else 
.................... #define ptrdiff_t unsigned int16 
.................... #endif 
....................  
.................... #define size_t unsigned int8 
.................... #define wchar_t char 
.................... #define NULL 0 
....................  
.................... #define offsetof(s,f) (offsetofbit(s,f)/8) 
....................  
.................... #endif 
....................  
.................... #include <string.h> 
.................... //////////////////////////////////////////////////////////////////////////// 
.................... ////        (C) Copyright 1996,2008 Custom Computer Services            //// 
.................... //// This source code may only be used by licensed users of the CCS C   //// 
.................... //// compiler.  This source code may only be distributed to other       //// 
.................... //// licensed users of the CCS C compiler.  No other use, reproduction  //// 
.................... //// or distribution is permitted without written permission.           //// 
.................... //// Derivative programs created using this software in object code     //// 
.................... //// form are not restricted in any way.                                //// 
.................... //////////////////////////////////////////////////////////////////////////// 
....................  
.................... #ifndef _STRING 
.................... #define _STRING 
.................... #include <stddef.h> 
.................... #include <ctype.h> 
....................  
....................  
....................  
.................... ////////////////////////////////////////////// 
.................... //// Uncomment the following define to    //// 
.................... //// allow some functions to use a        //// 
.................... //// quicker algorithm, but use more ROM  //// 
.................... ////                                      //// 
.................... //// #define FASTER_BUT_MORE_ROM          //// 
.................... ////////////////////////////////////////////// 
....................  
....................  
....................  
.................... /*Copying functions*/ 
.................... /* standard template: 
....................    void *memmove(void *s1, void *s2, size_t n). 
....................    Copies max of n characters safely (not following ending '\0') 
....................    from s2 in s1; if s2 has less than n characters, appends 0 */ 
....................  
.................... char *memmove(void *s1,char *s2,size_t n) 
.................... { 
....................    char *sc1; 
....................    char *sc2; 
....................    sc1=s1; 
....................    sc2=s2; 
....................    if(sc2<sc1 && sc1 <sc2 +n) 
....................       for(sc1+=n,sc2+=n;0<n;--n) 
....................          *--sc1=*--sc2; 
....................    else 
....................       for(;0<n;--n) 
....................          *sc1++=*sc2++; 
....................   return s1; 
....................   } 
....................  
.................... /* Standard template: char *strcpy(char *s1, const char *s2) 
....................    copies the string s2 including the null character to s1. 
....................    This is a compiler built in to handle the different address 
....................    spaces */ 
....................  
.................... #define strcopy strcpy 
....................  
.................... /* standard template: 
....................    char *strncpy(char *s1, const char *s2, size_t n). 
....................    Copies max of n characters (not following ending '\0') 
....................    from s2 in s1; if s2 has less than n characters, appends 0 */ 
....................  
.................... char *strncpy(char *s1, char *s2, size_t n) 
.................... { 
....................   char *s; 
....................  
....................   for (s = s1; n > 0 && *s2 != '\0'; n--) 
....................      *s++ = *s2++; 
....................   for (; n > 0; n--) 
....................      *s++ = '\0'; 
....................  
....................   return(s1); 
.................... } 
.................... /***********************************************************/ 
....................  
.................... /*concatenation functions*/ 
.................... /* standard template: char *strcat(char *s1, const char *s2) 
.................... appends s2 to s1*/ 
....................  
.................... char *strcat(char *s1, char *s2) 
.................... { 
....................    char *s; 
....................  
....................    for (s = s1; *s != '\0'; ++s); 
....................    while(*s2 != '\0') 
....................    { 
....................       *s = *s2; 
....................       ++s; 
....................       ++s2; 
....................    } 
....................  
....................    *s = '\0'; 
....................    return(s1); 
.................... } 
.................... /* standard template: char *strncat(char *s1, char *s2,size_t n) 
.................... appends not more than n characters from s2 to s1*/ 
....................  
.................... char *strncat(char *s1, char *s2, size_t n) 
.................... { 
....................    char *s; 
....................  
....................    for (s = s1; *s != '\0'; ++s); 
....................    while(*s2 != '\0' && 0<n) 
....................    { 
....................       *s = *s2; 
....................       ++s; 
....................       ++s2; 
....................       --n; 
....................    } 
....................  
....................    *s = '\0'; 
....................    return(s1); 
.................... } 
....................  
.................... /***********************************************************/ 
....................  
....................  
.................... /*comparison functions*/ 
.................... /* standard template: signed int memcmp(void *s1, void *s2). 
....................    Compares s1 & s2; returns -1 if s1<s2, 0 if s1=s2, 1 if s1>s2 */ 
....................  
.................... signed int8 memcmp(void * s1,char *s2,size_t n) 
.................... { 
.................... char *su1, *su2; 
.................... for(su1=s1, su2=s2; 0<n; ++su1, ++su2, --n) 
.................... { 
....................    if(*su1!=*su2) 
....................       return ((*su1<*su2)?-1:+1); 
.................... } 
.................... return 0; 
.................... } 
....................  
.................... /* standard template: int strcmp(const char *s1, const char *s2). 
....................    Compares s1 & s2; returns -1 if s1<s2, 0 if s1=s2, 1 if s1>s2 */ 
....................  
.................... signed int8 strcmp(char *s1, char *s2) 
.................... { 
....................    for (; *s1 == *s2; s1++, s2++) 
....................       if (*s1 == '\0') 
....................          return(0); 
....................    return((*s1 < *s2) ? -1: 1); 
.................... } 
.................... /* standard template: int strcoll(const char *s1, const char *s2). 
....................    Compares s1 & s2; returns -1 if s1<s2, 0 if s1=s2, 1 if s1>s2 */ 
....................  
.................... signed int8 strcoll(char *s1, char *s2) 
.................... { 
....................    for (; *s1 == *s2; s1++, s2++) 
....................       if (*s1 == '\0') 
....................          return(0); 
....................    return((*s1 < *s2) ? -1: 1); 
.................... } 
....................  
.................... /* standard template: 
....................    int strncmp(const char *s1, const char *s2, size_t n). 
....................    Compares max of n characters (not following 0) from s1 to s2; 
....................    returns same as strcmp */ 
....................  
.................... signed int8 strncmp(char *s1, char *s2, size_t n) 
.................... { 
....................    for (; n > 0; s1++, s2++, n--) 
....................       if (*s1 != *s2) 
....................          return((*s1 <*s2) ? -1: 1); 
....................       else if (*s1 == '\0') 
....................          return(0); 
....................    return(0); 
.................... } 
.................... /* standard template: 
....................    int strxfrm(const char *s1, const char *s2, size_t n). 
....................    transforms maximum of n characters from s2 and places them into s1*/ 
.................... size_t strxfrm(char *s1, char *s2, size_t n) 
.................... { 
....................   char *s; 
....................   unsigned int8 n1; 
....................   n1=n; 
....................   for (s = s1; n > 0 && *s2 != '\0'; n--) 
....................      *s++ = *s2++; 
....................   for (; n > 0; n--) 
....................      *s++ = '\0'; 
....................  
....................   return(n1); 
.................... } 
....................  
....................  
....................  
....................  
....................  
.................... /***********************************************************/ 
.................... /*Search functions*/ 
.................... /* standard template: void *memchr(const char *s, int c). 
....................    Finds first occurrence of c in n characters of s */ 
....................  
.................... char *memchr(void *s,unsigned int8 c,size_t n) 
.................... { 
....................    char uc; 
....................    char *su; 
....................    uc=c; 
....................    for(su=s;0<n;++su,--n) 
....................       if(*su==uc) 
....................       return su; 
....................    return NULL; 
.................... } 
....................  
.................... /* standard template: char *strchr(const char *s, int c). 
....................    Finds first occurrence of c in s */ 
....................  
.................... char *strchr(char *s, unsigned int8 c) 
.................... { 
....................    for (; *s != c; s++) 
....................       if (*s == '\0') 
....................          return(0); 
....................    return(s); 
.................... } 
.................... /* standard template: 
....................    size_t strcspn(const char *s1, const char *s2). 
....................    Computes length of max initial segment of s1 that 
....................    consists entirely of characters NOT from s2*/ 
....................  
.................... unsigned int8  strcspn(char *s1, char *s2) 
.................... { 
....................    char *sc1, *sc2; 
....................  
....................    for (sc1 = s1; *sc1 != 0; sc1++) 
....................       for (sc2 = s2; *sc2 != 0; sc2++) 
....................          if (*sc1 == *sc2) 
....................             return(sc1 - s1); 
....................    return(sc1 - s1); 
.................... } 
.................... /* standard template: 
....................    char *strpbrk(const char *s1, const char *s2). 
....................    Locates first occurence of any character from s2 in s1; 
....................    returns s1 if s2 is empty string */ 
....................  
.................... char *strpbrk(char *s1, char *s2) 
.................... { 
....................    char *sc1, *sc2; 
....................  
....................    for (sc1 = s1; *sc1 != 0; sc1++) 
....................       for (sc2 = s2; *sc2 != 0; sc2++) 
....................          if (*sc1 == *sc2) 
....................             return(sc1); 
....................    return(0); 
.................... } 
....................  
....................  
.................... /* standard template: char *strrchr(const char *s, int c). 
....................    Finds last occurrence of c in s */ 
....................  
.................... char *strrchr(char *s, unsigned int8 c) 
.................... { 
....................    char *p; 
....................  
....................    for (p = 0; ; s++) 
....................    { 
....................       if (*s == c) 
....................          p = s; 
....................       if (*s == '\0') 
....................          return(p); 
....................    } 
.................... } 
.................... /* computes length of max initial segment of s1 consisting 
....................    entirely of characters from s2 */ 
....................  
.................... unsigned int8  strspn(char *s1, char *s2) 
.................... { 
....................    char *sc1, *sc2; 
....................  
....................    for (sc1 = s1; *sc1 != 0; sc1++) 
....................       for (sc2 = s2; ; sc2++) 
....................     if (*sc2 == '\0') 
....................        return(sc1 - s1); 
....................          else if (*sc1 == *sc2) 
....................             break; 
....................    return(sc1 - s1); 
.................... } 
.................... /* standard template: 
....................    char *strstr(const char *s1, const char *s2); 
....................    Locates first occurence of character sequence s2 in s1; 
....................    returns 0 if s2 is empty string 
....................  
....................    Uncomment #define FASTER_BUT_MORE_ROM at the top of the 
....................    file to use the faster algorithm */ 
.................... char *strstr(char *s1, char *s2) 
.................... { 
....................    char *s, *t; 
....................  
....................    #ifdef FASTER_BUT_MORE_ROM 
....................    if (*s2 == '\0') 
....................          return(s1); 
....................    #endif 
....................  
....................    while (*s1) 
....................    { 
....................       for(s = s1, t = s2; *t && (*s == *t); ++s, ++t); 
....................  
....................       if (*t == '\0') 
....................          return s1; 
....................       ++s1; 
....................       #ifdef FASTER_BUT_MORE_ROM 
....................          while(*s1 != '\0' && *s1 != *s2) 
....................             ++s1; 
....................       #endif 
....................    } 
....................    return 0; 
.................... } 
....................  
.................... /* standard template: char *strtok(char *s1, const char *s2). 
....................  
....................    Finds next token in s1 delimited by a character from separator 
....................    string s2 (which can be different from call to call).  First call 
....................    starts at beginning of s1 searching for first character NOT 
....................    contained in s2; returns 0 if none is found. 
....................    If one is found, it is the start of first token (return value). 
....................    Function then searches from there for a character contained in s2. 
....................    If none is found, current token extends to end of s1, and subsequent 
....................    searches for a token will return 0.  If one is found, it is 
....................    overwritten by '\0', which terminates current token.  Function saves 
....................    pointer to following character from which next search will start. 
....................    Each subsequent call, with 0 as first argument, starts searching 
....................    from saved pointer */ 
....................  
.................... char *strtok(char *s1, char *s2) 
.................... { 
....................    char *beg, *end; 
....................    static char *save; 
....................  
....................    beg = (s1)? s1: save; 
....................    beg += strspn(beg, s2); 
....................    if (*beg == '\0') 
....................    { 
....................       *save = ' '; 
....................       return(0); 
....................    } 
....................    end = strpbrk(beg, s2); 
....................    if (*end != '\0') 
....................    { 
....................       *end = '\0'; 
....................       end++; 
....................    } 
....................    save = end; 
....................    return(beg); 
.................... } 
....................  
.................... /*****************************************************************/ 
.................... /*Miscellaneous functions*/ 
.................... /* standard template 
.................... maps error number in errnum to an error message string 
.................... Returns: Pointer to string 
.................... */ 
.................... #ifdef _ERRNO 
.................... char * strerror(unsigned int8 errnum) 
.................... { 
.................... char s[15]; 
.................... switch( errnum) 
.................... { 
.................... case 0: 
....................    strcpy(s,"no errors"); 
....................    return s; 
.................... case EDOM : 
....................    strcpy(s,"domain error"); 
....................    return s; 
.................... case ERANGE: 
....................    strcpy(s,"range error"); 
....................    return s; 
.................... } 
.................... } 
.................... #ENDIF 
.................... /* standard template: size_t strlen(const char *s). 
....................    Computes length of s1 (preceding terminating 0) */ 
....................  
.................... unsigned int8 strlen(char *s) 
.................... { 
....................    char *sc; 
....................  
....................    for (sc = s; *sc != 0; sc++); 
....................    return(sc - s); 
.................... } 
....................  
.................... /* standard template: size_t stricmp(const char *s1, const char *s2). 
....................    Compares s1 to s2 ignoring case (upper vs. lower) */ 
....................  
.................... signed int8 stricmp(char *s1, char *s2) 
.................... { 
....................  for(; *s1==*s2||(isalpha(*s1)&&isalpha(*s2)&&(*s1==*s2+32||*s2==*s1+32)); 
....................     s1++, s2++) 
....................     if (*s1 == '\0') 
....................        return(0); 
....................  return((*s1 < *s2) ? -1: 1); 
.................... } 
....................  
....................  
.................... /* standard template: char *strlwr(char *s). 
....................    Replaces uppercase letters by lowercase; 
....................    returns pointer to new string s */ 
....................  
.................... char *strlwr(char *s) 
.................... { 
....................    char *p; 
....................  
....................    for (p = s; *p != '\0'; p++) 
....................       if (*p >= 'A' && *p <='Z') 
....................          *p += 'a' - 'A'; 
....................    return(s); 
.................... } 
....................  
....................  
.................... /************************************************************/ 
....................  
....................  
.................... #endif 
....................  
....................  
.................... div_t div(signed int numer, signed int denom) 
.................... { 
....................    div_t val; 
....................    val.quot = numer / denom; 
....................    val.rem = numer - (denom * val.quot); 
....................    return (val); 
.................... } 
....................  
.................... ldiv_t ldiv(signed long numer, signed long denom) 
.................... { 
....................    ldiv_t val; 
....................  
....................    val.quot = numer / denom; 
....................    val.rem = numer - (denom * val.quot); 
....................    return (val); 
.................... } 
....................  
.................... #if defined(__PCD__) 
.................... float32 atoe(char * s) 
.................... { 
....................    float32 pow10 = 1.0; 
....................    float32 result = 0.0; 
....................    unsigned int8 sign = 0; 
....................    unsigned int8 expsign = 0; 
....................    char c; 
....................    unsigned int8 ptr = 0; 
....................    unsigned int8 i; 
....................    float32 exp = 1.0; 
....................    unsigned int8 expcnt = 0; 
....................  
....................    c = s[ptr++]; 
....................  
....................    if ((c>='0' && c<='9') || c=='+' || c=='-' || c=='.' || c=='E' || c=='e') { 
....................       if(c == '-') { 
....................          sign = 1; 
....................          c = s[ptr++]; 
....................       } 
....................       if(c == '+') 
....................          c = s[ptr++]; 
....................  
....................       while((c >= '0' && c <= '9')) { 
....................          result = 10*result + c - '0'; 
....................          c = s[ptr++]; 
....................       } 
....................  
....................       if (c == '.') { 
....................          c = s[ptr++]; 
....................          while((c >= '0' && c <= '9')) { 
....................              pow10 = pow10*10; 
....................              result += (c - '0')/pow10; 
....................              c = s[ptr++]; 
....................          } 
....................       } 
....................  
....................       // Handling the exponent 
....................       if (c=='e' || c=='E') { 
....................          c = s[ptr++]; 
....................  
....................          if(c == '-') { 
....................             expsign = 1; 
....................             c = s[ptr++]; 
....................          } 
....................          if(c == '+') 
....................             c = s[ptr++]; 
....................  
....................          while((c >= '0' && c <= '9')) { 
....................             expcnt = 10*expcnt + c - '0'; 
....................             c = s[ptr++]; 
....................          } 
....................  
....................          for(i=0;i<expcnt;i++) 
....................             exp*=10; 
....................  
....................          if(expsign==1) 
....................             result/=exp; 
....................          else 
....................             result*=exp; 
....................       } 
....................    } 
....................  
....................    if (sign == 1) 
....................       result = -1*result; 
....................    return(result); 
.................... } 
.................... #endif 
....................  
.................... #if !defined(__PCD__) 
.................... float atoe(char * s) 
.................... { 
....................    float pow10 = 1.0; 
....................    float result = 0.0; 
....................    unsigned int8 sign = 0; 
....................    unsigned int8 expsign = 0; 
....................    char c; 
....................    unsigned int8 ptr = 0; 
....................    unsigned int8 i; 
....................    float exp = 1.0; 
....................    unsigned int8 expcnt = 0; 
....................  
....................    c = s[ptr++]; 
....................  
....................    if ((c>='0' && c<='9') || c=='+' || c=='-' || c=='.' || c=='E' || c=='e') { 
....................       if(c == '-') { 
....................          sign = 1; 
....................          c = s[ptr++]; 
....................       } 
....................       if(c == '+') 
....................          c = s[ptr++]; 
....................  
....................       while((c >= '0' && c <= '9')) { 
....................          result = 10*result + c - '0'; 
....................          c = s[ptr++]; 
....................       } 
....................  
....................       if (c == '.') { 
....................          c = s[ptr++]; 
....................          while((c >= '0' && c <= '9')) { 
....................              pow10 = pow10*10; 
....................              result += (c - '0')/pow10; 
....................              c = s[ptr++]; 
....................          } 
....................       } 
....................  
....................       // Handling the exponent 
....................       if (c=='e' || c=='E') { 
....................          c = s[ptr++]; 
....................  
....................          if(c == '-') { 
....................             expsign = 1; 
....................             c = s[ptr++]; 
....................          } 
....................          if(c == '+') 
....................             c = s[ptr++]; 
....................  
....................          while((c >= '0' && c <= '9')) { 
....................             expcnt = 10*expcnt + c - '0'; 
....................             c = s[ptr++]; 
....................          } 
....................  
....................          for(i=0;i<expcnt;i++) 
....................             exp*=10; 
....................  
....................          if(expsign==1) 
....................             result/=exp; 
....................          else 
....................             result*=exp; 
....................       } 
....................    } 
....................  
....................    if (sign == 1) 
....................       result = -1*result; 
....................    return(result); 
.................... } 
.................... #endif 
....................  
.................... signed int atoi(char *s) 
.................... { 
....................    signed int result; 
....................    unsigned int sign, base, index; 
....................    char c; 
....................  
....................    index = 0; 
....................    sign = 0; 
....................    base = 10; 
....................    result = 0; 
....................  
....................    if (!s) 
....................       return 0; 
....................    // Omit all preceeding alpha characters 
....................    c = s[index++]; 
....................  
....................    // increase index if either positive or negative sign is detected 
....................    if (c == '-') 
....................    { 
....................       sign = 1;         // Set the sign to negative 
....................       c = s[index++]; 
....................    } 
....................    else if (c == '+') 
....................    { 
....................       c = s[index++]; 
....................    } 
....................  
....................    if (c >= '0' && c <= '9') 
....................    { 
....................  
....................       // Check for hexa number 
....................       if (c == '0' && (s[index] == 'x' || s[index] == 'X')) 
....................       { 
....................          base = 16; 
....................          index++; 
....................          c = s[index++]; 
....................       } 
....................  
....................       // The number is a decimal number 
....................       if (base == 10) 
....................       { 
....................          while (c >= '0' && c <= '9') 
....................          { 
....................             result = 10*result + (c - '0'); 
....................             c = s[index++]; 
....................          } 
....................       } 
....................       else if (base == 16)    // The number is a hexa number 
....................       { 
....................          c = toupper(c); 
....................          while ( (c >= '0' && c <= '9') || (c >= 'A' && c<='F')) 
....................          { 
....................             if (c >= '0' && c <= '9') 
....................                result = (result << 4) + (c - '0'); 
....................             else 
....................                result = (result << 4) + (c - 'A' + 10); 
....................  
....................             c = s[index++]; 
....................             c = toupper(c); 
....................          } 
....................       } 
....................    } 
....................  
....................    if (sign == 1 && base == 10) 
....................        result = -result; 
....................  
....................    return(result); 
.................... } 
....................  
.................... signed long atol(char *s) 
.................... { 
....................    signed long result; 
....................    unsigned int sign, base, index; 
....................    char c; 
....................  
....................    index = 0; 
....................    sign = 0; 
....................    base = 10; 
....................    result = 0; 
....................  
....................    if (!s) 
....................       return 0; 
....................    c = s[index++]; 
....................  
....................    // increase index if either positive or negative sign is detected 
....................    if (c == '-') 
....................    { 
....................       sign = 1;         // Set the sign to negative 
....................       c = s[index++]; 
....................    } 
....................    else if (c == '+') 
....................    { 
....................       c = s[index++]; 
....................    } 
....................  
....................    if (c >= '0' && c <= '9') 
....................    { 
....................       if (c == '0' && (s[index] == 'x' || s[index] == 'X')) 
....................       { 
....................          base = 16; 
....................          index++; 
....................          c = s[index++]; 
....................       } 
....................  
....................       // The number is a decimal number 
....................       if (base == 10) 
....................       { 
....................          while (c >= '0' && c <= '9') 
....................          { 
....................             result = 10*result + (c - '0'); 
....................             c = s[index++]; 
....................          } 
....................       } 
....................       else if (base == 16)    // The number is a hexa number 
....................       { 
....................          c = toupper(c); 
....................          while ( (c >= '0' && c <= '9') || (c >= 'A' && c <='F')) 
....................          { 
....................             if (c >= '0' && c <= '9') 
....................                result = (result << 4) + (c - '0'); 
....................             else 
....................                result = (result << 4) + (c - 'A' + 10); 
....................  
....................             c = s[index++];c = toupper(c); 
....................          } 
....................       } 
....................    } 
....................  
....................    if (base == 10 && sign == 1) 
....................       result = -result; 
....................  
....................    return(result); 
.................... } 
....................  
.................... /* A fast routine to multiply by 10 
....................  */ 
.................... signed int32 mult_with10(int32 num) 
.................... { 
....................    return ( (num << 1) + (num << 3) ); 
.................... } 
....................  
.................... #if sizeof(long)==2 
.................... signed int32 atoi32(char *s) 
.................... { 
....................    signed int32 result; 
....................    int8 sign, base, index; 
....................    char c; 
....................  
....................    index = 0; 
....................    sign = 0; 
....................    base = 10; 
....................    result = 0; 
....................  
....................    if (!s) 
....................       return 0; 
....................    c = s[index++]; 
....................  
....................    // increase index if either positive or negative sign is detected 
....................    if (c == '-') 
....................    { 
....................       sign = 1;         // Set the sign to negative 
....................       c = s[index++]; 
....................    } 
....................    else if (c == '+') 
....................    { 
....................       c = s[index++]; 
....................    } 
....................  
....................    if (c >= '0' && c <= '9') 
....................    { 
....................       if (c == '0' && (s[index] == 'x' || s[index] == 'X')) 
....................       { 
....................          base = 16; 
....................          index++; 
....................          c = s[index++]; 
....................       } 
....................  
....................       // The number is a decimal number 
....................       if (base == 10) 
....................       { 
....................          while (c >= '0' && c <= '9') { 
....................             result = (result << 1) + (result << 3);  // result *= 10; 
....................             result += (c - '0'); 
....................             c = s[index++]; 
....................          } 
....................       } 
....................       else if (base == 16)    // The number is a hexa number 
....................       { 
....................          c = toupper(c); 
....................          while ((c >= '0' && c <= '9') || (c >= 'A' && c <='F')) 
....................          { 
....................             if (c >= '0' && c <= '9') 
....................                result = (result << 4) + (c - '0'); 
....................             else 
....................                result = (result << 4) + (c - 'A' + 10); 
....................  
....................             c = s[index++];c = toupper(c); 
....................          } 
....................       } 
....................    } 
....................  
....................    if (base == 10 && sign == 1) 
....................       result = -result; 
....................  
....................    return(result); 
.................... } 
.................... #endif 
....................  
.................... #if defined(__PCD__) 
....................  
.................... signed int48 atoi48(char *s) 
.................... { 
....................    signed int48 result; 
....................    int8 sign, base, index; 
....................    char c; 
....................  
....................    index = 0; 
....................    sign = 0; 
....................    base = 10; 
....................    result = 0; 
....................  
....................    if (!s) 
....................       return 0; 
....................    c = s[index++]; 
....................  
....................    // increase index if either positive or negative sign is detected 
....................    if (c == '-') 
....................    { 
....................       sign = 1;         // Set the sign to negative 
....................       c = s[index++]; 
....................    } 
....................    else if (c == '+') 
....................    { 
....................       c = s[index++]; 
....................    } 
....................  
....................    if (c >= '0' && c <= '9') 
....................    { 
....................       if (c == '0' && (s[index] == 'x' || s[index] == 'X')) 
....................       { 
....................          base = 16; 
....................          index++; 
....................          c = s[index++]; 
....................       } 
....................  
....................       // The number is a decimal number 
....................       if (base == 10) 
....................       { 
....................          while (c >= '0' && c <= '9') { 
....................             result = (result << 1) + (result << 3);  // result *= 10; 
....................             result += (c - '0'); 
....................             c = s[index++]; 
....................          } 
....................       } 
....................       else if (base == 16)    // The number is a hexa number 
....................       { 
....................          c = toupper(c); 
....................          while ((c >= '0' && c <= '9') || (c >= 'A' && c <='F')) 
....................          { 
....................             if (c >= '0' && c <= '9') 
....................                result = (result << 4) + (c - '0'); 
....................             else 
....................                result = (result << 4) + (c - 'A' + 10); 
....................  
....................             c = s[index++];c = toupper(c); 
....................          } 
....................       } 
....................    } 
....................  
....................    if (base == 10 && sign == 1) 
....................       result = -result; 
....................  
....................    return(result); 
.................... } 
....................  
.................... signed int64 atoi64(char *s) 
.................... { 
....................    signed int64 result; 
....................    int8 sign, base, index; 
....................    char c; 
....................  
....................    index = 0; 
....................    sign = 0; 
....................    base = 10; 
....................    result = 0; 
....................  
....................    if (!s) 
....................       return 0; 
....................    c = s[index++]; 
....................  
....................    // increase index if either positive or negative sign is detected 
....................    if (c == '-') 
....................    { 
....................       sign = 1;         // Set the sign to negative 
....................       c = s[index++]; 
....................    } 
....................    else if (c == '+') 
....................    { 
....................       c = s[index++]; 
....................    } 
....................  
....................    if (c >= '0' && c <= '9') 
....................    { 
....................       if (c == '0' && (s[index] == 'x' || s[index] == 'X')) 
....................       { 
....................          base = 16; 
....................          index++; 
....................          c = s[index++]; 
....................       } 
....................  
....................       // The number is a decimal number 
....................       if (base == 10) 
....................       { 
....................          while (c >= '0' && c <= '9') { 
....................             result = (result << 1) + (result << 3);  // result *= 10; 
....................             result += (c - '0'); 
....................             c = s[index++]; 
....................          } 
....................       } 
....................       else if (base == 16)    // The number is a hexa number 
....................       { 
....................          c = toupper(c); 
....................          while ((c >= '0' && c <= '9') || (c >= 'A' && c <='F')) 
....................          { 
....................             if (c >= '0' && c <= '9') 
....................                result = (result << 4) + (c - '0'); 
....................             else 
....................                result = (result << 4) + (c - 'A' + 10); 
....................  
....................             c = s[index++];c = toupper(c); 
....................          } 
....................       } 
....................    } 
....................  
....................    if (base == 10 && sign == 1) 
....................       result = -result; 
....................  
....................    return(result); 
.................... } 
.................... #endif 
....................  
.................... char * itoa(signed int32 num, unsigned int base, char * s) 
.................... { 
....................      unsigned int32 temp=1; 
....................      unsigned int8 i,sign=0,cnt=0; 
....................      char c; 
....................  
....................      if(num<0) { 
....................          sign=1;        // Check for negative number 
....................          num*=-1; 
....................      } 
....................  
....................      while(temp>0) { 
....................          temp=(num/base); 
....................          s[cnt]=(num%base)+'0';    // Conversion 
....................  
....................          if(s[cnt]>0x39) 
....................             s[cnt]+=0x7; 
....................  
....................          cnt++; 
....................          num=temp; 
....................      } 
....................  
....................      if(sign==1) { 
....................          s[cnt]=0x2D;      // Negative sign 
....................          cnt++; 
....................      } 
....................  
....................      for(i = 0;i<(int8)(cnt/2);i++) { 
....................  
....................          c=s[i]; 
....................          s[i]=s[cnt-i-1];        // Reverse the number 
....................          s[cnt-i-1]=c; 
....................      } 
....................      s[cnt]='\0';     // End the string 
....................      return s; 
.................... } 
....................  
.................... float strtof(char *s, char *endptr) 
.................... { 
....................    float pow10 = 1.0; 
....................    float result = 0.0; 
....................    int1 skip = 1, sign = 0, point = 0; 
....................    char c; 
....................    unsigned int8 ptr = 0; 
....................  
....................    if (!s) 
....................       return 0; 
....................  
....................    for(c=s[ptr++]; c!=0; c=s[ptr++]) 
....................    { 
....................       if (skip && !isspace(c)) 
....................       { 
....................          skip = 0; 
....................          if (c == '+') 
....................          { 
....................             sign = 0; 
....................             continue; 
....................          }             
....................          else if (c == '-') 
....................          { 
....................             sign = 1; 
....................             continue; 
....................          } 
....................       } 
....................       if (!skip && (c == '.') && !point) 
....................          point = 1; 
....................       else if (!skip && isdigit(c)) 
....................       { 
....................          c -= '0'; 
....................          if (point) 
....................          { 
....................             pow10 = pow10 * 10.0; 
....................             result += (float)c / pow10;    
....................          } 
....................          else 
....................          { 
....................             result = 10.0 * result + (float)c; 
....................          } 
....................       } 
....................       else if (!skip) 
....................          break; 
....................    } 
....................  
....................    if (sign) 
....................       result = -1*result; 
....................        
....................    if(endptr) 
....................    { 
....................       if (ptr) { 
....................          ptr--; 
....................        #IF LONG_POINTERS  
....................          *((long *)endptr)= s+ptr;  
....................        #ELSE 
....................          *((char *)endptr)=s+ptr; 
....................        #ENDIF 
....................       } 
....................       else 
....................       { 
....................       #IF LONG_POINTERS 
....................       *((long *)endptr)= s;  
....................       #ELSE 
....................       *((char *)endptr)=s; 
....................       #ENDIF 
....................       } 
....................    } 
....................  
....................    return(result); 
.................... } 
....................  
.................... #if defined(__PCD__) 
.................... float48 strtof48(char *s, char *endptr) 
.................... { 
....................    float48 pow10 = 1.0; 
....................    float48 result = 0.0; 
....................    int1 skip = 1, sign = 0, point = 0; 
....................    char c; 
....................    unsigned int8 ptr = 0; 
....................  
....................    if (!s) 
....................       return 0; 
....................  
....................    for(c=s[ptr++]; c!=0; c=s[ptr++]) 
....................    { 
....................       if (skip && !isspace(c)) 
....................       { 
....................          skip = 0; 
....................          if (c == '+') 
....................          { 
....................             sign = 0; 
....................             continue; 
....................          }             
....................          else if (c == '-') 
....................          { 
....................             sign = 1; 
....................             continue; 
....................          } 
....................       } 
....................       if (!skip && (c == '.') && !point) 
....................          point = 1; 
....................       else if (!skip && isdigit(c)) 
....................       { 
....................          c -= '0'; 
....................          if (point) 
....................          { 
....................             pow10 = pow10 * 10.0; 
....................             result += (float48)c / pow10;    
....................          } 
....................          else 
....................          { 
....................             result = 10.0 * result + (float48)c; 
....................          } 
....................       } 
....................       else if (!skip) 
....................          break; 
....................    } 
....................  
....................    if (sign) 
....................       result = -1*result; 
....................        
....................    if(endptr) 
....................    { 
....................       if (ptr) { 
....................          ptr--; 
....................        #IF LONG_POINTERS  
....................          *((long *)endptr)= s+ptr;  
....................        #ELSE 
....................          *((char *)endptr)=s+ptr; 
....................        #ENDIF 
....................       } 
....................       else 
....................       { 
....................       #IF LONG_POINTERS 
....................       *((long *)endptr)= s;  
....................       #ELSE 
....................       *((char *)endptr)=s; 
....................       #ENDIF 
....................       } 
....................    } 
....................  
....................    return(result); 
.................... } 
....................  
.................... float64 strtod(char *s, char *endptr) 
.................... { 
....................    float64 pow10 = 1.0; 
....................    float64 result = 0.0; 
....................    int1 skip = 1, sign = 0, point = 0; 
....................    char c; 
....................    unsigned int8 ptr = 0; 
....................  
....................    if (!s) 
....................       return 0; 
....................  
....................    for(c=s[ptr++]; c!=0; c=s[ptr++]) 
....................    { 
....................       if (skip && !isspace(c)) 
....................       { 
....................          skip = 0; 
....................          if (c == '+') 
....................          { 
....................             sign = 0; 
....................             continue; 
....................          }             
....................          else if (c == '-') 
....................          { 
....................             sign = 1; 
....................             continue; 
....................          } 
....................       } 
....................       if (!skip && (c == '.') && !point) 
....................          point = 1; 
....................       else if (!skip && isdigit(c)) 
....................       { 
....................          c -= '0'; 
....................          if (point) 
....................          { 
....................             pow10 = pow10 * 10.0; 
....................             result += (float64)c / pow10;    
....................          } 
....................          else 
....................          { 
....................             result = 10.0 * result + (float64)c; 
....................          } 
....................       } 
....................       else if (!skip) 
....................          break; 
....................    } 
....................  
....................    if (sign) 
....................       result = -1*result; 
....................        
....................    if(endptr) 
....................    { 
....................       if (ptr) { 
....................          ptr--; 
....................        #IF LONG_POINTERS  
....................          *((long *)endptr)= s+ptr;  
....................        #ELSE 
....................          *((char *)endptr)=s+ptr; 
....................        #ENDIF 
....................       } 
....................       else 
....................       { 
....................       #IF LONG_POINTERS 
....................       *((long *)endptr)= s;  
....................       #ELSE 
....................       *((char *)endptr)=s; 
....................       #ENDIF 
....................       } 
....................    } 
....................  
....................    return(result); 
.................... } 
.................... #endif 
....................  
.................... unsigned long strtoul(char *s, char *endptr, signed int base) 
.................... { 
....................    char *sc,*s1,*sd; 
....................    unsigned long x=0; 
....................    char sign; 
....................    char digits[]="0123456789abcdefghijklmnopqstuvwxyz"; 
....................    for(sc=s;isspace(*sc);++sc); 
....................    sign=*sc=='-'||*sc=='+'?*sc++:'+'; 
....................    if(sign=='-' || base <0 || base ==1|| base >36) // invalid base 
....................    goto StrtoulGO; 
....................  
....................    else if (base) 
....................    { 
....................       if(base==16 && *sc =='0'&&(sc[1]=='x' || sc[1]=='X')) 
....................          sc+=2; 
....................       if(base==8 && *sc =='0') 
....................          sc+=1; 
....................       if(base==2 && *sc =='0'&&sc[1]=='b') 
....................          sc+=2; 
....................  
....................    } 
....................    else if(*sc!='0') // base is 0, find base 
....................       base=10; 
....................    else if (sc[1]=='x' || sc[1]=='X') 
....................       base =16,sc+=2; 
....................    else if(sc[1]=='b') 
....................       base=2,sc+=2; 
....................    else 
....................       base=8; 
....................    for (s1=sc;*sc=='0';++sc);// skip leading zeroes 
....................    sd=memchr(digits,tolower(*sc),base); 
....................    for(; sd!=0; ) 
....................    { 
....................       x=x*base+(int16)(sd-digits); 
....................       ++sc; 
....................       sd=memchr(digits,tolower(*sc),base); 
....................    } 
....................    if(s1==sc) 
....................    { 
....................    StrtoulGO: 
....................       if (endptr) 
....................       { 
....................          #IF LONG_POINTERS 
....................          *((long *)endptr)= s;  
....................          #ELSE 
....................          *((char *)endptr)=s; 
....................          #ENDIF 
....................          } 
....................    return 0; 
....................    } 
....................    if (endptr) 
....................    { 
....................          #IF LONG_POINTERS 
....................          *((long *)endptr)= sc;  
....................          #ELSE 
....................          *((char *)endptr)=sc;  
....................          #ENDIF 
....................    } 
....................    return x; 
.................... } 
....................  
....................  
.................... signed long strtol(char *s,char *endptr, signed int base) 
.................... { 
....................    char *sc,*s1,*sd; 
....................    signed long x=0; 
....................    char sign; 
....................    char digits[]="0123456789abcdefghijklmnopqstuvwxyz"; 
....................    for(sc=s;isspace(*sc);++sc); 
....................    sign=*sc=='-'||*sc=='+'?*sc++:'+'; 
....................    if (base <0 || base ==1|| base >36) // invalid base 
....................    goto StrtolGO; 
....................    else if (base) 
....................    { 
....................       if(base==16 && *sc =='0'&&(sc[1]=='x' || sc[1]=='X')) 
....................          sc+=2; 
....................       if(base==8 && *sc =='0') 
....................          sc+=1; 
....................       if(base==2 && *sc =='0'&&sc[1]=='b') 
....................          sc+=2; 
....................  
....................    } 
....................    else if(*sc!='0') // base is 0, find base 
....................       base=10; 
....................    else if (sc[1]=='x' || sc[1]=='X') 
....................       base =16,sc+=2; 
....................    else if(sc[1]=='b') 
....................       base=2,sc+=2; 
....................    else 
....................       base=8; 
....................    for (s1=sc;*sc=='0';++sc);// skip leading zeroes 
....................  
....................    sd=memchr(digits,tolower(*sc),base); 
....................    for(;sd!=0;) 
....................    { 
....................       x=x*base+(int16)(sd-digits); 
....................       ++sc; 
....................       sd=memchr(digits,tolower(*sc),base); 
....................    } 
....................    if(s1==sc) 
....................    { 
....................    StrtolGO: 
....................       if (endptr) 
....................       { 
....................          #IF LONG_POINTERS 
....................          *((long *)endptr)= s;  
....................          #ELSE 
....................          *((char *)endptr)=s; 
....................          #ENDIF 
....................       } 
....................    return 0; 
....................    } 
....................    if(sign=='-') 
....................       x  =-x; 
....................    if (endptr) 
....................    { 
....................         #IF LONG_POINTERS 
....................          *((long *)endptr)= sc;  
....................         #ELSE 
....................         *((char *)endptr)=sc; 
....................         #ENDIF 
....................    } 
....................    return x; 
.................... } 
....................  
.................... signed int8 system(char *string) 
.................... { 
....................    return 0; 
.................... } 
....................  
.................... int8 mblen(char *s,size_t n) 
.................... { 
....................    return strlen(s); 
.................... } 
....................  
.................... int8 mbtowc(wchar_t *pwc,char *s,size_t n) 
.................... { 
....................    *pwc=*s; 
....................    return 1; 
.................... } 
....................  
.................... int8 wctomb(char *s,wchar_t wchar) 
.................... { 
....................    *s=wchar; 
....................    return 1; 
.................... } 
....................  
.................... size_t mbstowcs(wchar_t *pwcs,char *s,size_t n) 
.................... { 
....................    strncpy(pwcs,s,n); 
....................    return strlen(pwcs); 
.................... } 
....................  
.................... size_t wcstombs(char *s,wchar_t *pwcs,size_t n) 
.................... { 
....................    strncpy(s,pwcs,n); 
....................    return strlen(s); 
.................... } 
....................  
.................... //--------------------------------------------------------------------------- 
.................... // The random number implementation 
.................... //--------------------------------------------------------------------------- 
....................  
.................... unsigned int32 _Randseed; 
....................  
.................... unsigned int16 rand(void) 
.................... { 
....................    _Randseed = _Randseed * 1103515245 + 12345; 
....................    return ((unsigned int16)(_Randseed >> 16) % RAND_MAX); 
.................... } 
....................  
.................... void srand(unsigned int32 seed) 
.................... { 
....................    _Randseed = seed; 
.................... } 
....................  
.................... //--------------------------------------------------------------------------- 
.................... // Searching and sorting utilities implementation 
.................... //--------------------------------------------------------------------------- 
....................  
.................... #if !defined(__PCD__) 
.................... typedef signed int8 (*_Cmpfun)(char * p1,char * p2);  
.................... #else  
.................... typedef signed int16 (*_Cmpfun)(char * p1,char * p2);  
.................... #endif 
....................  
....................  
....................  
.................... void qsort(char * qdata, unsigned int qitems, unsigned int qsize, _Cmpfun cmp) { 
....................    unsigned int m,j,i,l; 
....................    int1 done; 
....................    unsigned int8 t[16]; 
....................  
....................    m = qitems/2; 
....................    while( m > 0 ) { 
....................      for(j=0; j<(qitems-m); ++j) { 
....................         i = j; 
....................         do 
....................         { 
....................            done=1; 
....................            l = i+m; 
....................            if( (*cmp)(qdata+i*qsize, qdata+l*qsize) > 0 ) { 
....................               memcpy(t, qdata+i*qsize, qsize); 
....................               memcpy(qdata+i*qsize, qdata+l*qsize, qsize); 
....................               memcpy(qdata+l*qsize, t, qsize); 
....................               if(m <= i) 
....................                 i -= m; 
....................                 done = 0; 
....................            } 
....................         } while(!done); 
....................      } 
....................      m = m/2; 
....................    } 
.................... } 
....................  
....................  
.................... char *bsearch(char *key, char *base, size_t num, size_t width,_Cmpfun cmp) 
.................... { 
....................    char *p, *q; 
....................    size_t n; 
....................    size_t pivot; 
....................    signed int val; 
....................  
....................    p = base; 
....................    n = num; 
....................  
....................    while (n > 0) 
....................    { 
....................       pivot = n >> 1; 
....................       q = p + width * pivot; 
....................  
....................       val = (*cmp)(key, q); 
....................  
....................       if (val < 0) 
....................          n = pivot; 
....................       else if (val == 0) 
....................          return ((char *)q); 
....................       else { 
....................          p = q + width; 
....................          n -= pivot + 1; 
....................       } 
....................    } 
....................  
....................    return NULL;      // There's no match 
.................... } 
....................  
....................  
.................... #endif 
....................  
.................... #include <DS1302.c> 
.................... ////////////////////////////////////////////////////////////////////////// 
.................... ////                               DS1302.C                           //// 
.................... ////                     Driver for Real Time Clock                   //// 
.................... ////                                                                  //// 
.................... ////  rtc_init()                                   Call after power up//// 
.................... ////                                                                  //// 
.................... ////  rtc_set_datetime(day,mth,year,dow,hour,min)  Set the date/time  //// 
.................... ////                                                                  //// 
.................... ////  rtc_get_date(day,mth,year,dow)               Get the date       //// 
.................... ////                                                                  //// 
.................... ////  rtc_get_time(hr,min,sec)                     Get the time       //// 
.................... ////                                                                  //// 
.................... ////  rtc_write_nvr(address,data)                  Write to NVR       //// 
.................... ////                                                                  //// 
.................... ////  data = rtc_read_nvr(address)                 Read from NVR      //// 
.................... ////                                                                  //// 
.................... ////  get_bcd(data)                              Convert data to BCD  //// 
.................... ////                                                                  //// 
.................... ////  rm_bcd(data)                               Convert data to int  //// 
.................... ////                                                                  //// 
.................... ////////////////////////////////////////////////////////////////////////// 
.................... ////        (C) Copyright 1996,2003 Custom Computer Services          //// 
.................... //// This source code may only be used by licensed users of the CCS C //// 
.................... //// compiler.  This source code may only be distributed to other     //// 
.................... //// licensed users of the CCS C compiler.  No other use, reproduction//// 
.................... //// or distribution is permitted without written permission.         //// 
.................... //// Derivative programs created using this software in object code   //// 
.................... //// form are not restricted in any way.                              //// 
.................... ////////////////////////////////////////////////////////////////////////// 
....................  
.................... //#ifndef RTC_SCLK 
....................  
.................... #define RTC_SCLK PIN_C0 
.................... #define RTC_IO   PIN_C1 
.................... #define RTC_RST  PIN_C2 
....................  
.................... //#endif 
....................  
.................... void write_ds1302_byte(BYTE cmd) { 
....................    BYTE i; 
....................  
....................    for(i=0;i<=7;++i) { 
*
03950:  MOVLB  6
03952:  CLRF   xB2
03954:  MOVF   xB2,W
03956:  SUBLW  07
03958:  BNC   3974
....................       output_bit(RTC_IO, shift_right(&cmd,1,0) ); 
0395A:  BCF    FD8.0
0395C:  RRCF   xB1,F
0395E:  BC    3964
03960:  BCF    F8B.1
03962:  BRA    3966
03964:  BSF    F8B.1
03966:  BCF    F94.1
....................       output_high(RTC_SCLK); 
03968:  BCF    F94.0
0396A:  BSF    F8B.0
....................       output_low(RTC_SCLK); 
0396C:  BCF    F94.0
0396E:  BCF    F8B.0
....................    } 
03970:  INCF   xB2,F
03972:  BRA    3954
.................... } 
03974:  MOVLB  0
03976:  RETLW  00
....................  
.................... void write_ds1302(BYTE cmd, BYTE data) { 
....................  
....................    output_high(RTC_RST); 
03978:  BCF    F94.2
0397A:  BSF    F8B.2
....................    write_ds1302_byte(cmd); 
0397C:  MOVFF  6AF,6B1
03980:  RCALL  3950
....................    write_ds1302_byte(data); 
03982:  MOVFF  6B0,6B1
03986:  RCALL  3950
....................    output_low(RTC_RST); 
03988:  BCF    F94.2
0398A:  BCF    F8B.2
.................... } 
0398C:  RETLW  00
....................  
.................... BYTE read_ds1302(BYTE cmd) { 
....................    BYTE i,data; 
....................  
....................    output_high(RTC_RST); 
0398E:  BCF    F94.2
03990:  BSF    F8B.2
....................    write_ds1302_byte(cmd); 
03992:  MOVFF  6AC,6B1
03996:  RCALL  3950
....................     
....................    input(RTC_IO); 
03998:  BSF    F94.1
....................    delay_us(10); 
0399A:  MOVLW  10
0399C:  MOVWF  00
0399E:  DECFSZ 00,F
039A0:  BRA    399E
039A2:  NOP   
....................           
....................    for(i=0;i<=7;++i) { 
039A4:  MOVLB  6
039A6:  CLRF   xAD
039A8:  MOVF   xAD,W
039AA:  SUBLW  07
039AC:  BNC   39D8
....................       shift_right(&data,1,input(RTC_IO)); 
039AE:  BSF    F94.1
039B0:  BTFSC  F82.1
039B2:  BRA    39B8
039B4:  BCF    FD8.0
039B6:  BRA    39BA
039B8:  BSF    FD8.0
039BA:  RRCF   xAE,F
....................       output_high(RTC_SCLK); 
039BC:  BCF    F94.0
039BE:  BSF    F8B.0
....................       delay_us(20); 
039C0:  MOVLW  21
039C2:  MOVWF  00
039C4:  DECFSZ 00,F
039C6:  BRA    39C4
....................       output_low(RTC_SCLK); 
039C8:  BCF    F94.0
039CA:  BCF    F8B.0
....................       delay_us(20); 
039CC:  MOVLW  21
039CE:  MOVWF  00
039D0:  DECFSZ 00,F
039D2:  BRA    39D0
....................    } 
039D4:  INCF   xAD,F
039D6:  BRA    39A8
....................    output_low(RTC_RST); 
039D8:  BCF    F94.2
039DA:  BCF    F8B.2
....................  
....................    return(data); 
039DC:  MOVFF  6AE,01
.................... } 
039E0:  MOVLB  0
039E2:  RETLW  00
....................  
.................... void rtc_init() { 
....................    BYTE x; 
....................    output_low(RTC_RST); 
039E4:  BCF    F94.2
039E6:  BCF    F8B.2
....................    delay_us(20); 
039E8:  MOVLW  21
039EA:  MOVWF  00
039EC:  DECFSZ 00,F
039EE:  BRA    39EC
....................    output_low(RTC_SCLK); 
039F0:  BCF    F94.0
039F2:  BCF    F8B.0
....................    write_ds1302(0x8e,0); 
039F4:  MOVLW  8E
039F6:  MOVLB  6
039F8:  MOVWF  xAF
039FA:  CLRF   xB0
039FC:  MOVLB  0
039FE:  RCALL  3978
....................    write_ds1302(0x90,0xa4); 
03A00:  MOVLW  90
03A02:  MOVLB  6
03A04:  MOVWF  xAF
03A06:  MOVLW  A4
03A08:  MOVWF  xB0
03A0A:  MOVLB  0
03A0C:  RCALL  3978
....................    x=read_ds1302(0x81); 
03A0E:  MOVLW  81
03A10:  MOVLB  6
03A12:  MOVWF  xAC
03A14:  MOVLB  0
03A16:  RCALL  398E
03A18:  MOVFF  01,6A8
....................    if((x & 0x80)!=0) 
03A1C:  MOVLB  6
03A1E:  MOVF   xA8,W
03A20:  ANDLW  80
03A22:  BZ    3A30
....................      write_ds1302(0x80,0); 
03A24:  MOVLW  80
03A26:  MOVWF  xAF
03A28:  CLRF   xB0
03A2A:  MOVLB  0
03A2C:  RCALL  3978
03A2E:  MOVLB  6
.................... } 
03A30:  MOVLB  0
03A32:  GOTO   7DA0 (RETURN)
....................  
.................... byte get_bcd(BYTE data) 
.................... { 
....................    byte nibh; 
....................    byte nibl; 
....................  
....................    nibh=data/10; 
*
05F58:  MOVFF  6AE,6B1
05F5C:  MOVLW  0A
05F5E:  MOVLB  6
05F60:  MOVWF  xB2
05F62:  MOVLB  0
05F64:  RCALL  5A8A
05F66:  MOVFF  01,6AF
....................    nibl=data-(nibh*10); 
05F6A:  MOVLB  6
05F6C:  MOVF   xAF,W
05F6E:  MULLW  0A
05F70:  MOVF   FF3,W
05F72:  SUBWF  xAE,W
05F74:  MOVWF  xB0
....................  
....................    return((nibh<<4)|nibl); 
05F76:  SWAPF  xAF,W
05F78:  MOVWF  00
05F7A:  MOVLW  F0
05F7C:  ANDWF  00,F
05F7E:  MOVF   00,W
05F80:  IORWF  xB0,W
05F82:  MOVWF  01
.................... } 
05F84:  MOVLB  0
05F86:  RETLW  00
....................  
.................... byte rm_bcd(BYTE data) 
.................... { 
....................    byte i; 
....................  
....................    i=data; 
*
05232:  MOVFF  6AD,6AE
....................    data=(i>>4)*10; 
05236:  MOVLB  6
05238:  SWAPF  xAE,W
0523A:  MOVWF  00
0523C:  MOVLW  0F
0523E:  ANDWF  00,F
05240:  MOVF   00,W
05242:  MULLW  0A
05244:  MOVFF  FF3,6AD
....................    data=data+(i<<4>>4); 
05248:  SWAPF  xAE,W
0524A:  MOVWF  00
0524C:  MOVLW  F0
0524E:  ANDWF  00,F
05250:  MOVF   00,W
05252:  SWAPF  00,F
05254:  MOVLW  0F
05256:  ANDWF  00,F
05258:  MOVF   00,W
0525A:  ADDWF  xAD,F
....................  
....................    return data; 
0525C:  MOVFF  6AD,01
.................... } 
05260:  MOVLB  0
05262:  RETLW  00
....................  
.................... void rtc_set_datetime(BYTE day, BYTE mth, BYTE year, BYTE dow, BYTE hr, BYTE min) { 
....................  
....................    write_ds1302(0x86,get_bcd(day)); 
*
05F88:  MOVFF  6A8,6AE
05F8C:  RCALL  5F58
05F8E:  MOVFF  01,6AE
05F92:  MOVLW  86
05F94:  MOVLB  6
05F96:  MOVWF  xAF
05F98:  MOVFF  01,6B0
05F9C:  MOVLB  0
05F9E:  CALL   3978
....................    write_ds1302(0x88,get_bcd(mth)); 
05FA2:  MOVFF  6A9,6AE
05FA6:  RCALL  5F58
05FA8:  MOVFF  01,6AE
05FAC:  MOVLW  88
05FAE:  MOVLB  6
05FB0:  MOVWF  xAF
05FB2:  MOVFF  01,6B0
05FB6:  MOVLB  0
05FB8:  CALL   3978
....................    write_ds1302(0x8c,get_bcd(year)); 
05FBC:  MOVFF  6AA,6AE
05FC0:  RCALL  5F58
05FC2:  MOVFF  01,6AE
05FC6:  MOVLW  8C
05FC8:  MOVLB  6
05FCA:  MOVWF  xAF
05FCC:  MOVFF  01,6B0
05FD0:  MOVLB  0
05FD2:  CALL   3978
....................    write_ds1302(0x8a,get_bcd(dow)); 
05FD6:  MOVFF  6AB,6AE
05FDA:  RCALL  5F58
05FDC:  MOVFF  01,6AE
05FE0:  MOVLW  8A
05FE2:  MOVLB  6
05FE4:  MOVWF  xAF
05FE6:  MOVFF  01,6B0
05FEA:  MOVLB  0
05FEC:  CALL   3978
....................    write_ds1302(0x84,get_bcd(hr)); 
05FF0:  MOVFF  6AC,6AE
05FF4:  RCALL  5F58
05FF6:  MOVFF  01,6AE
05FFA:  MOVLW  84
05FFC:  MOVLB  6
05FFE:  MOVWF  xAF
06000:  MOVFF  01,6B0
06004:  MOVLB  0
06006:  CALL   3978
....................    write_ds1302(0x82,get_bcd(min)); 
0600A:  MOVFF  6AD,6AE
0600E:  RCALL  5F58
06010:  MOVFF  01,6AE
06014:  MOVLW  82
06016:  MOVLB  6
06018:  MOVWF  xAF
0601A:  MOVFF  01,6B0
0601E:  MOVLB  0
06020:  CALL   3978
....................    write_ds1302(0x80,get_bcd(0)); 
06024:  MOVLB  6
06026:  CLRF   xAE
06028:  MOVLB  0
0602A:  RCALL  5F58
0602C:  MOVFF  01,6AE
06030:  MOVLW  80
06032:  MOVLB  6
06034:  MOVWF  xAF
06036:  MOVFF  01,6B0
0603A:  MOVLB  0
0603C:  CALL   3978
.................... } 
06040:  GOTO   A110 (RETURN)
....................  
.................... void rtc_get_date(BYTE& day, BYTE& mth, BYTE& year, BYTE& dow) { 
....................    day = rm_bcd(read_ds1302(0x87)); 
*
07EAE:  MOVLW  87
07EB0:  MOVLB  6
07EB2:  MOVWF  xAC
07EB4:  MOVLB  0
07EB6:  CALL   398E
07EBA:  MOVFF  01,6A8
07EBE:  MOVFF  01,6AD
07EC2:  CALL   5232
07EC6:  MOVFF  01,293
....................    mth = rm_bcd(read_ds1302(0x89)); 
07ECA:  MOVLW  89
07ECC:  MOVLB  6
07ECE:  MOVWF  xAC
07ED0:  MOVLB  0
07ED2:  CALL   398E
07ED6:  MOVFF  01,6A8
07EDA:  MOVFF  01,6AD
07EDE:  CALL   5232
07EE2:  MOVFF  01,292
....................    year = rm_bcd(read_ds1302(0x8d)); 
07EE6:  MOVLW  8D
07EE8:  MOVLB  6
07EEA:  MOVWF  xAC
07EEC:  MOVLB  0
07EEE:  CALL   398E
07EF2:  MOVFF  01,6A8
07EF6:  MOVFF  01,6AD
07EFA:  CALL   5232
07EFE:  MOVFF  01,291
....................    dow = rm_bcd(read_ds1302(0x8b)); 
07F02:  MOVLW  8B
07F04:  MOVLB  6
07F06:  MOVWF  xAC
07F08:  MOVLB  0
07F0A:  CALL   398E
07F0E:  MOVFF  01,6A8
07F12:  MOVFF  01,6AD
07F16:  CALL   5232
07F1A:  MOVFF  01,297
.................... } 
....................  
.................... void rtc_get_time(BYTE& hr, BYTE& min, BYTE& sec) { 
....................    hr = rm_bcd(read_ds1302(0x85)); 
07F1E:  MOVLW  85
07F20:  MOVLB  6
07F22:  MOVWF  xAC
07F24:  MOVLB  0
07F26:  CALL   398E
07F2A:  MOVFF  01,6A8
07F2E:  MOVFF  01,6AD
07F32:  CALL   5232
07F36:  MOVFF  01,294
....................    min = rm_bcd(read_ds1302(0x83)); 
07F3A:  MOVLW  83
07F3C:  MOVLB  6
07F3E:  MOVWF  xAC
07F40:  MOVLB  0
07F42:  CALL   398E
07F46:  MOVFF  01,6A8
07F4A:  MOVFF  01,6AD
07F4E:  CALL   5232
07F52:  MOVFF  01,295
....................    sec = rm_bcd(read_ds1302(0x81)); 
07F56:  MOVLW  81
07F58:  MOVLB  6
07F5A:  MOVWF  xAC
07F5C:  MOVLB  0
07F5E:  CALL   398E
07F62:  MOVFF  01,6A8
07F66:  MOVFF  01,6AD
07F6A:  CALL   5232
07F6E:  MOVFF  01,296
.................... } 
....................  
.................... void rtc_write_nvr(BYTE address, BYTE data) { 
....................    write_ds1302(address|0xc0,data); 
.................... } 
....................  
.................... BYTE rtc_read_nvr(BYTE address) { 
....................     return(read_ds1302(address|0xc1)); 
.................... } 
....................  
.................... #include <24512.c> 
.................... /////////////////////////////////////////////////////////////////////////// 
.................... ////   Library for a 24LC512 serial EEPROM                             //// 
.................... ////                                                                   //// 
.................... ////   init_ext_eeprom();    Call before the other functions are used  //// 
.................... ////                                                                   //// 
.................... ////   write_ext_eeprom(a, d);  Write the byte d to the address a      //// 
.................... ////                                                                   //// 
.................... ////   d = read_ext_eeprom(a);   Read the byte d from the address a    //// 
.................... ////                                                                   //// 
.................... ////   The main program may define eeprom_sda                          //// 
.................... ////   and eeprom_scl to override the defaults below.                  //// 
.................... ////                                                                   //// 
.................... /////////////////////////////////////////////////////////////////////////// 
.................... ////        (C) Copyright 1996,2003 Custom Computer Services           //// 
.................... //// This source code may only be used by licensed users of the CCS C  //// 
.................... //// compiler.  This source code may only be distributed to other      //// 
.................... //// licensed users of the CCS C compiler.  No other use, reproduction //// 
.................... //// or distribution is permitted without written permission.          //// 
.................... //// Derivative programs created using this software in object code    //// 
.................... //// form are not restricted in any way.                               //// 
.................... /////////////////////////////////////////////////////////////////////////// 
....................  
.................... #ifndef EEPROM_SDA 
....................  
.................... #define EEPROM_SDA  PIN_C4 
.................... #define EEPROM_SCL  PIN_C3 
....................  
.................... #endif 
....................  
.................... #use i2c(master, sda=EEPROM_SDA, scl=EEPROM_SCL) 
*
02404:  MOVLW  08
02406:  MOVWF  01
02408:  MOVLW  05
0240A:  MOVWF  00
0240C:  DECFSZ 00,F
0240E:  BRA    240C
02410:  BCF    F8B.3
02412:  BCF    F94.3
02414:  MOVLW  06
02416:  MOVWF  00
02418:  DECFSZ 00,F
0241A:  BRA    2418
0241C:  MOVLB  6
0241E:  RLCF   xBE,F
02420:  BCF    F8B.4
02422:  BTFSC  FD8.0
02424:  BSF    F94.4
02426:  BTFSS  FD8.0
02428:  BCF    F94.4
0242A:  BSF    F94.3
0242C:  BTFSS  F82.3
0242E:  BRA    242C
02430:  DECFSZ 01,F
02432:  BRA    2436
02434:  BRA    243A
02436:  MOVLB  0
02438:  BRA    2408
0243A:  MOVLW  05
0243C:  MOVWF  00
0243E:  DECFSZ 00,F
02440:  BRA    243E
02442:  BCF    F8B.3
02444:  BCF    F94.3
02446:  NOP   
02448:  BSF    F94.4
0244A:  MOVLW  06
0244C:  MOVWF  00
0244E:  DECFSZ 00,F
02450:  BRA    244E
02452:  MOVLW  06
02454:  MOVWF  00
02456:  DECFSZ 00,F
02458:  BRA    2456
0245A:  BSF    F94.3
0245C:  BTFSS  F82.3
0245E:  BRA    245C
02460:  CLRF   01
02462:  MOVLW  06
02464:  MOVWF  00
02466:  DECFSZ 00,F
02468:  BRA    2466
0246A:  BTFSC  F82.4
0246C:  BSF    01.0
0246E:  BCF    F8B.3
02470:  BCF    F94.3
02472:  BCF    F8B.4
02474:  BCF    F94.4
02476:  MOVLB  0
02478:  RETLW  00
0247A:  MOVLW  08
0247C:  MOVLB  6
0247E:  MOVWF  xB1
02480:  MOVFF  00,6B2
02484:  BSF    F94.4
02486:  MOVLW  06
02488:  MOVWF  00
0248A:  DECFSZ 00,F
0248C:  BRA    248A
0248E:  BSF    F94.3
02490:  BTFSS  F82.3
02492:  BRA    2490
02494:  BTFSC  F82.4
02496:  BSF    FD8.0
02498:  BTFSS  F82.4
0249A:  BCF    FD8.0
0249C:  RLCF   01,F
0249E:  MOVLW  05
024A0:  MOVWF  00
024A2:  DECFSZ 00,F
024A4:  BRA    24A2
024A6:  BCF    F94.3
024A8:  BCF    F8B.3
024AA:  DECFSZ xB1,F
024AC:  BRA    2484
024AE:  BSF    F94.4
024B0:  MOVLW  06
024B2:  MOVWF  00
024B4:  DECFSZ 00,F
024B6:  BRA    24B4
024B8:  BCF    F8B.4
024BA:  MOVF   xB2,W
024BC:  BTFSS  FD8.2
024BE:  BCF    F94.4
024C0:  NOP   
024C2:  BSF    F94.3
024C4:  BTFSS  F82.3
024C6:  BRA    24C4
024C8:  MOVLW  05
024CA:  MOVWF  00
024CC:  DECFSZ 00,F
024CE:  BRA    24CC
024D0:  BCF    F8B.3
024D2:  BCF    F94.3
024D4:  MOVLW  06
024D6:  MOVWF  00
024D8:  DECFSZ 00,F
024DA:  BRA    24D8
024DC:  BCF    F8B.4
024DE:  BCF    F94.4
024E0:  MOVLB  0
024E2:  RETLW  00
....................  
.................... #define EEPROM_ADDRESS long int 
.................... #define EEPROM_SIZE   65535 
....................  
.................... void init_ext_eeprom() 
.................... { 
....................    output_float(EEPROM_SCL); 
....................    output_float(EEPROM_SDA); 
....................  
.................... } 
....................  
.................... void write_ext_eeprom(long int address, BYTE data) 
.................... { 
....................    short int status; 
....................    i2c_start(); 
*
0699E:  BSF    F94.4
069A0:  MOVLW  05
069A2:  MOVWF  00
069A4:  DECFSZ 00,F
069A6:  BRA    69A4
069A8:  BSF    F94.3
069AA:  MOVLW  06
069AC:  MOVWF  00
069AE:  DECFSZ 00,F
069B0:  BRA    69AE
069B2:  BCF    F8B.4
069B4:  BCF    F94.4
069B6:  MOVLW  05
069B8:  MOVWF  00
069BA:  DECFSZ 00,F
069BC:  BRA    69BA
069BE:  BCF    F8B.3
069C0:  BCF    F94.3
....................    i2c_write(0xa0); 
069C2:  MOVLW  A0
069C4:  MOVLB  6
069C6:  MOVWF  xBE
069C8:  MOVLB  0
069CA:  CALL   2404
....................    i2c_write(address>>8); 
069CE:  MOVFF  6B0,6B3
069D2:  MOVLB  6
069D4:  CLRF   xB4
069D6:  MOVFF  6B0,6BE
069DA:  MOVLB  0
069DC:  CALL   2404
....................    i2c_write(address); 
069E0:  MOVFF  6AF,6BE
069E4:  CALL   2404
....................    i2c_write(data); 
069E8:  MOVFF  6B1,6BE
069EC:  CALL   2404
....................    i2c_stop(); 
069F0:  BCF    F94.4
069F2:  NOP   
069F4:  BSF    F94.3
069F6:  BTFSS  F82.3
069F8:  BRA    69F6
069FA:  MOVLW  05
069FC:  MOVWF  00
069FE:  DECFSZ 00,F
06A00:  BRA    69FE
06A02:  BRA    6A04
06A04:  NOP   
06A06:  BSF    F94.4
06A08:  MOVLW  05
06A0A:  MOVWF  00
06A0C:  DECFSZ 00,F
06A0E:  BRA    6A0C
....................    i2c_start(); 
06A10:  BSF    F94.4
06A12:  MOVLW  05
06A14:  MOVWF  00
06A16:  DECFSZ 00,F
06A18:  BRA    6A16
06A1A:  BSF    F94.3
06A1C:  MOVLW  06
06A1E:  MOVWF  00
06A20:  DECFSZ 00,F
06A22:  BRA    6A20
06A24:  BCF    F8B.4
06A26:  BCF    F94.4
06A28:  MOVLW  05
06A2A:  MOVWF  00
06A2C:  DECFSZ 00,F
06A2E:  BRA    6A2C
06A30:  BCF    F8B.3
06A32:  BCF    F94.3
....................    status=i2c_write(0xa0); 
06A34:  MOVLW  A0
06A36:  MOVLB  6
06A38:  MOVWF  xBE
06A3A:  MOVLB  0
06A3C:  CALL   2404
06A40:  MOVF   01,W
06A42:  MOVLB  6
06A44:  BCF    xB2.0
06A46:  BTFSC  01.0
06A48:  BSF    xB2.0
....................    while(status==1) 
....................    { 
06A4A:  BTFSS  xB2.0
06A4C:  BRA    6A8C
....................       i2c_start(); 
06A4E:  BSF    F94.4
06A50:  MOVLW  05
06A52:  MOVWF  00
06A54:  DECFSZ 00,F
06A56:  BRA    6A54
06A58:  BSF    F94.3
06A5A:  MOVLW  06
06A5C:  MOVWF  00
06A5E:  DECFSZ 00,F
06A60:  BRA    6A5E
06A62:  BTFSS  F82.3
06A64:  BRA    6A62
06A66:  BCF    F8B.4
06A68:  BCF    F94.4
06A6A:  MOVLW  05
06A6C:  MOVWF  00
06A6E:  DECFSZ 00,F
06A70:  BRA    6A6E
06A72:  BCF    F8B.3
06A74:  BCF    F94.3
....................       status=i2c_write(0xa0); 
06A76:  MOVLW  A0
06A78:  MOVWF  xBE
06A7A:  MOVLB  0
06A7C:  CALL   2404
06A80:  MOVF   01,W
06A82:  MOVLB  6
06A84:  BCF    xB2.0
06A86:  BTFSC  01.0
06A88:  BSF    xB2.0
....................    } 
06A8A:  BRA    6A4A
....................    i2c_stop(); 
06A8C:  BCF    F94.4
06A8E:  NOP   
06A90:  BSF    F94.3
06A92:  BTFSS  F82.3
06A94:  BRA    6A92
06A96:  MOVLW  05
06A98:  MOVWF  00
06A9A:  DECFSZ 00,F
06A9C:  BRA    6A9A
06A9E:  BRA    6AA0
06AA0:  NOP   
06AA2:  BSF    F94.4
06AA4:  MOVLW  05
06AA6:  MOVWF  00
06AA8:  DECFSZ 00,F
06AAA:  BRA    6AA8
.................... } 
06AAC:  MOVLB  0
06AAE:  RETLW  00
....................  
.................... BYTE read_ext_eeprom(long int address) { 
....................    BYTE data; 
....................    i2c_start(); 
*
024E4:  BSF    F94.4
024E6:  MOVLW  05
024E8:  MOVWF  00
024EA:  DECFSZ 00,F
024EC:  BRA    24EA
024EE:  BSF    F94.3
024F0:  MOVLW  06
024F2:  MOVWF  00
024F4:  DECFSZ 00,F
024F6:  BRA    24F4
024F8:  BCF    F8B.4
024FA:  BCF    F94.4
024FC:  MOVLW  05
024FE:  MOVWF  00
02500:  DECFSZ 00,F
02502:  BRA    2500
02504:  BCF    F8B.3
02506:  BCF    F94.3
....................    i2c_write(0xa0); 
02508:  MOVLW  A0
0250A:  MOVLB  6
0250C:  MOVWF  xBE
0250E:  MOVLB  0
02510:  RCALL  2404
....................    i2c_write(address>>8); 
02512:  MOVFF  6AE,6B0
02516:  MOVLB  6
02518:  CLRF   xB1
0251A:  MOVFF  6AE,6BE
0251E:  MOVLB  0
02520:  RCALL  2404
....................    i2c_write(address); 
02522:  MOVFF  6AD,6BE
02526:  RCALL  2404
....................    i2c_start(); 
02528:  BSF    F94.4
0252A:  MOVLW  05
0252C:  MOVWF  00
0252E:  DECFSZ 00,F
02530:  BRA    252E
02532:  BSF    F94.3
02534:  MOVLW  06
02536:  MOVWF  00
02538:  DECFSZ 00,F
0253A:  BRA    2538
0253C:  BTFSS  F82.3
0253E:  BRA    253C
02540:  BCF    F8B.4
02542:  BCF    F94.4
02544:  MOVLW  05
02546:  MOVWF  00
02548:  DECFSZ 00,F
0254A:  BRA    2548
0254C:  BCF    F8B.3
0254E:  BCF    F94.3
....................    i2c_write(0xa1); 
02550:  MOVLW  A1
02552:  MOVLB  6
02554:  MOVWF  xBE
02556:  MOVLB  0
02558:  RCALL  2404
....................    data=i2c_read(0); 
0255A:  CLRF   00
0255C:  RCALL  247A
0255E:  MOVFF  01,6AF
....................    i2c_stop(); 
02562:  BCF    F94.4
02564:  NOP   
02566:  BSF    F94.3
02568:  BTFSS  F82.3
0256A:  BRA    2568
0256C:  MOVLW  05
0256E:  MOVWF  00
02570:  DECFSZ 00,F
02572:  BRA    2570
02574:  BRA    2576
02576:  NOP   
02578:  BSF    F94.4
0257A:  MOVLW  05
0257C:  MOVWF  00
0257E:  DECFSZ 00,F
02580:  BRA    257E
....................    return(data); 
02582:  MOVLB  6
02584:  MOVFF  6AF,01
.................... } 
02588:  MOVLB  0
0258A:  RETLW  00
....................  
....................  
.................... #define   STOP          !input(PIN_B0) 
.................... #define   EMPAQUES      !input(PIN_B1) 
.................... #define   EMPAQUEL      !input(PIN_B2) 
.................... #define   DOORS         !input(PIN_B3) 
.................... #define   DOORL         !input(PIN_B4) 
.................... #define   LOWB          !input(PIN_B5) 
.................... #define   BLOQUEOS      !input(PIN_B6) 
.................... #define   BLOQUEOL      !input(PIN_B7) 
....................  
....................  
.................... #define OFF 0 
.................... #define ON  1 
.................... #define RX_BUFFER_SIZE  10 
.................... char Rx_Buffer[RX_BUFFER_SIZE+1]; 
.................... char Rx_Buffer2[RX_BUFFER_SIZE+1]; 
.................... char RX_Wr_Index=0; 
....................  
.................... //Comunicacion//------------------------ 
.................... byte txbuf[0X25]; 
.................... byte SlaveB0Tx[0X26]; 
.................... byte SlaveC0Tx[0X25]; 
.................... byte SlaveC0Rx[0X25]; 
.................... byte dato=0;            //Contendr la informacin a enviar o recibir 
.................... byte direccion=0;       //Contendr la direccin del esclavo en el bus I2C 
.................... byte posicion=0;        //Contendr la posicin en el buffer de memoria del esclavo donde se almacenar o de donde se recuperar el dato 
.................... //byte ByteConfig1=0,ByteConfig2=0,ByteConfig3=0; 
....................  
.................... /* Tabla de Modulos, Primera Fila Ao Regular y el siguiente ao Bisiesto 
.................... E   F   M   A   M   J   J   A   S   O   N   D 
.................... 0   3   3   6   1   4   6   2   5   0   3   5 
.................... 0   3   4   0   2   5   0   3   6   1   4   6 
.................... */ 
.................... int8 Regular[12]={0,3,3,6,1,4,6,2,5,0,3,5}; 
.................... int8 Bisiesto[12]={0,3,4,0,2,5,0,3,6,1,4,6}; 
....................  
.................... //Salidas//------------------------ 
.................... short suministroAire=OFF,aguaEnfriador=OFF,bombaVacio=OFF,empaqueLimpio=OFF,empaqueSucio=OFF,suministroVapor=OFF,Paso=OFF,outVacio=OFF,Desfogue=OFF,Aire=OFF,cilindroSucio=OFF,cilindroLimpio=OFF,Aux=OFF; 
.................... short seguroValvula=OFF; 
....................  
.................... //Alarmas//--------------------- 
.................... short AlarmaTiempoProlongado=OFF,AlarmaSobreTemperatura=OFF,AlarmaTermostato=OFF,AlarmaPuertaS=OFF,AlarmaPuertaL=OFF,AlarmaEmergencia=OFF,AlarmaVacio=OFF,AlarmaEmpaqueL=OFF,AlarmaEmpaqueS=OFF; 
.................... short AlarmaBomba=OFF,guardaCiclo=OFF,Cilindro=OFF,AlarmaLlenado=OFF,cerroSucio=OFF,cerroLimpio=OFF,pulsoSubirS=OFF,pulsoSubirL=OFF,vacioEmpaqueL=OFF,vacioEmpaqueS=OFF,abrirPuertaL=OFF; 
.................... int16 TiempoVacio=600,tVacioEmpaqueS=0,tVacioEmpaqueL=0; 
....................  
.................... //Banderas//-------------------- 
.................... short EstadoAguaEnfriador=OFF,EstadoSuministroV=OFF,EstadoCilindrosL=OFF,EstadoCilindrosS=OFF,EstadoEmpaqueL=OFF,EstadoEmpaqueS=OFF; 
.................... short IniciaLlenado=OFF,IniciaCiclo=OFF,Esterilizando=OFF,Secando=OFF,SensadoNivel=OFF,Desfogando=OFF,DesfogueSuave=OFF,CalderinLleno=OFF; 
.................... short EstadoDesfogue=OFF,EstadoSuministro=OFF,EstadoAire=OFF,PruebaEstados=OFF,disp_Guarda=OFF,Ciclo=OFF,EstadoAgua2=OFF; 
.................... short Op=OFF,Op2=OFF,Minutos=OFF,Segundos=OFF,GuardaEEPROM=OFF,EstadoPaso=OFF,EstadoVacio=OFF,EstadoBuzzer=OFF,flagAlarma=OFF; 
.................... short flagBuzzer=OFF,flagSilencio=OFF,Finalizo=OFF,AlarmaPresion=OFF,EstadoACierre=OFF,EstadoBomba=OFF,Libre=OFF,ingreso=OFF,Fugas=OFF; 
.................... short PreCalentamiento=OFF,IniciaVacio=OFF,IniciaVacio2=OFF,Vacio=OFF,flag_vac=OFF,flag_vacio=OFF,flag_pulso=OFF,EstadoAireBomba=OFF; 
.................... short SensadoNivelL=OFF,NivelBajo=OFF,onBomba=OFF,flagBombaAgua=OFF,flagBombaAguaOff=OFF,flagImprimir=OFF,entro=OFF; 
.................... short EstadoEmpaque=OFF,EstadoSSR1=OFF,EstadoSSR2=OFF,ReservorioLleno=OFF,SensadoNivelR=OFF; 
....................  
.................... //Tiempos//--------------------- 
.................... int16 TiempoCiclo=0,TiempoSensadoNivel=0,Tp=0,Tc=0,tguarda=0,tNivelBajo=0,TiempoLlenado=OFF; 
.................... int8 sEst=0,mEst=0,sSec=0,mSec=0,sEstp=0,mEstp=0,sSecp=0,mSecp=0;// Tiempo transcurrido 
....................  
.................... //Control//------------------------ 
.................... float PromPresion[20]={0.0,0.0,0.0,0.0,0.0,0.0,0.0,0.0,0.0,0.0,0.0,0.0,0.0,0.0,0.0,0.0,0.0,0.0,0.0,0.0}; 
.................... float PromPresionp[20]={0.0,0.0,0.0,0.0,0.0,0.0,0.0,0.0,0.0,0.0,0.0,0.0,0.0,0.0,0.0,0.0,0.0,0.0,0.0,0.0}; 
.................... float Temporal=0.0,Aumento=0.0,tmp2=0.0; 
.................... float K=0.0012858; 
.................... float R10=6800,AN=0,BN=0; 
.................... float X[2]={0.0,0.0}; 
.................... float promediopresion=0.0,promediopresionp=0.0; 
.................... int8 h=0,l=0,MediaMovil=20,PantallaPrincipal=0,TipoClave=0,Modulo=0,TiempoSensadoNivelR=0,subirPuertaLimpio=0,cerroSucioInt=0,cerroLimpioInt=0; 
.................... float V0=0.0,Pt,Tciclo=10.0,Tpulso=0.0,error=0.0,Prom=0.0,Temperature=0.0,tmp=0.0,Ganancia=25.0,Ganancia2=20.0,desvio=1.0; 
.................... float V1=0.0,Presion=0.0,V2=0.0,Presionp=0.0; 
.................... float Temperatura=0.0,Temperatura2=0.0; 
.................... float a=0.0011,b=2.3302,c=-244.0723; 
.................... int8 Integral=0,Derivativo=0,CicloLibre=0; 
....................  
.................... //Varios//-------------------------------- 
.................... short desfoguelento=0,Lectura=0,Grafica=0; 
.................... short disp_Stop=0,flagTC=0,flagImprime=0; 
.................... int8 Control=0,tiemporecta=0,Controlando=0,timpresion=2,CalculoImpresion=0,Inicio=1,Dato_Exitoso=0,Dato2=0,Codigo=0; 
.................... int8 Menu=0, MenuAnt=0,MenuAntt=240,i=0,CiclosL=0,CiclosH=0,CicloSeleccionado=0,Tapertura=0; 
.................... int16 CantidadPulsos=4,tEmpaqueS=0,tEmpaqueL=0; 
.................... int8 Setpoint=0,Opcion=1,Opcion2=1,tiempo_esterilizacion=0,tiempo_secado=0; 
.................... int16 tiempos=0,tiempos2=0,tiempos3=0,tiempoctrl=0,Nivel=0,tinicio=0,PresionCamara=0,PresionPreCamara=0,Ciclos=0,tbomba=0,tvacio=0,tiempoImpresion=0; 
.................... signed int  Password[4]={0,0,0,0};        // Contrasena Almacenada de 4 digitos 
.................... int8 r=0,t=0,r22=0,t2=0,TiempoControl=0,NivelDes=0; 
.................... int8 y=0,ConteoBuzzer=0,posicionDato=0,codigoAlarma=0,codigoAnt=0,codigoUsuario2=0; 
.................... int16 tbuzzer=0,tsilencio=0; 
.................... int8 Year=18,Mes=9,Dia=13,Hora=0,Minuto=0,Segundo=0,dow=0,cicloVisualizado=0,cicloVisto=0,NivelVacio=25,Atmosferica=75,PulsoPositivo=10,PulsosVacio=0; 
.................... int8 YearTx=0,MesTx=0,DiaTx=0,HoraTx=0,MinutoTx=0,dowTx=0,SetTime=0,Imprime=0,Pulsos=0,j=0,codigoUsuario=0,codigoUsuarioant=0; 
.................... signed int8 G1=0,G2=0,sg1=0,sg2=0; 
.................... const char Texto[12][20]={"CALENTAMIENTO","NO ENVUELTOS 134","NO ENVUELTOS 121","ENVUELTOS 134","ENVUELTOS 121","ENVUELTO DOBLE 1", 
.................... "ENVUELTO DOBLE 2","PRION","BOWIE & DICK","TEST DE FUGAS","TEST DE COMPONENTES","HORA Y FECHA"}; 
....................  
.................... //Textil & Instrumental 134C, 5m,15m 
.................... //Prion 134C, 20m,15m 
.................... //Caucho 121C, 25m,15m 
.................... //Contenedores 134C, 5m,25m 
.................... //Rapid 134C, 5m,8m 
....................  
.................... char usuario[20]; 
.................... float TCiclos[7]; 
.................... int16 PcCiclos[7]; 
.................... int16 PpcCiclos[7]; 
.................... int8 horaCiclos[7]; 
.................... int8 minutoCiclos[7]; 
.................... int8 ACiclos[7]; 
.................... int8 diaCiclos=0,mesCiclos=0,yearCiclos=0,usuarioCiclos=0,cicloCiclos=0; 
.................... short estados[30]={0,0,0,0,0,0,0,0,0,0,0,0,0,0,0,0,0,0,0,0,0,0,0,0,0,0,0,0,0,0}; 
....................  
.................... typedef struct{ 
....................    int8 Password[4]; 
.................... }Claves; 
....................  
.................... typedef struct{ 
....................    int8 Temperatura; 
....................    int8 Minutoest; 
....................    int8 Segundoest; 
....................    int8 Minutosec; 
....................    int8 Segundosec; 
....................    int8 PulsosVacio; 
....................    int8 NivelVacio; 
....................    int8 NivelDesfogue; 
.................... }Personalizado; 
....................  
.................... typedef struct{ 
....................    float BN; 
....................    float AN; 
....................    float V0; 
....................    float Pt; 
....................    float RPT100; 
....................    int8 l; 
....................    int8 h; 
....................    float Prom; 
....................    float Temperature; 
....................    int8 Ajuste; 
....................    int8 Ajusten; 
....................    float promedio[80]; 
....................    float Gain; 
.................... }SensorPT100; 
....................  
.................... SensorPT100 Sensor[2]; 
.................... Personalizado CiclosPersonalizados[20]; 
.................... Claves Clave[10]; 
....................  
.................... #include "Funciones.h" 
....................  
.................... void BorraBuffer(void){ 
.................... RX_Buffer[0]=0; 
*
057F0:  CLRF   30
.................... RX_Buffer[1]=0; 
057F2:  CLRF   31
.................... RX_Buffer[2]=0; 
057F4:  CLRF   32
.................... RX_Buffer[3]=0; 
057F6:  CLRF   33
.................... RX_Buffer[4]=0; 
057F8:  CLRF   34
.................... RX_Buffer[5]=0; 
057FA:  CLRF   35
.................... RX_Buffer[6]=0; 
057FC:  CLRF   36
.................... RX_Buffer[7]=0; 
057FE:  CLRF   37
.................... RX_Buffer[8]=0; 
05800:  CLRF   38
.................... RX_Buffer[9]=0; 
05802:  CLRF   39
....................  
.................... RX_Buffer2[0]=0; 
05804:  CLRF   3B
.................... RX_Buffer2[1]=0; 
05806:  CLRF   3C
.................... RX_Buffer2[2]=0; 
05808:  CLRF   3D
.................... RX_Buffer2[3]=0; 
0580A:  CLRF   3E
.................... RX_Buffer2[4]=0; 
0580C:  CLRF   3F
.................... RX_Buffer2[5]=0; 
0580E:  CLRF   40
.................... RX_Buffer2[6]=0; 
05810:  CLRF   41
.................... RX_Buffer2[7]=0; 
05812:  CLRF   42
.................... RX_Buffer2[8]=0; 
05814:  CLRF   43
.................... RX_Buffer2[9]=0; 
05816:  CLRF   44
.................... } 
05818:  GOTO   588E (RETURN)
....................  
.................... void SendDataDisplay(void){ 
.................... delay_us(10); 
*
04024:  MOVLW  10
04026:  MOVWF  00
04028:  DECFSZ 00,F
0402A:  BRA    4028
0402C:  NOP   
.................... putc(0xFF); 
0402E:  MOVLW  FF
04030:  RCALL  401C
.................... delay_us(10); 
04032:  MOVLW  10
04034:  MOVWF  00
04036:  DECFSZ 00,F
04038:  BRA    4036
0403A:  NOP   
.................... putc(0xFF); 
0403C:  MOVLW  FF
0403E:  RCALL  401C
.................... delay_us(10); 
04040:  MOVLW  10
04042:  MOVWF  00
04044:  DECFSZ 00,F
04046:  BRA    4044
04048:  NOP   
.................... putc(0xFF); 
0404A:  MOVLW  FF
0404C:  RCALL  401C
.................... delay_us(10); 
0404E:  MOVLW  10
04050:  MOVWF  00
04052:  DECFSZ 00,F
04054:  BRA    4052
04056:  NOP   
.................... } 
04058:  RETLW  00
....................  
.................... short esBisiesto(int8 year) { 
....................      return ((year % 4 == 0 && year % 100 != 0) || year % 400 == 0); 
*
05F06:  MOVLB  6
05F08:  MOVF   xA8,W
05F0A:  ANDLW  03
05F0C:  BNZ   5F20
05F0E:  MOVFF  6A8,6B1
05F12:  MOVLW  64
05F14:  MOVWF  xB2
05F16:  MOVLB  0
05F18:  RCALL  5A8A
05F1A:  MOVF   00,F
05F1C:  BNZ   5F4E
05F1E:  MOVLB  6
05F20:  CLRF   xAD
05F22:  MOVFF  6A8,6AC
05F26:  MOVLW  01
05F28:  MOVWF  xAF
05F2A:  MOVLW  90
05F2C:  MOVWF  xAE
05F2E:  MOVLB  0
05F30:  RCALL  5EC0
05F32:  MOVFF  00,6A9
05F36:  MOVLB  6
05F38:  MOVFF  03,6AA
05F3C:  MOVF   xA9,F
05F3E:  BNZ   5F4A
05F40:  MOVF   xAA,F
05F42:  BTFSS  FD8.2
05F44:  BRA    5F4A
05F46:  MOVLB  0
05F48:  BRA    5F4E
05F4A:  MOVLW  00
05F4C:  BRA    5F52
05F4E:  MOVLW  01
05F50:  MOVLB  6
05F52:  MOVWF  01
.................... } 
05F54:  MOVLB  0
05F56:  RETLW  00
....................  
.................... void LimitaDia(){ 
....................    if(MesTx>12) 
*
06044:  MOVLB  2
06046:  MOVF   x9F,W
06048:  SUBLW  0C
0604A:  BC    6050
....................       MesTx=10; 
0604C:  MOVLW  0A
0604E:  MOVWF  x9F
....................    if(DiaTx>31) 
06050:  MOVF   xA0,W
06052:  SUBLW  1F
06054:  BC    605A
....................       DiaTx=16; 
06056:  MOVLW  10
06058:  MOVWF  xA0
....................    if(YearTx>99) 
0605A:  MOVF   x9E,W
0605C:  SUBLW  63
0605E:  BC    6064
....................       YearTx=18;    
06060:  MOVLW  12
06062:  MOVWF  x9E
....................    if(HoraTx>24) 
06064:  MOVF   xA1,W
06066:  SUBLW  18
06068:  BC    606E
....................       HoraTx=11;       
0606A:  MOVLW  0B
0606C:  MOVWF  xA1
....................    if(MinutoTx>59) 
0606E:  MOVF   xA2,W
06070:  SUBLW  3B
06072:  BC    6078
....................       MinutoTx=30;       
06074:  MOVLW  1E
06076:  MOVWF  xA2
....................     
....................       if(MesTx==2){ 
06078:  MOVF   x9F,W
0607A:  SUBLW  02
0607C:  BNZ   60A8
....................          if(esBisiesto(YearTx)){ 
0607E:  MOVFF  29E,6A8
06082:  MOVLB  0
06084:  RCALL  5F06
06086:  MOVF   01,F
06088:  BZ    609A
....................             if(DiaTx>29){ 
0608A:  MOVLB  2
0608C:  MOVF   xA0,W
0608E:  SUBLW  1D
06090:  BC    6096
....................                DiaTx=29; 
06092:  MOVLW  1D
06094:  MOVWF  xA0
....................                //glcd_fillScreen(OFF); 
....................             } 
....................          }else{ 
06096:  BRA    60A6
06098:  MOVLB  0
....................             if(DiaTx>28){ 
0609A:  MOVLB  2
0609C:  MOVF   xA0,W
0609E:  SUBLW  1C
060A0:  BC    60A6
....................                DiaTx=28; 
060A2:  MOVLW  1C
060A4:  MOVWF  xA0
....................                //glcd_fillScreen(OFF); 
....................             } 
....................          } 
....................       }else{ 
060A6:  BRA    60D2
....................          if(MesTx<=7){ 
060A8:  MOVF   x9F,W
060AA:  SUBLW  07
060AC:  BNC   60C0
....................             if(MesTx % 2 ==0){ 
060AE:  MOVF   x9F,W
060B0:  ANDLW  01
060B2:  BNZ   60BE
....................                if(DiaTx>30){ 
060B4:  MOVF   xA0,W
060B6:  SUBLW  1E
060B8:  BC    60BE
....................                   DiaTx=30;  
060BA:  MOVLW  1E
060BC:  MOVWF  xA0
....................                   //glcd_fillScreen(OFF); 
....................                } 
....................             } 
....................          }else{ 
060BE:  BRA    60D2
....................             if(MesTx % 2 ==1){ 
060C0:  MOVF   x9F,W
060C2:  ANDLW  01
060C4:  SUBLW  01
060C6:  BNZ   60D2
....................                if(DiaTx>30){ 
060C8:  MOVF   xA0,W
060CA:  SUBLW  1E
060CC:  BC    60D2
....................                   DiaTx=30;  
060CE:  MOVLW  1E
060D0:  MOVWF  xA0
....................                   //glcd_fillScreen(OFF); 
....................                } 
....................             } 
....................          } 
....................       } 
.................... } 
060D2:  MOVLB  0
060D4:  GOTO   A36C (RETURN)
....................  
.................... void ActualizaRecta(){ 
....................    X[y]=Temperature; 
*
07208:  MOVLB  2
0720A:  MOVF   x87,W
0720C:  MULLW  04
0720E:  MOVF   FF3,W
07210:  CLRF   03
07212:  ADDLW  DB
07214:  MOVWF  FE9
07216:  MOVLW  01
07218:  ADDWFC 03,W
0721A:  MOVWF  FEA
0721C:  MOVFF  20D,FEF
07220:  MOVFF  20E,FEC
07224:  MOVFF  20F,FEC
07228:  MOVFF  210,FEC
....................    y++; 
0722C:  INCF   x87,F
....................    if(y>=2){ 
0722E:  MOVF   x87,W
07230:  SUBLW  01
07232:  BC    7270
....................       y=0; 
07234:  CLRF   x87
....................       Aumento=X[1]-X[0]; 
07236:  BSF    FD8.1
07238:  MOVFF  1E2,6BD
0723C:  MOVFF  1E1,6BC
07240:  MOVFF  1E0,6BB
07244:  MOVFF  1DF,6BA
07248:  MOVFF  1DE,6C1
0724C:  MOVFF  1DD,6C0
07250:  MOVFF  1DC,6BF
07254:  MOVFF  1DB,6BE
07258:  MOVLB  0
0725A:  CALL   20F6
0725E:  MOVFF  03,1C6
07262:  MOVFF  02,1C5
07266:  MOVFF  01,1C4
0726A:  MOVFF  00,1C3
0726E:  MOVLB  2
....................    } 
.................... } 
07270:  MOVLB  0
07272:  GOTO   72EE (RETURN)
....................  
.................... // Funcion para conversor analogo-digital 
.................... float sensores(int x){ 
.................... float y;set_adc_channel(x);delay_ms(1);y=read_adc();return (y); 
*
04062:  MOVLB  6
04064:  RLCF   xAE,W
04066:  MOVWF  00
04068:  RLCF   00,F
0406A:  MOVLW  FC
0406C:  ANDWF  00,F
0406E:  MOVFF  00,01
04072:  MOVF   FC2,W
04074:  ANDLW  C3
04076:  IORWF  00,W
04078:  MOVWF  FC2
0407A:  MOVLW  01
0407C:  MOVWF  xBA
0407E:  MOVLB  0
04080:  CALL   1F70
04084:  BSF    FC2.1
04086:  BTFSC  FC2.1
04088:  BRA    4086
0408A:  MOVFF  FC4,6BB
0408E:  MOVFF  FC3,6BA
04092:  MOVLB  0
04094:  CALL   1F3A
04098:  MOVFF  03,6B2
0409C:  MOVFF  02,6B1
040A0:  MOVFF  01,6B0
040A4:  MOVFF  00,6AF
040A8:  MOVFF  6AF,00
040AC:  MOVFF  6B0,01
040B0:  MOVFF  6B1,02
040B4:  MOVFF  6B2,03
.................... } 
040B8:  RETLW  00
....................  
.................... float LeerPT100(int8 canal,int media) 
.................... { 
....................    Prom=0.0;  
*
041B0:  MOVLB  2
041B2:  CLRF   x0C
041B4:  CLRF   x0B
041B6:  CLRF   x0A
041B8:  CLRF   x09
....................    Sensor[canal].V0 = sensores(canal);   //Lectura de Divisor de Voltaje de PT100 con resistencia de 6.18k (+-2%) 
041BA:  MOVLB  6
041BC:  CLRF   xB3
041BE:  MOVFF  6AA,6B2
041C2:  MOVLW  01
041C4:  MOVWF  xB5
041C6:  MOVLW  64
041C8:  MOVWF  xB4
041CA:  MOVLB  0
041CC:  CALL   23E2
041D0:  MOVFF  01,6AC
041D4:  MOVLW  08
041D6:  MOVLB  6
041D8:  ADDWF  01,W
041DA:  MOVWF  01
041DC:  MOVLW  00
041DE:  ADDWFC 02,W
041E0:  MOVWF  03
041E2:  MOVF   01,W
041E4:  ADDLW  18
041E6:  MOVWF  01
041E8:  MOVLW  03
041EA:  ADDWFC 03,F
041EC:  MOVFF  01,6AC
041F0:  MOVFF  03,6AD
041F4:  MOVFF  6AA,6AE
041F8:  MOVLB  0
041FA:  RCALL  4062
041FC:  MOVFF  6AD,FEA
04200:  MOVFF  6AC,FE9
04204:  MOVFF  00,FEF
04208:  MOVFF  01,FEC
0420C:  MOVFF  02,FEC
04210:  MOVFF  03,FEC
....................    Sensor[canal].V0 = Sensor[canal].V0/Sensor[canal].Gain; // Se elimina la ganancia 
04214:  MOVLB  6
04216:  CLRF   xB3
04218:  MOVFF  6AA,6B2
0421C:  MOVLW  01
0421E:  MOVWF  xB5
04220:  MOVLW  64
04222:  MOVWF  xB4
04224:  MOVLB  0
04226:  CALL   23E2
0422A:  MOVFF  01,6AC
0422E:  MOVLW  08
04230:  MOVLB  6
04232:  ADDWF  01,W
04234:  MOVWF  01
04236:  MOVLW  00
04238:  ADDWFC 02,W
0423A:  MOVWF  03
0423C:  MOVF   01,W
0423E:  ADDLW  18
04240:  MOVWF  01
04242:  MOVLW  03
04244:  ADDWFC 03,F
04246:  MOVFF  01,6AC
0424A:  MOVFF  03,6AD
0424E:  CLRF   xB3
04250:  MOVFF  6AA,6B2
04254:  MOVLW  01
04256:  MOVWF  xB5
04258:  MOVLW  64
0425A:  MOVWF  xB4
0425C:  MOVLB  0
0425E:  CALL   23E2
04262:  MOVFF  01,6AE
04266:  MOVLW  08
04268:  MOVLB  6
0426A:  ADDWF  01,W
0426C:  MOVWF  01
0426E:  MOVLW  00
04270:  ADDWFC 02,W
04272:  MOVWF  03
04274:  MOVF   01,W
04276:  ADDLW  18
04278:  MOVWF  FE9
0427A:  MOVLW  03
0427C:  ADDWFC 03,W
0427E:  MOVWF  FEA
04280:  MOVFF  FEF,6AE
04284:  MOVFF  FEC,6AF
04288:  MOVFF  FEC,6B0
0428C:  MOVFF  FEC,6B1
04290:  CLRF   xB3
04292:  MOVFF  6AA,6B2
04296:  MOVLW  01
04298:  MOVWF  xB5
0429A:  MOVLW  64
0429C:  MOVWF  xB4
0429E:  MOVLB  0
042A0:  CALL   23E2
042A4:  MOVFF  02,6B3
042A8:  MOVFF  01,6B2
042AC:  MOVLW  60
042AE:  MOVLB  6
042B0:  ADDWF  01,W
042B2:  MOVWF  01
042B4:  MOVLW  01
042B6:  ADDWFC 02,W
042B8:  MOVWF  03
042BA:  MOVF   01,W
042BC:  ADDLW  18
042BE:  MOVWF  FE9
042C0:  MOVLW  03
042C2:  ADDWFC 03,W
042C4:  MOVWF  FEA
042C6:  MOVFF  FEF,00
042CA:  MOVFF  FEC,01
042CE:  MOVFF  FEC,02
042D2:  MOVFF  FEC,03
042D6:  MOVFF  6B1,6B7
042DA:  MOVFF  6B0,6B6
042DE:  MOVFF  6AF,6B5
042E2:  MOVFF  6AE,6B4
042E6:  MOVFF  03,6BB
042EA:  MOVFF  02,6BA
042EE:  MOVFF  01,6B9
042F2:  MOVFF  00,6B8
042F6:  MOVLB  0
042F8:  CALL   1F98
042FC:  MOVFF  6AD,FEA
04300:  MOVFF  6AC,FE9
04304:  MOVFF  00,FEF
04308:  MOVFF  01,FEC
0430C:  MOVFF  02,FEC
04310:  MOVFF  03,FEC
....................    Sensor[canal].V0 = Sensor[canal].V0+14.83; // Se suma voltaje de divisor fijo 
04314:  MOVLB  6
04316:  CLRF   xB3
04318:  MOVFF  6AA,6B2
0431C:  MOVLW  01
0431E:  MOVWF  xB5
04320:  MOVLW  64
04322:  MOVWF  xB4
04324:  MOVLB  0
04326:  CALL   23E2
0432A:  MOVFF  01,6AC
0432E:  MOVLW  08
04330:  MOVLB  6
04332:  ADDWF  01,W
04334:  MOVWF  01
04336:  MOVLW  00
04338:  ADDWFC 02,W
0433A:  MOVWF  03
0433C:  MOVF   01,W
0433E:  ADDLW  18
04340:  MOVWF  01
04342:  MOVLW  03
04344:  ADDWFC 03,F
04346:  MOVFF  01,6AC
0434A:  MOVFF  03,6AD
0434E:  CLRF   xB3
04350:  MOVFF  6AA,6B2
04354:  MOVLW  01
04356:  MOVWF  xB5
04358:  MOVLW  64
0435A:  MOVWF  xB4
0435C:  MOVLB  0
0435E:  CALL   23E2
04362:  MOVFF  01,6AE
04366:  MOVLW  08
04368:  MOVLB  6
0436A:  ADDWF  01,W
0436C:  MOVWF  01
0436E:  MOVLW  00
04370:  ADDWFC 02,W
04372:  MOVWF  03
04374:  MOVF   01,W
04376:  ADDLW  18
04378:  MOVWF  FE9
0437A:  MOVLW  03
0437C:  ADDWFC 03,W
0437E:  MOVWF  FEA
04380:  MOVFF  FEF,6AE
04384:  MOVFF  FEC,6AF
04388:  MOVFF  FEC,6B0
0438C:  MOVFF  FEC,6B1
04390:  MOVFF  FEA,6B3
04394:  MOVFF  FE9,6B2
04398:  BCF    FD8.1
0439A:  MOVFF  6B1,6BD
0439E:  MOVFF  6B0,6BC
043A2:  MOVFF  6AF,6BB
043A6:  MOVFF  6AE,6BA
043AA:  MOVLW  AE
043AC:  MOVWF  xC1
043AE:  MOVLW  47
043B0:  MOVWF  xC0
043B2:  MOVLW  6D
043B4:  MOVWF  xBF
043B6:  MOVLW  82
043B8:  MOVWF  xBE
043BA:  MOVLB  0
043BC:  CALL   20F6
043C0:  MOVFF  6B3,FEA
043C4:  MOVFF  6B2,FE9
043C8:  MOVFF  6AD,FEA
043CC:  MOVFF  6AC,FE9
043D0:  MOVFF  00,FEF
043D4:  MOVFF  01,FEC
043D8:  MOVFF  02,FEC
043DC:  MOVFF  03,FEC
....................    //Sensor[canal].BN=(Sensor[canal].V0*(R8+R9))+(1023*R9); 
....................    Sensor[canal].Pt = R10/((1023/Sensor[canal].V0)-1); 
043E0:  MOVLB  6
043E2:  CLRF   xB3
043E4:  MOVFF  6AA,6B2
043E8:  MOVLW  01
043EA:  MOVWF  xB5
043EC:  MOVLW  64
043EE:  MOVWF  xB4
043F0:  MOVLB  0
043F2:  CALL   23E2
043F6:  MOVFF  01,6AC
043FA:  MOVLW  0C
043FC:  MOVLB  6
043FE:  ADDWF  01,W
04400:  MOVWF  01
04402:  MOVLW  00
04404:  ADDWFC 02,W
04406:  MOVWF  03
04408:  MOVF   01,W
0440A:  ADDLW  18
0440C:  MOVWF  01
0440E:  MOVLW  03
04410:  ADDWFC 03,F
04412:  MOVFF  01,6AC
04416:  MOVFF  03,6AD
0441A:  CLRF   xB3
0441C:  MOVFF  6AA,6B2
04420:  MOVLW  01
04422:  MOVWF  xB5
04424:  MOVLW  64
04426:  MOVWF  xB4
04428:  MOVLB  0
0442A:  CALL   23E2
0442E:  MOVFF  02,6AF
04432:  MOVFF  01,6AE
04436:  MOVLW  08
04438:  MOVLB  6
0443A:  ADDWF  01,W
0443C:  MOVWF  01
0443E:  MOVLW  00
04440:  ADDWFC 02,W
04442:  MOVWF  03
04444:  MOVF   01,W
04446:  ADDLW  18
04448:  MOVWF  FE9
0444A:  MOVLW  03
0444C:  ADDWFC 03,W
0444E:  MOVWF  FEA
04450:  MOVFF  FEF,00
04454:  MOVFF  FEC,01
04458:  MOVFF  FEC,02
0445C:  MOVFF  FEC,03
04460:  CLRF   xB7
04462:  MOVLW  C0
04464:  MOVWF  xB6
04466:  MOVLW  7F
04468:  MOVWF  xB5
0446A:  MOVLW  88
0446C:  MOVWF  xB4
0446E:  MOVFF  03,6BB
04472:  MOVFF  02,6BA
04476:  MOVFF  01,6B9
0447A:  MOVFF  00,6B8
0447E:  MOVLB  0
04480:  CALL   1F98
04484:  MOVFF  00,6AE
04488:  MOVFF  01,6AF
0448C:  MOVFF  02,6B0
04490:  MOVFF  03,6B1
04494:  MOVFF  FEA,6B3
04498:  MOVFF  FE9,6B2
0449C:  BSF    FD8.1
0449E:  MOVFF  03,6BD
044A2:  MOVFF  02,6BC
044A6:  MOVFF  01,6BB
044AA:  MOVFF  00,6BA
044AE:  MOVLB  6
044B0:  CLRF   xC1
044B2:  CLRF   xC0
044B4:  CLRF   xBF
044B6:  MOVLW  7F
044B8:  MOVWF  xBE
044BA:  MOVLB  0
044BC:  CALL   20F6
044C0:  MOVFF  6B3,FEA
044C4:  MOVFF  6B2,FE9
044C8:  MOVFF  1D2,6B7
044CC:  MOVFF  1D1,6B6
044D0:  MOVFF  1D0,6B5
044D4:  MOVFF  1CF,6B4
044D8:  MOVFF  03,6BB
044DC:  MOVFF  02,6BA
044E0:  MOVFF  01,6B9
044E4:  MOVFF  00,6B8
044E8:  CALL   1F98
044EC:  MOVFF  6AD,FEA
044F0:  MOVFF  6AC,FE9
044F4:  MOVFF  00,FEF
044F8:  MOVFF  01,FEC
044FC:  MOVFF  02,FEC
04500:  MOVFF  03,FEC
....................    //Sensor[canal].Pt=Sensor[canal].Pt-Sensor[canal].RPT100; //Ajuste de impedancia de cableado de PT100    
....................              
....................    if(Sensor[canal].l>(media-1)) 
04504:  MOVLB  6
04506:  CLRF   xB3
04508:  MOVFF  6AA,6B2
0450C:  MOVLW  01
0450E:  MOVWF  xB5
04510:  MOVLW  64
04512:  MOVWF  xB4
04514:  MOVLB  0
04516:  CALL   23E2
0451A:  MOVFF  02,6AD
0451E:  MOVFF  01,6AC
04522:  MOVLW  14
04524:  MOVLB  6
04526:  ADDWF  01,W
04528:  MOVWF  01
0452A:  MOVLW  00
0452C:  ADDWFC 02,W
0452E:  MOVWF  03
04530:  MOVF   01,W
04532:  ADDLW  18
04534:  MOVWF  FE9
04536:  MOVLW  03
04538:  ADDWFC 03,W
0453A:  MOVWF  FEA
0453C:  MOVFF  FEF,6AC
04540:  MOVLW  01
04542:  SUBWF  xAB,W
04544:  SUBWF  xAC,W
04546:  BZ    457E
04548:  BNC   457E
....................    {Sensor[canal].l=0;} 
0454A:  CLRF   xB3
0454C:  MOVFF  6AA,6B2
04550:  MOVLW  01
04552:  MOVWF  xB5
04554:  MOVLW  64
04556:  MOVWF  xB4
04558:  MOVLB  0
0455A:  CALL   23E2
0455E:  MOVFF  01,6AC
04562:  MOVLW  14
04564:  MOVLB  6
04566:  ADDWF  01,W
04568:  MOVWF  01
0456A:  MOVLW  00
0456C:  ADDWFC 02,W
0456E:  MOVWF  03
04570:  MOVF   01,W
04572:  ADDLW  18
04574:  MOVWF  FE9
04576:  MOVLW  03
04578:  ADDWFC 03,W
0457A:  MOVWF  FEA
0457C:  CLRF   FEF
....................     
....................    Sensor[canal].promedio[Sensor[canal].l]=Sensor[canal].Pt;Sensor[canal].l++; 
0457E:  CLRF   xB3
04580:  MOVFF  6AA,6B2
04584:  MOVLW  01
04586:  MOVWF  xB5
04588:  MOVLW  64
0458A:  MOVWF  xB4
0458C:  MOVLB  0
0458E:  CALL   23E2
04592:  MOVFF  02,6AD
04596:  MOVFF  01,6AC
0459A:  MOVLW  20
0459C:  MOVLB  6
0459E:  ADDWF  xAC,F
045A0:  MOVLW  00
045A2:  ADDWFC xAD,F
045A4:  CLRF   xB3
045A6:  MOVFF  6AA,6B2
045AA:  MOVLW  01
045AC:  MOVWF  xB5
045AE:  MOVLW  64
045B0:  MOVWF  xB4
045B2:  MOVLB  0
045B4:  CALL   23E2
045B8:  MOVFF  02,6AF
045BC:  MOVFF  01,6AE
045C0:  MOVLW  14
045C2:  MOVLB  6
045C4:  ADDWF  01,W
045C6:  MOVWF  01
045C8:  MOVLW  00
045CA:  ADDWFC 02,W
045CC:  MOVWF  03
045CE:  MOVF   01,W
045D0:  ADDLW  18
045D2:  MOVWF  FE9
045D4:  MOVLW  03
045D6:  ADDWFC 03,W
045D8:  MOVWF  FEA
045DA:  CLRF   xB3
045DC:  MOVFF  FEF,6B2
045E0:  CLRF   xB5
045E2:  MOVLW  04
045E4:  MOVWF  xB4
045E6:  MOVLB  0
045E8:  CALL   23E2
045EC:  MOVFF  02,03
045F0:  MOVF   01,W
045F2:  MOVLB  6
045F4:  ADDWF  xAC,W
045F6:  MOVWF  01
045F8:  MOVF   xAD,W
045FA:  ADDWFC 03,F
045FC:  MOVF   01,W
045FE:  ADDLW  18
04600:  MOVWF  01
04602:  MOVLW  03
04604:  ADDWFC 03,F
04606:  MOVFF  01,6AC
0460A:  MOVFF  03,6AD
0460E:  CLRF   xB3
04610:  MOVFF  6AA,6B2
04614:  MOVLW  01
04616:  MOVWF  xB5
04618:  MOVLW  64
0461A:  MOVWF  xB4
0461C:  MOVLB  0
0461E:  CALL   23E2
04622:  MOVFF  02,6AF
04626:  MOVFF  01,6AE
0462A:  MOVLW  0C
0462C:  MOVLB  6
0462E:  ADDWF  01,W
04630:  MOVWF  01
04632:  MOVLW  00
04634:  ADDWFC 02,W
04636:  MOVWF  03
04638:  MOVF   01,W
0463A:  ADDLW  18
0463C:  MOVWF  FE9
0463E:  MOVLW  03
04640:  ADDWFC 03,W
04642:  MOVWF  FEA
04644:  MOVFF  FEF,00
04648:  MOVFF  FEC,01
0464C:  MOVFF  FEC,02
04650:  MOVFF  FEC,03
04654:  MOVFF  6AD,FEA
04658:  MOVFF  6AC,FE9
0465C:  MOVFF  00,FEF
04660:  MOVFF  01,FEC
04664:  MOVFF  02,FEC
04668:  MOVFF  03,FEC
0466C:  CLRF   xB3
0466E:  MOVFF  6AA,6B2
04672:  MOVLW  01
04674:  MOVWF  xB5
04676:  MOVLW  64
04678:  MOVWF  xB4
0467A:  MOVLB  0
0467C:  CALL   23E2
04680:  MOVFF  01,6AC
04684:  MOVLW  14
04686:  MOVLB  6
04688:  ADDWF  01,W
0468A:  MOVWF  01
0468C:  MOVLW  00
0468E:  ADDWFC 02,W
04690:  MOVWF  03
04692:  MOVF   01,W
04694:  ADDLW  18
04696:  MOVWF  FE9
04698:  MOVLW  03
0469A:  ADDWFC 03,W
0469C:  MOVWF  FEA
0469E:  INCF   FEF,F
....................           
....................    for(Sensor[canal].h=0;Sensor[canal].h<media;Sensor[canal].h++) 
046A0:  CLRF   xB3
046A2:  MOVFF  6AA,6B2
046A6:  MOVLW  01
046A8:  MOVWF  xB5
046AA:  MOVLW  64
046AC:  MOVWF  xB4
046AE:  MOVLB  0
046B0:  CALL   23E2
046B4:  MOVFF  02,6AD
046B8:  MOVFF  01,6AC
046BC:  MOVLW  15
046BE:  MOVLB  6
046C0:  ADDWF  01,W
046C2:  MOVWF  01
046C4:  MOVLW  00
046C6:  ADDWFC 02,W
046C8:  MOVWF  03
046CA:  MOVF   01,W
046CC:  ADDLW  18
046CE:  MOVWF  FE9
046D0:  MOVLW  03
046D2:  ADDWFC 03,W
046D4:  MOVWF  FEA
046D6:  CLRF   FEF
046D8:  CLRF   xB3
046DA:  MOVFF  6AA,6B2
046DE:  MOVLW  01
046E0:  MOVWF  xB5
046E2:  MOVLW  64
046E4:  MOVWF  xB4
046E6:  MOVLB  0
046E8:  CALL   23E2
046EC:  MOVFF  02,6AD
046F0:  MOVFF  01,6AC
046F4:  MOVLW  15
046F6:  MOVLB  6
046F8:  ADDWF  01,W
046FA:  MOVWF  01
046FC:  MOVLW  00
046FE:  ADDWFC 02,W
04700:  MOVWF  03
04702:  MOVF   01,W
04704:  ADDLW  18
04706:  MOVWF  FE9
04708:  MOVLW  03
0470A:  ADDWFC 03,W
0470C:  MOVWF  FEA
0470E:  MOVF   xAB,W
04710:  SUBWF  FEF,W
04712:  BTFSC  FD8.0
04714:  BRA    4834
....................    { 
....................       Prom+=Sensor[canal].promedio[Sensor[canal].h]; 
04716:  CLRF   xB3
04718:  MOVFF  6AA,6B2
0471C:  MOVLW  01
0471E:  MOVWF  xB5
04720:  MOVLW  64
04722:  MOVWF  xB4
04724:  MOVLB  0
04726:  CALL   23E2
0472A:  MOVFF  02,6AD
0472E:  MOVFF  01,6AC
04732:  MOVLW  20
04734:  MOVLB  6
04736:  ADDWF  xAC,F
04738:  MOVLW  00
0473A:  ADDWFC xAD,F
0473C:  CLRF   xB3
0473E:  MOVFF  6AA,6B2
04742:  MOVLW  01
04744:  MOVWF  xB5
04746:  MOVLW  64
04748:  MOVWF  xB4
0474A:  MOVLB  0
0474C:  CALL   23E2
04750:  MOVFF  02,6AF
04754:  MOVFF  01,6AE
04758:  MOVLW  15
0475A:  MOVLB  6
0475C:  ADDWF  01,W
0475E:  MOVWF  01
04760:  MOVLW  00
04762:  ADDWFC 02,W
04764:  MOVWF  03
04766:  MOVF   01,W
04768:  ADDLW  18
0476A:  MOVWF  FE9
0476C:  MOVLW  03
0476E:  ADDWFC 03,W
04770:  MOVWF  FEA
04772:  CLRF   xB3
04774:  MOVFF  FEF,6B2
04778:  CLRF   xB5
0477A:  MOVLW  04
0477C:  MOVWF  xB4
0477E:  MOVLB  0
04780:  CALL   23E2
04784:  MOVFF  02,03
04788:  MOVF   01,W
0478A:  MOVLB  6
0478C:  ADDWF  xAC,W
0478E:  MOVWF  01
04790:  MOVF   xAD,W
04792:  ADDWFC 03,F
04794:  MOVF   01,W
04796:  ADDLW  18
04798:  MOVWF  FE9
0479A:  MOVLW  03
0479C:  ADDWFC 03,W
0479E:  MOVWF  FEA
047A0:  MOVFF  FEF,00
047A4:  MOVFF  FEC,01
047A8:  MOVFF  FEC,02
047AC:  MOVFF  FEC,03
047B0:  MOVFF  FEA,6AD
047B4:  MOVFF  FE9,6AC
047B8:  BCF    FD8.1
047BA:  MOVFF  20C,6BD
047BE:  MOVFF  20B,6BC
047C2:  MOVFF  20A,6BB
047C6:  MOVFF  209,6BA
047CA:  MOVFF  03,6C1
047CE:  MOVFF  02,6C0
047D2:  MOVFF  01,6BF
047D6:  MOVFF  00,6BE
047DA:  MOVLB  0
047DC:  CALL   20F6
047E0:  MOVFF  6AD,FEA
047E4:  MOVFF  6AC,FE9
047E8:  MOVFF  03,20C
047EC:  MOVFF  02,20B
047F0:  MOVFF  01,20A
047F4:  MOVFF  00,209
....................    }  
047F8:  MOVLB  6
047FA:  CLRF   xB3
047FC:  MOVFF  6AA,6B2
04800:  MOVLW  01
04802:  MOVWF  xB5
04804:  MOVLW  64
04806:  MOVWF  xB4
04808:  MOVLB  0
0480A:  CALL   23E2
0480E:  MOVFF  02,6AD
04812:  MOVFF  01,6AC
04816:  MOVLW  15
04818:  MOVLB  6
0481A:  ADDWF  01,W
0481C:  MOVWF  01
0481E:  MOVLW  00
04820:  ADDWFC 02,W
04822:  MOVWF  03
04824:  MOVF   01,W
04826:  ADDLW  18
04828:  MOVWF  FE9
0482A:  MOVLW  03
0482C:  ADDWFC 03,W
0482E:  MOVWF  FEA
04830:  INCF   FEF,F
04832:  BRA    46D8
....................    Prom=Prom/media;    
04834:  CLRF   xBB
04836:  MOVFF  6AB,6BA
0483A:  MOVLB  0
0483C:  CALL   1F3A
04840:  MOVFF  20C,6B7
04844:  MOVFF  20B,6B6
04848:  MOVFF  20A,6B5
0484C:  MOVFF  209,6B4
04850:  MOVFF  03,6BB
04854:  MOVFF  02,6BA
04858:  MOVFF  01,6B9
0485C:  MOVFF  00,6B8
04860:  CALL   1F98
04864:  MOVFF  03,20C
04868:  MOVFF  02,20B
0486C:  MOVFF  01,20A
04870:  MOVFF  00,209
....................    //Temperature=(Prom-100.0)/(0.385);  // Ecuacin determinada por linealizacin en Matlab. Revisar este polinomio.   
....................    Temperature=((Prom*Prom)*a)+(Prom*b)+c;  // Ecuacin determinada por linealizacin en Matlab. Revisar este polinomio. 
04874:  MOVFF  20C,6C1
04878:  MOVFF  20B,6C0
0487C:  MOVFF  20A,6BF
04880:  MOVFF  209,6BE
04884:  MOVFF  20C,6C5
04888:  MOVFF  20B,6C4
0488C:  MOVFF  20A,6C3
04890:  MOVFF  209,6C2
04894:  RCALL  40BA
04896:  MOVFF  00,6AC
0489A:  MOVFF  01,6AD
0489E:  MOVFF  02,6AE
048A2:  MOVFF  03,6AF
048A6:  MOVFF  03,6C1
048AA:  MOVFF  02,6C0
048AE:  MOVFF  01,6BF
048B2:  MOVFF  00,6BE
048B6:  MOVFF  23C,6C5
048BA:  MOVFF  23B,6C4
048BE:  MOVFF  23A,6C3
048C2:  MOVFF  239,6C2
048C6:  CALL   40BA
048CA:  MOVFF  00,6AC
048CE:  MOVFF  01,6AD
048D2:  MOVFF  02,6AE
048D6:  MOVFF  03,6AF
048DA:  MOVFF  20C,6C1
048DE:  MOVFF  20B,6C0
048E2:  MOVFF  20A,6BF
048E6:  MOVFF  209,6BE
048EA:  MOVFF  240,6C5
048EE:  MOVFF  23F,6C4
048F2:  MOVFF  23E,6C3
048F6:  MOVFF  23D,6C2
048FA:  CALL   40BA
048FE:  BCF    FD8.1
04900:  MOVFF  6AF,6BD
04904:  MOVFF  6AE,6BC
04908:  MOVFF  6AD,6BB
0490C:  MOVFF  6AC,6BA
04910:  MOVFF  03,6C1
04914:  MOVFF  02,6C0
04918:  MOVFF  01,6BF
0491C:  MOVFF  00,6BE
04920:  CALL   20F6
04924:  MOVFF  00,6AC
04928:  MOVFF  01,6AD
0492C:  MOVFF  02,6AE
04930:  MOVFF  03,6AF
04934:  BCF    FD8.1
04936:  MOVFF  03,6BD
0493A:  MOVFF  02,6BC
0493E:  MOVFF  01,6BB
04942:  MOVFF  00,6BA
04946:  MOVFF  244,6C1
0494A:  MOVFF  243,6C0
0494E:  MOVFF  242,6BF
04952:  MOVFF  241,6BE
04956:  CALL   20F6
0495A:  MOVFF  03,210
0495E:  MOVFF  02,20F
04962:  MOVFF  01,20E
04966:  MOVFF  00,20D
....................    Temperature+=((float)Sensor[canal].Ajuste-(float)Sensor[canal].Ajusten); 
0496A:  MOVLB  6
0496C:  CLRF   xB3
0496E:  MOVFF  6AA,6B2
04972:  MOVLW  01
04974:  MOVWF  xB5
04976:  MOVLW  64
04978:  MOVWF  xB4
0497A:  MOVLB  0
0497C:  CALL   23E2
04980:  MOVFF  02,6AD
04984:  MOVFF  01,6AC
04988:  MOVLW  1E
0498A:  MOVLB  6
0498C:  ADDWF  01,W
0498E:  MOVWF  01
04990:  MOVLW  00
04992:  ADDWFC 02,W
04994:  MOVWF  03
04996:  MOVF   01,W
04998:  ADDLW  18
0499A:  MOVWF  FE9
0499C:  MOVLW  03
0499E:  ADDWFC 03,W
049A0:  MOVWF  FEA
049A2:  MOVF   FEF,W
049A4:  CLRF   xBB
049A6:  MOVWF  xBA
049A8:  MOVLB  0
049AA:  CALL   1F3A
049AE:  MOVFF  00,6AC
049B2:  MOVFF  01,6AD
049B6:  MOVFF  02,6AE
049BA:  MOVFF  03,6AF
049BE:  MOVLB  6
049C0:  CLRF   xB3
049C2:  MOVFF  6AA,6B2
049C6:  MOVLW  01
049C8:  MOVWF  xB5
049CA:  MOVLW  64
049CC:  MOVWF  xB4
049CE:  MOVLB  0
049D0:  CALL   23E2
049D4:  MOVFF  02,6B1
049D8:  MOVFF  01,6B0
049DC:  MOVLW  1F
049DE:  MOVLB  6
049E0:  ADDWF  01,W
049E2:  MOVWF  01
049E4:  MOVLW  00
049E6:  ADDWFC 02,W
049E8:  MOVWF  03
049EA:  MOVF   01,W
049EC:  ADDLW  18
049EE:  MOVWF  FE9
049F0:  MOVLW  03
049F2:  ADDWFC 03,W
049F4:  MOVWF  FEA
049F6:  MOVF   FEF,W
049F8:  CLRF   xBB
049FA:  MOVWF  xBA
049FC:  MOVLB  0
049FE:  CALL   1F3A
04A02:  MOVFF  FEA,6B1
04A06:  MOVFF  FE9,6B0
04A0A:  BSF    FD8.1
04A0C:  MOVFF  6AF,6BD
04A10:  MOVFF  6AE,6BC
04A14:  MOVFF  6AD,6BB
04A18:  MOVFF  6AC,6BA
04A1C:  MOVFF  03,6C1
04A20:  MOVFF  02,6C0
04A24:  MOVFF  01,6BF
04A28:  MOVFF  00,6BE
04A2C:  CALL   20F6
04A30:  MOVFF  6B1,FEA
04A34:  MOVFF  6B0,FE9
04A38:  MOVFF  FEA,6AD
04A3C:  MOVFF  FE9,6AC
04A40:  BCF    FD8.1
04A42:  MOVFF  210,6BD
04A46:  MOVFF  20F,6BC
04A4A:  MOVFF  20E,6BB
04A4E:  MOVFF  20D,6BA
04A52:  MOVFF  03,6C1
04A56:  MOVFF  02,6C0
04A5A:  MOVFF  01,6BF
04A5E:  MOVFF  00,6BE
04A62:  CALL   20F6
04A66:  MOVFF  6AD,FEA
04A6A:  MOVFF  6AC,FE9
04A6E:  MOVFF  03,210
04A72:  MOVFF  02,20F
04A76:  MOVFF  01,20E
04A7A:  MOVFF  00,20D
....................     
....................    return Temperature; 
04A7E:  MOVFF  20D,00
04A82:  MOVFF  20E,01
04A86:  MOVFF  20F,02
04A8A:  MOVFF  210,03
.................... } 
04A8E:  RETLW  00
....................  
.................... float Leer_Sensor_Presion_Camara(int8 media){ 
....................    promediopresion=0.0; 
*
0528A:  MOVLB  1
0528C:  CLRF   xE6
0528E:  CLRF   xE5
05290:  CLRF   xE4
05292:  CLRF   xE3
....................    V1 = sensores(5);   //Lectura de Divisor de Voltaje de PT100 con resistencia de 1k (+-10%) 
05294:  MOVLW  05
05296:  MOVLB  6
05298:  MOVWF  xAE
0529A:  MOVLB  0
0529C:  CALL   4062
052A0:  MOVFF  03,224
052A4:  MOVFF  02,223
052A8:  MOVFF  01,222
052AC:  MOVFF  00,221
....................    //V1 = V1*(5.0/1024.0); 
....................    //Presion=(V1-0.2)/(K); 
....................    Presion=(((V1)/1023)-0.04)/K; 
052B0:  MOVFF  224,6B7
052B4:  MOVFF  223,6B6
052B8:  MOVFF  222,6B5
052BC:  MOVFF  221,6B4
052C0:  MOVLB  6
052C2:  CLRF   xBB
052C4:  MOVLW  C0
052C6:  MOVWF  xBA
052C8:  MOVLW  7F
052CA:  MOVWF  xB9
052CC:  MOVLW  88
052CE:  MOVWF  xB8
052D0:  MOVLB  0
052D2:  CALL   1F98
052D6:  MOVFF  00,6AB
052DA:  MOVFF  01,6AC
052DE:  MOVFF  02,6AD
052E2:  MOVFF  03,6AE
052E6:  BSF    FD8.1
052E8:  MOVFF  03,6BD
052EC:  MOVFF  02,6BC
052F0:  MOVFF  01,6BB
052F4:  MOVFF  00,6BA
052F8:  MOVLW  0A
052FA:  MOVLB  6
052FC:  MOVWF  xC1
052FE:  MOVLW  D7
05300:  MOVWF  xC0
05302:  MOVLW  23
05304:  MOVWF  xBF
05306:  MOVLW  7A
05308:  MOVWF  xBE
0530A:  MOVLB  0
0530C:  CALL   20F6
05310:  MOVFF  00,6AB
05314:  MOVFF  01,6AC
05318:  MOVFF  02,6AD
0531C:  MOVFF  03,6AE
05320:  MOVFF  03,6B7
05324:  MOVFF  02,6B6
05328:  MOVFF  01,6B5
0532C:  MOVFF  00,6B4
05330:  MOVFF  1CE,6BB
05334:  MOVFF  1CD,6BA
05338:  MOVFF  1CC,6B9
0533C:  MOVFF  1CB,6B8
05340:  CALL   1F98
05344:  MOVFF  03,228
05348:  MOVFF  02,227
0534C:  MOVFF  01,226
05350:  MOVFF  00,225
....................     
....................    if(Presion<0.0) 
05354:  MOVFF  228,6AF
05358:  MOVFF  227,6AE
0535C:  MOVFF  226,6AD
05360:  MOVFF  225,6AC
05364:  MOVLB  6
05366:  CLRF   xB3
05368:  CLRF   xB2
0536A:  CLRF   xB1
0536C:  CLRF   xB0
0536E:  MOVLB  0
05370:  CALL   25CC
05374:  BNC   5380
....................       Presion=0.0; 
05376:  MOVLB  2
05378:  CLRF   x28
0537A:  CLRF   x27
0537C:  CLRF   x26
0537E:  CLRF   x25
....................     
....................    if(r>media-1) 
05380:  MOVLW  01
05382:  MOVLB  6
05384:  SUBWF  xAA,W
05386:  MOVLB  2
05388:  SUBWF  x81,W
0538A:  BZ    5390
0538C:  BNC   5390
....................       r=0; 
0538E:  CLRF   x81
....................    PromPresion[r]=Presion;r++; 
05390:  MOVF   x81,W
05392:  MULLW  04
05394:  MOVF   FF3,W
05396:  CLRF   03
05398:  ADDLW  1F
0539A:  MOVWF  FE9
0539C:  MOVLW  01
0539E:  ADDWFC 03,W
053A0:  MOVWF  FEA
053A2:  MOVFF  225,FEF
053A6:  MOVFF  226,FEC
053AA:  MOVFF  227,FEC
053AE:  MOVFF  228,FEC
053B2:  INCF   x81,F
....................           
....................    for(t=0;t<=(media-1);t++) 
053B4:  CLRF   x82
053B6:  MOVLW  01
053B8:  MOVLB  6
053BA:  SUBWF  xAA,W
053BC:  MOVLB  2
053BE:  SUBWF  x82,W
053C0:  BZ    53C4
053C2:  BC    5434
....................       promediopresion+=PromPresion[t]; 
053C4:  MOVF   x82,W
053C6:  MULLW  04
053C8:  MOVF   FF3,W
053CA:  CLRF   03
053CC:  ADDLW  1F
053CE:  MOVWF  FE9
053D0:  MOVLW  01
053D2:  ADDWFC 03,W
053D4:  MOVWF  FEA
053D6:  MOVFF  FEF,00
053DA:  MOVFF  FEC,01
053DE:  MOVFF  FEC,02
053E2:  MOVFF  FEC,03
053E6:  MOVFF  FEA,6AC
053EA:  MOVFF  FE9,6AB
053EE:  BCF    FD8.1
053F0:  MOVFF  1E6,6BD
053F4:  MOVFF  1E5,6BC
053F8:  MOVFF  1E4,6BB
053FC:  MOVFF  1E3,6BA
05400:  MOVFF  03,6C1
05404:  MOVFF  02,6C0
05408:  MOVFF  01,6BF
0540C:  MOVFF  00,6BE
05410:  MOVLB  0
05412:  CALL   20F6
05416:  MOVFF  6AC,FEA
0541A:  MOVFF  6AB,FE9
0541E:  MOVFF  03,1E6
05422:  MOVFF  02,1E5
05426:  MOVFF  01,1E4
0542A:  MOVFF  00,1E3
0542E:  MOVLB  2
05430:  INCF   x82,F
05432:  BRA    53B6
....................      
....................    promediopresion=promediopresion/media;    
05434:  MOVLB  6
05436:  CLRF   xBB
05438:  MOVFF  6AA,6BA
0543C:  MOVLB  0
0543E:  CALL   1F3A
05442:  MOVFF  1E6,6B7
05446:  MOVFF  1E5,6B6
0544A:  MOVFF  1E4,6B5
0544E:  MOVFF  1E3,6B4
05452:  MOVFF  03,6BB
05456:  MOVFF  02,6BA
0545A:  MOVFF  01,6B9
0545E:  MOVFF  00,6B8
05462:  CALL   1F98
05466:  MOVFF  03,1E6
0546A:  MOVFF  02,1E5
0546E:  MOVFF  01,1E4
05472:  MOVFF  00,1E3
....................     
....................    return promediopresion; 
05476:  MOVFF  1E3,00
0547A:  MOVFF  1E4,01
0547E:  MOVFF  1E5,02
05482:  MOVFF  1E6,03
.................... } 
05486:  GOTO   56E8 (RETURN)
....................  
.................... float Leer_Sensor_Presion_PreCamara(int8 media){ 
....................    promediopresionp=0.0; 
0548A:  MOVLB  1
0548C:  CLRF   xEA
0548E:  CLRF   xE9
05490:  CLRF   xE8
05492:  CLRF   xE7
....................    V2 = sensores(4);   //Lectura de Divisor de Voltaje de PT100 con resistencia de 1k (+-10%) 
05494:  MOVLW  04
05496:  MOVLB  6
05498:  MOVWF  xAE
0549A:  MOVLB  0
0549C:  CALL   4062
054A0:  MOVFF  03,22C
054A4:  MOVFF  02,22B
054A8:  MOVFF  01,22A
054AC:  MOVFF  00,229
....................    //V2 = V2*(5.0/1024.0); 
....................    //Presionp=(V2-0.2)/(K); 
....................    Presionp=(((V2)/1023)-0.04)/K; 
054B0:  MOVFF  22C,6B7
054B4:  MOVFF  22B,6B6
054B8:  MOVFF  22A,6B5
054BC:  MOVFF  229,6B4
054C0:  MOVLB  6
054C2:  CLRF   xBB
054C4:  MOVLW  C0
054C6:  MOVWF  xBA
054C8:  MOVLW  7F
054CA:  MOVWF  xB9
054CC:  MOVLW  88
054CE:  MOVWF  xB8
054D0:  MOVLB  0
054D2:  CALL   1F98
054D6:  MOVFF  00,6AB
054DA:  MOVFF  01,6AC
054DE:  MOVFF  02,6AD
054E2:  MOVFF  03,6AE
054E6:  BSF    FD8.1
054E8:  MOVFF  03,6BD
054EC:  MOVFF  02,6BC
054F0:  MOVFF  01,6BB
054F4:  MOVFF  00,6BA
054F8:  MOVLW  0A
054FA:  MOVLB  6
054FC:  MOVWF  xC1
054FE:  MOVLW  D7
05500:  MOVWF  xC0
05502:  MOVLW  23
05504:  MOVWF  xBF
05506:  MOVLW  7A
05508:  MOVWF  xBE
0550A:  MOVLB  0
0550C:  CALL   20F6
05510:  MOVFF  00,6AB
05514:  MOVFF  01,6AC
05518:  MOVFF  02,6AD
0551C:  MOVFF  03,6AE
05520:  MOVFF  03,6B7
05524:  MOVFF  02,6B6
05528:  MOVFF  01,6B5
0552C:  MOVFF  00,6B4
05530:  MOVFF  1CE,6BB
05534:  MOVFF  1CD,6BA
05538:  MOVFF  1CC,6B9
0553C:  MOVFF  1CB,6B8
05540:  CALL   1F98
05544:  MOVFF  03,230
05548:  MOVFF  02,22F
0554C:  MOVFF  01,22E
05550:  MOVFF  00,22D
....................     
....................    if(Presionp<0.0) 
05554:  MOVFF  230,6AF
05558:  MOVFF  22F,6AE
0555C:  MOVFF  22E,6AD
05560:  MOVFF  22D,6AC
05564:  MOVLB  6
05566:  CLRF   xB3
05568:  CLRF   xB2
0556A:  CLRF   xB1
0556C:  CLRF   xB0
0556E:  MOVLB  0
05570:  CALL   25CC
05574:  BNC   5580
....................       Presionp=0.0; 
05576:  MOVLB  2
05578:  CLRF   x30
0557A:  CLRF   x2F
0557C:  CLRF   x2E
0557E:  CLRF   x2D
....................     
....................    if(r22>media-1) 
05580:  MOVLW  01
05582:  MOVLB  6
05584:  SUBWF  xAA,W
05586:  MOVLB  2
05588:  SUBWF  x83,W
0558A:  BZ    5590
0558C:  BNC   5590
....................       r22=0; 
0558E:  CLRF   x83
....................    PromPresionp[r22]=Presionp;r22++; 
05590:  MOVF   x83,W
05592:  MULLW  04
05594:  MOVF   FF3,W
05596:  CLRF   03
05598:  ADDLW  6F
0559A:  MOVWF  FE9
0559C:  MOVLW  01
0559E:  ADDWFC 03,W
055A0:  MOVWF  FEA
055A2:  MOVFF  22D,FEF
055A6:  MOVFF  22E,FEC
055AA:  MOVFF  22F,FEC
055AE:  MOVFF  230,FEC
055B2:  INCF   x83,F
....................           
....................    for(t2=0;t2<=(media-1);t2++) 
055B4:  CLRF   x84
055B6:  MOVLW  01
055B8:  MOVLB  6
055BA:  SUBWF  xAA,W
055BC:  MOVLB  2
055BE:  SUBWF  x84,W
055C0:  BZ    55C4
055C2:  BC    5634
....................       promediopresionp+=PromPresionp[t2];  
055C4:  MOVF   x84,W
055C6:  MULLW  04
055C8:  MOVF   FF3,W
055CA:  CLRF   03
055CC:  ADDLW  6F
055CE:  MOVWF  FE9
055D0:  MOVLW  01
055D2:  ADDWFC 03,W
055D4:  MOVWF  FEA
055D6:  MOVFF  FEF,00
055DA:  MOVFF  FEC,01
055DE:  MOVFF  FEC,02
055E2:  MOVFF  FEC,03
055E6:  MOVFF  FEA,6AC
055EA:  MOVFF  FE9,6AB
055EE:  BCF    FD8.1
055F0:  MOVFF  1EA,6BD
055F4:  MOVFF  1E9,6BC
055F8:  MOVFF  1E8,6BB
055FC:  MOVFF  1E7,6BA
05600:  MOVFF  03,6C1
05604:  MOVFF  02,6C0
05608:  MOVFF  01,6BF
0560C:  MOVFF  00,6BE
05610:  MOVLB  0
05612:  CALL   20F6
05616:  MOVFF  6AC,FEA
0561A:  MOVFF  6AB,FE9
0561E:  MOVFF  03,1EA
05622:  MOVFF  02,1E9
05626:  MOVFF  01,1E8
0562A:  MOVFF  00,1E7
0562E:  MOVLB  2
05630:  INCF   x84,F
05632:  BRA    55B6
....................        
....................    promediopresionp=promediopresionp/media;    
05634:  MOVLB  6
05636:  CLRF   xBB
05638:  MOVFF  6AA,6BA
0563C:  MOVLB  0
0563E:  CALL   1F3A
05642:  MOVFF  1EA,6B7
05646:  MOVFF  1E9,6B6
0564A:  MOVFF  1E8,6B5
0564E:  MOVFF  1E7,6B4
05652:  MOVFF  03,6BB
05656:  MOVFF  02,6BA
0565A:  MOVFF  01,6B9
0565E:  MOVFF  00,6B8
05662:  CALL   1F98
05666:  MOVFF  03,1EA
0566A:  MOVFF  02,1E9
0566E:  MOVFF  01,1E8
05672:  MOVFF  00,1E7
....................     
....................    return promediopresionp; 
05676:  MOVFF  1E7,00
0567A:  MOVFF  1E8,01
0567E:  MOVFF  1E9,02
05682:  MOVFF  1EA,03
.................... } 
05686:  GOTO   570E (RETURN)
....................  
.................... void Controla(){ 
....................    if(tiemporecta>=Derivativo/2.0){ 
*
07276:  MOVLB  6
07278:  CLRF   xBB
0727A:  MOVFF  246,6BA
0727E:  MOVLB  0
07280:  CALL   1F3A
07284:  MOVFF  03,6B7
07288:  MOVFF  02,6B6
0728C:  MOVFF  01,6B5
07290:  MOVFF  00,6B4
07294:  MOVLB  6
07296:  CLRF   xBB
07298:  CLRF   xBA
0729A:  CLRF   xB9
0729C:  MOVLW  80
0729E:  MOVWF  xB8
072A0:  MOVLB  0
072A2:  CALL   1F98
072A6:  MOVFF  00,6A8
072AA:  MOVFF  01,6A9
072AE:  MOVFF  02,6AA
072B2:  MOVFF  03,6AB
072B6:  MOVLB  6
072B8:  CLRF   xBB
072BA:  MOVFF  24A,6BA
072BE:  MOVLB  0
072C0:  CALL   1F3A
072C4:  MOVFF  6AB,6AF
072C8:  MOVFF  6AA,6AE
072CC:  MOVFF  6A9,6AD
072D0:  MOVFF  6A8,6AC
072D4:  MOVFF  03,6B3
072D8:  MOVFF  02,6B2
072DC:  MOVFF  01,6B1
072E0:  MOVFF  00,6B0
072E4:  CALL   25CC
072E8:  BC    72EC
072EA:  BNZ   72F2
....................       ActualizaRecta(); 
072EC:  BRA    7208
....................       tiemporecta=0; 
072EE:  MOVLB  2
072F0:  CLRF   x4A
....................    }  
.................... //-------------------------------Control de Calentamiento------------------------------------------------------------//          
....................    error=desvio+Setpoint-Temperatura;      // Clculo del error ****** 
072F2:  MOVLB  6
072F4:  CLRF   xBB
072F6:  MOVFF  260,6BA
072FA:  MOVLB  0
072FC:  CALL   1F3A
07300:  BCF    FD8.1
07302:  MOVFF  220,6BD
07306:  MOVFF  21F,6BC
0730A:  MOVFF  21E,6BB
0730E:  MOVFF  21D,6BA
07312:  MOVFF  03,6C1
07316:  MOVFF  02,6C0
0731A:  MOVFF  01,6BF
0731E:  MOVFF  00,6BE
07322:  CALL   20F6
07326:  MOVFF  00,6A8
0732A:  MOVFF  01,6A9
0732E:  MOVFF  02,6AA
07332:  MOVFF  03,6AB
07336:  BSF    FD8.1
07338:  MOVFF  03,6BD
0733C:  MOVFF  02,6BC
07340:  MOVFF  01,6BB
07344:  MOVFF  00,6BA
07348:  MOVFF  234,6C1
0734C:  MOVFF  233,6C0
07350:  MOVFF  232,6BF
07354:  MOVFF  231,6BE
07358:  CALL   20F6
0735C:  MOVFF  03,208
07360:  MOVFF  02,207
07364:  MOVFF  01,206
07368:  MOVFF  00,205
....................     
....................    if(error>1.0 && error<15 && Aumento<0.3){ 
0736C:  MOVLB  6
0736E:  CLRF   xAF
07370:  CLRF   xAE
07372:  CLRF   xAD
07374:  MOVLW  7F
07376:  MOVWF  xAC
07378:  MOVFF  208,6B3
0737C:  MOVFF  207,6B2
07380:  MOVFF  206,6B1
07384:  MOVFF  205,6B0
07388:  MOVLB  0
0738A:  CALL   25CC
0738E:  BTFSS  FD8.0
07390:  BRA    756C
07392:  MOVFF  208,6AF
07396:  MOVFF  207,6AE
0739A:  MOVFF  206,6AD
0739E:  MOVFF  205,6AC
073A2:  MOVLB  6
073A4:  CLRF   xB3
073A6:  CLRF   xB2
073A8:  MOVLW  70
073AA:  MOVWF  xB1
073AC:  MOVLW  82
073AE:  MOVWF  xB0
073B0:  MOVLB  0
073B2:  CALL   25CC
073B6:  BTFSS  FD8.0
073B8:  BRA    756C
073BA:  MOVFF  1C6,6AF
073BE:  MOVFF  1C5,6AE
073C2:  MOVFF  1C4,6AD
073C6:  MOVFF  1C3,6AC
073CA:  MOVLW  9A
073CC:  MOVLB  6
073CE:  MOVWF  xB3
073D0:  MOVLW  99
073D2:  MOVWF  xB2
073D4:  MOVLW  19
073D6:  MOVWF  xB1
073D8:  MOVLW  7D
073DA:  MOVWF  xB0
073DC:  MOVLB  0
073DE:  CALL   25CC
073E2:  BTFSS  FD8.0
073E4:  BRA    756C
....................       if(Tpulso<7.0){ 
073E6:  MOVFF  204,6AF
073EA:  MOVFF  203,6AE
073EE:  MOVFF  202,6AD
073F2:  MOVFF  201,6AC
073F6:  MOVLB  6
073F8:  CLRF   xB3
073FA:  CLRF   xB2
073FC:  MOVLW  60
073FE:  MOVWF  xB1
07400:  MOVLW  81
07402:  MOVWF  xB0
07404:  MOVLB  0
07406:  CALL   25CC
0740A:  BTFSS  FD8.0
0740C:  BRA    7568
....................          flagTC=1; 
0740E:  MOVLB  2
07410:  BSF    x48.1
....................          if(TiempoControl>=Derivativo){ 
07412:  MOVF   x46,W
07414:  SUBWF  x85,W
07416:  BTFSS  FD8.0
07418:  BRA    7564
....................             TiempoControl=0; 
0741A:  CLRF   x85
....................             if(Aumento<-0.5){ 
0741C:  MOVFF  1C6,6AF
07420:  MOVFF  1C5,6AE
07424:  MOVFF  1C4,6AD
07428:  MOVFF  1C3,6AC
0742C:  MOVLB  6
0742E:  CLRF   xB3
07430:  CLRF   xB2
07432:  MOVLW  80
07434:  MOVWF  xB1
07436:  MOVLW  7E
07438:  MOVWF  xB0
0743A:  MOVLB  0
0743C:  CALL   25CC
07440:  BNC   748C
....................                Ganancia+=Integral+1; 
07442:  MOVLW  01
07444:  MOVLB  2
07446:  ADDWF  x45,W
07448:  MOVLB  6
0744A:  CLRF   xBB
0744C:  MOVWF  xBA
0744E:  MOVLB  0
07450:  CALL   1F3A
07454:  BCF    FD8.1
07456:  MOVFF  218,6BD
0745A:  MOVFF  217,6BC
0745E:  MOVFF  216,6BB
07462:  MOVFF  215,6BA
07466:  MOVFF  03,6C1
0746A:  MOVFF  02,6C0
0746E:  MOVFF  01,6BF
07472:  MOVFF  00,6BE
07476:  CALL   20F6
0747A:  MOVFF  03,218
0747E:  MOVFF  02,217
07482:  MOVFF  01,216
07486:  MOVFF  00,215
....................             }else{ 
0748A:  BRA    7562
....................                if(Aumento<-0.1){ 
0748C:  MOVFF  1C6,6AF
07490:  MOVFF  1C5,6AE
07494:  MOVFF  1C4,6AD
07498:  MOVFF  1C3,6AC
0749C:  MOVLW  CD
0749E:  MOVLB  6
074A0:  MOVWF  xB3
074A2:  MOVLW  CC
074A4:  MOVWF  xB2
074A6:  MOVWF  xB1
074A8:  MOVLW  7B
074AA:  MOVWF  xB0
074AC:  MOVLB  0
074AE:  CALL   25CC
074B2:  BNC   751E
....................                   Ganancia+=Integral+0.5; 
074B4:  MOVLB  6
074B6:  CLRF   xBB
074B8:  MOVFF  245,6BA
074BC:  MOVLB  0
074BE:  CALL   1F3A
074C2:  BCF    FD8.1
074C4:  MOVFF  03,6BD
074C8:  MOVFF  02,6BC
074CC:  MOVFF  01,6BB
074D0:  MOVFF  00,6BA
074D4:  MOVLB  6
074D6:  CLRF   xC1
074D8:  CLRF   xC0
074DA:  CLRF   xBF
074DC:  MOVLW  7E
074DE:  MOVWF  xBE
074E0:  MOVLB  0
074E2:  CALL   20F6
074E6:  BCF    FD8.1
074E8:  MOVFF  218,6BD
074EC:  MOVFF  217,6BC
074F0:  MOVFF  216,6BB
074F4:  MOVFF  215,6BA
074F8:  MOVFF  03,6C1
074FC:  MOVFF  02,6C0
07500:  MOVFF  01,6BF
07504:  MOVFF  00,6BE
07508:  CALL   20F6
0750C:  MOVFF  03,218
07510:  MOVFF  02,217
07514:  MOVFF  01,216
07518:  MOVFF  00,215
....................                }else{ 
0751C:  BRA    7562
....................                   Ganancia+=Integral; 
0751E:  MOVLB  6
07520:  CLRF   xBB
07522:  MOVFF  245,6BA
07526:  MOVLB  0
07528:  CALL   1F3A
0752C:  BCF    FD8.1
0752E:  MOVFF  218,6BD
07532:  MOVFF  217,6BC
07536:  MOVFF  216,6BB
0753A:  MOVFF  215,6BA
0753E:  MOVFF  03,6C1
07542:  MOVFF  02,6C0
07546:  MOVFF  01,6BF
0754A:  MOVFF  00,6BE
0754E:  CALL   20F6
07552:  MOVFF  03,218
07556:  MOVFF  02,217
0755A:  MOVFF  01,216
0755E:  MOVFF  00,215
07562:  MOVLB  2
....................                } 
....................             } 
....................          } 
....................       }else{ 
07564:  BRA    756C
07566:  MOVLB  0
....................          flagTC=0; 
07568:  MOVLB  2
0756A:  BCF    x48.1
....................       } 
....................    } 
....................     
....................    if(error<-0.3) 
0756C:  MOVFF  208,6AF
07570:  MOVFF  207,6AE
07574:  MOVFF  206,6AD
07578:  MOVFF  205,6AC
0757C:  MOVLW  9A
0757E:  MOVLB  6
07580:  MOVWF  xB3
07582:  MOVLW  99
07584:  MOVWF  xB2
07586:  MOVWF  xB1
07588:  MOVLW  7D
0758A:  MOVWF  xB0
0758C:  MOVLB  0
0758E:  CALL   25CC
07592:  BNC   75A4
....................       Ganancia=Ganancia2; 
07594:  MOVFF  21C,218
07598:  MOVFF  21B,217
0759C:  MOVFF  21A,216
075A0:  MOVFF  219,215
....................     
....................    if(Ganancia<1) 
075A4:  MOVFF  218,6AF
075A8:  MOVFF  217,6AE
075AC:  MOVFF  216,6AD
075B0:  MOVFF  215,6AC
075B4:  MOVLB  6
075B6:  CLRF   xB3
075B8:  CLRF   xB2
075BA:  CLRF   xB1
075BC:  MOVLW  7F
075BE:  MOVWF  xB0
075C0:  MOVLB  0
075C2:  CALL   25CC
075C6:  BNC   75D4
....................       Ganancia=1; 
075C8:  MOVLB  2
075CA:  CLRF   x18
075CC:  CLRF   x17
075CE:  CLRF   x16
075D0:  MOVLW  7F
075D2:  MOVWF  x15
....................     
....................    if(error<0.0)     // Anti Wind_DOWN     
075D4:  MOVFF  208,6AF
075D8:  MOVFF  207,6AE
075DC:  MOVFF  206,6AD
075E0:  MOVFF  205,6AC
075E4:  MOVLB  6
075E6:  CLRF   xB3
075E8:  CLRF   xB2
075EA:  CLRF   xB1
075EC:  CLRF   xB0
075EE:  MOVLB  0
075F0:  CALL   25CC
075F4:  BNC   7602
....................       error=0.0; 
075F6:  MOVLB  2
075F8:  CLRF   x08
075FA:  CLRF   x07
075FC:  CLRF   x06
075FE:  CLRF   x05
07600:  MOVLB  0
....................    //tmp=(Setpoint-Prom)*Ganancia;  // Control Proporcional. 
....................    tmp=error*Ganancia;  // Control Proporcional. 
07602:  MOVFF  208,6C1
07606:  MOVFF  207,6C0
0760A:  MOVFF  206,6BF
0760E:  MOVFF  205,6BE
07612:  MOVFF  218,6C5
07616:  MOVFF  217,6C4
0761A:  MOVFF  216,6C3
0761E:  MOVFF  215,6C2
07622:  CALL   40BA
07626:  MOVFF  03,214
0762A:  MOVFF  02,213
0762E:  MOVFF  01,212
07632:  MOVFF  00,211
....................           
....................    if(tmp>Setpoint)   // Anti Wind-UP       
07636:  MOVLB  6
07638:  CLRF   xBB
0763A:  MOVFF  260,6BA
0763E:  MOVLB  0
07640:  CALL   1F3A
07644:  MOVFF  03,6AF
07648:  MOVFF  02,6AE
0764C:  MOVFF  01,6AD
07650:  MOVFF  00,6AC
07654:  MOVFF  214,6B3
07658:  MOVFF  213,6B2
0765C:  MOVFF  212,6B1
07660:  MOVFF  211,6B0
07664:  CALL   25CC
07668:  BNC   7688
....................       tmp=Setpoint; 
0766A:  MOVLB  6
0766C:  CLRF   xBB
0766E:  MOVFF  260,6BA
07672:  MOVLB  0
07674:  CALL   1F3A
07678:  MOVFF  03,214
0767C:  MOVFF  02,213
07680:  MOVFF  01,212
07684:  MOVFF  00,211
....................                 
....................    if(tmp<0.0)     // Anti Wind_DOWN     
07688:  MOVFF  214,6AF
0768C:  MOVFF  213,6AE
07690:  MOVFF  212,6AD
07694:  MOVFF  211,6AC
07698:  MOVLB  6
0769A:  CLRF   xB3
0769C:  CLRF   xB2
0769E:  CLRF   xB1
076A0:  CLRF   xB0
076A2:  MOVLB  0
076A4:  CALL   25CC
076A8:  BNC   76B4
....................       tmp=0.0; 
076AA:  MOVLB  2
076AC:  CLRF   x14
076AE:  CLRF   x13
076B0:  CLRF   x12
076B2:  CLRF   x11
....................     
....................    // Tpulso(t)= Tciclo*(y(t)-ymin)/(ymax - ymin); calculo de ciclo util para control de resistencia.ymax=140.ymin=0; 
....................    // Tpulso es float, hay que pasar ese ciclo a una salida de un puerto usando el TMR1. 
....................    tmp2=(tmp/Setpoint); 
076B4:  MOVLB  6
076B6:  CLRF   xBB
076B8:  MOVFF  260,6BA
076BC:  MOVLB  0
076BE:  CALL   1F3A
076C2:  MOVFF  214,6B7
076C6:  MOVFF  213,6B6
076CA:  MOVFF  212,6B5
076CE:  MOVFF  211,6B4
076D2:  MOVFF  03,6BB
076D6:  MOVFF  02,6BA
076DA:  MOVFF  01,6B9
076DE:  MOVFF  00,6B8
076E2:  CALL   1F98
076E6:  MOVFF  03,1CA
076EA:  MOVFF  02,1C9
076EE:  MOVFF  01,1C8
076F2:  MOVFF  00,1C7
....................    //if(tmp2>0.8) 
....................    //tmp2=0.8; 
....................    Tpulso=tmp2*Tciclo;   
076F6:  MOVFF  1CA,6C1
076FA:  MOVFF  1C9,6C0
076FE:  MOVFF  1C8,6BF
07702:  MOVFF  1C7,6BE
07706:  MOVFF  200,6C5
0770A:  MOVFF  1FF,6C4
0770E:  MOVFF  1FE,6C3
07712:  MOVFF  1FD,6C2
07716:  CALL   40BA
0771A:  MOVFF  03,204
0771E:  MOVFF  02,203
07722:  MOVFF  01,202
07726:  MOVFF  00,201
....................                                        
....................    Tp=(Tpulso/0.005); 
0772A:  MOVFF  204,6B7
0772E:  MOVFF  203,6B6
07732:  MOVFF  202,6B5
07736:  MOVFF  201,6B4
0773A:  MOVLW  0A
0773C:  MOVLB  6
0773E:  MOVWF  xBB
07740:  MOVLW  D7
07742:  MOVWF  xBA
07744:  MOVLW  23
07746:  MOVWF  xB9
07748:  MOVLW  77
0774A:  MOVWF  xB8
0774C:  MOVLB  0
0774E:  CALL   1F98
07752:  MOVFF  03,6BD
07756:  MOVFF  02,6BC
0775A:  MOVFF  01,6BB
0775E:  MOVFF  00,6BA
07762:  CALL   4C80
07766:  MOVFF  02,10E
0776A:  MOVFF  01,10D
....................    Tc=(Tciclo/0.005); 
0776E:  MOVFF  200,6B7
07772:  MOVFF  1FF,6B6
07776:  MOVFF  1FE,6B5
0777A:  MOVFF  1FD,6B4
0777E:  MOVLW  0A
07780:  MOVLB  6
07782:  MOVWF  xBB
07784:  MOVLW  D7
07786:  MOVWF  xBA
07788:  MOVLW  23
0778A:  MOVWF  xB9
0778C:  MOVLW  77
0778E:  MOVWF  xB8
07790:  MOVLB  0
07792:  CALL   1F98
07796:  MOVFF  03,6BD
0779A:  MOVFF  02,6BC
0779E:  MOVFF  01,6BB
077A2:  MOVFF  00,6BA
077A6:  CALL   4C80
077AA:  MOVFF  02,110
077AE:  MOVFF  01,10F
....................    Controlando=1;    
077B2:  MOVLW  01
077B4:  MOVLB  2
077B6:  MOVWF  x4B
....................     
....................    if(Temperatura>Setpoint+0.1){ 
077B8:  MOVLB  6
077BA:  CLRF   xBB
077BC:  MOVFF  260,6BA
077C0:  MOVLB  0
077C2:  CALL   1F3A
077C6:  BCF    FD8.1
077C8:  MOVFF  03,6BD
077CC:  MOVFF  02,6BC
077D0:  MOVFF  01,6BB
077D4:  MOVFF  00,6BA
077D8:  MOVLW  CD
077DA:  MOVLB  6
077DC:  MOVWF  xC1
077DE:  MOVLW  CC
077E0:  MOVWF  xC0
077E2:  MOVLW  4C
077E4:  MOVWF  xBF
077E6:  MOVLW  7B
077E8:  MOVWF  xBE
077EA:  MOVLB  0
077EC:  CALL   20F6
077F0:  MOVFF  03,6AF
077F4:  MOVFF  02,6AE
077F8:  MOVFF  01,6AD
077FC:  MOVFF  00,6AC
07800:  MOVFF  234,6B3
07804:  MOVFF  233,6B2
07808:  MOVFF  232,6B1
0780C:  MOVFF  231,6B0
07810:  CALL   25CC
07814:  BNC   781C
....................       suministroVapor=OFF; 
07816:  BCF    xF7.5
....................       Paso=ON; 
07818:  BSF    xF7.6
....................    }else if(Temperatura<=Setpoint){ 
0781A:  BRA    7856
0781C:  MOVLB  6
0781E:  CLRF   xBB
07820:  MOVFF  260,6BA
07824:  MOVLB  0
07826:  CALL   1F3A
0782A:  MOVFF  234,6AF
0782E:  MOVFF  233,6AE
07832:  MOVFF  232,6AD
07836:  MOVFF  231,6AC
0783A:  MOVFF  03,6B3
0783E:  MOVFF  02,6B2
07842:  MOVFF  01,6B1
07846:  MOVFF  00,6B0
0784A:  CALL   25CC
0784E:  BC    7852
07850:  BNZ   7856
....................       suministroVapor=ON; 
07852:  BSF    xF7.5
....................       Paso=ON; 
07854:  BSF    xF7.6
....................    } 
.................... //--------------------------------------------------------------------------------------------------------------------//    
.................... } 
07856:  RETLW  00
....................  
.................... void Envio_I2C(direccion, posicion, dato){ 
....................    i2c_start();            // Comienzo comunicacin 
*
04F88:  BSF    F94.4
04F8A:  MOVLW  05
04F8C:  MOVWF  00
04F8E:  DECFSZ 00,F
04F90:  BRA    4F8E
04F92:  BSF    F94.3
04F94:  MOVLW  06
04F96:  MOVWF  00
04F98:  DECFSZ 00,F
04F9A:  BRA    4F98
04F9C:  BCF    F8B.4
04F9E:  BCF    F94.4
04FA0:  MOVLW  05
04FA2:  MOVWF  00
04FA4:  DECFSZ 00,F
04FA6:  BRA    4FA4
04FA8:  BCF    F8B.3
04FAA:  BCF    F94.3
....................    i2c_write(direccion);   // Direccin del esclavo en el bus I2C 
04FAC:  MOVFF  6BB,6BE
04FB0:  CALL   2404
....................    i2c_write(posicion);    // Posicin donde se guardara el dato transmitido 
04FB4:  MOVFF  6BC,6BE
04FB8:  CALL   2404
....................    i2c_write(dato);        // Dato a transmitir 
04FBC:  MOVFF  6BD,6BE
04FC0:  CALL   2404
....................    i2c_stop();             // Fin comunicacin 
04FC4:  BCF    F94.4
04FC6:  NOP   
04FC8:  BSF    F94.3
04FCA:  BTFSS  F82.3
04FCC:  BRA    4FCA
04FCE:  MOVLW  05
04FD0:  MOVWF  00
04FD2:  DECFSZ 00,F
04FD4:  BRA    4FD2
04FD6:  BRA    4FD8
04FD8:  NOP   
04FDA:  BSF    F94.4
04FDC:  MOVLW  05
04FDE:  MOVWF  00
04FE0:  DECFSZ 00,F
04FE2:  BRA    4FE0
....................  } 
04FE4:  GOTO   50AE (RETURN)
....................  
.................... void Lectura_I2C (byte direccion, byte posicion, byte &dato) { 
....................  
....................    i2c_start();            // Comienzo de la comunicacin 
*
050D4:  BSF    F94.4
050D6:  MOVLW  05
050D8:  MOVWF  00
050DA:  DECFSZ 00,F
050DC:  BRA    50DA
050DE:  BSF    F94.3
050E0:  MOVLW  06
050E2:  MOVWF  00
050E4:  DECFSZ 00,F
050E6:  BRA    50E4
050E8:  BCF    F8B.4
050EA:  BCF    F94.4
050EC:  MOVLW  05
050EE:  MOVWF  00
050F0:  DECFSZ 00,F
050F2:  BRA    50F0
050F4:  BCF    F8B.3
050F6:  BCF    F94.3
*
0518A:  BSF    F94.4
0518C:  MOVLW  05
0518E:  MOVWF  00
05190:  DECFSZ 00,F
05192:  BRA    5190
05194:  BSF    F94.3
05196:  MOVLW  06
05198:  MOVWF  00
0519A:  DECFSZ 00,F
0519C:  BRA    519A
0519E:  BCF    F8B.4
051A0:  BCF    F94.4
051A2:  MOVLW  05
051A4:  MOVWF  00
051A6:  DECFSZ 00,F
051A8:  BRA    51A6
051AA:  BCF    F8B.3
051AC:  BCF    F94.3
....................    i2c_write(direccion);   // Direccin del esclavo en el bus I2C 
*
050F8:  MOVFF  6A8,6BE
050FC:  CALL   2404
*
051AE:  MOVFF  6A8,6BE
051B2:  MOVLB  0
051B4:  CALL   2404
....................    i2c_write(posicion);    // Posicin de donde se leer el dato en el esclavo 
*
05100:  MOVFF  6A9,6BE
05104:  CALL   2404
*
051B8:  MOVFF  6A9,6BE
051BC:  CALL   2404
....................    i2c_start();            // Reinicio 
*
05108:  BSF    F94.4
0510A:  MOVLW  05
0510C:  MOVWF  00
0510E:  DECFSZ 00,F
05110:  BRA    510E
05112:  BSF    F94.3
05114:  MOVLW  06
05116:  MOVWF  00
05118:  DECFSZ 00,F
0511A:  BRA    5118
0511C:  BTFSS  F82.3
0511E:  BRA    511C
05120:  BCF    F8B.4
05122:  BCF    F94.4
05124:  MOVLW  05
05126:  MOVWF  00
05128:  DECFSZ 00,F
0512A:  BRA    5128
0512C:  BCF    F8B.3
0512E:  BCF    F94.3
*
051C0:  BSF    F94.4
051C2:  MOVLW  05
051C4:  MOVWF  00
051C6:  DECFSZ 00,F
051C8:  BRA    51C6
051CA:  BSF    F94.3
051CC:  MOVLW  06
051CE:  MOVWF  00
051D0:  DECFSZ 00,F
051D2:  BRA    51D0
051D4:  BTFSS  F82.3
051D6:  BRA    51D4
051D8:  BCF    F8B.4
051DA:  BCF    F94.4
051DC:  MOVLW  05
051DE:  MOVWF  00
051E0:  DECFSZ 00,F
051E2:  BRA    51E0
051E4:  BCF    F8B.3
051E6:  BCF    F94.3
....................    i2c_write(direccion+1); // Direccin del esclavo en modo lectura 
*
05130:  MOVLW  01
05132:  MOVLB  6
05134:  ADDWF  xA8,W
05136:  MOVWF  xAA
05138:  MOVWF  xBE
0513A:  MOVLB  0
0513C:  CALL   2404
*
051E8:  MOVLW  01
051EA:  MOVLB  6
051EC:  ADDWF  xA8,W
051EE:  MOVWF  xAA
051F0:  MOVWF  xBE
051F2:  MOVLB  0
051F4:  CALL   2404
....................    dato=i2c_read(0);       // Lectura del dato 
*
05140:  CLRF   00
05142:  CALL   247A
05146:  MOVFF  01,DC
*
051F8:  CLRF   00
051FA:  CALL   247A
051FE:  MOVFF  01,DC
....................    i2c_stop();             // Fin comunicacin 
*
0514A:  BCF    F94.4
0514C:  NOP   
0514E:  BSF    F94.3
05150:  BTFSS  F82.3
05152:  BRA    5150
05154:  MOVLW  05
05156:  MOVWF  00
05158:  DECFSZ 00,F
0515A:  BRA    5158
0515C:  BRA    515E
0515E:  NOP   
05160:  BSF    F94.4
05162:  MOVLW  05
05164:  MOVWF  00
05166:  DECFSZ 00,F
05168:  BRA    5166
*
05202:  BCF    F94.4
05204:  NOP   
05206:  BSF    F94.3
05208:  BTFSS  F82.3
0520A:  BRA    5208
0520C:  MOVLW  05
0520E:  MOVWF  00
05210:  DECFSZ 00,F
05212:  BRA    5210
05214:  BRA    5216
05216:  NOP   
05218:  BSF    F94.4
0521A:  MOVLW  05
0521C:  MOVWF  00
0521E:  DECFSZ 00,F
05220:  BRA    521E
.................... } 
....................  
.................... void Carga_Vector(void){ 
....................    SlaveB0Tx[0]=(int8)Temperatura; 
*
04CBC:  MOVFF  234,6BD
04CC0:  MOVFF  233,6BC
04CC4:  MOVFF  232,6BB
04CC8:  MOVFF  231,6BA
04CCC:  RCALL  4C80
04CCE:  MOVFF  01,6C
....................    SlaveB0Tx[1]=(Temperatura-((int8)Temperatura))*10; 
04CD2:  MOVFF  234,6BD
04CD6:  MOVFF  233,6BC
04CDA:  MOVFF  232,6BB
04CDE:  MOVFF  231,6BA
04CE2:  RCALL  4C80
04CE4:  MOVLB  6
04CE6:  CLRF   xBB
04CE8:  MOVFF  01,6BA
04CEC:  MOVLB  0
04CEE:  CALL   1F3A
04CF2:  BSF    FD8.1
04CF4:  MOVFF  234,6BD
04CF8:  MOVFF  233,6BC
04CFC:  MOVFF  232,6BB
04D00:  MOVFF  231,6BA
04D04:  MOVFF  03,6C1
04D08:  MOVFF  02,6C0
04D0C:  MOVFF  01,6BF
04D10:  MOVFF  00,6BE
04D14:  CALL   20F6
04D18:  MOVFF  00,6BA
04D1C:  MOVFF  01,6BB
04D20:  MOVFF  02,6BC
04D24:  MOVFF  03,6BD
04D28:  MOVFF  03,6C1
04D2C:  MOVFF  02,6C0
04D30:  MOVFF  01,6BF
04D34:  MOVFF  00,6BE
04D38:  MOVLB  6
04D3A:  CLRF   xC5
04D3C:  CLRF   xC4
04D3E:  MOVLW  20
04D40:  MOVWF  xC3
04D42:  MOVLW  82
04D44:  MOVWF  xC2
04D46:  MOVLB  0
04D48:  CALL   40BA
04D4C:  MOVFF  03,6BD
04D50:  MOVFF  02,6BC
04D54:  MOVFF  01,6BB
04D58:  MOVFF  00,6BA
04D5C:  RCALL  4C80
04D5E:  MOVFF  01,6D
....................    SlaveB0Tx[2]=make8((int16)PresionCamara,0); 
04D62:  MOVFF  271,6E
04D66:  MOVLB  0
....................    SlaveB0Tx[3]=make8((int16)PresionCamara,1); 
04D68:  MOVFF  272,6F
04D6C:  MOVLB  0
....................    SlaveB0Tx[4]=make8((int16)PresionPreCamara,0); 
04D6E:  MOVFF  273,70
04D72:  MOVLB  0
....................    SlaveB0Tx[5]=make8((int16)PresionPreCamara,1); 
04D74:  MOVFF  274,71
04D78:  MOVLB  0
....................    SlaveB0Tx[6]=(int8)Tpulso*10; 
04D7A:  MOVFF  204,6BD
04D7E:  MOVFF  203,6BC
04D82:  MOVFF  202,6BB
04D86:  MOVFF  201,6BA
04D8A:  RCALL  4C80
04D8C:  MOVF   01,W
04D8E:  MULLW  0A
04D90:  MOVFF  FF3,72
....................    SlaveB0Tx[7]=seguroValvula; 
04D94:  CLRF   x73
04D96:  BTFSC  xF8.5
04D98:  INCF   x73,F
....................    //SlaveB0Tx[8]=LOW; 
....................    //SlaveB0Tx[9]=TERM; 
....................    //SlaveB0Tx[10]=DOOR; 
....................    SlaveB0Tx[11]=STOP; 
04D9A:  BSF    F93.0
04D9C:  CLRF   x77
04D9E:  BTFSS  F81.0
04DA0:  INCF   x77,F
....................    SlaveB0Tx[12]=(int8)error; 
04DA2:  MOVFF  208,6BD
04DA6:  MOVFF  207,6BC
04DAA:  MOVFF  206,6BB
04DAE:  MOVFF  205,6BA
04DB2:  RCALL  4C80
04DB4:  MOVFF  01,78
....................    SlaveB0Tx[13]=CicloSeleccionado; 
04DB8:  MOVFF  258,79
....................    SlaveB0Tx[14]=SetTime; 
04DBC:  MOVFF  2A4,7A
....................    SlaveB0Tx[15]=Dia; 
04DC0:  MOVFF  293,7B
....................    SlaveB0Tx[16]=Mes; 
04DC4:  MOVFF  292,7C
....................    SlaveB0Tx[17]=Year; 
04DC8:  MOVFF  291,7D
....................    SlaveB0Tx[18]=Hora; 
04DCC:  MOVFF  294,7E
....................    SlaveB0Tx[19]=Minuto; 
04DD0:  MOVFF  295,7F
....................    SlaveB0Tx[20]=Segundo; 
04DD4:  MOVFF  296,80
....................    SlaveB0Tx[21]=Imprime; 
04DD8:  MOVFF  2A5,81
....................    SlaveB0Tx[22]=make8(Ciclos,0); 
04DDC:  MOVFF  275,82
04DE0:  MOVLB  0
....................    SlaveB0Tx[23]=make8(Ciclos,1); 
04DE2:  MOVFF  276,83
04DE6:  MOVLB  0
....................    SlaveB0Tx[24]=EstadoBuzzer; 
04DE8:  CLRF   x84
04DEA:  MOVLB  1
04DEC:  BTFSS  x04.6
04DEE:  BRA    4DF6
04DF0:  MOVLB  0
04DF2:  INCF   x84,F
04DF4:  MOVLB  1
....................    SlaveB0Tx[25]=suministroAire; 
04DF6:  MOVLB  0
04DF8:  CLRF   x85
04DFA:  BTFSC  xF7.0
04DFC:  INCF   x85,F
....................    SlaveB0Tx[26]=AguaEnfriador; 
04DFE:  CLRF   x86
04E00:  BTFSC  xF7.1
04E02:  INCF   x86,F
....................    SlaveB0Tx[27]=BombaVacio; 
04E04:  CLRF   x87
04E06:  BTFSC  xF7.2
04E08:  INCF   x87,F
....................    SlaveB0Tx[28]=empaqueLimpio; 
04E0A:  CLRF   x88
04E0C:  BTFSC  xF7.3
04E0E:  INCF   x88,F
....................    SlaveB0Tx[29]=empaqueSucio; 
04E10:  CLRF   x89
04E12:  BTFSC  xF7.4
04E14:  INCF   x89,F
....................    SlaveB0Tx[30]=cilindroSucio; 
04E16:  CLRF   x8A
04E18:  BTFSC  xF8.2
04E1A:  INCF   x8A,F
....................    SlaveB0Tx[31]=cilindroLimpio; 
04E1C:  CLRF   x8B
04E1E:  BTFSC  xF8.3
04E20:  INCF   x8B,F
....................    SlaveB0Tx[32]=suministroVapor; 
04E22:  CLRF   x8C
04E24:  BTFSC  xF7.5
04E26:  INCF   x8C,F
....................    SlaveB0Tx[33]=Paso; 
04E28:  CLRF   x8D
04E2A:  BTFSC  xF7.6
04E2C:  INCF   x8D,F
....................    SlaveB0Tx[34]=outVacio; 
04E2E:  CLRF   x8E
04E30:  BTFSC  xF7.7
04E32:  INCF   x8E,F
....................    SlaveB0Tx[35]=Desfogue; 
04E34:  CLRF   x8F
04E36:  BTFSC  xF8.0
04E38:  INCF   x8F,F
....................    SlaveB0Tx[36]=Aire; 
04E3A:  CLRF   x90
04E3C:  BTFSC  xF8.1
04E3E:  INCF   x90,F
....................    SlaveB0Tx[37]=Aux; 
04E40:  CLRF   x91
04E42:  BTFSC  xF8.4
04E44:  INCF   x91,F
....................     
....................    SlaveC0Tx[0]=(int8)Temperatura; 
04E46:  MOVFF  234,6BD
04E4A:  MOVFF  233,6BC
04E4E:  MOVFF  232,6BB
04E52:  MOVFF  231,6BA
04E56:  RCALL  4C80
04E58:  MOVFF  01,92
....................    SlaveC0Tx[1]=(Temperatura-((int8)Temperatura))*10; 
04E5C:  MOVFF  234,6BD
04E60:  MOVFF  233,6BC
04E64:  MOVFF  232,6BB
04E68:  MOVFF  231,6BA
04E6C:  RCALL  4C80
04E6E:  MOVLB  6
04E70:  CLRF   xBB
04E72:  MOVFF  01,6BA
04E76:  MOVLB  0
04E78:  CALL   1F3A
04E7C:  BSF    FD8.1
04E7E:  MOVFF  234,6BD
04E82:  MOVFF  233,6BC
04E86:  MOVFF  232,6BB
04E8A:  MOVFF  231,6BA
04E8E:  MOVFF  03,6C1
04E92:  MOVFF  02,6C0
04E96:  MOVFF  01,6BF
04E9A:  MOVFF  00,6BE
04E9E:  CALL   20F6
04EA2:  MOVFF  00,6BA
04EA6:  MOVFF  01,6BB
04EAA:  MOVFF  02,6BC
04EAE:  MOVFF  03,6BD
04EB2:  MOVFF  03,6C1
04EB6:  MOVFF  02,6C0
04EBA:  MOVFF  01,6BF
04EBE:  MOVFF  00,6BE
04EC2:  MOVLB  6
04EC4:  CLRF   xC5
04EC6:  CLRF   xC4
04EC8:  MOVLW  20
04ECA:  MOVWF  xC3
04ECC:  MOVLW  82
04ECE:  MOVWF  xC2
04ED0:  MOVLB  0
04ED2:  CALL   40BA
04ED6:  MOVFF  03,6BD
04EDA:  MOVFF  02,6BC
04EDE:  MOVFF  01,6BB
04EE2:  MOVFF  00,6BA
04EE6:  RCALL  4C80
04EE8:  MOVFF  01,93
....................    SlaveC0Tx[2]=make8((int16)PresionCamara,0); 
04EEC:  MOVFF  271,94
04EF0:  MOVLB  0
....................    SlaveC0Tx[3]=make8((int16)PresionCamara,1); 
04EF2:  MOVFF  272,95
04EF6:  MOVLB  0
....................    SlaveC0Tx[4]=make8((int16)PresionPreCamara,0); 
04EF8:  MOVFF  273,96
04EFC:  MOVLB  0
....................    SlaveC0Tx[5]=make8((int16)PresionPreCamara,1); 
04EFE:  MOVFF  274,97
04F02:  MOVLB  0
....................    SlaveC0Tx[6]=(int8)Tpulso*10; 
04F04:  MOVFF  204,6BD
04F08:  MOVFF  203,6BC
04F0C:  MOVFF  202,6BB
04F10:  MOVFF  201,6BA
04F14:  RCALL  4C80
04F16:  MOVF   01,W
04F18:  MULLW  0A
04F1A:  MOVFF  FF3,98
....................    //SlaveC0Tx[7]=HIG; 
....................    //SlaveC0Tx[8]=LOW; 
....................    //SlaveC0Tx[9]=TERM; 
....................    //SlaveC0Tx[10]=DOOR; 
....................    SlaveC0Tx[11]=STOP; 
04F1E:  BSF    F93.0
04F20:  CLRF   x9D
04F22:  BTFSS  F81.0
04F24:  INCF   x9D,F
....................    SlaveC0Tx[12]=(int8)error; 
04F26:  MOVFF  208,6BD
04F2A:  MOVFF  207,6BC
04F2E:  MOVFF  206,6BB
04F32:  MOVFF  205,6BA
04F36:  RCALL  4C80
04F38:  MOVFF  01,9E
....................    SlaveC0Tx[13]=CicloSeleccionado; 
04F3C:  MOVFF  258,9F
....................    SlaveC0Tx[14]=SetTime; 
04F40:  MOVFF  2A4,A0
....................    SlaveC0Tx[15]=Dia; 
04F44:  MOVFF  293,A1
....................    SlaveC0Tx[16]=Mes; 
04F48:  MOVFF  292,A2
....................    SlaveC0Tx[17]=Year; 
04F4C:  MOVFF  291,A3
....................    SlaveC0Tx[18]=Hora; 
04F50:  MOVFF  294,A4
....................    SlaveC0Tx[19]=Minuto; 
04F54:  MOVFF  295,A5
....................    SlaveC0Tx[20]=Segundo; 
04F58:  MOVFF  296,A6
....................    SlaveC0Tx[21]=mEst; 
04F5C:  MOVFF  118,A7
....................    SlaveC0Tx[22]=sEst; 
04F60:  MOVFF  117,A8
....................    SlaveC0Tx[23]=mSec; 
04F64:  MOVFF  11A,A9
....................    SlaveC0Tx[24]=sSec; 
04F68:  MOVFF  119,AA
....................    SlaveC0Tx[25]=Menu; 
04F6C:  MOVFF  252,AB
....................    SlaveC0Tx[26]=Setpoint; 
04F70:  MOVFF  260,AC
....................    SlaveC0Tx[27]=codigoAlarma; 
04F74:  MOVFF  28A,AD
....................    SlaveC0Tx[28]=255; 
04F78:  MOVLW  FF
04F7A:  MOVWF  xAE
....................    SlaveC0Tx[29]=128; 
04F7C:  MOVLW  80
04F7E:  MOVWF  xAF
....................    SlaveC0Tx[30]=50; 
04F80:  MOVLW  32
04F82:  MOVWF  xB0
.................... } 
04F84:  GOTO   4FEA (RETURN)
....................  
.................... void Lee_Vector(void){ 
....................    //Dia=txbuf[0];    
.................... } 
*
00004:  GOTO   522E (RETURN)
....................  
.................... void Envio_Esclavos(void){ 
....................    Carga_Vector(); 
*
04FE8:  BRA    4CBC
....................    for(i=0;i<38;i++){ 
04FEA:  MOVLB  2
04FEC:  CLRF   x55
04FEE:  MOVF   x55,W
04FF0:  SUBLW  25
04FF2:  BNC   507C
....................       direccion=0xB0; 
04FF4:  MOVLW  B0
04FF6:  MOVLB  0
04FF8:  MOVWF  xDD
....................       i2c_start();            // Comienzo comunicacin 
04FFA:  BSF    F94.4
04FFC:  MOVLW  05
04FFE:  MOVWF  00
05000:  DECFSZ 00,F
05002:  BRA    5000
05004:  BSF    F94.3
05006:  MOVLW  06
05008:  MOVWF  00
0500A:  DECFSZ 00,F
0500C:  BRA    500A
0500E:  BCF    F8B.4
05010:  BCF    F94.4
05012:  MOVLW  05
05014:  MOVWF  00
05016:  DECFSZ 00,F
05018:  BRA    5016
0501A:  BCF    F8B.3
0501C:  BCF    F94.3
....................       i2c_write(direccion);   // Direccin del esclavo en el bus I2C 
0501E:  MOVFF  DD,6BE
05022:  CALL   2404
....................       i2c_write(i);   // Direccin del esclavo en el bus I2C 
05026:  MOVFF  255,6BE
0502A:  CALL   2404
....................       i2c_write(0);    // Posicin donde se guardara el dato transmitido 
0502E:  MOVLB  6
05030:  CLRF   xBE
05032:  MOVLB  0
05034:  CALL   2404
....................       i2c_write(SlaveB0Tx[i]); // Dato a transmitir 
05038:  CLRF   03
0503A:  MOVLB  2
0503C:  MOVF   x55,W
0503E:  ADDLW  6C
05040:  MOVWF  FE9
05042:  MOVLW  00
05044:  ADDWFC 03,W
05046:  MOVWF  FEA
05048:  MOVFF  FEF,6BA
0504C:  MOVFF  6BA,6BE
05050:  MOVLB  0
05052:  CALL   2404
....................       i2c_stop();  
05056:  BCF    F94.4
05058:  NOP   
0505A:  BSF    F94.3
0505C:  BTFSS  F82.3
0505E:  BRA    505C
05060:  MOVLW  05
05062:  MOVWF  00
05064:  DECFSZ 00,F
05066:  BRA    5064
05068:  BRA    506A
0506A:  NOP   
0506C:  BSF    F94.4
0506E:  MOVLW  05
05070:  MOVWF  00
05072:  DECFSZ 00,F
05074:  BRA    5072
....................       //Envio_I2C(direccion,i,SlaveB0Tx[i]); 
....................    }  
05076:  MOVLB  2
05078:  INCF   x55,F
0507A:  BRA    4FEE
....................     
....................    for(i=0;i<31;i++){ 
0507C:  CLRF   x55
0507E:  MOVF   x55,W
05080:  SUBLW  1E
05082:  BNC   50B4
....................       direccion=0xC0; 
05084:  MOVLW  C0
05086:  MOVLB  0
05088:  MOVWF  xDD
....................       Envio_I2C(direccion,i,SlaveC0Tx[i]); 
0508A:  CLRF   03
0508C:  MOVLB  2
0508E:  MOVF   x55,W
05090:  ADDLW  92
05092:  MOVWF  FE9
05094:  MOVLW  00
05096:  ADDWFC 03,W
05098:  MOVWF  FEA
0509A:  MOVFF  FEF,6BA
0509E:  MOVFF  DD,6BB
050A2:  MOVFF  255,6BC
050A6:  MOVFF  6BA,6BD
050AA:  MOVLB  0
050AC:  BRA    4F88
....................    } 
050AE:  MOVLB  2
050B0:  INCF   x55,F
050B2:  BRA    507E
.................... } 
050B4:  MOVLB  0
050B6:  RETLW  00
.................... void Lectura_Esclavos(void){ 
....................    for(i=0;i<9;i++){ 
050B8:  MOVLB  2
050BA:  CLRF   x55
050BC:  MOVF   x55,W
050BE:  SUBLW  08
050C0:  BNC   5182
....................       direccion=0xB0;                        //Direccin en el bus I2c 
050C2:  MOVLW  B0
050C4:  MOVLB  0
050C6:  MOVWF  xDD
....................       posicion=i;                         //Posicin de memoria a leer 
050C8:  MOVFF  255,DE
....................       Lectura_I2C(direccion, posicion, dato);    //Lectura por I2C 
050CC:  MOVFF  DD,6A8
050D0:  MOVFF  DE,6A9
....................       txbuf[i]=(int8)dato; 
*
0516A:  CLRF   03
0516C:  MOVLB  2
0516E:  MOVF   x55,W
05170:  ADDLW  47
05172:  MOVWF  FE9
05174:  MOVLW  00
05176:  ADDWFC 03,W
05178:  MOVWF  FEA
0517A:  MOVFF  DC,FEF
....................    } 
0517E:  INCF   x55,F
05180:  BRA    50BC
....................    Lectura_I2C(0XC0, 0, dato);    //Lectura por I2C 
05182:  MOVLW  C0
05184:  MOVLB  6
05186:  MOVWF  xA8
05188:  CLRF   xA9
....................    SlaveC0Rx[0]=(int8)dato; 
*
05222:  MOVFF  DC,B7
....................    subirPuertaLimpio=SlaveC0Rx[0]; 
05226:  MOVFF  B7,1F2
....................    Lee_Vector(); 
0522A:  GOTO   0004
.................... } 
0522E:  GOTO   7EAE (RETURN)
....................  
.................... int8 extraeDecimal(float data){ 
*
06CA4:  MOVLB  6
06CA6:  CLRF   xB5
06CA8:  CLRF   xB4
06CAA:  CLRF   xB3
06CAC:  CLRF   xB2
06CAE:  CLRF   xB9
06CB0:  CLRF   xB8
06CB2:  CLRF   xB7
06CB4:  CLRF   xB6
....................    float entero=0; 
....................    float tmp=0.0; 
....................     
....................    entero=(int8)data; 
06CB6:  MOVFF  6B1,6BD
06CBA:  MOVFF  6B0,6BC
06CBE:  MOVFF  6AF,6BB
06CC2:  MOVFF  6AE,6BA
06CC6:  MOVLB  0
06CC8:  CALL   4C80
06CCC:  MOVLB  6
06CCE:  CLRF   xBB
06CD0:  MOVFF  01,6BA
06CD4:  MOVLB  0
06CD6:  CALL   1F3A
06CDA:  MOVFF  03,6B5
06CDE:  MOVFF  02,6B4
06CE2:  MOVFF  01,6B3
06CE6:  MOVFF  00,6B2
....................    tmp=(data-entero)*10; 
06CEA:  BSF    FD8.1
06CEC:  MOVFF  6B1,6BD
06CF0:  MOVFF  6B0,6BC
06CF4:  MOVFF  6AF,6BB
06CF8:  MOVFF  6AE,6BA
06CFC:  MOVFF  6B5,6C1
06D00:  MOVFF  6B4,6C0
06D04:  MOVFF  6B3,6BF
06D08:  MOVFF  6B2,6BE
06D0C:  CALL   20F6
06D10:  MOVFF  00,6BA
06D14:  MOVFF  01,6BB
06D18:  MOVFF  02,6BC
06D1C:  MOVFF  03,6BD
06D20:  MOVFF  03,6C1
06D24:  MOVFF  02,6C0
06D28:  MOVFF  01,6BF
06D2C:  MOVFF  00,6BE
06D30:  MOVLB  6
06D32:  CLRF   xC5
06D34:  CLRF   xC4
06D36:  MOVLW  20
06D38:  MOVWF  xC3
06D3A:  MOVLW  82
06D3C:  MOVWF  xC2
06D3E:  MOVLB  0
06D40:  CALL   40BA
06D44:  MOVFF  03,6B9
06D48:  MOVFF  02,6B8
06D4C:  MOVFF  01,6B7
06D50:  MOVFF  00,6B6
....................    return (int8)tmp; 
06D54:  MOVFF  6B9,6BD
06D58:  MOVFF  6B8,6BC
06D5C:  MOVFF  6B7,6BB
06D60:  MOVFF  6B6,6BA
06D64:  CALL   4C80
06D68:  MOVF   01,W
.................... } 
06D6A:  GOTO   6E7E (RETURN)
....................  
.................... float inttofloat(int8 decimal){ 
....................    float tmp; 
....................    tmp=decimal; 
*
0258C:  MOVLB  6
0258E:  CLRF   xBB
02590:  MOVFF  6AC,6BA
02594:  MOVLB  0
02596:  RCALL  1F3A
02598:  MOVFF  03,6B0
0259C:  MOVFF  02,6AF
025A0:  MOVFF  01,6AE
025A4:  MOVFF  00,6AD
....................    return tmp/10; 
025A8:  MOVFF  6B0,6B7
025AC:  MOVFF  6AF,6B6
025B0:  MOVFF  6AE,6B5
025B4:  MOVFF  6AD,6B4
025B8:  MOVLB  6
025BA:  CLRF   xBB
025BC:  CLRF   xBA
025BE:  MOVLW  20
025C0:  MOVWF  xB9
025C2:  MOVLW  82
025C4:  MOVWF  xB8
025C6:  MOVLB  0
025C8:  RCALL  1F98
.................... } 
025CA:  RETLW  00
....................  
.................... void LeeEEPROM(){ 
.................... //Lectura EEPROM//-------------------------- 
....................    Ganancia=read_eeprom(20); 
*
02646:  MOVFF  FF2,6A8
0264A:  BCF    FF2.6
0264C:  BCF    FF2.7
0264E:  CLRF   FAA
02650:  MOVLW  14
02652:  MOVWF  FA9
02654:  BCF    FA6.6
02656:  BCF    FA6.7
02658:  BSF    FA6.0
0265A:  MOVF   FA8,W
0265C:  MOVLB  6
0265E:  BTFSC  xA8.6
02660:  BSF    FF2.6
02662:  BTFSC  xA8.7
02664:  BSF    FF2.7
02666:  CLRF   xBB
02668:  MOVWF  xBA
0266A:  MOVLB  0
0266C:  RCALL  1F3A
0266E:  MOVFF  03,218
02672:  MOVFF  02,217
02676:  MOVFF  01,216
0267A:  MOVFF  00,215
....................    delay_ms(10); 
0267E:  MOVLW  0A
02680:  MOVLB  6
02682:  MOVWF  xBA
02684:  MOVLB  0
02686:  RCALL  1F70
....................    Sensor[0].Ajuste=read_eeprom(21); 
02688:  MOVFF  FF2,6A8
0268C:  BCF    FF2.6
0268E:  BCF    FF2.7
02690:  CLRF   FAA
02692:  MOVLW  15
02694:  MOVWF  FA9
02696:  BCF    FA6.6
02698:  BCF    FA6.7
0269A:  BSF    FA6.0
0269C:  MOVF   FA8,W
0269E:  MOVLB  6
026A0:  BTFSC  xA8.6
026A2:  BSF    FF2.6
026A4:  BTFSC  xA8.7
026A6:  BSF    FF2.7
026A8:  MOVLB  3
026AA:  MOVWF  x36
....................    delay_ms(10); 
026AC:  MOVLW  0A
026AE:  MOVLB  6
026B0:  MOVWF  xBA
026B2:  MOVLB  0
026B4:  RCALL  1F70
....................    Sensor[0].Ajusten=read_eeprom(22); 
026B6:  MOVFF  FF2,6A8
026BA:  BCF    FF2.6
026BC:  BCF    FF2.7
026BE:  CLRF   FAA
026C0:  MOVLW  16
026C2:  MOVWF  FA9
026C4:  BCF    FA6.6
026C6:  BCF    FA6.7
026C8:  BSF    FA6.0
026CA:  MOVF   FA8,W
026CC:  MOVLB  6
026CE:  BTFSC  xA8.6
026D0:  BSF    FF2.6
026D2:  BTFSC  xA8.7
026D4:  BSF    FF2.7
026D6:  MOVLB  3
026D8:  MOVWF  x37
....................    delay_ms(10); 
026DA:  MOVLW  0A
026DC:  MOVLB  6
026DE:  MOVWF  xBA
026E0:  MOVLB  0
026E2:  RCALL  1F70
....................    Sensor[1].Ajuste=read_eeprom(23); 
026E4:  MOVFF  FF2,6A8
026E8:  BCF    FF2.6
026EA:  BCF    FF2.7
026EC:  CLRF   FAA
026EE:  MOVLW  17
026F0:  MOVWF  FA9
026F2:  BCF    FA6.6
026F4:  BCF    FA6.7
026F6:  BSF    FA6.0
026F8:  MOVF   FA8,W
026FA:  MOVLB  6
026FC:  BTFSC  xA8.6
026FE:  BSF    FF2.6
02700:  BTFSC  xA8.7
02702:  BSF    FF2.7
02704:  MOVLB  4
02706:  MOVWF  x9A
....................    delay_ms(10); 
02708:  MOVLW  0A
0270A:  MOVLB  6
0270C:  MOVWF  xBA
0270E:  MOVLB  0
02710:  RCALL  1F70
....................    Sensor[1].Ajusten=read_eeprom(24); 
02712:  MOVFF  FF2,6A8
02716:  BCF    FF2.6
02718:  BCF    FF2.7
0271A:  CLRF   FAA
0271C:  MOVLW  18
0271E:  MOVWF  FA9
02720:  BCF    FA6.6
02722:  BCF    FA6.7
02724:  BSF    FA6.0
02726:  MOVF   FA8,W
02728:  MOVLB  6
0272A:  BTFSC  xA8.6
0272C:  BSF    FF2.6
0272E:  BTFSC  xA8.7
02730:  BSF    FF2.7
02732:  MOVLB  4
02734:  MOVWF  x9B
....................    delay_ms(10);    
02736:  MOVLW  0A
02738:  MOVLB  6
0273A:  MOVWF  xBA
0273C:  MOVLB  0
0273E:  RCALL  1F70
....................    MediaMovil=read_eeprom(25); 
02740:  MOVFF  FF2,6A8
02744:  BCF    FF2.6
02746:  BCF    FF2.7
02748:  CLRF   FAA
0274A:  MOVLW  19
0274C:  MOVWF  FA9
0274E:  BCF    FA6.6
02750:  BCF    FA6.7
02752:  BSF    FA6.0
02754:  MOVF   FA8,W
02756:  MOVLB  6
02758:  BTFSC  xA8.6
0275A:  BSF    FF2.6
0275C:  BTFSC  xA8.7
0275E:  BSF    FF2.7
02760:  MOVLB  1
02762:  MOVWF  xED
....................    delay_ms(10); 
02764:  MOVLW  0A
02766:  MOVLB  6
02768:  MOVWF  xBA
0276A:  MOVLB  0
0276C:  RCALL  1F70
....................    Tciclo=read_eeprom(26); 
0276E:  MOVFF  FF2,6A8
02772:  BCF    FF2.6
02774:  BCF    FF2.7
02776:  CLRF   FAA
02778:  MOVLW  1A
0277A:  MOVWF  FA9
0277C:  BCF    FA6.6
0277E:  BCF    FA6.7
02780:  BSF    FA6.0
02782:  MOVF   FA8,W
02784:  MOVLB  6
02786:  BTFSC  xA8.6
02788:  BSF    FF2.6
0278A:  BTFSC  xA8.7
0278C:  BSF    FF2.7
0278E:  CLRF   xBB
02790:  MOVWF  xBA
02792:  MOVLB  0
02794:  CALL   1F3A
02798:  MOVFF  03,200
0279C:  MOVFF  02,1FF
027A0:  MOVFF  01,1FE
027A4:  MOVFF  00,1FD
....................    delay_ms(10); 
027A8:  MOVLW  0A
027AA:  MOVLB  6
027AC:  MOVWF  xBA
027AE:  MOVLB  0
027B0:  CALL   1F70
....................    Temporal=read_eeprom(27); 
027B4:  MOVFF  FF2,6A8
027B8:  BCF    FF2.6
027BA:  BCF    FF2.7
027BC:  CLRF   FAA
027BE:  MOVLW  1B
027C0:  MOVWF  FA9
027C2:  BCF    FA6.6
027C4:  BCF    FA6.7
027C6:  BSF    FA6.0
027C8:  MOVF   FA8,W
027CA:  MOVLB  6
027CC:  BTFSC  xA8.6
027CE:  BSF    FF2.6
027D0:  BTFSC  xA8.7
027D2:  BSF    FF2.7
027D4:  CLRF   xBB
027D6:  MOVWF  xBA
027D8:  MOVLB  0
027DA:  CALL   1F3A
027DE:  MOVFF  03,1C2
027E2:  MOVFF  02,1C1
027E6:  MOVFF  01,1C0
027EA:  MOVFF  00,1BF
....................    Temporal=Temporal/10.0; 
027EE:  MOVFF  1C2,6B7
027F2:  MOVFF  1C1,6B6
027F6:  MOVFF  1C0,6B5
027FA:  MOVFF  1BF,6B4
027FE:  MOVLB  6
02800:  CLRF   xBB
02802:  CLRF   xBA
02804:  MOVLW  20
02806:  MOVWF  xB9
02808:  MOVLW  82
0280A:  MOVWF  xB8
0280C:  MOVLB  0
0280E:  CALL   1F98
02812:  MOVFF  03,1C2
02816:  MOVFF  02,1C1
0281A:  MOVFF  01,1C0
0281E:  MOVFF  00,1BF
....................    delay_ms(10); 
02822:  MOVLW  0A
02824:  MOVLB  6
02826:  MOVWF  xBA
02828:  MOVLB  0
0282A:  CALL   1F70
....................    Sensor[0].RPT100=read_eeprom(28)+Temporal; 
0282E:  MOVFF  FF2,6A8
02832:  BCF    FF2.6
02834:  BCF    FF2.7
02836:  CLRF   FAA
02838:  MOVLW  1C
0283A:  MOVWF  FA9
0283C:  BCF    FA6.6
0283E:  BCF    FA6.7
02840:  BSF    FA6.0
02842:  MOVF   FA8,W
02844:  MOVLB  6
02846:  BTFSC  xA8.6
02848:  BSF    FF2.6
0284A:  BTFSC  xA8.7
0284C:  BSF    FF2.7
0284E:  CLRF   xBB
02850:  MOVWF  xBA
02852:  MOVLB  0
02854:  CALL   1F3A
02858:  BCF    FD8.1
0285A:  MOVFF  03,6BD
0285E:  MOVFF  02,6BC
02862:  MOVFF  01,6BB
02866:  MOVFF  00,6BA
0286A:  MOVFF  1C2,6C1
0286E:  MOVFF  1C1,6C0
02872:  MOVFF  1C0,6BF
02876:  MOVFF  1BF,6BE
0287A:  RCALL  20F6
0287C:  MOVFF  03,32B
02880:  MOVFF  02,32A
02884:  MOVFF  01,329
02888:  MOVFF  00,328
....................    delay_ms(10); 
0288C:  MOVLW  0A
0288E:  MOVLB  6
02890:  MOVWF  xBA
02892:  MOVLB  0
02894:  CALL   1F70
....................    Temporal=read_eeprom(29); 
02898:  MOVFF  FF2,6A8
0289C:  BCF    FF2.6
0289E:  BCF    FF2.7
028A0:  CLRF   FAA
028A2:  MOVLW  1D
028A4:  MOVWF  FA9
028A6:  BCF    FA6.6
028A8:  BCF    FA6.7
028AA:  BSF    FA6.0
028AC:  MOVF   FA8,W
028AE:  MOVLB  6
028B0:  BTFSC  xA8.6
028B2:  BSF    FF2.6
028B4:  BTFSC  xA8.7
028B6:  BSF    FF2.7
028B8:  CLRF   xBB
028BA:  MOVWF  xBA
028BC:  MOVLB  0
028BE:  CALL   1F3A
028C2:  MOVFF  03,1C2
028C6:  MOVFF  02,1C1
028CA:  MOVFF  01,1C0
028CE:  MOVFF  00,1BF
....................    Temporal=Temporal/10.0; 
028D2:  MOVFF  1C2,6B7
028D6:  MOVFF  1C1,6B6
028DA:  MOVFF  1C0,6B5
028DE:  MOVFF  1BF,6B4
028E2:  MOVLB  6
028E4:  CLRF   xBB
028E6:  CLRF   xBA
028E8:  MOVLW  20
028EA:  MOVWF  xB9
028EC:  MOVLW  82
028EE:  MOVWF  xB8
028F0:  MOVLB  0
028F2:  CALL   1F98
028F6:  MOVFF  03,1C2
028FA:  MOVFF  02,1C1
028FE:  MOVFF  01,1C0
02902:  MOVFF  00,1BF
....................    delay_ms(10); 
02906:  MOVLW  0A
02908:  MOVLB  6
0290A:  MOVWF  xBA
0290C:  MOVLB  0
0290E:  CALL   1F70
....................    Sensor[1].RPT100=read_eeprom(30)+Temporal; 
02912:  MOVFF  FF2,6A8
02916:  BCF    FF2.6
02918:  BCF    FF2.7
0291A:  CLRF   FAA
0291C:  MOVLW  1E
0291E:  MOVWF  FA9
02920:  BCF    FA6.6
02922:  BCF    FA6.7
02924:  BSF    FA6.0
02926:  MOVF   FA8,W
02928:  MOVLB  6
0292A:  BTFSC  xA8.6
0292C:  BSF    FF2.6
0292E:  BTFSC  xA8.7
02930:  BSF    FF2.7
02932:  CLRF   xBB
02934:  MOVWF  xBA
02936:  MOVLB  0
02938:  CALL   1F3A
0293C:  BCF    FD8.1
0293E:  MOVFF  03,6BD
02942:  MOVFF  02,6BC
02946:  MOVFF  01,6BB
0294A:  MOVFF  00,6BA
0294E:  MOVFF  1C2,6C1
02952:  MOVFF  1C1,6C0
02956:  MOVFF  1C0,6BF
0295A:  MOVFF  1BF,6BE
0295E:  CALL   20F6
02962:  MOVFF  03,48F
02966:  MOVFF  02,48E
0296A:  MOVFF  01,48D
0296E:  MOVFF  00,48C
....................    delay_ms(10); 
02972:  MOVLW  0A
02974:  MOVLB  6
02976:  MOVWF  xBA
02978:  MOVLB  0
0297A:  CALL   1F70
....................    Atmosferica=read_eeprom(31); 
0297E:  MOVFF  FF2,6A8
02982:  BCF    FF2.6
02984:  BCF    FF2.7
02986:  CLRF   FAA
02988:  MOVLW  1F
0298A:  MOVWF  FA9
0298C:  BCF    FA6.6
0298E:  BCF    FA6.7
02990:  BSF    FA6.0
02992:  MOVF   FA8,W
02994:  MOVLB  6
02996:  BTFSC  xA8.6
02998:  BSF    FF2.6
0299A:  BTFSC  xA8.7
0299C:  BSF    FF2.7
0299E:  MOVLB  2
029A0:  MOVWF  x9B
....................    delay_ms(10); 
029A2:  MOVLW  0A
029A4:  MOVLB  6
029A6:  MOVWF  xBA
029A8:  MOVLB  0
029AA:  CALL   1F70
....................    Tapertura=read_eeprom(32); 
029AE:  MOVFF  FF2,6A8
029B2:  BCF    FF2.6
029B4:  BCF    FF2.7
029B6:  CLRF   FAA
029B8:  MOVLW  20
029BA:  MOVWF  FA9
029BC:  BCF    FA6.6
029BE:  BCF    FA6.7
029C0:  BSF    FA6.0
029C2:  MOVF   FA8,W
029C4:  MOVLB  6
029C6:  BTFSC  xA8.6
029C8:  BSF    FF2.6
029CA:  BTFSC  xA8.7
029CC:  BSF    FF2.7
029CE:  MOVLB  2
029D0:  MOVWF  x59
....................    delay_ms(10); 
029D2:  MOVLW  0A
029D4:  MOVLB  6
029D6:  MOVWF  xBA
029D8:  MOVLB  0
029DA:  CALL   1F70
....................    CiclosL=read_eeprom(37); 
029DE:  MOVFF  FF2,6A8
029E2:  BCF    FF2.6
029E4:  BCF    FF2.7
029E6:  CLRF   FAA
029E8:  MOVLW  25
029EA:  MOVWF  FA9
029EC:  BCF    FA6.6
029EE:  BCF    FA6.7
029F0:  BSF    FA6.0
029F2:  MOVF   FA8,W
029F4:  MOVLB  6
029F6:  BTFSC  xA8.6
029F8:  BSF    FF2.6
029FA:  BTFSC  xA8.7
029FC:  BSF    FF2.7
029FE:  MOVLB  2
02A00:  MOVWF  x56
....................    delay_ms(10); 
02A02:  MOVLW  0A
02A04:  MOVLB  6
02A06:  MOVWF  xBA
02A08:  MOVLB  0
02A0A:  CALL   1F70
....................    CiclosH=read_eeprom(38); 
02A0E:  MOVFF  FF2,6A8
02A12:  BCF    FF2.6
02A14:  BCF    FF2.7
02A16:  CLRF   FAA
02A18:  MOVLW  26
02A1A:  MOVWF  FA9
02A1C:  BCF    FA6.6
02A1E:  BCF    FA6.7
02A20:  BSF    FA6.0
02A22:  MOVF   FA8,W
02A24:  MOVLB  6
02A26:  BTFSC  xA8.6
02A28:  BSF    FF2.6
02A2A:  BTFSC  xA8.7
02A2C:  BSF    FF2.7
02A2E:  MOVLB  2
02A30:  MOVWF  x57
....................    delay_ms(10); 
02A32:  MOVLW  0A
02A34:  MOVLB  6
02A36:  MOVWF  xBA
02A38:  MOVLB  0
02A3A:  CALL   1F70
....................    Ciclos=make16(CiclosH,CiclosL); 
02A3E:  MOVFF  257,276
02A42:  MOVFF  256,275
....................    delay_ms(10); 
02A46:  MOVLW  0A
02A48:  MOVLB  6
02A4A:  MOVWF  xBA
02A4C:  MOVLB  0
02A4E:  CALL   1F70
....................    G1=read_eeprom(42); 
02A52:  MOVFF  FF2,6A8
02A56:  BCF    FF2.6
02A58:  BCF    FF2.7
02A5A:  CLRF   FAA
02A5C:  MOVLW  2A
02A5E:  MOVWF  FA9
02A60:  BCF    FA6.6
02A62:  BCF    FA6.7
02A64:  BSF    FA6.0
02A66:  MOVF   FA8,W
02A68:  MOVLB  6
02A6A:  BTFSC  xA8.6
02A6C:  BSF    FF2.6
02A6E:  BTFSC  xA8.7
02A70:  BSF    FF2.7
02A72:  MOVLB  2
02A74:  MOVWF  xAA
....................    delay_ms(10); 
02A76:  MOVLW  0A
02A78:  MOVLB  6
02A7A:  MOVWF  xBA
02A7C:  MOVLB  0
02A7E:  CALL   1F70
....................    G2=read_eeprom(43); 
02A82:  MOVFF  FF2,6A8
02A86:  BCF    FF2.6
02A88:  BCF    FF2.7
02A8A:  CLRF   FAA
02A8C:  MOVLW  2B
02A8E:  MOVWF  FA9
02A90:  BCF    FA6.6
02A92:  BCF    FA6.7
02A94:  BSF    FA6.0
02A96:  MOVF   FA8,W
02A98:  MOVLB  6
02A9A:  BTFSC  xA8.6
02A9C:  BSF    FF2.6
02A9E:  BTFSC  xA8.7
02AA0:  BSF    FF2.7
02AA2:  MOVLB  2
02AA4:  MOVWF  xAB
....................    delay_ms(10); 
02AA6:  MOVLW  0A
02AA8:  MOVLB  6
02AAA:  MOVWF  xBA
02AAC:  MOVLB  0
02AAE:  CALL   1F70
....................    sg1=read_eeprom(44); 
02AB2:  MOVFF  FF2,6A8
02AB6:  BCF    FF2.6
02AB8:  BCF    FF2.7
02ABA:  CLRF   FAA
02ABC:  MOVLW  2C
02ABE:  MOVWF  FA9
02AC0:  BCF    FA6.6
02AC2:  BCF    FA6.7
02AC4:  BSF    FA6.0
02AC6:  MOVF   FA8,W
02AC8:  MOVLB  6
02ACA:  BTFSC  xA8.6
02ACC:  BSF    FF2.6
02ACE:  BTFSC  xA8.7
02AD0:  BSF    FF2.7
02AD2:  MOVLB  2
02AD4:  MOVWF  xAC
....................    delay_ms(10); 
02AD6:  MOVLW  0A
02AD8:  MOVLB  6
02ADA:  MOVWF  xBA
02ADC:  MOVLB  0
02ADE:  CALL   1F70
....................    sg2=read_eeprom(45); 
02AE2:  MOVFF  FF2,6A8
02AE6:  BCF    FF2.6
02AE8:  BCF    FF2.7
02AEA:  CLRF   FAA
02AEC:  MOVLW  2D
02AEE:  MOVWF  FA9
02AF0:  BCF    FA6.6
02AF2:  BCF    FA6.7
02AF4:  BSF    FA6.0
02AF6:  MOVF   FA8,W
02AF8:  MOVLB  6
02AFA:  BTFSC  xA8.6
02AFC:  BSF    FF2.6
02AFE:  BTFSC  xA8.7
02B00:  BSF    FF2.7
02B02:  MOVLB  2
02B04:  MOVWF  xAD
....................    delay_ms(10); 
02B06:  MOVLW  0A
02B08:  MOVLB  6
02B0A:  MOVWF  xBA
02B0C:  MOVLB  0
02B0E:  CALL   1F70
....................    cerroSucioInt=read_eeprom(46); 
02B12:  MOVFF  FF2,6A8
02B16:  BCF    FF2.6
02B18:  BCF    FF2.7
02B1A:  CLRF   FAA
02B1C:  MOVLW  2E
02B1E:  MOVWF  FA9
02B20:  BCF    FA6.6
02B22:  BCF    FA6.7
02B24:  BSF    FA6.0
02B26:  MOVF   FA8,W
02B28:  MOVLB  6
02B2A:  BTFSC  xA8.6
02B2C:  BSF    FF2.6
02B2E:  BTFSC  xA8.7
02B30:  BSF    FF2.7
02B32:  MOVLB  1
02B34:  MOVWF  xF3
....................    delay_ms(10); 
02B36:  MOVLW  0A
02B38:  MOVLB  6
02B3A:  MOVWF  xBA
02B3C:  MOVLB  0
02B3E:  CALL   1F70
....................    cerroLimpioInt=read_eeprom(47); 
02B42:  MOVFF  FF2,6A8
02B46:  BCF    FF2.6
02B48:  BCF    FF2.7
02B4A:  CLRF   FAA
02B4C:  MOVLW  2F
02B4E:  MOVWF  FA9
02B50:  BCF    FA6.6
02B52:  BCF    FA6.7
02B54:  BSF    FA6.0
02B56:  MOVF   FA8,W
02B58:  MOVLB  6
02B5A:  BTFSC  xA8.6
02B5C:  BSF    FF2.6
02B5E:  BTFSC  xA8.7
02B60:  BSF    FF2.7
02B62:  MOVLB  1
02B64:  MOVWF  xF4
....................    delay_ms(10); 
02B66:  MOVLW  0A
02B68:  MOVLB  6
02B6A:  MOVWF  xBA
02B6C:  MOVLB  0
02B6E:  CALL   1F70
....................     
....................    for(i=0;i<30;i++){ 
02B72:  MOVLB  2
02B74:  CLRF   x55
02B76:  MOVF   x55,W
02B78:  SUBLW  1D
02B7A:  BNC   2BF4
....................       estados[i]=read_eeprom(i+50); 
02B7C:  MOVLW  32
02B7E:  ADDWF  x55,W
02B80:  MOVLB  6
02B82:  MOVWF  xA8
02B84:  MOVFF  FF2,6A9
02B88:  BCF    FF2.6
02B8A:  BCF    FF2.7
02B8C:  CLRF   FAA
02B8E:  MOVFF  6A8,FA9
02B92:  BCF    FA6.6
02B94:  BCF    FA6.7
02B96:  BSF    FA6.0
02B98:  MOVF   FA8,W
02B9A:  BTFSC  xA9.6
02B9C:  BSF    FF2.6
02B9E:  BTFSC  xA9.7
02BA0:  BSF    FF2.7
02BA2:  MOVFF  255,6AA
02BA6:  MOVWF  xAB
02BA8:  MOVLW  03
02BAA:  MOVWF  xAD
02BAC:  MOVLW  14
02BAE:  MOVWF  xAC
02BB0:  MOVLB  0
02BB2:  CALL   236E
....................       if(estados[i]>1) 
02BB6:  MOVFF  255,6A9
02BBA:  MOVLW  03
02BBC:  MOVLB  6
02BBE:  MOVWF  xAB
02BC0:  MOVLW  14
02BC2:  MOVWF  xAA
02BC4:  MOVLB  0
02BC6:  CALL   23B0
02BCA:  MOVLW  00
02BCC:  BTFSC  01.0
02BCE:  MOVLW  01
02BD0:  ANDLW  01
02BD2:  SUBLW  01
02BD4:  BC    2BEE
....................          estados[i]=1; 
02BD6:  MOVFF  255,6AA
02BDA:  MOVLW  01
02BDC:  MOVLB  6
02BDE:  MOVWF  xAB
02BE0:  MOVLW  03
02BE2:  MOVWF  xAD
02BE4:  MOVLW  14
02BE6:  MOVWF  xAC
02BE8:  MOVLB  0
02BEA:  CALL   236E
....................    } 
02BEE:  MOVLB  2
02BF0:  INCF   x55,F
02BF2:  BRA    2B76
....................     
....................    for(i=0;i<20;i++){//Lee valores almacenados de ciclos personalizados 
02BF4:  CLRF   x55
02BF6:  MOVF   x55,W
02BF8:  SUBLW  13
02BFA:  BTFSS  FD8.0
02BFC:  BRA    31CA
....................       CiclosPersonalizados[i].Temperatura=read_eeprom(100+(i*8));  
02BFE:  MOVF   x55,W
02C00:  MULLW  08
02C02:  MOVF   FF3,W
02C04:  MOVLB  6
02C06:  CLRF   xA9
02C08:  MOVWF  xA8
02C0A:  MOVLW  E0
02C0C:  ADDWF  xA8,W
02C0E:  MOVWF  FE9
02C10:  MOVLW  05
02C12:  ADDWFC xA9,W
02C14:  MOVWF  FEA
02C16:  MOVLB  2
02C18:  MOVF   x55,W
02C1A:  MULLW  08
02C1C:  MOVF   FF3,W
02C1E:  ADDLW  64
02C20:  MOVLB  6
02C22:  MOVWF  xAA
02C24:  MOVFF  FF2,6AB
02C28:  BCF    FF2.6
02C2A:  BCF    FF2.7
02C2C:  CLRF   FAA
02C2E:  MOVFF  6AA,FA9
02C32:  BCF    FA6.6
02C34:  BCF    FA6.7
02C36:  BSF    FA6.0
02C38:  MOVF   FA8,W
02C3A:  BTFSC  xAB.6
02C3C:  BSF    FF2.6
02C3E:  BTFSC  xAB.7
02C40:  BSF    FF2.7
02C42:  MOVWF  FEF
....................       CiclosPersonalizados[i].Minutoest=read_eeprom(101+(i*8));  
02C44:  MOVLB  2
02C46:  MOVF   x55,W
02C48:  MULLW  08
02C4A:  MOVF   FF3,W
02C4C:  MOVLB  6
02C4E:  CLRF   xA9
02C50:  MOVWF  xA8
02C52:  MOVLW  01
02C54:  ADDWF  xA8,W
02C56:  MOVWF  01
02C58:  MOVLW  00
02C5A:  ADDWFC xA9,W
02C5C:  MOVWF  03
02C5E:  MOVF   01,W
02C60:  ADDLW  E0
02C62:  MOVWF  FE9
02C64:  MOVLW  05
02C66:  ADDWFC 03,W
02C68:  MOVWF  FEA
02C6A:  MOVLB  2
02C6C:  MOVF   x55,W
02C6E:  MULLW  08
02C70:  MOVF   FF3,W
02C72:  ADDLW  65
02C74:  MOVLB  6
02C76:  MOVWF  xAA
02C78:  MOVFF  FF2,6AB
02C7C:  BCF    FF2.6
02C7E:  BCF    FF2.7
02C80:  CLRF   FAA
02C82:  MOVFF  6AA,FA9
02C86:  BCF    FA6.6
02C88:  BCF    FA6.7
02C8A:  BSF    FA6.0
02C8C:  MOVF   FA8,W
02C8E:  BTFSC  xAB.6
02C90:  BSF    FF2.6
02C92:  BTFSC  xAB.7
02C94:  BSF    FF2.7
02C96:  MOVWF  FEF
....................       CiclosPersonalizados[i].Segundoest=read_eeprom(102+(i*8));  
02C98:  MOVLB  2
02C9A:  MOVF   x55,W
02C9C:  MULLW  08
02C9E:  MOVF   FF3,W
02CA0:  MOVLB  6
02CA2:  CLRF   xA9
02CA4:  MOVWF  xA8
02CA6:  MOVLW  02
02CA8:  ADDWF  xA8,W
02CAA:  MOVWF  01
02CAC:  MOVLW  00
02CAE:  ADDWFC xA9,W
02CB0:  MOVWF  03
02CB2:  MOVF   01,W
02CB4:  ADDLW  E0
02CB6:  MOVWF  FE9
02CB8:  MOVLW  05
02CBA:  ADDWFC 03,W
02CBC:  MOVWF  FEA
02CBE:  MOVLB  2
02CC0:  MOVF   x55,W
02CC2:  MULLW  08
02CC4:  MOVF   FF3,W
02CC6:  ADDLW  66
02CC8:  MOVLB  6
02CCA:  MOVWF  xAA
02CCC:  MOVFF  FF2,6AB
02CD0:  BCF    FF2.6
02CD2:  BCF    FF2.7
02CD4:  CLRF   FAA
02CD6:  MOVFF  6AA,FA9
02CDA:  BCF    FA6.6
02CDC:  BCF    FA6.7
02CDE:  BSF    FA6.0
02CE0:  MOVF   FA8,W
02CE2:  BTFSC  xAB.6
02CE4:  BSF    FF2.6
02CE6:  BTFSC  xAB.7
02CE8:  BSF    FF2.7
02CEA:  MOVWF  FEF
....................       CiclosPersonalizados[i].Minutosec=read_eeprom(103+(i*8));  
02CEC:  MOVLB  2
02CEE:  MOVF   x55,W
02CF0:  MULLW  08
02CF2:  MOVF   FF3,W
02CF4:  MOVLB  6
02CF6:  CLRF   xA9
02CF8:  MOVWF  xA8
02CFA:  MOVLW  03
02CFC:  ADDWF  xA8,W
02CFE:  MOVWF  01
02D00:  MOVLW  00
02D02:  ADDWFC xA9,W
02D04:  MOVWF  03
02D06:  MOVF   01,W
02D08:  ADDLW  E0
02D0A:  MOVWF  FE9
02D0C:  MOVLW  05
02D0E:  ADDWFC 03,W
02D10:  MOVWF  FEA
02D12:  MOVLB  2
02D14:  MOVF   x55,W
02D16:  MULLW  08
02D18:  MOVF   FF3,W
02D1A:  ADDLW  67
02D1C:  MOVLB  6
02D1E:  MOVWF  xAA
02D20:  MOVFF  FF2,6AB
02D24:  BCF    FF2.6
02D26:  BCF    FF2.7
02D28:  CLRF   FAA
02D2A:  MOVFF  6AA,FA9
02D2E:  BCF    FA6.6
02D30:  BCF    FA6.7
02D32:  BSF    FA6.0
02D34:  MOVF   FA8,W
02D36:  BTFSC  xAB.6
02D38:  BSF    FF2.6
02D3A:  BTFSC  xAB.7
02D3C:  BSF    FF2.7
02D3E:  MOVWF  FEF
....................       CiclosPersonalizados[i].Segundosec=read_eeprom(104+(i*8));  
02D40:  MOVLB  2
02D42:  MOVF   x55,W
02D44:  MULLW  08
02D46:  MOVF   FF3,W
02D48:  MOVLB  6
02D4A:  CLRF   xA9
02D4C:  MOVWF  xA8
02D4E:  MOVLW  04
02D50:  ADDWF  xA8,W
02D52:  MOVWF  01
02D54:  MOVLW  00
02D56:  ADDWFC xA9,W
02D58:  MOVWF  03
02D5A:  MOVF   01,W
02D5C:  ADDLW  E0
02D5E:  MOVWF  FE9
02D60:  MOVLW  05
02D62:  ADDWFC 03,W
02D64:  MOVWF  FEA
02D66:  MOVLB  2
02D68:  MOVF   x55,W
02D6A:  MULLW  08
02D6C:  MOVF   FF3,W
02D6E:  ADDLW  68
02D70:  MOVLB  6
02D72:  MOVWF  xAA
02D74:  MOVFF  FF2,6AB
02D78:  BCF    FF2.6
02D7A:  BCF    FF2.7
02D7C:  CLRF   FAA
02D7E:  MOVFF  6AA,FA9
02D82:  BCF    FA6.6
02D84:  BCF    FA6.7
02D86:  BSF    FA6.0
02D88:  MOVF   FA8,W
02D8A:  BTFSC  xAB.6
02D8C:  BSF    FF2.6
02D8E:  BTFSC  xAB.7
02D90:  BSF    FF2.7
02D92:  MOVWF  FEF
....................       CiclosPersonalizados[i].PulsosVacio=read_eeprom(105+(i*8));  
02D94:  MOVLB  2
02D96:  MOVF   x55,W
02D98:  MULLW  08
02D9A:  MOVF   FF3,W
02D9C:  MOVLB  6
02D9E:  CLRF   xA9
02DA0:  MOVWF  xA8
02DA2:  MOVLW  05
02DA4:  ADDWF  xA8,W
02DA6:  MOVWF  01
02DA8:  MOVLW  00
02DAA:  ADDWFC xA9,W
02DAC:  MOVWF  03
02DAE:  MOVF   01,W
02DB0:  ADDLW  E0
02DB2:  MOVWF  FE9
02DB4:  MOVLW  05
02DB6:  ADDWFC 03,W
02DB8:  MOVWF  FEA
02DBA:  MOVLB  2
02DBC:  MOVF   x55,W
02DBE:  MULLW  08
02DC0:  MOVF   FF3,W
02DC2:  ADDLW  69
02DC4:  MOVLB  6
02DC6:  MOVWF  xAA
02DC8:  MOVFF  FF2,6AB
02DCC:  BCF    FF2.6
02DCE:  BCF    FF2.7
02DD0:  CLRF   FAA
02DD2:  MOVFF  6AA,FA9
02DD6:  BCF    FA6.6
02DD8:  BCF    FA6.7
02DDA:  BSF    FA6.0
02DDC:  MOVF   FA8,W
02DDE:  BTFSC  xAB.6
02DE0:  BSF    FF2.6
02DE2:  BTFSC  xAB.7
02DE4:  BSF    FF2.7
02DE6:  MOVWF  FEF
....................       CiclosPersonalizados[i].NivelVacio=read_eeprom(106+(i*8));  
02DE8:  MOVLB  2
02DEA:  MOVF   x55,W
02DEC:  MULLW  08
02DEE:  MOVF   FF3,W
02DF0:  MOVLB  6
02DF2:  CLRF   xA9
02DF4:  MOVWF  xA8
02DF6:  MOVLW  06
02DF8:  ADDWF  xA8,W
02DFA:  MOVWF  01
02DFC:  MOVLW  00
02DFE:  ADDWFC xA9,W
02E00:  MOVWF  03
02E02:  MOVF   01,W
02E04:  ADDLW  E0
02E06:  MOVWF  FE9
02E08:  MOVLW  05
02E0A:  ADDWFC 03,W
02E0C:  MOVWF  FEA
02E0E:  MOVLB  2
02E10:  MOVF   x55,W
02E12:  MULLW  08
02E14:  MOVF   FF3,W
02E16:  ADDLW  6A
02E18:  MOVLB  6
02E1A:  MOVWF  xAA
02E1C:  MOVFF  FF2,6AB
02E20:  BCF    FF2.6
02E22:  BCF    FF2.7
02E24:  CLRF   FAA
02E26:  MOVFF  6AA,FA9
02E2A:  BCF    FA6.6
02E2C:  BCF    FA6.7
02E2E:  BSF    FA6.0
02E30:  MOVF   FA8,W
02E32:  BTFSC  xAB.6
02E34:  BSF    FF2.6
02E36:  BTFSC  xAB.7
02E38:  BSF    FF2.7
02E3A:  MOVWF  FEF
....................       CiclosPersonalizados[i].NivelDesfogue=read_eeprom(107+(i*8));  
02E3C:  MOVLB  2
02E3E:  MOVF   x55,W
02E40:  MULLW  08
02E42:  MOVF   FF3,W
02E44:  MOVLB  6
02E46:  CLRF   xA9
02E48:  MOVWF  xA8
02E4A:  MOVLW  07
02E4C:  ADDWF  xA8,W
02E4E:  MOVWF  01
02E50:  MOVLW  00
02E52:  ADDWFC xA9,W
02E54:  MOVWF  03
02E56:  MOVF   01,W
02E58:  ADDLW  E0
02E5A:  MOVWF  FE9
02E5C:  MOVLW  05
02E5E:  ADDWFC 03,W
02E60:  MOVWF  FEA
02E62:  MOVLB  2
02E64:  MOVF   x55,W
02E66:  MULLW  08
02E68:  MOVF   FF3,W
02E6A:  ADDLW  6B
02E6C:  MOVLB  6
02E6E:  MOVWF  xAA
02E70:  MOVFF  FF2,6AB
02E74:  BCF    FF2.6
02E76:  BCF    FF2.7
02E78:  CLRF   FAA
02E7A:  MOVFF  6AA,FA9
02E7E:  BCF    FA6.6
02E80:  BCF    FA6.7
02E82:  BSF    FA6.0
02E84:  MOVF   FA8,W
02E86:  BTFSC  xAB.6
02E88:  BSF    FF2.6
02E8A:  BTFSC  xAB.7
02E8C:  BSF    FF2.7
02E8E:  MOVWF  FEF
....................        
....................       if(CiclosPersonalizados[i].Temperatura>138 || CiclosPersonalizados[i].Temperatura<110) 
02E90:  MOVLB  2
02E92:  MOVF   x55,W
02E94:  MULLW  08
02E96:  MOVF   FF3,W
02E98:  MOVLB  6
02E9A:  CLRF   xA9
02E9C:  MOVWF  xA8
02E9E:  MOVLW  E0
02EA0:  ADDWF  xA8,W
02EA2:  MOVWF  FE9
02EA4:  MOVLW  05
02EA6:  ADDWFC xA9,W
02EA8:  MOVWF  FEA
02EAA:  MOVF   FEF,W
02EAC:  SUBLW  8A
02EAE:  BNC   2ED0
02EB0:  MOVLB  2
02EB2:  MOVF   x55,W
02EB4:  MULLW  08
02EB6:  MOVF   FF3,W
02EB8:  MOVLB  6
02EBA:  CLRF   xA9
02EBC:  MOVWF  xA8
02EBE:  MOVLW  E0
02EC0:  ADDWF  xA8,W
02EC2:  MOVWF  FE9
02EC4:  MOVLW  05
02EC6:  ADDWFC xA9,W
02EC8:  MOVWF  FEA
02ECA:  MOVF   FEF,W
02ECC:  SUBLW  6D
02ECE:  BNC   2EEE
....................          CiclosPersonalizados[i].Temperatura=121; 
02ED0:  MOVLB  2
02ED2:  MOVF   x55,W
02ED4:  MULLW  08
02ED6:  MOVF   FF3,W
02ED8:  MOVLB  6
02EDA:  CLRF   xA9
02EDC:  MOVWF  xA8
02EDE:  MOVLW  E0
02EE0:  ADDWF  xA8,W
02EE2:  MOVWF  FE9
02EE4:  MOVLW  05
02EE6:  ADDWFC xA9,W
02EE8:  MOVWF  FEA
02EEA:  MOVLW  79
02EEC:  MOVWF  FEF
....................       if(CiclosPersonalizados[i].Minutoest>99 || CiclosPersonalizados[i].Minutoest<1) 
02EEE:  MOVLB  2
02EF0:  MOVF   x55,W
02EF2:  MULLW  08
02EF4:  MOVF   FF3,W
02EF6:  MOVLB  6
02EF8:  CLRF   xA9
02EFA:  MOVWF  xA8
02EFC:  MOVLW  01
02EFE:  ADDWF  xA8,W
02F00:  MOVWF  01
02F02:  MOVLW  00
02F04:  ADDWFC xA9,W
02F06:  MOVWF  03
02F08:  MOVF   01,W
02F0A:  ADDLW  E0
02F0C:  MOVWF  FE9
02F0E:  MOVLW  05
02F10:  ADDWFC 03,W
02F12:  MOVWF  FEA
02F14:  MOVF   FEF,W
02F16:  SUBLW  63
02F18:  BNC   2F44
02F1A:  MOVLB  2
02F1C:  MOVF   x55,W
02F1E:  MULLW  08
02F20:  MOVF   FF3,W
02F22:  MOVLB  6
02F24:  CLRF   xA9
02F26:  MOVWF  xA8
02F28:  MOVLW  01
02F2A:  ADDWF  xA8,W
02F2C:  MOVWF  01
02F2E:  MOVLW  00
02F30:  ADDWFC xA9,W
02F32:  MOVWF  03
02F34:  MOVF   01,W
02F36:  ADDLW  E0
02F38:  MOVWF  FE9
02F3A:  MOVLW  05
02F3C:  ADDWFC 03,W
02F3E:  MOVWF  FEA
02F40:  MOVF   FEF,F
02F42:  BNZ   2F6E
....................          CiclosPersonalizados[i].Minutoest=3; 
02F44:  MOVLB  2
02F46:  MOVF   x55,W
02F48:  MULLW  08
02F4A:  MOVF   FF3,W
02F4C:  MOVLB  6
02F4E:  CLRF   xA9
02F50:  MOVWF  xA8
02F52:  MOVLW  01
02F54:  ADDWF  xA8,W
02F56:  MOVWF  01
02F58:  MOVLW  00
02F5A:  ADDWFC xA9,W
02F5C:  MOVWF  03
02F5E:  MOVF   01,W
02F60:  ADDLW  E0
02F62:  MOVWF  FE9
02F64:  MOVLW  05
02F66:  ADDWFC 03,W
02F68:  MOVWF  FEA
02F6A:  MOVLW  03
02F6C:  MOVWF  FEF
....................       if(CiclosPersonalizados[i].Minutosec>99 || CiclosPersonalizados[i].Minutosec<1) 
02F6E:  MOVLB  2
02F70:  MOVF   x55,W
02F72:  MULLW  08
02F74:  MOVF   FF3,W
02F76:  MOVLB  6
02F78:  CLRF   xA9
02F7A:  MOVWF  xA8
02F7C:  MOVLW  03
02F7E:  ADDWF  xA8,W
02F80:  MOVWF  01
02F82:  MOVLW  00
02F84:  ADDWFC xA9,W
02F86:  MOVWF  03
02F88:  MOVF   01,W
02F8A:  ADDLW  E0
02F8C:  MOVWF  FE9
02F8E:  MOVLW  05
02F90:  ADDWFC 03,W
02F92:  MOVWF  FEA
02F94:  MOVF   FEF,W
02F96:  SUBLW  63
02F98:  BNC   2FC4
02F9A:  MOVLB  2
02F9C:  MOVF   x55,W
02F9E:  MULLW  08
02FA0:  MOVF   FF3,W
02FA2:  MOVLB  6
02FA4:  CLRF   xA9
02FA6:  MOVWF  xA8
02FA8:  MOVLW  03
02FAA:  ADDWF  xA8,W
02FAC:  MOVWF  01
02FAE:  MOVLW  00
02FB0:  ADDWFC xA9,W
02FB2:  MOVWF  03
02FB4:  MOVF   01,W
02FB6:  ADDLW  E0
02FB8:  MOVWF  FE9
02FBA:  MOVLW  05
02FBC:  ADDWFC 03,W
02FBE:  MOVWF  FEA
02FC0:  MOVF   FEF,F
02FC2:  BNZ   2FEE
....................          CiclosPersonalizados[i].Minutosec=1;    
02FC4:  MOVLB  2
02FC6:  MOVF   x55,W
02FC8:  MULLW  08
02FCA:  MOVF   FF3,W
02FCC:  MOVLB  6
02FCE:  CLRF   xA9
02FD0:  MOVWF  xA8
02FD2:  MOVLW  03
02FD4:  ADDWF  xA8,W
02FD6:  MOVWF  01
02FD8:  MOVLW  00
02FDA:  ADDWFC xA9,W
02FDC:  MOVWF  03
02FDE:  MOVF   01,W
02FE0:  ADDLW  E0
02FE2:  MOVWF  FE9
02FE4:  MOVLW  05
02FE6:  ADDWFC 03,W
02FE8:  MOVWF  FEA
02FEA:  MOVLW  01
02FEC:  MOVWF  FEF
....................       if(CiclosPersonalizados[i].Segundoest>59) 
02FEE:  MOVLB  2
02FF0:  MOVF   x55,W
02FF2:  MULLW  08
02FF4:  MOVF   FF3,W
02FF6:  MOVLB  6
02FF8:  CLRF   xA9
02FFA:  MOVWF  xA8
02FFC:  MOVLW  02
02FFE:  ADDWF  xA8,W
03000:  MOVWF  01
03002:  MOVLW  00
03004:  ADDWFC xA9,W
03006:  MOVWF  03
03008:  MOVF   01,W
0300A:  ADDLW  E0
0300C:  MOVWF  FE9
0300E:  MOVLW  05
03010:  ADDWFC 03,W
03012:  MOVWF  FEA
03014:  MOVF   FEF,W
03016:  SUBLW  3B
03018:  BC    3042
....................          CiclosPersonalizados[i].Segundoest=0; 
0301A:  MOVLB  2
0301C:  MOVF   x55,W
0301E:  MULLW  08
03020:  MOVF   FF3,W
03022:  MOVLB  6
03024:  CLRF   xA9
03026:  MOVWF  xA8
03028:  MOVLW  02
0302A:  ADDWF  xA8,W
0302C:  MOVWF  01
0302E:  MOVLW  00
03030:  ADDWFC xA9,W
03032:  MOVWF  03
03034:  MOVF   01,W
03036:  ADDLW  E0
03038:  MOVWF  FE9
0303A:  MOVLW  05
0303C:  ADDWFC 03,W
0303E:  MOVWF  FEA
03040:  CLRF   FEF
....................       if(CiclosPersonalizados[i].Segundosec>59) 
03042:  MOVLB  2
03044:  MOVF   x55,W
03046:  MULLW  08
03048:  MOVF   FF3,W
0304A:  MOVLB  6
0304C:  CLRF   xA9
0304E:  MOVWF  xA8
03050:  MOVLW  04
03052:  ADDWF  xA8,W
03054:  MOVWF  01
03056:  MOVLW  00
03058:  ADDWFC xA9,W
0305A:  MOVWF  03
0305C:  MOVF   01,W
0305E:  ADDLW  E0
03060:  MOVWF  FE9
03062:  MOVLW  05
03064:  ADDWFC 03,W
03066:  MOVWF  FEA
03068:  MOVF   FEF,W
0306A:  SUBLW  3B
0306C:  BC    3096
....................          CiclosPersonalizados[i].Segundosec=0;       
0306E:  MOVLB  2
03070:  MOVF   x55,W
03072:  MULLW  08
03074:  MOVF   FF3,W
03076:  MOVLB  6
03078:  CLRF   xA9
0307A:  MOVWF  xA8
0307C:  MOVLW  04
0307E:  ADDWF  xA8,W
03080:  MOVWF  01
03082:  MOVLW  00
03084:  ADDWFC xA9,W
03086:  MOVWF  03
03088:  MOVF   01,W
0308A:  ADDLW  E0
0308C:  MOVWF  FE9
0308E:  MOVLW  05
03090:  ADDWFC 03,W
03092:  MOVWF  FEA
03094:  CLRF   FEF
....................       if(CiclosPersonalizados[i].PulsosVacio>15) 
03096:  MOVLB  2
03098:  MOVF   x55,W
0309A:  MULLW  08
0309C:  MOVF   FF3,W
0309E:  MOVLB  6
030A0:  CLRF   xA9
030A2:  MOVWF  xA8
030A4:  MOVLW  05
030A6:  ADDWF  xA8,W
030A8:  MOVWF  01
030AA:  MOVLW  00
030AC:  ADDWFC xA9,W
030AE:  MOVWF  03
030B0:  MOVF   01,W
030B2:  ADDLW  E0
030B4:  MOVWF  FE9
030B6:  MOVLW  05
030B8:  ADDWFC 03,W
030BA:  MOVWF  FEA
030BC:  MOVF   FEF,W
030BE:  SUBLW  0F
030C0:  BC    30EC
....................          CiclosPersonalizados[i].PulsosVacio=4; 
030C2:  MOVLB  2
030C4:  MOVF   x55,W
030C6:  MULLW  08
030C8:  MOVF   FF3,W
030CA:  MOVLB  6
030CC:  CLRF   xA9
030CE:  MOVWF  xA8
030D0:  MOVLW  05
030D2:  ADDWF  xA8,W
030D4:  MOVWF  01
030D6:  MOVLW  00
030D8:  ADDWFC xA9,W
030DA:  MOVWF  03
030DC:  MOVF   01,W
030DE:  ADDLW  E0
030E0:  MOVWF  FE9
030E2:  MOVLW  05
030E4:  ADDWFC 03,W
030E6:  MOVWF  FEA
030E8:  MOVLW  04
030EA:  MOVWF  FEF
....................       if(CiclosPersonalizados[i].NivelVacio>100 || CiclosPersonalizados[i].NivelVacio<10) 
030EC:  MOVLB  2
030EE:  MOVF   x55,W
030F0:  MULLW  08
030F2:  MOVF   FF3,W
030F4:  MOVLB  6
030F6:  CLRF   xA9
030F8:  MOVWF  xA8
030FA:  MOVLW  06
030FC:  ADDWF  xA8,W
030FE:  MOVWF  01
03100:  MOVLW  00
03102:  ADDWFC xA9,W
03104:  MOVWF  03
03106:  MOVF   01,W
03108:  ADDLW  E0
0310A:  MOVWF  FE9
0310C:  MOVLW  05
0310E:  ADDWFC 03,W
03110:  MOVWF  FEA
03112:  MOVF   FEF,W
03114:  SUBLW  64
03116:  BNC   3144
03118:  MOVLB  2
0311A:  MOVF   x55,W
0311C:  MULLW  08
0311E:  MOVF   FF3,W
03120:  MOVLB  6
03122:  CLRF   xA9
03124:  MOVWF  xA8
03126:  MOVLW  06
03128:  ADDWF  xA8,W
0312A:  MOVWF  01
0312C:  MOVLW  00
0312E:  ADDWFC xA9,W
03130:  MOVWF  03
03132:  MOVF   01,W
03134:  ADDLW  E0
03136:  MOVWF  FE9
03138:  MOVLW  05
0313A:  ADDWFC 03,W
0313C:  MOVWF  FEA
0313E:  MOVF   FEF,W
03140:  SUBLW  09
03142:  BNC   316E
....................          CiclosPersonalizados[i].NivelVacio=25;    
03144:  MOVLB  2
03146:  MOVF   x55,W
03148:  MULLW  08
0314A:  MOVF   FF3,W
0314C:  MOVLB  6
0314E:  CLRF   xA9
03150:  MOVWF  xA8
03152:  MOVLW  06
03154:  ADDWF  xA8,W
03156:  MOVWF  01
03158:  MOVLW  00
0315A:  ADDWFC xA9,W
0315C:  MOVWF  03
0315E:  MOVF   01,W
03160:  ADDLW  E0
03162:  MOVWF  FE9
03164:  MOVLW  05
03166:  ADDWFC 03,W
03168:  MOVWF  FEA
0316A:  MOVLW  19
0316C:  MOVWF  FEF
....................       if(CiclosPersonalizados[i].NivelDesfogue>6) 
0316E:  MOVLB  2
03170:  MOVF   x55,W
03172:  MULLW  08
03174:  MOVF   FF3,W
03176:  MOVLB  6
03178:  CLRF   xA9
0317A:  MOVWF  xA8
0317C:  MOVLW  07
0317E:  ADDWF  xA8,W
03180:  MOVWF  01
03182:  MOVLW  00
03184:  ADDWFC xA9,W
03186:  MOVWF  03
03188:  MOVF   01,W
0318A:  ADDLW  E0
0318C:  MOVWF  FE9
0318E:  MOVLW  05
03190:  ADDWFC 03,W
03192:  MOVWF  FEA
03194:  MOVF   FEF,W
03196:  SUBLW  06
03198:  BC    31C4
....................          CiclosPersonalizados[i].NivelDesfogue=6; 
0319A:  MOVLB  2
0319C:  MOVF   x55,W
0319E:  MULLW  08
031A0:  MOVF   FF3,W
031A2:  MOVLB  6
031A4:  CLRF   xA9
031A6:  MOVWF  xA8
031A8:  MOVLW  07
031AA:  ADDWF  xA8,W
031AC:  MOVWF  01
031AE:  MOVLW  00
031B0:  ADDWFC xA9,W
031B2:  MOVWF  03
031B4:  MOVF   01,W
031B6:  ADDLW  E0
031B8:  MOVWF  FE9
031BA:  MOVLW  05
031BC:  ADDWFC 03,W
031BE:  MOVWF  FEA
031C0:  MOVLW  06
031C2:  MOVWF  FEF
....................    } 
031C4:  MOVLB  2
031C6:  INCF   x55,F
031C8:  BRA    2BF6
....................     
....................    for(i=0;i<10;i++){//Lee contraseas de usuarios 
031CA:  CLRF   x55
031CC:  MOVF   x55,W
031CE:  SUBLW  09
031D0:  BNC   32AC
....................       for(j=0;j<4;j++){ 
031D2:  CLRF   xA7
031D4:  MOVF   xA7,W
031D6:  SUBLW  03
031D8:  BNC   32A8
....................          Clave[i].Password[j]=read_eeprom((300+j)+(i*4)); 
031DA:  MOVF   x55,W
031DC:  MULLW  04
031DE:  MOVF   FF3,W
031E0:  MOVLB  6
031E2:  CLRF   xA9
031E4:  MOVWF  xA8
031E6:  CLRF   03
031E8:  MOVLB  2
031EA:  MOVF   xA7,W
031EC:  MOVLB  6
031EE:  ADDWF  xA8,W
031F0:  MOVWF  01
031F2:  MOVF   xA9,W
031F4:  ADDWFC 03,F
031F6:  MOVF   01,W
031F8:  ADDLW  80
031FA:  MOVWF  FE9
031FC:  MOVLW  06
031FE:  ADDWFC 03,W
03200:  MOVWF  FEA
03202:  MOVLW  2C
03204:  MOVLB  2
03206:  ADDWF  xA7,W
03208:  MOVLB  6
0320A:  MOVWF  xAA
0320C:  MOVLW  01
0320E:  MOVWF  xAB
03210:  BTFSC  FD8.0
03212:  INCF   xAB,F
03214:  MOVLB  2
03216:  MOVF   x55,W
03218:  MULLW  04
0321A:  MOVF   FF3,W
0321C:  MOVLB  6
0321E:  ADDWF  xAA,F
03220:  MOVLW  00
03222:  ADDWFC xAB,F
03224:  MOVFF  FF2,6AC
03228:  BCF    FF2.6
0322A:  BCF    FF2.7
0322C:  MOVFF  6AB,FAA
03230:  MOVFF  6AA,FA9
03234:  BCF    FA6.6
03236:  BCF    FA6.7
03238:  BSF    FA6.0
0323A:  MOVF   FA8,W
0323C:  BTFSC  xAC.6
0323E:  BSF    FF2.6
03240:  BTFSC  xAC.7
03242:  BSF    FF2.7
03244:  MOVWF  FEF
....................          if(Clave[i].Password[j]>9) 
03246:  MOVLB  2
03248:  MOVF   x55,W
0324A:  MULLW  04
0324C:  MOVF   FF3,W
0324E:  MOVLB  6
03250:  CLRF   xA9
03252:  MOVWF  xA8
03254:  CLRF   03
03256:  MOVLB  2
03258:  MOVF   xA7,W
0325A:  MOVLB  6
0325C:  ADDWF  xA8,W
0325E:  MOVWF  01
03260:  MOVF   xA9,W
03262:  ADDWFC 03,F
03264:  MOVF   01,W
03266:  ADDLW  80
03268:  MOVWF  FE9
0326A:  MOVLW  06
0326C:  ADDWFC 03,W
0326E:  MOVWF  FEA
03270:  MOVF   FEF,W
03272:  SUBLW  09
03274:  BC    32A2
....................             Clave[i].Password[j]=0; 
03276:  MOVLB  2
03278:  MOVF   x55,W
0327A:  MULLW  04
0327C:  MOVF   FF3,W
0327E:  MOVLB  6
03280:  CLRF   xA9
03282:  MOVWF  xA8
03284:  CLRF   03
03286:  MOVLB  2
03288:  MOVF   xA7,W
0328A:  MOVLB  6
0328C:  ADDWF  xA8,W
0328E:  MOVWF  01
03290:  MOVF   xA9,W
03292:  ADDWFC 03,F
03294:  MOVF   01,W
03296:  ADDLW  80
03298:  MOVWF  FE9
0329A:  MOVLW  06
0329C:  ADDWFC 03,W
0329E:  MOVWF  FEA
032A0:  CLRF   FEF
....................       } 
032A2:  MOVLB  2
032A4:  INCF   xA7,F
032A6:  BRA    31D4
....................    } 
032A8:  INCF   x55,F
032AA:  BRA    31CC
....................     
....................    diaCiclos=read_ext_eeprom(2+(cicloVisto*320)); 
032AC:  MOVLB  6
032AE:  CLRF   xB3
032B0:  MOVFF  299,6B2
032B4:  MOVLW  01
032B6:  MOVWF  xB5
032B8:  MOVLW  40
032BA:  MOVWF  xB4
032BC:  MOVLB  0
032BE:  CALL   23E2
032C2:  MOVFF  02,03
032C6:  MOVF   01,W
032C8:  ADDLW  02
032CA:  MOVLB  6
032CC:  MOVWF  xA8
032CE:  MOVLW  00
032D0:  ADDWFC 02,W
032D2:  MOVWF  xA9
032D4:  MOVWF  xAE
032D6:  MOVFF  6A8,6AD
032DA:  MOVLB  0
032DC:  CALL   24E4
032E0:  MOVFF  01,30F
....................    if(diaCiclos>31) 
032E4:  MOVLB  3
032E6:  MOVF   x0F,W
032E8:  SUBLW  1F
032EA:  BC    32F0
....................       diaCiclos=1; 
032EC:  MOVLW  01
032EE:  MOVWF  x0F
....................    mesCiclos=read_ext_eeprom(3+(cicloVisto*320)); 
032F0:  MOVLB  6
032F2:  CLRF   xB3
032F4:  MOVFF  299,6B2
032F8:  MOVLW  01
032FA:  MOVWF  xB5
032FC:  MOVLW  40
032FE:  MOVWF  xB4
03300:  MOVLB  0
03302:  CALL   23E2
03306:  MOVFF  02,03
0330A:  MOVF   01,W
0330C:  ADDLW  03
0330E:  MOVLB  6
03310:  MOVWF  xA8
03312:  MOVLW  00
03314:  ADDWFC 02,W
03316:  MOVWF  xA9
03318:  MOVWF  xAE
0331A:  MOVFF  6A8,6AD
0331E:  MOVLB  0
03320:  CALL   24E4
03324:  MOVFF  01,310
....................    if(mesCiclos>12) 
03328:  MOVLB  3
0332A:  MOVF   x10,W
0332C:  SUBLW  0C
0332E:  BC    3334
....................       mesCiclos=1; 
03330:  MOVLW  01
03332:  MOVWF  x10
....................    yearCiclos=read_ext_eeprom(4+(cicloVisto*320)); 
03334:  MOVLB  6
03336:  CLRF   xB3
03338:  MOVFF  299,6B2
0333C:  MOVLW  01
0333E:  MOVWF  xB5
03340:  MOVLW  40
03342:  MOVWF  xB4
03344:  MOVLB  0
03346:  CALL   23E2
0334A:  MOVFF  02,03
0334E:  MOVF   01,W
03350:  ADDLW  04
03352:  MOVLB  6
03354:  MOVWF  xA8
03356:  MOVLW  00
03358:  ADDWFC 02,W
0335A:  MOVWF  xA9
0335C:  MOVWF  xAE
0335E:  MOVFF  6A8,6AD
03362:  MOVLB  0
03364:  CALL   24E4
03368:  MOVFF  01,311
....................    if(yearCiclos>99) 
0336C:  MOVLB  3
0336E:  MOVF   x11,W
03370:  SUBLW  63
03372:  BC    3378
....................       yearCiclos=19; 
03374:  MOVLW  13
03376:  MOVWF  x11
....................    cicloCiclos=read_ext_eeprom(1+(cicloVisto*320)); 
03378:  MOVLB  6
0337A:  CLRF   xB3
0337C:  MOVFF  299,6B2
03380:  MOVLW  01
03382:  MOVWF  xB5
03384:  MOVLW  40
03386:  MOVWF  xB4
03388:  MOVLB  0
0338A:  CALL   23E2
0338E:  MOVFF  02,03
03392:  MOVF   01,W
03394:  ADDLW  01
03396:  MOVLB  6
03398:  MOVWF  xA8
0339A:  MOVLW  00
0339C:  ADDWFC 02,W
0339E:  MOVWF  xA9
033A0:  MOVWF  xAE
033A2:  MOVFF  6A8,6AD
033A6:  MOVLB  0
033A8:  CALL   24E4
033AC:  MOVFF  01,313
....................    if(cicloCiclos>20) 
033B0:  MOVLB  3
033B2:  MOVF   x13,W
033B4:  SUBLW  14
033B6:  BC    33BC
....................       cicloCiclos=1; 
033B8:  MOVLW  01
033BA:  MOVWF  x13
....................    usuarioCiclos=read_ext_eeprom((cicloVisto*320)); 
033BC:  MOVLB  6
033BE:  CLRF   xB3
033C0:  MOVFF  299,6B2
033C4:  MOVLW  01
033C6:  MOVWF  xB5
033C8:  MOVLW  40
033CA:  MOVWF  xB4
033CC:  MOVLB  0
033CE:  CALL   23E2
033D2:  MOVFF  02,6A9
033D6:  MOVFF  01,6A8
033DA:  MOVFF  02,6AE
033DE:  MOVFF  01,6AD
033E2:  CALL   24E4
033E6:  MOVFF  01,312
....................    if(usuarioCiclos>10) 
033EA:  MOVLB  3
033EC:  MOVF   x12,W
033EE:  SUBLW  0A
033F0:  BC    33F6
....................       usuarioCiclos=1; 
033F2:  MOVLW  01
033F4:  MOVWF  x12
....................    for(i=0;i<7;i++){//Lee Valores para completar la Tabla 
033F6:  MOVLB  2
033F8:  CLRF   x55
033FA:  MOVF   x55,W
033FC:  SUBLW  06
033FE:  BTFSS  FD8.0
03400:  BRA    394A
....................       horaCiclos[i]=read_ext_eeprom((cicloVisto*320)+11+((cicloVisualizado+i)*9)); 
03402:  CLRF   03
03404:  MOVF   x55,W
03406:  ADDLW  FA
03408:  MOVWF  01
0340A:  MOVLW  02
0340C:  ADDWFC 03,F
0340E:  MOVFF  01,6A8
03412:  MOVLB  6
03414:  MOVFF  03,6A9
03418:  CLRF   xB3
0341A:  MOVFF  299,6B2
0341E:  MOVLW  01
03420:  MOVWF  xB5
03422:  MOVLW  40
03424:  MOVWF  xB4
03426:  MOVLB  0
03428:  CALL   23E2
0342C:  MOVFF  02,6AB
03430:  MOVFF  01,6AA
03434:  MOVLW  0B
03436:  MOVLB  6
03438:  ADDWF  xAA,F
0343A:  MOVLW  00
0343C:  ADDWFC xAB,F
0343E:  MOVLB  2
03440:  MOVF   x55,W
03442:  ADDWF  x98,W
03444:  MULLW  09
03446:  MOVF   FF3,W
03448:  MOVLB  6
0344A:  ADDWF  xAA,F
0344C:  MOVLW  00
0344E:  ADDWFC xAB,F
03450:  MOVFF  6AB,6AE
03454:  MOVFF  6AA,6AD
03458:  MOVLB  0
0345A:  CALL   24E4
0345E:  MOVFF  6A9,FEA
03462:  MOVFF  6A8,FE9
03466:  MOVFF  01,FEF
....................       if(horaCiclos[i]>24) 
0346A:  CLRF   03
0346C:  MOVLB  2
0346E:  MOVF   x55,W
03470:  ADDLW  FA
03472:  MOVWF  FE9
03474:  MOVLW  02
03476:  ADDWFC 03,W
03478:  MOVWF  FEA
0347A:  MOVF   FEF,W
0347C:  SUBLW  18
0347E:  BC    3490
....................          horaCiclos[i]=0; 
03480:  CLRF   03
03482:  MOVF   x55,W
03484:  ADDLW  FA
03486:  MOVWF  FE9
03488:  MOVLW  02
0348A:  ADDWFC 03,W
0348C:  MOVWF  FEA
0348E:  CLRF   FEF
....................       minutoCiclos[i]=read_ext_eeprom((cicloVisto*320)+12+((cicloVisualizado+i)*9)); 
03490:  CLRF   03
03492:  MOVF   x55,W
03494:  ADDLW  01
03496:  MOVWF  01
03498:  MOVLW  03
0349A:  ADDWFC 03,F
0349C:  MOVFF  01,6A8
034A0:  MOVLB  6
034A2:  MOVFF  03,6A9
034A6:  CLRF   xB3
034A8:  MOVFF  299,6B2
034AC:  MOVLW  01
034AE:  MOVWF  xB5
034B0:  MOVLW  40
034B2:  MOVWF  xB4
034B4:  MOVLB  0
034B6:  CALL   23E2
034BA:  MOVFF  02,6AB
034BE:  MOVFF  01,6AA
034C2:  MOVLW  0C
034C4:  MOVLB  6
034C6:  ADDWF  xAA,F
034C8:  MOVLW  00
034CA:  ADDWFC xAB,F
034CC:  MOVLB  2
034CE:  MOVF   x55,W
034D0:  ADDWF  x98,W
034D2:  MULLW  09
034D4:  MOVF   FF3,W
034D6:  MOVLB  6
034D8:  ADDWF  xAA,F
034DA:  MOVLW  00
034DC:  ADDWFC xAB,F
034DE:  MOVFF  6AB,6AE
034E2:  MOVFF  6AA,6AD
034E6:  MOVLB  0
034E8:  CALL   24E4
034EC:  MOVFF  6A9,FEA
034F0:  MOVFF  6A8,FE9
034F4:  MOVFF  01,FEF
....................       if(minutoCiclos[i]>59) 
034F8:  CLRF   03
034FA:  MOVLB  2
034FC:  MOVF   x55,W
034FE:  ADDLW  01
03500:  MOVWF  FE9
03502:  MOVLW  03
03504:  ADDWFC 03,W
03506:  MOVWF  FEA
03508:  MOVF   FEF,W
0350A:  SUBLW  3B
0350C:  BC    351E
....................          minutoCiclos[i]=0; 
0350E:  CLRF   03
03510:  MOVF   x55,W
03512:  ADDLW  01
03514:  MOVWF  FE9
03516:  MOVLW  03
03518:  ADDWFC 03,W
0351A:  MOVWF  FEA
0351C:  CLRF   FEF
....................       TCiclos[i]=read_ext_eeprom((cicloVisto*320)+5+((cicloVisualizado+i)*9))+inttofloat(read_ext_eeprom((cicloVisto*320)+6+((cicloVisualizado+i)*9))); 
0351E:  MOVF   x55,W
03520:  MULLW  04
03522:  MOVF   FF3,W
03524:  CLRF   03
03526:  ADDLW  C2
03528:  MOVWF  01
0352A:  MOVLW  02
0352C:  ADDWFC 03,F
0352E:  MOVFF  01,6A8
03532:  MOVLB  6
03534:  MOVFF  03,6A9
03538:  CLRF   xB3
0353A:  MOVFF  299,6B2
0353E:  MOVLW  01
03540:  MOVWF  xB5
03542:  MOVLW  40
03544:  MOVWF  xB4
03546:  MOVLB  0
03548:  CALL   23E2
0354C:  MOVFF  02,6AB
03550:  MOVFF  01,6AA
03554:  MOVLW  05
03556:  MOVLB  6
03558:  ADDWF  xAA,F
0355A:  MOVLW  00
0355C:  ADDWFC xAB,F
0355E:  MOVLB  2
03560:  MOVF   x55,W
03562:  ADDWF  x98,W
03564:  MULLW  09
03566:  MOVF   FF3,W
03568:  MOVLB  6
0356A:  ADDWF  xAA,F
0356C:  MOVLW  00
0356E:  ADDWFC xAB,F
03570:  MOVFF  6AB,6AE
03574:  MOVFF  6AA,6AD
03578:  MOVLB  0
0357A:  CALL   24E4
0357E:  MOVFF  01,6AA
03582:  MOVLB  6
03584:  CLRF   xB3
03586:  MOVFF  299,6B2
0358A:  MOVLW  01
0358C:  MOVWF  xB5
0358E:  MOVLW  40
03590:  MOVWF  xB4
03592:  MOVLB  0
03594:  CALL   23E2
03598:  MOVFF  02,6AC
0359C:  MOVFF  01,6AB
035A0:  MOVLW  06
035A2:  MOVLB  6
035A4:  ADDWF  xAB,F
035A6:  MOVLW  00
035A8:  ADDWFC xAC,F
035AA:  MOVLB  2
035AC:  MOVF   x55,W
035AE:  ADDWF  x98,W
035B0:  MULLW  09
035B2:  MOVF   FF3,W
035B4:  MOVLB  6
035B6:  ADDWF  xAB,F
035B8:  MOVLW  00
035BA:  ADDWFC xAC,F
035BC:  MOVFF  6AC,6AE
035C0:  MOVFF  6AB,6AD
035C4:  MOVLB  0
035C6:  CALL   24E4
035CA:  MOVFF  01,6AB
035CE:  MOVFF  01,6AC
035D2:  CALL   258C
035D6:  MOVFF  00,6AB
035DA:  MOVFF  01,6AC
035DE:  MOVFF  02,6AD
035E2:  MOVFF  03,6AE
035E6:  MOVLB  6
035E8:  CLRF   xBB
035EA:  MOVFF  6AA,6BA
035EE:  MOVLB  0
035F0:  CALL   1F3A
035F4:  MOVFF  FEA,6B0
035F8:  MOVFF  FE9,6AF
035FC:  BCF    FD8.1
035FE:  MOVFF  03,6BD
03602:  MOVFF  02,6BC
03606:  MOVFF  01,6BB
0360A:  MOVFF  00,6BA
0360E:  MOVFF  6AE,6C1
03612:  MOVFF  6AD,6C0
03616:  MOVFF  6AC,6BF
0361A:  MOVFF  6AB,6BE
0361E:  CALL   20F6
03622:  MOVFF  6B0,FEA
03626:  MOVFF  6AF,FE9
0362A:  MOVFF  6A9,FEA
0362E:  MOVFF  6A8,FE9
03632:  MOVFF  00,FEF
03636:  MOVFF  01,FEC
0363A:  MOVFF  02,FEC
0363E:  MOVFF  03,FEC
....................       if(TCiclos[i]>200) 
03642:  MOVLB  2
03644:  MOVF   x55,W
03646:  MULLW  04
03648:  MOVF   FF3,W
0364A:  CLRF   03
0364C:  ADDLW  C2
0364E:  MOVWF  FE9
03650:  MOVLW  02
03652:  ADDWFC 03,W
03654:  MOVWF  FEA
03656:  MOVFF  FEF,6A8
0365A:  MOVFF  FEC,6A9
0365E:  MOVFF  FEC,6AA
03662:  MOVFF  FEC,6AB
03666:  MOVLB  6
03668:  CLRF   xAF
0366A:  CLRF   xAE
0366C:  MOVLW  48
0366E:  MOVWF  xAD
03670:  MOVLW  86
03672:  MOVWF  xAC
03674:  MOVFF  6AB,6B3
03678:  MOVFF  6AA,6B2
0367C:  MOVFF  6A9,6B1
03680:  MOVFF  6A8,6B0
03684:  MOVLB  0
03686:  CALL   25CC
0368A:  BNC   36AA
....................          TCiclos[i]=0; 
0368C:  MOVLB  2
0368E:  MOVF   x55,W
03690:  MULLW  04
03692:  MOVF   FF3,W
03694:  CLRF   03
03696:  ADDLW  C2
03698:  MOVWF  FE9
0369A:  MOVLW  02
0369C:  ADDWFC 03,W
0369E:  MOVWF  FEA
036A0:  CLRF   FEF
036A2:  CLRF   FEC
036A4:  CLRF   FEC
036A6:  CLRF   FEC
036A8:  MOVLB  0
....................       PcCiclos[i]=make16(read_ext_eeprom((cicloVisto*320)+7+((cicloVisualizado+i)*9)),read_ext_eeprom((cicloVisto*320)+8+((cicloVisualizado+i)*9))); 
036AA:  BCF    FD8.0
036AC:  MOVLB  2
036AE:  RLCF   x55,W
036B0:  CLRF   03
036B2:  ADDLW  DE
036B4:  MOVWF  01
036B6:  MOVLW  02
036B8:  ADDWFC 03,F
036BA:  MOVFF  01,6A8
036BE:  MOVLB  6
036C0:  MOVFF  03,6A9
036C4:  CLRF   xB3
036C6:  MOVFF  299,6B2
036CA:  MOVLW  01
036CC:  MOVWF  xB5
036CE:  MOVLW  40
036D0:  MOVWF  xB4
036D2:  MOVLB  0
036D4:  CALL   23E2
036D8:  MOVFF  02,6AB
036DC:  MOVFF  01,6AA
036E0:  MOVLW  07
036E2:  MOVLB  6
036E4:  ADDWF  xAA,F
036E6:  MOVLW  00
036E8:  ADDWFC xAB,F
036EA:  MOVLB  2
036EC:  MOVF   x55,W
036EE:  ADDWF  x98,W
036F0:  MULLW  09
036F2:  MOVF   FF3,W
036F4:  MOVLB  6
036F6:  ADDWF  xAA,F
036F8:  MOVLW  00
036FA:  ADDWFC xAB,F
036FC:  MOVFF  6AB,6AE
03700:  MOVFF  6AA,6AD
03704:  MOVLB  0
03706:  CALL   24E4
0370A:  MOVFF  01,6AA
0370E:  MOVLB  6
03710:  CLRF   xB3
03712:  MOVFF  299,6B2
03716:  MOVLW  01
03718:  MOVWF  xB5
0371A:  MOVLW  40
0371C:  MOVWF  xB4
0371E:  MOVLB  0
03720:  CALL   23E2
03724:  MOVFF  02,6AC
03728:  MOVFF  01,6AB
0372C:  MOVLW  08
0372E:  MOVLB  6
03730:  ADDWF  xAB,F
03732:  MOVLW  00
03734:  ADDWFC xAC,F
03736:  MOVLB  2
03738:  MOVF   x55,W
0373A:  ADDWF  x98,W
0373C:  MULLW  09
0373E:  MOVF   FF3,W
03740:  MOVLB  6
03742:  ADDWF  xAB,F
03744:  MOVLW  00
03746:  ADDWFC xAC,F
03748:  MOVFF  6AC,6AE
0374C:  MOVFF  6AB,6AD
03750:  MOVLB  0
03752:  CALL   24E4
03756:  MOVFF  6A9,FEA
0375A:  MOVFF  6A8,FE9
0375E:  MOVFF  6AA,FEC
03762:  MOVF   FED,F
03764:  MOVFF  01,FEF
....................       if(PcCiclos[i]>500) 
03768:  BCF    FD8.0
0376A:  MOVLB  2
0376C:  RLCF   x55,W
0376E:  CLRF   03
03770:  ADDLW  DE
03772:  MOVWF  FE9
03774:  MOVLW  02
03776:  ADDWFC 03,W
03778:  MOVWF  FEA
0377A:  MOVFF  FEC,6A9
0377E:  MOVF   FED,F
03780:  MOVFF  FEF,6A8
03784:  MOVLB  6
03786:  MOVF   xA9,W
03788:  SUBLW  00
0378A:  BC    37B0
0378C:  XORLW  FF
0378E:  BNZ   3796
03790:  MOVF   xA8,W
03792:  SUBLW  F4
03794:  BC    37B0
....................          PcCiclos[i]=0; 
03796:  BCF    FD8.0
03798:  MOVLB  2
0379A:  RLCF   x55,W
0379C:  CLRF   03
0379E:  ADDLW  DE
037A0:  MOVWF  FE9
037A2:  MOVLW  02
037A4:  ADDWFC 03,W
037A6:  MOVWF  FEA
037A8:  CLRF   FEC
037AA:  MOVF   FED,F
037AC:  CLRF   FEF
037AE:  MOVLB  6
....................       PpcCiclos[i]=make16(read_ext_eeprom((cicloVisto*320)+9+((cicloVisualizado+i)*9)),read_ext_eeprom((cicloVisto*320)+10+((cicloVisualizado+i)*9))); 
037B0:  BCF    FD8.0
037B2:  MOVLB  2
037B4:  RLCF   x55,W
037B6:  CLRF   03
037B8:  ADDLW  EC
037BA:  MOVWF  01
037BC:  MOVLW  02
037BE:  ADDWFC 03,F
037C0:  MOVFF  01,6A8
037C4:  MOVLB  6
037C6:  MOVFF  03,6A9
037CA:  CLRF   xB3
037CC:  MOVFF  299,6B2
037D0:  MOVLW  01
037D2:  MOVWF  xB5
037D4:  MOVLW  40
037D6:  MOVWF  xB4
037D8:  MOVLB  0
037DA:  CALL   23E2
037DE:  MOVFF  02,6AB
037E2:  MOVFF  01,6AA
037E6:  MOVLW  09
037E8:  MOVLB  6
037EA:  ADDWF  xAA,F
037EC:  MOVLW  00
037EE:  ADDWFC xAB,F
037F0:  MOVLB  2
037F2:  MOVF   x55,W
037F4:  ADDWF  x98,W
037F6:  MULLW  09
037F8:  MOVF   FF3,W
037FA:  MOVLB  6
037FC:  ADDWF  xAA,F
037FE:  MOVLW  00
03800:  ADDWFC xAB,F
03802:  MOVFF  6AB,6AE
03806:  MOVFF  6AA,6AD
0380A:  MOVLB  0
0380C:  CALL   24E4
03810:  MOVFF  01,6AA
03814:  MOVLB  6
03816:  CLRF   xB3
03818:  MOVFF  299,6B2
0381C:  MOVLW  01
0381E:  MOVWF  xB5
03820:  MOVLW  40
03822:  MOVWF  xB4
03824:  MOVLB  0
03826:  CALL   23E2
0382A:  MOVFF  02,6AC
0382E:  MOVFF  01,6AB
03832:  MOVLW  0A
03834:  MOVLB  6
03836:  ADDWF  xAB,F
03838:  MOVLW  00
0383A:  ADDWFC xAC,F
0383C:  MOVLB  2
0383E:  MOVF   x55,W
03840:  ADDWF  x98,W
03842:  MULLW  09
03844:  MOVF   FF3,W
03846:  MOVLB  6
03848:  ADDWF  xAB,F
0384A:  MOVLW  00
0384C:  ADDWFC xAC,F
0384E:  MOVFF  6AC,6AE
03852:  MOVFF  6AB,6AD
03856:  MOVLB  0
03858:  CALL   24E4
0385C:  MOVFF  6A9,FEA
03860:  MOVFF  6A8,FE9
03864:  MOVFF  6AA,FEC
03868:  MOVF   FED,F
0386A:  MOVFF  01,FEF
....................       if(PpcCiclos[i]>500) 
0386E:  BCF    FD8.0
03870:  MOVLB  2
03872:  RLCF   x55,W
03874:  CLRF   03
03876:  ADDLW  EC
03878:  MOVWF  FE9
0387A:  MOVLW  02
0387C:  ADDWFC 03,W
0387E:  MOVWF  FEA
03880:  MOVFF  FEC,6A9
03884:  MOVF   FED,F
03886:  MOVFF  FEF,6A8
0388A:  MOVLB  6
0388C:  MOVF   xA9,W
0388E:  SUBLW  00
03890:  BC    38B6
03892:  XORLW  FF
03894:  BNZ   389C
03896:  MOVF   xA8,W
03898:  SUBLW  F4
0389A:  BC    38B6
....................          PpcCiclos[i]=0; 
0389C:  BCF    FD8.0
0389E:  MOVLB  2
038A0:  RLCF   x55,W
038A2:  CLRF   03
038A4:  ADDLW  EC
038A6:  MOVWF  FE9
038A8:  MOVLW  02
038AA:  ADDWFC 03,W
038AC:  MOVWF  FEA
038AE:  CLRF   FEC
038B0:  MOVF   FED,F
038B2:  CLRF   FEF
038B4:  MOVLB  6
....................       ACiclos[i]=read_ext_eeprom((cicloVisto*320)+13+((cicloVisualizado+i)*9)); 
038B6:  CLRF   03
038B8:  MOVLB  2
038BA:  MOVF   x55,W
038BC:  ADDLW  08
038BE:  MOVWF  01
038C0:  MOVLW  03
038C2:  ADDWFC 03,F
038C4:  MOVFF  01,6A8
038C8:  MOVLB  6
038CA:  MOVFF  03,6A9
038CE:  CLRF   xB3
038D0:  MOVFF  299,6B2
038D4:  MOVLW  01
038D6:  MOVWF  xB5
038D8:  MOVLW  40
038DA:  MOVWF  xB4
038DC:  MOVLB  0
038DE:  CALL   23E2
038E2:  MOVFF  02,6AB
038E6:  MOVFF  01,6AA
038EA:  MOVLW  0D
038EC:  MOVLB  6
038EE:  ADDWF  xAA,F
038F0:  MOVLW  00
038F2:  ADDWFC xAB,F
038F4:  MOVLB  2
038F6:  MOVF   x55,W
038F8:  ADDWF  x98,W
038FA:  MULLW  09
038FC:  MOVF   FF3,W
038FE:  MOVLB  6
03900:  ADDWF  xAA,F
03902:  MOVLW  00
03904:  ADDWFC xAB,F
03906:  MOVFF  6AB,6AE
0390A:  MOVFF  6AA,6AD
0390E:  MOVLB  0
03910:  CALL   24E4
03914:  MOVFF  6A9,FEA
03918:  MOVFF  6A8,FE9
0391C:  MOVFF  01,FEF
....................       if(ACiclos[i]>10) 
03920:  CLRF   03
03922:  MOVLB  2
03924:  MOVF   x55,W
03926:  ADDLW  08
03928:  MOVWF  FE9
0392A:  MOVLW  03
0392C:  ADDWFC 03,W
0392E:  MOVWF  FEA
03930:  MOVF   FEF,W
03932:  SUBLW  0A
03934:  BC    3946
....................          ACiclos[i]=0; 
03936:  CLRF   03
03938:  MOVF   x55,W
0393A:  ADDLW  08
0393C:  MOVWF  FE9
0393E:  MOVLW  03
03940:  ADDWFC 03,W
03942:  MOVWF  FEA
03944:  CLRF   FEF
....................    } 
03946:  INCF   x55,F
03948:  BRA    33FA
.................... } 
0394A:  MOVLB  0
0394C:  GOTO   7D9C (RETURN)
....................  
.................... void LimitaValores(){ 
....................    if(Ganancia>20.0){ 
*
03A84:  MOVLB  6
03A86:  CLRF   xAF
03A88:  CLRF   xAE
03A8A:  MOVLW  20
03A8C:  MOVWF  xAD
03A8E:  MOVLW  83
03A90:  MOVWF  xAC
03A92:  MOVFF  218,6B3
03A96:  MOVFF  217,6B2
03A9A:  MOVFF  216,6B1
03A9E:  MOVFF  215,6B0
03AA2:  MOVLB  0
03AA4:  CALL   25CC
03AA8:  BNC   3AF2
....................       Ganancia=15.0; 
03AAA:  MOVLB  2
03AAC:  CLRF   x18
03AAE:  CLRF   x17
03AB0:  MOVLW  70
03AB2:  MOVWF  x16
03AB4:  MOVLW  82
03AB6:  MOVWF  x15
....................       write_eeprom(20,15); 
03AB8:  CLRF   FAA
03ABA:  MOVLW  14
03ABC:  MOVWF  FA9
03ABE:  MOVLW  0F
03AC0:  MOVWF  FA8
03AC2:  BCF    FA6.6
03AC4:  BCF    FA6.7
03AC6:  BSF    FA6.2
03AC8:  MOVF   FF2,W
03ACA:  MOVWF  00
03ACC:  BCF    FF2.6
03ACE:  BCF    FF2.7
03AD0:  MOVLB  F
03AD2:  MOVLW  55
03AD4:  MOVWF  FA7
03AD6:  MOVLW  AA
03AD8:  MOVWF  FA7
03ADA:  BSF    FA6.1
03ADC:  BTFSC  FA6.1
03ADE:  BRA    3ADC
03AE0:  BCF    FA6.2
03AE2:  MOVF   00,W
03AE4:  IORWF  FF2,F
....................       delay_ms(10); 
03AE6:  MOVLW  0A
03AE8:  MOVLB  6
03AEA:  MOVWF  xBA
03AEC:  MOVLB  0
03AEE:  CALL   1F70
....................    } 
....................    if(Sensor[0].Ajuste>20){ 
03AF2:  MOVLB  3
03AF4:  MOVF   x36,W
03AF6:  SUBLW  14
03AF8:  BC    3B36
....................       Sensor[0].Ajuste=0; 
03AFA:  CLRF   x36
....................       write_eeprom(21,0); 
03AFC:  CLRF   FAA
03AFE:  MOVLW  15
03B00:  MOVWF  FA9
03B02:  CLRF   FA8
03B04:  BCF    FA6.6
03B06:  BCF    FA6.7
03B08:  BSF    FA6.2
03B0A:  MOVF   FF2,W
03B0C:  MOVWF  00
03B0E:  BCF    FF2.6
03B10:  BCF    FF2.7
03B12:  MOVLB  F
03B14:  MOVLW  55
03B16:  MOVWF  FA7
03B18:  MOVLW  AA
03B1A:  MOVWF  FA7
03B1C:  BSF    FA6.1
03B1E:  BTFSC  FA6.1
03B20:  BRA    3B1E
03B22:  BCF    FA6.2
03B24:  MOVF   00,W
03B26:  IORWF  FF2,F
....................       delay_ms(10); 
03B28:  MOVLW  0A
03B2A:  MOVLB  6
03B2C:  MOVWF  xBA
03B2E:  MOVLB  0
03B30:  CALL   1F70
03B34:  MOVLB  3
....................    } 
....................    if(Sensor[0].Ajusten>20){ 
03B36:  MOVF   x37,W
03B38:  SUBLW  14
03B3A:  BC    3B76
....................       Sensor[0].Ajusten=0; 
03B3C:  CLRF   x37
....................       write_eeprom(22,0); 
03B3E:  CLRF   FAA
03B40:  MOVLW  16
03B42:  MOVWF  FA9
03B44:  CLRF   FA8
03B46:  BCF    FA6.6
03B48:  BCF    FA6.7
03B4A:  BSF    FA6.2
03B4C:  MOVF   FF2,W
03B4E:  MOVWF  00
03B50:  BCF    FF2.6
03B52:  BCF    FF2.7
03B54:  MOVLB  F
03B56:  MOVLW  55
03B58:  MOVWF  FA7
03B5A:  MOVLW  AA
03B5C:  MOVWF  FA7
03B5E:  BSF    FA6.1
03B60:  BTFSC  FA6.1
03B62:  BRA    3B60
03B64:  BCF    FA6.2
03B66:  MOVF   00,W
03B68:  IORWF  FF2,F
....................       delay_ms(10); 
03B6A:  MOVLW  0A
03B6C:  MOVLB  6
03B6E:  MOVWF  xBA
03B70:  MOVLB  0
03B72:  CALL   1F70
....................    } 
....................    if(Sensor[1].Ajuste>20){ 
03B76:  MOVLB  4
03B78:  MOVF   x9A,W
03B7A:  SUBLW  14
03B7C:  BC    3BBA
....................       Sensor[1].Ajuste=0; 
03B7E:  CLRF   x9A
....................       write_eeprom(23,0); 
03B80:  CLRF   FAA
03B82:  MOVLW  17
03B84:  MOVWF  FA9
03B86:  CLRF   FA8
03B88:  BCF    FA6.6
03B8A:  BCF    FA6.7
03B8C:  BSF    FA6.2
03B8E:  MOVF   FF2,W
03B90:  MOVWF  00
03B92:  BCF    FF2.6
03B94:  BCF    FF2.7
03B96:  MOVLB  F
03B98:  MOVLW  55
03B9A:  MOVWF  FA7
03B9C:  MOVLW  AA
03B9E:  MOVWF  FA7
03BA0:  BSF    FA6.1
03BA2:  BTFSC  FA6.1
03BA4:  BRA    3BA2
03BA6:  BCF    FA6.2
03BA8:  MOVF   00,W
03BAA:  IORWF  FF2,F
....................       delay_ms(10); 
03BAC:  MOVLW  0A
03BAE:  MOVLB  6
03BB0:  MOVWF  xBA
03BB2:  MOVLB  0
03BB4:  CALL   1F70
03BB8:  MOVLB  4
....................    } 
....................    if(Sensor[1].Ajusten>20){ 
03BBA:  MOVF   x9B,W
03BBC:  SUBLW  14
03BBE:  BC    3BFA
....................       Sensor[1].Ajusten=0; 
03BC0:  CLRF   x9B
....................       write_eeprom(24,0); 
03BC2:  CLRF   FAA
03BC4:  MOVLW  18
03BC6:  MOVWF  FA9
03BC8:  CLRF   FA8
03BCA:  BCF    FA6.6
03BCC:  BCF    FA6.7
03BCE:  BSF    FA6.2
03BD0:  MOVF   FF2,W
03BD2:  MOVWF  00
03BD4:  BCF    FF2.6
03BD6:  BCF    FF2.7
03BD8:  MOVLB  F
03BDA:  MOVLW  55
03BDC:  MOVWF  FA7
03BDE:  MOVLW  AA
03BE0:  MOVWF  FA7
03BE2:  BSF    FA6.1
03BE4:  BTFSC  FA6.1
03BE6:  BRA    3BE4
03BE8:  BCF    FA6.2
03BEA:  MOVF   00,W
03BEC:  IORWF  FF2,F
....................       delay_ms(10); 
03BEE:  MOVLW  0A
03BF0:  MOVLB  6
03BF2:  MOVWF  xBA
03BF4:  MOVLB  0
03BF6:  CALL   1F70
....................    } 
....................    if(MediaMovil>80){ 
03BFA:  MOVLB  1
03BFC:  MOVF   xED,W
03BFE:  SUBLW  50
03C00:  BC    3C40
....................       MediaMovil=40; 
03C02:  MOVLW  28
03C04:  MOVWF  xED
....................       write_eeprom(25,40); 
03C06:  CLRF   FAA
03C08:  MOVLW  19
03C0A:  MOVWF  FA9
03C0C:  MOVLW  28
03C0E:  MOVWF  FA8
03C10:  BCF    FA6.6
03C12:  BCF    FA6.7
03C14:  BSF    FA6.2
03C16:  MOVF   FF2,W
03C18:  MOVWF  00
03C1A:  BCF    FF2.6
03C1C:  BCF    FF2.7
03C1E:  MOVLB  F
03C20:  MOVLW  55
03C22:  MOVWF  FA7
03C24:  MOVLW  AA
03C26:  MOVWF  FA7
03C28:  BSF    FA6.1
03C2A:  BTFSC  FA6.1
03C2C:  BRA    3C2A
03C2E:  BCF    FA6.2
03C30:  MOVF   00,W
03C32:  IORWF  FF2,F
....................       delay_ms(10); 
03C34:  MOVLW  0A
03C36:  MOVLB  6
03C38:  MOVWF  xBA
03C3A:  MOVLB  0
03C3C:  CALL   1F70
....................    } 
....................    if(Tciclo>10){ 
03C40:  MOVLB  6
03C42:  CLRF   xAF
03C44:  CLRF   xAE
03C46:  MOVLW  20
03C48:  MOVWF  xAD
03C4A:  MOVLW  82
03C4C:  MOVWF  xAC
03C4E:  MOVFF  200,6B3
03C52:  MOVFF  1FF,6B2
03C56:  MOVFF  1FE,6B1
03C5A:  MOVFF  1FD,6B0
03C5E:  MOVLB  0
03C60:  CALL   25CC
03C64:  BNC   3CB0
....................       Tciclo=10; 
03C66:  MOVLB  2
03C68:  CLRF   x00
03C6A:  MOVLB  1
03C6C:  CLRF   xFF
03C6E:  MOVLW  20
03C70:  MOVWF  xFE
03C72:  MOVLW  82
03C74:  MOVWF  xFD
....................       write_eeprom(26,10); 
03C76:  CLRF   FAA
03C78:  MOVLW  1A
03C7A:  MOVWF  FA9
03C7C:  MOVLW  0A
03C7E:  MOVWF  FA8
03C80:  BCF    FA6.6
03C82:  BCF    FA6.7
03C84:  BSF    FA6.2
03C86:  MOVF   FF2,W
03C88:  MOVWF  00
03C8A:  BCF    FF2.6
03C8C:  BCF    FF2.7
03C8E:  MOVLB  F
03C90:  MOVLW  55
03C92:  MOVWF  FA7
03C94:  MOVLW  AA
03C96:  MOVWF  FA7
03C98:  BSF    FA6.1
03C9A:  BTFSC  FA6.1
03C9C:  BRA    3C9A
03C9E:  BCF    FA6.2
03CA0:  MOVF   00,W
03CA2:  IORWF  FF2,F
....................       delay_ms(10); 
03CA4:  MOVLW  0A
03CA6:  MOVLB  6
03CA8:  MOVWF  xBA
03CAA:  MOVLB  0
03CAC:  CALL   1F70
....................    } 
....................    if(Sensor[0].RPT100>2.0){ 
03CB0:  MOVLB  6
03CB2:  CLRF   xAF
03CB4:  CLRF   xAE
03CB6:  CLRF   xAD
03CB8:  MOVLW  80
03CBA:  MOVWF  xAC
03CBC:  MOVFF  32B,6B3
03CC0:  MOVFF  32A,6B2
03CC4:  MOVFF  329,6B1
03CC8:  MOVFF  328,6B0
03CCC:  MOVLB  0
03CCE:  CALL   25CC
03CD2:  BNC   3D52
....................       Sensor[0].RPT100=0.5; 
03CD4:  MOVLB  3
03CD6:  CLRF   x2B
03CD8:  CLRF   x2A
03CDA:  CLRF   x29
03CDC:  MOVLW  7E
03CDE:  MOVWF  x28
....................       write_eeprom(28,0); 
03CE0:  CLRF   FAA
03CE2:  MOVLW  1C
03CE4:  MOVWF  FA9
03CE6:  CLRF   FA8
03CE8:  BCF    FA6.6
03CEA:  BCF    FA6.7
03CEC:  BSF    FA6.2
03CEE:  MOVF   FF2,W
03CF0:  MOVWF  00
03CF2:  BCF    FF2.6
03CF4:  BCF    FF2.7
03CF6:  MOVLB  F
03CF8:  MOVLW  55
03CFA:  MOVWF  FA7
03CFC:  MOVLW  AA
03CFE:  MOVWF  FA7
03D00:  BSF    FA6.1
03D02:  BTFSC  FA6.1
03D04:  BRA    3D02
03D06:  BCF    FA6.2
03D08:  MOVF   00,W
03D0A:  IORWF  FF2,F
....................       delay_ms(10); 
03D0C:  MOVLW  0A
03D0E:  MOVLB  6
03D10:  MOVWF  xBA
03D12:  MOVLB  0
03D14:  CALL   1F70
....................       write_eeprom(27,5); 
03D18:  CLRF   FAA
03D1A:  MOVLW  1B
03D1C:  MOVWF  FA9
03D1E:  MOVLW  05
03D20:  MOVWF  FA8
03D22:  BCF    FA6.6
03D24:  BCF    FA6.7
03D26:  BSF    FA6.2
03D28:  MOVF   FF2,W
03D2A:  MOVWF  00
03D2C:  BCF    FF2.6
03D2E:  BCF    FF2.7
03D30:  MOVLB  F
03D32:  MOVLW  55
03D34:  MOVWF  FA7
03D36:  MOVLW  AA
03D38:  MOVWF  FA7
03D3A:  BSF    FA6.1
03D3C:  BTFSC  FA6.1
03D3E:  BRA    3D3C
03D40:  BCF    FA6.2
03D42:  MOVF   00,W
03D44:  IORWF  FF2,F
....................       delay_ms(10); 
03D46:  MOVLW  0A
03D48:  MOVLB  6
03D4A:  MOVWF  xBA
03D4C:  MOVLB  0
03D4E:  CALL   1F70
....................    } 
....................    if(Sensor[1].RPT100>2.0){ 
03D52:  MOVLB  6
03D54:  CLRF   xAF
03D56:  CLRF   xAE
03D58:  CLRF   xAD
03D5A:  MOVLW  80
03D5C:  MOVWF  xAC
03D5E:  MOVFF  48F,6B3
03D62:  MOVFF  48E,6B2
03D66:  MOVFF  48D,6B1
03D6A:  MOVFF  48C,6B0
03D6E:  MOVLB  0
03D70:  CALL   25CC
03D74:  BNC   3DF4
....................       Sensor[1].RPT100=0.5; 
03D76:  MOVLB  4
03D78:  CLRF   x8F
03D7A:  CLRF   x8E
03D7C:  CLRF   x8D
03D7E:  MOVLW  7E
03D80:  MOVWF  x8C
....................       write_eeprom(30,0); 
03D82:  CLRF   FAA
03D84:  MOVLW  1E
03D86:  MOVWF  FA9
03D88:  CLRF   FA8
03D8A:  BCF    FA6.6
03D8C:  BCF    FA6.7
03D8E:  BSF    FA6.2
03D90:  MOVF   FF2,W
03D92:  MOVWF  00
03D94:  BCF    FF2.6
03D96:  BCF    FF2.7
03D98:  MOVLB  F
03D9A:  MOVLW  55
03D9C:  MOVWF  FA7
03D9E:  MOVLW  AA
03DA0:  MOVWF  FA7
03DA2:  BSF    FA6.1
03DA4:  BTFSC  FA6.1
03DA6:  BRA    3DA4
03DA8:  BCF    FA6.2
03DAA:  MOVF   00,W
03DAC:  IORWF  FF2,F
....................       delay_ms(10); 
03DAE:  MOVLW  0A
03DB0:  MOVLB  6
03DB2:  MOVWF  xBA
03DB4:  MOVLB  0
03DB6:  CALL   1F70
....................       write_eeprom(29,5); 
03DBA:  CLRF   FAA
03DBC:  MOVLW  1D
03DBE:  MOVWF  FA9
03DC0:  MOVLW  05
03DC2:  MOVWF  FA8
03DC4:  BCF    FA6.6
03DC6:  BCF    FA6.7
03DC8:  BSF    FA6.2
03DCA:  MOVF   FF2,W
03DCC:  MOVWF  00
03DCE:  BCF    FF2.6
03DD0:  BCF    FF2.7
03DD2:  MOVLB  F
03DD4:  MOVLW  55
03DD6:  MOVWF  FA7
03DD8:  MOVLW  AA
03DDA:  MOVWF  FA7
03DDC:  BSF    FA6.1
03DDE:  BTFSC  FA6.1
03DE0:  BRA    3DDE
03DE2:  BCF    FA6.2
03DE4:  MOVF   00,W
03DE6:  IORWF  FF2,F
....................       delay_ms(10); 
03DE8:  MOVLW  0A
03DEA:  MOVLB  6
03DEC:  MOVWF  xBA
03DEE:  MOVLB  0
03DF0:  CALL   1F70
....................    } 
....................    if(Atmosferica>100){ 
03DF4:  MOVLB  2
03DF6:  MOVF   x9B,W
03DF8:  SUBLW  64
03DFA:  BC    3E3C
....................       Atmosferica=69; 
03DFC:  MOVLW  45
03DFE:  MOVWF  x9B
....................       write_eeprom(31,69); 
03E00:  CLRF   FAA
03E02:  MOVLW  1F
03E04:  MOVWF  FA9
03E06:  MOVLW  45
03E08:  MOVWF  FA8
03E0A:  BCF    FA6.6
03E0C:  BCF    FA6.7
03E0E:  BSF    FA6.2
03E10:  MOVF   FF2,W
03E12:  MOVWF  00
03E14:  BCF    FF2.6
03E16:  BCF    FF2.7
03E18:  MOVLB  F
03E1A:  MOVLW  55
03E1C:  MOVWF  FA7
03E1E:  MOVLW  AA
03E20:  MOVWF  FA7
03E22:  BSF    FA6.1
03E24:  BTFSC  FA6.1
03E26:  BRA    3E24
03E28:  BCF    FA6.2
03E2A:  MOVF   00,W
03E2C:  IORWF  FF2,F
....................       delay_ms(10); 
03E2E:  MOVLW  0A
03E30:  MOVLB  6
03E32:  MOVWF  xBA
03E34:  MOVLB  0
03E36:  CALL   1F70
03E3A:  MOVLB  2
....................    } 
....................    if(Tapertura>100){ 
03E3C:  MOVF   x59,W
03E3E:  SUBLW  64
03E40:  BC    3E82
....................       Tapertura=85; 
03E42:  MOVLW  55
03E44:  MOVWF  x59
....................       write_eeprom(32,85); 
03E46:  CLRF   FAA
03E48:  MOVLW  20
03E4A:  MOVWF  FA9
03E4C:  MOVLW  55
03E4E:  MOVWF  FA8
03E50:  BCF    FA6.6
03E52:  BCF    FA6.7
03E54:  BSF    FA6.2
03E56:  MOVF   FF2,W
03E58:  MOVWF  00
03E5A:  BCF    FF2.6
03E5C:  BCF    FF2.7
03E5E:  MOVLB  F
03E60:  MOVLW  55
03E62:  MOVWF  FA7
03E64:  MOVLW  AA
03E66:  MOVWF  FA7
03E68:  BSF    FA6.1
03E6A:  BTFSC  FA6.1
03E6C:  BRA    3E6A
03E6E:  BCF    FA6.2
03E70:  MOVF   00,W
03E72:  IORWF  FF2,F
....................       delay_ms(10); 
03E74:  MOVLW  0A
03E76:  MOVLB  6
03E78:  MOVWF  xBA
03E7A:  MOVLB  0
03E7C:  CALL   1F70
03E80:  MOVLB  2
....................    } 
....................    if(Ciclos>60000){ 
03E82:  MOVF   x76,W
03E84:  SUBLW  E9
03E86:  BC    3F08
03E88:  XORLW  FF
03E8A:  BNZ   3E92
03E8C:  MOVF   x75,W
03E8E:  SUBLW  60
03E90:  BC    3F08
....................       Ciclos=0; 
03E92:  CLRF   x76
03E94:  CLRF   x75
....................       write_eeprom(37,0); 
03E96:  CLRF   FAA
03E98:  MOVLW  25
03E9A:  MOVWF  FA9
03E9C:  CLRF   FA8
03E9E:  BCF    FA6.6
03EA0:  BCF    FA6.7
03EA2:  BSF    FA6.2
03EA4:  MOVF   FF2,W
03EA6:  MOVWF  00
03EA8:  BCF    FF2.6
03EAA:  BCF    FF2.7
03EAC:  MOVLB  F
03EAE:  MOVLW  55
03EB0:  MOVWF  FA7
03EB2:  MOVLW  AA
03EB4:  MOVWF  FA7
03EB6:  BSF    FA6.1
03EB8:  BTFSC  FA6.1
03EBA:  BRA    3EB8
03EBC:  BCF    FA6.2
03EBE:  MOVF   00,W
03EC0:  IORWF  FF2,F
....................       delay_ms(10); 
03EC2:  MOVLW  0A
03EC4:  MOVLB  6
03EC6:  MOVWF  xBA
03EC8:  MOVLB  0
03ECA:  CALL   1F70
....................       write_eeprom(38,0); 
03ECE:  CLRF   FAA
03ED0:  MOVLW  26
03ED2:  MOVWF  FA9
03ED4:  CLRF   FA8
03ED6:  BCF    FA6.6
03ED8:  BCF    FA6.7
03EDA:  BSF    FA6.2
03EDC:  MOVF   FF2,W
03EDE:  MOVWF  00
03EE0:  BCF    FF2.6
03EE2:  BCF    FF2.7
03EE4:  MOVLB  F
03EE6:  MOVLW  55
03EE8:  MOVWF  FA7
03EEA:  MOVLW  AA
03EEC:  MOVWF  FA7
03EEE:  BSF    FA6.1
03EF0:  BTFSC  FA6.1
03EF2:  BRA    3EF0
03EF4:  BCF    FA6.2
03EF6:  MOVF   00,W
03EF8:  IORWF  FF2,F
....................       delay_ms(10); 
03EFA:  MOVLW  0A
03EFC:  MOVLB  6
03EFE:  MOVWF  xBA
03F00:  MOVLB  0
03F02:  CALL   1F70
03F06:  MOVLB  2
....................    } 
....................    if(sg1==10){ 
03F08:  MOVF   xAC,W
03F0A:  SUBLW  0A
03F0C:  BNZ   3F22
....................       G1=G1*(-1); 
03F0E:  MOVFF  2AA,6A8
03F12:  MOVLW  FF
03F14:  MOVLB  6
03F16:  MOVWF  xA9
03F18:  MOVLB  0
03F1A:  RCALL  3A36
03F1C:  MOVFF  01,2AA
03F20:  MOVLB  2
....................    } 
....................    if(sg2==10){ 
03F22:  MOVF   xAD,W
03F24:  SUBLW  0A
03F26:  BNZ   3F3A
....................       G2=G2*(-1); 
03F28:  MOVFF  2AB,6A8
03F2C:  MOVLW  FF
03F2E:  MOVLB  6
03F30:  MOVWF  xA9
03F32:  MOVLB  0
03F34:  RCALL  3A36
03F36:  MOVFF  01,2AB
....................    } 
....................    if(cerroSucioInt>1){ 
03F3A:  MOVLB  1
03F3C:  MOVF   xF3,W
03F3E:  SUBLW  01
03F40:  BC    3F80
....................       cerroSucioInt=0; 
03F42:  CLRF   xF3
....................       write_eeprom(46,0); 
03F44:  CLRF   FAA
03F46:  MOVLW  2E
03F48:  MOVWF  FA9
03F4A:  CLRF   FA8
03F4C:  BCF    FA6.6
03F4E:  BCF    FA6.7
03F50:  BSF    FA6.2
03F52:  MOVF   FF2,W
03F54:  MOVWF  00
03F56:  BCF    FF2.6
03F58:  BCF    FF2.7
03F5A:  MOVLB  F
03F5C:  MOVLW  55
03F5E:  MOVWF  FA7
03F60:  MOVLW  AA
03F62:  MOVWF  FA7
03F64:  BSF    FA6.1
03F66:  BTFSC  FA6.1
03F68:  BRA    3F66
03F6A:  BCF    FA6.2
03F6C:  MOVF   00,W
03F6E:  IORWF  FF2,F
....................       delay_ms(10); 
03F70:  MOVLW  0A
03F72:  MOVLB  6
03F74:  MOVWF  xBA
03F76:  MOVLB  0
03F78:  CALL   1F70
....................       cerroSucio=OFF; 
03F7C:  BCF    xFA.3
03F7E:  MOVLB  1
....................    } 
....................    if(cerroLimpioInt>1){ 
03F80:  MOVF   xF4,W
03F82:  SUBLW  01
03F84:  BC    3FC4
....................       cerroLimpioInt=0; 
03F86:  CLRF   xF4
....................       write_eeprom(47,0); 
03F88:  CLRF   FAA
03F8A:  MOVLW  2F
03F8C:  MOVWF  FA9
03F8E:  CLRF   FA8
03F90:  BCF    FA6.6
03F92:  BCF    FA6.7
03F94:  BSF    FA6.2
03F96:  MOVF   FF2,W
03F98:  MOVWF  00
03F9A:  BCF    FF2.6
03F9C:  BCF    FF2.7
03F9E:  MOVLB  F
03FA0:  MOVLW  55
03FA2:  MOVWF  FA7
03FA4:  MOVLW  AA
03FA6:  MOVWF  FA7
03FA8:  BSF    FA6.1
03FAA:  BTFSC  FA6.1
03FAC:  BRA    3FAA
03FAE:  BCF    FA6.2
03FB0:  MOVF   00,W
03FB2:  IORWF  FF2,F
....................       delay_ms(10); 
03FB4:  MOVLW  0A
03FB6:  MOVLB  6
03FB8:  MOVWF  xBA
03FBA:  MOVLB  0
03FBC:  CALL   1F70
....................       cerroLimpio=OFF; 
03FC0:  BCF    xFA.4
03FC2:  MOVLB  1
....................    } 
....................    if(cerroSucioInt==1) 
03FC4:  DECFSZ xF3,W
03FC6:  BRA    3FCE
....................       cerroSucio=ON; 
03FC8:  MOVLB  0
03FCA:  BSF    xFA.3
03FCC:  MOVLB  1
....................    if(cerroSucioInt==0) 
03FCE:  MOVF   xF3,F
03FD0:  BNZ   3FD8
....................       cerroSucio=OFF;    
03FD2:  MOVLB  0
03FD4:  BCF    xFA.3
03FD6:  MOVLB  1
....................    if(cerroLimpioInt==1) 
03FD8:  DECFSZ xF4,W
03FDA:  BRA    3FE2
....................       cerroLimpio=ON; 
03FDC:  MOVLB  0
03FDE:  BSF    xFA.4
03FE0:  MOVLB  1
....................    if(cerroLimpioInt==0) 
03FE2:  MOVF   xF4,F
03FE4:  BNZ   3FEC
....................       cerroLimpio=OFF;       
03FE6:  MOVLB  0
03FE8:  BCF    xFA.4
03FEA:  MOVLB  1
.................... } 
03FEC:  MOVLB  0
03FEE:  GOTO   7DB0 (RETURN)
....................  
.................... void LeeDisplay(void){ 
....................    if(Dato_Exitoso==5){ 
*
04A90:  MOVLB  2
04A92:  MOVF   x4F,W
04A94:  SUBLW  05
04A96:  BTFSS  FD8.2
04A98:  BRA    4C7A
....................          RX_Buffer[0]=RX_Buffer2[0]; 
04A9A:  MOVFF  3B,30
....................          RX_Buffer[1]=RX_Buffer2[1]; 
04A9E:  MOVFF  3C,31
....................          RX_Buffer[2]=RX_Buffer2[2]; 
04AA2:  MOVFF  3D,32
....................          RX_Buffer[3]=RX_Buffer2[3]; 
04AA6:  MOVFF  3E,33
....................          RX_Buffer[4]=RX_Buffer2[4]; 
04AAA:  MOVFF  3F,34
....................          RX_Buffer[5]=RX_Buffer2[5]; 
04AAE:  MOVFF  40,35
....................          RX_Buffer[6]=RX_Buffer2[6]; 
04AB2:  MOVFF  41,36
....................          RX_Buffer[7]=RX_Buffer2[7]; 
04AB6:  MOVFF  42,37
....................          RX_Buffer[8]=RX_Buffer2[8]; 
04ABA:  MOVFF  43,38
....................          RX_Buffer[9]=RX_Buffer2[9]; 
04ABE:  MOVFF  44,39
....................           
....................       if(RX_Buffer[3]==0x01){// Pregunta por la pagina en la que esta el display,01 es Contrasea de Acceso 
04AC2:  DECFSZ 33,W
04AC4:  BRA    4AD4
....................          Menu=0; 
04AC6:  CLRF   x52
....................          if(MenuAntt!=Menu) 
04AC8:  MOVF   x52,W
04ACA:  SUBWF  x54,W
04ACC:  BZ    4AD2
....................             MenuAntt=Menu; 
04ACE:  MOVFF  252,254
....................       }else if(RX_Buffer[3]==0x02){//02 es Ciclos Fijos 
04AD2:  BRA    4C7A
04AD4:  MOVF   33,W
04AD6:  SUBLW  02
04AD8:  BNZ   4AEA
....................          Menu=1; 
04ADA:  MOVLW  01
04ADC:  MOVWF  x52
....................          if(MenuAntt!=Menu) 
04ADE:  MOVF   x52,W
04AE0:  SUBWF  x54,W
04AE2:  BZ    4AE8
....................             MenuAntt=Menu; 
04AE4:  MOVFF  252,254
....................       }else if(RX_Buffer[3]==0x03){//03 es Tiempo Esterilizacion 
04AE8:  BRA    4C7A
04AEA:  MOVF   33,W
04AEC:  SUBLW  03
04AEE:  BNZ   4B00
....................          Menu=2; 
04AF0:  MOVLW  02
04AF2:  MOVWF  x52
....................          if(MenuAntt!=Menu) 
04AF4:  MOVF   x52,W
04AF6:  SUBWF  x54,W
04AF8:  BZ    4AFE
....................             MenuAntt=Menu; 
04AFA:  MOVFF  252,254
....................       }else if(RX_Buffer[3]==0x04){//04 es Tiempo de Secado 
04AFE:  BRA    4C7A
04B00:  MOVF   33,W
04B02:  SUBLW  04
04B04:  BNZ   4B16
....................          Menu=3; 
04B06:  MOVLW  03
04B08:  MOVWF  x52
....................          if(MenuAntt!=Menu) 
04B0A:  MOVF   x52,W
04B0C:  SUBWF  x54,W
04B0E:  BZ    4B14
....................             MenuAntt=Menu; 
04B10:  MOVFF  252,254
....................       }else if(RX_Buffer[3]==0x05){//05 es Temperatura 
04B14:  BRA    4C7A
04B16:  MOVF   33,W
04B18:  SUBLW  05
04B1A:  BNZ   4B2C
....................          Menu=4; 
04B1C:  MOVLW  04
04B1E:  MOVWF  x52
....................          if(MenuAntt!=Menu) 
04B20:  MOVF   x52,W
04B22:  SUBWF  x54,W
04B24:  BZ    4B2A
....................             MenuAntt=Menu; 
04B26:  MOVFF  252,254
....................       }else if(RX_Buffer[3]==0x06){//06 es Nivel de Vacio 
04B2A:  BRA    4C7A
04B2C:  MOVF   33,W
04B2E:  SUBLW  06
04B30:  BNZ   4B42
....................          Menu=5; 
04B32:  MOVLW  05
04B34:  MOVWF  x52
....................          if(MenuAntt!=Menu) 
04B36:  MOVF   x52,W
04B38:  SUBWF  x54,W
04B3A:  BZ    4B40
....................             MenuAntt=Menu; 
04B3C:  MOVFF  252,254
....................       }else if(RX_Buffer[3]==0x07){//07 es Test de Componentes 
04B40:  BRA    4C7A
04B42:  MOVF   33,W
04B44:  SUBLW  07
04B46:  BNZ   4B58
....................          Menu=6; 
04B48:  MOVLW  06
04B4A:  MOVWF  x52
....................          if(MenuAntt!=Menu) 
04B4C:  MOVF   x52,W
04B4E:  SUBWF  x54,W
04B50:  BZ    4B56
....................             MenuAntt=Menu; 
04B52:  MOVFF  252,254
....................       }else if(RX_Buffer[3]==0x08){//08 es Fecha y hora 
04B56:  BRA    4C7A
04B58:  MOVF   33,W
04B5A:  SUBLW  08
04B5C:  BNZ   4B6E
....................          Menu=7; 
04B5E:  MOVLW  07
04B60:  MOVWF  x52
....................          if(MenuAntt!=Menu) 
04B62:  MOVF   x52,W
04B64:  SUBWF  x54,W
04B66:  BZ    4B6C
....................             MenuAntt=Menu; 
04B68:  MOVFF  252,254
....................       }else if(RX_Buffer[3]==0x09){//09 es Ciclos Personalizados 
04B6C:  BRA    4C7A
04B6E:  MOVF   33,W
04B70:  SUBLW  09
04B72:  BNZ   4B84
....................          Menu=8; 
04B74:  MOVLW  08
04B76:  MOVWF  x52
....................          if(MenuAntt!=Menu) 
04B78:  MOVF   x52,W
04B7A:  SUBWF  x54,W
04B7C:  BZ    4B82
....................             MenuAntt=Menu; 
04B7E:  MOVFF  252,254
....................       }else if(RX_Buffer[3]==0x0a){//0a es Pulsos de Vacio 
04B82:  BRA    4C7A
04B84:  MOVF   33,W
04B86:  SUBLW  0A
04B88:  BNZ   4B9A
....................          Menu=9; 
04B8A:  MOVLW  09
04B8C:  MOVWF  x52
....................          if(MenuAntt!=Menu) 
04B8E:  MOVF   x52,W
04B90:  SUBWF  x54,W
04B92:  BZ    4B98
....................             MenuAntt=Menu; 
04B94:  MOVFF  252,254
....................       }else if(RX_Buffer[3]==0x0b){//0b es Usuarios 
04B98:  BRA    4C7A
04B9A:  MOVF   33,W
04B9C:  SUBLW  0B
04B9E:  BNZ   4BB0
....................          Menu=10; 
04BA0:  MOVLW  0A
04BA2:  MOVWF  x52
....................          if(MenuAntt!=Menu) 
04BA4:  MOVF   x52,W
04BA6:  SUBWF  x54,W
04BA8:  BZ    4BAE
....................             MenuAntt=Menu; 
04BAA:  MOVFF  252,254
....................       }else if(RX_Buffer[3]==0x0c){//0c es Configuraciones 
04BAE:  BRA    4C7A
04BB0:  MOVF   33,W
04BB2:  SUBLW  0C
04BB4:  BNZ   4BC6
....................          Menu=11; 
04BB6:  MOVLW  0B
04BB8:  MOVWF  x52
....................          if(MenuAntt!=Menu) 
04BBA:  MOVF   x52,W
04BBC:  SUBWF  x54,W
04BBE:  BZ    4BC4
....................             MenuAntt=Menu; 
04BC0:  MOVFF  252,254
....................       }else if(RX_Buffer[3]==0x0d){//0d es Ciclos 
04BC4:  BRA    4C7A
04BC6:  MOVF   33,W
04BC8:  SUBLW  0D
04BCA:  BNZ   4BDC
....................          Menu=12; 
04BCC:  MOVLW  0C
04BCE:  MOVWF  x52
....................          if(MenuAntt!=Menu) 
04BD0:  MOVF   x52,W
04BD2:  SUBWF  x54,W
04BD4:  BZ    4BDA
....................             MenuAntt=Menu; 
04BD6:  MOVFF  252,254
....................       }else if(RX_Buffer[3]==0x0e){//0d es Activacion de Ciclos 
04BDA:  BRA    4C7A
04BDC:  MOVF   33,W
04BDE:  SUBLW  0E
04BE0:  BNZ   4BF2
....................          Menu=14; 
04BE2:  MOVLW  0E
04BE4:  MOVWF  x52
....................          if(MenuAntt!=Menu) 
04BE6:  MOVF   x52,W
04BE8:  SUBWF  x54,W
04BEA:  BZ    4BF0
....................             MenuAntt=Menu; 
04BEC:  MOVFF  252,254
....................       }else if(RX_Buffer[3]==0x10){//10 es Nivel de Desfogue 
04BF0:  BRA    4C7A
04BF2:  MOVF   33,W
04BF4:  SUBLW  10
04BF6:  BNZ   4C08
....................          Menu=13; 
04BF8:  MOVLW  0D
04BFA:  MOVWF  x52
....................          if(MenuAntt!=Menu) 
04BFC:  MOVF   x52,W
04BFE:  SUBWF  x54,W
04C00:  BZ    4C06
....................             MenuAntt=Menu; 
04C02:  MOVFF  252,254
....................       }else if(RX_Buffer[3]==0x0f){//0f es Recibe caracteres de contrasea desde display 
04C06:  BRA    4C7A
04C08:  MOVF   33,W
04C0A:  SUBLW  0F
04C0C:  BNZ   4C10
....................           
....................       }else if(RX_Buffer[3]==0x1a){//1a es Menu de Funcionamiento 
04C0E:  BRA    4C7A
04C10:  MOVF   33,W
04C12:  SUBLW  1A
04C14:  BNZ   4C26
....................          Menu=20; 
04C16:  MOVLW  14
04C18:  MOVWF  x52
....................          if(MenuAntt!=Menu) 
04C1A:  MOVF   x52,W
04C1C:  SUBWF  x54,W
04C1E:  BZ    4C24
....................             MenuAntt=Menu; 
04C20:  MOVFF  252,254
....................       }else if(RX_Buffer[3]==0x1b){//1b es Menu de clave correcta 
04C24:  BRA    4C7A
04C26:  MOVF   33,W
04C28:  SUBLW  1B
04C2A:  BNZ   4C3C
....................          Menu=15; 
04C2C:  MOVLW  0F
04C2E:  MOVWF  x52
....................          if(MenuAntt!=Menu) 
04C30:  MOVF   x52,W
04C32:  SUBWF  x54,W
04C34:  BZ    4C3A
....................             MenuAntt=Menu; 
04C36:  MOVFF  252,254
....................       }else if(RX_Buffer[3]==0x1c){//1c es Menu de clave incorrecta 
04C3A:  BRA    4C7A
04C3C:  MOVF   33,W
04C3E:  SUBLW  1C
04C40:  BNZ   4C52
....................          Menu=16; 
04C42:  MOVLW  10
04C44:  MOVWF  x52
....................          if(MenuAntt!=Menu) 
04C46:  MOVF   x52,W
04C48:  SUBWF  x54,W
04C4A:  BZ    4C50
....................             MenuAntt=Menu; 
04C4C:  MOVFF  252,254
....................       }else if(RX_Buffer[3]==0x2c){//2c es Menu de Configuracion de Parametros 
04C50:  BRA    4C7A
04C52:  MOVF   33,W
04C54:  SUBLW  2C
04C56:  BNZ   4C68
....................          Menu=100; 
04C58:  MOVLW  64
04C5A:  MOVWF  x52
....................          if(MenuAntt!=Menu) 
04C5C:  MOVF   x52,W
04C5E:  SUBWF  x54,W
04C60:  BZ    4C66
....................             MenuAntt=Menu; 
04C62:  MOVFF  252,254
....................       }else if(RX_Buffer[3]==0xcc){//cc es Menu de Bienvenida 
04C66:  BRA    4C7A
04C68:  MOVF   33,W
04C6A:  SUBLW  CC
04C6C:  BNZ   4C7A
....................          Menu=240; 
04C6E:  MOVLW  F0
04C70:  MOVWF  x52
....................          if(MenuAntt!=240) 
04C72:  MOVF   x54,W
04C74:  SUBLW  F0
04C76:  BZ    4C7A
....................             reset_cpu(); 
04C78:  RESET
....................       } 
....................    } 
.................... } 
04C7A:  MOVLB  0
04C7C:  GOTO   7E9A (RETURN)
....................  
.................... void ConfiguraCiclo(int8 segest,minest,segsec,minsec,liquidos,ciclo,temperatura,pulsos,nvacio,fug){ 
....................    sEstp=segest; 
*
05B34:  MOVFF  6B0,11B
....................    mEstp=minest; 
05B38:  MOVFF  6B1,11C
....................    sSecp=segsec; 
05B3C:  MOVFF  6B2,11D
....................    mSecp=minsec; 
05B40:  MOVFF  6B3,11E
....................    Setpoint=temperatura;                
05B44:  MOVFF  6B6,260
....................    tiempo_secado=0; 
05B48:  MOVLB  2
05B4A:  CLRF   x64
....................    desfoguelento=liquidos; 
05B4C:  MOVLB  1
05B4E:  BCF    x08.5
05B50:  MOVLB  6
05B52:  BTFSS  xB4.0
05B54:  BRA    5B5C
05B56:  MOVLB  1
05B58:  BSF    x08.5
05B5A:  MOVLB  6
....................    CicloSeleccionado=ciclo; 
05B5C:  MOVFF  6B5,258
....................    sEst=sEstp; 
05B60:  MOVFF  11B,117
....................    mEst=mEstp; 
05B64:  MOVFF  11C,118
....................    sSec=sSecp; 
05B68:  MOVFF  11D,119
....................    mSec=mSecp; 
05B6C:  MOVFF  11E,11A
....................    CantidadPulsos=pulsos; 
05B70:  MOVLB  2
05B72:  CLRF   x5B
05B74:  MOVFF  6B7,25A
....................    NivelVacio=nvacio; 
05B78:  MOVFF  6B8,29A
....................    Fugas=fug; 
05B7C:  MOVLB  1
05B7E:  BCF    x06.0
05B80:  MOVLB  6
05B82:  BTFSS  xB9.0
05B84:  BRA    5B8C
05B86:  MOVLB  1
05B88:  BSF    x06.0
05B8A:  MOVLB  6
....................    //TiempoVacio=CantidadPulsos*180; 
....................    Imprime=15; 
05B8C:  MOVLW  0F
05B8E:  MOVLB  2
05B90:  MOVWF  xA5
....................    Envio_Esclavos(); 
05B92:  MOVLB  0
05B94:  CALL   4FE8
....................    delay_ms(10); 
05B98:  MOVLW  0A
05B9A:  MOVLB  6
05B9C:  MOVWF  xBA
05B9E:  MOVLB  0
05BA0:  CALL   1F70
....................    Imprime=10; 
05BA4:  MOVLW  0A
05BA6:  MOVLB  2
05BA8:  MOVWF  xA5
.................... } 
05BAA:  MOVLB  0
05BAC:  RETLW  00
....................  
.................... void ActivaAlarma(int8 Tipo){ 
....................     
....................    if(tsilencio>12000){ 
*
0575C:  MOVLB  2
0575E:  MOVF   x90,W
05760:  SUBLW  2D
05762:  BC    5776
05764:  XORLW  FF
05766:  BNZ   576E
05768:  MOVF   x8F,W
0576A:  SUBLW  E0
0576C:  BC    5776
....................       tsilencio=0; 
0576E:  CLRF   x90
05770:  CLRF   x8F
....................       flagSilencio=OFF; 
05772:  MOVLB  1
05774:  BCF    x05.1
....................    } 
....................     
....................    if(Tipo==1){ // Alarma por Error 
05776:  MOVLB  6
05778:  DECFSZ xA8,W
0577A:  BRA    57B0
....................        
....................       if(!flagSilencio){ 
0577C:  MOVLB  1
0577E:  BTFSC  x05.1
05780:  BRA    57A8
....................          flagAlarma=1; 
05782:  BSF    x04.7
....................          if(tbuzzer>200){ 
05784:  MOVLB  2
05786:  MOVF   x8E,F
05788:  BNZ   5790
0578A:  MOVF   x8D,W
0578C:  SUBLW  C8
0578E:  BC    57A4
....................             tbuzzer=0; 
05790:  CLRF   x8E
05792:  CLRF   x8D
....................             flagBuzzer=!flagBuzzer; 
05794:  MOVLB  1
05796:  BTG    x05.0
....................             if(flagBuzzer) 
05798:  BTFSS  x05.0
0579A:  BRA    57A0
....................                EstadoBuzzer=ON; 
0579C:  BSF    x04.6
....................             else 
0579E:  BRA    57A2
....................                EstadoBuzzer=OFF; 
057A0:  BCF    x04.6
057A2:  MOVLB  2
....................          } 
....................       }else{ 
057A4:  BRA    57AC
057A6:  MOVLB  1
....................          EstadoBuzzer=OFF; 
057A8:  BCF    x04.6
057AA:  MOVLB  2
....................       } 
....................    }else if(Tipo==2){  
057AC:  BRA    57EA
057AE:  MOVLB  6
057B0:  MOVF   xA8,W
057B2:  SUBLW  02
057B4:  BNZ   57EC
....................       flagAlarma=1; 
057B6:  MOVLB  1
057B8:  BSF    x04.7
....................       if(ConteoBuzzer<20){    
057BA:  MOVLB  2
057BC:  MOVF   x88,W
057BE:  SUBLW  13
057C0:  BNC   57E4
....................          if(tbuzzer>100){ 
057C2:  MOVF   x8E,F
057C4:  BNZ   57CC
057C6:  MOVF   x8D,W
057C8:  SUBLW  64
057CA:  BC    57E2
....................             tbuzzer=0; 
057CC:  CLRF   x8E
057CE:  CLRF   x8D
....................             flagBuzzer=!flagBuzzer; 
057D0:  MOVLB  1
057D2:  BTG    x05.0
....................             if(flagBuzzer) 
057D4:  BTFSS  x05.0
057D6:  BRA    57DC
....................                EstadoBuzzer=ON; 
057D8:  BSF    x04.6
....................             else 
057DA:  BRA    57DE
....................                EstadoBuzzer=OFF; 
057DC:  BCF    x04.6
....................                 
....................             ConteoBuzzer++;    
057DE:  MOVLB  2
057E0:  INCF   x88,F
....................          } 
....................       }else{ 
057E2:  BRA    57EA
....................          EstadoBuzzer=OFF; 
057E4:  MOVLB  1
057E6:  BCF    x04.6
057E8:  MOVLB  2
057EA:  MOVLB  6
....................       } 
....................    } 
.................... } 
057EC:  MOVLB  0
057EE:  RETLW  00
....................  
.................... void ControlaPresion(){ 
....................    if(Setpoint>125){ 
*
071A8:  MOVLB  2
071AA:  MOVF   x60,W
071AC:  SUBLW  7D
071AE:  BC    71E0
....................       if(PresionPrecamara>=300){ 
071B0:  MOVF   x74,W
071B2:  SUBLW  00
071B4:  BC    71CA
071B6:  XORLW  FF
071B8:  BNZ   71C0
071BA:  MOVF   x73,W
071BC:  SUBLW  2B
071BE:  BC    71CA
....................          suministroVapor=OFF; 
071C0:  MOVLB  0
071C2:  BCF    xF7.5
....................          Precalentamiento=ON; 
071C4:  MOVLB  1
071C6:  BSF    x06.1
071C8:  MOVLB  2
....................       } 
....................       if(PresionPrecamara<290) 
071CA:  MOVF   x74,W
071CC:  SUBLW  01
071CE:  BNC   71DE
071D0:  BNZ   71D8
071D2:  MOVF   x73,W
071D4:  SUBLW  21
071D6:  BNC   71DE
....................          suministroVapor=ON; 
071D8:  MOVLB  0
071DA:  BSF    xF7.5
071DC:  MOVLB  2
....................    }else{ 
071DE:  BRA    7204
....................       if(PresionPrecamara>=230){ 
071E0:  MOVF   x74,F
071E2:  BNZ   71EA
071E4:  MOVF   x73,W
071E6:  SUBLW  E5
071E8:  BC    71F4
....................          suministroVapor=OFF; 
071EA:  MOVLB  0
071EC:  BCF    xF7.5
....................          Precalentamiento=ON; 
071EE:  MOVLB  1
071F0:  BSF    x06.1
071F2:  MOVLB  2
....................       } 
....................       if(PresionPrecamara<220) 
071F4:  MOVF   x74,F
071F6:  BNZ   7204
071F8:  MOVF   x73,W
071FA:  SUBLW  DB
071FC:  BNC   7204
....................          suministroVapor=ON; 
071FE:  MOVLB  0
07200:  BSF    xF7.5
07202:  MOVLB  2
....................    } 
.................... } 
07204:  MOVLB  0
07206:  RETLW  00
....................  
.................... void GuardaDatoEstatico(){ 
*
06AB0:  MOVLB  6
06AB2:  CLRF   xA9
06AB4:  CLRF   xA8
06AB6:  CLRF   xAB
06AB8:  CLRF   xAA
....................    int16 posCiclo=0,cicloMemoria=0; 
....................    posCiclo=Ciclos/200; 
06ABA:  MOVFF  276,6AD
06ABE:  MOVFF  275,6AC
06AC2:  CLRF   xAF
06AC4:  MOVLW  C8
06AC6:  MOVWF  xAE
06AC8:  MOVLB  0
06ACA:  CALL   5EC0
06ACE:  MOVFF  02,6A9
06AD2:  MOVFF  01,6A8
....................    cicloMemoria=Ciclos-(posCiclo*200); 
06AD6:  MOVFF  6A9,6B3
06ADA:  MOVFF  6A8,6B2
06ADE:  MOVLB  6
06AE0:  CLRF   xB5
06AE2:  MOVLW  C8
06AE4:  MOVWF  xB4
06AE6:  MOVLB  0
06AE8:  CALL   23E2
06AEC:  MOVF   01,W
06AEE:  MOVLB  2
06AF0:  SUBWF  x75,W
06AF2:  MOVLB  6
06AF4:  MOVWF  xAA
06AF6:  MOVF   02,W
06AF8:  MOVLB  2
06AFA:  SUBWFB x76,W
06AFC:  MOVLB  6
06AFE:  MOVWF  xAB
....................    if(!disp_Guarda){ 
06B00:  MOVLB  1
06B02:  BTFSC  x03.4
06B04:  BRA    6C9E
....................       write_ext_eeprom(cicloMemoria*320,codigoUsuario); 
06B06:  MOVFF  6AB,6B3
06B0A:  MOVFF  6AA,6B2
06B0E:  MOVLW  01
06B10:  MOVLB  6
06B12:  MOVWF  xB5
06B14:  MOVLW  40
06B16:  MOVWF  xB4
06B18:  MOVLB  0
06B1A:  CALL   23E2
06B1E:  MOVFF  02,6AD
06B22:  MOVFF  01,6AC
06B26:  MOVFF  02,6B0
06B2A:  MOVFF  01,6AF
06B2E:  MOVFF  2A8,6B1
06B32:  RCALL  699E
....................       delay_ms(10); 
06B34:  MOVLW  0A
06B36:  MOVLB  6
06B38:  MOVWF  xBA
06B3A:  MOVLB  0
06B3C:  CALL   1F70
....................       if(!Libre) 
06B40:  MOVLB  1
06B42:  BTFSC  x05.6
06B44:  BRA    6B80
....................          write_ext_eeprom(1+(cicloMemoria*320),CicloSeleccionado); 
06B46:  MOVFF  6AB,6B3
06B4A:  MOVFF  6AA,6B2
06B4E:  MOVLW  01
06B50:  MOVLB  6
06B52:  MOVWF  xB5
06B54:  MOVLW  40
06B56:  MOVWF  xB4
06B58:  MOVLB  0
06B5A:  CALL   23E2
06B5E:  MOVFF  02,03
06B62:  MOVF   01,W
06B64:  ADDLW  01
06B66:  MOVLB  6
06B68:  MOVWF  xAC
06B6A:  MOVLW  00
06B6C:  ADDWFC 02,W
06B6E:  MOVWF  xAD
06B70:  MOVWF  xB0
06B72:  MOVFF  6AC,6AF
06B76:  MOVFF  258,6B1
06B7A:  MOVLB  0
06B7C:  RCALL  699E
....................       else 
06B7E:  BRA    6BC2
....................          write_ext_eeprom(1+(cicloMemoria*320),CicloLibre+10); 
06B80:  MOVFF  6AB,6B3
06B84:  MOVFF  6AA,6B2
06B88:  MOVLW  01
06B8A:  MOVLB  6
06B8C:  MOVWF  xB5
06B8E:  MOVLW  40
06B90:  MOVWF  xB4
06B92:  MOVLB  0
06B94:  CALL   23E2
06B98:  MOVFF  02,03
06B9C:  MOVF   01,W
06B9E:  ADDLW  01
06BA0:  MOVLB  6
06BA2:  MOVWF  xAC
06BA4:  MOVLW  00
06BA6:  ADDWFC 02,W
06BA8:  MOVWF  xAD
06BAA:  MOVLW  0A
06BAC:  MOVLB  2
06BAE:  ADDWF  x47,W
06BB0:  MOVLB  6
06BB2:  MOVWF  xAE
06BB4:  MOVFF  6AD,6B0
06BB8:  MOVFF  6AC,6AF
06BBC:  MOVWF  xB1
06BBE:  MOVLB  0
06BC0:  RCALL  699E
....................       delay_ms(10); 
06BC2:  MOVLW  0A
06BC4:  MOVLB  6
06BC6:  MOVWF  xBA
06BC8:  MOVLB  0
06BCA:  CALL   1F70
....................       write_ext_eeprom(2+(cicloMemoria*320),Dia); 
06BCE:  MOVFF  6AB,6B3
06BD2:  MOVFF  6AA,6B2
06BD6:  MOVLW  01
06BD8:  MOVLB  6
06BDA:  MOVWF  xB5
06BDC:  MOVLW  40
06BDE:  MOVWF  xB4
06BE0:  MOVLB  0
06BE2:  CALL   23E2
06BE6:  MOVFF  02,03
06BEA:  MOVF   01,W
06BEC:  ADDLW  02
06BEE:  MOVLB  6
06BF0:  MOVWF  xAC
06BF2:  MOVLW  00
06BF4:  ADDWFC 02,W
06BF6:  MOVWF  xAD
06BF8:  MOVWF  xB0
06BFA:  MOVFF  6AC,6AF
06BFE:  MOVFF  293,6B1
06C02:  MOVLB  0
06C04:  RCALL  699E
....................       delay_ms(10); 
06C06:  MOVLW  0A
06C08:  MOVLB  6
06C0A:  MOVWF  xBA
06C0C:  MOVLB  0
06C0E:  CALL   1F70
....................       write_ext_eeprom(3+(cicloMemoria*320),Mes); 
06C12:  MOVFF  6AB,6B3
06C16:  MOVFF  6AA,6B2
06C1A:  MOVLW  01
06C1C:  MOVLB  6
06C1E:  MOVWF  xB5
06C20:  MOVLW  40
06C22:  MOVWF  xB4
06C24:  MOVLB  0
06C26:  CALL   23E2
06C2A:  MOVFF  02,03
06C2E:  MOVF   01,W
06C30:  ADDLW  03
06C32:  MOVLB  6
06C34:  MOVWF  xAC
06C36:  MOVLW  00
06C38:  ADDWFC 02,W
06C3A:  MOVWF  xAD
06C3C:  MOVWF  xB0
06C3E:  MOVFF  6AC,6AF
06C42:  MOVFF  292,6B1
06C46:  MOVLB  0
06C48:  RCALL  699E
....................       delay_ms(10); 
06C4A:  MOVLW  0A
06C4C:  MOVLB  6
06C4E:  MOVWF  xBA
06C50:  MOVLB  0
06C52:  CALL   1F70
....................       write_ext_eeprom(4+(cicloMemoria*320),Year); 
06C56:  MOVFF  6AB,6B3
06C5A:  MOVFF  6AA,6B2
06C5E:  MOVLW  01
06C60:  MOVLB  6
06C62:  MOVWF  xB5
06C64:  MOVLW  40
06C66:  MOVWF  xB4
06C68:  MOVLB  0
06C6A:  CALL   23E2
06C6E:  MOVFF  02,03
06C72:  MOVF   01,W
06C74:  ADDLW  04
06C76:  MOVLB  6
06C78:  MOVWF  xAC
06C7A:  MOVLW  00
06C7C:  ADDWFC 02,W
06C7E:  MOVWF  xAD
06C80:  MOVWF  xB0
06C82:  MOVFF  6AC,6AF
06C86:  MOVFF  291,6B1
06C8A:  MOVLB  0
06C8C:  RCALL  699E
....................       delay_ms(10);  
06C8E:  MOVLW  0A
06C90:  MOVLB  6
06C92:  MOVWF  xBA
06C94:  MOVLB  0
06C96:  CALL   1F70
....................       disp_Guarda=1; 
06C9A:  MOVLB  1
06C9C:  BSF    x03.4
....................    }    
.................... } 
06C9E:  MOVLB  0
06CA0:  GOTO   C870 (RETURN)
....................  
.................... void GuardaDatoCiclo(){ 
*
06D6E:  MOVLB  6
06D70:  CLRF   xA9
06D72:  CLRF   xA8
06D74:  CLRF   xAB
06D76:  CLRF   xAA
....................    int16 posCiclo=0,cicloMemoria=0; 
....................    posCiclo=Ciclos/200; 
06D78:  MOVFF  276,6AD
06D7C:  MOVFF  275,6AC
06D80:  CLRF   xAF
06D82:  MOVLW  C8
06D84:  MOVWF  xAE
06D86:  MOVLB  0
06D88:  CALL   5EC0
06D8C:  MOVFF  02,6A9
06D90:  MOVFF  01,6A8
....................    if(!Ciclo){ 
06D94:  MOVLB  1
06D96:  BTFSC  x03.5
06D98:  BRA    7112
....................       cicloMemoria=Ciclos-(posCiclo*200); 
06D9A:  MOVFF  6A9,6B3
06D9E:  MOVFF  6A8,6B2
06DA2:  MOVLB  6
06DA4:  CLRF   xB5
06DA6:  MOVLW  C8
06DA8:  MOVWF  xB4
06DAA:  MOVLB  0
06DAC:  CALL   23E2
06DB0:  MOVF   01,W
06DB2:  MOVLB  2
06DB4:  SUBWF  x75,W
06DB6:  MOVLB  6
06DB8:  MOVWF  xAA
06DBA:  MOVF   02,W
06DBC:  MOVLB  2
06DBE:  SUBWFB x76,W
06DC0:  MOVLB  6
06DC2:  MOVWF  xAB
....................       write_ext_eeprom(5+(cicloMemoria*320)+(posicionDato*9),(int8)Temperatura); 
06DC4:  MOVFF  6AB,6B3
06DC8:  MOVFF  6AA,6B2
06DCC:  MOVLW  01
06DCE:  MOVWF  xB5
06DD0:  MOVLW  40
06DD2:  MOVWF  xB4
06DD4:  MOVLB  0
06DD6:  CALL   23E2
06DDA:  MOVFF  02,03
06DDE:  MOVF   01,W
06DE0:  ADDLW  05
06DE2:  MOVLB  6
06DE4:  MOVWF  xAC
06DE6:  MOVLW  00
06DE8:  ADDWFC 02,W
06DEA:  MOVWF  xAD
06DEC:  MOVLB  2
06DEE:  MOVF   x89,W
06DF0:  MULLW  09
06DF2:  MOVF   FF3,W
06DF4:  MOVLB  6
06DF6:  ADDWF  xAC,F
06DF8:  MOVLW  00
06DFA:  ADDWFC xAD,F
06DFC:  MOVFF  234,6BD
06E00:  MOVFF  233,6BC
06E04:  MOVFF  232,6BB
06E08:  MOVFF  231,6BA
06E0C:  MOVLB  0
06E0E:  CALL   4C80
06E12:  MOVFF  01,6AE
06E16:  MOVFF  6AD,6B0
06E1A:  MOVFF  6AC,6AF
06E1E:  MOVFF  01,6B1
06E22:  RCALL  699E
....................       delay_ms(10); 
06E24:  MOVLW  0A
06E26:  MOVLB  6
06E28:  MOVWF  xBA
06E2A:  MOVLB  0
06E2C:  CALL   1F70
....................       write_ext_eeprom(6+(cicloMemoria*320)+(posicionDato*9),extraeDecimal(Temperatura)); 
06E30:  MOVFF  6AB,6B3
06E34:  MOVFF  6AA,6B2
06E38:  MOVLW  01
06E3A:  MOVLB  6
06E3C:  MOVWF  xB5
06E3E:  MOVLW  40
06E40:  MOVWF  xB4
06E42:  MOVLB  0
06E44:  CALL   23E2
06E48:  MOVFF  02,03
06E4C:  MOVF   01,W
06E4E:  ADDLW  06
06E50:  MOVLB  6
06E52:  MOVWF  xAC
06E54:  MOVLW  00
06E56:  ADDWFC 02,W
06E58:  MOVWF  xAD
06E5A:  MOVLB  2
06E5C:  MOVF   x89,W
06E5E:  MULLW  09
06E60:  MOVF   FF3,W
06E62:  MOVLB  6
06E64:  ADDWF  xAC,F
06E66:  MOVLW  00
06E68:  ADDWFC xAD,F
06E6A:  MOVFF  234,6B1
06E6E:  MOVFF  233,6B0
06E72:  MOVFF  232,6AF
06E76:  MOVFF  231,6AE
06E7A:  MOVLB  0
06E7C:  BRA    6CA4
06E7E:  MOVFF  01,6AE
06E82:  MOVFF  6AD,6B0
06E86:  MOVFF  6AC,6AF
06E8A:  MOVFF  01,6B1
06E8E:  RCALL  699E
....................       delay_ms(10); 
06E90:  MOVLW  0A
06E92:  MOVLB  6
06E94:  MOVWF  xBA
06E96:  MOVLB  0
06E98:  CALL   1F70
....................       write_ext_eeprom(7+(cicloMemoria*320)+(posicionDato*9),make8(PresionCamara,1)); 
06E9C:  MOVFF  6AB,6B3
06EA0:  MOVFF  6AA,6B2
06EA4:  MOVLW  01
06EA6:  MOVLB  6
06EA8:  MOVWF  xB5
06EAA:  MOVLW  40
06EAC:  MOVWF  xB4
06EAE:  MOVLB  0
06EB0:  CALL   23E2
06EB4:  MOVFF  02,03
06EB8:  MOVF   01,W
06EBA:  ADDLW  07
06EBC:  MOVLB  6
06EBE:  MOVWF  xAC
06EC0:  MOVLW  00
06EC2:  ADDWFC 02,W
06EC4:  MOVWF  xAD
06EC6:  MOVLB  2
06EC8:  MOVF   x89,W
06ECA:  MULLW  09
06ECC:  MOVF   FF3,W
06ECE:  MOVLB  6
06ED0:  ADDWF  xAC,F
06ED2:  MOVLW  00
06ED4:  ADDWFC xAD,F
06ED6:  MOVFF  272,6AE
06EDA:  MOVFF  6AD,6B0
06EDE:  MOVFF  6AC,6AF
06EE2:  MOVFF  272,6B1
06EE6:  MOVLB  0
06EE8:  RCALL  699E
....................       delay_ms(10); 
06EEA:  MOVLW  0A
06EEC:  MOVLB  6
06EEE:  MOVWF  xBA
06EF0:  MOVLB  0
06EF2:  CALL   1F70
....................       write_ext_eeprom(8+(cicloMemoria*320)+(posicionDato*9),make8(PresionCamara,0)); 
06EF6:  MOVFF  6AB,6B3
06EFA:  MOVFF  6AA,6B2
06EFE:  MOVLW  01
06F00:  MOVLB  6
06F02:  MOVWF  xB5
06F04:  MOVLW  40
06F06:  MOVWF  xB4
06F08:  MOVLB  0
06F0A:  CALL   23E2
06F0E:  MOVFF  02,03
06F12:  MOVF   01,W
06F14:  ADDLW  08
06F16:  MOVLB  6
06F18:  MOVWF  xAC
06F1A:  MOVLW  00
06F1C:  ADDWFC 02,W
06F1E:  MOVWF  xAD
06F20:  MOVLB  2
06F22:  MOVF   x89,W
06F24:  MULLW  09
06F26:  MOVF   FF3,W
06F28:  MOVLB  6
06F2A:  ADDWF  xAC,F
06F2C:  MOVLW  00
06F2E:  ADDWFC xAD,F
06F30:  MOVFF  271,6AE
06F34:  MOVFF  6AD,6B0
06F38:  MOVFF  6AC,6AF
06F3C:  MOVFF  271,6B1
06F40:  MOVLB  0
06F42:  RCALL  699E
....................       delay_ms(10); 
06F44:  MOVLW  0A
06F46:  MOVLB  6
06F48:  MOVWF  xBA
06F4A:  MOVLB  0
06F4C:  CALL   1F70
....................       write_ext_eeprom(9+(cicloMemoria*320)+(posicionDato*9),make8(PresionPreCamara,1)); 
06F50:  MOVFF  6AB,6B3
06F54:  MOVFF  6AA,6B2
06F58:  MOVLW  01
06F5A:  MOVLB  6
06F5C:  MOVWF  xB5
06F5E:  MOVLW  40
06F60:  MOVWF  xB4
06F62:  MOVLB  0
06F64:  CALL   23E2
06F68:  MOVFF  02,03
06F6C:  MOVF   01,W
06F6E:  ADDLW  09
06F70:  MOVLB  6
06F72:  MOVWF  xAC
06F74:  MOVLW  00
06F76:  ADDWFC 02,W
06F78:  MOVWF  xAD
06F7A:  MOVLB  2
06F7C:  MOVF   x89,W
06F7E:  MULLW  09
06F80:  MOVF   FF3,W
06F82:  MOVLB  6
06F84:  ADDWF  xAC,F
06F86:  MOVLW  00
06F88:  ADDWFC xAD,F
06F8A:  MOVFF  274,6AE
06F8E:  MOVFF  6AD,6B0
06F92:  MOVFF  6AC,6AF
06F96:  MOVFF  274,6B1
06F9A:  MOVLB  0
06F9C:  RCALL  699E
....................       delay_ms(10); 
06F9E:  MOVLW  0A
06FA0:  MOVLB  6
06FA2:  MOVWF  xBA
06FA4:  MOVLB  0
06FA6:  CALL   1F70
....................       write_ext_eeprom(10+(cicloMemoria*320)+(posicionDato*9),make8(PresionPreCamara,0)); 
06FAA:  MOVFF  6AB,6B3
06FAE:  MOVFF  6AA,6B2
06FB2:  MOVLW  01
06FB4:  MOVLB  6
06FB6:  MOVWF  xB5
06FB8:  MOVLW  40
06FBA:  MOVWF  xB4
06FBC:  MOVLB  0
06FBE:  CALL   23E2
06FC2:  MOVFF  02,03
06FC6:  MOVF   01,W
06FC8:  ADDLW  0A
06FCA:  MOVLB  6
06FCC:  MOVWF  xAC
06FCE:  MOVLW  00
06FD0:  ADDWFC 02,W
06FD2:  MOVWF  xAD
06FD4:  MOVLB  2
06FD6:  MOVF   x89,W
06FD8:  MULLW  09
06FDA:  MOVF   FF3,W
06FDC:  MOVLB  6
06FDE:  ADDWF  xAC,F
06FE0:  MOVLW  00
06FE2:  ADDWFC xAD,F
06FE4:  MOVFF  273,6AE
06FE8:  MOVFF  6AD,6B0
06FEC:  MOVFF  6AC,6AF
06FF0:  MOVFF  273,6B1
06FF4:  MOVLB  0
06FF6:  RCALL  699E
....................       delay_ms(10); 
06FF8:  MOVLW  0A
06FFA:  MOVLB  6
06FFC:  MOVWF  xBA
06FFE:  MOVLB  0
07000:  CALL   1F70
....................       write_ext_eeprom(11+(cicloMemoria*320)+(posicionDato*9),Hora); 
07004:  MOVFF  6AB,6B3
07008:  MOVFF  6AA,6B2
0700C:  MOVLW  01
0700E:  MOVLB  6
07010:  MOVWF  xB5
07012:  MOVLW  40
07014:  MOVWF  xB4
07016:  MOVLB  0
07018:  CALL   23E2
0701C:  MOVFF  02,03
07020:  MOVF   01,W
07022:  ADDLW  0B
07024:  MOVLB  6
07026:  MOVWF  xAC
07028:  MOVLW  00
0702A:  ADDWFC 02,W
0702C:  MOVWF  xAD
0702E:  MOVLB  2
07030:  MOVF   x89,W
07032:  MULLW  09
07034:  MOVF   FF3,W
07036:  MOVLB  6
07038:  ADDWF  xAC,F
0703A:  MOVLW  00
0703C:  ADDWFC xAD,F
0703E:  MOVFF  6AD,6B0
07042:  MOVFF  6AC,6AF
07046:  MOVFF  294,6B1
0704A:  MOVLB  0
0704C:  RCALL  699E
....................       delay_ms(10); 
0704E:  MOVLW  0A
07050:  MOVLB  6
07052:  MOVWF  xBA
07054:  MOVLB  0
07056:  CALL   1F70
....................       write_ext_eeprom(12+(cicloMemoria*320)+(posicionDato*9),Minuto); 
0705A:  MOVFF  6AB,6B3
0705E:  MOVFF  6AA,6B2
07062:  MOVLW  01
07064:  MOVLB  6
07066:  MOVWF  xB5
07068:  MOVLW  40
0706A:  MOVWF  xB4
0706C:  MOVLB  0
0706E:  CALL   23E2
07072:  MOVFF  02,03
07076:  MOVF   01,W
07078:  ADDLW  0C
0707A:  MOVLB  6
0707C:  MOVWF  xAC
0707E:  MOVLW  00
07080:  ADDWFC 02,W
07082:  MOVWF  xAD
07084:  MOVLB  2
07086:  MOVF   x89,W
07088:  MULLW  09
0708A:  MOVF   FF3,W
0708C:  MOVLB  6
0708E:  ADDWF  xAC,F
07090:  MOVLW  00
07092:  ADDWFC xAD,F
07094:  MOVFF  6AD,6B0
07098:  MOVFF  6AC,6AF
0709C:  MOVFF  295,6B1
070A0:  MOVLB  0
070A2:  RCALL  699E
....................       delay_ms(10); 
070A4:  MOVLW  0A
070A6:  MOVLB  6
070A8:  MOVWF  xBA
070AA:  MOVLB  0
070AC:  CALL   1F70
....................       write_ext_eeprom(13+(cicloMemoria*320)+(posicionDato*9),codigoAlarma); 
070B0:  MOVFF  6AB,6B3
070B4:  MOVFF  6AA,6B2
070B8:  MOVLW  01
070BA:  MOVLB  6
070BC:  MOVWF  xB5
070BE:  MOVLW  40
070C0:  MOVWF  xB4
070C2:  MOVLB  0
070C4:  CALL   23E2
070C8:  MOVFF  02,03
070CC:  MOVF   01,W
070CE:  ADDLW  0D
070D0:  MOVLB  6
070D2:  MOVWF  xAC
070D4:  MOVLW  00
070D6:  ADDWFC 02,W
070D8:  MOVWF  xAD
070DA:  MOVLB  2
070DC:  MOVF   x89,W
070DE:  MULLW  09
070E0:  MOVF   FF3,W
070E2:  MOVLB  6
070E4:  ADDWF  xAC,F
070E6:  MOVLW  00
070E8:  ADDWFC xAD,F
070EA:  MOVFF  6AD,6B0
070EE:  MOVFF  6AC,6AF
070F2:  MOVFF  28A,6B1
070F6:  MOVLB  0
070F8:  RCALL  699E
....................       delay_ms(10); 
070FA:  MOVLW  0A
070FC:  MOVLB  6
070FE:  MOVWF  xBA
07100:  MOVLB  0
07102:  CALL   1F70
....................     
....................       if(posicionDato<35) 
07106:  MOVLB  2
07108:  MOVF   x89,W
0710A:  SUBLW  22
0710C:  BNC   7110
....................          ++posicionDato; 
0710E:  INCF   x89,F
07110:  MOVLB  1
....................    } 
.................... } 
07112:  MOVLB  0
07114:  RETLW  00
....................  
.................... void incrementaCiclos(){ 
....................    if(!Ciclo){ 
07116:  MOVLB  1
07118:  BTFSC  x03.5
0711A:  BRA    71A4
....................       Ciclo=ON; 
0711C:  BSF    x03.5
....................       Ciclos++; 
0711E:  MOVLB  2
07120:  INCF   x75,F
07122:  BTFSC  FD8.2
07124:  INCF   x76,F
....................       CiclosL=make8(Ciclos,0); 
07126:  MOVFF  275,256
....................       CiclosH=make8(Ciclos,1); 
0712A:  MOVFF  276,257
....................       write_eeprom(37,CiclosL); 
0712E:  CLRF   FAA
07130:  MOVLW  25
07132:  MOVWF  FA9
07134:  MOVFF  256,FA8
07138:  BCF    FA6.6
0713A:  BCF    FA6.7
0713C:  BSF    FA6.2
0713E:  MOVF   FF2,W
07140:  MOVWF  00
07142:  BCF    FF2.6
07144:  BCF    FF2.7
07146:  MOVLB  F
07148:  MOVLW  55
0714A:  MOVWF  FA7
0714C:  MOVLW  AA
0714E:  MOVWF  FA7
07150:  BSF    FA6.1
07152:  BTFSC  FA6.1
07154:  BRA    7152
07156:  BCF    FA6.2
07158:  MOVF   00,W
0715A:  IORWF  FF2,F
....................       delay_ms(20); 
0715C:  MOVLW  14
0715E:  MOVLB  6
07160:  MOVWF  xBA
07162:  MOVLB  0
07164:  CALL   1F70
....................       write_eeprom(38,CiclosH); 
07168:  CLRF   FAA
0716A:  MOVLW  26
0716C:  MOVWF  FA9
0716E:  MOVFF  257,FA8
07172:  BCF    FA6.6
07174:  BCF    FA6.7
07176:  BSF    FA6.2
07178:  MOVF   FF2,W
0717A:  MOVWF  00
0717C:  BCF    FF2.6
0717E:  BCF    FF2.7
07180:  MOVLB  F
07182:  MOVLW  55
07184:  MOVWF  FA7
07186:  MOVLW  AA
07188:  MOVWF  FA7
0718A:  BSF    FA6.1
0718C:  BTFSC  FA6.1
0718E:  BRA    718C
07190:  BCF    FA6.2
07192:  MOVF   00,W
07194:  IORWF  FF2,F
....................       delay_ms(20); 
07196:  MOVLW  14
07198:  MOVLB  6
0719A:  MOVWF  xBA
0719C:  MOVLB  0
0719E:  CALL   1F70
071A2:  MOVLB  1
....................    } 
.................... } 
071A4:  MOVLB  0
071A6:  RETLW  00
....................  
.................... void exportarData(){ 
*
060D8:  MOVLB  6
060DA:  CLRF   xA9
060DC:  CLRF   xA8
060DE:  CLRF   xAA
.................... int16 posicion=0; 
.................... int8 tmp=0; 
.................... posicion=40; 
060E0:  CLRF   xA9
060E2:  MOVLW  28
060E4:  MOVWF  xA8
.................... direccion=0xB0; 
060E6:  MOVLW  B0
060E8:  MOVLB  0
060EA:  MOVWF  xDD
.................... //Buzzer_on; 
.................... //Inicio de Transmision 
.................... i2c_start();            // Comienzo comunicacin 
060EC:  BSF    F94.4
060EE:  MOVLW  05
060F0:  MOVWF  00
060F2:  DECFSZ 00,F
060F4:  BRA    60F2
060F6:  BSF    F94.3
060F8:  MOVLW  06
060FA:  MOVWF  00
060FC:  DECFSZ 00,F
060FE:  BRA    60FC
06100:  BCF    F8B.4
06102:  BCF    F94.4
06104:  MOVLW  05
06106:  MOVWF  00
06108:  DECFSZ 00,F
0610A:  BRA    6108
0610C:  BCF    F8B.3
0610E:  BCF    F94.3
.................... i2c_write(direccion);   // Direccin del esclavo en el bus I2C 
06110:  MOVFF  DD,6BE
06114:  CALL   2404
.................... i2c_write(make8(posicion,0));    // Posicin donde se guardara el dato transmitido 
06118:  MOVFF  6A8,6AB
0611C:  MOVFF  6A8,6BE
06120:  CALL   2404
.................... i2c_write(make8(posicion,1));    // Posicin donde se guardara el dato transmitido 
06124:  MOVFF  6A9,6AB
06128:  MOVFF  6A9,6BE
0612C:  CALL   2404
.................... i2c_write(0xff);        // Dato a transmitir 
06130:  MOVLW  FF
06132:  MOVLB  6
06134:  MOVWF  xBE
06136:  MOVLB  0
06138:  CALL   2404
.................... i2c_stop(); 
0613C:  BCF    F94.4
0613E:  NOP   
06140:  BSF    F94.3
06142:  BTFSS  F82.3
06144:  BRA    6142
06146:  MOVLW  05
06148:  MOVWF  00
0614A:  DECFSZ 00,F
0614C:  BRA    614A
0614E:  BRA    6150
06150:  NOP   
06152:  BSF    F94.4
06154:  MOVLW  05
06156:  MOVWF  00
06158:  DECFSZ 00,F
0615A:  BRA    6158
.................... ++posicion; 
0615C:  MOVLB  6
0615E:  INCF   xA8,F
06160:  BTFSC  FD8.2
06162:  INCF   xA9,F
.................... i2c_start();            // Comienzo comunicacin 
06164:  BSF    F94.4
06166:  MOVLW  05
06168:  MOVWF  00
0616A:  DECFSZ 00,F
0616C:  BRA    616A
0616E:  BSF    F94.3
06170:  MOVLW  06
06172:  MOVWF  00
06174:  DECFSZ 00,F
06176:  BRA    6174
06178:  BCF    F8B.4
0617A:  BCF    F94.4
0617C:  MOVLW  05
0617E:  MOVWF  00
06180:  DECFSZ 00,F
06182:  BRA    6180
06184:  BCF    F8B.3
06186:  BCF    F94.3
.................... i2c_write(direccion);   // Direccin del esclavo en el bus I2C 
06188:  MOVFF  DD,6BE
0618C:  MOVLB  0
0618E:  CALL   2404
.................... i2c_write(make8(posicion,0));    // Posicin donde se guardara el dato transmitido 
06192:  MOVFF  6A8,6AB
06196:  MOVFF  6A8,6BE
0619A:  CALL   2404
.................... i2c_write(make8(posicion,1));    // Posicin donde se guardara el dato transmitido 
0619E:  MOVFF  6A9,6AB
061A2:  MOVFF  6A9,6BE
061A6:  CALL   2404
.................... i2c_write(0xff);        // Dato a transmitir 
061AA:  MOVLW  FF
061AC:  MOVLB  6
061AE:  MOVWF  xBE
061B0:  MOVLB  0
061B2:  CALL   2404
.................... i2c_stop(); 
061B6:  BCF    F94.4
061B8:  NOP   
061BA:  BSF    F94.3
061BC:  BTFSS  F82.3
061BE:  BRA    61BC
061C0:  MOVLW  05
061C2:  MOVWF  00
061C4:  DECFSZ 00,F
061C6:  BRA    61C4
061C8:  BRA    61CA
061CA:  NOP   
061CC:  BSF    F94.4
061CE:  MOVLW  05
061D0:  MOVWF  00
061D2:  DECFSZ 00,F
061D4:  BRA    61D2
.................... ++posicion; 
061D6:  MOVLB  6
061D8:  INCF   xA8,F
061DA:  BTFSC  FD8.2
061DC:  INCF   xA9,F
.................... //Se envian 2 veces ff para indicar que se inicia la transmision. 
....................  
....................    for(i=0;i<5;i++){ 
061DE:  MOVLB  2
061E0:  CLRF   x55
061E2:  MOVF   x55,W
061E4:  SUBLW  04
061E6:  BNC   629E
....................       tmp=read_ext_eeprom((cicloVisto*320)+i); 
061E8:  MOVLB  6
061EA:  CLRF   xB3
061EC:  MOVFF  299,6B2
061F0:  MOVLW  01
061F2:  MOVWF  xB5
061F4:  MOVLW  40
061F6:  MOVWF  xB4
061F8:  MOVLB  0
061FA:  CALL   23E2
061FE:  MOVFF  02,6AC
06202:  MOVFF  01,6AB
06206:  MOVLB  2
06208:  MOVF   x55,W
0620A:  MOVLB  6
0620C:  ADDWF  xAB,F
0620E:  MOVLW  00
06210:  ADDWFC xAC,F
06212:  MOVFF  6AC,6AE
06216:  MOVFF  6AB,6AD
0621A:  MOVLB  0
0621C:  CALL   24E4
06220:  MOVFF  01,6AA
....................       //if(tmp>250) 
....................       //   tmp=20; 
....................       i2c_start();            // Comienzo comunicacin 
06224:  BSF    F94.4
06226:  MOVLW  05
06228:  MOVWF  00
0622A:  DECFSZ 00,F
0622C:  BRA    622A
0622E:  BSF    F94.3
06230:  MOVLW  06
06232:  MOVWF  00
06234:  DECFSZ 00,F
06236:  BRA    6234
06238:  BCF    F8B.4
0623A:  BCF    F94.4
0623C:  MOVLW  05
0623E:  MOVWF  00
06240:  DECFSZ 00,F
06242:  BRA    6240
06244:  BCF    F8B.3
06246:  BCF    F94.3
....................       i2c_write(direccion);   // Direccin del esclavo en el bus I2C 
06248:  MOVFF  DD,6BE
0624C:  CALL   2404
....................       i2c_write(make8(posicion,0));    // Posicin donde se guardara el dato transmitido 
06250:  MOVFF  6A8,6AB
06254:  MOVFF  6A8,6BE
06258:  CALL   2404
....................       i2c_write(make8(posicion,1));    // Posicin donde se guardara el dato transmitido 
0625C:  MOVFF  6A9,6AB
06260:  MOVFF  6A9,6BE
06264:  CALL   2404
....................       i2c_write(tmp);        // Dato a transmitir 
06268:  MOVFF  6AA,6BE
0626C:  CALL   2404
....................       i2c_stop();  
06270:  BCF    F94.4
06272:  NOP   
06274:  BSF    F94.3
06276:  BTFSS  F82.3
06278:  BRA    6276
0627A:  MOVLW  05
0627C:  MOVWF  00
0627E:  DECFSZ 00,F
06280:  BRA    627E
06282:  BRA    6284
06284:  NOP   
06286:  BSF    F94.4
06288:  MOVLW  05
0628A:  MOVWF  00
0628C:  DECFSZ 00,F
0628E:  BRA    628C
....................       ++posicion; 
06290:  MOVLB  6
06292:  INCF   xA8,F
06294:  BTFSC  FD8.2
06296:  INCF   xA9,F
....................    } 
06298:  MOVLB  2
0629A:  INCF   x55,F
0629C:  BRA    61E2
....................    for(i=0;i<35;i++){//Lee Valores para completar la Tabla 
0629E:  CLRF   x55
062A0:  MOVF   x55,W
062A2:  SUBLW  22
062A4:  BNC   637A
....................       for(j=5;j<14;j++){//Lee Valores para completar la Tabla 
062A6:  MOVLW  05
062A8:  MOVWF  xA7
062AA:  MOVF   xA7,W
062AC:  SUBLW  0D
062AE:  BNC   6376
....................          tmp=read_ext_eeprom((cicloVisto*320)+j+(i*9)); 
062B0:  MOVLB  6
062B2:  CLRF   xB3
062B4:  MOVFF  299,6B2
062B8:  MOVLW  01
062BA:  MOVWF  xB5
062BC:  MOVLW  40
062BE:  MOVWF  xB4
062C0:  MOVLB  0
062C2:  CALL   23E2
062C6:  MOVFF  02,6AC
062CA:  MOVFF  01,6AB
062CE:  MOVLB  2
062D0:  MOVF   xA7,W
062D2:  MOVLB  6
062D4:  ADDWF  xAB,F
062D6:  MOVLW  00
062D8:  ADDWFC xAC,F
062DA:  MOVLB  2
062DC:  MOVF   x55,W
062DE:  MULLW  09
062E0:  MOVF   FF3,W
062E2:  MOVLB  6
062E4:  ADDWF  xAB,F
062E6:  MOVLW  00
062E8:  ADDWFC xAC,F
062EA:  MOVFF  6AC,6AE
062EE:  MOVFF  6AB,6AD
062F2:  MOVLB  0
062F4:  CALL   24E4
062F8:  MOVFF  01,6AA
....................          //if(tmp>250) 
....................          //   tmp=20; 
....................          i2c_start();            // Comienzo comunicacin 
062FC:  BSF    F94.4
062FE:  MOVLW  05
06300:  MOVWF  00
06302:  DECFSZ 00,F
06304:  BRA    6302
06306:  BSF    F94.3
06308:  MOVLW  06
0630A:  MOVWF  00
0630C:  DECFSZ 00,F
0630E:  BRA    630C
06310:  BCF    F8B.4
06312:  BCF    F94.4
06314:  MOVLW  05
06316:  MOVWF  00
06318:  DECFSZ 00,F
0631A:  BRA    6318
0631C:  BCF    F8B.3
0631E:  BCF    F94.3
....................          i2c_write(direccion);   // Direccin del esclavo en el bus I2C 
06320:  MOVFF  DD,6BE
06324:  CALL   2404
....................          i2c_write(make8(posicion,0));    // Posicin donde se guardara el dato transmitido 
06328:  MOVFF  6A8,6AB
0632C:  MOVFF  6A8,6BE
06330:  CALL   2404
....................          i2c_write(make8(posicion,1));    // Posicin donde se guardara el dato transmitido 
06334:  MOVFF  6A9,6AB
06338:  MOVFF  6A9,6BE
0633C:  CALL   2404
....................          i2c_write(tmp);        // Dato a transmitir 
06340:  MOVFF  6AA,6BE
06344:  CALL   2404
....................          i2c_stop();  
06348:  BCF    F94.4
0634A:  NOP   
0634C:  BSF    F94.3
0634E:  BTFSS  F82.3
06350:  BRA    634E
06352:  MOVLW  05
06354:  MOVWF  00
06356:  DECFSZ 00,F
06358:  BRA    6356
0635A:  BRA    635C
0635C:  NOP   
0635E:  BSF    F94.4
06360:  MOVLW  05
06362:  MOVWF  00
06364:  DECFSZ 00,F
06366:  BRA    6364
....................          ++posicion; 
06368:  MOVLB  6
0636A:  INCF   xA8,F
0636C:  BTFSC  FD8.2
0636E:  INCF   xA9,F
....................       } 
06370:  MOVLB  2
06372:  INCF   xA7,F
06374:  BRA    62AA
....................    } 
06376:  INCF   x55,F
06378:  BRA    62A0
....................  
.................... //Fin de Transmision 
.................... i2c_start();            // Comienzo comunicacin 
0637A:  BSF    F94.4
0637C:  MOVLW  05
0637E:  MOVWF  00
06380:  DECFSZ 00,F
06382:  BRA    6380
06384:  BSF    F94.3
06386:  MOVLW  06
06388:  MOVWF  00
0638A:  DECFSZ 00,F
0638C:  BRA    638A
0638E:  BCF    F8B.4
06390:  BCF    F94.4
06392:  MOVLW  05
06394:  MOVWF  00
06396:  DECFSZ 00,F
06398:  BRA    6396
0639A:  BCF    F8B.3
0639C:  BCF    F94.3
.................... i2c_write(direccion);   // Direccin del esclavo en el bus I2C 
0639E:  MOVFF  DD,6BE
063A2:  MOVLB  0
063A4:  CALL   2404
.................... i2c_write(make8(posicion,0));    // Posicin donde se guardara el dato transmitido 
063A8:  MOVFF  6A8,6AB
063AC:  MOVFF  6A8,6BE
063B0:  CALL   2404
.................... i2c_write(make8(posicion,1));    // Posicin donde se guardara el dato transmitido 
063B4:  MOVFF  6A9,6AB
063B8:  MOVFF  6A9,6BE
063BC:  CALL   2404
.................... i2c_write(0x1f);        // Dato a transmitir 
063C0:  MOVLW  1F
063C2:  MOVLB  6
063C4:  MOVWF  xBE
063C6:  MOVLB  0
063C8:  CALL   2404
.................... i2c_stop(); 
063CC:  BCF    F94.4
063CE:  NOP   
063D0:  BSF    F94.3
063D2:  BTFSS  F82.3
063D4:  BRA    63D2
063D6:  MOVLW  05
063D8:  MOVWF  00
063DA:  DECFSZ 00,F
063DC:  BRA    63DA
063DE:  BRA    63E0
063E0:  NOP   
063E2:  BSF    F94.4
063E4:  MOVLW  05
063E6:  MOVWF  00
063E8:  DECFSZ 00,F
063EA:  BRA    63E8
.................... ++posicion; 
063EC:  MOVLB  6
063EE:  INCF   xA8,F
063F0:  BTFSC  FD8.2
063F2:  INCF   xA9,F
.................... i2c_start();            // Comienzo comunicacin 
063F4:  BSF    F94.4
063F6:  MOVLW  05
063F8:  MOVWF  00
063FA:  DECFSZ 00,F
063FC:  BRA    63FA
063FE:  BSF    F94.3
06400:  MOVLW  06
06402:  MOVWF  00
06404:  DECFSZ 00,F
06406:  BRA    6404
06408:  BCF    F8B.4
0640A:  BCF    F94.4
0640C:  MOVLW  05
0640E:  MOVWF  00
06410:  DECFSZ 00,F
06412:  BRA    6410
06414:  BCF    F8B.3
06416:  BCF    F94.3
.................... i2c_write(direccion);   // Direccin del esclavo en el bus I2C 
06418:  MOVFF  DD,6BE
0641C:  MOVLB  0
0641E:  CALL   2404
.................... i2c_write(make8(posicion,0));    // Posicin donde se guardara el dato transmitido 
06422:  MOVFF  6A8,6AB
06426:  MOVFF  6A8,6BE
0642A:  CALL   2404
.................... i2c_write(make8(posicion,1));    // Posicin donde se guardara el dato transmitido 
0642E:  MOVFF  6A9,6AB
06432:  MOVFF  6A9,6BE
06436:  CALL   2404
.................... i2c_write(0x1f);        // Dato a transmitir 
0643A:  MOVLW  1F
0643C:  MOVLB  6
0643E:  MOVWF  xBE
06440:  MOVLB  0
06442:  CALL   2404
.................... i2c_stop(); 
06446:  BCF    F94.4
06448:  NOP   
0644A:  BSF    F94.3
0644C:  BTFSS  F82.3
0644E:  BRA    644C
06450:  MOVLW  05
06452:  MOVWF  00
06454:  DECFSZ 00,F
06456:  BRA    6454
06458:  BRA    645A
0645A:  NOP   
0645C:  BSF    F94.4
0645E:  MOVLW  05
06460:  MOVWF  00
06462:  DECFSZ 00,F
06464:  BRA    6462
.................... ++posicion; 
06466:  MOVLB  6
06468:  INCF   xA8,F
0646A:  BTFSC  FD8.2
0646C:  INCF   xA9,F
.................... //Se envian 2 veces 1f para indicar que se inicia la transmision. 
.................... delay_ms(200); 
0646E:  MOVLW  C8
06470:  MOVWF  xBA
06472:  MOVLB  0
06474:  CALL   1F70
.................... //Buzzer_off; 
.................... } 
06478:  GOTO   B90C (RETURN)
....................  
.................... void codificaAlarma(){ 
....................    if(ACiclos[i]==0){ 
0647C:  CLRF   03
0647E:  MOVLB  2
06480:  MOVF   x55,W
06482:  ADDLW  08
06484:  MOVWF  FE9
06486:  MOVLW  03
06488:  ADDWFC 03,W
0648A:  MOVWF  FEA
0648C:  MOVF   FEF,F
0648E:  BNZ   64CE
....................       printf("A%u.txt=\"----\"",i+1); 
06490:  MOVLW  01
06492:  ADDWF  x55,W
06494:  MOVLB  6
06496:  MOVWF  xA8
06498:  MOVLW  41
0649A:  BTFSS  F9E.4
0649C:  BRA    649A
0649E:  MOVWF  FAD
064A0:  MOVFF  6A8,6AD
064A4:  MOVLW  1B
064A6:  MOVWF  xAE
064A8:  MOVLB  0
064AA:  CALL   5AB6
064AE:  MOVLW  07
064B0:  MOVWF  FF6
064B2:  MOVLW  04
064B4:  MOVWF  FF7
064B6:  MOVLW  00
064B8:  MOVWF  FF8
064BA:  MOVLW  0B
064BC:  MOVLB  6
064BE:  MOVWF  xAD
064C0:  MOVLB  0
064C2:  CALL   5A32
....................       SendDataDisplay(); 
064C6:  CALL   4024
....................    }else if(ACiclos[i]==1){ 
064CA:  BRA    6996
064CC:  MOVLB  2
064CE:  CLRF   03
064D0:  MOVF   x55,W
064D2:  ADDLW  08
064D4:  MOVWF  FE9
064D6:  MOVLW  03
064D8:  ADDWFC 03,W
064DA:  MOVWF  FEA
064DC:  DECFSZ FEF,W
064DE:  BRA    651E
....................       printf("A%u.txt=\"Parada\"",i+1); 
064E0:  MOVLW  01
064E2:  ADDWF  x55,W
064E4:  MOVLB  6
064E6:  MOVWF  xA8
064E8:  MOVLW  41
064EA:  BTFSS  F9E.4
064EC:  BRA    64EA
064EE:  MOVWF  FAD
064F0:  MOVFF  6A8,6AD
064F4:  MOVLW  1B
064F6:  MOVWF  xAE
064F8:  MOVLB  0
064FA:  CALL   5AB6
064FE:  MOVLW  17
06500:  MOVWF  FF6
06502:  MOVLW  04
06504:  MOVWF  FF7
06506:  MOVLW  00
06508:  MOVWF  FF8
0650A:  MOVLW  0D
0650C:  MOVLB  6
0650E:  MOVWF  xAD
06510:  MOVLB  0
06512:  CALL   5A32
....................       SendDataDisplay(); 
06516:  CALL   4024
....................    }else if(ACiclos[i]==2){ 
0651A:  BRA    6996
0651C:  MOVLB  2
0651E:  CLRF   03
06520:  MOVF   x55,W
06522:  ADDLW  08
06524:  MOVWF  FE9
06526:  MOVLW  03
06528:  ADDWFC 03,W
0652A:  MOVWF  FEA
0652C:  MOVF   FEF,W
0652E:  SUBLW  02
06530:  BNZ   6570
....................       printf("A%u.txt=\"Puerta\"",i+1); 
06532:  MOVLW  01
06534:  ADDWF  x55,W
06536:  MOVLB  6
06538:  MOVWF  xA8
0653A:  MOVLW  41
0653C:  BTFSS  F9E.4
0653E:  BRA    653C
06540:  MOVWF  FAD
06542:  MOVFF  6A8,6AD
06546:  MOVLW  1B
06548:  MOVWF  xAE
0654A:  MOVLB  0
0654C:  CALL   5AB6
06550:  MOVLW  29
06552:  MOVWF  FF6
06554:  MOVLW  04
06556:  MOVWF  FF7
06558:  MOVLW  00
0655A:  MOVWF  FF8
0655C:  MOVLW  0D
0655E:  MOVLB  6
06560:  MOVWF  xAD
06562:  MOVLB  0
06564:  CALL   5A32
....................       SendDataDisplay(); 
06568:  CALL   4024
....................    }else if(ACiclos[i]==3){ 
0656C:  BRA    6996
0656E:  MOVLB  2
06570:  CLRF   03
06572:  MOVF   x55,W
06574:  ADDLW  08
06576:  MOVWF  FE9
06578:  MOVLW  03
0657A:  ADDWFC 03,W
0657C:  MOVWF  FEA
0657E:  MOVF   FEF,W
06580:  SUBLW  03
06582:  BNZ   65C2
....................       printf("A%u.txt=\"Termostato\"",i+1); 
06584:  MOVLW  01
06586:  ADDWF  x55,W
06588:  MOVLB  6
0658A:  MOVWF  xA8
0658C:  MOVLW  41
0658E:  BTFSS  F9E.4
06590:  BRA    658E
06592:  MOVWF  FAD
06594:  MOVFF  6A8,6AD
06598:  MOVLW  1B
0659A:  MOVWF  xAE
0659C:  MOVLB  0
0659E:  CALL   5AB6
065A2:  MOVLW  3B
065A4:  MOVWF  FF6
065A6:  MOVLW  04
065A8:  MOVWF  FF7
065AA:  MOVLW  00
065AC:  MOVWF  FF8
065AE:  MOVLW  11
065B0:  MOVLB  6
065B2:  MOVWF  xAD
065B4:  MOVLB  0
065B6:  CALL   5A32
....................       SendDataDisplay(); 
065BA:  CALL   4024
....................    }else if(ACiclos[i]==4){ 
065BE:  BRA    6996
065C0:  MOVLB  2
065C2:  CLRF   03
065C4:  MOVF   x55,W
065C6:  ADDLW  08
065C8:  MOVWF  FE9
065CA:  MOVLW  03
065CC:  ADDWFC 03,W
065CE:  MOVWF  FEA
065D0:  MOVF   FEF,W
065D2:  SUBLW  04
065D4:  BNZ   6614
....................       printf("A%u.txt=\"SobreT\"",i+1); 
065D6:  MOVLW  01
065D8:  ADDWF  x55,W
065DA:  MOVLB  6
065DC:  MOVWF  xA8
065DE:  MOVLW  41
065E0:  BTFSS  F9E.4
065E2:  BRA    65E0
065E4:  MOVWF  FAD
065E6:  MOVFF  6A8,6AD
065EA:  MOVLW  1B
065EC:  MOVWF  xAE
065EE:  MOVLB  0
065F0:  CALL   5AB6
065F4:  MOVLW  51
065F6:  MOVWF  FF6
065F8:  MOVLW  04
065FA:  MOVWF  FF7
065FC:  MOVLW  00
065FE:  MOVWF  FF8
06600:  MOVLW  0D
06602:  MOVLB  6
06604:  MOVWF  xAD
06606:  MOVLB  0
06608:  CALL   5A32
....................       SendDataDisplay(); 
0660C:  CALL   4024
....................    }else if(ACiclos[i]==5){ 
06610:  BRA    6996
06612:  MOVLB  2
06614:  CLRF   03
06616:  MOVF   x55,W
06618:  ADDLW  08
0661A:  MOVWF  FE9
0661C:  MOVLW  03
0661E:  ADDWFC 03,W
06620:  MOVWF  FEA
06622:  MOVF   FEF,W
06624:  SUBLW  05
06626:  BNZ   6666
....................       printf("A%u.txt=\"Tiempo\"",i+1); 
06628:  MOVLW  01
0662A:  ADDWF  x55,W
0662C:  MOVLB  6
0662E:  MOVWF  xA8
06630:  MOVLW  41
06632:  BTFSS  F9E.4
06634:  BRA    6632
06636:  MOVWF  FAD
06638:  MOVFF  6A8,6AD
0663C:  MOVLW  1B
0663E:  MOVWF  xAE
06640:  MOVLB  0
06642:  CALL   5AB6
06646:  MOVLW  63
06648:  MOVWF  FF6
0664A:  MOVLW  04
0664C:  MOVWF  FF7
0664E:  MOVLW  00
06650:  MOVWF  FF8
06652:  MOVLW  0D
06654:  MOVLB  6
06656:  MOVWF  xAD
06658:  MOVLB  0
0665A:  CALL   5A32
....................       SendDataDisplay(); 
0665E:  CALL   4024
....................    }else if(ACiclos[i]==6){ 
06662:  BRA    6996
06664:  MOVLB  2
06666:  CLRF   03
06668:  MOVF   x55,W
0666A:  ADDLW  08
0666C:  MOVWF  FE9
0666E:  MOVLW  03
06670:  ADDWFC 03,W
06672:  MOVWF  FEA
06674:  MOVF   FEF,W
06676:  SUBLW  06
06678:  BNZ   66B8
....................       printf("A%u.txt=\"Presion\"",i+1); 
0667A:  MOVLW  01
0667C:  ADDWF  x55,W
0667E:  MOVLB  6
06680:  MOVWF  xA8
06682:  MOVLW  41
06684:  BTFSS  F9E.4
06686:  BRA    6684
06688:  MOVWF  FAD
0668A:  MOVFF  6A8,6AD
0668E:  MOVLW  1B
06690:  MOVWF  xAE
06692:  MOVLB  0
06694:  CALL   5AB6
06698:  MOVLW  75
0669A:  MOVWF  FF6
0669C:  MOVLW  04
0669E:  MOVWF  FF7
066A0:  MOVLW  00
066A2:  MOVWF  FF8
066A4:  MOVLW  0E
066A6:  MOVLB  6
066A8:  MOVWF  xAD
066AA:  MOVLB  0
066AC:  CALL   5A32
....................       SendDataDisplay(); 
066B0:  CALL   4024
....................    }else if(ACiclos[i]==7){ 
066B4:  BRA    6996
066B6:  MOVLB  2
066B8:  CLRF   03
066BA:  MOVF   x55,W
066BC:  ADDLW  08
066BE:  MOVWF  FE9
066C0:  MOVLW  03
066C2:  ADDWFC 03,W
066C4:  MOVWF  FEA
066C6:  MOVF   FEF,W
066C8:  SUBLW  07
066CA:  BNZ   670A
....................       printf("A%u.txt=\"Bomba\"",i+1); 
066CC:  MOVLW  01
066CE:  ADDWF  x55,W
066D0:  MOVLB  6
066D2:  MOVWF  xA8
066D4:  MOVLW  41
066D6:  BTFSS  F9E.4
066D8:  BRA    66D6
066DA:  MOVWF  FAD
066DC:  MOVFF  6A8,6AD
066E0:  MOVLW  1B
066E2:  MOVWF  xAE
066E4:  MOVLB  0
066E6:  CALL   5AB6
066EA:  MOVLW  87
066EC:  MOVWF  FF6
066EE:  MOVLW  04
066F0:  MOVWF  FF7
066F2:  MOVLW  00
066F4:  MOVWF  FF8
066F6:  MOVLW  0C
066F8:  MOVLB  6
066FA:  MOVWF  xAD
066FC:  MOVLB  0
066FE:  CALL   5A32
....................       SendDataDisplay(); 
06702:  CALL   4024
....................    }else if(ACiclos[i]==8){ 
06706:  BRA    6996
06708:  MOVLB  2
0670A:  CLRF   03
0670C:  MOVF   x55,W
0670E:  ADDLW  08
06710:  MOVWF  FE9
06712:  MOVLW  03
06714:  ADDWFC 03,W
06716:  MOVWF  FEA
06718:  MOVF   FEF,W
0671A:  SUBLW  08
0671C:  BNZ   675C
....................       printf("A%u.txt=\"ErrorVacio\"",i+1); 
0671E:  MOVLW  01
06720:  ADDWF  x55,W
06722:  MOVLB  6
06724:  MOVWF  xA8
06726:  MOVLW  41
06728:  BTFSS  F9E.4
0672A:  BRA    6728
0672C:  MOVWF  FAD
0672E:  MOVFF  6A8,6AD
06732:  MOVLW  1B
06734:  MOVWF  xAE
06736:  MOVLB  0
06738:  CALL   5AB6
0673C:  MOVLW  97
0673E:  MOVWF  FF6
06740:  MOVLW  04
06742:  MOVWF  FF7
06744:  MOVLW  00
06746:  MOVWF  FF8
06748:  MOVLW  11
0674A:  MOVLB  6
0674C:  MOVWF  xAD
0674E:  MOVLB  0
06750:  CALL   5A32
....................       SendDataDisplay(); 
06754:  CALL   4024
....................    }else if(ACiclos[i]==10){ 
06758:  BRA    6996
0675A:  MOVLB  2
0675C:  CLRF   03
0675E:  MOVF   x55,W
06760:  ADDLW  08
06762:  MOVWF  FE9
06764:  MOVLW  03
06766:  ADDWFC 03,W
06768:  MOVWF  FEA
0676A:  MOVF   FEF,W
0676C:  SUBLW  0A
0676E:  BNZ   67AE
....................       printf("A%u.txt=\"PreCale\"",i+1); 
06770:  MOVLW  01
06772:  ADDWF  x55,W
06774:  MOVLB  6
06776:  MOVWF  xA8
06778:  MOVLW  41
0677A:  BTFSS  F9E.4
0677C:  BRA    677A
0677E:  MOVWF  FAD
06780:  MOVFF  6A8,6AD
06784:  MOVLW  1B
06786:  MOVWF  xAE
06788:  MOVLB  0
0678A:  CALL   5AB6
0678E:  MOVLW  AD
06790:  MOVWF  FF6
06792:  MOVLW  04
06794:  MOVWF  FF7
06796:  MOVLW  00
06798:  MOVWF  FF8
0679A:  MOVLW  0E
0679C:  MOVLB  6
0679E:  MOVWF  xAD
067A0:  MOVLB  0
067A2:  CALL   5A32
....................       SendDataDisplay(); 
067A6:  CALL   4024
....................    }else if(ACiclos[i]==11){ 
067AA:  BRA    6996
067AC:  MOVLB  2
067AE:  CLRF   03
067B0:  MOVF   x55,W
067B2:  ADDLW  08
067B4:  MOVWF  FE9
067B6:  MOVLW  03
067B8:  ADDWFC 03,W
067BA:  MOVWF  FEA
067BC:  MOVF   FEF,W
067BE:  SUBLW  0B
067C0:  BNZ   6800
....................       printf("A%u.txt=\"Vacio\"",i+1); 
067C2:  MOVLW  01
067C4:  ADDWF  x55,W
067C6:  MOVLB  6
067C8:  MOVWF  xA8
067CA:  MOVLW  41
067CC:  BTFSS  F9E.4
067CE:  BRA    67CC
067D0:  MOVWF  FAD
067D2:  MOVFF  6A8,6AD
067D6:  MOVLW  1B
067D8:  MOVWF  xAE
067DA:  MOVLB  0
067DC:  CALL   5AB6
067E0:  MOVLW  BF
067E2:  MOVWF  FF6
067E4:  MOVLW  04
067E6:  MOVWF  FF7
067E8:  MOVLW  00
067EA:  MOVWF  FF8
067EC:  MOVLW  0C
067EE:  MOVLB  6
067F0:  MOVWF  xAD
067F2:  MOVLB  0
067F4:  CALL   5A32
....................       SendDataDisplay(); 
067F8:  CALL   4024
....................    }else if(ACiclos[i]==12){ 
067FC:  BRA    6996
067FE:  MOVLB  2
06800:  CLRF   03
06802:  MOVF   x55,W
06804:  ADDLW  08
06806:  MOVWF  FE9
06808:  MOVLW  03
0680A:  ADDWFC 03,W
0680C:  MOVWF  FEA
0680E:  MOVF   FEF,W
06810:  SUBLW  0C
06812:  BNZ   6852
....................       printf("A%u.txt=\"Calen\"",i+1); 
06814:  MOVLW  01
06816:  ADDWF  x55,W
06818:  MOVLB  6
0681A:  MOVWF  xA8
0681C:  MOVLW  41
0681E:  BTFSS  F9E.4
06820:  BRA    681E
06822:  MOVWF  FAD
06824:  MOVFF  6A8,6AD
06828:  MOVLW  1B
0682A:  MOVWF  xAE
0682C:  MOVLB  0
0682E:  CALL   5AB6
06832:  MOVLW  CF
06834:  MOVWF  FF6
06836:  MOVLW  04
06838:  MOVWF  FF7
0683A:  MOVLW  00
0683C:  MOVWF  FF8
0683E:  MOVLW  0C
06840:  MOVLB  6
06842:  MOVWF  xAD
06844:  MOVLB  0
06846:  CALL   5A32
....................       SendDataDisplay(); 
0684A:  CALL   4024
....................    }else if(ACiclos[i]==13){ 
0684E:  BRA    6996
06850:  MOVLB  2
06852:  CLRF   03
06854:  MOVF   x55,W
06856:  ADDLW  08
06858:  MOVWF  FE9
0685A:  MOVLW  03
0685C:  ADDWFC 03,W
0685E:  MOVWF  FEA
06860:  MOVF   FEF,W
06862:  SUBLW  0D
06864:  BNZ   68A4
....................       printf("A%u.txt=\"Desfoga\"",i+1); 
06866:  MOVLW  01
06868:  ADDWF  x55,W
0686A:  MOVLB  6
0686C:  MOVWF  xA8
0686E:  MOVLW  41
06870:  BTFSS  F9E.4
06872:  BRA    6870
06874:  MOVWF  FAD
06876:  MOVFF  6A8,6AD
0687A:  MOVLW  1B
0687C:  MOVWF  xAE
0687E:  MOVLB  0
06880:  CALL   5AB6
06884:  MOVLW  DF
06886:  MOVWF  FF6
06888:  MOVLW  04
0688A:  MOVWF  FF7
0688C:  MOVLW  00
0688E:  MOVWF  FF8
06890:  MOVLW  0E
06892:  MOVLB  6
06894:  MOVWF  xAD
06896:  MOVLB  0
06898:  CALL   5A32
....................       SendDataDisplay(); 
0689C:  CALL   4024
....................    }else if(ACiclos[i]==14){ 
068A0:  BRA    6996
068A2:  MOVLB  2
068A4:  CLRF   03
068A6:  MOVF   x55,W
068A8:  ADDLW  08
068AA:  MOVWF  FE9
068AC:  MOVLW  03
068AE:  ADDWFC 03,W
068B0:  MOVWF  FEA
068B2:  MOVF   FEF,W
068B4:  SUBLW  0E
068B6:  BNZ   68F6
....................       printf("A%u.txt=\"Finalizado\"",i+1); 
068B8:  MOVLW  01
068BA:  ADDWF  x55,W
068BC:  MOVLB  6
068BE:  MOVWF  xA8
068C0:  MOVLW  41
068C2:  BTFSS  F9E.4
068C4:  BRA    68C2
068C6:  MOVWF  FAD
068C8:  MOVFF  6A8,6AD
068CC:  MOVLW  1B
068CE:  MOVWF  xAE
068D0:  MOVLB  0
068D2:  CALL   5AB6
068D6:  MOVLW  F1
068D8:  MOVWF  FF6
068DA:  MOVLW  04
068DC:  MOVWF  FF7
068DE:  MOVLW  00
068E0:  MOVWF  FF8
068E2:  MOVLW  11
068E4:  MOVLB  6
068E6:  MOVWF  xAD
068E8:  MOVLB  0
068EA:  CALL   5A32
....................       SendDataDisplay(); 
068EE:  CALL   4024
....................    }else if(ACiclos[i]==15){ 
068F2:  BRA    6996
068F4:  MOVLB  2
068F6:  CLRF   03
068F8:  MOVF   x55,W
068FA:  ADDLW  08
068FC:  MOVWF  FE9
068FE:  MOVLW  03
06900:  ADDWFC 03,W
06902:  MOVWF  FEA
06904:  MOVF   FEF,W
06906:  SUBLW  0F
06908:  BNZ   6948
....................       printf("A%u.txt=\"Secando\"",i+1); 
0690A:  MOVLW  01
0690C:  ADDWF  x55,W
0690E:  MOVLB  6
06910:  MOVWF  xA8
06912:  MOVLW  41
06914:  BTFSS  F9E.4
06916:  BRA    6914
06918:  MOVWF  FAD
0691A:  MOVFF  6A8,6AD
0691E:  MOVLW  1B
06920:  MOVWF  xAE
06922:  MOVLB  0
06924:  CALL   5AB6
06928:  MOVLW  07
0692A:  MOVWF  FF6
0692C:  MOVLW  05
0692E:  MOVWF  FF7
06930:  MOVLW  00
06932:  MOVWF  FF8
06934:  MOVLW  0E
06936:  MOVLB  6
06938:  MOVWF  xAD
0693A:  MOVLB  0
0693C:  CALL   5A32
....................       SendDataDisplay(); 
06940:  CALL   4024
....................    }else if(ACiclos[i]==16){ 
06944:  BRA    6996
06946:  MOVLB  2
06948:  CLRF   03
0694A:  MOVF   x55,W
0694C:  ADDLW  08
0694E:  MOVWF  FE9
06950:  MOVLW  03
06952:  ADDWFC 03,W
06954:  MOVWF  FEA
06956:  MOVF   FEF,W
06958:  SUBLW  10
0695A:  BNZ   6998
....................       printf("A%u.txt=\"Esterilizando\"",i+1); 
0695C:  MOVLW  01
0695E:  ADDWF  x55,W
06960:  MOVLB  6
06962:  MOVWF  xA8
06964:  MOVLW  41
06966:  BTFSS  F9E.4
06968:  BRA    6966
0696A:  MOVWF  FAD
0696C:  MOVFF  6A8,6AD
06970:  MOVLW  1B
06972:  MOVWF  xAE
06974:  MOVLB  0
06976:  CALL   5AB6
0697A:  MOVLW  19
0697C:  MOVWF  FF6
0697E:  MOVLW  05
06980:  MOVWF  FF7
06982:  MOVLW  00
06984:  MOVWF  FF8
06986:  MOVLW  14
06988:  MOVLB  6
0698A:  MOVWF  xAD
0698C:  MOVLB  0
0698E:  CALL   5A32
....................       SendDataDisplay(); 
06992:  CALL   4024
06996:  MOVLB  2
....................    } 
.................... } 
06998:  MOVLB  0
0699A:  GOTO   C3BC (RETURN)
....................  
.................... void graficaCurva(int16 tGrafica){ 
....................    if(tiempos2>=tGrafica){ 
*
05264:  MOVLB  6
05266:  MOVF   xA9,W
05268:  MOVLB  2
0526A:  SUBWF  x68,W
0526C:  BNC   5284
0526E:  BNZ   527A
05270:  MOVLB  6
05272:  MOVF   xA8,W
05274:  MOVLB  2
05276:  SUBWF  x67,W
05278:  BNC   5284
....................       Grafica=1; 
0527A:  MOVLB  1
0527C:  BSF    x08.7
....................       tiempos2=0; 
0527E:  MOVLB  2
05280:  CLRF   x68
05282:  CLRF   x67
....................    } 
.................... } 
05284:  MOVLB  0
05286:  GOTO   7F9E (RETURN)
....................  
.................... void muestreo(int16 tmuestreo){ 
....................    if(tiempos3>=tmuestreo){ 
*
0568A:  MOVLB  6
0568C:  MOVF   xA9,W
0568E:  MOVLB  2
05690:  SUBWF  x6A,W
05692:  BNC   5730
05694:  BNZ   56A0
05696:  MOVLB  6
05698:  MOVF   xA8,W
0569A:  MOVLB  2
0569C:  SUBWF  x69,W
0569E:  BNC   5730
....................       Temperatura=LeerPt100(0,MediaMovil); 
056A0:  MOVLB  6
056A2:  CLRF   xAA
056A4:  MOVFF  1ED,6AB
056A8:  MOVLB  0
056AA:  CALL   41B0
056AE:  MOVFF  03,234
056B2:  MOVFF  02,233
056B6:  MOVFF  01,232
056BA:  MOVFF  00,231
....................       Temperatura2=LeerPt100(1,MediaMovil); 
056BE:  MOVLW  01
056C0:  MOVLB  6
056C2:  MOVWF  xAA
056C4:  MOVFF  1ED,6AB
056C8:  MOVLB  0
056CA:  CALL   41B0
056CE:  MOVFF  03,238
056D2:  MOVFF  02,237
056D6:  MOVFF  01,236
056DA:  MOVFF  00,235
....................       PresionCamara=Leer_Sensor_Presion_Camara(10); 
056DE:  MOVLW  0A
056E0:  MOVLB  6
056E2:  MOVWF  xAA
056E4:  MOVLB  0
056E6:  BRA    528A
056E8:  MOVFF  03,6BD
056EC:  MOVFF  02,6BC
056F0:  MOVFF  01,6BB
056F4:  MOVFF  00,6BA
056F8:  CALL   4C80
056FC:  MOVFF  02,272
05700:  MOVFF  01,271
....................       PresionPreCamara=Leer_Sensor_Presion_PreCamara(10); 
05704:  MOVLW  0A
05706:  MOVLB  6
05708:  MOVWF  xAA
0570A:  MOVLB  0
0570C:  BRA    548A
0570E:  MOVFF  03,6BD
05712:  MOVFF  02,6BC
05716:  MOVFF  01,6BB
0571A:  MOVFF  00,6BA
0571E:  CALL   4C80
05722:  MOVFF  02,274
05726:  MOVFF  01,273
....................       tiempos3=0; 
0572A:  MOVLB  2
0572C:  CLRF   x6A
0572E:  CLRF   x69
....................    } 
.................... } 
05730:  MOVLB  0
05732:  GOTO   7FAC (RETURN)
....................  
.................... void monitoreaAgua(){ 
....................    if(LOWB){ 
05736:  BSF    F93.5
05738:  BTFSC  F81.5
0573A:  BRA    574E
....................       SensadoNivelR=ON; 
0573C:  MOVLB  1
0573E:  BSF    x08.4
....................       if(TiempoSensadoNivelR>2){ 
05740:  MOVF   xF1,W
05742:  SUBLW  02
05744:  BC    574A
....................          SensadoNivelR=OFF; 
05746:  BCF    x08.4
....................          ReservorioLleno=ON; 
05748:  BSF    x08.3
....................       } 
....................    }else{ 
0574A:  BRA    5756
0574C:  MOVLB  0
....................       SensadoNivelR=OFF; 
0574E:  MOVLB  1
05750:  BCF    x08.4
....................       TiempoSensadoNivelR=0; 
05752:  CLRF   xF1
....................       ReservorioLleno=OFF; 
05754:  BCF    x08.3
....................    }  
.................... } 
05756:  MOVLB  0
05758:  GOTO   7FB0 (RETURN)
....................  
.................... void monitoreaStop(){ 
....................       if(!STOP && !IniciaCiclo && !PruebaEstados){ 
*
0581C:  BSF    F93.0
0581E:  BTFSS  F81.0
05820:  BRA    5890
05822:  MOVLB  1
05824:  BTFSS  x02.1
05826:  BRA    582C
05828:  MOVLB  0
0582A:  BRA    5890
0582C:  BTFSS  x03.3
0582E:  BRA    5834
05830:  MOVLB  0
05832:  BRA    5890
....................          if(!disp_Stop){ 
05834:  MOVLB  2
05836:  BTFSC  x48.0
05838:  BRA    5840
....................             disp_Stop=1;Menu=255; 
0583A:  BSF    x48.0
0583C:  MOVLW  FF
0583E:  MOVWF  x52
....................          } 
....................          codigoAlarma=200; 
05840:  MOVLW  C8
05842:  MOVWF  x8A
....................          Controlando=0; 
05844:  CLRF   x4B
....................          Desfogue=ON; 
05846:  MOVLB  0
05848:  BSF    xF8.0
....................          Paso=OFF; 
0584A:  BCF    xF7.6
....................          //Suministro_off; 
....................          if(PresionCamara<Atmosferica) 
0584C:  MOVLB  2
0584E:  MOVF   x72,F
05850:  BNZ   585E
05852:  MOVF   x9B,W
05854:  SUBWF  x71,W
05856:  BC    585E
....................             Aire=ON; 
05858:  MOVLB  0
0585A:  BSF    xF8.1
....................          else 
0585C:  BRA    5862
....................             Aire=ON; 
0585E:  MOVLB  0
05860:  BSF    xF8.1
....................          outVacio=OFF;    
05862:  BCF    xF7.7
....................          aguaEnfriador=OFF; 
05864:  BCF    xF7.1
....................          bombaVacio=OFF; 
05866:  BCF    xF7.2
....................          DesfogueSuave=OFF; 
05868:  MOVLB  1
0586A:  BCF    x02.6
....................          printf("page Emergencia"); 
0586C:  MOVLW  2E
0586E:  MOVWF  FF6
05870:  MOVLW  05
05872:  MOVWF  FF7
05874:  MOVLW  00
05876:  MOVWF  FF8
05878:  MOVLB  0
0587A:  CALL   3FF2
....................          SendDataDisplay(); 
0587E:  CALL   4024
....................          ActivaAlarma(1); 
05882:  MOVLW  01
05884:  MOVLB  6
05886:  MOVWF  xA8
05888:  MOVLB  0
0588A:  RCALL  575C
....................          BorraBuffer(); 
0588C:  BRA    57F0
....................       }else{ 
0588E:  BRA    5898
....................          if(disp_Stop){ 
05890:  MOVLB  2
05892:  BTFSS  x48.0
05894:  BRA    5898
....................             reset_cpu(); 
05896:  RESET
05898:  MOVLB  0
....................          } 
....................       }           
.................... } 
0589A:  GOTO   7FB4 (RETURN)
....................  
.................... void cierraPuertaS(){// Aadir logica de puertas 
....................    tVacioEmpaqueS=0; 
*
058F4:  CLRF   xFF
058F6:  CLRF   xFE
....................    suministroAire=ON; 
058F8:  BSF    xF7.0
....................    if(!BLOQUEOS){ 
058FA:  BSF    F93.6
058FC:  BTFSS  F81.6
058FE:  BRA    5912
....................       cilindroSucio=OFF; 
05900:  BCF    xF8.2
....................       estadoCilindrosS=ON; 
05902:  BSF    xFB.5
....................       if(DOORS){ 
05904:  BSF    F93.3
05906:  BTFSC  F81.3
05908:  BRA    590E
....................          empaqueSucio=ON; 
0590A:  BSF    xF7.4
....................          //cerroSucio=ON; 
....................       }else{ 
0590C:  BRA    5910
....................          empaqueSucio=OFF; 
0590E:  BCF    xF7.4
....................       } 
....................    }else{ 
05910:  BRA    5916
....................       cilindroSucio=ON; 
05912:  BSF    xF8.2
....................       estadoCilindrosS=OFF; 
05914:  BCF    xFB.5
....................    } 
.................... } 
05916:  RETLW  00
....................  
.................... void abrePuertaS(){ 
....................    suministroAire=ON; 
*
0589E:  BSF    xF7.0
....................    if(PresionCamara<=Atmosferica+15 && PresionCamara>Atmosferica-10){ 
058A0:  MOVLW  0F
058A2:  MOVLB  2
058A4:  ADDWF  x9B,W
058A6:  MOVF   x72,F
058A8:  BNZ   58F0
058AA:  SUBWF  x71,W
058AC:  BZ    58B0
058AE:  BC    58F0
058B0:  MOVLW  0A
058B2:  SUBWF  x9B,W
058B4:  MOVF   x72,F
058B6:  BNZ   58BE
058B8:  SUBWF  x71,W
058BA:  BZ    58F0
058BC:  BNC   58F0
....................       empaqueSucio=OFF; 
058BE:  MOVLB  0
058C0:  BCF    xF7.4
....................       seguroValvula=ON; 
058C2:  BSF    xF8.5
....................       if(DOORS){ 
058C4:  BSF    F93.3
058C6:  BTFSC  F81.3
058C8:  BRA    58E4
....................          if(tVacioEmpaqueS>=10){ 
058CA:  MOVF   xFF,F
058CC:  BNZ   58D4
058CE:  MOVF   xFE,W
058D0:  SUBLW  09
058D2:  BC    58DE
....................             cilindroSucio=ON; 
058D4:  BSF    xF8.2
....................             cerroSucio=OFF; 
058D6:  BCF    xFA.3
....................             vacioEmpaqueS=OFF; 
058D8:  BCF    xFB.0
....................             BombaVacio=OFF; 
058DA:  BCF    xF7.2
....................          }else{ 
058DC:  BRA    58E2
....................             BombaVacio=ON; 
058DE:  BSF    xF7.2
....................             vacioEmpaqueS=ON; 
058E0:  BSF    xFB.0
....................          } 
....................       }else{ 
058E2:  BRA    58EE
....................          cilindroSucio=ON; 
058E4:  BSF    xF8.2
....................          estadoCilindrosS=OFF; 
058E6:  BCF    xFB.5
....................          cerroSucio=OFF; 
058E8:  BCF    xFA.3
....................          vacioEmpaqueS=OFF; 
058EA:  BCF    xFB.0
....................          BombaVacio=OFF; 
058EC:  BCF    xF7.2
058EE:  MOVLB  2
....................       } 
....................    } 
.................... } 
058F0:  MOVLB  0
058F2:  RETLW  00
....................  
.................... void cierraPuertaL(){// Aadir logica de puertas 
....................    abrirPuertaL=OFF; 
*
05918:  BCF    xFB.1
....................    tVacioEmpaqueL=0; 
0591A:  MOVLB  1
0591C:  CLRF   x01
0591E:  CLRF   x00
....................    suministroAire=ON; 
05920:  MOVLB  0
05922:  BSF    xF7.0
....................    if(!BLOQUEOL){ 
05924:  BSF    F93.7
05926:  BTFSS  F81.7
05928:  BRA    593C
....................       cilindroLimpio=OFF; 
0592A:  BCF    xF8.3
....................       estadoCilindrosL=ON; 
0592C:  BSF    xFB.4
....................       if(DOORL){ 
0592E:  BSF    F93.4
05930:  BTFSC  F81.4
05932:  BRA    5938
....................          empaqueLimpio=ON; 
05934:  BSF    xF7.3
....................          //cerroLimpio=ON; 
....................       }else{ 
05936:  BRA    593A
....................          empaqueLimpio=OFF; 
05938:  BCF    xF7.3
....................       } 
....................    }else{ 
0593A:  BRA    5940
....................       cilindroLimpio=ON; 
0593C:  BSF    xF8.3
....................       estadoCilindrosL=OFF; 
0593E:  BCF    xFB.4
....................    } 
.................... } 
05940:  RETLW  00
....................  
.................... void abrePuertaL(){ 
....................    abrirPuertaL=ON; 
05942:  BSF    xFB.1
....................    suministroAire=ON; 
05944:  BSF    xF7.0
....................    if(PresionCamara<=Atmosferica+15 && PresionCamara>Atmosferica-10){ 
05946:  MOVLW  0F
05948:  MOVLB  2
0594A:  ADDWF  x9B,W
0594C:  MOVF   x72,F
0594E:  BNZ   599E
05950:  SUBWF  x71,W
05952:  BZ    5956
05954:  BC    599E
05956:  MOVLW  0A
05958:  SUBWF  x9B,W
0595A:  MOVF   x72,F
0595C:  BNZ   5964
0595E:  SUBWF  x71,W
05960:  BZ    599E
05962:  BNC   599E
....................       empaqueLimpio=OFF; 
05964:  MOVLB  0
05966:  BCF    xF7.3
....................       seguroValvula=ON; 
05968:  BSF    xF8.5
....................       if(DOORL){ 
0596A:  BSF    F93.4
0596C:  BTFSC  F81.4
0596E:  BRA    5992
....................          if(tVacioEmpaqueL>=10){ 
05970:  MOVLB  1
05972:  MOVF   x01,F
05974:  BNZ   597C
05976:  MOVF   x00,W
05978:  SUBLW  09
0597A:  BC    598A
....................             cilindroLimpio=ON; 
0597C:  MOVLB  0
0597E:  BSF    xF8.3
....................             cerroLimpio=OFF; 
05980:  BCF    xFA.4
....................             vacioEmpaqueL=OFF; 
05982:  BCF    xFA.7
....................             BombaVacio=OFF; 
05984:  BCF    xF7.2
....................          }else{ 
05986:  BRA    5990
05988:  MOVLB  1
....................             BombaVacio=ON; 
0598A:  MOVLB  0
0598C:  BSF    xF7.2
....................             vacioEmpaqueL=ON; 
0598E:  BSF    xFA.7
....................          } 
....................       }else{ 
05990:  BRA    599C
....................          cilindroLimpio=ON; 
05992:  BSF    xF8.3
....................          estadoCilindrosL=OFF; 
05994:  BCF    xFB.4
....................          cerroLimpio=OFF; 
05996:  BCF    xFA.4
....................          vacioEmpaqueL=OFF; 
05998:  BCF    xFA.7
....................          BombaVacio=OFF; 
0599A:  BCF    xF7.2
0599C:  MOVLB  2
....................       } 
....................    } 
.................... } 
0599E:  MOVLB  0
059A0:  RETLW  00
....................  
.................... void monitoreaPuertaLimpio(){ 
....................    if(pulsoSubirL) 
059A2:  BTFSS  xFA.6
059A4:  BRA    59A8
....................       cierraPuertaL(); 
059A6:  RCALL  5918
....................        
....................    if(subirPuertaLimpio==5){//Oprimio Subir Puerta Limpio 
059A8:  MOVLB  1
059AA:  MOVF   xF2,W
059AC:  SUBLW  05
059AE:  BNZ   59B8
....................       //cierraPuertaL(); 
....................       pulsoSubirL=ON; 
059B0:  MOVLB  0
059B2:  BSF    xFA.6
....................    }else if(subirPuertaLimpio==10){//Solto Subir Puerta Limpio 
059B4:  BRA    5A30
059B6:  MOVLB  1
059B8:  MOVF   xF2,W
059BA:  SUBLW  0A
059BC:  BNZ   59D8
....................       pulsoSubirL=OFF; 
059BE:  MOVLB  0
059C0:  BCF    xFA.6
....................       if(!DOORL && !EMPAQUEL) 
059C2:  BSF    F93.4
059C4:  BTFSS  F81.4
059C6:  BRA    59D2
059C8:  BSF    F93.2
059CA:  BTFSS  F81.2
059CC:  BRA    59D2
....................          abrePuertaL(); 
059CE:  RCALL  5942
....................       else 
059D0:  BRA    59D4
....................          cierraPuertaL(); 
059D2:  RCALL  5918
....................    }else if(subirPuertaLimpio==15){//Oprimio Bajar Puerta Limpio 
059D4:  BRA    5A30
059D6:  MOVLB  1
059D8:  MOVF   xF2,W
059DA:  SUBLW  0F
059DC:  BNZ   5A20
....................       pulsoSubirL=OFF; 
059DE:  MOVLB  0
059E0:  BCF    xFA.6
....................       //if(Temperatura<Tapertura && Finalizo && cerroSucio) 
....................       if(Temperatura<Tapertura && cerroSucio) 
059E2:  MOVLB  6
059E4:  CLRF   xBB
059E6:  MOVFF  259,6BA
059EA:  MOVLB  0
059EC:  CALL   1F3A
059F0:  MOVFF  234,6AF
059F4:  MOVFF  233,6AE
059F8:  MOVFF  232,6AD
059FC:  MOVFF  231,6AC
05A00:  MOVFF  03,6B3
05A04:  MOVFF  02,6B2
05A08:  MOVFF  01,6B1
05A0C:  MOVFF  00,6B0
05A10:  CALL   25CC
05A14:  BNC   5A1C
05A16:  BTFSS  xFA.3
05A18:  BRA    5A1C
....................          abrePuertaL(); 
05A1A:  RCALL  5942
....................    }else{ 
05A1C:  BRA    5A30
05A1E:  MOVLB  1
....................       if(!DOORL                                                                                              ) 
05A20:  BSF    F93.4
05A22:  BTFSS  F81.4
05A24:  BRA    5A2C
....................          abrePuertaL(); 
05A26:  MOVLB  0
05A28:  RCALL  5942
....................       else 
05A2A:  BRA    5A30
....................          cierraPuertaL(); 
05A2C:  MOVLB  0
05A2E:  RCALL  5918
....................    }   
.................... } 
05A30:  RETLW  00
.................... /* 
.................... void salidas(int8 valor){ 
....................    if(valor==0){ 
....................       output_bit(PIN_D0,0); 
....................       output_bit(PIN_D1,0); 
....................       output_bit(PIN_C5,0); 
....................       output_bit(PIN_D3,0); 
....................       output_bit(PIN_D2,0); 
....................       delay_ms(50); 
....................    }else if(valor==1){ 
....................       output_bit(PIN_D0,1); 
....................       output_bit(PIN_D1,0); 
....................       output_bit(PIN_C5,0); 
....................       output_bit(PIN_D3,0); 
....................       output_bit(PIN_D2,0); 
....................       delay_ms(50); 
....................    }else if(valor==2){ 
....................       output_bit(PIN_D0,0); 
....................       output_bit(PIN_D1,1); 
....................       output_bit(PIN_C5,0); 
....................       output_bit(PIN_D3,0); 
....................       output_bit(PIN_D2,0); 
....................       delay_ms(50); 
....................    }else if(valor==3){ 
....................       output_bit(PIN_D0,1); 
....................       output_bit(PIN_D1,1); 
....................       output_bit(PIN_C5,0); 
....................       output_bit(PIN_D3,0); 
....................       output_bit(PIN_D2,0); 
....................       delay_ms(50); 
....................    }else if(valor==4){ 
....................       output_bit(PIN_D0,0); 
....................       output_bit(PIN_D1,0); 
....................       output_bit(PIN_C5,1); 
....................       output_bit(PIN_D3,0); 
....................       output_bit(PIN_D2,0); 
....................       delay_ms(50); 
....................    }else if(valor==5){ 
....................       output_bit(PIN_D0,1); 
....................       output_bit(PIN_D1,0); 
....................       output_bit(PIN_C5,1); 
....................       output_bit(PIN_D3,0); 
....................       output_bit(PIN_D2,0); 
....................       delay_ms(50); 
....................    }else if(valor==6){ 
....................       output_bit(PIN_D0,0); 
....................       output_bit(PIN_D1,1); 
....................       output_bit(PIN_C5,1); 
....................       output_bit(PIN_D3,0); 
....................       output_bit(PIN_D2,0); 
....................       delay_ms(50); 
....................    }else if(valor==7){ 
....................       output_bit(PIN_D0,1); 
....................       output_bit(PIN_D1,1); 
....................       output_bit(PIN_C5,1); 
....................       output_bit(PIN_D3,0); 
....................       output_bit(PIN_D2,0); 
....................       delay_ms(50); 
....................    }else if(valor==8){ 
....................       output_bit(PIN_D0,0); 
....................       output_bit(PIN_D1,0); 
....................       output_bit(PIN_C5,0); 
....................       output_bit(PIN_D3,1); 
....................       output_bit(PIN_D2,0); 
....................       delay_ms(50); 
....................    }else if(valor==9){ 
....................       output_bit(PIN_D0,1); 
....................       output_bit(PIN_D1,0); 
....................       output_bit(PIN_C5,0); 
....................       output_bit(PIN_D3,1); 
....................       output_bit(PIN_D2,0); 
....................       delay_ms(50); 
....................    }else if(valor==10){ 
....................       output_bit(PIN_D0,0); 
....................       output_bit(PIN_D1,1); 
....................       output_bit(PIN_C5,0); 
....................       output_bit(PIN_D3,1); 
....................       output_bit(PIN_D2,0); 
....................       delay_ms(50); 
....................    }else if(valor==11){ 
....................       output_bit(PIN_D0,1); 
....................       output_bit(PIN_D1,1); 
....................       output_bit(PIN_C5,0); 
....................       output_bit(PIN_D3,1); 
....................       output_bit(PIN_D2,0); 
....................       delay_ms(50); 
....................    }else if(valor==12){ 
....................       output_bit(PIN_D0,0); 
....................       output_bit(PIN_D1,0); 
....................       output_bit(PIN_C5,1); 
....................       output_bit(PIN_D3,1); 
....................       output_bit(PIN_D2,0); 
....................       delay_ms(50); 
....................    }else if(valor==13){ 
....................       output_bit(PIN_D0,1); 
....................       output_bit(PIN_D1,0); 
....................       output_bit(PIN_C5,1); 
....................       output_bit(PIN_D3,1); 
....................       output_bit(PIN_D2,0); 
....................       delay_ms(50); 
....................    }else if(valor==14){ 
....................       output_bit(PIN_D0,0); 
....................       output_bit(PIN_D1,1); 
....................       output_bit(PIN_C5,1); 
....................       output_bit(PIN_D3,1); 
....................       output_bit(PIN_D2,0); 
....................       delay_ms(50); 
....................    }else if(valor==15){ 
....................       output_bit(PIN_D0,1); 
....................       output_bit(PIN_D1,1); 
....................       output_bit(PIN_C5,1); 
....................       output_bit(PIN_D3,1); 
....................       output_bit(PIN_D2,0); 
....................       delay_ms(50); 
....................    }else if(valor==16){ 
....................       output_bit(PIN_D0,0); 
....................       output_bit(PIN_D1,0); 
....................       output_bit(PIN_C5,0); 
....................       output_bit(PIN_D3,0); 
....................       output_bit(PIN_D2,1); 
....................       delay_ms(50); 
....................    }else if(valor==17){ 
....................       output_bit(PIN_D0,1); 
....................       output_bit(PIN_D1,0); 
....................       output_bit(PIN_C5,0); 
....................       output_bit(PIN_D3,0); 
....................       output_bit(PIN_D2,1); 
....................       delay_ms(50); 
....................    }else if(valor==18){ 
....................       output_bit(PIN_D0,0); 
....................       output_bit(PIN_D1,1); 
....................       output_bit(PIN_C5,0); 
....................       output_bit(PIN_D3,0); 
....................       output_bit(PIN_D2,1); 
....................       delay_ms(50); 
....................    }else if(valor==19){ 
....................       output_bit(PIN_D0,1); 
....................       output_bit(PIN_D1,1); 
....................       output_bit(PIN_C5,0); 
....................       output_bit(PIN_D3,0); 
....................       output_bit(PIN_D2,1); 
....................       delay_ms(50); 
....................    }else if(valor==20){ 
....................       output_bit(PIN_D0,0); 
....................       output_bit(PIN_D1,0); 
....................       output_bit(PIN_C5,1); 
....................       output_bit(PIN_D3,0); 
....................       output_bit(PIN_D2,1); 
....................       delay_ms(50); 
....................    }else if(valor==21){ 
....................       output_bit(PIN_D0,1); 
....................       output_bit(PIN_D1,0); 
....................       output_bit(PIN_C5,1); 
....................       output_bit(PIN_D3,0); 
....................       output_bit(PIN_D2,1); 
....................       delay_ms(50); 
....................    }else if(valor==22){ 
....................       output_bit(PIN_D0,0); 
....................       output_bit(PIN_D1,1); 
....................       output_bit(PIN_C5,1); 
....................       output_bit(PIN_D3,0); 
....................       output_bit(PIN_D2,1); 
....................       delay_ms(50); 
....................    }else if(valor==23){ 
....................       output_bit(PIN_D0,1); 
....................       output_bit(PIN_D1,1); 
....................       output_bit(PIN_C5,1); 
....................       output_bit(PIN_D3,0); 
....................       output_bit(PIN_D2,1); 
....................       delay_ms(50); 
....................    }else if(valor==24){ 
....................       output_bit(PIN_D0,0); 
....................       output_bit(PIN_D1,0); 
....................       output_bit(PIN_C5,0); 
....................       output_bit(PIN_D3,1); 
....................       output_bit(PIN_D2,1); 
....................       delay_ms(50); 
....................    }else if(valor==25){ 
....................       output_bit(PIN_D0,1); 
....................       output_bit(PIN_D1,0); 
....................       output_bit(PIN_C5,0); 
....................       output_bit(PIN_D3,1); 
....................       output_bit(PIN_D2,1); 
....................       delay_ms(50); 
....................    }else if(valor==26){ 
....................       output_bit(PIN_D0,0); 
....................       output_bit(PIN_D1,1); 
....................       output_bit(PIN_C5,0); 
....................       output_bit(PIN_D3,1); 
....................       output_bit(PIN_D2,1); 
....................       delay_ms(50); 
....................    }else if(valor==27){ 
....................       output_bit(PIN_D0,1); 
....................       output_bit(PIN_D1,1); 
....................       output_bit(PIN_C5,0); 
....................       output_bit(PIN_D3,1); 
....................       output_bit(PIN_D2,1); 
....................       delay_ms(50); 
....................    }else if(valor==28){ 
....................       output_bit(PIN_D0,0); 
....................       output_bit(PIN_D1,0); 
....................       output_bit(PIN_C5,1); 
....................       output_bit(PIN_D3,1); 
....................       output_bit(PIN_D2,1); 
....................       delay_ms(50); 
....................    }else if(valor==29){ 
....................       output_bit(PIN_D0,1); 
....................       output_bit(PIN_D1,0); 
....................       output_bit(PIN_C5,1); 
....................       output_bit(PIN_D3,1); 
....................       output_bit(PIN_D2,1); 
....................       delay_ms(50); 
....................    }else if(valor==30){ 
....................       output_bit(PIN_D0,0); 
....................       output_bit(PIN_D1,1); 
....................       output_bit(PIN_C5,1); 
....................       output_bit(PIN_D3,1); 
....................       output_bit(PIN_D2,1); 
....................       delay_ms(50); 
....................    }else if(valor==31){ 
....................       output_bit(PIN_D0,1); 
....................       output_bit(PIN_D1,1); 
....................       output_bit(PIN_C5,1); 
....................       output_bit(PIN_D3,1); 
....................       output_bit(PIN_D2,1); 
....................       delay_ms(50); 
....................    } 
.................... } 
....................  
.................... void codificaSalidas(){ 
....................    if(suministroAire) 
....................       salidas(1); 
....................    else    
....................       salidas(2);  
....................     
....................    if(aguaEnfriador) 
....................       salidas(3); 
....................    else    
....................       salidas(4);  
....................     
....................    if(bombaVacio) 
....................       salidas(5); 
....................    else    
....................       salidas(6);  
....................     
....................    if(empaqueLimpio) 
....................       salidas(7); 
....................    else    
....................       salidas(8); 
....................        
....................    if(empaqueSucio) 
....................       salidas(9); 
....................    else    
....................       salidas(10);    
....................     
....................    if(cilindroSucio) 
....................       salidas(11); 
....................    else    
....................       salidas(12); 
....................     
....................    if(cilindroLimpio) 
....................       salidas(13); 
....................    else    
....................       salidas(14); 
....................        
....................    if(SuministroVapor) 
....................       salidas(15); 
....................    else    
....................       salidas(16);    
....................        
....................    if(Paso) 
....................       salidas(17); 
....................    else    
....................       salidas(18);    
....................        
....................    if(outVacio) 
....................       salidas(19); 
....................    else    
....................       salidas(20);    
....................        
....................    if(Desfogue) 
....................       salidas(21); 
....................    else    
....................       salidas(22);       
....................        
....................    if(Aire) 
....................       salidas(23); 
....................    else    
....................       salidas(24);        
.................... } 
.................... */ 
....................  
.................... void ApagaSalidas(){ 
....................     
....................    Controlando=0; 
*
0405A:  MOVLB  2
0405C:  CLRF   x4B
.................... } 
0405E:  MOVLB  0
04060:  RETLW  00
....................  
....................  
.................... #int_rda HIGH 
.................... void serial_rx_isr(){ 
....................    Dato2=fgetc(); 
*
0053E:  BTFSS  F9E.5
00540:  BRA    053E
00542:  MOVFF  FAE,250
00546:  MOVLB  2
....................    if(Dato2==0x65){//Inicio Comunicacion 
00548:  MOVF   x50,W
0054A:  SUBLW  65
0054C:  BNZ   0554
....................       Inicio=1; 
0054E:  MOVLW  01
00550:  MOVWF  x4E
....................       RX_Wr_Index =0; 
00552:  CLRF   46
....................    } 
....................     
....................    if(Inicio==1){ 
00554:  DECFSZ x4E,W
00556:  BRA    056C
....................       Rx_Buffer2[RX_Wr_Index] = Dato2; 
00558:  CLRF   03
0055A:  MOVF   46,W
0055C:  ADDLW  3B
0055E:  MOVWF  FE9
00560:  MOVLW  00
00562:  ADDWFC 03,W
00564:  MOVWF  FEA
00566:  MOVFF  250,FEF
....................       RX_Wr_Index++; 
0056A:  INCF   46,F
....................    } 
....................    if(RX_Wr_Index >= RX_BUFFER_SIZE){ 
0056C:  MOVF   46,W
0056E:  SUBLW  09
00570:  BC    0576
....................       RX_Wr_Index =0; 
00572:  CLRF   46
....................       Inicio=0; 
00574:  CLRF   x4E
....................    } 
....................  
....................    if(RX_Wr_Index==0){ 
00576:  MOVF   46,F
00578:  BNZ   059A
....................       if(Rx_Buffer2[0]==0x65 && Rx_Buffer2[1]==0xff && Rx_Buffer2[2]==0xff && Rx_Buffer2[8]==0x00 && Rx_Buffer2[9]==0xff ){ 
0057A:  MOVF   3B,W
0057C:  SUBLW  65
0057E:  BNZ   0596
00580:  INCFSZ 3C,W
00582:  BRA    0596
00584:  INCFSZ 3D,W
00586:  BRA    0596
00588:  MOVF   43,F
0058A:  BNZ   0596
0058C:  INCFSZ 44,W
0058E:  BRA    0596
....................          Dato_Exitoso=5; 
00590:  MOVLW  05
00592:  MOVWF  x4F
....................       }else{ 
00594:  BRA    059A
....................          Dato_Exitoso=10; 
00596:  MOVLW  0A
00598:  MOVWF  x4F
....................       } 
....................    } 
.................... } 
....................  
0059A:  BCF    F9E.5
0059C:  MOVLB  0
0059E:  GOTO   00FE
.................... #int_TIMER1 
.................... void temp1s(void){ 
....................    set_timer1(40536); // Se repite cada 5ms 
005A2:  MOVLW  9E
005A4:  MOVWF  FCF
005A6:  MOVLW  58
005A8:  MOVWF  FCE
....................    tiempos++; 
005AA:  MOVLB  2
005AC:  INCF   x65,F
005AE:  BTFSC  FD8.2
005B0:  INCF   x66,F
....................    tiempos2++; 
005B2:  INCF   x67,F
005B4:  BTFSC  FD8.2
005B6:  INCF   x68,F
....................    tiempos3++; 
005B8:  INCF   x69,F
005BA:  BTFSC  FD8.2
005BC:  INCF   x6A,F
....................    tiempoctrl++; 
005BE:  INCF   x6B,F
005C0:  BTFSC  FD8.2
005C2:  INCF   x6C,F
....................     
....................    if(flagAlarma) 
005C4:  MOVLB  1
005C6:  BTFSS  x04.7
005C8:  BRA    05D4
....................       tbuzzer++; 
005CA:  MOVLB  2
005CC:  INCF   x8D,F
005CE:  BTFSC  FD8.2
005D0:  INCF   x8E,F
005D2:  MOVLB  1
....................        
....................    if(flagSilencio)    
005D4:  BTFSS  x05.1
005D6:  BRA    05E0
....................       tsilencio++; 
005D8:  MOVLB  2
005DA:  INCF   x8F,F
005DC:  BTFSC  FD8.2
005DE:  INCF   x90,F
....................  
....................    if(tiempos>=200){  // 12000 para que incremente cada minuto, 200para que incremente cada segundo. 
005E0:  MOVLB  2
005E2:  MOVF   x66,F
005E4:  BNZ   05EE
005E6:  MOVF   x65,W
005E8:  SUBLW  C7
005EA:  BTFSC  FD8.0
005EC:  BRA    073C
....................       if(flagTC) 
005EE:  BTFSS  x48.1
005F0:  BRA    05F4
....................          TiempoControl++; 
005F2:  INCF   x85,F
....................        
....................       tiemporecta++; 
005F4:  INCF   x4A,F
....................        
....................       if(IniciaCiclo && tiempoImpresion<CalculoImpresion){ 
005F6:  MOVLB  1
005F8:  BTFSS  x02.1
005FA:  BRA    061C
005FC:  MOVLB  2
005FE:  MOVF   x7C,F
00600:  BTFSC  FD8.2
00602:  BRA    0608
00604:  MOVLB  1
00606:  BRA    061C
00608:  MOVF   x4D,W
0060A:  SUBWF  x7B,W
0060C:  BTFSS  FD8.0
0060E:  BRA    0614
00610:  MOVLB  1
00612:  BRA    061C
....................          tiempoImpresion++; 
00614:  INCF   x7B,F
00616:  BTFSC  FD8.2
00618:  INCF   x7C,F
....................       }else if(tiempoImpresion>=CalculoImpresion){ 
0061A:  BRA    062E
0061C:  MOVLB  2
0061E:  MOVF   x7C,F
00620:  BNZ   0628
00622:  MOVF   x4D,W
00624:  SUBWF  x7B,W
00626:  BNC   062E
....................          flagImprime=1; 
00628:  BSF    x48.2
....................          tiempoImpresion=0; 
0062A:  CLRF   x7C
0062C:  CLRF   x7B
....................       } 
....................        
....................       if(vacioEmpaqueL) 
0062E:  MOVLB  0
00630:  BTFSS  xFA.7
00632:  BRA    063E
....................          tVacioEmpaqueL++; 
00634:  MOVLB  1
00636:  INCF   x00,F
00638:  BTFSC  FD8.2
0063A:  INCF   x01,F
0063C:  MOVLB  0
....................        
....................       if(vacioEmpaqueS) 
0063E:  BTFSS  xFB.0
00640:  BRA    0648
....................          tVacioEmpaqueS++; 
00642:  INCF   xFE,F
00644:  BTFSC  FD8.2
00646:  INCF   xFF,F
....................           
....................       if(empaqueLimpio && !EMPAQUEL) 
00648:  BTFSS  xF7.3
0064A:  BRA    065C
0064C:  BSF    F93.2
0064E:  BTFSS  F81.2
00650:  BRA    065C
....................          tEmpaqueL++; 
00652:  MOVLB  2
00654:  INCF   x5E,F
00656:  BTFSC  FD8.2
00658:  INCF   x5F,F
....................       else 
0065A:  BRA    0662
....................          tEmpaqueL=0; 
0065C:  MOVLB  2
0065E:  CLRF   x5F
00660:  CLRF   x5E
....................        
....................       if(empaqueSucio && !EMPAQUES) 
00662:  MOVLB  0
00664:  BTFSS  xF7.4
00666:  BRA    0678
00668:  BSF    F93.1
0066A:  BTFSS  F81.1
0066C:  BRA    0678
....................          tEmpaqueS++; 
0066E:  MOVLB  2
00670:  INCF   x5C,F
00672:  BTFSC  FD8.2
00674:  INCF   x5D,F
....................       else 
00676:  BRA    067E
....................          tEmpaqueS=0; 
00678:  MOVLB  2
0067A:  CLRF   x5D
0067C:  CLRF   x5C
....................        
....................       if(IniciaLlenado && !CalderinLleno) 
0067E:  MOVLB  1
00680:  BTFSS  x02.0
00682:  BRA    068E
00684:  BTFSC  x02.7
00686:  BRA    068E
....................          TiempoLlenado++; 
00688:  INCF   x15,F
0068A:  BTFSC  FD8.2
0068C:  INCF   x16,F
....................        
....................       if(SensadoNivel) 
0068E:  BTFSS  x02.4
00690:  BRA    0698
....................          TiempoSensadoNivel++; 
00692:  INCF   x0B,F
00694:  BTFSC  FD8.2
00696:  INCF   x0C,F
....................           
....................       if(SensadoNivelR) 
00698:  BTFSS  x08.4
0069A:  BRA    069E
....................          TiempoSensadoNivelR++;    
0069C:  INCF   xF1,F
....................        
....................       if(guardaCiclo) 
0069E:  MOVLB  0
006A0:  BTFSS  xFA.0
006A2:  BRA    06AC
....................          tguarda++; 
006A4:  MOVLB  1
006A6:  INCF   x11,F
006A8:  BTFSC  FD8.2
006AA:  INCF   x12,F
....................        
....................       if(IniciaCiclo && !Esterilizando && DOORS && DOORL) 
006AC:  MOVLB  1
006AE:  BTFSS  x02.1
006B0:  BRA    06C8
006B2:  BTFSC  x02.2
006B4:  BRA    06C8
006B6:  BSF    F93.3
006B8:  BTFSC  F81.3
006BA:  BRA    06C8
006BC:  BSF    F93.4
006BE:  BTFSC  F81.4
006C0:  BRA    06C8
....................          TiempoCiclo++; 
006C2:  INCF   x09,F
006C4:  BTFSC  FD8.2
006C6:  INCF   x0A,F
....................        
....................       if(SensadoNivel) 
006C8:  BTFSS  x02.4
006CA:  BRA    06D2
....................          TiempoSensadoNivel++; 
006CC:  INCF   x0B,F
006CE:  BTFSC  FD8.2
006D0:  INCF   x0C,F
....................           
....................       if(SensadoNivelL) 
006D2:  BTFSS  x07.1
006D4:  BRA    06DC
....................          tNivelBajo++; 
006D6:  INCF   x13,F
006D8:  BTFSC  FD8.2
006DA:  INCF   x14,F
....................        
....................       if(IniciaVacio) 
006DC:  BTFSS  x06.2
006DE:  BRA    06EA
....................          tvacio++;          
006E0:  MOVLB  2
006E2:  INCF   x79,F
006E4:  BTFSC  FD8.2
006E6:  INCF   x7A,F
006E8:  MOVLB  1
....................        
....................       if(IniciaVacio2) 
006EA:  BTFSS  x06.3
006EC:  BRA    06F6
....................          tbomba++; 
006EE:  MOVLB  2
006F0:  INCF   x77,F
006F2:  BTFSC  FD8.2
006F4:  INCF   x78,F
....................       
....................       tiempos=0;Lectura=1;tinicio++; 
006F6:  MOVLB  2
006F8:  CLRF   x66
006FA:  CLRF   x65
006FC:  MOVLB  1
006FE:  BSF    x08.6
00700:  MOVLB  2
00702:  INCF   x6F,F
00704:  BTFSC  FD8.2
00706:  INCF   x70,F
....................     
....................       if(Esterilizando && !Desfogando){                
00708:  MOVLB  1
0070A:  BTFSS  x02.2
0070C:  BRA    0724
0070E:  BTFSC  x02.5
00710:  BRA    0724
....................          if(sEst>0){ 
00712:  MOVF   x17,F
00714:  BZ    071A
....................             sEst--; 
00716:  DECF   x17,F
....................          }else if(mEst>0){ 
00718:  BRA    0724
0071A:  MOVF   x18,F
0071C:  BZ    0724
....................             mEst--; 
0071E:  DECF   x18,F
....................             sEst=59; 
00720:  MOVLW  3B
00722:  MOVWF  x17
....................          } 
....................       } 
....................       if(Secando){ 
00724:  BTFSS  x02.3
00726:  BRA    073A
....................          if(sSec>0){ 
00728:  MOVF   x19,F
0072A:  BZ    0730
....................             sSec--; 
0072C:  DECF   x19,F
....................          }else if(mSec>0){ 
0072E:  BRA    073A
00730:  MOVF   x1A,F
00732:  BZ    073A
....................             mSec--; 
00734:  DECF   x1A,F
....................             sSec=59; 
00736:  MOVLW  3B
00738:  MOVWF  x19
0073A:  MOVLB  2
....................          } 
....................       } 
....................    } 
.................... } 
....................  
0073C:  BCF    F9E.0
0073E:  MOVLB  0
00740:  GOTO   0068
.................... void main() 
.................... { 
*
07858:  CLRF   FF8
0785A:  BCF    F9F.0
0785C:  BSF    F9F.5
0785E:  BSF    FD0.7
07860:  BSF    07.7
07862:  CLRF   FEA
07864:  CLRF   FE9
07866:  BSF    FB8.3
07868:  MOVLW  08
0786A:  MOVWF  FAF
0786C:  MOVLW  02
0786E:  MOVWF  FB0
07870:  MOVLW  A6
07872:  MOVWF  FAC
07874:  MOVLW  90
07876:  MOVWF  FAB
07878:  CLRF   46
0787A:  CLRF   xDC
0787C:  CLRF   xDD
0787E:  CLRF   xDE
07880:  BCF    xF7.0
07882:  BCF    xF7.1
07884:  BCF    xF7.2
07886:  BCF    xF7.3
07888:  BCF    xF7.4
0788A:  BCF    xF7.5
0788C:  BCF    xF7.6
0788E:  BCF    xF7.7
07890:  BCF    xF8.0
07892:  BCF    xF8.1
07894:  BCF    xF8.2
07896:  BCF    xF8.3
07898:  BCF    xF8.4
0789A:  BCF    xF8.5
0789C:  BCF    xF8.6
0789E:  BCF    xF8.7
078A0:  BCF    xF9.0
078A2:  BCF    xF9.1
078A4:  BCF    xF9.2
078A6:  BCF    xF9.3
078A8:  BCF    xF9.4
078AA:  BCF    xF9.5
078AC:  BCF    xF9.6
078AE:  BCF    xF9.7
078B0:  BCF    xFA.0
078B2:  BCF    xFA.1
078B4:  BCF    xFA.2
078B6:  BCF    xFA.3
078B8:  BCF    xFA.4
078BA:  BCF    xFA.5
078BC:  BCF    xFA.6
078BE:  BCF    xFA.7
078C0:  BCF    xFB.0
078C2:  BCF    xFB.1
078C4:  MOVLW  02
078C6:  MOVWF  xFD
078C8:  MOVLW  58
078CA:  MOVWF  xFC
078CC:  CLRF   xFF
078CE:  CLRF   xFE
078D0:  MOVLB  1
078D2:  CLRF   x01
078D4:  CLRF   x00
078D6:  MOVLB  0
078D8:  BCF    xFB.2
078DA:  BCF    xFB.3
078DC:  BCF    xFB.4
078DE:  BCF    xFB.5
078E0:  BCF    xFB.6
078E2:  BCF    xFB.7
078E4:  MOVLB  1
078E6:  BCF    x02.0
078E8:  BCF    x02.1
078EA:  BCF    x02.2
078EC:  BCF    x02.3
078EE:  BCF    x02.4
078F0:  BCF    x02.5
078F2:  BCF    x02.6
078F4:  BCF    x02.7
078F6:  BCF    x03.0
078F8:  BCF    x03.1
078FA:  BCF    x03.2
078FC:  BCF    x03.3
078FE:  BCF    x03.4
07900:  BCF    x03.5
07902:  BCF    x03.6
07904:  BCF    x03.7
07906:  BCF    x04.0
07908:  BCF    x04.1
0790A:  BCF    x04.2
0790C:  BCF    x04.3
0790E:  BCF    x04.4
07910:  BCF    x04.5
07912:  BCF    x04.6
07914:  BCF    x04.7
07916:  BCF    x05.0
07918:  BCF    x05.1
0791A:  BCF    x05.2
0791C:  BCF    x05.3
0791E:  BCF    x05.4
07920:  BCF    x05.5
07922:  BCF    x05.6
07924:  BCF    x05.7
07926:  BCF    x06.0
07928:  BCF    x06.1
0792A:  BCF    x06.2
0792C:  BCF    x06.3
0792E:  BCF    x06.4
07930:  BCF    x06.5
07932:  BCF    x06.6
07934:  BCF    x06.7
07936:  BCF    x07.0
07938:  BCF    x07.1
0793A:  BCF    x07.2
0793C:  BCF    x07.3
0793E:  BCF    x07.4
07940:  BCF    x07.5
07942:  BCF    x07.6
07944:  BCF    x07.7
07946:  BCF    x08.0
07948:  BCF    x08.1
0794A:  BCF    x08.2
0794C:  BCF    x08.3
0794E:  BCF    x08.4
07950:  CLRF   x0A
07952:  CLRF   x09
07954:  CLRF   x0C
07956:  CLRF   x0B
07958:  CLRF   x0E
0795A:  CLRF   x0D
0795C:  CLRF   x10
0795E:  CLRF   x0F
07960:  CLRF   x12
07962:  CLRF   x11
07964:  CLRF   x14
07966:  CLRF   x13
07968:  CLRF   x16
0796A:  CLRF   x15
0796C:  CLRF   x17
0796E:  CLRF   x18
07970:  CLRF   x19
07972:  CLRF   x1A
07974:  CLRF   x1B
07976:  CLRF   x1C
07978:  CLRF   x1D
0797A:  CLRF   x1E
0797C:  CLRF   xC2
0797E:  CLRF   xC1
07980:  CLRF   xC0
07982:  CLRF   xBF
07984:  CLRF   xC6
07986:  CLRF   xC5
07988:  CLRF   xC4
0798A:  CLRF   xC3
0798C:  CLRF   xCA
0798E:  CLRF   xC9
07990:  CLRF   xC8
07992:  CLRF   xC7
07994:  MOVLW  4A
07996:  MOVWF  xCE
07998:  MOVLW  88
0799A:  MOVWF  xCD
0799C:  MOVLW  28
0799E:  MOVWF  xCC
079A0:  MOVLW  75
079A2:  MOVWF  xCB
079A4:  CLRF   xD2
079A6:  MOVLW  80
079A8:  MOVWF  xD1
079AA:  MOVLW  54
079AC:  MOVWF  xD0
079AE:  MOVLW  8B
079B0:  MOVWF  xCF
079B2:  CLRF   xD6
079B4:  CLRF   xD5
079B6:  CLRF   xD4
079B8:  CLRF   xD3
079BA:  CLRF   xDA
079BC:  CLRF   xD9
079BE:  CLRF   xD8
079C0:  CLRF   xD7
079C2:  CLRF   xE6
079C4:  CLRF   xE5
079C6:  CLRF   xE4
079C8:  CLRF   xE3
079CA:  CLRF   xEA
079CC:  CLRF   xE9
079CE:  CLRF   xE8
079D0:  CLRF   xE7
079D2:  CLRF   xEB
079D4:  CLRF   xEC
079D6:  MOVLW  14
079D8:  MOVWF  xED
079DA:  CLRF   xEE
079DC:  CLRF   xEF
079DE:  CLRF   xF0
079E0:  CLRF   xF1
079E2:  CLRF   xF2
079E4:  CLRF   xF3
079E6:  CLRF   xF4
079E8:  CLRF   xF8
079EA:  CLRF   xF7
079EC:  CLRF   xF6
079EE:  CLRF   xF5
079F0:  MOVLB  2
079F2:  CLRF   x00
079F4:  MOVLB  1
079F6:  CLRF   xFF
079F8:  MOVLW  20
079FA:  MOVWF  xFE
079FC:  MOVLW  82
079FE:  MOVWF  xFD
07A00:  MOVLB  2
07A02:  CLRF   x04
07A04:  CLRF   x03
07A06:  CLRF   x02
07A08:  CLRF   x01
07A0A:  CLRF   x08
07A0C:  CLRF   x07
07A0E:  CLRF   x06
07A10:  CLRF   x05
07A12:  CLRF   x0C
07A14:  CLRF   x0B
07A16:  CLRF   x0A
07A18:  CLRF   x09
07A1A:  CLRF   x10
07A1C:  CLRF   x0F
07A1E:  CLRF   x0E
07A20:  CLRF   x0D
07A22:  CLRF   x14
07A24:  CLRF   x13
07A26:  CLRF   x12
07A28:  CLRF   x11
07A2A:  CLRF   x18
07A2C:  CLRF   x17
07A2E:  MOVLW  48
07A30:  MOVWF  x16
07A32:  MOVLW  83
07A34:  MOVWF  x15
07A36:  CLRF   x1C
07A38:  CLRF   x1B
07A3A:  MOVLW  20
07A3C:  MOVWF  x1A
07A3E:  MOVLW  83
07A40:  MOVWF  x19
07A42:  CLRF   x20
07A44:  CLRF   x1F
07A46:  CLRF   x1E
07A48:  MOVLW  7F
07A4A:  MOVWF  x1D
07A4C:  CLRF   x24
07A4E:  CLRF   x23
07A50:  CLRF   x22
07A52:  CLRF   x21
07A54:  CLRF   x28
07A56:  CLRF   x27
07A58:  CLRF   x26
07A5A:  CLRF   x25
07A5C:  CLRF   x2C
07A5E:  CLRF   x2B
07A60:  CLRF   x2A
07A62:  CLRF   x29
07A64:  CLRF   x30
07A66:  CLRF   x2F
07A68:  CLRF   x2E
07A6A:  CLRF   x2D
07A6C:  CLRF   x34
07A6E:  CLRF   x33
07A70:  CLRF   x32
07A72:  CLRF   x31
07A74:  CLRF   x38
07A76:  CLRF   x37
07A78:  CLRF   x36
07A7A:  CLRF   x35
07A7C:  MOVLW  E0
07A7E:  MOVWF  x3C
07A80:  MOVLW  2D
07A82:  MOVWF  x3B
07A84:  MOVLW  10
07A86:  MOVWF  x3A
07A88:  MOVLW  75
07A8A:  MOVWF  x39
07A8C:  MOVLW  FF
07A8E:  MOVWF  x40
07A90:  MOVLW  21
07A92:  MOVWF  x3F
07A94:  MOVLW  15
07A96:  MOVWF  x3E
07A98:  MOVLW  80
07A9A:  MOVWF  x3D
07A9C:  MOVLW  82
07A9E:  MOVWF  x44
07AA0:  MOVLW  12
07AA2:  MOVWF  x43
07AA4:  MOVLW  F4
07AA6:  MOVWF  x42
07AA8:  MOVLW  86
07AAA:  MOVWF  x41
07AAC:  CLRF   x45
07AAE:  CLRF   x46
07AB0:  CLRF   x47
07AB2:  MOVLB  1
07AB4:  BCF    x08.5
07AB6:  BCF    x08.6
07AB8:  BCF    x08.7
07ABA:  MOVLB  2
07ABC:  BCF    x48.0
07ABE:  BCF    x48.1
07AC0:  BCF    x48.2
07AC2:  CLRF   x49
07AC4:  CLRF   x4A
07AC6:  CLRF   x4B
07AC8:  MOVLW  02
07ACA:  MOVWF  x4C
07ACC:  CLRF   x4D
07ACE:  MOVLW  01
07AD0:  MOVWF  x4E
07AD2:  CLRF   x4F
07AD4:  CLRF   x50
07AD6:  CLRF   x51
07AD8:  CLRF   x52
07ADA:  CLRF   x53
07ADC:  MOVLW  F0
07ADE:  MOVWF  x54
07AE0:  CLRF   x55
07AE2:  CLRF   x56
07AE4:  CLRF   x57
07AE6:  CLRF   x58
07AE8:  CLRF   x59
07AEA:  CLRF   x5B
07AEC:  MOVLW  04
07AEE:  MOVWF  x5A
07AF0:  CLRF   x5D
07AF2:  CLRF   x5C
07AF4:  CLRF   x5F
07AF6:  CLRF   x5E
07AF8:  CLRF   x60
07AFA:  MOVLW  01
07AFC:  MOVWF  x61
07AFE:  MOVWF  x62
07B00:  CLRF   x63
07B02:  CLRF   x64
07B04:  CLRF   x66
07B06:  CLRF   x65
07B08:  CLRF   x68
07B0A:  CLRF   x67
07B0C:  CLRF   x6A
07B0E:  CLRF   x69
07B10:  CLRF   x6C
07B12:  CLRF   x6B
07B14:  CLRF   x6E
07B16:  CLRF   x6D
07B18:  CLRF   x70
07B1A:  CLRF   x6F
07B1C:  CLRF   x72
07B1E:  CLRF   x71
07B20:  CLRF   x74
07B22:  CLRF   x73
07B24:  CLRF   x76
07B26:  CLRF   x75
07B28:  CLRF   x78
07B2A:  CLRF   x77
07B2C:  CLRF   x7A
07B2E:  CLRF   x79
07B30:  CLRF   x7C
07B32:  CLRF   x7B
07B34:  CLRF   x81
07B36:  CLRF   x82
07B38:  CLRF   x83
07B3A:  CLRF   x84
07B3C:  CLRF   x85
07B3E:  CLRF   x86
07B40:  CLRF   x87
07B42:  CLRF   x88
07B44:  CLRF   x89
07B46:  CLRF   x8A
07B48:  CLRF   x8B
07B4A:  CLRF   x8C
07B4C:  CLRF   x8E
07B4E:  CLRF   x8D
07B50:  CLRF   x90
07B52:  CLRF   x8F
07B54:  MOVLW  12
07B56:  MOVWF  x91
07B58:  MOVLW  09
07B5A:  MOVWF  x92
07B5C:  MOVLW  0D
07B5E:  MOVWF  x93
07B60:  CLRF   x94
07B62:  CLRF   x95
07B64:  CLRF   x96
07B66:  CLRF   x97
07B68:  CLRF   x98
07B6A:  CLRF   x99
07B6C:  MOVLW  19
07B6E:  MOVWF  x9A
07B70:  MOVLW  4B
07B72:  MOVWF  x9B
07B74:  MOVLW  0A
07B76:  MOVWF  x9C
07B78:  CLRF   x9D
07B7A:  CLRF   x9E
07B7C:  CLRF   x9F
07B7E:  CLRF   xA0
07B80:  CLRF   xA1
07B82:  CLRF   xA2
07B84:  CLRF   xA3
07B86:  CLRF   xA4
07B88:  CLRF   xA5
07B8A:  CLRF   xA6
07B8C:  CLRF   xA7
07B8E:  CLRF   xA8
07B90:  CLRF   xA9
07B92:  CLRF   xAA
07B94:  CLRF   xAB
07B96:  CLRF   xAC
07B98:  CLRF   xAD
07B9A:  MOVLB  3
07B9C:  CLRF   x0F
07B9E:  CLRF   x10
07BA0:  CLRF   x11
07BA2:  CLRF   x12
07BA4:  CLRF   x13
07BA6:  MOVF   FC1,W
07BA8:  ANDLW  C0
07BAA:  IORLW  0F
07BAC:  MOVWF  FC1
07BAE:  MOVLW  07
07BB0:  MOVWF  FB4
07BB2:  CLRF   2A
07BB4:  CLRF   2B
07BB6:  MOVLB  0
07BB8:  CLRF   xDF
07BBA:  MOVLW  03
07BBC:  MOVWF  xE0
07BBE:  MOVWF  xE1
07BC0:  MOVLW  06
07BC2:  MOVWF  xE2
07BC4:  MOVLW  01
07BC6:  MOVWF  xE3
07BC8:  MOVLW  04
07BCA:  MOVWF  xE4
07BCC:  MOVLW  06
07BCE:  MOVWF  xE5
07BD0:  MOVLW  02
07BD2:  MOVWF  xE6
07BD4:  MOVLW  05
07BD6:  MOVWF  xE7
07BD8:  CLRF   xE8
07BDA:  MOVLW  03
07BDC:  MOVWF  xE9
07BDE:  MOVLW  05
07BE0:  MOVWF  xEA
07BE2:  CLRF   xEB
07BE4:  MOVLW  03
07BE6:  MOVWF  xEC
07BE8:  MOVLW  04
07BEA:  MOVWF  xED
07BEC:  CLRF   xEE
07BEE:  MOVLW  02
07BF0:  MOVWF  xEF
07BF2:  MOVLW  05
07BF4:  MOVWF  xF0
07BF6:  CLRF   xF1
07BF8:  MOVLW  03
07BFA:  MOVWF  xF2
07BFC:  MOVLW  06
07BFE:  MOVWF  xF3
07C00:  MOVLW  01
07C02:  MOVWF  xF4
07C04:  MOVLW  04
07C06:  MOVWF  xF5
07C08:  MOVLW  06
07C0A:  MOVWF  xF6
07C0C:  MOVLB  1
07C0E:  CLRF   x1F
07C10:  CLRF   x20
07C12:  CLRF   x21
07C14:  CLRF   x22
07C16:  CLRF   x23
07C18:  CLRF   x24
07C1A:  CLRF   x25
07C1C:  CLRF   x26
07C1E:  CLRF   x27
07C20:  CLRF   x28
07C22:  CLRF   x29
07C24:  CLRF   x2A
07C26:  CLRF   x2B
07C28:  CLRF   x2C
07C2A:  CLRF   x2D
07C2C:  CLRF   x2E
07C2E:  CLRF   x2F
07C30:  CLRF   x30
07C32:  CLRF   x31
07C34:  CLRF   x32
07C36:  CLRF   x33
07C38:  CLRF   x34
07C3A:  CLRF   x35
07C3C:  CLRF   x36
07C3E:  CLRF   x37
07C40:  CLRF   x38
07C42:  CLRF   x39
07C44:  CLRF   x3A
07C46:  CLRF   x3B
07C48:  CLRF   x3C
07C4A:  CLRF   x3D
07C4C:  CLRF   x3E
07C4E:  CLRF   x3F
07C50:  CLRF   x40
07C52:  CLRF   x41
07C54:  CLRF   x42
07C56:  CLRF   x43
07C58:  CLRF   x44
07C5A:  CLRF   x45
07C5C:  CLRF   x46
07C5E:  CLRF   x47
07C60:  CLRF   x48
07C62:  CLRF   x49
07C64:  CLRF   x4A
07C66:  CLRF   x4B
07C68:  CLRF   x4C
07C6A:  CLRF   x4D
07C6C:  CLRF   x4E
07C6E:  CLRF   x4F
07C70:  CLRF   x50
07C72:  CLRF   x51
07C74:  CLRF   x52
07C76:  CLRF   x53
07C78:  CLRF   x54
07C7A:  CLRF   x55
07C7C:  CLRF   x56
07C7E:  CLRF   x57
07C80:  CLRF   x58
07C82:  CLRF   x59
07C84:  CLRF   x5A
07C86:  CLRF   x5B
07C88:  CLRF   x5C
07C8A:  CLRF   x5D
07C8C:  CLRF   x5E
07C8E:  CLRF   x5F
07C90:  CLRF   x60
07C92:  CLRF   x61
07C94:  CLRF   x62
07C96:  CLRF   x63
07C98:  CLRF   x64
07C9A:  CLRF   x65
07C9C:  CLRF   x66
07C9E:  CLRF   x67
07CA0:  CLRF   x68
07CA2:  CLRF   x69
07CA4:  CLRF   x6A
07CA6:  CLRF   x6B
07CA8:  CLRF   x6C
07CAA:  CLRF   x6D
07CAC:  CLRF   x6E
07CAE:  CLRF   x6F
07CB0:  CLRF   x70
07CB2:  CLRF   x71
07CB4:  CLRF   x72
07CB6:  CLRF   x73
07CB8:  CLRF   x74
07CBA:  CLRF   x75
07CBC:  CLRF   x76
07CBE:  CLRF   x77
07CC0:  CLRF   x78
07CC2:  CLRF   x79
07CC4:  CLRF   x7A
07CC6:  CLRF   x7B
07CC8:  CLRF   x7C
07CCA:  CLRF   x7D
07CCC:  CLRF   x7E
07CCE:  CLRF   x7F
07CD0:  CLRF   x80
07CD2:  CLRF   x81
07CD4:  CLRF   x82
07CD6:  CLRF   x83
07CD8:  CLRF   x84
07CDA:  CLRF   x85
07CDC:  CLRF   x86
07CDE:  CLRF   x87
07CE0:  CLRF   x88
07CE2:  CLRF   x89
07CE4:  CLRF   x8A
07CE6:  CLRF   x8B
07CE8:  CLRF   x8C
07CEA:  CLRF   x8D
07CEC:  CLRF   x8E
07CEE:  CLRF   x8F
07CF0:  CLRF   x90
07CF2:  CLRF   x91
07CF4:  CLRF   x92
07CF6:  CLRF   x93
07CF8:  CLRF   x94
07CFA:  CLRF   x95
07CFC:  CLRF   x96
07CFE:  CLRF   x97
07D00:  CLRF   x98
07D02:  CLRF   x99
07D04:  CLRF   x9A
07D06:  CLRF   x9B
07D08:  CLRF   x9C
07D0A:  CLRF   x9D
07D0C:  CLRF   x9E
07D0E:  CLRF   x9F
07D10:  CLRF   xA0
07D12:  CLRF   xA1
07D14:  CLRF   xA2
07D16:  CLRF   xA3
07D18:  CLRF   xA4
07D1A:  CLRF   xA5
07D1C:  CLRF   xA6
07D1E:  CLRF   xA7
07D20:  CLRF   xA8
07D22:  CLRF   xA9
07D24:  CLRF   xAA
07D26:  CLRF   xAB
07D28:  CLRF   xAC
07D2A:  CLRF   xAD
07D2C:  CLRF   xAE
07D2E:  CLRF   xAF
07D30:  CLRF   xB0
07D32:  CLRF   xB1
07D34:  CLRF   xB2
07D36:  CLRF   xB3
07D38:  CLRF   xB4
07D3A:  CLRF   xB5
07D3C:  CLRF   xB6
07D3E:  CLRF   xB7
07D40:  CLRF   xB8
07D42:  CLRF   xB9
07D44:  CLRF   xBA
07D46:  CLRF   xBB
07D48:  CLRF   xBC
07D4A:  CLRF   xBD
07D4C:  CLRF   xBE
07D4E:  CLRF   xDB
07D50:  CLRF   xDC
07D52:  CLRF   xDD
07D54:  CLRF   xDE
07D56:  CLRF   xDF
07D58:  CLRF   xE0
07D5A:  CLRF   xE1
07D5C:  CLRF   xE2
07D5E:  MOVLB  2
07D60:  CLRF   x7D
07D62:  CLRF   x7E
07D64:  CLRF   x7F
07D66:  CLRF   x80
07D68:  MOVLB  3
07D6A:  CLRF   x14
07D6C:  CLRF   x15
07D6E:  CLRF   x16
07D70:  CLRF   x17
....................    setup_timer_1(T1_INTERNAL|T1_DIV_BY_1); 
07D72:  MOVLW  85
07D74:  MOVWF  FCD
....................    enable_interrupts(INT_TIMER1); 
07D76:  BSF    F9D.0
....................    setup_adc(ADC_CLOCK_DIV_64); 
07D78:  MOVF   FC0,W
07D7A:  ANDLW  C0
07D7C:  IORLW  06
07D7E:  MOVWF  FC0
07D80:  BSF    FC0.7
07D82:  BSF    FC2.0
....................    setup_adc_ports(AN0_TO_AN5); 
07D84:  MOVF   FC1,W
07D86:  ANDLW  C0
07D88:  IORLW  09
07D8A:  MOVWF  FC1
....................    port_b_pullups(true); 
07D8C:  BCF    FF1.7
....................    enable_interrupts(int_rda); 
07D8E:  BSF    F9D.5
....................    setup_wdt(WDT_ON); 
07D90:  BSF    FD1.0
....................    enable_interrupts(global); 
07D92:  MOVLW  C0
07D94:  IORWF  FF2,F
....................    LeeEEPROM(); 
07D96:  MOVLB  0
07D98:  GOTO   2646
....................    rtc_init(); 
07D9C:  GOTO   39E4
....................    delay_ms(1); 
07DA0:  MOVLW  01
07DA2:  MOVLB  6
07DA4:  MOVWF  xBA
07DA6:  MOVLB  0
07DA8:  CALL   1F70
....................    LimitaValores(); 
07DAC:  GOTO   3A84
....................    printf("page Bienvenida"); 
07DB0:  MOVLW  44
07DB2:  MOVWF  FF6
07DB4:  MOVLW  07
07DB6:  MOVWF  FF7
07DB8:  MOVLW  00
07DBA:  MOVWF  FF8
07DBC:  CALL   3FF2
....................    SendDataDisplay(); 
07DC0:  CALL   4024
....................    printf("bkcmd=0"); 
07DC4:  MOVLW  54
07DC6:  MOVWF  FF6
07DC8:  MOVLW  07
07DCA:  MOVWF  FF7
07DCC:  MOVLW  00
07DCE:  MOVWF  FF8
07DD0:  CALL   3FF2
....................    SendDataDisplay(); 
07DD4:  CALL   4024
....................    delay_ms(3500);  
07DD8:  MOVLW  0E
07DDA:  MOVLB  6
07DDC:  MOVWF  xA8
07DDE:  MOVLW  FA
07DE0:  MOVWF  xBA
07DE2:  MOVLB  0
07DE4:  CALL   1F70
07DE8:  MOVLB  6
07DEA:  DECFSZ xA8,F
07DEC:  BRA    7DDE
....................    printf("page Usuarios"); 
07DEE:  MOVLW  5C
07DF0:  MOVWF  FF6
07DF2:  MOVLW  07
07DF4:  MOVWF  FF7
07DF6:  MOVLW  00
07DF8:  MOVWF  FF8
07DFA:  MOVLB  0
07DFC:  CALL   3FF2
....................    SendDataDisplay(); 
07E00:  CALL   4024
....................    ApagaSalidas();    
07E04:  CALL   405A
....................    TiempoVacio=360;  
07E08:  MOVLW  01
07E0A:  MOVWF  xFD
07E0C:  MOVLW  68
07E0E:  MOVWF  xFC
....................    Sensor[0].Gain=106.07; 
07E10:  MOVLW  D7
07E12:  MOVLB  4
07E14:  MOVWF  x7B
07E16:  MOVLW  23
07E18:  MOVWF  x7A
07E1A:  MOVLW  54
07E1C:  MOVWF  x79
07E1E:  MOVLW  85
07E20:  MOVWF  x78
....................    Sensor[1].Gain=106.07; 
07E22:  MOVLW  D7
07E24:  MOVLB  5
07E26:  MOVWF  xDF
07E28:  MOVLW  23
07E2A:  MOVWF  xDE
07E2C:  MOVLW  54
07E2E:  MOVWF  xDD
07E30:  MOVLW  85
07E32:  MOVWF  xDC
....................    Imprime=10; 
07E34:  MOVLW  0A
07E36:  MOVLB  2
07E38:  MOVWF  xA5
....................    CalculoImpresion=timpresion*60; 
07E3A:  MOVF   x4C,W
07E3C:  MULLW  3C
07E3E:  MOVFF  FF3,24D
....................     
....................    for(i=0;i<MediaMovil;i++){ 
07E42:  CLRF   x55
07E44:  MOVLB  1
07E46:  MOVF   xED,W
07E48:  MOVLB  2
07E4A:  SUBWF  x55,W
07E4C:  BC    7E92
....................       Temperatura=LeerPT100(0,MediaMovil); 
07E4E:  MOVLB  6
07E50:  CLRF   xAA
07E52:  MOVFF  1ED,6AB
07E56:  MOVLB  0
07E58:  CALL   41B0
07E5C:  MOVFF  03,234
07E60:  MOVFF  02,233
07E64:  MOVFF  01,232
07E68:  MOVFF  00,231
....................       Temperatura2=LeerPT100(1,MediaMovil); 
07E6C:  MOVLW  01
07E6E:  MOVLB  6
07E70:  MOVWF  xAA
07E72:  MOVFF  1ED,6AB
07E76:  MOVLB  0
07E78:  CALL   41B0
07E7C:  MOVFF  03,238
07E80:  MOVFF  02,237
07E84:  MOVFF  01,236
07E88:  MOVFF  00,235
....................    } 
07E8C:  MOVLB  2
07E8E:  INCF   x55,F
07E90:  BRA    7E44
....................    seguroValvula=OFF; 
07E92:  MOVLB  0
07E94:  BCF    xF8.5
....................     
....................    while(true){ 
....................        
....................       LeeDisplay(); 
07E96:  GOTO   4A90
....................       Envio_Esclavos(); 
07E9A:  CALL   4FE8
....................       delay_ms(10); 
07E9E:  MOVLW  0A
07EA0:  MOVLB  6
07EA2:  MOVWF  xBA
07EA4:  MOVLB  0
07EA6:  CALL   1F70
....................       Lectura_Esclavos(); 
07EAA:  GOTO   50B8
....................       rtc_get_date(Dia,Mes,Year,dow); 
....................       rtc_get_time(Hora,Minuto,Segundo); 
....................       restart_wdt(); 
*
07F72:  CLRWDT
....................       if(!Esterilizando || Desfogando){ 
07F74:  MOVLB  1
07F76:  BTFSS  x02.2
07F78:  BRA    7F7E
07F7A:  BTFSS  x02.5
07F7C:  BRA    7F88
....................          CalculoImpresion=180; 
07F7E:  MOVLW  B4
07F80:  MOVLB  2
07F82:  MOVWF  x4D
....................       }else{ 
07F84:  BRA    7F8E
07F86:  MOVLB  1
....................          CalculoImpresion=60; 
07F88:  MOVLW  3C
07F8A:  MOVLB  2
07F8C:  MOVWF  x4D
....................       } 
....................        
....................       graficaCurva(2000); 
07F8E:  MOVLW  07
07F90:  MOVLB  6
07F92:  MOVWF  xA9
07F94:  MOVLW  D0
07F96:  MOVWF  xA8
07F98:  MOVLB  0
07F9A:  GOTO   5264
....................       muestreo(20); 
07F9E:  MOVLB  6
07FA0:  CLRF   xA9
07FA2:  MOVLW  14
07FA4:  MOVWF  xA8
07FA6:  MOVLB  0
07FA8:  GOTO   568A
....................       monitoreaAgua(); 
07FAC:  GOTO   5736
....................       monitoreaStop(); 
07FB0:  GOTO   581C
....................        
....................       if(Menu!=20 && !PruebaEstados){ 
07FB4:  MOVLB  2
07FB6:  MOVF   x52,W
07FB8:  SUBLW  14
07FBA:  BZ    7FEC
07FBC:  MOVLB  1
07FBE:  BTFSS  x03.3
07FC0:  BRA    7FC6
07FC2:  MOVLB  2
07FC4:  BRA    7FEC
....................          if(!DOORS){ 
07FC6:  BSF    F93.3
07FC8:  BTFSS  F81.3
07FCA:  BRA    7FD6
....................             abrePuertaS(); 
07FCC:  MOVLB  0
07FCE:  CALL   589E
....................          }else{ 
07FD2:  BRA    7FDC
07FD4:  MOVLB  1
....................             cierraPuertaS(); 
07FD6:  MOVLB  0
07FD8:  CALL   58F4
....................          } 
....................           
....................          //if(ingreso){ 
....................             if(!DOORL){ 
07FDC:  BSF    F93.4
07FDE:  BTFSS  F81.4
07FE0:  BRA    7FE8
....................                //abrePuertaL(); 
....................                monitoreaPuertaLimpio(); 
07FE2:  CALL   59A2
....................             }else{ 
07FE6:  BRA    7FEC
....................                cierraPuertaL(); 
07FE8:  CALL   5918
....................             } 
....................          //} 
....................       } 
....................        
....................       if(ingreso && !PruebaEstados) 
07FEC:  MOVLB  1
07FEE:  BTFSS  x05.7
07FF0:  BRA    7FFC
07FF2:  BTFSC  x03.3
07FF4:  BRA    7FFC
....................          monitoreaPuertaLimpio(); 
07FF6:  MOVLB  0
07FF8:  CALL   59A2
....................           
....................       if(PresionCamara>Atmosferica+15){ 
07FFC:  MOVLW  0F
07FFE:  MOVLB  2
08000:  ADDWF  x9B,W
08002:  MOVF   x72,F
08004:  BNZ   800C
08006:  SUBWF  x71,W
08008:  BZ    8018
0800A:  BNC   8018
....................          cierraPuertaS(); 
0800C:  MOVLB  0
0800E:  CALL   58F4
....................          cierraPuertaL(); 
08012:  CALL   5918
08016:  MOVLB  2
....................       } 
....................  
....................  
.................... //_-------------------------------------------------------------------------------------------------------------------------------------------------------- 
....................    if(Menu==240){ //Menu de Bienvenida. 
08018:  MOVF   x52,W
0801A:  SUBLW  F0
0801C:  BNZ   806A
....................       printf("bkcmd=0"); 
0801E:  MOVLW  6A
08020:  MOVWF  FF6
08022:  MOVLW  07
08024:  MOVWF  FF7
08026:  MOVLW  00
08028:  MOVWF  FF8
0802A:  MOVLB  0
0802C:  CALL   3FF2
....................       SendDataDisplay(); 
08030:  CALL   4024
....................       delay_ms(1500); 
08034:  MOVLW  06
08036:  MOVLB  6
08038:  MOVWF  xA8
0803A:  MOVLW  FA
0803C:  MOVWF  xBA
0803E:  MOVLB  0
08040:  CALL   1F70
08044:  MOVLB  6
08046:  DECFSZ xA8,F
08048:  BRA    803A
....................       printf("page Usuarios"); 
0804A:  MOVLW  72
0804C:  MOVWF  FF6
0804E:  MOVLW  07
08050:  MOVWF  FF7
08052:  MOVLW  00
08054:  MOVWF  FF8
08056:  MOVLB  0
08058:  CALL   3FF2
....................       SendDataDisplay(); 
0805C:  CALL   4024
....................       ApagaSalidas(); 
08060:  CALL   405A
....................    }else if(Menu==0){ //Menu de Contrasea de acceso. 
08064:  GOTO   EDD6
08068:  MOVLB  2
0806A:  MOVF   x52,F
0806C:  BTFSS  FD8.2
0806E:  BRA    86A6
....................       entro=OFF; 
08070:  MOVLB  1
08072:  BCF    x07.7
....................       ApagaSalidas(); 
08074:  MOVLB  0
08076:  CALL   405A
....................       //printf("bkcmd=0"); 
....................       //SendDataDisplay(); 
....................       if(RX_Buffer[4]==0x11){//11 
0807A:  MOVF   34,W
0807C:  SUBLW  11
0807E:  BNZ   80A0
....................          if(TipoClave!=0){ 
08080:  MOVLB  1
08082:  MOVF   xEF,F
08084:  BZ    80A0
....................             printf("page Menu"); 
08086:  MOVLW  80
08088:  MOVWF  FF6
0808A:  MOVLW  07
0808C:  MOVWF  FF7
0808E:  MOVLW  00
08090:  MOVWF  FF8
08092:  MOVLB  0
08094:  CALL   3FF2
....................             SendDataDisplay(); 
08098:  CALL   4024
....................             PantallaPrincipal=0; 
0809C:  MOVLB  1
0809E:  CLRF   xEE
....................          } 
....................       } 
....................        
....................       if(TipoClave==3){ 
080A0:  MOVLB  1
080A2:  MOVF   xEF,W
080A4:  SUBLW  03
080A6:  BNZ   80C0
....................          printf("titulo.txt=\"Clave Nueva\""); 
080A8:  MOVLW  8A
080AA:  MOVWF  FF6
080AC:  MOVLW  07
080AE:  MOVWF  FF7
080B0:  MOVLW  00
080B2:  MOVWF  FF8
080B4:  MOVLB  0
080B6:  CALL   3FF2
....................          SendDataDisplay(); 
080BA:  CALL   4024
080BE:  MOVLB  1
....................       } 
....................        
....................       if(TipoClave==2){ 
080C0:  MOVF   xEF,W
080C2:  SUBLW  02
080C4:  BNZ   80DE
....................          printf("titulo.txt=\"Clave Actual\""); 
080C6:  MOVLW  A4
080C8:  MOVWF  FF6
080CA:  MOVLW  07
080CC:  MOVWF  FF7
080CE:  MOVLW  00
080D0:  MOVWF  FF8
080D2:  MOVLB  0
080D4:  CALL   3FF2
....................          SendDataDisplay();         
080D8:  CALL   4024
080DC:  MOVLB  1
....................       } 
....................        
....................       if(TipoClave==1){ 
080DE:  DECFSZ xEF,W
080E0:  BRA    80FA
....................          printf("titulo.txt=\"Clave Tecnico\""); 
080E2:  MOVLW  BE
080E4:  MOVWF  FF6
080E6:  MOVLW  07
080E8:  MOVWF  FF7
080EA:  MOVLW  00
080EC:  MOVWF  FF8
080EE:  MOVLB  0
080F0:  CALL   3FF2
....................          SendDataDisplay(); 
080F4:  CALL   4024
080F8:  MOVLB  1
....................       } 
....................        
....................       if(TipoClave==0){ 
080FA:  MOVF   xEF,F
080FC:  BNZ   8130
....................          printf("titulo.txt=\"%s\"",usuario); 
080FE:  MOVLW  DA
08100:  MOVWF  FF6
08102:  MOVLW  07
08104:  MOVWF  FF7
08106:  MOVLW  00
08108:  MOVWF  FF8
0810A:  MOVLW  0C
0810C:  MOVLB  6
0810E:  MOVWF  xAD
08110:  MOVLB  0
08112:  CALL   5A32
08116:  MOVLW  02
08118:  MOVWF  FEA
0811A:  MOVLW  AE
0811C:  MOVWF  FE9
0811E:  CALL   5A64
08122:  MOVLW  22
08124:  BTFSS  F9E.4
08126:  BRA    8124
08128:  MOVWF  FAD
....................          SendDataDisplay(); 
0812A:  CALL   4024
0812E:  MOVLB  1
....................       } 
....................        
....................       if(RX_Buffer[4]==0x11){//11, Regresar 
08130:  MOVF   34,W
08132:  SUBLW  11
08134:  BNZ   816C
....................          if(TipoClave==1){ 
08136:  DECFSZ xEF,W
08138:  BRA    8154
....................             printf("page Ajustes"); 
0813A:  MOVLW  EA
0813C:  MOVWF  FF6
0813E:  MOVLW  07
08140:  MOVWF  FF7
08142:  MOVLW  00
08144:  MOVWF  FF8
08146:  MOVLB  0
08148:  CALL   3FF2
....................             SendDataDisplay();        
0814C:  CALL   4024
....................          }else{ 
08150:  BRA    816A
08152:  MOVLB  1
....................             printf("page Usuarios"); 
08154:  MOVLW  F8
08156:  MOVWF  FF6
08158:  MOVLW  07
0815A:  MOVWF  FF7
0815C:  MOVLW  00
0815E:  MOVWF  FF8
08160:  MOVLB  0
08162:  CALL   3FF2
....................             SendDataDisplay();        
08166:  CALL   4024
0816A:  MOVLB  1
....................          } 
....................       } 
....................        
....................       if(RX_Buffer[3]==0x0f){//0f, recibe caracteres ingresados desde el Display 
0816C:  MOVF   33,W
0816E:  SUBLW  0F
08170:  BTFSS  FD8.2
08172:  BRA    869E
....................          delay_ms(800); 
08174:  MOVLW  04
08176:  MOVLB  6
08178:  MOVWF  xA8
0817A:  MOVLW  C8
0817C:  MOVWF  xBA
0817E:  MOVLB  0
08180:  CALL   1F70
08184:  MOVLB  6
08186:  DECFSZ xA8,F
08188:  BRA    817A
....................          if(TipoClave==0){ 
0818A:  MOVLB  1
0818C:  MOVF   xEF,F
0818E:  BTFSS  FD8.2
08190:  BRA    8344
....................             if(RX_Buffer[4]==0x33&&RX_Buffer[5]==0x38&&RX_Buffer[6]==0x39&&RX_Buffer[7]==0x32 &&RX_Buffer[8]==0x00 &&RX_Buffer[9]==0xff){ // Si Ingresa clave para reset general del sistema. 
08192:  MOVF   34,W
08194:  SUBLW  33
08196:  BNZ   8210
08198:  MOVF   35,W
0819A:  SUBLW  38
0819C:  BNZ   8210
0819E:  MOVF   36,W
081A0:  SUBLW  39
081A2:  BNZ   8210
081A4:  MOVF   37,W
081A6:  SUBLW  32
081A8:  BNZ   8210
081AA:  MOVF   38,F
081AC:  BNZ   8210
081AE:  INCFSZ 39,W
081B0:  BRA    8210
....................                for(i=0;i<40;i++){//Lee contraseas de usuarios 
081B2:  MOVLB  2
081B4:  CLRF   x55
081B6:  MOVF   x55,W
081B8:  SUBLW  27
081BA:  BNC   820C
....................                   write_eeprom(300+i,0);delay_ms(20); 
081BC:  MOVLW  2C
081BE:  ADDWF  x55,W
081C0:  MOVLB  6
081C2:  MOVWF  xA8
081C4:  MOVLW  01
081C6:  MOVWF  xA9
081C8:  BTFSC  FD8.0
081CA:  INCF   xA9,F
081CC:  MOVFF  6A9,FAA
081D0:  MOVFF  6A8,FA9
081D4:  CLRF   FA8
081D6:  BCF    FA6.6
081D8:  BCF    FA6.7
081DA:  BSF    FA6.2
081DC:  MOVF   FF2,W
081DE:  MOVWF  00
081E0:  BCF    FF2.6
081E2:  BCF    FF2.7
081E4:  MOVLB  F
081E6:  MOVLW  55
081E8:  MOVWF  FA7
081EA:  MOVLW  AA
081EC:  MOVWF  FA7
081EE:  BSF    FA6.1
081F0:  BTFSC  FA6.1
081F2:  BRA    81F0
081F4:  BCF    FA6.2
081F6:  MOVF   00,W
081F8:  IORWF  FF2,F
081FA:  MOVLW  14
081FC:  MOVLB  6
081FE:  MOVWF  xBA
08200:  MOVLB  0
08202:  CALL   1F70
....................                } 
08206:  MOVLB  2
08208:  INCF   x55,F
0820A:  BRA    81B6
....................                reset_cpu(); 
0820C:  RESET
0820E:  MOVLB  1
....................             } 
....................              
....................             if(RX_Buffer[4]>=0x30 && RX_Buffer[5]>=0x30 && RX_Buffer[6]>=0x30 && RX_Buffer[7]>=0x30 
....................             && RX_Buffer[4]<=0x39 && RX_Buffer[5]<=0x39 && RX_Buffer[6]<=0x39 && RX_Buffer[7]<=0x39){ 
08210:  MOVF   34,W
08212:  SUBLW  2F
08214:  BTFSC  FD8.0
08216:  BRA    8342
08218:  MOVF   35,W
0821A:  SUBLW  2F
0821C:  BTFSC  FD8.0
0821E:  BRA    8342
08220:  MOVF   36,W
08222:  SUBLW  2F
08224:  BTFSC  FD8.0
08226:  BRA    8342
08228:  MOVF   37,W
0822A:  SUBLW  2F
0822C:  BTFSC  FD8.0
0822E:  BRA    8342
08230:  MOVF   34,W
08232:  SUBLW  39
08234:  BTFSS  FD8.0
08236:  BRA    8342
08238:  MOVF   35,W
0823A:  SUBLW  39
0823C:  BTFSS  FD8.0
0823E:  BRA    8342
08240:  MOVF   36,W
08242:  SUBLW  39
08244:  BTFSS  FD8.0
08246:  BRA    8342
08248:  MOVF   37,W
0824A:  SUBLW  39
0824C:  BTFSS  FD8.0
0824E:  BRA    8342
....................                if((RX_Buffer[4]==Clave[codigoUsuario].Password[0]+0x30)&&(RX_Buffer[5]==Clave[codigoUsuario].Password[1]+0x30)&& 
....................                (RX_Buffer[6]==Clave[codigoUsuario].Password[2]+0x30)&&(RX_Buffer[7]==Clave[codigoUsuario].Password[3]+0x30) 
....................                &&RX_Buffer[8]==0x00 &&RX_Buffer[9]==0xff){ 
08250:  MOVLB  2
08252:  MOVF   xA8,W
08254:  MULLW  04
08256:  MOVF   FF3,W
08258:  MOVLB  6
0825A:  CLRF   xA9
0825C:  MOVWF  xA8
0825E:  MOVLW  80
08260:  ADDWF  xA8,W
08262:  MOVWF  FE9
08264:  MOVLW  06
08266:  ADDWFC xA9,W
08268:  MOVWF  FEA
0826A:  MOVLW  30
0826C:  ADDWF  FEF,W
0826E:  SUBWF  34,W
08270:  BNZ   8326
08272:  MOVLB  2
08274:  MOVF   xA8,W
08276:  MULLW  04
08278:  MOVF   FF3,W
0827A:  MOVLB  6
0827C:  CLRF   xA9
0827E:  MOVWF  xA8
08280:  MOVLW  01
08282:  ADDWF  xA8,W
08284:  MOVWF  01
08286:  MOVLW  00
08288:  ADDWFC xA9,W
0828A:  MOVWF  03
0828C:  MOVF   01,W
0828E:  ADDLW  80
08290:  MOVWF  FE9
08292:  MOVLW  06
08294:  ADDWFC 03,W
08296:  MOVWF  FEA
08298:  MOVLW  30
0829A:  ADDWF  FEF,W
0829C:  SUBWF  35,W
0829E:  BNZ   8326
082A0:  MOVLB  2
082A2:  MOVF   xA8,W
082A4:  MULLW  04
082A6:  MOVF   FF3,W
082A8:  MOVLB  6
082AA:  CLRF   xA9
082AC:  MOVWF  xA8
082AE:  MOVLW  02
082B0:  ADDWF  xA8,W
082B2:  MOVWF  01
082B4:  MOVLW  00
082B6:  ADDWFC xA9,W
082B8:  MOVWF  03
082BA:  MOVF   01,W
082BC:  ADDLW  80
082BE:  MOVWF  FE9
082C0:  MOVLW  06
082C2:  ADDWFC 03,W
082C4:  MOVWF  FEA
082C6:  MOVLW  30
082C8:  ADDWF  FEF,W
082CA:  SUBWF  36,W
082CC:  BNZ   8326
082CE:  MOVLB  2
082D0:  MOVF   xA8,W
082D2:  MULLW  04
082D4:  MOVF   FF3,W
082D6:  MOVLB  6
082D8:  CLRF   xA9
082DA:  MOVWF  xA8
082DC:  MOVLW  03
082DE:  ADDWF  xA8,W
082E0:  MOVWF  01
082E2:  MOVLW  00
082E4:  ADDWFC xA9,W
082E6:  MOVWF  03
082E8:  MOVF   01,W
082EA:  ADDLW  80
082EC:  MOVWF  FE9
082EE:  MOVLW  06
082F0:  ADDWFC 03,W
082F2:  MOVWF  FEA
082F4:  MOVLW  30
082F6:  ADDWF  FEF,W
082F8:  SUBWF  37,W
082FA:  BNZ   8326
082FC:  MOVF   38,F
082FE:  BNZ   8326
08300:  INCFSZ 39,W
08302:  BRA    8326
....................                   printf("page ClaveCorrecta"); 
08304:  MOVLW  06
08306:  MOVWF  FF6
08308:  MOVLW  08
0830A:  MOVWF  FF7
0830C:  MOVLW  00
0830E:  MOVWF  FF8
08310:  MOVLB  0
08312:  CALL   3FF2
....................                   SendDataDisplay(); 
08316:  CALL   4024
....................                   ingreso=ON; 
0831A:  MOVLB  1
0831C:  BSF    x05.7
....................                   RX_Buffer[3]=0x00;RX_Buffer2[3]=0x00;   
0831E:  CLRF   33
08320:  CLRF   3E
....................                }else{ 
08322:  BRA    8342
08324:  MOVLB  6
....................                   printf("page ClaveBad"); 
08326:  MOVLW  1A
08328:  MOVWF  FF6
0832A:  MOVLW  08
0832C:  MOVWF  FF7
0832E:  MOVLW  00
08330:  MOVWF  FF8
08332:  MOVLB  0
08334:  CALL   3FF2
....................                   SendDataDisplay(); 
08338:  CALL   4024
....................                   RX_Buffer[3]=0x00;RX_Buffer2[3]=0x00;   
0833C:  CLRF   33
0833E:  CLRF   3E
08340:  MOVLB  1
....................                }  
....................             } 
....................          }else if(TipoClave==1){ 
08342:  BRA    869E
08344:  DECFSZ xEF,W
08346:  BRA    83A4
....................             if(RX_Buffer[4]==0x34&&RX_Buffer[5]==0x34&&RX_Buffer[6]==0x34&&RX_Buffer[7]==0x34&&RX_Buffer[8]==0x00 &&RX_Buffer[9]==0xff){ // Si Ingresa clave de Servicio Tecnico 
08348:  MOVF   34,W
0834A:  SUBLW  34
0834C:  BNZ   8386
0834E:  MOVF   35,W
08350:  SUBLW  34
08352:  BNZ   8386
08354:  MOVF   36,W
08356:  SUBLW  34
08358:  BNZ   8386
0835A:  MOVF   37,W
0835C:  SUBLW  34
0835E:  BNZ   8386
08360:  MOVF   38,F
08362:  BNZ   8386
08364:  INCFSZ 39,W
08366:  BRA    8386
....................                printf("page Config"); 
08368:  MOVLW  28
0836A:  MOVWF  FF6
0836C:  MOVLW  08
0836E:  MOVWF  FF7
08370:  MOVLW  00
08372:  MOVWF  FF8
08374:  MOVLB  0
08376:  CALL   3FF2
....................                SendDataDisplay(); 
0837A:  CALL   4024
....................                RX_Buffer[3]=0x00;RX_Buffer2[3]=0x00;   
0837E:  CLRF   33
08380:  CLRF   3E
....................             }else{ 
08382:  BRA    83A0
08384:  MOVLB  1
....................                printf("page Menu"); 
08386:  MOVLW  34
08388:  MOVWF  FF6
0838A:  MOVLW  08
0838C:  MOVWF  FF7
0838E:  MOVLW  00
08390:  MOVWF  FF8
08392:  MOVLB  0
08394:  CALL   3FF2
....................                SendDataDisplay(); 
08398:  CALL   4024
....................                RX_Buffer[3]=0x00;RX_Buffer2[3]=0x00;   
0839C:  CLRF   33
0839E:  CLRF   3E
....................             } 
....................          }else if(TipoClave==2){ 
083A0:  BRA    86A0
083A2:  MOVLB  1
083A4:  MOVF   xEF,W
083A6:  SUBLW  02
083A8:  BTFSS  FD8.2
083AA:  BRA    84FA
....................             if(RX_Buffer[4]>=0x30 && RX_Buffer[5]>=0x30 && RX_Buffer[6]>=0x30 && RX_Buffer[7]>=0x30 
....................             && RX_Buffer[4]<=0x39 && RX_Buffer[5]<=0x39 && RX_Buffer[6]<=0x39 && RX_Buffer[7]<=0x39){ 
083AC:  MOVF   34,W
083AE:  SUBLW  2F
083B0:  BTFSC  FD8.0
083B2:  BRA    84F8
083B4:  MOVF   35,W
083B6:  SUBLW  2F
083B8:  BTFSC  FD8.0
083BA:  BRA    84F8
083BC:  MOVF   36,W
083BE:  SUBLW  2F
083C0:  BTFSC  FD8.0
083C2:  BRA    84F8
083C4:  MOVF   37,W
083C6:  SUBLW  2F
083C8:  BTFSC  FD8.0
083CA:  BRA    84F8
083CC:  MOVF   34,W
083CE:  SUBLW  39
083D0:  BTFSS  FD8.0
083D2:  BRA    84F8
083D4:  MOVF   35,W
083D6:  SUBLW  39
083D8:  BTFSS  FD8.0
083DA:  BRA    84F8
083DC:  MOVF   36,W
083DE:  SUBLW  39
083E0:  BTFSS  FD8.0
083E2:  BRA    84F8
083E4:  MOVF   37,W
083E6:  SUBLW  39
083E8:  BTFSS  FD8.0
083EA:  BRA    84F8
....................                if((RX_Buffer[4]==Clave[codigoUsuario2].Password[0]+0x30)&&(RX_Buffer[5]==Clave[codigoUsuario2].Password[1]+0x30)&& 
....................                (RX_Buffer[6]==Clave[codigoUsuario2].Password[2]+0x30)&&(RX_Buffer[7]==Clave[codigoUsuario2].Password[3]+0x30) 
....................                &&RX_Buffer[8]==0x00 &&RX_Buffer[9]==0xff){ 
083EC:  MOVLB  2
083EE:  MOVF   x8C,W
083F0:  MULLW  04
083F2:  MOVF   FF3,W
083F4:  MOVLB  6
083F6:  CLRF   xA9
083F8:  MOVWF  xA8
083FA:  MOVLW  80
083FC:  ADDWF  xA8,W
083FE:  MOVWF  FE9
08400:  MOVLW  06
08402:  ADDWFC xA9,W
08404:  MOVWF  FEA
08406:  MOVLW  30
08408:  ADDWF  FEF,W
0840A:  SUBWF  34,W
0840C:  BNZ   84D8
0840E:  MOVLB  2
08410:  MOVF   x8C,W
08412:  MULLW  04
08414:  MOVF   FF3,W
08416:  MOVLB  6
08418:  CLRF   xA9
0841A:  MOVWF  xA8
0841C:  MOVLW  01
0841E:  ADDWF  xA8,W
08420:  MOVWF  01
08422:  MOVLW  00
08424:  ADDWFC xA9,W
08426:  MOVWF  03
08428:  MOVF   01,W
0842A:  ADDLW  80
0842C:  MOVWF  FE9
0842E:  MOVLW  06
08430:  ADDWFC 03,W
08432:  MOVWF  FEA
08434:  MOVLW  30
08436:  ADDWF  FEF,W
08438:  SUBWF  35,W
0843A:  BNZ   84D8
0843C:  MOVLB  2
0843E:  MOVF   x8C,W
08440:  MULLW  04
08442:  MOVF   FF3,W
08444:  MOVLB  6
08446:  CLRF   xA9
08448:  MOVWF  xA8
0844A:  MOVLW  02
0844C:  ADDWF  xA8,W
0844E:  MOVWF  01
08450:  MOVLW  00
08452:  ADDWFC xA9,W
08454:  MOVWF  03
08456:  MOVF   01,W
08458:  ADDLW  80
0845A:  MOVWF  FE9
0845C:  MOVLW  06
0845E:  ADDWFC 03,W
08460:  MOVWF  FEA
08462:  MOVLW  30
08464:  ADDWF  FEF,W
08466:  SUBWF  36,W
08468:  BNZ   84D8
0846A:  MOVLB  2
0846C:  MOVF   x8C,W
0846E:  MULLW  04
08470:  MOVF   FF3,W
08472:  MOVLB  6
08474:  CLRF   xA9
08476:  MOVWF  xA8
08478:  MOVLW  03
0847A:  ADDWF  xA8,W
0847C:  MOVWF  01
0847E:  MOVLW  00
08480:  ADDWFC xA9,W
08482:  MOVWF  03
08484:  MOVF   01,W
08486:  ADDLW  80
08488:  MOVWF  FE9
0848A:  MOVLW  06
0848C:  ADDWFC 03,W
0848E:  MOVWF  FEA
08490:  MOVLW  30
08492:  ADDWF  FEF,W
08494:  SUBWF  37,W
08496:  BNZ   84D8
08498:  MOVF   38,F
0849A:  BNZ   84D8
0849C:  INCFSZ 39,W
0849E:  BRA    84D8
....................                   printf("page Clave"); 
084A0:  MOVLW  3E
084A2:  MOVWF  FF6
084A4:  MOVLW  08
084A6:  MOVWF  FF7
084A8:  MOVLW  00
084AA:  MOVWF  FF8
084AC:  MOVLB  0
084AE:  CALL   3FF2
....................                   SendDataDisplay(); 
084B2:  CALL   4024
....................                   printf("titulo.txt=\"Clave Nueva\""); 
084B6:  MOVLW  4A
084B8:  MOVWF  FF6
084BA:  MOVLW  08
084BC:  MOVWF  FF7
084BE:  MOVLW  00
084C0:  MOVWF  FF8
084C2:  CALL   3FF2
....................                   SendDataDisplay(); 
084C6:  CALL   4024
....................                   TipoClave=3; 
084CA:  MOVLW  03
084CC:  MOVLB  1
084CE:  MOVWF  xEF
....................                   RX_Buffer[3]=0x00; 
084D0:  CLRF   33
....................                   RX_Buffer2[3]=0x00; 
084D2:  CLRF   3E
....................                }else{ 
084D4:  BRA    84F8
084D6:  MOVLB  6
....................                   printf("page Menu"); 
084D8:  MOVLW  64
084DA:  MOVWF  FF6
084DC:  MOVLW  08
084DE:  MOVWF  FF7
084E0:  MOVLW  00
084E2:  MOVWF  FF8
084E4:  MOVLB  0
084E6:  CALL   3FF2
....................                   SendDataDisplay(); 
084EA:  CALL   4024
....................                   RX_Buffer[3]=0x00; 
084EE:  CLRF   33
....................                   RX_Buffer2[3]=0x00; 
084F0:  CLRF   3E
....................                   codigoUsuario=codigoUsuarioant; 
084F2:  MOVFF  2A9,2A8
084F6:  MOVLB  1
....................                }  
....................             } 
....................          }else if(TipoClave==3){ 
084F8:  BRA    869E
084FA:  MOVF   xEF,W
084FC:  SUBLW  03
084FE:  BTFSS  FD8.2
08500:  BRA    869E
....................             printf("titulo.txt=\"Clave Nueva\""); 
08502:  MOVLW  6E
08504:  MOVWF  FF6
08506:  MOVLW  08
08508:  MOVWF  FF7
0850A:  MOVLW  00
0850C:  MOVWF  FF8
0850E:  MOVLB  0
08510:  CALL   3FF2
....................             SendDataDisplay(); 
08514:  CALL   4024
....................             printf("page Menu"); 
08518:  MOVLW  88
0851A:  MOVWF  FF6
0851C:  MOVLW  08
0851E:  MOVWF  FF7
08520:  MOVLW  00
08522:  MOVWF  FF8
08524:  CALL   3FF2
....................             SendDataDisplay(); 
08528:  CALL   4024
....................             if(!GuardaEEPROM){ 
0852C:  MOVLB  1
0852E:  BTFSC  x04.3
08530:  BRA    869A
....................                write_eeprom(300+(codigoUsuario*4),RX_Buffer[4]-0x30);delay_ms(20); 
08532:  MOVLB  2
08534:  MOVF   xA8,W
08536:  MULLW  04
08538:  MOVF   FF3,W
0853A:  ADDLW  2C
0853C:  MOVLB  6
0853E:  MOVWF  xA8
08540:  MOVLW  01
08542:  MOVWF  xA9
08544:  BTFSC  FD8.0
08546:  INCF   xA9,F
08548:  MOVLW  30
0854A:  SUBWF  34,W
0854C:  MOVWF  xAA
0854E:  MOVFF  6A9,FAA
08552:  MOVFF  6A8,FA9
08556:  MOVFF  6AA,FA8
0855A:  BCF    FA6.6
0855C:  BCF    FA6.7
0855E:  BSF    FA6.2
08560:  MOVF   FF2,W
08562:  MOVWF  00
08564:  BCF    FF2.6
08566:  BCF    FF2.7
08568:  MOVLB  F
0856A:  MOVLW  55
0856C:  MOVWF  FA7
0856E:  MOVLW  AA
08570:  MOVWF  FA7
08572:  BSF    FA6.1
08574:  BTFSC  FA6.1
08576:  BRA    8574
08578:  BCF    FA6.2
0857A:  MOVF   00,W
0857C:  IORWF  FF2,F
0857E:  MOVLW  14
08580:  MOVLB  6
08582:  MOVWF  xBA
08584:  MOVLB  0
08586:  CALL   1F70
....................                write_eeprom(301+(codigoUsuario*4),RX_Buffer[5]-0x30);delay_ms(20); 
0858A:  MOVLB  2
0858C:  MOVF   xA8,W
0858E:  MULLW  04
08590:  MOVF   FF3,W
08592:  ADDLW  2D
08594:  MOVLB  6
08596:  MOVWF  xA8
08598:  MOVLW  01
0859A:  MOVWF  xA9
0859C:  BTFSC  FD8.0
0859E:  INCF   xA9,F
085A0:  MOVLW  30
085A2:  SUBWF  35,W
085A4:  MOVWF  xAA
085A6:  MOVFF  6A9,FAA
085AA:  MOVFF  6A8,FA9
085AE:  MOVFF  6AA,FA8
085B2:  BCF    FA6.6
085B4:  BCF    FA6.7
085B6:  BSF    FA6.2
085B8:  MOVF   FF2,W
085BA:  MOVWF  00
085BC:  BCF    FF2.6
085BE:  BCF    FF2.7
085C0:  MOVLB  F
085C2:  MOVLW  55
085C4:  MOVWF  FA7
085C6:  MOVLW  AA
085C8:  MOVWF  FA7
085CA:  BSF    FA6.1
085CC:  BTFSC  FA6.1
085CE:  BRA    85CC
085D0:  BCF    FA6.2
085D2:  MOVF   00,W
085D4:  IORWF  FF2,F
085D6:  MOVLW  14
085D8:  MOVLB  6
085DA:  MOVWF  xBA
085DC:  MOVLB  0
085DE:  CALL   1F70
....................                write_eeprom(302+(codigoUsuario*4),RX_Buffer[6]-0x30);delay_ms(20); 
085E2:  MOVLB  2
085E4:  MOVF   xA8,W
085E6:  MULLW  04
085E8:  MOVF   FF3,W
085EA:  ADDLW  2E
085EC:  MOVLB  6
085EE:  MOVWF  xA8
085F0:  MOVLW  01
085F2:  MOVWF  xA9
085F4:  BTFSC  FD8.0
085F6:  INCF   xA9,F
085F8:  MOVLW  30
085FA:  SUBWF  36,W
085FC:  MOVWF  xAA
085FE:  MOVFF  6A9,FAA
08602:  MOVFF  6A8,FA9
08606:  MOVFF  6AA,FA8
0860A:  BCF    FA6.6
0860C:  BCF    FA6.7
0860E:  BSF    FA6.2
08610:  MOVF   FF2,W
08612:  MOVWF  00
08614:  BCF    FF2.6
08616:  BCF    FF2.7
08618:  MOVLB  F
0861A:  MOVLW  55
0861C:  MOVWF  FA7
0861E:  MOVLW  AA
08620:  MOVWF  FA7
08622:  BSF    FA6.1
08624:  BTFSC  FA6.1
08626:  BRA    8624
08628:  BCF    FA6.2
0862A:  MOVF   00,W
0862C:  IORWF  FF2,F
0862E:  MOVLW  14
08630:  MOVLB  6
08632:  MOVWF  xBA
08634:  MOVLB  0
08636:  CALL   1F70
....................                write_eeprom(303+(codigoUsuario*4),RX_Buffer[7]-0x30);delay_ms(20); 
0863A:  MOVLB  2
0863C:  MOVF   xA8,W
0863E:  MULLW  04
08640:  MOVF   FF3,W
08642:  ADDLW  2F
08644:  MOVLB  6
08646:  MOVWF  xA8
08648:  MOVLW  01
0864A:  MOVWF  xA9
0864C:  BTFSC  FD8.0
0864E:  INCF   xA9,F
08650:  MOVLW  30
08652:  SUBWF  37,W
08654:  MOVWF  xAA
08656:  MOVFF  6A9,FAA
0865A:  MOVFF  6A8,FA9
0865E:  MOVFF  6AA,FA8
08662:  BCF    FA6.6
08664:  BCF    FA6.7
08666:  BSF    FA6.2
08668:  MOVF   FF2,W
0866A:  MOVWF  00
0866C:  BCF    FF2.6
0866E:  BCF    FF2.7
08670:  MOVLB  F
08672:  MOVLW  55
08674:  MOVWF  FA7
08676:  MOVLW  AA
08678:  MOVWF  FA7
0867A:  BSF    FA6.1
0867C:  BTFSC  FA6.1
0867E:  BRA    867C
08680:  BCF    FA6.2
08682:  MOVF   00,W
08684:  IORWF  FF2,F
08686:  MOVLW  14
08688:  MOVLB  6
0868A:  MOVWF  xBA
0868C:  MOVLB  0
0868E:  CALL   1F70
....................                GuardaEEPROM=ON; 
08692:  MOVLB  1
08694:  BSF    x04.3
....................                codigoUsuario=codigoUsuarioant; 
08696:  MOVFF  2A9,2A8
....................             } 
....................             RX_Buffer[3]=0x00; 
0869A:  CLRF   33
....................             RX_Buffer2[3]=0x00; 
0869C:  CLRF   3E
0869E:  MOVLB  0
....................          } 
....................       } 
....................     }else if(Menu==1){ //Menu Principal. 
086A0:  GOTO   EDD6
086A4:  MOVLB  2
086A6:  DECFSZ x52,W
086A8:  GOTO   8E54
....................       printf("fecha.txt=\"Fecha:%02u/%02u/20%02u    Hora: %02u:%02u:%02u\"",Dia,Mes,Year,Hora,Minuto,Segundo); 
086AC:  MOVLW  92
086AE:  MOVWF  FF6
086B0:  MOVLW  08
086B2:  MOVWF  FF7
086B4:  MOVLW  00
086B6:  MOVWF  FF8
086B8:  MOVLW  11
086BA:  MOVLB  6
086BC:  MOVWF  xAD
086BE:  MOVLB  0
086C0:  CALL   5A32
086C4:  MOVFF  293,6AD
086C8:  MOVLW  01
086CA:  MOVLB  6
086CC:  MOVWF  xAE
086CE:  MOVLB  0
086D0:  CALL   5AB6
086D4:  MOVLW  2F
086D6:  BTFSS  F9E.4
086D8:  BRA    86D6
086DA:  MOVWF  FAD
086DC:  MOVFF  292,6AD
086E0:  MOVLW  01
086E2:  MOVLB  6
086E4:  MOVWF  xAE
086E6:  MOVLB  0
086E8:  CALL   5AB6
086EC:  MOVLW  2F
086EE:  BTFSS  F9E.4
086F0:  BRA    86EE
086F2:  MOVWF  FAD
086F4:  MOVLW  32
086F6:  BTFSS  F9E.4
086F8:  BRA    86F6
086FA:  MOVWF  FAD
086FC:  MOVLW  30
086FE:  BTFSS  F9E.4
08700:  BRA    86FE
08702:  MOVWF  FAD
08704:  MOVFF  291,6AD
08708:  MOVLW  01
0870A:  MOVLB  6
0870C:  MOVWF  xAE
0870E:  MOVLB  0
08710:  CALL   5AB6
08714:  MOVLW  B3
08716:  MOVWF  FF6
08718:  MOVLW  08
0871A:  MOVWF  FF7
0871C:  MOVLW  00
0871E:  MOVWF  FF8
08720:  MOVLW  0A
08722:  MOVLB  6
08724:  MOVWF  xAD
08726:  MOVLB  0
08728:  CALL   5A32
0872C:  MOVFF  294,6AD
08730:  MOVLW  01
08732:  MOVLB  6
08734:  MOVWF  xAE
08736:  MOVLB  0
08738:  CALL   5AB6
0873C:  MOVLW  3A
0873E:  BTFSS  F9E.4
08740:  BRA    873E
08742:  MOVWF  FAD
08744:  MOVFF  295,6AD
08748:  MOVLW  01
0874A:  MOVLB  6
0874C:  MOVWF  xAE
0874E:  MOVLB  0
08750:  CALL   5AB6
08754:  MOVLW  3A
08756:  BTFSS  F9E.4
08758:  BRA    8756
0875A:  MOVWF  FAD
0875C:  MOVFF  296,6AD
08760:  MOVLW  01
08762:  MOVLB  6
08764:  MOVWF  xAE
08766:  MOVLB  0
08768:  CALL   5AB6
0876C:  MOVLW  22
0876E:  BTFSS  F9E.4
08770:  BRA    876E
08772:  MOVWF  FAD
....................       SendDataDisplay(); 
08774:  CALL   4024
....................       GuardaEEPROM=OFF; 
08778:  MOVLB  1
0877A:  BCF    x04.3
....................       printf("tuser.txt=\"%s\"",usuario); 
0877C:  MOVLW  CE
0877E:  MOVWF  FF6
08780:  MOVLW  08
08782:  MOVWF  FF7
08784:  MOVLW  00
08786:  MOVWF  FF8
08788:  MOVLW  0B
0878A:  MOVLB  6
0878C:  MOVWF  xAD
0878E:  MOVLB  0
08790:  CALL   5A32
08794:  MOVLW  02
08796:  MOVWF  FEA
08798:  MOVLW  AE
0879A:  MOVWF  FE9
0879C:  CALL   5A64
087A0:  MOVLW  22
087A2:  BTFSS  F9E.4
087A4:  BRA    87A2
087A6:  MOVWF  FAD
....................       SendDataDisplay(); 
087A8:  CALL   4024
....................       codigoUsuarioant=codigoUsuario; 
087AC:  MOVFF  2A8,2A9
....................        
....................       if(RX_Buffer[4]==0x01 && RX_Buffer[5]==0x0f && estados[19+RX_Buffer[4]]){//01, Calentamiento 
087B0:  DECFSZ 34,W
087B2:  BRA    884A
087B4:  MOVF   35,W
087B6:  SUBLW  0F
087B8:  BNZ   884A
087BA:  MOVLW  13
087BC:  ADDWF  34,W
087BE:  MOVLB  6
087C0:  MOVWF  xA9
087C2:  MOVLW  03
087C4:  MOVWF  xAB
087C6:  MOVLW  14
087C8:  MOVWF  xAA
087CA:  MOVLB  0
087CC:  CALL   23B0
087D0:  BTFSS  01.0
087D2:  BRA    884A
....................          delay_ms(5); 
087D4:  MOVLW  05
087D6:  MOVLB  6
087D8:  MOVWF  xBA
087DA:  MOVLB  0
087DC:  CALL   1F70
....................          if(RX_Buffer[4]==0x01 && RX_Buffer[5]==0x0f && estados[19+RX_Buffer[4]]){//01, Calentamiento 
087E0:  DECFSZ 34,W
087E2:  BRA    884A
087E4:  MOVF   35,W
087E6:  SUBLW  0F
087E8:  BNZ   884A
087EA:  MOVLW  13
087EC:  ADDWF  34,W
087EE:  MOVLB  6
087F0:  MOVWF  xA9
087F2:  MOVLW  03
087F4:  MOVWF  xAB
087F6:  MOVLW  14
087F8:  MOVWF  xAA
087FA:  MOVLB  0
087FC:  CALL   23B0
08800:  BTFSS  01.0
08802:  BRA    884A
....................             printf("page Funcionamiento"); 
08804:  MOVLW  DE
08806:  MOVWF  FF6
08808:  MOVLW  08
0880A:  MOVWF  FF7
0880C:  MOVLW  00
0880E:  MOVWF  FF8
08810:  CALL   3FF2
....................             SendDataDisplay(); 
08814:  CALL   4024
....................             ConfiguraCiclo(0,15,0,1,0,1,121,4,25,0); 
08818:  MOVLB  6
0881A:  CLRF   xB0
0881C:  MOVLW  0F
0881E:  MOVWF  xB1
08820:  CLRF   xB2
08822:  MOVLW  01
08824:  MOVWF  xB3
08826:  CLRF   xB4
08828:  MOVWF  xB5
0882A:  MOVLW  79
0882C:  MOVWF  xB6
0882E:  MOVLW  04
08830:  MOVWF  xB7
08832:  MOVLW  19
08834:  MOVWF  xB8
08836:  CLRF   xB9
08838:  MOVLB  0
0883A:  CALL   5B34
....................             Op=OFF; 
0883E:  MOVLB  1
08840:  BCF    x03.7
....................             Op2=OFF; 
08842:  BCF    x04.0
....................             MenuAnt=Menu; 
08844:  MOVFF  252,253
08848:  MOVLB  0
....................             //TiempoVacio=CantidadPulsos*180; 
....................          } 
....................       } 
....................        
....................       if(RX_Buffer[4]==0x02 && RX_Buffer[5]==0x0f && estados[19+RX_Buffer[4]]){//02, No Envueltos 134 
0884A:  MOVF   34,W
0884C:  SUBLW  02
0884E:  BNZ   88EA
08850:  MOVF   35,W
08852:  SUBLW  0F
08854:  BNZ   88EA
08856:  MOVLW  13
08858:  ADDWF  34,W
0885A:  MOVLB  6
0885C:  MOVWF  xA9
0885E:  MOVLW  03
08860:  MOVWF  xAB
08862:  MOVLW  14
08864:  MOVWF  xAA
08866:  MOVLB  0
08868:  CALL   23B0
0886C:  BTFSS  01.0
0886E:  BRA    88EA
....................          delay_ms(5); 
08870:  MOVLW  05
08872:  MOVLB  6
08874:  MOVWF  xBA
08876:  MOVLB  0
08878:  CALL   1F70
....................          if(RX_Buffer[4]==0x02 && RX_Buffer[5]==0x0f && estados[19+RX_Buffer[4]]){ 
0887C:  MOVF   34,W
0887E:  SUBLW  02
08880:  BNZ   88EA
08882:  MOVF   35,W
08884:  SUBLW  0F
08886:  BNZ   88EA
08888:  MOVLW  13
0888A:  ADDWF  34,W
0888C:  MOVLB  6
0888E:  MOVWF  xA9
08890:  MOVLW  03
08892:  MOVWF  xAB
08894:  MOVLW  14
08896:  MOVWF  xAA
08898:  MOVLB  0
0889A:  CALL   23B0
0889E:  BTFSS  01.0
088A0:  BRA    88EA
....................             printf("page Funcionamiento"); 
088A2:  MOVLW  F2
088A4:  MOVWF  FF6
088A6:  MOVLW  08
088A8:  MOVWF  FF7
088AA:  MOVLW  00
088AC:  MOVWF  FF8
088AE:  CALL   3FF2
....................             SendDataDisplay();        
088B2:  CALL   4024
....................             ConfiguraCiclo(0,3,0,1,0,2,134,4,25,0);             
088B6:  MOVLB  6
088B8:  CLRF   xB0
088BA:  MOVLW  03
088BC:  MOVWF  xB1
088BE:  CLRF   xB2
088C0:  MOVLW  01
088C2:  MOVWF  xB3
088C4:  CLRF   xB4
088C6:  MOVLW  02
088C8:  MOVWF  xB5
088CA:  MOVLW  86
088CC:  MOVWF  xB6
088CE:  MOVLW  04
088D0:  MOVWF  xB7
088D2:  MOVLW  19
088D4:  MOVWF  xB8
088D6:  CLRF   xB9
088D8:  MOVLB  0
088DA:  CALL   5B34
....................             Op=OFF; 
088DE:  MOVLB  1
088E0:  BCF    x03.7
....................             Op2=OFF; 
088E2:  BCF    x04.0
....................             MenuAnt=Menu; 
088E4:  MOVFF  252,253
088E8:  MOVLB  0
....................             //TiempoVacio=CantidadPulsos*180; 
....................          } 
....................       } 
....................        
....................       if(RX_Buffer[4]==0x03  && RX_Buffer[5]==0x0f && estados[19+RX_Buffer[4]]){//03, No Envueltos 121 
088EA:  MOVF   34,W
088EC:  SUBLW  03
088EE:  BNZ   898A
088F0:  MOVF   35,W
088F2:  SUBLW  0F
088F4:  BNZ   898A
088F6:  MOVLW  13
088F8:  ADDWF  34,W
088FA:  MOVLB  6
088FC:  MOVWF  xA9
088FE:  MOVLW  03
08900:  MOVWF  xAB
08902:  MOVLW  14
08904:  MOVWF  xAA
08906:  MOVLB  0
08908:  CALL   23B0
0890C:  BTFSS  01.0
0890E:  BRA    898A
....................          delay_ms(5); 
08910:  MOVLW  05
08912:  MOVLB  6
08914:  MOVWF  xBA
08916:  MOVLB  0
08918:  CALL   1F70
....................          if(RX_Buffer[4]==0x03 && RX_Buffer[5]==0x0f && estados[19+RX_Buffer[4]]){ 
0891C:  MOVF   34,W
0891E:  SUBLW  03
08920:  BNZ   898A
08922:  MOVF   35,W
08924:  SUBLW  0F
08926:  BNZ   898A
08928:  MOVLW  13
0892A:  ADDWF  34,W
0892C:  MOVLB  6
0892E:  MOVWF  xA9
08930:  MOVLW  03
08932:  MOVWF  xAB
08934:  MOVLW  14
08936:  MOVWF  xAA
08938:  MOVLB  0
0893A:  CALL   23B0
0893E:  BTFSS  01.0
08940:  BRA    898A
....................             printf("page Funcionamiento"); 
08942:  MOVLW  06
08944:  MOVWF  FF6
08946:  MOVLW  09
08948:  MOVWF  FF7
0894A:  MOVLW  00
0894C:  MOVWF  FF8
0894E:  CALL   3FF2
....................             SendDataDisplay();      
08952:  CALL   4024
....................             ConfiguraCiclo(0,15,0,1,0,3,121,4,25,0);   
08956:  MOVLB  6
08958:  CLRF   xB0
0895A:  MOVLW  0F
0895C:  MOVWF  xB1
0895E:  CLRF   xB2
08960:  MOVLW  01
08962:  MOVWF  xB3
08964:  CLRF   xB4
08966:  MOVLW  03
08968:  MOVWF  xB5
0896A:  MOVLW  79
0896C:  MOVWF  xB6
0896E:  MOVLW  04
08970:  MOVWF  xB7
08972:  MOVLW  19
08974:  MOVWF  xB8
08976:  CLRF   xB9
08978:  MOVLB  0
0897A:  CALL   5B34
....................             Op=OFF; 
0897E:  MOVLB  1
08980:  BCF    x03.7
....................             Op2=OFF; 
08982:  BCF    x04.0
....................             MenuAnt=Menu; 
08984:  MOVFF  252,253
08988:  MOVLB  0
....................             //TiempoVacio=CantidadPulsos*180; 
....................          } 
....................       } 
....................        
....................       if(RX_Buffer[4]==0x04 && RX_Buffer[5]==0x0f && estados[19+RX_Buffer[4]]){//04, Envueltos 134 
0898A:  MOVF   34,W
0898C:  SUBLW  04
0898E:  BNZ   8A2A
08990:  MOVF   35,W
08992:  SUBLW  0F
08994:  BNZ   8A2A
08996:  MOVLW  13
08998:  ADDWF  34,W
0899A:  MOVLB  6
0899C:  MOVWF  xA9
0899E:  MOVLW  03
089A0:  MOVWF  xAB
089A2:  MOVLW  14
089A4:  MOVWF  xAA
089A6:  MOVLB  0
089A8:  CALL   23B0
089AC:  BTFSS  01.0
089AE:  BRA    8A2A
....................          delay_ms(5); 
089B0:  MOVLW  05
089B2:  MOVLB  6
089B4:  MOVWF  xBA
089B6:  MOVLB  0
089B8:  CALL   1F70
....................          if(RX_Buffer[4]==0x04 && RX_Buffer[5]==0x0f && estados[19+RX_Buffer[4]]){ 
089BC:  MOVF   34,W
089BE:  SUBLW  04
089C0:  BNZ   8A2A
089C2:  MOVF   35,W
089C4:  SUBLW  0F
089C6:  BNZ   8A2A
089C8:  MOVLW  13
089CA:  ADDWF  34,W
089CC:  MOVLB  6
089CE:  MOVWF  xA9
089D0:  MOVLW  03
089D2:  MOVWF  xAB
089D4:  MOVLW  14
089D6:  MOVWF  xAA
089D8:  MOVLB  0
089DA:  CALL   23B0
089DE:  BTFSS  01.0
089E0:  BRA    8A2A
....................             printf("page Funcionamiento"); 
089E2:  MOVLW  1A
089E4:  MOVWF  FF6
089E6:  MOVLW  09
089E8:  MOVWF  FF7
089EA:  MOVLW  00
089EC:  MOVWF  FF8
089EE:  CALL   3FF2
....................             SendDataDisplay();        
089F2:  CALL   4024
....................             ConfiguraCiclo(0,4,0,15,0,4,134,4,25,0);   
089F6:  MOVLB  6
089F8:  CLRF   xB0
089FA:  MOVLW  04
089FC:  MOVWF  xB1
089FE:  CLRF   xB2
08A00:  MOVLW  0F
08A02:  MOVWF  xB3
08A04:  CLRF   xB4
08A06:  MOVLW  04
08A08:  MOVWF  xB5
08A0A:  MOVLW  86
08A0C:  MOVWF  xB6
08A0E:  MOVLW  04
08A10:  MOVWF  xB7
08A12:  MOVLW  19
08A14:  MOVWF  xB8
08A16:  CLRF   xB9
08A18:  MOVLB  0
08A1A:  CALL   5B34
....................             Op=OFF; 
08A1E:  MOVLB  1
08A20:  BCF    x03.7
....................             Op2=OFF; 
08A22:  BCF    x04.0
....................             MenuAnt=Menu; 
08A24:  MOVFF  252,253
08A28:  MOVLB  0
....................             //TiempoVacio=CantidadPulsos*180; 
....................          } 
....................       } 
....................        
....................       if(RX_Buffer[4]==0x05 && RX_Buffer[5]==0x0f && estados[19+RX_Buffer[4]]){//05, Envueltos 121 
08A2A:  MOVF   34,W
08A2C:  SUBLW  05
08A2E:  BNZ   8AD8
08A30:  MOVF   35,W
08A32:  SUBLW  0F
08A34:  BNZ   8AD8
08A36:  MOVLW  13
08A38:  ADDWF  34,W
08A3A:  MOVLB  6
08A3C:  MOVWF  xA9
08A3E:  MOVLW  03
08A40:  MOVWF  xAB
08A42:  MOVLW  14
08A44:  MOVWF  xAA
08A46:  MOVLB  0
08A48:  CALL   23B0
08A4C:  BTFSS  01.0
08A4E:  BRA    8AD8
....................          delay_ms(5); 
08A50:  MOVLW  05
08A52:  MOVLB  6
08A54:  MOVWF  xBA
08A56:  MOVLB  0
08A58:  CALL   1F70
....................          if(RX_Buffer[4]==0x05 && RX_Buffer[5]==0x0f && estados[19+RX_Buffer[4]]){ 
08A5C:  MOVF   34,W
08A5E:  SUBLW  05
08A60:  BNZ   8AD8
08A62:  MOVF   35,W
08A64:  SUBLW  0F
08A66:  BNZ   8AD8
08A68:  MOVLW  13
08A6A:  ADDWF  34,W
08A6C:  MOVLB  6
08A6E:  MOVWF  xA9
08A70:  MOVLW  03
08A72:  MOVWF  xAB
08A74:  MOVLW  14
08A76:  MOVWF  xAA
08A78:  MOVLB  0
08A7A:  CALL   23B0
08A7E:  BTFSS  01.0
08A80:  BRA    8AD8
....................             printf("page Funcionamiento"); 
08A82:  MOVLW  2E
08A84:  MOVWF  FF6
08A86:  MOVLW  09
08A88:  MOVWF  FF7
08A8A:  MOVLW  00
08A8C:  MOVWF  FF8
08A8E:  CALL   3FF2
....................             SendDataDisplay();        
08A92:  CALL   4024
....................             ConfiguraCiclo(0,15,0,15,0,5,121,4,25,0);   
08A96:  MOVLB  6
08A98:  CLRF   xB0
08A9A:  MOVLW  0F
08A9C:  MOVWF  xB1
08A9E:  CLRF   xB2
08AA0:  MOVWF  xB3
08AA2:  CLRF   xB4
08AA4:  MOVLW  05
08AA6:  MOVWF  xB5
08AA8:  MOVLW  79
08AAA:  MOVWF  xB6
08AAC:  MOVLW  04
08AAE:  MOVWF  xB7
08AB0:  MOVLW  19
08AB2:  MOVWF  xB8
08AB4:  CLRF   xB9
08AB6:  MOVLB  0
08AB8:  CALL   5B34
....................             Op=OFF; 
08ABC:  MOVLB  1
08ABE:  BCF    x03.7
....................             Op2=OFF; 
08AC0:  BCF    x04.0
....................             MenuAnt=Menu; 
08AC2:  MOVFF  252,253
....................             CantidadPulsos=7; 
08AC6:  MOVLB  2
08AC8:  CLRF   x5B
08ACA:  MOVLW  07
08ACC:  MOVWF  x5A
....................             NivelVacio=32; 
08ACE:  MOVLW  20
08AD0:  MOVWF  x9A
....................             Fugas=OFF; 
08AD2:  MOVLB  1
08AD4:  BCF    x06.0
08AD6:  MOVLB  0
....................             //TiempoVacio=CantidadPulsos*180; 
....................          } 
....................       } 
....................        
....................       if(RX_Buffer[4]==0x06 && RX_Buffer[5]==0x0f && estados[19+RX_Buffer[4]]){//06, Envuelto Doble 1 
08AD8:  MOVF   34,W
08ADA:  SUBLW  06
08ADC:  BNZ   8B78
08ADE:  MOVF   35,W
08AE0:  SUBLW  0F
08AE2:  BNZ   8B78
08AE4:  MOVLW  13
08AE6:  ADDWF  34,W
08AE8:  MOVLB  6
08AEA:  MOVWF  xA9
08AEC:  MOVLW  03
08AEE:  MOVWF  xAB
08AF0:  MOVLW  14
08AF2:  MOVWF  xAA
08AF4:  MOVLB  0
08AF6:  CALL   23B0
08AFA:  BTFSS  01.0
08AFC:  BRA    8B78
....................          delay_ms(5); 
08AFE:  MOVLW  05
08B00:  MOVLB  6
08B02:  MOVWF  xBA
08B04:  MOVLB  0
08B06:  CALL   1F70
....................          if(RX_Buffer[4]==0x06 && RX_Buffer[5]==0x0f && estados[19+RX_Buffer[4]]){ 
08B0A:  MOVF   34,W
08B0C:  SUBLW  06
08B0E:  BNZ   8B78
08B10:  MOVF   35,W
08B12:  SUBLW  0F
08B14:  BNZ   8B78
08B16:  MOVLW  13
08B18:  ADDWF  34,W
08B1A:  MOVLB  6
08B1C:  MOVWF  xA9
08B1E:  MOVLW  03
08B20:  MOVWF  xAB
08B22:  MOVLW  14
08B24:  MOVWF  xAA
08B26:  MOVLB  0
08B28:  CALL   23B0
08B2C:  BTFSS  01.0
08B2E:  BRA    8B78
....................             printf("page Funcionamiento"); 
08B30:  MOVLW  42
08B32:  MOVWF  FF6
08B34:  MOVLW  09
08B36:  MOVWF  FF7
08B38:  MOVLW  00
08B3A:  MOVWF  FF8
08B3C:  CALL   3FF2
....................             SendDataDisplay();        
08B40:  CALL   4024
....................             ConfiguraCiclo(0,7,0,20,0,6,134,4,25,0);   
08B44:  MOVLB  6
08B46:  CLRF   xB0
08B48:  MOVLW  07
08B4A:  MOVWF  xB1
08B4C:  CLRF   xB2
08B4E:  MOVLW  14
08B50:  MOVWF  xB3
08B52:  CLRF   xB4
08B54:  MOVLW  06
08B56:  MOVWF  xB5
08B58:  MOVLW  86
08B5A:  MOVWF  xB6
08B5C:  MOVLW  04
08B5E:  MOVWF  xB7
08B60:  MOVLW  19
08B62:  MOVWF  xB8
08B64:  CLRF   xB9
08B66:  MOVLB  0
08B68:  CALL   5B34
....................             Op=OFF; 
08B6C:  MOVLB  1
08B6E:  BCF    x03.7
....................             Op2=OFF; 
08B70:  BCF    x04.0
....................             MenuAnt=Menu; 
08B72:  MOVFF  252,253
08B76:  MOVLB  0
....................             //TiempoVacio=CantidadPulsos*180; 
....................          } 
....................       } 
....................        
....................       if(RX_Buffer[4]==0x07 && RX_Buffer[5]==0x0f && estados[19+RX_Buffer[4]]){//07, Envuelto Doble 2 
08B78:  MOVF   34,W
08B7A:  SUBLW  07
08B7C:  BNZ   8C18
08B7E:  MOVF   35,W
08B80:  SUBLW  0F
08B82:  BNZ   8C18
08B84:  MOVLW  13
08B86:  ADDWF  34,W
08B88:  MOVLB  6
08B8A:  MOVWF  xA9
08B8C:  MOVLW  03
08B8E:  MOVWF  xAB
08B90:  MOVLW  14
08B92:  MOVWF  xAA
08B94:  MOVLB  0
08B96:  CALL   23B0
08B9A:  BTFSS  01.0
08B9C:  BRA    8C18
....................          delay_ms(5); 
08B9E:  MOVLW  05
08BA0:  MOVLB  6
08BA2:  MOVWF  xBA
08BA4:  MOVLB  0
08BA6:  CALL   1F70
....................          if(RX_Buffer[4]==0x07 && RX_Buffer[5]==0x0f && estados[19+RX_Buffer[4]]){ 
08BAA:  MOVF   34,W
08BAC:  SUBLW  07
08BAE:  BNZ   8C18
08BB0:  MOVF   35,W
08BB2:  SUBLW  0F
08BB4:  BNZ   8C18
08BB6:  MOVLW  13
08BB8:  ADDWF  34,W
08BBA:  MOVLB  6
08BBC:  MOVWF  xA9
08BBE:  MOVLW  03
08BC0:  MOVWF  xAB
08BC2:  MOVLW  14
08BC4:  MOVWF  xAA
08BC6:  MOVLB  0
08BC8:  CALL   23B0
08BCC:  BTFSS  01.0
08BCE:  BRA    8C18
....................             printf("page Funcionamiento"); 
08BD0:  MOVLW  56
08BD2:  MOVWF  FF6
08BD4:  MOVLW  09
08BD6:  MOVWF  FF7
08BD8:  MOVLW  00
08BDA:  MOVWF  FF8
08BDC:  CALL   3FF2
....................             SendDataDisplay();        
08BE0:  CALL   4024
....................             ConfiguraCiclo(0,7,0,30,0,7,134,4,25,0);   
08BE4:  MOVLB  6
08BE6:  CLRF   xB0
08BE8:  MOVLW  07
08BEA:  MOVWF  xB1
08BEC:  CLRF   xB2
08BEE:  MOVLW  1E
08BF0:  MOVWF  xB3
08BF2:  CLRF   xB4
08BF4:  MOVLW  07
08BF6:  MOVWF  xB5
08BF8:  MOVLW  86
08BFA:  MOVWF  xB6
08BFC:  MOVLW  04
08BFE:  MOVWF  xB7
08C00:  MOVLW  19
08C02:  MOVWF  xB8
08C04:  CLRF   xB9
08C06:  MOVLB  0
08C08:  CALL   5B34
....................             Op=OFF; 
08C0C:  MOVLB  1
08C0E:  BCF    x03.7
....................             Op2=OFF; 
08C10:  BCF    x04.0
....................             MenuAnt=Menu; 
08C12:  MOVFF  252,253
08C16:  MOVLB  0
....................             //TiempoVacio=CantidadPulsos*180; 
....................          } 
....................       } 
....................        
....................       if(RX_Buffer[4]==0x08 && RX_Buffer[5]==0x0f && estados[19+RX_Buffer[4]]){//08, Prion 
08C18:  MOVF   34,W
08C1A:  SUBLW  08
08C1C:  BNZ   8CB8
08C1E:  MOVF   35,W
08C20:  SUBLW  0F
08C22:  BNZ   8CB8
08C24:  MOVLW  13
08C26:  ADDWF  34,W
08C28:  MOVLB  6
08C2A:  MOVWF  xA9
08C2C:  MOVLW  03
08C2E:  MOVWF  xAB
08C30:  MOVLW  14
08C32:  MOVWF  xAA
08C34:  MOVLB  0
08C36:  CALL   23B0
08C3A:  BTFSS  01.0
08C3C:  BRA    8CB8
....................          delay_ms(5); 
08C3E:  MOVLW  05
08C40:  MOVLB  6
08C42:  MOVWF  xBA
08C44:  MOVLB  0
08C46:  CALL   1F70
....................          if(RX_Buffer[4]==0x08 && RX_Buffer[5]==0x0f && estados[19+RX_Buffer[4]]){ 
08C4A:  MOVF   34,W
08C4C:  SUBLW  08
08C4E:  BNZ   8CB8
08C50:  MOVF   35,W
08C52:  SUBLW  0F
08C54:  BNZ   8CB8
08C56:  MOVLW  13
08C58:  ADDWF  34,W
08C5A:  MOVLB  6
08C5C:  MOVWF  xA9
08C5E:  MOVLW  03
08C60:  MOVWF  xAB
08C62:  MOVLW  14
08C64:  MOVWF  xAA
08C66:  MOVLB  0
08C68:  CALL   23B0
08C6C:  BTFSS  01.0
08C6E:  BRA    8CB8
....................             printf("page Funcionamiento"); 
08C70:  MOVLW  6A
08C72:  MOVWF  FF6
08C74:  MOVLW  09
08C76:  MOVWF  FF7
08C78:  MOVLW  00
08C7A:  MOVWF  FF8
08C7C:  CALL   3FF2
....................             SendDataDisplay();        
08C80:  CALL   4024
....................             ConfiguraCiclo(0,20,0,15,0,8,134,4,25,0);   
08C84:  MOVLB  6
08C86:  CLRF   xB0
08C88:  MOVLW  14
08C8A:  MOVWF  xB1
08C8C:  CLRF   xB2
08C8E:  MOVLW  0F
08C90:  MOVWF  xB3
08C92:  CLRF   xB4
08C94:  MOVLW  08
08C96:  MOVWF  xB5
08C98:  MOVLW  86
08C9A:  MOVWF  xB6
08C9C:  MOVLW  04
08C9E:  MOVWF  xB7
08CA0:  MOVLW  19
08CA2:  MOVWF  xB8
08CA4:  CLRF   xB9
08CA6:  MOVLB  0
08CA8:  CALL   5B34
....................             Op=OFF; 
08CAC:  MOVLB  1
08CAE:  BCF    x03.7
....................             Op2=OFF; 
08CB0:  BCF    x04.0
....................             MenuAnt=Menu; 
08CB2:  MOVFF  252,253
08CB6:  MOVLB  0
....................             //TiempoVacio=CantidadPulsos*180; 
....................          } 
....................       } 
....................        
....................       if(RX_Buffer[4]==0x09 && RX_Buffer[5]==0x0f && estados[19+RX_Buffer[4]]){//09, Bowie & Dick 
08CB8:  MOVF   34,W
08CBA:  SUBLW  09
08CBC:  BNZ   8D5A
08CBE:  MOVF   35,W
08CC0:  SUBLW  0F
08CC2:  BNZ   8D5A
08CC4:  MOVLW  13
08CC6:  ADDWF  34,W
08CC8:  MOVLB  6
08CCA:  MOVWF  xA9
08CCC:  MOVLW  03
08CCE:  MOVWF  xAB
08CD0:  MOVLW  14
08CD2:  MOVWF  xAA
08CD4:  MOVLB  0
08CD6:  CALL   23B0
08CDA:  BTFSS  01.0
08CDC:  BRA    8D5A
....................          delay_ms(5); 
08CDE:  MOVLW  05
08CE0:  MOVLB  6
08CE2:  MOVWF  xBA
08CE4:  MOVLB  0
08CE6:  CALL   1F70
....................          if(RX_Buffer[4]==0x09 && RX_Buffer[5]==0x0f && estados[19+RX_Buffer[4]]){ 
08CEA:  MOVF   34,W
08CEC:  SUBLW  09
08CEE:  BNZ   8D5A
08CF0:  MOVF   35,W
08CF2:  SUBLW  0F
08CF4:  BNZ   8D5A
08CF6:  MOVLW  13
08CF8:  ADDWF  34,W
08CFA:  MOVLB  6
08CFC:  MOVWF  xA9
08CFE:  MOVLW  03
08D00:  MOVWF  xAB
08D02:  MOVLW  14
08D04:  MOVWF  xAA
08D06:  MOVLB  0
08D08:  CALL   23B0
08D0C:  BTFSS  01.0
08D0E:  BRA    8D5A
....................             printf("page Funcionamiento"); 
08D10:  MOVLW  7E
08D12:  MOVWF  FF6
08D14:  MOVLW  09
08D16:  MOVWF  FF7
08D18:  MOVLW  00
08D1A:  MOVWF  FF8
08D1C:  CALL   3FF2
....................             SendDataDisplay();        
08D20:  CALL   4024
....................             ConfiguraCiclo(30,3,0,1,0,9,134,4,25,0);   
08D24:  MOVLW  1E
08D26:  MOVLB  6
08D28:  MOVWF  xB0
08D2A:  MOVLW  03
08D2C:  MOVWF  xB1
08D2E:  CLRF   xB2
08D30:  MOVLW  01
08D32:  MOVWF  xB3
08D34:  CLRF   xB4
08D36:  MOVLW  09
08D38:  MOVWF  xB5
08D3A:  MOVLW  86
08D3C:  MOVWF  xB6
08D3E:  MOVLW  04
08D40:  MOVWF  xB7
08D42:  MOVLW  19
08D44:  MOVWF  xB8
08D46:  CLRF   xB9
08D48:  MOVLB  0
08D4A:  CALL   5B34
....................             Op=OFF; 
08D4E:  MOVLB  1
08D50:  BCF    x03.7
....................             Op2=OFF; 
08D52:  BCF    x04.0
....................             MenuAnt=Menu; 
08D54:  MOVFF  252,253
08D58:  MOVLB  0
....................             //TiempoVacio=CantidadPulsos*180; 
....................          } 
....................       } 
....................        
....................       if(RX_Buffer[4]==0x0a && RX_Buffer[5]==0x0f && estados[19+RX_Buffer[4]]){//0a, Test de Fugas 
08D5A:  MOVF   34,W
08D5C:  SUBLW  0A
08D5E:  BNZ   8DF2
08D60:  MOVF   35,W
08D62:  SUBLW  0F
08D64:  BNZ   8DF2
08D66:  MOVLW  13
08D68:  ADDWF  34,W
08D6A:  MOVLB  6
08D6C:  MOVWF  xA9
08D6E:  MOVLW  03
08D70:  MOVWF  xAB
08D72:  MOVLW  14
08D74:  MOVWF  xAA
08D76:  MOVLB  0
08D78:  CALL   23B0
08D7C:  BTFSS  01.0
08D7E:  BRA    8DF2
....................          delay_ms(5); 
08D80:  MOVLW  05
08D82:  MOVLB  6
08D84:  MOVWF  xBA
08D86:  MOVLB  0
08D88:  CALL   1F70
....................          if(RX_Buffer[4]==0x0a && RX_Buffer[5]==0x0f && estados[19+RX_Buffer[4]]){ 
08D8C:  MOVF   34,W
08D8E:  SUBLW  0A
08D90:  BNZ   8DF2
08D92:  MOVF   35,W
08D94:  SUBLW  0F
08D96:  BNZ   8DF2
08D98:  MOVLW  13
08D9A:  ADDWF  34,W
08D9C:  MOVLB  6
08D9E:  MOVWF  xA9
08DA0:  MOVLW  03
08DA2:  MOVWF  xAB
08DA4:  MOVLW  14
08DA6:  MOVWF  xAA
08DA8:  MOVLB  0
08DAA:  CALL   23B0
08DAE:  BTFSS  01.0
08DB0:  BRA    8DF2
....................             printf("page Funcionamiento"); 
08DB2:  MOVLW  92
08DB4:  MOVWF  FF6
08DB6:  MOVLW  09
08DB8:  MOVWF  FF7
08DBA:  MOVLW  00
08DBC:  MOVWF  FF8
08DBE:  CALL   3FF2
....................             SendDataDisplay();        
08DC2:  CALL   4024
....................             ConfiguraCiclo(0,20,0,0,0,6,30,1,17,1); 
08DC6:  MOVLB  6
08DC8:  CLRF   xB0
08DCA:  MOVLW  14
08DCC:  MOVWF  xB1
08DCE:  CLRF   xB2
08DD0:  CLRF   xB3
08DD2:  CLRF   xB4
08DD4:  MOVLW  06
08DD6:  MOVWF  xB5
08DD8:  MOVLW  1E
08DDA:  MOVWF  xB6
08DDC:  MOVLW  01
08DDE:  MOVWF  xB7
08DE0:  MOVLW  11
08DE2:  MOVWF  xB8
08DE4:  MOVLW  01
08DE6:  MOVWF  xB9
08DE8:  MOVLB  0
08DEA:  CALL   5B34
....................             MenuAnt=Menu; 
08DEE:  MOVFF  252,253
....................             //TiempoVacio=CantidadPulsos*180; 
....................          } 
....................       } 
....................        
....................       if(RX_Buffer[4]==0xa0){//a0, Ciclos Fijos 
08DF2:  MOVF   34,W
08DF4:  SUBLW  A0
08DF6:  BNZ   8E0C
....................          printf("page Menu"); 
08DF8:  MOVLW  A6
08DFA:  MOVWF  FF6
08DFC:  MOVLW  09
08DFE:  MOVWF  FF7
08E00:  MOVLW  00
08E02:  MOVWF  FF8
08E04:  CALL   3FF2
....................          SendDataDisplay();      
08E08:  CALL   4024
....................       } 
....................        
....................       if(RX_Buffer[4]==0xb0){//b0, Personalizados 
08E0C:  MOVF   34,W
08E0E:  SUBLW  B0
08E10:  BNZ   8E26
....................          printf("page CicloPersona"); 
08E12:  MOVLW  B0
08E14:  MOVWF  FF6
08E16:  MOVLW  09
08E18:  MOVWF  FF7
08E1A:  MOVLW  00
08E1C:  MOVWF  FF8
08E1E:  CALL   3FF2
....................          SendDataDisplay();      
08E22:  CALL   4024
....................       } 
....................        
....................       if(RX_Buffer[4]==0xc0){//c0, Configuraciones 
08E26:  MOVF   34,W
08E28:  SUBLW  C0
08E2A:  BNZ   8E4E
....................          if(codigoUsuario==0 || codigoUsuario==9){        
08E2C:  MOVLB  2
08E2E:  MOVF   xA8,F
08E30:  BZ    8E38
08E32:  MOVF   xA8,W
08E34:  SUBLW  09
08E36:  BNZ   8E50
....................             printf("page Ajustes"); 
08E38:  MOVLW  C2
08E3A:  MOVWF  FF6
08E3C:  MOVLW  09
08E3E:  MOVWF  FF7
08E40:  MOVLW  00
08E42:  MOVWF  FF8
08E44:  MOVLB  0
08E46:  CALL   3FF2
....................             SendDataDisplay();      
08E4A:  CALL   4024
08E4E:  MOVLB  2
....................          } 
....................       } 
....................    }else if(Menu==2){ //Menu de Tiempo Esterilizacion      
08E50:  GOTO   EDD6
08E54:  MOVF   x52,W
08E56:  SUBLW  02
08E58:  BTFSS  FD8.2
08E5A:  BRA    9134
....................          printf("fecha.txt=\"Fecha:%02u/%02u/20%02u    Hora: %02u:%02u:%02u\"",Dia,Mes,Year,Hora,Minuto,Segundo); 
08E5C:  MOVLW  D0
08E5E:  MOVWF  FF6
08E60:  MOVLW  09
08E62:  MOVWF  FF7
08E64:  MOVLW  00
08E66:  MOVWF  FF8
08E68:  MOVLW  11
08E6A:  MOVLB  6
08E6C:  MOVWF  xAD
08E6E:  MOVLB  0
08E70:  CALL   5A32
08E74:  MOVFF  293,6AD
08E78:  MOVLW  01
08E7A:  MOVLB  6
08E7C:  MOVWF  xAE
08E7E:  MOVLB  0
08E80:  CALL   5AB6
08E84:  MOVLW  2F
08E86:  BTFSS  F9E.4
08E88:  BRA    8E86
08E8A:  MOVWF  FAD
08E8C:  MOVFF  292,6AD
08E90:  MOVLW  01
08E92:  MOVLB  6
08E94:  MOVWF  xAE
08E96:  MOVLB  0
08E98:  CALL   5AB6
08E9C:  MOVLW  2F
08E9E:  BTFSS  F9E.4
08EA0:  BRA    8E9E
08EA2:  MOVWF  FAD
08EA4:  MOVLW  32
08EA6:  BTFSS  F9E.4
08EA8:  BRA    8EA6
08EAA:  MOVWF  FAD
08EAC:  MOVLW  30
08EAE:  BTFSS  F9E.4
08EB0:  BRA    8EAE
08EB2:  MOVWF  FAD
08EB4:  MOVFF  291,6AD
08EB8:  MOVLW  01
08EBA:  MOVLB  6
08EBC:  MOVWF  xAE
08EBE:  MOVLB  0
08EC0:  CALL   5AB6
08EC4:  MOVLW  F1
08EC6:  MOVWF  FF6
08EC8:  MOVLW  09
08ECA:  MOVWF  FF7
08ECC:  MOVLW  00
08ECE:  MOVWF  FF8
08ED0:  MOVLW  0A
08ED2:  MOVLB  6
08ED4:  MOVWF  xAD
08ED6:  MOVLB  0
08ED8:  CALL   5A32
08EDC:  MOVFF  294,6AD
08EE0:  MOVLW  01
08EE2:  MOVLB  6
08EE4:  MOVWF  xAE
08EE6:  MOVLB  0
08EE8:  CALL   5AB6
08EEC:  MOVLW  3A
08EEE:  BTFSS  F9E.4
08EF0:  BRA    8EEE
08EF2:  MOVWF  FAD
08EF4:  MOVFF  295,6AD
08EF8:  MOVLW  01
08EFA:  MOVLB  6
08EFC:  MOVWF  xAE
08EFE:  MOVLB  0
08F00:  CALL   5AB6
08F04:  MOVLW  3A
08F06:  BTFSS  F9E.4
08F08:  BRA    8F06
08F0A:  MOVWF  FAD
08F0C:  MOVFF  296,6AD
08F10:  MOVLW  01
08F12:  MOVLB  6
08F14:  MOVWF  xAE
08F16:  MOVLB  0
08F18:  CALL   5AB6
08F1C:  MOVLW  22
08F1E:  BTFSS  F9E.4
08F20:  BRA    8F1E
08F22:  MOVWF  FAD
....................          SendDataDisplay(); 
08F24:  CALL   4024
....................          if(RX_Buffer[4]==0x0a){//Selecciono Minutos 
08F28:  MOVF   34,W
08F2A:  SUBLW  0A
08F2C:  BNZ   8F36
....................             Minutos=ON; 
08F2E:  MOVLB  1
08F30:  BSF    x04.1
....................             Segundos=OFF; 
08F32:  BCF    x04.2
08F34:  MOVLB  0
....................          } 
....................           
....................          if(RX_Buffer[4]==0x0b){//Selecciono Segundos 
08F36:  MOVF   34,W
08F38:  SUBLW  0B
08F3A:  BNZ   8F44
....................             Segundos=ON; 
08F3C:  MOVLB  1
08F3E:  BSF    x04.2
....................             Minutos=OFF; 
08F40:  BCF    x04.1
08F42:  MOVLB  0
....................          }            
....................           
....................          if(RX_Buffer[4]==0x11){//Selecciono Regresar             
08F44:  MOVF   34,W
08F46:  SUBLW  11
08F48:  BTFSS  FD8.2
08F4A:  BRA    9068
....................                Segundos=OFF; 
08F4C:  MOVLB  1
08F4E:  BCF    x04.2
....................                Minutos=OFF; 
08F50:  BCF    x04.1
....................                printf("page CicloPersona"); 
08F52:  MOVLW  0C
08F54:  MOVWF  FF6
08F56:  MOVLW  0A
08F58:  MOVWF  FF7
08F5A:  MOVLW  00
08F5C:  MOVWF  FF8
08F5E:  MOVLB  0
08F60:  CALL   3FF2
....................                SendDataDisplay();   
08F64:  CALL   4024
....................                if(!GuardaEEPROM){ 
08F68:  MOVLB  1
08F6A:  BTFSC  x04.3
08F6C:  BRA    9066
....................                   CiclosPersonalizados[CicloLibre-1].Minutoest=mEstp; 
08F6E:  MOVLW  01
08F70:  MOVLB  2
08F72:  SUBWF  x47,W
08F74:  MULLW  08
08F76:  MOVF   FF3,W
08F78:  MOVLB  6
08F7A:  CLRF   xA9
08F7C:  MOVWF  xA8
08F7E:  MOVLW  01
08F80:  ADDWF  xA8,W
08F82:  MOVWF  01
08F84:  MOVLW  00
08F86:  ADDWFC xA9,W
08F88:  MOVWF  03
08F8A:  MOVF   01,W
08F8C:  ADDLW  E0
08F8E:  MOVWF  FE9
08F90:  MOVLW  05
08F92:  ADDWFC 03,W
08F94:  MOVWF  FEA
08F96:  MOVFF  11C,FEF
....................                   CiclosPersonalizados[CicloLibre-1].Segundoest=sEstp; 
08F9A:  MOVLW  01
08F9C:  MOVLB  2
08F9E:  SUBWF  x47,W
08FA0:  MULLW  08
08FA2:  MOVF   FF3,W
08FA4:  MOVLB  6
08FA6:  CLRF   xA9
08FA8:  MOVWF  xA8
08FAA:  MOVLW  02
08FAC:  ADDWF  xA8,W
08FAE:  MOVWF  01
08FB0:  MOVLW  00
08FB2:  ADDWFC xA9,W
08FB4:  MOVWF  03
08FB6:  MOVF   01,W
08FB8:  ADDLW  E0
08FBA:  MOVWF  FE9
08FBC:  MOVLW  05
08FBE:  ADDWFC 03,W
08FC0:  MOVWF  FEA
08FC2:  MOVFF  11B,FEF
....................                   write_eeprom(101+((CicloLibre-1)*8),mEstp); 
08FC6:  MOVLW  01
08FC8:  MOVLB  2
08FCA:  SUBWF  x47,W
08FCC:  MULLW  08
08FCE:  MOVF   FF3,W
08FD0:  ADDLW  65
08FD2:  MOVLB  6
08FD4:  MOVWF  xA8
08FD6:  CLRF   FAA
08FD8:  MOVFF  6A8,FA9
08FDC:  MOVFF  11C,FA8
08FE0:  BCF    FA6.6
08FE2:  BCF    FA6.7
08FE4:  BSF    FA6.2
08FE6:  MOVF   FF2,W
08FE8:  MOVWF  00
08FEA:  BCF    FF2.6
08FEC:  BCF    FF2.7
08FEE:  MOVLB  F
08FF0:  MOVLW  55
08FF2:  MOVWF  FA7
08FF4:  MOVLW  AA
08FF6:  MOVWF  FA7
08FF8:  BSF    FA6.1
08FFA:  BTFSC  FA6.1
08FFC:  BRA    8FFA
08FFE:  BCF    FA6.2
09000:  MOVF   00,W
09002:  IORWF  FF2,F
....................                   delay_ms(10); 
09004:  MOVLW  0A
09006:  MOVLB  6
09008:  MOVWF  xBA
0900A:  MOVLB  0
0900C:  CALL   1F70
....................                   write_eeprom(102+((CicloLibre-1)*8),sEstp); 
09010:  MOVLW  01
09012:  MOVLB  2
09014:  SUBWF  x47,W
09016:  MULLW  08
09018:  MOVF   FF3,W
0901A:  ADDLW  66
0901C:  MOVLB  6
0901E:  MOVWF  xA8
09020:  CLRF   FAA
09022:  MOVFF  6A8,FA9
09026:  MOVFF  11B,FA8
0902A:  BCF    FA6.6
0902C:  BCF    FA6.7
0902E:  BSF    FA6.2
09030:  MOVF   FF2,W
09032:  MOVWF  00
09034:  BCF    FF2.6
09036:  BCF    FF2.7
09038:  MOVLB  F
0903A:  MOVLW  55
0903C:  MOVWF  FA7
0903E:  MOVLW  AA
09040:  MOVWF  FA7
09042:  BSF    FA6.1
09044:  BTFSC  FA6.1
09046:  BRA    9044
09048:  BCF    FA6.2
0904A:  MOVF   00,W
0904C:  IORWF  FF2,F
....................                   delay_ms(10); 
0904E:  MOVLW  0A
09050:  MOVLB  6
09052:  MOVWF  xBA
09054:  MOVLB  0
09056:  CALL   1F70
....................                   mEst=mEstp; 
0905A:  MOVFF  11C,118
....................                   sEst=sEstp; 
0905E:  MOVFF  11B,117
....................                   GuardaEEPROM=ON; 
09062:  MOVLB  1
09064:  BSF    x04.3
09066:  MOVLB  0
....................                } 
....................          } 
....................           
....................          if(RX_Buffer[4]==0x0c || RX_Buffer[4]==0x0d){//Tecla arriba Oprimida 
09068:  MOVF   34,W
0906A:  SUBLW  0C
0906C:  BZ    9074
0906E:  MOVF   34,W
09070:  SUBLW  0D
09072:  BNZ   9088
....................             if(Segundos){ 
09074:  MOVLB  1
09076:  BTFSS  x04.2
09078:  BRA    907C
....................                sEstp++; 
0907A:  INCF   x1B,F
....................             } 
....................             if(Minutos){ 
0907C:  BTFSS  x04.1
0907E:  BRA    9082
....................                mEstp++; 
09080:  INCF   x1C,F
....................             }   
....................             RX_Buffer[4]=0x00;   
09082:  CLRF   34
....................             RX_Buffer2[4]=0x00; 
09084:  CLRF   3F
09086:  MOVLB  0
....................          } 
....................           
....................          if(RX_Buffer[4]==0x0f || RX_Buffer[4]==0x0e){//Tecla abajo oprimida 
09088:  MOVF   34,W
0908A:  SUBLW  0F
0908C:  BZ    9094
0908E:  MOVF   34,W
09090:  SUBLW  0E
09092:  BNZ   90AA
....................             if(Segundos && sEstp>0){ 
09094:  MOVLB  1
09096:  BTFSS  x04.2
09098:  BRA    90A0
0909A:  MOVF   x1B,F
0909C:  BZ    90A0
....................                sEstp--; 
0909E:  DECF   x1B,F
....................             } 
....................             if(Minutos){ 
090A0:  BTFSS  x04.1
090A2:  BRA    90A6
....................                mEstp--; 
090A4:  DECF   x1C,F
....................             } 
....................             RX_Buffer[4]=0x00;   
090A6:  CLRF   34
....................             RX_Buffer2[4]=0x00; 
090A8:  CLRF   3F
....................          } 
....................           
....................          if(mEstp<1)mEstp=99; 
090AA:  MOVLB  1
090AC:  MOVF   x1C,F
090AE:  BNZ   90B4
090B0:  MOVLW  63
090B2:  MOVWF  x1C
....................          if(mEstp>99)mEstp=1; 
090B4:  MOVF   x1C,W
090B6:  SUBLW  63
090B8:  BC    90BE
090BA:  MOVLW  01
090BC:  MOVWF  x1C
....................          if(sEstp>59)sEstp=0; 
090BE:  MOVF   x1B,W
090C0:  SUBLW  3B
090C2:  BTFSS  FD8.0
090C4:  CLRF   x1B
....................              
....................          printf("tminest.txt=\"%02u\"",mEstp); 
090C6:  MOVLW  1E
090C8:  MOVWF  FF6
090CA:  MOVLW  0A
090CC:  MOVWF  FF7
090CE:  MOVLW  00
090D0:  MOVWF  FF8
090D2:  MOVLW  0D
090D4:  MOVLB  6
090D6:  MOVWF  xAD
090D8:  MOVLB  0
090DA:  CALL   5A32
090DE:  MOVFF  11C,6AD
090E2:  MOVLW  01
090E4:  MOVLB  6
090E6:  MOVWF  xAE
090E8:  MOVLB  0
090EA:  CALL   5AB6
090EE:  MOVLW  22
090F0:  BTFSS  F9E.4
090F2:  BRA    90F0
090F4:  MOVWF  FAD
....................          SendDataDisplay(); 
090F6:  CALL   4024
....................          printf("tsecest.txt=\"%02u\"",sEstp); 
090FA:  MOVLW  32
090FC:  MOVWF  FF6
090FE:  MOVLW  0A
09100:  MOVWF  FF7
09102:  MOVLW  00
09104:  MOVWF  FF8
09106:  MOVLW  0D
09108:  MOVLB  6
0910A:  MOVWF  xAD
0910C:  MOVLB  0
0910E:  CALL   5A32
09112:  MOVFF  11B,6AD
09116:  MOVLW  01
09118:  MOVLB  6
0911A:  MOVWF  xAE
0911C:  MOVLB  0
0911E:  CALL   5AB6
09122:  MOVLW  22
09124:  BTFSS  F9E.4
09126:  BRA    9124
09128:  MOVWF  FAD
....................          SendDataDisplay(); 
0912A:  CALL   4024
....................     }else if(Menu==3){ //Menu de Tiempo de Secado 
0912E:  GOTO   EDD6
09132:  MOVLB  2
09134:  MOVF   x52,W
09136:  SUBLW  03
09138:  BTFSS  FD8.2
0913A:  BRA    9414
....................       printf("fecha.txt=\"Fecha:%02u/%02u/20%02u    Hora: %02u:%02u:%02u\"",Dia,Mes,Year,Hora,Minuto,Segundo); 
0913C:  MOVLW  46
0913E:  MOVWF  FF6
09140:  MOVLW  0A
09142:  MOVWF  FF7
09144:  MOVLW  00
09146:  MOVWF  FF8
09148:  MOVLW  11
0914A:  MOVLB  6
0914C:  MOVWF  xAD
0914E:  MOVLB  0
09150:  CALL   5A32
09154:  MOVFF  293,6AD
09158:  MOVLW  01
0915A:  MOVLB  6
0915C:  MOVWF  xAE
0915E:  MOVLB  0
09160:  CALL   5AB6
09164:  MOVLW  2F
09166:  BTFSS  F9E.4
09168:  BRA    9166
0916A:  MOVWF  FAD
0916C:  MOVFF  292,6AD
09170:  MOVLW  01
09172:  MOVLB  6
09174:  MOVWF  xAE
09176:  MOVLB  0
09178:  CALL   5AB6
0917C:  MOVLW  2F
0917E:  BTFSS  F9E.4
09180:  BRA    917E
09182:  MOVWF  FAD
09184:  MOVLW  32
09186:  BTFSS  F9E.4
09188:  BRA    9186
0918A:  MOVWF  FAD
0918C:  MOVLW  30
0918E:  BTFSS  F9E.4
09190:  BRA    918E
09192:  MOVWF  FAD
09194:  MOVFF  291,6AD
09198:  MOVLW  01
0919A:  MOVLB  6
0919C:  MOVWF  xAE
0919E:  MOVLB  0
091A0:  CALL   5AB6
091A4:  MOVLW  67
091A6:  MOVWF  FF6
091A8:  MOVLW  0A
091AA:  MOVWF  FF7
091AC:  MOVLW  00
091AE:  MOVWF  FF8
091B0:  MOVLW  0A
091B2:  MOVLB  6
091B4:  MOVWF  xAD
091B6:  MOVLB  0
091B8:  CALL   5A32
091BC:  MOVFF  294,6AD
091C0:  MOVLW  01
091C2:  MOVLB  6
091C4:  MOVWF  xAE
091C6:  MOVLB  0
091C8:  CALL   5AB6
091CC:  MOVLW  3A
091CE:  BTFSS  F9E.4
091D0:  BRA    91CE
091D2:  MOVWF  FAD
091D4:  MOVFF  295,6AD
091D8:  MOVLW  01
091DA:  MOVLB  6
091DC:  MOVWF  xAE
091DE:  MOVLB  0
091E0:  CALL   5AB6
091E4:  MOVLW  3A
091E6:  BTFSS  F9E.4
091E8:  BRA    91E6
091EA:  MOVWF  FAD
091EC:  MOVFF  296,6AD
091F0:  MOVLW  01
091F2:  MOVLB  6
091F4:  MOVWF  xAE
091F6:  MOVLB  0
091F8:  CALL   5AB6
091FC:  MOVLW  22
091FE:  BTFSS  F9E.4
09200:  BRA    91FE
09202:  MOVWF  FAD
....................       SendDataDisplay();             
09204:  CALL   4024
....................              
....................          if(RX_Buffer[4]==0x0a){//Selecciono Minutos 
09208:  MOVF   34,W
0920A:  SUBLW  0A
0920C:  BNZ   9216
....................             Minutos=ON; 
0920E:  MOVLB  1
09210:  BSF    x04.1
....................             Segundos=OFF; 
09212:  BCF    x04.2
09214:  MOVLB  0
....................          } 
....................           
....................          if(RX_Buffer[4]==0x0b){//Selecciono Segundos 
09216:  MOVF   34,W
09218:  SUBLW  0B
0921A:  BNZ   9224
....................             Segundos=ON; 
0921C:  MOVLB  1
0921E:  BSF    x04.2
....................             Minutos=OFF; 
09220:  BCF    x04.1
09222:  MOVLB  0
....................          } 
....................           
....................          if(RX_Buffer[4]==0x11){//Selecciono Regresar 
09224:  MOVF   34,W
09226:  SUBLW  11
09228:  BTFSS  FD8.2
0922A:  BRA    9348
....................             Segundos=OFF; 
0922C:  MOVLB  1
0922E:  BCF    x04.2
....................             Minutos=OFF; 
09230:  BCF    x04.1
....................             printf("page CicloPersona"); 
09232:  MOVLW  82
09234:  MOVWF  FF6
09236:  MOVLW  0A
09238:  MOVWF  FF7
0923A:  MOVLW  00
0923C:  MOVWF  FF8
0923E:  MOVLB  0
09240:  CALL   3FF2
....................             SendDataDisplay();   
09244:  CALL   4024
....................             if(!GuardaEEPROM){ 
09248:  MOVLB  1
0924A:  BTFSC  x04.3
0924C:  BRA    9346
....................                CiclosPersonalizados[CicloLibre-1].Minutosec=mSecp; 
0924E:  MOVLW  01
09250:  MOVLB  2
09252:  SUBWF  x47,W
09254:  MULLW  08
09256:  MOVF   FF3,W
09258:  MOVLB  6
0925A:  CLRF   xA9
0925C:  MOVWF  xA8
0925E:  MOVLW  03
09260:  ADDWF  xA8,W
09262:  MOVWF  01
09264:  MOVLW  00
09266:  ADDWFC xA9,W
09268:  MOVWF  03
0926A:  MOVF   01,W
0926C:  ADDLW  E0
0926E:  MOVWF  FE9
09270:  MOVLW  05
09272:  ADDWFC 03,W
09274:  MOVWF  FEA
09276:  MOVFF  11E,FEF
....................                CiclosPersonalizados[CicloLibre-1].Segundosec=sSecp; 
0927A:  MOVLW  01
0927C:  MOVLB  2
0927E:  SUBWF  x47,W
09280:  MULLW  08
09282:  MOVF   FF3,W
09284:  MOVLB  6
09286:  CLRF   xA9
09288:  MOVWF  xA8
0928A:  MOVLW  04
0928C:  ADDWF  xA8,W
0928E:  MOVWF  01
09290:  MOVLW  00
09292:  ADDWFC xA9,W
09294:  MOVWF  03
09296:  MOVF   01,W
09298:  ADDLW  E0
0929A:  MOVWF  FE9
0929C:  MOVLW  05
0929E:  ADDWFC 03,W
092A0:  MOVWF  FEA
092A2:  MOVFF  11D,FEF
....................                write_eeprom(103+((CicloLibre-1)*8),mSecp); 
092A6:  MOVLW  01
092A8:  MOVLB  2
092AA:  SUBWF  x47,W
092AC:  MULLW  08
092AE:  MOVF   FF3,W
092B0:  ADDLW  67
092B2:  MOVLB  6
092B4:  MOVWF  xA8
092B6:  CLRF   FAA
092B8:  MOVFF  6A8,FA9
092BC:  MOVFF  11E,FA8
092C0:  BCF    FA6.6
092C2:  BCF    FA6.7
092C4:  BSF    FA6.2
092C6:  MOVF   FF2,W
092C8:  MOVWF  00
092CA:  BCF    FF2.6
092CC:  BCF    FF2.7
092CE:  MOVLB  F
092D0:  MOVLW  55
092D2:  MOVWF  FA7
092D4:  MOVLW  AA
092D6:  MOVWF  FA7
092D8:  BSF    FA6.1
092DA:  BTFSC  FA6.1
092DC:  BRA    92DA
092DE:  BCF    FA6.2
092E0:  MOVF   00,W
092E2:  IORWF  FF2,F
....................                delay_ms(10); 
092E4:  MOVLW  0A
092E6:  MOVLB  6
092E8:  MOVWF  xBA
092EA:  MOVLB  0
092EC:  CALL   1F70
....................                write_eeprom(104+((CicloLibre-1)*8),sSecp); 
092F0:  MOVLW  01
092F2:  MOVLB  2
092F4:  SUBWF  x47,W
092F6:  MULLW  08
092F8:  MOVF   FF3,W
092FA:  ADDLW  68
092FC:  MOVLB  6
092FE:  MOVWF  xA8
09300:  CLRF   FAA
09302:  MOVFF  6A8,FA9
09306:  MOVFF  11D,FA8
0930A:  BCF    FA6.6
0930C:  BCF    FA6.7
0930E:  BSF    FA6.2
09310:  MOVF   FF2,W
09312:  MOVWF  00
09314:  BCF    FF2.6
09316:  BCF    FF2.7
09318:  MOVLB  F
0931A:  MOVLW  55
0931C:  MOVWF  FA7
0931E:  MOVLW  AA
09320:  MOVWF  FA7
09322:  BSF    FA6.1
09324:  BTFSC  FA6.1
09326:  BRA    9324
09328:  BCF    FA6.2
0932A:  MOVF   00,W
0932C:  IORWF  FF2,F
....................                delay_ms(10); 
0932E:  MOVLW  0A
09330:  MOVLB  6
09332:  MOVWF  xBA
09334:  MOVLB  0
09336:  CALL   1F70
....................                mSec=mSecp; 
0933A:  MOVFF  11E,11A
....................                sSec=sSecp; 
0933E:  MOVFF  11D,119
....................                GuardaEEPROM=ON; 
09342:  MOVLB  1
09344:  BSF    x04.3
09346:  MOVLB  0
....................             } 
....................          } 
....................           
....................          if(RX_Buffer[4]==0x0c || RX_Buffer[4]==0x0d){//Tecla Derecha Oprimida 
09348:  MOVF   34,W
0934A:  SUBLW  0C
0934C:  BZ    9354
0934E:  MOVF   34,W
09350:  SUBLW  0D
09352:  BNZ   9368
....................             if(Segundos){ 
09354:  MOVLB  1
09356:  BTFSS  x04.2
09358:  BRA    935C
....................                sSecp++; 
0935A:  INCF   x1D,F
....................             } 
....................             if(Minutos){ 
0935C:  BTFSS  x04.1
0935E:  BRA    9362
....................                mSecp++; 
09360:  INCF   x1E,F
....................             }   
....................             RX_Buffer[4]=0x00;   
09362:  CLRF   34
....................             RX_Buffer2[4]=0x00;  
09364:  CLRF   3F
09366:  MOVLB  0
....................          } 
....................           
....................          if(RX_Buffer[4]==0x0f || RX_Buffer[4]==0x0e){//Tecla Izquierda Oprimida 
09368:  MOVF   34,W
0936A:  SUBLW  0F
0936C:  BZ    9374
0936E:  MOVF   34,W
09370:  SUBLW  0E
09372:  BNZ   938A
....................             if(Segundos && sSecp>0){ 
09374:  MOVLB  1
09376:  BTFSS  x04.2
09378:  BRA    9380
0937A:  MOVF   x1D,F
0937C:  BZ    9380
....................                sSecp--; 
0937E:  DECF   x1D,F
....................             } 
....................             if(Minutos){ 
09380:  BTFSS  x04.1
09382:  BRA    9386
....................                mSecp--; 
09384:  DECF   x1E,F
....................             }  
....................             RX_Buffer[4]=0x00;   
09386:  CLRF   34
....................             RX_Buffer2[4]=0x00;             
09388:  CLRF   3F
....................          } 
....................          if(mSecp<1)mSecp=99; 
0938A:  MOVLB  1
0938C:  MOVF   x1E,F
0938E:  BNZ   9394
09390:  MOVLW  63
09392:  MOVWF  x1E
....................          if(mSecp>99)mSecp=1; 
09394:  MOVF   x1E,W
09396:  SUBLW  63
09398:  BC    939E
0939A:  MOVLW  01
0939C:  MOVWF  x1E
....................          if(sSecp>59)mSecp=0; 
0939E:  MOVF   x1D,W
093A0:  SUBLW  3B
093A2:  BTFSS  FD8.0
093A4:  CLRF   x1E
....................              
....................       printf("tminsec.txt=\"%02u\"",mSecp); 
093A6:  MOVLW  94
093A8:  MOVWF  FF6
093AA:  MOVLW  0A
093AC:  MOVWF  FF7
093AE:  MOVLW  00
093B0:  MOVWF  FF8
093B2:  MOVLW  0D
093B4:  MOVLB  6
093B6:  MOVWF  xAD
093B8:  MOVLB  0
093BA:  CALL   5A32
093BE:  MOVFF  11E,6AD
093C2:  MOVLW  01
093C4:  MOVLB  6
093C6:  MOVWF  xAE
093C8:  MOVLB  0
093CA:  CALL   5AB6
093CE:  MOVLW  22
093D0:  BTFSS  F9E.4
093D2:  BRA    93D0
093D4:  MOVWF  FAD
....................       SendDataDisplay(); 
093D6:  CALL   4024
....................       printf("tsecsec.txt=\"%02u\"",sSecp); 
093DA:  MOVLW  A8
093DC:  MOVWF  FF6
093DE:  MOVLW  0A
093E0:  MOVWF  FF7
093E2:  MOVLW  00
093E4:  MOVWF  FF8
093E6:  MOVLW  0D
093E8:  MOVLB  6
093EA:  MOVWF  xAD
093EC:  MOVLB  0
093EE:  CALL   5A32
093F2:  MOVFF  11D,6AD
093F6:  MOVLW  01
093F8:  MOVLB  6
093FA:  MOVWF  xAE
093FC:  MOVLB  0
093FE:  CALL   5AB6
09402:  MOVLW  22
09404:  BTFSS  F9E.4
09406:  BRA    9404
09408:  MOVWF  FAD
....................       SendDataDisplay(); 
0940A:  CALL   4024
....................     }else if(Menu==4){ //Menu de Temperatura 
0940E:  GOTO   EDD6
09412:  MOVLB  2
09414:  MOVF   x52,W
09416:  SUBLW  04
09418:  BTFSS  FD8.2
0941A:  BRA    95F0
....................       printf("fecha.txt=\"Fecha:%02u/%02u/20%02u    Hora: %02u:%02u:%02u\"",Dia,Mes,Year,Hora,Minuto,Segundo); 
0941C:  MOVLW  BC
0941E:  MOVWF  FF6
09420:  MOVLW  0A
09422:  MOVWF  FF7
09424:  MOVLW  00
09426:  MOVWF  FF8
09428:  MOVLW  11
0942A:  MOVLB  6
0942C:  MOVWF  xAD
0942E:  MOVLB  0
09430:  CALL   5A32
09434:  MOVFF  293,6AD
09438:  MOVLW  01
0943A:  MOVLB  6
0943C:  MOVWF  xAE
0943E:  MOVLB  0
09440:  CALL   5AB6
09444:  MOVLW  2F
09446:  BTFSS  F9E.4
09448:  BRA    9446
0944A:  MOVWF  FAD
0944C:  MOVFF  292,6AD
09450:  MOVLW  01
09452:  MOVLB  6
09454:  MOVWF  xAE
09456:  MOVLB  0
09458:  CALL   5AB6
0945C:  MOVLW  2F
0945E:  BTFSS  F9E.4
09460:  BRA    945E
09462:  MOVWF  FAD
09464:  MOVLW  32
09466:  BTFSS  F9E.4
09468:  BRA    9466
0946A:  MOVWF  FAD
0946C:  MOVLW  30
0946E:  BTFSS  F9E.4
09470:  BRA    946E
09472:  MOVWF  FAD
09474:  MOVFF  291,6AD
09478:  MOVLW  01
0947A:  MOVLB  6
0947C:  MOVWF  xAE
0947E:  MOVLB  0
09480:  CALL   5AB6
09484:  MOVLW  DD
09486:  MOVWF  FF6
09488:  MOVLW  0A
0948A:  MOVWF  FF7
0948C:  MOVLW  00
0948E:  MOVWF  FF8
09490:  MOVLW  0A
09492:  MOVLB  6
09494:  MOVWF  xAD
09496:  MOVLB  0
09498:  CALL   5A32
0949C:  MOVFF  294,6AD
094A0:  MOVLW  01
094A2:  MOVLB  6
094A4:  MOVWF  xAE
094A6:  MOVLB  0
094A8:  CALL   5AB6
094AC:  MOVLW  3A
094AE:  BTFSS  F9E.4
094B0:  BRA    94AE
094B2:  MOVWF  FAD
094B4:  MOVFF  295,6AD
094B8:  MOVLW  01
094BA:  MOVLB  6
094BC:  MOVWF  xAE
094BE:  MOVLB  0
094C0:  CALL   5AB6
094C4:  MOVLW  3A
094C6:  BTFSS  F9E.4
094C8:  BRA    94C6
094CA:  MOVWF  FAD
094CC:  MOVFF  296,6AD
094D0:  MOVLW  01
094D2:  MOVLB  6
094D4:  MOVWF  xAE
094D6:  MOVLB  0
094D8:  CALL   5AB6
094DC:  MOVLW  22
094DE:  BTFSS  F9E.4
094E0:  BRA    94DE
094E2:  MOVWF  FAD
....................       SendDataDisplay(); 
094E4:  CALL   4024
....................          if(Setpoint<110) 
094E8:  MOVLB  2
094EA:  MOVF   x60,W
094EC:  SUBLW  6D
094EE:  BNC   94F4
....................             Setpoint=138; 
094F0:  MOVLW  8A
094F2:  MOVWF  x60
....................          if(Setpoint>138) 
094F4:  MOVF   x60,W
094F6:  SUBLW  8A
094F8:  BC    94FE
....................             Setpoint=110; 
094FA:  MOVLW  6E
094FC:  MOVWF  x60
....................           
....................          if(RX_Buffer[4]==0x11){//Selecciono Regresar 
094FE:  MOVF   34,W
09500:  SUBLW  11
09502:  BNZ   959E
....................             Segundos=OFF; 
09504:  MOVLB  1
09506:  BCF    x04.2
....................             Minutos=OFF; 
09508:  BCF    x04.1
....................             printf("page CicloPersona"); 
0950A:  MOVLW  F8
0950C:  MOVWF  FF6
0950E:  MOVLW  0A
09510:  MOVWF  FF7
09512:  MOVLW  00
09514:  MOVWF  FF8
09516:  MOVLB  0
09518:  CALL   3FF2
....................             SendDataDisplay();   
0951C:  CALL   4024
....................             PantallaPrincipal=1; 
09520:  MOVLW  01
09522:  MOVLB  1
09524:  MOVWF  xEE
....................             Op=OFF; 
09526:  BCF    x03.7
....................             Op2=OFF; 
09528:  BCF    x04.0
....................             if(!GuardaEEPROM){ 
0952A:  BTFSC  x04.3
0952C:  BRA    959C
....................                CiclosPersonalizados[CicloLibre-1].Temperatura=Setpoint; 
0952E:  MOVLW  01
09530:  MOVLB  2
09532:  SUBWF  x47,W
09534:  MULLW  08
09536:  MOVF   FF3,W
09538:  MOVLB  6
0953A:  CLRF   xA9
0953C:  MOVWF  xA8
0953E:  MOVLW  E0
09540:  ADDWF  xA8,W
09542:  MOVWF  FE9
09544:  MOVLW  05
09546:  ADDWFC xA9,W
09548:  MOVWF  FEA
0954A:  MOVFF  260,FEF
....................                write_eeprom(100+((CicloLibre-1)*8),Setpoint); 
0954E:  MOVLW  01
09550:  MOVLB  2
09552:  SUBWF  x47,W
09554:  MULLW  08
09556:  MOVF   FF3,W
09558:  ADDLW  64
0955A:  MOVLB  6
0955C:  MOVWF  xA8
0955E:  CLRF   FAA
09560:  MOVFF  6A8,FA9
09564:  MOVFF  260,FA8
09568:  BCF    FA6.6
0956A:  BCF    FA6.7
0956C:  BSF    FA6.2
0956E:  MOVF   FF2,W
09570:  MOVWF  00
09572:  BCF    FF2.6
09574:  BCF    FF2.7
09576:  MOVLB  F
09578:  MOVLW  55
0957A:  MOVWF  FA7
0957C:  MOVLW  AA
0957E:  MOVWF  FA7
09580:  BSF    FA6.1
09582:  BTFSC  FA6.1
09584:  BRA    9582
09586:  BCF    FA6.2
09588:  MOVF   00,W
0958A:  IORWF  FF2,F
....................                delay_ms(10); 
0958C:  MOVLW  0A
0958E:  MOVLB  6
09590:  MOVWF  xBA
09592:  MOVLB  0
09594:  CALL   1F70
....................                GuardaEEPROM=ON; 
09598:  MOVLB  1
0959A:  BSF    x04.3
0959C:  MOVLB  2
....................             } 
....................          } 
....................           
....................          if(RX_Buffer[4]==0x0d){//Tecla Arriba Oprimida 
0959E:  MOVF   34,W
095A0:  SUBLW  0D
095A2:  BNZ   95AA
....................             Setpoint++; 
095A4:  INCF   x60,F
....................             RX_Buffer[4]=0x00;   
095A6:  CLRF   34
....................             RX_Buffer2[4]=0x00;             
095A8:  CLRF   3F
....................             //BorraBuffer(); 
....................          } 
....................           
....................          if(RX_Buffer[4]==0x0c){//Tecla Abajo Oprimida 
095AA:  MOVF   34,W
095AC:  SUBLW  0C
095AE:  BNZ   95B6
....................             Setpoint--; 
095B0:  DECF   x60,F
....................             RX_Buffer[4]=0x00; 
095B2:  CLRF   34
....................             RX_Buffer2[4]=0x00;             
095B4:  CLRF   3F
....................             //BorraBuffer(); 
....................          } 
....................           
....................       printf("tsettem.txt=\"%03u\"",Setpoint); 
095B6:  MOVLW  0A
095B8:  MOVWF  FF6
095BA:  MOVLW  0B
095BC:  MOVWF  FF7
095BE:  MOVLW  00
095C0:  MOVWF  FF8
095C2:  MOVLW  0D
095C4:  MOVLB  6
095C6:  MOVWF  xAD
095C8:  MOVLB  0
095CA:  CALL   5A32
095CE:  MOVFF  260,6AD
095D2:  MOVLW  03
095D4:  MOVLB  6
095D6:  MOVWF  xAE
095D8:  MOVLB  0
095DA:  CALL   5AB6
095DE:  MOVLW  22
095E0:  BTFSS  F9E.4
095E2:  BRA    95E0
095E4:  MOVWF  FAD
....................       SendDataDisplay(); 
095E6:  CALL   4024
....................     }else if(Menu==5){//Menu de Nivel de Vacio 
095EA:  GOTO   EDD6
095EE:  MOVLB  2
095F0:  MOVF   x52,W
095F2:  SUBLW  05
095F4:  BTFSS  FD8.2
095F6:  BRA    97EA
....................       printf("fecha.txt=\"Fecha:%02u/%02u/20%02u    Hora: %02u:%02u:%02u\"",Dia,Mes,Year,Hora,Minuto,Segundo); 
095F8:  MOVLW  1E
095FA:  MOVWF  FF6
095FC:  MOVLW  0B
095FE:  MOVWF  FF7
09600:  MOVLW  00
09602:  MOVWF  FF8
09604:  MOVLW  11
09606:  MOVLB  6
09608:  MOVWF  xAD
0960A:  MOVLB  0
0960C:  CALL   5A32
09610:  MOVFF  293,6AD
09614:  MOVLW  01
09616:  MOVLB  6
09618:  MOVWF  xAE
0961A:  MOVLB  0
0961C:  CALL   5AB6
09620:  MOVLW  2F
09622:  BTFSS  F9E.4
09624:  BRA    9622
09626:  MOVWF  FAD
09628:  MOVFF  292,6AD
0962C:  MOVLW  01
0962E:  MOVLB  6
09630:  MOVWF  xAE
09632:  MOVLB  0
09634:  CALL   5AB6
09638:  MOVLW  2F
0963A:  BTFSS  F9E.4
0963C:  BRA    963A
0963E:  MOVWF  FAD
09640:  MOVLW  32
09642:  BTFSS  F9E.4
09644:  BRA    9642
09646:  MOVWF  FAD
09648:  MOVLW  30
0964A:  BTFSS  F9E.4
0964C:  BRA    964A
0964E:  MOVWF  FAD
09650:  MOVFF  291,6AD
09654:  MOVLW  01
09656:  MOVLB  6
09658:  MOVWF  xAE
0965A:  MOVLB  0
0965C:  CALL   5AB6
09660:  MOVLW  3F
09662:  MOVWF  FF6
09664:  MOVLW  0B
09666:  MOVWF  FF7
09668:  MOVLW  00
0966A:  MOVWF  FF8
0966C:  MOVLW  0A
0966E:  MOVLB  6
09670:  MOVWF  xAD
09672:  MOVLB  0
09674:  CALL   5A32
09678:  MOVFF  294,6AD
0967C:  MOVLW  01
0967E:  MOVLB  6
09680:  MOVWF  xAE
09682:  MOVLB  0
09684:  CALL   5AB6
09688:  MOVLW  3A
0968A:  BTFSS  F9E.4
0968C:  BRA    968A
0968E:  MOVWF  FAD
09690:  MOVFF  295,6AD
09694:  MOVLW  01
09696:  MOVLB  6
09698:  MOVWF  xAE
0969A:  MOVLB  0
0969C:  CALL   5AB6
096A0:  MOVLW  3A
096A2:  BTFSS  F9E.4
096A4:  BRA    96A2
096A6:  MOVWF  FAD
096A8:  MOVFF  296,6AD
096AC:  MOVLW  01
096AE:  MOVLB  6
096B0:  MOVWF  xAE
096B2:  MOVLB  0
096B4:  CALL   5AB6
096B8:  MOVLW  22
096BA:  BTFSS  F9E.4
096BC:  BRA    96BA
096BE:  MOVWF  FAD
....................       SendDataDisplay(); 
096C0:  CALL   4024
....................          if(Nivel<25) 
096C4:  MOVLB  2
096C6:  MOVF   x6E,F
096C8:  BNZ   96D6
096CA:  MOVF   x6D,W
096CC:  SUBLW  18
096CE:  BNC   96D6
....................             Nivel=100; 
096D0:  CLRF   x6E
096D2:  MOVLW  64
096D4:  MOVWF  x6D
....................          if(Nivel>100) 
096D6:  MOVF   x6E,F
096D8:  BNZ   96E0
096DA:  MOVF   x6D,W
096DC:  SUBLW  64
096DE:  BC    96E6
....................             Nivel=25; 
096E0:  CLRF   x6E
096E2:  MOVLW  19
096E4:  MOVWF  x6D
....................           
....................          if(RX_Buffer[4]==0x11){//Selecciono Regresar 
096E6:  MOVF   34,W
096E8:  SUBLW  11
096EA:  BNZ   978E
....................             Segundos=OFF; 
096EC:  MOVLB  1
096EE:  BCF    x04.2
....................             Minutos=OFF;             
096F0:  BCF    x04.1
....................             tiempo_secado=0; 
096F2:  MOVLB  2
096F4:  CLRF   x64
....................             printf("page CicloPersona"); 
096F6:  MOVLW  5A
096F8:  MOVWF  FF6
096FA:  MOVLW  0B
096FC:  MOVWF  FF7
096FE:  MOVLW  00
09700:  MOVWF  FF8
09702:  MOVLB  0
09704:  CALL   3FF2
....................             SendDataDisplay();   
09708:  CALL   4024
....................             if(!GuardaEEPROM){     
0970C:  MOVLB  1
0970E:  BTFSC  x04.3
09710:  BRA    978C
....................                CiclosPersonalizados[CicloLibre-1].NivelVacio=Nivel; 
09712:  MOVLW  01
09714:  MOVLB  2
09716:  SUBWF  x47,W
09718:  MULLW  08
0971A:  MOVF   FF3,W
0971C:  MOVLB  6
0971E:  CLRF   xA9
09720:  MOVWF  xA8
09722:  MOVLW  06
09724:  ADDWF  xA8,W
09726:  MOVWF  01
09728:  MOVLW  00
0972A:  ADDWFC xA9,W
0972C:  MOVWF  03
0972E:  MOVF   01,W
09730:  ADDLW  E0
09732:  MOVWF  FE9
09734:  MOVLW  05
09736:  ADDWFC 03,W
09738:  MOVWF  FEA
0973A:  MOVFF  26D,FEF
....................                write_eeprom(106+((CicloLibre-1)*8),Nivel); 
0973E:  MOVLW  01
09740:  MOVLB  2
09742:  SUBWF  x47,W
09744:  MULLW  08
09746:  MOVF   FF3,W
09748:  ADDLW  6A
0974A:  MOVLB  6
0974C:  MOVWF  xA8
0974E:  CLRF   FAA
09750:  MOVFF  6A8,FA9
09754:  MOVFF  26D,FA8
09758:  BCF    FA6.6
0975A:  BCF    FA6.7
0975C:  BSF    FA6.2
0975E:  MOVF   FF2,W
09760:  MOVWF  00
09762:  BCF    FF2.6
09764:  BCF    FF2.7
09766:  MOVLB  F
09768:  MOVLW  55
0976A:  MOVWF  FA7
0976C:  MOVLW  AA
0976E:  MOVWF  FA7
09770:  BSF    FA6.1
09772:  BTFSC  FA6.1
09774:  BRA    9772
09776:  BCF    FA6.2
09778:  MOVF   00,W
0977A:  IORWF  FF2,F
....................                delay_ms(20);             
0977C:  MOVLW  14
0977E:  MOVLB  6
09780:  MOVWF  xBA
09782:  MOVLB  0
09784:  CALL   1F70
....................                GuardaEEPROM=ON; 
09788:  MOVLB  1
0978A:  BSF    x04.3
0978C:  MOVLB  2
....................             } 
....................          } 
....................           
....................          if(RX_Buffer[4]==0x0d){//Tecla Arriba Oprimida 
0978E:  MOVF   34,W
09790:  SUBLW  0D
09792:  BNZ   979E
....................             Nivel++; 
09794:  INCF   x6D,F
09796:  BTFSC  FD8.2
09798:  INCF   x6E,F
....................             RX_Buffer[4]=0x00;             
0979A:  CLRF   34
....................             RX_Buffer2[4]=0x00;             
0979C:  CLRF   3F
....................             //BorraBuffer(); 
....................          } 
....................           
....................          if(RX_Buffer[4]==0x0c){//Tecla Abajo Oprimida 
0979E:  MOVF   34,W
097A0:  SUBLW  0C
097A2:  BNZ   97B0
....................             Nivel--; 
097A4:  MOVF   x6D,W
097A6:  BTFSC  FD8.2
097A8:  DECF   x6E,F
097AA:  DECF   x6D,F
....................             RX_Buffer[4]=0x00; 
097AC:  CLRF   34
....................             RX_Buffer2[4]=0x00;             
097AE:  CLRF   3F
....................             //BorraBuffer(); 
....................          } 
....................           
....................       printf("tnivel.txt=\"%Lu\"",Nivel); 
097B0:  MOVLW  6C
097B2:  MOVWF  FF6
097B4:  MOVLW  0B
097B6:  MOVWF  FF7
097B8:  MOVLW  00
097BA:  MOVWF  FF8
097BC:  MOVLW  0C
097BE:  MOVLB  6
097C0:  MOVWF  xAD
097C2:  MOVLB  0
097C4:  CALL   5A32
097C8:  MOVLW  10
097CA:  MOVWF  FE9
097CC:  MOVFF  26E,6AD
097D0:  MOVFF  26D,6AC
097D4:  CALL   5BAE
097D8:  MOVLW  22
097DA:  BTFSS  F9E.4
097DC:  BRA    97DA
097DE:  MOVWF  FAD
....................       SendDataDisplay(); 
097E0:  CALL   4024
....................    }else if(Menu==6){ // Menu de Prueba de Componentes 
097E4:  GOTO   EDD6
097E8:  MOVLB  2
097EA:  MOVF   x52,W
097EC:  SUBLW  06
097EE:  BTFSS  FD8.2
097F0:  GOTO   9F86
....................          PruebaEstados=ON; 
097F4:  MOVLB  1
097F6:  BSF    x03.3
....................           
....................          printf("t0.txt=\"Test %02u\"",Codigo); 
097F8:  MOVLW  7E
097FA:  MOVWF  FF6
097FC:  MOVLW  0B
097FE:  MOVWF  FF7
09800:  MOVLW  00
09802:  MOVWF  FF8
09804:  MOVLW  0D
09806:  MOVLB  6
09808:  MOVWF  xAD
0980A:  MOVLB  0
0980C:  CALL   5A32
09810:  MOVFF  251,6AD
09814:  MOVLW  01
09816:  MOVLB  6
09818:  MOVWF  xAE
0981A:  MOVLB  0
0981C:  CALL   5AB6
09820:  MOVLW  22
09822:  BTFSS  F9E.4
09824:  BRA    9822
09826:  MOVWF  FAD
....................          SendDataDisplay(); 
09828:  CALL   4024
....................           
....................          if(RX_Buffer[4]==0x01){//Oprimio EV Suministro 
0982C:  DECFSZ 34,W
0982E:  BRA    9838
....................             EstadoSuministro=!EstadoSuministro; 
09830:  MOVLB  1
09832:  BTG    x03.1
....................             RX_Buffer[4]=0x00; 
09834:  CLRF   34
....................             RX_Buffer2[4]=0x00; 
09836:  CLRF   3F
....................          } 
....................           
....................          if(EstadoSuministro){ 
09838:  MOVLB  1
0983A:  BTFSS  x03.1
0983C:  BRA    985A
....................             printf("b0.bco=2016"); 
0983E:  MOVLW  92
09840:  MOVWF  FF6
09842:  MOVLW  0B
09844:  MOVWF  FF7
09846:  MOVLW  00
09848:  MOVWF  FF8
0984A:  MOVLB  0
0984C:  CALL   3FF2
....................             SendDataDisplay();  
09850:  CALL   4024
....................             suministroAire=ON; 
09854:  BSF    xF7.0
....................          }else{ 
09856:  BRA    9872
09858:  MOVLB  1
....................             printf("b0.bco=63488"); 
0985A:  MOVLW  9E
0985C:  MOVWF  FF6
0985E:  MOVLW  0B
09860:  MOVWF  FF7
09862:  MOVLW  00
09864:  MOVWF  FF8
09866:  MOVLB  0
09868:  CALL   3FF2
....................             SendDataDisplay();  
0986C:  CALL   4024
....................             suministroAire=OFF; 
09870:  BCF    xF7.0
....................          } 
....................           
....................          if(RX_Buffer[4]==0x02){//Oprimio EV Desfogue 
09872:  MOVF   34,W
09874:  SUBLW  02
09876:  BNZ   9880
....................             EstadoDesfogue=!EstadoDesfogue; 
09878:  MOVLB  1
0987A:  BTG    x03.0
....................             RX_Buffer[4]=0x00; 
0987C:  CLRF   34
....................             RX_Buffer2[4]=0x00; 
0987E:  CLRF   3F
....................          } 
....................           
....................          if(EstadoDesfogue){ 
09880:  MOVLB  1
09882:  BTFSS  x03.0
09884:  BRA    98A2
....................             printf("b1.bco=2016"); 
09886:  MOVLW  AC
09888:  MOVWF  FF6
0988A:  MOVLW  0B
0988C:  MOVWF  FF7
0988E:  MOVLW  00
09890:  MOVWF  FF8
09892:  MOVLB  0
09894:  CALL   3FF2
....................             SendDataDisplay();  
09898:  CALL   4024
....................             Desfogue=ON; 
0989C:  BSF    xF8.0
....................          }else{ 
0989E:  BRA    98BA
098A0:  MOVLB  1
....................             printf("b1.bco=63488"); 
098A2:  MOVLW  B8
098A4:  MOVWF  FF6
098A6:  MOVLW  0B
098A8:  MOVWF  FF7
098AA:  MOVLW  00
098AC:  MOVWF  FF8
098AE:  MOVLB  0
098B0:  CALL   3FF2
....................             SendDataDisplay();  
098B4:  CALL   4024
....................             Desfogue=OFF; 
098B8:  BCF    xF8.0
....................          } 
....................           
....................          if(RX_Buffer[4]==0x03){//Oprimio EV Paso 
098BA:  MOVF   34,W
098BC:  SUBLW  03
098BE:  BNZ   98C8
....................             EstadoPaso=!EstadoPaso; 
098C0:  MOVLB  1
098C2:  BTG    x04.4
....................             RX_Buffer[4]=0x00; 
098C4:  CLRF   34
....................             RX_Buffer2[4]=0x00; 
098C6:  CLRF   3F
....................          } 
....................           
....................          if(EstadoPaso){ 
098C8:  MOVLB  1
098CA:  BTFSS  x04.4
098CC:  BRA    98EA
....................             printf("b2.bco=2016"); 
098CE:  MOVLW  C6
098D0:  MOVWF  FF6
098D2:  MOVLW  0B
098D4:  MOVWF  FF7
098D6:  MOVLW  00
098D8:  MOVWF  FF8
098DA:  MOVLB  0
098DC:  CALL   3FF2
....................             SendDataDisplay();  
098E0:  CALL   4024
....................             Paso=ON; 
098E4:  BSF    xF7.6
....................          }else{ 
098E6:  BRA    9902
098E8:  MOVLB  1
....................             printf("b2.bco=63488"); 
098EA:  MOVLW  D2
098EC:  MOVWF  FF6
098EE:  MOVLW  0B
098F0:  MOVWF  FF7
098F2:  MOVLW  00
098F4:  MOVWF  FF8
098F6:  MOVLB  0
098F8:  CALL   3FF2
....................             SendDataDisplay();  
098FC:  CALL   4024
....................             Paso=OFF; 
09900:  BCF    xF7.6
....................          } 
....................          
....................          if(RX_Buffer[4]==0x04){//Oprimio Vacio 
09902:  MOVF   34,W
09904:  SUBLW  04
09906:  BNZ   9910
....................             EstadoVacio=!EstadoVacio; 
09908:  MOVLB  1
0990A:  BTG    x04.5
....................             RX_Buffer[4]=0x00; 
0990C:  CLRF   34
....................             RX_Buffer2[4]=0x00; 
0990E:  CLRF   3F
....................          } 
....................           
....................          if(EstadoVacio){ 
09910:  MOVLB  1
09912:  BTFSS  x04.5
09914:  BRA    9932
....................             printf("b3.bco=2016"); 
09916:  MOVLW  E0
09918:  MOVWF  FF6
0991A:  MOVLW  0B
0991C:  MOVWF  FF7
0991E:  MOVLW  00
09920:  MOVWF  FF8
09922:  MOVLB  0
09924:  CALL   3FF2
....................             SendDataDisplay();  
09928:  CALL   4024
....................             outVacio=ON; 
0992C:  BSF    xF7.7
....................          }else{ 
0992E:  BRA    994A
09930:  MOVLB  1
....................             printf("b3.bco=63488"); 
09932:  MOVLW  EC
09934:  MOVWF  FF6
09936:  MOVLW  0B
09938:  MOVWF  FF7
0993A:  MOVLW  00
0993C:  MOVWF  FF8
0993E:  MOVLB  0
09940:  CALL   3FF2
....................             SendDataDisplay();  
09944:  CALL   4024
....................             outVacio=OFF; 
09948:  BCF    xF7.7
....................          } 
....................           
....................          if(RX_Buffer[4]==0x05){//Oprimio Aire 
0994A:  MOVF   34,W
0994C:  SUBLW  05
0994E:  BNZ   9958
....................             EstadoAire=!EstadoAire; 
09950:  MOVLB  1
09952:  BTG    x03.2
....................             RX_Buffer[4]=0x00; 
09954:  CLRF   34
....................             RX_Buffer2[4]=0x00; 
09956:  CLRF   3F
....................          } 
....................           
....................          if(EstadoAire){ 
09958:  MOVLB  1
0995A:  BTFSS  x03.2
0995C:  BRA    997A
....................             printf("b4.bco=2016"); 
0995E:  MOVLW  FA
09960:  MOVWF  FF6
09962:  MOVLW  0B
09964:  MOVWF  FF7
09966:  MOVLW  00
09968:  MOVWF  FF8
0996A:  MOVLB  0
0996C:  CALL   3FF2
....................             SendDataDisplay();  
09970:  CALL   4024
....................             Aire=ON; 
09974:  BSF    xF8.1
....................          }else{ 
09976:  BRA    9992
09978:  MOVLB  1
....................             printf("b4.bco=63488"); 
0997A:  MOVLW  06
0997C:  MOVWF  FF6
0997E:  MOVLW  0C
09980:  MOVWF  FF7
09982:  MOVLW  00
09984:  MOVWF  FF8
09986:  MOVLB  0
09988:  CALL   3FF2
....................             SendDataDisplay();  
0998C:  CALL   4024
....................             Aire=OFF; 
09990:  BCF    xF8.1
....................          } 
....................           
....................          if(RX_Buffer[4]==0x06){//Oprimio Bomba Vacio 
09992:  MOVF   34,W
09994:  SUBLW  06
09996:  BNZ   99A0
....................             EstadoBomba=!EstadoBomba; 
09998:  MOVLB  1
0999A:  BTG    x05.5
....................             RX_Buffer[4]=0x00; 
0999C:  CLRF   34
....................             RX_Buffer2[4]=0x00; 
0999E:  CLRF   3F
....................          } 
....................           
....................          if(EstadoBomba){ 
099A0:  MOVLB  1
099A2:  BTFSS  x05.5
099A4:  BRA    99D0
....................             printf("b5.bco=2016"); 
099A6:  MOVLW  14
099A8:  MOVWF  FF6
099AA:  MOVLW  0C
099AC:  MOVWF  FF7
099AE:  MOVLW  00
099B0:  MOVWF  FF8
099B2:  MOVLB  0
099B4:  CALL   3FF2
....................             SendDataDisplay();  
099B8:  CALL   4024
....................             if(ReservorioLleno) 
099BC:  MOVLB  1
099BE:  BTFSS  x08.3
099C0:  BRA    99C8
....................                bombaVacio=ON; 
099C2:  MOVLB  0
099C4:  BSF    xF7.2
....................             else 
099C6:  BRA    99CC
....................                bombaVacio=OFF; 
099C8:  MOVLB  0
099CA:  BCF    xF7.2
....................          }else{ 
099CC:  BRA    99E8
099CE:  MOVLB  1
....................             printf("b5.bco=63488"); 
099D0:  MOVLW  20
099D2:  MOVWF  FF6
099D4:  MOVLW  0C
099D6:  MOVWF  FF7
099D8:  MOVLW  00
099DA:  MOVWF  FF8
099DC:  MOVLB  0
099DE:  CALL   3FF2
....................             SendDataDisplay();  
099E2:  CALL   4024
....................             bombaVacio=OFF; 
099E6:  BCF    xF7.2
....................          } 
....................           
....................          if(RX_Buffer[4]==0x07){//Oprimio EV Agua 
099E8:  MOVF   34,W
099EA:  SUBLW  07
099EC:  BNZ   99F4
....................             EstadoAguaEnfriador=!EstadoAguaEnfriador; 
099EE:  BTG    xFB.2
....................             RX_Buffer[4]=0x00; 
099F0:  CLRF   34
....................             RX_Buffer2[4]=0x00; 
099F2:  CLRF   3F
....................          } 
....................           
....................          if(EstadoAguaEnfriador){ 
099F4:  BTFSS  xFB.2
099F6:  BRA    9A10
....................             printf("b7.bco=2016"); 
099F8:  MOVLW  2E
099FA:  MOVWF  FF6
099FC:  MOVLW  0C
099FE:  MOVWF  FF7
09A00:  MOVLW  00
09A02:  MOVWF  FF8
09A04:  CALL   3FF2
....................             SendDataDisplay();  
09A08:  CALL   4024
....................             aguaEnfriador=ON; 
09A0C:  BSF    xF7.1
....................          }else{ 
09A0E:  BRA    9A26
....................             printf("b7.bco=63488"); 
09A10:  MOVLW  3A
09A12:  MOVWF  FF6
09A14:  MOVLW  0C
09A16:  MOVWF  FF7
09A18:  MOVLW  00
09A1A:  MOVWF  FF8
09A1C:  CALL   3FF2
....................             SendDataDisplay();  
09A20:  CALL   4024
....................             aguaEnfriador=OFF; 
09A24:  BCF    xF7.1
....................          } 
....................           
....................          if(RX_Buffer[4]==0x08){//Oprimio EV Suministro Vapor 
09A26:  MOVF   34,W
09A28:  SUBLW  08
09A2A:  BNZ   9A32
....................             EstadoSuministroV=!EstadoSuministroV; 
09A2C:  BTG    xFB.3
....................             RX_Buffer[4]=0x00; 
09A2E:  CLRF   34
....................             RX_Buffer2[4]=0x00; 
09A30:  CLRF   3F
....................          } 
....................           
....................          if(EstadoSuministroV){ 
09A32:  BTFSS  xFB.3
09A34:  BRA    9A4E
....................             printf("b6.bco=2016"); 
09A36:  MOVLW  48
09A38:  MOVWF  FF6
09A3A:  MOVLW  0C
09A3C:  MOVWF  FF7
09A3E:  MOVLW  00
09A40:  MOVWF  FF8
09A42:  CALL   3FF2
....................             SendDataDisplay();  
09A46:  CALL   4024
....................             suministroVapor=ON; 
09A4A:  BSF    xF7.5
....................          }else{ 
09A4C:  BRA    9A64
....................             printf("b6.bco=63488"); 
09A4E:  MOVLW  54
09A50:  MOVWF  FF6
09A52:  MOVLW  0C
09A54:  MOVWF  FF7
09A56:  MOVLW  00
09A58:  MOVWF  FF8
09A5A:  CALL   3FF2
....................             SendDataDisplay();  
09A5E:  CALL   4024
....................             suministroVapor=OFF; 
09A62:  BCF    xF7.5
....................          } 
....................           
....................          if(RX_Buffer[4]==0x09){//Oprimio Abrir Cierre 
09A64:  MOVF   34,W
09A66:  SUBLW  09
09A68:  BNZ   9A70
....................             EstadoCilindrosL=!EstadoCilindrosL; 
09A6A:  BTG    xFB.4
....................             RX_Buffer[4]=0x00; 
09A6C:  CLRF   34
....................             RX_Buffer2[4]=0x00; 
09A6E:  CLRF   3F
....................          } 
....................           
....................          if(EstadoCilindrosL){ 
09A70:  BTFSS  xFB.4
09A72:  BRA    9A8C
....................             printf("b12.bco=2016"); 
09A74:  MOVLW  62
09A76:  MOVWF  FF6
09A78:  MOVLW  0C
09A7A:  MOVWF  FF7
09A7C:  MOVLW  00
09A7E:  MOVWF  FF8
09A80:  CALL   3FF2
....................             SendDataDisplay();  
09A84:  CALL   4024
....................             cilindroLimpio=OFF; 
09A88:  BCF    xF8.3
....................          }else{ 
09A8A:  BRA    9AA2
....................             printf("b12.bco=63488"); 
09A8C:  MOVLW  70
09A8E:  MOVWF  FF6
09A90:  MOVLW  0C
09A92:  MOVWF  FF7
09A94:  MOVLW  00
09A96:  MOVWF  FF8
09A98:  CALL   3FF2
....................             SendDataDisplay();  
09A9C:  CALL   4024
....................             cilindroLimpio=ON; 
09AA0:  BSF    xF8.3
....................          } 
....................           
....................          if(RX_Buffer[4]==0x0a){//Oprimio Empaque 
09AA2:  MOVF   34,W
09AA4:  SUBLW  0A
09AA6:  BNZ   9AAE
....................             EstadoEmpaqueL=!EstadoEmpaqueL; 
09AA8:  BTG    xFB.6
....................             RX_Buffer[4]=0x00; 
09AAA:  CLRF   34
....................             RX_Buffer2[4]=0x00; 
09AAC:  CLRF   3F
....................          } 
....................           
....................          if(EstadoEmpaqueL && DOORL){ 
09AAE:  BTFSS  xFB.6
09AB0:  BRA    9AD0
09AB2:  BSF    F93.4
09AB4:  BTFSC  F81.4
09AB6:  BRA    9AD0
....................             printf("b16.bco=2016"); 
09AB8:  MOVLW  7E
09ABA:  MOVWF  FF6
09ABC:  MOVLW  0C
09ABE:  MOVWF  FF7
09AC0:  MOVLW  00
09AC2:  MOVWF  FF8
09AC4:  CALL   3FF2
....................             SendDataDisplay();  
09AC8:  CALL   4024
....................             empaqueLimpio=ON;             
09ACC:  BSF    xF7.3
....................          }else{ 
09ACE:  BRA    9AE6
....................             printf("b16.bco=63488"); 
09AD0:  MOVLW  8C
09AD2:  MOVWF  FF6
09AD4:  MOVLW  0C
09AD6:  MOVWF  FF7
09AD8:  MOVLW  00
09ADA:  MOVWF  FF8
09ADC:  CALL   3FF2
....................             SendDataDisplay();  
09AE0:  CALL   4024
....................             empaqueLimpio=OFF; 
09AE4:  BCF    xF7.3
....................          } 
....................           
....................          if(RX_Buffer[4]==0x0b){//Oprimio Abrir Cierre 
09AE6:  MOVF   34,W
09AE8:  SUBLW  0B
09AEA:  BNZ   9AF2
....................             EstadoCilindrosS=!EstadoCilindrosS; 
09AEC:  BTG    xFB.5
....................             RX_Buffer[4]=0x00; 
09AEE:  CLRF   34
....................             RX_Buffer2[4]=0x00; 
09AF0:  CLRF   3F
....................          } 
....................           
....................          if(EstadoCilindrosS){ 
09AF2:  BTFSS  xFB.5
09AF4:  BRA    9B0E
....................             printf("b17.bco=2016"); 
09AF6:  MOVLW  9A
09AF8:  MOVWF  FF6
09AFA:  MOVLW  0C
09AFC:  MOVWF  FF7
09AFE:  MOVLW  00
09B00:  MOVWF  FF8
09B02:  CALL   3FF2
....................             SendDataDisplay();  
09B06:  CALL   4024
....................             cilindroSucio=OFF; 
09B0A:  BCF    xF8.2
....................          }else{ 
09B0C:  BRA    9B24
....................             printf("b17.bco=63488"); 
09B0E:  MOVLW  A8
09B10:  MOVWF  FF6
09B12:  MOVLW  0C
09B14:  MOVWF  FF7
09B16:  MOVLW  00
09B18:  MOVWF  FF8
09B1A:  CALL   3FF2
....................             SendDataDisplay();  
09B1E:  CALL   4024
....................             cilindroSucio=ON; 
09B22:  BSF    xF8.2
....................          } 
....................           
....................          if(RX_Buffer[4]==0x0c){//Oprimio Empaque 
09B24:  MOVF   34,W
09B26:  SUBLW  0C
09B28:  BNZ   9B30
....................             EstadoEmpaqueS=!EstadoEmpaqueS; 
09B2A:  BTG    xFB.7
....................             RX_Buffer[4]=0x00; 
09B2C:  CLRF   34
....................             RX_Buffer2[4]=0x00; 
09B2E:  CLRF   3F
....................          } 
....................           
....................          if(EstadoEmpaqueS && DOORS){ 
09B30:  BTFSS  xFB.7
09B32:  BRA    9B52
09B34:  BSF    F93.3
09B36:  BTFSC  F81.3
09B38:  BRA    9B52
....................             printf("b25.bco=2016"); 
09B3A:  MOVLW  B6
09B3C:  MOVWF  FF6
09B3E:  MOVLW  0C
09B40:  MOVWF  FF7
09B42:  MOVLW  00
09B44:  MOVWF  FF8
09B46:  CALL   3FF2
....................             SendDataDisplay();  
09B4A:  CALL   4024
....................             empaqueSucio=ON;             
09B4E:  BSF    xF7.4
....................          }else{ 
09B50:  BRA    9B68
....................             printf("b25.bco=63488"); 
09B52:  MOVLW  C4
09B54:  MOVWF  FF6
09B56:  MOVLW  0C
09B58:  MOVWF  FF7
09B5A:  MOVLW  00
09B5C:  MOVWF  FF8
09B5E:  CALL   3FF2
....................             SendDataDisplay();  
09B62:  CALL   4024
....................             empaqueSucio=OFF; 
09B66:  BCF    xF7.4
....................          } 
....................           
....................          if(RX_Buffer[4]==0x0d){//Oprimio Empaque 
09B68:  MOVF   34,W
09B6A:  SUBLW  0D
09B6C:  BNZ   9B76
....................             EstadoBuzzer=!EstadoBuzzer; 
09B6E:  MOVLB  1
09B70:  BTG    x04.6
....................             RX_Buffer[4]=0x00; 
09B72:  CLRF   34
....................             RX_Buffer2[4]=0x00; 
09B74:  CLRF   3F
....................          } 
....................           
....................          if(EstadoBuzzer){ 
09B76:  MOVLB  1
09B78:  BTFSS  x04.6
09B7A:  BRA    9B96
....................             printf("b21.bco=2016"); 
09B7C:  MOVLW  D2
09B7E:  MOVWF  FF6
09B80:  MOVLW  0C
09B82:  MOVWF  FF7
09B84:  MOVLW  00
09B86:  MOVWF  FF8
09B88:  MOVLB  0
09B8A:  CALL   3FF2
....................             SendDataDisplay();  
09B8E:  CALL   4024
....................          }else{ 
09B92:  BRA    9BAC
09B94:  MOVLB  1
....................             printf("b21.bco=63488"); 
09B96:  MOVLW  E0
09B98:  MOVWF  FF6
09B9A:  MOVLW  0C
09B9C:  MOVWF  FF7
09B9E:  MOVLW  00
09BA0:  MOVWF  FF8
09BA2:  MOVLB  0
09BA4:  CALL   3FF2
....................             SendDataDisplay();  
09BA8:  CALL   4024
....................          } 
....................           
....................          if(DOORS){ 
09BAC:  BSF    F93.3
09BAE:  BTFSC  F81.3
09BB0:  BRA    9BC8
....................             printf("b8.bco=2016"); 
09BB2:  MOVLW  EE
09BB4:  MOVWF  FF6
09BB6:  MOVLW  0C
09BB8:  MOVWF  FF7
09BBA:  MOVLW  00
09BBC:  MOVWF  FF8
09BBE:  CALL   3FF2
....................             SendDataDisplay();  
09BC2:  CALL   4024
....................          }else{ 
09BC6:  BRA    9BDC
....................             printf("b8.bco=63488"); 
09BC8:  MOVLW  FA
09BCA:  MOVWF  FF6
09BCC:  MOVLW  0C
09BCE:  MOVWF  FF7
09BD0:  MOVLW  00
09BD2:  MOVWF  FF8
09BD4:  CALL   3FF2
....................             SendDataDisplay();  
09BD8:  CALL   4024
....................          } 
....................           
....................          if(DOORL){ 
09BDC:  BSF    F93.4
09BDE:  BTFSC  F81.4
09BE0:  BRA    9BF8
....................             printf("b26.bco=2016"); 
09BE2:  MOVLW  08
09BE4:  MOVWF  FF6
09BE6:  MOVLW  0D
09BE8:  MOVWF  FF7
09BEA:  MOVLW  00
09BEC:  MOVWF  FF8
09BEE:  CALL   3FF2
....................             SendDataDisplay();  
09BF2:  CALL   4024
....................          }else{ 
09BF6:  BRA    9C0C
....................             printf("b26.bco=63488"); 
09BF8:  MOVLW  16
09BFA:  MOVWF  FF6
09BFC:  MOVLW  0D
09BFE:  MOVWF  FF7
09C00:  MOVLW  00
09C02:  MOVWF  FF8
09C04:  CALL   3FF2
....................             SendDataDisplay();  
09C08:  CALL   4024
....................          } 
....................           
....................          if(EMPAQUEL){ 
09C0C:  BSF    F93.2
09C0E:  BTFSC  F81.2
09C10:  BRA    9C28
....................             printf("b9.bco=2016"); 
09C12:  MOVLW  24
09C14:  MOVWF  FF6
09C16:  MOVLW  0D
09C18:  MOVWF  FF7
09C1A:  MOVLW  00
09C1C:  MOVWF  FF8
09C1E:  CALL   3FF2
....................             SendDataDisplay();  
09C22:  CALL   4024
....................          }else{ 
09C26:  BRA    9C3C
....................             printf("b9.bco=63488"); 
09C28:  MOVLW  30
09C2A:  MOVWF  FF6
09C2C:  MOVLW  0D
09C2E:  MOVWF  FF7
09C30:  MOVLW  00
09C32:  MOVWF  FF8
09C34:  CALL   3FF2
....................             SendDataDisplay();  
09C38:  CALL   4024
....................          } 
....................           
....................          if(EMPAQUES){ 
09C3C:  BSF    F93.1
09C3E:  BTFSC  F81.1
09C40:  BRA    9C58
....................             printf("b11.bco=2016"); 
09C42:  MOVLW  3E
09C44:  MOVWF  FF6
09C46:  MOVLW  0D
09C48:  MOVWF  FF7
09C4A:  MOVLW  00
09C4C:  MOVWF  FF8
09C4E:  CALL   3FF2
....................             SendDataDisplay();  
09C52:  CALL   4024
....................          }else{ 
09C56:  BRA    9C6C
....................             printf("b11.bco=63488"); 
09C58:  MOVLW  4C
09C5A:  MOVWF  FF6
09C5C:  MOVLW  0D
09C5E:  MOVWF  FF7
09C60:  MOVLW  00
09C62:  MOVWF  FF8
09C64:  CALL   3FF2
....................             SendDataDisplay();  
09C68:  CALL   4024
....................          } 
....................           
....................          if(STOP){ 
09C6C:  BSF    F93.0
09C6E:  BTFSC  F81.0
09C70:  BRA    9C88
....................             printf("b10.bco=2016"); 
09C72:  MOVLW  5A
09C74:  MOVWF  FF6
09C76:  MOVLW  0D
09C78:  MOVWF  FF7
09C7A:  MOVLW  00
09C7C:  MOVWF  FF8
09C7E:  CALL   3FF2
....................             SendDataDisplay();  
09C82:  CALL   4024
....................          }else{ 
09C86:  BRA    9C9C
....................             printf("b10.bco=63488"); 
09C88:  MOVLW  68
09C8A:  MOVWF  FF6
09C8C:  MOVLW  0D
09C8E:  MOVWF  FF7
09C90:  MOVLW  00
09C92:  MOVWF  FF8
09C94:  CALL   3FF2
....................             SendDataDisplay();  
09C98:  CALL   4024
....................          } 
....................           
....................          if(LOWB){ 
09C9C:  BSF    F93.5
09C9E:  BTFSC  F81.5
09CA0:  BRA    9CB8
....................             printf("b23.bco=2016"); 
09CA2:  MOVLW  76
09CA4:  MOVWF  FF6
09CA6:  MOVLW  0D
09CA8:  MOVWF  FF7
09CAA:  MOVLW  00
09CAC:  MOVWF  FF8
09CAE:  CALL   3FF2
....................             SendDataDisplay();  
09CB2:  CALL   4024
....................          }else{ 
09CB6:  BRA    9CCC
....................             printf("b23.bco=63488"); 
09CB8:  MOVLW  84
09CBA:  MOVWF  FF6
09CBC:  MOVLW  0D
09CBE:  MOVWF  FF7
09CC0:  MOVLW  00
09CC2:  MOVWF  FF8
09CC4:  CALL   3FF2
....................             SendDataDisplay();  
09CC8:  CALL   4024
....................          } 
....................           
....................          if(BLOQUEOL){ 
09CCC:  BSF    F93.7
09CCE:  BTFSC  F81.7
09CD0:  BRA    9CE8
....................             printf("b24.bco=2016"); 
09CD2:  MOVLW  92
09CD4:  MOVWF  FF6
09CD6:  MOVLW  0D
09CD8:  MOVWF  FF7
09CDA:  MOVLW  00
09CDC:  MOVWF  FF8
09CDE:  CALL   3FF2
....................             SendDataDisplay();  
09CE2:  CALL   4024
....................          }else{ 
09CE6:  BRA    9CFC
....................             printf("b24.bco=63488"); 
09CE8:  MOVLW  A0
09CEA:  MOVWF  FF6
09CEC:  MOVLW  0D
09CEE:  MOVWF  FF7
09CF0:  MOVLW  00
09CF2:  MOVWF  FF8
09CF4:  CALL   3FF2
....................             SendDataDisplay();  
09CF8:  CALL   4024
....................          } 
....................           
....................          if(BLOQUEOS){ 
09CFC:  BSF    F93.6
09CFE:  BTFSC  F81.6
09D00:  BRA    9D18
....................             printf("b27.bco=2016"); 
09D02:  MOVLW  AE
09D04:  MOVWF  FF6
09D06:  MOVLW  0D
09D08:  MOVWF  FF7
09D0A:  MOVLW  00
09D0C:  MOVWF  FF8
09D0E:  CALL   3FF2
....................             SendDataDisplay();  
09D12:  CALL   4024
....................          }else{ 
09D16:  BRA    9D2C
....................             printf("b27.bco=63488"); 
09D18:  MOVLW  BC
09D1A:  MOVWF  FF6
09D1C:  MOVLW  0D
09D1E:  MOVWF  FF7
09D20:  MOVLW  00
09D22:  MOVWF  FF8
09D24:  CALL   3FF2
....................             SendDataDisplay();  
09D28:  CALL   4024
....................          }          
....................                    
....................          printf("b13.txt=\"ADC0:%3.0f\"",sensores(0));          
09D2C:  MOVLB  6
09D2E:  CLRF   xAE
09D30:  MOVLB  0
09D32:  CALL   4062
09D36:  MOVFF  00,6A8
09D3A:  MOVFF  01,6A9
09D3E:  MOVFF  02,6AA
09D42:  MOVFF  03,6AB
09D46:  MOVLW  CA
09D48:  MOVWF  FF6
09D4A:  MOVLW  0D
09D4C:  MOVWF  FF7
09D4E:  MOVLW  00
09D50:  MOVWF  FF8
09D52:  MOVLW  0E
09D54:  MOVLB  6
09D56:  MOVWF  xAD
09D58:  MOVLB  0
09D5A:  CALL   5A32
09D5E:  MOVLW  02
09D60:  MOVWF  FE9
09D62:  MOVFF  6AB,6B0
09D66:  MOVFF  6AA,6AF
09D6A:  MOVFF  6A9,6AE
09D6E:  MOVFF  6A8,6AD
09D72:  MOVLB  6
09D74:  CLRF   xB1
09D76:  MOVLB  0
09D78:  CALL   5D1C
09D7C:  MOVLW  22
09D7E:  BTFSS  F9E.4
09D80:  BRA    9D7E
09D82:  MOVWF  FAD
....................          SendDataDisplay(); 
09D84:  CALL   4024
....................          printf("b14.txt=\"ADC1:%3.0f\"",sensores(1));          
09D88:  MOVLW  01
09D8A:  MOVLB  6
09D8C:  MOVWF  xAE
09D8E:  MOVLB  0
09D90:  CALL   4062
09D94:  MOVFF  00,6A8
09D98:  MOVFF  01,6A9
09D9C:  MOVFF  02,6AA
09DA0:  MOVFF  03,6AB
09DA4:  MOVLW  E0
09DA6:  MOVWF  FF6
09DA8:  MOVLW  0D
09DAA:  MOVWF  FF7
09DAC:  MOVLW  00
09DAE:  MOVWF  FF8
09DB0:  MOVLW  0E
09DB2:  MOVLB  6
09DB4:  MOVWF  xAD
09DB6:  MOVLB  0
09DB8:  CALL   5A32
09DBC:  MOVLW  02
09DBE:  MOVWF  FE9
09DC0:  MOVFF  6AB,6B0
09DC4:  MOVFF  6AA,6AF
09DC8:  MOVFF  6A9,6AE
09DCC:  MOVFF  6A8,6AD
09DD0:  MOVLB  6
09DD2:  CLRF   xB1
09DD4:  MOVLB  0
09DD6:  CALL   5D1C
09DDA:  MOVLW  22
09DDC:  BTFSS  F9E.4
09DDE:  BRA    9DDC
09DE0:  MOVWF  FAD
....................          SendDataDisplay(); 
09DE2:  CALL   4024
....................          printf("b15.txt=\"A4:%3.0f %03Lu\"",sensores(4),PresionPreCamara); 
09DE6:  MOVLW  04
09DE8:  MOVLB  6
09DEA:  MOVWF  xAE
09DEC:  MOVLB  0
09DEE:  CALL   4062
09DF2:  MOVFF  00,6A8
09DF6:  MOVFF  01,6A9
09DFA:  MOVFF  02,6AA
09DFE:  MOVFF  03,6AB
09E02:  MOVLW  F6
09E04:  MOVWF  FF6
09E06:  MOVLW  0D
09E08:  MOVWF  FF7
09E0A:  MOVLW  00
09E0C:  MOVWF  FF8
09E0E:  MOVLW  0C
09E10:  MOVLB  6
09E12:  MOVWF  xAD
09E14:  MOVLB  0
09E16:  CALL   5A32
09E1A:  MOVLW  02
09E1C:  MOVWF  FE9
09E1E:  MOVFF  6AB,6B0
09E22:  MOVFF  6AA,6AF
09E26:  MOVFF  6A9,6AE
09E2A:  MOVFF  6A8,6AD
09E2E:  MOVLB  6
09E30:  CLRF   xB1
09E32:  MOVLB  0
09E34:  CALL   5D1C
09E38:  MOVLW  20
09E3A:  BTFSS  F9E.4
09E3C:  BRA    9E3A
09E3E:  MOVWF  FAD
09E40:  MOVLW  0A
09E42:  MOVWF  FE9
09E44:  MOVFF  274,6AD
09E48:  MOVFF  273,6AC
09E4C:  CALL   5BAE
09E50:  MOVLW  22
09E52:  BTFSS  F9E.4
09E54:  BRA    9E52
09E56:  MOVWF  FAD
....................          SendDataDisplay(); 
09E58:  CALL   4024
....................          printf("b18.txt=\"A5:%3.0f %03Lu\"",sensores(5),PresionCamara); 
09E5C:  MOVLW  05
09E5E:  MOVLB  6
09E60:  MOVWF  xAE
09E62:  MOVLB  0
09E64:  CALL   4062
09E68:  MOVFF  00,6A8
09E6C:  MOVFF  01,6A9
09E70:  MOVFF  02,6AA
09E74:  MOVFF  03,6AB
09E78:  MOVLW  10
09E7A:  MOVWF  FF6
09E7C:  MOVLW  0E
09E7E:  MOVWF  FF7
09E80:  MOVLW  00
09E82:  MOVWF  FF8
09E84:  MOVLW  0C
09E86:  MOVLB  6
09E88:  MOVWF  xAD
09E8A:  MOVLB  0
09E8C:  CALL   5A32
09E90:  MOVLW  02
09E92:  MOVWF  FE9
09E94:  MOVFF  6AB,6B0
09E98:  MOVFF  6AA,6AF
09E9C:  MOVFF  6A9,6AE
09EA0:  MOVFF  6A8,6AD
09EA4:  MOVLB  6
09EA6:  CLRF   xB1
09EA8:  MOVLB  0
09EAA:  CALL   5D1C
09EAE:  MOVLW  20
09EB0:  BTFSS  F9E.4
09EB2:  BRA    9EB0
09EB4:  MOVWF  FAD
09EB6:  MOVLW  0A
09EB8:  MOVWF  FE9
09EBA:  MOVFF  272,6AD
09EBE:  MOVFF  271,6AC
09EC2:  CALL   5BAE
09EC6:  MOVLW  22
09EC8:  BTFSS  F9E.4
09ECA:  BRA    9EC8
09ECC:  MOVWF  FAD
....................          SendDataDisplay(); 
09ECE:  CALL   4024
....................          printf("b19.txt=\"T2:%3.1f\"",Temperatura2); 
09ED2:  MOVLW  2A
09ED4:  MOVWF  FF6
09ED6:  MOVLW  0E
09ED8:  MOVWF  FF7
09EDA:  MOVLW  00
09EDC:  MOVWF  FF8
09EDE:  MOVLW  0C
09EE0:  MOVLB  6
09EE2:  MOVWF  xAD
09EE4:  MOVLB  0
09EE6:  CALL   5A32
09EEA:  MOVLW  02
09EEC:  MOVWF  FE9
09EEE:  MOVFF  238,6B0
09EF2:  MOVFF  237,6AF
09EF6:  MOVFF  236,6AE
09EFA:  MOVFF  235,6AD
09EFE:  MOVLW  01
09F00:  MOVLB  6
09F02:  MOVWF  xB1
09F04:  MOVLB  0
09F06:  CALL   5D1C
09F0A:  MOVLW  22
09F0C:  BTFSS  F9E.4
09F0E:  BRA    9F0C
09F10:  MOVWF  FAD
....................          SendDataDisplay(); 
09F12:  CALL   4024
....................          printf("b20.txt=\"T1:%3.1f\"",Temperatura); 
09F16:  MOVLW  3E
09F18:  MOVWF  FF6
09F1A:  MOVLW  0E
09F1C:  MOVWF  FF7
09F1E:  MOVLW  00
09F20:  MOVWF  FF8
09F22:  MOVLW  0C
09F24:  MOVLB  6
09F26:  MOVWF  xAD
09F28:  MOVLB  0
09F2A:  CALL   5A32
09F2E:  MOVLW  02
09F30:  MOVWF  FE9
09F32:  MOVFF  234,6B0
09F36:  MOVFF  233,6AF
09F3A:  MOVFF  232,6AE
09F3E:  MOVFF  231,6AD
09F42:  MOVLW  01
09F44:  MOVLB  6
09F46:  MOVWF  xB1
09F48:  MOVLB  0
09F4A:  CALL   5D1C
09F4E:  MOVLW  22
09F50:  BTFSS  F9E.4
09F52:  BRA    9F50
09F54:  MOVWF  FAD
....................          SendDataDisplay(); 
09F56:  CALL   4024
....................           
....................          if(RX_Buffer[4]==0x21)//Oprimio salir 
09F5A:  MOVF   34,W
09F5C:  SUBLW  21
09F5E:  BNZ   9F80
....................          { 
....................             printf("page Menu"); 
09F60:  MOVLW  52
09F62:  MOVWF  FF6
09F64:  MOVLW  0E
09F66:  MOVWF  FF7
09F68:  MOVLW  00
09F6A:  MOVWF  FF8
09F6C:  CALL   3FF2
....................             SendDataDisplay(); 
09F70:  CALL   4024
....................             PantallaPrincipal=0; 
09F74:  MOVLB  1
09F76:  CLRF   xEE
....................             PruebaEstados=OFF; 
09F78:  BCF    x03.3
....................             ApagaSalidas(); 
09F7A:  MOVLB  0
09F7C:  CALL   405A
....................             // Falta apagar Todo 
....................          } 
....................      }else if(Menu==7){ //Menu de Configuracin de Fecha y Hora 
09F80:  GOTO   EDD6
09F84:  MOVLB  2
09F86:  MOVF   x52,W
09F88:  SUBLW  07
09F8A:  BTFSS  FD8.2
09F8C:  BRA    A372
....................        
....................          if(RX_Buffer[4]==0x0a)//Selecciono Hora 
09F8E:  MOVF   34,W
09F90:  SUBLW  0A
09F92:  BNZ   9F98
....................             Opcion=4; 
09F94:  MOVLW  04
09F96:  MOVWF  x61
....................           
....................          if(RX_Buffer[4]==0x0b)//Selecciono Minuto 
09F98:  MOVF   34,W
09F9A:  SUBLW  0B
09F9C:  BNZ   9FA2
....................             Opcion=5; 
09F9E:  MOVLW  05
09FA0:  MOVWF  x61
....................           
....................          if(RX_Buffer[4]==0x0c)//Selecciono Dia 
09FA2:  MOVF   34,W
09FA4:  SUBLW  0C
09FA6:  BNZ   9FAC
....................             Opcion=1; 
09FA8:  MOVLW  01
09FAA:  MOVWF  x61
....................           
....................          if(RX_Buffer[4]==0x0d)//Selecciono Hora 
09FAC:  MOVF   34,W
09FAE:  SUBLW  0D
09FB0:  BNZ   9FB6
....................             Opcion=2; 
09FB2:  MOVLW  02
09FB4:  MOVWF  x61
....................           
....................          if(RX_Buffer[4]==0x0e)//Selecciono Year 
09FB6:  MOVF   34,W
09FB8:  SUBLW  0E
09FBA:  BNZ   9FC0
....................             Opcion=3; 
09FBC:  MOVLW  03
09FBE:  MOVWF  x61
....................           
....................          if(Opcion>5) 
09FC0:  MOVF   x61,W
09FC2:  SUBLW  05
09FC4:  BC    9FCA
....................             Opcion=1; 
09FC6:  MOVLW  01
09FC8:  MOVWF  x61
....................          if(Opcion<1) 
09FCA:  MOVF   x61,F
09FCC:  BNZ   9FD2
....................             Opcion=5; 
09FCE:  MOVLW  05
09FD0:  MOVWF  x61
....................              
....................          if(RX_Buffer[4]==0x11){//Selecciono Regresar 
09FD2:  MOVF   34,W
09FD4:  SUBLW  11
09FD6:  BTFSS  FD8.2
09FD8:  BRA    A112
....................             printf("page Menu"); 
09FDA:  MOVLW  5C
09FDC:  MOVWF  FF6
09FDE:  MOVLW  0E
09FE0:  MOVWF  FF7
09FE2:  MOVLW  00
09FE4:  MOVWF  FF8
09FE6:  MOVLB  0
09FE8:  CALL   3FF2
....................             SendDataDisplay();   
09FEC:  CALL   4024
....................             PantallaPrincipal=0; 
09FF0:  MOVLB  1
09FF2:  CLRF   xEE
....................             Op=OFF; 
09FF4:  BCF    x03.7
....................             Op2=OFF; 
09FF6:  BCF    x04.0
....................              
....................             if(esBisiesto(YearTx)) 
09FF8:  MOVFF  29E,6A8
09FFC:  MOVLB  0
09FFE:  CALL   5F06
0A002:  MOVF   01,F
0A004:  BZ    A020
....................                Modulo=Bisiesto[MesTx]; 
0A006:  CLRF   03
0A008:  MOVLB  2
0A00A:  MOVF   x9F,W
0A00C:  ADDLW  EB
0A00E:  MOVWF  FE9
0A010:  MOVLW  00
0A012:  ADDWFC 03,W
0A014:  MOVWF  FEA
0A016:  MOVFF  FEF,1F0
0A01A:  MOVLB  1
....................             else 
0A01C:  BRA    A036
0A01E:  MOVLB  0
....................                Modulo=Regular[MesTx]; 
0A020:  CLRF   03
0A022:  MOVLB  2
0A024:  MOVF   x9F,W
0A026:  ADDLW  DF
0A028:  MOVWF  FE9
0A02A:  MOVLW  00
0A02C:  ADDWFC 03,W
0A02E:  MOVWF  FEA
0A030:  MOVFF  FEF,1F0
0A034:  MOVLB  1
....................           
....................             dowTx=((YearTx-1)%7+((YearTx-1)/4-3*((YearTx-1)/100+1)/4)%7+Modulo+DiaTx%7)%7; 
0A036:  MOVLW  01
0A038:  MOVLB  2
0A03A:  SUBWF  x9E,W
0A03C:  MOVLB  6
0A03E:  MOVWF  xA9
0A040:  MOVWF  xB1
0A042:  MOVLW  07
0A044:  MOVWF  xB2
0A046:  MOVLB  0
0A048:  CALL   5A8A
0A04C:  MOVFF  00,6A8
0A050:  MOVLW  01
0A052:  MOVLB  2
0A054:  SUBWF  x9E,W
0A056:  MOVWF  00
0A058:  RRCF   00,W
0A05A:  MOVLB  6
0A05C:  MOVWF  xA9
0A05E:  RRCF   xA9,F
0A060:  MOVLW  3F
0A062:  ANDWF  xA9,F
0A064:  MOVLW  01
0A066:  MOVLB  2
0A068:  SUBWF  x9E,W
0A06A:  MOVLB  6
0A06C:  MOVWF  xAB
0A06E:  MOVWF  xB1
0A070:  MOVLW  64
0A072:  MOVWF  xB2
0A074:  MOVLB  0
0A076:  CALL   5A8A
0A07A:  MOVLW  01
0A07C:  ADDWF  01,W
0A07E:  MULLW  03
0A080:  MOVFF  FF3,00
0A084:  RRCF   00,F
0A086:  RRCF   00,F
0A088:  MOVLW  3F
0A08A:  ANDWF  00,F
0A08C:  MOVF   00,W
0A08E:  MOVLB  6
0A090:  SUBWF  xA9,W
0A092:  MOVWF  xAA
0A094:  MOVWF  xB1
0A096:  MOVLW  07
0A098:  MOVWF  xB2
0A09A:  MOVLB  0
0A09C:  CALL   5A8A
0A0A0:  MOVF   00,W
0A0A2:  MOVLB  6
0A0A4:  ADDWF  xA8,W
0A0A6:  MOVLB  1
0A0A8:  ADDWF  xF0,W
0A0AA:  MOVLB  6
0A0AC:  MOVWF  xA8
0A0AE:  MOVFF  2A0,6B1
0A0B2:  MOVLW  07
0A0B4:  MOVWF  xB2
0A0B6:  MOVLB  0
0A0B8:  CALL   5A8A
0A0BC:  MOVF   00,W
0A0BE:  MOVLB  6
0A0C0:  ADDWF  xA8,W
0A0C2:  MOVWF  xA9
0A0C4:  MOVWF  xB1
0A0C6:  MOVLW  07
0A0C8:  MOVWF  xB2
0A0CA:  MOVLB  0
0A0CC:  CALL   5A8A
0A0D0:  MOVFF  00,2A3
....................             SetTime=5; 
0A0D4:  MOVLW  05
0A0D6:  MOVLB  2
0A0D8:  MOVWF  xA4
....................             Envio_Esclavos(); 
0A0DA:  MOVLB  0
0A0DC:  CALL   4FE8
....................             delay_ms(100);    
0A0E0:  MOVLW  64
0A0E2:  MOVLB  6
0A0E4:  MOVWF  xBA
0A0E6:  MOVLB  0
0A0E8:  CALL   1F70
....................             SetTime=10; 
0A0EC:  MOVLW  0A
0A0EE:  MOVLB  2
0A0F0:  MOVWF  xA4
....................             rtc_set_datetime(DiaTx,MesTx,YearTx,dowTx,HoraTx,MinutoTx); 
0A0F2:  MOVFF  2A0,6A8
0A0F6:  MOVFF  29F,6A9
0A0FA:  MOVFF  29E,6AA
0A0FE:  MOVFF  2A3,6AB
0A102:  MOVFF  2A1,6AC
0A106:  MOVFF  2A2,6AD
0A10A:  MOVLB  0
0A10C:  GOTO   5F88
0A110:  MOVLB  2
....................          } 
....................           
....................          if(RX_Buffer[4]==0x2a){//Tecla Arriba Oprimida 
0A112:  MOVF   34,W
0A114:  SUBLW  2A
0A116:  BTFSS  FD8.2
0A118:  BRA    A1FE
....................                if(Opcion==1){ 
0A11A:  DECFSZ x61,W
0A11C:  BRA    A1AA
....................                   if(MesTx==2){ 
0A11E:  MOVF   x9F,W
0A120:  SUBLW  02
0A122:  BNZ   A158
....................                      if(esBisiesto(YearTx)){ 
0A124:  MOVFF  29E,6A8
0A128:  MOVLB  0
0A12A:  CALL   5F06
0A12E:  MOVF   01,F
0A130:  BZ    A146
....................                         if(DiaTx<29) 
0A132:  MOVLB  2
0A134:  MOVF   xA0,W
0A136:  SUBLW  1C
0A138:  BNC   A13E
....................                            DiaTx++; 
0A13A:  INCF   xA0,F
....................                         else 
0A13C:  BRA    A142
....................                            DiaTx=1;    
0A13E:  MOVLW  01
0A140:  MOVWF  xA0
....................                      }else{ 
0A142:  BRA    A156
0A144:  MOVLB  0
....................                         if(DiaTx<28) 
0A146:  MOVLB  2
0A148:  MOVF   xA0,W
0A14A:  SUBLW  1B
0A14C:  BNC   A152
....................                            DiaTx++; 
0A14E:  INCF   xA0,F
....................                         else 
0A150:  BRA    A156
....................                            DiaTx=1;    
0A152:  MOVLW  01
0A154:  MOVWF  xA0
....................                      } 
....................                   }else{ 
0A156:  BRA    A1A8
....................                      if(MesTx<=7){ 
0A158:  MOVF   x9F,W
0A15A:  SUBLW  07
0A15C:  BNC   A184
....................                         if(MesTx % 2 ==0){ 
0A15E:  MOVF   x9F,W
0A160:  ANDLW  01
0A162:  BNZ   A174
....................                            if(DiaTx<30) 
0A164:  MOVF   xA0,W
0A166:  SUBLW  1D
0A168:  BNC   A16E
....................                               DiaTx++;     
0A16A:  INCF   xA0,F
....................                            else 
0A16C:  BRA    A172
....................                               DiaTx=1;    
0A16E:  MOVLW  01
0A170:  MOVWF  xA0
....................                         }else{ 
0A172:  BRA    A182
....................                            if(DiaTx<31) 
0A174:  MOVF   xA0,W
0A176:  SUBLW  1E
0A178:  BNC   A17E
....................                               DiaTx++;     
0A17A:  INCF   xA0,F
....................                            else 
0A17C:  BRA    A182
....................                               DiaTx=1;    
0A17E:  MOVLW  01
0A180:  MOVWF  xA0
....................                         }     
....................                      }else{ 
0A182:  BRA    A1A8
....................                         if(MesTx % 2 ==0){ 
0A184:  MOVF   x9F,W
0A186:  ANDLW  01
0A188:  BNZ   A19A
....................                            if(DiaTx<31) 
0A18A:  MOVF   xA0,W
0A18C:  SUBLW  1E
0A18E:  BNC   A194
....................                               DiaTx++;   
0A190:  INCF   xA0,F
....................                            else 
0A192:  BRA    A198
....................                               DiaTx=1; 
0A194:  MOVLW  01
0A196:  MOVWF  xA0
....................                         }else{ 
0A198:  BRA    A1A8
....................                            if(DiaTx<30) 
0A19A:  MOVF   xA0,W
0A19C:  SUBLW  1D
0A19E:  BNC   A1A4
....................                               DiaTx++;     
0A1A0:  INCF   xA0,F
....................                            else 
0A1A2:  BRA    A1A8
....................                               DiaTx=1; 
0A1A4:  MOVLW  01
0A1A6:  MOVWF  xA0
....................                         }     
....................                      } 
....................                   } 
....................                }else if(Opcion==2){ 
0A1A8:  BRA    A1FA
0A1AA:  MOVF   x61,W
0A1AC:  SUBLW  02
0A1AE:  BNZ   A1C0
....................                   if(MesTx<12) 
0A1B0:  MOVF   x9F,W
0A1B2:  SUBLW  0B
0A1B4:  BNC   A1BA
....................                      MesTx++; 
0A1B6:  INCF   x9F,F
....................                   else 
0A1B8:  BRA    A1BE
....................                      MesTx=1; 
0A1BA:  MOVLW  01
0A1BC:  MOVWF  x9F
....................                }else if(Opcion==3){ 
0A1BE:  BRA    A1FA
0A1C0:  MOVF   x61,W
0A1C2:  SUBLW  03
0A1C4:  BNZ   A1D4
....................                   if(YearTx<99) 
0A1C6:  MOVF   x9E,W
0A1C8:  SUBLW  62
0A1CA:  BNC   A1D0
....................                      YearTx++; 
0A1CC:  INCF   x9E,F
....................                   else  
0A1CE:  BRA    A1D2
....................                      YearTx=0; 
0A1D0:  CLRF   x9E
....................                }else if(Opcion==4){ 
0A1D2:  BRA    A1FA
0A1D4:  MOVF   x61,W
0A1D6:  SUBLW  04
0A1D8:  BNZ   A1E8
....................                   if(HoraTx<24) 
0A1DA:  MOVF   xA1,W
0A1DC:  SUBLW  17
0A1DE:  BNC   A1E4
....................                      HoraTx++; 
0A1E0:  INCF   xA1,F
....................                   else 
0A1E2:  BRA    A1E6
....................                      HoraTx=0; 
0A1E4:  CLRF   xA1
....................                }else if(Opcion==5){ 
0A1E6:  BRA    A1FA
0A1E8:  MOVF   x61,W
0A1EA:  SUBLW  05
0A1EC:  BNZ   A1FA
....................                   if(MinutoTx<59) 
0A1EE:  MOVF   xA2,W
0A1F0:  SUBLW  3A
0A1F2:  BNC   A1F8
....................                      MinutoTx++; 
0A1F4:  INCF   xA2,F
....................                   else 
0A1F6:  BRA    A1FA
....................                      MinutoTx=0; 
0A1F8:  CLRF   xA2
....................                } 
....................                RX_Buffer[4]=0x00; 
0A1FA:  CLRF   34
....................                RX_Buffer2[4]=0x00; 
0A1FC:  CLRF   3F
....................          } 
....................           
....................          if(RX_Buffer[4]==0x2b){//Tecla Abajo Oprimida  
0A1FE:  MOVF   34,W
0A200:  SUBLW  2B
0A202:  BNZ   A264
....................                if(Opcion==1){ 
0A204:  DECFSZ x61,W
0A206:  BRA    A210
....................                   if(DiaTx>0) 
0A208:  MOVF   xA0,F
0A20A:  BZ    A20E
....................                      DiaTx--; 
0A20C:  DECF   xA0,F
....................                }else if(Opcion==2){ 
0A20E:  BRA    A260
0A210:  MOVF   x61,W
0A212:  SUBLW  02
0A214:  BNZ   A226
....................                   if(MesTx>1) 
0A216:  MOVF   x9F,W
0A218:  SUBLW  01
0A21A:  BC    A220
....................                      MesTx--; 
0A21C:  DECF   x9F,F
....................                   else 
0A21E:  BRA    A224
....................                      MesTx=12; 
0A220:  MOVLW  0C
0A222:  MOVWF  x9F
....................                }else if(Opcion==3){ 
0A224:  BRA    A260
0A226:  MOVF   x61,W
0A228:  SUBLW  03
0A22A:  BNZ   A23A
....................                   if(YearTx>0) 
0A22C:  MOVF   x9E,F
0A22E:  BZ    A234
....................                      YearTx--; 
0A230:  DECF   x9E,F
....................                   else 
0A232:  BRA    A238
....................                      YearTx=99; 
0A234:  MOVLW  63
0A236:  MOVWF  x9E
....................                }else if(Opcion==4){ 
0A238:  BRA    A260
0A23A:  MOVF   x61,W
0A23C:  SUBLW  04
0A23E:  BNZ   A24E
....................                   if(HoraTx>0) 
0A240:  MOVF   xA1,F
0A242:  BZ    A248
....................                      HoraTx--; 
0A244:  DECF   xA1,F
....................                   else 
0A246:  BRA    A24C
....................                      HoraTx=23; 
0A248:  MOVLW  17
0A24A:  MOVWF  xA1
....................                }else if(Opcion==5){ 
0A24C:  BRA    A260
0A24E:  MOVF   x61,W
0A250:  SUBLW  05
0A252:  BNZ   A260
....................                   if(MinutoTx>0) 
0A254:  MOVF   xA2,F
0A256:  BZ    A25C
....................                      MinutoTx--; 
0A258:  DECF   xA2,F
....................                   else 
0A25A:  BRA    A260
....................                      MinutoTx=59; 
0A25C:  MOVLW  3B
0A25E:  MOVWF  xA2
....................                } 
....................                RX_Buffer[4]=0x00; 
0A260:  CLRF   34
....................                RX_Buffer2[4]=0x00; 
0A262:  CLRF   3F
....................                //BorraBuffer(); 
....................          } 
....................        
....................       printf("thora.txt=\"%02u\"",HoraTx); 
0A264:  MOVLW  66
0A266:  MOVWF  FF6
0A268:  MOVLW  0E
0A26A:  MOVWF  FF7
0A26C:  MOVLW  00
0A26E:  MOVWF  FF8
0A270:  MOVLW  0B
0A272:  MOVLB  6
0A274:  MOVWF  xAD
0A276:  MOVLB  0
0A278:  CALL   5A32
0A27C:  MOVFF  2A1,6AD
0A280:  MOVLW  01
0A282:  MOVLB  6
0A284:  MOVWF  xAE
0A286:  MOVLB  0
0A288:  CALL   5AB6
0A28C:  MOVLW  22
0A28E:  BTFSS  F9E.4
0A290:  BRA    A28E
0A292:  MOVWF  FAD
....................       SendDataDisplay(); 
0A294:  CALL   4024
....................       printf("tminutos.txt=\"%02u\"",MinutoTx); 
0A298:  MOVLW  78
0A29A:  MOVWF  FF6
0A29C:  MOVLW  0E
0A29E:  MOVWF  FF7
0A2A0:  MOVLW  00
0A2A2:  MOVWF  FF8
0A2A4:  MOVLW  0E
0A2A6:  MOVLB  6
0A2A8:  MOVWF  xAD
0A2AA:  MOVLB  0
0A2AC:  CALL   5A32
0A2B0:  MOVFF  2A2,6AD
0A2B4:  MOVLW  01
0A2B6:  MOVLB  6
0A2B8:  MOVWF  xAE
0A2BA:  MOVLB  0
0A2BC:  CALL   5AB6
0A2C0:  MOVLW  22
0A2C2:  BTFSS  F9E.4
0A2C4:  BRA    A2C2
0A2C6:  MOVWF  FAD
....................       SendDataDisplay(); 
0A2C8:  CALL   4024
....................       printf("tdia.txt=\"%02u\"",DiaTx); 
0A2CC:  MOVLW  8C
0A2CE:  MOVWF  FF6
0A2D0:  MOVLW  0E
0A2D2:  MOVWF  FF7
0A2D4:  MOVLW  00
0A2D6:  MOVWF  FF8
0A2D8:  MOVLW  0A
0A2DA:  MOVLB  6
0A2DC:  MOVWF  xAD
0A2DE:  MOVLB  0
0A2E0:  CALL   5A32
0A2E4:  MOVFF  2A0,6AD
0A2E8:  MOVLW  01
0A2EA:  MOVLB  6
0A2EC:  MOVWF  xAE
0A2EE:  MOVLB  0
0A2F0:  CALL   5AB6
0A2F4:  MOVLW  22
0A2F6:  BTFSS  F9E.4
0A2F8:  BRA    A2F6
0A2FA:  MOVWF  FAD
....................       SendDataDisplay(); 
0A2FC:  CALL   4024
....................       printf("tmes.txt=\"%02u\"",MesTx); 
0A300:  MOVLW  9C
0A302:  MOVWF  FF6
0A304:  MOVLW  0E
0A306:  MOVWF  FF7
0A308:  MOVLW  00
0A30A:  MOVWF  FF8
0A30C:  MOVLW  0A
0A30E:  MOVLB  6
0A310:  MOVWF  xAD
0A312:  MOVLB  0
0A314:  CALL   5A32
0A318:  MOVFF  29F,6AD
0A31C:  MOVLW  01
0A31E:  MOVLB  6
0A320:  MOVWF  xAE
0A322:  MOVLB  0
0A324:  CALL   5AB6
0A328:  MOVLW  22
0A32A:  BTFSS  F9E.4
0A32C:  BRA    A32A
0A32E:  MOVWF  FAD
....................       SendDataDisplay(); 
0A330:  CALL   4024
....................       printf("tyear.txt=\"%02u\"",YearTx); 
0A334:  MOVLW  AC
0A336:  MOVWF  FF6
0A338:  MOVLW  0E
0A33A:  MOVWF  FF7
0A33C:  MOVLW  00
0A33E:  MOVWF  FF8
0A340:  MOVLW  0B
0A342:  MOVLB  6
0A344:  MOVWF  xAD
0A346:  MOVLB  0
0A348:  CALL   5A32
0A34C:  MOVFF  29E,6AD
0A350:  MOVLW  01
0A352:  MOVLB  6
0A354:  MOVWF  xAE
0A356:  MOVLB  0
0A358:  CALL   5AB6
0A35C:  MOVLW  22
0A35E:  BTFSS  F9E.4
0A360:  BRA    A35E
0A362:  MOVWF  FAD
....................       SendDataDisplay(); 
0A364:  CALL   4024
....................       LimitaDia();   
0A368:  GOTO   6044
....................     }else if(Menu==8){ //Menu Ciclos Personalizados 
0A36C:  GOTO   EDD6
0A370:  MOVLB  2
0A372:  MOVF   x52,W
0A374:  SUBLW  08
0A376:  BTFSS  FD8.2
0A378:  GOTO   AF2E
....................       printf("fecha.txt=\"Fecha:%02u/%02u/20%02u    Hora: %02u:%02u:%02u\"",Dia,Mes,Year,Hora,Minuto,Segundo); 
0A37C:  MOVLW  BE
0A37E:  MOVWF  FF6
0A380:  MOVLW  0E
0A382:  MOVWF  FF7
0A384:  MOVLW  00
0A386:  MOVWF  FF8
0A388:  MOVLW  11
0A38A:  MOVLB  6
0A38C:  MOVWF  xAD
0A38E:  MOVLB  0
0A390:  CALL   5A32
0A394:  MOVFF  293,6AD
0A398:  MOVLW  01
0A39A:  MOVLB  6
0A39C:  MOVWF  xAE
0A39E:  MOVLB  0
0A3A0:  CALL   5AB6
0A3A4:  MOVLW  2F
0A3A6:  BTFSS  F9E.4
0A3A8:  BRA    A3A6
0A3AA:  MOVWF  FAD
0A3AC:  MOVFF  292,6AD
0A3B0:  MOVLW  01
0A3B2:  MOVLB  6
0A3B4:  MOVWF  xAE
0A3B6:  MOVLB  0
0A3B8:  CALL   5AB6
0A3BC:  MOVLW  2F
0A3BE:  BTFSS  F9E.4
0A3C0:  BRA    A3BE
0A3C2:  MOVWF  FAD
0A3C4:  MOVLW  32
0A3C6:  BTFSS  F9E.4
0A3C8:  BRA    A3C6
0A3CA:  MOVWF  FAD
0A3CC:  MOVLW  30
0A3CE:  BTFSS  F9E.4
0A3D0:  BRA    A3CE
0A3D2:  MOVWF  FAD
0A3D4:  MOVFF  291,6AD
0A3D8:  MOVLW  01
0A3DA:  MOVLB  6
0A3DC:  MOVWF  xAE
0A3DE:  MOVLB  0
0A3E0:  CALL   5AB6
0A3E4:  MOVLW  DF
0A3E6:  MOVWF  FF6
0A3E8:  MOVLW  0E
0A3EA:  MOVWF  FF7
0A3EC:  MOVLW  00
0A3EE:  MOVWF  FF8
0A3F0:  MOVLW  0A
0A3F2:  MOVLB  6
0A3F4:  MOVWF  xAD
0A3F6:  MOVLB  0
0A3F8:  CALL   5A32
0A3FC:  MOVFF  294,6AD
0A400:  MOVLW  01
0A402:  MOVLB  6
0A404:  MOVWF  xAE
0A406:  MOVLB  0
0A408:  CALL   5AB6
0A40C:  MOVLW  3A
0A40E:  BTFSS  F9E.4
0A410:  BRA    A40E
0A412:  MOVWF  FAD
0A414:  MOVFF  295,6AD
0A418:  MOVLW  01
0A41A:  MOVLB  6
0A41C:  MOVWF  xAE
0A41E:  MOVLB  0
0A420:  CALL   5AB6
0A424:  MOVLW  3A
0A426:  BTFSS  F9E.4
0A428:  BRA    A426
0A42A:  MOVWF  FAD
0A42C:  MOVFF  296,6AD
0A430:  MOVLW  01
0A432:  MOVLB  6
0A434:  MOVWF  xAE
0A436:  MOVLB  0
0A438:  CALL   5AB6
0A43C:  MOVLW  22
0A43E:  BTFSS  F9E.4
0A440:  BRA    A43E
0A442:  MOVWF  FAD
....................       SendDataDisplay(); 
0A444:  CALL   4024
....................       GuardaEEPROM=OFF; 
0A448:  MOVLB  1
0A44A:  BCF    x04.3
....................       printf("tuser.txt=\"%s\"",usuario); 
0A44C:  MOVLW  FA
0A44E:  MOVWF  FF6
0A450:  MOVLW  0E
0A452:  MOVWF  FF7
0A454:  MOVLW  00
0A456:  MOVWF  FF8
0A458:  MOVLW  0B
0A45A:  MOVLB  6
0A45C:  MOVWF  xAD
0A45E:  MOVLB  0
0A460:  CALL   5A32
0A464:  MOVLW  02
0A466:  MOVWF  FEA
0A468:  MOVLW  AE
0A46A:  MOVWF  FE9
0A46C:  CALL   5A64
0A470:  MOVLW  22
0A472:  BTFSS  F9E.4
0A474:  BRA    A472
0A476:  MOVWF  FAD
....................       SendDataDisplay(); 
0A478:  CALL   4024
....................        
....................       if(RX_Buffer[4]>0x00 && RX_Buffer[4]<0x15 && estados[RX_Buffer[4]-1]){//Personalizados 
0A47C:  MOVF   34,F
0A47E:  BTFSC  FD8.2
0A480:  BRA    A748
0A482:  MOVF   34,W
0A484:  SUBLW  14
0A486:  BTFSS  FD8.0
0A488:  BRA    A748
0A48A:  MOVLW  01
0A48C:  SUBWF  34,W
0A48E:  MOVLB  6
0A490:  MOVWF  xA9
0A492:  MOVLW  03
0A494:  MOVWF  xAB
0A496:  MOVLW  14
0A498:  MOVWF  xAA
0A49A:  MOVLB  0
0A49C:  CALL   23B0
0A4A0:  BTFSS  01.0
0A4A2:  BRA    A748
....................          printf("ciclo.txt=\"CICLO P%02u\"",RX_Buffer[4]+0x0a); 
0A4A4:  MOVLW  0A
0A4A6:  ADDWF  34,W
0A4A8:  MOVLB  6
0A4AA:  MOVWF  xA8
0A4AC:  MOVLW  0A
0A4AE:  MOVWF  FF6
0A4B0:  MOVLW  0F
0A4B2:  MOVWF  FF7
0A4B4:  MOVLW  00
0A4B6:  MOVWF  FF8
0A4B8:  MOVLW  12
0A4BA:  MOVWF  xAD
0A4BC:  MOVLB  0
0A4BE:  CALL   5A32
0A4C2:  MOVFF  6A8,6AD
0A4C6:  MOVLW  01
0A4C8:  MOVLB  6
0A4CA:  MOVWF  xAE
0A4CC:  MOVLB  0
0A4CE:  CALL   5AB6
0A4D2:  MOVLW  22
0A4D4:  BTFSS  F9E.4
0A4D6:  BRA    A4D4
0A4D8:  MOVWF  FAD
....................          SendDataDisplay();           
0A4DA:  CALL   4024
....................          printf("temp.txt=\"%u\"",CiclosPersonalizados[RX_Buffer[4]-1].Temperatura); 
0A4DE:  MOVLW  01
0A4E0:  SUBWF  34,W
0A4E2:  MULLW  08
0A4E4:  MOVF   FF3,W
0A4E6:  MOVLB  6
0A4E8:  CLRF   xA9
0A4EA:  MOVWF  xA8
0A4EC:  MOVLW  E0
0A4EE:  ADDWF  xA8,W
0A4F0:  MOVWF  FE9
0A4F2:  MOVLW  05
0A4F4:  ADDWFC xA9,W
0A4F6:  MOVWF  FEA
0A4F8:  MOVFF  FEF,6A8
0A4FC:  MOVLW  22
0A4FE:  MOVWF  FF6
0A500:  MOVLW  0F
0A502:  MOVWF  FF7
0A504:  MOVLW  00
0A506:  MOVWF  FF8
0A508:  MOVLW  0A
0A50A:  MOVWF  xAD
0A50C:  MOVLB  0
0A50E:  CALL   5A32
0A512:  MOVFF  6A8,6AD
0A516:  MOVLW  1B
0A518:  MOVLB  6
0A51A:  MOVWF  xAE
0A51C:  MOVLB  0
0A51E:  CALL   5AB6
0A522:  MOVLW  22
0A524:  BTFSS  F9E.4
0A526:  BRA    A524
0A528:  MOVWF  FAD
....................          SendDataDisplay(); 
0A52A:  CALL   4024
....................          printf("test.txt=\"%02u:%02u\"",CiclosPersonalizados[RX_Buffer[4]-1].Minutoest,CiclosPersonalizados[RX_Buffer[4]-1].Segundoest); 
0A52E:  MOVLW  01
0A530:  SUBWF  34,W
0A532:  MULLW  08
0A534:  MOVF   FF3,W
0A536:  MOVLB  6
0A538:  CLRF   xA9
0A53A:  MOVWF  xA8
0A53C:  MOVLW  01
0A53E:  ADDWF  xA8,W
0A540:  MOVWF  01
0A542:  MOVLW  00
0A544:  ADDWFC xA9,W
0A546:  MOVWF  03
0A548:  MOVF   01,W
0A54A:  ADDLW  E0
0A54C:  MOVWF  FE9
0A54E:  MOVLW  05
0A550:  ADDWFC 03,W
0A552:  MOVWF  FEA
0A554:  MOVFF  FEF,6A8
0A558:  MOVLW  01
0A55A:  SUBWF  34,W
0A55C:  MULLW  08
0A55E:  MOVF   FF3,W
0A560:  CLRF   xAA
0A562:  MOVWF  xA9
0A564:  MOVLW  02
0A566:  ADDWF  xA9,W
0A568:  MOVWF  01
0A56A:  MOVLW  00
0A56C:  ADDWFC xAA,W
0A56E:  MOVWF  03
0A570:  MOVF   01,W
0A572:  ADDLW  E0
0A574:  MOVWF  FE9
0A576:  MOVLW  05
0A578:  ADDWFC 03,W
0A57A:  MOVWF  FEA
0A57C:  MOVFF  FEF,6A9
0A580:  MOVLW  30
0A582:  MOVWF  FF6
0A584:  MOVLW  0F
0A586:  MOVWF  FF7
0A588:  MOVLW  00
0A58A:  MOVWF  FF8
0A58C:  MOVLW  0A
0A58E:  MOVWF  xAD
0A590:  MOVLB  0
0A592:  CALL   5A32
0A596:  MOVFF  6A8,6AD
0A59A:  MOVLW  01
0A59C:  MOVLB  6
0A59E:  MOVWF  xAE
0A5A0:  MOVLB  0
0A5A2:  CALL   5AB6
0A5A6:  MOVLW  3A
0A5A8:  BTFSS  F9E.4
0A5AA:  BRA    A5A8
0A5AC:  MOVWF  FAD
0A5AE:  MOVFF  6A9,6AD
0A5B2:  MOVLW  01
0A5B4:  MOVLB  6
0A5B6:  MOVWF  xAE
0A5B8:  MOVLB  0
0A5BA:  CALL   5AB6
0A5BE:  MOVLW  22
0A5C0:  BTFSS  F9E.4
0A5C2:  BRA    A5C0
0A5C4:  MOVWF  FAD
....................          SendDataDisplay(); 
0A5C6:  CALL   4024
....................          printf("tsec.txt=\"%02u:%02u\"",CiclosPersonalizados[RX_Buffer[4]-1].Minutosec,CiclosPersonalizados[RX_Buffer[4]-1].Segundosec); 
0A5CA:  MOVLW  01
0A5CC:  SUBWF  34,W
0A5CE:  MULLW  08
0A5D0:  MOVF   FF3,W
0A5D2:  MOVLB  6
0A5D4:  CLRF   xA9
0A5D6:  MOVWF  xA8
0A5D8:  MOVLW  03
0A5DA:  ADDWF  xA8,W
0A5DC:  MOVWF  01
0A5DE:  MOVLW  00
0A5E0:  ADDWFC xA9,W
0A5E2:  MOVWF  03
0A5E4:  MOVF   01,W
0A5E6:  ADDLW  E0
0A5E8:  MOVWF  FE9
0A5EA:  MOVLW  05
0A5EC:  ADDWFC 03,W
0A5EE:  MOVWF  FEA
0A5F0:  MOVFF  FEF,6A8
0A5F4:  MOVLW  01
0A5F6:  SUBWF  34,W
0A5F8:  MULLW  08
0A5FA:  MOVF   FF3,W
0A5FC:  CLRF   xAA
0A5FE:  MOVWF  xA9
0A600:  MOVLW  04
0A602:  ADDWF  xA9,W
0A604:  MOVWF  01
0A606:  MOVLW  00
0A608:  ADDWFC xAA,W
0A60A:  MOVWF  03
0A60C:  MOVF   01,W
0A60E:  ADDLW  E0
0A610:  MOVWF  FE9
0A612:  MOVLW  05
0A614:  ADDWFC 03,W
0A616:  MOVWF  FEA
0A618:  MOVFF  FEF,6A9
0A61C:  MOVLW  46
0A61E:  MOVWF  FF6
0A620:  MOVLW  0F
0A622:  MOVWF  FF7
0A624:  MOVLW  00
0A626:  MOVWF  FF8
0A628:  MOVLW  0A
0A62A:  MOVWF  xAD
0A62C:  MOVLB  0
0A62E:  CALL   5A32
0A632:  MOVFF  6A8,6AD
0A636:  MOVLW  01
0A638:  MOVLB  6
0A63A:  MOVWF  xAE
0A63C:  MOVLB  0
0A63E:  CALL   5AB6
0A642:  MOVLW  3A
0A644:  BTFSS  F9E.4
0A646:  BRA    A644
0A648:  MOVWF  FAD
0A64A:  MOVFF  6A9,6AD
0A64E:  MOVLW  01
0A650:  MOVLB  6
0A652:  MOVWF  xAE
0A654:  MOVLB  0
0A656:  CALL   5AB6
0A65A:  MOVLW  22
0A65C:  BTFSS  F9E.4
0A65E:  BRA    A65C
0A660:  MOVWF  FAD
....................          SendDataDisplay(); 
0A662:  CALL   4024
....................          printf("pulsos.txt=\"%02u\"",CiclosPersonalizados[RX_Buffer[4]-1].PulsosVacio); 
0A666:  MOVLW  01
0A668:  SUBWF  34,W
0A66A:  MULLW  08
0A66C:  MOVF   FF3,W
0A66E:  MOVLB  6
0A670:  CLRF   xA9
0A672:  MOVWF  xA8
0A674:  MOVLW  05
0A676:  ADDWF  xA8,W
0A678:  MOVWF  01
0A67A:  MOVLW  00
0A67C:  ADDWFC xA9,W
0A67E:  MOVWF  03
0A680:  MOVF   01,W
0A682:  ADDLW  E0
0A684:  MOVWF  FE9
0A686:  MOVLW  05
0A688:  ADDWFC 03,W
0A68A:  MOVWF  FEA
0A68C:  MOVFF  FEF,6A8
0A690:  MOVLW  5C
0A692:  MOVWF  FF6
0A694:  MOVLW  0F
0A696:  MOVWF  FF7
0A698:  MOVLW  00
0A69A:  MOVWF  FF8
0A69C:  MOVLW  0C
0A69E:  MOVWF  xAD
0A6A0:  MOVLB  0
0A6A2:  CALL   5A32
0A6A6:  MOVFF  6A8,6AD
0A6AA:  MOVLW  01
0A6AC:  MOVLB  6
0A6AE:  MOVWF  xAE
0A6B0:  MOVLB  0
0A6B2:  CALL   5AB6
0A6B6:  MOVLW  22
0A6B8:  BTFSS  F9E.4
0A6BA:  BRA    A6B8
0A6BC:  MOVWF  FAD
....................          SendDataDisplay(); 
0A6BE:  CALL   4024
....................          printf("vacio.txt=\"%03u kPa\"",CiclosPersonalizados[RX_Buffer[4]-1].NivelVacio); 
0A6C2:  MOVLW  01
0A6C4:  SUBWF  34,W
0A6C6:  MULLW  08
0A6C8:  MOVF   FF3,W
0A6CA:  MOVLB  6
0A6CC:  CLRF   xA9
0A6CE:  MOVWF  xA8
0A6D0:  MOVLW  06
0A6D2:  ADDWF  xA8,W
0A6D4:  MOVWF  01
0A6D6:  MOVLW  00
0A6D8:  ADDWFC xA9,W
0A6DA:  MOVWF  03
0A6DC:  MOVF   01,W
0A6DE:  ADDLW  E0
0A6E0:  MOVWF  FE9
0A6E2:  MOVLW  05
0A6E4:  ADDWFC 03,W
0A6E6:  MOVWF  FEA
0A6E8:  MOVFF  FEF,6A8
0A6EC:  MOVLW  6E
0A6EE:  MOVWF  FF6
0A6F0:  MOVLW  0F
0A6F2:  MOVWF  FF7
0A6F4:  MOVLW  00
0A6F6:  MOVWF  FF8
0A6F8:  MOVLW  0B
0A6FA:  MOVWF  xAD
0A6FC:  MOVLB  0
0A6FE:  CALL   5A32
0A702:  MOVFF  6A8,6AD
0A706:  MOVLW  03
0A708:  MOVLB  6
0A70A:  MOVWF  xAE
0A70C:  MOVLB  0
0A70E:  CALL   5AB6
0A712:  MOVLW  7D
0A714:  MOVWF  FF6
0A716:  MOVLW  0F
0A718:  MOVWF  FF7
0A71A:  MOVLW  00
0A71C:  MOVWF  FF8
0A71E:  MOVLW  05
0A720:  MOVLB  6
0A722:  MOVWF  xAD
0A724:  MOVLB  0
0A726:  CALL   5A32
....................          SendDataDisplay(); 
0A72A:  CALL   4024
....................          //printf("desfogue.txt=\"%u\"",CiclosPersonalizados[RX_Buffer[4]-1].NivelDesfogue); 
....................          printf("desfogue.txt=\"N/A\""); 
0A72E:  MOVLW  84
0A730:  MOVWF  FF6
0A732:  MOVLW  0F
0A734:  MOVWF  FF7
0A736:  MOVLW  00
0A738:  MOVWF  FF8
0A73A:  CALL   3FF2
....................          SendDataDisplay(); 
0A73E:  CALL   4024
....................          CicloLibre=RX_Buffer[4]; 
0A742:  MOVFF  34,247
....................       }else if(CicloLibre==0x00){ 
0A746:  BRA    AABE
0A748:  MOVLB  2
0A74A:  MOVF   x47,F
0A74C:  BNZ   A7E0
....................          printf("ciclo.txt=\"CICLO P--\""); 
0A74E:  MOVLW  98
0A750:  MOVWF  FF6
0A752:  MOVLW  0F
0A754:  MOVWF  FF7
0A756:  MOVLW  00
0A758:  MOVWF  FF8
0A75A:  MOVLB  0
0A75C:  CALL   3FF2
....................          SendDataDisplay();           
0A760:  CALL   4024
....................          printf("temp.txt=\"--\""); 
0A764:  MOVLW  AE
0A766:  MOVWF  FF6
0A768:  MOVLW  0F
0A76A:  MOVWF  FF7
0A76C:  MOVLW  00
0A76E:  MOVWF  FF8
0A770:  CALL   3FF2
....................          SendDataDisplay(); 
0A774:  CALL   4024
....................          printf("test.txt=\"--:--\""); 
0A778:  MOVLW  BC
0A77A:  MOVWF  FF6
0A77C:  MOVLW  0F
0A77E:  MOVWF  FF7
0A780:  MOVLW  00
0A782:  MOVWF  FF8
0A784:  CALL   3FF2
....................          SendDataDisplay(); 
0A788:  CALL   4024
....................          printf("tsec.txt=\"--:--\""); 
0A78C:  MOVLW  CE
0A78E:  MOVWF  FF6
0A790:  MOVLW  0F
0A792:  MOVWF  FF7
0A794:  MOVLW  00
0A796:  MOVWF  FF8
0A798:  CALL   3FF2
....................          SendDataDisplay(); 
0A79C:  CALL   4024
....................          printf("pulsos.txt=\"--\""); 
0A7A0:  MOVLW  E0
0A7A2:  MOVWF  FF6
0A7A4:  MOVLW  0F
0A7A6:  MOVWF  FF7
0A7A8:  MOVLW  00
0A7AA:  MOVWF  FF8
0A7AC:  CALL   3FF2
....................          SendDataDisplay(); 
0A7B0:  CALL   4024
....................          printf("vacio.txt=\"--\""); 
0A7B4:  MOVLW  F0
0A7B6:  MOVWF  FF6
0A7B8:  MOVLW  0F
0A7BA:  MOVWF  FF7
0A7BC:  MOVLW  00
0A7BE:  MOVWF  FF8
0A7C0:  CALL   3FF2
....................          SendDataDisplay(); 
0A7C4:  CALL   4024
....................          printf("desfogue.txt=\"--\""); 
0A7C8:  MOVLW  00
0A7CA:  MOVWF  FF6
0A7CC:  MOVLW  10
0A7CE:  MOVWF  FF7
0A7D0:  MOVLW  00
0A7D2:  MOVWF  FF8
0A7D4:  CALL   3FF2
....................          SendDataDisplay(); 
0A7D8:  CALL   4024
....................       }else if(CicloLibre>0 && CicloLibre<21 && estados[CicloLibre-1]){ 
0A7DC:  BRA    AABE
0A7DE:  MOVLB  2
0A7E0:  MOVF   x47,F
0A7E2:  BTFSC  FD8.2
0A7E4:  BRA    AAC0
0A7E6:  MOVF   x47,W
0A7E8:  SUBLW  14
0A7EA:  BTFSS  FD8.0
0A7EC:  BRA    AAC0
0A7EE:  MOVLW  01
0A7F0:  SUBWF  x47,W
0A7F2:  MOVLB  6
0A7F4:  MOVWF  xA9
0A7F6:  MOVLW  03
0A7F8:  MOVWF  xAB
0A7FA:  MOVLW  14
0A7FC:  MOVWF  xAA
0A7FE:  MOVLB  0
0A800:  CALL   23B0
0A804:  BTFSC  01.0
0A806:  BRA    A80C
0A808:  MOVLB  2
0A80A:  BRA    AAC0
....................          printf("ciclo.txt=\"CICLO P%02u\"",CicloLibre+0x0a); 
0A80C:  MOVLW  0A
0A80E:  MOVLB  2
0A810:  ADDWF  x47,W
0A812:  MOVLB  6
0A814:  MOVWF  xA8
0A816:  MOVLW  12
0A818:  MOVWF  FF6
0A81A:  MOVLW  10
0A81C:  MOVWF  FF7
0A81E:  MOVLW  00
0A820:  MOVWF  FF8
0A822:  MOVLW  12
0A824:  MOVWF  xAD
0A826:  MOVLB  0
0A828:  CALL   5A32
0A82C:  MOVFF  6A8,6AD
0A830:  MOVLW  01
0A832:  MOVLB  6
0A834:  MOVWF  xAE
0A836:  MOVLB  0
0A838:  CALL   5AB6
0A83C:  MOVLW  22
0A83E:  BTFSS  F9E.4
0A840:  BRA    A83E
0A842:  MOVWF  FAD
....................          SendDataDisplay();           
0A844:  CALL   4024
....................          printf("temp.txt=\"%u\"",CiclosPersonalizados[CicloLibre-1].Temperatura); 
0A848:  MOVLW  01
0A84A:  MOVLB  2
0A84C:  SUBWF  x47,W
0A84E:  MULLW  08
0A850:  MOVF   FF3,W
0A852:  MOVLB  6
0A854:  CLRF   xA9
0A856:  MOVWF  xA8
0A858:  MOVLW  E0
0A85A:  ADDWF  xA8,W
0A85C:  MOVWF  FE9
0A85E:  MOVLW  05
0A860:  ADDWFC xA9,W
0A862:  MOVWF  FEA
0A864:  MOVFF  FEF,6A8
0A868:  MOVLW  2A
0A86A:  MOVWF  FF6
0A86C:  MOVLW  10
0A86E:  MOVWF  FF7
0A870:  MOVLW  00
0A872:  MOVWF  FF8
0A874:  MOVLW  0A
0A876:  MOVWF  xAD
0A878:  MOVLB  0
0A87A:  CALL   5A32
0A87E:  MOVFF  6A8,6AD
0A882:  MOVLW  1B
0A884:  MOVLB  6
0A886:  MOVWF  xAE
0A888:  MOVLB  0
0A88A:  CALL   5AB6
0A88E:  MOVLW  22
0A890:  BTFSS  F9E.4
0A892:  BRA    A890
0A894:  MOVWF  FAD
....................          SendDataDisplay(); 
0A896:  CALL   4024
....................          printf("test.txt=\"%02u:%02u\"",CiclosPersonalizados[CicloLibre-1].Minutoest,CiclosPersonalizados[CicloLibre-1].Segundoest); 
0A89A:  MOVLW  01
0A89C:  MOVLB  2
0A89E:  SUBWF  x47,W
0A8A0:  MULLW  08
0A8A2:  MOVF   FF3,W
0A8A4:  MOVLB  6
0A8A6:  CLRF   xA9
0A8A8:  MOVWF  xA8
0A8AA:  MOVLW  01
0A8AC:  ADDWF  xA8,W
0A8AE:  MOVWF  01
0A8B0:  MOVLW  00
0A8B2:  ADDWFC xA9,W
0A8B4:  MOVWF  03
0A8B6:  MOVF   01,W
0A8B8:  ADDLW  E0
0A8BA:  MOVWF  FE9
0A8BC:  MOVLW  05
0A8BE:  ADDWFC 03,W
0A8C0:  MOVWF  FEA
0A8C2:  MOVFF  FEF,6A8
0A8C6:  MOVLW  01
0A8C8:  MOVLB  2
0A8CA:  SUBWF  x47,W
0A8CC:  MULLW  08
0A8CE:  MOVF   FF3,W
0A8D0:  MOVLB  6
0A8D2:  CLRF   xAA
0A8D4:  MOVWF  xA9
0A8D6:  MOVLW  02
0A8D8:  ADDWF  xA9,W
0A8DA:  MOVWF  01
0A8DC:  MOVLW  00
0A8DE:  ADDWFC xAA,W
0A8E0:  MOVWF  03
0A8E2:  MOVF   01,W
0A8E4:  ADDLW  E0
0A8E6:  MOVWF  FE9
0A8E8:  MOVLW  05
0A8EA:  ADDWFC 03,W
0A8EC:  MOVWF  FEA
0A8EE:  MOVFF  FEF,6A9
0A8F2:  MOVLW  38
0A8F4:  MOVWF  FF6
0A8F6:  MOVLW  10
0A8F8:  MOVWF  FF7
0A8FA:  MOVLW  00
0A8FC:  MOVWF  FF8
0A8FE:  MOVLW  0A
0A900:  MOVWF  xAD
0A902:  MOVLB  0
0A904:  CALL   5A32
0A908:  MOVFF  6A8,6AD
0A90C:  MOVLW  01
0A90E:  MOVLB  6
0A910:  MOVWF  xAE
0A912:  MOVLB  0
0A914:  CALL   5AB6
0A918:  MOVLW  3A
0A91A:  BTFSS  F9E.4
0A91C:  BRA    A91A
0A91E:  MOVWF  FAD
0A920:  MOVFF  6A9,6AD
0A924:  MOVLW  01
0A926:  MOVLB  6
0A928:  MOVWF  xAE
0A92A:  MOVLB  0
0A92C:  CALL   5AB6
0A930:  MOVLW  22
0A932:  BTFSS  F9E.4
0A934:  BRA    A932
0A936:  MOVWF  FAD
....................          SendDataDisplay(); 
0A938:  CALL   4024
....................          printf("tsec.txt=\"%02u:%02u\"",CiclosPersonalizados[CicloLibre-1].Minutosec,CiclosPersonalizados[CicloLibre-1].Segundosec); 
0A93C:  MOVLW  01
0A93E:  MOVLB  2
0A940:  SUBWF  x47,W
0A942:  MULLW  08
0A944:  MOVF   FF3,W
0A946:  MOVLB  6
0A948:  CLRF   xA9
0A94A:  MOVWF  xA8
0A94C:  MOVLW  03
0A94E:  ADDWF  xA8,W
0A950:  MOVWF  01
0A952:  MOVLW  00
0A954:  ADDWFC xA9,W
0A956:  MOVWF  03
0A958:  MOVF   01,W
0A95A:  ADDLW  E0
0A95C:  MOVWF  FE9
0A95E:  MOVLW  05
0A960:  ADDWFC 03,W
0A962:  MOVWF  FEA
0A964:  MOVFF  FEF,6A8
0A968:  MOVLW  01
0A96A:  MOVLB  2
0A96C:  SUBWF  x47,W
0A96E:  MULLW  08
0A970:  MOVF   FF3,W
0A972:  MOVLB  6
0A974:  CLRF   xAA
0A976:  MOVWF  xA9
0A978:  MOVLW  04
0A97A:  ADDWF  xA9,W
0A97C:  MOVWF  01
0A97E:  MOVLW  00
0A980:  ADDWFC xAA,W
0A982:  MOVWF  03
0A984:  MOVF   01,W
0A986:  ADDLW  E0
0A988:  MOVWF  FE9
0A98A:  MOVLW  05
0A98C:  ADDWFC 03,W
0A98E:  MOVWF  FEA
0A990:  MOVFF  FEF,6A9
0A994:  MOVLW  4E
0A996:  MOVWF  FF6
0A998:  MOVLW  10
0A99A:  MOVWF  FF7
0A99C:  MOVLW  00
0A99E:  MOVWF  FF8
0A9A0:  MOVLW  0A
0A9A2:  MOVWF  xAD
0A9A4:  MOVLB  0
0A9A6:  CALL   5A32
0A9AA:  MOVFF  6A8,6AD
0A9AE:  MOVLW  01
0A9B0:  MOVLB  6
0A9B2:  MOVWF  xAE
0A9B4:  MOVLB  0
0A9B6:  CALL   5AB6
0A9BA:  MOVLW  3A
0A9BC:  BTFSS  F9E.4
0A9BE:  BRA    A9BC
0A9C0:  MOVWF  FAD
0A9C2:  MOVFF  6A9,6AD
0A9C6:  MOVLW  01
0A9C8:  MOVLB  6
0A9CA:  MOVWF  xAE
0A9CC:  MOVLB  0
0A9CE:  CALL   5AB6
0A9D2:  MOVLW  22
0A9D4:  BTFSS  F9E.4
0A9D6:  BRA    A9D4
0A9D8:  MOVWF  FAD
....................          SendDataDisplay(); 
0A9DA:  CALL   4024
....................          printf("pulsos.txt=\"%02u\"",CiclosPersonalizados[CicloLibre-1].PulsosVacio); 
0A9DE:  MOVLW  01
0A9E0:  MOVLB  2
0A9E2:  SUBWF  x47,W
0A9E4:  MULLW  08
0A9E6:  MOVF   FF3,W
0A9E8:  MOVLB  6
0A9EA:  CLRF   xA9
0A9EC:  MOVWF  xA8
0A9EE:  MOVLW  05
0A9F0:  ADDWF  xA8,W
0A9F2:  MOVWF  01
0A9F4:  MOVLW  00
0A9F6:  ADDWFC xA9,W
0A9F8:  MOVWF  03
0A9FA:  MOVF   01,W
0A9FC:  ADDLW  E0
0A9FE:  MOVWF  FE9
0AA00:  MOVLW  05
0AA02:  ADDWFC 03,W
0AA04:  MOVWF  FEA
0AA06:  MOVFF  FEF,6A8
0AA0A:  MOVLW  64
0AA0C:  MOVWF  FF6
0AA0E:  MOVLW  10
0AA10:  MOVWF  FF7
0AA12:  MOVLW  00
0AA14:  MOVWF  FF8
0AA16:  MOVLW  0C
0AA18:  MOVWF  xAD
0AA1A:  MOVLB  0
0AA1C:  CALL   5A32
0AA20:  MOVFF  6A8,6AD
0AA24:  MOVLW  01
0AA26:  MOVLB  6
0AA28:  MOVWF  xAE
0AA2A:  MOVLB  0
0AA2C:  CALL   5AB6
0AA30:  MOVLW  22
0AA32:  BTFSS  F9E.4
0AA34:  BRA    AA32
0AA36:  MOVWF  FAD
....................          SendDataDisplay(); 
0AA38:  CALL   4024
....................          printf("vacio.txt=\"%03u kPa\"",CiclosPersonalizados[CicloLibre-1].NivelVacio); 
0AA3C:  MOVLW  01
0AA3E:  MOVLB  2
0AA40:  SUBWF  x47,W
0AA42:  MULLW  08
0AA44:  MOVF   FF3,W
0AA46:  MOVLB  6
0AA48:  CLRF   xA9
0AA4A:  MOVWF  xA8
0AA4C:  MOVLW  06
0AA4E:  ADDWF  xA8,W
0AA50:  MOVWF  01
0AA52:  MOVLW  00
0AA54:  ADDWFC xA9,W
0AA56:  MOVWF  03
0AA58:  MOVF   01,W
0AA5A:  ADDLW  E0
0AA5C:  MOVWF  FE9
0AA5E:  MOVLW  05
0AA60:  ADDWFC 03,W
0AA62:  MOVWF  FEA
0AA64:  MOVFF  FEF,6A8
0AA68:  MOVLW  76
0AA6A:  MOVWF  FF6
0AA6C:  MOVLW  10
0AA6E:  MOVWF  FF7
0AA70:  MOVLW  00
0AA72:  MOVWF  FF8
0AA74:  MOVLW  0B
0AA76:  MOVWF  xAD
0AA78:  MOVLB  0
0AA7A:  CALL   5A32
0AA7E:  MOVFF  6A8,6AD
0AA82:  MOVLW  03
0AA84:  MOVLB  6
0AA86:  MOVWF  xAE
0AA88:  MOVLB  0
0AA8A:  CALL   5AB6
0AA8E:  MOVLW  85
0AA90:  MOVWF  FF6
0AA92:  MOVLW  10
0AA94:  MOVWF  FF7
0AA96:  MOVLW  00
0AA98:  MOVWF  FF8
0AA9A:  MOVLW  05
0AA9C:  MOVLB  6
0AA9E:  MOVWF  xAD
0AAA0:  MOVLB  0
0AAA2:  CALL   5A32
....................          SendDataDisplay(); 
0AAA6:  CALL   4024
....................          //printf("desfogue.txt=\"%u\"",CiclosPersonalizados[CicloLibre-1].NivelDesfogue); 
....................          printf("desfogue.txt=\"N/A\""); 
0AAAA:  MOVLW  8C
0AAAC:  MOVWF  FF6
0AAAE:  MOVLW  10
0AAB0:  MOVWF  FF7
0AAB2:  MOVLW  00
0AAB4:  MOVWF  FF8
0AAB6:  CALL   3FF2
....................          SendDataDisplay(); 
0AABA:  CALL   4024
0AABE:  MOVLB  2
....................       } 
....................        
....................       if(RX_Buffer[4]==0xa0){//a0, Menu Principal 
0AAC0:  MOVF   34,W
0AAC2:  SUBLW  A0
0AAC4:  BNZ   AADE
....................          printf("page Menu"); 
0AAC6:  MOVLW  A0
0AAC8:  MOVWF  FF6
0AACA:  MOVLW  10
0AACC:  MOVWF  FF7
0AACE:  MOVLW  00
0AAD0:  MOVWF  FF8
0AAD2:  MOVLB  0
0AAD4:  CALL   3FF2
....................          SendDataDisplay();      
0AAD8:  CALL   4024
0AADC:  MOVLB  2
....................       } 
....................        
....................       if(RX_Buffer[4]==0xb0){//b0, Personalizados 
0AADE:  MOVF   34,W
0AAE0:  SUBLW  B0
0AAE2:  BNZ   AAFC
....................          printf("page CicloPersona"); 
0AAE4:  MOVLW  AA
0AAE6:  MOVWF  FF6
0AAE8:  MOVLW  10
0AAEA:  MOVWF  FF7
0AAEC:  MOVLW  00
0AAEE:  MOVWF  FF8
0AAF0:  MOVLB  0
0AAF2:  CALL   3FF2
....................          SendDataDisplay();      
0AAF6:  CALL   4024
0AAFA:  MOVLB  2
....................       } 
....................        
....................       if(RX_Buffer[4]==0xc0){//c0, Configuraciones 
0AAFC:  MOVF   34,W
0AAFE:  SUBLW  C0
0AB00:  BNZ   AB24
....................          if(codigoUsuario==0 || codigoUsuario==9){   
0AB02:  MOVF   xA8,F
0AB04:  BZ    AB0C
0AB06:  MOVF   xA8,W
0AB08:  SUBLW  09
0AB0A:  BNZ   AB24
....................             printf("page Ajustes"); 
0AB0C:  MOVLW  BC
0AB0E:  MOVWF  FF6
0AB10:  MOVLW  10
0AB12:  MOVWF  FF7
0AB14:  MOVLW  00
0AB16:  MOVWF  FF8
0AB18:  MOVLB  0
0AB1A:  CALL   3FF2
....................             SendDataDisplay();      
0AB1E:  CALL   4024
0AB22:  MOVLB  2
....................          } 
....................       } 
....................        
....................       if(RX_Buffer[4]==0x20 && CicloLibre>0){//20, Temperatura 
0AB24:  MOVF   34,W
0AB26:  SUBLW  20
0AB28:  BNZ   AB70
0AB2A:  MOVF   x47,F
0AB2C:  BZ    AB70
....................          if(codigoUsuario==0 || codigoUsuario==9){   
0AB2E:  MOVF   xA8,F
0AB30:  BZ    AB38
0AB32:  MOVF   xA8,W
0AB34:  SUBLW  09
0AB36:  BNZ   AB70
....................             printf("page Temperatura"); 
0AB38:  MOVLW  CA
0AB3A:  MOVWF  FF6
0AB3C:  MOVLW  10
0AB3E:  MOVWF  FF7
0AB40:  MOVLW  00
0AB42:  MOVWF  FF8
0AB44:  MOVLB  0
0AB46:  CALL   3FF2
....................             SendDataDisplay();      
0AB4A:  CALL   4024
....................             Setpoint=CiclosPersonalizados[CicloLibre-1].Temperatura; 
0AB4E:  MOVLW  01
0AB50:  MOVLB  2
0AB52:  SUBWF  x47,W
0AB54:  MULLW  08
0AB56:  MOVF   FF3,W
0AB58:  MOVLB  6
0AB5A:  CLRF   xA9
0AB5C:  MOVWF  xA8
0AB5E:  MOVLW  E0
0AB60:  ADDWF  xA8,W
0AB62:  MOVWF  FE9
0AB64:  MOVLW  05
0AB66:  ADDWFC xA9,W
0AB68:  MOVWF  FEA
0AB6A:  MOVFF  FEF,260
0AB6E:  MOVLB  2
....................          } 
....................       } 
....................        
....................       if(RX_Buffer[4]==0x30 && CicloLibre>0){//30, Test 
0AB70:  MOVF   34,W
0AB72:  SUBLW  30
0AB74:  BNZ   ABF8
0AB76:  MOVF   x47,F
0AB78:  BZ    ABF8
....................          if(codigoUsuario==0 || codigoUsuario==9){   
0AB7A:  MOVF   xA8,F
0AB7C:  BZ    AB84
0AB7E:  MOVF   xA8,W
0AB80:  SUBLW  09
0AB82:  BNZ   ABF8
....................             printf("page TiempoEst"); 
0AB84:  MOVLW  DC
0AB86:  MOVWF  FF6
0AB88:  MOVLW  10
0AB8A:  MOVWF  FF7
0AB8C:  MOVLW  00
0AB8E:  MOVWF  FF8
0AB90:  MOVLB  0
0AB92:  CALL   3FF2
....................             SendDataDisplay();      
0AB96:  CALL   4024
....................             mEstp=CiclosPersonalizados[CicloLibre-1].Minutoest; 
0AB9A:  MOVLW  01
0AB9C:  MOVLB  2
0AB9E:  SUBWF  x47,W
0ABA0:  MULLW  08
0ABA2:  MOVF   FF3,W
0ABA4:  MOVLB  6
0ABA6:  CLRF   xA9
0ABA8:  MOVWF  xA8
0ABAA:  MOVLW  01
0ABAC:  ADDWF  xA8,W
0ABAE:  MOVWF  01
0ABB0:  MOVLW  00
0ABB2:  ADDWFC xA9,W
0ABB4:  MOVWF  03
0ABB6:  MOVF   01,W
0ABB8:  ADDLW  E0
0ABBA:  MOVWF  FE9
0ABBC:  MOVLW  05
0ABBE:  ADDWFC 03,W
0ABC0:  MOVWF  FEA
0ABC2:  MOVFF  FEF,11C
0ABC6:  MOVLB  1
....................             sEstp=CiclosPersonalizados[CicloLibre-1].Segundoest; 
0ABC8:  MOVLW  01
0ABCA:  MOVLB  2
0ABCC:  SUBWF  x47,W
0ABCE:  MULLW  08
0ABD0:  MOVF   FF3,W
0ABD2:  MOVLB  6
0ABD4:  CLRF   xA9
0ABD6:  MOVWF  xA8
0ABD8:  MOVLW  02
0ABDA:  ADDWF  xA8,W
0ABDC:  MOVWF  01
0ABDE:  MOVLW  00
0ABE0:  ADDWFC xA9,W
0ABE2:  MOVWF  03
0ABE4:  MOVF   01,W
0ABE6:  ADDLW  E0
0ABE8:  MOVWF  FE9
0ABEA:  MOVLW  05
0ABEC:  ADDWFC 03,W
0ABEE:  MOVWF  FEA
0ABF0:  MOVFF  FEF,11B
0ABF4:  MOVLB  1
0ABF6:  MOVLB  2
....................          } 
....................       } 
....................        
....................       if(RX_Buffer[4]==0x40 && CicloLibre>0){//40, Tsec 
0ABF8:  MOVF   34,W
0ABFA:  SUBLW  40
0ABFC:  BNZ   AC80
0ABFE:  MOVF   x47,F
0AC00:  BZ    AC80
....................          if(codigoUsuario==0 || codigoUsuario==9){   
0AC02:  MOVF   xA8,F
0AC04:  BZ    AC0C
0AC06:  MOVF   xA8,W
0AC08:  SUBLW  09
0AC0A:  BNZ   AC80
....................             printf("page TiempoSec"); 
0AC0C:  MOVLW  EC
0AC0E:  MOVWF  FF6
0AC10:  MOVLW  10
0AC12:  MOVWF  FF7
0AC14:  MOVLW  00
0AC16:  MOVWF  FF8
0AC18:  MOVLB  0
0AC1A:  CALL   3FF2
....................             SendDataDisplay();    
0AC1E:  CALL   4024
....................             mSecp=CiclosPersonalizados[CicloLibre-1].Minutosec; 
0AC22:  MOVLW  01
0AC24:  MOVLB  2
0AC26:  SUBWF  x47,W
0AC28:  MULLW  08
0AC2A:  MOVF   FF3,W
0AC2C:  MOVLB  6
0AC2E:  CLRF   xA9
0AC30:  MOVWF  xA8
0AC32:  MOVLW  03
0AC34:  ADDWF  xA8,W
0AC36:  MOVWF  01
0AC38:  MOVLW  00
0AC3A:  ADDWFC xA9,W
0AC3C:  MOVWF  03
0AC3E:  MOVF   01,W
0AC40:  ADDLW  E0
0AC42:  MOVWF  FE9
0AC44:  MOVLW  05
0AC46:  ADDWFC 03,W
0AC48:  MOVWF  FEA
0AC4A:  MOVFF  FEF,11E
0AC4E:  MOVLB  1
....................             sSecp=CiclosPersonalizados[CicloLibre-1].Segundosec; 
0AC50:  MOVLW  01
0AC52:  MOVLB  2
0AC54:  SUBWF  x47,W
0AC56:  MULLW  08
0AC58:  MOVF   FF3,W
0AC5A:  MOVLB  6
0AC5C:  CLRF   xA9
0AC5E:  MOVWF  xA8
0AC60:  MOVLW  04
0AC62:  ADDWF  xA8,W
0AC64:  MOVWF  01
0AC66:  MOVLW  00
0AC68:  ADDWFC xA9,W
0AC6A:  MOVWF  03
0AC6C:  MOVF   01,W
0AC6E:  ADDLW  E0
0AC70:  MOVWF  FE9
0AC72:  MOVLW  05
0AC74:  ADDWFC 03,W
0AC76:  MOVWF  FEA
0AC78:  MOVFF  FEF,11D
0AC7C:  MOVLB  1
0AC7E:  MOVLB  2
....................          } 
....................       } 
....................        
....................       if(RX_Buffer[4]==0x50 && CicloLibre>0){//50, PulsosVacio 
0AC80:  MOVF   34,W
0AC82:  SUBLW  50
0AC84:  BNZ   ACD8
0AC86:  MOVF   x47,F
0AC88:  BZ    ACD8
....................          if(codigoUsuario==0 || codigoUsuario==9){   
0AC8A:  MOVF   xA8,F
0AC8C:  BZ    AC94
0AC8E:  MOVF   xA8,W
0AC90:  SUBLW  09
0AC92:  BNZ   ACD8
....................             printf("page Pulsos"); 
0AC94:  MOVLW  FC
0AC96:  MOVWF  FF6
0AC98:  MOVLW  10
0AC9A:  MOVWF  FF7
0AC9C:  MOVLW  00
0AC9E:  MOVWF  FF8
0ACA0:  MOVLB  0
0ACA2:  CALL   3FF2
....................             SendDataDisplay();      
0ACA6:  CALL   4024
....................             Pulsos=CiclosPersonalizados[CicloLibre-1].PulsosVacio; 
0ACAA:  MOVLW  01
0ACAC:  MOVLB  2
0ACAE:  SUBWF  x47,W
0ACB0:  MULLW  08
0ACB2:  MOVF   FF3,W
0ACB4:  MOVLB  6
0ACB6:  CLRF   xA9
0ACB8:  MOVWF  xA8
0ACBA:  MOVLW  05
0ACBC:  ADDWF  xA8,W
0ACBE:  MOVWF  01
0ACC0:  MOVLW  00
0ACC2:  ADDWFC xA9,W
0ACC4:  MOVWF  03
0ACC6:  MOVF   01,W
0ACC8:  ADDLW  E0
0ACCA:  MOVWF  FE9
0ACCC:  MOVLW  05
0ACCE:  ADDWFC 03,W
0ACD0:  MOVWF  FEA
0ACD2:  MOVFF  FEF,2A6
0ACD6:  MOVLB  2
....................          } 
....................       } 
....................        
....................       if(RX_Buffer[4]==0x60 && CicloLibre>0){//60, NivelVacio 
0ACD8:  MOVF   34,W
0ACDA:  SUBLW  60
0ACDC:  BNZ   AD36
0ACDE:  MOVF   x47,F
0ACE0:  BZ    AD36
....................          if(codigoUsuario==0 || codigoUsuario==9){   
0ACE2:  MOVF   xA8,F
0ACE4:  BZ    ACEC
0ACE6:  MOVF   xA8,W
0ACE8:  SUBLW  09
0ACEA:  BNZ   AD36
....................             printf("page Nivel"); 
0ACEC:  MOVLW  08
0ACEE:  MOVWF  FF6
0ACF0:  MOVLW  11
0ACF2:  MOVWF  FF7
0ACF4:  MOVLW  00
0ACF6:  MOVWF  FF8
0ACF8:  MOVLB  0
0ACFA:  CALL   3FF2
....................             SendDataDisplay();      
0ACFE:  CALL   4024
....................             Nivel=CiclosPersonalizados[CicloLibre-1].NivelVacio; 
0AD02:  MOVLW  01
0AD04:  MOVLB  2
0AD06:  SUBWF  x47,W
0AD08:  MULLW  08
0AD0A:  MOVF   FF3,W
0AD0C:  MOVLB  6
0AD0E:  CLRF   xA9
0AD10:  MOVWF  xA8
0AD12:  MOVLW  06
0AD14:  ADDWF  xA8,W
0AD16:  MOVWF  01
0AD18:  MOVLW  00
0AD1A:  ADDWFC xA9,W
0AD1C:  MOVWF  03
0AD1E:  MOVF   01,W
0AD20:  ADDLW  E0
0AD22:  MOVWF  FE9
0AD24:  MOVLW  05
0AD26:  ADDWFC 03,W
0AD28:  MOVWF  FEA
0AD2A:  MOVF   FEF,W
0AD2C:  CLRF   03
0AD2E:  MOVLB  2
0AD30:  MOVWF  x6D
0AD32:  MOVFF  03,26E
....................          } 
....................       } 
....................        
....................       if(RX_Buffer[4]==0x80 && CicloLibre>0){//80, NivelDesfogue 
0AD36:  MOVF   34,W
0AD38:  SUBLW  80
0AD3A:  BNZ   AD40
0AD3C:  MOVF   x47,F
0AD3E:  BZ    AD40
....................          //printf("page NivelDes"); 
....................          //SendDataDisplay();      
....................          //NivelDes=CiclosPersonalizados[CicloLibre-1].NivelDesfogue; 
....................       } 
....................        
....................       if(RX_Buffer[4]==0x70 && CicloLibre>0){//70, Iniciar Ciclo 
0AD40:  MOVF   34,W
0AD42:  SUBLW  70
0AD44:  BTFSS  FD8.2
0AD46:  BRA    AF2A
0AD48:  MOVF   x47,F
0AD4A:  BTFSC  FD8.2
0AD4C:  BRA    AF2A
....................          printf("page Funcionamiento"); 
0AD4E:  MOVLW  14
0AD50:  MOVWF  FF6
0AD52:  MOVLW  11
0AD54:  MOVWF  FF7
0AD56:  MOVLW  00
0AD58:  MOVWF  FF8
0AD5A:  MOVLB  0
0AD5C:  CALL   3FF2
....................          SendDataDisplay();        
0AD60:  CALL   4024
....................          Libre=ON; 
0AD64:  MOVLB  1
0AD66:  BSF    x05.6
....................          ConfiguraCiclo(CiclosPersonalizados[CicloLibre-1].Segundoest,CiclosPersonalizados[CicloLibre-1].Minutoest, 
....................          CiclosPersonalizados[CicloLibre-1].Segundosec,CiclosPersonalizados[CicloLibre-1].MinutoSec,0,CicloLibre+10, 
....................          CiclosPersonalizados[CicloLibre-1].Temperatura,CiclosPersonalizados[CicloLibre-1].PulsosVacio,CiclosPersonalizados[CicloLibre-1].NivelVacio 
....................          ,0); 
0AD68:  MOVLW  01
0AD6A:  MOVLB  2
0AD6C:  SUBWF  x47,W
0AD6E:  MULLW  08
0AD70:  MOVF   FF3,W
0AD72:  MOVLB  6
0AD74:  CLRF   xA9
0AD76:  MOVWF  xA8
0AD78:  MOVLW  02
0AD7A:  ADDWF  xA8,W
0AD7C:  MOVWF  01
0AD7E:  MOVLW  00
0AD80:  ADDWFC xA9,W
0AD82:  MOVWF  03
0AD84:  MOVF   01,W
0AD86:  ADDLW  E0
0AD88:  MOVWF  FE9
0AD8A:  MOVLW  05
0AD8C:  ADDWFC 03,W
0AD8E:  MOVWF  FEA
0AD90:  MOVFF  FEF,6A8
0AD94:  MOVLW  01
0AD96:  MOVLB  2
0AD98:  SUBWF  x47,W
0AD9A:  MULLW  08
0AD9C:  MOVF   FF3,W
0AD9E:  MOVLB  6
0ADA0:  CLRF   xAA
0ADA2:  MOVWF  xA9
0ADA4:  MOVLW  01
0ADA6:  ADDWF  xA9,W
0ADA8:  MOVWF  01
0ADAA:  MOVLW  00
0ADAC:  ADDWFC xAA,W
0ADAE:  MOVWF  03
0ADB0:  MOVF   01,W
0ADB2:  ADDLW  E0
0ADB4:  MOVWF  FE9
0ADB6:  MOVLW  05
0ADB8:  ADDWFC 03,W
0ADBA:  MOVWF  FEA
0ADBC:  MOVFF  FEF,6A9
0ADC0:  MOVLW  01
0ADC2:  MOVLB  2
0ADC4:  SUBWF  x47,W
0ADC6:  MULLW  08
0ADC8:  MOVF   FF3,W
0ADCA:  MOVLB  6
0ADCC:  CLRF   xAB
0ADCE:  MOVWF  xAA
0ADD0:  MOVLW  04
0ADD2:  ADDWF  xAA,W
0ADD4:  MOVWF  01
0ADD6:  MOVLW  00
0ADD8:  ADDWFC xAB,W
0ADDA:  MOVWF  03
0ADDC:  MOVF   01,W
0ADDE:  ADDLW  E0
0ADE0:  MOVWF  FE9
0ADE2:  MOVLW  05
0ADE4:  ADDWFC 03,W
0ADE6:  MOVWF  FEA
0ADE8:  MOVFF  FEF,6AA
0ADEC:  MOVLW  01
0ADEE:  MOVLB  2
0ADF0:  SUBWF  x47,W
0ADF2:  MULLW  08
0ADF4:  MOVF   FF3,W
0ADF6:  MOVLB  6
0ADF8:  CLRF   xAC
0ADFA:  MOVWF  xAB
0ADFC:  MOVLW  03
0ADFE:  ADDWF  xAB,W
0AE00:  MOVWF  01
0AE02:  MOVLW  00
0AE04:  ADDWFC xAC,W
0AE06:  MOVWF  03
0AE08:  MOVF   01,W
0AE0A:  ADDLW  E0
0AE0C:  MOVWF  FE9
0AE0E:  MOVLW  05
0AE10:  ADDWFC 03,W
0AE12:  MOVWF  FEA
0AE14:  MOVFF  FEF,6AB
0AE18:  MOVLW  0A
0AE1A:  MOVLB  2
0AE1C:  ADDWF  x47,W
0AE1E:  MOVLB  6
0AE20:  MOVWF  xAC
0AE22:  MOVLW  01
0AE24:  MOVLB  2
0AE26:  SUBWF  x47,W
0AE28:  MULLW  08
0AE2A:  MOVF   FF3,W
0AE2C:  MOVLB  6
0AE2E:  CLRF   xAE
0AE30:  MOVWF  xAD
0AE32:  MOVLW  E0
0AE34:  ADDWF  xAD,W
0AE36:  MOVWF  FE9
0AE38:  MOVLW  05
0AE3A:  ADDWFC xAE,W
0AE3C:  MOVWF  FEA
0AE3E:  MOVFF  FEF,6AD
0AE42:  MOVLW  01
0AE44:  MOVLB  2
0AE46:  SUBWF  x47,W
0AE48:  MULLW  08
0AE4A:  MOVF   FF3,W
0AE4C:  MOVLB  6
0AE4E:  CLRF   xAF
0AE50:  MOVWF  xAE
0AE52:  MOVLW  05
0AE54:  ADDWF  xAE,W
0AE56:  MOVWF  01
0AE58:  MOVLW  00
0AE5A:  ADDWFC xAF,W
0AE5C:  MOVWF  03
0AE5E:  MOVF   01,W
0AE60:  ADDLW  E0
0AE62:  MOVWF  FE9
0AE64:  MOVLW  05
0AE66:  ADDWFC 03,W
0AE68:  MOVWF  FEA
0AE6A:  MOVFF  FEF,6AE
0AE6E:  MOVLW  01
0AE70:  MOVLB  2
0AE72:  SUBWF  x47,W
0AE74:  MULLW  08
0AE76:  MOVF   FF3,W
0AE78:  MOVLB  6
0AE7A:  CLRF   xB0
0AE7C:  MOVWF  xAF
0AE7E:  MOVLW  06
0AE80:  ADDWF  xAF,W
0AE82:  MOVWF  01
0AE84:  MOVLW  00
0AE86:  ADDWFC xB0,W
0AE88:  MOVWF  03
0AE8A:  MOVF   01,W
0AE8C:  ADDLW  E0
0AE8E:  MOVWF  FE9
0AE90:  MOVLW  05
0AE92:  ADDWFC 03,W
0AE94:  MOVWF  FEA
0AE96:  MOVFF  FEF,6AF
0AE9A:  MOVFF  6A8,6B0
0AE9E:  MOVFF  6A9,6B1
0AEA2:  MOVFF  6AA,6B2
0AEA6:  MOVFF  6AB,6B3
0AEAA:  CLRF   xB4
0AEAC:  MOVFF  6AC,6B5
0AEB0:  MOVFF  6AD,6B6
0AEB4:  MOVFF  6AE,6B7
0AEB8:  MOVFF  6AF,6B8
0AEBC:  CLRF   xB9
0AEBE:  MOVLB  0
0AEC0:  CALL   5B34
....................          NivelVacio=CiclosPersonalizados[CicloLibre-1].NivelVacio; 
0AEC4:  MOVLW  01
0AEC6:  MOVLB  2
0AEC8:  SUBWF  x47,W
0AECA:  MULLW  08
0AECC:  MOVF   FF3,W
0AECE:  MOVLB  6
0AED0:  CLRF   xA9
0AED2:  MOVWF  xA8
0AED4:  MOVLW  06
0AED6:  ADDWF  xA8,W
0AED8:  MOVWF  01
0AEDA:  MOVLW  00
0AEDC:  ADDWFC xA9,W
0AEDE:  MOVWF  03
0AEE0:  MOVF   01,W
0AEE2:  ADDLW  E0
0AEE4:  MOVWF  FE9
0AEE6:  MOVLW  05
0AEE8:  ADDWFC 03,W
0AEEA:  MOVWF  FEA
0AEEC:  MOVFF  FEF,29A
0AEF0:  MOVLB  2
....................          CantidadPulsos=CiclosPersonalizados[CicloLibre-1].PulsosVacio; 
0AEF2:  MOVLW  01
0AEF4:  SUBWF  x47,W
0AEF6:  MULLW  08
0AEF8:  MOVF   FF3,W
0AEFA:  MOVLB  6
0AEFC:  CLRF   xA9
0AEFE:  MOVWF  xA8
0AF00:  MOVLW  05
0AF02:  ADDWF  xA8,W
0AF04:  MOVWF  01
0AF06:  MOVLW  00
0AF08:  ADDWFC xA9,W
0AF0A:  MOVWF  03
0AF0C:  MOVF   01,W
0AF0E:  ADDLW  E0
0AF10:  MOVWF  FE9
0AF12:  MOVLW  05
0AF14:  ADDWFC 03,W
0AF16:  MOVWF  FEA
0AF18:  MOVF   FEF,W
0AF1A:  CLRF   03
0AF1C:  MOVLB  2
0AF1E:  MOVWF  x5A
0AF20:  MOVFF  03,25B
....................          Fugas=OFF; 
0AF24:  MOVLB  1
0AF26:  BCF    x06.0
0AF28:  MOVLB  2
....................       } 
....................    }else if(Menu==9){//Menu de Pulsos de Vacio 
0AF2A:  GOTO   EDD6
0AF2E:  MOVF   x52,W
0AF30:  SUBLW  09
0AF32:  BTFSS  FD8.2
0AF34:  BRA    B10E
....................       printf("fecha.txt=\"Fecha:%02u/%02u/20%02u    Hora: %02u:%02u:%02u\"",Dia,Mes,Year,Hora,Minuto,Segundo); 
0AF36:  MOVLW  28
0AF38:  MOVWF  FF6
0AF3A:  MOVLW  11
0AF3C:  MOVWF  FF7
0AF3E:  MOVLW  00
0AF40:  MOVWF  FF8
0AF42:  MOVLW  11
0AF44:  MOVLB  6
0AF46:  MOVWF  xAD
0AF48:  MOVLB  0
0AF4A:  CALL   5A32
0AF4E:  MOVFF  293,6AD
0AF52:  MOVLW  01
0AF54:  MOVLB  6
0AF56:  MOVWF  xAE
0AF58:  MOVLB  0
0AF5A:  CALL   5AB6
0AF5E:  MOVLW  2F
0AF60:  BTFSS  F9E.4
0AF62:  BRA    AF60
0AF64:  MOVWF  FAD
0AF66:  MOVFF  292,6AD
0AF6A:  MOVLW  01
0AF6C:  MOVLB  6
0AF6E:  MOVWF  xAE
0AF70:  MOVLB  0
0AF72:  CALL   5AB6
0AF76:  MOVLW  2F
0AF78:  BTFSS  F9E.4
0AF7A:  BRA    AF78
0AF7C:  MOVWF  FAD
0AF7E:  MOVLW  32
0AF80:  BTFSS  F9E.4
0AF82:  BRA    AF80
0AF84:  MOVWF  FAD
0AF86:  MOVLW  30
0AF88:  BTFSS  F9E.4
0AF8A:  BRA    AF88
0AF8C:  MOVWF  FAD
0AF8E:  MOVFF  291,6AD
0AF92:  MOVLW  01
0AF94:  MOVLB  6
0AF96:  MOVWF  xAE
0AF98:  MOVLB  0
0AF9A:  CALL   5AB6
0AF9E:  MOVLW  49
0AFA0:  MOVWF  FF6
0AFA2:  MOVLW  11
0AFA4:  MOVWF  FF7
0AFA6:  MOVLW  00
0AFA8:  MOVWF  FF8
0AFAA:  MOVLW  0A
0AFAC:  MOVLB  6
0AFAE:  MOVWF  xAD
0AFB0:  MOVLB  0
0AFB2:  CALL   5A32
0AFB6:  MOVFF  294,6AD
0AFBA:  MOVLW  01
0AFBC:  MOVLB  6
0AFBE:  MOVWF  xAE
0AFC0:  MOVLB  0
0AFC2:  CALL   5AB6
0AFC6:  MOVLW  3A
0AFC8:  BTFSS  F9E.4
0AFCA:  BRA    AFC8
0AFCC:  MOVWF  FAD
0AFCE:  MOVFF  295,6AD
0AFD2:  MOVLW  01
0AFD4:  MOVLB  6
0AFD6:  MOVWF  xAE
0AFD8:  MOVLB  0
0AFDA:  CALL   5AB6
0AFDE:  MOVLW  3A
0AFE0:  BTFSS  F9E.4
0AFE2:  BRA    AFE0
0AFE4:  MOVWF  FAD
0AFE6:  MOVFF  296,6AD
0AFEA:  MOVLW  01
0AFEC:  MOVLB  6
0AFEE:  MOVWF  xAE
0AFF0:  MOVLB  0
0AFF2:  CALL   5AB6
0AFF6:  MOVLW  22
0AFF8:  BTFSS  F9E.4
0AFFA:  BRA    AFF8
0AFFC:  MOVWF  FAD
....................       SendDataDisplay(); 
0AFFE:  CALL   4024
....................          if(Pulsos<4) 
0B002:  MOVLB  2
0B004:  MOVF   xA6,W
0B006:  SUBLW  03
0B008:  BNC   B00E
....................             Pulsos=15; 
0B00A:  MOVLW  0F
0B00C:  MOVWF  xA6
....................          if(Pulsos>15) 
0B00E:  MOVF   xA6,W
0B010:  SUBLW  0F
0B012:  BC    B018
....................             Pulsos=4; 
0B014:  MOVLW  04
0B016:  MOVWF  xA6
....................           
....................          if(RX_Buffer[4]==0x11){//Selecciono Regresar 
0B018:  MOVF   34,W
0B01A:  SUBLW  11
0B01C:  BNZ   B0BC
....................             Segundos=OFF; 
0B01E:  MOVLB  1
0B020:  BCF    x04.2
....................             Minutos=OFF;             
0B022:  BCF    x04.1
....................             printf("page CicloPersona"); 
0B024:  MOVLW  64
0B026:  MOVWF  FF6
0B028:  MOVLW  11
0B02A:  MOVWF  FF7
0B02C:  MOVLW  00
0B02E:  MOVWF  FF8
0B030:  MOVLB  0
0B032:  CALL   3FF2
....................             SendDataDisplay();   
0B036:  CALL   4024
....................             if(!GuardaEEPROM){     
0B03A:  MOVLB  1
0B03C:  BTFSC  x04.3
0B03E:  BRA    B0BA
....................                CiclosPersonalizados[CicloLibre-1].PulsosVacio=Pulsos; 
0B040:  MOVLW  01
0B042:  MOVLB  2
0B044:  SUBWF  x47,W
0B046:  MULLW  08
0B048:  MOVF   FF3,W
0B04A:  MOVLB  6
0B04C:  CLRF   xA9
0B04E:  MOVWF  xA8
0B050:  MOVLW  05
0B052:  ADDWF  xA8,W
0B054:  MOVWF  01
0B056:  MOVLW  00
0B058:  ADDWFC xA9,W
0B05A:  MOVWF  03
0B05C:  MOVF   01,W
0B05E:  ADDLW  E0
0B060:  MOVWF  FE9
0B062:  MOVLW  05
0B064:  ADDWFC 03,W
0B066:  MOVWF  FEA
0B068:  MOVFF  2A6,FEF
....................                write_eeprom(105+((CicloLibre-1)*8),Pulsos); 
0B06C:  MOVLW  01
0B06E:  MOVLB  2
0B070:  SUBWF  x47,W
0B072:  MULLW  08
0B074:  MOVF   FF3,W
0B076:  ADDLW  69
0B078:  MOVLB  6
0B07A:  MOVWF  xA8
0B07C:  CLRF   FAA
0B07E:  MOVFF  6A8,FA9
0B082:  MOVFF  2A6,FA8
0B086:  BCF    FA6.6
0B088:  BCF    FA6.7
0B08A:  BSF    FA6.2
0B08C:  MOVF   FF2,W
0B08E:  MOVWF  00
0B090:  BCF    FF2.6
0B092:  BCF    FF2.7
0B094:  MOVLB  F
0B096:  MOVLW  55
0B098:  MOVWF  FA7
0B09A:  MOVLW  AA
0B09C:  MOVWF  FA7
0B09E:  BSF    FA6.1
0B0A0:  BTFSC  FA6.1
0B0A2:  BRA    B0A0
0B0A4:  BCF    FA6.2
0B0A6:  MOVF   00,W
0B0A8:  IORWF  FF2,F
....................                delay_ms(20);             
0B0AA:  MOVLW  14
0B0AC:  MOVLB  6
0B0AE:  MOVWF  xBA
0B0B0:  MOVLB  0
0B0B2:  CALL   1F70
....................                //NivelSeleccionado=9990*Nivel; 
....................                GuardaEEPROM=ON; 
0B0B6:  MOVLB  1
0B0B8:  BSF    x04.3
0B0BA:  MOVLB  2
....................             } 
....................          } 
....................           
....................          if(RX_Buffer[4]==0x0d){//Tecla Arriba Oprimida 
0B0BC:  MOVF   34,W
0B0BE:  SUBLW  0D
0B0C0:  BNZ   B0C8
....................             Pulsos++; 
0B0C2:  INCF   xA6,F
....................             RX_Buffer[4]=0x00;             
0B0C4:  CLRF   34
....................             RX_Buffer2[4]=0x00;             
0B0C6:  CLRF   3F
....................             //BorraBuffer(); 
....................          } 
....................           
....................          if(RX_Buffer[4]==0x0c){//Tecla Abajo Oprimida 
0B0C8:  MOVF   34,W
0B0CA:  SUBLW  0C
0B0CC:  BNZ   B0D4
....................             Pulsos--; 
0B0CE:  DECF   xA6,F
....................             RX_Buffer[4]=0x00; 
0B0D0:  CLRF   34
....................             RX_Buffer2[4]=0x00;             
0B0D2:  CLRF   3F
....................             //BorraBuffer(); 
....................          } 
....................           
....................       printf("tnivel.txt=\"%u\"",Pulsos); 
0B0D4:  MOVLW  76
0B0D6:  MOVWF  FF6
0B0D8:  MOVLW  11
0B0DA:  MOVWF  FF7
0B0DC:  MOVLW  00
0B0DE:  MOVWF  FF8
0B0E0:  MOVLW  0C
0B0E2:  MOVLB  6
0B0E4:  MOVWF  xAD
0B0E6:  MOVLB  0
0B0E8:  CALL   5A32
0B0EC:  MOVFF  2A6,6AD
0B0F0:  MOVLW  1B
0B0F2:  MOVLB  6
0B0F4:  MOVWF  xAE
0B0F6:  MOVLB  0
0B0F8:  CALL   5AB6
0B0FC:  MOVLW  22
0B0FE:  BTFSS  F9E.4
0B100:  BRA    B0FE
0B102:  MOVWF  FAD
....................       SendDataDisplay(); 
0B104:  CALL   4024
....................    }else if(Menu==10){//Menu de Usuarios 
0B108:  GOTO   EDD6
0B10C:  MOVLB  2
0B10E:  MOVF   x52,W
0B110:  SUBLW  0A
0B112:  BTFSS  FD8.2
0B114:  BRA    B5D8
....................       printf("fecha.txt=\"Fecha:%02u/%02u/20%02u    Hora: %02u:%02u:%02u\"",Dia,Mes,Year,Hora,Minuto,Segundo); 
0B116:  MOVLW  86
0B118:  MOVWF  FF6
0B11A:  MOVLW  11
0B11C:  MOVWF  FF7
0B11E:  MOVLW  00
0B120:  MOVWF  FF8
0B122:  MOVLW  11
0B124:  MOVLB  6
0B126:  MOVWF  xAD
0B128:  MOVLB  0
0B12A:  CALL   5A32
0B12E:  MOVFF  293,6AD
0B132:  MOVLW  01
0B134:  MOVLB  6
0B136:  MOVWF  xAE
0B138:  MOVLB  0
0B13A:  CALL   5AB6
0B13E:  MOVLW  2F
0B140:  BTFSS  F9E.4
0B142:  BRA    B140
0B144:  MOVWF  FAD
0B146:  MOVFF  292,6AD
0B14A:  MOVLW  01
0B14C:  MOVLB  6
0B14E:  MOVWF  xAE
0B150:  MOVLB  0
0B152:  CALL   5AB6
0B156:  MOVLW  2F
0B158:  BTFSS  F9E.4
0B15A:  BRA    B158
0B15C:  MOVWF  FAD
0B15E:  MOVLW  32
0B160:  BTFSS  F9E.4
0B162:  BRA    B160
0B164:  MOVWF  FAD
0B166:  MOVLW  30
0B168:  BTFSS  F9E.4
0B16A:  BRA    B168
0B16C:  MOVWF  FAD
0B16E:  MOVFF  291,6AD
0B172:  MOVLW  01
0B174:  MOVLB  6
0B176:  MOVWF  xAE
0B178:  MOVLB  0
0B17A:  CALL   5AB6
0B17E:  MOVLW  A7
0B180:  MOVWF  FF6
0B182:  MOVLW  11
0B184:  MOVWF  FF7
0B186:  MOVLW  00
0B188:  MOVWF  FF8
0B18A:  MOVLW  0A
0B18C:  MOVLB  6
0B18E:  MOVWF  xAD
0B190:  MOVLB  0
0B192:  CALL   5A32
0B196:  MOVFF  294,6AD
0B19A:  MOVLW  01
0B19C:  MOVLB  6
0B19E:  MOVWF  xAE
0B1A0:  MOVLB  0
0B1A2:  CALL   5AB6
0B1A6:  MOVLW  3A
0B1A8:  BTFSS  F9E.4
0B1AA:  BRA    B1A8
0B1AC:  MOVWF  FAD
0B1AE:  MOVFF  295,6AD
0B1B2:  MOVLW  01
0B1B4:  MOVLB  6
0B1B6:  MOVWF  xAE
0B1B8:  MOVLB  0
0B1BA:  CALL   5AB6
0B1BE:  MOVLW  3A
0B1C0:  BTFSS  F9E.4
0B1C2:  BRA    B1C0
0B1C4:  MOVWF  FAD
0B1C6:  MOVFF  296,6AD
0B1CA:  MOVLW  01
0B1CC:  MOVLB  6
0B1CE:  MOVWF  xAE
0B1D0:  MOVLB  0
0B1D2:  CALL   5AB6
0B1D6:  MOVLW  22
0B1D8:  BTFSS  F9E.4
0B1DA:  BRA    B1D8
0B1DC:  MOVWF  FAD
....................       SendDataDisplay(); 
0B1DE:  CALL   4024
....................       GuardaEEPROM=OFF; 
0B1E2:  MOVLB  1
0B1E4:  BCF    x04.3
....................       if(ingreso) 
0B1E6:  BTFSS  x05.7
0B1E8:  BRA    B1F0
....................          TipoClave=2; 
0B1EA:  MOVLW  02
0B1EC:  MOVWF  xEF
....................       else 
0B1EE:  BRA    B1F2
....................          TipoClave=0; 
0B1F0:  CLRF   xEF
....................        
....................       if(RX_Buffer[4]==0x01){//01, Admin 
0B1F2:  DECFSZ 34,W
0B1F4:  BRA    B24C
....................          printf("page Clave"); 
0B1F6:  MOVLW  C2
0B1F8:  MOVWF  FF6
0B1FA:  MOVLW  11
0B1FC:  MOVWF  FF7
0B1FE:  MOVLW  00
0B200:  MOVWF  FF8
0B202:  MOVLB  0
0B204:  CALL   3FF2
....................          SendDataDisplay();        
0B208:  CALL   4024
....................          if(!ingreso){ 
0B20C:  MOVLB  1
0B20E:  BTFSC  x05.7
0B210:  BRA    B244
....................             usuario="Admin"; 
0B212:  MOVLW  02
0B214:  MOVWF  FEA
0B216:  MOVLW  AE
0B218:  MOVWF  FE9
0B21A:  MOVFF  FF2,6A8
0B21E:  BCF    FF2.6
0B220:  BCF    FF2.7
0B222:  MOVLW  00
0B224:  MOVLB  0
0B226:  CALL   0144
0B22A:  TBLRD*-
0B22C:  TBLRD*+
0B22E:  MOVF   FF5,W
0B230:  MOVWF  FEE
0B232:  IORLW  00
0B234:  BNZ   B22C
0B236:  MOVLB  6
0B238:  BTFSC  xA8.6
0B23A:  BSF    FF2.6
0B23C:  BTFSC  xA8.7
0B23E:  BSF    FF2.7
....................             codigoUsuario=0; 
0B240:  MOVLB  2
0B242:  CLRF   xA8
....................          } 
....................          codigoUsuario2=0; 
0B244:  MOVLB  2
0B246:  CLRF   x8C
....................       }else if(RX_Buffer[4]==0x02){//02, Operador 1 
0B248:  BRA    B5A8
0B24A:  MOVLB  1
0B24C:  MOVF   34,W
0B24E:  SUBLW  02
0B250:  BNZ   B2AC
....................          printf("page Clave"); 
0B252:  MOVLW  CE
0B254:  MOVWF  FF6
0B256:  MOVLW  11
0B258:  MOVWF  FF7
0B25A:  MOVLW  00
0B25C:  MOVWF  FF8
0B25E:  MOVLB  0
0B260:  CALL   3FF2
....................          SendDataDisplay();        
0B264:  CALL   4024
....................          if(!ingreso){ 
0B268:  MOVLB  1
0B26A:  BTFSC  x05.7
0B26C:  BRA    B2A2
....................             usuario="Operador 1"; 
0B26E:  MOVLW  02
0B270:  MOVWF  FEA
0B272:  MOVLW  AE
0B274:  MOVWF  FE9
0B276:  MOVFF  FF2,6A8
0B27A:  BCF    FF2.6
0B27C:  BCF    FF2.7
0B27E:  MOVLW  00
0B280:  MOVLB  0
0B282:  CALL   016E
0B286:  TBLRD*-
0B288:  TBLRD*+
0B28A:  MOVF   FF5,W
0B28C:  MOVWF  FEE
0B28E:  IORLW  00
0B290:  BNZ   B288
0B292:  MOVLB  6
0B294:  BTFSC  xA8.6
0B296:  BSF    FF2.6
0B298:  BTFSC  xA8.7
0B29A:  BSF    FF2.7
....................             codigoUsuario=1; 
0B29C:  MOVLW  01
0B29E:  MOVLB  2
0B2A0:  MOVWF  xA8
....................          } 
....................          codigoUsuario2=1; 
0B2A2:  MOVLW  01
0B2A4:  MOVLB  2
0B2A6:  MOVWF  x8C
....................       }else if(RX_Buffer[4]==0x03){//03, Operador 2 
0B2A8:  BRA    B5A8
0B2AA:  MOVLB  1
0B2AC:  MOVF   34,W
0B2AE:  SUBLW  03
0B2B0:  BNZ   B30C
....................          printf("page Clave"); 
0B2B2:  MOVLW  DA
0B2B4:  MOVWF  FF6
0B2B6:  MOVLW  11
0B2B8:  MOVWF  FF7
0B2BA:  MOVLW  00
0B2BC:  MOVWF  FF8
0B2BE:  MOVLB  0
0B2C0:  CALL   3FF2
....................          SendDataDisplay();        
0B2C4:  CALL   4024
....................          if(!ingreso){ 
0B2C8:  MOVLB  1
0B2CA:  BTFSC  x05.7
0B2CC:  BRA    B302
....................             usuario="Operador 2"; 
0B2CE:  MOVLW  02
0B2D0:  MOVWF  FEA
0B2D2:  MOVLW  AE
0B2D4:  MOVWF  FE9
0B2D6:  MOVFF  FF2,6A8
0B2DA:  BCF    FF2.6
0B2DC:  BCF    FF2.7
0B2DE:  MOVLW  00
0B2E0:  MOVLB  0
0B2E2:  CALL   019E
0B2E6:  TBLRD*-
0B2E8:  TBLRD*+
0B2EA:  MOVF   FF5,W
0B2EC:  MOVWF  FEE
0B2EE:  IORLW  00
0B2F0:  BNZ   B2E8
0B2F2:  MOVLB  6
0B2F4:  BTFSC  xA8.6
0B2F6:  BSF    FF2.6
0B2F8:  BTFSC  xA8.7
0B2FA:  BSF    FF2.7
....................             codigoUsuario=2; 
0B2FC:  MOVLW  02
0B2FE:  MOVLB  2
0B300:  MOVWF  xA8
....................          } 
....................          codigoUsuario2=2; 
0B302:  MOVLW  02
0B304:  MOVLB  2
0B306:  MOVWF  x8C
....................       }else if(RX_Buffer[4]==0x04){//04, Operador 3 
0B308:  BRA    B5A8
0B30A:  MOVLB  1
0B30C:  MOVF   34,W
0B30E:  SUBLW  04
0B310:  BNZ   B36C
....................          printf("page Clave"); 
0B312:  MOVLW  E6
0B314:  MOVWF  FF6
0B316:  MOVLW  11
0B318:  MOVWF  FF7
0B31A:  MOVLW  00
0B31C:  MOVWF  FF8
0B31E:  MOVLB  0
0B320:  CALL   3FF2
....................          SendDataDisplay();        
0B324:  CALL   4024
....................          if(!ingreso){ 
0B328:  MOVLB  1
0B32A:  BTFSC  x05.7
0B32C:  BRA    B362
....................             usuario="Operador 3"; 
0B32E:  MOVLW  02
0B330:  MOVWF  FEA
0B332:  MOVLW  AE
0B334:  MOVWF  FE9
0B336:  MOVFF  FF2,6A8
0B33A:  BCF    FF2.6
0B33C:  BCF    FF2.7
0B33E:  MOVLW  00
0B340:  MOVLB  0
0B342:  CALL   01CE
0B346:  TBLRD*-
0B348:  TBLRD*+
0B34A:  MOVF   FF5,W
0B34C:  MOVWF  FEE
0B34E:  IORLW  00
0B350:  BNZ   B348
0B352:  MOVLB  6
0B354:  BTFSC  xA8.6
0B356:  BSF    FF2.6
0B358:  BTFSC  xA8.7
0B35A:  BSF    FF2.7
....................             codigoUsuario=3; 
0B35C:  MOVLW  03
0B35E:  MOVLB  2
0B360:  MOVWF  xA8
....................          } 
....................          codigoUsuario2=3; 
0B362:  MOVLW  03
0B364:  MOVLB  2
0B366:  MOVWF  x8C
....................       }else if(RX_Buffer[4]==0x05){//05, Operador 4 
0B368:  BRA    B5A8
0B36A:  MOVLB  1
0B36C:  MOVF   34,W
0B36E:  SUBLW  05
0B370:  BNZ   B3CC
....................          printf("page Clave"); 
0B372:  MOVLW  F2
0B374:  MOVWF  FF6
0B376:  MOVLW  11
0B378:  MOVWF  FF7
0B37A:  MOVLW  00
0B37C:  MOVWF  FF8
0B37E:  MOVLB  0
0B380:  CALL   3FF2
....................          SendDataDisplay();        
0B384:  CALL   4024
....................          if(!ingreso){ 
0B388:  MOVLB  1
0B38A:  BTFSC  x05.7
0B38C:  BRA    B3C2
....................             usuario="Operador 4"; 
0B38E:  MOVLW  02
0B390:  MOVWF  FEA
0B392:  MOVLW  AE
0B394:  MOVWF  FE9
0B396:  MOVFF  FF2,6A8
0B39A:  BCF    FF2.6
0B39C:  BCF    FF2.7
0B39E:  MOVLW  00
0B3A0:  MOVLB  0
0B3A2:  CALL   01FE
0B3A6:  TBLRD*-
0B3A8:  TBLRD*+
0B3AA:  MOVF   FF5,W
0B3AC:  MOVWF  FEE
0B3AE:  IORLW  00
0B3B0:  BNZ   B3A8
0B3B2:  MOVLB  6
0B3B4:  BTFSC  xA8.6
0B3B6:  BSF    FF2.6
0B3B8:  BTFSC  xA8.7
0B3BA:  BSF    FF2.7
....................             codigoUsuario=4; 
0B3BC:  MOVLW  04
0B3BE:  MOVLB  2
0B3C0:  MOVWF  xA8
....................          } 
....................          codigoUsuario2=4; 
0B3C2:  MOVLW  04
0B3C4:  MOVLB  2
0B3C6:  MOVWF  x8C
....................       }else if(RX_Buffer[4]==0x06){//06, Operador 5 
0B3C8:  BRA    B5A8
0B3CA:  MOVLB  1
0B3CC:  MOVF   34,W
0B3CE:  SUBLW  06
0B3D0:  BNZ   B42C
....................          printf("page Clave"); 
0B3D2:  MOVLW  FE
0B3D4:  MOVWF  FF6
0B3D6:  MOVLW  11
0B3D8:  MOVWF  FF7
0B3DA:  MOVLW  00
0B3DC:  MOVWF  FF8
0B3DE:  MOVLB  0
0B3E0:  CALL   3FF2
....................          SendDataDisplay();        
0B3E4:  CALL   4024
....................          if(!ingreso){ 
0B3E8:  MOVLB  1
0B3EA:  BTFSC  x05.7
0B3EC:  BRA    B422
....................             usuario="Operador 5"; 
0B3EE:  MOVLW  02
0B3F0:  MOVWF  FEA
0B3F2:  MOVLW  AE
0B3F4:  MOVWF  FE9
0B3F6:  MOVFF  FF2,6A8
0B3FA:  BCF    FF2.6
0B3FC:  BCF    FF2.7
0B3FE:  MOVLW  00
0B400:  MOVLB  0
0B402:  CALL   022E
0B406:  TBLRD*-
0B408:  TBLRD*+
0B40A:  MOVF   FF5,W
0B40C:  MOVWF  FEE
0B40E:  IORLW  00
0B410:  BNZ   B408
0B412:  MOVLB  6
0B414:  BTFSC  xA8.6
0B416:  BSF    FF2.6
0B418:  BTFSC  xA8.7
0B41A:  BSF    FF2.7
....................             codigoUsuario=5; 
0B41C:  MOVLW  05
0B41E:  MOVLB  2
0B420:  MOVWF  xA8
....................          } 
....................          codigoUsuario2=5; 
0B422:  MOVLW  05
0B424:  MOVLB  2
0B426:  MOVWF  x8C
....................       }else if(RX_Buffer[4]==0x07){//07, Operador 6 
0B428:  BRA    B5A8
0B42A:  MOVLB  1
0B42C:  MOVF   34,W
0B42E:  SUBLW  07
0B430:  BNZ   B48C
....................          printf("page Clave"); 
0B432:  MOVLW  0A
0B434:  MOVWF  FF6
0B436:  MOVLW  12
0B438:  MOVWF  FF7
0B43A:  MOVLW  00
0B43C:  MOVWF  FF8
0B43E:  MOVLB  0
0B440:  CALL   3FF2
....................          SendDataDisplay();        
0B444:  CALL   4024
....................          if(!ingreso){ 
0B448:  MOVLB  1
0B44A:  BTFSC  x05.7
0B44C:  BRA    B482
....................             usuario="Operador 6"; 
0B44E:  MOVLW  02
0B450:  MOVWF  FEA
0B452:  MOVLW  AE
0B454:  MOVWF  FE9
0B456:  MOVFF  FF2,6A8
0B45A:  BCF    FF2.6
0B45C:  BCF    FF2.7
0B45E:  MOVLW  00
0B460:  MOVLB  0
0B462:  CALL   025E
0B466:  TBLRD*-
0B468:  TBLRD*+
0B46A:  MOVF   FF5,W
0B46C:  MOVWF  FEE
0B46E:  IORLW  00
0B470:  BNZ   B468
0B472:  MOVLB  6
0B474:  BTFSC  xA8.6
0B476:  BSF    FF2.6
0B478:  BTFSC  xA8.7
0B47A:  BSF    FF2.7
....................             codigoUsuario=6; 
0B47C:  MOVLW  06
0B47E:  MOVLB  2
0B480:  MOVWF  xA8
....................          } 
....................          codigoUsuario2=6; 
0B482:  MOVLW  06
0B484:  MOVLB  2
0B486:  MOVWF  x8C
....................       }else if(RX_Buffer[4]==0x08){//08, Operador 7 
0B488:  BRA    B5A8
0B48A:  MOVLB  1
0B48C:  MOVF   34,W
0B48E:  SUBLW  08
0B490:  BNZ   B4EC
....................          printf("page Clave"); 
0B492:  MOVLW  16
0B494:  MOVWF  FF6
0B496:  MOVLW  12
0B498:  MOVWF  FF7
0B49A:  MOVLW  00
0B49C:  MOVWF  FF8
0B49E:  MOVLB  0
0B4A0:  CALL   3FF2
....................          SendDataDisplay();        
0B4A4:  CALL   4024
....................          if(!ingreso){ 
0B4A8:  MOVLB  1
0B4AA:  BTFSC  x05.7
0B4AC:  BRA    B4E2
....................             usuario="Operador 7"; 
0B4AE:  MOVLW  02
0B4B0:  MOVWF  FEA
0B4B2:  MOVLW  AE
0B4B4:  MOVWF  FE9
0B4B6:  MOVFF  FF2,6A8
0B4BA:  BCF    FF2.6
0B4BC:  BCF    FF2.7
0B4BE:  MOVLW  00
0B4C0:  MOVLB  0
0B4C2:  CALL   028E
0B4C6:  TBLRD*-
0B4C8:  TBLRD*+
0B4CA:  MOVF   FF5,W
0B4CC:  MOVWF  FEE
0B4CE:  IORLW  00
0B4D0:  BNZ   B4C8
0B4D2:  MOVLB  6
0B4D4:  BTFSC  xA8.6
0B4D6:  BSF    FF2.6
0B4D8:  BTFSC  xA8.7
0B4DA:  BSF    FF2.7
....................             codigoUsuario=7; 
0B4DC:  MOVLW  07
0B4DE:  MOVLB  2
0B4E0:  MOVWF  xA8
....................          } 
....................          codigoUsuario2=7; 
0B4E2:  MOVLW  07
0B4E4:  MOVLB  2
0B4E6:  MOVWF  x8C
....................       }else if(RX_Buffer[4]==0x09){//09, Operador 8 
0B4E8:  BRA    B5A8
0B4EA:  MOVLB  1
0B4EC:  MOVF   34,W
0B4EE:  SUBLW  09
0B4F0:  BNZ   B54C
....................          printf("page Clave"); 
0B4F2:  MOVLW  22
0B4F4:  MOVWF  FF6
0B4F6:  MOVLW  12
0B4F8:  MOVWF  FF7
0B4FA:  MOVLW  00
0B4FC:  MOVWF  FF8
0B4FE:  MOVLB  0
0B500:  CALL   3FF2
....................          SendDataDisplay();        
0B504:  CALL   4024
....................          if(!ingreso){ 
0B508:  MOVLB  1
0B50A:  BTFSC  x05.7
0B50C:  BRA    B542
....................             usuario="Operador 8"; 
0B50E:  MOVLW  02
0B510:  MOVWF  FEA
0B512:  MOVLW  AE
0B514:  MOVWF  FE9
0B516:  MOVFF  FF2,6A8
0B51A:  BCF    FF2.6
0B51C:  BCF    FF2.7
0B51E:  MOVLW  00
0B520:  MOVLB  0
0B522:  CALL   02BE
0B526:  TBLRD*-
0B528:  TBLRD*+
0B52A:  MOVF   FF5,W
0B52C:  MOVWF  FEE
0B52E:  IORLW  00
0B530:  BNZ   B528
0B532:  MOVLB  6
0B534:  BTFSC  xA8.6
0B536:  BSF    FF2.6
0B538:  BTFSC  xA8.7
0B53A:  BSF    FF2.7
....................             codigoUsuario=8; 
0B53C:  MOVLW  08
0B53E:  MOVLB  2
0B540:  MOVWF  xA8
....................          } 
....................          codigoUsuario2=8; 
0B542:  MOVLW  08
0B544:  MOVLB  2
0B546:  MOVWF  x8C
....................       }else if(RX_Buffer[4]==0x0a){//0a, Tecnico 
0B548:  BRA    B5A8
0B54A:  MOVLB  1
0B54C:  MOVF   34,W
0B54E:  SUBLW  0A
0B550:  BNZ   B5AA
....................          printf("page Clave"); 
0B552:  MOVLW  2E
0B554:  MOVWF  FF6
0B556:  MOVLW  12
0B558:  MOVWF  FF7
0B55A:  MOVLW  00
0B55C:  MOVWF  FF8
0B55E:  MOVLB  0
0B560:  CALL   3FF2
....................          SendDataDisplay();        
0B564:  CALL   4024
....................          if(!ingreso){ 
0B568:  MOVLB  1
0B56A:  BTFSC  x05.7
0B56C:  BRA    B5A2
....................             usuario="Tecnico"; 
0B56E:  MOVLW  02
0B570:  MOVWF  FEA
0B572:  MOVLW  AE
0B574:  MOVWF  FE9
0B576:  MOVFF  FF2,6A8
0B57A:  BCF    FF2.6
0B57C:  BCF    FF2.7
0B57E:  MOVLW  00
0B580:  MOVLB  0
0B582:  CALL   02EE
0B586:  TBLRD*-
0B588:  TBLRD*+
0B58A:  MOVF   FF5,W
0B58C:  MOVWF  FEE
0B58E:  IORLW  00
0B590:  BNZ   B588
0B592:  MOVLB  6
0B594:  BTFSC  xA8.6
0B596:  BSF    FF2.6
0B598:  BTFSC  xA8.7
0B59A:  BSF    FF2.7
....................             codigoUsuario=9; 
0B59C:  MOVLW  09
0B59E:  MOVLB  2
0B5A0:  MOVWF  xA8
....................          } 
....................          codigoUsuario2=9; 
0B5A2:  MOVLW  09
0B5A4:  MOVLB  2
0B5A6:  MOVWF  x8C
0B5A8:  MOVLB  1
....................       } 
....................        
....................       if(RX_Buffer[4]==0xaa && ingreso){//aa, Regresar 
0B5AA:  MOVF   34,W
0B5AC:  SUBLW  AA
0B5AE:  BNZ   B5D2
0B5B0:  BTFSS  x05.7
0B5B2:  BRA    B5D2
....................          printf("page Ajustes"); 
0B5B4:  MOVLW  3A
0B5B6:  MOVWF  FF6
0B5B8:  MOVLW  12
0B5BA:  MOVWF  FF7
0B5BC:  MOVLW  00
0B5BE:  MOVWF  FF8
0B5C0:  MOVLB  0
0B5C2:  CALL   3FF2
....................          SendDataDisplay();        
0B5C6:  CALL   4024
....................          codigoUsuario2=10; 
0B5CA:  MOVLW  0A
0B5CC:  MOVLB  2
0B5CE:  MOVWF  x8C
0B5D0:  MOVLB  1
....................       } 
....................    }else if(Menu==11){//Menu de Configuraciones 
0B5D2:  GOTO   EDD6
0B5D6:  MOVLB  2
0B5D8:  MOVF   x52,W
0B5DA:  SUBLW  0B
0B5DC:  BTFSS  FD8.2
0B5DE:  BRA    B81C
....................       printf("fecha.txt=\"Fecha:%02u/%02u/20%02u    Hora: %02u:%02u:%02u\"",Dia,Mes,Year,Hora,Minuto,Segundo); 
0B5E0:  MOVLW  48
0B5E2:  MOVWF  FF6
0B5E4:  MOVLW  12
0B5E6:  MOVWF  FF7
0B5E8:  MOVLW  00
0B5EA:  MOVWF  FF8
0B5EC:  MOVLW  11
0B5EE:  MOVLB  6
0B5F0:  MOVWF  xAD
0B5F2:  MOVLB  0
0B5F4:  CALL   5A32
0B5F8:  MOVFF  293,6AD
0B5FC:  MOVLW  01
0B5FE:  MOVLB  6
0B600:  MOVWF  xAE
0B602:  MOVLB  0
0B604:  CALL   5AB6
0B608:  MOVLW  2F
0B60A:  BTFSS  F9E.4
0B60C:  BRA    B60A
0B60E:  MOVWF  FAD
0B610:  MOVFF  292,6AD
0B614:  MOVLW  01
0B616:  MOVLB  6
0B618:  MOVWF  xAE
0B61A:  MOVLB  0
0B61C:  CALL   5AB6
0B620:  MOVLW  2F
0B622:  BTFSS  F9E.4
0B624:  BRA    B622
0B626:  MOVWF  FAD
0B628:  MOVLW  32
0B62A:  BTFSS  F9E.4
0B62C:  BRA    B62A
0B62E:  MOVWF  FAD
0B630:  MOVLW  30
0B632:  BTFSS  F9E.4
0B634:  BRA    B632
0B636:  MOVWF  FAD
0B638:  MOVFF  291,6AD
0B63C:  MOVLW  01
0B63E:  MOVLB  6
0B640:  MOVWF  xAE
0B642:  MOVLB  0
0B644:  CALL   5AB6
0B648:  MOVLW  69
0B64A:  MOVWF  FF6
0B64C:  MOVLW  12
0B64E:  MOVWF  FF7
0B650:  MOVLW  00
0B652:  MOVWF  FF8
0B654:  MOVLW  0A
0B656:  MOVLB  6
0B658:  MOVWF  xAD
0B65A:  MOVLB  0
0B65C:  CALL   5A32
0B660:  MOVFF  294,6AD
0B664:  MOVLW  01
0B666:  MOVLB  6
0B668:  MOVWF  xAE
0B66A:  MOVLB  0
0B66C:  CALL   5AB6
0B670:  MOVLW  3A
0B672:  BTFSS  F9E.4
0B674:  BRA    B672
0B676:  MOVWF  FAD
0B678:  MOVFF  295,6AD
0B67C:  MOVLW  01
0B67E:  MOVLB  6
0B680:  MOVWF  xAE
0B682:  MOVLB  0
0B684:  CALL   5AB6
0B688:  MOVLW  3A
0B68A:  BTFSS  F9E.4
0B68C:  BRA    B68A
0B68E:  MOVWF  FAD
0B690:  MOVFF  296,6AD
0B694:  MOVLW  01
0B696:  MOVLB  6
0B698:  MOVWF  xAE
0B69A:  MOVLB  0
0B69C:  CALL   5AB6
0B6A0:  MOVLW  22
0B6A2:  BTFSS  F9E.4
0B6A4:  BRA    B6A2
0B6A6:  MOVWF  FAD
....................       SendDataDisplay(); 
0B6A8:  CALL   4024
....................       GuardaEEPROM=OFF; 
0B6AC:  MOVLB  1
0B6AE:  BCF    x04.3
....................       printf("tuser.txt=\"%s\"",usuario); 
0B6B0:  MOVLW  84
0B6B2:  MOVWF  FF6
0B6B4:  MOVLW  12
0B6B6:  MOVWF  FF7
0B6B8:  MOVLW  00
0B6BA:  MOVWF  FF8
0B6BC:  MOVLW  0B
0B6BE:  MOVLB  6
0B6C0:  MOVWF  xAD
0B6C2:  MOVLB  0
0B6C4:  CALL   5A32
0B6C8:  MOVLW  02
0B6CA:  MOVWF  FEA
0B6CC:  MOVLW  AE
0B6CE:  MOVWF  FE9
0B6D0:  CALL   5A64
0B6D4:  MOVLW  22
0B6D6:  BTFSS  F9E.4
0B6D8:  BRA    B6D6
0B6DA:  MOVWF  FAD
....................       SendDataDisplay(); 
0B6DC:  CALL   4024
....................       TipoClave=0; 
0B6E0:  MOVLB  1
0B6E2:  CLRF   xEF
....................        
....................       if(RX_Buffer[4]==0x01){//01, Ciclos 
0B6E4:  DECFSZ 34,W
0B6E6:  BRA    B700
....................          printf("page Ciclos"); 
0B6E8:  MOVLW  94
0B6EA:  MOVWF  FF6
0B6EC:  MOVLW  12
0B6EE:  MOVWF  FF7
0B6F0:  MOVLW  00
0B6F2:  MOVWF  FF8
0B6F4:  MOVLB  0
0B6F6:  CALL   3FF2
....................          SendDataDisplay();      
0B6FA:  CALL   4024
0B6FE:  MOVLB  1
....................       } 
....................        
....................       if(RX_Buffer[4]==0x02){//02, Test de Componentes 
0B700:  MOVF   34,W
0B702:  SUBLW  02
0B704:  BNZ   B71E
....................          printf("page Test"); 
0B706:  MOVLW  A0
0B708:  MOVWF  FF6
0B70A:  MOVLW  12
0B70C:  MOVWF  FF7
0B70E:  MOVLW  00
0B710:  MOVWF  FF8
0B712:  MOVLB  0
0B714:  CALL   3FF2
....................          SendDataDisplay();      
0B718:  CALL   4024
0B71C:  MOVLB  1
....................       } 
....................        
....................       if(RX_Buffer[4]==0x03){//03, Modificacin de clave Usuarios 
0B71E:  MOVF   34,W
0B720:  SUBLW  03
0B722:  BNZ   B73C
....................          printf("page Usuarios"); 
0B724:  MOVLW  AA
0B726:  MOVWF  FF6
0B728:  MOVLW  12
0B72A:  MOVWF  FF7
0B72C:  MOVLW  00
0B72E:  MOVWF  FF8
0B730:  MOVLB  0
0B732:  CALL   3FF2
....................          SendDataDisplay();      
0B736:  CALL   4024
0B73A:  MOVLB  1
....................       } 
....................        
....................       if(RX_Buffer[4]==0x04){//03, Modificacin de clave Usuarios 
0B73C:  MOVF   34,W
0B73E:  SUBLW  04
0B740:  BNZ   B75A
....................          printf("page Activa"); 
0B742:  MOVLW  B8
0B744:  MOVWF  FF6
0B746:  MOVLW  12
0B748:  MOVWF  FF7
0B74A:  MOVLW  00
0B74C:  MOVWF  FF8
0B74E:  MOVLB  0
0B750:  CALL   3FF2
....................          SendDataDisplay();      
0B754:  CALL   4024
0B758:  MOVLB  1
....................       } 
....................        
....................       if(RX_Buffer[4]==0x11 && CodigoUsuario==9){//11, Menu Oculto Tecnico 
0B75A:  MOVF   34,W
0B75C:  SUBLW  11
0B75E:  BNZ   B78A
0B760:  MOVLB  2
0B762:  MOVF   xA8,W
0B764:  SUBLW  09
0B766:  BTFSC  FD8.2
0B768:  BRA    B76E
0B76A:  MOVLB  1
0B76C:  BRA    B78A
....................          printf("page Clave"); 
0B76E:  MOVLW  C4
0B770:  MOVWF  FF6
0B772:  MOVLW  12
0B774:  MOVWF  FF7
0B776:  MOVLW  00
0B778:  MOVWF  FF8
0B77A:  MOVLB  0
0B77C:  CALL   3FF2
....................          SendDataDisplay();  
0B780:  CALL   4024
....................          TipoClave=1; 
0B784:  MOVLW  01
0B786:  MOVLB  1
0B788:  MOVWF  xEF
....................       } 
....................        
....................       if(RX_Buffer[4]==0x05){//05, Hora y Fecha 
0B78A:  MOVF   34,W
0B78C:  SUBLW  05
0B78E:  BNZ   B7BC
....................          printf("page Fecha"); 
0B790:  MOVLW  D0
0B792:  MOVWF  FF6
0B794:  MOVLW  12
0B796:  MOVWF  FF7
0B798:  MOVLW  00
0B79A:  MOVWF  FF8
0B79C:  MOVLB  0
0B79E:  CALL   3FF2
....................          SendDataDisplay();      
0B7A2:  CALL   4024
....................          DiaTx=Dia; 
0B7A6:  MOVFF  293,2A0
....................          MesTx=Mes; 
0B7AA:  MOVFF  292,29F
....................          YearTx=Year; 
0B7AE:  MOVFF  291,29E
....................          HoraTx=Hora; 
0B7B2:  MOVFF  294,2A1
....................          MinutoTx=Minuto; 
0B7B6:  MOVFF  295,2A2
0B7BA:  MOVLB  1
....................       } 
....................        
....................       if(RX_Buffer[4]==0xa0){//a0, Menu Principal 
0B7BC:  MOVF   34,W
0B7BE:  SUBLW  A0
0B7C0:  BNZ   B7DA
....................          printf("page Menu"); 
0B7C2:  MOVLW  DC
0B7C4:  MOVWF  FF6
0B7C6:  MOVLW  12
0B7C8:  MOVWF  FF7
0B7CA:  MOVLW  00
0B7CC:  MOVWF  FF8
0B7CE:  MOVLB  0
0B7D0:  CALL   3FF2
....................          SendDataDisplay();      
0B7D4:  CALL   4024
0B7D8:  MOVLB  1
....................       } 
....................        
....................       if(RX_Buffer[4]==0xb0){//b0, Personalizados 
0B7DA:  MOVF   34,W
0B7DC:  SUBLW  B0
0B7DE:  BNZ   B7F8
....................          printf("page CicloPersona"); 
0B7E0:  MOVLW  E6
0B7E2:  MOVWF  FF6
0B7E4:  MOVLW  12
0B7E6:  MOVWF  FF7
0B7E8:  MOVLW  00
0B7EA:  MOVWF  FF8
0B7EC:  MOVLB  0
0B7EE:  CALL   3FF2
....................          SendDataDisplay();      
0B7F2:  CALL   4024
0B7F6:  MOVLB  1
....................       } 
....................        
....................       if(RX_Buffer[4]==0xc0){//c0, Configuraciones 
0B7F8:  MOVF   34,W
0B7FA:  SUBLW  C0
0B7FC:  BNZ   B816
....................          printf("page Ajustes"); 
0B7FE:  MOVLW  F8
0B800:  MOVWF  FF6
0B802:  MOVLW  12
0B804:  MOVWF  FF7
0B806:  MOVLW  00
0B808:  MOVWF  FF8
0B80A:  MOVLB  0
0B80C:  CALL   3FF2
....................          SendDataDisplay();      
0B810:  CALL   4024
0B814:  MOVLB  1
....................       } 
....................    }else if(Menu==12){//Menu de Visualizacion de Ciclos Realizados 
0B816:  GOTO   EDD6
0B81A:  MOVLB  2
0B81C:  MOVF   x52,W
0B81E:  SUBLW  0C
0B820:  BTFSS  FD8.2
0B822:  GOTO   C3C6
....................       //printf("fecha.txt=\"Fecha:%02u/%02u/20%02u    Hora: %02u:%02u\"",Dia,Mes,Year,Hora,Minuto); 
....................       //SendDataDisplay(); 
....................       GuardaEEPROM=OFF; 
0B826:  MOVLB  1
0B828:  BCF    x04.3
....................        
....................       i2c_start();            // Comienzo de la comunicacin 
0B82A:  BSF    F94.4
0B82C:  MOVLW  05
0B82E:  MOVWF  00
0B830:  DECFSZ 00,F
0B832:  BRA    B830
0B834:  BSF    F94.3
0B836:  MOVLW  06
0B838:  MOVWF  00
0B83A:  DECFSZ 00,F
0B83C:  BRA    B83A
0B83E:  BCF    F8B.4
0B840:  BCF    F94.4
0B842:  MOVLW  05
0B844:  MOVWF  00
0B846:  DECFSZ 00,F
0B848:  BRA    B846
0B84A:  BCF    F8B.3
0B84C:  BCF    F94.3
....................       i2c_write(0xB0);   // Direccin del esclavo en el bus I2C 
0B84E:  MOVLW  B0
0B850:  MOVLB  6
0B852:  MOVWF  xBE
0B854:  MOVLB  0
0B856:  CALL   2404
....................       i2c_write(9);    // Posicin de donde se leer el dato en el esclavo 
0B85A:  MOVLW  09
0B85C:  MOVLB  6
0B85E:  MOVWF  xBE
0B860:  MOVLB  0
0B862:  CALL   2404
....................       i2c_write(0);    // Posicin de donde se leer el dato en el esclavo 
0B866:  MOVLB  6
0B868:  CLRF   xBE
0B86A:  MOVLB  0
0B86C:  CALL   2404
....................       i2c_start();            // Reinicio 
0B870:  BSF    F94.4
0B872:  MOVLW  05
0B874:  MOVWF  00
0B876:  DECFSZ 00,F
0B878:  BRA    B876
0B87A:  BSF    F94.3
0B87C:  MOVLW  06
0B87E:  MOVWF  00
0B880:  DECFSZ 00,F
0B882:  BRA    B880
0B884:  BTFSS  F82.3
0B886:  BRA    B884
0B888:  BCF    F8B.4
0B88A:  BCF    F94.4
0B88C:  MOVLW  05
0B88E:  MOVWF  00
0B890:  DECFSZ 00,F
0B892:  BRA    B890
0B894:  BCF    F8B.3
0B896:  BCF    F94.3
....................       i2c_write(direccion+1); // Direccin del esclavo en modo lectura 
0B898:  MOVLW  01
0B89A:  ADDWF  xDD,W
0B89C:  MOVLB  6
0B89E:  MOVWF  xA8
0B8A0:  MOVWF  xBE
0B8A2:  MOVLB  0
0B8A4:  CALL   2404
....................       dato=i2c_read(0);       // Lectura del dato 
0B8A8:  CLRF   00
0B8AA:  CALL   247A
0B8AE:  MOVFF  01,DC
....................       i2c_stop(); 
0B8B2:  BCF    F94.4
0B8B4:  NOP   
0B8B6:  BSF    F94.3
0B8B8:  BTFSS  F82.3
0B8BA:  BRA    B8B8
0B8BC:  MOVLW  05
0B8BE:  MOVWF  00
0B8C0:  DECFSZ 00,F
0B8C2:  BRA    B8C0
0B8C4:  BRA    B8C6
0B8C6:  NOP   
0B8C8:  BSF    F94.4
0B8CA:  MOVLW  05
0B8CC:  MOVWF  00
0B8CE:  DECFSZ 00,F
0B8D0:  BRA    B8CE
....................        
....................       printf("estado.txt=\"Oprima Exportar para imprimir\""); 
0B8D2:  MOVLW  06
0B8D4:  MOVWF  FF6
0B8D6:  MOVLW  13
0B8D8:  MOVWF  FF7
0B8DA:  MOVLW  00
0B8DC:  MOVWF  FF8
0B8DE:  CALL   3FF2
....................       SendDataDisplay();      
0B8E2:  CALL   4024
....................        
....................       if(RX_Buffer[6]==0x01){//01, Ciclos 
0B8E6:  DECFSZ 36,W
0B8E8:  BRA    B8FE
....................          printf("page Ajustes"); 
0B8EA:  MOVLW  32
0B8EC:  MOVWF  FF6
0B8EE:  MOVLW  13
0B8F0:  MOVWF  FF7
0B8F2:  MOVLW  00
0B8F4:  MOVWF  FF8
0B8F6:  CALL   3FF2
....................          SendDataDisplay();      
0B8FA:  CALL   4024
....................       } 
....................        
....................       if(RX_Buffer[6]==0x02){//02, Exportar 
0B8FE:  MOVF   36,W
0B900:  SUBLW  02
0B902:  BNZ   B90C
....................          RX_Buffer[6]=0x00;   
0B904:  CLRF   36
....................          RX_Buffer2[6]=0x00; 
0B906:  CLRF   41
....................          exportarData(); 
0B908:  GOTO   60D8
....................       } 
....................        
....................       if(RX_Buffer[4]>0x00 && RX_Buffer[5]>0x00){ 
0B90C:  MOVF   34,F
0B90E:  BTFSC  FD8.2
0B910:  BRA    BFCE
0B912:  MOVF   35,F
0B914:  BTFSC  FD8.2
0B916:  BRA    BFCE
....................          cicloVisualizado=RX_Buffer[4]-1; 
0B918:  MOVLW  01
0B91A:  SUBWF  34,W
0B91C:  MOVLB  2
0B91E:  MOVWF  x98
....................          cicloVisto=RX_Buffer[5]-1; 
0B920:  MOVLW  01
0B922:  SUBWF  35,W
0B924:  MOVWF  x99
....................          RX_Buffer[4]=0x00; 
0B926:  CLRF   34
....................          RX_Buffer[5]=0x00; 
0B928:  CLRF   35
....................          RX_Buffer2[4]=0x00; 
0B92A:  CLRF   3F
....................          RX_Buffer2[5]=0x00; 
0B92C:  CLRF   40
....................          diaCiclos=read_ext_eeprom(2+(cicloVisto*320)); 
0B92E:  MOVLB  6
0B930:  CLRF   xB3
0B932:  MOVFF  299,6B2
0B936:  MOVLW  01
0B938:  MOVWF  xB5
0B93A:  MOVLW  40
0B93C:  MOVWF  xB4
0B93E:  MOVLB  0
0B940:  CALL   23E2
0B944:  MOVFF  02,03
0B948:  MOVF   01,W
0B94A:  ADDLW  02
0B94C:  MOVLB  6
0B94E:  MOVWF  xA8
0B950:  MOVLW  00
0B952:  ADDWFC 02,W
0B954:  MOVWF  xA9
0B956:  MOVWF  xAE
0B958:  MOVFF  6A8,6AD
0B95C:  MOVLB  0
0B95E:  CALL   24E4
0B962:  MOVFF  01,30F
....................          if(diaCiclos>31) 
0B966:  MOVLB  3
0B968:  MOVF   x0F,W
0B96A:  SUBLW  1F
0B96C:  BC    B972
....................             diaCiclos=1; 
0B96E:  MOVLW  01
0B970:  MOVWF  x0F
....................          mesCiclos=read_ext_eeprom(3+(cicloVisto*320)); 
0B972:  MOVLB  6
0B974:  CLRF   xB3
0B976:  MOVFF  299,6B2
0B97A:  MOVLW  01
0B97C:  MOVWF  xB5
0B97E:  MOVLW  40
0B980:  MOVWF  xB4
0B982:  MOVLB  0
0B984:  CALL   23E2
0B988:  MOVFF  02,03
0B98C:  MOVF   01,W
0B98E:  ADDLW  03
0B990:  MOVLB  6
0B992:  MOVWF  xA8
0B994:  MOVLW  00
0B996:  ADDWFC 02,W
0B998:  MOVWF  xA9
0B99A:  MOVWF  xAE
0B99C:  MOVFF  6A8,6AD
0B9A0:  MOVLB  0
0B9A2:  CALL   24E4
0B9A6:  MOVFF  01,310
....................          if(mesCiclos>12) 
0B9AA:  MOVLB  3
0B9AC:  MOVF   x10,W
0B9AE:  SUBLW  0C
0B9B0:  BC    B9B6
....................             mesCiclos=1; 
0B9B2:  MOVLW  01
0B9B4:  MOVWF  x10
....................          yearCiclos=read_ext_eeprom(4+(cicloVisto*320)); 
0B9B6:  MOVLB  6
0B9B8:  CLRF   xB3
0B9BA:  MOVFF  299,6B2
0B9BE:  MOVLW  01
0B9C0:  MOVWF  xB5
0B9C2:  MOVLW  40
0B9C4:  MOVWF  xB4
0B9C6:  MOVLB  0
0B9C8:  CALL   23E2
0B9CC:  MOVFF  02,03
0B9D0:  MOVF   01,W
0B9D2:  ADDLW  04
0B9D4:  MOVLB  6
0B9D6:  MOVWF  xA8
0B9D8:  MOVLW  00
0B9DA:  ADDWFC 02,W
0B9DC:  MOVWF  xA9
0B9DE:  MOVWF  xAE
0B9E0:  MOVFF  6A8,6AD
0B9E4:  MOVLB  0
0B9E6:  CALL   24E4
0B9EA:  MOVFF  01,311
....................          if(yearCiclos>99) 
0B9EE:  MOVLB  3
0B9F0:  MOVF   x11,W
0B9F2:  SUBLW  63
0B9F4:  BC    B9FA
....................             yearCiclos=19; 
0B9F6:  MOVLW  13
0B9F8:  MOVWF  x11
....................          cicloCiclos=read_ext_eeprom(1+(cicloVisto*320)); 
0B9FA:  MOVLB  6
0B9FC:  CLRF   xB3
0B9FE:  MOVFF  299,6B2
0BA02:  MOVLW  01
0BA04:  MOVWF  xB5
0BA06:  MOVLW  40
0BA08:  MOVWF  xB4
0BA0A:  MOVLB  0
0BA0C:  CALL   23E2
0BA10:  MOVFF  02,03
0BA14:  MOVF   01,W
0BA16:  ADDLW  01
0BA18:  MOVLB  6
0BA1A:  MOVWF  xA8
0BA1C:  MOVLW  00
0BA1E:  ADDWFC 02,W
0BA20:  MOVWF  xA9
0BA22:  MOVWF  xAE
0BA24:  MOVFF  6A8,6AD
0BA28:  MOVLB  0
0BA2A:  CALL   24E4
0BA2E:  MOVFF  01,313
....................          if(cicloCiclos>20) 
0BA32:  MOVLB  3
0BA34:  MOVF   x13,W
0BA36:  SUBLW  14
0BA38:  BC    BA3E
....................             cicloCiclos=1; 
0BA3A:  MOVLW  01
0BA3C:  MOVWF  x13
....................          usuarioCiclos=read_ext_eeprom((cicloVisto*320)); 
0BA3E:  MOVLB  6
0BA40:  CLRF   xB3
0BA42:  MOVFF  299,6B2
0BA46:  MOVLW  01
0BA48:  MOVWF  xB5
0BA4A:  MOVLW  40
0BA4C:  MOVWF  xB4
0BA4E:  MOVLB  0
0BA50:  CALL   23E2
0BA54:  MOVFF  02,6A9
0BA58:  MOVFF  01,6A8
0BA5C:  MOVFF  02,6AE
0BA60:  MOVFF  01,6AD
0BA64:  CALL   24E4
0BA68:  MOVFF  01,312
....................          if(usuarioCiclos>10) 
0BA6C:  MOVLB  3
0BA6E:  MOVF   x12,W
0BA70:  SUBLW  0A
0BA72:  BC    BA78
....................             usuarioCiclos=1; 
0BA74:  MOVLW  01
0BA76:  MOVWF  x12
....................          for(i=0;i<7;i++){//Lee Valores para completar la Tabla 
0BA78:  MOVLB  2
0BA7A:  CLRF   x55
0BA7C:  MOVF   x55,W
0BA7E:  SUBLW  06
0BA80:  BTFSS  FD8.0
0BA82:  BRA    BFCC
....................             horaCiclos[i]=read_ext_eeprom((cicloVisto*320)+11+((cicloVisualizado+i)*9)); 
0BA84:  CLRF   03
0BA86:  MOVF   x55,W
0BA88:  ADDLW  FA
0BA8A:  MOVWF  01
0BA8C:  MOVLW  02
0BA8E:  ADDWFC 03,F
0BA90:  MOVFF  01,6A8
0BA94:  MOVLB  6
0BA96:  MOVFF  03,6A9
0BA9A:  CLRF   xB3
0BA9C:  MOVFF  299,6B2
0BAA0:  MOVLW  01
0BAA2:  MOVWF  xB5
0BAA4:  MOVLW  40
0BAA6:  MOVWF  xB4
0BAA8:  MOVLB  0
0BAAA:  CALL   23E2
0BAAE:  MOVFF  02,6AB
0BAB2:  MOVFF  01,6AA
0BAB6:  MOVLW  0B
0BAB8:  MOVLB  6
0BABA:  ADDWF  xAA,F
0BABC:  MOVLW  00
0BABE:  ADDWFC xAB,F
0BAC0:  MOVLB  2
0BAC2:  MOVF   x55,W
0BAC4:  ADDWF  x98,W
0BAC6:  MULLW  09
0BAC8:  MOVF   FF3,W
0BACA:  MOVLB  6
0BACC:  ADDWF  xAA,F
0BACE:  MOVLW  00
0BAD0:  ADDWFC xAB,F
0BAD2:  MOVFF  6AB,6AE
0BAD6:  MOVFF  6AA,6AD
0BADA:  MOVLB  0
0BADC:  CALL   24E4
0BAE0:  MOVFF  6A9,FEA
0BAE4:  MOVFF  6A8,FE9
0BAE8:  MOVFF  01,FEF
....................             if(horaCiclos[i]>24) 
0BAEC:  CLRF   03
0BAEE:  MOVLB  2
0BAF0:  MOVF   x55,W
0BAF2:  ADDLW  FA
0BAF4:  MOVWF  FE9
0BAF6:  MOVLW  02
0BAF8:  ADDWFC 03,W
0BAFA:  MOVWF  FEA
0BAFC:  MOVF   FEF,W
0BAFE:  SUBLW  18
0BB00:  BC    BB12
....................                horaCiclos[i]=0; 
0BB02:  CLRF   03
0BB04:  MOVF   x55,W
0BB06:  ADDLW  FA
0BB08:  MOVWF  FE9
0BB0A:  MOVLW  02
0BB0C:  ADDWFC 03,W
0BB0E:  MOVWF  FEA
0BB10:  CLRF   FEF
....................             minutoCiclos[i]=read_ext_eeprom((cicloVisto*320)+12+((cicloVisualizado+i)*9)); 
0BB12:  CLRF   03
0BB14:  MOVF   x55,W
0BB16:  ADDLW  01
0BB18:  MOVWF  01
0BB1A:  MOVLW  03
0BB1C:  ADDWFC 03,F
0BB1E:  MOVFF  01,6A8
0BB22:  MOVLB  6
0BB24:  MOVFF  03,6A9
0BB28:  CLRF   xB3
0BB2A:  MOVFF  299,6B2
0BB2E:  MOVLW  01
0BB30:  MOVWF  xB5
0BB32:  MOVLW  40
0BB34:  MOVWF  xB4
0BB36:  MOVLB  0
0BB38:  CALL   23E2
0BB3C:  MOVFF  02,6AB
0BB40:  MOVFF  01,6AA
0BB44:  MOVLW  0C
0BB46:  MOVLB  6
0BB48:  ADDWF  xAA,F
0BB4A:  MOVLW  00
0BB4C:  ADDWFC xAB,F
0BB4E:  MOVLB  2
0BB50:  MOVF   x55,W
0BB52:  ADDWF  x98,W
0BB54:  MULLW  09
0BB56:  MOVF   FF3,W
0BB58:  MOVLB  6
0BB5A:  ADDWF  xAA,F
0BB5C:  MOVLW  00
0BB5E:  ADDWFC xAB,F
0BB60:  MOVFF  6AB,6AE
0BB64:  MOVFF  6AA,6AD
0BB68:  MOVLB  0
0BB6A:  CALL   24E4
0BB6E:  MOVFF  6A9,FEA
0BB72:  MOVFF  6A8,FE9
0BB76:  MOVFF  01,FEF
....................             if(minutoCiclos[i]>59) 
0BB7A:  CLRF   03
0BB7C:  MOVLB  2
0BB7E:  MOVF   x55,W
0BB80:  ADDLW  01
0BB82:  MOVWF  FE9
0BB84:  MOVLW  03
0BB86:  ADDWFC 03,W
0BB88:  MOVWF  FEA
0BB8A:  MOVF   FEF,W
0BB8C:  SUBLW  3B
0BB8E:  BC    BBA0
....................                minutoCiclos[i]=0; 
0BB90:  CLRF   03
0BB92:  MOVF   x55,W
0BB94:  ADDLW  01
0BB96:  MOVWF  FE9
0BB98:  MOVLW  03
0BB9A:  ADDWFC 03,W
0BB9C:  MOVWF  FEA
0BB9E:  CLRF   FEF
....................             TCiclos[i]=read_ext_eeprom((cicloVisto*320)+5+((cicloVisualizado+i)*9))+inttofloat(read_ext_eeprom((cicloVisto*320)+6+((cicloVisualizado+i)*9))); 
0BBA0:  MOVF   x55,W
0BBA2:  MULLW  04
0BBA4:  MOVF   FF3,W
0BBA6:  CLRF   03
0BBA8:  ADDLW  C2
0BBAA:  MOVWF  01
0BBAC:  MOVLW  02
0BBAE:  ADDWFC 03,F
0BBB0:  MOVFF  01,6A8
0BBB4:  MOVLB  6
0BBB6:  MOVFF  03,6A9
0BBBA:  CLRF   xB3
0BBBC:  MOVFF  299,6B2
0BBC0:  MOVLW  01
0BBC2:  MOVWF  xB5
0BBC4:  MOVLW  40
0BBC6:  MOVWF  xB4
0BBC8:  MOVLB  0
0BBCA:  CALL   23E2
0BBCE:  MOVFF  02,6AB
0BBD2:  MOVFF  01,6AA
0BBD6:  MOVLW  05
0BBD8:  MOVLB  6
0BBDA:  ADDWF  xAA,F
0BBDC:  MOVLW  00
0BBDE:  ADDWFC xAB,F
0BBE0:  MOVLB  2
0BBE2:  MOVF   x55,W
0BBE4:  ADDWF  x98,W
0BBE6:  MULLW  09
0BBE8:  MOVF   FF3,W
0BBEA:  MOVLB  6
0BBEC:  ADDWF  xAA,F
0BBEE:  MOVLW  00
0BBF0:  ADDWFC xAB,F
0BBF2:  MOVFF  6AB,6AE
0BBF6:  MOVFF  6AA,6AD
0BBFA:  MOVLB  0
0BBFC:  CALL   24E4
0BC00:  MOVFF  01,6AA
0BC04:  MOVLB  6
0BC06:  CLRF   xB3
0BC08:  MOVFF  299,6B2
0BC0C:  MOVLW  01
0BC0E:  MOVWF  xB5
0BC10:  MOVLW  40
0BC12:  MOVWF  xB4
0BC14:  MOVLB  0
0BC16:  CALL   23E2
0BC1A:  MOVFF  02,6AC
0BC1E:  MOVFF  01,6AB
0BC22:  MOVLW  06
0BC24:  MOVLB  6
0BC26:  ADDWF  xAB,F
0BC28:  MOVLW  00
0BC2A:  ADDWFC xAC,F
0BC2C:  MOVLB  2
0BC2E:  MOVF   x55,W
0BC30:  ADDWF  x98,W
0BC32:  MULLW  09
0BC34:  MOVF   FF3,W
0BC36:  MOVLB  6
0BC38:  ADDWF  xAB,F
0BC3A:  MOVLW  00
0BC3C:  ADDWFC xAC,F
0BC3E:  MOVFF  6AC,6AE
0BC42:  MOVFF  6AB,6AD
0BC46:  MOVLB  0
0BC48:  CALL   24E4
0BC4C:  MOVFF  01,6AB
0BC50:  MOVFF  01,6AC
0BC54:  CALL   258C
0BC58:  MOVFF  00,6AB
0BC5C:  MOVFF  01,6AC
0BC60:  MOVFF  02,6AD
0BC64:  MOVFF  03,6AE
0BC68:  MOVLB  6
0BC6A:  CLRF   xBB
0BC6C:  MOVFF  6AA,6BA
0BC70:  MOVLB  0
0BC72:  CALL   1F3A
0BC76:  MOVFF  FEA,6B0
0BC7A:  MOVFF  FE9,6AF
0BC7E:  BCF    FD8.1
0BC80:  MOVFF  03,6BD
0BC84:  MOVFF  02,6BC
0BC88:  MOVFF  01,6BB
0BC8C:  MOVFF  00,6BA
0BC90:  MOVFF  6AE,6C1
0BC94:  MOVFF  6AD,6C0
0BC98:  MOVFF  6AC,6BF
0BC9C:  MOVFF  6AB,6BE
0BCA0:  CALL   20F6
0BCA4:  MOVFF  6B0,FEA
0BCA8:  MOVFF  6AF,FE9
0BCAC:  MOVFF  6A9,FEA
0BCB0:  MOVFF  6A8,FE9
0BCB4:  MOVFF  00,FEF
0BCB8:  MOVFF  01,FEC
0BCBC:  MOVFF  02,FEC
0BCC0:  MOVFF  03,FEC
....................             if(TCiclos[i]>150) 
0BCC4:  MOVLB  2
0BCC6:  MOVF   x55,W
0BCC8:  MULLW  04
0BCCA:  MOVF   FF3,W
0BCCC:  CLRF   03
0BCCE:  ADDLW  C2
0BCD0:  MOVWF  FE9
0BCD2:  MOVLW  02
0BCD4:  ADDWFC 03,W
0BCD6:  MOVWF  FEA
0BCD8:  MOVFF  FEF,6A8
0BCDC:  MOVFF  FEC,6A9
0BCE0:  MOVFF  FEC,6AA
0BCE4:  MOVFF  FEC,6AB
0BCE8:  MOVLB  6
0BCEA:  CLRF   xAF
0BCEC:  CLRF   xAE
0BCEE:  MOVLW  16
0BCF0:  MOVWF  xAD
0BCF2:  MOVLW  86
0BCF4:  MOVWF  xAC
0BCF6:  MOVFF  6AB,6B3
0BCFA:  MOVFF  6AA,6B2
0BCFE:  MOVFF  6A9,6B1
0BD02:  MOVFF  6A8,6B0
0BD06:  MOVLB  0
0BD08:  CALL   25CC
0BD0C:  BNC   BD2C
....................                TCiclos[i]=0; 
0BD0E:  MOVLB  2
0BD10:  MOVF   x55,W
0BD12:  MULLW  04
0BD14:  MOVF   FF3,W
0BD16:  CLRF   03
0BD18:  ADDLW  C2
0BD1A:  MOVWF  FE9
0BD1C:  MOVLW  02
0BD1E:  ADDWFC 03,W
0BD20:  MOVWF  FEA
0BD22:  CLRF   FEF
0BD24:  CLRF   FEC
0BD26:  CLRF   FEC
0BD28:  CLRF   FEC
0BD2A:  MOVLB  0
....................             PcCiclos[i]=make16(read_ext_eeprom((cicloVisto*320)+7+((cicloVisualizado+i)*9)),read_ext_eeprom((cicloVisto*320)+8+((cicloVisualizado+i)*9))); 
0BD2C:  BCF    FD8.0
0BD2E:  MOVLB  2
0BD30:  RLCF   x55,W
0BD32:  CLRF   03
0BD34:  ADDLW  DE
0BD36:  MOVWF  01
0BD38:  MOVLW  02
0BD3A:  ADDWFC 03,F
0BD3C:  MOVFF  01,6A8
0BD40:  MOVLB  6
0BD42:  MOVFF  03,6A9
0BD46:  CLRF   xB3
0BD48:  MOVFF  299,6B2
0BD4C:  MOVLW  01
0BD4E:  MOVWF  xB5
0BD50:  MOVLW  40
0BD52:  MOVWF  xB4
0BD54:  MOVLB  0
0BD56:  CALL   23E2
0BD5A:  MOVFF  02,6AB
0BD5E:  MOVFF  01,6AA
0BD62:  MOVLW  07
0BD64:  MOVLB  6
0BD66:  ADDWF  xAA,F
0BD68:  MOVLW  00
0BD6A:  ADDWFC xAB,F
0BD6C:  MOVLB  2
0BD6E:  MOVF   x55,W
0BD70:  ADDWF  x98,W
0BD72:  MULLW  09
0BD74:  MOVF   FF3,W
0BD76:  MOVLB  6
0BD78:  ADDWF  xAA,F
0BD7A:  MOVLW  00
0BD7C:  ADDWFC xAB,F
0BD7E:  MOVFF  6AB,6AE
0BD82:  MOVFF  6AA,6AD
0BD86:  MOVLB  0
0BD88:  CALL   24E4
0BD8C:  MOVFF  01,6AA
0BD90:  MOVLB  6
0BD92:  CLRF   xB3
0BD94:  MOVFF  299,6B2
0BD98:  MOVLW  01
0BD9A:  MOVWF  xB5
0BD9C:  MOVLW  40
0BD9E:  MOVWF  xB4
0BDA0:  MOVLB  0
0BDA2:  CALL   23E2
0BDA6:  MOVFF  02,6AC
0BDAA:  MOVFF  01,6AB
0BDAE:  MOVLW  08
0BDB0:  MOVLB  6
0BDB2:  ADDWF  xAB,F
0BDB4:  MOVLW  00
0BDB6:  ADDWFC xAC,F
0BDB8:  MOVLB  2
0BDBA:  MOVF   x55,W
0BDBC:  ADDWF  x98,W
0BDBE:  MULLW  09
0BDC0:  MOVF   FF3,W
0BDC2:  MOVLB  6
0BDC4:  ADDWF  xAB,F
0BDC6:  MOVLW  00
0BDC8:  ADDWFC xAC,F
0BDCA:  MOVFF  6AC,6AE
0BDCE:  MOVFF  6AB,6AD
0BDD2:  MOVLB  0
0BDD4:  CALL   24E4
0BDD8:  MOVFF  6A9,FEA
0BDDC:  MOVFF  6A8,FE9
0BDE0:  MOVFF  6AA,FEC
0BDE4:  MOVF   FED,F
0BDE6:  MOVFF  01,FEF
....................             if(PcCiclos[i]>400) 
0BDEA:  BCF    FD8.0
0BDEC:  MOVLB  2
0BDEE:  RLCF   x55,W
0BDF0:  CLRF   03
0BDF2:  ADDLW  DE
0BDF4:  MOVWF  FE9
0BDF6:  MOVLW  02
0BDF8:  ADDWFC 03,W
0BDFA:  MOVWF  FEA
0BDFC:  MOVFF  FEC,6A9
0BE00:  MOVF   FED,F
0BE02:  MOVFF  FEF,6A8
0BE06:  MOVLB  6
0BE08:  MOVF   xA9,W
0BE0A:  SUBLW  00
0BE0C:  BC    BE32
0BE0E:  XORLW  FF
0BE10:  BNZ   BE18
0BE12:  MOVF   xA8,W
0BE14:  SUBLW  90
0BE16:  BC    BE32
....................                PcCiclos[i]=0; 
0BE18:  BCF    FD8.0
0BE1A:  MOVLB  2
0BE1C:  RLCF   x55,W
0BE1E:  CLRF   03
0BE20:  ADDLW  DE
0BE22:  MOVWF  FE9
0BE24:  MOVLW  02
0BE26:  ADDWFC 03,W
0BE28:  MOVWF  FEA
0BE2A:  CLRF   FEC
0BE2C:  MOVF   FED,F
0BE2E:  CLRF   FEF
0BE30:  MOVLB  6
....................             PpcCiclos[i]=make16(read_ext_eeprom((cicloVisto*320)+9+((cicloVisualizado+i)*9)),read_ext_eeprom((cicloVisto*320)+10+((cicloVisualizado+i)*9))); 
0BE32:  BCF    FD8.0
0BE34:  MOVLB  2
0BE36:  RLCF   x55,W
0BE38:  CLRF   03
0BE3A:  ADDLW  EC
0BE3C:  MOVWF  01
0BE3E:  MOVLW  02
0BE40:  ADDWFC 03,F
0BE42:  MOVFF  01,6A8
0BE46:  MOVLB  6
0BE48:  MOVFF  03,6A9
0BE4C:  CLRF   xB3
0BE4E:  MOVFF  299,6B2
0BE52:  MOVLW  01
0BE54:  MOVWF  xB5
0BE56:  MOVLW  40
0BE58:  MOVWF  xB4
0BE5A:  MOVLB  0
0BE5C:  CALL   23E2
0BE60:  MOVFF  02,6AB
0BE64:  MOVFF  01,6AA
0BE68:  MOVLW  09
0BE6A:  MOVLB  6
0BE6C:  ADDWF  xAA,F
0BE6E:  MOVLW  00
0BE70:  ADDWFC xAB,F
0BE72:  MOVLB  2
0BE74:  MOVF   x55,W
0BE76:  ADDWF  x98,W
0BE78:  MULLW  09
0BE7A:  MOVF   FF3,W
0BE7C:  MOVLB  6
0BE7E:  ADDWF  xAA,F
0BE80:  MOVLW  00
0BE82:  ADDWFC xAB,F
0BE84:  MOVFF  6AB,6AE
0BE88:  MOVFF  6AA,6AD
0BE8C:  MOVLB  0
0BE8E:  CALL   24E4
0BE92:  MOVFF  01,6AA
0BE96:  MOVLB  6
0BE98:  CLRF   xB3
0BE9A:  MOVFF  299,6B2
0BE9E:  MOVLW  01
0BEA0:  MOVWF  xB5
0BEA2:  MOVLW  40
0BEA4:  MOVWF  xB4
0BEA6:  MOVLB  0
0BEA8:  CALL   23E2
0BEAC:  MOVFF  02,6AC
0BEB0:  MOVFF  01,6AB
0BEB4:  MOVLW  0A
0BEB6:  MOVLB  6
0BEB8:  ADDWF  xAB,F
0BEBA:  MOVLW  00
0BEBC:  ADDWFC xAC,F
0BEBE:  MOVLB  2
0BEC0:  MOVF   x55,W
0BEC2:  ADDWF  x98,W
0BEC4:  MULLW  09
0BEC6:  MOVF   FF3,W
0BEC8:  MOVLB  6
0BECA:  ADDWF  xAB,F
0BECC:  MOVLW  00
0BECE:  ADDWFC xAC,F
0BED0:  MOVFF  6AC,6AE
0BED4:  MOVFF  6AB,6AD
0BED8:  MOVLB  0
0BEDA:  CALL   24E4
0BEDE:  MOVFF  6A9,FEA
0BEE2:  MOVFF  6A8,FE9
0BEE6:  MOVFF  6AA,FEC
0BEEA:  MOVF   FED,F
0BEEC:  MOVFF  01,FEF
....................             if(PpcCiclos[i]>400) 
0BEF0:  BCF    FD8.0
0BEF2:  MOVLB  2
0BEF4:  RLCF   x55,W
0BEF6:  CLRF   03
0BEF8:  ADDLW  EC
0BEFA:  MOVWF  FE9
0BEFC:  MOVLW  02
0BEFE:  ADDWFC 03,W
0BF00:  MOVWF  FEA
0BF02:  MOVFF  FEC,6A9
0BF06:  MOVF   FED,F
0BF08:  MOVFF  FEF,6A8
0BF0C:  MOVLB  6
0BF0E:  MOVF   xA9,W
0BF10:  SUBLW  00
0BF12:  BC    BF38
0BF14:  XORLW  FF
0BF16:  BNZ   BF1E
0BF18:  MOVF   xA8,W
0BF1A:  SUBLW  90
0BF1C:  BC    BF38
....................                PpcCiclos[i]=0; 
0BF1E:  BCF    FD8.0
0BF20:  MOVLB  2
0BF22:  RLCF   x55,W
0BF24:  CLRF   03
0BF26:  ADDLW  EC
0BF28:  MOVWF  FE9
0BF2A:  MOVLW  02
0BF2C:  ADDWFC 03,W
0BF2E:  MOVWF  FEA
0BF30:  CLRF   FEC
0BF32:  MOVF   FED,F
0BF34:  CLRF   FEF
0BF36:  MOVLB  6
....................             ACiclos[i]=read_ext_eeprom((cicloVisto*320)+13+((cicloVisualizado+i)*9)); 
0BF38:  CLRF   03
0BF3A:  MOVLB  2
0BF3C:  MOVF   x55,W
0BF3E:  ADDLW  08
0BF40:  MOVWF  01
0BF42:  MOVLW  03
0BF44:  ADDWFC 03,F
0BF46:  MOVFF  01,6A8
0BF4A:  MOVLB  6
0BF4C:  MOVFF  03,6A9
0BF50:  CLRF   xB3
0BF52:  MOVFF  299,6B2
0BF56:  MOVLW  01
0BF58:  MOVWF  xB5
0BF5A:  MOVLW  40
0BF5C:  MOVWF  xB4
0BF5E:  MOVLB  0
0BF60:  CALL   23E2
0BF64:  MOVFF  02,6AB
0BF68:  MOVFF  01,6AA
0BF6C:  MOVLW  0D
0BF6E:  MOVLB  6
0BF70:  ADDWF  xAA,F
0BF72:  MOVLW  00
0BF74:  ADDWFC xAB,F
0BF76:  MOVLB  2
0BF78:  MOVF   x55,W
0BF7A:  ADDWF  x98,W
0BF7C:  MULLW  09
0BF7E:  MOVF   FF3,W
0BF80:  MOVLB  6
0BF82:  ADDWF  xAA,F
0BF84:  MOVLW  00
0BF86:  ADDWFC xAB,F
0BF88:  MOVFF  6AB,6AE
0BF8C:  MOVFF  6AA,6AD
0BF90:  MOVLB  0
0BF92:  CALL   24E4
0BF96:  MOVFF  6A9,FEA
0BF9A:  MOVFF  6A8,FE9
0BF9E:  MOVFF  01,FEF
....................             if(ACiclos[i]>20) 
0BFA2:  CLRF   03
0BFA4:  MOVLB  2
0BFA6:  MOVF   x55,W
0BFA8:  ADDLW  08
0BFAA:  MOVWF  FE9
0BFAC:  MOVLW  03
0BFAE:  ADDWFC 03,W
0BFB0:  MOVWF  FEA
0BFB2:  MOVF   FEF,W
0BFB4:  SUBLW  14
0BFB6:  BC    BFC8
....................                ACiclos[i]=0; 
0BFB8:  CLRF   03
0BFBA:  MOVF   x55,W
0BFBC:  ADDLW  08
0BFBE:  MOVWF  FE9
0BFC0:  MOVLW  03
0BFC2:  ADDWFC 03,W
0BFC4:  MOVWF  FEA
0BFC6:  CLRF   FEF
....................          } 
0BFC8:  INCF   x55,F
0BFCA:  BRA    BA7C
0BFCC:  MOVLB  0
....................       } 
....................        
....................       //Imprime Valores Estaticos 
....................       printf("fecha.txt=\"%02u/%02u/%02u\"",diaCiclos,mesCiclos,yearCiclos); 
0BFCE:  MOVLW  40
0BFD0:  MOVWF  FF6
0BFD2:  MOVLW  13
0BFD4:  MOVWF  FF7
0BFD6:  MOVLW  00
0BFD8:  MOVWF  FF8
0BFDA:  MOVLW  0B
0BFDC:  MOVLB  6
0BFDE:  MOVWF  xAD
0BFE0:  MOVLB  0
0BFE2:  CALL   5A32
0BFE6:  MOVFF  30F,6AD
0BFEA:  MOVLW  01
0BFEC:  MOVLB  6
0BFEE:  MOVWF  xAE
0BFF0:  MOVLB  0
0BFF2:  CALL   5AB6
0BFF6:  MOVLW  2F
0BFF8:  BTFSS  F9E.4
0BFFA:  BRA    BFF8
0BFFC:  MOVWF  FAD
0BFFE:  MOVFF  310,6AD
0C002:  MOVLW  01
0C004:  MOVLB  6
0C006:  MOVWF  xAE
0C008:  MOVLB  0
0C00A:  CALL   5AB6
0C00E:  MOVLW  2F
0C010:  BTFSS  F9E.4
0C012:  BRA    C010
0C014:  MOVWF  FAD
0C016:  MOVFF  311,6AD
0C01A:  MOVLW  01
0C01C:  MOVLB  6
0C01E:  MOVWF  xAE
0C020:  MOVLB  0
0C022:  CALL   5AB6
0C026:  MOVLW  22
0C028:  BTFSS  F9E.4
0C02A:  BRA    C028
0C02C:  MOVWF  FAD
....................       SendDataDisplay(); 
0C02E:  CALL   4024
....................        
....................       printf("ciclo.txt=\"%02u\"",cicloCiclos); 
0C032:  MOVLW  5C
0C034:  MOVWF  FF6
0C036:  MOVLW  13
0C038:  MOVWF  FF7
0C03A:  MOVLW  00
0C03C:  MOVWF  FF8
0C03E:  MOVLW  0B
0C040:  MOVLB  6
0C042:  MOVWF  xAD
0C044:  MOVLB  0
0C046:  CALL   5A32
0C04A:  MOVFF  313,6AD
0C04E:  MOVLW  01
0C050:  MOVLB  6
0C052:  MOVWF  xAE
0C054:  MOVLB  0
0C056:  CALL   5AB6
0C05A:  MOVLW  22
0C05C:  BTFSS  F9E.4
0C05E:  BRA    C05C
0C060:  MOVWF  FAD
....................       SendDataDisplay(); 
0C062:  CALL   4024
....................        
....................       printf("t0.txt=\"Ciclo %02u\"",cicloVisto+1); 
0C066:  MOVLW  01
0C068:  MOVLB  2
0C06A:  ADDWF  x99,W
0C06C:  MOVLB  6
0C06E:  MOVWF  xA8
0C070:  MOVLW  6E
0C072:  MOVWF  FF6
0C074:  MOVLW  13
0C076:  MOVWF  FF7
0C078:  MOVLW  00
0C07A:  MOVWF  FF8
0C07C:  MOVLW  0E
0C07E:  MOVWF  xAD
0C080:  MOVLB  0
0C082:  CALL   5A32
0C086:  MOVFF  6A8,6AD
0C08A:  MOVLW  01
0C08C:  MOVLB  6
0C08E:  MOVWF  xAE
0C090:  MOVLB  0
0C092:  CALL   5AB6
0C096:  MOVLW  22
0C098:  BTFSS  F9E.4
0C09A:  BRA    C098
0C09C:  MOVWF  FAD
....................       SendDataDisplay(); 
0C09E:  CALL   4024
....................        
....................       if(usuarioCiclos==0){ 
0C0A2:  MOVLB  3
0C0A4:  MOVF   x12,F
0C0A6:  BNZ   C0C2
....................          printf("usuario.txt=\"Admin\""); 
0C0A8:  MOVLW  82
0C0AA:  MOVWF  FF6
0C0AC:  MOVLW  13
0C0AE:  MOVWF  FF7
0C0B0:  MOVLW  00
0C0B2:  MOVWF  FF8
0C0B4:  MOVLB  0
0C0B6:  CALL   3FF2
....................          SendDataDisplay(); 
0C0BA:  CALL   4024
....................       }else if(usuarioCiclos>0 && usuarioCiclos<9){ 
0C0BE:  BRA    C120
0C0C0:  MOVLB  3
0C0C2:  MOVF   x12,F
0C0C4:  BZ    C104
0C0C6:  MOVF   x12,W
0C0C8:  SUBLW  08
0C0CA:  BNC   C104
....................          printf("usuario.txt=\"Operador%u\"",usuarioCiclos); 
0C0CC:  MOVLW  96
0C0CE:  MOVWF  FF6
0C0D0:  MOVLW  13
0C0D2:  MOVWF  FF7
0C0D4:  MOVLW  00
0C0D6:  MOVWF  FF8
0C0D8:  MOVLW  15
0C0DA:  MOVLB  6
0C0DC:  MOVWF  xAD
0C0DE:  MOVLB  0
0C0E0:  CALL   5A32
0C0E4:  MOVFF  312,6AD
0C0E8:  MOVLW  1B
0C0EA:  MOVLB  6
0C0EC:  MOVWF  xAE
0C0EE:  MOVLB  0
0C0F0:  CALL   5AB6
0C0F4:  MOVLW  22
0C0F6:  BTFSS  F9E.4
0C0F8:  BRA    C0F6
0C0FA:  MOVWF  FAD
....................          SendDataDisplay(); 
0C0FC:  CALL   4024
....................       }else if(usuarioCiclos==9){ 
0C100:  BRA    C120
0C102:  MOVLB  3
0C104:  MOVF   x12,W
0C106:  SUBLW  09
0C108:  BNZ   C120
....................          printf("usuario.txt=\"Tecnico\""); 
0C10A:  MOVLW  B0
0C10C:  MOVWF  FF6
0C10E:  MOVLW  13
0C110:  MOVWF  FF7
0C112:  MOVLW  00
0C114:  MOVWF  FF8
0C116:  MOVLB  0
0C118:  CALL   3FF2
....................          SendDataDisplay(); 
0C11C:  CALL   4024
....................       } 
....................        
....................       //Imprime Valores Dinamicos 
....................       for(i=0;i<7;i++){ 
0C120:  MOVLB  2
0C122:  CLRF   x55
0C124:  MOVF   x55,W
0C126:  SUBLW  06
0C128:  BTFSS  FD8.0
0C12A:  BRA    C3C2
....................          printf("hora%u.txt=\"%02u.  %02u:%02u\"",i+1,cicloVisualizado+i+1,horaCiclos[i],minutoCiclos[i]); 
0C12C:  MOVLW  01
0C12E:  ADDWF  x55,W
0C130:  MOVLB  6
0C132:  MOVWF  xA8
0C134:  MOVLB  2
0C136:  MOVF   x55,W
0C138:  ADDWF  x98,W
0C13A:  ADDLW  01
0C13C:  MOVLB  6
0C13E:  MOVWF  xA9
0C140:  CLRF   03
0C142:  MOVLB  2
0C144:  MOVF   x55,W
0C146:  ADDLW  FA
0C148:  MOVWF  FE9
0C14A:  MOVLW  02
0C14C:  ADDWFC 03,W
0C14E:  MOVWF  FEA
0C150:  MOVFF  FEF,6AA
0C154:  CLRF   03
0C156:  MOVF   x55,W
0C158:  ADDLW  01
0C15A:  MOVWF  FE9
0C15C:  MOVLW  03
0C15E:  ADDWFC 03,W
0C160:  MOVWF  FEA
0C162:  MOVFF  FEF,6AB
0C166:  MOVLW  C6
0C168:  MOVWF  FF6
0C16A:  MOVLW  13
0C16C:  MOVWF  FF7
0C16E:  MOVLW  00
0C170:  MOVWF  FF8
0C172:  MOVLW  04
0C174:  MOVLB  6
0C176:  MOVWF  xAD
0C178:  MOVLB  0
0C17A:  CALL   5A32
0C17E:  MOVFF  6A8,6AD
0C182:  MOVLW  1B
0C184:  MOVLB  6
0C186:  MOVWF  xAE
0C188:  MOVLB  0
0C18A:  CALL   5AB6
0C18E:  MOVLW  CC
0C190:  MOVWF  FF6
0C192:  MOVLW  13
0C194:  MOVWF  FF7
0C196:  MOVLW  00
0C198:  MOVWF  FF8
0C19A:  MOVLW  06
0C19C:  MOVLB  6
0C19E:  MOVWF  xAD
0C1A0:  MOVLB  0
0C1A2:  CALL   5A32
0C1A6:  MOVFF  6A9,6AD
0C1AA:  MOVLW  01
0C1AC:  MOVLB  6
0C1AE:  MOVWF  xAE
0C1B0:  MOVLB  0
0C1B2:  CALL   5AB6
0C1B6:  MOVLW  2E
0C1B8:  BTFSS  F9E.4
0C1BA:  BRA    C1B8
0C1BC:  MOVWF  FAD
0C1BE:  MOVLW  20
0C1C0:  BTFSS  F9E.4
0C1C2:  BRA    C1C0
0C1C4:  MOVWF  FAD
0C1C6:  MOVLW  20
0C1C8:  BTFSS  F9E.4
0C1CA:  BRA    C1C8
0C1CC:  MOVWF  FAD
0C1CE:  MOVFF  6AA,6AD
0C1D2:  MOVLW  01
0C1D4:  MOVLB  6
0C1D6:  MOVWF  xAE
0C1D8:  MOVLB  0
0C1DA:  CALL   5AB6
0C1DE:  MOVLW  3A
0C1E0:  BTFSS  F9E.4
0C1E2:  BRA    C1E0
0C1E4:  MOVWF  FAD
0C1E6:  MOVFF  6AB,6AD
0C1EA:  MOVLW  01
0C1EC:  MOVLB  6
0C1EE:  MOVWF  xAE
0C1F0:  MOVLB  0
0C1F2:  CALL   5AB6
0C1F6:  MOVLW  22
0C1F8:  BTFSS  F9E.4
0C1FA:  BRA    C1F8
0C1FC:  MOVWF  FAD
....................          SendDataDisplay(); 
0C1FE:  CALL   4024
....................          printf("T%u.txt=\"%3.1fC\"",i+1,TCiclos[i]); 
0C202:  MOVLW  01
0C204:  MOVLB  2
0C206:  ADDWF  x55,W
0C208:  MOVLB  6
0C20A:  MOVWF  xA8
0C20C:  MOVLB  2
0C20E:  MOVF   x55,W
0C210:  MULLW  04
0C212:  MOVF   FF3,W
0C214:  CLRF   03
0C216:  ADDLW  C2
0C218:  MOVWF  FE9
0C21A:  MOVLW  02
0C21C:  ADDWFC 03,W
0C21E:  MOVWF  FEA
0C220:  MOVFF  FEF,6A9
0C224:  MOVFF  FEC,6AA
0C228:  MOVFF  FEC,6AB
0C22C:  MOVFF  FEC,6AC
0C230:  MOVLW  54
0C232:  BTFSS  F9E.4
0C234:  BRA    C232
0C236:  MOVWF  FAD
0C238:  MOVFF  6A8,6AD
0C23C:  MOVLW  1B
0C23E:  MOVLB  6
0C240:  MOVWF  xAE
0C242:  MOVLB  0
0C244:  CALL   5AB6
0C248:  MOVLW  E7
0C24A:  MOVWF  FF6
0C24C:  MOVLW  13
0C24E:  MOVWF  FF7
0C250:  MOVLW  00
0C252:  MOVWF  FF8
0C254:  MOVLW  06
0C256:  MOVLB  6
0C258:  MOVWF  xAD
0C25A:  MOVLB  0
0C25C:  CALL   5A32
0C260:  MOVLW  02
0C262:  MOVWF  FE9
0C264:  MOVFF  6AC,6B0
0C268:  MOVFF  6AB,6AF
0C26C:  MOVFF  6AA,6AE
0C270:  MOVFF  6A9,6AD
0C274:  MOVLW  01
0C276:  MOVLB  6
0C278:  MOVWF  xB1
0C27A:  MOVLB  0
0C27C:  CALL   5D1C
0C280:  MOVLW  B0
0C282:  BTFSS  F9E.4
0C284:  BRA    C282
0C286:  MOVWF  FAD
0C288:  MOVLW  43
0C28A:  BTFSS  F9E.4
0C28C:  BRA    C28A
0C28E:  MOVWF  FAD
0C290:  MOVLW  22
0C292:  BTFSS  F9E.4
0C294:  BRA    C292
0C296:  MOVWF  FAD
....................          SendDataDisplay(); 
0C298:  CALL   4024
....................          printf("Pc%u.txt=\"%03LukPa\"",i+1,PcCiclos[i]); 
0C29C:  MOVLW  01
0C29E:  MOVLB  2
0C2A0:  ADDWF  x55,W
0C2A2:  MOVLB  6
0C2A4:  MOVWF  xA8
0C2A6:  BCF    FD8.0
0C2A8:  MOVLB  2
0C2AA:  RLCF   x55,W
0C2AC:  CLRF   03
0C2AE:  ADDLW  DE
0C2B0:  MOVWF  FE9
0C2B2:  MOVLW  02
0C2B4:  ADDWFC 03,W
0C2B6:  MOVWF  FEA
0C2B8:  MOVFF  FEC,6AA
0C2BC:  MOVF   FED,F
0C2BE:  MOVFF  FEF,6A9
0C2C2:  MOVLW  50
0C2C4:  BTFSS  F9E.4
0C2C6:  BRA    C2C4
0C2C8:  MOVWF  FAD
0C2CA:  MOVLW  63
0C2CC:  BTFSS  F9E.4
0C2CE:  BRA    C2CC
0C2D0:  MOVWF  FAD
0C2D2:  MOVFF  6A8,6AD
0C2D6:  MOVLW  1B
0C2D8:  MOVLB  6
0C2DA:  MOVWF  xAE
0C2DC:  MOVLB  0
0C2DE:  CALL   5AB6
0C2E2:  MOVLW  FA
0C2E4:  MOVWF  FF6
0C2E6:  MOVLW  13
0C2E8:  MOVWF  FF7
0C2EA:  MOVLW  00
0C2EC:  MOVWF  FF8
0C2EE:  MOVLW  06
0C2F0:  MOVLB  6
0C2F2:  MOVWF  xAD
0C2F4:  MOVLB  0
0C2F6:  CALL   5A32
0C2FA:  MOVLW  0A
0C2FC:  MOVWF  FE9
0C2FE:  MOVFF  6AA,6AD
0C302:  MOVFF  6A9,6AC
0C306:  CALL   5BAE
0C30A:  MOVLW  05
0C30C:  MOVWF  FF6
0C30E:  MOVLW  14
0C310:  MOVWF  FF7
0C312:  MOVLW  00
0C314:  MOVWF  FF8
0C316:  MOVLW  04
0C318:  MOVLB  6
0C31A:  MOVWF  xAD
0C31C:  MOVLB  0
0C31E:  CALL   5A32
....................          SendDataDisplay(); 
0C322:  CALL   4024
....................          printf("Ppc%u.txt=\"%03LukPa\"",i+1,PpcCiclos[i]); 
0C326:  MOVLW  01
0C328:  MOVLB  2
0C32A:  ADDWF  x55,W
0C32C:  MOVLB  6
0C32E:  MOVWF  xA8
0C330:  BCF    FD8.0
0C332:  MOVLB  2
0C334:  RLCF   x55,W
0C336:  CLRF   03
0C338:  ADDLW  EC
0C33A:  MOVWF  FE9
0C33C:  MOVLW  02
0C33E:  ADDWFC 03,W
0C340:  MOVWF  FEA
0C342:  MOVFF  FEC,6AA
0C346:  MOVF   FED,F
0C348:  MOVFF  FEF,6A9
0C34C:  MOVLW  50
0C34E:  BTFSS  F9E.4
0C350:  BRA    C34E
0C352:  MOVWF  FAD
0C354:  MOVLW  70
0C356:  BTFSS  F9E.4
0C358:  BRA    C356
0C35A:  MOVWF  FAD
0C35C:  MOVLW  63
0C35E:  BTFSS  F9E.4
0C360:  BRA    C35E
0C362:  MOVWF  FAD
0C364:  MOVFF  6A8,6AD
0C368:  MOVLW  1B
0C36A:  MOVLB  6
0C36C:  MOVWF  xAE
0C36E:  MOVLB  0
0C370:  CALL   5AB6
0C374:  MOVLW  0F
0C376:  MOVWF  FF6
0C378:  MOVLW  14
0C37A:  MOVWF  FF7
0C37C:  MOVLW  00
0C37E:  MOVWF  FF8
0C380:  MOVLW  06
0C382:  MOVLB  6
0C384:  MOVWF  xAD
0C386:  MOVLB  0
0C388:  CALL   5A32
0C38C:  MOVLW  0A
0C38E:  MOVWF  FE9
0C390:  MOVFF  6AA,6AD
0C394:  MOVFF  6A9,6AC
0C398:  CALL   5BAE
0C39C:  MOVLW  1A
0C39E:  MOVWF  FF6
0C3A0:  MOVLW  14
0C3A2:  MOVWF  FF7
0C3A4:  MOVLW  00
0C3A6:  MOVWF  FF8
0C3A8:  MOVLW  04
0C3AA:  MOVLB  6
0C3AC:  MOVWF  xAD
0C3AE:  MOVLB  0
0C3B0:  CALL   5A32
....................          SendDataDisplay();          
0C3B4:  CALL   4024
....................          codificaAlarma(); 
0C3B8:  GOTO   647C
....................       }   
0C3BC:  MOVLB  2
0C3BE:  INCF   x55,F
0C3C0:  BRA    C124
....................    }else if(Menu==13){//Menu de Nivel de Desfogue 
0C3C2:  GOTO   EDD6
0C3C6:  MOVF   x52,W
0C3C8:  SUBLW  0D
0C3CA:  BTFSS  FD8.2
0C3CC:  BRA    C5A8
....................       printf("fecha.txt=\"Fecha:%02u/%02u/20%02u    Hora: %02u:%02u:%02u\"",Dia,Mes,Year,Hora,Minuto,Segundo); 
0C3CE:  MOVLW  20
0C3D0:  MOVWF  FF6
0C3D2:  MOVLW  14
0C3D4:  MOVWF  FF7
0C3D6:  MOVLW  00
0C3D8:  MOVWF  FF8
0C3DA:  MOVLW  11
0C3DC:  MOVLB  6
0C3DE:  MOVWF  xAD
0C3E0:  MOVLB  0
0C3E2:  CALL   5A32
0C3E6:  MOVFF  293,6AD
0C3EA:  MOVLW  01
0C3EC:  MOVLB  6
0C3EE:  MOVWF  xAE
0C3F0:  MOVLB  0
0C3F2:  CALL   5AB6
0C3F6:  MOVLW  2F
0C3F8:  BTFSS  F9E.4
0C3FA:  BRA    C3F8
0C3FC:  MOVWF  FAD
0C3FE:  MOVFF  292,6AD
0C402:  MOVLW  01
0C404:  MOVLB  6
0C406:  MOVWF  xAE
0C408:  MOVLB  0
0C40A:  CALL   5AB6
0C40E:  MOVLW  2F
0C410:  BTFSS  F9E.4
0C412:  BRA    C410
0C414:  MOVWF  FAD
0C416:  MOVLW  32
0C418:  BTFSS  F9E.4
0C41A:  BRA    C418
0C41C:  MOVWF  FAD
0C41E:  MOVLW  30
0C420:  BTFSS  F9E.4
0C422:  BRA    C420
0C424:  MOVWF  FAD
0C426:  MOVFF  291,6AD
0C42A:  MOVLW  01
0C42C:  MOVLB  6
0C42E:  MOVWF  xAE
0C430:  MOVLB  0
0C432:  CALL   5AB6
0C436:  MOVLW  41
0C438:  MOVWF  FF6
0C43A:  MOVLW  14
0C43C:  MOVWF  FF7
0C43E:  MOVLW  00
0C440:  MOVWF  FF8
0C442:  MOVLW  0A
0C444:  MOVLB  6
0C446:  MOVWF  xAD
0C448:  MOVLB  0
0C44A:  CALL   5A32
0C44E:  MOVFF  294,6AD
0C452:  MOVLW  01
0C454:  MOVLB  6
0C456:  MOVWF  xAE
0C458:  MOVLB  0
0C45A:  CALL   5AB6
0C45E:  MOVLW  3A
0C460:  BTFSS  F9E.4
0C462:  BRA    C460
0C464:  MOVWF  FAD
0C466:  MOVFF  295,6AD
0C46A:  MOVLW  01
0C46C:  MOVLB  6
0C46E:  MOVWF  xAE
0C470:  MOVLB  0
0C472:  CALL   5AB6
0C476:  MOVLW  3A
0C478:  BTFSS  F9E.4
0C47A:  BRA    C478
0C47C:  MOVWF  FAD
0C47E:  MOVFF  296,6AD
0C482:  MOVLW  01
0C484:  MOVLB  6
0C486:  MOVWF  xAE
0C488:  MOVLB  0
0C48A:  CALL   5AB6
0C48E:  MOVLW  22
0C490:  BTFSS  F9E.4
0C492:  BRA    C490
0C494:  MOVWF  FAD
....................       SendDataDisplay(); 
0C496:  CALL   4024
....................          if(NivelDes<1) 
0C49A:  MOVLB  2
0C49C:  MOVF   x86,F
0C49E:  BNZ   C4A4
....................             NivelDes=6; 
0C4A0:  MOVLW  06
0C4A2:  MOVWF  x86
....................          if(NivelDes>6) 
0C4A4:  MOVF   x86,W
0C4A6:  SUBLW  06
0C4A8:  BC    C4AE
....................             NivelDes=1; 
0C4AA:  MOVLW  01
0C4AC:  MOVWF  x86
....................           
....................          if(RX_Buffer[4]==0x11){//Selecciono Regresar 
0C4AE:  MOVF   34,W
0C4B0:  SUBLW  11
0C4B2:  BNZ   C556
....................             Segundos=OFF; 
0C4B4:  MOVLB  1
0C4B6:  BCF    x04.2
....................             Minutos=OFF;             
0C4B8:  BCF    x04.1
....................             tiempo_secado=0; 
0C4BA:  MOVLB  2
0C4BC:  CLRF   x64
....................             printf("page CicloPersona"); 
0C4BE:  MOVLW  5C
0C4C0:  MOVWF  FF6
0C4C2:  MOVLW  14
0C4C4:  MOVWF  FF7
0C4C6:  MOVLW  00
0C4C8:  MOVWF  FF8
0C4CA:  MOVLB  0
0C4CC:  CALL   3FF2
....................             SendDataDisplay();   
0C4D0:  CALL   4024
....................             if(!GuardaEEPROM){     
0C4D4:  MOVLB  1
0C4D6:  BTFSC  x04.3
0C4D8:  BRA    C554
....................                CiclosPersonalizados[CicloLibre-1].NivelDesfogue=NivelDes; 
0C4DA:  MOVLW  01
0C4DC:  MOVLB  2
0C4DE:  SUBWF  x47,W
0C4E0:  MULLW  08
0C4E2:  MOVF   FF3,W
0C4E4:  MOVLB  6
0C4E6:  CLRF   xA9
0C4E8:  MOVWF  xA8
0C4EA:  MOVLW  07
0C4EC:  ADDWF  xA8,W
0C4EE:  MOVWF  01
0C4F0:  MOVLW  00
0C4F2:  ADDWFC xA9,W
0C4F4:  MOVWF  03
0C4F6:  MOVF   01,W
0C4F8:  ADDLW  E0
0C4FA:  MOVWF  FE9
0C4FC:  MOVLW  05
0C4FE:  ADDWFC 03,W
0C500:  MOVWF  FEA
0C502:  MOVFF  286,FEF
....................                write_eeprom(107+((CicloLibre-1)*8),NivelDes); 
0C506:  MOVLW  01
0C508:  MOVLB  2
0C50A:  SUBWF  x47,W
0C50C:  MULLW  08
0C50E:  MOVF   FF3,W
0C510:  ADDLW  6B
0C512:  MOVLB  6
0C514:  MOVWF  xA8
0C516:  CLRF   FAA
0C518:  MOVFF  6A8,FA9
0C51C:  MOVFF  286,FA8
0C520:  BCF    FA6.6
0C522:  BCF    FA6.7
0C524:  BSF    FA6.2
0C526:  MOVF   FF2,W
0C528:  MOVWF  00
0C52A:  BCF    FF2.6
0C52C:  BCF    FF2.7
0C52E:  MOVLB  F
0C530:  MOVLW  55
0C532:  MOVWF  FA7
0C534:  MOVLW  AA
0C536:  MOVWF  FA7
0C538:  BSF    FA6.1
0C53A:  BTFSC  FA6.1
0C53C:  BRA    C53A
0C53E:  BCF    FA6.2
0C540:  MOVF   00,W
0C542:  IORWF  FF2,F
....................                delay_ms(20);             
0C544:  MOVLW  14
0C546:  MOVLB  6
0C548:  MOVWF  xBA
0C54A:  MOVLB  0
0C54C:  CALL   1F70
....................                GuardaEEPROM=ON; 
0C550:  MOVLB  1
0C552:  BSF    x04.3
0C554:  MOVLB  2
....................             } 
....................          } 
....................           
....................          if(RX_Buffer[4]==0x0d){//Tecla Arriba Oprimida 
0C556:  MOVF   34,W
0C558:  SUBLW  0D
0C55A:  BNZ   C562
....................             NivelDes++; 
0C55C:  INCF   x86,F
....................             RX_Buffer[4]=0x00;             
0C55E:  CLRF   34
....................             RX_Buffer2[4]=0x00;                        
0C560:  CLRF   3F
....................          } 
....................           
....................          if(RX_Buffer[4]==0x0c){//Tecla Abajo Oprimida 
0C562:  MOVF   34,W
0C564:  SUBLW  0C
0C566:  BNZ   C56E
....................             NivelDes--; 
0C568:  DECF   x86,F
....................             RX_Buffer[4]=0x00; 
0C56A:  CLRF   34
....................             RX_Buffer2[4]=0x00;                         
0C56C:  CLRF   3F
....................          } 
....................           
....................       printf("tnivel.txt=\"%u\"",NivelDes); 
0C56E:  MOVLW  6E
0C570:  MOVWF  FF6
0C572:  MOVLW  14
0C574:  MOVWF  FF7
0C576:  MOVLW  00
0C578:  MOVWF  FF8
0C57A:  MOVLW  0C
0C57C:  MOVLB  6
0C57E:  MOVWF  xAD
0C580:  MOVLB  0
0C582:  CALL   5A32
0C586:  MOVFF  286,6AD
0C58A:  MOVLW  1B
0C58C:  MOVLB  6
0C58E:  MOVWF  xAE
0C590:  MOVLB  0
0C592:  CALL   5AB6
0C596:  MOVLW  22
0C598:  BTFSS  F9E.4
0C59A:  BRA    C598
0C59C:  MOVWF  FAD
....................       SendDataDisplay(); 
0C59E:  CALL   4024
....................    }else if(Menu==14){//Menu de Activacion de Ciclos 
0C5A2:  GOTO   EDD6
0C5A6:  MOVLB  2
0C5A8:  MOVF   x52,W
0C5AA:  SUBLW  0E
0C5AC:  BTFSS  FD8.2
0C5AE:  BRA    C7DC
....................       printf("fecha.txt=\"Fecha:%02u/%02u/20%02u    Hora: %02u:%02u:%02u\"",Dia,Mes,Year,Hora,Minuto,Segundo); 
0C5B0:  MOVLW  7E
0C5B2:  MOVWF  FF6
0C5B4:  MOVLW  14
0C5B6:  MOVWF  FF7
0C5B8:  MOVLW  00
0C5BA:  MOVWF  FF8
0C5BC:  MOVLW  11
0C5BE:  MOVLB  6
0C5C0:  MOVWF  xAD
0C5C2:  MOVLB  0
0C5C4:  CALL   5A32
0C5C8:  MOVFF  293,6AD
0C5CC:  MOVLW  01
0C5CE:  MOVLB  6
0C5D0:  MOVWF  xAE
0C5D2:  MOVLB  0
0C5D4:  CALL   5AB6
0C5D8:  MOVLW  2F
0C5DA:  BTFSS  F9E.4
0C5DC:  BRA    C5DA
0C5DE:  MOVWF  FAD
0C5E0:  MOVFF  292,6AD
0C5E4:  MOVLW  01
0C5E6:  MOVLB  6
0C5E8:  MOVWF  xAE
0C5EA:  MOVLB  0
0C5EC:  CALL   5AB6
0C5F0:  MOVLW  2F
0C5F2:  BTFSS  F9E.4
0C5F4:  BRA    C5F2
0C5F6:  MOVWF  FAD
0C5F8:  MOVLW  32
0C5FA:  BTFSS  F9E.4
0C5FC:  BRA    C5FA
0C5FE:  MOVWF  FAD
0C600:  MOVLW  30
0C602:  BTFSS  F9E.4
0C604:  BRA    C602
0C606:  MOVWF  FAD
0C608:  MOVFF  291,6AD
0C60C:  MOVLW  01
0C60E:  MOVLB  6
0C610:  MOVWF  xAE
0C612:  MOVLB  0
0C614:  CALL   5AB6
0C618:  MOVLW  9F
0C61A:  MOVWF  FF6
0C61C:  MOVLW  14
0C61E:  MOVWF  FF7
0C620:  MOVLW  00
0C622:  MOVWF  FF8
0C624:  MOVLW  0A
0C626:  MOVLB  6
0C628:  MOVWF  xAD
0C62A:  MOVLB  0
0C62C:  CALL   5A32
0C630:  MOVFF  294,6AD
0C634:  MOVLW  01
0C636:  MOVLB  6
0C638:  MOVWF  xAE
0C63A:  MOVLB  0
0C63C:  CALL   5AB6
0C640:  MOVLW  3A
0C642:  BTFSS  F9E.4
0C644:  BRA    C642
0C646:  MOVWF  FAD
0C648:  MOVFF  295,6AD
0C64C:  MOVLW  01
0C64E:  MOVLB  6
0C650:  MOVWF  xAE
0C652:  MOVLB  0
0C654:  CALL   5AB6
0C658:  MOVLW  3A
0C65A:  BTFSS  F9E.4
0C65C:  BRA    C65A
0C65E:  MOVWF  FAD
0C660:  MOVFF  296,6AD
0C664:  MOVLW  01
0C666:  MOVLB  6
0C668:  MOVWF  xAE
0C66A:  MOVLB  0
0C66C:  CALL   5AB6
0C670:  MOVLW  22
0C672:  BTFSS  F9E.4
0C674:  BRA    C672
0C676:  MOVWF  FAD
....................       SendDataDisplay(); 
0C678:  CALL   4024
....................        
....................       if(RX_Buffer[4]==0xaa){ 
0C67C:  MOVF   34,W
0C67E:  SUBLW  AA
0C680:  BNZ   C70A
....................          for(i=0;i<30;i++){ 
0C682:  MOVLB  2
0C684:  CLRF   x55
0C686:  MOVF   x55,W
0C688:  SUBLW  1D
0C68A:  BNC   C6F0
....................             write_eeprom(50+i,estados[i]); 
0C68C:  MOVLW  32
0C68E:  ADDWF  x55,W
0C690:  MOVLB  6
0C692:  MOVWF  xA8
0C694:  MOVFF  255,6A9
0C698:  MOVLW  03
0C69A:  MOVWF  xAB
0C69C:  MOVLW  14
0C69E:  MOVWF  xAA
0C6A0:  MOVLB  0
0C6A2:  CALL   23B0
0C6A6:  MOVLW  00
0C6A8:  BTFSC  01.0
0C6AA:  MOVLW  01
0C6AC:  MOVLB  6
0C6AE:  MOVWF  xA9
0C6B0:  CLRF   FAA
0C6B2:  MOVFF  6A8,FA9
0C6B6:  MOVFF  6A9,FA8
0C6BA:  BCF    FA6.6
0C6BC:  BCF    FA6.7
0C6BE:  BSF    FA6.2
0C6C0:  MOVF   FF2,W
0C6C2:  MOVWF  00
0C6C4:  BCF    FF2.6
0C6C6:  BCF    FF2.7
0C6C8:  MOVLB  F
0C6CA:  MOVLW  55
0C6CC:  MOVWF  FA7
0C6CE:  MOVLW  AA
0C6D0:  MOVWF  FA7
0C6D2:  BSF    FA6.1
0C6D4:  BTFSC  FA6.1
0C6D6:  BRA    C6D4
0C6D8:  BCF    FA6.2
0C6DA:  MOVF   00,W
0C6DC:  IORWF  FF2,F
....................             delay_ms(10); 
0C6DE:  MOVLW  0A
0C6E0:  MOVLB  6
0C6E2:  MOVWF  xBA
0C6E4:  MOVLB  0
0C6E6:  CALL   1F70
....................          } 
0C6EA:  MOVLB  2
0C6EC:  INCF   x55,F
0C6EE:  BRA    C686
....................          printf("page Ajustes"); 
0C6F0:  MOVLW  BA
0C6F2:  MOVWF  FF6
0C6F4:  MOVLW  14
0C6F6:  MOVWF  FF7
0C6F8:  MOVLW  00
0C6FA:  MOVWF  FF8
0C6FC:  MOVLB  0
0C6FE:  CALL   3FF2
....................          SendDataDisplay();  
0C702:  CALL   4024
....................          RX_Buffer[4]=0x00; 
0C706:  CLRF   34
....................          RX_Buffer2[4]=0x00; 
0C708:  CLRF   3F
....................       } 
....................        
....................       for(i=0;i<30;i++){ 
0C70A:  MOVLB  2
0C70C:  CLRF   x55
0C70E:  MOVF   x55,W
0C710:  SUBLW  1D
0C712:  BNC   C7D8
....................          if(RX_Buffer[4]==i+1){ 
0C714:  MOVLW  01
0C716:  ADDWF  x55,W
0C718:  SUBWF  34,W
0C71A:  BNZ   C750
....................             estados[i]=!estados[i]; 
0C71C:  MOVFF  255,6A9
0C720:  MOVLW  03
0C722:  MOVLB  6
0C724:  MOVWF  xAB
0C726:  MOVLW  14
0C728:  MOVWF  xAA
0C72A:  MOVLB  0
0C72C:  CALL   23B0
0C730:  MOVLW  00
0C732:  BTFSS  01.0
0C734:  MOVLW  01
0C736:  MOVFF  255,6AA
0C73A:  MOVLB  6
0C73C:  MOVWF  xAB
0C73E:  MOVLW  03
0C740:  MOVWF  xAD
0C742:  MOVLW  14
0C744:  MOVWF  xAC
0C746:  MOVLB  0
0C748:  CALL   236E
....................             RX_Buffer[4]=0x00; 
0C74C:  CLRF   34
....................             RX_Buffer2[4]=0x00; 
0C74E:  CLRF   3F
....................          } 
....................           
....................          if(estados[i]){ 
0C750:  MOVFF  255,6A9
0C754:  MOVLW  03
0C756:  MOVLB  6
0C758:  MOVWF  xAB
0C75A:  MOVLW  14
0C75C:  MOVWF  xAA
0C75E:  MOVLB  0
0C760:  CALL   23B0
0C764:  BTFSS  01.0
0C766:  BRA    C79E
....................             printf("b%u.bco=2016",i); 
0C768:  MOVLW  62
0C76A:  BTFSS  F9E.4
0C76C:  BRA    C76A
0C76E:  MOVWF  FAD
0C770:  MOVFF  255,6AD
0C774:  MOVLW  1B
0C776:  MOVLB  6
0C778:  MOVWF  xAE
0C77A:  MOVLB  0
0C77C:  CALL   5AB6
0C780:  MOVLW  CB
0C782:  MOVWF  FF6
0C784:  MOVLW  14
0C786:  MOVWF  FF7
0C788:  MOVLW  00
0C78A:  MOVWF  FF8
0C78C:  MOVLW  09
0C78E:  MOVLB  6
0C790:  MOVWF  xAD
0C792:  MOVLB  0
0C794:  CALL   5A32
....................             SendDataDisplay();              
0C798:  CALL   4024
....................          }else{ 
0C79C:  BRA    C7D2
....................             printf("b%u.bco=63488",i); 
0C79E:  MOVLW  62
0C7A0:  BTFSS  F9E.4
0C7A2:  BRA    C7A0
0C7A4:  MOVWF  FAD
0C7A6:  MOVFF  255,6AD
0C7AA:  MOVLW  1B
0C7AC:  MOVLB  6
0C7AE:  MOVWF  xAE
0C7B0:  MOVLB  0
0C7B2:  CALL   5AB6
0C7B6:  MOVLW  D9
0C7B8:  MOVWF  FF6
0C7BA:  MOVLW  14
0C7BC:  MOVWF  FF7
0C7BE:  MOVLW  00
0C7C0:  MOVWF  FF8
0C7C2:  MOVLW  0A
0C7C4:  MOVLB  6
0C7C6:  MOVWF  xAD
0C7C8:  MOVLB  0
0C7CA:  CALL   5A32
....................             SendDataDisplay();  
0C7CE:  CALL   4024
....................          } 
....................       } 
0C7D2:  MOVLB  2
0C7D4:  INCF   x55,F
0C7D6:  BRA    C70E
....................    }else if(Menu==15){//Menu de Clave Correcta 
0C7D8:  GOTO   EDD6
0C7DC:  MOVF   x52,W
0C7DE:  SUBLW  0F
0C7E0:  BNZ   C81E
....................       if(!entro){ 
0C7E2:  MOVLB  1
0C7E4:  BTFSC  x07.7
0C7E6:  BRA    C802
....................          delay_ms(2000); 
0C7E8:  MOVLW  08
0C7EA:  MOVLB  6
0C7EC:  MOVWF  xA8
0C7EE:  MOVLW  FA
0C7F0:  MOVWF  xBA
0C7F2:  MOVLB  0
0C7F4:  CALL   1F70
0C7F8:  MOVLB  6
0C7FA:  DECFSZ xA8,F
0C7FC:  BRA    C7EE
....................          entro=ON; 
0C7FE:  MOVLB  1
0C800:  BSF    x07.7
....................       } 
....................       printf("page Menu"); 
0C802:  MOVLW  E4
0C804:  MOVWF  FF6
0C806:  MOVLW  14
0C808:  MOVWF  FF7
0C80A:  MOVLW  00
0C80C:  MOVWF  FF8
0C80E:  MOVLB  0
0C810:  CALL   3FF2
....................       SendDataDisplay(); 
0C814:  CALL   4024
....................    }else if(Menu==16){//Menu de Clave InCorrecta 
0C818:  GOTO   EDD6
0C81C:  MOVLB  2
0C81E:  MOVF   x52,W
0C820:  SUBLW  10
0C822:  BNZ   C860
....................       if(!entro){ 
0C824:  MOVLB  1
0C826:  BTFSC  x07.7
0C828:  BRA    C844
....................          delay_ms(2000); 
0C82A:  MOVLW  08
0C82C:  MOVLB  6
0C82E:  MOVWF  xA8
0C830:  MOVLW  FA
0C832:  MOVWF  xBA
0C834:  MOVLB  0
0C836:  CALL   1F70
0C83A:  MOVLB  6
0C83C:  DECFSZ xA8,F
0C83E:  BRA    C830
....................          entro=ON; 
0C840:  MOVLB  1
0C842:  BSF    x07.7
....................       } 
....................       printf("page Clave"); 
0C844:  MOVLW  EE
0C846:  MOVWF  FF6
0C848:  MOVLW  14
0C84A:  MOVWF  FF7
0C84C:  MOVLW  00
0C84E:  MOVWF  FF8
0C850:  MOVLB  0
0C852:  CALL   3FF2
....................       SendDataDisplay(); 
0C856:  CALL   4024
....................    }else if(Menu==20){ // Este es el menu de cuando el proceso se inicio. 
0C85A:  GOTO   EDD6
0C85E:  MOVLB  2
0C860:  MOVF   x52,W
0C862:  SUBLW  14
0C864:  BTFSS  FD8.2
0C866:  GOTO   DF50
....................     
....................    GuardaDatoEstatico(); 
0C86A:  MOVLB  0
0C86C:  GOTO   6AB0
....................    guardaCiclo=ON; 
0C870:  BSF    xFA.0
....................    if(!Libre){ 
0C872:  MOVLB  1
0C874:  BTFSC  x05.6
0C876:  BRA    C8FE
....................       printf("t2f.txt=\"%u\"",CicloSeleccionado); 
0C878:  MOVLW  FA
0C87A:  MOVWF  FF6
0C87C:  MOVLW  14
0C87E:  MOVWF  FF7
0C880:  MOVLW  00
0C882:  MOVWF  FF8
0C884:  MOVLW  09
0C886:  MOVLB  6
0C888:  MOVWF  xAD
0C88A:  MOVLB  0
0C88C:  CALL   5A32
0C890:  MOVFF  258,6AD
0C894:  MOVLW  1B
0C896:  MOVLB  6
0C898:  MOVWF  xAE
0C89A:  MOVLB  0
0C89C:  CALL   5AB6
0C8A0:  MOVLW  22
0C8A2:  BTFSS  F9E.4
0C8A4:  BRA    C8A2
0C8A6:  MOVWF  FAD
....................       SendDataDisplay(); 
0C8A8:  CALL   4024
....................       printf("t3f.txt=\"%s\"",Texto[CicloSeleccionado-1]); 
0C8AC:  MOVLW  01
0C8AE:  MOVLB  2
0C8B0:  SUBWF  x58,W
0C8B2:  MULLW  14
0C8B4:  MOVF   FF3,W
0C8B6:  CLRF   03
0C8B8:  MOVLB  6
0C8BA:  MOVWF  xA8
0C8BC:  MOVLW  08
0C8BE:  MOVWF  FF6
0C8C0:  MOVLW  15
0C8C2:  MOVWF  FF7
0C8C4:  MOVLW  00
0C8C6:  MOVWF  FF8
0C8C8:  MOVLW  09
0C8CA:  MOVWF  xAD
0C8CC:  MOVLB  0
0C8CE:  CALL   5A32
0C8D2:  MOVLW  1A
0C8D4:  MOVWF  FF6
0C8D6:  MOVLW  03
0C8D8:  MOVWF  FF7
0C8DA:  MOVLW  00
0C8DC:  MOVWF  FF8
0C8DE:  MOVLB  6
0C8E0:  MOVF   xA8,W
0C8E2:  ADDWF  FF6,F
0C8E4:  MOVLW  00
0C8E6:  ADDWFC FF7,F
0C8E8:  MOVLB  0
0C8EA:  CALL   3FF2
0C8EE:  MOVLW  22
0C8F0:  BTFSS  F9E.4
0C8F2:  BRA    C8F0
0C8F4:  MOVWF  FAD
....................       SendDataDisplay(); 
0C8F6:  CALL   4024
....................    }else{ 
0C8FA:  BRA    C94E
0C8FC:  MOVLB  1
....................       printf("t2f.txt=\"%u\"",CicloLibre+10); 
0C8FE:  MOVLW  0A
0C900:  MOVLB  2
0C902:  ADDWF  x47,W
0C904:  MOVLB  6
0C906:  MOVWF  xA8
0C908:  MOVLW  16
0C90A:  MOVWF  FF6
0C90C:  MOVLW  15
0C90E:  MOVWF  FF7
0C910:  MOVLW  00
0C912:  MOVWF  FF8
0C914:  MOVLW  09
0C916:  MOVWF  xAD
0C918:  MOVLB  0
0C91A:  CALL   5A32
0C91E:  MOVFF  6A8,6AD
0C922:  MOVLW  1B
0C924:  MOVLB  6
0C926:  MOVWF  xAE
0C928:  MOVLB  0
0C92A:  CALL   5AB6
0C92E:  MOVLW  22
0C930:  BTFSS  F9E.4
0C932:  BRA    C930
0C934:  MOVWF  FAD
....................       SendDataDisplay(); 
0C936:  CALL   4024
....................       printf("t3f.txt=\"Personalizado\""); 
0C93A:  MOVLW  24
0C93C:  MOVWF  FF6
0C93E:  MOVLW  15
0C940:  MOVWF  FF7
0C942:  MOVLW  00
0C944:  MOVWF  FF8
0C946:  CALL   3FF2
....................       SendDataDisplay(); 
0C94A:  CALL   4024
....................    } 
....................     
....................    if(PresionCamara>Atmosferica+15){ 
0C94E:  MOVLW  0F
0C950:  MOVLB  2
0C952:  ADDWF  x9B,W
0C954:  MOVF   x72,F
0C956:  BNZ   C95E
0C958:  SUBWF  x71,W
0C95A:  BZ    C968
0C95C:  BNC   C968
....................       cierraPuertaS(); 
0C95E:  MOVLB  0
0C960:  CALL   58F4
....................       cierraPuertaL(); 
0C964:  CALL   5918
....................    } 
....................     
....................    if(pulsoSubirS) 
0C968:  MOVLB  0
0C96A:  BTFSS  xFA.5
0C96C:  BRA    C972
....................       cierraPuertaS(); 
0C96E:  CALL   58F4
....................        
....................    if(RX_Buffer[4]==0x0a){//Oprimio Subir Puerta 
0C972:  MOVF   34,W
0C974:  SUBLW  0A
0C976:  BNZ   C97E
....................       //cierraPuertaS(); 
....................       pulsoSubirS=ON; 
0C978:  BSF    xFA.5
....................       RX_Buffer[4]=0x00; 
0C97A:  CLRF   34
....................       RX_Buffer2[4]=0x00;                        
0C97C:  CLRF   3F
....................    } 
....................     
....................    if(RX_Buffer[4]==0x0b){//Solto Subir Puerta 
0C97E:  MOVF   34,W
0C980:  SUBLW  0B
0C982:  BNZ   C9A0
....................       RX_Buffer[4]=0x00;             
0C984:  CLRF   34
....................       RX_Buffer2[4]=0x00;            
0C986:  CLRF   3F
....................       pulsoSubirS=OFF; 
0C988:  BCF    xFA.5
....................       if(!DOORS && !EMPAQUES) 
0C98A:  BSF    F93.3
0C98C:  BTFSS  F81.3
0C98E:  BRA    C99C
0C990:  BSF    F93.1
0C992:  BTFSS  F81.1
0C994:  BRA    C99C
....................          abrePuertaS(); 
0C996:  CALL   589E
....................       else 
0C99A:  BRA    C9A0
....................          cierraPuertaS(); 
0C99C:  CALL   58F4
....................    } 
....................     
....................    if(RX_Buffer[4]==0x0c){//Oprimio Bajar Puerta 
0C9A0:  MOVF   34,W
0C9A2:  SUBLW  0C
0C9A4:  BNZ   C9E8
....................       pulsoSubirS=OFF; 
0C9A6:  BCF    xFA.5
....................       RX_Buffer[4]=0x00; 
0C9A8:  CLRF   34
....................       RX_Buffer2[4]=0x00;  
0C9AA:  CLRF   3F
....................       if(Temperatura<Tapertura && cerroLimpio) 
0C9AC:  MOVLB  6
0C9AE:  CLRF   xBB
0C9B0:  MOVFF  259,6BA
0C9B4:  MOVLB  0
0C9B6:  CALL   1F3A
0C9BA:  MOVFF  234,6AF
0C9BE:  MOVFF  233,6AE
0C9C2:  MOVFF  232,6AD
0C9C6:  MOVFF  231,6AC
0C9CA:  MOVFF  03,6B3
0C9CE:  MOVFF  02,6B2
0C9D2:  MOVFF  01,6B1
0C9D6:  MOVFF  00,6B0
0C9DA:  CALL   25CC
0C9DE:  BNC   C9E8
0C9E0:  BTFSS  xFA.4
0C9E2:  BRA    C9E8
....................          abrePuertaS(); 
0C9E4:  CALL   589E
....................    }    
....................     
....................    if(RX_Buffer[4]==0x0d){//Solto Bajar Puerta 
0C9E8:  MOVF   34,W
0C9EA:  SUBLW  0D
0C9EC:  BNZ   C9F2
....................       RX_Buffer[4]=0x00;             
0C9EE:  CLRF   34
....................       RX_Buffer2[4]=0x00;                        
0C9F0:  CLRF   3F
....................    } 
....................        
....................    if(PresionPreCamara>350 || PresionCamara>350){ 
0C9F2:  MOVLB  2
0C9F4:  MOVF   x74,W
0C9F6:  SUBLW  00
0C9F8:  BC    CA04
0C9FA:  XORLW  FF
0C9FC:  BNZ   CA14
0C9FE:  MOVF   x73,W
0CA00:  SUBLW  5E
0CA02:  BNC   CA14
0CA04:  MOVF   x72,W
0CA06:  SUBLW  00
0CA08:  BC    CA18
0CA0A:  XORLW  FF
0CA0C:  BNZ   CA14
0CA0E:  MOVF   x71,W
0CA10:  SUBLW  5E
0CA12:  BC    CA18
....................       AlarmaPresion=ON; 
0CA14:  MOVLB  1
0CA16:  BSF    x05.3
....................    } 
....................     
....................    if(TiempoCiclo>1800 && !Fugas){//ANALIZAR BIEN ESTA ALARMA 
0CA18:  MOVLB  1
0CA1A:  MOVF   x0A,W
0CA1C:  SUBLW  06
0CA1E:  BC    CA58
0CA20:  XORLW  FF
0CA22:  BNZ   CA2A
0CA24:  MOVF   x09,W
0CA26:  SUBLW  08
0CA28:  BC    CA58
0CA2A:  BTFSC  x06.0
0CA2C:  BRA    CA58
....................       if(TiempoCiclo>3600){ 
0CA2E:  MOVF   x0A,W
0CA30:  SUBLW  0D
0CA32:  BC    CA42
0CA34:  XORLW  FF
0CA36:  BNZ   CA3E
0CA38:  MOVF   x09,W
0CA3A:  SUBLW  10
0CA3C:  BC    CA42
....................          AlarmaTiempoProlongado=ON; 
0CA3E:  MOVLB  0
0CA40:  BSF    xF8.6
....................       } 
....................       if(PresionPrecamara<10){ 
0CA42:  MOVLB  2
0CA44:  MOVF   x74,F
0CA46:  BNZ   CA54
0CA48:  MOVF   x73,W
0CA4A:  SUBLW  09
0CA4C:  BNC   CA54
....................          AlarmaTiempoProlongado=ON; 
0CA4E:  MOVLB  0
0CA50:  BSF    xF8.6
0CA52:  MOVLB  2
....................       } 
....................    }else{ 
0CA54:  BRA    CA5C
0CA56:  MOVLB  1
....................       AlarmaTiempoProlongado=OFF; 
0CA58:  MOVLB  0
0CA5A:  BCF    xF8.6
....................    } 
....................     
....................    if(Temperatura>Setpoint+4.0 && !Fugas){ 
0CA5C:  MOVLB  6
0CA5E:  CLRF   xBB
0CA60:  MOVFF  260,6BA
0CA64:  MOVLB  0
0CA66:  CALL   1F3A
0CA6A:  BCF    FD8.1
0CA6C:  MOVFF  03,6BD
0CA70:  MOVFF  02,6BC
0CA74:  MOVFF  01,6BB
0CA78:  MOVFF  00,6BA
0CA7C:  MOVLB  6
0CA7E:  CLRF   xC1
0CA80:  CLRF   xC0
0CA82:  CLRF   xBF
0CA84:  MOVLW  81
0CA86:  MOVWF  xBE
0CA88:  MOVLB  0
0CA8A:  CALL   20F6
0CA8E:  MOVFF  03,6AF
0CA92:  MOVFF  02,6AE
0CA96:  MOVFF  01,6AD
0CA9A:  MOVFF  00,6AC
0CA9E:  MOVFF  234,6B3
0CAA2:  MOVFF  233,6B2
0CAA6:  MOVFF  232,6B1
0CAAA:  MOVFF  231,6B0
0CAAE:  CALL   25CC
0CAB2:  BNC   CAC2
0CAB4:  MOVLB  1
0CAB6:  BTFSS  x06.0
0CAB8:  BRA    CABE
0CABA:  MOVLB  0
0CABC:  BRA    CAC2
....................       AlarmaSobreTemperatura=ON; 
0CABE:  MOVLB  0
0CAC0:  BSF    xF8.7
....................    } 
....................     
....................    if(TiempoLlenado>600){ 
0CAC2:  MOVLB  1
0CAC4:  MOVF   x16,W
0CAC6:  SUBLW  01
0CAC8:  BC    CADC
0CACA:  XORLW  FF
0CACC:  BNZ   CAD4
0CACE:  MOVF   x15,W
0CAD0:  SUBLW  58
0CAD2:  BC    CADC
....................       AlarmaLlenado=ON; 
0CAD4:  MOVLB  0
0CAD6:  BSF    xFA.2
....................    }else{ 
0CAD8:  BRA    CAE0
0CADA:  MOVLB  1
....................       AlarmaLlenado=OFF; 
0CADC:  MOVLB  0
0CADE:  BCF    xFA.2
....................    } 
....................     
....................    if(!DOORS && !EMPAQUES){       
0CAE0:  BSF    F93.3
0CAE2:  BTFSS  F81.3
0CAE4:  BRA    CAFE
0CAE6:  BSF    F93.1
0CAE8:  BTFSS  F81.1
0CAEA:  BRA    CAFE
....................       Paso=OFF; 
0CAEC:  BCF    xF7.6
....................       //if(!Secando && !Finalizo && !Desfogando){ 
....................       if(!Finalizo){ 
0CAEE:  MOVLB  1
0CAF0:  BTFSC  x05.2
0CAF2:  BRA    CAF8
....................          AlarmaPuertaS=ON; 
0CAF4:  MOVLB  0
0CAF6:  BSF    xF9.1
....................       } 
....................       cerroSucio=OFF; 
0CAF8:  MOVLB  0
0CAFA:  BCF    xFA.3
....................    }else{ 
0CAFC:  BRA    CB02
....................       AlarmaPuertaS=OFF; 
0CAFE:  BCF    xF9.1
....................       cerroSucio=ON; 
0CB00:  BSF    xFA.3
....................    } 
....................     
....................    if(!DOORL && !EMPAQUEL){       
0CB02:  BSF    F93.4
0CB04:  BTFSS  F81.4
0CB06:  BRA    CB20
0CB08:  BSF    F93.2
0CB0A:  BTFSS  F81.2
0CB0C:  BRA    CB20
....................       Paso=OFF; 
0CB0E:  BCF    xF7.6
....................       //if(!Secando && !Finalizo && !Desfogando){ 
....................       if(!Finalizo){ 
0CB10:  MOVLB  1
0CB12:  BTFSC  x05.2
0CB14:  BRA    CB1A
....................          AlarmaPuertaL=ON; 
0CB16:  MOVLB  0
0CB18:  BSF    xF9.2
....................       } 
....................       cerroLimpio=OFF; 
0CB1A:  MOVLB  0
0CB1C:  BCF    xFA.4
....................    }else{ 
0CB1E:  BRA    CB24
....................       AlarmaPuertaL=OFF; 
0CB20:  BCF    xF9.2
....................       cerroLimpio=ON; 
0CB22:  BSF    xFA.4
....................    } 
....................  
....................    if(!STOP){ 
0CB24:  BSF    F93.0
0CB26:  BTFSS  F81.0
0CB28:  BRA    CB2C
....................       AlarmaEmergencia=ON; 
0CB2A:  BSF    xF9.3
....................    } 
....................     
....................    if(tEmpaqueS>10) 
0CB2C:  MOVLB  2
0CB2E:  MOVF   x5D,F
0CB30:  BNZ   CB38
0CB32:  MOVF   x5C,W
0CB34:  SUBLW  0A
0CB36:  BC    CB3E
....................       AlarmaEmpaqueS=ON; 
0CB38:  MOVLB  0
0CB3A:  BSF    xF9.6
0CB3C:  MOVLB  2
....................        
....................    if(tEmpaqueL>10) 
0CB3E:  MOVF   x5F,F
0CB40:  BNZ   CB48
0CB42:  MOVF   x5E,W
0CB44:  SUBLW  0A
0CB46:  BC    CB4E
....................       AlarmaEmpaqueL=ON;    
0CB48:  MOVLB  0
0CB4A:  BSF    xF9.5
0CB4C:  MOVLB  2
....................     
....................    if(AlarmaPuertaS || AlarmaPuertaL || AlarmaTermostato || AlarmaSobreTemperatura || AlarmaTiempoProlongado || AlarmaEmergencia || AlarmaPresion || AlarmaBomba || AlarmaEmpaqueL || AlarmaEmpaqueS 
....................          || AlarmaVacio || AlarmaLlenado){ 
0CB4E:  MOVLB  0
0CB50:  BTFSC  xF9.1
0CB52:  BRA    CB88
0CB54:  BTFSC  xF9.2
0CB56:  BRA    CB88
0CB58:  BTFSC  xF9.0
0CB5A:  BRA    CB88
0CB5C:  BTFSC  xF8.7
0CB5E:  BRA    CB88
0CB60:  BTFSC  xF8.6
0CB62:  BRA    CB88
0CB64:  BTFSC  xF9.3
0CB66:  BRA    CB88
0CB68:  MOVLB  1
0CB6A:  BTFSS  x05.3
0CB6C:  BRA    CB72
0CB6E:  MOVLB  0
0CB70:  BRA    CB88
0CB72:  MOVLB  0
0CB74:  BTFSC  xF9.7
0CB76:  BRA    CB88
0CB78:  BTFSC  xF9.5
0CB7A:  BRA    CB88
0CB7C:  BTFSC  xF9.6
0CB7E:  BRA    CB88
0CB80:  BTFSC  xF9.4
0CB82:  BRA    CB88
0CB84:  BTFSS  xFA.2
0CB86:  BRA    D194
....................       ActivaAlarma(1); 
0CB88:  MOVLW  01
0CB8A:  MOVLB  6
0CB8C:  MOVWF  xA8
0CB8E:  MOVLB  0
0CB90:  CALL   575C
....................       if(AlarmaEmergencia){ 
0CB94:  BTFSS  xF9.3
0CB96:  BRA    CC7E
....................          codigoAlarma=1; 
0CB98:  MOVLW  01
0CB9A:  MOVLB  2
0CB9C:  MOVWF  x8A
....................          printf("Funcionamiento.t4f.txt=\" Parada de Emergencia\""); 
0CB9E:  MOVLW  3C
0CBA0:  MOVWF  FF6
0CBA2:  MOVLW  15
0CBA4:  MOVWF  FF7
0CBA6:  MOVLW  00
0CBA8:  MOVWF  FF8
0CBAA:  MOVLB  0
0CBAC:  CALL   3FF2
....................          SendDataDisplay(); 
0CBB0:  CALL   4024
....................          printf("Funcionamiento.t5f.txt=\" Cancelado\""); 
0CBB4:  MOVLW  6C
0CBB6:  MOVWF  FF6
0CBB8:  MOVLW  15
0CBBA:  MOVWF  FF7
0CBBC:  MOVLW  00
0CBBE:  MOVWF  FF8
0CBC0:  CALL   3FF2
....................          SendDataDisplay(); 
0CBC4:  CALL   4024
....................          Desfogue=ON; 
0CBC8:  BSF    xF8.0
....................          Paso=OFF; 
0CBCA:  BCF    xF7.6
....................          suministroVapor=OFF; 
0CBCC:  BCF    xF7.5
....................          BombaVacio=OFF; 
0CBCE:  BCF    xF7.2
....................          aguaEnfriador=OFF; 
0CBD0:  BCF    xF7.1
....................          outVacio=OFF; 
0CBD2:  BCF    xF7.7
....................          if(!EMPAQUES && PresionCamara<Atmosferica+4) 
0CBD4:  BSF    F93.1
0CBD6:  BTFSS  F81.1
0CBD8:  BRA    CBF8
0CBDA:  MOVLW  04
0CBDC:  MOVLB  2
0CBDE:  ADDWF  x9B,W
0CBE0:  MOVF   x72,F
0CBE2:  BTFSC  FD8.2
0CBE4:  BRA    CBEA
0CBE6:  MOVLB  0
0CBE8:  BRA    CBF8
0CBEA:  SUBWF  x71,W
0CBEC:  BTFSS  FD8.0
0CBEE:  BRA    CBF4
0CBF0:  MOVLB  0
0CBF2:  BRA    CBF8
....................             empaqueSucio=OFF; 
0CBF4:  MOVLB  0
0CBF6:  BCF    xF7.4
....................           
....................          if(!EMPAQUEL && PresionCamara<Atmosferica+4) 
0CBF8:  BSF    F93.2
0CBFA:  BTFSS  F81.2
0CBFC:  BRA    CC1C
0CBFE:  MOVLW  04
0CC00:  MOVLB  2
0CC02:  ADDWF  x9B,W
0CC04:  MOVF   x72,F
0CC06:  BTFSC  FD8.2
0CC08:  BRA    CC0E
0CC0A:  MOVLB  0
0CC0C:  BRA    CC1C
0CC0E:  SUBWF  x71,W
0CC10:  BTFSS  FD8.0
0CC12:  BRA    CC18
0CC14:  MOVLB  0
0CC16:  BRA    CC1C
....................             empaqueLimpio=OFF; 
0CC18:  MOVLB  0
0CC1A:  BCF    xF7.3
....................              
....................          if(PresionCamara<Atmosferica) 
0CC1C:  MOVLB  2
0CC1E:  MOVF   x72,F
0CC20:  BNZ   CC2E
0CC22:  MOVF   x9B,W
0CC24:  SUBWF  x71,W
0CC26:  BC    CC2E
....................             Aire=ON; 
0CC28:  MOVLB  0
0CC2A:  BSF    xF8.1
....................          else 
0CC2C:  BRA    CC32
....................             Aire=OFF; 
0CC2E:  MOVLB  0
0CC30:  BCF    xF8.1
....................          Esterilizando=OFF; 
0CC32:  MOVLB  1
0CC34:  BCF    x02.2
....................          Desfogando=OFF; 
0CC36:  BCF    x02.5
....................          DesfogueSuave=OFF; 
0CC38:  BCF    x02.6
....................          //IniciaCiclo=OFF; 
....................          Controlando=0; 
0CC3A:  MOVLB  2
0CC3C:  CLRF   x4B
....................          if(codigoAnt!=codigoAlarma){ 
0CC3E:  MOVF   x8A,W
0CC40:  SUBWF  x8B,W
0CC42:  BZ    CC52
....................             codigoAnt=codigoAlarma; 
0CC44:  MOVFF  28A,28B
....................             GuardaDatoCiclo(); 
0CC48:  MOVLB  0
0CC4A:  CALL   6D6E
....................             incrementaCiclos(); 
0CC4E:  CALL   7116
....................          } 
....................          if(!flagImprimir){ 
0CC52:  MOVLB  1
0CC54:  BTFSC  x07.6
0CC56:  BRA    CC7A
....................             Imprime=20; 
0CC58:  MOVLW  14
0CC5A:  MOVLB  2
0CC5C:  MOVWF  xA5
....................             Envio_Esclavos(); 
0CC5E:  MOVLB  0
0CC60:  CALL   4FE8
....................             delay_ms(100); 
0CC64:  MOVLW  64
0CC66:  MOVLB  6
0CC68:  MOVWF  xBA
0CC6A:  MOVLB  0
0CC6C:  CALL   1F70
....................             Imprime=10; 
0CC70:  MOVLW  0A
0CC72:  MOVLB  2
0CC74:  MOVWF  xA5
....................             flagImprimir=1; 
0CC76:  MOVLB  1
0CC78:  BSF    x07.6
....................          } 
....................       }else if(AlarmaPuertaS || AlarmaPuertaL){ 
0CC7A:  BRA    D18C
0CC7C:  MOVLB  0
0CC7E:  BTFSC  xF9.1
0CC80:  BRA    CC86
0CC82:  BTFSS  xF9.2
0CC84:  BRA    CCEC
....................          codigoAlarma=2; 
0CC86:  MOVLW  02
0CC88:  MOVLB  2
0CC8A:  MOVWF  x8A
....................          printf("Funcionamiento.t4f.txt=\" Puerta Abierta\""); 
0CC8C:  MOVLW  90
0CC8E:  MOVWF  FF6
0CC90:  MOVLW  15
0CC92:  MOVWF  FF7
0CC94:  MOVLW  00
0CC96:  MOVWF  FF8
0CC98:  MOVLB  0
0CC9A:  CALL   3FF2
....................          SendDataDisplay(); 
0CC9E:  CALL   4024
....................          printf("Funcionamiento.t5f.txt=\" Pausado\""); 
0CCA2:  MOVLW  BA
0CCA4:  MOVWF  FF6
0CCA6:  MOVLW  15
0CCA8:  MOVWF  FF7
0CCAA:  MOVLW  00
0CCAC:  MOVWF  FF8
0CCAE:  CALL   3FF2
....................          SendDataDisplay(); 
0CCB2:  CALL   4024
....................          Paso=OFF; 
0CCB6:  BCF    xF7.6
....................          suministroVapor=OFF; 
0CCB8:  BCF    xF7.5
....................          if(AlarmaEmpaqueL) 
0CCBA:  BTFSS  xF9.5
0CCBC:  BRA    CCC0
....................             empaqueLimpio=OFF; 
0CCBE:  BCF    xF7.3
....................          if(AlarmaEmpaqueS) 
0CCC0:  BTFSS  xF9.6
0CCC2:  BRA    CCC6
....................             empaqueSucio=OFF; 
0CCC4:  BCF    xF7.4
....................          //Suministro_off; 
....................          BombaVacio=OFF; 
0CCC6:  BCF    xF7.2
....................          Aire=OFF; 
0CCC8:  BCF    xF8.1
....................          aguaEnfriador=OFF; 
0CCCA:  BCF    xF7.1
....................          outVacio=OFF; 
0CCCC:  BCF    xF7.7
....................          IniciaLlenado=OFF; 
0CCCE:  MOVLB  1
0CCD0:  BCF    x02.0
....................          Controlando=0; 
0CCD2:  MOVLB  2
0CCD4:  CLRF   x4B
....................          if(codigoAnt!=codigoAlarma){ 
0CCD6:  MOVF   x8A,W
0CCD8:  SUBWF  x8B,W
0CCDA:  BZ    CCE8
....................             codigoAnt=codigoAlarma; 
0CCDC:  MOVFF  28A,28B
....................             GuardaDatoCiclo(); 
0CCE0:  MOVLB  0
0CCE2:  CALL   6D6E
0CCE6:  MOVLB  2
....................          } 
....................       }else if(AlarmaLlenado){ 
0CCE8:  BRA    D18E
0CCEA:  MOVLB  0
0CCEC:  BTFSS  xFA.2
0CCEE:  BRA    CD7A
....................          codigoAlarma=9; 
0CCF0:  MOVLW  09
0CCF2:  MOVLB  2
0CCF4:  MOVWF  x8A
....................          printf("Funcionamiento.t4f.txt=\" Tiempo Llenado\""); 
0CCF6:  MOVLW  DC
0CCF8:  MOVWF  FF6
0CCFA:  MOVLW  15
0CCFC:  MOVWF  FF7
0CCFE:  MOVLW  00
0CD00:  MOVWF  FF8
0CD02:  MOVLB  0
0CD04:  CALL   3FF2
....................          SendDataDisplay(); 
0CD08:  CALL   4024
....................          printf("Funcionamiento.t5f.txt=\" Cancelado\""); 
0CD0C:  MOVLW  06
0CD0E:  MOVWF  FF6
0CD10:  MOVLW  16
0CD12:  MOVWF  FF7
0CD14:  MOVLW  00
0CD16:  MOVWF  FF8
0CD18:  CALL   3FF2
....................          SendDataDisplay(); 
0CD1C:  CALL   4024
....................          suministroVapor=OFF; 
0CD20:  BCF    xF7.5
....................          Aire=OFF; 
0CD22:  BCF    xF8.1
....................          Desfogue=OFF; 
0CD24:  BCF    xF8.0
....................          Paso=OFF; 
0CD26:  BCF    xF7.6
....................          BombaVacio=OFF; 
0CD28:  BCF    xF7.2
....................          aguaEnfriador=OFF; 
0CD2A:  BCF    xF7.1
....................          outVacio=OFF; 
0CD2C:  BCF    xF7.7
....................          IniciaLlenado=OFF; 
0CD2E:  MOVLB  1
0CD30:  BCF    x02.0
....................          IniciaCiclo=OFF; 
0CD32:  BCF    x02.1
....................          Esterilizando=OFF; 
0CD34:  BCF    x02.2
....................          Controlando=0; 
0CD36:  MOVLB  2
0CD38:  CLRF   x4B
....................          if(codigoAnt!=codigoAlarma){ 
0CD3A:  MOVF   x8A,W
0CD3C:  SUBWF  x8B,W
0CD3E:  BZ    CD4E
....................             codigoAnt=codigoAlarma; 
0CD40:  MOVFF  28A,28B
....................             GuardaDatoCiclo(); 
0CD44:  MOVLB  0
0CD46:  CALL   6D6E
....................             incrementaCiclos(); 
0CD4A:  CALL   7116
....................          } 
....................          if(!flagImprimir){ 
0CD4E:  MOVLB  1
0CD50:  BTFSC  x07.6
0CD52:  BRA    CD76
....................             Imprime=21; 
0CD54:  MOVLW  15
0CD56:  MOVLB  2
0CD58:  MOVWF  xA5
....................             Envio_Esclavos(); 
0CD5A:  MOVLB  0
0CD5C:  CALL   4FE8
....................             delay_ms(100); 
0CD60:  MOVLW  64
0CD62:  MOVLB  6
0CD64:  MOVWF  xBA
0CD66:  MOVLB  0
0CD68:  CALL   1F70
....................             Imprime=10; 
0CD6C:  MOVLW  0A
0CD6E:  MOVLB  2
0CD70:  MOVWF  xA5
....................             flagImprimir=1; 
0CD72:  MOVLB  1
0CD74:  BSF    x07.6
....................          } 
....................       }else if(AlarmaTermostato){ 
0CD76:  BRA    D18C
0CD78:  MOVLB  0
0CD7A:  BTFSS  xF9.0
0CD7C:  BRA    CE0C
....................          codigoAlarma=3; 
0CD7E:  MOVLW  03
0CD80:  MOVLB  2
0CD82:  MOVWF  x8A
....................          tiempo_esterilizacion=0;tiempo_secado=0;          
0CD84:  CLRF   x63
0CD86:  CLRF   x64
....................          printf("Funcionamiento.t4f.txt=\" Termostato\""); 
0CD88:  MOVLW  2A
0CD8A:  MOVWF  FF6
0CD8C:  MOVLW  16
0CD8E:  MOVWF  FF7
0CD90:  MOVLW  00
0CD92:  MOVWF  FF8
0CD94:  MOVLB  0
0CD96:  CALL   3FF2
....................          SendDataDisplay(); 
0CD9A:  CALL   4024
....................          printf("Funcionamiento.t5f.txt=\" Cancelado\""); 
0CD9E:  MOVLW  50
0CDA0:  MOVWF  FF6
0CDA2:  MOVLW  16
0CDA4:  MOVWF  FF7
0CDA6:  MOVLW  00
0CDA8:  MOVWF  FF8
0CDAA:  CALL   3FF2
....................          SendDataDisplay(); 
0CDAE:  CALL   4024
....................          suministroVapor=OFF; 
0CDB2:  BCF    xF7.5
....................          Desfogue=ON;                   
0CDB4:  BSF    xF8.0
....................          Paso=OFF; 
0CDB6:  BCF    xF7.6
....................          BombaVacio=OFF; 
0CDB8:  BCF    xF7.2
....................          Aire=OFF; 
0CDBA:  BCF    xF8.1
....................          aguaEnfriador=OFF; 
0CDBC:  BCF    xF7.1
....................          outVacio=OFF; 
0CDBE:  BCF    xF7.7
....................          Esterilizando=OFF; 
0CDC0:  MOVLB  1
0CDC2:  BCF    x02.2
....................          Desfogando=OFF; 
0CDC4:  BCF    x02.5
....................          IniciaCiclo=OFF; 
0CDC6:  BCF    x02.1
....................          Controlando=0; 
0CDC8:  MOVLB  2
0CDCA:  CLRF   x4B
....................          if(codigoAnt!=codigoAlarma){ 
0CDCC:  MOVF   x8A,W
0CDCE:  SUBWF  x8B,W
0CDD0:  BZ    CDE0
....................             codigoAnt=codigoAlarma; 
0CDD2:  MOVFF  28A,28B
....................             GuardaDatoCiclo(); 
0CDD6:  MOVLB  0
0CDD8:  CALL   6D6E
....................             incrementaCiclos(); 
0CDDC:  CALL   7116
....................          } 
....................          if(!flagImprimir){ 
0CDE0:  MOVLB  1
0CDE2:  BTFSC  x07.6
0CDE4:  BRA    CE08
....................             Imprime=22; 
0CDE6:  MOVLW  16
0CDE8:  MOVLB  2
0CDEA:  MOVWF  xA5
....................             Envio_Esclavos(); 
0CDEC:  MOVLB  0
0CDEE:  CALL   4FE8
....................             delay_ms(100); 
0CDF2:  MOVLW  64
0CDF4:  MOVLB  6
0CDF6:  MOVWF  xBA
0CDF8:  MOVLB  0
0CDFA:  CALL   1F70
....................             Imprime=10; 
0CDFE:  MOVLW  0A
0CE00:  MOVLB  2
0CE02:  MOVWF  xA5
....................             flagImprimir=1; 
0CE04:  MOVLB  1
0CE06:  BSF    x07.6
....................          } 
....................       }else if(AlarmaSobreTemperatura){                   
0CE08:  BRA    D18C
0CE0A:  MOVLB  0
0CE0C:  BTFSS  xF8.7
0CE0E:  BRA    CE96
....................          codigoAlarma=4; 
0CE10:  MOVLW  04
0CE12:  MOVLB  2
0CE14:  MOVWF  x8A
....................          tiempo_esterilizacion=0;tiempo_secado=0;          
0CE16:  CLRF   x63
0CE18:  CLRF   x64
....................          printf("Funcionamiento.t4f.txt=\" Sobretemperatura\""); 
0CE1A:  MOVLW  74
0CE1C:  MOVWF  FF6
0CE1E:  MOVLW  16
0CE20:  MOVWF  FF7
0CE22:  MOVLW  00
0CE24:  MOVWF  FF8
0CE26:  MOVLB  0
0CE28:  CALL   3FF2
....................          SendDataDisplay(); 
0CE2C:  CALL   4024
....................          printf("Funcionamiento.t5f.txt=\" Cancelado\""); 
0CE30:  MOVLW  A0
0CE32:  MOVWF  FF6
0CE34:  MOVLW  16
0CE36:  MOVWF  FF7
0CE38:  MOVLW  00
0CE3A:  MOVWF  FF8
0CE3C:  CALL   3FF2
....................          SendDataDisplay();   
0CE40:  CALL   4024
....................          suministroVapor=OFF; 
0CE44:  BCF    xF7.5
....................          Desfogue=ON; 
0CE46:  BSF    xF8.0
....................          Paso=OFF; 
0CE48:  BCF    xF7.6
....................          BombaVacio=OFF; 
0CE4A:  BCF    xF7.2
....................          Aire=OFF; 
0CE4C:  BCF    xF8.1
....................          aguaEnfriador=OFF; 
0CE4E:  BCF    xF7.1
....................          outVacio=OFF; 
0CE50:  BCF    xF7.7
....................          Controlando=0; 
0CE52:  MOVLB  2
0CE54:  CLRF   x4B
....................          if(codigoAnt!=codigoAlarma){ 
0CE56:  MOVF   x8A,W
0CE58:  SUBWF  x8B,W
0CE5A:  BZ    CE6A
....................             codigoAnt=codigoAlarma; 
0CE5C:  MOVFF  28A,28B
....................             GuardaDatoCiclo(); 
0CE60:  MOVLB  0
0CE62:  CALL   6D6E
....................             incrementaCiclos(); 
0CE66:  CALL   7116
....................          } 
....................          if(!flagImprimir){ 
0CE6A:  MOVLB  1
0CE6C:  BTFSC  x07.6
0CE6E:  BRA    CE92
....................             Imprime=23; 
0CE70:  MOVLW  17
0CE72:  MOVLB  2
0CE74:  MOVWF  xA5
....................             Envio_Esclavos(); 
0CE76:  MOVLB  0
0CE78:  CALL   4FE8
....................             delay_ms(100); 
0CE7C:  MOVLW  64
0CE7E:  MOVLB  6
0CE80:  MOVWF  xBA
0CE82:  MOVLB  0
0CE84:  CALL   1F70
....................             Imprime=10; 
0CE88:  MOVLW  0A
0CE8A:  MOVLB  2
0CE8C:  MOVWF  xA5
....................             flagImprimir=1; 
0CE8E:  MOVLB  1
0CE90:  BSF    x07.6
....................          } 
....................       }else if(AlarmaTiempoProlongado){ 
0CE92:  BRA    D18C
0CE94:  MOVLB  0
0CE96:  BTFSS  xF8.6
0CE98:  BRA    CF16
....................          codigoAlarma=5; 
0CE9A:  MOVLW  05
0CE9C:  MOVLB  2
0CE9E:  MOVWF  x8A
....................          printf("Funcionamiento.t4f.txt=\" Tiempo Prolongado\""); 
0CEA0:  MOVLW  C4
0CEA2:  MOVWF  FF6
0CEA4:  MOVLW  16
0CEA6:  MOVWF  FF7
0CEA8:  MOVLW  00
0CEAA:  MOVWF  FF8
0CEAC:  MOVLB  0
0CEAE:  CALL   3FF2
....................          SendDataDisplay(); 
0CEB2:  CALL   4024
....................          printf("Funcionamiento.t5f.txt=\" Cancelado\""); 
0CEB6:  MOVLW  F0
0CEB8:  MOVWF  FF6
0CEBA:  MOVLW  16
0CEBC:  MOVWF  FF7
0CEBE:  MOVLW  00
0CEC0:  MOVWF  FF8
0CEC2:  CALL   3FF2
....................          SendDataDisplay(); 
0CEC6:  CALL   4024
....................          suministroVapor=OFF; 
0CECA:  BCF    xF7.5
....................          Desfogue=ON; 
0CECC:  BSF    xF8.0
....................          Paso=OFF; 
0CECE:  BCF    xF7.6
....................          aguaEnfriador=OFF; 
0CED0:  BCF    xF7.1
....................          outVacio=OFF; 
0CED2:  BCF    xF7.7
....................          Controlando=0; 
0CED4:  MOVLB  2
0CED6:  CLRF   x4B
....................          if(codigoAnt!=codigoAlarma){ 
0CED8:  MOVF   x8A,W
0CEDA:  SUBWF  x8B,W
0CEDC:  BZ    CEEC
....................             codigoAnt=codigoAlarma; 
0CEDE:  MOVFF  28A,28B
....................             GuardaDatoCiclo(); 
0CEE2:  MOVLB  0
0CEE4:  CALL   6D6E
....................             incrementaCiclos(); 
0CEE8:  CALL   7116
....................          } 
....................          if(!flagImprimir){ 
0CEEC:  MOVLB  1
0CEEE:  BTFSC  x07.6
0CEF0:  BRA    CF14
....................             Imprime=24; 
0CEF2:  MOVLW  18
0CEF4:  MOVLB  2
0CEF6:  MOVWF  xA5
....................             Envio_Esclavos(); 
0CEF8:  MOVLB  0
0CEFA:  CALL   4FE8
....................             delay_ms(100); 
0CEFE:  MOVLW  64
0CF00:  MOVLB  6
0CF02:  MOVWF  xBA
0CF04:  MOVLB  0
0CF06:  CALL   1F70
....................             Imprime=10; 
0CF0A:  MOVLW  0A
0CF0C:  MOVLB  2
0CF0E:  MOVWF  xA5
....................             flagImprimir=1; 
0CF10:  MOVLB  1
0CF12:  BSF    x07.6
....................          } 
....................       }else if(AlarmaPresion){ // Alarma de Error de SobrePresion: Error por exceso de Presion. 
0CF14:  BRA    D18C
0CF16:  MOVLB  1
0CF18:  BTFSS  x05.3
0CF1A:  BRA    CFBA
....................          codigoAlarma=6; 
0CF1C:  MOVLW  06
0CF1E:  MOVLB  2
0CF20:  MOVWF  x8A
....................          printf("Funcionamiento.t4f.txt=\" SobrePresion\""); 
0CF22:  MOVLW  14
0CF24:  MOVWF  FF6
0CF26:  MOVLW  17
0CF28:  MOVWF  FF7
0CF2A:  MOVLW  00
0CF2C:  MOVWF  FF8
0CF2E:  MOVLB  0
0CF30:  CALL   3FF2
....................          SendDataDisplay(); 
0CF34:  CALL   4024
....................          printf("Funcionamiento.t5f.txt=\" Cancelado\""); 
0CF38:  MOVLW  3C
0CF3A:  MOVWF  FF6
0CF3C:  MOVLW  17
0CF3E:  MOVWF  FF7
0CF40:  MOVLW  00
0CF42:  MOVWF  FF8
0CF44:  CALL   3FF2
....................          SendDataDisplay(); 
0CF48:  CALL   4024
....................          Desfogue=ON; 
0CF4C:  BSF    xF8.0
....................          suministroVapor=OFF; 
0CF4E:  BCF    xF7.5
....................          BombaVacio=OFF; 
0CF50:  BCF    xF7.2
....................          Aire=OFF; 
0CF52:  BCF    xF8.1
....................          aguaEnfriador=OFF; 
0CF54:  BCF    xF7.1
....................          outVacio=OFF; 
0CF56:  BCF    xF7.7
....................          if(PresionPreCamara>(Atmosferica+4) && DOORS) 
0CF58:  MOVLW  04
0CF5A:  MOVLB  2
0CF5C:  ADDWF  x9B,W
0CF5E:  MOVF   x74,F
0CF60:  BNZ   CF68
0CF62:  SUBWF  x73,W
0CF64:  BZ    CF74
0CF66:  BNC   CF74
0CF68:  BSF    F93.3
0CF6A:  BTFSC  F81.3
0CF6C:  BRA    CF74
....................             Paso=ON; 
0CF6E:  MOVLB  0
0CF70:  BSF    xF7.6
....................          else 
0CF72:  BRA    CF78
....................             Paso=OFF; 
0CF74:  MOVLB  0
0CF76:  BCF    xF7.6
....................          Controlando=0; 
0CF78:  MOVLB  2
0CF7A:  CLRF   x4B
....................          if(codigoAnt!=codigoAlarma){ 
0CF7C:  MOVF   x8A,W
0CF7E:  SUBWF  x8B,W
0CF80:  BZ    CF90
....................             codigoAnt=codigoAlarma; 
0CF82:  MOVFF  28A,28B
....................             GuardaDatoCiclo(); 
0CF86:  MOVLB  0
0CF88:  CALL   6D6E
....................             incrementaCiclos(); 
0CF8C:  CALL   7116
....................          } 
....................          if(!flagImprimir){ 
0CF90:  MOVLB  1
0CF92:  BTFSC  x07.6
0CF94:  BRA    CFB8
....................             Imprime=25; 
0CF96:  MOVLW  19
0CF98:  MOVLB  2
0CF9A:  MOVWF  xA5
....................             Envio_Esclavos(); 
0CF9C:  MOVLB  0
0CF9E:  CALL   4FE8
....................             delay_ms(100); 
0CFA2:  MOVLW  64
0CFA4:  MOVLB  6
0CFA6:  MOVWF  xBA
0CFA8:  MOVLB  0
0CFAA:  CALL   1F70
....................             Imprime=10; 
0CFAE:  MOVLW  0A
0CFB0:  MOVLB  2
0CFB2:  MOVWF  xA5
....................             flagImprimir=1; 
0CFB4:  MOVLB  1
0CFB6:  BSF    x07.6
....................          } 
....................       }else if(AlarmaBomba){ // Alarma de Error de que bomba no ha arrancado. 
0CFB8:  BRA    D18C
0CFBA:  MOVLB  0
0CFBC:  BTFSS  xF9.7
0CFBE:  BRA    D040
....................          codigoAlarma=7; 
0CFC0:  MOVLW  07
0CFC2:  MOVLB  2
0CFC4:  MOVWF  x8A
....................          printf("Funcionamiento.t4f.txt=\" Error Bomba\""); 
0CFC6:  MOVLW  60
0CFC8:  MOVWF  FF6
0CFCA:  MOVLW  17
0CFCC:  MOVWF  FF7
0CFCE:  MOVLW  00
0CFD0:  MOVWF  FF8
0CFD2:  MOVLB  0
0CFD4:  CALL   3FF2
....................          SendDataDisplay(); 
0CFD8:  CALL   4024
....................          printf("Funcionamiento.t5f.txt=\" Cancelado\""); 
0CFDC:  MOVLW  86
0CFDE:  MOVWF  FF6
0CFE0:  MOVLW  17
0CFE2:  MOVWF  FF7
0CFE4:  MOVLW  00
0CFE6:  MOVWF  FF8
0CFE8:  CALL   3FF2
....................          SendDataDisplay(); 
0CFEC:  CALL   4024
....................          Desfogue=ON; 
0CFF0:  BSF    xF8.0
....................          suministroVapor=OFF; 
0CFF2:  BCF    xF7.5
....................          BombaVacio=OFF; 
0CFF4:  BCF    xF7.2
....................          Aire=OFF; 
0CFF6:  BCF    xF8.1
....................          aguaEnfriador=OFF; 
0CFF8:  BCF    xF7.1
....................          outVacio=OFF; 
0CFFA:  BCF    xF7.7
....................          Controlando=0; 
0CFFC:  MOVLB  2
0CFFE:  CLRF   x4B
....................          if(codigoAnt!=codigoAlarma){ 
0D000:  MOVF   x8A,W
0D002:  SUBWF  x8B,W
0D004:  BZ    D014
....................             codigoAnt=codigoAlarma; 
0D006:  MOVFF  28A,28B
....................             GuardaDatoCiclo(); 
0D00A:  MOVLB  0
0D00C:  CALL   6D6E
....................             incrementaCiclos(); 
0D010:  CALL   7116
....................          } 
....................          if(!flagImprimir){ 
0D014:  MOVLB  1
0D016:  BTFSC  x07.6
0D018:  BRA    D03C
....................             Imprime=26; 
0D01A:  MOVLW  1A
0D01C:  MOVLB  2
0D01E:  MOVWF  xA5
....................             Envio_Esclavos(); 
0D020:  MOVLB  0
0D022:  CALL   4FE8
....................             delay_ms(100); 
0D026:  MOVLW  64
0D028:  MOVLB  6
0D02A:  MOVWF  xBA
0D02C:  MOVLB  0
0D02E:  CALL   1F70
....................             Imprime=10; 
0D032:  MOVLW  0A
0D034:  MOVLB  2
0D036:  MOVWF  xA5
....................             flagImprimir=1; 
0D038:  MOVLB  1
0D03A:  BSF    x07.6
....................          } 
....................       }else if(AlarmaVacio){ // Alarma de Error de que genera el Vacio en el tiempo estipulado. 
0D03C:  BRA    D18C
0D03E:  MOVLB  0
0D040:  BTFSS  xF9.4
0D042:  BRA    D0C4
....................          codigoAlarma=8; 
0D044:  MOVLW  08
0D046:  MOVLB  2
0D048:  MOVWF  x8A
....................          printf("Funcionamiento.t4f.txt=\" Error Vacio\""); 
0D04A:  MOVLW  AA
0D04C:  MOVWF  FF6
0D04E:  MOVLW  17
0D050:  MOVWF  FF7
0D052:  MOVLW  00
0D054:  MOVWF  FF8
0D056:  MOVLB  0
0D058:  CALL   3FF2
....................          SendDataDisplay(); 
0D05C:  CALL   4024
....................          printf("Funcionamiento.t5f.txt=\" Cancelado\""); 
0D060:  MOVLW  D0
0D062:  MOVWF  FF6
0D064:  MOVLW  17
0D066:  MOVWF  FF7
0D068:  MOVLW  00
0D06A:  MOVWF  FF8
0D06C:  CALL   3FF2
....................          SendDataDisplay(); 
0D070:  CALL   4024
....................          Desfogue=ON; 
0D074:  BSF    xF8.0
....................          suministroVapor=OFF; 
0D076:  BCF    xF7.5
....................          BombaVacio=OFF; 
0D078:  BCF    xF7.2
....................          Aire=OFF; 
0D07A:  BCF    xF8.1
....................          aguaEnfriador=OFF; 
0D07C:  BCF    xF7.1
....................          outVacio=OFF; 
0D07E:  BCF    xF7.7
....................          Controlando=0; 
0D080:  MOVLB  2
0D082:  CLRF   x4B
....................          if(codigoAnt!=codigoAlarma){ 
0D084:  MOVF   x8A,W
0D086:  SUBWF  x8B,W
0D088:  BZ    D098
....................             codigoAnt=codigoAlarma; 
0D08A:  MOVFF  28A,28B
....................             GuardaDatoCiclo(); 
0D08E:  MOVLB  0
0D090:  CALL   6D6E
....................             incrementaCiclos(); 
0D094:  CALL   7116
....................          } 
....................           
....................          if(!flagImprimir){ 
0D098:  MOVLB  1
0D09A:  BTFSC  x07.6
0D09C:  BRA    D0C0
....................             Imprime=27; 
0D09E:  MOVLW  1B
0D0A0:  MOVLB  2
0D0A2:  MOVWF  xA5
....................             Envio_Esclavos(); 
0D0A4:  MOVLB  0
0D0A6:  CALL   4FE8
....................             delay_ms(100); 
0D0AA:  MOVLW  64
0D0AC:  MOVLB  6
0D0AE:  MOVWF  xBA
0D0B0:  MOVLB  0
0D0B2:  CALL   1F70
....................             Imprime=10; 
0D0B6:  MOVLW  0A
0D0B8:  MOVLB  2
0D0BA:  MOVWF  xA5
....................             flagImprimir=1; 
0D0BC:  MOVLB  1
0D0BE:  BSF    x07.6
....................          } 
....................       }else if(AlarmaEmpaqueS || AlarmaEmpaqueL){ // Alarma de Error de que el empaque no se presuriza 
0D0C0:  BRA    D18C
0D0C2:  MOVLB  0
0D0C4:  BTFSC  xF9.6
0D0C6:  BRA    D0CC
0D0C8:  BTFSS  xF9.5
0D0CA:  BRA    D18C
....................          codigoAlarma=9; 
0D0CC:  MOVLW  09
0D0CE:  MOVLB  2
0D0D0:  MOVWF  x8A
....................          printf("Funcionamiento.t4f.txt=\" Error Empaque\""); 
0D0D2:  MOVLW  F4
0D0D4:  MOVWF  FF6
0D0D6:  MOVLW  17
0D0D8:  MOVWF  FF7
0D0DA:  MOVLW  00
0D0DC:  MOVWF  FF8
0D0DE:  MOVLB  0
0D0E0:  CALL   3FF2
....................          SendDataDisplay(); 
0D0E4:  CALL   4024
....................          printf("Funcionamiento.t5f.txt=\" Cancelado\""); 
0D0E8:  MOVLW  1C
0D0EA:  MOVWF  FF6
0D0EC:  MOVLW  18
0D0EE:  MOVWF  FF7
0D0F0:  MOVLW  00
0D0F2:  MOVWF  FF8
0D0F4:  CALL   3FF2
....................          SendDataDisplay(); 
0D0F8:  CALL   4024
....................          if(AlarmaEmpaqueL && PresionCamara<Atmosferica+4) 
0D0FC:  BTFSS  xF9.5
0D0FE:  BRA    D11E
0D100:  MOVLW  04
0D102:  MOVLB  2
0D104:  ADDWF  x9B,W
0D106:  MOVF   x72,F
0D108:  BTFSC  FD8.2
0D10A:  BRA    D110
0D10C:  MOVLB  0
0D10E:  BRA    D11E
0D110:  SUBWF  x71,W
0D112:  BTFSS  FD8.0
0D114:  BRA    D11A
0D116:  MOVLB  0
0D118:  BRA    D11E
....................             empaqueLimpio=OFF; 
0D11A:  MOVLB  0
0D11C:  BCF    xF7.3
....................          if(AlarmaEmpaqueS && PresionCamara<Atmosferica+4) 
0D11E:  BTFSS  xF9.6
0D120:  BRA    D140
0D122:  MOVLW  04
0D124:  MOVLB  2
0D126:  ADDWF  x9B,W
0D128:  MOVF   x72,F
0D12A:  BTFSC  FD8.2
0D12C:  BRA    D132
0D12E:  MOVLB  0
0D130:  BRA    D140
0D132:  SUBWF  x71,W
0D134:  BTFSS  FD8.0
0D136:  BRA    D13C
0D138:  MOVLB  0
0D13A:  BRA    D140
....................             empaqueSucio=OFF; 
0D13C:  MOVLB  0
0D13E:  BCF    xF7.4
....................          Desfogue=ON; 
0D140:  BSF    xF8.0
....................          suministroVapor=OFF; 
0D142:  BCF    xF7.5
....................          BombaVacio=OFF; 
0D144:  BCF    xF7.2
....................          Aire=OFF; 
0D146:  BCF    xF8.1
....................          aguaEnfriador=OFF; 
0D148:  BCF    xF7.1
....................          outVacio=OFF; 
0D14A:  BCF    xF7.7
....................          Controlando=0; 
0D14C:  MOVLB  2
0D14E:  CLRF   x4B
....................          if(codigoAnt!=codigoAlarma){ 
0D150:  MOVF   x8A,W
0D152:  SUBWF  x8B,W
0D154:  BZ    D164
....................             codigoAnt=codigoAlarma; 
0D156:  MOVFF  28A,28B
....................             GuardaDatoCiclo(); 
0D15A:  MOVLB  0
0D15C:  CALL   6D6E
....................             incrementaCiclos(); 
0D160:  CALL   7116
....................          } 
....................           
....................          if(!flagImprimir){ 
0D164:  MOVLB  1
0D166:  BTFSC  x07.6
0D168:  BRA    D18C
....................             Imprime=29; 
0D16A:  MOVLW  1D
0D16C:  MOVLB  2
0D16E:  MOVWF  xA5
....................             Envio_Esclavos(); 
0D170:  MOVLB  0
0D172:  CALL   4FE8
....................             delay_ms(100); 
0D176:  MOVLW  64
0D178:  MOVLB  6
0D17A:  MOVWF  xBA
0D17C:  MOVLB  0
0D17E:  CALL   1F70
....................             Imprime=10; 
0D182:  MOVLW  0A
0D184:  MOVLB  2
0D186:  MOVWF  xA5
....................             flagImprimir=1; 
0D188:  MOVLB  1
0D18A:  BSF    x07.6
0D18C:  MOVLB  2
....................          } 
....................       } 
....................    }else{ 
0D18E:  GOTO   DB20
0D192:  MOVLB  0
....................       if(flagImprime){ 
0D194:  MOVLB  2
0D196:  BTFSS  x48.2
0D198:  BRA    D1B8
....................          Imprime=5; 
0D19A:  MOVLW  05
0D19C:  MOVWF  xA5
....................          Envio_Esclavos(); 
0D19E:  MOVLB  0
0D1A0:  CALL   4FE8
....................          delay_ms(100); 
0D1A4:  MOVLW  64
0D1A6:  MOVLB  6
0D1A8:  MOVWF  xBA
0D1AA:  MOVLB  0
0D1AC:  CALL   1F70
....................          Imprime=10; 
0D1B0:  MOVLW  0A
0D1B2:  MOVLB  2
0D1B4:  MOVWF  xA5
....................          flagImprime=0; 
0D1B6:  BCF    x48.2
....................       } 
....................        
....................       if(!Fugas){//Si selecciono un ciclo diferente al test de fugas 
0D1B8:  MOVLB  1
0D1BA:  BTFSC  x06.0
0D1BC:  GOTO   D958
....................          EstadoBuzzer=OFF; 
0D1C0:  BCF    x04.6
....................          IniciaCiclo=ON; 
0D1C2:  BSF    x02.1
....................        
....................       if(!Precalentamiento){  
0D1C4:  BTFSC  x06.1
0D1C6:  BRA    D226
....................          SuministroVapor=ON; 
0D1C8:  MOVLB  0
0D1CA:  BSF    xF7.5
....................          aguaEnfriador=OFF; 
0D1CC:  BCF    xF7.1
....................          Paso=OFF; 
0D1CE:  BCF    xF7.6
....................          Desfogue=OFF; 
0D1D0:  BCF    xF8.0
....................          printf("Funcionamiento.t4f.txt=\" Ninguna\""); 
0D1D2:  MOVLW  40
0D1D4:  MOVWF  FF6
0D1D6:  MOVLW  18
0D1D8:  MOVWF  FF7
0D1DA:  MOVLW  00
0D1DC:  MOVWF  FF8
0D1DE:  CALL   3FF2
....................          SendDataDisplay(); 
0D1E2:  CALL   4024
....................          printf("Funcionamiento.t5f.txt=\" PreCalentando\""); 
0D1E6:  MOVLW  62
0D1E8:  MOVWF  FF6
0D1EA:  MOVLW  18
0D1EC:  MOVWF  FF7
0D1EE:  MOVLW  00
0D1F0:  MOVWF  FF8
0D1F2:  CALL   3FF2
....................          SendDataDisplay(); 
0D1F6:  CALL   4024
....................          ControlaPresion();  
0D1FA:  CALL   71A8
....................          Controlando=0; 
0D1FE:  MOVLB  2
0D200:  CLRF   x4B
....................          IniciaVacio=OFF; 
0D202:  MOVLB  1
0D204:  BCF    x06.2
....................          IniciaVacio2=OFF; 
0D206:  BCF    x06.3
....................          codigoAlarma=10; 
0D208:  MOVLW  0A
0D20A:  MOVLB  2
0D20C:  MOVWF  x8A
....................          if(codigoAnt!=codigoAlarma){ 
0D20E:  MOVF   x8A,W
0D210:  SUBWF  x8B,W
0D212:  BZ    D220
....................             codigoAnt=codigoAlarma; 
0D214:  MOVFF  28A,28B
....................             GuardaDatoCiclo(); 
0D218:  MOVLB  0
0D21A:  CALL   6D6E
0D21E:  MOVLB  2
....................          } 
....................       }else{ 
0D220:  GOTO   D954
0D224:  MOVLB  1
....................          if(!Vacio){ //Si no ha realizado los pulsos de vacio 
0D226:  BTFSC  x06.4
0D228:  BRA    D410
....................             codigoAlarma=11; 
0D22A:  MOVLW  0B
0D22C:  MOVLB  2
0D22E:  MOVWF  x8A
....................             if(codigoAnt!=codigoAlarma){ 
0D230:  MOVF   x8A,W
0D232:  SUBWF  x8B,W
0D234:  BZ    D240
....................                codigoAnt=codigoAlarma; 
0D236:  MOVFF  28A,28B
....................                GuardaDatoCiclo();                
0D23A:  MOVLB  0
0D23C:  CALL   6D6E
....................             } 
....................             if(!flag_vac){//Ciclo inicial para purga de Bomba 
0D240:  MOVLB  1
0D242:  BTFSC  x06.5
0D244:  BRA    D27A
....................                flag_vac=ON; 
0D246:  BSF    x06.5
....................                outVacio=OFF; 
0D248:  MOVLB  0
0D24A:  BCF    xF7.7
....................                Desfogue=OFF; 
0D24C:  BCF    xF8.0
....................                Aire=OFF; 
0D24E:  BCF    xF8.1
....................                //Paso=OFF; 
....................                aguaEnfriador=ON; 
0D250:  BSF    xF7.1
....................                delay_ms(70); 
0D252:  MOVLW  46
0D254:  MOVLB  6
0D256:  MOVWF  xBA
0D258:  MOVLB  0
0D25A:  CALL   1F70
....................                if(ReservorioLleno) 
0D25E:  MOVLB  1
0D260:  BTFSS  x08.3
0D262:  BRA    D26A
....................                   BombaVacio=ON; 
0D264:  MOVLB  0
0D266:  BSF    xF7.2
....................                else 
0D268:  BRA    D26E
....................                   BombaVacio=OFF; 
0D26A:  MOVLB  0
0D26C:  BCF    xF7.2
....................                IniciaVacio2=ON; 
0D26E:  MOVLB  1
0D270:  BSF    x06.3
....................                PulsoPositivo=10; //Prueba para ver rendimiento de bomba de vacio************ 
0D272:  MOVLW  0A
0D274:  MOVLB  2
0D276:  MOVWF  x9C
0D278:  MOVLB  1
....................             } 
....................             printf("Funcionamiento.t4f.txt=\" Ninguna\""); 
0D27A:  MOVLW  8A
0D27C:  MOVWF  FF6
0D27E:  MOVLW  18
0D280:  MOVWF  FF7
0D282:  MOVLW  00
0D284:  MOVWF  FF8
0D286:  MOVLB  0
0D288:  CALL   3FF2
....................             SendDataDisplay(); 
0D28C:  CALL   4024
....................             ControlaPresion(); 
0D290:  CALL   71A8
....................             IniciaVacio=ON; 
0D294:  MOVLB  1
0D296:  BSF    x06.2
....................                 
....................             if(PresionCamara>NivelVacio && PulsoPositivo==10){//Pulso Negativo 
0D298:  MOVLB  2
0D29A:  MOVF   x72,F
0D29C:  BNZ   D2A4
0D29E:  MOVF   x71,W
0D2A0:  SUBWF  x9A,W
0D2A2:  BC    D31C
0D2A4:  MOVF   x9C,W
0D2A6:  SUBLW  0A
0D2A8:  BNZ   D31C
....................                flag_vacio=1; 
0D2AA:  MOVLB  1
0D2AC:  BSF    x06.6
....................                if(ReservorioLleno) 
0D2AE:  BTFSS  x08.3
0D2B0:  BRA    D2B8
....................                   BombaVacio=ON; 
0D2B2:  MOVLB  0
0D2B4:  BSF    xF7.2
....................                else 
0D2B6:  BRA    D2BC
....................                   BombaVacio=OFF; 
0D2B8:  MOVLB  0
0D2BA:  BCF    xF7.2
....................                outVacio=ON; 
0D2BC:  BSF    xF7.7
....................                Desfogue=OFF; 
0D2BE:  BCF    xF8.0
....................                Aire=OFF;                      
0D2C0:  BCF    xF8.1
....................                Paso=OFF; 
0D2C2:  BCF    xF7.6
....................                if(PulsosVacio>=2) 
0D2C4:  MOVLB  2
0D2C6:  MOVF   x9D,W
0D2C8:  SUBLW  01
0D2CA:  BC    D2D2
....................                   aguaEnfriador=ON; 
0D2CC:  MOVLB  0
0D2CE:  BSF    xF7.1
....................                else 
0D2D0:  BRA    D2D6
....................                   aguaEnfriador=OFF; 
0D2D2:  MOVLB  0
0D2D4:  BCF    xF7.1
....................                if(flag_pulso==0){ 
0D2D6:  MOVLB  1
0D2D8:  BTFSC  x06.7
0D2DA:  BRA    D2E4
....................                   PulsosVacio++; 
0D2DC:  MOVLB  2
0D2DE:  INCF   x9D,F
....................                   flag_pulso=1; 
0D2E0:  MOVLB  1
0D2E2:  BSF    x06.7
....................                } 
....................                printf("Funcionamiento.t5f.txt=\" Pulso de Vacio %u\"",PulsosVacio); 
0D2E4:  MOVLW  AC
0D2E6:  MOVWF  FF6
0D2E8:  MOVLW  18
0D2EA:  MOVWF  FF7
0D2EC:  MOVLW  00
0D2EE:  MOVWF  FF8
0D2F0:  MOVLW  28
0D2F2:  MOVLB  6
0D2F4:  MOVWF  xAD
0D2F6:  MOVLB  0
0D2F8:  CALL   5A32
0D2FC:  MOVFF  29D,6AD
0D300:  MOVLW  1B
0D302:  MOVLB  6
0D304:  MOVWF  xAE
0D306:  MOVLB  0
0D308:  CALL   5AB6
0D30C:  MOVLW  22
0D30E:  BTFSS  F9E.4
0D310:  BRA    D30E
0D312:  MOVWF  FAD
....................                SendDataDisplay(); 
0D314:  CALL   4024
....................             }else{ 
0D318:  BRA    D320
0D31A:  MOVLB  2
....................                PulsoPositivo=5; 
0D31C:  MOVLW  05
0D31E:  MOVWF  x9C
....................             } 
....................              
....................             if(PulsosVacio>=CantidadPulsos && PulsoPositivo==5){//Si realiza los pulsos de vacio, continua con el proceso de calentamiento 
0D320:  MOVLB  2
0D322:  MOVF   x5B,F
0D324:  BNZ   D352
0D326:  MOVF   x5A,W
0D328:  SUBWF  x9D,W
0D32A:  BNC   D352
0D32C:  MOVF   x9C,W
0D32E:  SUBLW  05
0D330:  BNZ   D352
....................                Vacio=ON; 
0D332:  MOVLB  1
0D334:  BSF    x06.4
....................                outVacio=OFF; 
0D336:  MOVLB  0
0D338:  BCF    xF7.7
....................                BombaVacio=OFF; 
0D33A:  BCF    xF7.2
....................                outVacio=OFF; 
0D33C:  BCF    xF7.7
....................                Desfogue=OFF; 
0D33E:  BCF    xF8.0
....................                Aire=OFF;                                  
0D340:  BCF    xF8.1
....................                IniciaVacio=OFF; 
0D342:  MOVLB  1
0D344:  BCF    x06.2
....................                Paso=ON; 
0D346:  MOVLB  0
0D348:  BSF    xF7.6
....................                aguaEnfriador=OFF; 
0D34A:  BCF    xF7.1
....................                PulsoPositivo=10; 
0D34C:  MOVLW  0A
0D34E:  MOVLB  2
0D350:  MOVWF  x9C
....................             } 
....................                
....................             if(PulsoPositivo==5){//Pulso Positivo 
0D352:  MOVF   x9C,W
0D354:  SUBLW  05
0D356:  BNZ   D3C6
....................                tvacio=0; 
0D358:  CLRF   x7A
0D35A:  CLRF   x79
....................                flag_pulso=0; 
0D35C:  MOVLB  1
0D35E:  BCF    x06.7
....................                printf("Funcionamiento.t5f.txt=\" Pulso Positivo %u\"",PulsosVacio); 
0D360:  MOVLW  D8
0D362:  MOVWF  FF6
0D364:  MOVLW  18
0D366:  MOVWF  FF7
0D368:  MOVLW  00
0D36A:  MOVWF  FF8
0D36C:  MOVLW  28
0D36E:  MOVLB  6
0D370:  MOVWF  xAD
0D372:  MOVLB  0
0D374:  CALL   5A32
0D378:  MOVFF  29D,6AD
0D37C:  MOVLW  1B
0D37E:  MOVLB  6
0D380:  MOVWF  xAE
0D382:  MOVLB  0
0D384:  CALL   5AB6
0D388:  MOVLW  22
0D38A:  BTFSS  F9E.4
0D38C:  BRA    D38A
0D38E:  MOVWF  FAD
....................                SendDataDisplay(); 
0D390:  CALL   4024
....................                if(ReservorioLleno) 
0D394:  MOVLB  1
0D396:  BTFSS  x08.3
0D398:  BRA    D3A0
....................                   BombaVacio=ON; 
0D39A:  MOVLB  0
0D39C:  BSF    xF7.2
....................                else 
0D39E:  BRA    D3A4
....................                   BombaVacio=OFF; 
0D3A0:  MOVLB  0
0D3A2:  BCF    xF7.2
....................                outVacio=OFF; 
0D3A4:  BCF    xF7.7
....................                Desfogue=OFF; 
0D3A6:  BCF    xF8.0
....................                Aire=OFF;                      
0D3A8:  BCF    xF8.1
....................                Paso=ON;      
0D3AA:  BSF    xF7.6
....................                AguaEnfriador=OFF; 
0D3AC:  BCF    xF7.1
....................                if(PresionCamara>=Atmosferica+50){ 
0D3AE:  MOVLW  32
0D3B0:  MOVLB  2
0D3B2:  ADDWF  x9B,W
0D3B4:  MOVF   x72,F
0D3B6:  BNZ   D3BC
0D3B8:  SUBWF  x71,W
0D3BA:  BNC   D3C6
....................                   Paso=OFF; 
0D3BC:  MOVLB  0
0D3BE:  BCF    xF7.6
....................                   PulsoPositivo=10; 
0D3C0:  MOVLW  0A
0D3C2:  MOVLB  2
0D3C4:  MOVWF  x9C
....................                }   
....................             } 
....................                 
....................             if(tbomba>=120 && PulsosVacio==0){//Si no se ha generado ningun pulso de vacio despues de 120 segundos se genera alarma 
0D3C6:  MOVF   x78,F
0D3C8:  BNZ   D3D0
0D3CA:  MOVF   x77,W
0D3CC:  SUBLW  77
0D3CE:  BC    D3F0
0D3D0:  MOVF   x9D,F
0D3D2:  BNZ   D3F0
....................                if(PresionCamara>Atmosferica){ 
0D3D4:  MOVF   x72,F
0D3D6:  BNZ   D3DE
0D3D8:  MOVF   x71,W
0D3DA:  SUBWF  x9B,W
0D3DC:  BC    D3E6
....................                   AlarmaBomba=ON; 
0D3DE:  MOVLB  0
0D3E0:  BSF    xF9.7
....................                }else{ 
0D3E2:  BRA    D3F0
0D3E4:  MOVLB  2
....................                   tbomba=0; 
0D3E6:  CLRF   x78
0D3E8:  CLRF   x77
....................                   IniciaVacio2=OFF; 
0D3EA:  MOVLB  1
0D3EC:  BCF    x06.3
0D3EE:  MOVLB  0
....................                } 
....................              } 
....................                 
....................             if(tvacio>=TiempoVacio){//Si excede el tiempo maximo para generar los pulsos de vacio genera alarma             
0D3F0:  MOVLB  0
0D3F2:  MOVF   xFD,W
0D3F4:  MOVLB  2
0D3F6:  SUBWF  x7A,W
0D3F8:  BNC   D40C
0D3FA:  BNZ   D406
0D3FC:  MOVLB  0
0D3FE:  MOVF   xFC,W
0D400:  MOVLB  2
0D402:  SUBWF  x79,W
0D404:  BNC   D40C
....................                AlarmaVacio=ON; 
0D406:  MOVLB  0
0D408:  BSF    xF9.4
0D40A:  MOVLB  2
....................             } 
....................          }else{ 
0D40C:  BRA    D954
0D40E:  MOVLB  1
....................             IniciaVacio=OFF;         
0D410:  BCF    x06.2
....................             if(Temperatura>=((float)Setpoint-0.3)){ 
0D412:  MOVLB  6
0D414:  CLRF   xBB
0D416:  MOVFF  260,6BA
0D41A:  MOVLB  0
0D41C:  CALL   1F3A
0D420:  MOVFF  00,6A8
0D424:  MOVFF  01,6A9
0D428:  MOVFF  02,6AA
0D42C:  MOVFF  03,6AB
0D430:  BSF    FD8.1
0D432:  MOVFF  03,6BD
0D436:  MOVFF  02,6BC
0D43A:  MOVFF  01,6BB
0D43E:  MOVFF  00,6BA
0D442:  MOVLW  9A
0D444:  MOVLB  6
0D446:  MOVWF  xC1
0D448:  MOVLW  99
0D44A:  MOVWF  xC0
0D44C:  MOVLW  19
0D44E:  MOVWF  xBF
0D450:  MOVLW  7D
0D452:  MOVWF  xBE
0D454:  MOVLB  0
0D456:  CALL   20F6
0D45A:  MOVFF  03,6AF
0D45E:  MOVFF  02,6AE
0D462:  MOVFF  01,6AD
0D466:  MOVFF  00,6AC
0D46A:  MOVFF  234,6B3
0D46E:  MOVFF  233,6B2
0D472:  MOVFF  232,6B1
0D476:  MOVFF  231,6B0
0D47A:  CALL   25CC
0D47E:  BC    D482
0D480:  BNZ   D486
....................                Esterilizando=ON; 
0D482:  MOVLB  1
0D484:  BSF    x02.2
....................             } 
....................              
....................             if(Temperatura<((float)Setpoint-0.9) && !Desfogando){ 
0D486:  MOVLB  6
0D488:  CLRF   xBB
0D48A:  MOVFF  260,6BA
0D48E:  MOVLB  0
0D490:  CALL   1F3A
0D494:  MOVFF  00,6A8
0D498:  MOVFF  01,6A9
0D49C:  MOVFF  02,6AA
0D4A0:  MOVFF  03,6AB
0D4A4:  BSF    FD8.1
0D4A6:  MOVFF  03,6BD
0D4AA:  MOVFF  02,6BC
0D4AE:  MOVFF  01,6BB
0D4B2:  MOVFF  00,6BA
0D4B6:  MOVLW  66
0D4B8:  MOVLB  6
0D4BA:  MOVWF  xC1
0D4BC:  MOVWF  xC0
0D4BE:  MOVWF  xBF
0D4C0:  MOVLW  7E
0D4C2:  MOVWF  xBE
0D4C4:  MOVLB  0
0D4C6:  CALL   20F6
0D4CA:  MOVFF  234,6AF
0D4CE:  MOVFF  233,6AE
0D4D2:  MOVFF  232,6AD
0D4D6:  MOVFF  231,6AC
0D4DA:  MOVFF  03,6B3
0D4DE:  MOVFF  02,6B2
0D4E2:  MOVFF  01,6B1
0D4E6:  MOVFF  00,6B0
0D4EA:  CALL   25CC
0D4EE:  BNC   D4FC
0D4F0:  MOVLB  1
0D4F2:  BTFSS  x02.5
0D4F4:  BRA    D4FA
0D4F6:  MOVLB  0
0D4F8:  BRA    D4FC
....................                Esterilizando=OFF; 
0D4FA:  BCF    x02.2
....................             } 
....................              
....................             if(!Esterilizando){ 
0D4FC:  MOVLB  1
0D4FE:  BTFSC  x02.2
0D500:  BRA    D562
....................                codigoAlarma=12; 
0D502:  MOVLW  0C
0D504:  MOVLB  2
0D506:  MOVWF  x8A
....................                if(codigoAnt!=codigoAlarma){ 
0D508:  MOVF   x8A,W
0D50A:  SUBWF  x8B,W
0D50C:  BZ    D518
....................                   codigoAnt=codigoAlarma; 
0D50E:  MOVFF  28A,28B
....................                   GuardaDatoCiclo();                   
0D512:  MOVLB  0
0D514:  CALL   6D6E
....................                } 
....................                flag_vac=OFF; 
0D518:  MOVLB  1
0D51A:  BCF    x06.5
....................                printf("Funcionamiento.t4f.txt=\" Ninguna\""); 
0D51C:  MOVLW  04
0D51E:  MOVWF  FF6
0D520:  MOVLW  19
0D522:  MOVWF  FF7
0D524:  MOVLW  00
0D526:  MOVWF  FF8
0D528:  MOVLB  0
0D52A:  CALL   3FF2
....................                SendDataDisplay(); 
0D52E:  CALL   4024
....................                printf("Funcionamiento.t5f.txt=\" Calentando\""); 
0D532:  MOVLW  26
0D534:  MOVWF  FF6
0D536:  MOVLW  19
0D538:  MOVWF  FF7
0D53A:  MOVLW  00
0D53C:  MOVWF  FF8
0D53E:  CALL   3FF2
....................                SendDataDisplay(); 
0D542:  CALL   4024
....................                Controlando=1; 
0D546:  MOVLW  01
0D548:  MOVLB  2
0D54A:  MOVWF  x4B
....................                Controla(); 
0D54C:  MOVLB  0
0D54E:  CALL   7276
....................                Paso=ON; 
0D552:  BSF    xF7.6
....................                BombaVacio=OFF; 
0D554:  BCF    xF7.2
....................                outVacio=OFF; 
0D556:  BCF    xF7.7
....................                Aire=OFF; 
0D558:  BCF    xF8.1
....................                Desfogue=OFF; 
0D55A:  BCF    xF8.0
....................                aguaEnfriador=OFF; 
0D55C:  BCF    xF7.1
....................             }else{ 
0D55E:  BRA    D952
0D560:  MOVLB  1
....................                TiempoCiclo=0; 
0D562:  CLRF   x0A
0D564:  CLRF   x09
....................                if(mEst==0 && sEst==0){  
0D566:  MOVF   x18,F
0D568:  BTFSS  FD8.2
0D56A:  BRA    D904
0D56C:  MOVF   x17,F
0D56E:  BTFSS  FD8.2
0D570:  BRA    D904
....................                   if(desfoguelento){ 
0D572:  BTFSS  x08.5
0D574:  BRA    D6C0
....................                      Controlando=0; 
0D576:  MOVLB  2
0D578:  CLRF   x4B
....................                      if(PresionCamara<(Atmosferica+2)){ 
0D57A:  MOVLW  02
0D57C:  ADDWF  x9B,W
0D57E:  MOVF   x72,F
0D580:  BNZ   D654
0D582:  SUBWF  x71,W
0D584:  BC    D654
....................                         Secando=OFF; 
0D586:  MOVLB  1
0D588:  BCF    x02.3
....................                         DesfogueSuave=OFF; 
0D58A:  BCF    x02.6
....................                         if(!abrirPuertaL){ 
0D58C:  MOVLB  0
0D58E:  BTFSC  xFB.1
0D590:  BRA    D594
....................                            BombaVacio=OFF; 
0D592:  BCF    xF7.2
....................                         } 
....................                         outVacio=OFF; 
0D594:  BCF    xF7.7
....................                         Aire=OFF; 
0D596:  BCF    xF8.1
....................                         Desfogue=ON; 
0D598:  BSF    xF8.0
....................                         Paso=OFF; 
0D59A:  BCF    xF7.6
....................                         //Suministro_off; 
....................                         aguaEnfriador=OFF; 
0D59C:  BCF    xF7.1
....................                         if(Temperatura<=Tapertura){ 
0D59E:  MOVLB  6
0D5A0:  CLRF   xBB
0D5A2:  MOVFF  259,6BA
0D5A6:  MOVLB  0
0D5A8:  CALL   1F3A
0D5AC:  MOVFF  234,6AF
0D5B0:  MOVFF  233,6AE
0D5B4:  MOVFF  232,6AD
0D5B8:  MOVFF  231,6AC
0D5BC:  MOVFF  03,6B3
0D5C0:  MOVFF  02,6B2
0D5C4:  MOVFF  01,6B1
0D5C8:  MOVFF  00,6B0
0D5CC:  CALL   25CC
0D5D0:  BC    D5D4
0D5D2:  BNZ   D64C
....................                            ActivaAlarma(2); 
0D5D4:  MOVLW  02
0D5D6:  MOVLB  6
0D5D8:  MOVWF  xA8
0D5DA:  MOVLB  0
0D5DC:  CALL   575C
....................                            printf("Funcionamiento.t4f.txt=\" Ninguna\""); 
0D5E0:  MOVLW  4C
0D5E2:  MOVWF  FF6
0D5E4:  MOVLW  19
0D5E6:  MOVWF  FF7
0D5E8:  MOVLW  00
0D5EA:  MOVWF  FF8
0D5EC:  CALL   3FF2
....................                            SendDataDisplay(); 
0D5F0:  CALL   4024
....................                            printf("Funcionamiento.t5f.txt=\" Finalizado\""); 
0D5F4:  MOVLW  6E
0D5F6:  MOVWF  FF6
0D5F8:  MOVLW  19
0D5FA:  MOVWF  FF7
0D5FC:  MOVLW  00
0D5FE:  MOVWF  FF8
0D600:  CALL   3FF2
....................                            SendDataDisplay(); 
0D604:  CALL   4024
....................                            Finalizo=ON; 
0D608:  MOVLB  1
0D60A:  BSF    x05.2
....................                            codigoAlarma=14; 
0D60C:  MOVLW  0E
0D60E:  MOVLB  2
0D610:  MOVWF  x8A
....................                            if(codigoAnt!=codigoAlarma){ 
0D612:  MOVF   x8A,W
0D614:  SUBWF  x8B,W
0D616:  BZ    D622
....................                               codigoAnt=codigoAlarma; 
0D618:  MOVFF  28A,28B
....................                               GuardaDatoCiclo();                   
0D61C:  MOVLB  0
0D61E:  CALL   6D6E
....................                            }                           
....................                            if(!flagImprimir){//Imprime Ciclo Finalizado 
0D622:  MOVLB  1
0D624:  BTFSC  x07.6
0D626:  BRA    D64A
....................                               Imprime=28; 
0D628:  MOVLW  1C
0D62A:  MOVLB  2
0D62C:  MOVWF  xA5
....................                               Envio_Esclavos(); 
0D62E:  MOVLB  0
0D630:  CALL   4FE8
....................                               delay_ms(100); 
0D634:  MOVLW  64
0D636:  MOVLB  6
0D638:  MOVWF  xBA
0D63A:  MOVLB  0
0D63C:  CALL   1F70
....................                               Imprime=10; 
0D640:  MOVLW  0A
0D642:  MOVLB  2
0D644:  MOVWF  xA5
....................                               flagImprimir=1; 
0D646:  MOVLB  1
0D648:  BSF    x07.6
0D64A:  MOVLB  0
....................                            } 
....................                         } 
....................                         incrementaCiclos(); 
0D64C:  CALL   7116
....................                      }else if(PresionCamara>(Atmosferica+10)){ 
0D650:  BRA    D6BA
0D652:  MOVLB  2
0D654:  MOVLW  0A
0D656:  ADDWF  x9B,W
0D658:  MOVF   x72,F
0D65A:  BNZ   D662
0D65C:  SUBWF  x71,W
0D65E:  BZ    D6BC
0D660:  BNC   D6BC
....................                         codigoAlarma=13; 
0D662:  MOVLW  0D
0D664:  MOVWF  x8A
....................                         if(codigoAnt!=codigoAlarma){ 
0D666:  MOVF   x8A,W
0D668:  SUBWF  x8B,W
0D66A:  BZ    D676
....................                            codigoAnt=codigoAlarma; 
0D66C:  MOVFF  28A,28B
....................                            GuardaDatoCiclo();                   
0D670:  MOVLB  0
0D672:  CALL   6D6E
....................                         } 
....................                         Desfogando=ON; 
0D676:  MOVLB  1
0D678:  BSF    x02.5
....................                         DesfogueSuave=ON; 
0D67A:  BSF    x02.6
....................                         printf("Funcionamiento.t4f.txt=\" Ninguna\""); 
0D67C:  MOVLW  94
0D67E:  MOVWF  FF6
0D680:  MOVLW  19
0D682:  MOVWF  FF7
0D684:  MOVLW  00
0D686:  MOVWF  FF8
0D688:  MOVLB  0
0D68A:  CALL   3FF2
....................                         SendDataDisplay(); 
0D68E:  CALL   4024
....................                         printf("Funcionamiento.t5f.txt=\" Despresurizando\""); 
0D692:  MOVLW  B6
0D694:  MOVWF  FF6
0D696:  MOVLW  19
0D698:  MOVWF  FF7
0D69A:  MOVLW  00
0D69C:  MOVWF  FF8
0D69E:  CALL   3FF2
....................                         SendDataDisplay(); 
0D6A2:  CALL   4024
....................                         Controlando=0; 
0D6A6:  MOVLB  2
0D6A8:  CLRF   x4B
....................                         Desfogue=ON; 
0D6AA:  MOVLB  0
0D6AC:  BSF    xF8.0
....................                         Paso=ON; 
0D6AE:  BSF    xF7.6
....................                         BombaVacio=OFF; 
0D6B0:  BCF    xF7.2
....................                         aguaEnfriador=OFF; 
0D6B2:  BCF    xF7.1
....................                         outVacio=OFF; 
0D6B4:  BCF    xF7.7
....................                         Aire=OFF;  
0D6B6:  BCF    xF8.1
....................                         suministroVapor=OFF; 
0D6B8:  BCF    xF7.5
0D6BA:  MOVLB  2
....................                      } 
....................                   }else{                      
0D6BC:  BRA    D900
0D6BE:  MOVLB  1
....................                      Paso=OFF; 
0D6C0:  MOVLB  0
0D6C2:  BCF    xF7.6
....................                      Controlando=0; 
0D6C4:  MOVLB  2
0D6C6:  CLRF   x4B
....................                      Control=0; 
0D6C8:  CLRF   x49
....................                      if(PresionCamara<(Atmosferica+2)){   
0D6CA:  MOVLW  02
0D6CC:  ADDWF  x9B,W
0D6CE:  MOVF   x72,F
0D6D0:  BTFSS  FD8.2
0D6D2:  BRA    D888
0D6D4:  SUBWF  x71,W
0D6D6:  BTFSC  FD8.0
0D6D8:  BRA    D888
....................                         if(sSec==0 && mSec==0){                           
0D6DA:  MOVLB  1
0D6DC:  MOVF   x19,F
0D6DE:  BTFSS  FD8.2
0D6E0:  BRA    D7E4
0D6E2:  MOVF   x1A,F
0D6E4:  BTFSS  FD8.2
0D6E6:  BRA    D7E4
....................                            codigoAlarma=15; 
0D6E8:  MOVLW  0F
0D6EA:  MOVLB  2
0D6EC:  MOVWF  x8A
....................                            if(codigoAnt!=codigoAlarma){ 
0D6EE:  MOVF   x8A,W
0D6F0:  SUBWF  x8B,W
0D6F2:  BZ    D700
....................                               codigoAnt=codigoAlarma; 
0D6F4:  MOVFF  28A,28B
....................                               GuardaDatoCiclo();                   
0D6F8:  MOVLB  0
0D6FA:  CALL   6D6E
0D6FE:  MOVLB  2
....................                            } 
....................                            if(!DOORS){ 
0D700:  BSF    F93.3
0D702:  BTFSS  F81.3
0D704:  BRA    D710
....................                               Desfogue=OFF; 
0D706:  MOVLB  0
0D708:  BCF    xF8.0
....................                               Paso=OFF; 
0D70A:  BCF    xF7.6
....................                            }else{ 
0D70C:  BRA    D716
0D70E:  MOVLB  2
....................                               Desfogue=ON;                               
0D710:  MOVLB  0
0D712:  BSF    xF8.0
....................                               Paso=OFF; 
0D714:  BCF    xF7.6
....................                            }     
....................                            if(!abrirPuertaL){ 
0D716:  BTFSC  xFB.1
0D718:  BRA    D71C
....................                               BombaVacio=OFF; 
0D71A:  BCF    xF7.2
....................                            } 
....................                            aguaEnfriador=OFF; 
0D71C:  BCF    xF7.1
....................                            outVacio=OFF; 
0D71E:  BCF    xF7.7
....................                            Aire=ON; 
0D720:  BSF    xF8.1
....................                            Desfogue=ON; 
0D722:  BSF    xF8.0
....................                            Paso=OFF; 
0D724:  BCF    xF7.6
....................                            suministroVapor=OFF; 
0D726:  BCF    xF7.5
....................                            Secando=OFF; 
0D728:  MOVLB  1
0D72A:  BCF    x02.3
....................                            if(Temperatura<=Tapertura){ 
0D72C:  MOVLB  6
0D72E:  CLRF   xBB
0D730:  MOVFF  259,6BA
0D734:  MOVLB  0
0D736:  CALL   1F3A
0D73A:  MOVFF  234,6AF
0D73E:  MOVFF  233,6AE
0D742:  MOVFF  232,6AD
0D746:  MOVFF  231,6AC
0D74A:  MOVFF  03,6B3
0D74E:  MOVFF  02,6B2
0D752:  MOVFF  01,6B1
0D756:  MOVFF  00,6B0
0D75A:  CALL   25CC
0D75E:  BC    D762
0D760:  BNZ   D7DA
....................                               ActivaAlarma(2); 
0D762:  MOVLW  02
0D764:  MOVLB  6
0D766:  MOVWF  xA8
0D768:  MOVLB  0
0D76A:  CALL   575C
....................                               printf("Funcionamiento.t4f.txt=\" Ninguna\""); 
0D76E:  MOVLW  E0
0D770:  MOVWF  FF6
0D772:  MOVLW  19
0D774:  MOVWF  FF7
0D776:  MOVLW  00
0D778:  MOVWF  FF8
0D77A:  CALL   3FF2
....................                               SendDataDisplay(); 
0D77E:  CALL   4024
....................                               printf("Funcionamiento.t5f.txt=\" Finalizado\""); 
0D782:  MOVLW  02
0D784:  MOVWF  FF6
0D786:  MOVLW  1A
0D788:  MOVWF  FF7
0D78A:  MOVLW  00
0D78C:  MOVWF  FF8
0D78E:  CALL   3FF2
....................                               SendDataDisplay(); 
0D792:  CALL   4024
....................                               Finalizo=ON; 
0D796:  MOVLB  1
0D798:  BSF    x05.2
....................                               codigoAlarma=14; 
0D79A:  MOVLW  0E
0D79C:  MOVLB  2
0D79E:  MOVWF  x8A
....................                               if(codigoAnt!=codigoAlarma){ 
0D7A0:  MOVF   x8A,W
0D7A2:  SUBWF  x8B,W
0D7A4:  BZ    D7B0
....................                                  codigoAnt=codigoAlarma; 
0D7A6:  MOVFF  28A,28B
....................                                  GuardaDatoCiclo();                   
0D7AA:  MOVLB  0
0D7AC:  CALL   6D6E
....................                               } 
....................                               if(!flagImprimir){//Imprime Ciclo Finalizado 
0D7B0:  MOVLB  1
0D7B2:  BTFSC  x07.6
0D7B4:  BRA    D7D8
....................                                  Imprime=28; 
0D7B6:  MOVLW  1C
0D7B8:  MOVLB  2
0D7BA:  MOVWF  xA5
....................                                  Envio_Esclavos(); 
0D7BC:  MOVLB  0
0D7BE:  CALL   4FE8
....................                                  delay_ms(100); 
0D7C2:  MOVLW  64
0D7C4:  MOVLB  6
0D7C6:  MOVWF  xBA
0D7C8:  MOVLB  0
0D7CA:  CALL   1F70
....................                                  Imprime=10; 
0D7CE:  MOVLW  0A
0D7D0:  MOVLB  2
0D7D2:  MOVWF  xA5
....................                                  flagImprimir=1; 
0D7D4:  MOVLB  1
0D7D6:  BSF    x07.6
0D7D8:  MOVLB  0
....................                               } 
....................                            } 
....................                            incrementaCiclos(); 
0D7DA:  CALL   7116
....................                            Secando=OFF; 
0D7DE:  MOVLB  1
0D7E0:  BCF    x02.3
....................                         }else{ 
0D7E2:  BRA    D884
....................                            if(Secando){ 
0D7E4:  BTFSS  x02.3
0D7E6:  BRA    D812
....................                               printf("Funcionamiento.t4f.txt=\" Ninguna\""); 
0D7E8:  MOVLW  28
0D7EA:  MOVWF  FF6
0D7EC:  MOVLW  1A
0D7EE:  MOVWF  FF7
0D7F0:  MOVLW  00
0D7F2:  MOVWF  FF8
0D7F4:  MOVLB  0
0D7F6:  CALL   3FF2
....................                               SendDataDisplay(); 
0D7FA:  CALL   4024
....................                               printf("Funcionamiento.t5f.txt=\" Secando\""); 
0D7FE:  MOVLW  4A
0D800:  MOVWF  FF6
0D802:  MOVLW  1A
0D804:  MOVWF  FF7
0D806:  MOVLW  00
0D808:  MOVWF  FF8
0D80A:  CALL   3FF2
....................                               SendDataDisplay(); 
0D80E:  CALL   4024
....................                            } 
....................                            Paso=OFF; 
0D812:  MOVLB  0
0D814:  BCF    xF7.6
....................                            ControlaPresion(); 
0D816:  CALL   71A8
....................                            if(PresionCamara>NivelVacio+5){//Si la presin de la camara es mayor al nivel de vacio 
0D81A:  MOVLW  05
0D81C:  MOVLB  2
0D81E:  ADDWF  x9A,W
0D820:  MOVF   x72,F
0D822:  BNZ   D82A
0D824:  SUBWF  x71,W
0D826:  BZ    D846
0D828:  BNC   D846
....................                               if(ReservorioLleno) 
0D82A:  MOVLB  1
0D82C:  BTFSS  x08.3
0D82E:  BRA    D836
....................                                  BombaVacio=ON; 
0D830:  MOVLB  0
0D832:  BSF    xF7.2
....................                               else 
0D834:  BRA    D83A
....................                                  BombaVacio=ON; 
0D836:  MOVLB  0
0D838:  BSF    xF7.2
....................                               outVacio=ON; 
0D83A:  BSF    xF7.7
....................                               aguaEnfriador=ON; 
0D83C:  BSF    xF7.1
....................                               Desfogue=OFF; 
0D83E:  BCF    xF8.0
....................                               Aire=OFF; 
0D840:  BCF    xF8.1
....................                               Paso=OFF; 
0D842:  BCF    xF7.6
0D844:  MOVLB  2
....................                            } 
....................        
....................                            if(PresionCamara<=NivelVacio){//Si alcanzo el nivel de vacio requerido 
0D846:  MOVF   x72,F
0D848:  BNZ   D882
0D84A:  MOVF   x71,W
0D84C:  SUBWF  x9A,W
0D84E:  BNC   D882
....................                               codigoAlarma=15; 
0D850:  MOVLW  0F
0D852:  MOVWF  x8A
....................                               if(codigoAnt!=codigoAlarma){ 
0D854:  MOVF   x8A,W
0D856:  SUBWF  x8B,W
0D858:  BZ    D864
....................                                  codigoAnt=codigoAlarma; 
0D85A:  MOVFF  28A,28B
....................                                  GuardaDatoCiclo();                   
0D85E:  MOVLB  0
0D860:  CALL   6D6E
....................                               } 
....................                               Secando=ON; 
0D864:  MOVLB  1
0D866:  BSF    x02.3
....................                               if(ReservorioLleno) 
0D868:  BTFSS  x08.3
0D86A:  BRA    D872
....................                                  BombaVacio=ON; 
0D86C:  MOVLB  0
0D86E:  BSF    xF7.2
....................                               else 
0D870:  BRA    D876
....................                                  BombaVacio=OFF; 
0D872:  MOVLB  0
0D874:  BCF    xF7.2
....................                               aguaEnfriador=ON; 
0D876:  BSF    xF7.1
....................                               outVacio=ON; 
0D878:  BSF    xF7.7
....................                               Desfogue=OFF; 
0D87A:  BCF    xF8.0
....................                               Aire=ON;                      
0D87C:  BSF    xF8.1
....................                               Paso=OFF; 
0D87E:  BCF    xF7.6
0D880:  MOVLB  2
0D882:  MOVLB  1
....................                            } 
....................                         } 
....................                      }else if(PresionCamara>(Atmosferica+5)){ 
0D884:  BRA    D8FE
0D886:  MOVLB  2
0D888:  MOVLW  05
0D88A:  ADDWF  x9B,W
0D88C:  MOVF   x72,F
0D88E:  BNZ   D896
0D890:  SUBWF  x71,W
0D892:  BZ    D8FC
0D894:  BNC   D8FC
....................                         codigoAlarma=13; 
0D896:  MOVLW  0D
0D898:  MOVWF  x8A
....................                         if(codigoAnt!=codigoAlarma){ 
0D89A:  MOVF   x8A,W
0D89C:  SUBWF  x8B,W
0D89E:  BZ    D8AA
....................                            codigoAnt=codigoAlarma; 
0D8A0:  MOVFF  28A,28B
....................                            GuardaDatoCiclo();                   
0D8A4:  MOVLB  0
0D8A6:  CALL   6D6E
....................                         } 
....................                         Desfogando=ON; 
0D8AA:  MOVLB  1
0D8AC:  BSF    x02.5
....................                         printf("Funcionamiento.t4f.txt=\" Ninguna\""); 
0D8AE:  MOVLW  6C
0D8B0:  MOVWF  FF6
0D8B2:  MOVLW  1A
0D8B4:  MOVWF  FF7
0D8B6:  MOVLW  00
0D8B8:  MOVWF  FF8
0D8BA:  MOVLB  0
0D8BC:  CALL   3FF2
....................                         SendDataDisplay(); 
0D8C0:  CALL   4024
....................                         printf("Funcionamiento.t5f.txt=\" Despresurizando\""); 
0D8C4:  MOVLW  8E
0D8C6:  MOVWF  FF6
0D8C8:  MOVLW  1A
0D8CA:  MOVWF  FF7
0D8CC:  MOVLW  00
0D8CE:  MOVWF  FF8
0D8D0:  CALL   3FF2
....................                         SendDataDisplay(); 
0D8D4:  CALL   4024
....................                         Control=0; 
0D8D8:  MOVLB  2
0D8DA:  CLRF   x49
....................                         Controlando=0; 
0D8DC:  CLRF   x4B
....................                         Paso=OFF; 
0D8DE:  MOVLB  0
0D8E0:  BCF    xF7.6
....................                         Desfogue=OFF; 
0D8E2:  BCF    xF8.0
....................                         if(ReservorioLleno) 
0D8E4:  MOVLB  1
0D8E6:  BTFSS  x08.3
0D8E8:  BRA    D8F0
....................                            BombaVacio=ON; 
0D8EA:  MOVLB  0
0D8EC:  BSF    xF7.2
....................                         else 
0D8EE:  BRA    D8F4
....................                            BombaVacio=OFF;    
0D8F0:  MOVLB  0
0D8F2:  BCF    xF7.2
....................                         aguaEnfriador=ON; 
0D8F4:  BSF    xF7.1
....................                         outVacio=ON; 
0D8F6:  BSF    xF7.7
....................                         Aire=OFF; 
0D8F8:  BCF    xF8.1
....................                         suministroVapor=OFF; 
0D8FA:  BCF    xF7.5
0D8FC:  MOVLB  1
0D8FE:  MOVLB  2
....................                      } 
....................                   } 
....................                }else{ 
0D900:  BRA    D954
0D902:  MOVLB  1
....................                   codigoAlarma=16; 
0D904:  MOVLW  10
0D906:  MOVLB  2
0D908:  MOVWF  x8A
....................                   if(codigoAnt!=codigoAlarma){ 
0D90A:  MOVF   x8A,W
0D90C:  SUBWF  x8B,W
0D90E:  BZ    D91C
....................                      codigoAnt=codigoAlarma; 
0D910:  MOVFF  28A,28B
....................                      GuardaDatoCiclo();                   
0D914:  MOVLB  0
0D916:  CALL   6D6E
0D91A:  MOVLB  2
....................                   } 
....................                   printf("Funcionamiento.t4f.txt=\" Ninguna\""); 
0D91C:  MOVLW  B8
0D91E:  MOVWF  FF6
0D920:  MOVLW  1A
0D922:  MOVWF  FF7
0D924:  MOVLW  00
0D926:  MOVWF  FF8
0D928:  MOVLB  0
0D92A:  CALL   3FF2
....................                   SendDataDisplay(); 
0D92E:  CALL   4024
....................                   printf("Funcionamiento.t5f.txt=\" Esterilizando\""); 
0D932:  MOVLW  DA
0D934:  MOVWF  FF6
0D936:  MOVLW  1A
0D938:  MOVWF  FF7
0D93A:  MOVLW  00
0D93C:  MOVWF  FF8
0D93E:  CALL   3FF2
....................                   SendDataDisplay(); 
0D942:  CALL   4024
....................                   //Paso_on; 
....................                   Control=1; 
0D946:  MOVLW  01
0D948:  MOVLB  2
0D94A:  MOVWF  x49
....................                   Controla(); 
0D94C:  MOVLB  0
0D94E:  CALL   7276
0D952:  MOVLB  2
....................                } 
....................             } 
....................          } 
....................       }  
....................       }else{ 
0D954:  BRA    DB20
0D956:  MOVLB  1
....................       EstadoBuzzer=OFF; 
0D958:  BCF    x04.6
....................       IniciaCiclo=ON; 
0D95A:  BSF    x02.1
....................          if(!flag_vac){ 
0D95C:  BTFSC  x06.5
0D95E:  BRA    D9A6
....................             codigoAlarma=11; 
0D960:  MOVLW  0B
0D962:  MOVLB  2
0D964:  MOVWF  x8A
....................             if(codigoAnt!=codigoAlarma){ 
0D966:  MOVF   x8A,W
0D968:  SUBWF  x8B,W
0D96A:  BZ    D976
....................                codigoAnt=codigoAlarma; 
0D96C:  MOVFF  28A,28B
....................                GuardaDatoCiclo();                
0D970:  MOVLB  0
0D972:  CALL   6D6E
....................             } 
....................             flag_vac=ON; 
0D976:  MOVLB  1
0D978:  BSF    x06.5
....................             if(ReservorioLleno) 
0D97A:  BTFSS  x08.3
0D97C:  BRA    D984
....................                BombaVacio=ON; 
0D97E:  MOVLB  0
0D980:  BSF    xF7.2
....................             else 
0D982:  BRA    D988
....................                BombaVacio=OFF; 
0D984:  MOVLB  0
0D986:  BCF    xF7.2
....................             Desfogue=OFF; 
0D988:  BCF    xF8.0
....................             Aire=OFF; 
0D98A:  BCF    xF8.1
....................             aguaEnfriador=OFF; 
0D98C:  BCF    xF7.1
....................             Paso=OFF; 
0D98E:  BCF    xF7.6
....................             suministroVapor=OFF; 
0D990:  BCF    xF7.5
....................             delay_ms(70); 
0D992:  MOVLW  46
0D994:  MOVLB  6
0D996:  MOVWF  xBA
0D998:  MOVLB  0
0D99A:  CALL   1F70
....................             IniciaVacio2=ON; 
0D99E:  MOVLB  1
0D9A0:  BSF    x06.3
....................             outVacio=ON; 
0D9A2:  MOVLB  0
0D9A4:  BSF    xF7.7
....................          } 
....................           
....................          if(tbomba>=120){ 
0D9A6:  MOVLB  2
0D9A8:  MOVF   x78,F
0D9AA:  BNZ   D9B2
0D9AC:  MOVF   x77,W
0D9AE:  SUBLW  77
0D9B0:  BC    D9CE
....................             if(PresionCamara>Atmosferica){ 
0D9B2:  MOVF   x72,F
0D9B4:  BNZ   D9BC
0D9B6:  MOVF   x71,W
0D9B8:  SUBWF  x9B,W
0D9BA:  BC    D9C4
....................                AlarmaBomba=ON; 
0D9BC:  MOVLB  0
0D9BE:  BSF    xF9.7
....................             }else{ 
0D9C0:  BRA    D9CE
0D9C2:  MOVLB  2
....................                tbomba=0; 
0D9C4:  CLRF   x78
0D9C6:  CLRF   x77
....................                IniciaVacio2=OFF; 
0D9C8:  MOVLB  1
0D9CA:  BCF    x06.3
0D9CC:  MOVLB  0
....................             } 
....................          } 
....................           
....................          if(tvacio>=TiempoVacio){//Si excede el tiempo maximo para generar los pulsos de vacio genera alarma             
0D9CE:  MOVLB  0
0D9D0:  MOVF   xFD,W
0D9D2:  MOVLB  2
0D9D4:  SUBWF  x7A,W
0D9D6:  BNC   D9EA
0D9D8:  BNZ   D9E4
0D9DA:  MOVLB  0
0D9DC:  MOVF   xFC,W
0D9DE:  MOVLB  2
0D9E0:  SUBWF  x79,W
0D9E2:  BNC   D9EA
....................                AlarmaVacio=ON; 
0D9E4:  MOVLB  0
0D9E6:  BSF    xF9.4
0D9E8:  MOVLB  2
....................          } 
....................           
....................          if(PresionCamara<17){ 
0D9EA:  MOVF   x72,F
0D9EC:  BNZ   DA10
0D9EE:  MOVF   x71,W
0D9F0:  SUBLW  10
0D9F2:  BNC   DA10
....................             BombaVacio=OFF; 
0D9F4:  MOVLB  0
0D9F6:  BCF    xF7.2
....................             outVacio=OFF; 
0D9F8:  BCF    xF7.7
....................             Desfogue=OFF; 
0D9FA:  BCF    xF8.0
....................             Aire=OFF; 
0D9FC:  BCF    xF8.1
....................             aguaEnfriador=OFF; 
0D9FE:  BCF    xF7.1
....................             Paso=OFF; 
0DA00:  BCF    xF7.6
....................             suministroVapor=OFF; 
0DA02:  BCF    xF7.5
....................             Esterilizando=ON; 
0DA04:  MOVLB  1
0DA06:  BSF    x02.2
....................             IniciaVacio=OFF; 
0DA08:  BCF    x06.2
....................             tbomba=0; 
0DA0A:  MOVLB  2
0DA0C:  CLRF   x78
0DA0E:  CLRF   x77
....................          }  
....................           
....................          if(!Esterilizando){ 
0DA10:  MOVLB  1
0DA12:  BTFSC  x02.2
0DA14:  BRA    DA4E
....................             if(ReservorioLleno) 
0DA16:  BTFSS  x08.3
0DA18:  BRA    DA20
....................                BombaVacio=ON; 
0DA1A:  MOVLB  0
0DA1C:  BSF    xF7.2
....................             else 
0DA1E:  BRA    DA24
....................                BombaVacio=OFF; 
0DA20:  MOVLB  0
0DA22:  BCF    xF7.2
....................              
....................             printf("Funcionamiento.t4f.txt=\" Ninguna\""); 
0DA24:  MOVLW  02
0DA26:  MOVWF  FF6
0DA28:  MOVLW  1B
0DA2A:  MOVWF  FF7
0DA2C:  MOVLW  00
0DA2E:  MOVWF  FF8
0DA30:  CALL   3FF2
....................             SendDataDisplay(); 
0DA34:  CALL   4024
....................             printf("Funcionamiento.t5f.txt=\" Vacio\""); 
0DA38:  MOVLW  24
0DA3A:  MOVWF  FF6
0DA3C:  MOVLW  1B
0DA3E:  MOVWF  FF7
0DA40:  MOVLW  00
0DA42:  MOVWF  FF8
0DA44:  CALL   3FF2
....................             SendDataDisplay(); 
0DA48:  CALL   4024
0DA4C:  MOVLB  1
....................          } 
....................           
....................          if(mEst==0 && sEst==0){   
0DA4E:  MOVF   x18,F
0DA50:  BNZ   DB1E
0DA52:  MOVF   x17,F
0DA54:  BNZ   DB1E
....................             IniciaVacio=OFF; 
0DA56:  BCF    x06.2
....................             tbomba=0; 
0DA58:  MOVLB  2
0DA5A:  CLRF   x78
0DA5C:  CLRF   x77
....................             BombaVacio=OFF; 
0DA5E:  MOVLB  0
0DA60:  BCF    xF7.2
....................             outVacio=OFF; 
0DA62:  BCF    xF7.7
....................             Desfogue=OFF; 
0DA64:  BCF    xF8.0
....................             Aire=ON; 
0DA66:  BSF    xF8.1
....................             Paso=OFF; 
0DA68:  BCF    xF7.6
....................             suministroVapor=OFF; 
0DA6A:  BCF    xF7.5
....................             aguaEnfriador=OFF; 
0DA6C:  BCF    xF7.1
....................             ActivaAlarma(2); 
0DA6E:  MOVLW  02
0DA70:  MOVLB  6
0DA72:  MOVWF  xA8
0DA74:  MOVLB  0
0DA76:  CALL   575C
....................             if(!Finalizo){ 
0DA7A:  MOVLB  1
0DA7C:  BTFSC  x05.2
0DA7E:  BRA    DB14
....................                Finalizo=ON; 
0DA80:  BSF    x05.2
....................                if(PresionCamara<=60){ 
0DA82:  MOVLB  2
0DA84:  MOVF   x72,F
0DA86:  BNZ   DAD2
0DA88:  MOVF   x71,W
0DA8A:  SUBLW  3C
0DA8C:  BNC   DAD2
....................                   printf("Funcionamiento.t4f.txt=\" Ninguna\""); 
0DA8E:  MOVLW  44
0DA90:  MOVWF  FF6
0DA92:  MOVLW  1B
0DA94:  MOVWF  FF7
0DA96:  MOVLW  00
0DA98:  MOVWF  FF8
0DA9A:  MOVLB  0
0DA9C:  CALL   3FF2
....................                   SendDataDisplay(); 
0DAA0:  CALL   4024
....................                   printf("Funcionamiento.t5f.txt=\" Finalizado\""); 
0DAA4:  MOVLW  66
0DAA6:  MOVWF  FF6
0DAA8:  MOVLW  1B
0DAAA:  MOVWF  FF7
0DAAC:  MOVLW  00
0DAAE:  MOVWF  FF8
0DAB0:  CALL   3FF2
....................                   SendDataDisplay(); 
0DAB4:  CALL   4024
....................                   codigoAlarma=14; 
0DAB8:  MOVLW  0E
0DABA:  MOVLB  2
0DABC:  MOVWF  x8A
....................                   if(codigoAnt!=codigoAlarma){ 
0DABE:  MOVF   x8A,W
0DAC0:  SUBWF  x8B,W
0DAC2:  BZ    DAD0
....................                      codigoAnt=codigoAlarma; 
0DAC4:  MOVFF  28A,28B
....................                      GuardaDatoCiclo();                   
0DAC8:  MOVLB  0
0DACA:  CALL   6D6E
0DACE:  MOVLB  2
....................                   } 
....................                }else{ 
0DAD0:  BRA    DB14
....................                   printf("Funcionamiento.t4f.txt=\" Error Ciclo\""); 
0DAD2:  MOVLW  8C
0DAD4:  MOVWF  FF6
0DAD6:  MOVLW  1B
0DAD8:  MOVWF  FF7
0DADA:  MOVLW  00
0DADC:  MOVWF  FF8
0DADE:  MOVLB  0
0DAE0:  CALL   3FF2
....................                   SendDataDisplay(); 
0DAE4:  CALL   4024
....................                   printf("Funcionamiento.t5f.txt=\" Finalizado\""); 
0DAE8:  MOVLW  B2
0DAEA:  MOVWF  FF6
0DAEC:  MOVLW  1B
0DAEE:  MOVWF  FF7
0DAF0:  MOVLW  00
0DAF2:  MOVWF  FF8
0DAF4:  CALL   3FF2
....................                   SendDataDisplay(); 
0DAF8:  CALL   4024
....................                   codigoAlarma=8; 
0DAFC:  MOVLW  08
0DAFE:  MOVLB  2
0DB00:  MOVWF  x8A
....................                   if(codigoAnt!=codigoAlarma){ 
0DB02:  MOVF   x8A,W
0DB04:  SUBWF  x8B,W
0DB06:  BZ    DB14
....................                      codigoAnt=codigoAlarma; 
0DB08:  MOVFF  28A,28B
....................                      GuardaDatoCiclo();                   
0DB0C:  MOVLB  0
0DB0E:  CALL   6D6E
0DB12:  MOVLB  2
....................                   } 
....................                } 
....................             } 
....................             incrementaCiclos(); 
0DB14:  MOVLB  0
0DB16:  CALL   7116
....................             Esterilizando=OFF; 
0DB1A:  MOVLB  1
0DB1C:  BCF    x02.2
0DB1E:  MOVLB  2
....................          } 
....................       } 
....................    } 
....................  
....................    if(tguarda>=180){ 
0DB20:  MOVLB  1
0DB22:  MOVF   x12,F
0DB24:  BNZ   DB2C
0DB26:  MOVF   x11,W
0DB28:  SUBLW  B3
0DB2A:  BC    DB3C
....................       if(!Ciclo) 
0DB2C:  BTFSC  x03.5
0DB2E:  BRA    DB38
....................          GuardaDatoCiclo(); 
0DB30:  MOVLB  0
0DB32:  CALL   6D6E
0DB36:  MOVLB  1
....................       tguarda=0; 
0DB38:  CLRF   x12
0DB3A:  CLRF   x11
....................    } 
....................  
....................    if(Grafica==1){ 
0DB3C:  BTFSS  x08.7
0DB3E:  BRA    DCB2
....................       printf("add 12,0,%1.0f",Temperatura*0.66); 
0DB40:  MOVFF  234,6C1
0DB44:  MOVFF  233,6C0
0DB48:  MOVFF  232,6BF
0DB4C:  MOVFF  231,6BE
0DB50:  MOVLW  C3
0DB52:  MOVLB  6
0DB54:  MOVWF  xC5
0DB56:  MOVLW  F5
0DB58:  MOVWF  xC4
0DB5A:  MOVLW  28
0DB5C:  MOVWF  xC3
0DB5E:  MOVLW  7E
0DB60:  MOVWF  xC2
0DB62:  MOVLB  0
0DB64:  CALL   40BA
0DB68:  MOVFF  00,6A8
0DB6C:  MOVFF  01,6A9
0DB70:  MOVFF  02,6AA
0DB74:  MOVFF  03,6AB
0DB78:  MOVLW  D8
0DB7A:  MOVWF  FF6
0DB7C:  MOVLW  1B
0DB7E:  MOVWF  FF7
0DB80:  MOVLW  00
0DB82:  MOVWF  FF8
0DB84:  MOVLW  09
0DB86:  MOVLB  6
0DB88:  MOVWF  xAD
0DB8A:  MOVLB  0
0DB8C:  CALL   5A32
0DB90:  MOVLW  00
0DB92:  MOVWF  FE9
0DB94:  MOVFF  6AB,6B0
0DB98:  MOVFF  6AA,6AF
0DB9C:  MOVFF  6A9,6AE
0DBA0:  MOVFF  6A8,6AD
0DBA4:  MOVLB  6
0DBA6:  CLRF   xB1
0DBA8:  MOVLB  0
0DBAA:  CALL   5D1C
....................       SendDataDisplay(); 
0DBAE:  CALL   4024
....................       printf("add 12,1,%1.0f",PresionCamara*0.66); 
0DBB2:  MOVFF  272,6BB
0DBB6:  MOVFF  271,6BA
0DBBA:  CALL   1F3A
0DBBE:  MOVFF  03,6C1
0DBC2:  MOVFF  02,6C0
0DBC6:  MOVFF  01,6BF
0DBCA:  MOVFF  00,6BE
0DBCE:  MOVLW  C3
0DBD0:  MOVLB  6
0DBD2:  MOVWF  xC5
0DBD4:  MOVLW  F5
0DBD6:  MOVWF  xC4
0DBD8:  MOVLW  28
0DBDA:  MOVWF  xC3
0DBDC:  MOVLW  7E
0DBDE:  MOVWF  xC2
0DBE0:  MOVLB  0
0DBE2:  CALL   40BA
0DBE6:  MOVFF  00,6A8
0DBEA:  MOVFF  01,6A9
0DBEE:  MOVFF  02,6AA
0DBF2:  MOVFF  03,6AB
0DBF6:  MOVLW  E8
0DBF8:  MOVWF  FF6
0DBFA:  MOVLW  1B
0DBFC:  MOVWF  FF7
0DBFE:  MOVLW  00
0DC00:  MOVWF  FF8
0DC02:  MOVLW  09
0DC04:  MOVLB  6
0DC06:  MOVWF  xAD
0DC08:  MOVLB  0
0DC0A:  CALL   5A32
0DC0E:  MOVLW  00
0DC10:  MOVWF  FE9
0DC12:  MOVFF  6AB,6B0
0DC16:  MOVFF  6AA,6AF
0DC1A:  MOVFF  6A9,6AE
0DC1E:  MOVFF  6A8,6AD
0DC22:  MOVLB  6
0DC24:  CLRF   xB1
0DC26:  MOVLB  0
0DC28:  CALL   5D1C
....................       SendDataDisplay(); 
0DC2C:  CALL   4024
....................       printf("add 12,2,%1.0f",PresionPreCamara*0.66); 
0DC30:  MOVFF  274,6BB
0DC34:  MOVFF  273,6BA
0DC38:  CALL   1F3A
0DC3C:  MOVFF  03,6C1
0DC40:  MOVFF  02,6C0
0DC44:  MOVFF  01,6BF
0DC48:  MOVFF  00,6BE
0DC4C:  MOVLW  C3
0DC4E:  MOVLB  6
0DC50:  MOVWF  xC5
0DC52:  MOVLW  F5
0DC54:  MOVWF  xC4
0DC56:  MOVLW  28
0DC58:  MOVWF  xC3
0DC5A:  MOVLW  7E
0DC5C:  MOVWF  xC2
0DC5E:  MOVLB  0
0DC60:  CALL   40BA
0DC64:  MOVFF  00,6A8
0DC68:  MOVFF  01,6A9
0DC6C:  MOVFF  02,6AA
0DC70:  MOVFF  03,6AB
0DC74:  MOVLW  F8
0DC76:  MOVWF  FF6
0DC78:  MOVLW  1B
0DC7A:  MOVWF  FF7
0DC7C:  MOVLW  00
0DC7E:  MOVWF  FF8
0DC80:  MOVLW  09
0DC82:  MOVLB  6
0DC84:  MOVWF  xAD
0DC86:  MOVLB  0
0DC88:  CALL   5A32
0DC8C:  MOVLW  00
0DC8E:  MOVWF  FE9
0DC90:  MOVFF  6AB,6B0
0DC94:  MOVFF  6AA,6AF
0DC98:  MOVFF  6A9,6AE
0DC9C:  MOVFF  6A8,6AD
0DCA0:  MOVLB  6
0DCA2:  CLRF   xB1
0DCA4:  MOVLB  0
0DCA6:  CALL   5D1C
....................       SendDataDisplay(); 
0DCAA:  CALL   4024
....................       Grafica=0; 
0DCAE:  MOVLB  1
0DCB0:  BCF    x08.7
....................    } 
....................    if(Lectura==1)// Utilizado para visualizar la lectura de la temperatura 
0DCB2:  BTFSS  x08.6
0DCB4:  BRA    DF4A
....................    {                       
....................       Lectura=0; 
0DCB6:  BCF    x08.6
....................       //printf("tuser.txt=\"%s\"",usuario); 
....................       //SendDataDisplay(); 
....................       printf("t6f.txt=\"%3.1fC\"",Temperatura); 
0DCB8:  MOVLW  08
0DCBA:  MOVWF  FF6
0DCBC:  MOVLW  1C
0DCBE:  MOVWF  FF7
0DCC0:  MOVLW  00
0DCC2:  MOVWF  FF8
0DCC4:  MOVLW  09
0DCC6:  MOVLB  6
0DCC8:  MOVWF  xAD
0DCCA:  MOVLB  0
0DCCC:  CALL   5A32
0DCD0:  MOVLW  02
0DCD2:  MOVWF  FE9
0DCD4:  MOVFF  234,6B0
0DCD8:  MOVFF  233,6AF
0DCDC:  MOVFF  232,6AE
0DCE0:  MOVFF  231,6AD
0DCE4:  MOVLW  01
0DCE6:  MOVLB  6
0DCE8:  MOVWF  xB1
0DCEA:  MOVLB  0
0DCEC:  CALL   5D1C
0DCF0:  MOVLW  B0
0DCF2:  BTFSS  F9E.4
0DCF4:  BRA    DCF2
0DCF6:  MOVWF  FAD
0DCF8:  MOVLW  43
0DCFA:  BTFSS  F9E.4
0DCFC:  BRA    DCFA
0DCFE:  MOVWF  FAD
0DD00:  MOVLW  22
0DD02:  BTFSS  F9E.4
0DD04:  BRA    DD02
0DD06:  MOVWF  FAD
....................       SendDataDisplay(); 
0DD08:  CALL   4024
....................       printf("Funcionamiento.t7f.txt=\"%03LukPa\"",PresionCamara); 
0DD0C:  MOVLW  1A
0DD0E:  MOVWF  FF6
0DD10:  MOVLW  1C
0DD12:  MOVWF  FF7
0DD14:  MOVLW  00
0DD16:  MOVWF  FF8
0DD18:  MOVLW  18
0DD1A:  MOVLB  6
0DD1C:  MOVWF  xAD
0DD1E:  MOVLB  0
0DD20:  CALL   5A32
0DD24:  MOVLW  0A
0DD26:  MOVWF  FE9
0DD28:  MOVFF  272,6AD
0DD2C:  MOVFF  271,6AC
0DD30:  CALL   5BAE
0DD34:  MOVLW  37
0DD36:  MOVWF  FF6
0DD38:  MOVLW  1C
0DD3A:  MOVWF  FF7
0DD3C:  MOVLW  00
0DD3E:  MOVWF  FF8
0DD40:  MOVLW  04
0DD42:  MOVLB  6
0DD44:  MOVWF  xAD
0DD46:  MOVLB  0
0DD48:  CALL   5A32
....................       SendDataDisplay(); 
0DD4C:  CALL   4024
....................       printf("Funcionamiento.t12f.txt=\"%03LukPa\"",PresionPreCamara); 
0DD50:  MOVLW  3C
0DD52:  MOVWF  FF6
0DD54:  MOVLW  1C
0DD56:  MOVWF  FF7
0DD58:  MOVLW  00
0DD5A:  MOVWF  FF8
0DD5C:  MOVLW  19
0DD5E:  MOVLB  6
0DD60:  MOVWF  xAD
0DD62:  MOVLB  0
0DD64:  CALL   5A32
0DD68:  MOVLW  0A
0DD6A:  MOVWF  FE9
0DD6C:  MOVFF  274,6AD
0DD70:  MOVFF  273,6AC
0DD74:  CALL   5BAE
0DD78:  MOVLW  5A
0DD7A:  MOVWF  FF6
0DD7C:  MOVLW  1C
0DD7E:  MOVWF  FF7
0DD80:  MOVLW  00
0DD82:  MOVWF  FF8
0DD84:  MOVLW  04
0DD86:  MOVLB  6
0DD88:  MOVWF  xAD
0DD8A:  MOVLB  0
0DD8C:  CALL   5A32
....................       SendDataDisplay(); 
0DD90:  CALL   4024
....................       printf("Funcionamiento.t9f.txt=\"%03uC\"",Setpoint); 
0DD94:  MOVLW  60
0DD96:  MOVWF  FF6
0DD98:  MOVLW  1C
0DD9A:  MOVWF  FF7
0DD9C:  MOVLW  00
0DD9E:  MOVWF  FF8
0DDA0:  MOVLW  18
0DDA2:  MOVLB  6
0DDA4:  MOVWF  xAD
0DDA6:  MOVLB  0
0DDA8:  CALL   5A32
0DDAC:  MOVFF  260,6AD
0DDB0:  MOVLW  03
0DDB2:  MOVLB  6
0DDB4:  MOVWF  xAE
0DDB6:  MOVLB  0
0DDB8:  CALL   5AB6
0DDBC:  MOVLW  B0
0DDBE:  BTFSS  F9E.4
0DDC0:  BRA    DDBE
0DDC2:  MOVWF  FAD
0DDC4:  MOVLW  43
0DDC6:  BTFSS  F9E.4
0DDC8:  BRA    DDC6
0DDCA:  MOVWF  FAD
0DDCC:  MOVLW  22
0DDCE:  BTFSS  F9E.4
0DDD0:  BRA    DDCE
0DDD2:  MOVWF  FAD
....................       SendDataDisplay();       
0DDD4:  CALL   4024
....................       printf("Funcionamiento.t10f.txt=\"%02u:%02u\"",mEst,sEst); 
0DDD8:  MOVLW  80
0DDDA:  MOVWF  FF6
0DDDC:  MOVLW  1C
0DDDE:  MOVWF  FF7
0DDE0:  MOVLW  00
0DDE2:  MOVWF  FF8
0DDE4:  MOVLW  19
0DDE6:  MOVLB  6
0DDE8:  MOVWF  xAD
0DDEA:  MOVLB  0
0DDEC:  CALL   5A32
0DDF0:  MOVFF  118,6AD
0DDF4:  MOVLW  01
0DDF6:  MOVLB  6
0DDF8:  MOVWF  xAE
0DDFA:  MOVLB  0
0DDFC:  CALL   5AB6
0DE00:  MOVLW  3A
0DE02:  BTFSS  F9E.4
0DE04:  BRA    DE02
0DE06:  MOVWF  FAD
0DE08:  MOVFF  117,6AD
0DE0C:  MOVLW  01
0DE0E:  MOVLB  6
0DE10:  MOVWF  xAE
0DE12:  MOVLB  0
0DE14:  CALL   5AB6
0DE18:  MOVLW  22
0DE1A:  BTFSS  F9E.4
0DE1C:  BRA    DE1A
0DE1E:  MOVWF  FAD
....................       SendDataDisplay();       
0DE20:  CALL   4024
....................       printf("Funcionamiento.t11f.txt=\"%02u:%02u\"",mSec,sSec); 
0DE24:  MOVLW  A4
0DE26:  MOVWF  FF6
0DE28:  MOVLW  1C
0DE2A:  MOVWF  FF7
0DE2C:  MOVLW  00
0DE2E:  MOVWF  FF8
0DE30:  MOVLW  19
0DE32:  MOVLB  6
0DE34:  MOVWF  xAD
0DE36:  MOVLB  0
0DE38:  CALL   5A32
0DE3C:  MOVFF  11A,6AD
0DE40:  MOVLW  01
0DE42:  MOVLB  6
0DE44:  MOVWF  xAE
0DE46:  MOVLB  0
0DE48:  CALL   5AB6
0DE4C:  MOVLW  3A
0DE4E:  BTFSS  F9E.4
0DE50:  BRA    DE4E
0DE52:  MOVWF  FAD
0DE54:  MOVFF  119,6AD
0DE58:  MOVLW  01
0DE5A:  MOVLB  6
0DE5C:  MOVWF  xAE
0DE5E:  MOVLB  0
0DE60:  CALL   5AB6
0DE64:  MOVLW  22
0DE66:  BTFSS  F9E.4
0DE68:  BRA    DE66
0DE6A:  MOVWF  FAD
....................       SendDataDisplay();       
0DE6C:  CALL   4024
....................        
....................       printf("fecha.txt=\"%s Fecha:%02u/%02u/20%02u   Hora: %02u:%02u\"",usuario,Dia,Mes,Year,Hora,Minuto); 
0DE70:  MOVLW  C8
0DE72:  MOVWF  FF6
0DE74:  MOVLW  1C
0DE76:  MOVWF  FF7
0DE78:  MOVLW  00
0DE7A:  MOVWF  FF8
0DE7C:  MOVLW  0B
0DE7E:  MOVLB  6
0DE80:  MOVWF  xAD
0DE82:  MOVLB  0
0DE84:  CALL   5A32
0DE88:  MOVLW  02
0DE8A:  MOVWF  FEA
0DE8C:  MOVLW  AE
0DE8E:  MOVWF  FE9
0DE90:  CALL   5A64
0DE94:  MOVLW  D5
0DE96:  MOVWF  FF6
0DE98:  MOVLW  1C
0DE9A:  MOVWF  FF7
0DE9C:  MOVLW  00
0DE9E:  MOVWF  FF8
0DEA0:  MOVLW  07
0DEA2:  MOVLB  6
0DEA4:  MOVWF  xAD
0DEA6:  MOVLB  0
0DEA8:  CALL   5A32
0DEAC:  MOVFF  293,6AD
0DEB0:  MOVLW  01
0DEB2:  MOVLB  6
0DEB4:  MOVWF  xAE
0DEB6:  MOVLB  0
0DEB8:  CALL   5AB6
0DEBC:  MOVLW  2F
0DEBE:  BTFSS  F9E.4
0DEC0:  BRA    DEBE
0DEC2:  MOVWF  FAD
0DEC4:  MOVFF  292,6AD
0DEC8:  MOVLW  01
0DECA:  MOVLB  6
0DECC:  MOVWF  xAE
0DECE:  MOVLB  0
0DED0:  CALL   5AB6
0DED4:  MOVLW  2F
0DED6:  BTFSS  F9E.4
0DED8:  BRA    DED6
0DEDA:  MOVWF  FAD
0DEDC:  MOVLW  32
0DEDE:  BTFSS  F9E.4
0DEE0:  BRA    DEDE
0DEE2:  MOVWF  FAD
0DEE4:  MOVLW  30
0DEE6:  BTFSS  F9E.4
0DEE8:  BRA    DEE6
0DEEA:  MOVWF  FAD
0DEEC:  MOVFF  291,6AD
0DEF0:  MOVLW  01
0DEF2:  MOVLB  6
0DEF4:  MOVWF  xAE
0DEF6:  MOVLB  0
0DEF8:  CALL   5AB6
0DEFC:  MOVLW  EC
0DEFE:  MOVWF  FF6
0DF00:  MOVLW  1C
0DF02:  MOVWF  FF7
0DF04:  MOVLW  00
0DF06:  MOVWF  FF8
0DF08:  MOVLW  09
0DF0A:  MOVLB  6
0DF0C:  MOVWF  xAD
0DF0E:  MOVLB  0
0DF10:  CALL   5A32
0DF14:  MOVFF  294,6AD
0DF18:  MOVLW  01
0DF1A:  MOVLB  6
0DF1C:  MOVWF  xAE
0DF1E:  MOVLB  0
0DF20:  CALL   5AB6
0DF24:  MOVLW  3A
0DF26:  BTFSS  F9E.4
0DF28:  BRA    DF26
0DF2A:  MOVWF  FAD
0DF2C:  MOVFF  295,6AD
0DF30:  MOVLW  01
0DF32:  MOVLB  6
0DF34:  MOVWF  xAE
0DF36:  MOVLB  0
0DF38:  CALL   5AB6
0DF3C:  MOVLW  22
0DF3E:  BTFSS  F9E.4
0DF40:  BRA    DF3E
0DF42:  MOVWF  FAD
....................       SendDataDisplay(); 
0DF44:  CALL   4024
0DF48:  MOVLB  1
....................    } 
....................  
.................... }else if(Menu==100){ //Menu de Configuracin de Parametros de Control 
0DF4A:  GOTO   EDD6
0DF4E:  MOVLB  2
0DF50:  MOVF   x52,W
0DF52:  SUBLW  64
0DF54:  BTFSS  FD8.2
0DF56:  GOTO   EDD6
....................       
....................       if(Opcion2>12) 
0DF5A:  MOVF   x62,W
0DF5C:  SUBLW  0C
0DF5E:  BC    DF64
....................          Opcion2=1; 
0DF60:  MOVLW  01
0DF62:  MOVWF  x62
....................       if(Opcion2<1) 
0DF64:  MOVF   x62,F
0DF66:  BNZ   DF6C
....................          Opcion2=12; 
0DF68:  MOVLW  0C
0DF6A:  MOVWF  x62
....................        
....................       if(Opcion2==1){ 
0DF6C:  DECFSZ x62,W
0DF6E:  BRA    E0B0
....................          printf("Config.t2c.txt=\"Proporcional\""); 
0DF70:  MOVLW  00
0DF72:  MOVWF  FF6
0DF74:  MOVLW  1D
0DF76:  MOVWF  FF7
0DF78:  MOVLW  00
0DF7A:  MOVWF  FF8
0DF7C:  MOVLB  0
0DF7E:  CALL   3FF2
....................          SendDataDisplay();       
0DF82:  CALL   4024
....................          printf("t3c.txt=\"%2.0f\"",Ganancia); 
0DF86:  MOVLW  1E
0DF88:  MOVWF  FF6
0DF8A:  MOVLW  1D
0DF8C:  MOVWF  FF7
0DF8E:  MOVLW  00
0DF90:  MOVWF  FF8
0DF92:  MOVLW  09
0DF94:  MOVLB  6
0DF96:  MOVWF  xAD
0DF98:  MOVLB  0
0DF9A:  CALL   5A32
0DF9E:  MOVLW  01
0DFA0:  MOVWF  FE9
0DFA2:  MOVFF  218,6B0
0DFA6:  MOVFF  217,6AF
0DFAA:  MOVFF  216,6AE
0DFAE:  MOVFF  215,6AD
0DFB2:  MOVLB  6
0DFB4:  CLRF   xB1
0DFB6:  MOVLB  0
0DFB8:  CALL   5D1C
0DFBC:  MOVLW  22
0DFBE:  BTFSS  F9E.4
0DFC0:  BRA    DFBE
0DFC2:  MOVWF  FAD
....................          SendDataDisplay(); 
0DFC4:  CALL   4024
....................          if(RX_Buffer[4]==0x0a){//Tecla Arriba Oprimida 
0DFC8:  MOVF   34,W
0DFCA:  SUBLW  0A
0DFCC:  BNZ   E006
....................                Ganancia+=1.0; 
0DFCE:  BCF    FD8.1
0DFD0:  MOVFF  218,6BD
0DFD4:  MOVFF  217,6BC
0DFD8:  MOVFF  216,6BB
0DFDC:  MOVFF  215,6BA
0DFE0:  MOVLB  6
0DFE2:  CLRF   xC1
0DFE4:  CLRF   xC0
0DFE6:  CLRF   xBF
0DFE8:  MOVLW  7F
0DFEA:  MOVWF  xBE
0DFEC:  MOVLB  0
0DFEE:  CALL   20F6
0DFF2:  MOVFF  03,218
0DFF6:  MOVFF  02,217
0DFFA:  MOVFF  01,216
0DFFE:  MOVFF  00,215
....................                RX_Buffer[4]=0x00;   
0E002:  CLRF   34
....................                RX_Buffer2[4]=0x00;             
0E004:  CLRF   3F
....................                //BorraBuffer(); 
....................          } 
....................              
....................          if(RX_Buffer[4]==0x0b){//Tecla Abajo Oprimida 
0E006:  MOVF   34,W
0E008:  SUBLW  0B
0E00A:  BNZ   E044
....................                Ganancia-=1.0; 
0E00C:  BSF    FD8.1
0E00E:  MOVFF  218,6BD
0E012:  MOVFF  217,6BC
0E016:  MOVFF  216,6BB
0E01A:  MOVFF  215,6BA
0E01E:  MOVLB  6
0E020:  CLRF   xC1
0E022:  CLRF   xC0
0E024:  CLRF   xBF
0E026:  MOVLW  7F
0E028:  MOVWF  xBE
0E02A:  MOVLB  0
0E02C:  CALL   20F6
0E030:  MOVFF  03,218
0E034:  MOVFF  02,217
0E038:  MOVFF  01,216
0E03C:  MOVFF  00,215
....................                RX_Buffer[4]=0x00; 
0E040:  CLRF   34
....................                RX_Buffer2[4]=0x00;             
0E042:  CLRF   3F
....................                //BorraBuffer(); 
....................          } 
....................           
....................          if(Ganancia>40) 
0E044:  MOVLB  6
0E046:  CLRF   xAF
0E048:  CLRF   xAE
0E04A:  MOVLW  20
0E04C:  MOVWF  xAD
0E04E:  MOVLW  84
0E050:  MOVWF  xAC
0E052:  MOVFF  218,6B3
0E056:  MOVFF  217,6B2
0E05A:  MOVFF  216,6B1
0E05E:  MOVFF  215,6B0
0E062:  MOVLB  0
0E064:  CALL   25CC
0E068:  BNC   E076
....................             Ganancia=1; 
0E06A:  MOVLB  2
0E06C:  CLRF   x18
0E06E:  CLRF   x17
0E070:  CLRF   x16
0E072:  MOVLW  7F
0E074:  MOVWF  x15
....................          if(Ganancia<1) 
0E076:  MOVFF  218,6AF
0E07A:  MOVFF  217,6AE
0E07E:  MOVFF  216,6AD
0E082:  MOVFF  215,6AC
0E086:  MOVLB  6
0E088:  CLRF   xB3
0E08A:  CLRF   xB2
0E08C:  CLRF   xB1
0E08E:  MOVLW  7F
0E090:  MOVWF  xB0
0E092:  MOVLB  0
0E094:  CALL   25CC
0E098:  BNC   E0AA
....................             Ganancia=40; 
0E09A:  MOVLB  2
0E09C:  CLRF   x18
0E09E:  CLRF   x17
0E0A0:  MOVLW  20
0E0A2:  MOVWF  x16
0E0A4:  MOVLW  84
0E0A6:  MOVWF  x15
0E0A8:  MOVLB  0
....................       }else if(Opcion2==2){ 
0E0AA:  GOTO   E82A
0E0AE:  MOVLB  2
0E0B0:  MOVF   x62,W
0E0B2:  SUBLW  02
0E0B4:  BTFSS  FD8.2
0E0B6:  BRA    E1FE
....................          printf("Config.t2c.txt=\"Tciclo\""); 
0E0B8:  MOVLW  2E
0E0BA:  MOVWF  FF6
0E0BC:  MOVLW  1D
0E0BE:  MOVWF  FF7
0E0C0:  MOVLW  00
0E0C2:  MOVWF  FF8
0E0C4:  MOVLB  0
0E0C6:  CALL   3FF2
....................          SendDataDisplay();       
0E0CA:  CALL   4024
....................          printf("t3c.txt=\"%2.0f\"",Tciclo); 
0E0CE:  MOVLW  46
0E0D0:  MOVWF  FF6
0E0D2:  MOVLW  1D
0E0D4:  MOVWF  FF7
0E0D6:  MOVLW  00
0E0D8:  MOVWF  FF8
0E0DA:  MOVLW  09
0E0DC:  MOVLB  6
0E0DE:  MOVWF  xAD
0E0E0:  MOVLB  0
0E0E2:  CALL   5A32
0E0E6:  MOVLW  01
0E0E8:  MOVWF  FE9
0E0EA:  MOVFF  200,6B0
0E0EE:  MOVFF  1FF,6AF
0E0F2:  MOVFF  1FE,6AE
0E0F6:  MOVFF  1FD,6AD
0E0FA:  MOVLB  6
0E0FC:  CLRF   xB1
0E0FE:  MOVLB  0
0E100:  CALL   5D1C
0E104:  MOVLW  22
0E106:  BTFSS  F9E.4
0E108:  BRA    E106
0E10A:  MOVWF  FAD
....................          SendDataDisplay(); 
0E10C:  CALL   4024
....................          if(RX_Buffer[4]==0x0a){//Tecla Arriba Oprimida 
0E110:  MOVF   34,W
0E112:  SUBLW  0A
0E114:  BNZ   E14E
....................                Tciclo+=1.0; 
0E116:  BCF    FD8.1
0E118:  MOVFF  200,6BD
0E11C:  MOVFF  1FF,6BC
0E120:  MOVFF  1FE,6BB
0E124:  MOVFF  1FD,6BA
0E128:  MOVLB  6
0E12A:  CLRF   xC1
0E12C:  CLRF   xC0
0E12E:  CLRF   xBF
0E130:  MOVLW  7F
0E132:  MOVWF  xBE
0E134:  MOVLB  0
0E136:  CALL   20F6
0E13A:  MOVFF  03,200
0E13E:  MOVFF  02,1FF
0E142:  MOVFF  01,1FE
0E146:  MOVFF  00,1FD
....................                RX_Buffer[4]=0x00;   
0E14A:  CLRF   34
....................                RX_Buffer2[4]=0x00;             
0E14C:  CLRF   3F
....................                //BorraBuffer(); 
....................          } 
....................              
....................          if(RX_Buffer[4]==0x0b){//Tecla Abajo Oprimida             
0E14E:  MOVF   34,W
0E150:  SUBLW  0B
0E152:  BNZ   E18C
....................                Tciclo-=1.0; 
0E154:  BSF    FD8.1
0E156:  MOVFF  200,6BD
0E15A:  MOVFF  1FF,6BC
0E15E:  MOVFF  1FE,6BB
0E162:  MOVFF  1FD,6BA
0E166:  MOVLB  6
0E168:  CLRF   xC1
0E16A:  CLRF   xC0
0E16C:  CLRF   xBF
0E16E:  MOVLW  7F
0E170:  MOVWF  xBE
0E172:  MOVLB  0
0E174:  CALL   20F6
0E178:  MOVFF  03,200
0E17C:  MOVFF  02,1FF
0E180:  MOVFF  01,1FE
0E184:  MOVFF  00,1FD
....................                RX_Buffer[4]=0x00; 
0E188:  CLRF   34
....................                RX_Buffer2[4]=0x00;             
0E18A:  CLRF   3F
....................                //BorraBuffer(); 
....................          } 
....................           
....................          if(Tciclo>20) 
0E18C:  MOVLB  6
0E18E:  CLRF   xAF
0E190:  CLRF   xAE
0E192:  MOVLW  20
0E194:  MOVWF  xAD
0E196:  MOVLW  83
0E198:  MOVWF  xAC
0E19A:  MOVFF  200,6B3
0E19E:  MOVFF  1FF,6B2
0E1A2:  MOVFF  1FE,6B1
0E1A6:  MOVFF  1FD,6B0
0E1AA:  MOVLB  0
0E1AC:  CALL   25CC
0E1B0:  BNC   E1C2
....................             Tciclo=5; 
0E1B2:  MOVLB  2
0E1B4:  CLRF   x00
0E1B6:  MOVLB  1
0E1B8:  CLRF   xFF
0E1BA:  MOVLW  20
0E1BC:  MOVWF  xFE
0E1BE:  MOVLW  81
0E1C0:  MOVWF  xFD
....................          if(Tciclo<5) 
0E1C2:  MOVFF  200,6AF
0E1C6:  MOVFF  1FF,6AE
0E1CA:  MOVFF  1FE,6AD
0E1CE:  MOVFF  1FD,6AC
0E1D2:  MOVLB  6
0E1D4:  CLRF   xB3
0E1D6:  CLRF   xB2
0E1D8:  MOVLW  20
0E1DA:  MOVWF  xB1
0E1DC:  MOVLW  81
0E1DE:  MOVWF  xB0
0E1E0:  MOVLB  0
0E1E2:  CALL   25CC
0E1E6:  BNC   E1FA
....................             Tciclo=20; 
0E1E8:  MOVLB  2
0E1EA:  CLRF   x00
0E1EC:  MOVLB  1
0E1EE:  CLRF   xFF
0E1F0:  MOVLW  20
0E1F2:  MOVWF  xFE
0E1F4:  MOVLW  83
0E1F6:  MOVWF  xFD
0E1F8:  MOVLB  0
....................       }else if(Opcion2==3){ 
0E1FA:  BRA    E82A
0E1FC:  MOVLB  2
0E1FE:  MOVF   x62,W
0E200:  SUBLW  03
0E202:  BNZ   E27C
....................          printf("Config.t2c.txt=\"Ajuste +\""); 
0E204:  MOVLW  56
0E206:  MOVWF  FF6
0E208:  MOVLW  1D
0E20A:  MOVWF  FF7
0E20C:  MOVLW  00
0E20E:  MOVWF  FF8
0E210:  MOVLB  0
0E212:  CALL   3FF2
....................          SendDataDisplay();       
0E216:  CALL   4024
....................          printf("t3c.txt=\"%u\"",Sensor[0].Ajuste); 
0E21A:  MOVLW  70
0E21C:  MOVWF  FF6
0E21E:  MOVLW  1D
0E220:  MOVWF  FF7
0E222:  MOVLW  00
0E224:  MOVWF  FF8
0E226:  MOVLW  09
0E228:  MOVLB  6
0E22A:  MOVWF  xAD
0E22C:  MOVLB  0
0E22E:  CALL   5A32
0E232:  MOVFF  336,6AD
0E236:  MOVLW  1B
0E238:  MOVLB  6
0E23A:  MOVWF  xAE
0E23C:  MOVLB  0
0E23E:  CALL   5AB6
0E242:  MOVLW  22
0E244:  BTFSS  F9E.4
0E246:  BRA    E244
0E248:  MOVWF  FAD
....................          SendDataDisplay(); 
0E24A:  CALL   4024
....................          if(RX_Buffer[4]==0x0a){//Tecla Arriba Oprimida             
0E24E:  MOVF   34,W
0E250:  SUBLW  0A
0E252:  BNZ   E264
....................                if(Sensor[0].Ajuste<40) 
0E254:  MOVLB  3
0E256:  MOVF   x36,W
0E258:  SUBLW  27
0E25A:  BNC   E25E
....................                   Sensor[0].Ajuste++; 
0E25C:  INCF   x36,F
....................                RX_Buffer[4]=0x00;   
0E25E:  CLRF   34
....................                RX_Buffer2[4]=0x00;             
0E260:  CLRF   3F
0E262:  MOVLB  0
....................                //BorraBuffer();             
....................          } 
....................              
....................          if(RX_Buffer[4]==0x0b){//Tecla Abajo Oprimida             
0E264:  MOVF   34,W
0E266:  SUBLW  0B
0E268:  BNZ   E278
....................                if(Sensor[0].Ajuste>0) 
0E26A:  MOVLB  3
0E26C:  MOVF   x36,F
0E26E:  BZ    E272
....................                   Sensor[0].Ajuste--; 
0E270:  DECF   x36,F
....................                RX_Buffer[4]=0x00; 
0E272:  CLRF   34
....................                RX_Buffer2[4]=0x00;             
0E274:  CLRF   3F
0E276:  MOVLB  0
....................                //BorraBuffer(); 
....................          } 
....................       }else if(Opcion2==4){ 
0E278:  BRA    E82A
0E27A:  MOVLB  2
0E27C:  MOVF   x62,W
0E27E:  SUBLW  04
0E280:  BNZ   E2FA
....................          printf("Config.t2c.txt=\"Ajuste -\""); 
0E282:  MOVLW  7E
0E284:  MOVWF  FF6
0E286:  MOVLW  1D
0E288:  MOVWF  FF7
0E28A:  MOVLW  00
0E28C:  MOVWF  FF8
0E28E:  MOVLB  0
0E290:  CALL   3FF2
....................          SendDataDisplay();       
0E294:  CALL   4024
....................          printf("t3c.txt=\"%u\"",Sensor[0].Ajusten); 
0E298:  MOVLW  98
0E29A:  MOVWF  FF6
0E29C:  MOVLW  1D
0E29E:  MOVWF  FF7
0E2A0:  MOVLW  00
0E2A2:  MOVWF  FF8
0E2A4:  MOVLW  09
0E2A6:  MOVLB  6
0E2A8:  MOVWF  xAD
0E2AA:  MOVLB  0
0E2AC:  CALL   5A32
0E2B0:  MOVFF  337,6AD
0E2B4:  MOVLW  1B
0E2B6:  MOVLB  6
0E2B8:  MOVWF  xAE
0E2BA:  MOVLB  0
0E2BC:  CALL   5AB6
0E2C0:  MOVLW  22
0E2C2:  BTFSS  F9E.4
0E2C4:  BRA    E2C2
0E2C6:  MOVWF  FAD
....................          SendDataDisplay(); 
0E2C8:  CALL   4024
....................          if(RX_Buffer[4]==0x0a){//Tecla Arriba Oprimida             
0E2CC:  MOVF   34,W
0E2CE:  SUBLW  0A
0E2D0:  BNZ   E2E2
....................                if(Sensor[0].Ajusten<40) 
0E2D2:  MOVLB  3
0E2D4:  MOVF   x37,W
0E2D6:  SUBLW  27
0E2D8:  BNC   E2DC
....................                   Sensor[0].Ajusten++; 
0E2DA:  INCF   x37,F
....................                RX_Buffer[4]=0x00;   
0E2DC:  CLRF   34
....................                RX_Buffer2[4]=0x00;             
0E2DE:  CLRF   3F
0E2E0:  MOVLB  0
....................                //BorraBuffer();             
....................          } 
....................              
....................          if(RX_Buffer[4]==0x0b){//Tecla Abajo Oprimida             
0E2E2:  MOVF   34,W
0E2E4:  SUBLW  0B
0E2E6:  BNZ   E2F6
....................                if(Sensor[0].Ajusten>0) 
0E2E8:  MOVLB  3
0E2EA:  MOVF   x37,F
0E2EC:  BZ    E2F0
....................                   Sensor[0].Ajusten--; 
0E2EE:  DECF   x37,F
....................                RX_Buffer[4]=0x00; 
0E2F0:  CLRF   34
....................                RX_Buffer2[4]=0x00;             
0E2F2:  CLRF   3F
0E2F4:  MOVLB  0
....................                //BorraBuffer(); 
....................          } 
....................       }else if(Opcion2==5){ 
0E2F6:  BRA    E82A
0E2F8:  MOVLB  2
0E2FA:  MOVF   x62,W
0E2FC:  SUBLW  05
0E2FE:  BNZ   E378
....................          printf("Config.t2c.txt=\"Ajuste2 +\""); 
0E300:  MOVLW  A6
0E302:  MOVWF  FF6
0E304:  MOVLW  1D
0E306:  MOVWF  FF7
0E308:  MOVLW  00
0E30A:  MOVWF  FF8
0E30C:  MOVLB  0
0E30E:  CALL   3FF2
....................          SendDataDisplay();       
0E312:  CALL   4024
....................          printf("t3c.txt=\"%u\"",Sensor[1].Ajuste); 
0E316:  MOVLW  C2
0E318:  MOVWF  FF6
0E31A:  MOVLW  1D
0E31C:  MOVWF  FF7
0E31E:  MOVLW  00
0E320:  MOVWF  FF8
0E322:  MOVLW  09
0E324:  MOVLB  6
0E326:  MOVWF  xAD
0E328:  MOVLB  0
0E32A:  CALL   5A32
0E32E:  MOVFF  49A,6AD
0E332:  MOVLW  1B
0E334:  MOVLB  6
0E336:  MOVWF  xAE
0E338:  MOVLB  0
0E33A:  CALL   5AB6
0E33E:  MOVLW  22
0E340:  BTFSS  F9E.4
0E342:  BRA    E340
0E344:  MOVWF  FAD
....................          SendDataDisplay(); 
0E346:  CALL   4024
....................          if(RX_Buffer[4]==0x0a){//Tecla Arriba Oprimida 
0E34A:  MOVF   34,W
0E34C:  SUBLW  0A
0E34E:  BNZ   E360
....................                if(Sensor[1].Ajuste<40) 
0E350:  MOVLB  4
0E352:  MOVF   x9A,W
0E354:  SUBLW  27
0E356:  BNC   E35A
....................                   Sensor[1].Ajuste++; 
0E358:  INCF   x9A,F
....................                RX_Buffer[4]=0x00;   
0E35A:  CLRF   34
....................                RX_Buffer2[4]=0x00;             
0E35C:  CLRF   3F
0E35E:  MOVLB  0
....................                //BorraBuffer(); 
....................          } 
....................              
....................          if(RX_Buffer[4]==0x0b){//Tecla Abajo Oprimida 
0E360:  MOVF   34,W
0E362:  SUBLW  0B
0E364:  BNZ   E374
....................                if(Sensor[1].Ajuste>0) 
0E366:  MOVLB  4
0E368:  MOVF   x9A,F
0E36A:  BZ    E36E
....................                   Sensor[1].Ajuste--; 
0E36C:  DECF   x9A,F
....................                RX_Buffer[4]=0x00; 
0E36E:  CLRF   34
....................                RX_Buffer2[4]=0x00;             
0E370:  CLRF   3F
0E372:  MOVLB  0
....................                //BorraBuffer();             
....................          } 
....................       }else if(Opcion2==6){ 
0E374:  BRA    E82A
0E376:  MOVLB  2
0E378:  MOVF   x62,W
0E37A:  SUBLW  06
0E37C:  BNZ   E3F6
....................          printf("Config.t2c.txt=\"Ajuste2 -\""); 
0E37E:  MOVLW  D0
0E380:  MOVWF  FF6
0E382:  MOVLW  1D
0E384:  MOVWF  FF7
0E386:  MOVLW  00
0E388:  MOVWF  FF8
0E38A:  MOVLB  0
0E38C:  CALL   3FF2
....................          SendDataDisplay();       
0E390:  CALL   4024
....................          printf("t3c.txt=\"%u\"",Sensor[1].Ajusten); 
0E394:  MOVLW  EC
0E396:  MOVWF  FF6
0E398:  MOVLW  1D
0E39A:  MOVWF  FF7
0E39C:  MOVLW  00
0E39E:  MOVWF  FF8
0E3A0:  MOVLW  09
0E3A2:  MOVLB  6
0E3A4:  MOVWF  xAD
0E3A6:  MOVLB  0
0E3A8:  CALL   5A32
0E3AC:  MOVFF  49B,6AD
0E3B0:  MOVLW  1B
0E3B2:  MOVLB  6
0E3B4:  MOVWF  xAE
0E3B6:  MOVLB  0
0E3B8:  CALL   5AB6
0E3BC:  MOVLW  22
0E3BE:  BTFSS  F9E.4
0E3C0:  BRA    E3BE
0E3C2:  MOVWF  FAD
....................          SendDataDisplay(); 
0E3C4:  CALL   4024
....................          if(RX_Buffer[4]==0x0a){//Tecla Arriba Oprimida             
0E3C8:  MOVF   34,W
0E3CA:  SUBLW  0A
0E3CC:  BNZ   E3DE
....................                if(Sensor[1].Ajusten<40) 
0E3CE:  MOVLB  4
0E3D0:  MOVF   x9B,W
0E3D2:  SUBLW  27
0E3D4:  BNC   E3D8
....................                   Sensor[1].Ajusten++; 
0E3D6:  INCF   x9B,F
....................                RX_Buffer[4]=0x00;   
0E3D8:  CLRF   34
....................                RX_Buffer2[4]=0x00;             
0E3DA:  CLRF   3F
0E3DC:  MOVLB  0
....................                //BorraBuffer(); 
....................          } 
....................              
....................          if(RX_Buffer[4]==0x0b){//Tecla Abajo Oprimida             
0E3DE:  MOVF   34,W
0E3E0:  SUBLW  0B
0E3E2:  BNZ   E3F2
....................                if(Sensor[1].Ajusten>0) 
0E3E4:  MOVLB  4
0E3E6:  MOVF   x9B,F
0E3E8:  BZ    E3EC
....................                   Sensor[1].Ajusten--; 
0E3EA:  DECF   x9B,F
....................                RX_Buffer[4]=0x00; 
0E3EC:  CLRF   34
....................                RX_Buffer2[4]=0x00;             
0E3EE:  CLRF   3F
0E3F0:  MOVLB  0
....................                //BorraBuffer(); 
....................          } 
....................       }else if(Opcion2==7){ 
0E3F2:  BRA    E82A
0E3F4:  MOVLB  2
0E3F6:  MOVF   x62,W
0E3F8:  SUBLW  07
0E3FA:  BNZ   E476
....................          printf("Config.t2c.txt=\"Media\""); 
0E3FC:  MOVLW  FA
0E3FE:  MOVWF  FF6
0E400:  MOVLW  1D
0E402:  MOVWF  FF7
0E404:  MOVLW  00
0E406:  MOVWF  FF8
0E408:  MOVLB  0
0E40A:  CALL   3FF2
....................          SendDataDisplay();       
0E40E:  CALL   4024
....................          printf("t3c.txt=\"%u\"",MediaMovil); 
0E412:  MOVLW  12
0E414:  MOVWF  FF6
0E416:  MOVLW  1E
0E418:  MOVWF  FF7
0E41A:  MOVLW  00
0E41C:  MOVWF  FF8
0E41E:  MOVLW  09
0E420:  MOVLB  6
0E422:  MOVWF  xAD
0E424:  MOVLB  0
0E426:  CALL   5A32
0E42A:  MOVFF  1ED,6AD
0E42E:  MOVLW  1B
0E430:  MOVLB  6
0E432:  MOVWF  xAE
0E434:  MOVLB  0
0E436:  CALL   5AB6
0E43A:  MOVLW  22
0E43C:  BTFSS  F9E.4
0E43E:  BRA    E43C
0E440:  MOVWF  FAD
....................          SendDataDisplay(); 
0E442:  CALL   4024
....................          if(RX_Buffer[4]==0x0a){//Tecla Arriba Oprimida 
0E446:  MOVF   34,W
0E448:  SUBLW  0A
0E44A:  BNZ   E45C
....................                if(MediaMovil<80) 
0E44C:  MOVLB  1
0E44E:  MOVF   xED,W
0E450:  SUBLW  4F
0E452:  BNC   E456
....................                   MediaMovil++; 
0E454:  INCF   xED,F
....................                RX_Buffer[4]=0x00;   
0E456:  CLRF   34
....................                RX_Buffer2[4]=0x00;             
0E458:  CLRF   3F
0E45A:  MOVLB  0
....................                //BorraBuffer(); 
....................          } 
....................              
....................          if(RX_Buffer[4]==0x0b){//Tecla Abajo Oprimida 
0E45C:  MOVF   34,W
0E45E:  SUBLW  0B
0E460:  BNZ   E472
....................                if(MediaMovil>10) 
0E462:  MOVLB  1
0E464:  MOVF   xED,W
0E466:  SUBLW  0A
0E468:  BC    E46C
....................                   MediaMovil--; 
0E46A:  DECF   xED,F
....................                RX_Buffer[4]=0x00; 
0E46C:  CLRF   34
....................                RX_Buffer2[4]=0x00;             
0E46E:  CLRF   3F
0E470:  MOVLB  0
....................                //BorraBuffer();             
....................          } 
....................       }else if(Opcion2==8){ 
0E472:  BRA    E82A
0E474:  MOVLB  2
0E476:  MOVF   x62,W
0E478:  SUBLW  08
0E47A:  BTFSS  FD8.2
0E47C:  BRA    E5A8
....................          printf("Config.t2c.txt=\"RPT100B\""); 
0E47E:  MOVLW  20
0E480:  MOVWF  FF6
0E482:  MOVLW  1E
0E484:  MOVWF  FF7
0E486:  MOVLW  00
0E488:  MOVWF  FF8
0E48A:  MOVLB  0
0E48C:  CALL   3FF2
....................          SendDataDisplay();       
0E490:  CALL   4024
....................          printf("t3c.txt=\"%2.1f\"",Sensor[0].RPT100); 
0E494:  MOVLW  3A
0E496:  MOVWF  FF6
0E498:  MOVLW  1E
0E49A:  MOVWF  FF7
0E49C:  MOVLW  00
0E49E:  MOVWF  FF8
0E4A0:  MOVLW  09
0E4A2:  MOVLB  6
0E4A4:  MOVWF  xAD
0E4A6:  MOVLB  0
0E4A8:  CALL   5A32
0E4AC:  MOVLW  01
0E4AE:  MOVWF  FE9
0E4B0:  MOVFF  32B,6B0
0E4B4:  MOVFF  32A,6AF
0E4B8:  MOVFF  329,6AE
0E4BC:  MOVFF  328,6AD
0E4C0:  MOVLB  6
0E4C2:  MOVWF  xB1
0E4C4:  MOVLB  0
0E4C6:  CALL   5D1C
0E4CA:  MOVLW  22
0E4CC:  BTFSS  F9E.4
0E4CE:  BRA    E4CC
0E4D0:  MOVWF  FAD
....................          SendDataDisplay(); 
0E4D2:  CALL   4024
....................          if(RX_Buffer[4]==0x0a){//Tecla Arriba Oprimida             
0E4D6:  MOVF   34,W
0E4D8:  SUBLW  0A
0E4DA:  BNZ   E53E
....................                if(Sensor[0].RPT100<2.0) 
0E4DC:  MOVFF  32B,6AF
0E4E0:  MOVFF  32A,6AE
0E4E4:  MOVFF  329,6AD
0E4E8:  MOVFF  328,6AC
0E4EC:  MOVLB  6
0E4EE:  CLRF   xB3
0E4F0:  CLRF   xB2
0E4F2:  CLRF   xB1
0E4F4:  MOVLW  80
0E4F6:  MOVWF  xB0
0E4F8:  MOVLB  0
0E4FA:  CALL   25CC
0E4FE:  BNC   E53A
....................                   Sensor[0].RPT100+=0.1; 
0E500:  BCF    FD8.1
0E502:  MOVFF  32B,6BD
0E506:  MOVFF  32A,6BC
0E50A:  MOVFF  329,6BB
0E50E:  MOVFF  328,6BA
0E512:  MOVLW  CD
0E514:  MOVLB  6
0E516:  MOVWF  xC1
0E518:  MOVLW  CC
0E51A:  MOVWF  xC0
0E51C:  MOVLW  4C
0E51E:  MOVWF  xBF
0E520:  MOVLW  7B
0E522:  MOVWF  xBE
0E524:  MOVLB  0
0E526:  CALL   20F6
0E52A:  MOVFF  03,32B
0E52E:  MOVFF  02,32A
0E532:  MOVFF  01,329
0E536:  MOVFF  00,328
....................                RX_Buffer[4]=0x00;   
0E53A:  CLRF   34
....................                RX_Buffer2[4]=0x00;             
0E53C:  CLRF   3F
....................                //BorraBuffer(); 
....................          } 
....................              
....................          if(RX_Buffer[4]==0x0b){//Tecla Abajo Oprimida 
0E53E:  MOVF   34,W
0E540:  SUBLW  0B
0E542:  BNZ   E5A4
....................                if(Sensor[0].RPT100>0.0) 
0E544:  MOVLB  6
0E546:  CLRF   xAF
0E548:  CLRF   xAE
0E54A:  CLRF   xAD
0E54C:  CLRF   xAC
0E54E:  MOVFF  32B,6B3
0E552:  MOVFF  32A,6B2
0E556:  MOVFF  329,6B1
0E55A:  MOVFF  328,6B0
0E55E:  MOVLB  0
0E560:  CALL   25CC
0E564:  BNC   E5A0
....................                   Sensor[0].RPT100-=0.1; 
0E566:  BSF    FD8.1
0E568:  MOVFF  32B,6BD
0E56C:  MOVFF  32A,6BC
0E570:  MOVFF  329,6BB
0E574:  MOVFF  328,6BA
0E578:  MOVLW  CD
0E57A:  MOVLB  6
0E57C:  MOVWF  xC1
0E57E:  MOVLW  CC
0E580:  MOVWF  xC0
0E582:  MOVLW  4C
0E584:  MOVWF  xBF
0E586:  MOVLW  7B
0E588:  MOVWF  xBE
0E58A:  MOVLB  0
0E58C:  CALL   20F6
0E590:  MOVFF  03,32B
0E594:  MOVFF  02,32A
0E598:  MOVFF  01,329
0E59C:  MOVFF  00,328
....................                RX_Buffer[4]=0x00; 
0E5A0:  CLRF   34
....................                RX_Buffer2[4]=0x00;             
0E5A2:  CLRF   3F
....................                //BorraBuffer(); 
....................          } 
....................       }else if(Opcion2==9){ 
0E5A4:  BRA    E82A
0E5A6:  MOVLB  2
0E5A8:  MOVF   x62,W
0E5AA:  SUBLW  09
0E5AC:  BTFSS  FD8.2
0E5AE:  BRA    E6DA
....................          printf("Config.t2c.txt=\"RPT100B 2\""); 
0E5B0:  MOVLW  4A
0E5B2:  MOVWF  FF6
0E5B4:  MOVLW  1E
0E5B6:  MOVWF  FF7
0E5B8:  MOVLW  00
0E5BA:  MOVWF  FF8
0E5BC:  MOVLB  0
0E5BE:  CALL   3FF2
....................          SendDataDisplay();       
0E5C2:  CALL   4024
....................          printf("t3c.txt=\"%2.1f\"",Sensor[1].RPT100); 
0E5C6:  MOVLW  66
0E5C8:  MOVWF  FF6
0E5CA:  MOVLW  1E
0E5CC:  MOVWF  FF7
0E5CE:  MOVLW  00
0E5D0:  MOVWF  FF8
0E5D2:  MOVLW  09
0E5D4:  MOVLB  6
0E5D6:  MOVWF  xAD
0E5D8:  MOVLB  0
0E5DA:  CALL   5A32
0E5DE:  MOVLW  01
0E5E0:  MOVWF  FE9
0E5E2:  MOVFF  48F,6B0
0E5E6:  MOVFF  48E,6AF
0E5EA:  MOVFF  48D,6AE
0E5EE:  MOVFF  48C,6AD
0E5F2:  MOVLB  6
0E5F4:  MOVWF  xB1
0E5F6:  MOVLB  0
0E5F8:  CALL   5D1C
0E5FC:  MOVLW  22
0E5FE:  BTFSS  F9E.4
0E600:  BRA    E5FE
0E602:  MOVWF  FAD
....................          SendDataDisplay(); 
0E604:  CALL   4024
....................          if(RX_Buffer[4]==0x0a){//Tecla Arriba Oprimida 
0E608:  MOVF   34,W
0E60A:  SUBLW  0A
0E60C:  BNZ   E670
....................                if(Sensor[1].RPT100<2.0) 
0E60E:  MOVFF  48F,6AF
0E612:  MOVFF  48E,6AE
0E616:  MOVFF  48D,6AD
0E61A:  MOVFF  48C,6AC
0E61E:  MOVLB  6
0E620:  CLRF   xB3
0E622:  CLRF   xB2
0E624:  CLRF   xB1
0E626:  MOVLW  80
0E628:  MOVWF  xB0
0E62A:  MOVLB  0
0E62C:  CALL   25CC
0E630:  BNC   E66C
....................                   Sensor[1].RPT100+=0.1; 
0E632:  BCF    FD8.1
0E634:  MOVFF  48F,6BD
0E638:  MOVFF  48E,6BC
0E63C:  MOVFF  48D,6BB
0E640:  MOVFF  48C,6BA
0E644:  MOVLW  CD
0E646:  MOVLB  6
0E648:  MOVWF  xC1
0E64A:  MOVLW  CC
0E64C:  MOVWF  xC0
0E64E:  MOVLW  4C
0E650:  MOVWF  xBF
0E652:  MOVLW  7B
0E654:  MOVWF  xBE
0E656:  MOVLB  0
0E658:  CALL   20F6
0E65C:  MOVFF  03,48F
0E660:  MOVFF  02,48E
0E664:  MOVFF  01,48D
0E668:  MOVFF  00,48C
....................                RX_Buffer[4]=0x00;   
0E66C:  CLRF   34
....................                RX_Buffer2[4]=0x00;             
0E66E:  CLRF   3F
....................                //BorraBuffer(); 
....................          } 
....................              
....................          if(RX_Buffer[4]==0x0b){//Tecla Abajo Oprimida 
0E670:  MOVF   34,W
0E672:  SUBLW  0B
0E674:  BNZ   E6D6
....................                if(Sensor[1].RPT100>0.0) 
0E676:  MOVLB  6
0E678:  CLRF   xAF
0E67A:  CLRF   xAE
0E67C:  CLRF   xAD
0E67E:  CLRF   xAC
0E680:  MOVFF  48F,6B3
0E684:  MOVFF  48E,6B2
0E688:  MOVFF  48D,6B1
0E68C:  MOVFF  48C,6B0
0E690:  MOVLB  0
0E692:  CALL   25CC
0E696:  BNC   E6D2
....................                   Sensor[1].RPT100-=0.1; 
0E698:  BSF    FD8.1
0E69A:  MOVFF  48F,6BD
0E69E:  MOVFF  48E,6BC
0E6A2:  MOVFF  48D,6BB
0E6A6:  MOVFF  48C,6BA
0E6AA:  MOVLW  CD
0E6AC:  MOVLB  6
0E6AE:  MOVWF  xC1
0E6B0:  MOVLW  CC
0E6B2:  MOVWF  xC0
0E6B4:  MOVLW  4C
0E6B6:  MOVWF  xBF
0E6B8:  MOVLW  7B
0E6BA:  MOVWF  xBE
0E6BC:  MOVLB  0
0E6BE:  CALL   20F6
0E6C2:  MOVFF  03,48F
0E6C6:  MOVFF  02,48E
0E6CA:  MOVFF  01,48D
0E6CE:  MOVFF  00,48C
....................                RX_Buffer[4]=0x00; 
0E6D2:  CLRF   34
....................                RX_Buffer2[4]=0x00;             
0E6D4:  CLRF   3F
....................                //BorraBuffer(); 
....................          } 
....................       }else if(Opcion2==10){ 
0E6D6:  BRA    E82A
0E6D8:  MOVLB  2
0E6DA:  MOVF   x62,W
0E6DC:  SUBLW  0A
0E6DE:  BNZ   E72E
....................          printf("Config.t2c.txt=\"Ciclos\""); 
0E6E0:  MOVLW  76
0E6E2:  MOVWF  FF6
0E6E4:  MOVLW  1E
0E6E6:  MOVWF  FF7
0E6E8:  MOVLW  00
0E6EA:  MOVWF  FF8
0E6EC:  MOVLB  0
0E6EE:  CALL   3FF2
....................          SendDataDisplay();       
0E6F2:  CALL   4024
....................          printf("t3c.txt=\"%03Lu\"",Ciclos); 
0E6F6:  MOVLW  8E
0E6F8:  MOVWF  FF6
0E6FA:  MOVLW  1E
0E6FC:  MOVWF  FF7
0E6FE:  MOVLW  00
0E700:  MOVWF  FF8
0E702:  MOVLW  09
0E704:  MOVLB  6
0E706:  MOVWF  xAD
0E708:  MOVLB  0
0E70A:  CALL   5A32
0E70E:  MOVLW  0A
0E710:  MOVWF  FE9
0E712:  MOVFF  276,6AD
0E716:  MOVFF  275,6AC
0E71A:  CALL   5BAE
0E71E:  MOVLW  22
0E720:  BTFSS  F9E.4
0E722:  BRA    E720
0E724:  MOVWF  FAD
....................          SendDataDisplay(); 
0E726:  CALL   4024
....................       }else if(Opcion2==11){ 
0E72A:  BRA    E82A
0E72C:  MOVLB  2
0E72E:  MOVF   x62,W
0E730:  SUBLW  0B
0E732:  BNZ   E7AE
....................          printf("Config.t2c.txt=\"Atmosferica\""); 
0E734:  MOVLW  9E
0E736:  MOVWF  FF6
0E738:  MOVLW  1E
0E73A:  MOVWF  FF7
0E73C:  MOVLW  00
0E73E:  MOVWF  FF8
0E740:  MOVLB  0
0E742:  CALL   3FF2
....................          SendDataDisplay();       
0E746:  CALL   4024
....................          printf("t3c.txt=\"%03u\"",Atmosferica); 
0E74A:  MOVLW  BC
0E74C:  MOVWF  FF6
0E74E:  MOVLW  1E
0E750:  MOVWF  FF7
0E752:  MOVLW  00
0E754:  MOVWF  FF8
0E756:  MOVLW  09
0E758:  MOVLB  6
0E75A:  MOVWF  xAD
0E75C:  MOVLB  0
0E75E:  CALL   5A32
0E762:  MOVFF  29B,6AD
0E766:  MOVLW  03
0E768:  MOVLB  6
0E76A:  MOVWF  xAE
0E76C:  MOVLB  0
0E76E:  CALL   5AB6
0E772:  MOVLW  22
0E774:  BTFSS  F9E.4
0E776:  BRA    E774
0E778:  MOVWF  FAD
....................          SendDataDisplay(); 
0E77A:  CALL   4024
....................          if(RX_Buffer[4]==0x0a){//Tecla Arriba Oprimida 
0E77E:  MOVF   34,W
0E780:  SUBLW  0A
0E782:  BNZ   E794
....................                if(Atmosferica<100) 
0E784:  MOVLB  2
0E786:  MOVF   x9B,W
0E788:  SUBLW  63
0E78A:  BNC   E78E
....................                   ++Atmosferica; 
0E78C:  INCF   x9B,F
....................                RX_Buffer[4]=0x00;   
0E78E:  CLRF   34
....................                RX_Buffer2[4]=0x00;             
0E790:  CLRF   3F
0E792:  MOVLB  0
....................                //BorraBuffer(); 
....................          } 
....................              
....................          if(RX_Buffer[4]==0x0b){//Tecla Abajo Oprimida 
0E794:  MOVF   34,W
0E796:  SUBLW  0B
0E798:  BNZ   E7AA
....................                if(Atmosferica>50) 
0E79A:  MOVLB  2
0E79C:  MOVF   x9B,W
0E79E:  SUBLW  32
0E7A0:  BC    E7A4
....................                   --Atmosferica; 
0E7A2:  DECF   x9B,F
....................                RX_Buffer[4]=0x00; 
0E7A4:  CLRF   34
....................                RX_Buffer2[4]=0x00;             
0E7A6:  CLRF   3F
0E7A8:  MOVLB  0
....................                //BorraBuffer(); 
....................          } 
....................       }else if(Opcion2==12){ 
0E7AA:  BRA    E82A
0E7AC:  MOVLB  2
0E7AE:  MOVF   x62,W
0E7B0:  SUBLW  0C
0E7B2:  BNZ   E828
....................          printf("Config.t2c.txt=\"T. Apertura\""); 
0E7B4:  MOVLW  CC
0E7B6:  MOVWF  FF6
0E7B8:  MOVLW  1E
0E7BA:  MOVWF  FF7
0E7BC:  MOVLW  00
0E7BE:  MOVWF  FF8
0E7C0:  MOVLB  0
0E7C2:  CALL   3FF2
....................          SendDataDisplay();       
0E7C6:  CALL   4024
....................          printf("t3c.txt=\"%03u\"",Tapertura); 
0E7CA:  MOVLW  EA
0E7CC:  MOVWF  FF6
0E7CE:  MOVLW  1E
0E7D0:  MOVWF  FF7
0E7D2:  MOVLW  00
0E7D4:  MOVWF  FF8
0E7D6:  MOVLW  09
0E7D8:  MOVLB  6
0E7DA:  MOVWF  xAD
0E7DC:  MOVLB  0
0E7DE:  CALL   5A32
0E7E2:  MOVFF  259,6AD
0E7E6:  MOVLW  03
0E7E8:  MOVLB  6
0E7EA:  MOVWF  xAE
0E7EC:  MOVLB  0
0E7EE:  CALL   5AB6
0E7F2:  MOVLW  22
0E7F4:  BTFSS  F9E.4
0E7F6:  BRA    E7F4
0E7F8:  MOVWF  FAD
....................          SendDataDisplay(); 
0E7FA:  CALL   4024
....................          if(RX_Buffer[4]==0x0a){//Tecla Arriba Oprimida 
0E7FE:  MOVF   34,W
0E800:  SUBLW  0A
0E802:  BNZ   E814
....................                if(Tapertura<100) 
0E804:  MOVLB  2
0E806:  MOVF   x59,W
0E808:  SUBLW  63
0E80A:  BNC   E80E
....................                   ++Tapertura; 
0E80C:  INCF   x59,F
....................                RX_Buffer[4]=0x00;   
0E80E:  CLRF   34
....................                RX_Buffer2[4]=0x00;             
0E810:  CLRF   3F
0E812:  MOVLB  0
....................                //BorraBuffer(); 
....................          } 
....................              
....................          if(RX_Buffer[4]==0x0b){//Tecla Abajo Oprimida 
0E814:  MOVF   34,W
0E816:  SUBLW  0B
0E818:  BNZ   E82A
....................                if(Tapertura>50) 
0E81A:  MOVLB  2
0E81C:  MOVF   x59,W
0E81E:  SUBLW  32
0E820:  BC    E824
....................                   --Tapertura; 
0E822:  DECF   x59,F
....................                RX_Buffer[4]=0x00; 
0E824:  CLRF   34
....................                RX_Buffer2[4]=0x00;             
0E826:  CLRF   3F
0E828:  MOVLB  0
....................                //BorraBuffer();            
....................          } 
....................       } 
....................        
....................       if(RX_Buffer[4]==0x0c){//Tecla Izquierda Oprimida 
0E82A:  MOVF   34,W
0E82C:  SUBLW  0C
0E82E:  BNZ   E83A
....................             Opcion2++; 
0E830:  MOVLB  2
0E832:  INCF   x62,F
....................             RX_Buffer[4]=0x00;   
0E834:  CLRF   34
....................             RX_Buffer2[4]=0x00;             
0E836:  CLRF   3F
0E838:  MOVLB  0
....................             //BorraBuffer();    
....................       } 
....................           
....................       if(RX_Buffer[4]==0x0d){//Tecla Derecha Oprimida          
0E83A:  MOVF   34,W
0E83C:  SUBLW  0D
0E83E:  BNZ   E84A
....................             Opcion2--; 
0E840:  MOVLB  2
0E842:  DECF   x62,F
....................             RX_Buffer[4]=0x00; 
0E844:  CLRF   34
....................             RX_Buffer2[4]=0x00;             
0E846:  CLRF   3F
0E848:  MOVLB  0
....................             //BorraBuffer(); 
....................       } 
....................        
....................       if(RX_Buffer[4]==0x11){//Tecla Regresar 
0E84A:  MOVF   34,W
0E84C:  SUBLW  11
0E84E:  BTFSS  FD8.2
0E850:  BRA    ED22
....................          delay_ms(20); 
0E852:  MOVLW  14
0E854:  MOVLB  6
0E856:  MOVWF  xBA
0E858:  MOVLB  0
0E85A:  CALL   1F70
....................          if(RX_Buffer[4]==0x11){ 
0E85E:  MOVF   34,W
0E860:  SUBLW  11
0E862:  BTFSS  FD8.2
0E864:  BRA    ED22
....................             if(!GuardaEEPROM){ 
0E866:  MOVLB  1
0E868:  BTFSC  x04.3
0E86A:  BRA    ED0C
....................                write_eeprom(20,(int8)Ganancia); 
0E86C:  MOVFF  218,6BD
0E870:  MOVFF  217,6BC
0E874:  MOVFF  216,6BB
0E878:  MOVFF  215,6BA
0E87C:  MOVLB  0
0E87E:  CALL   4C80
0E882:  MOVFF  01,6A8
0E886:  CLRF   FAA
0E888:  MOVLW  14
0E88A:  MOVWF  FA9
0E88C:  MOVFF  6A8,FA8
0E890:  BCF    FA6.6
0E892:  BCF    FA6.7
0E894:  BSF    FA6.2
0E896:  MOVF   FF2,W
0E898:  MOVWF  00
0E89A:  BCF    FF2.6
0E89C:  BCF    FF2.7
0E89E:  MOVLB  F
0E8A0:  MOVLW  55
0E8A2:  MOVWF  FA7
0E8A4:  MOVLW  AA
0E8A6:  MOVWF  FA7
0E8A8:  BSF    FA6.1
0E8AA:  BTFSC  FA6.1
0E8AC:  BRA    E8AA
0E8AE:  BCF    FA6.2
0E8B0:  MOVF   00,W
0E8B2:  IORWF  FF2,F
....................                delay_ms(10); 
0E8B4:  MOVLW  0A
0E8B6:  MOVLB  6
0E8B8:  MOVWF  xBA
0E8BA:  MOVLB  0
0E8BC:  CALL   1F70
....................                write_eeprom(21,Sensor[0].Ajuste); 
0E8C0:  CLRF   FAA
0E8C2:  MOVLW  15
0E8C4:  MOVWF  FA9
0E8C6:  MOVFF  336,FA8
0E8CA:  BCF    FA6.6
0E8CC:  BCF    FA6.7
0E8CE:  BSF    FA6.2
0E8D0:  MOVF   FF2,W
0E8D2:  MOVWF  00
0E8D4:  BCF    FF2.6
0E8D6:  BCF    FF2.7
0E8D8:  MOVLB  F
0E8DA:  MOVLW  55
0E8DC:  MOVWF  FA7
0E8DE:  MOVLW  AA
0E8E0:  MOVWF  FA7
0E8E2:  BSF    FA6.1
0E8E4:  BTFSC  FA6.1
0E8E6:  BRA    E8E4
0E8E8:  BCF    FA6.2
0E8EA:  MOVF   00,W
0E8EC:  IORWF  FF2,F
....................                delay_ms(10); 
0E8EE:  MOVLW  0A
0E8F0:  MOVLB  6
0E8F2:  MOVWF  xBA
0E8F4:  MOVLB  0
0E8F6:  CALL   1F70
....................                write_eeprom(22,Sensor[0].Ajusten); 
0E8FA:  CLRF   FAA
0E8FC:  MOVLW  16
0E8FE:  MOVWF  FA9
0E900:  MOVFF  337,FA8
0E904:  BCF    FA6.6
0E906:  BCF    FA6.7
0E908:  BSF    FA6.2
0E90A:  MOVF   FF2,W
0E90C:  MOVWF  00
0E90E:  BCF    FF2.6
0E910:  BCF    FF2.7
0E912:  MOVLB  F
0E914:  MOVLW  55
0E916:  MOVWF  FA7
0E918:  MOVLW  AA
0E91A:  MOVWF  FA7
0E91C:  BSF    FA6.1
0E91E:  BTFSC  FA6.1
0E920:  BRA    E91E
0E922:  BCF    FA6.2
0E924:  MOVF   00,W
0E926:  IORWF  FF2,F
....................                delay_ms(10); 
0E928:  MOVLW  0A
0E92A:  MOVLB  6
0E92C:  MOVWF  xBA
0E92E:  MOVLB  0
0E930:  CALL   1F70
....................                write_eeprom(23,Sensor[1].Ajuste); 
0E934:  CLRF   FAA
0E936:  MOVLW  17
0E938:  MOVWF  FA9
0E93A:  MOVFF  49A,FA8
0E93E:  BCF    FA6.6
0E940:  BCF    FA6.7
0E942:  BSF    FA6.2
0E944:  MOVF   FF2,W
0E946:  MOVWF  00
0E948:  BCF    FF2.6
0E94A:  BCF    FF2.7
0E94C:  MOVLB  F
0E94E:  MOVLW  55
0E950:  MOVWF  FA7
0E952:  MOVLW  AA
0E954:  MOVWF  FA7
0E956:  BSF    FA6.1
0E958:  BTFSC  FA6.1
0E95A:  BRA    E958
0E95C:  BCF    FA6.2
0E95E:  MOVF   00,W
0E960:  IORWF  FF2,F
....................                delay_ms(10); 
0E962:  MOVLW  0A
0E964:  MOVLB  6
0E966:  MOVWF  xBA
0E968:  MOVLB  0
0E96A:  CALL   1F70
....................                write_eeprom(24,Sensor[1].Ajusten); 
0E96E:  CLRF   FAA
0E970:  MOVLW  18
0E972:  MOVWF  FA9
0E974:  MOVFF  49B,FA8
0E978:  BCF    FA6.6
0E97A:  BCF    FA6.7
0E97C:  BSF    FA6.2
0E97E:  MOVF   FF2,W
0E980:  MOVWF  00
0E982:  BCF    FF2.6
0E984:  BCF    FF2.7
0E986:  MOVLB  F
0E988:  MOVLW  55
0E98A:  MOVWF  FA7
0E98C:  MOVLW  AA
0E98E:  MOVWF  FA7
0E990:  BSF    FA6.1
0E992:  BTFSC  FA6.1
0E994:  BRA    E992
0E996:  BCF    FA6.2
0E998:  MOVF   00,W
0E99A:  IORWF  FF2,F
....................                delay_ms(10); 
0E99C:  MOVLW  0A
0E99E:  MOVLB  6
0E9A0:  MOVWF  xBA
0E9A2:  MOVLB  0
0E9A4:  CALL   1F70
....................                write_eeprom(25,(int8)MediaMovil); 
0E9A8:  CLRF   FAA
0E9AA:  MOVLW  19
0E9AC:  MOVWF  FA9
0E9AE:  MOVFF  1ED,FA8
0E9B2:  BCF    FA6.6
0E9B4:  BCF    FA6.7
0E9B6:  BSF    FA6.2
0E9B8:  MOVF   FF2,W
0E9BA:  MOVWF  00
0E9BC:  BCF    FF2.6
0E9BE:  BCF    FF2.7
0E9C0:  MOVLB  F
0E9C2:  MOVLW  55
0E9C4:  MOVWF  FA7
0E9C6:  MOVLW  AA
0E9C8:  MOVWF  FA7
0E9CA:  BSF    FA6.1
0E9CC:  BTFSC  FA6.1
0E9CE:  BRA    E9CC
0E9D0:  BCF    FA6.2
0E9D2:  MOVF   00,W
0E9D4:  IORWF  FF2,F
....................                delay_ms(10); 
0E9D6:  MOVLW  0A
0E9D8:  MOVLB  6
0E9DA:  MOVWF  xBA
0E9DC:  MOVLB  0
0E9DE:  CALL   1F70
....................                write_eeprom(26,(int8)Tciclo); 
0E9E2:  MOVFF  200,6BD
0E9E6:  MOVFF  1FF,6BC
0E9EA:  MOVFF  1FE,6BB
0E9EE:  MOVFF  1FD,6BA
0E9F2:  CALL   4C80
0E9F6:  MOVFF  01,6A8
0E9FA:  CLRF   FAA
0E9FC:  MOVLW  1A
0E9FE:  MOVWF  FA9
0EA00:  MOVFF  6A8,FA8
0EA04:  BCF    FA6.6
0EA06:  BCF    FA6.7
0EA08:  BSF    FA6.2
0EA0A:  MOVF   FF2,W
0EA0C:  MOVWF  00
0EA0E:  BCF    FF2.6
0EA10:  BCF    FF2.7
0EA12:  MOVLB  F
0EA14:  MOVLW  55
0EA16:  MOVWF  FA7
0EA18:  MOVLW  AA
0EA1A:  MOVWF  FA7
0EA1C:  BSF    FA6.1
0EA1E:  BTFSC  FA6.1
0EA20:  BRA    EA1E
0EA22:  BCF    FA6.2
0EA24:  MOVF   00,W
0EA26:  IORWF  FF2,F
....................                delay_ms(10); 
0EA28:  MOVLW  0A
0EA2A:  MOVLB  6
0EA2C:  MOVWF  xBA
0EA2E:  MOVLB  0
0EA30:  CALL   1F70
....................                write_eeprom(28,(int8)Sensor[0].RPT100); 
0EA34:  MOVFF  32B,6BD
0EA38:  MOVFF  32A,6BC
0EA3C:  MOVFF  329,6BB
0EA40:  MOVFF  328,6BA
0EA44:  CALL   4C80
0EA48:  MOVFF  01,6A8
0EA4C:  CLRF   FAA
0EA4E:  MOVLW  1C
0EA50:  MOVWF  FA9
0EA52:  MOVFF  6A8,FA8
0EA56:  BCF    FA6.6
0EA58:  BCF    FA6.7
0EA5A:  BSF    FA6.2
0EA5C:  MOVF   FF2,W
0EA5E:  MOVWF  00
0EA60:  BCF    FF2.6
0EA62:  BCF    FF2.7
0EA64:  MOVLB  F
0EA66:  MOVLW  55
0EA68:  MOVWF  FA7
0EA6A:  MOVLW  AA
0EA6C:  MOVWF  FA7
0EA6E:  BSF    FA6.1
0EA70:  BTFSC  FA6.1
0EA72:  BRA    EA70
0EA74:  BCF    FA6.2
0EA76:  MOVF   00,W
0EA78:  IORWF  FF2,F
....................                delay_ms(10); 
0EA7A:  MOVLW  0A
0EA7C:  MOVLB  6
0EA7E:  MOVWF  xBA
0EA80:  MOVLB  0
0EA82:  CALL   1F70
....................                Temporal=Sensor[0].RPT100-((int8)Sensor[0].RPT100); 
0EA86:  MOVFF  32B,6BD
0EA8A:  MOVFF  32A,6BC
0EA8E:  MOVFF  329,6BB
0EA92:  MOVFF  328,6BA
0EA96:  CALL   4C80
0EA9A:  MOVLB  6
0EA9C:  CLRF   xBB
0EA9E:  MOVFF  01,6BA
0EAA2:  MOVLB  0
0EAA4:  CALL   1F3A
0EAA8:  BSF    FD8.1
0EAAA:  MOVFF  32B,6BD
0EAAE:  MOVFF  32A,6BC
0EAB2:  MOVFF  329,6BB
0EAB6:  MOVFF  328,6BA
0EABA:  MOVFF  03,6C1
0EABE:  MOVFF  02,6C0
0EAC2:  MOVFF  01,6BF
0EAC6:  MOVFF  00,6BE
0EACA:  CALL   20F6
0EACE:  MOVFF  03,1C2
0EAD2:  MOVFF  02,1C1
0EAD6:  MOVFF  01,1C0
0EADA:  MOVFF  00,1BF
....................                Temporal=Temporal*10; 
0EADE:  MOVFF  1C2,6C1
0EAE2:  MOVFF  1C1,6C0
0EAE6:  MOVFF  1C0,6BF
0EAEA:  MOVFF  1BF,6BE
0EAEE:  MOVLB  6
0EAF0:  CLRF   xC5
0EAF2:  CLRF   xC4
0EAF4:  MOVLW  20
0EAF6:  MOVWF  xC3
0EAF8:  MOVLW  82
0EAFA:  MOVWF  xC2
0EAFC:  MOVLB  0
0EAFE:  CALL   40BA
0EB02:  MOVFF  03,1C2
0EB06:  MOVFF  02,1C1
0EB0A:  MOVFF  01,1C0
0EB0E:  MOVFF  00,1BF
....................                write_eeprom(27,(int8)Temporal); 
0EB12:  MOVFF  1C2,6BD
0EB16:  MOVFF  1C1,6BC
0EB1A:  MOVFF  1C0,6BB
0EB1E:  MOVFF  1BF,6BA
0EB22:  CALL   4C80
0EB26:  MOVFF  01,6A8
0EB2A:  CLRF   FAA
0EB2C:  MOVLW  1B
0EB2E:  MOVWF  FA9
0EB30:  MOVFF  6A8,FA8
0EB34:  BCF    FA6.6
0EB36:  BCF    FA6.7
0EB38:  BSF    FA6.2
0EB3A:  MOVF   FF2,W
0EB3C:  MOVWF  00
0EB3E:  BCF    FF2.6
0EB40:  BCF    FF2.7
0EB42:  MOVLB  F
0EB44:  MOVLW  55
0EB46:  MOVWF  FA7
0EB48:  MOVLW  AA
0EB4A:  MOVWF  FA7
0EB4C:  BSF    FA6.1
0EB4E:  BTFSC  FA6.1
0EB50:  BRA    EB4E
0EB52:  BCF    FA6.2
0EB54:  MOVF   00,W
0EB56:  IORWF  FF2,F
....................                delay_ms(10); 
0EB58:  MOVLW  0A
0EB5A:  MOVLB  6
0EB5C:  MOVWF  xBA
0EB5E:  MOVLB  0
0EB60:  CALL   1F70
....................                write_eeprom(30,(int8)Sensor[1].RPT100); 
0EB64:  MOVFF  48F,6BD
0EB68:  MOVFF  48E,6BC
0EB6C:  MOVFF  48D,6BB
0EB70:  MOVFF  48C,6BA
0EB74:  CALL   4C80
0EB78:  MOVFF  01,6A8
0EB7C:  CLRF   FAA
0EB7E:  MOVLW  1E
0EB80:  MOVWF  FA9
0EB82:  MOVFF  6A8,FA8
0EB86:  BCF    FA6.6
0EB88:  BCF    FA6.7
0EB8A:  BSF    FA6.2
0EB8C:  MOVF   FF2,W
0EB8E:  MOVWF  00
0EB90:  BCF    FF2.6
0EB92:  BCF    FF2.7
0EB94:  MOVLB  F
0EB96:  MOVLW  55
0EB98:  MOVWF  FA7
0EB9A:  MOVLW  AA
0EB9C:  MOVWF  FA7
0EB9E:  BSF    FA6.1
0EBA0:  BTFSC  FA6.1
0EBA2:  BRA    EBA0
0EBA4:  BCF    FA6.2
0EBA6:  MOVF   00,W
0EBA8:  IORWF  FF2,F
....................                delay_ms(10); 
0EBAA:  MOVLW  0A
0EBAC:  MOVLB  6
0EBAE:  MOVWF  xBA
0EBB0:  MOVLB  0
0EBB2:  CALL   1F70
....................                Temporal=Sensor[1].RPT100-((int8)Sensor[1].RPT100); 
0EBB6:  MOVFF  48F,6BD
0EBBA:  MOVFF  48E,6BC
0EBBE:  MOVFF  48D,6BB
0EBC2:  MOVFF  48C,6BA
0EBC6:  CALL   4C80
0EBCA:  MOVLB  6
0EBCC:  CLRF   xBB
0EBCE:  MOVFF  01,6BA
0EBD2:  MOVLB  0
0EBD4:  CALL   1F3A
0EBD8:  BSF    FD8.1
0EBDA:  MOVFF  48F,6BD
0EBDE:  MOVFF  48E,6BC
0EBE2:  MOVFF  48D,6BB
0EBE6:  MOVFF  48C,6BA
0EBEA:  MOVFF  03,6C1
0EBEE:  MOVFF  02,6C0
0EBF2:  MOVFF  01,6BF
0EBF6:  MOVFF  00,6BE
0EBFA:  CALL   20F6
0EBFE:  MOVFF  03,1C2
0EC02:  MOVFF  02,1C1
0EC06:  MOVFF  01,1C0
0EC0A:  MOVFF  00,1BF
....................                Temporal=Temporal*10; 
0EC0E:  MOVFF  1C2,6C1
0EC12:  MOVFF  1C1,6C0
0EC16:  MOVFF  1C0,6BF
0EC1A:  MOVFF  1BF,6BE
0EC1E:  MOVLB  6
0EC20:  CLRF   xC5
0EC22:  CLRF   xC4
0EC24:  MOVLW  20
0EC26:  MOVWF  xC3
0EC28:  MOVLW  82
0EC2A:  MOVWF  xC2
0EC2C:  MOVLB  0
0EC2E:  CALL   40BA
0EC32:  MOVFF  03,1C2
0EC36:  MOVFF  02,1C1
0EC3A:  MOVFF  01,1C0
0EC3E:  MOVFF  00,1BF
....................                write_eeprom(29,(int8)Temporal); 
0EC42:  MOVFF  1C2,6BD
0EC46:  MOVFF  1C1,6BC
0EC4A:  MOVFF  1C0,6BB
0EC4E:  MOVFF  1BF,6BA
0EC52:  CALL   4C80
0EC56:  MOVFF  01,6A8
0EC5A:  CLRF   FAA
0EC5C:  MOVLW  1D
0EC5E:  MOVWF  FA9
0EC60:  MOVFF  6A8,FA8
0EC64:  BCF    FA6.6
0EC66:  BCF    FA6.7
0EC68:  BSF    FA6.2
0EC6A:  MOVF   FF2,W
0EC6C:  MOVWF  00
0EC6E:  BCF    FF2.6
0EC70:  BCF    FF2.7
0EC72:  MOVLB  F
0EC74:  MOVLW  55
0EC76:  MOVWF  FA7
0EC78:  MOVLW  AA
0EC7A:  MOVWF  FA7
0EC7C:  BSF    FA6.1
0EC7E:  BTFSC  FA6.1
0EC80:  BRA    EC7E
0EC82:  BCF    FA6.2
0EC84:  MOVF   00,W
0EC86:  IORWF  FF2,F
....................                delay_ms(10); 
0EC88:  MOVLW  0A
0EC8A:  MOVLB  6
0EC8C:  MOVWF  xBA
0EC8E:  MOVLB  0
0EC90:  CALL   1F70
....................                write_eeprom(31,Atmosferica); 
0EC94:  CLRF   FAA
0EC96:  MOVLW  1F
0EC98:  MOVWF  FA9
0EC9A:  MOVFF  29B,FA8
0EC9E:  BCF    FA6.6
0ECA0:  BCF    FA6.7
0ECA2:  BSF    FA6.2
0ECA4:  MOVF   FF2,W
0ECA6:  MOVWF  00
0ECA8:  BCF    FF2.6
0ECAA:  BCF    FF2.7
0ECAC:  MOVLB  F
0ECAE:  MOVLW  55
0ECB0:  MOVWF  FA7
0ECB2:  MOVLW  AA
0ECB4:  MOVWF  FA7
0ECB6:  BSF    FA6.1
0ECB8:  BTFSC  FA6.1
0ECBA:  BRA    ECB8
0ECBC:  BCF    FA6.2
0ECBE:  MOVF   00,W
0ECC0:  IORWF  FF2,F
....................                delay_ms(10); 
0ECC2:  MOVLW  0A
0ECC4:  MOVLB  6
0ECC6:  MOVWF  xBA
0ECC8:  MOVLB  0
0ECCA:  CALL   1F70
....................                write_eeprom(32,Tapertura); 
0ECCE:  CLRF   FAA
0ECD0:  MOVLW  20
0ECD2:  MOVWF  FA9
0ECD4:  MOVFF  259,FA8
0ECD8:  BCF    FA6.6
0ECDA:  BCF    FA6.7
0ECDC:  BSF    FA6.2
0ECDE:  MOVF   FF2,W
0ECE0:  MOVWF  00
0ECE2:  BCF    FF2.6
0ECE4:  BCF    FF2.7
0ECE6:  MOVLB  F
0ECE8:  MOVLW  55
0ECEA:  MOVWF  FA7
0ECEC:  MOVLW  AA
0ECEE:  MOVWF  FA7
0ECF0:  BSF    FA6.1
0ECF2:  BTFSC  FA6.1
0ECF4:  BRA    ECF2
0ECF6:  BCF    FA6.2
0ECF8:  MOVF   00,W
0ECFA:  IORWF  FF2,F
....................                delay_ms(10); 
0ECFC:  MOVLW  0A
0ECFE:  MOVLB  6
0ED00:  MOVWF  xBA
0ED02:  MOVLB  0
0ED04:  CALL   1F70
....................                GuardaEEPROM=ON; 
0ED08:  MOVLB  1
0ED0A:  BSF    x04.3
....................             } 
....................             printf("page Menu"); 
0ED0C:  MOVLW  FA
0ED0E:  MOVWF  FF6
0ED10:  MOVLW  1E
0ED12:  MOVWF  FF7
0ED14:  MOVLW  00
0ED16:  MOVWF  FF8
0ED18:  MOVLB  0
0ED1A:  CALL   3FF2
....................             SendDataDisplay(); 
0ED1E:  CALL   4024
....................             //BorraBuffer(); 
....................          } 
....................       } 
....................       printf("fecha.txt=\"Fecha:%02u/%02u/20%02u    Hora: %02u:%02u\"",Dia,Mes,Year,Hora,Minuto); 
0ED22:  MOVLW  04
0ED24:  MOVWF  FF6
0ED26:  MOVLW  1F
0ED28:  MOVWF  FF7
0ED2A:  MOVLW  00
0ED2C:  MOVWF  FF8
0ED2E:  MOVLW  11
0ED30:  MOVLB  6
0ED32:  MOVWF  xAD
0ED34:  MOVLB  0
0ED36:  CALL   5A32
0ED3A:  MOVFF  293,6AD
0ED3E:  MOVLW  01
0ED40:  MOVLB  6
0ED42:  MOVWF  xAE
0ED44:  MOVLB  0
0ED46:  CALL   5AB6
0ED4A:  MOVLW  2F
0ED4C:  BTFSS  F9E.4
0ED4E:  BRA    ED4C
0ED50:  MOVWF  FAD
0ED52:  MOVFF  292,6AD
0ED56:  MOVLW  01
0ED58:  MOVLB  6
0ED5A:  MOVWF  xAE
0ED5C:  MOVLB  0
0ED5E:  CALL   5AB6
0ED62:  MOVLW  2F
0ED64:  BTFSS  F9E.4
0ED66:  BRA    ED64
0ED68:  MOVWF  FAD
0ED6A:  MOVLW  32
0ED6C:  BTFSS  F9E.4
0ED6E:  BRA    ED6C
0ED70:  MOVWF  FAD
0ED72:  MOVLW  30
0ED74:  BTFSS  F9E.4
0ED76:  BRA    ED74
0ED78:  MOVWF  FAD
0ED7A:  MOVFF  291,6AD
0ED7E:  MOVLW  01
0ED80:  MOVLB  6
0ED82:  MOVWF  xAE
0ED84:  MOVLB  0
0ED86:  CALL   5AB6
0ED8A:  MOVLW  25
0ED8C:  MOVWF  FF6
0ED8E:  MOVLW  1F
0ED90:  MOVWF  FF7
0ED92:  MOVLW  00
0ED94:  MOVWF  FF8
0ED96:  MOVLW  0A
0ED98:  MOVLB  6
0ED9A:  MOVWF  xAD
0ED9C:  MOVLB  0
0ED9E:  CALL   5A32
0EDA2:  MOVFF  294,6AD
0EDA6:  MOVLW  01
0EDA8:  MOVLB  6
0EDAA:  MOVWF  xAE
0EDAC:  MOVLB  0
0EDAE:  CALL   5AB6
0EDB2:  MOVLW  3A
0EDB4:  BTFSS  F9E.4
0EDB6:  BRA    EDB4
0EDB8:  MOVWF  FAD
0EDBA:  MOVFF  295,6AD
0EDBE:  MOVLW  01
0EDC0:  MOVLB  6
0EDC2:  MOVWF  xAE
0EDC4:  MOVLB  0
0EDC6:  CALL   5AB6
0EDCA:  MOVLW  22
0EDCC:  BTFSS  F9E.4
0EDCE:  BRA    EDCC
0EDD0:  MOVWF  FAD
....................       SendDataDisplay();  
0EDD2:  CALL   4024
....................     } 
.................... //_--------------------------------------------------------------------------------------------------------------------------------------------------------        
....................  
....................    } 
0EDD6:  MOVLB  0
0EDD8:  GOTO   7E96
.................... } 
0EDDC:  SLEEP 

Configuration Fuses:
   Word  1: 0200   HS NOIESO NOFCMEN
   Word  2: 1B1F   BROWNOUT WDT BORV20 NOPUT WDT8192
   Word  3: 0000   NOPBADEN NOLPT1OSC NOMCLR
   Word  4: 00B0   NOSTVREN NODEBUG NOLVP NOXINST BBSIZ4K
   Word  5: C03F   NOPROTECT NOCPD NOCPB
   Word  6: E03F   NOWRT NOWRTD NOWRTC NOWRTB
   Word  7: 403F   NOEBTR NOEBTRB
