CCS PCH C Compiler, Version 4.104, 5967               18-may.-21 12:16

               Filename: D:\Laboratorio\Autoclave\Autoclaves Vertical\Sin Precamara\2020\Autoclave 40L Artilab Impresora #004588218 OP2020135\Firmware V4.0\GLCD_Controller - 4.0.5 Ajuste Decimal-Entradas-Purga-CtrlPresion\GLCD_Controller.lst

               ROM used: 47998 bytes (49%)
                         Largest free fragment is 32768
               RAM used: 1018 (31%) at main() level
                         1046 (31%) worst case
               Stack:    5 worst case (4 in main + 1 for interrupts)

*
00000:  GOTO   52F4
*
00008:  GOTO   00BA
0000C:  NOP   
0000E:  NOP   
00010:  NOP   
00012:  NOP   
00014:  NOP   
00016:  NOP   
00018:  MOVWF  04
0001A:  MOVFF  FD8,05
0001E:  MOVFF  FE0,06
00022:  MOVLB  0
00024:  MOVFF  FE9,0C
00028:  MOVFF  FEA,07
0002C:  MOVFF  FE1,08
00030:  MOVFF  FE2,09
00034:  MOVFF  FD9,0A
00038:  MOVFF  FDA,0B
0003C:  MOVFF  FF3,12
00040:  MOVFF  FF4,13
00044:  MOVFF  FFA,14
00048:  MOVFF  FFB,15
0004C:  MOVFF  00,0E
00050:  MOVFF  01,0F
00054:  MOVFF  02,10
00058:  MOVFF  03,11
0005C:  BTFSS  FF2.5
0005E:  GOTO   0068
00062:  BTFSC  FF2.2
00064:  GOTO   0272
00068:  BTFSS  F9D.0
0006A:  GOTO   0074
0006E:  BTFSC  F9E.0
00070:  GOTO   02CA
00074:  MOVFF  0E,00
00078:  MOVFF  0F,01
0007C:  MOVFF  10,02
00080:  MOVFF  11,03
00084:  MOVFF  0C,FE9
00088:  MOVFF  07,FEA
0008C:  BSF    07.7
0008E:  MOVFF  08,FE1
00092:  MOVFF  09,FE2
00096:  MOVFF  0A,FD9
0009A:  MOVFF  0B,FDA
0009E:  MOVFF  12,FF3
000A2:  MOVFF  13,FF4
000A6:  MOVFF  14,FFA
000AA:  MOVFF  15,FFB
000AE:  MOVF   04,W
000B0:  MOVFF  06,FE0
000B4:  MOVFF  05,FD8
000B8:  RETFIE 0
000BA:  MOVWF  17
000BC:  MOVFF  FD8,18
000C0:  MOVFF  FE0,19
000C4:  MOVLB  0
000C6:  MOVFF  FE9,1F
000CA:  MOVFF  FEA,1A
000CE:  MOVFF  FE1,1B
000D2:  MOVFF  FE2,1C
000D6:  MOVFF  FD9,1D
000DA:  MOVFF  FDA,1E
000DE:  MOVFF  FF3,25
000E2:  MOVFF  FF4,26
000E6:  MOVFF  FFA,27
000EA:  MOVFF  FFB,28
000EE:  MOVFF  00,21
000F2:  MOVFF  01,22
000F6:  MOVFF  02,23
000FA:  MOVFF  03,24
000FE:  BTFSS  F9D.5
00100:  GOTO   010A
00104:  BTFSC  F9E.5
00106:  GOTO   0204
0010A:  MOVFF  21,00
0010E:  MOVFF  22,01
00112:  MOVFF  23,02
00116:  MOVFF  24,03
0011A:  MOVFF  1F,FE9
0011E:  MOVFF  1A,FEA
00122:  BSF    1A.7
00124:  MOVFF  1B,FE1
00128:  MOVFF  1C,FE2
0012C:  MOVFF  1D,FD9
00130:  MOVFF  1E,FDA
00134:  MOVFF  25,FF3
00138:  MOVFF  26,FF4
0013C:  MOVFF  27,FFA
00140:  MOVFF  28,FFB
00144:  MOVF   17,W
00146:  MOVFF  19,FE0
0014A:  MOVFF  18,FD8
0014E:  RETFIE 0
.................... //Falta crear menu de ajuste de variables y de norma CFR21 
....................  
.................... #include <18F4685.h> 
.................... //////// Standard Header file for the PIC18F4685 device //////////////// 
.................... #device PIC18F4685 
.................... #list 
....................  
.................... #device adc=10 
.................... #device HIGH_INTS=TRUE //Activamos niveles de prioridad 
.................... #fuses HS,WDT8192,NOPROTECT,NOLVP,NODEBUG,NOSTVREN,NOPUT,NOCPD,NOWRT,NOIESO,NOFCMEN,NOPBADEN,NOWRTC,NOWRTB,NOEBTR,NOEBTRB,NOCPB,NOXINST,NOLPT1OSC,NOMCLR,NOBROWNOUT 
.................... #use delay(clock=20000000) 
*
0179C:  MOVLW  04
0179E:  MOVWF  FEA
017A0:  MOVWF  FE9
017A2:  MOVF   FEF,W
017A4:  BZ    17C0
017A6:  MOVLW  06
017A8:  MOVWF  01
017AA:  CLRF   00
017AC:  DECFSZ 00,F
017AE:  BRA    17AC
017B0:  DECFSZ 01,F
017B2:  BRA    17AA
017B4:  MOVLW  7B
017B6:  MOVWF  00
017B8:  DECFSZ 00,F
017BA:  BRA    17B8
017BC:  DECFSZ FEF,F
017BE:  BRA    17A6
017C0:  RETLW  00
.................... #use i2c(Master,slow,sda=PIN_C4,scl=PIN_C3) 
*
03E3E:  MOVLW  08
03E40:  MOVWF  01
03E42:  MOVLW  05
03E44:  MOVWF  00
03E46:  DECFSZ 00,F
03E48:  BRA    3E46
03E4A:  BCF    F8B.3
03E4C:  BCF    F94.3
03E4E:  MOVLW  06
03E50:  MOVWF  00
03E52:  DECFSZ 00,F
03E54:  BRA    3E52
03E56:  MOVLB  4
03E58:  RLCF   x08,F
03E5A:  BCF    F8B.4
03E5C:  BTFSC  FD8.0
03E5E:  BSF    F94.4
03E60:  BTFSS  FD8.0
03E62:  BCF    F94.4
03E64:  BSF    F94.3
03E66:  BTFSS  F82.3
03E68:  BRA    3E66
03E6A:  DECFSZ 01,F
03E6C:  BRA    3E70
03E6E:  BRA    3E74
03E70:  MOVLB  0
03E72:  BRA    3E42
03E74:  MOVLW  05
03E76:  MOVWF  00
03E78:  DECFSZ 00,F
03E7A:  BRA    3E78
03E7C:  BCF    F8B.3
03E7E:  BCF    F94.3
03E80:  NOP   
03E82:  BSF    F94.4
03E84:  MOVLW  06
03E86:  MOVWF  00
03E88:  DECFSZ 00,F
03E8A:  BRA    3E88
03E8C:  MOVLW  06
03E8E:  MOVWF  00
03E90:  DECFSZ 00,F
03E92:  BRA    3E90
03E94:  BSF    F94.3
03E96:  BTFSS  F82.3
03E98:  BRA    3E96
03E9A:  CLRF   01
03E9C:  MOVLW  06
03E9E:  MOVWF  00
03EA0:  DECFSZ 00,F
03EA2:  BRA    3EA0
03EA4:  BTFSC  F82.4
03EA6:  BSF    01.0
03EA8:  BCF    F8B.3
03EAA:  BCF    F94.3
03EAC:  BCF    F8B.4
03EAE:  BCF    F94.4
03EB0:  MOVLB  0
03EB2:  RETLW  00
.................... #use rs232(baud=9600, xmit=PIN_C6, rcv=PIN_C7, bits=8, parity=N) 
*
03530:  BTFSS  F9E.4
03532:  BRA    3530
03534:  MOVWF  FAD
03536:  RETLW  00
.................... //#include "HDM64GS12.c" 
.................... //#include "GRAPHICS.c" 
.................... ///#include "imagen.h" 
.................... #include <stdio.h> 
.................... /////////////////////////////////////////////////////////////////////////// 
.................... ////        (C) Copyright 1996,2003 Custom Computer Services           //// 
.................... //// This source code may only be used by licensed users of the CCS C  //// 
.................... //// compiler.  This source code may only be distributed to other      //// 
.................... //// licensed users of the CCS C compiler.  No other use, reproduction //// 
.................... //// or distribution is permitted without written permission.          //// 
.................... //// Derivative programs created using this software in object code    //// 
.................... //// form are not restricted in any way.                               //// 
.................... /////////////////////////////////////////////////////////////////////////// 
....................  
.................... #ifndef _STDIO 
.................... #define _STDIO 
.................... #include <string.h> 
.................... //////////////////////////////////////////////////////////////////////////// 
.................... ////        (C) Copyright 1996,2008 Custom Computer Services            //// 
.................... //// This source code may only be used by licensed users of the CCS C   //// 
.................... //// compiler.  This source code may only be distributed to other       //// 
.................... //// licensed users of the CCS C compiler.  No other use, reproduction  //// 
.................... //// or distribution is permitted without written permission.           //// 
.................... //// Derivative programs created using this software in object code     //// 
.................... //// form are not restricted in any way.                                //// 
.................... //////////////////////////////////////////////////////////////////////////// 
....................  
.................... #ifndef _STRING 
.................... #define _STRING 
.................... #include <stddef.h> 
.................... /////////////////////////////////////////////////////////////////////////// 
.................... ////        (C) Copyright 1996,2003 Custom Computer Services           //// 
.................... //// This source code may only be used by licensed users of the CCS C  //// 
.................... //// compiler.  This source code may only be distributed to other      //// 
.................... //// licensed users of the CCS C compiler.  No other use, reproduction //// 
.................... //// or distribution is permitted without written permission.          //// 
.................... //// Derivative programs created using this software in object code    //// 
.................... //// form are not restricted in any way.                               //// 
.................... /////////////////////////////////////////////////////////////////////////// 
....................  
.................... #ifndef _STDDEF 
....................  
.................... #define _STDDEF 
....................  
.................... #if sizeof(unsigned int8 *)==1 
.................... #define ptrdiff_t unsigned int8 
.................... #else 
.................... #define ptrdiff_t unsigned int16 
.................... #endif 
....................  
.................... #define size_t unsigned int8 
.................... #define wchar_t char 
.................... #define NULL 0 
....................  
.................... #define offsetof(s,f) (offsetofbit(s,f)/8) 
....................  
.................... #endif 
....................  
.................... #include <ctype.h> 
.................... //////////////////////////////////////////////////////////////////////////// 
.................... ////        (C) Copyright 1996,2003 Custom Computer Services            //// 
.................... //// This source code may only be used by licensed users of the CCS C   //// 
.................... //// compiler.  This source code may only be distributed to other       //// 
.................... //// licensed users of the CCS C compiler.  No other use, reproduction  //// 
.................... //// or distribution is permitted without written permission.           //// 
.................... //// Derivative programs created using this software in object code     //// 
.................... //// form are not restricted in any way.                                //// 
.................... //////////////////////////////////////////////////////////////////////////// 
....................  
.................... #ifndef _CTYPE 
.................... #define _CTYPE 
....................  
.................... #define islower(x)  isamong(x,"abcdefghijklmnopqrstuvwxyz") 
.................... #define isupper(x)  isamong(x,"ABCDEFGHIJKLMNOPQRSTUVWXYZ") 
.................... #define isalnum(x)  isamong(x,"0123456789ABCDEFGHIJKLMNOPQRSTUVWXYZabcdefghijklmnopqrstuvwxyz") 
.................... #define isalpha(x)  isamong(x,"ABCDEFGHIJKLMNOPQRSTUVWXYZabcdefghijklmnopqrstuvwxyz") 
.................... #define isdigit(x)  isamong(x,"0123456789") 
.................... #define isspace(x)  ((x)==' ') 
.................... #define isxdigit(x) isamong(x,"0123456789ABCDEFabcdef") 
.................... #define iscntrl(x)  ((x)<' ') 
.................... #define isprint(x)  ((x)>=' ') 
.................... #define isgraph(x)  ((x)>' ') 
.................... #define ispunct(x)  (((x)>' ')&&!isalnum(x)) 
....................  
.................... #endif 
....................  
....................  
....................  
....................  
....................  
.................... ////////////////////////////////////////////// 
.................... //// Uncomment the following define to    //// 
.................... //// allow some functions to use a        //// 
.................... //// quicker algorithm, but use more ROM  //// 
.................... ////                                      //// 
.................... //// #define FASTER_BUT_MORE_ROM          //// 
.................... ////////////////////////////////////////////// 
....................  
....................  
....................  
.................... /*Copying functions*/ 
.................... /* standard template: 
....................    void *memmove(void *s1, void *s2, size_t n). 
....................    Copies max of n characters safely (not following ending '\0') 
....................    from s2 in s1; if s2 has less than n characters, appends 0 */ 
....................  
.................... char *memmove(void *s1,char *s2,size_t n) 
.................... { 
....................    char *sc1; 
....................    char *sc2; 
....................    sc1=s1; 
....................    sc2=s2; 
....................    if(sc2<sc1 && sc1 <sc2 +n) 
....................       for(sc1+=n,sc2+=n;0<n;--n) 
....................          *--sc1=*--sc2; 
....................    else 
....................       for(;0<n;--n) 
....................          *sc1++=*sc2++; 
....................   return s1; 
....................   } 
....................  
.................... /* Standard template: char *strcpy(char *s1, const char *s2) 
....................    copies the string s2 including the null character to s1. 
....................    This is a compiler built in to handle the different address 
....................    spaces */ 
....................  
.................... #define strcopy strcpy 
....................  
.................... /* standard template: 
....................    char *strncpy(char *s1, const char *s2, size_t n). 
....................    Copies max of n characters (not following ending '\0') 
....................    from s2 in s1; if s2 has less than n characters, appends 0 */ 
....................  
.................... char *strncpy(char *s1, char *s2, size_t n) 
.................... { 
....................   char *s; 
....................  
....................   for (s = s1; n > 0 && *s2 != '\0'; n--) 
....................      *s++ = *s2++; 
....................   for (; n > 0; n--) 
....................      *s++ = '\0'; 
....................  
....................   return(s1); 
.................... } 
.................... /***********************************************************/ 
....................  
.................... /*concatenation functions*/ 
.................... /* standard template: char *strcat(char *s1, const char *s2) 
.................... appends s2 to s1*/ 
....................  
.................... char *strcat(char *s1, char *s2) 
.................... { 
....................    char *s; 
....................  
....................    for (s = s1; *s != '\0'; ++s); 
....................    while(*s2 != '\0') 
....................    { 
....................       *s = *s2; 
....................       ++s; 
....................       ++s2; 
....................    } 
....................  
....................    *s = '\0'; 
....................    return(s1); 
.................... } 
.................... /* standard template: char *strncat(char *s1, char *s2,size_t n) 
.................... appends not more than n characters from s2 to s1*/ 
....................  
.................... char *strncat(char *s1, char *s2, size_t n) 
.................... { 
....................    char *s; 
....................  
....................    for (s = s1; *s != '\0'; ++s); 
....................    while(*s2 != '\0' && 0<n) 
....................    { 
....................       *s = *s2; 
....................       ++s; 
....................       ++s2; 
....................       --n; 
....................    } 
....................  
....................    *s = '\0'; 
....................    return(s1); 
.................... } 
....................  
.................... /***********************************************************/ 
....................  
....................  
.................... /*comparison functions*/ 
.................... /* standard template: signed int memcmp(void *s1, void *s2). 
....................    Compares s1 & s2; returns -1 if s1<s2, 0 if s1=s2, 1 if s1>s2 */ 
....................  
.................... signed int8 memcmp(void * s1,char *s2,size_t n) 
.................... { 
.................... char *su1, *su2; 
.................... for(su1=s1, su2=s2; 0<n; ++su1, ++su2, --n) 
.................... { 
....................    if(*su1!=*su2) 
....................       return ((*su1<*su2)?-1:+1); 
.................... } 
.................... return 0; 
.................... } 
....................  
.................... /* standard template: int strcmp(const char *s1, const char *s2). 
....................    Compares s1 & s2; returns -1 if s1<s2, 0 if s1=s2, 1 if s1>s2 */ 
....................  
.................... signed int8 strcmp(char *s1, char *s2) 
.................... { 
....................    for (; *s1 == *s2; s1++, s2++) 
....................       if (*s1 == '\0') 
....................          return(0); 
....................    return((*s1 < *s2) ? -1: 1); 
.................... } 
.................... /* standard template: int strcoll(const char *s1, const char *s2). 
....................    Compares s1 & s2; returns -1 if s1<s2, 0 if s1=s2, 1 if s1>s2 */ 
....................  
.................... signed int8 strcoll(char *s1, char *s2) 
.................... { 
....................    for (; *s1 == *s2; s1++, s2++) 
....................       if (*s1 == '\0') 
....................          return(0); 
....................    return((*s1 < *s2) ? -1: 1); 
.................... } 
....................  
.................... /* standard template: 
....................    int strncmp(const char *s1, const char *s2, size_t n). 
....................    Compares max of n characters (not following 0) from s1 to s2; 
....................    returns same as strcmp */ 
....................  
.................... signed int8 strncmp(char *s1, char *s2, size_t n) 
.................... { 
....................    for (; n > 0; s1++, s2++, n--) 
....................       if (*s1 != *s2) 
....................          return((*s1 <*s2) ? -1: 1); 
....................       else if (*s1 == '\0') 
....................          return(0); 
....................    return(0); 
.................... } 
.................... /* standard template: 
....................    int strxfrm(const char *s1, const char *s2, size_t n). 
....................    transforms maximum of n characters from s2 and places them into s1*/ 
.................... size_t strxfrm(char *s1, char *s2, size_t n) 
.................... { 
....................   char *s; 
....................   unsigned int8 n1; 
....................   n1=n; 
....................   for (s = s1; n > 0 && *s2 != '\0'; n--) 
....................      *s++ = *s2++; 
....................   for (; n > 0; n--) 
....................      *s++ = '\0'; 
....................  
....................   return(n1); 
.................... } 
....................  
....................  
....................  
....................  
....................  
.................... /***********************************************************/ 
.................... /*Search functions*/ 
.................... /* standard template: void *memchr(const char *s, int c). 
....................    Finds first occurrence of c in n characters of s */ 
....................  
.................... char *memchr(void *s,unsigned int8 c,size_t n) 
.................... { 
....................    char uc; 
....................    char *su; 
....................    uc=c; 
....................    for(su=s;0<n;++su,--n) 
....................       if(*su==uc) 
....................       return su; 
....................    return NULL; 
.................... } 
....................  
.................... /* standard template: char *strchr(const char *s, int c). 
....................    Finds first occurrence of c in s */ 
....................  
.................... char *strchr(char *s, unsigned int8 c) 
.................... { 
....................    for (; *s != c; s++) 
....................       if (*s == '\0') 
....................          return(0); 
....................    return(s); 
.................... } 
.................... /* standard template: 
....................    size_t strcspn(const char *s1, const char *s2). 
....................    Computes length of max initial segment of s1 that 
....................    consists entirely of characters NOT from s2*/ 
....................  
.................... unsigned int8  strcspn(char *s1, char *s2) 
.................... { 
....................    char *sc1, *sc2; 
....................  
....................    for (sc1 = s1; *sc1 != 0; sc1++) 
....................       for (sc2 = s2; *sc2 != 0; sc2++) 
....................          if (*sc1 == *sc2) 
....................             return(sc1 - s1); 
....................    return(sc1 - s1); 
.................... } 
.................... /* standard template: 
....................    char *strpbrk(const char *s1, const char *s2). 
....................    Locates first occurence of any character from s2 in s1; 
....................    returns s1 if s2 is empty string */ 
....................  
.................... char *strpbrk(char *s1, char *s2) 
.................... { 
....................    char *sc1, *sc2; 
....................  
....................    for (sc1 = s1; *sc1 != 0; sc1++) 
....................       for (sc2 = s2; *sc2 != 0; sc2++) 
....................          if (*sc1 == *sc2) 
....................             return(sc1); 
....................    return(0); 
.................... } 
....................  
....................  
.................... /* standard template: char *strrchr(const char *s, int c). 
....................    Finds last occurrence of c in s */ 
....................  
.................... char *strrchr(char *s, unsigned int8 c) 
.................... { 
....................    char *p; 
....................  
....................    for (p = 0; ; s++) 
....................    { 
....................       if (*s == c) 
....................          p = s; 
....................       if (*s == '\0') 
....................          return(p); 
....................    } 
.................... } 
.................... /* computes length of max initial segment of s1 consisting 
....................    entirely of characters from s2 */ 
....................  
.................... unsigned int8  strspn(char *s1, char *s2) 
.................... { 
....................    char *sc1, *sc2; 
....................  
....................    for (sc1 = s1; *sc1 != 0; sc1++) 
....................       for (sc2 = s2; ; sc2++) 
....................     if (*sc2 == '\0') 
....................        return(sc1 - s1); 
....................          else if (*sc1 == *sc2) 
....................             break; 
....................    return(sc1 - s1); 
.................... } 
.................... /* standard template: 
....................    char *strstr(const char *s1, const char *s2); 
....................    Locates first occurence of character sequence s2 in s1; 
....................    returns 0 if s2 is empty string 
....................  
....................    Uncomment #define FASTER_BUT_MORE_ROM at the top of the 
....................    file to use the faster algorithm */ 
.................... char *strstr(char *s1, char *s2) 
.................... { 
....................    char *s, *t; 
....................  
....................    #ifdef FASTER_BUT_MORE_ROM 
....................    if (*s2 == '\0') 
....................          return(s1); 
....................    #endif 
....................  
....................    while (*s1) 
....................    { 
....................       for(s = s1, t = s2; *t && (*s == *t); ++s, ++t); 
....................  
....................       if (*t == '\0') 
....................          return s1; 
....................       ++s1; 
....................       #ifdef FASTER_BUT_MORE_ROM 
....................          while(*s1 != '\0' && *s1 != *s2) 
....................             ++s1; 
....................       #endif 
....................    } 
....................    return 0; 
.................... } 
....................  
.................... /* standard template: char *strtok(char *s1, const char *s2). 
....................  
....................    Finds next token in s1 delimited by a character from separator 
....................    string s2 (which can be different from call to call).  First call 
....................    starts at beginning of s1 searching for first character NOT 
....................    contained in s2; returns 0 if none is found. 
....................    If one is found, it is the start of first token (return value). 
....................    Function then searches from there for a character contained in s2. 
....................    If none is found, current token extends to end of s1, and subsequent 
....................    searches for a token will return 0.  If one is found, it is 
....................    overwritten by '\0', which terminates current token.  Function saves 
....................    pointer to following character from which next search will start. 
....................    Each subsequent call, with 0 as first argument, starts searching 
....................    from saved pointer */ 
....................  
.................... char *strtok(char *s1, char *s2) 
.................... { 
....................    char *beg, *end; 
....................    static char *save; 
....................  
....................    beg = (s1)? s1: save; 
....................    beg += strspn(beg, s2); 
....................    if (*beg == '\0') 
....................    { 
....................       *save = ' '; 
....................       return(0); 
....................    } 
....................    end = strpbrk(beg, s2); 
....................    if (*end != '\0') 
....................    { 
....................       *end = '\0'; 
....................       end++; 
....................    } 
....................    save = end; 
....................    return(beg); 
.................... } 
....................  
.................... /*****************************************************************/ 
.................... /*Miscellaneous functions*/ 
.................... /* standard template 
.................... maps error number in errnum to an error message string 
.................... Returns: Pointer to string 
.................... */ 
.................... #ifdef _ERRNO 
.................... char * strerror(unsigned int8 errnum) 
.................... { 
.................... char s[15]; 
.................... switch( errnum) 
.................... { 
.................... case 0: 
....................    strcpy(s,"no errors"); 
....................    return s; 
.................... case EDOM : 
....................    strcpy(s,"domain error"); 
....................    return s; 
.................... case ERANGE: 
....................    strcpy(s,"range error"); 
....................    return s; 
.................... } 
.................... } 
.................... #ENDIF 
.................... /* standard template: size_t strlen(const char *s). 
....................    Computes length of s1 (preceding terminating 0) */ 
....................  
.................... unsigned int8 strlen(char *s) 
.................... { 
....................    char *sc; 
....................  
....................    for (sc = s; *sc != 0; sc++); 
....................    return(sc - s); 
.................... } 
....................  
.................... /* standard template: size_t stricmp(const char *s1, const char *s2). 
....................    Compares s1 to s2 ignoring case (upper vs. lower) */ 
....................  
.................... signed int8 stricmp(char *s1, char *s2) 
.................... { 
....................  for(; *s1==*s2||(isalpha(*s1)&&isalpha(*s2)&&(*s1==*s2+32||*s2==*s1+32)); 
....................     s1++, s2++) 
....................     if (*s1 == '\0') 
....................        return(0); 
....................  return((*s1 < *s2) ? -1: 1); 
.................... } 
....................  
....................  
.................... /* standard template: char *strlwr(char *s). 
....................    Replaces uppercase letters by lowercase; 
....................    returns pointer to new string s */ 
....................  
.................... char *strlwr(char *s) 
.................... { 
....................    char *p; 
....................  
....................    for (p = s; *p != '\0'; p++) 
....................       if (*p >= 'A' && *p <='Z') 
....................          *p += 'a' - 'A'; 
....................    return(s); 
.................... } 
....................  
....................  
.................... /************************************************************/ 
....................  
....................  
.................... #endif 
....................  
.................... #ifndef getc 
.................... #define getc getch 
.................... #define getchar getch 
.................... #define puts(s) {printf(s); putchar(13); putchar(10);} 
.................... #define putc putchar 
.................... #endif 
.................... /* maps error number to an error message. Writes a sequence of characters to 
.................... stderr stream thus: if s is not null then string pointed to by s follwed by 
.................... a colon (:) and a space and the appropriate error message returned by strerror 
.................... function with argument errno 
....................  
.................... Returns: no value 
.................... */ 
....................  
.................... #ifdef _ERRNO 
.................... void perror(char *s) 
.................... { 
....................   if(s) 
....................   fprintf(STDERR,"%s: ",s); 
....................   fprintf(STDERR,"%s\r\n",strerror(errno)); 
.................... } 
.................... #endif 
.................... #endif 
....................  
.................... #include <string.h> 
.................... //////////////////////////////////////////////////////////////////////////// 
.................... ////        (C) Copyright 1996,2008 Custom Computer Services            //// 
.................... //// This source code may only be used by licensed users of the CCS C   //// 
.................... //// compiler.  This source code may only be distributed to other       //// 
.................... //// licensed users of the CCS C compiler.  No other use, reproduction  //// 
.................... //// or distribution is permitted without written permission.           //// 
.................... //// Derivative programs created using this software in object code     //// 
.................... //// form are not restricted in any way.                                //// 
.................... //////////////////////////////////////////////////////////////////////////// 
....................  
.................... #ifndef _STRING 
.................... #define _STRING 
.................... #include <stddef.h> 
.................... #include <ctype.h> 
....................  
....................  
....................  
.................... ////////////////////////////////////////////// 
.................... //// Uncomment the following define to    //// 
.................... //// allow some functions to use a        //// 
.................... //// quicker algorithm, but use more ROM  //// 
.................... ////                                      //// 
.................... //// #define FASTER_BUT_MORE_ROM          //// 
.................... ////////////////////////////////////////////// 
....................  
....................  
....................  
.................... /*Copying functions*/ 
.................... /* standard template: 
....................    void *memmove(void *s1, void *s2, size_t n). 
....................    Copies max of n characters safely (not following ending '\0') 
....................    from s2 in s1; if s2 has less than n characters, appends 0 */ 
....................  
.................... char *memmove(void *s1,char *s2,size_t n) 
.................... { 
....................    char *sc1; 
....................    char *sc2; 
....................    sc1=s1; 
....................    sc2=s2; 
....................    if(sc2<sc1 && sc1 <sc2 +n) 
....................       for(sc1+=n,sc2+=n;0<n;--n) 
....................          *--sc1=*--sc2; 
....................    else 
....................       for(;0<n;--n) 
....................          *sc1++=*sc2++; 
....................   return s1; 
....................   } 
....................  
.................... /* Standard template: char *strcpy(char *s1, const char *s2) 
....................    copies the string s2 including the null character to s1. 
....................    This is a compiler built in to handle the different address 
....................    spaces */ 
....................  
.................... #define strcopy strcpy 
....................  
.................... /* standard template: 
....................    char *strncpy(char *s1, const char *s2, size_t n). 
....................    Copies max of n characters (not following ending '\0') 
....................    from s2 in s1; if s2 has less than n characters, appends 0 */ 
....................  
.................... char *strncpy(char *s1, char *s2, size_t n) 
.................... { 
....................   char *s; 
....................  
....................   for (s = s1; n > 0 && *s2 != '\0'; n--) 
....................      *s++ = *s2++; 
....................   for (; n > 0; n--) 
....................      *s++ = '\0'; 
....................  
....................   return(s1); 
.................... } 
.................... /***********************************************************/ 
....................  
.................... /*concatenation functions*/ 
.................... /* standard template: char *strcat(char *s1, const char *s2) 
.................... appends s2 to s1*/ 
....................  
.................... char *strcat(char *s1, char *s2) 
.................... { 
....................    char *s; 
....................  
....................    for (s = s1; *s != '\0'; ++s); 
....................    while(*s2 != '\0') 
....................    { 
....................       *s = *s2; 
....................       ++s; 
....................       ++s2; 
....................    } 
....................  
....................    *s = '\0'; 
....................    return(s1); 
.................... } 
.................... /* standard template: char *strncat(char *s1, char *s2,size_t n) 
.................... appends not more than n characters from s2 to s1*/ 
....................  
.................... char *strncat(char *s1, char *s2, size_t n) 
.................... { 
....................    char *s; 
....................  
....................    for (s = s1; *s != '\0'; ++s); 
....................    while(*s2 != '\0' && 0<n) 
....................    { 
....................       *s = *s2; 
....................       ++s; 
....................       ++s2; 
....................       --n; 
....................    } 
....................  
....................    *s = '\0'; 
....................    return(s1); 
.................... } 
....................  
.................... /***********************************************************/ 
....................  
....................  
.................... /*comparison functions*/ 
.................... /* standard template: signed int memcmp(void *s1, void *s2). 
....................    Compares s1 & s2; returns -1 if s1<s2, 0 if s1=s2, 1 if s1>s2 */ 
....................  
.................... signed int8 memcmp(void * s1,char *s2,size_t n) 
.................... { 
.................... char *su1, *su2; 
.................... for(su1=s1, su2=s2; 0<n; ++su1, ++su2, --n) 
.................... { 
....................    if(*su1!=*su2) 
....................       return ((*su1<*su2)?-1:+1); 
.................... } 
.................... return 0; 
.................... } 
....................  
.................... /* standard template: int strcmp(const char *s1, const char *s2). 
....................    Compares s1 & s2; returns -1 if s1<s2, 0 if s1=s2, 1 if s1>s2 */ 
....................  
.................... signed int8 strcmp(char *s1, char *s2) 
.................... { 
....................    for (; *s1 == *s2; s1++, s2++) 
....................       if (*s1 == '\0') 
....................          return(0); 
....................    return((*s1 < *s2) ? -1: 1); 
.................... } 
.................... /* standard template: int strcoll(const char *s1, const char *s2). 
....................    Compares s1 & s2; returns -1 if s1<s2, 0 if s1=s2, 1 if s1>s2 */ 
....................  
.................... signed int8 strcoll(char *s1, char *s2) 
.................... { 
....................    for (; *s1 == *s2; s1++, s2++) 
....................       if (*s1 == '\0') 
....................          return(0); 
....................    return((*s1 < *s2) ? -1: 1); 
.................... } 
....................  
.................... /* standard template: 
....................    int strncmp(const char *s1, const char *s2, size_t n). 
....................    Compares max of n characters (not following 0) from s1 to s2; 
....................    returns same as strcmp */ 
....................  
.................... signed int8 strncmp(char *s1, char *s2, size_t n) 
.................... { 
....................    for (; n > 0; s1++, s2++, n--) 
....................       if (*s1 != *s2) 
....................          return((*s1 <*s2) ? -1: 1); 
....................       else if (*s1 == '\0') 
....................          return(0); 
....................    return(0); 
.................... } 
.................... /* standard template: 
....................    int strxfrm(const char *s1, const char *s2, size_t n). 
....................    transforms maximum of n characters from s2 and places them into s1*/ 
.................... size_t strxfrm(char *s1, char *s2, size_t n) 
.................... { 
....................   char *s; 
....................   unsigned int8 n1; 
....................   n1=n; 
....................   for (s = s1; n > 0 && *s2 != '\0'; n--) 
....................      *s++ = *s2++; 
....................   for (; n > 0; n--) 
....................      *s++ = '\0'; 
....................  
....................   return(n1); 
.................... } 
....................  
....................  
....................  
....................  
....................  
.................... /***********************************************************/ 
.................... /*Search functions*/ 
.................... /* standard template: void *memchr(const char *s, int c). 
....................    Finds first occurrence of c in n characters of s */ 
....................  
.................... char *memchr(void *s,unsigned int8 c,size_t n) 
.................... { 
....................    char uc; 
....................    char *su; 
....................    uc=c; 
....................    for(su=s;0<n;++su,--n) 
....................       if(*su==uc) 
....................       return su; 
....................    return NULL; 
.................... } 
....................  
.................... /* standard template: char *strchr(const char *s, int c). 
....................    Finds first occurrence of c in s */ 
....................  
.................... char *strchr(char *s, unsigned int8 c) 
.................... { 
....................    for (; *s != c; s++) 
....................       if (*s == '\0') 
....................          return(0); 
....................    return(s); 
.................... } 
.................... /* standard template: 
....................    size_t strcspn(const char *s1, const char *s2). 
....................    Computes length of max initial segment of s1 that 
....................    consists entirely of characters NOT from s2*/ 
....................  
.................... unsigned int8  strcspn(char *s1, char *s2) 
.................... { 
....................    char *sc1, *sc2; 
....................  
....................    for (sc1 = s1; *sc1 != 0; sc1++) 
....................       for (sc2 = s2; *sc2 != 0; sc2++) 
....................          if (*sc1 == *sc2) 
....................             return(sc1 - s1); 
....................    return(sc1 - s1); 
.................... } 
.................... /* standard template: 
....................    char *strpbrk(const char *s1, const char *s2). 
....................    Locates first occurence of any character from s2 in s1; 
....................    returns s1 if s2 is empty string */ 
....................  
.................... char *strpbrk(char *s1, char *s2) 
.................... { 
....................    char *sc1, *sc2; 
....................  
....................    for (sc1 = s1; *sc1 != 0; sc1++) 
....................       for (sc2 = s2; *sc2 != 0; sc2++) 
....................          if (*sc1 == *sc2) 
....................             return(sc1); 
....................    return(0); 
.................... } 
....................  
....................  
.................... /* standard template: char *strrchr(const char *s, int c). 
....................    Finds last occurrence of c in s */ 
....................  
.................... char *strrchr(char *s, unsigned int8 c) 
.................... { 
....................    char *p; 
....................  
....................    for (p = 0; ; s++) 
....................    { 
....................       if (*s == c) 
....................          p = s; 
....................       if (*s == '\0') 
....................          return(p); 
....................    } 
.................... } 
.................... /* computes length of max initial segment of s1 consisting 
....................    entirely of characters from s2 */ 
....................  
.................... unsigned int8  strspn(char *s1, char *s2) 
.................... { 
....................    char *sc1, *sc2; 
....................  
....................    for (sc1 = s1; *sc1 != 0; sc1++) 
....................       for (sc2 = s2; ; sc2++) 
....................     if (*sc2 == '\0') 
....................        return(sc1 - s1); 
....................          else if (*sc1 == *sc2) 
....................             break; 
....................    return(sc1 - s1); 
.................... } 
.................... /* standard template: 
....................    char *strstr(const char *s1, const char *s2); 
....................    Locates first occurence of character sequence s2 in s1; 
....................    returns 0 if s2 is empty string 
....................  
....................    Uncomment #define FASTER_BUT_MORE_ROM at the top of the 
....................    file to use the faster algorithm */ 
.................... char *strstr(char *s1, char *s2) 
.................... { 
....................    char *s, *t; 
....................  
....................    #ifdef FASTER_BUT_MORE_ROM 
....................    if (*s2 == '\0') 
....................          return(s1); 
....................    #endif 
....................  
....................    while (*s1) 
....................    { 
....................       for(s = s1, t = s2; *t && (*s == *t); ++s, ++t); 
....................  
....................       if (*t == '\0') 
....................          return s1; 
....................       ++s1; 
....................       #ifdef FASTER_BUT_MORE_ROM 
....................          while(*s1 != '\0' && *s1 != *s2) 
....................             ++s1; 
....................       #endif 
....................    } 
....................    return 0; 
.................... } 
....................  
.................... /* standard template: char *strtok(char *s1, const char *s2). 
....................  
....................    Finds next token in s1 delimited by a character from separator 
....................    string s2 (which can be different from call to call).  First call 
....................    starts at beginning of s1 searching for first character NOT 
....................    contained in s2; returns 0 if none is found. 
....................    If one is found, it is the start of first token (return value). 
....................    Function then searches from there for a character contained in s2. 
....................    If none is found, current token extends to end of s1, and subsequent 
....................    searches for a token will return 0.  If one is found, it is 
....................    overwritten by '\0', which terminates current token.  Function saves 
....................    pointer to following character from which next search will start. 
....................    Each subsequent call, with 0 as first argument, starts searching 
....................    from saved pointer */ 
....................  
.................... char *strtok(char *s1, char *s2) 
.................... { 
....................    char *beg, *end; 
....................    static char *save; 
....................  
....................    beg = (s1)? s1: save; 
....................    beg += strspn(beg, s2); 
....................    if (*beg == '\0') 
....................    { 
....................       *save = ' '; 
....................       return(0); 
....................    } 
....................    end = strpbrk(beg, s2); 
....................    if (*end != '\0') 
....................    { 
....................       *end = '\0'; 
....................       end++; 
....................    } 
....................    save = end; 
....................    return(beg); 
.................... } 
....................  
.................... /*****************************************************************/ 
.................... /*Miscellaneous functions*/ 
.................... /* standard template 
.................... maps error number in errnum to an error message string 
.................... Returns: Pointer to string 
.................... */ 
.................... #ifdef _ERRNO 
.................... char * strerror(unsigned int8 errnum) 
.................... { 
.................... char s[15]; 
.................... switch( errnum) 
.................... { 
.................... case 0: 
....................    strcpy(s,"no errors"); 
....................    return s; 
.................... case EDOM : 
....................    strcpy(s,"domain error"); 
....................    return s; 
.................... case ERANGE: 
....................    strcpy(s,"range error"); 
....................    return s; 
.................... } 
.................... } 
.................... #ENDIF 
.................... /* standard template: size_t strlen(const char *s). 
....................    Computes length of s1 (preceding terminating 0) */ 
....................  
.................... unsigned int8 strlen(char *s) 
.................... { 
....................    char *sc; 
....................  
....................    for (sc = s; *sc != 0; sc++); 
....................    return(sc - s); 
.................... } 
....................  
.................... /* standard template: size_t stricmp(const char *s1, const char *s2). 
....................    Compares s1 to s2 ignoring case (upper vs. lower) */ 
....................  
.................... signed int8 stricmp(char *s1, char *s2) 
.................... { 
....................  for(; *s1==*s2||(isalpha(*s1)&&isalpha(*s2)&&(*s1==*s2+32||*s2==*s1+32)); 
....................     s1++, s2++) 
....................     if (*s1 == '\0') 
....................        return(0); 
....................  return((*s1 < *s2) ? -1: 1); 
.................... } 
....................  
....................  
.................... /* standard template: char *strlwr(char *s). 
....................    Replaces uppercase letters by lowercase; 
....................    returns pointer to new string s */ 
....................  
.................... char *strlwr(char *s) 
.................... { 
....................    char *p; 
....................  
....................    for (p = s; *p != '\0'; p++) 
....................       if (*p >= 'A' && *p <='Z') 
....................          *p += 'a' - 'A'; 
....................    return(s); 
.................... } 
....................  
....................  
.................... /************************************************************/ 
....................  
....................  
.................... #endif 
....................  
.................... #include <stdlib.h> 
.................... /////////////////////////////////////////////////////////////////////////// 
.................... ////        (C) Copyright 1996,2007 Custom Computer Services           //// 
.................... //// This source code may only be used by licensed users of the CCS C  //// 
.................... //// compiler.  This source code may only be distributed to other      //// 
.................... //// licensed users of the CCS C compiler.  No other use, reproduction //// 
.................... //// or distribution is permitted without written permission.          //// 
.................... //// Derivative programs created using this software in object code    //// 
.................... //// form are not restricted in any way.                               //// 
.................... /////////////////////////////////////////////////////////////////////////// 
....................  
.................... #ifndef _STDLIB 
.................... #define _STDLIB 
....................  
.................... //--------------------------------------------------------------------------- 
.................... // Definitions and types 
.................... //--------------------------------------------------------------------------- 
....................  
.................... #ifndef RAND_MAX 
.................... #define RAND_MAX  32767    // The value of which is the maximum value 
....................                            // ... returned by the rand function 
.................... #endif 
....................  
....................  
.................... #IF (sizeof(int16*)>1) 
.................... #DEFINE LONG_POINTERS 1 
.................... #ELSE  
.................... #DEFINE LONG_POINTERS 0 
.................... #ENDIF 
....................  
.................... typedef struct { 
....................    signed int quot; 
....................    signed int rem; 
.................... } div_t; 
....................  
.................... typedef struct { 
....................    signed long quot; 
....................    signed long rem; 
.................... } ldiv_t; 
....................  
.................... #include <stddef.h> 
.................... /////////////////////////////////////////////////////////////////////////// 
.................... ////        (C) Copyright 1996,2003 Custom Computer Services           //// 
.................... //// This source code may only be used by licensed users of the CCS C  //// 
.................... //// compiler.  This source code may only be distributed to other      //// 
.................... //// licensed users of the CCS C compiler.  No other use, reproduction //// 
.................... //// or distribution is permitted without written permission.          //// 
.................... //// Derivative programs created using this software in object code    //// 
.................... //// form are not restricted in any way.                               //// 
.................... /////////////////////////////////////////////////////////////////////////// 
....................  
.................... #ifndef _STDDEF 
....................  
.................... #define _STDDEF 
....................  
.................... #if sizeof(unsigned int8 *)==1 
.................... #define ptrdiff_t unsigned int8 
.................... #else 
.................... #define ptrdiff_t unsigned int16 
.................... #endif 
....................  
.................... #define size_t unsigned int8 
.................... #define wchar_t char 
.................... #define NULL 0 
....................  
.................... #define offsetof(s,f) (offsetofbit(s,f)/8) 
....................  
.................... #endif 
....................  
....................  
.................... //--------------------------------------------------------------------------- 
.................... // String conversion functions 
.................... //--------------------------------------------------------------------------- 
....................  
.................... /* Standard template: signed int  atoi(char * s) 
....................  * converts the initial portion of the string s to a signed int 
....................  * returns the converted value if any, 0 otherwise 
....................  */ 
.................... signed int atoi(char *s); 
....................  
.................... /* Syntax: signed int32  atoi32(char * s) 
....................    converts the initial portion of the string s to a signed int32 
....................    returns the converted value if any, 0 otherwise*/ 
.................... #if (sizeof(long)==4) 
....................  #define atoi32(s) atol(s) 
.................... #else  
....................  signed int32 atoi32(char *s); 
.................... #endif 
....................  
.................... #if defined(__PCD__) 
.................... // The following functions only work on the 24 bit compiler 
.................... // for the 30F, 33F, 24F and 24H parts 
.................... /* Syntax: signed int48  atoi48(char * s) 
....................    converts the initial portion of the string s to a signed int48 
....................    returns the converted value if any, 0 otherwise*/ 
....................     
.................... signed int48 atoi48(char *s); 
....................  
.................... /* Syntax: signed int64  atoi64(char * s) 
....................    converts the initial portion of the string s to a signed int64 
....................    returns the converted value if any, 0 otherwise*/ 
.................... signed int64 atoi64(char *s); 
.................... #endif 
....................  
.................... /* Syntax: char *  itoa(signed int32 num, int8 base, char * s) 
....................    converts the signed int32 to a string and 
....................    returns the converted value if any, 0 otherwise*/ 
.................... char * itoa(signed int32 num, unsigned int base, char * s); 
....................  
.................... /* Standard template: signed int16  atol(char * s) 
....................  * converts the initial portion of the string s to a signed int16 
....................  * returns the converted value if any, 0 otherwise 
....................  */ 
.................... signed long atol(char *s); 
....................  
.................... /* Standard template: int16 strtoul(char * s,char *endptr,signed int base) 
....................  * converts the initial portion of the string s, represented as an 
....................  * integral value of radix base  to a signed long. 
....................  * Returns the converted value if any, 0 otherwise 
....................  * the final string is returned in the endptr, if endptr is not null 
....................  */ 
.................... signed long strtol(char *s,char *endptr, signed int base); 
....................  
.................... /* Standard template: int16 strtoul(char * s,char *endptr,signed int base) 
....................  * converts the initial portion of the string s, represented as an 
....................  * integral value of radix base to a unsigned long. 
....................  * returns the converted value if any, 0 otherwise 
....................  * the final string is returned in the endptr, if endptr is not null 
....................  */ 
.................... unsigned long strtoul(char *s,char *endptr, signed int base); 
....................  
.................... /* Standart template: float strtof(char * s,char *endptr) 
....................                       float48 strtof48(char *s,char *endptr); 
....................                       float64 strtod(char *s,char *endptr); 
....................  * converts the initial portion of the string s to a float32, float48 or float64, 
....................  * returns the converted value if any, 0 otherwise 
....................  * the final string is returned in the endptr, if endptr is not null                    
.................... */ 
.................... float strtof(char *s,char *endptr); 
.................... #if defined(__PCD__) 
.................... float48 strtof48(char *s,char *endptr); 
.................... float64 strtod(char *s,char *endptr); 
.................... #else 
.................... //provided for compatibility 
.................... #define strtof48(s, e) strtof(s, e) 
.................... #define strtod(s, e) strtof(s, e) 
.................... #endif 
....................  
.................... /* Standard template: float32 atof(char * s) 
....................  * converts the initial portion of the string s to a float. 
....................  * returns the converted value if any, 0 otherwise 
....................  */ 
.................... #define atof(s)   strtof(s, 0) 
....................  
.................... #if defined(__PCD__) 
.................... // The following functions only work on the 24 bit compiler 
.................... // for the 30F, 33F, 24F and 24H parts 
....................  
.................... /* Standard template: float48 atof48(char * s) 
....................  * converts the initial portion of the string s to a float. 
....................  * returns the converted value if any, 0 otherwise 
....................  */ 
.................... #define atof48(s) strtof48(s, 0) 
....................  
.................... /* Standard template: float64 atof64(char * s) 
....................  * converts the initial portion of the string s to a float. 
....................  * returns the converted value if any, 0 otherwise 
....................  */ 
.................... #define atof64(s) strtod(s, 0) 
.................... #endif 
....................  
.................... /* Standard template: float32 atoe(char * s) 
....................  * converts the initial portion of the string s to a float. 
....................  * returns the converted value if any, 0 otherwise 
....................  * also handles E format numbers 
....................  */ 
.................... #if !defined(__PCD__) 
.................... float atoe(char * s); 
.................... #endif 
....................  
.................... #if defined(__PCD__) 
.................... float32 atoe(char * s); 
.................... #endif 
....................  
.................... //--------------------------------------------------------------------------- 
.................... // Pseudo-random sequence generation functions 
.................... //--------------------------------------------------------------------------- 
....................  
.................... /* The rand function computes a sequence of pseudo-random integers in 
....................  * the range 0 to RAND_MAX 
....................  * 
....................  * Parameters: 
....................  *       (none) 
....................  * 
....................  * Returns: 
....................  *       The pseudo-random integer 
....................  */ 
.................... unsigned int16 rand(void); 
....................  
.................... /* The srand function uses the argument as a seed for a new sequence of 
....................  * pseudo-random numbers to be returned by subsequent calls to rand. 
....................  * 
....................  * Parameters: 
....................  *       [in] seed: The seed value to start from. You might need to pass 
....................  * 
....................  * Returns: 
....................  *       (none) 
....................  * 
....................  * Remarks 
....................  *          The srand function sets the starting point for generating 
....................  *       a series of pseudorandom integers. To reinitialize the 
....................  *       generator, use 1 as the seed argument. Any other value for 
....................  *       seed sets the generator to a random starting point. rand 
....................  *       retrieves the pseudorandom numbers that are generated. 
....................  *       Calling rand before any call to srand generates the same 
....................  *       sequence as calling srand with seed passed as 1. 
....................  *          Usually, you need to pass a time here from outer source 
....................  *       so that the numbers will be different every time you run. 
....................  */ 
.................... void srand(unsigned int32 seed); 
....................  
.................... //--------------------------------------------------------------------------- 
.................... // Memory management functions 
.................... //--------------------------------------------------------------------------- 
....................  
.................... // Comming soon 
....................  
.................... //--------------------------------------------------------------------------- 
.................... // Communication with the environment 
.................... //--------------------------------------------------------------------------- 
....................  
.................... /* The function returns 0 always 
....................  */ 
.................... signed int8 system(char *string); 
....................  
.................... //--------------------------------------------------------------------------- 
.................... // Searching and sorting utilities 
.................... //--------------------------------------------------------------------------- 
....................  
.................... /* Performs a binary search of a sorted array.. 
....................  * 
....................  * Parameters: 
....................  *       [in] key: Object to search for 
....................  *       [in] base: Pointer to base of search data 
....................  *       [in] num: Number of elements 
....................  *       [in] width: Width of elements 
....................  *       [in] compare: Function that compares two elements 
....................  * 
....................  * Returns: 
....................  *       bsearch returns a pointer to an occurrence of key in the array pointed 
....................  *       to by base. If key is not found, the function returns NULL. If the 
....................  *       array is not in order or contains duplicate records with identical keys, 
....................  *       the result is unpredictable. 
....................  */ 
.................... //void *bsearch(const void *key, const void *base, size_t num, size_t width, 
.................... //              int (*compare)(const void *, const void *)); 
....................  
.................... /* Performs the shell-metzner sort (not the quick sort algorithm). The contents 
....................  * of the array are sorted into ascending order according to a comparison 
....................  * function pointed to by compar. 
....................  * 
....................  * Parameters: 
....................  *       [in] base: Pointer to base of search data 
....................  *       [in] num: Number of elements 
....................  *       [in] width: Width of elements 
....................  *       [in] compare: Function that compares two elements 
....................  * 
....................  * Returns: 
....................  *       (none) 
....................  */ 
.................... //void *qsort(const void *base, size_t num, size_t width, 
.................... //              int (*compare)(const void *, const void *)); 
....................  
.................... //--------------------------------------------------------------------------- 
.................... // Integer arithmetic functions 
.................... //--------------------------------------------------------------------------- 
....................  
.................... #define labs abs 
....................  
.................... div_t div(signed int numer, signed int denom); 
.................... ldiv_t ldiv(signed long numer, signed long denom); 
....................  
.................... //--------------------------------------------------------------------------- 
.................... // Multibyte character functions 
.................... //--------------------------------------------------------------------------- 
....................  
.................... // Not supported 
....................  
.................... //--------------------------------------------------------------------------- 
.................... // Multibyte string functions 
.................... //--------------------------------------------------------------------------- 
....................  
.................... // Not supported 
....................  
....................  
.................... //--------------------------------------------------------------------------- 
.................... // Internal implementation 
.................... //--------------------------------------------------------------------------- 
....................  
.................... #include <stddef.h> 
.................... /////////////////////////////////////////////////////////////////////////// 
.................... ////        (C) Copyright 1996,2003 Custom Computer Services           //// 
.................... //// This source code may only be used by licensed users of the CCS C  //// 
.................... //// compiler.  This source code may only be distributed to other      //// 
.................... //// licensed users of the CCS C compiler.  No other use, reproduction //// 
.................... //// or distribution is permitted without written permission.          //// 
.................... //// Derivative programs created using this software in object code    //// 
.................... //// form are not restricted in any way.                               //// 
.................... /////////////////////////////////////////////////////////////////////////// 
....................  
.................... #ifndef _STDDEF 
....................  
.................... #define _STDDEF 
....................  
.................... #if sizeof(unsigned int8 *)==1 
.................... #define ptrdiff_t unsigned int8 
.................... #else 
.................... #define ptrdiff_t unsigned int16 
.................... #endif 
....................  
.................... #define size_t unsigned int8 
.................... #define wchar_t char 
.................... #define NULL 0 
....................  
.................... #define offsetof(s,f) (offsetofbit(s,f)/8) 
....................  
.................... #endif 
....................  
.................... #include <string.h> 
.................... //////////////////////////////////////////////////////////////////////////// 
.................... ////        (C) Copyright 1996,2008 Custom Computer Services            //// 
.................... //// This source code may only be used by licensed users of the CCS C   //// 
.................... //// compiler.  This source code may only be distributed to other       //// 
.................... //// licensed users of the CCS C compiler.  No other use, reproduction  //// 
.................... //// or distribution is permitted without written permission.           //// 
.................... //// Derivative programs created using this software in object code     //// 
.................... //// form are not restricted in any way.                                //// 
.................... //////////////////////////////////////////////////////////////////////////// 
....................  
.................... #ifndef _STRING 
.................... #define _STRING 
.................... #include <stddef.h> 
.................... #include <ctype.h> 
....................  
....................  
....................  
.................... ////////////////////////////////////////////// 
.................... //// Uncomment the following define to    //// 
.................... //// allow some functions to use a        //// 
.................... //// quicker algorithm, but use more ROM  //// 
.................... ////                                      //// 
.................... //// #define FASTER_BUT_MORE_ROM          //// 
.................... ////////////////////////////////////////////// 
....................  
....................  
....................  
.................... /*Copying functions*/ 
.................... /* standard template: 
....................    void *memmove(void *s1, void *s2, size_t n). 
....................    Copies max of n characters safely (not following ending '\0') 
....................    from s2 in s1; if s2 has less than n characters, appends 0 */ 
....................  
.................... char *memmove(void *s1,char *s2,size_t n) 
.................... { 
....................    char *sc1; 
....................    char *sc2; 
....................    sc1=s1; 
....................    sc2=s2; 
....................    if(sc2<sc1 && sc1 <sc2 +n) 
....................       for(sc1+=n,sc2+=n;0<n;--n) 
....................          *--sc1=*--sc2; 
....................    else 
....................       for(;0<n;--n) 
....................          *sc1++=*sc2++; 
....................   return s1; 
....................   } 
....................  
.................... /* Standard template: char *strcpy(char *s1, const char *s2) 
....................    copies the string s2 including the null character to s1. 
....................    This is a compiler built in to handle the different address 
....................    spaces */ 
....................  
.................... #define strcopy strcpy 
....................  
.................... /* standard template: 
....................    char *strncpy(char *s1, const char *s2, size_t n). 
....................    Copies max of n characters (not following ending '\0') 
....................    from s2 in s1; if s2 has less than n characters, appends 0 */ 
....................  
.................... char *strncpy(char *s1, char *s2, size_t n) 
.................... { 
....................   char *s; 
....................  
....................   for (s = s1; n > 0 && *s2 != '\0'; n--) 
....................      *s++ = *s2++; 
....................   for (; n > 0; n--) 
....................      *s++ = '\0'; 
....................  
....................   return(s1); 
.................... } 
.................... /***********************************************************/ 
....................  
.................... /*concatenation functions*/ 
.................... /* standard template: char *strcat(char *s1, const char *s2) 
.................... appends s2 to s1*/ 
....................  
.................... char *strcat(char *s1, char *s2) 
.................... { 
....................    char *s; 
....................  
....................    for (s = s1; *s != '\0'; ++s); 
....................    while(*s2 != '\0') 
....................    { 
....................       *s = *s2; 
....................       ++s; 
....................       ++s2; 
....................    } 
....................  
....................    *s = '\0'; 
....................    return(s1); 
.................... } 
.................... /* standard template: char *strncat(char *s1, char *s2,size_t n) 
.................... appends not more than n characters from s2 to s1*/ 
....................  
.................... char *strncat(char *s1, char *s2, size_t n) 
.................... { 
....................    char *s; 
....................  
....................    for (s = s1; *s != '\0'; ++s); 
....................    while(*s2 != '\0' && 0<n) 
....................    { 
....................       *s = *s2; 
....................       ++s; 
....................       ++s2; 
....................       --n; 
....................    } 
....................  
....................    *s = '\0'; 
....................    return(s1); 
.................... } 
....................  
.................... /***********************************************************/ 
....................  
....................  
.................... /*comparison functions*/ 
.................... /* standard template: signed int memcmp(void *s1, void *s2). 
....................    Compares s1 & s2; returns -1 if s1<s2, 0 if s1=s2, 1 if s1>s2 */ 
....................  
.................... signed int8 memcmp(void * s1,char *s2,size_t n) 
.................... { 
.................... char *su1, *su2; 
.................... for(su1=s1, su2=s2; 0<n; ++su1, ++su2, --n) 
.................... { 
....................    if(*su1!=*su2) 
....................       return ((*su1<*su2)?-1:+1); 
.................... } 
.................... return 0; 
.................... } 
....................  
.................... /* standard template: int strcmp(const char *s1, const char *s2). 
....................    Compares s1 & s2; returns -1 if s1<s2, 0 if s1=s2, 1 if s1>s2 */ 
....................  
.................... signed int8 strcmp(char *s1, char *s2) 
.................... { 
....................    for (; *s1 == *s2; s1++, s2++) 
....................       if (*s1 == '\0') 
....................          return(0); 
....................    return((*s1 < *s2) ? -1: 1); 
.................... } 
.................... /* standard template: int strcoll(const char *s1, const char *s2). 
....................    Compares s1 & s2; returns -1 if s1<s2, 0 if s1=s2, 1 if s1>s2 */ 
....................  
.................... signed int8 strcoll(char *s1, char *s2) 
.................... { 
....................    for (; *s1 == *s2; s1++, s2++) 
....................       if (*s1 == '\0') 
....................          return(0); 
....................    return((*s1 < *s2) ? -1: 1); 
.................... } 
....................  
.................... /* standard template: 
....................    int strncmp(const char *s1, const char *s2, size_t n). 
....................    Compares max of n characters (not following 0) from s1 to s2; 
....................    returns same as strcmp */ 
....................  
.................... signed int8 strncmp(char *s1, char *s2, size_t n) 
.................... { 
....................    for (; n > 0; s1++, s2++, n--) 
....................       if (*s1 != *s2) 
....................          return((*s1 <*s2) ? -1: 1); 
....................       else if (*s1 == '\0') 
....................          return(0); 
....................    return(0); 
.................... } 
.................... /* standard template: 
....................    int strxfrm(const char *s1, const char *s2, size_t n). 
....................    transforms maximum of n characters from s2 and places them into s1*/ 
.................... size_t strxfrm(char *s1, char *s2, size_t n) 
.................... { 
....................   char *s; 
....................   unsigned int8 n1; 
....................   n1=n; 
....................   for (s = s1; n > 0 && *s2 != '\0'; n--) 
....................      *s++ = *s2++; 
....................   for (; n > 0; n--) 
....................      *s++ = '\0'; 
....................  
....................   return(n1); 
.................... } 
....................  
....................  
....................  
....................  
....................  
.................... /***********************************************************/ 
.................... /*Search functions*/ 
.................... /* standard template: void *memchr(const char *s, int c). 
....................    Finds first occurrence of c in n characters of s */ 
....................  
.................... char *memchr(void *s,unsigned int8 c,size_t n) 
.................... { 
....................    char uc; 
....................    char *su; 
....................    uc=c; 
....................    for(su=s;0<n;++su,--n) 
....................       if(*su==uc) 
....................       return su; 
....................    return NULL; 
.................... } 
....................  
.................... /* standard template: char *strchr(const char *s, int c). 
....................    Finds first occurrence of c in s */ 
....................  
.................... char *strchr(char *s, unsigned int8 c) 
.................... { 
....................    for (; *s != c; s++) 
....................       if (*s == '\0') 
....................          return(0); 
....................    return(s); 
.................... } 
.................... /* standard template: 
....................    size_t strcspn(const char *s1, const char *s2). 
....................    Computes length of max initial segment of s1 that 
....................    consists entirely of characters NOT from s2*/ 
....................  
.................... unsigned int8  strcspn(char *s1, char *s2) 
.................... { 
....................    char *sc1, *sc2; 
....................  
....................    for (sc1 = s1; *sc1 != 0; sc1++) 
....................       for (sc2 = s2; *sc2 != 0; sc2++) 
....................          if (*sc1 == *sc2) 
....................             return(sc1 - s1); 
....................    return(sc1 - s1); 
.................... } 
.................... /* standard template: 
....................    char *strpbrk(const char *s1, const char *s2). 
....................    Locates first occurence of any character from s2 in s1; 
....................    returns s1 if s2 is empty string */ 
....................  
.................... char *strpbrk(char *s1, char *s2) 
.................... { 
....................    char *sc1, *sc2; 
....................  
....................    for (sc1 = s1; *sc1 != 0; sc1++) 
....................       for (sc2 = s2; *sc2 != 0; sc2++) 
....................          if (*sc1 == *sc2) 
....................             return(sc1); 
....................    return(0); 
.................... } 
....................  
....................  
.................... /* standard template: char *strrchr(const char *s, int c). 
....................    Finds last occurrence of c in s */ 
....................  
.................... char *strrchr(char *s, unsigned int8 c) 
.................... { 
....................    char *p; 
....................  
....................    for (p = 0; ; s++) 
....................    { 
....................       if (*s == c) 
....................          p = s; 
....................       if (*s == '\0') 
....................          return(p); 
....................    } 
.................... } 
.................... /* computes length of max initial segment of s1 consisting 
....................    entirely of characters from s2 */ 
....................  
.................... unsigned int8  strspn(char *s1, char *s2) 
.................... { 
....................    char *sc1, *sc2; 
....................  
....................    for (sc1 = s1; *sc1 != 0; sc1++) 
....................       for (sc2 = s2; ; sc2++) 
....................     if (*sc2 == '\0') 
....................        return(sc1 - s1); 
....................          else if (*sc1 == *sc2) 
....................             break; 
....................    return(sc1 - s1); 
.................... } 
.................... /* standard template: 
....................    char *strstr(const char *s1, const char *s2); 
....................    Locates first occurence of character sequence s2 in s1; 
....................    returns 0 if s2 is empty string 
....................  
....................    Uncomment #define FASTER_BUT_MORE_ROM at the top of the 
....................    file to use the faster algorithm */ 
.................... char *strstr(char *s1, char *s2) 
.................... { 
....................    char *s, *t; 
....................  
....................    #ifdef FASTER_BUT_MORE_ROM 
....................    if (*s2 == '\0') 
....................          return(s1); 
....................    #endif 
....................  
....................    while (*s1) 
....................    { 
....................       for(s = s1, t = s2; *t && (*s == *t); ++s, ++t); 
....................  
....................       if (*t == '\0') 
....................          return s1; 
....................       ++s1; 
....................       #ifdef FASTER_BUT_MORE_ROM 
....................          while(*s1 != '\0' && *s1 != *s2) 
....................             ++s1; 
....................       #endif 
....................    } 
....................    return 0; 
.................... } 
....................  
.................... /* standard template: char *strtok(char *s1, const char *s2). 
....................  
....................    Finds next token in s1 delimited by a character from separator 
....................    string s2 (which can be different from call to call).  First call 
....................    starts at beginning of s1 searching for first character NOT 
....................    contained in s2; returns 0 if none is found. 
....................    If one is found, it is the start of first token (return value). 
....................    Function then searches from there for a character contained in s2. 
....................    If none is found, current token extends to end of s1, and subsequent 
....................    searches for a token will return 0.  If one is found, it is 
....................    overwritten by '\0', which terminates current token.  Function saves 
....................    pointer to following character from which next search will start. 
....................    Each subsequent call, with 0 as first argument, starts searching 
....................    from saved pointer */ 
....................  
.................... char *strtok(char *s1, char *s2) 
.................... { 
....................    char *beg, *end; 
....................    static char *save; 
....................  
....................    beg = (s1)? s1: save; 
....................    beg += strspn(beg, s2); 
....................    if (*beg == '\0') 
....................    { 
....................       *save = ' '; 
....................       return(0); 
....................    } 
....................    end = strpbrk(beg, s2); 
....................    if (*end != '\0') 
....................    { 
....................       *end = '\0'; 
....................       end++; 
....................    } 
....................    save = end; 
....................    return(beg); 
.................... } 
....................  
.................... /*****************************************************************/ 
.................... /*Miscellaneous functions*/ 
.................... /* standard template 
.................... maps error number in errnum to an error message string 
.................... Returns: Pointer to string 
.................... */ 
.................... #ifdef _ERRNO 
.................... char * strerror(unsigned int8 errnum) 
.................... { 
.................... char s[15]; 
.................... switch( errnum) 
.................... { 
.................... case 0: 
....................    strcpy(s,"no errors"); 
....................    return s; 
.................... case EDOM : 
....................    strcpy(s,"domain error"); 
....................    return s; 
.................... case ERANGE: 
....................    strcpy(s,"range error"); 
....................    return s; 
.................... } 
.................... } 
.................... #ENDIF 
.................... /* standard template: size_t strlen(const char *s). 
....................    Computes length of s1 (preceding terminating 0) */ 
....................  
.................... unsigned int8 strlen(char *s) 
.................... { 
....................    char *sc; 
....................  
....................    for (sc = s; *sc != 0; sc++); 
....................    return(sc - s); 
.................... } 
....................  
.................... /* standard template: size_t stricmp(const char *s1, const char *s2). 
....................    Compares s1 to s2 ignoring case (upper vs. lower) */ 
....................  
.................... signed int8 stricmp(char *s1, char *s2) 
.................... { 
....................  for(; *s1==*s2||(isalpha(*s1)&&isalpha(*s2)&&(*s1==*s2+32||*s2==*s1+32)); 
....................     s1++, s2++) 
....................     if (*s1 == '\0') 
....................        return(0); 
....................  return((*s1 < *s2) ? -1: 1); 
.................... } 
....................  
....................  
.................... /* standard template: char *strlwr(char *s). 
....................    Replaces uppercase letters by lowercase; 
....................    returns pointer to new string s */ 
....................  
.................... char *strlwr(char *s) 
.................... { 
....................    char *p; 
....................  
....................    for (p = s; *p != '\0'; p++) 
....................       if (*p >= 'A' && *p <='Z') 
....................          *p += 'a' - 'A'; 
....................    return(s); 
.................... } 
....................  
....................  
.................... /************************************************************/ 
....................  
....................  
.................... #endif 
....................  
....................  
.................... div_t div(signed int numer, signed int denom) 
.................... { 
....................    div_t val; 
....................    val.quot = numer / denom; 
....................    val.rem = numer - (denom * val.quot); 
....................    return (val); 
.................... } 
....................  
.................... ldiv_t ldiv(signed long numer, signed long denom) 
.................... { 
....................    ldiv_t val; 
....................  
....................    val.quot = numer / denom; 
....................    val.rem = numer - (denom * val.quot); 
....................    return (val); 
.................... } 
....................  
.................... #if defined(__PCD__) 
.................... float32 atoe(char * s) 
.................... { 
....................    float32 pow10 = 1.0; 
....................    float32 result = 0.0; 
....................    unsigned int8 sign = 0; 
....................    unsigned int8 expsign = 0; 
....................    char c; 
....................    unsigned int8 ptr = 0; 
....................    unsigned int8 i; 
....................    float32 exp = 1.0; 
....................    unsigned int8 expcnt = 0; 
....................  
....................    c = s[ptr++]; 
....................  
....................    if ((c>='0' && c<='9') || c=='+' || c=='-' || c=='.' || c=='E' || c=='e') { 
....................       if(c == '-') { 
....................          sign = 1; 
....................          c = s[ptr++]; 
....................       } 
....................       if(c == '+') 
....................          c = s[ptr++]; 
....................  
....................       while((c >= '0' && c <= '9')) { 
....................          result = 10*result + c - '0'; 
....................          c = s[ptr++]; 
....................       } 
....................  
....................       if (c == '.') { 
....................          c = s[ptr++]; 
....................          while((c >= '0' && c <= '9')) { 
....................              pow10 = pow10*10; 
....................              result += (c - '0')/pow10; 
....................              c = s[ptr++]; 
....................          } 
....................       } 
....................  
....................       // Handling the exponent 
....................       if (c=='e' || c=='E') { 
....................          c = s[ptr++]; 
....................  
....................          if(c == '-') { 
....................             expsign = 1; 
....................             c = s[ptr++]; 
....................          } 
....................          if(c == '+') 
....................             c = s[ptr++]; 
....................  
....................          while((c >= '0' && c <= '9')) { 
....................             expcnt = 10*expcnt + c - '0'; 
....................             c = s[ptr++]; 
....................          } 
....................  
....................          for(i=0;i<expcnt;i++) 
....................             exp*=10; 
....................  
....................          if(expsign==1) 
....................             result/=exp; 
....................          else 
....................             result*=exp; 
....................       } 
....................    } 
....................  
....................    if (sign == 1) 
....................       result = -1*result; 
....................    return(result); 
.................... } 
.................... #endif 
....................  
.................... #if !defined(__PCD__) 
.................... float atoe(char * s) 
.................... { 
....................    float pow10 = 1.0; 
....................    float result = 0.0; 
....................    unsigned int8 sign = 0; 
....................    unsigned int8 expsign = 0; 
....................    char c; 
....................    unsigned int8 ptr = 0; 
....................    unsigned int8 i; 
....................    float exp = 1.0; 
....................    unsigned int8 expcnt = 0; 
....................  
....................    c = s[ptr++]; 
....................  
....................    if ((c>='0' && c<='9') || c=='+' || c=='-' || c=='.' || c=='E' || c=='e') { 
....................       if(c == '-') { 
....................          sign = 1; 
....................          c = s[ptr++]; 
....................       } 
....................       if(c == '+') 
....................          c = s[ptr++]; 
....................  
....................       while((c >= '0' && c <= '9')) { 
....................          result = 10*result + c - '0'; 
....................          c = s[ptr++]; 
....................       } 
....................  
....................       if (c == '.') { 
....................          c = s[ptr++]; 
....................          while((c >= '0' && c <= '9')) { 
....................              pow10 = pow10*10; 
....................              result += (c - '0')/pow10; 
....................              c = s[ptr++]; 
....................          } 
....................       } 
....................  
....................       // Handling the exponent 
....................       if (c=='e' || c=='E') { 
....................          c = s[ptr++]; 
....................  
....................          if(c == '-') { 
....................             expsign = 1; 
....................             c = s[ptr++]; 
....................          } 
....................          if(c == '+') 
....................             c = s[ptr++]; 
....................  
....................          while((c >= '0' && c <= '9')) { 
....................             expcnt = 10*expcnt + c - '0'; 
....................             c = s[ptr++]; 
....................          } 
....................  
....................          for(i=0;i<expcnt;i++) 
....................             exp*=10; 
....................  
....................          if(expsign==1) 
....................             result/=exp; 
....................          else 
....................             result*=exp; 
....................       } 
....................    } 
....................  
....................    if (sign == 1) 
....................       result = -1*result; 
....................    return(result); 
.................... } 
.................... #endif 
....................  
.................... signed int atoi(char *s) 
.................... { 
....................    signed int result; 
....................    unsigned int sign, base, index; 
....................    char c; 
....................  
....................    index = 0; 
....................    sign = 0; 
....................    base = 10; 
....................    result = 0; 
....................  
....................    if (!s) 
....................       return 0; 
....................    // Omit all preceeding alpha characters 
....................    c = s[index++]; 
....................  
....................    // increase index if either positive or negative sign is detected 
....................    if (c == '-') 
....................    { 
....................       sign = 1;         // Set the sign to negative 
....................       c = s[index++]; 
....................    } 
....................    else if (c == '+') 
....................    { 
....................       c = s[index++]; 
....................    } 
....................  
....................    if (c >= '0' && c <= '9') 
....................    { 
....................  
....................       // Check for hexa number 
....................       if (c == '0' && (s[index] == 'x' || s[index] == 'X')) 
....................       { 
....................          base = 16; 
....................          index++; 
....................          c = s[index++]; 
....................       } 
....................  
....................       // The number is a decimal number 
....................       if (base == 10) 
....................       { 
....................          while (c >= '0' && c <= '9') 
....................          { 
....................             result = 10*result + (c - '0'); 
....................             c = s[index++]; 
....................          } 
....................       } 
....................       else if (base == 16)    // The number is a hexa number 
....................       { 
....................          c = toupper(c); 
....................          while ( (c >= '0' && c <= '9') || (c >= 'A' && c<='F')) 
....................          { 
....................             if (c >= '0' && c <= '9') 
....................                result = (result << 4) + (c - '0'); 
....................             else 
....................                result = (result << 4) + (c - 'A' + 10); 
....................  
....................             c = s[index++]; 
....................             c = toupper(c); 
....................          } 
....................       } 
....................    } 
....................  
....................    if (sign == 1 && base == 10) 
....................        result = -result; 
....................  
....................    return(result); 
.................... } 
....................  
.................... signed long atol(char *s) 
.................... { 
....................    signed long result; 
....................    unsigned int sign, base, index; 
....................    char c; 
....................  
....................    index = 0; 
....................    sign = 0; 
....................    base = 10; 
....................    result = 0; 
....................  
....................    if (!s) 
....................       return 0; 
....................    c = s[index++]; 
....................  
....................    // increase index if either positive or negative sign is detected 
....................    if (c == '-') 
....................    { 
....................       sign = 1;         // Set the sign to negative 
....................       c = s[index++]; 
....................    } 
....................    else if (c == '+') 
....................    { 
....................       c = s[index++]; 
....................    } 
....................  
....................    if (c >= '0' && c <= '9') 
....................    { 
....................       if (c == '0' && (s[index] == 'x' || s[index] == 'X')) 
....................       { 
....................          base = 16; 
....................          index++; 
....................          c = s[index++]; 
....................       } 
....................  
....................       // The number is a decimal number 
....................       if (base == 10) 
....................       { 
....................          while (c >= '0' && c <= '9') 
....................          { 
....................             result = 10*result + (c - '0'); 
....................             c = s[index++]; 
....................          } 
....................       } 
....................       else if (base == 16)    // The number is a hexa number 
....................       { 
....................          c = toupper(c); 
....................          while ( (c >= '0' && c <= '9') || (c >= 'A' && c <='F')) 
....................          { 
....................             if (c >= '0' && c <= '9') 
....................                result = (result << 4) + (c - '0'); 
....................             else 
....................                result = (result << 4) + (c - 'A' + 10); 
....................  
....................             c = s[index++];c = toupper(c); 
....................          } 
....................       } 
....................    } 
....................  
....................    if (base == 10 && sign == 1) 
....................       result = -result; 
....................  
....................    return(result); 
.................... } 
....................  
.................... /* A fast routine to multiply by 10 
....................  */ 
.................... signed int32 mult_with10(int32 num) 
.................... { 
....................    return ( (num << 1) + (num << 3) ); 
.................... } 
....................  
.................... #if sizeof(long)==2 
.................... signed int32 atoi32(char *s) 
.................... { 
....................    signed int32 result; 
....................    int8 sign, base, index; 
....................    char c; 
....................  
....................    index = 0; 
....................    sign = 0; 
....................    base = 10; 
....................    result = 0; 
....................  
....................    if (!s) 
....................       return 0; 
....................    c = s[index++]; 
....................  
....................    // increase index if either positive or negative sign is detected 
....................    if (c == '-') 
....................    { 
....................       sign = 1;         // Set the sign to negative 
....................       c = s[index++]; 
....................    } 
....................    else if (c == '+') 
....................    { 
....................       c = s[index++]; 
....................    } 
....................  
....................    if (c >= '0' && c <= '9') 
....................    { 
....................       if (c == '0' && (s[index] == 'x' || s[index] == 'X')) 
....................       { 
....................          base = 16; 
....................          index++; 
....................          c = s[index++]; 
....................       } 
....................  
....................       // The number is a decimal number 
....................       if (base == 10) 
....................       { 
....................          while (c >= '0' && c <= '9') { 
....................             result = (result << 1) + (result << 3);  // result *= 10; 
....................             result += (c - '0'); 
....................             c = s[index++]; 
....................          } 
....................       } 
....................       else if (base == 16)    // The number is a hexa number 
....................       { 
....................          c = toupper(c); 
....................          while ((c >= '0' && c <= '9') || (c >= 'A' && c <='F')) 
....................          { 
....................             if (c >= '0' && c <= '9') 
....................                result = (result << 4) + (c - '0'); 
....................             else 
....................                result = (result << 4) + (c - 'A' + 10); 
....................  
....................             c = s[index++];c = toupper(c); 
....................          } 
....................       } 
....................    } 
....................  
....................    if (base == 10 && sign == 1) 
....................       result = -result; 
....................  
....................    return(result); 
.................... } 
.................... #endif 
....................  
.................... #if defined(__PCD__) 
....................  
.................... signed int48 atoi48(char *s) 
.................... { 
....................    signed int48 result; 
....................    int8 sign, base, index; 
....................    char c; 
....................  
....................    index = 0; 
....................    sign = 0; 
....................    base = 10; 
....................    result = 0; 
....................  
....................    if (!s) 
....................       return 0; 
....................    c = s[index++]; 
....................  
....................    // increase index if either positive or negative sign is detected 
....................    if (c == '-') 
....................    { 
....................       sign = 1;         // Set the sign to negative 
....................       c = s[index++]; 
....................    } 
....................    else if (c == '+') 
....................    { 
....................       c = s[index++]; 
....................    } 
....................  
....................    if (c >= '0' && c <= '9') 
....................    { 
....................       if (c == '0' && (s[index] == 'x' || s[index] == 'X')) 
....................       { 
....................          base = 16; 
....................          index++; 
....................          c = s[index++]; 
....................       } 
....................  
....................       // The number is a decimal number 
....................       if (base == 10) 
....................       { 
....................          while (c >= '0' && c <= '9') { 
....................             result = (result << 1) + (result << 3);  // result *= 10; 
....................             result += (c - '0'); 
....................             c = s[index++]; 
....................          } 
....................       } 
....................       else if (base == 16)    // The number is a hexa number 
....................       { 
....................          c = toupper(c); 
....................          while ((c >= '0' && c <= '9') || (c >= 'A' && c <='F')) 
....................          { 
....................             if (c >= '0' && c <= '9') 
....................                result = (result << 4) + (c - '0'); 
....................             else 
....................                result = (result << 4) + (c - 'A' + 10); 
....................  
....................             c = s[index++];c = toupper(c); 
....................          } 
....................       } 
....................    } 
....................  
....................    if (base == 10 && sign == 1) 
....................       result = -result; 
....................  
....................    return(result); 
.................... } 
....................  
.................... signed int64 atoi64(char *s) 
.................... { 
....................    signed int64 result; 
....................    int8 sign, base, index; 
....................    char c; 
....................  
....................    index = 0; 
....................    sign = 0; 
....................    base = 10; 
....................    result = 0; 
....................  
....................    if (!s) 
....................       return 0; 
....................    c = s[index++]; 
....................  
....................    // increase index if either positive or negative sign is detected 
....................    if (c == '-') 
....................    { 
....................       sign = 1;         // Set the sign to negative 
....................       c = s[index++]; 
....................    } 
....................    else if (c == '+') 
....................    { 
....................       c = s[index++]; 
....................    } 
....................  
....................    if (c >= '0' && c <= '9') 
....................    { 
....................       if (c == '0' && (s[index] == 'x' || s[index] == 'X')) 
....................       { 
....................          base = 16; 
....................          index++; 
....................          c = s[index++]; 
....................       } 
....................  
....................       // The number is a decimal number 
....................       if (base == 10) 
....................       { 
....................          while (c >= '0' && c <= '9') { 
....................             result = (result << 1) + (result << 3);  // result *= 10; 
....................             result += (c - '0'); 
....................             c = s[index++]; 
....................          } 
....................       } 
....................       else if (base == 16)    // The number is a hexa number 
....................       { 
....................          c = toupper(c); 
....................          while ((c >= '0' && c <= '9') || (c >= 'A' && c <='F')) 
....................          { 
....................             if (c >= '0' && c <= '9') 
....................                result = (result << 4) + (c - '0'); 
....................             else 
....................                result = (result << 4) + (c - 'A' + 10); 
....................  
....................             c = s[index++];c = toupper(c); 
....................          } 
....................       } 
....................    } 
....................  
....................    if (base == 10 && sign == 1) 
....................       result = -result; 
....................  
....................    return(result); 
.................... } 
.................... #endif 
....................  
.................... char * itoa(signed int32 num, unsigned int base, char * s) 
.................... { 
....................      unsigned int32 temp=1; 
....................      unsigned int8 i,sign=0,cnt=0; 
....................      char c; 
....................  
....................      if(num<0) { 
....................          sign=1;        // Check for negative number 
....................          num*=-1; 
....................      } 
....................  
....................      while(temp>0) { 
....................          temp=(num/base); 
....................          s[cnt]=(num%base)+'0';    // Conversion 
....................  
....................          if(s[cnt]>0x39) 
....................             s[cnt]+=0x7; 
....................  
....................          cnt++; 
....................          num=temp; 
....................      } 
....................  
....................      if(sign==1) { 
....................          s[cnt]=0x2D;      // Negative sign 
....................          cnt++; 
....................      } 
....................  
....................      for(i = 0;i<(int8)(cnt/2);i++) { 
....................  
....................          c=s[i]; 
....................          s[i]=s[cnt-i-1];        // Reverse the number 
....................          s[cnt-i-1]=c; 
....................      } 
....................      s[cnt]='\0';     // End the string 
....................      return s; 
.................... } 
....................  
.................... float strtof(char *s, char *endptr) 
.................... { 
....................    float pow10 = 1.0; 
....................    float result = 0.0; 
....................    int1 skip = 1, sign = 0, point = 0; 
....................    char c; 
....................    unsigned int8 ptr = 0; 
....................  
....................    if (!s) 
....................       return 0; 
....................  
....................    for(c=s[ptr++]; c!=0; c=s[ptr++]) 
....................    { 
....................       if (skip && !isspace(c)) 
....................       { 
....................          skip = 0; 
....................          if (c == '+') 
....................          { 
....................             sign = 0; 
....................             continue; 
....................          }             
....................          else if (c == '-') 
....................          { 
....................             sign = 1; 
....................             continue; 
....................          } 
....................       } 
....................       if (!skip && (c == '.') && !point) 
....................          point = 1; 
....................       else if (!skip && isdigit(c)) 
....................       { 
....................          c -= '0'; 
....................          if (point) 
....................          { 
....................             pow10 = pow10 * 10.0; 
....................             result += (float)c / pow10;    
....................          } 
....................          else 
....................          { 
....................             result = 10.0 * result + (float)c; 
....................          } 
....................       } 
....................       else if (!skip) 
....................          break; 
....................    } 
....................  
....................    if (sign) 
....................       result = -1*result; 
....................        
....................    if(endptr) 
....................    { 
....................       if (ptr) { 
....................          ptr--; 
....................        #IF LONG_POINTERS  
....................          *((long *)endptr)= s+ptr;  
....................        #ELSE 
....................          *((char *)endptr)=s+ptr; 
....................        #ENDIF 
....................       } 
....................       else 
....................       { 
....................       #IF LONG_POINTERS 
....................       *((long *)endptr)= s;  
....................       #ELSE 
....................       *((char *)endptr)=s; 
....................       #ENDIF 
....................       } 
....................    } 
....................  
....................    return(result); 
.................... } 
....................  
.................... #if defined(__PCD__) 
.................... float48 strtof48(char *s, char *endptr) 
.................... { 
....................    float48 pow10 = 1.0; 
....................    float48 result = 0.0; 
....................    int1 skip = 1, sign = 0, point = 0; 
....................    char c; 
....................    unsigned int8 ptr = 0; 
....................  
....................    if (!s) 
....................       return 0; 
....................  
....................    for(c=s[ptr++]; c!=0; c=s[ptr++]) 
....................    { 
....................       if (skip && !isspace(c)) 
....................       { 
....................          skip = 0; 
....................          if (c == '+') 
....................          { 
....................             sign = 0; 
....................             continue; 
....................          }             
....................          else if (c == '-') 
....................          { 
....................             sign = 1; 
....................             continue; 
....................          } 
....................       } 
....................       if (!skip && (c == '.') && !point) 
....................          point = 1; 
....................       else if (!skip && isdigit(c)) 
....................       { 
....................          c -= '0'; 
....................          if (point) 
....................          { 
....................             pow10 = pow10 * 10.0; 
....................             result += (float48)c / pow10;    
....................          } 
....................          else 
....................          { 
....................             result = 10.0 * result + (float48)c; 
....................          } 
....................       } 
....................       else if (!skip) 
....................          break; 
....................    } 
....................  
....................    if (sign) 
....................       result = -1*result; 
....................        
....................    if(endptr) 
....................    { 
....................       if (ptr) { 
....................          ptr--; 
....................        #IF LONG_POINTERS  
....................          *((long *)endptr)= s+ptr;  
....................        #ELSE 
....................          *((char *)endptr)=s+ptr; 
....................        #ENDIF 
....................       } 
....................       else 
....................       { 
....................       #IF LONG_POINTERS 
....................       *((long *)endptr)= s;  
....................       #ELSE 
....................       *((char *)endptr)=s; 
....................       #ENDIF 
....................       } 
....................    } 
....................  
....................    return(result); 
.................... } 
....................  
.................... float64 strtod(char *s, char *endptr) 
.................... { 
....................    float64 pow10 = 1.0; 
....................    float64 result = 0.0; 
....................    int1 skip = 1, sign = 0, point = 0; 
....................    char c; 
....................    unsigned int8 ptr = 0; 
....................  
....................    if (!s) 
....................       return 0; 
....................  
....................    for(c=s[ptr++]; c!=0; c=s[ptr++]) 
....................    { 
....................       if (skip && !isspace(c)) 
....................       { 
....................          skip = 0; 
....................          if (c == '+') 
....................          { 
....................             sign = 0; 
....................             continue; 
....................          }             
....................          else if (c == '-') 
....................          { 
....................             sign = 1; 
....................             continue; 
....................          } 
....................       } 
....................       if (!skip && (c == '.') && !point) 
....................          point = 1; 
....................       else if (!skip && isdigit(c)) 
....................       { 
....................          c -= '0'; 
....................          if (point) 
....................          { 
....................             pow10 = pow10 * 10.0; 
....................             result += (float64)c / pow10;    
....................          } 
....................          else 
....................          { 
....................             result = 10.0 * result + (float64)c; 
....................          } 
....................       } 
....................       else if (!skip) 
....................          break; 
....................    } 
....................  
....................    if (sign) 
....................       result = -1*result; 
....................        
....................    if(endptr) 
....................    { 
....................       if (ptr) { 
....................          ptr--; 
....................        #IF LONG_POINTERS  
....................          *((long *)endptr)= s+ptr;  
....................        #ELSE 
....................          *((char *)endptr)=s+ptr; 
....................        #ENDIF 
....................       } 
....................       else 
....................       { 
....................       #IF LONG_POINTERS 
....................       *((long *)endptr)= s;  
....................       #ELSE 
....................       *((char *)endptr)=s; 
....................       #ENDIF 
....................       } 
....................    } 
....................  
....................    return(result); 
.................... } 
.................... #endif 
....................  
.................... unsigned long strtoul(char *s, char *endptr, signed int base) 
.................... { 
....................    char *sc,*s1,*sd; 
....................    unsigned long x=0; 
....................    char sign; 
....................    char digits[]="0123456789abcdefghijklmnopqstuvwxyz"; 
....................    for(sc=s;isspace(*sc);++sc); 
....................    sign=*sc=='-'||*sc=='+'?*sc++:'+'; 
....................    if(sign=='-' || base <0 || base ==1|| base >36) // invalid base 
....................    goto StrtoulGO; 
....................  
....................    else if (base) 
....................    { 
....................       if(base==16 && *sc =='0'&&(sc[1]=='x' || sc[1]=='X')) 
....................          sc+=2; 
....................       if(base==8 && *sc =='0') 
....................          sc+=1; 
....................       if(base==2 && *sc =='0'&&sc[1]=='b') 
....................          sc+=2; 
....................  
....................    } 
....................    else if(*sc!='0') // base is 0, find base 
....................       base=10; 
....................    else if (sc[1]=='x' || sc[1]=='X') 
....................       base =16,sc+=2; 
....................    else if(sc[1]=='b') 
....................       base=2,sc+=2; 
....................    else 
....................       base=8; 
....................    for (s1=sc;*sc=='0';++sc);// skip leading zeroes 
....................    sd=memchr(digits,tolower(*sc),base); 
....................    for(; sd!=0; ) 
....................    { 
....................       x=x*base+(int16)(sd-digits); 
....................       ++sc; 
....................       sd=memchr(digits,tolower(*sc),base); 
....................    } 
....................    if(s1==sc) 
....................    { 
....................    StrtoulGO: 
....................       if (endptr) 
....................       { 
....................          #IF LONG_POINTERS 
....................          *((long *)endptr)= s;  
....................          #ELSE 
....................          *((char *)endptr)=s; 
....................          #ENDIF 
....................          } 
....................    return 0; 
....................    } 
....................    if (endptr) 
....................    { 
....................          #IF LONG_POINTERS 
....................          *((long *)endptr)= sc;  
....................          #ELSE 
....................          *((char *)endptr)=sc;  
....................          #ENDIF 
....................    } 
....................    return x; 
.................... } 
....................  
....................  
.................... signed long strtol(char *s,char *endptr, signed int base) 
.................... { 
....................    char *sc,*s1,*sd; 
....................    signed long x=0; 
....................    char sign; 
....................    char digits[]="0123456789abcdefghijklmnopqstuvwxyz"; 
....................    for(sc=s;isspace(*sc);++sc); 
....................    sign=*sc=='-'||*sc=='+'?*sc++:'+'; 
....................    if (base <0 || base ==1|| base >36) // invalid base 
....................    goto StrtolGO; 
....................    else if (base) 
....................    { 
....................       if(base==16 && *sc =='0'&&(sc[1]=='x' || sc[1]=='X')) 
....................          sc+=2; 
....................       if(base==8 && *sc =='0') 
....................          sc+=1; 
....................       if(base==2 && *sc =='0'&&sc[1]=='b') 
....................          sc+=2; 
....................  
....................    } 
....................    else if(*sc!='0') // base is 0, find base 
....................       base=10; 
....................    else if (sc[1]=='x' || sc[1]=='X') 
....................       base =16,sc+=2; 
....................    else if(sc[1]=='b') 
....................       base=2,sc+=2; 
....................    else 
....................       base=8; 
....................    for (s1=sc;*sc=='0';++sc);// skip leading zeroes 
....................  
....................    sd=memchr(digits,tolower(*sc),base); 
....................    for(;sd!=0;) 
....................    { 
....................       x=x*base+(int16)(sd-digits); 
....................       ++sc; 
....................       sd=memchr(digits,tolower(*sc),base); 
....................    } 
....................    if(s1==sc) 
....................    { 
....................    StrtolGO: 
....................       if (endptr) 
....................       { 
....................          #IF LONG_POINTERS 
....................          *((long *)endptr)= s;  
....................          #ELSE 
....................          *((char *)endptr)=s; 
....................          #ENDIF 
....................       } 
....................    return 0; 
....................    } 
....................    if(sign=='-') 
....................       x  =-x; 
....................    if (endptr) 
....................    { 
....................         #IF LONG_POINTERS 
....................          *((long *)endptr)= sc;  
....................         #ELSE 
....................         *((char *)endptr)=sc; 
....................         #ENDIF 
....................    } 
....................    return x; 
.................... } 
....................  
.................... signed int8 system(char *string) 
.................... { 
....................    return 0; 
.................... } 
....................  
.................... int8 mblen(char *s,size_t n) 
.................... { 
....................    return strlen(s); 
.................... } 
....................  
.................... int8 mbtowc(wchar_t *pwc,char *s,size_t n) 
.................... { 
....................    *pwc=*s; 
....................    return 1; 
.................... } 
....................  
.................... int8 wctomb(char *s,wchar_t wchar) 
.................... { 
....................    *s=wchar; 
....................    return 1; 
.................... } 
....................  
.................... size_t mbstowcs(wchar_t *pwcs,char *s,size_t n) 
.................... { 
....................    strncpy(pwcs,s,n); 
....................    return strlen(pwcs); 
.................... } 
....................  
.................... size_t wcstombs(char *s,wchar_t *pwcs,size_t n) 
.................... { 
....................    strncpy(s,pwcs,n); 
....................    return strlen(s); 
.................... } 
....................  
.................... //--------------------------------------------------------------------------- 
.................... // The random number implementation 
.................... //--------------------------------------------------------------------------- 
....................  
.................... unsigned int32 _Randseed; 
....................  
.................... unsigned int16 rand(void) 
.................... { 
....................    _Randseed = _Randseed * 1103515245 + 12345; 
....................    return ((unsigned int16)(_Randseed >> 16) % RAND_MAX); 
.................... } 
....................  
.................... void srand(unsigned int32 seed) 
.................... { 
....................    _Randseed = seed; 
.................... } 
....................  
.................... //--------------------------------------------------------------------------- 
.................... // Searching and sorting utilities implementation 
.................... //--------------------------------------------------------------------------- 
....................  
.................... #if !defined(__PCD__) 
.................... typedef signed int8 (*_Cmpfun)(char * p1,char * p2);  
.................... #else  
.................... typedef signed int16 (*_Cmpfun)(char * p1,char * p2);  
.................... #endif 
....................  
....................  
....................  
.................... void qsort(char * qdata, unsigned int qitems, unsigned int qsize, _Cmpfun cmp) { 
....................    unsigned int m,j,i,l; 
....................    int1 done; 
....................    unsigned int8 t[16]; 
....................  
....................    m = qitems/2; 
....................    while( m > 0 ) { 
....................      for(j=0; j<(qitems-m); ++j) { 
....................         i = j; 
....................         do 
....................         { 
....................            done=1; 
....................            l = i+m; 
....................            if( (*cmp)(qdata+i*qsize, qdata+l*qsize) > 0 ) { 
....................               memcpy(t, qdata+i*qsize, qsize); 
....................               memcpy(qdata+i*qsize, qdata+l*qsize, qsize); 
....................               memcpy(qdata+l*qsize, t, qsize); 
....................               if(m <= i) 
....................                 i -= m; 
....................                 done = 0; 
....................            } 
....................         } while(!done); 
....................      } 
....................      m = m/2; 
....................    } 
.................... } 
....................  
....................  
.................... char *bsearch(char *key, char *base, size_t num, size_t width,_Cmpfun cmp) 
.................... { 
....................    char *p, *q; 
....................    size_t n; 
....................    size_t pivot; 
....................    signed int val; 
....................  
....................    p = base; 
....................    n = num; 
....................  
....................    while (n > 0) 
....................    { 
....................       pivot = n >> 1; 
....................       q = p + width * pivot; 
....................  
....................       val = (*cmp)(key, q); 
....................  
....................       if (val < 0) 
....................          n = pivot; 
....................       else if (val == 0) 
....................          return ((char *)q); 
....................       else { 
....................          p = q + width; 
....................          n -= pivot + 1; 
....................       } 
....................    } 
....................  
....................    return NULL;      // There's no match 
.................... } 
....................  
....................  
.................... #endif 
....................  
.................... #include <DS1302.c> 
.................... ////////////////////////////////////////////////////////////////////////// 
.................... ////                               DS1302.C                           //// 
.................... ////                     Driver for Real Time Clock                   //// 
.................... ////                                                                  //// 
.................... ////  rtc_init()                                   Call after power up//// 
.................... ////                                                                  //// 
.................... ////  rtc_set_datetime(day,mth,year,dow,hour,min)  Set the date/time  //// 
.................... ////                                                                  //// 
.................... ////  rtc_get_date(day,mth,year,dow)               Get the date       //// 
.................... ////                                                                  //// 
.................... ////  rtc_get_time(hr,min,sec)                     Get the time       //// 
.................... ////                                                                  //// 
.................... ////  rtc_write_nvr(address,data)                  Write to NVR       //// 
.................... ////                                                                  //// 
.................... ////  data = rtc_read_nvr(address)                 Read from NVR      //// 
.................... ////                                                                  //// 
.................... ////  get_bcd(data)                              Convert data to BCD  //// 
.................... ////                                                                  //// 
.................... ////  rm_bcd(data)                               Convert data to int  //// 
.................... ////                                                                  //// 
.................... ////////////////////////////////////////////////////////////////////////// 
.................... ////        (C) Copyright 1996,2003 Custom Computer Services          //// 
.................... //// This source code may only be used by licensed users of the CCS C //// 
.................... //// compiler.  This source code may only be distributed to other     //// 
.................... //// licensed users of the CCS C compiler.  No other use, reproduction//// 
.................... //// or distribution is permitted without written permission.         //// 
.................... //// Derivative programs created using this software in object code   //// 
.................... //// form are not restricted in any way.                              //// 
.................... ////////////////////////////////////////////////////////////////////////// 
....................  
.................... //#ifndef RTC_SCLK 
....................  
.................... #define RTC_SCLK PIN_D1 
.................... #define RTC_IO   PIN_D2 
.................... #define RTC_RST  PIN_D3 
....................  
.................... //#endif 
....................  
.................... void write_ds1302_byte(BYTE cmd) { 
....................    BYTE i; 
....................  
....................    for(i=0;i<=7;++i) { 
*
0293A:  MOVLB  3
0293C:  CLRF   xF9
0293E:  MOVF   xF9,W
02940:  SUBLW  07
02942:  BNC   295E
....................       output_bit(RTC_IO, shift_right(&cmd,1,0) ); 
02944:  BCF    FD8.0
02946:  RRCF   xF8,F
02948:  BC    294E
0294A:  BCF    F8C.2
0294C:  BRA    2950
0294E:  BSF    F8C.2
02950:  BCF    F95.2
....................       output_high(RTC_SCLK); 
02952:  BCF    F95.1
02954:  BSF    F8C.1
....................       output_low(RTC_SCLK); 
02956:  BCF    F95.1
02958:  BCF    F8C.1
....................    } 
0295A:  INCF   xF9,F
0295C:  BRA    293E
.................... } 
0295E:  MOVLB  0
02960:  RETLW  00
....................  
.................... void write_ds1302(BYTE cmd, BYTE data) { 
....................  
....................    output_high(RTC_RST); 
02962:  BCF    F95.3
02964:  BSF    F8C.3
....................    write_ds1302_byte(cmd); 
02966:  MOVFF  3F6,3F8
0296A:  RCALL  293A
....................    write_ds1302_byte(data); 
0296C:  MOVFF  3F7,3F8
02970:  RCALL  293A
....................    output_low(RTC_RST); 
02972:  BCF    F95.3
02974:  BCF    F8C.3
.................... } 
02976:  RETLW  00
....................  
.................... BYTE read_ds1302(BYTE cmd) { 
....................    BYTE i,data; 
....................  
....................    output_high(RTC_RST); 
02978:  BCF    F95.3
0297A:  BSF    F8C.3
....................    write_ds1302_byte(cmd); 
0297C:  MOVFF  3F3,3F8
02980:  RCALL  293A
....................     
....................    input(RTC_IO); 
02982:  BSF    F95.2
....................    delay_us(10); 
02984:  MOVLW  10
02986:  MOVWF  00
02988:  DECFSZ 00,F
0298A:  BRA    2988
0298C:  NOP   
....................           
....................    for(i=0;i<=7;++i) { 
0298E:  MOVLB  3
02990:  CLRF   xF4
02992:  MOVF   xF4,W
02994:  SUBLW  07
02996:  BNC   29C2
....................       shift_right(&data,1,input(RTC_IO)); 
02998:  BSF    F95.2
0299A:  BTFSC  F83.2
0299C:  BRA    29A2
0299E:  BCF    FD8.0
029A0:  BRA    29A4
029A2:  BSF    FD8.0
029A4:  RRCF   xF5,F
....................       output_high(RTC_SCLK); 
029A6:  BCF    F95.1
029A8:  BSF    F8C.1
....................       delay_us(20); 
029AA:  MOVLW  21
029AC:  MOVWF  00
029AE:  DECFSZ 00,F
029B0:  BRA    29AE
....................       output_low(RTC_SCLK); 
029B2:  BCF    F95.1
029B4:  BCF    F8C.1
....................       delay_us(20); 
029B6:  MOVLW  21
029B8:  MOVWF  00
029BA:  DECFSZ 00,F
029BC:  BRA    29BA
....................    } 
029BE:  INCF   xF4,F
029C0:  BRA    2992
....................    output_low(RTC_RST); 
029C2:  BCF    F95.3
029C4:  BCF    F8C.3
....................  
....................    return(data); 
029C6:  MOVFF  3F5,01
.................... } 
029CA:  MOVLB  0
029CC:  RETLW  00
....................  
.................... void rtc_init() { 
....................    BYTE x; 
....................    output_low(RTC_RST); 
029CE:  BCF    F95.3
029D0:  BCF    F8C.3
....................    delay_us(20); 
029D2:  MOVLW  21
029D4:  MOVWF  00
029D6:  DECFSZ 00,F
029D8:  BRA    29D6
....................    output_low(RTC_SCLK); 
029DA:  BCF    F95.1
029DC:  BCF    F8C.1
....................    write_ds1302(0x8e,0); 
029DE:  MOVLW  8E
029E0:  MOVLB  3
029E2:  MOVWF  xF6
029E4:  CLRF   xF7
029E6:  MOVLB  0
029E8:  RCALL  2962
....................    write_ds1302(0x90,0xa4); 
029EA:  MOVLW  90
029EC:  MOVLB  3
029EE:  MOVWF  xF6
029F0:  MOVLW  A4
029F2:  MOVWF  xF7
029F4:  MOVLB  0
029F6:  RCALL  2962
....................    x=read_ds1302(0x81); 
029F8:  MOVLW  81
029FA:  MOVLB  3
029FC:  MOVWF  xF3
029FE:  MOVLB  0
02A00:  RCALL  2978
02A02:  MOVFF  01,3EF
....................    if((x & 0x80)!=0) 
02A06:  MOVLB  3
02A08:  MOVF   xEF,W
02A0A:  ANDLW  80
02A0C:  BZ    2A1A
....................      write_ds1302(0x80,0); 
02A0E:  MOVLW  80
02A10:  MOVWF  xF6
02A12:  CLRF   xF7
02A14:  MOVLB  0
02A16:  RCALL  2962
02A18:  MOVLB  3
.................... } 
02A1A:  MOVLB  0
02A1C:  GOTO   5B18 (RETURN)
....................  
.................... byte get_bcd(BYTE data) 
.................... { 
....................    byte nibh; 
....................    byte nibl; 
....................  
....................    nibh=data/10; 
*
04784:  MOVFF  3F5,3F9
04788:  MOVLW  0A
0478A:  MOVLB  3
0478C:  MOVWF  xFA
0478E:  MOVLB  0
04790:  RCALL  42A8
04792:  MOVFF  01,3F6
....................    nibl=data-(nibh*10); 
04796:  MOVLB  3
04798:  MOVF   xF6,W
0479A:  MULLW  0A
0479C:  MOVF   FF3,W
0479E:  SUBWF  xF5,W
047A0:  MOVWF  xF7
....................  
....................    return((nibh<<4)|nibl); 
047A2:  SWAPF  xF6,W
047A4:  MOVWF  00
047A6:  MOVLW  F0
047A8:  ANDWF  00,F
047AA:  MOVF   00,W
047AC:  IORWF  xF7,W
047AE:  MOVWF  01
.................... } 
047B0:  MOVLB  0
047B2:  RETLW  00
....................  
.................... byte rm_bcd(BYTE data) 
.................... { 
....................    byte i; 
....................  
....................    i=data; 
*
04148:  MOVFF  3F4,3F5
....................    data=(i>>4)*10; 
0414C:  MOVLB  3
0414E:  SWAPF  xF5,W
04150:  MOVWF  00
04152:  MOVLW  0F
04154:  ANDWF  00,F
04156:  MOVF   00,W
04158:  MULLW  0A
0415A:  MOVFF  FF3,3F4
....................    data=data+(i<<4>>4); 
0415E:  SWAPF  xF5,W
04160:  MOVWF  00
04162:  MOVLW  F0
04164:  ANDWF  00,F
04166:  MOVF   00,W
04168:  SWAPF  00,F
0416A:  MOVLW  0F
0416C:  ANDWF  00,F
0416E:  MOVF   00,W
04170:  ADDWF  xF4,F
....................  
....................    return data; 
04172:  MOVFF  3F4,01
.................... } 
04176:  MOVLB  0
04178:  RETLW  00
....................  
.................... void rtc_set_datetime(BYTE day, BYTE mth, BYTE year, BYTE dow, BYTE hr, BYTE min) { 
....................  
....................    write_ds1302(0x86,get_bcd(day)); 
*
047B4:  MOVFF  3EF,3F5
047B8:  RCALL  4784
047BA:  MOVFF  01,3F5
047BE:  MOVLW  86
047C0:  MOVLB  3
047C2:  MOVWF  xF6
047C4:  MOVFF  01,3F7
047C8:  MOVLB  0
047CA:  CALL   2962
....................    write_ds1302(0x88,get_bcd(mth)); 
047CE:  MOVFF  3F0,3F5
047D2:  RCALL  4784
047D4:  MOVFF  01,3F5
047D8:  MOVLW  88
047DA:  MOVLB  3
047DC:  MOVWF  xF6
047DE:  MOVFF  01,3F7
047E2:  MOVLB  0
047E4:  CALL   2962
....................    write_ds1302(0x8c,get_bcd(year)); 
047E8:  MOVFF  3F1,3F5
047EC:  RCALL  4784
047EE:  MOVFF  01,3F5
047F2:  MOVLW  8C
047F4:  MOVLB  3
047F6:  MOVWF  xF6
047F8:  MOVFF  01,3F7
047FC:  MOVLB  0
047FE:  CALL   2962
....................    write_ds1302(0x8a,get_bcd(dow)); 
04802:  MOVFF  3F2,3F5
04806:  RCALL  4784
04808:  MOVFF  01,3F5
0480C:  MOVLW  8A
0480E:  MOVLB  3
04810:  MOVWF  xF6
04812:  MOVFF  01,3F7
04816:  MOVLB  0
04818:  CALL   2962
....................    write_ds1302(0x84,get_bcd(hr)); 
0481C:  MOVFF  3F3,3F5
04820:  RCALL  4784
04822:  MOVFF  01,3F5
04826:  MOVLW  84
04828:  MOVLB  3
0482A:  MOVWF  xF6
0482C:  MOVFF  01,3F7
04830:  MOVLB  0
04832:  CALL   2962
....................    write_ds1302(0x82,get_bcd(min)); 
04836:  MOVFF  3F4,3F5
0483A:  RCALL  4784
0483C:  MOVFF  01,3F5
04840:  MOVLW  82
04842:  MOVLB  3
04844:  MOVWF  xF6
04846:  MOVFF  01,3F7
0484A:  MOVLB  0
0484C:  CALL   2962
....................    write_ds1302(0x80,get_bcd(0)); 
04850:  MOVLB  3
04852:  CLRF   xF5
04854:  MOVLB  0
04856:  RCALL  4784
04858:  MOVFF  01,3F5
0485C:  MOVLW  80
0485E:  MOVLB  3
04860:  MOVWF  xF6
04862:  MOVFF  01,3F7
04866:  MOVLB  0
04868:  CALL   2962
.................... } 
0486C:  GOTO   8AE4 (RETURN)
....................  
.................... void rtc_get_date(BYTE& day, BYTE& mth, BYTE& year, BYTE& dow) { 
....................    day = rm_bcd(read_ds1302(0x87)); 
*
05D64:  MOVLW  87
05D66:  MOVWF  xF3
05D68:  MOVLB  0
05D6A:  CALL   2978
05D6E:  MOVFF  01,3EF
05D72:  MOVFF  01,3F4
05D76:  CALL   4148
05D7A:  MOVFF  01,397
....................    mth = rm_bcd(read_ds1302(0x89)); 
05D7E:  MOVLW  89
05D80:  MOVLB  3
05D82:  MOVWF  xF3
05D84:  MOVLB  0
05D86:  CALL   2978
05D8A:  MOVFF  01,3EF
05D8E:  MOVFF  01,3F4
05D92:  CALL   4148
05D96:  MOVFF  01,396
....................    year = rm_bcd(read_ds1302(0x8d)); 
05D9A:  MOVLW  8D
05D9C:  MOVLB  3
05D9E:  MOVWF  xF3
05DA0:  MOVLB  0
05DA2:  CALL   2978
05DA6:  MOVFF  01,3EF
05DAA:  MOVFF  01,3F4
05DAE:  CALL   4148
05DB2:  MOVFF  01,395
....................    dow = rm_bcd(read_ds1302(0x8b)); 
05DB6:  MOVLW  8B
05DB8:  MOVLB  3
05DBA:  MOVWF  xF3
05DBC:  MOVLB  0
05DBE:  CALL   2978
05DC2:  MOVFF  01,3EF
05DC6:  MOVFF  01,3F4
05DCA:  CALL   4148
05DCE:  MOVFF  01,39B
.................... } 
....................  
.................... void rtc_get_time(BYTE& hr, BYTE& min, BYTE& sec) { 
....................    hr = rm_bcd(read_ds1302(0x85)); 
05DD2:  MOVLW  85
05DD4:  MOVLB  3
05DD6:  MOVWF  xF3
05DD8:  MOVLB  0
05DDA:  CALL   2978
05DDE:  MOVFF  01,3EF
05DE2:  MOVFF  01,3F4
05DE6:  CALL   4148
05DEA:  MOVFF  01,398
....................    min = rm_bcd(read_ds1302(0x83)); 
05DEE:  MOVLW  83
05DF0:  MOVLB  3
05DF2:  MOVWF  xF3
05DF4:  MOVLB  0
05DF6:  CALL   2978
05DFA:  MOVFF  01,3EF
05DFE:  MOVFF  01,3F4
05E02:  CALL   4148
05E06:  MOVFF  01,399
....................    sec = rm_bcd(read_ds1302(0x81)); 
05E0A:  MOVLW  81
05E0C:  MOVLB  3
05E0E:  MOVWF  xF3
05E10:  MOVLB  0
05E12:  CALL   2978
05E16:  MOVFF  01,3EF
05E1A:  MOVFF  01,3F4
05E1E:  CALL   4148
05E22:  MOVFF  01,39A
.................... } 
....................  
.................... void rtc_write_nvr(BYTE address, BYTE data) { 
....................    write_ds1302(address|0xc0,data); 
.................... } 
....................  
.................... BYTE rtc_read_nvr(BYTE address) { 
....................     return(read_ds1302(address|0xc1)); 
.................... } 
....................  
....................  
.................... #define   UP            !input(PIN_B0) 
.................... #define   DOWN          !input(PIN_B1) 
.................... #define   RIGHT         !input(PIN_B2) 
.................... #define   LEFT          !input(PIN_B3) 
....................  
.................... #define   DOOR          !input(PIN_B6) 
.................... #define   STOP          !input(PIN_B7) 
.................... #define   TERM          !input(PIN_B5) 
....................  
.................... #define   LOW           input(PIN_C1) 
.................... #define   HIG           input(PIN_C0) 
....................  
.................... #define   SSR_on           output_bit(PIN_C2,0) 
.................... #define   SSR_off          output_bit(PIN_C2,1) 
....................  
.................... #define   Buzzer_on        output_bit(PIN_D0,1) 
.................... #define   Buzzer_off       output_bit(PIN_D0,0) 
....................  
.................... #define   Desfogue_on      output_bit(PIN_D4,1) 
.................... #define   Desfogue_off     output_bit(PIN_D4,0) 
....................  
.................... #define   Vent_on          output_bit(PIN_D5,1) 
.................... #define   Vent_off         output_bit(PIN_D5,0) 
....................  
.................... #define   Paso_on          output_bit(PIN_D6,1) 
.................... #define   Paso_off         output_bit(PIN_D6,0) 
....................  
.................... #define OFF 0 
.................... #define ON  1 
.................... #define RX_BUFFER_SIZE  10 
.................... char Rx_Buffer[RX_BUFFER_SIZE+1]; 
.................... char Rx_Buffer2[RX_BUFFER_SIZE+1]; 
.................... char RX_Wr_Index=0; 
.................... char RX_Rd_Index=0; 
.................... char RX_Counter=0; 
....................  
.................... #define TX_BUFFER_SIZE  24 
.................... char Tx_Buffer[TX_BUFFER_SIZE+1]; 
.................... char TX_Wr_Index=0; 
.................... char TX_Counter=0; 
.................... //int1 RX_Buffer_Overflow=0; 
....................  
.................... //Comunicacion//------------------------ 
.................... int8 SlaveA0Tx[0X20]; 
.................... int8 dato=0;            //Contendr la informacin a enviar o recibir 
.................... int8 direccion=0;       //Contendr la direccin del esclavo en el bus I2C 
.................... int8 posicion=0;        //Contendr la posicin en el buffer de memoria del esclavo donde se almacenar o de donde se recuperar el dato 
....................  
.................... /* Tabla de Modulos, Primera Fila Ao Regular y el siguiente ao Bisiesto 
.................... E   F   M   A   M   J   J   A   S   O   N   D 
.................... 0   3   3   6   1   4   6   2   5   0   3   5 
.................... 0   3   4   0   2   5   0   3   6   1   4   6 
.................... */ 
.................... int8 Regular[12]={0,3,3,6,1,4,6,2,5,0,3,5}; 
.................... int8 Bisiesto[12]={0,3,4,0,2,5,0,3,6,1,4,6}; 
....................  
.................... //Alarmas//--------------------- 
.................... short AlarmaTiempoProlongado=OFF,AlarmaSobreTemperatura=OFF,AlarmaLlenado=OFF,AlarmaTermostato=OFF,AlarmaPuerta=OFF,AlarmaEmergencia=OFF,AlarmaCiclo=OFF; 
....................  
.................... //Banderas//-------------------- 
.................... short IniciaLlenado=OFF,CalderinLleno=OFF,IniciaCiclo=OFF,Esterilizando=OFF,Secando=OFF,SensadoNivel=OFF,Desfogando=OFF,DesfogueSuave=OFF; 
.................... short EstadoDesfogue=OFF,EstadoAgua=OFF,EstadoSSR=OFF,PruebaEstados=OFF,Ciclo=OFF,flagCalentando=OFF,flagEsterilizando=OFF; 
.................... short flagDesfogando=OFF,Op=OFF,Op2=OFF,Minutos=OFF,Segundos=OFF,GuardaEEPROM=OFF,EstadoPaso=OFF,EstadoBuzzer=OFF,flagAlarma=OFF; 
.................... short flagBuzzer=OFF,flagSilencio=OFF,Finalizo=OFF,AlarmaPresion=OFF,Libre=OFF,purga=OFF,entro=OFF,purgo=OFF,purgaAire2=OFF; 
....................  
.................... //Tiempos//--------------------- 
.................... int16 TiempoCiclo=0,TiempoLlenado=0,TiempoSensadoNivel=0,Tp=0,Tc=0,tPurgaAire=0; 
.................... signed int  Testerilizacion[5]={0,0,0,0,0};   // Tiempo transcurrido 
.................... signed int  Testerilizacionp[5]={0,0,0,0,0};   // Tiempo transcurrido 
.................... signed int  Tsecado[4]={0,0,0,0};   // Tiempo transcurrido 
.................... signed int  Tsecadop[4]={0,0,0,0};   // Tiempo transcurrido 
....................  
.................... //Control//------------------------ 
.................... float promedio[80]={0.0,0.0,0.0,0.0,0.0,0.0,0.0,0.0,0.0,0.0,0.0,0.0,0.0,0.0,0.0,0.0,0.0,0.0,0.0,0.0,0.0,0.0,0.0,0.0,0.0,0.0,0.0,0.0,0.0,0.0,0.0,0.0,0.0,0.0,0.0,0.0,0.0,0.0,0.0,0.0,0.0,0.0,0.0,0.0,0.0,0.0,0.0,0.0,0.0,0.0,0.0,0.0,0.0,0.0,0.0,0.0,0.0,0.0,0.0,0.0,0.0,0.0,0.0,0.0}; 
.................... float PromPresion[20]={0.0,0.0,0.0,0.0,0.0,0.0,0.0,0.0,0.0,0.0,0.0,0.0,0.0,0.0,0.0,0.0,0.0,0.0,0.0,0.0}; 
.................... float PromPresionp[20]={0.0,0.0,0.0,0.0,0.0,0.0,0.0,0.0,0.0,0.0,0.0,0.0,0.0,0.0,0.0,0.0,0.0,0.0,0.0,0.0}; 
.................... float Gain=141.6,RPT100=0.5,Temporal=0.0; 
.................... float R1=100,R10=6810; 
.................... float X[2]={0.0,0.0}; 
.................... float Xx[2]={0.0,0.0}; 
.................... float promediopresion=0.0,Aumento=0.0,Aumento2=0.0,promediopresionp=0.0; 
.................... int8 h=0,l=0,Ajuste=0,Ajusten=0,MediaMovil=20,TTrampa=0,PantallaPrincipal=0,TipoClave=0,Modulo=0,Digito=0,yy=0; 
.................... float V0=0.0,Pt,Tciclo=10.0,Tpulso=0.0,error=0.0,Prom=0.0,Temperature=0.0,tmp=0.0,Ganancia=25.0,Ganancia2=20.0,desvio=1.0,tmp2=0.0; 
.................... float V1=0.0,Presion=0.0,V2=0.0,Presionp=0.0; 
.................... float Temperatura=0.0,K=0.0012858; 
.................... float a=0.0011,b=2.3302,c=-244.0723; 
.................... int8 Integral=0,Derivativo=0,CicloLibre=0; 
.................... float p1=0.0000011617,p2=-0.0010575,p3=0.44114,p4=65.043,Tactual=0.0; 
.................... float prc=0.0;    
....................  
.................... //Varios//-------------------------------- 
.................... short desfoguelento=0,Lectura=0,Grafica=0; 
.................... short disp_Stop=0,flagTC=0,flagImprime=0,flagImprimir=0; 
.................... int8 Control=0,tiemporecta=0,Controlando=0,ActivaImpresion=1,timpresion=2,CalculoImpresion=0,Inicio=1,Dato_Exitoso=0,Dato2=0,z=0; 
.................... int8 Menu=0, MenuAnt=0,MenuAntt=240,i=0,CiclosL=0,CiclosH=0,CicloSeleccionado=0; 
.................... int8 Setpoint=0,Opcion=1,Opcion2=1,tiempo_esterilizacion=0,tiempo_secado=0,tiempoImpresion=0; 
.................... int16 tiempos=0,tiempos2=0,tiempos3=0,tiempoctrl=0,Nivel=0,tinicio=0,PresionCamara=0,PresionPreCamara=0,Ciclos=0,NivelSeleccionado=0; 
.................... signed int  Contrasena[4]={0,0,0,0};      // Contrasena de 4 digitos 
.................... signed int  Password[4]={0,0,0,0};        // Contrasena Almacenada de 4 digitos 
.................... int8 r=0,t=0,r22=0,t2=0,TiempoControl=0; 
.................... int8 y=0,ConteoBuzzer=0; 
.................... int16 t_exhaust=0,tbuzzer=0,tsilencio=0,tStop=0,tTermostato=0; 
.................... int8 Year=18,Mes=9,Dia=13,Hora=0,Minuto=0,Segundo=0,dow=0; 
.................... int8 YearTx=0,MesTx=0,DiaTx=0,HoraTx=0,MinutoTx=0,SegundoTx=0,dowTx=0,SetTime=0,Imprime=0; 
.................... signed int8 G1=0,G2=0,sg1=0,sg2=0; 
.................... int8 iconoGrande[15]={25,16,22,24,23,28,20,46}; 
.................... int8 iconoPeque[15]={34,36,18,33,32,38,19,17}; 
.................... char const texto[9][20]={"LIQUIDOS A","CAUCHO","INSTRUMENTAL","LIQUIDOS B","LIBRE","TEST","HORA Y FECHA","CLAVE"}; 
....................  
.................... typedef struct{ 
....................    int8 Temperatura; 
....................    int8 MinutoestH; 
....................    int8 MinutoestL; 
....................    int8 Segundoest; 
....................    int8 Minutosec; 
....................    int8 Segundosec; 
....................    int8 PulsosVacio; 
....................    int8 NivelVacio; 
....................    int8 NivelDesfogue; 
....................    int8 Minutoest; 
.................... }Personalizado; 
....................  
.................... Personalizado CiclosPersonalizados[4]; 
....................  
.................... #include "Funciones.h" 
.................... void BorraBuffer(void){ 
.................... RX_Buffer[0]=0; 
*
0424A:  CLRF   30
.................... RX_Buffer[1]=0; 
0424C:  CLRF   31
.................... RX_Buffer[2]=0; 
0424E:  CLRF   32
.................... RX_Buffer[3]=0; 
04250:  CLRF   33
.................... RX_Buffer[4]=0; 
04252:  CLRF   34
.................... RX_Buffer[5]=0; 
04254:  CLRF   35
.................... RX_Buffer[6]=0; 
04256:  CLRF   36
.................... RX_Buffer[7]=0; 
04258:  CLRF   37
.................... RX_Buffer[8]=0; 
0425A:  CLRF   38
.................... RX_Buffer[9]=0; 
0425C:  CLRF   39
....................  
.................... RX_Buffer2[0]=0; 
0425E:  CLRF   3B
.................... RX_Buffer2[1]=0; 
04260:  CLRF   3C
.................... RX_Buffer2[2]=0; 
04262:  CLRF   3D
.................... RX_Buffer2[3]=0; 
04264:  CLRF   3E
.................... RX_Buffer2[4]=0; 
04266:  CLRF   3F
.................... RX_Buffer2[5]=0; 
04268:  CLRF   40
.................... RX_Buffer2[6]=0; 
0426A:  CLRF   41
.................... RX_Buffer2[7]=0; 
0426C:  CLRF   42
.................... RX_Buffer2[8]=0; 
0426E:  CLRF   43
.................... RX_Buffer2[9]=0; 
04270:  CLRF   44
....................  
.................... } 
04272:  GOTO   5E8A (RETURN)
....................  
.................... char bgetc(void){ 
....................    char c; 
....................    while(RX_Counter==0) 
....................       ; 
....................    c=Rx_Buffer2[RX_Rd_Index]; 
....................    if(++RX_Rd_Index>RX_BUFFER_SIZE) 
....................       RX_Rd_Index=0; 
....................    if(RX_Counter) 
....................       RX_Counter--; 
....................    return c; 
.................... } 
....................  
.................... void bputc(char c){ 
....................    char restart=0; 
....................    while(TX_Counter> (TX_BUFFER_SIZE-1)) 
....................       ; 
....................    if(TX_Counter==0) 
....................       restart=1; 
....................    TX_Buffer[TX_Wr_Index++]=c; 
....................    if(TX_Wr_Index>TX_BUFFER_SIZE) 
....................       TX_Wr_Index=0; 
....................     
....................    TX_Counter++; 
....................     
....................    if(restart==1) 
....................       enable_interrupts(int_tbe); 
.................... } 
....................  
.................... void SendDataDisplay(void){ 
.................... delay_us(10); 
*
03538:  MOVLW  10
0353A:  MOVWF  00
0353C:  DECFSZ 00,F
0353E:  BRA    353C
03540:  NOP   
.................... putc(0xFF); 
03542:  MOVLW  FF
03544:  RCALL  3530
.................... delay_us(10); 
03546:  MOVLW  10
03548:  MOVWF  00
0354A:  DECFSZ 00,F
0354C:  BRA    354A
0354E:  NOP   
.................... putc(0xFF); 
03550:  MOVLW  FF
03552:  RCALL  3530
.................... delay_us(10); 
03554:  MOVLW  10
03556:  MOVWF  00
03558:  DECFSZ 00,F
0355A:  BRA    3558
0355C:  NOP   
.................... putc(0xFF); 
0355E:  MOVLW  FF
03560:  RCALL  3530
.................... delay_us(10); 
03562:  MOVLW  10
03564:  MOVWF  00
03566:  DECFSZ 00,F
03568:  BRA    3566
0356A:  NOP   
.................... } 
0356C:  RETLW  00
....................  
.................... short esBisiesto(int8 year) { 
....................      return ((year % 4 == 0 && year % 100 != 0) || year % 400 == 0); 
*
04732:  MOVLB  3
04734:  MOVF   xEF,W
04736:  ANDLW  03
04738:  BNZ   474C
0473A:  MOVFF  3EF,3F9
0473E:  MOVLW  64
04740:  MOVWF  xFA
04742:  MOVLB  0
04744:  RCALL  42A8
04746:  MOVF   00,F
04748:  BNZ   477A
0474A:  MOVLB  3
0474C:  CLRF   xF1
0474E:  MOVFF  3EF,3F0
04752:  MOVLW  01
04754:  MOVWF  xF3
04756:  MOVLW  90
04758:  MOVWF  xF2
0475A:  MOVLB  0
0475C:  BRA    46EA
0475E:  MOVFF  00,3F0
04762:  MOVLB  3
04764:  MOVFF  03,3F1
04768:  MOVF   xF0,F
0476A:  BNZ   4776
0476C:  MOVF   xF1,F
0476E:  BTFSS  FD8.2
04770:  BRA    4776
04772:  MOVLB  0
04774:  BRA    477A
04776:  MOVLW  00
04778:  BRA    477E
0477A:  MOVLW  01
0477C:  MOVLB  3
0477E:  MOVWF  01
.................... } 
04780:  MOVLB  0
04782:  RETLW  00
....................  
.................... void LimitaDia(){ 
....................    if(MesTx>12) 
*
04870:  MOVLB  3
04872:  MOVF   x9D,W
04874:  SUBLW  0C
04876:  BC    487C
....................       MesTx=10; 
04878:  MOVLW  0A
0487A:  MOVWF  x9D
....................    if(DiaTx>31) 
0487C:  MOVF   x9E,W
0487E:  SUBLW  1F
04880:  BC    4886
....................       DiaTx=16; 
04882:  MOVLW  10
04884:  MOVWF  x9E
....................    if(YearTx>99) 
04886:  MOVF   x9C,W
04888:  SUBLW  63
0488A:  BC    4890
....................       YearTx=18;    
0488C:  MOVLW  12
0488E:  MOVWF  x9C
....................    if(HoraTx>24) 
04890:  MOVF   x9F,W
04892:  SUBLW  18
04894:  BC    489A
....................       HoraTx=11;       
04896:  MOVLW  0B
04898:  MOVWF  x9F
....................    if(MinutoTx>59) 
0489A:  MOVF   xA0,W
0489C:  SUBLW  3B
0489E:  BC    48A4
....................       MinutoTx=30;       
048A0:  MOVLW  1E
048A2:  MOVWF  xA0
....................     
....................       if(MesTx==2){ 
048A4:  MOVF   x9D,W
048A6:  SUBLW  02
048A8:  BNZ   48D4
....................          if(esBisiesto(YearTx)){ 
048AA:  MOVFF  39C,3EF
048AE:  MOVLB  0
048B0:  RCALL  4732
048B2:  MOVF   01,F
048B4:  BZ    48C6
....................             if(DiaTx>29){ 
048B6:  MOVLB  3
048B8:  MOVF   x9E,W
048BA:  SUBLW  1D
048BC:  BC    48C2
....................                DiaTx=29; 
048BE:  MOVLW  1D
048C0:  MOVWF  x9E
....................                //glcd_fillScreen(OFF); 
....................             } 
....................          }else{ 
048C2:  BRA    48D2
048C4:  MOVLB  0
....................             if(DiaTx>28){ 
048C6:  MOVLB  3
048C8:  MOVF   x9E,W
048CA:  SUBLW  1C
048CC:  BC    48D2
....................                DiaTx=28; 
048CE:  MOVLW  1C
048D0:  MOVWF  x9E
....................                //glcd_fillScreen(OFF); 
....................             } 
....................          } 
....................       }else{ 
048D2:  BRA    48FE
....................          if(MesTx<=7){ 
048D4:  MOVF   x9D,W
048D6:  SUBLW  07
048D8:  BNC   48EC
....................             if(MesTx % 2 ==0){ 
048DA:  MOVF   x9D,W
048DC:  ANDLW  01
048DE:  BNZ   48EA
....................                if(DiaTx>30){ 
048E0:  MOVF   x9E,W
048E2:  SUBLW  1E
048E4:  BC    48EA
....................                   DiaTx=30;  
048E6:  MOVLW  1E
048E8:  MOVWF  x9E
....................                   //glcd_fillScreen(OFF); 
....................                } 
....................             } 
....................          }else{ 
048EA:  BRA    48FE
....................             if(MesTx % 2 ==1){ 
048EC:  MOVF   x9D,W
048EE:  ANDLW  01
048F0:  SUBLW  01
048F2:  BNZ   48FE
....................                if(DiaTx>30){ 
048F4:  MOVF   x9E,W
048F6:  SUBLW  1E
048F8:  BC    48FE
....................                   DiaTx=30;  
048FA:  MOVLW  1E
048FC:  MOVWF  x9E
....................                   //glcd_fillScreen(OFF); 
....................                } 
....................             } 
....................          } 
....................       } 
.................... } 
048FE:  MOVLB  0
04900:  GOTO   8D82 (RETURN)
....................  
.................... void ActualizaRecta(){ 
....................    X[y]=Temperature; 
....................    y++; 
....................    if(y>=2) 
....................    { 
....................       y=0; 
....................       Aumento=X[1]-X[0]; 
....................    } 
.................... } 
....................  
.................... void ActualizaRectaPresion(){ 
....................    Xx[yy]=Tactual; 
*
04932:  MOVLB  2
04934:  MOVF   xE0,W
04936:  MULLW  04
04938:  MOVF   FF3,W
0493A:  CLRF   03
0493C:  ADDLW  BE
0493E:  MOVWF  FE9
04940:  MOVLW  02
04942:  ADDWFC 03,W
04944:  MOVWF  FEA
04946:  MOVFF  348,FEF
0494A:  MOVFF  349,FEC
0494E:  MOVFF  34A,FEC
04952:  MOVFF  34B,FEC
....................    yy++; 
04956:  INCF   xE0,F
....................    if(yy>=2){ 
04958:  MOVF   xE0,W
0495A:  SUBLW  01
0495C:  BC    499A
....................       yy=0; 
0495E:  CLRF   xE0
....................       Aumento2=Xx[1]-Xx[0]; 
04960:  BSF    FD8.1
04962:  MOVFF  2C5,407
04966:  MOVFF  2C4,406
0496A:  MOVFF  2C3,405
0496E:  MOVFF  2C2,404
04972:  MOVFF  2C1,40B
04976:  MOVFF  2C0,40A
0497A:  MOVFF  2BF,409
0497E:  MOVFF  2BE,408
04982:  MOVLB  0
04984:  CALL   19A6
04988:  MOVFF  03,2D1
0498C:  MOVFF  02,2D0
04990:  MOVFF  01,2CF
04994:  MOVFF  00,2CE
04998:  MOVLB  2
....................    } 
.................... } 
0499A:  MOVLB  0
0499C:  GOTO   4A22 (RETURN)
....................  
.................... // Funcion para conversor analogo-digital 
.................... float sensores(int x){ 
.................... float y;set_adc_channel(x);delay_ms(1);y=read_adc();return (y); 
*
03586:  MOVLB  3
03588:  RLCF   xF8,W
0358A:  MOVWF  00
0358C:  RLCF   00,F
0358E:  MOVLW  FC
03590:  ANDWF  00,F
03592:  MOVFF  00,01
03596:  MOVF   FC2,W
03598:  ANDLW  C3
0359A:  IORWF  00,W
0359C:  MOVWF  FC2
0359E:  MOVLW  01
035A0:  MOVLB  4
035A2:  MOVWF  x04
035A4:  MOVLB  0
035A6:  CALL   179C
035AA:  BSF    FC2.1
035AC:  BTFSC  FC2.1
035AE:  BRA    35AC
035B0:  MOVFF  FC4,405
035B4:  MOVFF  FC3,404
035B8:  MOVLB  0
035BA:  CALL   17C2
035BE:  MOVFF  03,3FC
035C2:  MOVFF  02,3FB
035C6:  MOVFF  01,3FA
035CA:  MOVFF  00,3F9
035CE:  MOVFF  3F9,00
035D2:  MOVFF  3FA,01
035D6:  MOVFF  3FB,02
035DA:  MOVFF  3FC,03
.................... } 
035DE:  RETLW  00
.................... float LeerPT100(int media) 
.................... { 
*
036F8:  MOVLB  3
036FA:  CLRF   xF3
036FC:  CLRF   xF2
036FE:  CLRF   xF1
03700:  CLRF   xF0
03702:  CLRF   xF7
03704:  CLRF   xF6
03706:  CLRF   xF5
03708:  CLRF   xF4
....................    float ajp=0.0,ajn=0.0; 
....................    Prom=0.0; 
0370A:  MOVLB  2
0370C:  CLRF   xF8
0370E:  CLRF   xF7
03710:  CLRF   xF6
03712:  CLRF   xF5
....................    V0 = sensores(0);   //Lectura de Divisor de Voltaje de PT100 con resistencia de 6.18k (+-2%) 
03714:  MOVLB  3
03716:  CLRF   xF8
03718:  MOVLB  0
0371A:  RCALL  3586
0371C:  MOVFF  03,2E4
03720:  MOVFF  02,2E3
03724:  MOVFF  01,2E2
03728:  MOVFF  00,2E1
....................    V0 = V0/107.3; // Se elimina la ganancia 
0372C:  MOVFF  2E4,3FB
03730:  MOVFF  2E3,3FA
03734:  MOVFF  2E2,3F9
03738:  MOVFF  2E1,3F8
0373C:  MOVLW  9A
0373E:  MOVLB  3
03740:  MOVWF  xFF
03742:  MOVLW  99
03744:  MOVWF  xFE
03746:  MOVLW  56
03748:  MOVWF  xFD
0374A:  MOVLW  85
0374C:  MOVWF  xFC
0374E:  MOVLB  0
03750:  CALL   17F8
03754:  MOVFF  03,2E4
03758:  MOVFF  02,2E3
0375C:  MOVFF  01,2E2
03760:  MOVFF  00,2E1
....................    //V0 += 14.82; 
....................    V0 += 14.93; 
03764:  BCF    FD8.1
03766:  MOVFF  2E4,407
0376A:  MOVFF  2E3,406
0376E:  MOVFF  2E2,405
03772:  MOVFF  2E1,404
03776:  MOVLW  48
03778:  MOVLB  4
0377A:  MOVWF  x0B
0377C:  MOVLW  E1
0377E:  MOVWF  x0A
03780:  MOVLW  6E
03782:  MOVWF  x09
03784:  MOVLW  82
03786:  MOVWF  x08
03788:  MOVLB  0
0378A:  CALL   19A6
0378E:  MOVFF  03,2E4
03792:  MOVFF  02,2E3
03796:  MOVFF  01,2E2
0379A:  MOVFF  00,2E1
....................    Pt=R10/((1023/V0)-1); 
0379E:  MOVLB  3
037A0:  CLRF   xFB
037A2:  MOVLW  C0
037A4:  MOVWF  xFA
037A6:  MOVLW  7F
037A8:  MOVWF  xF9
037AA:  MOVLW  88
037AC:  MOVWF  xF8
037AE:  MOVFF  2E4,3FF
037B2:  MOVFF  2E3,3FE
037B6:  MOVFF  2E2,3FD
037BA:  MOVFF  2E1,3FC
037BE:  MOVLB  0
037C0:  CALL   17F8
037C4:  MOVFF  00,3F8
037C8:  MOVFF  01,3F9
037CC:  MOVFF  02,3FA
037D0:  MOVFF  03,3FB
037D4:  BSF    FD8.1
037D6:  MOVFF  03,407
037DA:  MOVFF  02,406
037DE:  MOVFF  01,405
037E2:  MOVFF  00,404
037E6:  MOVLB  4
037E8:  CLRF   x0B
037EA:  CLRF   x0A
037EC:  CLRF   x09
037EE:  MOVLW  7F
037F0:  MOVWF  x08
037F2:  MOVLB  0
037F4:  CALL   19A6
037F8:  MOVFF  2B5,3FB
037FC:  MOVFF  2B4,3FA
03800:  MOVFF  2B3,3F9
03804:  MOVFF  2B2,3F8
03808:  MOVFF  03,3FF
0380C:  MOVFF  02,3FE
03810:  MOVFF  01,3FD
03814:  MOVFF  00,3FC
03818:  CALL   17F8
0381C:  MOVFF  03,2E8
03820:  MOVFF  02,2E7
03824:  MOVFF  01,2E6
03828:  MOVFF  00,2E5
....................              
....................    if(l>(media-1)) 
0382C:  MOVLW  01
0382E:  MOVLB  3
03830:  SUBWF  xEF,W
03832:  MOVLB  2
03834:  SUBWF  xD7,W
03836:  BZ    383C
03838:  BNC   383C
....................    {l=0;} 
0383A:  CLRF   xD7
....................    //promedio[l]=Temperature;l++; 
....................    promedio[l]=Pt;l++; 
0383C:  MOVLB  3
0383E:  CLRF   xF9
03840:  MOVFF  2D7,3F8
03844:  CLRF   xFB
03846:  MOVLW  04
03848:  MOVWF  xFA
0384A:  MOVLB  0
0384C:  RCALL  35E0
0384E:  MOVF   01,W
03850:  ADDLW  C2
03852:  MOVWF  FE9
03854:  MOVLW  00
03856:  ADDWFC 02,W
03858:  MOVWF  FEA
0385A:  MOVFF  2E5,FEF
0385E:  MOVFF  2E6,FEC
03862:  MOVFF  2E7,FEC
03866:  MOVFF  2E8,FEC
0386A:  MOVLB  2
0386C:  INCF   xD7,F
....................           
....................    for(h=0;h<media;h++) 
0386E:  CLRF   xD6
03870:  MOVLB  3
03872:  MOVF   xEF,W
03874:  MOVLB  2
03876:  SUBWF  xD6,W
03878:  BC    38F8
....................    { 
....................       Prom+=promedio[h]; 
0387A:  MOVLB  3
0387C:  CLRF   xF9
0387E:  MOVFF  2D6,3F8
03882:  CLRF   xFB
03884:  MOVLW  04
03886:  MOVWF  xFA
03888:  MOVLB  0
0388A:  RCALL  35E0
0388C:  MOVFF  02,03
03890:  MOVF   01,W
03892:  ADDLW  C2
03894:  MOVWF  FE9
03896:  MOVLW  00
03898:  ADDWFC 02,W
0389A:  MOVWF  FEA
0389C:  MOVFF  FEF,00
038A0:  MOVFF  FEC,01
038A4:  MOVFF  FEC,02
038A8:  MOVFF  FEC,03
038AC:  MOVFF  FEA,3F9
038B0:  MOVFF  FE9,3F8
038B4:  BCF    FD8.1
038B6:  MOVFF  2F8,407
038BA:  MOVFF  2F7,406
038BE:  MOVFF  2F6,405
038C2:  MOVFF  2F5,404
038C6:  MOVFF  03,40B
038CA:  MOVFF  02,40A
038CE:  MOVFF  01,409
038D2:  MOVFF  00,408
038D6:  CALL   19A6
038DA:  MOVFF  3F9,FEA
038DE:  MOVFF  3F8,FE9
038E2:  MOVFF  03,2F8
038E6:  MOVFF  02,2F7
038EA:  MOVFF  01,2F6
038EE:  MOVFF  00,2F5
....................    }  
038F2:  MOVLB  2
038F4:  INCF   xD6,F
038F6:  BRA    3870
....................    Prom=Prom/media;    
038F8:  MOVLB  4
038FA:  CLRF   x05
038FC:  MOVFF  3EF,404
03900:  MOVLB  0
03902:  CALL   17C2
03906:  MOVFF  2F8,3FB
0390A:  MOVFF  2F7,3FA
0390E:  MOVFF  2F6,3F9
03912:  MOVFF  2F5,3F8
03916:  MOVFF  03,3FF
0391A:  MOVFF  02,3FE
0391E:  MOVFF  01,3FD
03922:  MOVFF  00,3FC
03926:  CALL   17F8
0392A:  MOVFF  03,2F8
0392E:  MOVFF  02,2F7
03932:  MOVFF  01,2F6
03936:  MOVFF  00,2F5
....................    //Temperature=(Prom-100.0)/(0.385);  // Ecuacin determinada por linealizacin en Matlab. Revisar este polinomio.   
....................    Temperature=((Prom*Prom)*a)+(Prom*b)+c;  // Ecuacin determinada por linealizacin en Matlab. Revisar este polinomio. 
0393A:  MOVFF  2F8,40B
0393E:  MOVFF  2F7,40A
03942:  MOVFF  2F6,409
03946:  MOVFF  2F5,408
0394A:  MOVFF  2F8,40F
0394E:  MOVFF  2F7,40E
03952:  MOVFF  2F6,40D
03956:  MOVFF  2F5,40C
0395A:  RCALL  3602
0395C:  MOVFF  00,3F8
03960:  MOVFF  01,3F9
03964:  MOVFF  02,3FA
03968:  MOVFF  03,3FB
0396C:  MOVFF  03,40B
03970:  MOVFF  02,40A
03974:  MOVFF  01,409
03978:  MOVFF  00,408
0397C:  MOVFF  32C,40F
03980:  MOVFF  32B,40E
03984:  MOVFF  32A,40D
03988:  MOVFF  329,40C
0398C:  RCALL  3602
0398E:  MOVFF  00,3F8
03992:  MOVFF  01,3F9
03996:  MOVFF  02,3FA
0399A:  MOVFF  03,3FB
0399E:  MOVFF  2F8,40B
039A2:  MOVFF  2F7,40A
039A6:  MOVFF  2F6,409
039AA:  MOVFF  2F5,408
039AE:  MOVFF  330,40F
039B2:  MOVFF  32F,40E
039B6:  MOVFF  32E,40D
039BA:  MOVFF  32D,40C
039BE:  RCALL  3602
039C0:  BCF    FD8.1
039C2:  MOVFF  3FB,407
039C6:  MOVFF  3FA,406
039CA:  MOVFF  3F9,405
039CE:  MOVFF  3F8,404
039D2:  MOVFF  03,40B
039D6:  MOVFF  02,40A
039DA:  MOVFF  01,409
039DE:  MOVFF  00,408
039E2:  CALL   19A6
039E6:  MOVFF  00,3F8
039EA:  MOVFF  01,3F9
039EE:  MOVFF  02,3FA
039F2:  MOVFF  03,3FB
039F6:  BCF    FD8.1
039F8:  MOVFF  03,407
039FC:  MOVFF  02,406
03A00:  MOVFF  01,405
03A04:  MOVFF  00,404
03A08:  MOVFF  334,40B
03A0C:  MOVFF  333,40A
03A10:  MOVFF  332,409
03A14:  MOVFF  331,408
03A18:  CALL   19A6
03A1C:  MOVFF  03,2FC
03A20:  MOVFF  02,2FB
03A24:  MOVFF  01,2FA
03A28:  MOVFF  00,2F9
....................    ajp=(float)Ajuste; 
03A2C:  MOVLB  4
03A2E:  CLRF   x05
03A30:  MOVFF  2D8,404
03A34:  MOVLB  0
03A36:  CALL   17C2
03A3A:  MOVFF  03,3F3
03A3E:  MOVFF  02,3F2
03A42:  MOVFF  01,3F1
03A46:  MOVFF  00,3F0
....................    ajp=ajp/10; 
03A4A:  MOVFF  3F3,3FB
03A4E:  MOVFF  3F2,3FA
03A52:  MOVFF  3F1,3F9
03A56:  MOVFF  3F0,3F8
03A5A:  MOVLB  3
03A5C:  CLRF   xFF
03A5E:  CLRF   xFE
03A60:  MOVLW  20
03A62:  MOVWF  xFD
03A64:  MOVLW  82
03A66:  MOVWF  xFC
03A68:  MOVLB  0
03A6A:  CALL   17F8
03A6E:  MOVFF  03,3F3
03A72:  MOVFF  02,3F2
03A76:  MOVFF  01,3F1
03A7A:  MOVFF  00,3F0
....................    ajn=(float)Ajusten; 
03A7E:  MOVLB  4
03A80:  CLRF   x05
03A82:  MOVFF  2D9,404
03A86:  MOVLB  0
03A88:  CALL   17C2
03A8C:  MOVFF  03,3F7
03A90:  MOVFF  02,3F6
03A94:  MOVFF  01,3F5
03A98:  MOVFF  00,3F4
....................    ajn=ajn/10; 
03A9C:  MOVFF  3F7,3FB
03AA0:  MOVFF  3F6,3FA
03AA4:  MOVFF  3F5,3F9
03AA8:  MOVFF  3F4,3F8
03AAC:  MOVLB  3
03AAE:  CLRF   xFF
03AB0:  CLRF   xFE
03AB2:  MOVLW  20
03AB4:  MOVWF  xFD
03AB6:  MOVLW  82
03AB8:  MOVWF  xFC
03ABA:  MOVLB  0
03ABC:  CALL   17F8
03AC0:  MOVFF  03,3F7
03AC4:  MOVFF  02,3F6
03AC8:  MOVFF  01,3F5
03ACC:  MOVFF  00,3F4
....................    Temperature+=(ajp-ajn); 
03AD0:  BSF    FD8.1
03AD2:  MOVFF  3F3,407
03AD6:  MOVFF  3F2,406
03ADA:  MOVFF  3F1,405
03ADE:  MOVFF  3F0,404
03AE2:  MOVFF  3F7,40B
03AE6:  MOVFF  3F6,40A
03AEA:  MOVFF  3F5,409
03AEE:  MOVFF  3F4,408
03AF2:  CALL   19A6
03AF6:  BCF    FD8.1
03AF8:  MOVFF  2FC,407
03AFC:  MOVFF  2FB,406
03B00:  MOVFF  2FA,405
03B04:  MOVFF  2F9,404
03B08:  MOVFF  03,40B
03B0C:  MOVFF  02,40A
03B10:  MOVFF  01,409
03B14:  MOVFF  00,408
03B18:  CALL   19A6
03B1C:  MOVFF  03,2FC
03B20:  MOVFF  02,2FB
03B24:  MOVFF  01,2FA
03B28:  MOVFF  00,2F9
....................    //Temperature-=39.0; 
....................     
....................    //return Prom; 
....................    return Temperature; 
03B2C:  MOVFF  2F9,00
03B30:  MOVFF  2FA,01
03B34:  MOVFF  2FB,02
03B38:  MOVFF  2FC,03
.................... } 
03B3C:  RETLW  00
....................  
.................... float Leer_Sensor_Presion_Camara(int media){ 
....................    promediopresion=0.0; 
*
03F4E:  MOVLB  2
03F50:  CLRF   xC9
03F52:  CLRF   xC8
03F54:  CLRF   xC7
03F56:  CLRF   xC6
....................    V1 = sensores(2);   //Lectura de Divisor de Voltaje de PT100 con resistencia de 1k (+-10%) 
03F58:  MOVLW  02
03F5A:  MOVLB  3
03F5C:  MOVWF  xF8
03F5E:  MOVLB  0
03F60:  CALL   3586
03F64:  MOVFF  03,314
03F68:  MOVFF  02,313
03F6C:  MOVFF  01,312
03F70:  MOVFF  00,311
....................    //V1 = V1*(5.0/1024.0); 
....................    //Presion=(V1-0.2)/(K); 
....................    Presion=(((V1)/1023)-0.04)/K; 
03F74:  MOVFF  314,3FB
03F78:  MOVFF  313,3FA
03F7C:  MOVFF  312,3F9
03F80:  MOVFF  311,3F8
03F84:  MOVLB  3
03F86:  CLRF   xFF
03F88:  MOVLW  C0
03F8A:  MOVWF  xFE
03F8C:  MOVLW  7F
03F8E:  MOVWF  xFD
03F90:  MOVLW  88
03F92:  MOVWF  xFC
03F94:  MOVLB  0
03F96:  CALL   17F8
03F9A:  MOVFF  00,3F0
03F9E:  MOVFF  01,3F1
03FA2:  MOVFF  02,3F2
03FA6:  MOVFF  03,3F3
03FAA:  BSF    FD8.1
03FAC:  MOVFF  03,407
03FB0:  MOVFF  02,406
03FB4:  MOVFF  01,405
03FB8:  MOVFF  00,404
03FBC:  MOVLW  0A
03FBE:  MOVLB  4
03FC0:  MOVWF  x0B
03FC2:  MOVLW  D7
03FC4:  MOVWF  x0A
03FC6:  MOVLW  23
03FC8:  MOVWF  x09
03FCA:  MOVLW  7A
03FCC:  MOVWF  x08
03FCE:  MOVLB  0
03FD0:  CALL   19A6
03FD4:  MOVFF  00,3F0
03FD8:  MOVFF  01,3F1
03FDC:  MOVFF  02,3F2
03FE0:  MOVFF  03,3F3
03FE4:  MOVFF  03,3FB
03FE8:  MOVFF  02,3FA
03FEC:  MOVFF  01,3F9
03FF0:  MOVFF  00,3F8
03FF4:  MOVFF  328,3FF
03FF8:  MOVFF  327,3FE
03FFC:  MOVFF  326,3FD
04000:  MOVFF  325,3FC
04004:  CALL   17F8
04008:  MOVFF  03,318
0400C:  MOVFF  02,317
04010:  MOVFF  01,316
04014:  MOVFF  00,315
....................     
....................    if(Presion<0.0) 
04018:  MOVFF  318,3F6
0401C:  MOVFF  317,3F5
04020:  MOVFF  316,3F4
04024:  MOVFF  315,3F3
04028:  MOVLB  3
0402A:  CLRF   xFA
0402C:  CLRF   xF9
0402E:  CLRF   xF8
04030:  CLRF   xF7
04032:  MOVLB  0
04034:  CALL   2A20
04038:  BNC   4044
....................    { 
....................       Presion=0.0; 
0403A:  MOVLB  3
0403C:  CLRF   x18
0403E:  CLRF   x17
04040:  CLRF   x16
04042:  CLRF   x15
....................    } 
....................     
....................    if(r>media-1) 
04044:  MOVLW  01
04046:  MOVLB  3
04048:  SUBWF  xEF,W
0404A:  SUBWF  x84,W
0404C:  BZ    4052
0404E:  BNC   4052
....................    {r=0;} 
04050:  CLRF   x84
....................    PromPresion[r]=Presion;r++; 
04052:  MOVF   x84,W
04054:  MULLW  04
04056:  MOVF   FF3,W
04058:  CLRF   03
0405A:  ADDLW  02
0405C:  MOVWF  FE9
0405E:  MOVLW  02
04060:  ADDWFC 03,W
04062:  MOVWF  FEA
04064:  MOVFF  315,FEF
04068:  MOVFF  316,FEC
0406C:  MOVFF  317,FEC
04070:  MOVFF  318,FEC
04074:  INCF   x84,F
....................           
....................    for(t=0;t<=(media-1);t++) 
04076:  CLRF   x85
04078:  MOVLW  01
0407A:  SUBWF  xEF,W
0407C:  SUBWF  x85,W
0407E:  BZ    4082
04080:  BC    40F2
....................    { 
....................       promediopresion+=PromPresion[t]; 
04082:  MOVF   x85,W
04084:  MULLW  04
04086:  MOVF   FF3,W
04088:  CLRF   03
0408A:  ADDLW  02
0408C:  MOVWF  FE9
0408E:  MOVLW  02
04090:  ADDWFC 03,W
04092:  MOVWF  FEA
04094:  MOVFF  FEF,00
04098:  MOVFF  FEC,01
0409C:  MOVFF  FEC,02
040A0:  MOVFF  FEC,03
040A4:  MOVFF  FEA,3F1
040A8:  MOVFF  FE9,3F0
040AC:  BCF    FD8.1
040AE:  MOVFF  2C9,407
040B2:  MOVFF  2C8,406
040B6:  MOVFF  2C7,405
040BA:  MOVFF  2C6,404
040BE:  MOVFF  03,40B
040C2:  MOVFF  02,40A
040C6:  MOVFF  01,409
040CA:  MOVFF  00,408
040CE:  MOVLB  0
040D0:  CALL   19A6
040D4:  MOVFF  3F1,FEA
040D8:  MOVFF  3F0,FE9
040DC:  MOVFF  03,2C9
040E0:  MOVFF  02,2C8
040E4:  MOVFF  01,2C7
040E8:  MOVFF  00,2C6
....................    }  
040EC:  MOVLB  3
040EE:  INCF   x85,F
040F0:  BRA    4078
....................    promediopresion=promediopresion/media;    
040F2:  MOVLB  4
040F4:  CLRF   x05
040F6:  MOVFF  3EF,404
040FA:  MOVLB  0
040FC:  CALL   17C2
04100:  MOVFF  2C9,3FB
04104:  MOVFF  2C8,3FA
04108:  MOVFF  2C7,3F9
0410C:  MOVFF  2C6,3F8
04110:  MOVFF  03,3FF
04114:  MOVFF  02,3FE
04118:  MOVFF  01,3FD
0411C:  MOVFF  00,3FC
04120:  CALL   17F8
04124:  MOVFF  03,2C9
04128:  MOVFF  02,2C8
0412C:  MOVFF  01,2C7
04130:  MOVFF  00,2C6
....................     
....................    return promediopresion; 
04134:  MOVFF  2C6,00
04138:  MOVFF  2C7,01
0413C:  MOVFF  2C8,02
04140:  MOVFF  2C9,03
.................... } 
04144:  GOTO   5D42 (RETURN)
....................  
.................... float Leer_Sensor_Presion_PreCamara(int media){ 
....................    promediopresionp=0.0; 
....................    V2 = sensores(3);   //Lectura de Divisor de Voltaje de PT100 con resistencia de 1k (+-10%) 
....................    //V2 = V2*(5.0/1024.0); 
....................    //Presionp=(V2-0.2)/(K); 
....................    Presionp=(((V2)/1023)-0.04)/K; 
....................     
....................    if(Presionp<0.0) 
....................    { 
....................       Presionp=0.0; 
....................    } 
....................     
....................    if(r22>media-1) 
....................    {r22=0;} 
....................    PromPresionp[r22]=Presionp;r22++; 
....................           
....................    for(t2=0;t2<=(media-1);t2++) 
....................    { 
....................       promediopresionp+=PromPresionp[t2]; 
....................    }  
....................    promediopresionp=promediopresionp/media;    
....................     
....................    return promediopresionp; 
.................... } 
....................  
.................... void Controla(){ 
....................    if(tiemporecta>=Derivativo/2.0) 
....................    { 
....................       ActualizaRecta(); 
....................       tiemporecta=0; 
....................    }  
.................... //-------------------------------Control de Calentamiento------------------------------------------------------------//          
....................    error=desvio+Setpoint-Temperatura;      // Clculo del error ****** 
....................     
....................    if(error>1.0 && error<15 && Aumento<0.3) 
....................    { 
....................       if(Tpulso<4.0) 
....................       { 
....................          flagTC=1; 
....................          if(TiempoControl>=Derivativo) 
....................          { 
....................             TiempoControl=0; 
....................             if(Aumento<-0.5){ 
....................                Ganancia+=Integral+0.2; 
....................             }else{ 
....................                if(Aumento<-0.1){ 
....................                   Ganancia+=Integral-0.2; 
....................                }else{ 
....................                   Ganancia+=Integral-0.5; 
....................                } 
....................             } 
....................          } 
....................       }else{ 
....................          flagTC=0; 
....................       } 
....................    } 
....................     
....................    if(error<-0.3) 
....................    { 
....................       Ganancia=Ganancia2; 
....................    } 
....................     
....................    if(Ganancia<1) 
....................    { 
....................       Ganancia=1; 
....................    } 
....................     
....................    if(error<0.0)     // Anti Wind_DOWN     
....................    { 
....................       error=0.0; 
....................    } 
....................    //tmp=(Setpoint-Prom)*Ganancia;  // Control Proporcional. 
....................    tmp=error*Ganancia;  // Control Proporcional. 
....................           
....................    if(tmp>Setpoint)   // Anti Wind-UP       
....................    { 
....................       tmp=Setpoint; 
....................    } 
....................                 
....................    if(tmp<0.0)     // Anti Wind_DOWN     
....................    { 
....................       tmp=0.0; 
....................    } 
....................     
....................    // Tpulso(t)= Tciclo*(y(t)-ymin)/(ymax - ymin); calculo de ciclo util para control de resistencia.ymax=140.ymin=0; 
....................    // Tpulso es float, hay que pasar ese ciclo a una salida de un puerto usando el TMR1. 
....................    tmp2=(tmp/Setpoint); 
....................    //if(tmp2>0.8) 
....................    //tmp2=0.8; 
....................    Tpulso=tmp2*Tciclo;   
....................                                        
....................    Tp=(Tpulso/0.005); 
....................    Tc=(Tciclo/0.005); 
....................    Controlando=1;    
.................... //--------------------------------------------------------------------------------------------------------------------//    
.................... } 
....................  
.................... void ControlaPresion2(){ 
....................    prc=0.0;    
*
049A0:  MOVLB  3
049A2:  CLRF   x4F
049A4:  CLRF   x4E
049A6:  CLRF   x4D
049A8:  CLRF   x4C
....................    if(tiemporecta>=Derivativo/2.0){ 
049AA:  MOVLB  4
049AC:  CLRF   x05
049AE:  MOVFF  336,404
049B2:  MOVLB  0
049B4:  CALL   17C2
049B8:  MOVFF  03,3FB
049BC:  MOVFF  02,3FA
049C0:  MOVFF  01,3F9
049C4:  MOVFF  00,3F8
049C8:  MOVLB  3
049CA:  CLRF   xFF
049CC:  CLRF   xFE
049CE:  CLRF   xFD
049D0:  MOVLW  80
049D2:  MOVWF  xFC
049D4:  MOVLB  0
049D6:  CALL   17F8
049DA:  MOVFF  00,3EF
049DE:  MOVFF  01,3F0
049E2:  MOVFF  02,3F1
049E6:  MOVFF  03,3F2
049EA:  MOVLB  4
049EC:  CLRF   x05
049EE:  MOVFF  352,404
049F2:  MOVLB  0
049F4:  CALL   17C2
049F8:  MOVFF  3F2,3F6
049FC:  MOVFF  3F1,3F5
04A00:  MOVFF  3F0,3F4
04A04:  MOVFF  3EF,3F3
04A08:  MOVFF  03,3FA
04A0C:  MOVFF  02,3F9
04A10:  MOVFF  01,3F8
04A14:  MOVFF  00,3F7
04A18:  CALL   2A20
04A1C:  BC    4A20
04A1E:  BNZ   4A28
....................       ActualizaRectaPresion(); 
04A20:  BRA    4932
....................       tiemporecta=0; 
04A22:  MOVLB  3
04A24:  CLRF   x52
04A26:  MOVLB  0
....................    }  
....................    prc=(float)PresionCamara+72; 
04A28:  MOVFF  375,405
04A2C:  MOVFF  374,404
04A30:  CALL   17C2
04A34:  MOVFF  00,3EF
04A38:  MOVFF  01,3F0
04A3C:  MOVFF  02,3F1
04A40:  MOVFF  03,3F2
04A44:  BCF    FD8.1
04A46:  MOVFF  03,407
04A4A:  MOVFF  02,406
04A4E:  MOVFF  01,405
04A52:  MOVFF  00,404
04A56:  MOVLB  4
04A58:  CLRF   x0B
04A5A:  CLRF   x0A
04A5C:  MOVLW  10
04A5E:  MOVWF  x09
04A60:  MOVLW  85
04A62:  MOVWF  x08
04A64:  MOVLB  0
04A66:  CALL   19A6
04A6A:  MOVFF  03,34F
04A6E:  MOVFF  02,34E
04A72:  MOVFF  01,34D
04A76:  MOVFF  00,34C
....................    Tactual=((prc)*(prc)*(prc)*p1)+((prc)*(prc)*p2)+(p3*prc)+p4; 
04A7A:  MOVFF  34F,40B
04A7E:  MOVFF  34E,40A
04A82:  MOVFF  34D,409
04A86:  MOVFF  34C,408
04A8A:  MOVFF  34F,40F
04A8E:  MOVFF  34E,40E
04A92:  MOVFF  34D,40D
04A96:  MOVFF  34C,40C
04A9A:  CALL   3602
04A9E:  MOVFF  00,3EF
04AA2:  MOVFF  01,3F0
04AA6:  MOVFF  02,3F1
04AAA:  MOVFF  03,3F2
04AAE:  MOVFF  03,40B
04AB2:  MOVFF  02,40A
04AB6:  MOVFF  01,409
04ABA:  MOVFF  00,408
04ABE:  MOVFF  34F,40F
04AC2:  MOVFF  34E,40E
04AC6:  MOVFF  34D,40D
04ACA:  MOVFF  34C,40C
04ACE:  CALL   3602
04AD2:  MOVFF  00,3EF
04AD6:  MOVFF  01,3F0
04ADA:  MOVFF  02,3F1
04ADE:  MOVFF  03,3F2
04AE2:  MOVFF  03,40B
04AE6:  MOVFF  02,40A
04AEA:  MOVFF  01,409
04AEE:  MOVFF  00,408
04AF2:  MOVFF  33B,40F
04AF6:  MOVFF  33A,40E
04AFA:  MOVFF  339,40D
04AFE:  MOVFF  338,40C
04B02:  CALL   3602
04B06:  MOVFF  00,3EF
04B0A:  MOVFF  01,3F0
04B0E:  MOVFF  02,3F1
04B12:  MOVFF  03,3F2
04B16:  MOVFF  34F,40B
04B1A:  MOVFF  34E,40A
04B1E:  MOVFF  34D,409
04B22:  MOVFF  34C,408
04B26:  MOVFF  34F,40F
04B2A:  MOVFF  34E,40E
04B2E:  MOVFF  34D,40D
04B32:  MOVFF  34C,40C
04B36:  CALL   3602
04B3A:  MOVFF  00,3F3
04B3E:  MOVFF  01,3F4
04B42:  MOVFF  02,3F5
04B46:  MOVFF  03,3F6
04B4A:  MOVFF  03,40B
04B4E:  MOVFF  02,40A
04B52:  MOVFF  01,409
04B56:  MOVFF  00,408
04B5A:  MOVFF  33F,40F
04B5E:  MOVFF  33E,40E
04B62:  MOVFF  33D,40D
04B66:  MOVFF  33C,40C
04B6A:  CALL   3602
04B6E:  BCF    FD8.1
04B70:  MOVFF  3F2,407
04B74:  MOVFF  3F1,406
04B78:  MOVFF  3F0,405
04B7C:  MOVFF  3EF,404
04B80:  MOVFF  03,40B
04B84:  MOVFF  02,40A
04B88:  MOVFF  01,409
04B8C:  MOVFF  00,408
04B90:  CALL   19A6
04B94:  MOVFF  00,3EF
04B98:  MOVFF  01,3F0
04B9C:  MOVFF  02,3F1
04BA0:  MOVFF  03,3F2
04BA4:  MOVFF  343,40B
04BA8:  MOVFF  342,40A
04BAC:  MOVFF  341,409
04BB0:  MOVFF  340,408
04BB4:  MOVFF  34F,40F
04BB8:  MOVFF  34E,40E
04BBC:  MOVFF  34D,40D
04BC0:  MOVFF  34C,40C
04BC4:  CALL   3602
04BC8:  BCF    FD8.1
04BCA:  MOVFF  3F2,407
04BCE:  MOVFF  3F1,406
04BD2:  MOVFF  3F0,405
04BD6:  MOVFF  3EF,404
04BDA:  MOVFF  03,40B
04BDE:  MOVFF  02,40A
04BE2:  MOVFF  01,409
04BE6:  MOVFF  00,408
04BEA:  CALL   19A6
04BEE:  MOVFF  00,3EF
04BF2:  MOVFF  01,3F0
04BF6:  MOVFF  02,3F1
04BFA:  MOVFF  03,3F2
04BFE:  BCF    FD8.1
04C00:  MOVFF  03,407
04C04:  MOVFF  02,406
04C08:  MOVFF  01,405
04C0C:  MOVFF  00,404
04C10:  MOVFF  347,40B
04C14:  MOVFF  346,40A
04C18:  MOVFF  345,409
04C1C:  MOVFF  344,408
04C20:  CALL   19A6
04C24:  MOVFF  03,34B
04C28:  MOVFF  02,34A
04C2C:  MOVFF  01,349
04C30:  MOVFF  00,348
.................... //-------------------------------Control de Calentamiento------------------------------------------------------------//          
....................    if(Esterilizando){ 
04C34:  BTFSS  xA0.2
04C36:  BRA    4CB4
....................       error=desvio+Setpoint-Tactual;      // Clculo del error ****** 
04C38:  MOVLB  4
04C3A:  CLRF   x05
04C3C:  MOVFF  362,404
04C40:  MOVLB  0
04C42:  CALL   17C2
04C46:  BCF    FD8.1
04C48:  MOVFF  30C,407
04C4C:  MOVFF  30B,406
04C50:  MOVFF  30A,405
04C54:  MOVFF  309,404
04C58:  MOVFF  03,40B
04C5C:  MOVFF  02,40A
04C60:  MOVFF  01,409
04C64:  MOVFF  00,408
04C68:  CALL   19A6
04C6C:  MOVFF  00,3EF
04C70:  MOVFF  01,3F0
04C74:  MOVFF  02,3F1
04C78:  MOVFF  03,3F2
04C7C:  BSF    FD8.1
04C7E:  MOVFF  03,407
04C82:  MOVFF  02,406
04C86:  MOVFF  01,405
04C8A:  MOVFF  00,404
04C8E:  MOVFF  34B,40B
04C92:  MOVFF  34A,40A
04C96:  MOVFF  349,409
04C9A:  MOVFF  348,408
04C9E:  CALL   19A6
04CA2:  MOVFF  03,2F4
04CA6:  MOVFF  02,2F3
04CAA:  MOVFF  01,2F2
04CAE:  MOVFF  00,2F1
....................    }else{ 
04CB2:  BRA    4D62
....................       error=desvio+1.0+Setpoint-Tactual;      // Clculo del error ****** 
04CB4:  BCF    FD8.1
04CB6:  MOVFF  30C,407
04CBA:  MOVFF  30B,406
04CBE:  MOVFF  30A,405
04CC2:  MOVFF  309,404
04CC6:  MOVLB  4
04CC8:  CLRF   x0B
04CCA:  CLRF   x0A
04CCC:  CLRF   x09
04CCE:  MOVLW  7F
04CD0:  MOVWF  x08
04CD2:  MOVLB  0
04CD4:  CALL   19A6
04CD8:  MOVFF  00,3EF
04CDC:  MOVFF  01,3F0
04CE0:  MOVFF  02,3F1
04CE4:  MOVFF  03,3F2
04CE8:  MOVLB  4
04CEA:  CLRF   x05
04CEC:  MOVFF  362,404
04CF0:  MOVLB  0
04CF2:  CALL   17C2
04CF6:  BCF    FD8.1
04CF8:  MOVFF  3F2,407
04CFC:  MOVFF  3F1,406
04D00:  MOVFF  3F0,405
04D04:  MOVFF  3EF,404
04D08:  MOVFF  03,40B
04D0C:  MOVFF  02,40A
04D10:  MOVFF  01,409
04D14:  MOVFF  00,408
04D18:  CALL   19A6
04D1C:  MOVFF  00,3EF
04D20:  MOVFF  01,3F0
04D24:  MOVFF  02,3F1
04D28:  MOVFF  03,3F2
04D2C:  BSF    FD8.1
04D2E:  MOVFF  03,407
04D32:  MOVFF  02,406
04D36:  MOVFF  01,405
04D3A:  MOVFF  00,404
04D3E:  MOVFF  34B,40B
04D42:  MOVFF  34A,40A
04D46:  MOVFF  349,409
04D4A:  MOVFF  348,408
04D4E:  CALL   19A6
04D52:  MOVFF  03,2F4
04D56:  MOVFF  02,2F3
04D5A:  MOVFF  01,2F2
04D5E:  MOVFF  00,2F1
....................    } 
....................     
....................    if(error>1.0 && error<20 && Aumento2<0.3){ 
04D62:  MOVLB  3
04D64:  CLRF   xF6
04D66:  CLRF   xF5
04D68:  CLRF   xF4
04D6A:  MOVLW  7F
04D6C:  MOVWF  xF3
04D6E:  MOVFF  2F4,3FA
04D72:  MOVFF  2F3,3F9
04D76:  MOVFF  2F2,3F8
04D7A:  MOVFF  2F1,3F7
04D7E:  MOVLB  0
04D80:  CALL   2A20
04D84:  BTFSS  FD8.0
04D86:  BRA    4FB2
04D88:  MOVFF  2F4,3F6
04D8C:  MOVFF  2F3,3F5
04D90:  MOVFF  2F2,3F4
04D94:  MOVFF  2F1,3F3
04D98:  MOVLB  3
04D9A:  CLRF   xFA
04D9C:  CLRF   xF9
04D9E:  MOVLW  20
04DA0:  MOVWF  xF8
04DA2:  MOVLW  83
04DA4:  MOVWF  xF7
04DA6:  MOVLB  0
04DA8:  CALL   2A20
04DAC:  BTFSS  FD8.0
04DAE:  BRA    4FB2
04DB0:  MOVFF  2D1,3F6
04DB4:  MOVFF  2D0,3F5
04DB8:  MOVFF  2CF,3F4
04DBC:  MOVFF  2CE,3F3
04DC0:  MOVLW  9A
04DC2:  MOVLB  3
04DC4:  MOVWF  xFA
04DC6:  MOVLW  99
04DC8:  MOVWF  xF9
04DCA:  MOVLW  19
04DCC:  MOVWF  xF8
04DCE:  MOVLW  7D
04DD0:  MOVWF  xF7
04DD2:  MOVLB  0
04DD4:  CALL   2A20
04DD8:  BTFSS  FD8.0
04DDA:  BRA    4FB2
....................       if(Tpulso<=6.0){ 
04DDC:  MOVFF  2F0,3F6
04DE0:  MOVFF  2EF,3F5
04DE4:  MOVFF  2EE,3F4
04DE8:  MOVFF  2ED,3F3
04DEC:  MOVLB  3
04DEE:  CLRF   xFA
04DF0:  CLRF   xF9
04DF2:  MOVLW  40
04DF4:  MOVWF  xF8
04DF6:  MOVLW  81
04DF8:  MOVWF  xF7
04DFA:  MOVLB  0
04DFC:  CALL   2A20
04E00:  BC    4E06
04E02:  BTFSS  FD8.2
04E04:  BRA    4FAE
....................          flagTC=1; 
04E06:  MOVLB  3
04E08:  BSF    x50.4
....................          if(TiempoControl>=Derivativo){ 
04E0A:  MOVF   x36,W
04E0C:  SUBWF  x88,W
04E0E:  BTFSS  FD8.0
04E10:  BRA    4FAA
....................             TiempoControl=0; 
04E12:  CLRF   x88
....................             if(Aumento2<-0.5){ 
04E14:  MOVFF  2D1,3F6
04E18:  MOVFF  2D0,3F5
04E1C:  MOVFF  2CF,3F4
04E20:  MOVFF  2CE,3F3
04E24:  CLRF   xFA
04E26:  CLRF   xF9
04E28:  MOVLW  80
04E2A:  MOVWF  xF8
04E2C:  MOVLW  7E
04E2E:  MOVWF  xF7
04E30:  MOVLB  0
04E32:  CALL   2A20
04E36:  BNC   4EA8
....................                Ganancia+=Integral+0.2; 
04E38:  MOVLB  4
04E3A:  CLRF   x05
04E3C:  MOVFF  335,404
04E40:  MOVLB  0
04E42:  CALL   17C2
04E46:  BCF    FD8.1
04E48:  MOVFF  03,407
04E4C:  MOVFF  02,406
04E50:  MOVFF  01,405
04E54:  MOVFF  00,404
04E58:  MOVLW  CD
04E5A:  MOVLB  4
04E5C:  MOVWF  x0B
04E5E:  MOVLW  CC
04E60:  MOVWF  x0A
04E62:  MOVLW  4C
04E64:  MOVWF  x09
04E66:  MOVLW  7C
04E68:  MOVWF  x08
04E6A:  MOVLB  0
04E6C:  CALL   19A6
04E70:  BCF    FD8.1
04E72:  MOVFF  304,407
04E76:  MOVFF  303,406
04E7A:  MOVFF  302,405
04E7E:  MOVFF  301,404
04E82:  MOVFF  03,40B
04E86:  MOVFF  02,40A
04E8A:  MOVFF  01,409
04E8E:  MOVFF  00,408
04E92:  CALL   19A6
04E96:  MOVFF  03,304
04E9A:  MOVFF  02,303
04E9E:  MOVFF  01,302
04EA2:  MOVFF  00,301
....................             }else{ 
04EA6:  BRA    4FA8
....................                if(Aumento2<-0.1){ 
04EA8:  MOVFF  2D1,3F6
04EAC:  MOVFF  2D0,3F5
04EB0:  MOVFF  2CF,3F4
04EB4:  MOVFF  2CE,3F3
04EB8:  MOVLW  CD
04EBA:  MOVLB  3
04EBC:  MOVWF  xFA
04EBE:  MOVLW  CC
04EC0:  MOVWF  xF9
04EC2:  MOVWF  xF8
04EC4:  MOVLW  7B
04EC6:  MOVWF  xF7
04EC8:  MOVLB  0
04ECA:  CALL   2A20
04ECE:  BNC   4F40
....................                   Ganancia+=Integral-0.2; 
04ED0:  MOVLB  4
04ED2:  CLRF   x05
04ED4:  MOVFF  335,404
04ED8:  MOVLB  0
04EDA:  CALL   17C2
04EDE:  BSF    FD8.1
04EE0:  MOVFF  03,407
04EE4:  MOVFF  02,406
04EE8:  MOVFF  01,405
04EEC:  MOVFF  00,404
04EF0:  MOVLW  CD
04EF2:  MOVLB  4
04EF4:  MOVWF  x0B
04EF6:  MOVLW  CC
04EF8:  MOVWF  x0A
04EFA:  MOVLW  4C
04EFC:  MOVWF  x09
04EFE:  MOVLW  7C
04F00:  MOVWF  x08
04F02:  MOVLB  0
04F04:  CALL   19A6
04F08:  BCF    FD8.1
04F0A:  MOVFF  304,407
04F0E:  MOVFF  303,406
04F12:  MOVFF  302,405
04F16:  MOVFF  301,404
04F1A:  MOVFF  03,40B
04F1E:  MOVFF  02,40A
04F22:  MOVFF  01,409
04F26:  MOVFF  00,408
04F2A:  CALL   19A6
04F2E:  MOVFF  03,304
04F32:  MOVFF  02,303
04F36:  MOVFF  01,302
04F3A:  MOVFF  00,301
....................                }else{ 
04F3E:  BRA    4FA8
....................                   Ganancia+=Integral-0.5; 
04F40:  MOVLB  4
04F42:  CLRF   x05
04F44:  MOVFF  335,404
04F48:  MOVLB  0
04F4A:  CALL   17C2
04F4E:  BSF    FD8.1
04F50:  MOVFF  03,407
04F54:  MOVFF  02,406
04F58:  MOVFF  01,405
04F5C:  MOVFF  00,404
04F60:  MOVLB  4
04F62:  CLRF   x0B
04F64:  CLRF   x0A
04F66:  CLRF   x09
04F68:  MOVLW  7E
04F6A:  MOVWF  x08
04F6C:  MOVLB  0
04F6E:  CALL   19A6
04F72:  BCF    FD8.1
04F74:  MOVFF  304,407
04F78:  MOVFF  303,406
04F7C:  MOVFF  302,405
04F80:  MOVFF  301,404
04F84:  MOVFF  03,40B
04F88:  MOVFF  02,40A
04F8C:  MOVFF  01,409
04F90:  MOVFF  00,408
04F94:  CALL   19A6
04F98:  MOVFF  03,304
04F9C:  MOVFF  02,303
04FA0:  MOVFF  01,302
04FA4:  MOVFF  00,301
04FA8:  MOVLB  3
....................                } 
....................             } 
....................          } 
....................       }else{ 
04FAA:  BRA    4FB2
04FAC:  MOVLB  0
....................          flagTC=0; 
04FAE:  MOVLB  3
04FB0:  BCF    x50.4
....................       } 
....................    } 
....................     
....................    if(error<-0.3) 
04FB2:  MOVFF  2F4,3F6
04FB6:  MOVFF  2F3,3F5
04FBA:  MOVFF  2F2,3F4
04FBE:  MOVFF  2F1,3F3
04FC2:  MOVLW  9A
04FC4:  MOVLB  3
04FC6:  MOVWF  xFA
04FC8:  MOVLW  99
04FCA:  MOVWF  xF9
04FCC:  MOVWF  xF8
04FCE:  MOVLW  7D
04FD0:  MOVWF  xF7
04FD2:  MOVLB  0
04FD4:  CALL   2A20
04FD8:  BNC   4FEA
....................       Ganancia=Ganancia2; 
04FDA:  MOVFF  308,304
04FDE:  MOVFF  307,303
04FE2:  MOVFF  306,302
04FE6:  MOVFF  305,301
....................     
....................    if(Ganancia<1) 
04FEA:  MOVFF  304,3F6
04FEE:  MOVFF  303,3F5
04FF2:  MOVFF  302,3F4
04FF6:  MOVFF  301,3F3
04FFA:  MOVLB  3
04FFC:  CLRF   xFA
04FFE:  CLRF   xF9
05000:  CLRF   xF8
05002:  MOVLW  7F
05004:  MOVWF  xF7
05006:  MOVLB  0
05008:  CALL   2A20
0500C:  BNC   501A
....................       Ganancia=1; 
0500E:  MOVLB  3
05010:  CLRF   x04
05012:  CLRF   x03
05014:  CLRF   x02
05016:  MOVLW  7F
05018:  MOVWF  x01
....................     
....................    if(error<0.0)     // Anti Wind_DOWN     
0501A:  MOVFF  2F4,3F6
0501E:  MOVFF  2F3,3F5
05022:  MOVFF  2F2,3F4
05026:  MOVFF  2F1,3F3
0502A:  MOVLB  3
0502C:  CLRF   xFA
0502E:  CLRF   xF9
05030:  CLRF   xF8
05032:  CLRF   xF7
05034:  MOVLB  0
05036:  CALL   2A20
0503A:  BNC   5048
....................       error=0.0; 
0503C:  MOVLB  2
0503E:  CLRF   xF4
05040:  CLRF   xF3
05042:  CLRF   xF2
05044:  CLRF   xF1
05046:  MOVLB  0
....................    //tmp=(Setpoint-Prom)*Ganancia;  // Control Proporcional. 
....................    tmp=error*Ganancia;  // Control Proporcional. 
05048:  MOVFF  2F4,40B
0504C:  MOVFF  2F3,40A
05050:  MOVFF  2F2,409
05054:  MOVFF  2F1,408
05058:  MOVFF  304,40F
0505C:  MOVFF  303,40E
05060:  MOVFF  302,40D
05064:  MOVFF  301,40C
05068:  CALL   3602
0506C:  MOVFF  03,300
05070:  MOVFF  02,2FF
05074:  MOVFF  01,2FE
05078:  MOVFF  00,2FD
....................           
....................    if(tmp>Setpoint)   // Anti Wind-UP       
0507C:  MOVLB  4
0507E:  CLRF   x05
05080:  MOVFF  362,404
05084:  MOVLB  0
05086:  CALL   17C2
0508A:  MOVFF  03,3F6
0508E:  MOVFF  02,3F5
05092:  MOVFF  01,3F4
05096:  MOVFF  00,3F3
0509A:  MOVFF  300,3FA
0509E:  MOVFF  2FF,3F9
050A2:  MOVFF  2FE,3F8
050A6:  MOVFF  2FD,3F7
050AA:  CALL   2A20
050AE:  BNC   50CE
....................       tmp=Setpoint; 
050B0:  MOVLB  4
050B2:  CLRF   x05
050B4:  MOVFF  362,404
050B8:  MOVLB  0
050BA:  CALL   17C2
050BE:  MOVFF  03,300
050C2:  MOVFF  02,2FF
050C6:  MOVFF  01,2FE
050CA:  MOVFF  00,2FD
....................                 
....................    if(tmp<0.0)     // Anti Wind_DOWN     
050CE:  MOVFF  300,3F6
050D2:  MOVFF  2FF,3F5
050D6:  MOVFF  2FE,3F4
050DA:  MOVFF  2FD,3F3
050DE:  MOVLB  3
050E0:  CLRF   xFA
050E2:  CLRF   xF9
050E4:  CLRF   xF8
050E6:  CLRF   xF7
050E8:  MOVLB  0
050EA:  CALL   2A20
050EE:  BNC   50FC
....................       tmp=0.0; 
050F0:  MOVLB  3
050F2:  CLRF   x00
050F4:  MOVLB  2
050F6:  CLRF   xFF
050F8:  CLRF   xFE
050FA:  CLRF   xFD
....................     
....................    // Tpulso(t)= Tciclo*(y(t)-ymin)/(ymax - ymin); calculo de ciclo util para control de resistencia.ymax=140.ymin=0; 
....................    // Tpulso es float, hay que pasar ese ciclo a una salida de un puerto usando el TMR1. 
....................    tmp2=(tmp/Setpoint); 
050FC:  MOVLB  4
050FE:  CLRF   x05
05100:  MOVFF  362,404
05104:  MOVLB  0
05106:  CALL   17C2
0510A:  MOVFF  300,3FB
0510E:  MOVFF  2FF,3FA
05112:  MOVFF  2FE,3F9
05116:  MOVFF  2FD,3F8
0511A:  MOVFF  03,3FF
0511E:  MOVFF  02,3FE
05122:  MOVFF  01,3FD
05126:  MOVFF  00,3FC
0512A:  CALL   17F8
0512E:  MOVFF  03,310
05132:  MOVFF  02,30F
05136:  MOVFF  01,30E
0513A:  MOVFF  00,30D
....................    //if(tmp2>0.8) 
....................    //tmp2=0.8; 
....................    Tpulso=tmp2*Tciclo;   
0513E:  MOVFF  310,40B
05142:  MOVFF  30F,40A
05146:  MOVFF  30E,409
0514A:  MOVFF  30D,408
0514E:  MOVFF  2EC,40F
05152:  MOVFF  2EB,40E
05156:  MOVFF  2EA,40D
0515A:  MOVFF  2E9,40C
0515E:  CALL   3602
05162:  MOVFF  03,2F0
05166:  MOVFF  02,2EF
0516A:  MOVFF  01,2EE
0516E:  MOVFF  00,2ED
....................                                        
....................    Tp=(Tpulso/0.005); 
05172:  MOVFF  2F0,3FB
05176:  MOVFF  2EF,3FA
0517A:  MOVFF  2EE,3F9
0517E:  MOVFF  2ED,3F8
05182:  MOVLW  0A
05184:  MOVLB  3
05186:  MOVWF  xFF
05188:  MOVLW  D7
0518A:  MOVWF  xFE
0518C:  MOVLW  23
0518E:  MOVWF  xFD
05190:  MOVLW  77
05192:  MOVWF  xFC
05194:  MOVLB  0
05196:  CALL   17F8
0519A:  MOVFF  03,407
0519E:  MOVFF  02,406
051A2:  MOVFF  01,405
051A6:  MOVFF  00,404
051AA:  CALL   3CB8
051AE:  MOVFF  02,AB
051B2:  MOVFF  01,AA
....................    Tc=(Tciclo/0.005); 
051B6:  MOVFF  2EC,3FB
051BA:  MOVFF  2EB,3FA
051BE:  MOVFF  2EA,3F9
051C2:  MOVFF  2E9,3F8
051C6:  MOVLW  0A
051C8:  MOVLB  3
051CA:  MOVWF  xFF
051CC:  MOVLW  D7
051CE:  MOVWF  xFE
051D0:  MOVLW  23
051D2:  MOVWF  xFD
051D4:  MOVLW  77
051D6:  MOVWF  xFC
051D8:  MOVLB  0
051DA:  CALL   17F8
051DE:  MOVFF  03,407
051E2:  MOVFF  02,406
051E6:  MOVFF  01,405
051EA:  MOVFF  00,404
051EE:  CALL   3CB8
051F2:  MOVFF  02,AD
051F6:  MOVFF  01,AC
....................    Controlando=1;    
051FA:  MOVLW  01
051FC:  MOVLB  3
051FE:  MOVWF  x53
.................... //--------------------------------------------------------------------------------------------------------------------//    
.................... } 
05200:  MOVLB  0
05202:  RETLW  00
....................  
.................... void Envio_I2C(direccion, posicion, dato){ 
....................  
....................    i2c_start();            // Comienzo comunicacin 
*
03EB4:  BSF    F94.4
03EB6:  MOVLW  05
03EB8:  MOVWF  00
03EBA:  DECFSZ 00,F
03EBC:  BRA    3EBA
03EBE:  BSF    F94.3
03EC0:  MOVLW  06
03EC2:  MOVWF  00
03EC4:  DECFSZ 00,F
03EC6:  BRA    3EC4
03EC8:  BCF    F8B.4
03ECA:  BCF    F94.4
03ECC:  MOVLW  05
03ECE:  MOVWF  00
03ED0:  DECFSZ 00,F
03ED2:  BRA    3ED0
03ED4:  BCF    F8B.3
03ED6:  BCF    F94.3
....................    i2c_write(direccion);   // Direccin del esclavo en el bus I2C 
03ED8:  MOVFF  405,408
03EDC:  RCALL  3E3E
....................    i2c_write(posicion);    // Posicin donde se guardara el dato transmitido 
03EDE:  MOVFF  406,408
03EE2:  RCALL  3E3E
....................    i2c_write(dato);        // Dato a transmitir 
03EE4:  MOVFF  407,408
03EE8:  RCALL  3E3E
....................    i2c_stop();             // Fin comunicacin 
03EEA:  BCF    F94.4
03EEC:  NOP   
03EEE:  BSF    F94.3
03EF0:  BTFSS  F82.3
03EF2:  BRA    3EF0
03EF4:  MOVLW  05
03EF6:  MOVWF  00
03EF8:  DECFSZ 00,F
03EFA:  BRA    3EF8
03EFC:  BRA    3EFE
03EFE:  NOP   
03F00:  BSF    F94.4
03F02:  MOVLW  05
03F04:  MOVWF  00
03F06:  DECFSZ 00,F
03F08:  BRA    3F06
....................  } 
03F0A:  GOTO   3F44 (RETURN)
....................  
.................... void Lectura_I2C (byte direccion, byte posicion, byte &dato) { 
....................  
....................    i2c_start();            // Comienzo de la comunicacin 
....................    i2c_write(direccion);   // Direccin del esclavo en el bus I2C 
....................    i2c_write(posicion);    // Posicin de donde se leer el dato en el esclavo 
....................    i2c_start();            // Reinicio 
....................    i2c_write(direccion+1); // Direccin del esclavo en modo lectura 
....................    dato=i2c_read(0);       // Lectura del dato 
....................    i2c_stop();             // Fin comunicacin 
.................... } 
....................  
.................... void Carga_Vector(void){ 
....................    SlaveA0Tx[0]=(int8)Temperatura; 
*
03CF4:  MOVFF  324,407
03CF8:  MOVFF  323,406
03CFC:  MOVFF  322,405
03D00:  MOVFF  321,404
03D04:  RCALL  3CB8
03D06:  MOVFF  01,64
....................    SlaveA0Tx[1]=(Temperatura-((int8)Temperatura))*10; 
03D0A:  MOVFF  324,407
03D0E:  MOVFF  323,406
03D12:  MOVFF  322,405
03D16:  MOVFF  321,404
03D1A:  RCALL  3CB8
03D1C:  MOVLB  4
03D1E:  CLRF   x05
03D20:  MOVFF  01,404
03D24:  MOVLB  0
03D26:  CALL   17C2
03D2A:  BSF    FD8.1
03D2C:  MOVFF  324,407
03D30:  MOVFF  323,406
03D34:  MOVFF  322,405
03D38:  MOVFF  321,404
03D3C:  MOVFF  03,40B
03D40:  MOVFF  02,40A
03D44:  MOVFF  01,409
03D48:  MOVFF  00,408
03D4C:  CALL   19A6
03D50:  MOVFF  00,404
03D54:  MOVFF  01,405
03D58:  MOVFF  02,406
03D5C:  MOVFF  03,407
03D60:  MOVFF  03,40B
03D64:  MOVFF  02,40A
03D68:  MOVFF  01,409
03D6C:  MOVFF  00,408
03D70:  MOVLB  4
03D72:  CLRF   x0F
03D74:  CLRF   x0E
03D76:  MOVLW  20
03D78:  MOVWF  x0D
03D7A:  MOVLW  82
03D7C:  MOVWF  x0C
03D7E:  MOVLB  0
03D80:  RCALL  3602
03D82:  MOVFF  03,407
03D86:  MOVFF  02,406
03D8A:  MOVFF  01,405
03D8E:  MOVFF  00,404
03D92:  RCALL  3CB8
03D94:  MOVFF  01,65
....................    SlaveA0Tx[2]=make8(PresionCamara,0); 
03D98:  MOVFF  374,66
03D9C:  MOVLB  0
....................    SlaveA0Tx[3]=make8(PresionCamara,1); 
03D9E:  MOVFF  375,67
03DA2:  MOVLB  0
....................    SlaveA0Tx[4]=make8(PresionPreCamara,0); 
03DA4:  MOVFF  376,68
03DA8:  MOVLB  0
....................    SlaveA0Tx[5]=make8(PresionPreCamara,1); 
03DAA:  MOVFF  377,69
03DAE:  MOVLB  0
....................    SlaveA0Tx[6]=(int8)Tpulso*10; 
03DB0:  MOVFF  2F0,407
03DB4:  MOVFF  2EF,406
03DB8:  MOVFF  2EE,405
03DBC:  MOVFF  2ED,404
03DC0:  RCALL  3CB8
03DC2:  MOVF   01,W
03DC4:  MULLW  0A
03DC6:  MOVFF  FF3,6A
....................    SlaveA0Tx[7]=HIG; 
03DCA:  BSF    F94.0
03DCC:  CLRF   x6B
03DCE:  BTFSC  F82.0
03DD0:  INCF   x6B,F
....................    SlaveA0Tx[8]=LOW; 
03DD2:  BSF    F94.1
03DD4:  CLRF   x6C
03DD6:  BTFSC  F82.1
03DD8:  INCF   x6C,F
....................    SlaveA0Tx[9]=TERM; 
03DDA:  BSF    F93.5
03DDC:  CLRF   x6D
03DDE:  BTFSS  F81.5
03DE0:  INCF   x6D,F
....................    SlaveA0Tx[10]=DOOR; 
03DE2:  BSF    F93.6
03DE4:  CLRF   x6E
03DE6:  BTFSS  F81.6
03DE8:  INCF   x6E,F
....................    SlaveA0Tx[11]=STOP; 
03DEA:  BSF    F93.7
03DEC:  CLRF   x6F
03DEE:  BTFSS  F81.7
03DF0:  INCF   x6F,F
....................    SlaveA0Tx[12]=(int8)error; 
03DF2:  MOVFF  2F4,407
03DF6:  MOVFF  2F3,406
03DFA:  MOVFF  2F2,405
03DFE:  MOVFF  2F1,404
03E02:  RCALL  3CB8
03E04:  MOVFF  01,70
....................    SlaveA0Tx[13]=CicloSeleccionado; 
03E08:  MOVFF  361,71
....................    SlaveA0Tx[14]=SetTime; 
03E0C:  MOVFF  3A3,72
....................    SlaveA0Tx[15]=Dia; 
03E10:  MOVFF  397,73
....................    SlaveA0Tx[16]=Mes; 
03E14:  MOVFF  396,74
....................    SlaveA0Tx[17]=Year; 
03E18:  MOVFF  395,75
....................    SlaveA0Tx[18]=Hora; 
03E1C:  MOVFF  398,76
....................    SlaveA0Tx[19]=Minuto; 
03E20:  MOVFF  399,77
....................    SlaveA0Tx[20]=Segundo; 
03E24:  MOVFF  39A,78
....................    SlaveA0Tx[21]=Imprime; 
03E28:  MOVFF  3A4,79
....................    SlaveA0Tx[22]=0; 
03E2C:  CLRF   x7A
....................    SlaveA0Tx[23]=make8(Ciclos,0); 
03E2E:  MOVFF  378,7B
03E32:  MOVLB  0
....................    SlaveA0Tx[24]=make8(Ciclos,1); 
03E34:  MOVFF  379,7C
03E38:  MOVLB  0
.................... } 
03E3A:  GOTO   3F10 (RETURN)
....................  
.................... void Lee_Vector(void){ 
....................    /*Dia=txbuf[0]; 
....................    Mess=txbuf[1]; 
....................    Year=txbuf[2]; 
....................    Hora=txbuf[3]; 
....................    Minuto=txbuf[4]; 
....................    Segundo=txbuf[5]; 
....................    dow=txbuf[6];*/ 
.................... } 
....................  
.................... void Envio_Esclavos(void){ 
....................    Carga_Vector(); 
*
03F0E:  BRA    3CF4
....................    for(i=0;i<25;i++) 
03F10:  MOVLB  3
03F12:  CLRF   x5E
03F14:  MOVF   x5E,W
03F16:  SUBLW  18
03F18:  BNC   3F4A
....................    { 
....................       direccion=0xB0; 
03F1A:  MOVLW  B0
03F1C:  MOVLB  0
03F1E:  MOVWF  x85
....................       Envio_I2C(direccion,i,SlaveA0Tx[i]); 
03F20:  CLRF   03
03F22:  MOVLB  3
03F24:  MOVF   x5E,W
03F26:  ADDLW  64
03F28:  MOVWF  FE9
03F2A:  MOVLW  00
03F2C:  ADDWFC 03,W
03F2E:  MOVWF  FEA
03F30:  MOVFF  FEF,404
03F34:  MOVFF  85,405
03F38:  MOVFF  35E,406
03F3C:  MOVFF  404,407
03F40:  MOVLB  0
03F42:  BRA    3EB4
....................    }  
03F44:  MOVLB  3
03F46:  INCF   x5E,F
03F48:  BRA    3F14
.................... } 
03F4A:  MOVLB  0
03F4C:  RETLW  00
.................... void Lectura_Esclavos(void){ 
....................    //for(i=0;i<7;i++) 
....................    //{ 
....................    //   direccion=0xA0;                        //Direccin en el bus I2c 
....................    //   posicion=i;                         //Posicin de memoria a leer 
....................    //   Lectura_I2C(direccion, posicion, dato);    //Lectura por I2C 
....................    //   txbuf[i]=(int8)dato; 
....................    //} 
....................    //Lee_Vector(); 
.................... } 
....................  
.................... void LeeEEPROM(){ 
.................... //Lectura EEPROM//-------------------------- 
....................    Testerilizacionp[0]=read_eeprom(0); 
*
01C1E:  MOVFF  FF2,3EF
01C22:  BCF    FF2.6
01C24:  BCF    FF2.7
01C26:  CLRF   FAA
01C28:  CLRF   FA9
01C2A:  BCF    FA6.6
01C2C:  BCF    FA6.7
01C2E:  BSF    FA6.0
01C30:  MOVF   FA8,W
01C32:  MOVLB  3
01C34:  BTFSC  xEF.6
01C36:  BSF    FF2.6
01C38:  BTFSC  xEF.7
01C3A:  BSF    FF2.7
01C3C:  MOVLB  0
01C3E:  MOVWF  xB5
....................    delay_ms(10); 
01C40:  MOVLW  0A
01C42:  MOVLB  4
01C44:  MOVWF  x04
01C46:  MOVLB  0
01C48:  RCALL  179C
....................    Testerilizacionp[1]=read_eeprom(1); 
01C4A:  MOVFF  FF2,3EF
01C4E:  BCF    FF2.6
01C50:  BCF    FF2.7
01C52:  CLRF   FAA
01C54:  MOVLW  01
01C56:  MOVWF  FA9
01C58:  BCF    FA6.6
01C5A:  BCF    FA6.7
01C5C:  BSF    FA6.0
01C5E:  MOVF   FA8,W
01C60:  MOVLB  3
01C62:  BTFSC  xEF.6
01C64:  BSF    FF2.6
01C66:  BTFSC  xEF.7
01C68:  BSF    FF2.7
01C6A:  MOVLB  0
01C6C:  MOVWF  xB6
....................    delay_ms(10); 
01C6E:  MOVLW  0A
01C70:  MOVLB  4
01C72:  MOVWF  x04
01C74:  MOVLB  0
01C76:  RCALL  179C
....................    Testerilizacionp[2]=read_eeprom(2); 
01C78:  MOVFF  FF2,3EF
01C7C:  BCF    FF2.6
01C7E:  BCF    FF2.7
01C80:  CLRF   FAA
01C82:  MOVLW  02
01C84:  MOVWF  FA9
01C86:  BCF    FA6.6
01C88:  BCF    FA6.7
01C8A:  BSF    FA6.0
01C8C:  MOVF   FA8,W
01C8E:  MOVLB  3
01C90:  BTFSC  xEF.6
01C92:  BSF    FF2.6
01C94:  BTFSC  xEF.7
01C96:  BSF    FF2.7
01C98:  MOVLB  0
01C9A:  MOVWF  xB7
....................    delay_ms(10); 
01C9C:  MOVLW  0A
01C9E:  MOVLB  4
01CA0:  MOVWF  x04
01CA2:  MOVLB  0
01CA4:  RCALL  179C
....................    Testerilizacionp[3]=read_eeprom(3); 
01CA6:  MOVFF  FF2,3EF
01CAA:  BCF    FF2.6
01CAC:  BCF    FF2.7
01CAE:  CLRF   FAA
01CB0:  MOVLW  03
01CB2:  MOVWF  FA9
01CB4:  BCF    FA6.6
01CB6:  BCF    FA6.7
01CB8:  BSF    FA6.0
01CBA:  MOVF   FA8,W
01CBC:  MOVLB  3
01CBE:  BTFSC  xEF.6
01CC0:  BSF    FF2.6
01CC2:  BTFSC  xEF.7
01CC4:  BSF    FF2.7
01CC6:  MOVLB  0
01CC8:  MOVWF  xB8
....................    delay_ms(10); 
01CCA:  MOVLW  0A
01CCC:  MOVLB  4
01CCE:  MOVWF  x04
01CD0:  MOVLB  0
01CD2:  RCALL  179C
....................    Tsecadop[0]=read_eeprom(4); 
01CD4:  MOVFF  FF2,3EF
01CD8:  BCF    FF2.6
01CDA:  BCF    FF2.7
01CDC:  CLRF   FAA
01CDE:  MOVLW  04
01CE0:  MOVWF  FA9
01CE2:  BCF    FA6.6
01CE4:  BCF    FA6.7
01CE6:  BSF    FA6.0
01CE8:  MOVF   FA8,W
01CEA:  MOVLB  3
01CEC:  BTFSC  xEF.6
01CEE:  BSF    FF2.6
01CF0:  BTFSC  xEF.7
01CF2:  BSF    FF2.7
01CF4:  MOVLB  0
01CF6:  MOVWF  xBE
....................    delay_ms(10); 
01CF8:  MOVLW  0A
01CFA:  MOVLB  4
01CFC:  MOVWF  x04
01CFE:  MOVLB  0
01D00:  RCALL  179C
....................    Tsecadop[1]=read_eeprom(5); 
01D02:  MOVFF  FF2,3EF
01D06:  BCF    FF2.6
01D08:  BCF    FF2.7
01D0A:  CLRF   FAA
01D0C:  MOVLW  05
01D0E:  MOVWF  FA9
01D10:  BCF    FA6.6
01D12:  BCF    FA6.7
01D14:  BSF    FA6.0
01D16:  MOVF   FA8,W
01D18:  MOVLB  3
01D1A:  BTFSC  xEF.6
01D1C:  BSF    FF2.6
01D1E:  BTFSC  xEF.7
01D20:  BSF    FF2.7
01D22:  MOVLB  0
01D24:  MOVWF  xBF
....................    delay_ms(10); 
01D26:  MOVLW  0A
01D28:  MOVLB  4
01D2A:  MOVWF  x04
01D2C:  MOVLB  0
01D2E:  RCALL  179C
....................    Tsecadop[2]=read_eeprom(6); 
01D30:  MOVFF  FF2,3EF
01D34:  BCF    FF2.6
01D36:  BCF    FF2.7
01D38:  CLRF   FAA
01D3A:  MOVLW  06
01D3C:  MOVWF  FA9
01D3E:  BCF    FA6.6
01D40:  BCF    FA6.7
01D42:  BSF    FA6.0
01D44:  MOVF   FA8,W
01D46:  MOVLB  3
01D48:  BTFSC  xEF.6
01D4A:  BSF    FF2.6
01D4C:  BTFSC  xEF.7
01D4E:  BSF    FF2.7
01D50:  MOVLB  0
01D52:  MOVWF  xC0
....................    delay_ms(10); 
01D54:  MOVLW  0A
01D56:  MOVLB  4
01D58:  MOVWF  x04
01D5A:  MOVLB  0
01D5C:  RCALL  179C
....................    Tsecadop[3]=read_eeprom(7); 
01D5E:  MOVFF  FF2,3EF
01D62:  BCF    FF2.6
01D64:  BCF    FF2.7
01D66:  CLRF   FAA
01D68:  MOVLW  07
01D6A:  MOVWF  FA9
01D6C:  BCF    FA6.6
01D6E:  BCF    FA6.7
01D70:  BSF    FA6.0
01D72:  MOVF   FA8,W
01D74:  MOVLB  3
01D76:  BTFSC  xEF.6
01D78:  BSF    FF2.6
01D7A:  BTFSC  xEF.7
01D7C:  BSF    FF2.7
01D7E:  MOVLB  0
01D80:  MOVWF  xC1
....................    delay_ms(10); 
01D82:  MOVLW  0A
01D84:  MOVLB  4
01D86:  MOVWF  x04
01D88:  MOVLB  0
01D8A:  RCALL  179C
....................    Setpoint=read_eeprom(8); 
01D8C:  MOVFF  FF2,3EF
01D90:  BCF    FF2.6
01D92:  BCF    FF2.7
01D94:  CLRF   FAA
01D96:  MOVLW  08
01D98:  MOVWF  FA9
01D9A:  BCF    FA6.6
01D9C:  BCF    FA6.7
01D9E:  BSF    FA6.0
01DA0:  MOVF   FA8,W
01DA2:  MOVLB  3
01DA4:  BTFSC  xEF.6
01DA6:  BSF    FF2.6
01DA8:  BTFSC  xEF.7
01DAA:  BSF    FF2.7
01DAC:  MOVWF  x62
....................    delay_ms(10); 
01DAE:  MOVLW  0A
01DB0:  MOVLB  4
01DB2:  MOVWF  x04
01DB4:  MOVLB  0
01DB6:  RCALL  179C
....................    Nivel=read_eeprom(9); 
01DB8:  MOVFF  FF2,3EF
01DBC:  BCF    FF2.6
01DBE:  BCF    FF2.7
01DC0:  CLRF   FAA
01DC2:  MOVLW  09
01DC4:  MOVWF  FA9
01DC6:  BCF    FA6.6
01DC8:  BCF    FA6.7
01DCA:  BSF    FA6.0
01DCC:  MOVF   FA8,W
01DCE:  MOVLB  3
01DD0:  BTFSC  xEF.6
01DD2:  BSF    FF2.6
01DD4:  BTFSC  xEF.7
01DD6:  BSF    FF2.7
01DD8:  CLRF   x71
01DDA:  MOVWF  x70
....................    delay_ms(10); 
01DDC:  MOVLW  0A
01DDE:  MOVLB  4
01DE0:  MOVWF  x04
01DE2:  MOVLB  0
01DE4:  RCALL  179C
....................    Password[0]=read_eeprom(10); 
01DE6:  MOVFF  FF2,3EF
01DEA:  BCF    FF2.6
01DEC:  BCF    FF2.7
01DEE:  CLRF   FAA
01DF0:  MOVLW  0A
01DF2:  MOVWF  FA9
01DF4:  BCF    FA6.6
01DF6:  BCF    FA6.7
01DF8:  BSF    FA6.0
01DFA:  MOVF   FA8,W
01DFC:  MOVLB  3
01DFE:  BTFSC  xEF.6
01E00:  BSF    FF2.6
01E02:  BTFSC  xEF.7
01E04:  BSF    FF2.7
01E06:  MOVWF  x80
....................    delay_ms(10); 
01E08:  MOVLW  0A
01E0A:  MOVLB  4
01E0C:  MOVWF  x04
01E0E:  MOVLB  0
01E10:  RCALL  179C
....................    Password[1]=read_eeprom(11); 
01E12:  MOVFF  FF2,3EF
01E16:  BCF    FF2.6
01E18:  BCF    FF2.7
01E1A:  CLRF   FAA
01E1C:  MOVLW  0B
01E1E:  MOVWF  FA9
01E20:  BCF    FA6.6
01E22:  BCF    FA6.7
01E24:  BSF    FA6.0
01E26:  MOVF   FA8,W
01E28:  MOVLB  3
01E2A:  BTFSC  xEF.6
01E2C:  BSF    FF2.6
01E2E:  BTFSC  xEF.7
01E30:  BSF    FF2.7
01E32:  MOVWF  x81
....................    delay_ms(10); 
01E34:  MOVLW  0A
01E36:  MOVLB  4
01E38:  MOVWF  x04
01E3A:  MOVLB  0
01E3C:  RCALL  179C
....................    Password[2]=read_eeprom(12); 
01E3E:  MOVFF  FF2,3EF
01E42:  BCF    FF2.6
01E44:  BCF    FF2.7
01E46:  CLRF   FAA
01E48:  MOVLW  0C
01E4A:  MOVWF  FA9
01E4C:  BCF    FA6.6
01E4E:  BCF    FA6.7
01E50:  BSF    FA6.0
01E52:  MOVF   FA8,W
01E54:  MOVLB  3
01E56:  BTFSC  xEF.6
01E58:  BSF    FF2.6
01E5A:  BTFSC  xEF.7
01E5C:  BSF    FF2.7
01E5E:  MOVWF  x82
....................    delay_ms(10); 
01E60:  MOVLW  0A
01E62:  MOVLB  4
01E64:  MOVWF  x04
01E66:  MOVLB  0
01E68:  RCALL  179C
....................    Password[3]=read_eeprom(13); 
01E6A:  MOVFF  FF2,3EF
01E6E:  BCF    FF2.6
01E70:  BCF    FF2.7
01E72:  CLRF   FAA
01E74:  MOVLW  0D
01E76:  MOVWF  FA9
01E78:  BCF    FA6.6
01E7A:  BCF    FA6.7
01E7C:  BSF    FA6.0
01E7E:  MOVF   FA8,W
01E80:  MOVLB  3
01E82:  BTFSC  xEF.6
01E84:  BSF    FF2.6
01E86:  BTFSC  xEF.7
01E88:  BSF    FF2.7
01E8A:  MOVWF  x83
....................    delay_ms(10); 
01E8C:  MOVLW  0A
01E8E:  MOVLB  4
01E90:  MOVWF  x04
01E92:  MOVLB  0
01E94:  RCALL  179C
....................    Ganancia=read_eeprom(20); 
01E96:  MOVFF  FF2,3EF
01E9A:  BCF    FF2.6
01E9C:  BCF    FF2.7
01E9E:  CLRF   FAA
01EA0:  MOVLW  14
01EA2:  MOVWF  FA9
01EA4:  BCF    FA6.6
01EA6:  BCF    FA6.7
01EA8:  BSF    FA6.0
01EAA:  MOVF   FA8,W
01EAC:  MOVLB  3
01EAE:  BTFSC  xEF.6
01EB0:  BSF    FF2.6
01EB2:  BTFSC  xEF.7
01EB4:  BSF    FF2.7
01EB6:  MOVLB  4
01EB8:  CLRF   x05
01EBA:  MOVWF  x04
01EBC:  MOVLB  0
01EBE:  RCALL  17C2
01EC0:  MOVFF  03,304
01EC4:  MOVFF  02,303
01EC8:  MOVFF  01,302
01ECC:  MOVFF  00,301
....................    delay_ms(10); 
01ED0:  MOVLW  0A
01ED2:  MOVLB  4
01ED4:  MOVWF  x04
01ED6:  MOVLB  0
01ED8:  RCALL  179C
....................    Ajuste=read_eeprom(21); 
01EDA:  MOVFF  FF2,3EF
01EDE:  BCF    FF2.6
01EE0:  BCF    FF2.7
01EE2:  CLRF   FAA
01EE4:  MOVLW  15
01EE6:  MOVWF  FA9
01EE8:  BCF    FA6.6
01EEA:  BCF    FA6.7
01EEC:  BSF    FA6.0
01EEE:  MOVF   FA8,W
01EF0:  MOVLB  3
01EF2:  BTFSC  xEF.6
01EF4:  BSF    FF2.6
01EF6:  BTFSC  xEF.7
01EF8:  BSF    FF2.7
01EFA:  MOVLB  2
01EFC:  MOVWF  xD8
....................    delay_ms(10); 
01EFE:  MOVLW  0A
01F00:  MOVLB  4
01F02:  MOVWF  x04
01F04:  MOVLB  0
01F06:  RCALL  179C
....................    Ajusten=read_eeprom(22); 
01F08:  MOVFF  FF2,3EF
01F0C:  BCF    FF2.6
01F0E:  BCF    FF2.7
01F10:  CLRF   FAA
01F12:  MOVLW  16
01F14:  MOVWF  FA9
01F16:  BCF    FA6.6
01F18:  BCF    FA6.7
01F1A:  BSF    FA6.0
01F1C:  MOVF   FA8,W
01F1E:  MOVLB  3
01F20:  BTFSC  xEF.6
01F22:  BSF    FF2.6
01F24:  BTFSC  xEF.7
01F26:  BSF    FF2.7
01F28:  MOVLB  2
01F2A:  MOVWF  xD9
....................    delay_ms(10); 
01F2C:  MOVLW  0A
01F2E:  MOVLB  4
01F30:  MOVWF  x04
01F32:  MOVLB  0
01F34:  RCALL  179C
....................    //Desvio=read_eeprom(23); 
....................    MediaMovil=read_eeprom(24); 
01F36:  MOVFF  FF2,3EF
01F3A:  BCF    FF2.6
01F3C:  BCF    FF2.7
01F3E:  CLRF   FAA
01F40:  MOVLW  18
01F42:  MOVWF  FA9
01F44:  BCF    FA6.6
01F46:  BCF    FA6.7
01F48:  BSF    FA6.0
01F4A:  MOVF   FA8,W
01F4C:  MOVLB  3
01F4E:  BTFSC  xEF.6
01F50:  BSF    FF2.6
01F52:  BTFSC  xEF.7
01F54:  BSF    FF2.7
01F56:  MOVLB  2
01F58:  MOVWF  xDA
....................    delay_ms(10); 
01F5A:  MOVLW  0A
01F5C:  MOVLB  4
01F5E:  MOVWF  x04
01F60:  MOVLB  0
01F62:  RCALL  179C
....................    Tciclo=read_eeprom(25); 
01F64:  MOVFF  FF2,3EF
01F68:  BCF    FF2.6
01F6A:  BCF    FF2.7
01F6C:  CLRF   FAA
01F6E:  MOVLW  19
01F70:  MOVWF  FA9
01F72:  BCF    FA6.6
01F74:  BCF    FA6.7
01F76:  BSF    FA6.0
01F78:  MOVF   FA8,W
01F7A:  MOVLB  3
01F7C:  BTFSC  xEF.6
01F7E:  BSF    FF2.6
01F80:  BTFSC  xEF.7
01F82:  BSF    FF2.7
01F84:  MOVLB  4
01F86:  CLRF   x05
01F88:  MOVWF  x04
01F8A:  MOVLB  0
01F8C:  RCALL  17C2
01F8E:  MOVFF  03,2EC
01F92:  MOVFF  02,2EB
01F96:  MOVFF  01,2EA
01F9A:  MOVFF  00,2E9
....................    delay_ms(10); 
01F9E:  MOVLW  0A
01FA0:  MOVLB  4
01FA2:  MOVWF  x04
01FA4:  MOVLB  0
01FA6:  CALL   179C
....................    Integral=read_eeprom(26); 
01FAA:  MOVFF  FF2,3EF
01FAE:  BCF    FF2.6
01FB0:  BCF    FF2.7
01FB2:  CLRF   FAA
01FB4:  MOVLW  1A
01FB6:  MOVWF  FA9
01FB8:  BCF    FA6.6
01FBA:  BCF    FA6.7
01FBC:  BSF    FA6.0
01FBE:  MOVF   FA8,W
01FC0:  MOVLB  3
01FC2:  BTFSC  xEF.6
01FC4:  BSF    FF2.6
01FC6:  BTFSC  xEF.7
01FC8:  BSF    FF2.7
01FCA:  MOVWF  x35
....................    delay_ms(10); 
01FCC:  MOVLW  0A
01FCE:  MOVLB  4
01FD0:  MOVWF  x04
01FD2:  MOVLB  0
01FD4:  CALL   179C
....................    Derivativo=read_eeprom(27); 
01FD8:  MOVFF  FF2,3EF
01FDC:  BCF    FF2.6
01FDE:  BCF    FF2.7
01FE0:  CLRF   FAA
01FE2:  MOVLW  1B
01FE4:  MOVWF  FA9
01FE6:  BCF    FA6.6
01FE8:  BCF    FA6.7
01FEA:  BSF    FA6.0
01FEC:  MOVF   FA8,W
01FEE:  MOVLB  3
01FF0:  BTFSC  xEF.6
01FF2:  BSF    FF2.6
01FF4:  BTFSC  xEF.7
01FF6:  BSF    FF2.7
01FF8:  MOVWF  x36
....................    delay_ms(10); 
01FFA:  MOVLW  0A
01FFC:  MOVLB  4
01FFE:  MOVWF  x04
02000:  MOVLB  0
02002:  CALL   179C
....................    Temporal=read_eeprom(29); 
02006:  MOVFF  FF2,3EF
0200A:  BCF    FF2.6
0200C:  BCF    FF2.7
0200E:  CLRF   FAA
02010:  MOVLW  1D
02012:  MOVWF  FA9
02014:  BCF    FA6.6
02016:  BCF    FA6.7
02018:  BSF    FA6.0
0201A:  MOVF   FA8,W
0201C:  MOVLB  3
0201E:  BTFSC  xEF.6
02020:  BSF    FF2.6
02022:  BTFSC  xEF.7
02024:  BSF    FF2.7
02026:  MOVLB  4
02028:  CLRF   x05
0202A:  MOVWF  x04
0202C:  MOVLB  0
0202E:  CALL   17C2
02032:  MOVFF  03,2AD
02036:  MOVFF  02,2AC
0203A:  MOVFF  01,2AB
0203E:  MOVFF  00,2AA
....................    Temporal=Temporal/10.0; 
02042:  MOVFF  2AD,3FB
02046:  MOVFF  2AC,3FA
0204A:  MOVFF  2AB,3F9
0204E:  MOVFF  2AA,3F8
02052:  MOVLB  3
02054:  CLRF   xFF
02056:  CLRF   xFE
02058:  MOVLW  20
0205A:  MOVWF  xFD
0205C:  MOVLW  82
0205E:  MOVWF  xFC
02060:  MOVLB  0
02062:  CALL   17F8
02066:  MOVFF  03,2AD
0206A:  MOVFF  02,2AC
0206E:  MOVFF  01,2AB
02072:  MOVFF  00,2AA
....................    delay_ms(10); 
02076:  MOVLW  0A
02078:  MOVLB  4
0207A:  MOVWF  x04
0207C:  MOVLB  0
0207E:  CALL   179C
....................    Gain=read_eeprom(28)+Temporal; 
02082:  MOVFF  FF2,3EF
02086:  BCF    FF2.6
02088:  BCF    FF2.7
0208A:  CLRF   FAA
0208C:  MOVLW  1C
0208E:  MOVWF  FA9
02090:  BCF    FA6.6
02092:  BCF    FA6.7
02094:  BSF    FA6.0
02096:  MOVF   FA8,W
02098:  MOVLB  3
0209A:  BTFSC  xEF.6
0209C:  BSF    FF2.6
0209E:  BTFSC  xEF.7
020A0:  BSF    FF2.7
020A2:  MOVLB  4
020A4:  CLRF   x05
020A6:  MOVWF  x04
020A8:  MOVLB  0
020AA:  CALL   17C2
020AE:  BCF    FD8.1
020B0:  MOVFF  03,407
020B4:  MOVFF  02,406
020B8:  MOVFF  01,405
020BC:  MOVFF  00,404
020C0:  MOVFF  2AD,40B
020C4:  MOVFF  2AC,40A
020C8:  MOVFF  2AB,409
020CC:  MOVFF  2AA,408
020D0:  RCALL  19A6
020D2:  MOVFF  03,2A5
020D6:  MOVFF  02,2A4
020DA:  MOVFF  01,2A3
020DE:  MOVFF  00,2A2
....................    delay_ms(10); 
020E2:  MOVLW  0A
020E4:  MOVLB  4
020E6:  MOVWF  x04
020E8:  MOVLB  0
020EA:  CALL   179C
....................    R1=make16(read_eeprom(31),read_eeprom(30)); 
020EE:  MOVFF  FF2,3EF
020F2:  BCF    FF2.6
020F4:  BCF    FF2.7
020F6:  CLRF   FAA
020F8:  MOVLW  1F
020FA:  MOVWF  FA9
020FC:  BCF    FA6.6
020FE:  BCF    FA6.7
02100:  BSF    FA6.0
02102:  MOVF   FA8,W
02104:  MOVLB  3
02106:  BTFSC  xEF.6
02108:  BSF    FF2.6
0210A:  BTFSC  xEF.7
0210C:  BSF    FF2.7
0210E:  MOVWF  xF0
02110:  MOVFF  FF2,3F1
02114:  BCF    FF2.6
02116:  BCF    FF2.7
02118:  CLRF   FAA
0211A:  MOVLW  1E
0211C:  MOVWF  FA9
0211E:  BCF    FA6.6
02120:  BCF    FA6.7
02122:  BSF    FA6.0
02124:  MOVF   FA8,W
02126:  BTFSC  xF1.6
02128:  BSF    FF2.6
0212A:  BTFSC  xF1.7
0212C:  BSF    FF2.7
0212E:  MOVWF  xF2
02130:  MOVFF  3F0,03
02134:  MOVF   xF2,W
02136:  MOVLB  4
02138:  MOVWF  x04
0213A:  MOVFF  03,405
0213E:  MOVLB  0
02140:  CALL   17C2
02144:  MOVFF  03,2B1
02148:  MOVFF  02,2B0
0214C:  MOVFF  01,2AF
02150:  MOVFF  00,2AE
....................    delay_ms(10); 
02154:  MOVLW  0A
02156:  MOVLB  4
02158:  MOVWF  x04
0215A:  MOVLB  0
0215C:  CALL   179C
....................    Temporal=read_eeprom(33); 
02160:  MOVFF  FF2,3EF
02164:  BCF    FF2.6
02166:  BCF    FF2.7
02168:  CLRF   FAA
0216A:  MOVLW  21
0216C:  MOVWF  FA9
0216E:  BCF    FA6.6
02170:  BCF    FA6.7
02172:  BSF    FA6.0
02174:  MOVF   FA8,W
02176:  MOVLB  3
02178:  BTFSC  xEF.6
0217A:  BSF    FF2.6
0217C:  BTFSC  xEF.7
0217E:  BSF    FF2.7
02180:  MOVLB  4
02182:  CLRF   x05
02184:  MOVWF  x04
02186:  MOVLB  0
02188:  CALL   17C2
0218C:  MOVFF  03,2AD
02190:  MOVFF  02,2AC
02194:  MOVFF  01,2AB
02198:  MOVFF  00,2AA
....................    Temporal=Temporal/10.0; 
0219C:  MOVFF  2AD,3FB
021A0:  MOVFF  2AC,3FA
021A4:  MOVFF  2AB,3F9
021A8:  MOVFF  2AA,3F8
021AC:  MOVLB  3
021AE:  CLRF   xFF
021B0:  CLRF   xFE
021B2:  MOVLW  20
021B4:  MOVWF  xFD
021B6:  MOVLW  82
021B8:  MOVWF  xFC
021BA:  MOVLB  0
021BC:  CALL   17F8
021C0:  MOVFF  03,2AD
021C4:  MOVFF  02,2AC
021C8:  MOVFF  01,2AB
021CC:  MOVFF  00,2AA
....................    delay_ms(10); 
021D0:  MOVLW  0A
021D2:  MOVLB  4
021D4:  MOVWF  x04
021D6:  MOVLB  0
021D8:  CALL   179C
....................    RPT100=read_eeprom(32)+Temporal; 
021DC:  MOVFF  FF2,3EF
021E0:  BCF    FF2.6
021E2:  BCF    FF2.7
021E4:  CLRF   FAA
021E6:  MOVLW  20
021E8:  MOVWF  FA9
021EA:  BCF    FA6.6
021EC:  BCF    FA6.7
021EE:  BSF    FA6.0
021F0:  MOVF   FA8,W
021F2:  MOVLB  3
021F4:  BTFSC  xEF.6
021F6:  BSF    FF2.6
021F8:  BTFSC  xEF.7
021FA:  BSF    FF2.7
021FC:  MOVLB  4
021FE:  CLRF   x05
02200:  MOVWF  x04
02202:  MOVLB  0
02204:  CALL   17C2
02208:  BCF    FD8.1
0220A:  MOVFF  03,407
0220E:  MOVFF  02,406
02212:  MOVFF  01,405
02216:  MOVFF  00,404
0221A:  MOVFF  2AD,40B
0221E:  MOVFF  2AC,40A
02222:  MOVFF  2AB,409
02226:  MOVFF  2AA,408
0222A:  CALL   19A6
0222E:  MOVFF  03,2A9
02232:  MOVFF  02,2A8
02236:  MOVFF  01,2A7
0223A:  MOVFF  00,2A6
....................    delay_ms(10); 
0223E:  MOVLW  0A
02240:  MOVLB  4
02242:  MOVWF  x04
02244:  MOVLB  0
02246:  CALL   179C
....................    CiclosL=read_eeprom(37); 
0224A:  MOVFF  FF2,3EF
0224E:  BCF    FF2.6
02250:  BCF    FF2.7
02252:  CLRF   FAA
02254:  MOVLW  25
02256:  MOVWF  FA9
02258:  BCF    FA6.6
0225A:  BCF    FA6.7
0225C:  BSF    FA6.0
0225E:  MOVF   FA8,W
02260:  MOVLB  3
02262:  BTFSC  xEF.6
02264:  BSF    FF2.6
02266:  BTFSC  xEF.7
02268:  BSF    FF2.7
0226A:  MOVWF  x5F
....................    delay_ms(10); 
0226C:  MOVLW  0A
0226E:  MOVLB  4
02270:  MOVWF  x04
02272:  MOVLB  0
02274:  CALL   179C
....................    CiclosH=read_eeprom(38); 
02278:  MOVFF  FF2,3EF
0227C:  BCF    FF2.6
0227E:  BCF    FF2.7
02280:  CLRF   FAA
02282:  MOVLW  26
02284:  MOVWF  FA9
02286:  BCF    FA6.6
02288:  BCF    FA6.7
0228A:  BSF    FA6.0
0228C:  MOVF   FA8,W
0228E:  MOVLB  3
02290:  BTFSC  xEF.6
02292:  BSF    FF2.6
02294:  BTFSC  xEF.7
02296:  BSF    FF2.7
02298:  MOVWF  x60
....................    delay_ms(10); 
0229A:  MOVLW  0A
0229C:  MOVLB  4
0229E:  MOVWF  x04
022A0:  MOVLB  0
022A2:  CALL   179C
....................    Ciclos=make16(CiclosH,CiclosL); 
022A6:  MOVFF  360,379
022AA:  MOVFF  35F,378
....................    delay_ms(10); 
022AE:  MOVLW  0A
022B0:  MOVLB  4
022B2:  MOVWF  x04
022B4:  MOVLB  0
022B6:  CALL   179C
....................    TTrampa=read_eeprom(39); 
022BA:  MOVFF  FF2,3EF
022BE:  BCF    FF2.6
022C0:  BCF    FF2.7
022C2:  CLRF   FAA
022C4:  MOVLW  27
022C6:  MOVWF  FA9
022C8:  BCF    FA6.6
022CA:  BCF    FA6.7
022CC:  BSF    FA6.0
022CE:  MOVF   FA8,W
022D0:  MOVLB  3
022D2:  BTFSC  xEF.6
022D4:  BSF    FF2.6
022D6:  BTFSC  xEF.7
022D8:  BSF    FF2.7
022DA:  MOVLB  2
022DC:  MOVWF  xDB
....................    delay_ms(10); 
022DE:  MOVLW  0A
022E0:  MOVLB  4
022E2:  MOVWF  x04
022E4:  MOVLB  0
022E6:  CALL   179C
....................    ActivaImpresion=read_eeprom(40); 
022EA:  MOVFF  FF2,3EF
022EE:  BCF    FF2.6
022F0:  BCF    FF2.7
022F2:  CLRF   FAA
022F4:  MOVLW  28
022F6:  MOVWF  FA9
022F8:  BCF    FA6.6
022FA:  BCF    FA6.7
022FC:  BSF    FA6.0
022FE:  MOVF   FA8,W
02300:  MOVLB  3
02302:  BTFSC  xEF.6
02304:  BSF    FF2.6
02306:  BTFSC  xEF.7
02308:  BSF    FF2.7
0230A:  MOVWF  x54
....................    delay_ms(10); 
0230C:  MOVLW  0A
0230E:  MOVLB  4
02310:  MOVWF  x04
02312:  MOVLB  0
02314:  CALL   179C
....................    timpresion=read_eeprom(41); 
02318:  MOVFF  FF2,3EF
0231C:  BCF    FF2.6
0231E:  BCF    FF2.7
02320:  CLRF   FAA
02322:  MOVLW  29
02324:  MOVWF  FA9
02326:  BCF    FA6.6
02328:  BCF    FA6.7
0232A:  BSF    FA6.0
0232C:  MOVF   FA8,W
0232E:  MOVLB  3
02330:  BTFSC  xEF.6
02332:  BSF    FF2.6
02334:  BTFSC  xEF.7
02336:  BSF    FF2.7
02338:  MOVWF  x55
....................    delay_ms(10); 
0233A:  MOVLW  0A
0233C:  MOVLB  4
0233E:  MOVWF  x04
02340:  MOVLB  0
02342:  CALL   179C
....................    G1=read_eeprom(42); 
02346:  MOVFF  FF2,3EF
0234A:  BCF    FF2.6
0234C:  BCF    FF2.7
0234E:  CLRF   FAA
02350:  MOVLW  2A
02352:  MOVWF  FA9
02354:  BCF    FA6.6
02356:  BCF    FA6.7
02358:  BSF    FA6.0
0235A:  MOVF   FA8,W
0235C:  MOVLB  3
0235E:  BTFSC  xEF.6
02360:  BSF    FF2.6
02362:  BTFSC  xEF.7
02364:  BSF    FF2.7
02366:  MOVWF  xA5
....................    delay_ms(10); 
02368:  MOVLW  0A
0236A:  MOVLB  4
0236C:  MOVWF  x04
0236E:  MOVLB  0
02370:  CALL   179C
....................    G2=read_eeprom(43); 
02374:  MOVFF  FF2,3EF
02378:  BCF    FF2.6
0237A:  BCF    FF2.7
0237C:  CLRF   FAA
0237E:  MOVLW  2B
02380:  MOVWF  FA9
02382:  BCF    FA6.6
02384:  BCF    FA6.7
02386:  BSF    FA6.0
02388:  MOVF   FA8,W
0238A:  MOVLB  3
0238C:  BTFSC  xEF.6
0238E:  BSF    FF2.6
02390:  BTFSC  xEF.7
02392:  BSF    FF2.7
02394:  MOVWF  xA6
....................    delay_ms(10); 
02396:  MOVLW  0A
02398:  MOVLB  4
0239A:  MOVWF  x04
0239C:  MOVLB  0
0239E:  CALL   179C
....................    sg1=read_eeprom(44); 
023A2:  MOVFF  FF2,3EF
023A6:  BCF    FF2.6
023A8:  BCF    FF2.7
023AA:  CLRF   FAA
023AC:  MOVLW  2C
023AE:  MOVWF  FA9
023B0:  BCF    FA6.6
023B2:  BCF    FA6.7
023B4:  BSF    FA6.0
023B6:  MOVF   FA8,W
023B8:  MOVLB  3
023BA:  BTFSC  xEF.6
023BC:  BSF    FF2.6
023BE:  BTFSC  xEF.7
023C0:  BSF    FF2.7
023C2:  MOVWF  xA7
....................    delay_ms(10); 
023C4:  MOVLW  0A
023C6:  MOVLB  4
023C8:  MOVWF  x04
023CA:  MOVLB  0
023CC:  CALL   179C
....................    sg2=read_eeprom(45); 
023D0:  MOVFF  FF2,3EF
023D4:  BCF    FF2.6
023D6:  BCF    FF2.7
023D8:  CLRF   FAA
023DA:  MOVLW  2D
023DC:  MOVWF  FA9
023DE:  BCF    FA6.6
023E0:  BCF    FA6.7
023E2:  BSF    FA6.0
023E4:  MOVF   FA8,W
023E6:  MOVLB  3
023E8:  BTFSC  xEF.6
023EA:  BSF    FF2.6
023EC:  BTFSC  xEF.7
023EE:  BSF    FF2.7
023F0:  MOVWF  xA8
....................     
....................    for(i=0;i<4;i++){//Lee valores almacenados de ciclos personalizados 
023F2:  CLRF   x5E
023F4:  MOVF   x5E,W
023F6:  SUBLW  03
023F8:  BTFSS  FD8.0
023FA:  BRA    2934
....................       CiclosPersonalizados[i].Temperatura=read_eeprom(100+(i*8));  
023FC:  MOVF   x5E,W
023FE:  MULLW  0A
02400:  MOVF   FF3,W
02402:  CLRF   xF0
02404:  MOVWF  xEF
02406:  MOVLW  C7
02408:  ADDWF  xEF,W
0240A:  MOVWF  FE9
0240C:  MOVLW  03
0240E:  ADDWFC xF0,W
02410:  MOVWF  FEA
02412:  MOVF   x5E,W
02414:  MULLW  08
02416:  MOVF   FF3,W
02418:  ADDLW  64
0241A:  MOVWF  xF1
0241C:  MOVFF  FF2,3F2
02420:  BCF    FF2.6
02422:  BCF    FF2.7
02424:  CLRF   FAA
02426:  MOVFF  3F1,FA9
0242A:  BCF    FA6.6
0242C:  BCF    FA6.7
0242E:  BSF    FA6.0
02430:  MOVF   FA8,W
02432:  BTFSC  xF2.6
02434:  BSF    FF2.6
02436:  BTFSC  xF2.7
02438:  BSF    FF2.7
0243A:  MOVWF  FEF
....................       CiclosPersonalizados[i].MinutoestH=read_eeprom(101+(i*8));  
0243C:  MOVF   x5E,W
0243E:  MULLW  0A
02440:  MOVF   FF3,W
02442:  CLRF   xF0
02444:  MOVWF  xEF
02446:  MOVLW  01
02448:  ADDWF  xEF,W
0244A:  MOVWF  01
0244C:  MOVLW  00
0244E:  ADDWFC xF0,W
02450:  MOVWF  03
02452:  MOVF   01,W
02454:  ADDLW  C7
02456:  MOVWF  FE9
02458:  MOVLW  03
0245A:  ADDWFC 03,W
0245C:  MOVWF  FEA
0245E:  MOVF   x5E,W
02460:  MULLW  08
02462:  MOVF   FF3,W
02464:  ADDLW  65
02466:  MOVWF  xF1
02468:  MOVFF  FF2,3F2
0246C:  BCF    FF2.6
0246E:  BCF    FF2.7
02470:  CLRF   FAA
02472:  MOVFF  3F1,FA9
02476:  BCF    FA6.6
02478:  BCF    FA6.7
0247A:  BSF    FA6.0
0247C:  MOVF   FA8,W
0247E:  BTFSC  xF2.6
02480:  BSF    FF2.6
02482:  BTFSC  xF2.7
02484:  BSF    FF2.7
02486:  MOVWF  FEF
....................       CiclosPersonalizados[i].Minutoest=read_eeprom(102+(i*8));  
02488:  MOVF   x5E,W
0248A:  MULLW  0A
0248C:  MOVF   FF3,W
0248E:  CLRF   xF0
02490:  MOVWF  xEF
02492:  MOVLW  09
02494:  ADDWF  xEF,W
02496:  MOVWF  01
02498:  MOVLW  00
0249A:  ADDWFC xF0,W
0249C:  MOVWF  03
0249E:  MOVF   01,W
024A0:  ADDLW  C7
024A2:  MOVWF  FE9
024A4:  MOVLW  03
024A6:  ADDWFC 03,W
024A8:  MOVWF  FEA
024AA:  MOVF   x5E,W
024AC:  MULLW  08
024AE:  MOVF   FF3,W
024B0:  ADDLW  66
024B2:  MOVWF  xF1
024B4:  MOVFF  FF2,3F2
024B8:  BCF    FF2.6
024BA:  BCF    FF2.7
024BC:  CLRF   FAA
024BE:  MOVFF  3F1,FA9
024C2:  BCF    FA6.6
024C4:  BCF    FA6.7
024C6:  BSF    FA6.0
024C8:  MOVF   FA8,W
024CA:  BTFSC  xF2.6
024CC:  BSF    FF2.6
024CE:  BTFSC  xF2.7
024D0:  BSF    FF2.7
024D2:  MOVWF  FEF
....................       CiclosPersonalizados[i].Segundoest=read_eeprom(103+(i*8));  
024D4:  MOVF   x5E,W
024D6:  MULLW  0A
024D8:  MOVF   FF3,W
024DA:  CLRF   xF0
024DC:  MOVWF  xEF
024DE:  MOVLW  03
024E0:  ADDWF  xEF,W
024E2:  MOVWF  01
024E4:  MOVLW  00
024E6:  ADDWFC xF0,W
024E8:  MOVWF  03
024EA:  MOVF   01,W
024EC:  ADDLW  C7
024EE:  MOVWF  FE9
024F0:  MOVLW  03
024F2:  ADDWFC 03,W
024F4:  MOVWF  FEA
024F6:  MOVF   x5E,W
024F8:  MULLW  08
024FA:  MOVF   FF3,W
024FC:  ADDLW  67
024FE:  MOVWF  xF1
02500:  MOVFF  FF2,3F2
02504:  BCF    FF2.6
02506:  BCF    FF2.7
02508:  CLRF   FAA
0250A:  MOVFF  3F1,FA9
0250E:  BCF    FA6.6
02510:  BCF    FA6.7
02512:  BSF    FA6.0
02514:  MOVF   FA8,W
02516:  BTFSC  xF2.6
02518:  BSF    FF2.6
0251A:  BTFSC  xF2.7
0251C:  BSF    FF2.7
0251E:  MOVWF  FEF
....................       CiclosPersonalizados[i].Minutosec=read_eeprom(104+(i*8));  
02520:  MOVF   x5E,W
02522:  MULLW  0A
02524:  MOVF   FF3,W
02526:  CLRF   xF0
02528:  MOVWF  xEF
0252A:  MOVLW  04
0252C:  ADDWF  xEF,W
0252E:  MOVWF  01
02530:  MOVLW  00
02532:  ADDWFC xF0,W
02534:  MOVWF  03
02536:  MOVF   01,W
02538:  ADDLW  C7
0253A:  MOVWF  FE9
0253C:  MOVLW  03
0253E:  ADDWFC 03,W
02540:  MOVWF  FEA
02542:  MOVF   x5E,W
02544:  MULLW  08
02546:  MOVF   FF3,W
02548:  ADDLW  68
0254A:  MOVWF  xF1
0254C:  MOVFF  FF2,3F2
02550:  BCF    FF2.6
02552:  BCF    FF2.7
02554:  CLRF   FAA
02556:  MOVFF  3F1,FA9
0255A:  BCF    FA6.6
0255C:  BCF    FA6.7
0255E:  BSF    FA6.0
02560:  MOVF   FA8,W
02562:  BTFSC  xF2.6
02564:  BSF    FF2.6
02566:  BTFSC  xF2.7
02568:  BSF    FF2.7
0256A:  MOVWF  FEF
....................       CiclosPersonalizados[i].Segundosec=read_eeprom(105+(i*8));  
0256C:  MOVF   x5E,W
0256E:  MULLW  0A
02570:  MOVF   FF3,W
02572:  CLRF   xF0
02574:  MOVWF  xEF
02576:  MOVLW  05
02578:  ADDWF  xEF,W
0257A:  MOVWF  01
0257C:  MOVLW  00
0257E:  ADDWFC xF0,W
02580:  MOVWF  03
02582:  MOVF   01,W
02584:  ADDLW  C7
02586:  MOVWF  FE9
02588:  MOVLW  03
0258A:  ADDWFC 03,W
0258C:  MOVWF  FEA
0258E:  MOVF   x5E,W
02590:  MULLW  08
02592:  MOVF   FF3,W
02594:  ADDLW  69
02596:  MOVWF  xF1
02598:  MOVFF  FF2,3F2
0259C:  BCF    FF2.6
0259E:  BCF    FF2.7
025A0:  CLRF   FAA
025A2:  MOVFF  3F1,FA9
025A6:  BCF    FA6.6
025A8:  BCF    FA6.7
025AA:  BSF    FA6.0
025AC:  MOVF   FA8,W
025AE:  BTFSC  xF2.6
025B0:  BSF    FF2.6
025B2:  BTFSC  xF2.7
025B4:  BSF    FF2.7
025B6:  MOVWF  FEF
....................       CiclosPersonalizados[i].PulsosVacio=read_eeprom(106+(i*8));  
025B8:  MOVF   x5E,W
025BA:  MULLW  0A
025BC:  MOVF   FF3,W
025BE:  CLRF   xF0
025C0:  MOVWF  xEF
025C2:  MOVLW  06
025C4:  ADDWF  xEF,W
025C6:  MOVWF  01
025C8:  MOVLW  00
025CA:  ADDWFC xF0,W
025CC:  MOVWF  03
025CE:  MOVF   01,W
025D0:  ADDLW  C7
025D2:  MOVWF  FE9
025D4:  MOVLW  03
025D6:  ADDWFC 03,W
025D8:  MOVWF  FEA
025DA:  MOVF   x5E,W
025DC:  MULLW  08
025DE:  MOVF   FF3,W
025E0:  ADDLW  6A
025E2:  MOVWF  xF1
025E4:  MOVFF  FF2,3F2
025E8:  BCF    FF2.6
025EA:  BCF    FF2.7
025EC:  CLRF   FAA
025EE:  MOVFF  3F1,FA9
025F2:  BCF    FA6.6
025F4:  BCF    FA6.7
025F6:  BSF    FA6.0
025F8:  MOVF   FA8,W
025FA:  BTFSC  xF2.6
025FC:  BSF    FF2.6
025FE:  BTFSC  xF2.7
02600:  BSF    FF2.7
02602:  MOVWF  FEF
....................       CiclosPersonalizados[i].NivelDesfogue=read_eeprom(107+(i*8));  
02604:  MOVF   x5E,W
02606:  MULLW  0A
02608:  MOVF   FF3,W
0260A:  CLRF   xF0
0260C:  MOVWF  xEF
0260E:  MOVLW  08
02610:  ADDWF  xEF,W
02612:  MOVWF  01
02614:  MOVLW  00
02616:  ADDWFC xF0,W
02618:  MOVWF  03
0261A:  MOVF   01,W
0261C:  ADDLW  C7
0261E:  MOVWF  FE9
02620:  MOVLW  03
02622:  ADDWFC 03,W
02624:  MOVWF  FEA
02626:  MOVF   x5E,W
02628:  MULLW  08
0262A:  MOVF   FF3,W
0262C:  ADDLW  6B
0262E:  MOVWF  xF1
02630:  MOVFF  FF2,3F2
02634:  BCF    FF2.6
02636:  BCF    FF2.7
02638:  CLRF   FAA
0263A:  MOVFF  3F1,FA9
0263E:  BCF    FA6.6
02640:  BCF    FA6.7
02642:  BSF    FA6.0
02644:  MOVF   FA8,W
02646:  BTFSC  xF2.6
02648:  BSF    FF2.6
0264A:  BTFSC  xF2.7
0264C:  BSF    FF2.7
0264E:  MOVWF  FEF
....................        
....................       if(CiclosPersonalizados[i].Temperatura>134 || CiclosPersonalizados[i].Temperatura<105) 
02650:  MOVF   x5E,W
02652:  MULLW  0A
02654:  MOVF   FF3,W
02656:  CLRF   xF0
02658:  MOVWF  xEF
0265A:  MOVLW  C7
0265C:  ADDWF  xEF,W
0265E:  MOVWF  FE9
02660:  MOVLW  03
02662:  ADDWFC xF0,W
02664:  MOVWF  FEA
02666:  MOVF   FEF,W
02668:  SUBLW  86
0266A:  BNC   2688
0266C:  MOVF   x5E,W
0266E:  MULLW  0A
02670:  MOVF   FF3,W
02672:  CLRF   xF0
02674:  MOVWF  xEF
02676:  MOVLW  C7
02678:  ADDWF  xEF,W
0267A:  MOVWF  FE9
0267C:  MOVLW  03
0267E:  ADDWFC xF0,W
02680:  MOVWF  FEA
02682:  MOVF   FEF,W
02684:  SUBLW  68
02686:  BNC   26A2
....................          CiclosPersonalizados[i].Temperatura=121; 
02688:  MOVF   x5E,W
0268A:  MULLW  0A
0268C:  MOVF   FF3,W
0268E:  CLRF   xF0
02690:  MOVWF  xEF
02692:  MOVLW  C7
02694:  ADDWF  xEF,W
02696:  MOVWF  FE9
02698:  MOVLW  03
0269A:  ADDWFC xF0,W
0269C:  MOVWF  FEA
0269E:  MOVLW  79
026A0:  MOVWF  FEF
....................       if(CiclosPersonalizados[i].Minutoest>59) 
026A2:  MOVF   x5E,W
026A4:  MULLW  0A
026A6:  MOVF   FF3,W
026A8:  CLRF   xF0
026AA:  MOVWF  xEF
026AC:  MOVLW  09
026AE:  ADDWF  xEF,W
026B0:  MOVWF  01
026B2:  MOVLW  00
026B4:  ADDWFC xF0,W
026B6:  MOVWF  03
026B8:  MOVF   01,W
026BA:  ADDLW  C7
026BC:  MOVWF  FE9
026BE:  MOVLW  03
026C0:  ADDWFC 03,W
026C2:  MOVWF  FEA
026C4:  MOVF   FEF,W
026C6:  SUBLW  3B
026C8:  BC    26EE
....................          CiclosPersonalizados[i].Minutoest=0; 
026CA:  MOVF   x5E,W
026CC:  MULLW  0A
026CE:  MOVF   FF3,W
026D0:  CLRF   xF0
026D2:  MOVWF  xEF
026D4:  MOVLW  09
026D6:  ADDWF  xEF,W
026D8:  MOVWF  01
026DA:  MOVLW  00
026DC:  ADDWFC xF0,W
026DE:  MOVWF  03
026E0:  MOVF   01,W
026E2:  ADDLW  C7
026E4:  MOVWF  FE9
026E6:  MOVLW  03
026E8:  ADDWFC 03,W
026EA:  MOVWF  FEA
026EC:  CLRF   FEF
....................       if(CiclosPersonalizados[i].Segundoest>59) 
026EE:  MOVF   x5E,W
026F0:  MULLW  0A
026F2:  MOVF   FF3,W
026F4:  CLRF   xF0
026F6:  MOVWF  xEF
026F8:  MOVLW  03
026FA:  ADDWF  xEF,W
026FC:  MOVWF  01
026FE:  MOVLW  00
02700:  ADDWFC xF0,W
02702:  MOVWF  03
02704:  MOVF   01,W
02706:  ADDLW  C7
02708:  MOVWF  FE9
0270A:  MOVLW  03
0270C:  ADDWFC 03,W
0270E:  MOVWF  FEA
02710:  MOVF   FEF,W
02712:  SUBLW  3B
02714:  BC    273A
....................          CiclosPersonalizados[i].Segundoest=0; 
02716:  MOVF   x5E,W
02718:  MULLW  0A
0271A:  MOVF   FF3,W
0271C:  CLRF   xF0
0271E:  MOVWF  xEF
02720:  MOVLW  03
02722:  ADDWF  xEF,W
02724:  MOVWF  01
02726:  MOVLW  00
02728:  ADDWFC xF0,W
0272A:  MOVWF  03
0272C:  MOVF   01,W
0272E:  ADDLW  C7
02730:  MOVWF  FE9
02732:  MOVLW  03
02734:  ADDWFC 03,W
02736:  MOVWF  FEA
02738:  CLRF   FEF
....................       if(CiclosPersonalizados[i].Minutosec>59) 
0273A:  MOVF   x5E,W
0273C:  MULLW  0A
0273E:  MOVF   FF3,W
02740:  CLRF   xF0
02742:  MOVWF  xEF
02744:  MOVLW  04
02746:  ADDWF  xEF,W
02748:  MOVWF  01
0274A:  MOVLW  00
0274C:  ADDWFC xF0,W
0274E:  MOVWF  03
02750:  MOVF   01,W
02752:  ADDLW  C7
02754:  MOVWF  FE9
02756:  MOVLW  03
02758:  ADDWFC 03,W
0275A:  MOVWF  FEA
0275C:  MOVF   FEF,W
0275E:  SUBLW  3B
02760:  BC    2786
....................          CiclosPersonalizados[i].Minutosec=0;    
02762:  MOVF   x5E,W
02764:  MULLW  0A
02766:  MOVF   FF3,W
02768:  CLRF   xF0
0276A:  MOVWF  xEF
0276C:  MOVLW  04
0276E:  ADDWF  xEF,W
02770:  MOVWF  01
02772:  MOVLW  00
02774:  ADDWFC xF0,W
02776:  MOVWF  03
02778:  MOVF   01,W
0277A:  ADDLW  C7
0277C:  MOVWF  FE9
0277E:  MOVLW  03
02780:  ADDWFC 03,W
02782:  MOVWF  FEA
02784:  CLRF   FEF
....................       if(CiclosPersonalizados[i].Segundoest>59) 
02786:  MOVF   x5E,W
02788:  MULLW  0A
0278A:  MOVF   FF3,W
0278C:  CLRF   xF0
0278E:  MOVWF  xEF
02790:  MOVLW  03
02792:  ADDWF  xEF,W
02794:  MOVWF  01
02796:  MOVLW  00
02798:  ADDWFC xF0,W
0279A:  MOVWF  03
0279C:  MOVF   01,W
0279E:  ADDLW  C7
027A0:  MOVWF  FE9
027A2:  MOVLW  03
027A4:  ADDWFC 03,W
027A6:  MOVWF  FEA
027A8:  MOVF   FEF,W
027AA:  SUBLW  3B
027AC:  BC    27D2
....................          CiclosPersonalizados[i].Segundoest=0; 
027AE:  MOVF   x5E,W
027B0:  MULLW  0A
027B2:  MOVF   FF3,W
027B4:  CLRF   xF0
027B6:  MOVWF  xEF
027B8:  MOVLW  03
027BA:  ADDWF  xEF,W
027BC:  MOVWF  01
027BE:  MOVLW  00
027C0:  ADDWFC xF0,W
027C2:  MOVWF  03
027C4:  MOVF   01,W
027C6:  ADDLW  C7
027C8:  MOVWF  FE9
027CA:  MOVLW  03
027CC:  ADDWFC 03,W
027CE:  MOVWF  FEA
027D0:  CLRF   FEF
....................       if(CiclosPersonalizados[i].Segundosec>59) 
027D2:  MOVF   x5E,W
027D4:  MULLW  0A
027D6:  MOVF   FF3,W
027D8:  CLRF   xF0
027DA:  MOVWF  xEF
027DC:  MOVLW  05
027DE:  ADDWF  xEF,W
027E0:  MOVWF  01
027E2:  MOVLW  00
027E4:  ADDWFC xF0,W
027E6:  MOVWF  03
027E8:  MOVF   01,W
027EA:  ADDLW  C7
027EC:  MOVWF  FE9
027EE:  MOVLW  03
027F0:  ADDWFC 03,W
027F2:  MOVWF  FEA
027F4:  MOVF   FEF,W
027F6:  SUBLW  3B
027F8:  BC    281E
....................          CiclosPersonalizados[i].Segundosec=0;       
027FA:  MOVF   x5E,W
027FC:  MULLW  0A
027FE:  MOVF   FF3,W
02800:  CLRF   xF0
02802:  MOVWF  xEF
02804:  MOVLW  05
02806:  ADDWF  xEF,W
02808:  MOVWF  01
0280A:  MOVLW  00
0280C:  ADDWFC xF0,W
0280E:  MOVWF  03
02810:  MOVF   01,W
02812:  ADDLW  C7
02814:  MOVWF  FE9
02816:  MOVLW  03
02818:  ADDWFC 03,W
0281A:  MOVWF  FEA
0281C:  CLRF   FEF
....................       if(CiclosPersonalizados[i].PulsosVacio>15) 
0281E:  MOVF   x5E,W
02820:  MULLW  0A
02822:  MOVF   FF3,W
02824:  CLRF   xF0
02826:  MOVWF  xEF
02828:  MOVLW  06
0282A:  ADDWF  xEF,W
0282C:  MOVWF  01
0282E:  MOVLW  00
02830:  ADDWFC xF0,W
02832:  MOVWF  03
02834:  MOVF   01,W
02836:  ADDLW  C7
02838:  MOVWF  FE9
0283A:  MOVLW  03
0283C:  ADDWFC 03,W
0283E:  MOVWF  FEA
02840:  MOVF   FEF,W
02842:  SUBLW  0F
02844:  BC    286C
....................          CiclosPersonalizados[i].PulsosVacio=4; 
02846:  MOVF   x5E,W
02848:  MULLW  0A
0284A:  MOVF   FF3,W
0284C:  CLRF   xF0
0284E:  MOVWF  xEF
02850:  MOVLW  06
02852:  ADDWF  xEF,W
02854:  MOVWF  01
02856:  MOVLW  00
02858:  ADDWFC xF0,W
0285A:  MOVWF  03
0285C:  MOVF   01,W
0285E:  ADDLW  C7
02860:  MOVWF  FE9
02862:  MOVLW  03
02864:  ADDWFC 03,W
02866:  MOVWF  FEA
02868:  MOVLW  04
0286A:  MOVWF  FEF
....................       if(CiclosPersonalizados[i].NivelVacio>100 || CiclosPersonalizados[i].NivelVacio<10) 
0286C:  MOVF   x5E,W
0286E:  MULLW  0A
02870:  MOVF   FF3,W
02872:  CLRF   xF0
02874:  MOVWF  xEF
02876:  MOVLW  07
02878:  ADDWF  xEF,W
0287A:  MOVWF  01
0287C:  MOVLW  00
0287E:  ADDWFC xF0,W
02880:  MOVWF  03
02882:  MOVF   01,W
02884:  ADDLW  C7
02886:  MOVWF  FE9
02888:  MOVLW  03
0288A:  ADDWFC 03,W
0288C:  MOVWF  FEA
0288E:  MOVF   FEF,W
02890:  SUBLW  64
02892:  BNC   28BC
02894:  MOVF   x5E,W
02896:  MULLW  0A
02898:  MOVF   FF3,W
0289A:  CLRF   xF0
0289C:  MOVWF  xEF
0289E:  MOVLW  07
028A0:  ADDWF  xEF,W
028A2:  MOVWF  01
028A4:  MOVLW  00
028A6:  ADDWFC xF0,W
028A8:  MOVWF  03
028AA:  MOVF   01,W
028AC:  ADDLW  C7
028AE:  MOVWF  FE9
028B0:  MOVLW  03
028B2:  ADDWFC 03,W
028B4:  MOVWF  FEA
028B6:  MOVF   FEF,W
028B8:  SUBLW  09
028BA:  BNC   28E2
....................          CiclosPersonalizados[i].NivelVacio=25;    
028BC:  MOVF   x5E,W
028BE:  MULLW  0A
028C0:  MOVF   FF3,W
028C2:  CLRF   xF0
028C4:  MOVWF  xEF
028C6:  MOVLW  07
028C8:  ADDWF  xEF,W
028CA:  MOVWF  01
028CC:  MOVLW  00
028CE:  ADDWFC xF0,W
028D0:  MOVWF  03
028D2:  MOVF   01,W
028D4:  ADDLW  C7
028D6:  MOVWF  FE9
028D8:  MOVLW  03
028DA:  ADDWFC 03,W
028DC:  MOVWF  FEA
028DE:  MOVLW  19
028E0:  MOVWF  FEF
....................       if(CiclosPersonalizados[i].NivelDesfogue>6) 
028E2:  MOVF   x5E,W
028E4:  MULLW  0A
028E6:  MOVF   FF3,W
028E8:  CLRF   xF0
028EA:  MOVWF  xEF
028EC:  MOVLW  08
028EE:  ADDWF  xEF,W
028F0:  MOVWF  01
028F2:  MOVLW  00
028F4:  ADDWFC xF0,W
028F6:  MOVWF  03
028F8:  MOVF   01,W
028FA:  ADDLW  C7
028FC:  MOVWF  FE9
028FE:  MOVLW  03
02900:  ADDWFC 03,W
02902:  MOVWF  FEA
02904:  MOVF   FEF,W
02906:  SUBLW  06
02908:  BC    2930
....................          CiclosPersonalizados[i].NivelDesfogue=6; 
0290A:  MOVF   x5E,W
0290C:  MULLW  0A
0290E:  MOVF   FF3,W
02910:  CLRF   xF0
02912:  MOVWF  xEF
02914:  MOVLW  08
02916:  ADDWF  xEF,W
02918:  MOVWF  01
0291A:  MOVLW  00
0291C:  ADDWFC xF0,W
0291E:  MOVWF  03
02920:  MOVF   01,W
02922:  ADDLW  C7
02924:  MOVWF  FE9
02926:  MOVLW  03
02928:  ADDWFC 03,W
0292A:  MOVWF  FEA
0292C:  MOVLW  06
0292E:  MOVWF  FEF
....................    } 
02930:  INCF   x5E,F
02932:  BRA    23F4
.................... } 
02934:  MOVLB  0
02936:  GOTO   5B14 (RETURN)
....................  
.................... void LimitaValores(){ 
....................    if(Testerilizacionp[0]>9 || Testerilizacionp[0]<0){ 
*
02AE8:  BTFSC  xB5.7
02AEA:  BRA    2AF2
02AEC:  MOVF   xB5,W
02AEE:  SUBLW  09
02AF0:  BNC   2AF8
02AF2:  BTFSC  xB5.7
02AF4:  BRA    2AF8
02AF6:  BRA    2B30
....................       Testerilizacionp[0]=0; 
02AF8:  CLRF   xB5
....................       write_eeprom(0,0); 
02AFA:  CLRF   FAA
02AFC:  CLRF   FA9
02AFE:  CLRF   FA8
02B00:  BCF    FA6.6
02B02:  BCF    FA6.7
02B04:  BSF    FA6.2
02B06:  MOVF   FF2,W
02B08:  MOVWF  00
02B0A:  BCF    FF2.6
02B0C:  BCF    FF2.7
02B0E:  MOVLB  F
02B10:  MOVLW  55
02B12:  MOVWF  FA7
02B14:  MOVLW  AA
02B16:  MOVWF  FA7
02B18:  BSF    FA6.1
02B1A:  BTFSC  FA6.1
02B1C:  BRA    2B1A
02B1E:  BCF    FA6.2
02B20:  MOVF   00,W
02B22:  IORWF  FF2,F
....................       delay_ms(10); 
02B24:  MOVLW  0A
02B26:  MOVLB  4
02B28:  MOVWF  x04
02B2A:  MOVLB  0
02B2C:  CALL   179C
....................    } 
....................    if(Testerilizacionp[1]>9 || Testerilizacionp[1]<0){ 
02B30:  BTFSC  xB6.7
02B32:  BRA    2B3A
02B34:  MOVF   xB6,W
02B36:  SUBLW  09
02B38:  BNC   2B40
02B3A:  BTFSC  xB6.7
02B3C:  BRA    2B40
02B3E:  BRA    2B7A
....................       Testerilizacionp[1]=0; 
02B40:  CLRF   xB6
....................       write_eeprom(1,0); 
02B42:  CLRF   FAA
02B44:  MOVLW  01
02B46:  MOVWF  FA9
02B48:  CLRF   FA8
02B4A:  BCF    FA6.6
02B4C:  BCF    FA6.7
02B4E:  BSF    FA6.2
02B50:  MOVF   FF2,W
02B52:  MOVWF  00
02B54:  BCF    FF2.6
02B56:  BCF    FF2.7
02B58:  MOVLB  F
02B5A:  MOVLW  55
02B5C:  MOVWF  FA7
02B5E:  MOVLW  AA
02B60:  MOVWF  FA7
02B62:  BSF    FA6.1
02B64:  BTFSC  FA6.1
02B66:  BRA    2B64
02B68:  BCF    FA6.2
02B6A:  MOVF   00,W
02B6C:  IORWF  FF2,F
....................       delay_ms(10); 
02B6E:  MOVLW  0A
02B70:  MOVLB  4
02B72:  MOVWF  x04
02B74:  MOVLB  0
02B76:  CALL   179C
....................    } 
....................    if(Testerilizacionp[2]>9 || Testerilizacionp[2]<0){ 
02B7A:  BTFSC  xB7.7
02B7C:  BRA    2B84
02B7E:  MOVF   xB7,W
02B80:  SUBLW  09
02B82:  BNC   2B8A
02B84:  BTFSC  xB7.7
02B86:  BRA    2B8A
02B88:  BRA    2BC4
....................       Testerilizacionp[2]=0; 
02B8A:  CLRF   xB7
....................       write_eeprom(2,0); 
02B8C:  CLRF   FAA
02B8E:  MOVLW  02
02B90:  MOVWF  FA9
02B92:  CLRF   FA8
02B94:  BCF    FA6.6
02B96:  BCF    FA6.7
02B98:  BSF    FA6.2
02B9A:  MOVF   FF2,W
02B9C:  MOVWF  00
02B9E:  BCF    FF2.6
02BA0:  BCF    FF2.7
02BA2:  MOVLB  F
02BA4:  MOVLW  55
02BA6:  MOVWF  FA7
02BA8:  MOVLW  AA
02BAA:  MOVWF  FA7
02BAC:  BSF    FA6.1
02BAE:  BTFSC  FA6.1
02BB0:  BRA    2BAE
02BB2:  BCF    FA6.2
02BB4:  MOVF   00,W
02BB6:  IORWF  FF2,F
....................       delay_ms(10); 
02BB8:  MOVLW  0A
02BBA:  MOVLB  4
02BBC:  MOVWF  x04
02BBE:  MOVLB  0
02BC0:  CALL   179C
....................    } 
....................    if(Testerilizacionp[3]>9 || Testerilizacionp[3]<0){ 
02BC4:  BTFSC  xB8.7
02BC6:  BRA    2BCE
02BC8:  MOVF   xB8,W
02BCA:  SUBLW  09
02BCC:  BNC   2BD4
02BCE:  BTFSC  xB8.7
02BD0:  BRA    2BD4
02BD2:  BRA    2C0E
....................       Testerilizacionp[3]=0; 
02BD4:  CLRF   xB8
....................       write_eeprom(3,0); 
02BD6:  CLRF   FAA
02BD8:  MOVLW  03
02BDA:  MOVWF  FA9
02BDC:  CLRF   FA8
02BDE:  BCF    FA6.6
02BE0:  BCF    FA6.7
02BE2:  BSF    FA6.2
02BE4:  MOVF   FF2,W
02BE6:  MOVWF  00
02BE8:  BCF    FF2.6
02BEA:  BCF    FF2.7
02BEC:  MOVLB  F
02BEE:  MOVLW  55
02BF0:  MOVWF  FA7
02BF2:  MOVLW  AA
02BF4:  MOVWF  FA7
02BF6:  BSF    FA6.1
02BF8:  BTFSC  FA6.1
02BFA:  BRA    2BF8
02BFC:  BCF    FA6.2
02BFE:  MOVF   00,W
02C00:  IORWF  FF2,F
....................       delay_ms(10); 
02C02:  MOVLW  0A
02C04:  MOVLB  4
02C06:  MOVWF  x04
02C08:  MOVLB  0
02C0A:  CALL   179C
....................    } 
....................    if(Tsecadop[0]>9 || Tsecadop[0]<0){ 
02C0E:  BTFSC  xBE.7
02C10:  BRA    2C18
02C12:  MOVF   xBE,W
02C14:  SUBLW  09
02C16:  BNC   2C1E
02C18:  BTFSC  xBE.7
02C1A:  BRA    2C1E
02C1C:  BRA    2C58
....................       Tsecadop[0]=0; 
02C1E:  CLRF   xBE
....................       write_eeprom(4,0); 
02C20:  CLRF   FAA
02C22:  MOVLW  04
02C24:  MOVWF  FA9
02C26:  CLRF   FA8
02C28:  BCF    FA6.6
02C2A:  BCF    FA6.7
02C2C:  BSF    FA6.2
02C2E:  MOVF   FF2,W
02C30:  MOVWF  00
02C32:  BCF    FF2.6
02C34:  BCF    FF2.7
02C36:  MOVLB  F
02C38:  MOVLW  55
02C3A:  MOVWF  FA7
02C3C:  MOVLW  AA
02C3E:  MOVWF  FA7
02C40:  BSF    FA6.1
02C42:  BTFSC  FA6.1
02C44:  BRA    2C42
02C46:  BCF    FA6.2
02C48:  MOVF   00,W
02C4A:  IORWF  FF2,F
....................       delay_ms(10); 
02C4C:  MOVLW  0A
02C4E:  MOVLB  4
02C50:  MOVWF  x04
02C52:  MOVLB  0
02C54:  CALL   179C
....................    } 
....................    if(Tsecadop[1]>9 || Tsecadop[1]<0){ 
02C58:  BTFSC  xBF.7
02C5A:  BRA    2C62
02C5C:  MOVF   xBF,W
02C5E:  SUBLW  09
02C60:  BNC   2C68
02C62:  BTFSC  xBF.7
02C64:  BRA    2C68
02C66:  BRA    2CA2
....................       Tsecadop[1]=0; 
02C68:  CLRF   xBF
....................       write_eeprom(5,0); 
02C6A:  CLRF   FAA
02C6C:  MOVLW  05
02C6E:  MOVWF  FA9
02C70:  CLRF   FA8
02C72:  BCF    FA6.6
02C74:  BCF    FA6.7
02C76:  BSF    FA6.2
02C78:  MOVF   FF2,W
02C7A:  MOVWF  00
02C7C:  BCF    FF2.6
02C7E:  BCF    FF2.7
02C80:  MOVLB  F
02C82:  MOVLW  55
02C84:  MOVWF  FA7
02C86:  MOVLW  AA
02C88:  MOVWF  FA7
02C8A:  BSF    FA6.1
02C8C:  BTFSC  FA6.1
02C8E:  BRA    2C8C
02C90:  BCF    FA6.2
02C92:  MOVF   00,W
02C94:  IORWF  FF2,F
....................       delay_ms(10); 
02C96:  MOVLW  0A
02C98:  MOVLB  4
02C9A:  MOVWF  x04
02C9C:  MOVLB  0
02C9E:  CALL   179C
....................    } 
....................    if(Tsecadop[2]>9 || Tsecadop[2]<0){ 
02CA2:  BTFSC  xC0.7
02CA4:  BRA    2CAC
02CA6:  MOVF   xC0,W
02CA8:  SUBLW  09
02CAA:  BNC   2CB2
02CAC:  BTFSC  xC0.7
02CAE:  BRA    2CB2
02CB0:  BRA    2CEC
....................       Tsecadop[2]=0; 
02CB2:  CLRF   xC0
....................       write_eeprom(6,0); 
02CB4:  CLRF   FAA
02CB6:  MOVLW  06
02CB8:  MOVWF  FA9
02CBA:  CLRF   FA8
02CBC:  BCF    FA6.6
02CBE:  BCF    FA6.7
02CC0:  BSF    FA6.2
02CC2:  MOVF   FF2,W
02CC4:  MOVWF  00
02CC6:  BCF    FF2.6
02CC8:  BCF    FF2.7
02CCA:  MOVLB  F
02CCC:  MOVLW  55
02CCE:  MOVWF  FA7
02CD0:  MOVLW  AA
02CD2:  MOVWF  FA7
02CD4:  BSF    FA6.1
02CD6:  BTFSC  FA6.1
02CD8:  BRA    2CD6
02CDA:  BCF    FA6.2
02CDC:  MOVF   00,W
02CDE:  IORWF  FF2,F
....................       delay_ms(10); 
02CE0:  MOVLW  0A
02CE2:  MOVLB  4
02CE4:  MOVWF  x04
02CE6:  MOVLB  0
02CE8:  CALL   179C
....................    } 
....................    if(Tsecadop[3]>9 || Tsecadop[3]<0){ 
02CEC:  BTFSC  xC1.7
02CEE:  BRA    2CF6
02CF0:  MOVF   xC1,W
02CF2:  SUBLW  09
02CF4:  BNC   2CFC
02CF6:  BTFSC  xC1.7
02CF8:  BRA    2CFC
02CFA:  BRA    2D36
....................       Tsecadop[3]=0; 
02CFC:  CLRF   xC1
....................       write_eeprom(7,0); 
02CFE:  CLRF   FAA
02D00:  MOVLW  07
02D02:  MOVWF  FA9
02D04:  CLRF   FA8
02D06:  BCF    FA6.6
02D08:  BCF    FA6.7
02D0A:  BSF    FA6.2
02D0C:  MOVF   FF2,W
02D0E:  MOVWF  00
02D10:  BCF    FF2.6
02D12:  BCF    FF2.7
02D14:  MOVLB  F
02D16:  MOVLW  55
02D18:  MOVWF  FA7
02D1A:  MOVLW  AA
02D1C:  MOVWF  FA7
02D1E:  BSF    FA6.1
02D20:  BTFSC  FA6.1
02D22:  BRA    2D20
02D24:  BCF    FA6.2
02D26:  MOVF   00,W
02D28:  IORWF  FF2,F
....................       delay_ms(10); 
02D2A:  MOVLW  0A
02D2C:  MOVLB  4
02D2E:  MOVWF  x04
02D30:  MOVLB  0
02D32:  CALL   179C
....................    } 
....................    if(Setpoint>134){ 
02D36:  MOVLB  3
02D38:  MOVF   x62,W
02D3A:  SUBLW  86
02D3C:  BC    2D7E
....................       Setpoint=134; 
02D3E:  MOVLW  86
02D40:  MOVWF  x62
....................       write_eeprom(8,134); 
02D42:  CLRF   FAA
02D44:  MOVLW  08
02D46:  MOVWF  FA9
02D48:  MOVLW  86
02D4A:  MOVWF  FA8
02D4C:  BCF    FA6.6
02D4E:  BCF    FA6.7
02D50:  BSF    FA6.2
02D52:  MOVF   FF2,W
02D54:  MOVWF  00
02D56:  BCF    FF2.6
02D58:  BCF    FF2.7
02D5A:  MOVLB  F
02D5C:  MOVLW  55
02D5E:  MOVWF  FA7
02D60:  MOVLW  AA
02D62:  MOVWF  FA7
02D64:  BSF    FA6.1
02D66:  BTFSC  FA6.1
02D68:  BRA    2D66
02D6A:  BCF    FA6.2
02D6C:  MOVF   00,W
02D6E:  IORWF  FF2,F
....................       delay_ms(10); 
02D70:  MOVLW  0A
02D72:  MOVLB  4
02D74:  MOVWF  x04
02D76:  MOVLB  0
02D78:  CALL   179C
02D7C:  MOVLB  3
....................    } 
....................    if(Nivel>6){ 
02D7E:  MOVF   x71,F
02D80:  BNZ   2D88
02D82:  MOVF   x70,W
02D84:  SUBLW  06
02D86:  BC    2DCA
....................       Nivel=3; 
02D88:  CLRF   x71
02D8A:  MOVLW  03
02D8C:  MOVWF  x70
....................       write_eeprom(9,3); 
02D8E:  CLRF   FAA
02D90:  MOVLW  09
02D92:  MOVWF  FA9
02D94:  MOVLW  03
02D96:  MOVWF  FA8
02D98:  BCF    FA6.6
02D9A:  BCF    FA6.7
02D9C:  BSF    FA6.2
02D9E:  MOVF   FF2,W
02DA0:  MOVWF  00
02DA2:  BCF    FF2.6
02DA4:  BCF    FF2.7
02DA6:  MOVLB  F
02DA8:  MOVLW  55
02DAA:  MOVWF  FA7
02DAC:  MOVLW  AA
02DAE:  MOVWF  FA7
02DB0:  BSF    FA6.1
02DB2:  BTFSC  FA6.1
02DB4:  BRA    2DB2
02DB6:  BCF    FA6.2
02DB8:  MOVF   00,W
02DBA:  IORWF  FF2,F
....................       delay_ms(10); 
02DBC:  MOVLW  0A
02DBE:  MOVLB  4
02DC0:  MOVWF  x04
02DC2:  MOVLB  0
02DC4:  CALL   179C
02DC8:  MOVLB  3
....................    } 
....................    if(Password[0]>9 || Password[0]<0){ 
02DCA:  BTFSC  x80.7
02DCC:  BRA    2DD4
02DCE:  MOVF   x80,W
02DD0:  SUBLW  09
02DD2:  BNC   2DDA
02DD4:  BTFSC  x80.7
02DD6:  BRA    2DDA
02DD8:  BRA    2E16
....................       Password[0]=0; 
02DDA:  CLRF   x80
....................       write_eeprom(10,0); 
02DDC:  CLRF   FAA
02DDE:  MOVLW  0A
02DE0:  MOVWF  FA9
02DE2:  CLRF   FA8
02DE4:  BCF    FA6.6
02DE6:  BCF    FA6.7
02DE8:  BSF    FA6.2
02DEA:  MOVF   FF2,W
02DEC:  MOVWF  00
02DEE:  BCF    FF2.6
02DF0:  BCF    FF2.7
02DF2:  MOVLB  F
02DF4:  MOVLW  55
02DF6:  MOVWF  FA7
02DF8:  MOVLW  AA
02DFA:  MOVWF  FA7
02DFC:  BSF    FA6.1
02DFE:  BTFSC  FA6.1
02E00:  BRA    2DFE
02E02:  BCF    FA6.2
02E04:  MOVF   00,W
02E06:  IORWF  FF2,F
....................       delay_ms(10); 
02E08:  MOVLW  0A
02E0A:  MOVLB  4
02E0C:  MOVWF  x04
02E0E:  MOVLB  0
02E10:  CALL   179C
02E14:  MOVLB  3
....................    } 
....................    if(Password[1]>9 || Password[1]<0){ 
02E16:  BTFSC  x81.7
02E18:  BRA    2E20
02E1A:  MOVF   x81,W
02E1C:  SUBLW  09
02E1E:  BNC   2E26
02E20:  BTFSC  x81.7
02E22:  BRA    2E26
02E24:  BRA    2E62
....................       Password[1]=0; 
02E26:  CLRF   x81
....................       write_eeprom(11,0); 
02E28:  CLRF   FAA
02E2A:  MOVLW  0B
02E2C:  MOVWF  FA9
02E2E:  CLRF   FA8
02E30:  BCF    FA6.6
02E32:  BCF    FA6.7
02E34:  BSF    FA6.2
02E36:  MOVF   FF2,W
02E38:  MOVWF  00
02E3A:  BCF    FF2.6
02E3C:  BCF    FF2.7
02E3E:  MOVLB  F
02E40:  MOVLW  55
02E42:  MOVWF  FA7
02E44:  MOVLW  AA
02E46:  MOVWF  FA7
02E48:  BSF    FA6.1
02E4A:  BTFSC  FA6.1
02E4C:  BRA    2E4A
02E4E:  BCF    FA6.2
02E50:  MOVF   00,W
02E52:  IORWF  FF2,F
....................       delay_ms(10); 
02E54:  MOVLW  0A
02E56:  MOVLB  4
02E58:  MOVWF  x04
02E5A:  MOVLB  0
02E5C:  CALL   179C
02E60:  MOVLB  3
....................    } 
....................    if(Password[2]>9 || Password[2]<0){ 
02E62:  BTFSC  x82.7
02E64:  BRA    2E6C
02E66:  MOVF   x82,W
02E68:  SUBLW  09
02E6A:  BNC   2E72
02E6C:  BTFSC  x82.7
02E6E:  BRA    2E72
02E70:  BRA    2EAE
....................       Password[2]=0; 
02E72:  CLRF   x82
....................       write_eeprom(12,0); 
02E74:  CLRF   FAA
02E76:  MOVLW  0C
02E78:  MOVWF  FA9
02E7A:  CLRF   FA8
02E7C:  BCF    FA6.6
02E7E:  BCF    FA6.7
02E80:  BSF    FA6.2
02E82:  MOVF   FF2,W
02E84:  MOVWF  00
02E86:  BCF    FF2.6
02E88:  BCF    FF2.7
02E8A:  MOVLB  F
02E8C:  MOVLW  55
02E8E:  MOVWF  FA7
02E90:  MOVLW  AA
02E92:  MOVWF  FA7
02E94:  BSF    FA6.1
02E96:  BTFSC  FA6.1
02E98:  BRA    2E96
02E9A:  BCF    FA6.2
02E9C:  MOVF   00,W
02E9E:  IORWF  FF2,F
....................       delay_ms(10); 
02EA0:  MOVLW  0A
02EA2:  MOVLB  4
02EA4:  MOVWF  x04
02EA6:  MOVLB  0
02EA8:  CALL   179C
02EAC:  MOVLB  3
....................    } 
....................    if(Password[3]>9 || Password[3]<0){ 
02EAE:  BTFSC  x83.7
02EB0:  BRA    2EB8
02EB2:  MOVF   x83,W
02EB4:  SUBLW  09
02EB6:  BNC   2EBE
02EB8:  BTFSC  x83.7
02EBA:  BRA    2EBE
02EBC:  BRA    2EFA
....................       Password[3]=0; 
02EBE:  CLRF   x83
....................       write_eeprom(13,0); 
02EC0:  CLRF   FAA
02EC2:  MOVLW  0D
02EC4:  MOVWF  FA9
02EC6:  CLRF   FA8
02EC8:  BCF    FA6.6
02ECA:  BCF    FA6.7
02ECC:  BSF    FA6.2
02ECE:  MOVF   FF2,W
02ED0:  MOVWF  00
02ED2:  BCF    FF2.6
02ED4:  BCF    FF2.7
02ED6:  MOVLB  F
02ED8:  MOVLW  55
02EDA:  MOVWF  FA7
02EDC:  MOVLW  AA
02EDE:  MOVWF  FA7
02EE0:  BSF    FA6.1
02EE2:  BTFSC  FA6.1
02EE4:  BRA    2EE2
02EE6:  BCF    FA6.2
02EE8:  MOVF   00,W
02EEA:  IORWF  FF2,F
....................       delay_ms(10); 
02EEC:  MOVLW  0A
02EEE:  MOVLB  4
02EF0:  MOVWF  x04
02EF2:  MOVLB  0
02EF4:  CALL   179C
02EF8:  MOVLB  3
....................    } 
....................    if(Ganancia>12.0){ 
02EFA:  CLRF   xF6
02EFC:  CLRF   xF5
02EFE:  MOVLW  40
02F00:  MOVWF  xF4
02F02:  MOVLW  82
02F04:  MOVWF  xF3
02F06:  MOVFF  304,3FA
02F0A:  MOVFF  303,3F9
02F0E:  MOVFF  302,3F8
02F12:  MOVFF  301,3F7
02F16:  MOVLB  0
02F18:  RCALL  2A20
02F1A:  BNC   2F64
....................       Ganancia=12.0; 
02F1C:  MOVLB  3
02F1E:  CLRF   x04
02F20:  CLRF   x03
02F22:  MOVLW  40
02F24:  MOVWF  x02
02F26:  MOVLW  82
02F28:  MOVWF  x01
....................       write_eeprom(20,12); 
02F2A:  CLRF   FAA
02F2C:  MOVLW  14
02F2E:  MOVWF  FA9
02F30:  MOVLW  0C
02F32:  MOVWF  FA8
02F34:  BCF    FA6.6
02F36:  BCF    FA6.7
02F38:  BSF    FA6.2
02F3A:  MOVF   FF2,W
02F3C:  MOVWF  00
02F3E:  BCF    FF2.6
02F40:  BCF    FF2.7
02F42:  MOVLB  F
02F44:  MOVLW  55
02F46:  MOVWF  FA7
02F48:  MOVLW  AA
02F4A:  MOVWF  FA7
02F4C:  BSF    FA6.1
02F4E:  BTFSC  FA6.1
02F50:  BRA    2F4E
02F52:  BCF    FA6.2
02F54:  MOVF   00,W
02F56:  IORWF  FF2,F
....................       delay_ms(10); 
02F58:  MOVLW  0A
02F5A:  MOVLB  4
02F5C:  MOVWF  x04
02F5E:  MOVLB  0
02F60:  CALL   179C
....................    } 
....................    if(Ajuste>100){ 
02F64:  MOVLB  2
02F66:  MOVF   xD8,W
02F68:  SUBLW  64
02F6A:  BC    2FA8
....................       Ajuste=0; 
02F6C:  CLRF   xD8
....................       write_eeprom(21,0); 
02F6E:  CLRF   FAA
02F70:  MOVLW  15
02F72:  MOVWF  FA9
02F74:  CLRF   FA8
02F76:  BCF    FA6.6
02F78:  BCF    FA6.7
02F7A:  BSF    FA6.2
02F7C:  MOVF   FF2,W
02F7E:  MOVWF  00
02F80:  BCF    FF2.6
02F82:  BCF    FF2.7
02F84:  MOVLB  F
02F86:  MOVLW  55
02F88:  MOVWF  FA7
02F8A:  MOVLW  AA
02F8C:  MOVWF  FA7
02F8E:  BSF    FA6.1
02F90:  BTFSC  FA6.1
02F92:  BRA    2F90
02F94:  BCF    FA6.2
02F96:  MOVF   00,W
02F98:  IORWF  FF2,F
....................       delay_ms(10); 
02F9A:  MOVLW  0A
02F9C:  MOVLB  4
02F9E:  MOVWF  x04
02FA0:  MOVLB  0
02FA2:  CALL   179C
02FA6:  MOVLB  2
....................    } 
....................    if(Ajusten>100){ 
02FA8:  MOVF   xD9,W
02FAA:  SUBLW  64
02FAC:  BC    2FEA
....................       Ajusten=0; 
02FAE:  CLRF   xD9
....................       write_eeprom(22,0); 
02FB0:  CLRF   FAA
02FB2:  MOVLW  16
02FB4:  MOVWF  FA9
02FB6:  CLRF   FA8
02FB8:  BCF    FA6.6
02FBA:  BCF    FA6.7
02FBC:  BSF    FA6.2
02FBE:  MOVF   FF2,W
02FC0:  MOVWF  00
02FC2:  BCF    FF2.6
02FC4:  BCF    FF2.7
02FC6:  MOVLB  F
02FC8:  MOVLW  55
02FCA:  MOVWF  FA7
02FCC:  MOVLW  AA
02FCE:  MOVWF  FA7
02FD0:  BSF    FA6.1
02FD2:  BTFSC  FA6.1
02FD4:  BRA    2FD2
02FD6:  BCF    FA6.2
02FD8:  MOVF   00,W
02FDA:  IORWF  FF2,F
....................       delay_ms(10); 
02FDC:  MOVLW  0A
02FDE:  MOVLB  4
02FE0:  MOVWF  x04
02FE2:  MOVLB  0
02FE4:  CALL   179C
02FE8:  MOVLB  2
....................    } 
....................    if(MediaMovil>80){ 
02FEA:  MOVF   xDA,W
02FEC:  SUBLW  50
02FEE:  BC    302E
....................       MediaMovil=80; 
02FF0:  MOVLW  50
02FF2:  MOVWF  xDA
....................       write_eeprom(24,80); 
02FF4:  CLRF   FAA
02FF6:  MOVLW  18
02FF8:  MOVWF  FA9
02FFA:  MOVLW  50
02FFC:  MOVWF  FA8
02FFE:  BCF    FA6.6
03000:  BCF    FA6.7
03002:  BSF    FA6.2
03004:  MOVF   FF2,W
03006:  MOVWF  00
03008:  BCF    FF2.6
0300A:  BCF    FF2.7
0300C:  MOVLB  F
0300E:  MOVLW  55
03010:  MOVWF  FA7
03012:  MOVLW  AA
03014:  MOVWF  FA7
03016:  BSF    FA6.1
03018:  BTFSC  FA6.1
0301A:  BRA    3018
0301C:  BCF    FA6.2
0301E:  MOVF   00,W
03020:  IORWF  FF2,F
....................       delay_ms(10); 
03022:  MOVLW  0A
03024:  MOVLB  4
03026:  MOVWF  x04
03028:  MOVLB  0
0302A:  CALL   179C
....................    } 
....................    if(Tciclo>10){ 
0302E:  MOVLB  3
03030:  CLRF   xF6
03032:  CLRF   xF5
03034:  MOVLW  20
03036:  MOVWF  xF4
03038:  MOVLW  82
0303A:  MOVWF  xF3
0303C:  MOVFF  2EC,3FA
03040:  MOVFF  2EB,3F9
03044:  MOVFF  2EA,3F8
03048:  MOVFF  2E9,3F7
0304C:  MOVLB  0
0304E:  RCALL  2A20
03050:  BNC   309A
....................       Tciclo=10; 
03052:  MOVLB  2
03054:  CLRF   xEC
03056:  CLRF   xEB
03058:  MOVLW  20
0305A:  MOVWF  xEA
0305C:  MOVLW  82
0305E:  MOVWF  xE9
....................       write_eeprom(25,10); 
03060:  CLRF   FAA
03062:  MOVLW  19
03064:  MOVWF  FA9
03066:  MOVLW  0A
03068:  MOVWF  FA8
0306A:  BCF    FA6.6
0306C:  BCF    FA6.7
0306E:  BSF    FA6.2
03070:  MOVF   FF2,W
03072:  MOVWF  00
03074:  BCF    FF2.6
03076:  BCF    FF2.7
03078:  MOVLB  F
0307A:  MOVLW  55
0307C:  MOVWF  FA7
0307E:  MOVLW  AA
03080:  MOVWF  FA7
03082:  BSF    FA6.1
03084:  BTFSC  FA6.1
03086:  BRA    3084
03088:  BCF    FA6.2
0308A:  MOVF   00,W
0308C:  IORWF  FF2,F
....................       delay_ms(10); 
0308E:  MOVLW  0A
03090:  MOVLB  4
03092:  MOVWF  x04
03094:  MOVLB  0
03096:  CALL   179C
....................    } 
....................    if(Integral>2.0){ 
0309A:  MOVLB  4
0309C:  CLRF   x05
0309E:  MOVFF  335,404
030A2:  MOVLB  0
030A4:  CALL   17C2
030A8:  MOVLB  3
030AA:  CLRF   xF6
030AC:  CLRF   xF5
030AE:  CLRF   xF4
030B0:  MOVLW  80
030B2:  MOVWF  xF3
030B4:  MOVFF  03,3FA
030B8:  MOVFF  02,3F9
030BC:  MOVFF  01,3F8
030C0:  MOVFF  00,3F7
030C4:  MOVLB  0
030C6:  RCALL  2A20
030C8:  BNC   310A
....................       Integral=1.0; 
030CA:  MOVLW  01
030CC:  MOVLB  3
030CE:  MOVWF  x35
....................       write_eeprom(26,1); 
030D0:  CLRF   FAA
030D2:  MOVLW  1A
030D4:  MOVWF  FA9
030D6:  MOVLW  01
030D8:  MOVWF  FA8
030DA:  BCF    FA6.6
030DC:  BCF    FA6.7
030DE:  BSF    FA6.2
030E0:  MOVF   FF2,W
030E2:  MOVWF  00
030E4:  BCF    FF2.6
030E6:  BCF    FF2.7
030E8:  MOVLB  F
030EA:  MOVLW  55
030EC:  MOVWF  FA7
030EE:  MOVLW  AA
030F0:  MOVWF  FA7
030F2:  BSF    FA6.1
030F4:  BTFSC  FA6.1
030F6:  BRA    30F4
030F8:  BCF    FA6.2
030FA:  MOVF   00,W
030FC:  IORWF  FF2,F
....................       delay_ms(10); 
030FE:  MOVLW  0A
03100:  MOVLB  4
03102:  MOVWF  x04
03104:  MOVLB  0
03106:  CALL   179C
....................    } 
....................    if(Derivativo>20.0){ 
0310A:  MOVLB  4
0310C:  CLRF   x05
0310E:  MOVFF  336,404
03112:  MOVLB  0
03114:  CALL   17C2
03118:  MOVLB  3
0311A:  CLRF   xF6
0311C:  CLRF   xF5
0311E:  MOVLW  20
03120:  MOVWF  xF4
03122:  MOVLW  83
03124:  MOVWF  xF3
03126:  MOVFF  03,3FA
0312A:  MOVFF  02,3F9
0312E:  MOVFF  01,3F8
03132:  MOVFF  00,3F7
03136:  MOVLB  0
03138:  RCALL  2A20
0313A:  BNC   317C
....................       Derivativo=15.0; 
0313C:  MOVLW  0F
0313E:  MOVLB  3
03140:  MOVWF  x36
....................       write_eeprom(27,15); 
03142:  CLRF   FAA
03144:  MOVLW  1B
03146:  MOVWF  FA9
03148:  MOVLW  0F
0314A:  MOVWF  FA8
0314C:  BCF    FA6.6
0314E:  BCF    FA6.7
03150:  BSF    FA6.2
03152:  MOVF   FF2,W
03154:  MOVWF  00
03156:  BCF    FF2.6
03158:  BCF    FF2.7
0315A:  MOVLB  F
0315C:  MOVLW  55
0315E:  MOVWF  FA7
03160:  MOVLW  AA
03162:  MOVWF  FA7
03164:  BSF    FA6.1
03166:  BTFSC  FA6.1
03168:  BRA    3166
0316A:  BCF    FA6.2
0316C:  MOVF   00,W
0316E:  IORWF  FF2,F
....................       delay_ms(10); 
03170:  MOVLW  0A
03172:  MOVLB  4
03174:  MOVWF  x04
03176:  MOVLB  0
03178:  CALL   179C
....................    } 
....................    if(Gain>50){ 
0317C:  MOVLB  3
0317E:  CLRF   xF6
03180:  CLRF   xF5
03182:  MOVLW  48
03184:  MOVWF  xF4
03186:  MOVLW  84
03188:  MOVWF  xF3
0318A:  MOVFF  2A5,3FA
0318E:  MOVFF  2A4,3F9
03192:  MOVFF  2A3,3F8
03196:  MOVFF  2A2,3F7
0319A:  MOVLB  0
0319C:  RCALL  2A20
0319E:  BNC   3226
....................       Gain=40.2; 
031A0:  MOVLW  CD
031A2:  MOVLB  2
031A4:  MOVWF  xA5
031A6:  MOVLW  CC
031A8:  MOVWF  xA4
031AA:  MOVLW  20
031AC:  MOVWF  xA3
031AE:  MOVLW  84
031B0:  MOVWF  xA2
....................       write_eeprom(28,40); 
031B2:  CLRF   FAA
031B4:  MOVLW  1C
031B6:  MOVWF  FA9
031B8:  MOVLW  28
031BA:  MOVWF  FA8
031BC:  BCF    FA6.6
031BE:  BCF    FA6.7
031C0:  BSF    FA6.2
031C2:  MOVF   FF2,W
031C4:  MOVWF  00
031C6:  BCF    FF2.6
031C8:  BCF    FF2.7
031CA:  MOVLB  F
031CC:  MOVLW  55
031CE:  MOVWF  FA7
031D0:  MOVLW  AA
031D2:  MOVWF  FA7
031D4:  BSF    FA6.1
031D6:  BTFSC  FA6.1
031D8:  BRA    31D6
031DA:  BCF    FA6.2
031DC:  MOVF   00,W
031DE:  IORWF  FF2,F
....................       delay_ms(10); 
031E0:  MOVLW  0A
031E2:  MOVLB  4
031E4:  MOVWF  x04
031E6:  MOVLB  0
031E8:  CALL   179C
....................       write_eeprom(29,2); 
031EC:  CLRF   FAA
031EE:  MOVLW  1D
031F0:  MOVWF  FA9
031F2:  MOVLW  02
031F4:  MOVWF  FA8
031F6:  BCF    FA6.6
031F8:  BCF    FA6.7
031FA:  BSF    FA6.2
031FC:  MOVF   FF2,W
031FE:  MOVWF  00
03200:  BCF    FF2.6
03202:  BCF    FF2.7
03204:  MOVLB  F
03206:  MOVLW  55
03208:  MOVWF  FA7
0320A:  MOVLW  AA
0320C:  MOVWF  FA7
0320E:  BSF    FA6.1
03210:  BTFSC  FA6.1
03212:  BRA    3210
03214:  BCF    FA6.2
03216:  MOVF   00,W
03218:  IORWF  FF2,F
....................       delay_ms(10); 
0321A:  MOVLW  0A
0321C:  MOVLB  4
0321E:  MOVWF  x04
03220:  MOVLB  0
03222:  CALL   179C
....................    } 
....................    if(R1>6400){ 
03226:  MOVLB  3
03228:  CLRF   xF6
0322A:  CLRF   xF5
0322C:  MOVLW  48
0322E:  MOVWF  xF4
03230:  MOVLW  8B
03232:  MOVWF  xF3
03234:  MOVFF  2B1,3FA
03238:  MOVFF  2B0,3F9
0323C:  MOVFF  2AF,3F8
03240:  MOVFF  2AE,3F7
03244:  MOVLB  0
03246:  CALL   2A20
0324A:  BNC   32D0
....................       R1=6200; 
0324C:  MOVLB  2
0324E:  CLRF   xB1
03250:  MOVLW  C0
03252:  MOVWF  xB0
03254:  MOVLW  41
03256:  MOVWF  xAF
03258:  MOVLW  8B
0325A:  MOVWF  xAE
....................       write_eeprom(30,0x38); 
0325C:  CLRF   FAA
0325E:  MOVLW  1E
03260:  MOVWF  FA9
03262:  MOVLW  38
03264:  MOVWF  FA8
03266:  BCF    FA6.6
03268:  BCF    FA6.7
0326A:  BSF    FA6.2
0326C:  MOVF   FF2,W
0326E:  MOVWF  00
03270:  BCF    FF2.6
03272:  BCF    FF2.7
03274:  MOVLB  F
03276:  MOVLW  55
03278:  MOVWF  FA7
0327A:  MOVLW  AA
0327C:  MOVWF  FA7
0327E:  BSF    FA6.1
03280:  BTFSC  FA6.1
03282:  BRA    3280
03284:  BCF    FA6.2
03286:  MOVF   00,W
03288:  IORWF  FF2,F
....................       delay_ms(10); 
0328A:  MOVLW  0A
0328C:  MOVLB  4
0328E:  MOVWF  x04
03290:  MOVLB  0
03292:  CALL   179C
....................       write_eeprom(31,0x18); 
03296:  CLRF   FAA
03298:  MOVLW  1F
0329A:  MOVWF  FA9
0329C:  MOVLW  18
0329E:  MOVWF  FA8
032A0:  BCF    FA6.6
032A2:  BCF    FA6.7
032A4:  BSF    FA6.2
032A6:  MOVF   FF2,W
032A8:  MOVWF  00
032AA:  BCF    FF2.6
032AC:  BCF    FF2.7
032AE:  MOVLB  F
032B0:  MOVLW  55
032B2:  MOVWF  FA7
032B4:  MOVLW  AA
032B6:  MOVWF  FA7
032B8:  BSF    FA6.1
032BA:  BTFSC  FA6.1
032BC:  BRA    32BA
032BE:  BCF    FA6.2
032C0:  MOVF   00,W
032C2:  IORWF  FF2,F
....................       delay_ms(10); 
032C4:  MOVLW  0A
032C6:  MOVLB  4
032C8:  MOVWF  x04
032CA:  MOVLB  0
032CC:  CALL   179C
....................    } 
....................    if(RPT100>2.0){ 
032D0:  MOVLB  3
032D2:  CLRF   xF6
032D4:  CLRF   xF5
032D6:  CLRF   xF4
032D8:  MOVLW  80
032DA:  MOVWF  xF3
032DC:  MOVFF  2A9,3FA
032E0:  MOVFF  2A8,3F9
032E4:  MOVFF  2A7,3F8
032E8:  MOVFF  2A6,3F7
032EC:  MOVLB  0
032EE:  CALL   2A20
032F2:  BNC   3372
....................       RPT100=0.5; 
032F4:  MOVLB  2
032F6:  CLRF   xA9
032F8:  CLRF   xA8
032FA:  CLRF   xA7
032FC:  MOVLW  7E
032FE:  MOVWF  xA6
....................       write_eeprom(32,0); 
03300:  CLRF   FAA
03302:  MOVLW  20
03304:  MOVWF  FA9
03306:  CLRF   FA8
03308:  BCF    FA6.6
0330A:  BCF    FA6.7
0330C:  BSF    FA6.2
0330E:  MOVF   FF2,W
03310:  MOVWF  00
03312:  BCF    FF2.6
03314:  BCF    FF2.7
03316:  MOVLB  F
03318:  MOVLW  55
0331A:  MOVWF  FA7
0331C:  MOVLW  AA
0331E:  MOVWF  FA7
03320:  BSF    FA6.1
03322:  BTFSC  FA6.1
03324:  BRA    3322
03326:  BCF    FA6.2
03328:  MOVF   00,W
0332A:  IORWF  FF2,F
....................       delay_ms(10); 
0332C:  MOVLW  0A
0332E:  MOVLB  4
03330:  MOVWF  x04
03332:  MOVLB  0
03334:  CALL   179C
....................       write_eeprom(33,5); 
03338:  CLRF   FAA
0333A:  MOVLW  21
0333C:  MOVWF  FA9
0333E:  MOVLW  05
03340:  MOVWF  FA8
03342:  BCF    FA6.6
03344:  BCF    FA6.7
03346:  BSF    FA6.2
03348:  MOVF   FF2,W
0334A:  MOVWF  00
0334C:  BCF    FF2.6
0334E:  BCF    FF2.7
03350:  MOVLB  F
03352:  MOVLW  55
03354:  MOVWF  FA7
03356:  MOVLW  AA
03358:  MOVWF  FA7
0335A:  BSF    FA6.1
0335C:  BTFSC  FA6.1
0335E:  BRA    335C
03360:  BCF    FA6.2
03362:  MOVF   00,W
03364:  IORWF  FF2,F
....................       delay_ms(10); 
03366:  MOVLW  0A
03368:  MOVLB  4
0336A:  MOVWF  x04
0336C:  MOVLB  0
0336E:  CALL   179C
....................    } 
....................    if(Ciclos>60000){ 
03372:  MOVLB  3
03374:  MOVF   x79,W
03376:  SUBLW  E9
03378:  BC    33F8
0337A:  XORLW  FF
0337C:  BNZ   3384
0337E:  MOVF   x78,W
03380:  SUBLW  60
03382:  BC    33F8
....................       Ciclos=0; 
03384:  CLRF   x79
03386:  CLRF   x78
....................       write_eeprom(37,0); 
03388:  CLRF   FAA
0338A:  MOVLW  25
0338C:  MOVWF  FA9
0338E:  CLRF   FA8
03390:  BCF    FA6.6
03392:  BCF    FA6.7
03394:  BSF    FA6.2
03396:  MOVF   FF2,W
03398:  MOVWF  00
0339A:  BCF    FF2.6
0339C:  BCF    FF2.7
0339E:  MOVLB  F
033A0:  MOVLW  55
033A2:  MOVWF  FA7
033A4:  MOVLW  AA
033A6:  MOVWF  FA7
033A8:  BSF    FA6.1
033AA:  BTFSC  FA6.1
033AC:  BRA    33AA
033AE:  BCF    FA6.2
033B0:  MOVF   00,W
033B2:  IORWF  FF2,F
....................       delay_ms(10); 
033B4:  MOVLW  0A
033B6:  MOVLB  4
033B8:  MOVWF  x04
033BA:  MOVLB  0
033BC:  CALL   179C
....................       write_eeprom(38,0); 
033C0:  CLRF   FAA
033C2:  MOVLW  26
033C4:  MOVWF  FA9
033C6:  CLRF   FA8
033C8:  BCF    FA6.6
033CA:  BCF    FA6.7
033CC:  BSF    FA6.2
033CE:  MOVF   FF2,W
033D0:  MOVWF  00
033D2:  BCF    FF2.6
033D4:  BCF    FF2.7
033D6:  MOVLB  F
033D8:  MOVLW  55
033DA:  MOVWF  FA7
033DC:  MOVLW  AA
033DE:  MOVWF  FA7
033E0:  BSF    FA6.1
033E2:  BTFSC  FA6.1
033E4:  BRA    33E2
033E6:  BCF    FA6.2
033E8:  MOVF   00,W
033EA:  IORWF  FF2,F
....................       delay_ms(10); 
033EC:  MOVLW  0A
033EE:  MOVLB  4
033F0:  MOVWF  x04
033F2:  MOVLB  0
033F4:  CALL   179C
....................    } 
....................    if(TTrampa>100){ 
033F8:  MOVLB  2
033FA:  MOVF   xDB,W
033FC:  SUBLW  64
033FE:  BC    343E
....................       TTrampa=80; 
03400:  MOVLW  50
03402:  MOVWF  xDB
....................       write_eeprom(39,80); 
03404:  CLRF   FAA
03406:  MOVLW  27
03408:  MOVWF  FA9
0340A:  MOVLW  50
0340C:  MOVWF  FA8
0340E:  BCF    FA6.6
03410:  BCF    FA6.7
03412:  BSF    FA6.2
03414:  MOVF   FF2,W
03416:  MOVWF  00
03418:  BCF    FF2.6
0341A:  BCF    FF2.7
0341C:  MOVLB  F
0341E:  MOVLW  55
03420:  MOVWF  FA7
03422:  MOVLW  AA
03424:  MOVWF  FA7
03426:  BSF    FA6.1
03428:  BTFSC  FA6.1
0342A:  BRA    3428
0342C:  BCF    FA6.2
0342E:  MOVF   00,W
03430:  IORWF  FF2,F
....................       delay_ms(10); 
03432:  MOVLW  0A
03434:  MOVLB  4
03436:  MOVWF  x04
03438:  MOVLB  0
0343A:  CALL   179C
....................    } 
....................    if(ActivaImpresion>1){ 
0343E:  MOVLB  3
03440:  MOVF   x54,W
03442:  SUBLW  01
03444:  BC    3486
....................       ActivaImpresion=1; 
03446:  MOVLW  01
03448:  MOVWF  x54
....................       write_eeprom(40,1); 
0344A:  CLRF   FAA
0344C:  MOVLW  28
0344E:  MOVWF  FA9
03450:  MOVLW  01
03452:  MOVWF  FA8
03454:  BCF    FA6.6
03456:  BCF    FA6.7
03458:  BSF    FA6.2
0345A:  MOVF   FF2,W
0345C:  MOVWF  00
0345E:  BCF    FF2.6
03460:  BCF    FF2.7
03462:  MOVLB  F
03464:  MOVLW  55
03466:  MOVWF  FA7
03468:  MOVLW  AA
0346A:  MOVWF  FA7
0346C:  BSF    FA6.1
0346E:  BTFSC  FA6.1
03470:  BRA    346E
03472:  BCF    FA6.2
03474:  MOVF   00,W
03476:  IORWF  FF2,F
....................       delay_ms(10); 
03478:  MOVLW  0A
0347A:  MOVLB  4
0347C:  MOVWF  x04
0347E:  MOVLB  0
03480:  CALL   179C
03484:  MOVLB  3
....................    } 
....................    if(timpresion>30){ 
03486:  MOVF   x55,W
03488:  SUBLW  1E
0348A:  BC    34CC
....................       timpresion=2; 
0348C:  MOVLW  02
0348E:  MOVWF  x55
....................       write_eeprom(41,2); 
03490:  CLRF   FAA
03492:  MOVLW  29
03494:  MOVWF  FA9
03496:  MOVLW  02
03498:  MOVWF  FA8
0349A:  BCF    FA6.6
0349C:  BCF    FA6.7
0349E:  BSF    FA6.2
034A0:  MOVF   FF2,W
034A2:  MOVWF  00
034A4:  BCF    FF2.6
034A6:  BCF    FF2.7
034A8:  MOVLB  F
034AA:  MOVLW  55
034AC:  MOVWF  FA7
034AE:  MOVLW  AA
034B0:  MOVWF  FA7
034B2:  BSF    FA6.1
034B4:  BTFSC  FA6.1
034B6:  BRA    34B4
034B8:  BCF    FA6.2
034BA:  MOVF   00,W
034BC:  IORWF  FF2,F
....................       delay_ms(10); 
034BE:  MOVLW  0A
034C0:  MOVLB  4
034C2:  MOVWF  x04
034C4:  MOVLB  0
034C6:  CALL   179C
034CA:  MOVLB  3
....................    } 
....................    if(sg1==10){ 
034CC:  MOVF   xA7,W
034CE:  SUBLW  0A
034D0:  BNZ   34E6
....................       G1=G1*(-1); 
034D2:  MOVFF  3A5,3F1
034D6:  MOVLW  FF
034D8:  MOVWF  xF2
034DA:  MOVLB  0
034DC:  CALL   2A9A
034E0:  MOVFF  01,3A5
034E4:  MOVLB  3
....................    } 
....................    if(sg2==10){ 
034E6:  MOVF   xA8,W
034E8:  SUBLW  0A
034EA:  BNZ   3500
....................       G2=G2*(-1); 
034EC:  MOVFF  3A6,3F1
034F0:  MOVLW  FF
034F2:  MOVWF  xF2
034F4:  MOVLB  0
034F6:  CALL   2A9A
034FA:  MOVFF  01,3A6
034FE:  MOVLB  3
....................    } 
.................... } 
03500:  MOVLB  0
03502:  GOTO   5B28 (RETURN)
....................  
.................... void LeeDisplay(void){ 
....................    if(Dato_Exitoso==5){ 
*
03B3E:  MOVLB  3
03B40:  MOVF   x58,W
03B42:  SUBLW  05
03B44:  BTFSS  FD8.2
03B46:  BRA    3CA6
....................          RX_Buffer[0]=RX_Buffer2[0]; 
03B48:  MOVFF  3B,30
....................          RX_Buffer[1]=RX_Buffer2[1]; 
03B4C:  MOVFF  3C,31
....................          RX_Buffer[2]=RX_Buffer2[2]; 
03B50:  MOVFF  3D,32
....................          RX_Buffer[3]=RX_Buffer2[3]; 
03B54:  MOVFF  3E,33
....................          RX_Buffer[4]=RX_Buffer2[4]; 
03B58:  MOVFF  3F,34
....................          RX_Buffer[5]=RX_Buffer2[5]; 
03B5C:  MOVFF  40,35
....................          RX_Buffer[6]=RX_Buffer2[6]; 
03B60:  MOVFF  41,36
....................          RX_Buffer[7]=RX_Buffer2[7]; 
03B64:  MOVFF  42,37
....................          RX_Buffer[8]=RX_Buffer2[8]; 
03B68:  MOVFF  43,38
....................          RX_Buffer[9]=RX_Buffer2[9]; 
03B6C:  MOVFF  44,39
....................           
....................       if(RX_Buffer[3]==0x01){// Pregunta por la pagina en la que esta el display,01 es Contrasea de Acceso 
03B70:  DECFSZ 33,W
03B72:  BRA    3B82
....................          Menu=0; 
03B74:  CLRF   x5B
....................          if(MenuAntt!=Menu) 
03B76:  MOVF   x5B,W
03B78:  SUBWF  x5D,W
03B7A:  BZ    3B80
....................             MenuAntt=Menu; 
03B7C:  MOVFF  35B,35D
....................       }else if(RX_Buffer[3]==0x02){//02 es Menu Principal con PantallaPriincipal=0, y con PantallaPrincipal=1 es Ciclo Libre 
03B80:  BRA    3CA4
03B82:  MOVF   33,W
03B84:  SUBLW  02
03B86:  BNZ   3B98
....................          Menu=1; 
03B88:  MOVLW  01
03B8A:  MOVWF  x5B
....................          if(MenuAntt!=Menu) 
03B8C:  MOVF   x5B,W
03B8E:  SUBWF  x5D,W
03B90:  BZ    3B96
....................             MenuAntt=Menu; 
03B92:  MOVFF  35B,35D
....................       }else if(RX_Buffer[3]==0x03){//03 es Tiempo Esterilizacion 
03B96:  BRA    3CA4
03B98:  MOVF   33,W
03B9A:  SUBLW  03
03B9C:  BNZ   3BAE
....................          Menu=2; 
03B9E:  MOVLW  02
03BA0:  MOVWF  x5B
....................          if(MenuAntt!=Menu) 
03BA2:  MOVF   x5B,W
03BA4:  SUBWF  x5D,W
03BA6:  BZ    3BAC
....................             MenuAntt=Menu; 
03BA8:  MOVFF  35B,35D
....................       }else if(RX_Buffer[3]==0x04){//04 es Tiempo de Secado 
03BAC:  BRA    3CA4
03BAE:  MOVF   33,W
03BB0:  SUBLW  04
03BB2:  BNZ   3BC4
....................          Menu=3; 
03BB4:  MOVLW  03
03BB6:  MOVWF  x5B
....................          if(MenuAntt!=Menu) 
03BB8:  MOVF   x5B,W
03BBA:  SUBWF  x5D,W
03BBC:  BZ    3BC2
....................             MenuAntt=Menu; 
03BBE:  MOVFF  35B,35D
....................       }else if(RX_Buffer[3]==0x05){//05 es Temperatura 
03BC2:  BRA    3CA4
03BC4:  MOVF   33,W
03BC6:  SUBLW  05
03BC8:  BNZ   3BDA
....................          Menu=4; 
03BCA:  MOVLW  04
03BCC:  MOVWF  x5B
....................          if(MenuAntt!=Menu) 
03BCE:  MOVF   x5B,W
03BD0:  SUBWF  x5D,W
03BD2:  BZ    3BD8
....................             MenuAntt=Menu; 
03BD4:  MOVFF  35B,35D
....................       }else if(RX_Buffer[3]==0x06){//06 es Nivel 
03BD8:  BRA    3CA4
03BDA:  MOVF   33,W
03BDC:  SUBLW  06
03BDE:  BNZ   3BF0
....................          Menu=5; 
03BE0:  MOVLW  05
03BE2:  MOVWF  x5B
....................          if(MenuAntt!=Menu) 
03BE4:  MOVF   x5B,W
03BE6:  SUBWF  x5D,W
03BE8:  BZ    3BEE
....................             MenuAntt=Menu; 
03BEA:  MOVFF  35B,35D
....................       }else if(RX_Buffer[3]==0x07){//07 es Test de Componentes 
03BEE:  BRA    3CA4
03BF0:  MOVF   33,W
03BF2:  SUBLW  07
03BF4:  BNZ   3C06
....................          Menu=6; 
03BF6:  MOVLW  06
03BF8:  MOVWF  x5B
....................          if(MenuAntt!=Menu) 
03BFA:  MOVF   x5B,W
03BFC:  SUBWF  x5D,W
03BFE:  BZ    3C04
....................             MenuAntt=Menu; 
03C00:  MOVFF  35B,35D
....................       }else if(RX_Buffer[3]==0x08){//08 es Fecha y hora 
03C04:  BRA    3CA4
03C06:  MOVF   33,W
03C08:  SUBLW  08
03C0A:  BNZ   3C1C
....................          Menu=7; 
03C0C:  MOVLW  07
03C0E:  MOVWF  x5B
....................          if(MenuAntt!=Menu) 
03C10:  MOVF   x5B,W
03C12:  SUBWF  x5D,W
03C14:  BZ    3C1A
....................             MenuAntt=Menu; 
03C16:  MOVFF  35B,35D
....................       }else if(RX_Buffer[3]==0x09){//09 es Ciclos Personalizados 
03C1A:  BRA    3CA4
03C1C:  MOVF   33,W
03C1E:  SUBLW  09
03C20:  BNZ   3C32
....................          Menu=8; 
03C22:  MOVLW  08
03C24:  MOVWF  x5B
....................          if(MenuAntt!=Menu) 
03C26:  MOVF   x5B,W
03C28:  SUBWF  x5D,W
03C2A:  BZ    3C30
....................             MenuAntt=Menu; 
03C2C:  MOVFF  35B,35D
....................       }else if(RX_Buffer[3]==0x0f){//0f es Recibe caracteres de contrasea desde display 
03C30:  BRA    3CA4
03C32:  MOVF   33,W
03C34:  SUBLW  0F
03C36:  BNZ   3C3A
....................           
....................       }else if(RX_Buffer[3]==0x1a){//1a es Menu de Funcionamiento 
03C38:  BRA    3CA4
03C3A:  MOVF   33,W
03C3C:  SUBLW  1A
03C3E:  BNZ   3C50
....................          Menu=20; 
03C40:  MOVLW  14
03C42:  MOVWF  x5B
....................          if(MenuAntt!=Menu) 
03C44:  MOVF   x5B,W
03C46:  SUBWF  x5D,W
03C48:  BZ    3C4E
....................             MenuAntt=Menu; 
03C4A:  MOVFF  35B,35D
....................       }else if(RX_Buffer[3]==0x1b){//1b es Menu de clave correcta 
03C4E:  BRA    3CA4
03C50:  MOVF   33,W
03C52:  SUBLW  1B
03C54:  BNZ   3C66
....................          Menu=15; 
03C56:  MOVLW  0F
03C58:  MOVWF  x5B
....................          if(MenuAntt!=Menu) 
03C5A:  MOVF   x5B,W
03C5C:  SUBWF  x5D,W
03C5E:  BZ    3C64
....................             MenuAntt=Menu; 
03C60:  MOVFF  35B,35D
....................       }else if(RX_Buffer[3]==0x1c){//1c es Menu de clave incorrecta 
03C64:  BRA    3CA4
03C66:  MOVF   33,W
03C68:  SUBLW  1C
03C6A:  BNZ   3C7C
....................          Menu=16; 
03C6C:  MOVLW  10
03C6E:  MOVWF  x5B
....................          if(MenuAntt!=Menu) 
03C70:  MOVF   x5B,W
03C72:  SUBWF  x5D,W
03C74:  BZ    3C7A
....................             MenuAntt=Menu; 
03C76:  MOVFF  35B,35D
....................       }else if(RX_Buffer[3]==0x2c){//2c es Menu de Configuracion de Parametros 
03C7A:  BRA    3CA4
03C7C:  MOVF   33,W
03C7E:  SUBLW  2C
03C80:  BNZ   3C92
....................          Menu=100; 
03C82:  MOVLW  64
03C84:  MOVWF  x5B
....................          if(MenuAntt!=Menu) 
03C86:  MOVF   x5B,W
03C88:  SUBWF  x5D,W
03C8A:  BZ    3C90
....................             MenuAntt=Menu; 
03C8C:  MOVFF  35B,35D
....................       }else if(RX_Buffer[3]==0xcc){//cc es Menu de Bienvenida 
03C90:  BRA    3CA4
03C92:  MOVF   33,W
03C94:  SUBLW  CC
03C96:  BNZ   3CA4
....................          Menu=240; 
03C98:  MOVLW  F0
03C9A:  MOVWF  x5B
....................          if(MenuAntt!=240) 
03C9C:  MOVF   x5D,W
03C9E:  SUBLW  F0
03CA0:  BZ    3CA4
....................             reset_cpu(); 
03CA2:  RESET
....................       } 
....................    }else{ 
03CA4:  BRA    3CB2
....................       for(z=0;z<RX_BUFFER_SIZE;z++){ 
03CA6:  CLRF   x5A
03CA8:  MOVF   x5A,W
03CAA:  SUBLW  09
03CAC:  BNC   3CB2
....................             //Rx_Buffer[z]=0; 
....................             //Rx_Buffer2[z]=0; 
....................          } 
03CAE:  INCF   x5A,F
03CB0:  BRA    3CA8
....................    } 
.................... } 
03CB2:  MOVLB  0
03CB4:  GOTO   5C52 (RETURN)
....................  
.................... void ConfiguraCiclo(int8 este0,este1,este2,este3,secado0,secado1,secado2,secado3,liquidos,ciclo,temperatura){ 
....................    Testerilizacionp[0]=este0;Testerilizacionp[1]=este1;Testerilizacionp[2]=este2;Testerilizacionp[3]=este3; 
*
045BE:  MOVFF  3F9,B5
045C2:  MOVFF  3FA,B6
045C6:  MOVFF  3FB,B7
045CA:  MOVFF  3FC,B8
....................    Tsecadop[0]=secado0;Tsecadop[1]=secado1;Tsecadop[2]=secado2;Tsecadop[3]=secado3; 
045CE:  MOVFF  3FD,BE
045D2:  MOVFF  3FE,BF
045D6:  MOVFF  3FF,C0
045DA:  MOVFF  400,C1
....................    Setpoint=temperatura;                
045DE:  MOVFF  403,362
....................    tiempo_secado=0; 
045E2:  MOVLB  3
045E4:  CLRF   x66
....................    desfoguelento=liquidos; 
045E6:  BCF    x50.0
045E8:  MOVLB  4
045EA:  BTFSS  x01.0
045EC:  BRA    45F4
045EE:  MOVLB  3
045F0:  BSF    x50.0
045F2:  MOVLB  4
....................    CicloSeleccionado=ciclo; 
045F4:  MOVFF  402,361
....................    if(ActivaImpresion==1){ 
045F8:  MOVLB  3
045FA:  DECFSZ x54,W
045FC:  BRA    4618
....................       Imprime=15; 
045FE:  MOVLW  0F
04600:  MOVWF  xA4
....................       Envio_Esclavos(); 
04602:  MOVLB  0
04604:  RCALL  3F0E
....................       delay_ms(100); 
04606:  MOVLW  64
04608:  MOVLB  4
0460A:  MOVWF  x04
0460C:  MOVLB  0
0460E:  CALL   179C
....................       Imprime=10; 
04612:  MOVLW  0A
04614:  MOVLB  3
04616:  MOVWF  xA4
....................    } 
....................    Testerilizacion[0]=Testerilizacionp[0];Testerilizacion[1]=Testerilizacionp[1];Testerilizacion[2]=Testerilizacionp[2]; 
04618:  MOVFF  B5,B0
0461C:  MOVFF  B6,B1
04620:  MOVFF  B7,B2
....................    Testerilizacion[3]=Testerilizacionp[3];Testerilizacion[4]=Testerilizacionp[4]; 
04624:  MOVFF  B8,B3
04628:  MOVFF  B9,B4
....................    Tsecado[0]=Tsecadop[0];Tsecado[1]=Tsecadop[1];Tsecado[2]=Tsecadop[2];Tsecado[3]=Tsecadop[3]; 
0462C:  MOVFF  BE,BA
04630:  MOVFF  BF,BB
04634:  MOVFF  C0,BC
04638:  MOVFF  C1,BD
.................... } 
0463C:  MOVLB  0
0463E:  RETLW  00
....................  
.................... void ActivaAlarma(int8 Tipo){ 
....................     
....................    if(tsilencio>12000){ 
*
0417A:  MOVLB  3
0417C:  MOVF   x90,W
0417E:  SUBLW  2D
04180:  BC    4196
04182:  XORLW  FF
04184:  BNZ   418C
04186:  MOVF   x8F,W
04188:  SUBLW  E0
0418A:  BC    4196
....................       tsilencio=0; 
0418C:  CLRF   x90
0418E:  CLRF   x8F
....................       flagSilencio=OFF; 
04190:  MOVLB  0
04192:  BCF    xA3.0
04194:  MOVLB  3
....................    } 
....................     
....................    if(Tipo==1){ // Alarma por Error 
04196:  DECFSZ xEF,W
04198:  BRA    41EE
....................    if(UP || DOWN || RIGHT || LEFT) 
0419A:  BSF    F93.0
0419C:  BTFSS  F81.0
0419E:  BRA    41B2
041A0:  BSF    F93.1
041A2:  BTFSS  F81.1
041A4:  BRA    41B2
041A6:  BSF    F93.2
041A8:  BTFSS  F81.2
041AA:  BRA    41B2
041AC:  BSF    F93.3
041AE:  BTFSC  F81.3
041B0:  BRA    41B6
....................       flagSilencio=ON; 
041B2:  MOVLB  0
041B4:  BSF    xA3.0
....................        
....................       if(!flagSilencio){ 
041B6:  MOVLB  0
041B8:  BTFSC  xA3.0
041BA:  BRA    41E6
....................          flagAlarma=1; 
041BC:  BSF    xA2.6
....................          if(tbuzzer>200){ 
041BE:  MOVLB  3
041C0:  MOVF   x8E,F
041C2:  BNZ   41CA
041C4:  MOVF   x8D,W
041C6:  SUBLW  C8
041C8:  BC    41E2
....................             tbuzzer=0; 
041CA:  CLRF   x8E
041CC:  CLRF   x8D
....................             flagBuzzer=!flagBuzzer; 
041CE:  MOVLB  0
041D0:  BTG    xA2.7
....................             if(flagBuzzer) 
041D2:  BTFSS  xA2.7
041D4:  BRA    41DC
....................                Buzzer_on; 
041D6:  BSF    F8C.0
041D8:  BCF    F95.0
....................             else 
041DA:  BRA    41E0
....................                Buzzer_off; 
041DC:  BCF    F8C.0
041DE:  BCF    F95.0
041E0:  MOVLB  3
....................          } 
....................       }else{ 
041E2:  BRA    41EC
041E4:  MOVLB  0
....................          Buzzer_off; 
041E6:  BCF    F8C.0
041E8:  BCF    F95.0
041EA:  MOVLB  3
....................       } 
....................    }else if(Tipo==2){ 
041EC:  BRA    4246
041EE:  MOVF   xEF,W
041F0:  SUBLW  02
041F2:  BNZ   4246
....................    if(UP || DOWN || RIGHT || LEFT) 
041F4:  BSF    F93.0
041F6:  BTFSS  F81.0
041F8:  BRA    420C
041FA:  BSF    F93.1
041FC:  BTFSS  F81.1
041FE:  BRA    420C
04200:  BSF    F93.2
04202:  BTFSS  F81.2
04204:  BRA    420C
04206:  BSF    F93.3
04208:  BTFSC  F81.3
0420A:  BRA    4210
....................       ConteoBuzzer=21; 
0420C:  MOVLW  15
0420E:  MOVWF  x8A
....................        
....................       flagAlarma=1; 
04210:  MOVLB  0
04212:  BSF    xA2.6
....................       if(ConteoBuzzer<20){    
04214:  MOVLB  3
04216:  MOVF   x8A,W
04218:  SUBLW  13
0421A:  BNC   4242
....................          if(tbuzzer>100){ 
0421C:  MOVF   x8E,F
0421E:  BNZ   4226
04220:  MOVF   x8D,W
04222:  SUBLW  64
04224:  BC    4240
....................             tbuzzer=0; 
04226:  CLRF   x8E
04228:  CLRF   x8D
....................             flagBuzzer=!flagBuzzer; 
0422A:  MOVLB  0
0422C:  BTG    xA2.7
....................             if(flagBuzzer) 
0422E:  BTFSS  xA2.7
04230:  BRA    4238
....................                Buzzer_on; 
04232:  BSF    F8C.0
04234:  BCF    F95.0
....................             else 
04236:  BRA    423C
....................                Buzzer_off; 
04238:  BCF    F8C.0
0423A:  BCF    F95.0
....................                 
....................             ConteoBuzzer++;    
0423C:  MOVLB  3
0423E:  INCF   x8A,F
....................          } 
....................       }else{ 
04240:  BRA    4246
....................          Buzzer_off; 
04242:  BCF    F8C.0
04244:  BCF    F95.0
....................       } 
....................    } 
.................... } 
04246:  MOVLB  0
04248:  RETLW  00
....................  
.................... void CalientaChaqueta(){ 
....................    if(PresionPrecamara<130){ 
....................       SSR_on; 
....................    }else if(PresionPreCamara>150){ 
....................       SSR_off; 
....................    } 
.................... } 
....................  
.................... void ApagaSalidas(){ 
....................    Desfogue_off; 
*
0356E:  BCF    F8C.4
03570:  BCF    F95.4
....................    Paso_off; 
03572:  BCF    F8C.6
03574:  BCF    F95.6
....................    //Vent_off; 
....................    Buzzer_off; 
03576:  BCF    F8C.0
03578:  BCF    F95.0
....................    SSR_off; 
0357A:  BSF    F8B.2
0357C:  BCF    F94.2
....................    Controlando=0; 
0357E:  MOVLB  3
03580:  CLRF   x53
.................... } 
03582:  MOVLB  0
03584:  RETLW  00
....................  
.................... int8 extraeDecima(int8 tiempo){ 
*
04904:  MOVLB  3
04906:  CLRF   xF7
04908:  CLRF   xF8
....................    int8 tmp=0,decima=0; 
....................    tmp=tiempo/10; 
0490A:  MOVFF  3F6,3F9
0490E:  MOVLW  0A
04910:  MOVWF  xFA
04912:  MOVLB  0
04914:  RCALL  42A8
04916:  MOVFF  01,3F7
....................    tmp=tmp*10; 
0491A:  MOVLB  3
0491C:  MOVF   xF7,W
0491E:  MULLW  0A
04920:  MOVFF  FF3,3F7
....................    decima=tiempo-tmp; 
04924:  MOVF   xF7,W
04926:  SUBWF  xF6,W
04928:  MOVWF  xF8
....................    return decima; 
0492A:  MOVFF  3F8,01
.................... } 
0492E:  MOVLB  0
04930:  RETLW  00
....................  
.................... void purgaAire(){ 
....................    if(PresionCamara>30 && !purgo){ 
*
05204:  MOVLB  3
05206:  MOVF   x75,F
05208:  BNZ   5210
0520A:  MOVF   x74,W
0520C:  SUBLW  1E
0520E:  BC    5220
05210:  MOVLB  0
05212:  BTFSS  xA3.6
05214:  BRA    521A
05216:  MOVLB  3
05218:  BRA    5220
....................       purgaAire2=ON; 
0521A:  BSF    xA3.7
....................    }else{ 
0521C:  BRA    5228
0521E:  MOVLB  3
....................       purgaAire2=OFF; 
05220:  MOVLB  0
05222:  BCF    xA3.7
....................       Desfogue_off; 
05224:  BCF    F8C.4
05226:  BCF    F95.4
....................    } 
....................     
....................    if(purgaAire2){ 
05228:  BTFSS  xA3.7
0522A:  BRA    52F0
....................       if(tPurgaAire>0 && tPurgaAire<6){ 
0522C:  MOVF   xAE,F
0522E:  BNZ   5234
05230:  MOVF   xAF,F
05232:  BZ    5244
05234:  MOVF   xAF,F
05236:  BNZ   5244
05238:  MOVF   xAE,W
0523A:  SUBLW  05
0523C:  BNC   5244
....................          Desfogue_on; 
0523E:  BSF    F8C.4
05240:  BCF    F95.4
....................       }else if(tPurgaAire>=6 && tPurgaAire<66){ 
05242:  BRA    52F0
05244:  MOVF   xAF,F
05246:  BNZ   524E
05248:  MOVF   xAE,W
0524A:  SUBLW  05
0524C:  BC    525E
0524E:  MOVF   xAF,F
05250:  BNZ   525E
05252:  MOVF   xAE,W
05254:  SUBLW  41
05256:  BNC   525E
....................          Desfogue_off; 
05258:  BCF    F8C.4
0525A:  BCF    F95.4
....................       }else if(tPurgaAire>=66 && tPurgaAire<72){ 
0525C:  BRA    52F0
0525E:  MOVF   xAF,F
05260:  BNZ   5268
05262:  MOVF   xAE,W
05264:  SUBLW  41
05266:  BC    5278
05268:  MOVF   xAF,F
0526A:  BNZ   5278
0526C:  MOVF   xAE,W
0526E:  SUBLW  47
05270:  BNC   5278
....................          Desfogue_on; 
05272:  BSF    F8C.4
05274:  BCF    F95.4
....................       }else if(tPurgaAire>=72 && tPurgaAire<132){ 
05276:  BRA    52F0
05278:  MOVF   xAF,F
0527A:  BNZ   5282
0527C:  MOVF   xAE,W
0527E:  SUBLW  47
05280:  BC    5292
05282:  MOVF   xAF,F
05284:  BNZ   5292
05286:  MOVF   xAE,W
05288:  SUBLW  83
0528A:  BNC   5292
....................          Desfogue_off; 
0528C:  BCF    F8C.4
0528E:  BCF    F95.4
....................       }else if(tPurgaAire>=132 && tPurgaAire<138){ 
05290:  BRA    52F0
05292:  MOVF   xAF,F
05294:  BNZ   529C
05296:  MOVF   xAE,W
05298:  SUBLW  83
0529A:  BC    52AC
0529C:  MOVF   xAF,F
0529E:  BNZ   52AC
052A0:  MOVF   xAE,W
052A2:  SUBLW  89
052A4:  BNC   52AC
....................          Desfogue_on; 
052A6:  BSF    F8C.4
052A8:  BCF    F95.4
....................       }else if(tPurgaAire>=138 && tPurgaAire<198){ 
052AA:  BRA    52F0
052AC:  MOVF   xAF,F
052AE:  BNZ   52B6
052B0:  MOVF   xAE,W
052B2:  SUBLW  89
052B4:  BC    52C6
052B6:  MOVF   xAF,F
052B8:  BNZ   52C6
052BA:  MOVF   xAE,W
052BC:  SUBLW  C5
052BE:  BNC   52C6
....................          Desfogue_off; 
052C0:  BCF    F8C.4
052C2:  BCF    F95.4
....................       }else if(tPurgaAire>=198 && tPurgaAire<204){ 
052C4:  BRA    52F0
052C6:  MOVF   xAF,F
052C8:  BNZ   52D0
052CA:  MOVF   xAE,W
052CC:  SUBLW  C5
052CE:  BC    52E0
052D0:  MOVF   xAF,F
052D2:  BNZ   52E0
052D4:  MOVF   xAE,W
052D6:  SUBLW  CB
052D8:  BNC   52E0
....................          Desfogue_on; 
052DA:  BSF    F8C.4
052DC:  BCF    F95.4
....................       }else if(tPurgaAire>0){ 
052DE:  BRA    52F0
052E0:  MOVF   xAE,F
052E2:  BNZ   52E8
052E4:  MOVF   xAF,F
052E6:  BZ    52F0
....................          Desfogue_off; 
052E8:  BCF    F8C.4
052EA:  BCF    F95.4
....................          purgaAire2=OFF; 
052EC:  BCF    xA3.7
....................          purgo=ON; 
052EE:  BSF    xA3.6
....................       } 
....................    } 
....................  
.................... } 
052F0:  GOTO   A334 (RETURN)
....................  
....................  
.................... #int_rda HIGH 
.................... void serial_rx_isr(){ 
....................  
....................    Dato2=fgetc(); 
*
00204:  BTFSS  F9E.5
00206:  BRA    0204
00208:  MOVFF  FAE,359
0020C:  MOVLB  3
....................    if(Dato2==0x65){//Inicio Comunicacion 
0020E:  MOVF   x59,W
00210:  SUBLW  65
00212:  BNZ   021A
....................       Inicio=1; 
00214:  MOVLW  01
00216:  MOVWF  x57
....................       RX_Wr_Index =0; 
00218:  CLRF   46
....................    } 
....................    //Inicio=1; 
....................    if(Inicio==1){ 
0021A:  DECFSZ x57,W
0021C:  BRA    0232
....................       Rx_Buffer2[RX_Wr_Index] = Dato2; 
0021E:  CLRF   03
00220:  MOVF   46,W
00222:  ADDLW  3B
00224:  MOVWF  FE9
00226:  MOVLW  00
00228:  ADDWFC 03,W
0022A:  MOVWF  FEA
0022C:  MOVFF  359,FEF
....................       RX_Wr_Index++; 
00230:  INCF   46,F
....................    } 
....................    if(RX_Wr_Index >= RX_BUFFER_SIZE){ 
00232:  MOVF   46,W
00234:  SUBLW  09
00236:  BC    023C
....................       RX_Wr_Index =0; 
00238:  CLRF   46
....................       Inicio=0; 
0023A:  CLRF   x57
....................    } 
....................  
....................    if(RX_Wr_Index==0){ 
0023C:  MOVF   46,F
0023E:  BNZ   0260
....................       if(Rx_Buffer2[0]==0x65 && Rx_Buffer2[1]==0xff && Rx_Buffer2[2]==0xff && Rx_Buffer2[8]==0x00 && Rx_Buffer2[9]==0xff ){ 
00240:  MOVF   3B,W
00242:  SUBLW  65
00244:  BNZ   025C
00246:  INCFSZ 3C,W
00248:  BRA    025C
0024A:  INCFSZ 3D,W
0024C:  BRA    025C
0024E:  MOVF   43,F
00250:  BNZ   025C
00252:  INCFSZ 44,W
00254:  BRA    025C
....................          Dato_Exitoso=5; 
00256:  MOVLW  05
00258:  MOVWF  x58
....................       }else{ 
0025A:  BRA    0260
....................          Dato_Exitoso=10; 
0025C:  MOVLW  0A
0025E:  MOVWF  x58
....................       } 
....................    } 
....................    //Dato_Exitoso=5; 
....................    if(Menu==20) 
00260:  MOVF   x5B,W
00262:  SUBLW  14
00264:  BNZ   026A
....................      Buzzer_on; 
00266:  BSF    F8C.0
00268:  BCF    F95.0
.................... } 
....................  
0026A:  BCF    F9E.5
0026C:  MOVLB  0
0026E:  GOTO   010A
.................... #int_TIMER0 
.................... void temp0s(void){ 
....................    set_timer0(0); 
00272:  CLRF   FD7
00274:  CLRF   FD6
....................    t_exhaust++; 
00276:  MOVLB  3
00278:  INCF   x8B,F
0027A:  BTFSC  FD8.2
0027C:  INCF   x8C,F
....................    if(DesfogueSuave) 
0027E:  MOVLB  0
00280:  BTFSS  xA0.6
00282:  BRA    02C4
....................    { 
....................       if(Nivel<6) 
00284:  MOVLB  3
00286:  MOVF   x71,F
00288:  BNZ   02BE
0028A:  MOVF   x70,W
0028C:  SUBLW  05
0028E:  BNC   02BE
....................       { 
....................          if(t_exhaust<=NivelSeleccionado) // Si el tiempo es menor o igual al tiempo de control se enciende la resistencia de lo contrario se apaga. 
00290:  MOVF   x8C,W
00292:  SUBWF  x7B,W
00294:  BNC   02A4
00296:  BNZ   029E
00298:  MOVF   x8B,W
0029A:  SUBWF  x7A,W
0029C:  BNC   02A4
....................          { 
....................             Desfogue_on; 
0029E:  BSF    F8C.4
002A0:  BCF    F95.4
....................          }else{             
002A2:  BRA    02A8
....................             Desfogue_off; 
002A4:  BCF    F8C.4
002A6:  BCF    F95.4
....................          }    
....................        
....................          if(t_exhaust>=60000) // Si el tiempo de control es mayor al tiempo de ciclo se reinicia tiempo de control 
002A8:  MOVF   x8C,W
002AA:  SUBLW  E9
002AC:  BC    02BC
002AE:  XORLW  FF
002B0:  BNZ   02B8
002B2:  MOVF   x8B,W
002B4:  SUBLW  5F
002B6:  BC    02BC
....................          { 
....................             t_exhaust=0; 
002B8:  CLRF   x8C
002BA:  CLRF   x8B
....................          } // tiempoctrl incrementa una unidad cada Xms, por eso se dividen los tiempos por 0.005. 
....................       } 
....................       else 
002BC:  BRA    02C2
....................       { 
....................          Desfogue_on; 
002BE:  BSF    F8C.4
002C0:  BCF    F95.4
002C2:  MOVLB  0
....................       } 
....................    }   
.................... } 
....................  
002C4:  BCF    FF2.2
002C6:  GOTO   0074
.................... #int_TIMER1 
.................... void temp1s(void){ 
....................    set_timer1(40536); // Se repite cada 5ms 
002CA:  MOVLW  9E
002CC:  MOVWF  FCF
002CE:  MOVLW  58
002D0:  MOVWF  FCE
....................    tiempos++; 
002D2:  MOVLB  3
002D4:  INCF   x68,F
002D6:  BTFSC  FD8.2
002D8:  INCF   x69,F
....................    tiempos2++; 
002DA:  INCF   x6A,F
002DC:  BTFSC  FD8.2
002DE:  INCF   x6B,F
....................    tiempos3++; 
002E0:  INCF   x6C,F
002E2:  BTFSC  FD8.2
002E4:  INCF   x6D,F
....................    tiempoctrl++; 
002E6:  INCF   x6E,F
002E8:  BTFSC  FD8.2
002EA:  INCF   x6F,F
....................     
....................    if(!STOP){ 
002EC:  BSF    F93.7
002EE:  BTFSS  F81.7
002F0:  BRA    02FA
....................       tStop++; 
002F2:  INCF   x91,F
002F4:  BTFSC  FD8.2
002F6:  INCF   x92,F
....................    }else{ 
002F8:  BRA    02FE
....................       tStop=0; 
002FA:  CLRF   x92
002FC:  CLRF   x91
....................    } 
....................     
....................    if(!TERM){ 
002FE:  BSF    F93.5
00300:  BTFSS  F81.5
00302:  BRA    030C
....................       tTermostato++; 
00304:  INCF   x93,F
00306:  BTFSC  FD8.2
00308:  INCF   x94,F
....................    }else{ 
0030A:  BRA    0310
....................       tTermostato=0; 
0030C:  CLRF   x94
0030E:  CLRF   x93
....................    } 
....................     
....................    if(flagAlarma) 
00310:  MOVLB  0
00312:  BTFSS  xA2.6
00314:  BRA    0320
....................       tbuzzer++; 
00316:  MOVLB  3
00318:  INCF   x8D,F
0031A:  BTFSC  FD8.2
0031C:  INCF   x8E,F
0031E:  MOVLB  0
....................        
....................    if(flagSilencio)    
00320:  BTFSS  xA3.0
00322:  BRA    032C
....................       tsilencio++; 
00324:  MOVLB  3
00326:  INCF   x8F,F
00328:  BTFSC  FD8.2
0032A:  INCF   x90,F
....................     
....................    if(Controlando==1){ 
0032C:  MOVLB  3
0032E:  DECFSZ x53,W
00330:  BRA    036E
....................       if(tiempoctrl<Tp) // Si el tiempo es menor o igual al tiempo de control se enciende la resistencia de lo contrario se apaga. 
00332:  MOVF   x6F,W
00334:  MOVLB  0
00336:  SUBWF  xAB,W
00338:  BNC   0352
0033A:  BNZ   034C
0033C:  MOVF   xAA,W
0033E:  MOVLB  3
00340:  SUBWF  x6E,W
00342:  BTFSS  FD8.0
00344:  BRA    034A
00346:  MOVLB  0
00348:  BRA    0352
0034A:  MOVLB  0
....................       { 
....................          SSR_on; 
0034C:  BCF    F8B.2
0034E:  BCF    F94.2
....................       } 
....................       else          
00350:  BRA    0356
....................       { 
....................          SSR_off; 
00352:  BSF    F8B.2
00354:  BCF    F94.2
....................       } 
....................              
....................       if(tiempoctrl>=Tc) // Si el tiempo de control es mayor al tiempo de ciclo se reinicia tiempo de control 
00356:  MOVF   xAD,W
00358:  MOVLB  3
0035A:  SUBWF  x6F,W
0035C:  BNC   036E
0035E:  BNZ   036A
00360:  MOVLB  0
00362:  MOVF   xAC,W
00364:  MOVLB  3
00366:  SUBWF  x6E,W
00368:  BNC   036E
....................       { 
....................          tiempoctrl=0; 
0036A:  CLRF   x6F
0036C:  CLRF   x6E
....................       } // tiempoctrl incrementa una unidad cada 5ms, por eso se dividen los tiempos por 0.005. 
....................    } 
....................     
....................    if(tiempos>=200)  // 12000 para que incremente cada minuto, 200para que incremente cada segundo. 
0036E:  MOVF   x69,F
00370:  BNZ   037A
00372:  MOVF   x68,W
00374:  SUBLW  C7
00376:  BTFSC  FD8.0
00378:  BRA    0496
....................    { 
....................       if(flagTC) 
0037A:  BTFSS  x50.4
0037C:  BRA    0380
....................          TiempoControl++; 
0037E:  INCF   x88,F
....................        
....................       if(purgaAire2) 
00380:  MOVLB  0
00382:  BTFSS  xA3.7
00384:  BRA    038C
....................          tPurgaAire++; 
00386:  INCF   xAE,F
00388:  BTFSC  FD8.2
0038A:  INCF   xAF,F
....................        
....................       tiemporecta++; 
0038C:  MOVLB  3
0038E:  INCF   x52,F
....................        
....................       if(IniciaCiclo && tiempoImpresion<CalculoImpresion){ 
00390:  MOVLB  0
00392:  BTFSS  xA0.1
00394:  BRA    03A8
00396:  MOVLB  3
00398:  MOVF   x56,W
0039A:  SUBWF  x67,W
0039C:  BTFSS  FD8.0
0039E:  BRA    03A4
003A0:  MOVLB  0
003A2:  BRA    03A8
....................          tiempoImpresion++; 
003A4:  INCF   x67,F
....................       }else if(tiempoImpresion>=CalculoImpresion){ 
003A6:  BRA    03B4
003A8:  MOVLB  3
003AA:  MOVF   x56,W
003AC:  SUBWF  x67,W
003AE:  BNC   03B4
....................          flagImprime=1; 
003B0:  BSF    x50.5
....................          tiempoImpresion=0; 
003B2:  CLRF   x67
....................       } 
....................        
....................       if(IniciaCiclo && !Esterilizando){ 
003B4:  MOVLB  0
003B6:  BTFSS  xA0.1
003B8:  BRA    03C4
003BA:  BTFSC  xA0.2
003BC:  BRA    03C4
....................          TiempoCiclo++; 
003BE:  INCF   xA4,F
003C0:  BTFSC  FD8.2
003C2:  INCF   xA5,F
....................       } 
....................        
....................       if(IniciaLlenado && !CalderinLleno){ 
003C4:  BTFSS  x9F.7
003C6:  BRA    03D2
003C8:  BTFSC  xA0.0
003CA:  BRA    03D2
....................          TiempoLlenado++; 
003CC:  INCF   xA6,F
003CE:  BTFSC  FD8.2
003D0:  INCF   xA7,F
....................       } 
....................        
....................       if(SensadoNivel){ 
003D2:  BTFSS  xA0.4
003D4:  BRA    03DC
....................          TiempoSensadoNivel++; 
003D6:  INCF   xA8,F
003D8:  BTFSC  FD8.2
003DA:  INCF   xA9,F
....................       } 
....................        
....................       tiempos=0;Lectura=1;tinicio++; 
003DC:  MOVLB  3
003DE:  CLRF   x69
003E0:  CLRF   x68
003E2:  BSF    x50.1
003E4:  INCF   x72,F
003E6:  BTFSC  FD8.2
003E8:  INCF   x73,F
....................     
....................       if(Esterilizando && !Desfogando){                
003EA:  MOVLB  0
003EC:  BTFSS  xA0.2
003EE:  BRA    0442
003F0:  BTFSC  xA0.5
003F2:  BRA    0442
....................          if(Testerilizacion[0]>0){ 
003F4:  BTFSC  xB0.7
003F6:  BRA    0402
003F8:  MOVF   xB0,W
003FA:  SUBLW  00
003FC:  BC    0402
....................             Testerilizacion[0]--; 
003FE:  DECF   xB0,F
....................          }else if(Testerilizacion[1]>0){ 
00400:  BRA    0442
00402:  BTFSC  xB1.7
00404:  BRA    0414
00406:  MOVF   xB1,W
00408:  SUBLW  00
0040A:  BC    0414
....................             Testerilizacion[1]--; 
0040C:  DECF   xB1,F
....................             Testerilizacion[0]=9; 
0040E:  MOVLW  09
00410:  MOVWF  xB0
....................          }else if(Testerilizacion[2]>0){ 
00412:  BRA    0442
00414:  BTFSC  xB2.7
00416:  BRA    042A
00418:  MOVF   xB2,W
0041A:  SUBLW  00
0041C:  BC    042A
....................             Testerilizacion[2]--; 
0041E:  DECF   xB2,F
....................             Testerilizacion[1]=5; 
00420:  MOVLW  05
00422:  MOVWF  xB1
....................             Testerilizacion[0]=9; 
00424:  MOVLW  09
00426:  MOVWF  xB0
....................          }else if(Testerilizacion[3]>0){ 
00428:  BRA    0442
0042A:  BTFSC  xB3.7
0042C:  BRA    0442
0042E:  MOVF   xB3,W
00430:  SUBLW  00
00432:  BC    0442
....................             Testerilizacion[3]--; 
00434:  DECF   xB3,F
....................             Testerilizacion[2]=9; 
00436:  MOVLW  09
00438:  MOVWF  xB2
....................             Testerilizacion[1]=5; 
0043A:  MOVLW  05
0043C:  MOVWF  xB1
....................             Testerilizacion[0]=9; 
0043E:  MOVLW  09
00440:  MOVWF  xB0
....................          } 
....................       } 
....................        
....................       if(Secando){ 
00442:  BTFSS  xA0.3
00444:  BRA    0494
....................          if(Tsecado[0]>0){ 
00446:  BTFSC  xBA.7
00448:  BRA    0454
0044A:  MOVF   xBA,W
0044C:  SUBLW  00
0044E:  BC    0454
....................             Tsecado[0]--; 
00450:  DECF   xBA,F
....................          }else if(Tsecado[1]>0){ 
00452:  BRA    0494
00454:  BTFSC  xBB.7
00456:  BRA    0466
00458:  MOVF   xBB,W
0045A:  SUBLW  00
0045C:  BC    0466
....................             Tsecado[1]--; 
0045E:  DECF   xBB,F
....................             Tsecado[0]=9; 
00460:  MOVLW  09
00462:  MOVWF  xBA
....................          }else if(Tsecado[2]>0){ 
00464:  BRA    0494
00466:  BTFSC  xBC.7
00468:  BRA    047C
0046A:  MOVF   xBC,W
0046C:  SUBLW  00
0046E:  BC    047C
....................             Tsecado[2]--; 
00470:  DECF   xBC,F
....................             Tsecado[1]=5; 
00472:  MOVLW  05
00474:  MOVWF  xBB
....................             Tsecado[0]=9; 
00476:  MOVLW  09
00478:  MOVWF  xBA
....................          }else if(Tsecado[3]>0){ 
0047A:  BRA    0494
0047C:  BTFSC  xBD.7
0047E:  BRA    0494
00480:  MOVF   xBD,W
00482:  SUBLW  00
00484:  BC    0494
....................             Tsecado[3]--; 
00486:  DECF   xBD,F
....................             Tsecado[2]=9; 
00488:  MOVLW  09
0048A:  MOVWF  xBC
....................             Tsecado[1]=5; 
0048C:  MOVLW  05
0048E:  MOVWF  xBB
....................             Tsecado[0]=9; 
00490:  MOVLW  09
00492:  MOVWF  xBA
00494:  MOVLB  3
....................          } 
....................       } 
....................    } 
.................... } 
....................  
00496:  BCF    F9E.0
00498:  MOVLB  0
0049A:  GOTO   0074
.................... void main() 
.................... { 
*
052F4:  CLRF   FF8
052F6:  BCF    FF1.2
052F8:  BCF    F9F.0
052FA:  BSF    F9F.5
052FC:  BSF    FD0.7
052FE:  BSF    07.7
05300:  CLRF   FEA
05302:  CLRF   FE9
05304:  BSF    FB8.3
05306:  MOVLW  08
05308:  MOVWF  FAF
0530A:  MOVLW  02
0530C:  MOVWF  FB0
0530E:  MOVLW  A6
05310:  MOVWF  FAC
05312:  MOVLW  90
05314:  MOVWF  FAB
05316:  CLRF   46
05318:  CLRF   47
0531A:  CLRF   48
0531C:  CLRF   x62
0531E:  CLRF   x63
05320:  CLRF   x84
05322:  CLRF   x85
05324:  CLRF   x86
05326:  BCF    x9F.0
05328:  BCF    x9F.1
0532A:  BCF    x9F.2
0532C:  BCF    x9F.3
0532E:  BCF    x9F.4
05330:  BCF    x9F.5
05332:  BCF    x9F.6
05334:  BCF    x9F.7
05336:  BCF    xA0.0
05338:  BCF    xA0.1
0533A:  BCF    xA0.2
0533C:  BCF    xA0.3
0533E:  BCF    xA0.4
05340:  BCF    xA0.5
05342:  BCF    xA0.6
05344:  BCF    xA0.7
05346:  BCF    xA1.0
05348:  BCF    xA1.1
0534A:  BCF    xA1.2
0534C:  BCF    xA1.3
0534E:  BCF    xA1.4
05350:  BCF    xA1.5
05352:  BCF    xA1.6
05354:  BCF    xA1.7
05356:  BCF    xA2.0
05358:  BCF    xA2.1
0535A:  BCF    xA2.2
0535C:  BCF    xA2.3
0535E:  BCF    xA2.4
05360:  BCF    xA2.5
05362:  BCF    xA2.6
05364:  BCF    xA2.7
05366:  BCF    xA3.0
05368:  BCF    xA3.1
0536A:  BCF    xA3.2
0536C:  BCF    xA3.3
0536E:  BCF    xA3.4
05370:  BCF    xA3.5
05372:  BCF    xA3.6
05374:  BCF    xA3.7
05376:  CLRF   xA5
05378:  CLRF   xA4
0537A:  CLRF   xA7
0537C:  CLRF   xA6
0537E:  CLRF   xA9
05380:  CLRF   xA8
05382:  CLRF   xAB
05384:  CLRF   xAA
05386:  CLRF   xAD
05388:  CLRF   xAC
0538A:  CLRF   xAF
0538C:  CLRF   xAE
0538E:  MOVLW  9A
05390:  MOVLB  2
05392:  MOVWF  xA5
05394:  MOVLW  99
05396:  MOVWF  xA4
05398:  MOVLW  0D
0539A:  MOVWF  xA3
0539C:  MOVLW  86
0539E:  MOVWF  xA2
053A0:  CLRF   xA9
053A2:  CLRF   xA8
053A4:  CLRF   xA7
053A6:  MOVLW  7E
053A8:  MOVWF  xA6
053AA:  CLRF   xAD
053AC:  CLRF   xAC
053AE:  CLRF   xAB
053B0:  CLRF   xAA
053B2:  CLRF   xB1
053B4:  CLRF   xB0
053B6:  MOVLW  48
053B8:  MOVWF  xAF
053BA:  MOVLW  85
053BC:  MOVWF  xAE
053BE:  CLRF   xB5
053C0:  MOVLW  D0
053C2:  MOVWF  xB4
053C4:  MOVLW  54
053C6:  MOVWF  xB3
053C8:  MOVLW  8B
053CA:  MOVWF  xB2
053CC:  CLRF   xC9
053CE:  CLRF   xC8
053D0:  CLRF   xC7
053D2:  CLRF   xC6
053D4:  CLRF   xCD
053D6:  CLRF   xCC
053D8:  CLRF   xCB
053DA:  CLRF   xCA
053DC:  CLRF   xD1
053DE:  CLRF   xD0
053E0:  CLRF   xCF
053E2:  CLRF   xCE
053E4:  CLRF   xD5
053E6:  CLRF   xD4
053E8:  CLRF   xD3
053EA:  CLRF   xD2
053EC:  CLRF   xD6
053EE:  CLRF   xD7
053F0:  CLRF   xD8
053F2:  CLRF   xD9
053F4:  MOVLW  14
053F6:  MOVWF  xDA
053F8:  CLRF   xDB
053FA:  CLRF   xDC
053FC:  CLRF   xDD
053FE:  CLRF   xDE
05400:  CLRF   xDF
05402:  CLRF   xE0
05404:  CLRF   xE4
05406:  CLRF   xE3
05408:  CLRF   xE2
0540A:  CLRF   xE1
0540C:  CLRF   xEC
0540E:  CLRF   xEB
05410:  MOVLW  20
05412:  MOVWF  xEA
05414:  MOVLW  82
05416:  MOVWF  xE9
05418:  CLRF   xF0
0541A:  CLRF   xEF
0541C:  CLRF   xEE
0541E:  CLRF   xED
05420:  CLRF   xF4
05422:  CLRF   xF3
05424:  CLRF   xF2
05426:  CLRF   xF1
05428:  CLRF   xF8
0542A:  CLRF   xF7
0542C:  CLRF   xF6
0542E:  CLRF   xF5
05430:  CLRF   xFC
05432:  CLRF   xFB
05434:  CLRF   xFA
05436:  CLRF   xF9
05438:  MOVLB  3
0543A:  CLRF   x00
0543C:  MOVLB  2
0543E:  CLRF   xFF
05440:  CLRF   xFE
05442:  CLRF   xFD
05444:  MOVLB  3
05446:  CLRF   x04
05448:  CLRF   x03
0544A:  MOVLW  48
0544C:  MOVWF  x02
0544E:  MOVLW  83
05450:  MOVWF  x01
05452:  CLRF   x08
05454:  CLRF   x07
05456:  MOVLW  20
05458:  MOVWF  x06
0545A:  MOVLW  83
0545C:  MOVWF  x05
0545E:  CLRF   x0C
05460:  CLRF   x0B
05462:  CLRF   x0A
05464:  MOVLW  7F
05466:  MOVWF  x09
05468:  CLRF   x10
0546A:  CLRF   x0F
0546C:  CLRF   x0E
0546E:  CLRF   x0D
05470:  CLRF   x14
05472:  CLRF   x13
05474:  CLRF   x12
05476:  CLRF   x11
05478:  CLRF   x18
0547A:  CLRF   x17
0547C:  CLRF   x16
0547E:  CLRF   x15
05480:  CLRF   x1C
05482:  CLRF   x1B
05484:  CLRF   x1A
05486:  CLRF   x19
05488:  CLRF   x20
0548A:  CLRF   x1F
0548C:  CLRF   x1E
0548E:  CLRF   x1D
05490:  CLRF   x24
05492:  CLRF   x23
05494:  CLRF   x22
05496:  CLRF   x21
05498:  MOVLW  4A
0549A:  MOVWF  x28
0549C:  MOVLW  88
0549E:  MOVWF  x27
054A0:  MOVLW  28
054A2:  MOVWF  x26
054A4:  MOVLW  75
054A6:  MOVWF  x25
054A8:  MOVLW  E0
054AA:  MOVWF  x2C
054AC:  MOVLW  2D
054AE:  MOVWF  x2B
054B0:  MOVLW  10
054B2:  MOVWF  x2A
054B4:  MOVLW  75
054B6:  MOVWF  x29
054B8:  MOVLW  FF
054BA:  MOVWF  x30
054BC:  MOVLW  21
054BE:  MOVWF  x2F
054C0:  MOVLW  15
054C2:  MOVWF  x2E
054C4:  MOVLW  80
054C6:  MOVWF  x2D
054C8:  MOVLW  82
054CA:  MOVWF  x34
054CC:  MOVLW  12
054CE:  MOVWF  x33
054D0:  MOVLW  F4
054D2:  MOVWF  x32
054D4:  MOVLW  86
054D6:  MOVWF  x31
054D8:  CLRF   x35
054DA:  CLRF   x36
054DC:  CLRF   x37
054DE:  MOVLW  B5
054E0:  MOVWF  x3B
054E2:  MOVLW  EB
054E4:  MOVWF  x3A
054E6:  MOVLW  1B
054E8:  MOVWF  x39
054EA:  MOVLW  6B
054EC:  MOVWF  x38
054EE:  MOVLW  D0
054F0:  MOVWF  x3F
054F2:  MOVLW  9B
054F4:  MOVWF  x3E
054F6:  MOVLW  8A
054F8:  MOVWF  x3D
054FA:  MOVLW  75
054FC:  MOVWF  x3C
054FE:  MOVLW  1A
05500:  MOVWF  x43
05502:  MOVLW  DD
05504:  MOVWF  x42
05506:  MOVLW  61
05508:  MOVWF  x41
0550A:  MOVLW  7D
0550C:  MOVWF  x40
0550E:  MOVLW  04
05510:  MOVWF  x47
05512:  MOVLW  16
05514:  MOVWF  x46
05516:  MOVLW  02
05518:  MOVWF  x45
0551A:  MOVLW  85
0551C:  MOVWF  x44
0551E:  CLRF   x4B
05520:  CLRF   x4A
05522:  CLRF   x49
05524:  CLRF   x48
05526:  CLRF   x4F
05528:  CLRF   x4E
0552A:  CLRF   x4D
0552C:  CLRF   x4C
0552E:  BCF    x50.0
05530:  BCF    x50.1
05532:  BCF    x50.2
05534:  BCF    x50.3
05536:  BCF    x50.4
05538:  BCF    x50.5
0553A:  BCF    x50.6
0553C:  CLRF   x51
0553E:  CLRF   x52
05540:  CLRF   x53
05542:  MOVLW  01
05544:  MOVWF  x54
05546:  MOVLW  02
05548:  MOVWF  x55
0554A:  CLRF   x56
0554C:  MOVLW  01
0554E:  MOVWF  x57
05550:  CLRF   x58
05552:  CLRF   x59
05554:  CLRF   x5A
05556:  CLRF   x5B
05558:  CLRF   x5C
0555A:  MOVLW  F0
0555C:  MOVWF  x5D
0555E:  CLRF   x5E
05560:  CLRF   x5F
05562:  CLRF   x60
05564:  CLRF   x61
05566:  CLRF   x62
05568:  MOVLW  01
0556A:  MOVWF  x63
0556C:  MOVWF  x64
0556E:  CLRF   x65
05570:  CLRF   x66
05572:  CLRF   x67
05574:  CLRF   x69
05576:  CLRF   x68
05578:  CLRF   x6B
0557A:  CLRF   x6A
0557C:  CLRF   x6D
0557E:  CLRF   x6C
05580:  CLRF   x6F
05582:  CLRF   x6E
05584:  CLRF   x71
05586:  CLRF   x70
05588:  CLRF   x73
0558A:  CLRF   x72
0558C:  CLRF   x75
0558E:  CLRF   x74
05590:  CLRF   x77
05592:  CLRF   x76
05594:  CLRF   x79
05596:  CLRF   x78
05598:  CLRF   x7B
0559A:  CLRF   x7A
0559C:  CLRF   x84
0559E:  CLRF   x85
055A0:  CLRF   x86
055A2:  CLRF   x87
055A4:  CLRF   x88
055A6:  CLRF   x89
055A8:  CLRF   x8A
055AA:  CLRF   x8C
055AC:  CLRF   x8B
055AE:  CLRF   x8E
055B0:  CLRF   x8D
055B2:  CLRF   x90
055B4:  CLRF   x8F
055B6:  CLRF   x92
055B8:  CLRF   x91
055BA:  CLRF   x94
055BC:  CLRF   x93
055BE:  MOVLW  12
055C0:  MOVWF  x95
055C2:  MOVLW  09
055C4:  MOVWF  x96
055C6:  MOVLW  0D
055C8:  MOVWF  x97
055CA:  CLRF   x98
055CC:  CLRF   x99
055CE:  CLRF   x9A
055D0:  CLRF   x9B
055D2:  CLRF   x9C
055D4:  CLRF   x9D
055D6:  CLRF   x9E
055D8:  CLRF   x9F
055DA:  CLRF   xA0
055DC:  CLRF   xA1
055DE:  CLRF   xA2
055E0:  CLRF   xA3
055E2:  CLRF   xA4
055E4:  CLRF   xA5
055E6:  CLRF   xA6
055E8:  CLRF   xA7
055EA:  CLRF   xA8
055EC:  MOVF   FC1,W
055EE:  ANDLW  C0
055F0:  IORLW  0F
055F2:  MOVWF  FC1
055F4:  MOVLW  07
055F6:  MOVWF  FB4
055F8:  CLRF   2A
055FA:  CLRF   2B
055FC:  MOVLB  0
055FE:  CLRF   x87
05600:  MOVLW  03
05602:  MOVWF  x88
05604:  MOVWF  x89
05606:  MOVLW  06
05608:  MOVWF  x8A
0560A:  MOVLW  01
0560C:  MOVWF  x8B
0560E:  MOVLW  04
05610:  MOVWF  x8C
05612:  MOVLW  06
05614:  MOVWF  x8D
05616:  MOVLW  02
05618:  MOVWF  x8E
0561A:  MOVLW  05
0561C:  MOVWF  x8F
0561E:  CLRF   x90
05620:  MOVLW  03
05622:  MOVWF  x91
05624:  MOVLW  05
05626:  MOVWF  x92
05628:  CLRF   x93
0562A:  MOVLW  03
0562C:  MOVWF  x94
0562E:  MOVLW  04
05630:  MOVWF  x95
05632:  CLRF   x96
05634:  MOVLW  02
05636:  MOVWF  x97
05638:  MOVLW  05
0563A:  MOVWF  x98
0563C:  CLRF   x99
0563E:  MOVLW  03
05640:  MOVWF  x9A
05642:  MOVLW  06
05644:  MOVWF  x9B
05646:  MOVLW  01
05648:  MOVWF  x9C
0564A:  MOVLW  04
0564C:  MOVWF  x9D
0564E:  MOVLW  06
05650:  MOVWF  x9E
05652:  CLRF   xB0
05654:  CLRF   xB1
05656:  CLRF   xB2
05658:  CLRF   xB3
0565A:  CLRF   xB4
0565C:  CLRF   xB5
0565E:  CLRF   xB6
05660:  CLRF   xB7
05662:  CLRF   xB8
05664:  CLRF   xB9
05666:  CLRF   xBA
05668:  CLRF   xBB
0566A:  CLRF   xBC
0566C:  CLRF   xBD
0566E:  CLRF   xBE
05670:  CLRF   xBF
05672:  CLRF   xC0
05674:  CLRF   xC1
05676:  CLRF   xC2
05678:  CLRF   xC3
0567A:  CLRF   xC4
0567C:  CLRF   xC5
0567E:  CLRF   xC6
05680:  CLRF   xC7
05682:  CLRF   xC8
05684:  CLRF   xC9
05686:  CLRF   xCA
05688:  CLRF   xCB
0568A:  CLRF   xCC
0568C:  CLRF   xCD
0568E:  CLRF   xCE
05690:  CLRF   xCF
05692:  CLRF   xD0
05694:  CLRF   xD1
05696:  CLRF   xD2
05698:  CLRF   xD3
0569A:  CLRF   xD4
0569C:  CLRF   xD5
0569E:  CLRF   xD6
056A0:  CLRF   xD7
056A2:  CLRF   xD8
056A4:  CLRF   xD9
056A6:  CLRF   xDA
056A8:  CLRF   xDB
056AA:  CLRF   xDC
056AC:  CLRF   xDD
056AE:  CLRF   xDE
056B0:  CLRF   xDF
056B2:  CLRF   xE0
056B4:  CLRF   xE1
056B6:  CLRF   xE2
056B8:  CLRF   xE3
056BA:  CLRF   xE4
056BC:  CLRF   xE5
056BE:  CLRF   xE6
056C0:  CLRF   xE7
056C2:  CLRF   xE8
056C4:  CLRF   xE9
056C6:  CLRF   xEA
056C8:  CLRF   xEB
056CA:  CLRF   xEC
056CC:  CLRF   xED
056CE:  CLRF   xEE
056D0:  CLRF   xEF
056D2:  CLRF   xF0
056D4:  CLRF   xF1
056D6:  CLRF   xF2
056D8:  CLRF   xF3
056DA:  CLRF   xF4
056DC:  CLRF   xF5
056DE:  CLRF   xF6
056E0:  CLRF   xF7
056E2:  CLRF   xF8
056E4:  CLRF   xF9
056E6:  CLRF   xFA
056E8:  CLRF   xFB
056EA:  CLRF   xFC
056EC:  CLRF   xFD
056EE:  CLRF   xFE
056F0:  CLRF   xFF
056F2:  MOVLB  1
056F4:  CLRF   x00
056F6:  CLRF   x01
056F8:  CLRF   x02
056FA:  CLRF   x03
056FC:  CLRF   x04
056FE:  CLRF   x05
05700:  CLRF   x06
05702:  CLRF   x07
05704:  CLRF   x08
05706:  CLRF   x09
05708:  CLRF   x0A
0570A:  CLRF   x0B
0570C:  CLRF   x0C
0570E:  CLRF   x0D
05710:  CLRF   x0E
05712:  CLRF   x0F
05714:  CLRF   x10
05716:  CLRF   x11
05718:  CLRF   x12
0571A:  CLRF   x13
0571C:  CLRF   x14
0571E:  CLRF   x15
05720:  CLRF   x16
05722:  CLRF   x17
05724:  CLRF   x18
05726:  CLRF   x19
05728:  CLRF   x1A
0572A:  CLRF   x1B
0572C:  CLRF   x1C
0572E:  CLRF   x1D
05730:  CLRF   x1E
05732:  CLRF   x1F
05734:  CLRF   x20
05736:  CLRF   x21
05738:  CLRF   x22
0573A:  CLRF   x23
0573C:  CLRF   x24
0573E:  CLRF   x25
05740:  CLRF   x26
05742:  CLRF   x27
05744:  CLRF   x28
05746:  CLRF   x29
05748:  CLRF   x2A
0574A:  CLRF   x2B
0574C:  CLRF   x2C
0574E:  CLRF   x2D
05750:  CLRF   x2E
05752:  CLRF   x2F
05754:  CLRF   x30
05756:  CLRF   x31
05758:  CLRF   x32
0575A:  CLRF   x33
0575C:  CLRF   x34
0575E:  CLRF   x35
05760:  CLRF   x36
05762:  CLRF   x37
05764:  CLRF   x38
05766:  CLRF   x39
05768:  CLRF   x3A
0576A:  CLRF   x3B
0576C:  CLRF   x3C
0576E:  CLRF   x3D
05770:  CLRF   x3E
05772:  CLRF   x3F
05774:  CLRF   x40
05776:  CLRF   x41
05778:  CLRF   x42
0577A:  CLRF   x43
0577C:  CLRF   x44
0577E:  CLRF   x45
05780:  CLRF   x46
05782:  CLRF   x47
05784:  CLRF   x48
05786:  CLRF   x49
05788:  CLRF   x4A
0578A:  CLRF   x4B
0578C:  CLRF   x4C
0578E:  CLRF   x4D
05790:  CLRF   x4E
05792:  CLRF   x4F
05794:  CLRF   x50
05796:  CLRF   x51
05798:  CLRF   x52
0579A:  CLRF   x53
0579C:  CLRF   x54
0579E:  CLRF   x55
057A0:  CLRF   x56
057A2:  CLRF   x57
057A4:  CLRF   x58
057A6:  CLRF   x59
057A8:  CLRF   x5A
057AA:  CLRF   x5B
057AC:  CLRF   x5C
057AE:  CLRF   x5D
057B0:  CLRF   x5E
057B2:  CLRF   x5F
057B4:  CLRF   x60
057B6:  CLRF   x61
057B8:  CLRF   x62
057BA:  CLRF   x63
057BC:  CLRF   x64
057BE:  CLRF   x65
057C0:  CLRF   x66
057C2:  CLRF   x67
057C4:  CLRF   x68
057C6:  CLRF   x69
057C8:  CLRF   x6A
057CA:  CLRF   x6B
057CC:  CLRF   x6C
057CE:  CLRF   x6D
057D0:  CLRF   x6E
057D2:  CLRF   x6F
057D4:  CLRF   x70
057D6:  CLRF   x71
057D8:  CLRF   x72
057DA:  CLRF   x73
057DC:  CLRF   x74
057DE:  CLRF   x75
057E0:  CLRF   x76
057E2:  CLRF   x77
057E4:  CLRF   x78
057E6:  CLRF   x79
057E8:  CLRF   x7A
057EA:  CLRF   x7B
057EC:  CLRF   x7C
057EE:  CLRF   x7D
057F0:  CLRF   x7E
057F2:  CLRF   x7F
057F4:  CLRF   x80
057F6:  CLRF   x81
057F8:  CLRF   x82
057FA:  CLRF   x83
057FC:  CLRF   x84
057FE:  CLRF   x85
05800:  CLRF   x86
05802:  CLRF   x87
05804:  CLRF   x88
05806:  CLRF   x89
05808:  CLRF   x8A
0580A:  CLRF   x8B
0580C:  CLRF   x8C
0580E:  CLRF   x8D
05810:  CLRF   x8E
05812:  CLRF   x8F
05814:  CLRF   x90
05816:  CLRF   x91
05818:  CLRF   x92
0581A:  CLRF   x93
0581C:  CLRF   x94
0581E:  CLRF   x95
05820:  CLRF   x96
05822:  CLRF   x97
05824:  CLRF   x98
05826:  CLRF   x99
05828:  CLRF   x9A
0582A:  CLRF   x9B
0582C:  CLRF   x9C
0582E:  CLRF   x9D
05830:  CLRF   x9E
05832:  CLRF   x9F
05834:  CLRF   xA0
05836:  CLRF   xA1
05838:  CLRF   xA2
0583A:  CLRF   xA3
0583C:  CLRF   xA4
0583E:  CLRF   xA5
05840:  CLRF   xA6
05842:  CLRF   xA7
05844:  CLRF   xA8
05846:  CLRF   xA9
05848:  CLRF   xAA
0584A:  CLRF   xAB
0584C:  CLRF   xAC
0584E:  CLRF   xAD
05850:  CLRF   xAE
05852:  CLRF   xAF
05854:  CLRF   xB0
05856:  CLRF   xB1
05858:  CLRF   xB2
0585A:  CLRF   xB3
0585C:  CLRF   xB4
0585E:  CLRF   xB5
05860:  CLRF   xB6
05862:  CLRF   xB7
05864:  CLRF   xB8
05866:  CLRF   xB9
05868:  CLRF   xBA
0586A:  CLRF   xBB
0586C:  CLRF   xBC
0586E:  CLRF   xBD
05870:  CLRF   xBE
05872:  CLRF   xBF
05874:  CLRF   xC0
05876:  CLRF   xC1
05878:  CLRF   xC2
0587A:  CLRF   xC3
0587C:  CLRF   xC4
0587E:  CLRF   xC5
05880:  CLRF   xC6
05882:  CLRF   xC7
05884:  CLRF   xC8
05886:  CLRF   xC9
05888:  CLRF   xCA
0588A:  CLRF   xCB
0588C:  CLRF   xCC
0588E:  CLRF   xCD
05890:  CLRF   xCE
05892:  CLRF   xCF
05894:  CLRF   xD0
05896:  CLRF   xD1
05898:  CLRF   xD2
0589A:  CLRF   xD3
0589C:  CLRF   xD4
0589E:  CLRF   xD5
058A0:  CLRF   xD6
058A2:  CLRF   xD7
058A4:  CLRF   xD8
058A6:  CLRF   xD9
058A8:  CLRF   xDA
058AA:  CLRF   xDB
058AC:  CLRF   xDC
058AE:  CLRF   xDD
058B0:  CLRF   xDE
058B2:  CLRF   xDF
058B4:  CLRF   xE0
058B6:  CLRF   xE1
058B8:  CLRF   xE2
058BA:  CLRF   xE3
058BC:  CLRF   xE4
058BE:  CLRF   xE5
058C0:  CLRF   xE6
058C2:  CLRF   xE7
058C4:  CLRF   xE8
058C6:  CLRF   xE9
058C8:  CLRF   xEA
058CA:  CLRF   xEB
058CC:  CLRF   xEC
058CE:  CLRF   xED
058D0:  CLRF   xEE
058D2:  CLRF   xEF
058D4:  CLRF   xF0
058D6:  CLRF   xF1
058D8:  CLRF   xF2
058DA:  CLRF   xF3
058DC:  CLRF   xF4
058DE:  CLRF   xF5
058E0:  CLRF   xF6
058E2:  CLRF   xF7
058E4:  CLRF   xF8
058E6:  CLRF   xF9
058E8:  CLRF   xFA
058EA:  CLRF   xFB
058EC:  CLRF   xFC
058EE:  CLRF   xFD
058F0:  CLRF   xFE
058F2:  CLRF   xFF
058F4:  MOVLB  2
058F6:  CLRF   x00
058F8:  CLRF   x01
058FA:  CLRF   x02
058FC:  CLRF   x03
058FE:  CLRF   x04
05900:  CLRF   x05
05902:  CLRF   x06
05904:  CLRF   x07
05906:  CLRF   x08
05908:  CLRF   x09
0590A:  CLRF   x0A
0590C:  CLRF   x0B
0590E:  CLRF   x0C
05910:  CLRF   x0D
05912:  CLRF   x0E
05914:  CLRF   x0F
05916:  CLRF   x10
05918:  CLRF   x11
0591A:  CLRF   x12
0591C:  CLRF   x13
0591E:  CLRF   x14
05920:  CLRF   x15
05922:  CLRF   x16
05924:  CLRF   x17
05926:  CLRF   x18
05928:  CLRF   x19
0592A:  CLRF   x1A
0592C:  CLRF   x1B
0592E:  CLRF   x1C
05930:  CLRF   x1D
05932:  CLRF   x1E
05934:  CLRF   x1F
05936:  CLRF   x20
05938:  CLRF   x21
0593A:  CLRF   x22
0593C:  CLRF   x23
0593E:  CLRF   x24
05940:  CLRF   x25
05942:  CLRF   x26
05944:  CLRF   x27
05946:  CLRF   x28
05948:  CLRF   x29
0594A:  CLRF   x2A
0594C:  CLRF   x2B
0594E:  CLRF   x2C
05950:  CLRF   x2D
05952:  CLRF   x2E
05954:  CLRF   x2F
05956:  CLRF   x30
05958:  CLRF   x31
0595A:  CLRF   x32
0595C:  CLRF   x33
0595E:  CLRF   x34
05960:  CLRF   x35
05962:  CLRF   x36
05964:  CLRF   x37
05966:  CLRF   x38
05968:  CLRF   x39
0596A:  CLRF   x3A
0596C:  CLRF   x3B
0596E:  CLRF   x3C
05970:  CLRF   x3D
05972:  CLRF   x3E
05974:  CLRF   x3F
05976:  CLRF   x40
05978:  CLRF   x41
0597A:  CLRF   x42
0597C:  CLRF   x43
0597E:  CLRF   x44
05980:  CLRF   x45
05982:  CLRF   x46
05984:  CLRF   x47
05986:  CLRF   x48
05988:  CLRF   x49
0598A:  CLRF   x4A
0598C:  CLRF   x4B
0598E:  CLRF   x4C
05990:  CLRF   x4D
05992:  CLRF   x4E
05994:  CLRF   x4F
05996:  CLRF   x50
05998:  CLRF   x51
0599A:  CLRF   x52
0599C:  CLRF   x53
0599E:  CLRF   x54
059A0:  CLRF   x55
059A2:  CLRF   x56
059A4:  CLRF   x57
059A6:  CLRF   x58
059A8:  CLRF   x59
059AA:  CLRF   x5A
059AC:  CLRF   x5B
059AE:  CLRF   x5C
059B0:  CLRF   x5D
059B2:  CLRF   x5E
059B4:  CLRF   x5F
059B6:  CLRF   x60
059B8:  CLRF   x61
059BA:  CLRF   x62
059BC:  CLRF   x63
059BE:  CLRF   x64
059C0:  CLRF   x65
059C2:  CLRF   x66
059C4:  CLRF   x67
059C6:  CLRF   x68
059C8:  CLRF   x69
059CA:  CLRF   x6A
059CC:  CLRF   x6B
059CE:  CLRF   x6C
059D0:  CLRF   x6D
059D2:  CLRF   x6E
059D4:  CLRF   x6F
059D6:  CLRF   x70
059D8:  CLRF   x71
059DA:  CLRF   x72
059DC:  CLRF   x73
059DE:  CLRF   x74
059E0:  CLRF   x75
059E2:  CLRF   x76
059E4:  CLRF   x77
059E6:  CLRF   x78
059E8:  CLRF   x79
059EA:  CLRF   x7A
059EC:  CLRF   x7B
059EE:  CLRF   x7C
059F0:  CLRF   x7D
059F2:  CLRF   x7E
059F4:  CLRF   x7F
059F6:  CLRF   x80
059F8:  CLRF   x81
059FA:  CLRF   x82
059FC:  CLRF   x83
059FE:  CLRF   x84
05A00:  CLRF   x85
05A02:  CLRF   x86
05A04:  CLRF   x87
05A06:  CLRF   x88
05A08:  CLRF   x89
05A0A:  CLRF   x8A
05A0C:  CLRF   x8B
05A0E:  CLRF   x8C
05A10:  CLRF   x8D
05A12:  CLRF   x8E
05A14:  CLRF   x8F
05A16:  CLRF   x90
05A18:  CLRF   x91
05A1A:  CLRF   x92
05A1C:  CLRF   x93
05A1E:  CLRF   x94
05A20:  CLRF   x95
05A22:  CLRF   x96
05A24:  CLRF   x97
05A26:  CLRF   x98
05A28:  CLRF   x99
05A2A:  CLRF   x9A
05A2C:  CLRF   x9B
05A2E:  CLRF   x9C
05A30:  CLRF   x9D
05A32:  CLRF   x9E
05A34:  CLRF   x9F
05A36:  CLRF   xA0
05A38:  CLRF   xA1
05A3A:  CLRF   xB6
05A3C:  CLRF   xB7
05A3E:  CLRF   xB8
05A40:  CLRF   xB9
05A42:  CLRF   xBA
05A44:  CLRF   xBB
05A46:  CLRF   xBC
05A48:  CLRF   xBD
05A4A:  CLRF   xBE
05A4C:  CLRF   xBF
05A4E:  CLRF   xC0
05A50:  CLRF   xC1
05A52:  CLRF   xC2
05A54:  CLRF   xC3
05A56:  CLRF   xC4
05A58:  CLRF   xC5
05A5A:  MOVLB  3
05A5C:  CLRF   x7C
05A5E:  CLRF   x7D
05A60:  CLRF   x7E
05A62:  CLRF   x7F
05A64:  CLRF   x80
05A66:  CLRF   x81
05A68:  CLRF   x82
05A6A:  CLRF   x83
05A6C:  MOVLW  19
05A6E:  MOVWF  xA9
05A70:  MOVLW  10
05A72:  MOVWF  xAA
05A74:  MOVLW  16
05A76:  MOVWF  xAB
05A78:  MOVLW  18
05A7A:  MOVWF  xAC
05A7C:  MOVLW  17
05A7E:  MOVWF  xAD
05A80:  MOVLW  1C
05A82:  MOVWF  xAE
05A84:  MOVLW  14
05A86:  MOVWF  xAF
05A88:  MOVLW  2E
05A8A:  MOVWF  xB0
05A8C:  CLRF   xB1
05A8E:  CLRF   xB2
05A90:  CLRF   xB3
05A92:  CLRF   xB4
05A94:  CLRF   xB5
05A96:  CLRF   xB6
05A98:  CLRF   xB7
05A9A:  MOVLW  22
05A9C:  MOVWF  xB8
05A9E:  MOVLW  24
05AA0:  MOVWF  xB9
05AA2:  MOVLW  12
05AA4:  MOVWF  xBA
05AA6:  MOVLW  21
05AA8:  MOVWF  xBB
05AAA:  MOVLW  20
05AAC:  MOVWF  xBC
05AAE:  MOVLW  26
05AB0:  MOVWF  xBD
05AB2:  MOVLW  13
05AB4:  MOVWF  xBE
05AB6:  MOVLW  11
05AB8:  MOVWF  xBF
05ABA:  CLRF   xC0
05ABC:  CLRF   xC1
05ABE:  CLRF   xC2
05AC0:  CLRF   xC3
05AC2:  CLRF   xC4
05AC4:  CLRF   xC5
05AC6:  CLRF   xC6
....................     
....................    for (posicion=0;posicion<0x10;posicion++){ 
05AC8:  MOVLB  0
05ACA:  CLRF   x86
05ACC:  MOVF   x86,W
05ACE:  SUBLW  0F
05AD0:  BNC   5AE6
....................       SlaveA0Tx[posicion] = 0x00; 
05AD2:  CLRF   03
05AD4:  MOVF   x86,W
05AD6:  ADDLW  64
05AD8:  MOVWF  FE9
05ADA:  MOVLW  00
05ADC:  ADDWFC 03,W
05ADE:  MOVWF  FEA
05AE0:  CLRF   FEF
....................    } 
05AE2:  INCF   x86,F
05AE4:  BRA    5ACC
....................    setup_timer_0(RTCC_8_BIT|RTCC_DIV_1); 
05AE6:  MOVLW  C8
05AE8:  MOVWF  FD5
....................    enable_interrupts(INT_TIMER0); 
05AEA:  BSF    FF2.5
....................    setup_timer_1(T1_INTERNAL|T1_DIV_BY_1); 
05AEC:  MOVLW  85
05AEE:  MOVWF  FCD
....................    enable_interrupts(INT_TIMER1); 
05AF0:  BSF    F9D.0
....................    setup_adc_ports(AN0_TO_AN3); 
05AF2:  MOVF   FC1,W
05AF4:  ANDLW  C0
05AF6:  IORLW  0B
05AF8:  MOVWF  FC1
....................    setup_adc(ADC_CLOCK_DIV_32 ); 
05AFA:  MOVF   FC0,W
05AFC:  ANDLW  C0
05AFE:  IORLW  02
05B00:  MOVWF  FC0
05B02:  BSF    FC0.7
05B04:  BSF    FC2.0
....................    port_b_pullups(true); 
05B06:  BCF    FF1.7
....................    enable_interrupts(int_rda); 
05B08:  BSF    F9D.5
....................    setup_wdt(WDT_ON); 
05B0A:  BSF    FD1.0
....................    enable_interrupts(global); 
05B0C:  MOVLW  C0
05B0E:  IORWF  FF2,F
....................    LeeEEPROM(); 
05B10:  GOTO   1C1E
....................    rtc_init(); 
05B14:  GOTO   29CE
....................    delay_ms(1); 
05B18:  MOVLW  01
05B1A:  MOVLB  4
05B1C:  MOVWF  x04
05B1E:  MOVLB  0
05B20:  CALL   179C
....................    LimitaValores(); 
05B24:  GOTO   2AE8
....................    CalculoImpresion=timpresion*60; 
05B28:  MOVLB  3
05B2A:  MOVF   x55,W
05B2C:  MULLW  3C
05B2E:  MOVFF  FF3,356
....................    printf("page Bienvenida"); 
05B32:  MOVLW  9E
05B34:  MOVWF  FF6
05B36:  MOVLW  04
05B38:  MOVWF  FF7
05B3A:  MOVLW  00
05B3C:  MOVWF  FF8
05B3E:  MOVLB  0
05B40:  CALL   3506
....................    SendDataDisplay(); 
05B44:  CALL   3538
....................    printf("bkcmd=0"); 
05B48:  MOVLW  AE
05B4A:  MOVWF  FF6
05B4C:  MOVLW  04
05B4E:  MOVWF  FF7
05B50:  MOVLW  00
05B52:  MOVWF  FF8
05B54:  CALL   3506
....................    SendDataDisplay(); 
05B58:  CALL   3538
....................    delay_ms(1500); 
05B5C:  MOVLW  06
05B5E:  MOVLB  3
05B60:  MOVWF  xEF
05B62:  MOVLW  FA
05B64:  MOVLB  4
05B66:  MOVWF  x04
05B68:  MOVLB  0
05B6A:  CALL   179C
05B6E:  MOVLB  3
05B70:  DECFSZ xEF,F
05B72:  BRA    5B62
....................    printf("page Clave"); 
05B74:  MOVLW  B6
05B76:  MOVWF  FF6
05B78:  MOVLW  04
05B7A:  MOVWF  FF7
05B7C:  MOVLW  00
05B7E:  MOVWF  FF8
05B80:  MOVLB  0
05B82:  CALL   3506
....................    SendDataDisplay(); 
05B86:  CALL   3538
....................    ApagaSalidas(); 
05B8A:  CALL   356E
....................    ActivaImpresion=1; 
05B8E:  MOVLW  01
05B90:  MOVLB  3
05B92:  MOVWF  x54
....................     
....................    for(i=0;i<MediaMovil;i++){ 
05B94:  CLRF   x5E
05B96:  MOVLB  2
05B98:  MOVF   xDA,W
05B9A:  MOVLB  3
05B9C:  SUBWF  x5E,W
05B9E:  BC    5BC0
....................       Temperatura=LeerPT100(MediaMovil); 
05BA0:  MOVFF  2DA,3EF
05BA4:  MOVLB  0
05BA6:  CALL   36F8
05BAA:  MOVFF  03,324
05BAE:  MOVFF  02,323
05BB2:  MOVFF  01,322
05BB6:  MOVFF  00,321
....................    } 
05BBA:  MOVLB  3
05BBC:  INCF   x5E,F
05BBE:  BRA    5B96
....................     
....................    if(UP && DOWN && RIGHT && LEFT)//Si oprime boton de Toma. 
05BC0:  BSF    F93.0
05BC2:  BTFSC  F81.0
05BC4:  BRA    5C4C
05BC6:  BSF    F93.1
05BC8:  BTFSC  F81.1
05BCA:  BRA    5C4C
05BCC:  BSF    F93.2
05BCE:  BTFSC  F81.2
05BD0:  BRA    5C4C
05BD2:  BSF    F93.3
05BD4:  BTFSC  F81.3
05BD6:  BRA    5C4C
....................    { 
....................       write_eeprom(37,0); 
05BD8:  CLRF   FAA
05BDA:  MOVLW  25
05BDC:  MOVWF  FA9
05BDE:  CLRF   FA8
05BE0:  BCF    FA6.6
05BE2:  BCF    FA6.7
05BE4:  BSF    FA6.2
05BE6:  MOVF   FF2,W
05BE8:  MOVWF  00
05BEA:  BCF    FF2.6
05BEC:  BCF    FF2.7
05BEE:  MOVLB  F
05BF0:  MOVLW  55
05BF2:  MOVWF  FA7
05BF4:  MOVLW  AA
05BF6:  MOVWF  FA7
05BF8:  BSF    FA6.1
05BFA:  BTFSC  FA6.1
05BFC:  BRA    5BFA
05BFE:  BCF    FA6.2
05C00:  MOVF   00,W
05C02:  IORWF  FF2,F
....................       delay_ms(20); 
05C04:  MOVLW  14
05C06:  MOVLB  4
05C08:  MOVWF  x04
05C0A:  MOVLB  0
05C0C:  CALL   179C
....................       write_eeprom(38,0); 
05C10:  CLRF   FAA
05C12:  MOVLW  26
05C14:  MOVWF  FA9
05C16:  CLRF   FA8
05C18:  BCF    FA6.6
05C1A:  BCF    FA6.7
05C1C:  BSF    FA6.2
05C1E:  MOVF   FF2,W
05C20:  MOVWF  00
05C22:  BCF    FF2.6
05C24:  BCF    FF2.7
05C26:  MOVLB  F
05C28:  MOVLW  55
05C2A:  MOVWF  FA7
05C2C:  MOVLW  AA
05C2E:  MOVWF  FA7
05C30:  BSF    FA6.1
05C32:  BTFSC  FA6.1
05C34:  BRA    5C32
05C36:  BCF    FA6.2
05C38:  MOVF   00,W
05C3A:  IORWF  FF2,F
....................       delay_ms(20); 
05C3C:  MOVLW  14
05C3E:  MOVLB  4
05C40:  MOVWF  x04
05C42:  MOVLB  0
05C44:  CALL   179C
....................       reset_cpu(); 
05C48:  RESET
05C4A:  MOVLB  3
....................    } 
....................     
....................    while(true) 
....................    { 
....................       LeeDisplay(); 
05C4C:  MOVLB  0
05C4E:  GOTO   3B3E
....................       Envio_Esclavos(); 
05C52:  CALL   3F0E
....................       delay_ms(1); 
05C56:  MOVLW  01
05C58:  MOVLB  4
05C5A:  MOVWF  x04
05C5C:  MOVLB  0
05C5E:  CALL   179C
....................       //Lectura_Esclavos(); 
....................       restart_wdt(); 
05C62:  CLRWDT
....................        
....................       if(!Esterilizando || Desfogando){ 
05C64:  BTFSS  xA0.2
05C66:  BRA    5C6C
05C68:  BTFSS  xA0.5
05C6A:  BRA    5C76
....................          CalculoImpresion=180; 
05C6C:  MOVLW  B4
05C6E:  MOVLB  3
05C70:  MOVWF  x56
....................       }else{ 
05C72:  BRA    5C7C
05C74:  MOVLB  0
....................          CalculoImpresion=60; 
05C76:  MOVLW  3C
05C78:  MOVLB  3
05C7A:  MOVWF  x56
....................       } 
....................        
....................       if(!PruebaEstados){ 
05C7C:  MOVLB  0
05C7E:  BTFSC  xA1.2
05C80:  BRA    5CD8
....................          if(Temperatura>60) 
05C82:  MOVLB  3
05C84:  CLRF   xF6
05C86:  CLRF   xF5
05C88:  MOVLW  70
05C8A:  MOVWF  xF4
05C8C:  MOVLW  84
05C8E:  MOVWF  xF3
05C90:  MOVFF  324,3FA
05C94:  MOVFF  323,3F9
05C98:  MOVFF  322,3F8
05C9C:  MOVFF  321,3F7
05CA0:  MOVLB  0
05CA2:  CALL   2A20
05CA6:  BNC   5CAE
....................             Vent_on; 
05CA8:  BSF    F8C.5
05CAA:  BCF    F95.5
....................          else if(Temperatura<55) 
05CAC:  BRA    5CD8
05CAE:  MOVFF  324,3F6
05CB2:  MOVFF  323,3F5
05CB6:  MOVFF  322,3F4
05CBA:  MOVFF  321,3F3
05CBE:  MOVLB  3
05CC0:  CLRF   xFA
05CC2:  CLRF   xF9
05CC4:  MOVLW  5C
05CC6:  MOVWF  xF8
05CC8:  MOVLW  84
05CCA:  MOVWF  xF7
05CCC:  MOVLB  0
05CCE:  CALL   2A20
05CD2:  BNC   5CD8
....................             Vent_off; 
05CD4:  BCF    F8C.5
05CD6:  BCF    F95.5
....................       } 
....................        
....................       // Monitoreo Nivel de Agua//-------------------------------------- 
....................             if(!LOW){//Si no sensa agua en el nivel alto y no se ha llenado el calderin          
05CD8:  BSF    F94.1
05CDA:  BTFSC  F82.1
05CDC:  BRA    5CF0
....................                TiempoSensadoNivel=0; 
05CDE:  CLRF   xA9
05CE0:  CLRF   xA8
....................                Controlando=0;    
05CE2:  MOVLB  3
05CE4:  CLRF   x53
....................                //CalderinLleno=OFF; 
....................                SensadoNivel=OFF; 
05CE6:  MOVLB  0
05CE8:  BCF    xA0.4
....................                TiempoSensadoNivel=0; 
05CEA:  CLRF   xA9
05CEC:  CLRF   xA8
....................             } else{ 
05CEE:  BRA    5D02
....................                SensadoNivel=ON; 
05CF0:  BSF    xA0.4
....................                if(TiempoSensadoNivel>2){ 
05CF2:  MOVF   xA9,F
05CF4:  BNZ   5CFC
05CF6:  MOVF   xA8,W
05CF8:  SUBLW  02
05CFA:  BC    5D02
....................                   SensadoNivel=OFF; 
05CFC:  BCF    xA0.4
....................                   CalderinLleno=ON; 
05CFE:  BSF    xA0.0
....................                   IniciaLlenado=OFF;                   
05D00:  BCF    x9F.7
....................                } 
....................             } 
.................... // Tiempo de Grafica//-------------------------------------- 
....................       if(tiempos2>=6400){ 
05D02:  MOVLB  3
05D04:  MOVF   x6B,W
05D06:  SUBLW  18
05D08:  BC    5D10
....................          Grafica=1; 
05D0A:  BSF    x50.2
....................          tiempos2=0; 
05D0C:  CLRF   x6B
05D0E:  CLRF   x6A
....................       } 
....................  
.................... // Tiempo de Muestreo//-------------------------------------- 
....................       if(tiempos3>=20){ 
05D10:  MOVF   x6D,F
05D12:  BNZ   5D1C
05D14:  MOVF   x6C,W
05D16:  SUBLW  13
05D18:  BTFSC  FD8.0
05D1A:  BRA    5E2C
....................          Temperatura=LeerPt100(MediaMovil); 
05D1C:  MOVFF  2DA,3EF
05D20:  MOVLB  0
05D22:  CALL   36F8
05D26:  MOVFF  03,324
05D2A:  MOVFF  02,323
05D2E:  MOVFF  01,322
05D32:  MOVFF  00,321
....................          PresionCamara=Leer_Sensor_Presion_Camara(10); 
05D36:  MOVLW  0A
05D38:  MOVLB  3
05D3A:  MOVWF  xEF
05D3C:  MOVLB  0
05D3E:  GOTO   3F4E
05D42:  MOVFF  03,407
05D46:  MOVFF  02,406
05D4A:  MOVFF  01,405
05D4E:  MOVFF  00,404
05D52:  CALL   3CB8
05D56:  MOVFF  02,375
05D5A:  MOVFF  01,374
....................          //PresionPreCamara=Leer_Sensor_Presion_PreCamara(10); 
....................          PresionPreCamara=0; 
05D5E:  MOVLB  3
05D60:  CLRF   x77
05D62:  CLRF   x76
....................          rtc_get_date(Dia,Mes,Year,dow); 
....................          rtc_get_time(Hora,Minuto,Segundo); 
....................          tiempos3=0; 
*
05E26:  MOVLB  3
05E28:  CLRF   x6D
05E2A:  CLRF   x6C
....................       } 
....................        
.................... // Monitoreo Parada Emergencia//--------------------------------------       
....................       if(!STOP && !IniciaCiclo && !PruebaEstados){ 
05E2C:  BSF    F93.7
05E2E:  BTFSS  F81.7
05E30:  BRA    5E92
05E32:  MOVLB  0
05E34:  BTFSS  xA0.1
05E36:  BRA    5E3C
05E38:  MOVLB  3
05E3A:  BRA    5E92
05E3C:  BTFSS  xA1.2
05E3E:  BRA    5E44
05E40:  MOVLB  3
05E42:  BRA    5E92
....................          if(!disp_Stop){ 
05E44:  MOVLB  3
05E46:  BTFSC  x50.3
05E48:  BRA    5E68
....................             disp_Stop=1;Menu=255; 
05E4A:  BSF    x50.3
05E4C:  MOVLW  FF
05E4E:  MOVWF  x5B
....................             printf("page Emergencia"); 
05E50:  MOVLW  C2
05E52:  MOVWF  FF6
05E54:  MOVLW  04
05E56:  MOVWF  FF7
05E58:  MOVLW  00
05E5A:  MOVWF  FF8
05E5C:  MOVLB  0
05E5E:  CALL   3506
....................             SendDataDisplay(); 
05E62:  CALL   3538
05E66:  MOVLB  3
....................          } 
....................          Controlando=0; 
05E68:  CLRF   x53
....................          Desfogue_on; 
05E6A:  BSF    F8C.4
05E6C:  BCF    F95.4
....................          SSR_off; 
05E6E:  BSF    F8B.2
05E70:  BCF    F94.2
....................          Paso_off; 
05E72:  BCF    F8C.6
05E74:  BCF    F95.6
....................          DesfogueSuave=OFF; 
05E76:  MOVLB  0
05E78:  BCF    xA0.6
....................          ActivaAlarma(1); 
05E7A:  MOVLW  01
05E7C:  MOVLB  3
05E7E:  MOVWF  xEF
05E80:  MOVLB  0
05E82:  CALL   417A
....................          BorraBuffer(); 
05E86:  GOTO   424A
....................          Vent_on; 
05E8A:  BSF    F8C.5
05E8C:  BCF    F95.5
....................       }else{ 
05E8E:  BRA    5E98
05E90:  MOVLB  3
....................          if(disp_Stop){ 
05E92:  BTFSS  x50.3
05E94:  BRA    5E98
....................             reset_cpu(); 
05E96:  RESET
....................          } 
....................       }            
....................    //Buzzer_off;    
.................... //_-------------------------------------------------------------------------------------------------------------------------------------------------------- 
....................    if(Menu==240){ //Menu de Bienvenida. 
05E98:  MOVLB  3
05E9A:  MOVF   x5B,W
05E9C:  SUBLW  F0
05E9E:  BNZ   5EEA
....................       printf("bkcmd=0"); 
05EA0:  MOVLW  D2
05EA2:  MOVWF  FF6
05EA4:  MOVLW  04
05EA6:  MOVWF  FF7
05EA8:  MOVLW  00
05EAA:  MOVWF  FF8
05EAC:  MOVLB  0
05EAE:  CALL   3506
....................       SendDataDisplay(); 
05EB2:  CALL   3538
....................       delay_ms(1500); 
05EB6:  MOVLW  06
05EB8:  MOVLB  3
05EBA:  MOVWF  xEF
05EBC:  MOVLW  FA
05EBE:  MOVLB  4
05EC0:  MOVWF  x04
05EC2:  MOVLB  0
05EC4:  CALL   179C
05EC8:  MOVLB  3
05ECA:  DECFSZ xEF,F
05ECC:  BRA    5EBC
....................       printf("page Clave"); 
05ECE:  MOVLW  DA
05ED0:  MOVWF  FF6
05ED2:  MOVLW  04
05ED4:  MOVWF  FF7
05ED6:  MOVLW  00
05ED8:  MOVWF  FF8
05EDA:  MOVLB  0
05EDC:  CALL   3506
....................       SendDataDisplay(); 
05EE0:  CALL   3538
....................       ApagaSalidas(); 
05EE4:  CALL   356E
05EE8:  MOVLB  3
....................    } 
.................... //_-------------------------------------------------------------------------------------------------------------------------------------------------------- 
....................  
.................... //_-------------------------------------------------------------------------------------------------------------------------------------------------------- 
....................     if(Menu==0){ //Menu de Contrasea de acceso. 
05EEA:  MOVF   x5B,F
05EEC:  BTFSS  FD8.2
05EEE:  GOTO   6968
....................       ApagaSalidas(); 
05EF2:  MOVLB  0
05EF4:  CALL   356E
....................       entro=OFF; 
05EF8:  BCF    xA3.5
....................       if(Digito==1){ 
05EFA:  MOVLB  2
05EFC:  DECFSZ xDF,W
05EFE:  BRA    5F4A
....................          printf("t0.txt=\"%u\"",Contrasena[0]); 
05F00:  MOVLW  E6
05F02:  MOVWF  FF6
05F04:  MOVLW  04
05F06:  MOVWF  FF7
05F08:  MOVLW  00
05F0A:  MOVWF  FF8
05F0C:  MOVLW  08
05F0E:  MOVLB  3
05F10:  MOVWF  xF3
05F12:  MOVLB  0
05F14:  CALL   4276
05F18:  MOVFF  37C,3F1
05F1C:  MOVLW  1B
05F1E:  MOVLB  3
05F20:  MOVWF  xF2
05F22:  MOVLB  0
05F24:  CALL   42D4
05F28:  MOVLW  22
05F2A:  BTFSS  F9E.4
05F2C:  BRA    5F2A
05F2E:  MOVWF  FAD
....................          SendDataDisplay(); 
05F30:  CALL   3538
....................          printf("va0.val=1"); 
05F34:  MOVLW  F2
05F36:  MOVWF  FF6
05F38:  MOVLW  04
05F3A:  MOVWF  FF7
05F3C:  MOVLW  00
05F3E:  MOVWF  FF8
05F40:  CALL   3506
....................          SendDataDisplay(); 
05F44:  CALL   3538
05F48:  MOVLB  2
....................       } 
....................        
....................       if(Digito==2){ 
05F4A:  MOVF   xDF,W
05F4C:  SUBLW  02
05F4E:  BNZ   5FAA
....................          printf("t0.txt=\"%u%u\"",Contrasena[0],Contrasena[1]); 
05F50:  MOVLW  FC
05F52:  MOVWF  FF6
05F54:  MOVLW  04
05F56:  MOVWF  FF7
05F58:  MOVLW  00
05F5A:  MOVWF  FF8
05F5C:  MOVLW  08
05F5E:  MOVLB  3
05F60:  MOVWF  xF3
05F62:  MOVLB  0
05F64:  CALL   4276
05F68:  MOVFF  37C,3F1
05F6C:  MOVLW  1B
05F6E:  MOVLB  3
05F70:  MOVWF  xF2
05F72:  MOVLB  0
05F74:  CALL   42D4
05F78:  MOVFF  37D,3F1
05F7C:  MOVLW  1B
05F7E:  MOVLB  3
05F80:  MOVWF  xF2
05F82:  MOVLB  0
05F84:  CALL   42D4
05F88:  MOVLW  22
05F8A:  BTFSS  F9E.4
05F8C:  BRA    5F8A
05F8E:  MOVWF  FAD
....................          SendDataDisplay(); 
05F90:  CALL   3538
....................          printf("va0.val=2"); 
05F94:  MOVLW  0A
05F96:  MOVWF  FF6
05F98:  MOVLW  05
05F9A:  MOVWF  FF7
05F9C:  MOVLW  00
05F9E:  MOVWF  FF8
05FA0:  CALL   3506
....................          SendDataDisplay(); 
05FA4:  CALL   3538
05FA8:  MOVLB  2
....................       } 
....................        
....................       if(Digito==3){ 
05FAA:  MOVF   xDF,W
05FAC:  SUBLW  03
05FAE:  BNZ   601A
....................          printf("t0.txt=\"%u%u%u\"",Contrasena[0],Contrasena[1],Contrasena[2]); 
05FB0:  MOVLW  14
05FB2:  MOVWF  FF6
05FB4:  MOVLW  05
05FB6:  MOVWF  FF7
05FB8:  MOVLW  00
05FBA:  MOVWF  FF8
05FBC:  MOVLW  08
05FBE:  MOVLB  3
05FC0:  MOVWF  xF3
05FC2:  MOVLB  0
05FC4:  CALL   4276
05FC8:  MOVFF  37C,3F1
05FCC:  MOVLW  1B
05FCE:  MOVLB  3
05FD0:  MOVWF  xF2
05FD2:  MOVLB  0
05FD4:  CALL   42D4
05FD8:  MOVFF  37D,3F1
05FDC:  MOVLW  1B
05FDE:  MOVLB  3
05FE0:  MOVWF  xF2
05FE2:  MOVLB  0
05FE4:  CALL   42D4
05FE8:  MOVFF  37E,3F1
05FEC:  MOVLW  1B
05FEE:  MOVLB  3
05FF0:  MOVWF  xF2
05FF2:  MOVLB  0
05FF4:  CALL   42D4
05FF8:  MOVLW  22
05FFA:  BTFSS  F9E.4
05FFC:  BRA    5FFA
05FFE:  MOVWF  FAD
....................          SendDataDisplay(); 
06000:  CALL   3538
....................          printf("va0.val=3"); 
06004:  MOVLW  24
06006:  MOVWF  FF6
06008:  MOVLW  05
0600A:  MOVWF  FF7
0600C:  MOVLW  00
0600E:  MOVWF  FF8
06010:  CALL   3506
....................          SendDataDisplay(); 
06014:  CALL   3538
06018:  MOVLB  2
....................       } 
....................        
....................       if(Digito==4){ 
0601A:  MOVF   xDF,W
0601C:  SUBLW  04
0601E:  BNZ   609A
....................          printf("t0.txt=\"%u%u%u%u\"",Contrasena[0],Contrasena[1],Contrasena[2],Contrasena[3]); 
06020:  MOVLW  2E
06022:  MOVWF  FF6
06024:  MOVLW  05
06026:  MOVWF  FF7
06028:  MOVLW  00
0602A:  MOVWF  FF8
0602C:  MOVLW  08
0602E:  MOVLB  3
06030:  MOVWF  xF3
06032:  MOVLB  0
06034:  CALL   4276
06038:  MOVFF  37C,3F1
0603C:  MOVLW  1B
0603E:  MOVLB  3
06040:  MOVWF  xF2
06042:  MOVLB  0
06044:  CALL   42D4
06048:  MOVFF  37D,3F1
0604C:  MOVLW  1B
0604E:  MOVLB  3
06050:  MOVWF  xF2
06052:  MOVLB  0
06054:  CALL   42D4
06058:  MOVFF  37E,3F1
0605C:  MOVLW  1B
0605E:  MOVLB  3
06060:  MOVWF  xF2
06062:  MOVLB  0
06064:  CALL   42D4
06068:  MOVFF  37F,3F1
0606C:  MOVLW  1B
0606E:  MOVLB  3
06070:  MOVWF  xF2
06072:  MOVLB  0
06074:  CALL   42D4
06078:  MOVLW  22
0607A:  BTFSS  F9E.4
0607C:  BRA    607A
0607E:  MOVWF  FAD
....................          SendDataDisplay(); 
06080:  CALL   3538
....................          printf("va0.val=4"); 
06084:  MOVLW  40
06086:  MOVWF  FF6
06088:  MOVLW  05
0608A:  MOVWF  FF7
0608C:  MOVLW  00
0608E:  MOVWF  FF8
06090:  CALL   3506
....................          SendDataDisplay(); 
06094:  CALL   3538
06098:  MOVLB  2
....................       } 
....................        
....................       if(UP){ 
0609A:  BSF    F93.0
0609C:  BTFSC  F81.0
0609E:  BRA    60E8
....................          delay_ms(100); 
060A0:  MOVLW  64
060A2:  MOVLB  4
060A4:  MOVWF  x04
060A6:  MOVLB  0
060A8:  CALL   179C
....................          if(UP){ 
060AC:  BSF    F93.0
060AE:  BTFSC  F81.0
060B0:  BRA    60EA
....................          if(Digito==0) 
060B2:  MOVLB  2
060B4:  MOVF   xDF,F
060B6:  BNZ   60BC
....................             Digito=1; 
060B8:  MOVLW  01
060BA:  MOVWF  xDF
....................             if(Contrasena[Digito-1]<9) 
060BC:  MOVLW  01
060BE:  SUBWF  xDF,W
060C0:  CLRF   03
060C2:  ADDLW  7C
060C4:  MOVWF  FE9
060C6:  MOVLW  03
060C8:  ADDWFC 03,W
060CA:  MOVWF  FEA
060CC:  BTFSC  FEF.7
060CE:  BRA    60D6
060D0:  MOVF   FEF,W
060D2:  SUBLW  08
060D4:  BNC   60E8
....................                Contrasena[Digito-1]++; 
060D6:  MOVLW  01
060D8:  SUBWF  xDF,W
060DA:  CLRF   03
060DC:  ADDLW  7C
060DE:  MOVWF  FE9
060E0:  MOVLW  03
060E2:  ADDWFC 03,W
060E4:  MOVWF  FEA
060E6:  INCF   FEF,F
060E8:  MOVLB  0
....................          } 
....................       } 
....................        
....................       if(DOWN){ 
060EA:  BSF    F93.1
060EC:  BTFSC  F81.1
060EE:  BRA    613A
....................          delay_ms(100); 
060F0:  MOVLW  64
060F2:  MOVLB  4
060F4:  MOVWF  x04
060F6:  MOVLB  0
060F8:  CALL   179C
....................          if(Digito==0) 
060FC:  MOVLB  2
060FE:  MOVF   xDF,F
06100:  BNZ   6106
....................             Digito=1; 
06102:  MOVLW  01
06104:  MOVWF  xDF
....................          if(DOWN){ 
06106:  BSF    F93.1
06108:  BTFSC  F81.1
0610A:  BRA    6138
....................             if(Contrasena[Digito-1]>0) 
0610C:  MOVLW  01
0610E:  SUBWF  xDF,W
06110:  CLRF   03
06112:  ADDLW  7C
06114:  MOVWF  FE9
06116:  MOVLW  03
06118:  ADDWFC 03,W
0611A:  MOVWF  FEA
0611C:  BTFSC  FEF.7
0611E:  BRA    6138
06120:  MOVF   FEF,W
06122:  SUBLW  00
06124:  BC    6138
....................                Contrasena[Digito-1]--; 
06126:  MOVLW  01
06128:  SUBWF  xDF,W
0612A:  CLRF   03
0612C:  ADDLW  7C
0612E:  MOVWF  FE9
06130:  MOVLW  03
06132:  ADDWFC 03,W
06134:  MOVWF  FEA
06136:  DECF   FEF,F
06138:  MOVLB  0
....................          } 
....................       } 
....................        
....................       if(RIGHT){ 
0613A:  BSF    F93.2
0613C:  BTFSC  F81.2
0613E:  BRA    6158
....................          delay_ms(100); 
06140:  MOVLW  64
06142:  MOVLB  4
06144:  MOVWF  x04
06146:  MOVLB  0
06148:  CALL   179C
....................          if(RIGHT){ 
0614C:  BSF    F93.2
0614E:  BTFSC  F81.2
06150:  BRA    6158
....................             Digito++; 
06152:  MOVLB  2
06154:  INCF   xDF,F
06156:  MOVLB  0
....................          } 
....................       } 
....................        
....................       if(Digito>4){ 
06158:  MOVLB  2
0615A:  MOVF   xDF,W
0615C:  SUBLW  04
0615E:  BTFSC  FD8.0
06160:  BRA    64B2
....................       Digito=0; 
06162:  CLRF   xDF
....................       printf("t0.txt=\"\""); 
06164:  MOVLW  4A
06166:  MOVWF  FF6
06168:  MOVLW  05
0616A:  MOVWF  FF7
0616C:  MOVLW  00
0616E:  MOVWF  FF8
06170:  MOVLB  0
06172:  CALL   3506
....................       SendDataDisplay(); 
06176:  CALL   3538
....................          if(TipoClave==0){ 
0617A:  MOVLB  2
0617C:  MOVF   xDD,F
0617E:  BTFSS  FD8.2
06180:  BRA    62D0
....................             if(Contrasena[0]==3&&Contrasena[1]==8&&Contrasena[2]==9&&Contrasena[3]==2){ // Si Ingresa clave para reset general del sistema. 
06182:  MOVLB  3
06184:  MOVF   x7C,W
06186:  SUBLW  03
06188:  BTFSS  FD8.2
0618A:  BRA    6284
0618C:  MOVF   x7D,W
0618E:  SUBLW  08
06190:  BTFSS  FD8.2
06192:  BRA    6284
06194:  MOVF   x7E,W
06196:  SUBLW  09
06198:  BNZ   6284
0619A:  MOVF   x7F,W
0619C:  SUBLW  02
0619E:  BNZ   6284
....................                write_eeprom(10,0);delay_ms(20);write_eeprom(11,0);delay_ms(20);// Reestablece a contrasea de Fabrica y reinicia Programa. 
061A0:  CLRF   FAA
061A2:  MOVLW  0A
061A4:  MOVWF  FA9
061A6:  CLRF   FA8
061A8:  BCF    FA6.6
061AA:  BCF    FA6.7
061AC:  BSF    FA6.2
061AE:  MOVF   FF2,W
061B0:  MOVWF  00
061B2:  BCF    FF2.6
061B4:  BCF    FF2.7
061B6:  MOVLB  F
061B8:  MOVLW  55
061BA:  MOVWF  FA7
061BC:  MOVLW  AA
061BE:  MOVWF  FA7
061C0:  BSF    FA6.1
061C2:  BTFSC  FA6.1
061C4:  BRA    61C2
061C6:  BCF    FA6.2
061C8:  MOVF   00,W
061CA:  IORWF  FF2,F
061CC:  MOVLW  14
061CE:  MOVLB  4
061D0:  MOVWF  x04
061D2:  MOVLB  0
061D4:  CALL   179C
061D8:  CLRF   FAA
061DA:  MOVLW  0B
061DC:  MOVWF  FA9
061DE:  CLRF   FA8
061E0:  BCF    FA6.6
061E2:  BCF    FA6.7
061E4:  BSF    FA6.2
061E6:  MOVF   FF2,W
061E8:  MOVWF  00
061EA:  BCF    FF2.6
061EC:  BCF    FF2.7
061EE:  MOVLB  F
061F0:  MOVLW  55
061F2:  MOVWF  FA7
061F4:  MOVLW  AA
061F6:  MOVWF  FA7
061F8:  BSF    FA6.1
061FA:  BTFSC  FA6.1
061FC:  BRA    61FA
061FE:  BCF    FA6.2
06200:  MOVF   00,W
06202:  IORWF  FF2,F
06204:  MOVLW  14
06206:  MOVLB  4
06208:  MOVWF  x04
0620A:  MOVLB  0
0620C:  CALL   179C
....................                write_eeprom(12,0);delay_ms(20);write_eeprom(13,0);delay_ms(20); 
06210:  CLRF   FAA
06212:  MOVLW  0C
06214:  MOVWF  FA9
06216:  CLRF   FA8
06218:  BCF    FA6.6
0621A:  BCF    FA6.7
0621C:  BSF    FA6.2
0621E:  MOVF   FF2,W
06220:  MOVWF  00
06222:  BCF    FF2.6
06224:  BCF    FF2.7
06226:  MOVLB  F
06228:  MOVLW  55
0622A:  MOVWF  FA7
0622C:  MOVLW  AA
0622E:  MOVWF  FA7
06230:  BSF    FA6.1
06232:  BTFSC  FA6.1
06234:  BRA    6232
06236:  BCF    FA6.2
06238:  MOVF   00,W
0623A:  IORWF  FF2,F
0623C:  MOVLW  14
0623E:  MOVLB  4
06240:  MOVWF  x04
06242:  MOVLB  0
06244:  CALL   179C
06248:  CLRF   FAA
0624A:  MOVLW  0D
0624C:  MOVWF  FA9
0624E:  CLRF   FA8
06250:  BCF    FA6.6
06252:  BCF    FA6.7
06254:  BSF    FA6.2
06256:  MOVF   FF2,W
06258:  MOVWF  00
0625A:  BCF    FF2.6
0625C:  BCF    FF2.7
0625E:  MOVLB  F
06260:  MOVLW  55
06262:  MOVWF  FA7
06264:  MOVLW  AA
06266:  MOVWF  FA7
06268:  BSF    FA6.1
0626A:  BTFSC  FA6.1
0626C:  BRA    626A
0626E:  BCF    FA6.2
06270:  MOVF   00,W
06272:  IORWF  FF2,F
06274:  MOVLW  14
06276:  MOVLB  4
06278:  MOVWF  x04
0627A:  MOVLB  0
0627C:  CALL   179C
....................                reset_cpu(); 
06280:  RESET
06282:  MOVLB  3
....................             } 
....................              
....................             if((Contrasena[0]==Password[0])&&(Contrasena[1]==Password[1])&&(Contrasena[2]==Password[2])&&(Contrasena[3]==Password[3])){ 
06284:  MOVF   x80,W
06286:  SUBWF  x7C,W
06288:  BNZ   62B6
0628A:  MOVF   x81,W
0628C:  SUBWF  x7D,W
0628E:  BNZ   62B6
06290:  MOVF   x82,W
06292:  SUBWF  x7E,W
06294:  BNZ   62B6
06296:  MOVF   x83,W
06298:  SUBWF  x7F,W
0629A:  BNZ   62B6
....................                //BorraBuffer(); 
....................                printf("page ClaveCorrecta"); 
0629C:  MOVLW  54
0629E:  MOVWF  FF6
062A0:  MOVLW  05
062A2:  MOVWF  FF7
062A4:  MOVLW  00
062A6:  MOVWF  FF8
062A8:  MOVLB  0
062AA:  CALL   3506
....................                SendDataDisplay(); 
062AE:  CALL   3538
....................             }else{ 
062B2:  BRA    62CC
062B4:  MOVLB  3
....................                //BorraBuffer(); 
....................                printf("page ClaveBad"); 
062B6:  MOVLW  68
062B8:  MOVWF  FF6
062BA:  MOVLW  05
062BC:  MOVWF  FF7
062BE:  MOVLW  00
062C0:  MOVWF  FF8
062C2:  MOVLB  0
062C4:  CALL   3506
....................                SendDataDisplay(); 
062C8:  CALL   3538
....................             }  
....................          }else if(TipoClave==1){ 
062CC:  BRA    64B0
062CE:  MOVLB  2
062D0:  DECFSZ xDD,W
062D2:  BRA    6322
....................             if(Contrasena[0]==4&&Contrasena[1]==4&&Contrasena[2]==4&&Contrasena[3]==4){ // Si Ingresa clave de Servicio Tecnico 
062D4:  MOVLB  3
062D6:  MOVF   x7C,W
062D8:  SUBLW  04
062DA:  BNZ   6308
062DC:  MOVF   x7D,W
062DE:  SUBLW  04
062E0:  BNZ   6308
062E2:  MOVF   x7E,W
062E4:  SUBLW  04
062E6:  BNZ   6308
062E8:  MOVF   x7F,W
062EA:  SUBLW  04
062EC:  BNZ   6308
....................                printf("page Config"); 
062EE:  MOVLW  76
062F0:  MOVWF  FF6
062F2:  MOVLW  05
062F4:  MOVWF  FF7
062F6:  MOVLW  00
062F8:  MOVWF  FF8
062FA:  MOVLB  0
062FC:  CALL   3506
....................                SendDataDisplay(); 
06300:  CALL   3538
....................             }else{ 
06304:  BRA    631E
06306:  MOVLB  3
....................                printf("page MenuPrincipal"); 
06308:  MOVLW  82
0630A:  MOVWF  FF6
0630C:  MOVLW  05
0630E:  MOVWF  FF7
06310:  MOVLW  00
06312:  MOVWF  FF8
06314:  MOVLB  0
06316:  CALL   3506
....................                SendDataDisplay(); 
0631A:  CALL   3538
....................             } 
....................          }else if(TipoClave==2){ 
0631E:  BRA    64B0
06320:  MOVLB  2
06322:  MOVF   xDD,W
06324:  SUBLW  02
06326:  BNZ   6390
....................             if((Contrasena[0]==Password[0])&&(Contrasena[1]==Password[1])&&(Contrasena[2]==Password[2])&&(Contrasena[3]==Password[3])){ 
06328:  MOVLB  3
0632A:  MOVF   x80,W
0632C:  SUBWF  x7C,W
0632E:  BNZ   6376
06330:  MOVF   x81,W
06332:  SUBWF  x7D,W
06334:  BNZ   6376
06336:  MOVF   x82,W
06338:  SUBWF  x7E,W
0633A:  BNZ   6376
0633C:  MOVF   x83,W
0633E:  SUBWF  x7F,W
06340:  BNZ   6376
....................                printf("page Clave"); 
06342:  MOVLW  96
06344:  MOVWF  FF6
06346:  MOVLW  05
06348:  MOVWF  FF7
0634A:  MOVLW  00
0634C:  MOVWF  FF8
0634E:  MOVLB  0
06350:  CALL   3506
....................                SendDataDisplay(); 
06354:  CALL   3538
....................                printf("titulo.txt=\"Clave Nueva\""); 
06358:  MOVLW  A2
0635A:  MOVWF  FF6
0635C:  MOVLW  05
0635E:  MOVWF  FF7
06360:  MOVLW  00
06362:  MOVWF  FF8
06364:  CALL   3506
....................                SendDataDisplay(); 
06368:  CALL   3538
....................                TipoClave=3; 
0636C:  MOVLW  03
0636E:  MOVLB  2
06370:  MOVWF  xDD
....................             }else{ 
06372:  BRA    638E
06374:  MOVLB  3
....................                printf("page MenuPrincipal"); 
06376:  MOVLW  BC
06378:  MOVWF  FF6
0637A:  MOVLW  05
0637C:  MOVWF  FF7
0637E:  MOVLW  00
06380:  MOVWF  FF8
06382:  MOVLB  0
06384:  CALL   3506
....................                SendDataDisplay(); 
06388:  CALL   3538
0638C:  MOVLB  2
....................             }  
....................          }else if(TipoClave==3){ 
0638E:  BRA    64B2
06390:  MOVF   xDD,W
06392:  SUBLW  03
06394:  BTFSS  FD8.2
06396:  BRA    64B2
....................             printf("titulo.txt=\"Clave Nueva\""); 
06398:  MOVLW  D0
0639A:  MOVWF  FF6
0639C:  MOVLW  05
0639E:  MOVWF  FF7
063A0:  MOVLW  00
063A2:  MOVWF  FF8
063A4:  MOVLB  0
063A6:  CALL   3506
....................             SendDataDisplay(); 
063AA:  CALL   3538
....................             printf("page MenuPrincipal"); 
063AE:  MOVLW  EA
063B0:  MOVWF  FF6
063B2:  MOVLW  05
063B4:  MOVWF  FF7
063B6:  MOVLW  00
063B8:  MOVWF  FF8
063BA:  CALL   3506
....................             SendDataDisplay(); 
063BE:  CALL   3538
....................             if(!GuardaEEPROM){ 
063C2:  BTFSC  xA2.3
063C4:  BRA    64B0
....................                write_eeprom(10,Contrasena[0]);delay_ms(20);write_eeprom(11,Contrasena[1]);delay_ms(20); 
063C6:  CLRF   FAA
063C8:  MOVLW  0A
063CA:  MOVWF  FA9
063CC:  MOVFF  37C,FA8
063D0:  BCF    FA6.6
063D2:  BCF    FA6.7
063D4:  BSF    FA6.2
063D6:  MOVF   FF2,W
063D8:  MOVWF  00
063DA:  BCF    FF2.6
063DC:  BCF    FF2.7
063DE:  MOVLB  F
063E0:  MOVLW  55
063E2:  MOVWF  FA7
063E4:  MOVLW  AA
063E6:  MOVWF  FA7
063E8:  BSF    FA6.1
063EA:  BTFSC  FA6.1
063EC:  BRA    63EA
063EE:  BCF    FA6.2
063F0:  MOVF   00,W
063F2:  IORWF  FF2,F
063F4:  MOVLW  14
063F6:  MOVLB  4
063F8:  MOVWF  x04
063FA:  MOVLB  0
063FC:  CALL   179C
06400:  CLRF   FAA
06402:  MOVLW  0B
06404:  MOVWF  FA9
06406:  MOVFF  37D,FA8
0640A:  BCF    FA6.6
0640C:  BCF    FA6.7
0640E:  BSF    FA6.2
06410:  MOVF   FF2,W
06412:  MOVWF  00
06414:  BCF    FF2.6
06416:  BCF    FF2.7
06418:  MOVLB  F
0641A:  MOVLW  55
0641C:  MOVWF  FA7
0641E:  MOVLW  AA
06420:  MOVWF  FA7
06422:  BSF    FA6.1
06424:  BTFSC  FA6.1
06426:  BRA    6424
06428:  BCF    FA6.2
0642A:  MOVF   00,W
0642C:  IORWF  FF2,F
0642E:  MOVLW  14
06430:  MOVLB  4
06432:  MOVWF  x04
06434:  MOVLB  0
06436:  CALL   179C
....................                write_eeprom(12,Contrasena[2]);delay_ms(20);write_eeprom(13,Contrasena[3]);delay_ms(20); 
0643A:  CLRF   FAA
0643C:  MOVLW  0C
0643E:  MOVWF  FA9
06440:  MOVFF  37E,FA8
06444:  BCF    FA6.6
06446:  BCF    FA6.7
06448:  BSF    FA6.2
0644A:  MOVF   FF2,W
0644C:  MOVWF  00
0644E:  BCF    FF2.6
06450:  BCF    FF2.7
06452:  MOVLB  F
06454:  MOVLW  55
06456:  MOVWF  FA7
06458:  MOVLW  AA
0645A:  MOVWF  FA7
0645C:  BSF    FA6.1
0645E:  BTFSC  FA6.1
06460:  BRA    645E
06462:  BCF    FA6.2
06464:  MOVF   00,W
06466:  IORWF  FF2,F
06468:  MOVLW  14
0646A:  MOVLB  4
0646C:  MOVWF  x04
0646E:  MOVLB  0
06470:  CALL   179C
06474:  CLRF   FAA
06476:  MOVLW  0D
06478:  MOVWF  FA9
0647A:  MOVFF  37F,FA8
0647E:  BCF    FA6.6
06480:  BCF    FA6.7
06482:  BSF    FA6.2
06484:  MOVF   FF2,W
06486:  MOVWF  00
06488:  BCF    FF2.6
0648A:  BCF    FF2.7
0648C:  MOVLB  F
0648E:  MOVLW  55
06490:  MOVWF  FA7
06492:  MOVLW  AA
06494:  MOVWF  FA7
06496:  BSF    FA6.1
06498:  BTFSC  FA6.1
0649A:  BRA    6498
0649C:  BCF    FA6.2
0649E:  MOVF   00,W
064A0:  IORWF  FF2,F
064A2:  MOVLW  14
064A4:  MOVLB  4
064A6:  MOVWF  x04
064A8:  MOVLB  0
064AA:  CALL   179C
....................                GuardaEEPROM=ON; 
064AE:  BSF    xA2.3
064B0:  MOVLB  2
....................             } 
....................          } 
....................       } 
....................        
....................       if(RX_Buffer[4]==0x11){//11 
064B2:  MOVF   34,W
064B4:  SUBLW  11
064B6:  BNZ   64D6
....................          if(TipoClave!=0){ 
064B8:  MOVF   xDD,F
064BA:  BZ    64D6
....................             printf("page MenuPrincipal"); 
064BC:  MOVLW  FE
064BE:  MOVWF  FF6
064C0:  MOVLW  05
064C2:  MOVWF  FF7
064C4:  MOVLW  00
064C6:  MOVWF  FF8
064C8:  MOVLB  0
064CA:  CALL   3506
....................             SendDataDisplay(); 
064CE:  CALL   3538
....................             PantallaPrincipal=0; 
064D2:  MOVLB  2
064D4:  CLRF   xDC
....................          } 
....................       } 
....................        
....................       if(TipoClave==3){ 
064D6:  MOVF   xDD,W
064D8:  SUBLW  03
064DA:  BNZ   6508
....................          printf("titulo.txt=\"Clave Nueva\""); 
064DC:  MOVLW  12
064DE:  MOVWF  FF6
064E0:  MOVLW  06
064E2:  MOVWF  FF7
064E4:  MOVLW  00
064E6:  MOVWF  FF8
064E8:  MOVLB  0
064EA:  CALL   3506
....................          SendDataDisplay(); 
064EE:  CALL   3538
....................          printf("doevents"); 
064F2:  MOVLW  2C
064F4:  MOVWF  FF6
064F6:  MOVLW  06
064F8:  MOVWF  FF7
064FA:  MOVLW  00
064FC:  MOVWF  FF8
064FE:  CALL   3506
....................          SendDataDisplay(); 
06502:  CALL   3538
06506:  MOVLB  2
....................       } 
....................        
....................       if(TipoClave==2){ 
06508:  MOVF   xDD,W
0650A:  SUBLW  02
0650C:  BNZ   653A
....................          printf("titulo.txt=\"Clave Actual\""); 
0650E:  MOVLW  36
06510:  MOVWF  FF6
06512:  MOVLW  06
06514:  MOVWF  FF7
06516:  MOVLW  00
06518:  MOVWF  FF8
0651A:  MOVLB  0
0651C:  CALL   3506
....................          SendDataDisplay(); 
06520:  CALL   3538
....................          printf("doevents"); 
06524:  MOVLW  50
06526:  MOVWF  FF6
06528:  MOVLW  06
0652A:  MOVWF  FF7
0652C:  MOVLW  00
0652E:  MOVWF  FF8
06530:  CALL   3506
....................          SendDataDisplay(); 
06534:  CALL   3538
06538:  MOVLB  2
....................       } 
....................        
....................       if(TipoClave==1){ 
0653A:  DECFSZ xDD,W
0653C:  BRA    656A
....................          printf("titulo.txt=\"Clave Tecnico\""); 
0653E:  MOVLW  5A
06540:  MOVWF  FF6
06542:  MOVLW  06
06544:  MOVWF  FF7
06546:  MOVLW  00
06548:  MOVWF  FF8
0654A:  MOVLB  0
0654C:  CALL   3506
....................          SendDataDisplay(); 
06550:  CALL   3538
....................          printf("doevents"); 
06554:  MOVLW  76
06556:  MOVWF  FF6
06558:  MOVLW  06
0655A:  MOVWF  FF7
0655C:  MOVLW  00
0655E:  MOVWF  FF8
06560:  CALL   3506
....................          SendDataDisplay(); 
06564:  CALL   3538
06568:  MOVLB  2
....................       } 
....................        
....................       if(TipoClave==0){ 
0656A:  MOVF   xDD,F
0656C:  BNZ   6586
....................          printf("titulo.txt=\"Ingrese Contrasea\""); 
0656E:  MOVLW  80
06570:  MOVWF  FF6
06572:  MOVLW  06
06574:  MOVWF  FF7
06576:  MOVLW  00
06578:  MOVWF  FF8
0657A:  MOVLB  0
0657C:  CALL   3506
....................          SendDataDisplay(); 
06580:  CALL   3538
06584:  MOVLB  2
....................       } 
....................       if(RX_Buffer[3]==0x0f){//0f, recibe caracteres ingresados desde el Display 
06586:  MOVF   33,W
06588:  SUBLW  0F
0658A:  BTFSS  FD8.2
0658C:  BRA    6966
....................          if(TipoClave==0){ 
0658E:  MOVF   xDD,F
06590:  BTFSS  FD8.2
06592:  BRA    6722
....................             if(RX_Buffer[4]==0x33&&RX_Buffer[5]==0x38&&RX_Buffer[6]==0x39&&RX_Buffer[7]==0x32){ // Si Ingresa clave para reset general del sistema. 
06594:  MOVF   34,W
06596:  SUBLW  33
06598:  BTFSS  FD8.2
0659A:  BRA    6694
0659C:  MOVF   35,W
0659E:  SUBLW  38
065A0:  BTFSS  FD8.2
065A2:  BRA    6694
065A4:  MOVF   36,W
065A6:  SUBLW  39
065A8:  BNZ   6694
065AA:  MOVF   37,W
065AC:  SUBLW  32
065AE:  BNZ   6694
....................                write_eeprom(10,0);delay_ms(20);write_eeprom(11,0);delay_ms(20);// Reestablece a contrasea de Fabrica y reinicia Programa. 
065B0:  CLRF   FAA
065B2:  MOVLW  0A
065B4:  MOVWF  FA9
065B6:  CLRF   FA8
065B8:  BCF    FA6.6
065BA:  BCF    FA6.7
065BC:  BSF    FA6.2
065BE:  MOVF   FF2,W
065C0:  MOVWF  00
065C2:  BCF    FF2.6
065C4:  BCF    FF2.7
065C6:  MOVLB  F
065C8:  MOVLW  55
065CA:  MOVWF  FA7
065CC:  MOVLW  AA
065CE:  MOVWF  FA7
065D0:  BSF    FA6.1
065D2:  BTFSC  FA6.1
065D4:  BRA    65D2
065D6:  BCF    FA6.2
065D8:  MOVF   00,W
065DA:  IORWF  FF2,F
065DC:  MOVLW  14
065DE:  MOVLB  4
065E0:  MOVWF  x04
065E2:  MOVLB  0
065E4:  CALL   179C
065E8:  CLRF   FAA
065EA:  MOVLW  0B
065EC:  MOVWF  FA9
065EE:  CLRF   FA8
065F0:  BCF    FA6.6
065F2:  BCF    FA6.7
065F4:  BSF    FA6.2
065F6:  MOVF   FF2,W
065F8:  MOVWF  00
065FA:  BCF    FF2.6
065FC:  BCF    FF2.7
065FE:  MOVLB  F
06600:  MOVLW  55
06602:  MOVWF  FA7
06604:  MOVLW  AA
06606:  MOVWF  FA7
06608:  BSF    FA6.1
0660A:  BTFSC  FA6.1
0660C:  BRA    660A
0660E:  BCF    FA6.2
06610:  MOVF   00,W
06612:  IORWF  FF2,F
06614:  MOVLW  14
06616:  MOVLB  4
06618:  MOVWF  x04
0661A:  MOVLB  0
0661C:  CALL   179C
....................                write_eeprom(12,0);delay_ms(20);write_eeprom(13,0);delay_ms(20); 
06620:  CLRF   FAA
06622:  MOVLW  0C
06624:  MOVWF  FA9
06626:  CLRF   FA8
06628:  BCF    FA6.6
0662A:  BCF    FA6.7
0662C:  BSF    FA6.2
0662E:  MOVF   FF2,W
06630:  MOVWF  00
06632:  BCF    FF2.6
06634:  BCF    FF2.7
06636:  MOVLB  F
06638:  MOVLW  55
0663A:  MOVWF  FA7
0663C:  MOVLW  AA
0663E:  MOVWF  FA7
06640:  BSF    FA6.1
06642:  BTFSC  FA6.1
06644:  BRA    6642
06646:  BCF    FA6.2
06648:  MOVF   00,W
0664A:  IORWF  FF2,F
0664C:  MOVLW  14
0664E:  MOVLB  4
06650:  MOVWF  x04
06652:  MOVLB  0
06654:  CALL   179C
06658:  CLRF   FAA
0665A:  MOVLW  0D
0665C:  MOVWF  FA9
0665E:  CLRF   FA8
06660:  BCF    FA6.6
06662:  BCF    FA6.7
06664:  BSF    FA6.2
06666:  MOVF   FF2,W
06668:  MOVWF  00
0666A:  BCF    FF2.6
0666C:  BCF    FF2.7
0666E:  MOVLB  F
06670:  MOVLW  55
06672:  MOVWF  FA7
06674:  MOVLW  AA
06676:  MOVWF  FA7
06678:  BSF    FA6.1
0667A:  BTFSC  FA6.1
0667C:  BRA    667A
0667E:  BCF    FA6.2
06680:  MOVF   00,W
06682:  IORWF  FF2,F
06684:  MOVLW  14
06686:  MOVLB  4
06688:  MOVWF  x04
0668A:  MOVLB  0
0668C:  CALL   179C
....................                reset_cpu(); 
06690:  RESET
06692:  MOVLB  2
....................             } 
....................             if(RX_Buffer[4]>=0x30 && RX_Buffer[5]>=0x30 && RX_Buffer[6]>=0x30 && RX_Buffer[7]>=0x30 
....................             && RX_Buffer[4]<=0x39 && RX_Buffer[5]<=0x39 && RX_Buffer[6]<=0x39 && RX_Buffer[7]<=0x39){ 
06694:  MOVF   34,W
06696:  SUBLW  2F
06698:  BC    6720
0669A:  MOVF   35,W
0669C:  SUBLW  2F
0669E:  BC    6720
066A0:  MOVF   36,W
066A2:  SUBLW  2F
066A4:  BC    6720
066A6:  MOVF   37,W
066A8:  SUBLW  2F
066AA:  BC    6720
066AC:  MOVF   34,W
066AE:  SUBLW  39
066B0:  BNC   6720
066B2:  MOVF   35,W
066B4:  SUBLW  39
066B6:  BNC   6720
066B8:  MOVF   36,W
066BA:  SUBLW  39
066BC:  BNC   6720
066BE:  MOVF   37,W
066C0:  SUBLW  39
066C2:  BNC   6720
....................             if((RX_Buffer[4]==Password[0]+0x30)&&(RX_Buffer[5]==Password[1]+0x30)&&(RX_Buffer[6]==Password[2]+0x30)&&(RX_Buffer[7]==Password[3]+0x30)){ 
066C4:  MOVLW  30
066C6:  MOVLB  3
066C8:  ADDWF  x80,W
066CA:  SUBWF  34,W
066CC:  BNZ   6704
066CE:  MOVLW  30
066D0:  ADDWF  x81,W
066D2:  SUBWF  35,W
066D4:  BNZ   6704
066D6:  MOVLW  30
066D8:  ADDWF  x82,W
066DA:  SUBWF  36,W
066DC:  BNZ   6704
066DE:  MOVLW  30
066E0:  ADDWF  x83,W
066E2:  SUBWF  37,W
066E4:  BNZ   6704
....................                   printf("page ClaveCorrecta"); 
066E6:  MOVLW  A0
066E8:  MOVWF  FF6
066EA:  MOVLW  06
066EC:  MOVWF  FF7
066EE:  MOVLW  00
066F0:  MOVWF  FF8
066F2:  MOVLB  0
066F4:  CALL   3506
....................                   //printf("page MenuPrincipal"); 
....................                   SendDataDisplay(); 
066F8:  CALL   3538
....................                   RX_Buffer[3]=0x00;RX_Buffer2[3]=0x00;   
066FC:  CLRF   33
066FE:  CLRF   3E
....................                }else{ 
06700:  BRA    671E
06702:  MOVLB  3
....................                   printf("page ClaveBad"); 
06704:  MOVLW  B4
06706:  MOVWF  FF6
06708:  MOVLW  06
0670A:  MOVWF  FF7
0670C:  MOVLW  00
0670E:  MOVWF  FF8
06710:  MOVLB  0
06712:  CALL   3506
....................                   SendDataDisplay(); 
06716:  CALL   3538
....................                   RX_Buffer[3]=0x00;RX_Buffer2[3]=0x00;   
0671A:  CLRF   33
0671C:  CLRF   3E
0671E:  MOVLB  2
....................                }  
....................             } 
....................          }else if(TipoClave==1){ 
06720:  BRA    6966
06722:  DECFSZ xDD,W
06724:  BRA    6772
....................             if(RX_Buffer[4]==0x34&&RX_Buffer[5]==0x34&&RX_Buffer[6]==0x34&&RX_Buffer[7]==0x34){ // Si Ingresa clave de Servicio Tecnico 
06726:  MOVF   34,W
06728:  SUBLW  34
0672A:  BNZ   6758
0672C:  MOVF   35,W
0672E:  SUBLW  34
06730:  BNZ   6758
06732:  MOVF   36,W
06734:  SUBLW  34
06736:  BNZ   6758
06738:  MOVF   37,W
0673A:  SUBLW  34
0673C:  BNZ   6758
....................                printf("page Config"); 
0673E:  MOVLW  C2
06740:  MOVWF  FF6
06742:  MOVLW  06
06744:  MOVWF  FF7
06746:  MOVLW  00
06748:  MOVWF  FF8
0674A:  MOVLB  0
0674C:  CALL   3506
....................                SendDataDisplay(); 
06750:  CALL   3538
....................             }else{ 
06754:  BRA    676E
06756:  MOVLB  2
....................                printf("page MenuPrincipal"); 
06758:  MOVLW  CE
0675A:  MOVWF  FF6
0675C:  MOVLW  06
0675E:  MOVWF  FF7
06760:  MOVLW  00
06762:  MOVWF  FF8
06764:  MOVLB  0
06766:  CALL   3506
....................                SendDataDisplay(); 
0676A:  CALL   3538
....................             } 
....................          }else if(TipoClave==2){ 
0676E:  BRA    6964
06770:  MOVLB  2
06772:  MOVF   xDD,W
06774:  SUBLW  02
06776:  BNZ   6820
....................             if(RX_Buffer[4]>=0x30 && RX_Buffer[5]>=0x30 && RX_Buffer[6]>=0x30 && RX_Buffer[7]>=0x30 
....................             && RX_Buffer[4]<=0x39 && RX_Buffer[5]<=0x39 && RX_Buffer[6]<=0x39 && RX_Buffer[7]<=0x39){ 
06778:  MOVF   34,W
0677A:  SUBLW  2F
0677C:  BC    681E
0677E:  MOVF   35,W
06780:  SUBLW  2F
06782:  BC    681E
06784:  MOVF   36,W
06786:  SUBLW  2F
06788:  BC    681E
0678A:  MOVF   37,W
0678C:  SUBLW  2F
0678E:  BC    681E
06790:  MOVF   34,W
06792:  SUBLW  39
06794:  BNC   681E
06796:  MOVF   35,W
06798:  SUBLW  39
0679A:  BNC   681E
0679C:  MOVF   36,W
0679E:  SUBLW  39
067A0:  BNC   681E
067A2:  MOVF   37,W
067A4:  SUBLW  39
067A6:  BNC   681E
....................             if((RX_Buffer[4]==Password[0]+0x30)&&(RX_Buffer[5]==Password[1]+0x30)&&(RX_Buffer[6]==Password[2]+0x30)&&(RX_Buffer[7]==Password[3]+0x30)){ 
067A8:  MOVLW  30
067AA:  MOVLB  3
067AC:  ADDWF  x80,W
067AE:  SUBWF  34,W
067B0:  BNZ   6802
067B2:  MOVLW  30
067B4:  ADDWF  x81,W
067B6:  SUBWF  35,W
067B8:  BNZ   6802
067BA:  MOVLW  30
067BC:  ADDWF  x82,W
067BE:  SUBWF  36,W
067C0:  BNZ   6802
067C2:  MOVLW  30
067C4:  ADDWF  x83,W
067C6:  SUBWF  37,W
067C8:  BNZ   6802
....................                printf("page Clave"); 
067CA:  MOVLW  E2
067CC:  MOVWF  FF6
067CE:  MOVLW  06
067D0:  MOVWF  FF7
067D2:  MOVLW  00
067D4:  MOVWF  FF8
067D6:  MOVLB  0
067D8:  CALL   3506
....................                SendDataDisplay(); 
067DC:  CALL   3538
....................                printf("titulo.txt=\"Clave Nueva\""); 
067E0:  MOVLW  EE
067E2:  MOVWF  FF6
067E4:  MOVLW  06
067E6:  MOVWF  FF7
067E8:  MOVLW  00
067EA:  MOVWF  FF8
067EC:  CALL   3506
....................                SendDataDisplay(); 
067F0:  CALL   3538
....................                TipoClave=3; 
067F4:  MOVLW  03
067F6:  MOVLB  2
067F8:  MOVWF  xDD
....................                RX_Buffer[3]=0x00; 
067FA:  CLRF   33
....................                RX_Buffer2[3]=0x00; 
067FC:  CLRF   3E
....................             }else{ 
067FE:  BRA    681E
06800:  MOVLB  3
....................                printf("page MenuPrincipal"); 
06802:  MOVLW  08
06804:  MOVWF  FF6
06806:  MOVLW  07
06808:  MOVWF  FF7
0680A:  MOVLW  00
0680C:  MOVWF  FF8
0680E:  MOVLB  0
06810:  CALL   3506
....................                SendDataDisplay(); 
06814:  CALL   3538
....................                RX_Buffer[3]=0x00; 
06818:  CLRF   33
....................                RX_Buffer2[3]=0x00; 
0681A:  CLRF   3E
0681C:  MOVLB  2
....................             }  
....................             } 
....................          }else if(TipoClave==3){ 
0681E:  BRA    6966
06820:  MOVF   xDD,W
06822:  SUBLW  03
06824:  BTFSS  FD8.2
06826:  BRA    6966
....................             printf("titulo.txt=\"Clave Nueva\""); 
06828:  MOVLW  1C
0682A:  MOVWF  FF6
0682C:  MOVLW  07
0682E:  MOVWF  FF7
06830:  MOVLW  00
06832:  MOVWF  FF8
06834:  MOVLB  0
06836:  CALL   3506
....................             SendDataDisplay(); 
0683A:  CALL   3538
....................             printf("page MenuPrincipal"); 
0683E:  MOVLW  36
06840:  MOVWF  FF6
06842:  MOVLW  07
06844:  MOVWF  FF7
06846:  MOVLW  00
06848:  MOVWF  FF8
0684A:  CALL   3506
....................             SendDataDisplay(); 
0684E:  CALL   3538
....................             if(!GuardaEEPROM){ 
06852:  BTFSC  xA2.3
06854:  BRA    6960
....................                write_eeprom(10,RX_Buffer[4]-0x30);delay_ms(20);write_eeprom(11,RX_Buffer[5]-0x30);delay_ms(20); 
06856:  MOVLW  30
06858:  SUBWF  34,W
0685A:  MOVLB  3
0685C:  MOVWF  xEF
0685E:  CLRF   FAA
06860:  MOVLW  0A
06862:  MOVWF  FA9
06864:  MOVFF  3EF,FA8
06868:  BCF    FA6.6
0686A:  BCF    FA6.7
0686C:  BSF    FA6.2
0686E:  MOVF   FF2,W
06870:  MOVWF  00
06872:  BCF    FF2.6
06874:  BCF    FF2.7
06876:  MOVLB  F
06878:  MOVLW  55
0687A:  MOVWF  FA7
0687C:  MOVLW  AA
0687E:  MOVWF  FA7
06880:  BSF    FA6.1
06882:  BTFSC  FA6.1
06884:  BRA    6882
06886:  BCF    FA6.2
06888:  MOVF   00,W
0688A:  IORWF  FF2,F
0688C:  MOVLW  14
0688E:  MOVLB  4
06890:  MOVWF  x04
06892:  MOVLB  0
06894:  CALL   179C
06898:  MOVLW  30
0689A:  SUBWF  35,W
0689C:  MOVLB  3
0689E:  MOVWF  xEF
068A0:  CLRF   FAA
068A2:  MOVLW  0B
068A4:  MOVWF  FA9
068A6:  MOVFF  3EF,FA8
068AA:  BCF    FA6.6
068AC:  BCF    FA6.7
068AE:  BSF    FA6.2
068B0:  MOVF   FF2,W
068B2:  MOVWF  00
068B4:  BCF    FF2.6
068B6:  BCF    FF2.7
068B8:  MOVLB  F
068BA:  MOVLW  55
068BC:  MOVWF  FA7
068BE:  MOVLW  AA
068C0:  MOVWF  FA7
068C2:  BSF    FA6.1
068C4:  BTFSC  FA6.1
068C6:  BRA    68C4
068C8:  BCF    FA6.2
068CA:  MOVF   00,W
068CC:  IORWF  FF2,F
068CE:  MOVLW  14
068D0:  MOVLB  4
068D2:  MOVWF  x04
068D4:  MOVLB  0
068D6:  CALL   179C
....................                write_eeprom(12,RX_Buffer[6]-0x30);delay_ms(20);write_eeprom(13,RX_Buffer[7]-0x30);delay_ms(20); 
068DA:  MOVLW  30
068DC:  SUBWF  36,W
068DE:  MOVLB  3
068E0:  MOVWF  xEF
068E2:  CLRF   FAA
068E4:  MOVLW  0C
068E6:  MOVWF  FA9
068E8:  MOVFF  3EF,FA8
068EC:  BCF    FA6.6
068EE:  BCF    FA6.7
068F0:  BSF    FA6.2
068F2:  MOVF   FF2,W
068F4:  MOVWF  00
068F6:  BCF    FF2.6
068F8:  BCF    FF2.7
068FA:  MOVLB  F
068FC:  MOVLW  55
068FE:  MOVWF  FA7
06900:  MOVLW  AA
06902:  MOVWF  FA7
06904:  BSF    FA6.1
06906:  BTFSC  FA6.1
06908:  BRA    6906
0690A:  BCF    FA6.2
0690C:  MOVF   00,W
0690E:  IORWF  FF2,F
06910:  MOVLW  14
06912:  MOVLB  4
06914:  MOVWF  x04
06916:  MOVLB  0
06918:  CALL   179C
0691C:  MOVLW  30
0691E:  SUBWF  37,W
06920:  MOVLB  3
06922:  MOVWF  xEF
06924:  CLRF   FAA
06926:  MOVLW  0D
06928:  MOVWF  FA9
0692A:  MOVFF  3EF,FA8
0692E:  BCF    FA6.6
06930:  BCF    FA6.7
06932:  BSF    FA6.2
06934:  MOVF   FF2,W
06936:  MOVWF  00
06938:  BCF    FF2.6
0693A:  BCF    FF2.7
0693C:  MOVLB  F
0693E:  MOVLW  55
06940:  MOVWF  FA7
06942:  MOVLW  AA
06944:  MOVWF  FA7
06946:  BSF    FA6.1
06948:  BTFSC  FA6.1
0694A:  BRA    6948
0694C:  BCF    FA6.2
0694E:  MOVF   00,W
06950:  IORWF  FF2,F
06952:  MOVLW  14
06954:  MOVLB  4
06956:  MOVWF  x04
06958:  MOVLB  0
0695A:  CALL   179C
....................                GuardaEEPROM=ON; 
0695E:  BSF    xA2.3
....................             } 
....................             RX_Buffer[3]=0x00; 
06960:  CLRF   33
....................             RX_Buffer2[3]=0x00; 
06962:  CLRF   3E
06964:  MOVLB  2
06966:  MOVLB  3
....................          } 
....................       } 
....................     } 
.................... //_--------------------------------------------------------------------------------------------------------------------------------------------------------        
....................  
.................... //_-------------------------------------------------------------------------------------------------------------------------------------------------------- 
....................    if(Menu==1){ //Menu Principal. 
06968:  DECFSZ x5B,W
0696A:  GOTO   7302
....................       printf("fecha.txt=\"T:%3.1fC Fecha:%02u/%02u/20%02u Hora: %02u:%02u:%02u\"",Temperatura,Dia,Mes,Year,Hora,Minuto,Segundo); 
0696E:  MOVLW  4A
06970:  MOVWF  FF6
06972:  MOVLW  07
06974:  MOVWF  FF7
06976:  MOVLW  00
06978:  MOVWF  FF8
0697A:  MOVLW  0D
0697C:  MOVWF  xF3
0697E:  MOVLB  0
06980:  CALL   4276
06984:  MOVLW  02
06986:  MOVWF  FE9
06988:  MOVFF  324,3F6
0698C:  MOVFF  323,3F5
06990:  MOVFF  322,3F4
06994:  MOVFF  321,3F3
06998:  MOVLW  01
0699A:  MOVLB  3
0699C:  MOVWF  xF7
0699E:  MOVLB  0
069A0:  CALL   4416
069A4:  MOVLW  5C
069A6:  MOVWF  FF6
069A8:  MOVLW  07
069AA:  MOVWF  FF7
069AC:  MOVLW  00
069AE:  MOVWF  FF8
069B0:  MOVLW  09
069B2:  MOVLB  3
069B4:  MOVWF  xF3
069B6:  MOVLB  0
069B8:  CALL   4276
069BC:  MOVFF  397,3F1
069C0:  MOVLW  01
069C2:  MOVLB  3
069C4:  MOVWF  xF2
069C6:  MOVLB  0
069C8:  CALL   42D4
069CC:  MOVLW  2F
069CE:  BTFSS  F9E.4
069D0:  BRA    69CE
069D2:  MOVWF  FAD
069D4:  MOVFF  396,3F1
069D8:  MOVLW  01
069DA:  MOVLB  3
069DC:  MOVWF  xF2
069DE:  MOVLB  0
069E0:  CALL   42D4
069E4:  MOVLW  2F
069E6:  BTFSS  F9E.4
069E8:  BRA    69E6
069EA:  MOVWF  FAD
069EC:  MOVLW  32
069EE:  BTFSS  F9E.4
069F0:  BRA    69EE
069F2:  MOVWF  FAD
069F4:  MOVLW  30
069F6:  BTFSS  F9E.4
069F8:  BRA    69F6
069FA:  MOVWF  FAD
069FC:  MOVFF  395,3F1
06A00:  MOVLW  01
06A02:  MOVLB  3
06A04:  MOVWF  xF2
06A06:  MOVLB  0
06A08:  CALL   42D4
06A0C:  MOVLW  75
06A0E:  MOVWF  FF6
06A10:  MOVLW  07
06A12:  MOVWF  FF7
06A14:  MOVLW  00
06A16:  MOVWF  FF8
06A18:  MOVLW  07
06A1A:  MOVLB  3
06A1C:  MOVWF  xF3
06A1E:  MOVLB  0
06A20:  CALL   4276
06A24:  MOVFF  398,3F1
06A28:  MOVLW  01
06A2A:  MOVLB  3
06A2C:  MOVWF  xF2
06A2E:  MOVLB  0
06A30:  CALL   42D4
06A34:  MOVLW  3A
06A36:  BTFSS  F9E.4
06A38:  BRA    6A36
06A3A:  MOVWF  FAD
06A3C:  MOVFF  399,3F1
06A40:  MOVLW  01
06A42:  MOVLB  3
06A44:  MOVWF  xF2
06A46:  MOVLB  0
06A48:  CALL   42D4
06A4C:  MOVLW  3A
06A4E:  BTFSS  F9E.4
06A50:  BRA    6A4E
06A52:  MOVWF  FAD
06A54:  MOVFF  39A,3F1
06A58:  MOVLW  01
06A5A:  MOVLB  3
06A5C:  MOVWF  xF2
06A5E:  MOVLB  0
06A60:  CALL   42D4
06A64:  MOVLW  22
06A66:  BTFSS  F9E.4
06A68:  BRA    6A66
06A6A:  MOVWF  FAD
....................       SendDataDisplay(); 
06A6C:  CALL   3538
....................       GuardaEEPROM=OFF; 
06A70:  BCF    xA2.3
....................       PruebaEstados=OFF; 
06A72:  BCF    xA1.2
....................       if(RX_Buffer[3]==0x0f || UP){//0f, recibe caracteres ingresados desde el Display 
06A74:  MOVF   33,W
06A76:  SUBLW  0F
06A78:  BZ    6A80
06A7A:  BSF    F93.0
06A7C:  BTFSC  F81.0
06A7E:  BRA    6CDC
....................          delay_ms(5); 
06A80:  MOVLW  05
06A82:  MOVLB  4
06A84:  MOVWF  x04
06A86:  MOVLB  0
06A88:  CALL   179C
....................          if(RX_Buffer[3]==0x0f || UP){ 
06A8C:  MOVF   33,W
06A8E:  SUBLW  0F
06A90:  BZ    6A98
06A92:  BSF    F93.0
06A94:  BTFSC  F81.0
06A96:  BRA    6CD6
....................          if(PantallaPrincipal==0){//Si esta en menu principal 
06A98:  MOVLB  2
06A9A:  MOVF   xDC,F
06A9C:  BTFSS  FD8.2
06A9E:  BRA    6CDA
....................             if(RX_Buffer[4]==0x37){//Ajustes y pasa a solicitud de password de tecnico 
06AA0:  MOVF   34,W
06AA2:  SUBLW  37
06AA4:  BNZ   6AD2
....................                printf("page Clave"); 
06AA6:  MOVLW  8C
06AA8:  MOVWF  FF6
06AAA:  MOVLW  07
06AAC:  MOVWF  FF7
06AAE:  MOVLW  00
06AB0:  MOVWF  FF8
06AB2:  MOVLB  0
06AB4:  CALL   3506
....................                SendDataDisplay();  
06AB8:  CALL   3538
....................                Op=OFF; 
06ABC:  BCF    xA1.7
....................                Op2=OFF; 
06ABE:  BCF    xA2.0
....................                MenuAnt=Menu; 
06AC0:  MOVFF  35B,35C
....................                TipoClave=1; 
06AC4:  MOVLW  01
06AC6:  MOVLB  2
06AC8:  MOVWF  xDD
....................                RX_Buffer[3]=0x00; 
06ACA:  CLRF   33
....................                RX_Buffer2[3]=0x00; 
06ACC:  CLRF   3E
....................                Opcion=0; 
06ACE:  MOVLB  3
06AD0:  CLRF   x63
....................             }  
....................             if(Opcion==8){// Cambio de Clave 
06AD2:  MOVLB  3
06AD4:  MOVF   x63,W
06AD6:  SUBLW  08
06AD8:  BNZ   6B08
....................                printf("page Clave"); 
06ADA:  MOVLW  98
06ADC:  MOVWF  FF6
06ADE:  MOVLW  07
06AE0:  MOVWF  FF7
06AE2:  MOVLW  00
06AE4:  MOVWF  FF8
06AE6:  MOVLB  0
06AE8:  CALL   3506
....................                SendDataDisplay();  
06AEC:  CALL   3538
....................                Op=OFF; 
06AF0:  BCF    xA1.7
....................                Op2=OFF; 
06AF2:  BCF    xA2.0
....................                MenuAnt=Menu; 
06AF4:  MOVFF  35B,35C
....................                TipoClave=2; 
06AF8:  MOVLW  02
06AFA:  MOVLB  2
06AFC:  MOVWF  xDD
....................                RX_Buffer[3]=0x00; 
06AFE:  CLRF   33
....................                RX_Buffer2[3]=0x00; 
06B00:  CLRF   3E
....................                Opcion=0; 
06B02:  MOVLB  3
06B04:  CLRF   x63
....................             }else if(Opcion==7){//Hora y Fecha 
06B06:  BRA    6CD8
06B08:  MOVF   x63,W
06B0A:  SUBLW  07
06B0C:  BNZ   6B4A
....................                printf("page Fecha"); 
06B0E:  MOVLW  A4
06B10:  MOVWF  FF6
06B12:  MOVLW  07
06B14:  MOVWF  FF7
06B16:  MOVLW  00
06B18:  MOVWF  FF8
06B1A:  MOVLB  0
06B1C:  CALL   3506
....................                SendDataDisplay();      
06B20:  CALL   3538
....................                PantallaPrincipal=0; 
06B24:  MOVLB  2
06B26:  CLRF   xDC
....................                MenuAnt=Menu; 
06B28:  MOVFF  35B,35C
....................                Op=OFF; 
06B2C:  MOVLB  0
06B2E:  BCF    xA1.7
....................                Op2=OFF; 
06B30:  BCF    xA2.0
....................                DiaTx=Dia; 
06B32:  MOVFF  397,39E
....................                MesTx=Mes; 
06B36:  MOVFF  396,39D
....................                YearTx=Year; 
06B3A:  MOVFF  395,39C
....................                HoraTx=Hora; 
06B3E:  MOVFF  398,39F
....................                MinutoTx=Minuto; 
06B42:  MOVFF  399,3A0
....................             }else if(Opcion==6){//Test 
06B46:  BRA    6CD6
06B48:  MOVLB  3
06B4A:  MOVF   x63,W
06B4C:  SUBLW  06
06B4E:  BNZ   6B78
....................                printf("page Test"); 
06B50:  MOVLW  B0
06B52:  MOVWF  FF6
06B54:  MOVLW  07
06B56:  MOVWF  FF7
06B58:  MOVLW  00
06B5A:  MOVWF  FF8
06B5C:  MOVLB  0
06B5E:  CALL   3506
....................                SendDataDisplay();      
06B62:  CALL   3538
....................                PantallaPrincipal=0; 
06B66:  MOVLB  2
06B68:  CLRF   xDC
....................                MenuAnt=Menu; 
06B6A:  MOVFF  35B,35C
....................                Op=OFF; 
06B6E:  MOVLB  0
06B70:  BCF    xA1.7
....................                Op2=OFF; 
06B72:  BCF    xA2.0
....................             }else if(Opcion==5){//Ciclo Personalizado 
06B74:  BRA    6CD6
06B76:  MOVLB  3
06B78:  MOVF   x63,W
06B7A:  SUBLW  05
06B7C:  BNZ   6BA0
....................                printf("page CicloPersona"); 
06B7E:  MOVLW  BA
06B80:  MOVWF  FF6
06B82:  MOVLW  07
06B84:  MOVWF  FF7
06B86:  MOVLW  00
06B88:  MOVWF  FF8
06B8A:  MOVLB  0
06B8C:  CALL   3506
....................                SendDataDisplay();  
06B90:  CALL   3538
....................                MenuAnt=Menu; 
06B94:  MOVFF  35B,35C
....................                Op=OFF; 
06B98:  BCF    xA1.7
....................                Op2=OFF; 
06B9A:  BCF    xA2.0
....................             }else if(Opcion==4){//LiquidosB 
06B9C:  BRA    6CD6
06B9E:  MOVLB  3
06BA0:  MOVF   x63,W
06BA2:  SUBLW  04
06BA4:  BNZ   6BF0
....................                printf("page Nivel"); 
06BA6:  MOVLW  CC
06BA8:  MOVWF  FF6
06BAA:  MOVLW  07
06BAC:  MOVWF  FF7
06BAE:  MOVLW  00
06BB0:  MOVWF  FF8
06BB2:  MOVLB  0
06BB4:  CALL   3506
....................                SendDataDisplay();        
06BB8:  CALL   3538
....................                ConfiguraCiclo(0,0,0,3,0,0,0,0,1,4,121); 
06BBC:  MOVLB  3
06BBE:  CLRF   xF9
06BC0:  CLRF   xFA
06BC2:  CLRF   xFB
06BC4:  MOVLW  03
06BC6:  MOVWF  xFC
06BC8:  CLRF   xFD
06BCA:  CLRF   xFE
06BCC:  CLRF   xFF
06BCE:  MOVLB  4
06BD0:  CLRF   x00
06BD2:  MOVLW  01
06BD4:  MOVWF  x01
06BD6:  MOVLW  04
06BD8:  MOVWF  x02
06BDA:  MOVLW  79
06BDC:  MOVWF  x03
06BDE:  MOVLB  0
06BE0:  CALL   45BE
....................                Op=OFF; 
06BE4:  BCF    xA1.7
....................                Op2=OFF; 
06BE6:  BCF    xA2.0
....................                MenuAnt=2; 
06BE8:  MOVLW  02
06BEA:  MOVLB  3
06BEC:  MOVWF  x5C
....................             }else if(Opcion==1){//LiquidosA 
06BEE:  BRA    6CD8
06BF0:  DECFSZ x63,W
06BF2:  BRA    6C3C
....................                printf("page Nivel"); 
06BF4:  MOVLW  D8
06BF6:  MOVWF  FF6
06BF8:  MOVLW  07
06BFA:  MOVWF  FF7
06BFC:  MOVLW  00
06BFE:  MOVWF  FF8
06C00:  MOVLB  0
06C02:  CALL   3506
....................                SendDataDisplay();        
06C06:  CALL   3538
....................                ConfiguraCiclo(0,0,5,1,0,0,0,0,1,1,121); 
06C0A:  MOVLB  3
06C0C:  CLRF   xF9
06C0E:  CLRF   xFA
06C10:  MOVLW  05
06C12:  MOVWF  xFB
06C14:  MOVLW  01
06C16:  MOVWF  xFC
06C18:  CLRF   xFD
06C1A:  CLRF   xFE
06C1C:  CLRF   xFF
06C1E:  MOVLB  4
06C20:  CLRF   x00
06C22:  MOVWF  x01
06C24:  MOVWF  x02
06C26:  MOVLW  79
06C28:  MOVWF  x03
06C2A:  MOVLB  0
06C2C:  CALL   45BE
....................                Op=OFF; 
06C30:  BCF    xA1.7
....................                Op2=OFF; 
06C32:  BCF    xA2.0
....................                MenuAnt=2; 
06C34:  MOVLW  02
06C36:  MOVLB  3
06C38:  MOVWF  x5C
....................             }else if(Opcion==3){//Instrumental 
06C3A:  BRA    6CD8
06C3C:  MOVF   x63,W
06C3E:  SUBLW  03
06C40:  BNZ   6C88
....................                printf("page Funcionamiento"); 
06C42:  MOVLW  E4
06C44:  MOVWF  FF6
06C46:  MOVLW  07
06C48:  MOVWF  FF7
06C4A:  MOVLW  00
06C4C:  MOVWF  FF8
06C4E:  MOVLB  0
06C50:  CALL   3506
....................                SendDataDisplay();        
06C54:  CALL   3538
....................                ConfiguraCiclo(0,0,0,3,0,0,0,3,0,3,121); 
06C58:  MOVLB  3
06C5A:  CLRF   xF9
06C5C:  CLRF   xFA
06C5E:  CLRF   xFB
06C60:  MOVLW  03
06C62:  MOVWF  xFC
06C64:  CLRF   xFD
06C66:  CLRF   xFE
06C68:  CLRF   xFF
06C6A:  MOVLB  4
06C6C:  MOVWF  x00
06C6E:  CLRF   x01
06C70:  MOVWF  x02
06C72:  MOVLW  79
06C74:  MOVWF  x03
06C76:  MOVLB  0
06C78:  CALL   45BE
....................                Op=OFF; 
06C7C:  BCF    xA1.7
....................                Op2=OFF; 
06C7E:  BCF    xA2.0
....................                MenuAnt=Menu; 
06C80:  MOVFF  35B,35C
....................                //if(Temperatura>60)TTrampa=TTrampa+5; 
....................             }else if(Opcion==2){//Caucho 
06C84:  BRA    6CD6
06C86:  MOVLB  3
06C88:  MOVF   x63,W
06C8A:  SUBLW  02
06C8C:  BNZ   6CD8
....................                printf("page Funcionamiento"); 
06C8E:  MOVLW  F8
06C90:  MOVWF  FF6
06C92:  MOVLW  07
06C94:  MOVWF  FF7
06C96:  MOVLW  00
06C98:  MOVWF  FF8
06C9A:  MOVLB  0
06C9C:  CALL   3506
....................                SendDataDisplay();        
06CA0:  CALL   3538
....................                ConfiguraCiclo(0,0,5,1,0,0,3,0,0,2,121); 
06CA4:  MOVLB  3
06CA6:  CLRF   xF9
06CA8:  CLRF   xFA
06CAA:  MOVLW  05
06CAC:  MOVWF  xFB
06CAE:  MOVLW  01
06CB0:  MOVWF  xFC
06CB2:  CLRF   xFD
06CB4:  CLRF   xFE
06CB6:  MOVLW  03
06CB8:  MOVWF  xFF
06CBA:  MOVLB  4
06CBC:  CLRF   x00
06CBE:  CLRF   x01
06CC0:  MOVLW  02
06CC2:  MOVWF  x02
06CC4:  MOVLW  79
06CC6:  MOVWF  x03
06CC8:  MOVLB  0
06CCA:  CALL   45BE
....................                Op=OFF; 
06CCE:  BCF    xA1.7
....................                Op2=OFF; 
06CD0:  BCF    xA2.0
....................                MenuAnt=Menu; 
06CD2:  MOVFF  35B,35C
06CD6:  MOVLB  3
06CD8:  MOVLB  2
....................                //if(Temperatura>60)TTrampa=TTrampa+5; 
....................             } 
....................          } 
....................          } 
....................       }else if(PantallaPrincipal==0){ 
06CDA:  BRA    72B4
06CDC:  MOVLB  2
06CDE:  MOVF   xDC,F
06CE0:  BTFSS  FD8.2
06CE2:  BRA    72B4
....................          if(Opcion>8) 
06CE4:  MOVLB  3
06CE6:  MOVF   x63,W
06CE8:  SUBLW  08
06CEA:  BC    6CF0
....................             Opcion=1; 
06CEC:  MOVLW  01
06CEE:  MOVWF  x63
....................              
....................          if(Opcion<1) 
06CF0:  MOVF   x63,F
06CF2:  BNZ   6CF8
....................             Opcion=8; 
06CF4:  MOVLW  08
06CF6:  MOVWF  x63
....................           
....................          if(Opcion==1){ 
06CF8:  DECFSZ x63,W
06CFA:  BRA    6E9E
....................             printf("bc.pic=%u",iconoGrande[Opcion-1]); 
06CFC:  MOVLW  01
06CFE:  SUBWF  x63,W
06D00:  CLRF   03
06D02:  ADDLW  A9
06D04:  MOVWF  FE9
06D06:  MOVLW  03
06D08:  ADDWFC 03,W
06D0A:  MOVWF  FEA
06D0C:  MOVFF  FEF,3EF
06D10:  MOVLW  0C
06D12:  MOVWF  FF6
06D14:  MOVLW  08
06D16:  MOVWF  FF7
06D18:  MOVLW  00
06D1A:  MOVWF  FF8
06D1C:  MOVLW  07
06D1E:  MOVWF  xF3
06D20:  MOVLB  0
06D22:  CALL   4276
06D26:  MOVFF  3EF,3F1
06D2A:  MOVLW  1B
06D2C:  MOVLB  3
06D2E:  MOVWF  xF2
06D30:  MOVLB  0
06D32:  CALL   42D4
....................             SendDataDisplay(); 
06D36:  CALL   3538
....................             printf("bd.pic=%u",iconoPeque[Opcion]); 
06D3A:  CLRF   03
06D3C:  MOVLB  3
06D3E:  MOVF   x63,W
06D40:  ADDLW  B8
06D42:  MOVWF  FE9
06D44:  MOVLW  03
06D46:  ADDWFC 03,W
06D48:  MOVWF  FEA
06D4A:  MOVFF  FEF,3EF
06D4E:  MOVLW  16
06D50:  MOVWF  FF6
06D52:  MOVLW  08
06D54:  MOVWF  FF7
06D56:  MOVLW  00
06D58:  MOVWF  FF8
06D5A:  MOVLW  07
06D5C:  MOVWF  xF3
06D5E:  MOVLB  0
06D60:  CALL   4276
06D64:  MOVFF  3EF,3F1
06D68:  MOVLW  1B
06D6A:  MOVLB  3
06D6C:  MOVWF  xF2
06D6E:  MOVLB  0
06D70:  CALL   42D4
....................             SendDataDisplay(); 
06D74:  CALL   3538
....................             printf("bi.pic=%u",iconoPeque[7]); 
06D78:  MOVLW  20
06D7A:  MOVWF  FF6
06D7C:  MOVLW  08
06D7E:  MOVWF  FF7
06D80:  MOVLW  00
06D82:  MOVWF  FF8
06D84:  MOVLW  07
06D86:  MOVLB  3
06D88:  MOVWF  xF3
06D8A:  MOVLB  0
06D8C:  CALL   4276
06D90:  MOVFF  3BF,3F1
06D94:  MOVLW  1B
06D96:  MOVLB  3
06D98:  MOVWF  xF2
06D9A:  MOVLB  0
06D9C:  CALL   42D4
....................             SendDataDisplay(); 
06DA0:  CALL   3538
....................             printf("bc.pic2=%u",iconoGrande[Opcion-1]); 
06DA4:  MOVLW  01
06DA6:  MOVLB  3
06DA8:  SUBWF  x63,W
06DAA:  CLRF   03
06DAC:  ADDLW  A9
06DAE:  MOVWF  FE9
06DB0:  MOVLW  03
06DB2:  ADDWFC 03,W
06DB4:  MOVWF  FEA
06DB6:  MOVFF  FEF,3EF
06DBA:  MOVLW  2A
06DBC:  MOVWF  FF6
06DBE:  MOVLW  08
06DC0:  MOVWF  FF7
06DC2:  MOVLW  00
06DC4:  MOVWF  FF8
06DC6:  MOVLW  08
06DC8:  MOVWF  xF3
06DCA:  MOVLB  0
06DCC:  CALL   4276
06DD0:  MOVFF  3EF,3F1
06DD4:  MOVLW  1B
06DD6:  MOVLB  3
06DD8:  MOVWF  xF2
06DDA:  MOVLB  0
06DDC:  CALL   42D4
....................             SendDataDisplay(); 
06DE0:  CALL   3538
....................             printf("bd.pic2=%u",iconoPeque[Opcion]); 
06DE4:  CLRF   03
06DE6:  MOVLB  3
06DE8:  MOVF   x63,W
06DEA:  ADDLW  B8
06DEC:  MOVWF  FE9
06DEE:  MOVLW  03
06DF0:  ADDWFC 03,W
06DF2:  MOVWF  FEA
06DF4:  MOVFF  FEF,3EF
06DF8:  MOVLW  36
06DFA:  MOVWF  FF6
06DFC:  MOVLW  08
06DFE:  MOVWF  FF7
06E00:  MOVLW  00
06E02:  MOVWF  FF8
06E04:  MOVLW  08
06E06:  MOVWF  xF3
06E08:  MOVLB  0
06E0A:  CALL   4276
06E0E:  MOVFF  3EF,3F1
06E12:  MOVLW  1B
06E14:  MOVLB  3
06E16:  MOVWF  xF2
06E18:  MOVLB  0
06E1A:  CALL   42D4
....................             SendDataDisplay(); 
06E1E:  CALL   3538
....................             printf("bi.pic2=%u",iconoPeque[7]); 
06E22:  MOVLW  42
06E24:  MOVWF  FF6
06E26:  MOVLW  08
06E28:  MOVWF  FF7
06E2A:  MOVLW  00
06E2C:  MOVWF  FF8
06E2E:  MOVLW  08
06E30:  MOVLB  3
06E32:  MOVWF  xF3
06E34:  MOVLB  0
06E36:  CALL   4276
06E3A:  MOVFF  3BF,3F1
06E3E:  MOVLW  1B
06E40:  MOVLB  3
06E42:  MOVWF  xF2
06E44:  MOVLB  0
06E46:  CALL   42D4
....................             SendDataDisplay(); 
06E4A:  CALL   3538
....................             printf("textop.txt=\"%s\"",texto[Opcion-1]); 
06E4E:  MOVLW  01
06E50:  MOVLB  3
06E52:  SUBWF  x63,W
06E54:  MULLW  14
06E56:  MOVF   FF3,W
06E58:  CLRF   03
06E5A:  MOVWF  xEF
06E5C:  MOVLW  4E
06E5E:  MOVWF  FF6
06E60:  MOVLW  08
06E62:  MOVWF  FF7
06E64:  MOVLW  00
06E66:  MOVWF  FF8
06E68:  MOVLW  0C
06E6A:  MOVWF  xF3
06E6C:  MOVLB  0
06E6E:  CALL   4276
06E72:  MOVLW  50
06E74:  MOVWF  FF6
06E76:  MOVLW  01
06E78:  MOVWF  FF7
06E7A:  MOVLW  00
06E7C:  MOVWF  FF8
06E7E:  MOVLB  3
06E80:  MOVF   xEF,W
06E82:  ADDWF  FF6,F
06E84:  MOVLW  00
06E86:  ADDWFC FF7,F
06E88:  MOVLB  0
06E8A:  CALL   3506
06E8E:  MOVLW  22
06E90:  BTFSS  F9E.4
06E92:  BRA    6E90
06E94:  MOVWF  FAD
....................             SendDataDisplay(); 
06E96:  CALL   3538
....................          }else if(Opcion==8){ 
06E9A:  BRA    7212
06E9C:  MOVLB  3
06E9E:  MOVF   x63,W
06EA0:  SUBLW  08
06EA2:  BTFSS  FD8.2
06EA4:  BRA    704C
....................             printf("bc.pic=%u",iconoGrande[Opcion-1]); 
06EA6:  MOVLW  01
06EA8:  SUBWF  x63,W
06EAA:  CLRF   03
06EAC:  ADDLW  A9
06EAE:  MOVWF  FE9
06EB0:  MOVLW  03
06EB2:  ADDWFC 03,W
06EB4:  MOVWF  FEA
06EB6:  MOVFF  FEF,3EF
06EBA:  MOVLW  5E
06EBC:  MOVWF  FF6
06EBE:  MOVLW  08
06EC0:  MOVWF  FF7
06EC2:  MOVLW  00
06EC4:  MOVWF  FF8
06EC6:  MOVLW  07
06EC8:  MOVWF  xF3
06ECA:  MOVLB  0
06ECC:  CALL   4276
06ED0:  MOVFF  3EF,3F1
06ED4:  MOVLW  1B
06ED6:  MOVLB  3
06ED8:  MOVWF  xF2
06EDA:  MOVLB  0
06EDC:  CALL   42D4
....................             SendDataDisplay(); 
06EE0:  CALL   3538
....................             printf("bd.pic=%u",iconoPeque[0]); 
06EE4:  MOVLW  68
06EE6:  MOVWF  FF6
06EE8:  MOVLW  08
06EEA:  MOVWF  FF7
06EEC:  MOVLW  00
06EEE:  MOVWF  FF8
06EF0:  MOVLW  07
06EF2:  MOVLB  3
06EF4:  MOVWF  xF3
06EF6:  MOVLB  0
06EF8:  CALL   4276
06EFC:  MOVFF  3B8,3F1
06F00:  MOVLW  1B
06F02:  MOVLB  3
06F04:  MOVWF  xF2
06F06:  MOVLB  0
06F08:  CALL   42D4
....................             SendDataDisplay(); 
06F0C:  CALL   3538
....................             printf("bi.pic=%u",iconoPeque[Opcion-2]); 
06F10:  MOVLW  02
06F12:  MOVLB  3
06F14:  SUBWF  x63,W
06F16:  CLRF   03
06F18:  ADDLW  B8
06F1A:  MOVWF  FE9
06F1C:  MOVLW  03
06F1E:  ADDWFC 03,W
06F20:  MOVWF  FEA
06F22:  MOVFF  FEF,3EF
06F26:  MOVLW  72
06F28:  MOVWF  FF6
06F2A:  MOVLW  08
06F2C:  MOVWF  FF7
06F2E:  MOVLW  00
06F30:  MOVWF  FF8
06F32:  MOVLW  07
06F34:  MOVWF  xF3
06F36:  MOVLB  0
06F38:  CALL   4276
06F3C:  MOVFF  3EF,3F1
06F40:  MOVLW  1B
06F42:  MOVLB  3
06F44:  MOVWF  xF2
06F46:  MOVLB  0
06F48:  CALL   42D4
....................             SendDataDisplay(); 
06F4C:  CALL   3538
....................             printf("bc.pic2=%u",iconoGrande[Opcion-1]); 
06F50:  MOVLW  01
06F52:  MOVLB  3
06F54:  SUBWF  x63,W
06F56:  CLRF   03
06F58:  ADDLW  A9
06F5A:  MOVWF  FE9
06F5C:  MOVLW  03
06F5E:  ADDWFC 03,W
06F60:  MOVWF  FEA
06F62:  MOVFF  FEF,3EF
06F66:  MOVLW  7C
06F68:  MOVWF  FF6
06F6A:  MOVLW  08
06F6C:  MOVWF  FF7
06F6E:  MOVLW  00
06F70:  MOVWF  FF8
06F72:  MOVLW  08
06F74:  MOVWF  xF3
06F76:  MOVLB  0
06F78:  CALL   4276
06F7C:  MOVFF  3EF,3F1
06F80:  MOVLW  1B
06F82:  MOVLB  3
06F84:  MOVWF  xF2
06F86:  MOVLB  0
06F88:  CALL   42D4
....................             SendDataDisplay(); 
06F8C:  CALL   3538
....................             printf("bd.pic2=%u",iconoPeque[0]); 
06F90:  MOVLW  88
06F92:  MOVWF  FF6
06F94:  MOVLW  08
06F96:  MOVWF  FF7
06F98:  MOVLW  00
06F9A:  MOVWF  FF8
06F9C:  MOVLW  08
06F9E:  MOVLB  3
06FA0:  MOVWF  xF3
06FA2:  MOVLB  0
06FA4:  CALL   4276
06FA8:  MOVFF  3B8,3F1
06FAC:  MOVLW  1B
06FAE:  MOVLB  3
06FB0:  MOVWF  xF2
06FB2:  MOVLB  0
06FB4:  CALL   42D4
....................             SendDataDisplay(); 
06FB8:  CALL   3538
....................             printf("bi.pic2=%u",iconoPeque[Opcion-2]); 
06FBC:  MOVLW  02
06FBE:  MOVLB  3
06FC0:  SUBWF  x63,W
06FC2:  CLRF   03
06FC4:  ADDLW  B8
06FC6:  MOVWF  FE9
06FC8:  MOVLW  03
06FCA:  ADDWFC 03,W
06FCC:  MOVWF  FEA
06FCE:  MOVFF  FEF,3EF
06FD2:  MOVLW  94
06FD4:  MOVWF  FF6
06FD6:  MOVLW  08
06FD8:  MOVWF  FF7
06FDA:  MOVLW  00
06FDC:  MOVWF  FF8
06FDE:  MOVLW  08
06FE0:  MOVWF  xF3
06FE2:  MOVLB  0
06FE4:  CALL   4276
06FE8:  MOVFF  3EF,3F1
06FEC:  MOVLW  1B
06FEE:  MOVLB  3
06FF0:  MOVWF  xF2
06FF2:  MOVLB  0
06FF4:  CALL   42D4
....................             SendDataDisplay(); 
06FF8:  CALL   3538
....................             printf("textop.txt=\"%s\"",texto[Opcion-1]); 
06FFC:  MOVLW  01
06FFE:  MOVLB  3
07000:  SUBWF  x63,W
07002:  MULLW  14
07004:  MOVF   FF3,W
07006:  CLRF   03
07008:  MOVWF  xEF
0700A:  MOVLW  A0
0700C:  MOVWF  FF6
0700E:  MOVLW  08
07010:  MOVWF  FF7
07012:  MOVLW  00
07014:  MOVWF  FF8
07016:  MOVLW  0C
07018:  MOVWF  xF3
0701A:  MOVLB  0
0701C:  CALL   4276
07020:  MOVLW  50
07022:  MOVWF  FF6
07024:  MOVLW  01
07026:  MOVWF  FF7
07028:  MOVLW  00
0702A:  MOVWF  FF8
0702C:  MOVLB  3
0702E:  MOVF   xEF,W
07030:  ADDWF  FF6,F
07032:  MOVLW  00
07034:  ADDWFC FF7,F
07036:  MOVLB  0
07038:  CALL   3506
0703C:  MOVLW  22
0703E:  BTFSS  F9E.4
07040:  BRA    703E
07042:  MOVWF  FAD
....................             SendDataDisplay(); 
07044:  CALL   3538
....................          }else{ 
07048:  BRA    7212
0704A:  MOVLB  3
....................             printf("bc.pic=%u",iconoGrande[Opcion-1]); 
0704C:  MOVLW  01
0704E:  SUBWF  x63,W
07050:  CLRF   03
07052:  ADDLW  A9
07054:  MOVWF  FE9
07056:  MOVLW  03
07058:  ADDWFC 03,W
0705A:  MOVWF  FEA
0705C:  MOVFF  FEF,3EF
07060:  MOVLW  B0
07062:  MOVWF  FF6
07064:  MOVLW  08
07066:  MOVWF  FF7
07068:  MOVLW  00
0706A:  MOVWF  FF8
0706C:  MOVLW  07
0706E:  MOVWF  xF3
07070:  MOVLB  0
07072:  CALL   4276
07076:  MOVFF  3EF,3F1
0707A:  MOVLW  1B
0707C:  MOVLB  3
0707E:  MOVWF  xF2
07080:  MOVLB  0
07082:  CALL   42D4
....................             SendDataDisplay(); 
07086:  CALL   3538
....................             printf("bd.pic=%u",iconoPeque[Opcion]); 
0708A:  CLRF   03
0708C:  MOVLB  3
0708E:  MOVF   x63,W
07090:  ADDLW  B8
07092:  MOVWF  FE9
07094:  MOVLW  03
07096:  ADDWFC 03,W
07098:  MOVWF  FEA
0709A:  MOVFF  FEF,3EF
0709E:  MOVLW  BA
070A0:  MOVWF  FF6
070A2:  MOVLW  08
070A4:  MOVWF  FF7
070A6:  MOVLW  00
070A8:  MOVWF  FF8
070AA:  MOVLW  07
070AC:  MOVWF  xF3
070AE:  MOVLB  0
070B0:  CALL   4276
070B4:  MOVFF  3EF,3F1
070B8:  MOVLW  1B
070BA:  MOVLB  3
070BC:  MOVWF  xF2
070BE:  MOVLB  0
070C0:  CALL   42D4
....................             SendDataDisplay(); 
070C4:  CALL   3538
....................             printf("bi.pic=%u",iconoPeque[Opcion-2]); 
070C8:  MOVLW  02
070CA:  MOVLB  3
070CC:  SUBWF  x63,W
070CE:  CLRF   03
070D0:  ADDLW  B8
070D2:  MOVWF  FE9
070D4:  MOVLW  03
070D6:  ADDWFC 03,W
070D8:  MOVWF  FEA
070DA:  MOVFF  FEF,3EF
070DE:  MOVLW  C4
070E0:  MOVWF  FF6
070E2:  MOVLW  08
070E4:  MOVWF  FF7
070E6:  MOVLW  00
070E8:  MOVWF  FF8
070EA:  MOVLW  07
070EC:  MOVWF  xF3
070EE:  MOVLB  0
070F0:  CALL   4276
070F4:  MOVFF  3EF,3F1
070F8:  MOVLW  1B
070FA:  MOVLB  3
070FC:  MOVWF  xF2
070FE:  MOVLB  0
07100:  CALL   42D4
....................             SendDataDisplay(); 
07104:  CALL   3538
....................             printf("bc.pic2=%u",iconoGrande[Opcion-1]); 
07108:  MOVLW  01
0710A:  MOVLB  3
0710C:  SUBWF  x63,W
0710E:  CLRF   03
07110:  ADDLW  A9
07112:  MOVWF  FE9
07114:  MOVLW  03
07116:  ADDWFC 03,W
07118:  MOVWF  FEA
0711A:  MOVFF  FEF,3EF
0711E:  MOVLW  CE
07120:  MOVWF  FF6
07122:  MOVLW  08
07124:  MOVWF  FF7
07126:  MOVLW  00
07128:  MOVWF  FF8
0712A:  MOVLW  08
0712C:  MOVWF  xF3
0712E:  MOVLB  0
07130:  CALL   4276
07134:  MOVFF  3EF,3F1
07138:  MOVLW  1B
0713A:  MOVLB  3
0713C:  MOVWF  xF2
0713E:  MOVLB  0
07140:  CALL   42D4
....................             SendDataDisplay(); 
07144:  CALL   3538
....................             printf("bd.pic2=%u",iconoPeque[Opcion]); 
07148:  CLRF   03
0714A:  MOVLB  3
0714C:  MOVF   x63,W
0714E:  ADDLW  B8
07150:  MOVWF  FE9
07152:  MOVLW  03
07154:  ADDWFC 03,W
07156:  MOVWF  FEA
07158:  MOVFF  FEF,3EF
0715C:  MOVLW  DA
0715E:  MOVWF  FF6
07160:  MOVLW  08
07162:  MOVWF  FF7
07164:  MOVLW  00
07166:  MOVWF  FF8
07168:  MOVLW  08
0716A:  MOVWF  xF3
0716C:  MOVLB  0
0716E:  CALL   4276
07172:  MOVFF  3EF,3F1
07176:  MOVLW  1B
07178:  MOVLB  3
0717A:  MOVWF  xF2
0717C:  MOVLB  0
0717E:  CALL   42D4
....................             SendDataDisplay(); 
07182:  CALL   3538
....................             printf("bi.pic2=%u",iconoPeque[Opcion-2]); 
07186:  MOVLW  02
07188:  MOVLB  3
0718A:  SUBWF  x63,W
0718C:  CLRF   03
0718E:  ADDLW  B8
07190:  MOVWF  FE9
07192:  MOVLW  03
07194:  ADDWFC 03,W
07196:  MOVWF  FEA
07198:  MOVFF  FEF,3EF
0719C:  MOVLW  E6
0719E:  MOVWF  FF6
071A0:  MOVLW  08
071A2:  MOVWF  FF7
071A4:  MOVLW  00
071A6:  MOVWF  FF8
071A8:  MOVLW  08
071AA:  MOVWF  xF3
071AC:  MOVLB  0
071AE:  CALL   4276
071B2:  MOVFF  3EF,3F1
071B6:  MOVLW  1B
071B8:  MOVLB  3
071BA:  MOVWF  xF2
071BC:  MOVLB  0
071BE:  CALL   42D4
....................             SendDataDisplay(); 
071C2:  CALL   3538
....................             printf("textop.txt=\"%s\"",texto[Opcion-1]); 
071C6:  MOVLW  01
071C8:  MOVLB  3
071CA:  SUBWF  x63,W
071CC:  MULLW  14
071CE:  MOVF   FF3,W
071D0:  CLRF   03
071D2:  MOVWF  xEF
071D4:  MOVLW  F2
071D6:  MOVWF  FF6
071D8:  MOVLW  08
071DA:  MOVWF  FF7
071DC:  MOVLW  00
071DE:  MOVWF  FF8
071E0:  MOVLW  0C
071E2:  MOVWF  xF3
071E4:  MOVLB  0
071E6:  CALL   4276
071EA:  MOVLW  50
071EC:  MOVWF  FF6
071EE:  MOVLW  01
071F0:  MOVWF  FF7
071F2:  MOVLW  00
071F4:  MOVWF  FF8
071F6:  MOVLB  3
071F8:  MOVF   xEF,W
071FA:  ADDWF  FF6,F
071FC:  MOVLW  00
071FE:  ADDWFC FF7,F
07200:  MOVLB  0
07202:  CALL   3506
07206:  MOVLW  22
07208:  BTFSS  F9E.4
0720A:  BRA    7208
0720C:  MOVWF  FAD
....................             SendDataDisplay(); 
0720E:  CALL   3538
....................          } 
....................           
....................          printf("ttitulo.txt=\"SELECCIONE SU CICLO\""); 
07212:  MOVLW  02
07214:  MOVWF  FF6
07216:  MOVLW  09
07218:  MOVWF  FF7
0721A:  MOVLW  00
0721C:  MOVWF  FF8
0721E:  CALL   3506
....................          SendDataDisplay(); 
07222:  CALL   3538
....................           
....................          if(RIGHT){ 
07226:  BSF    F93.2
07228:  BTFSC  F81.2
0722A:  BRA    7244
....................             delay_ms(20); 
0722C:  MOVLW  14
0722E:  MOVLB  4
07230:  MOVWF  x04
07232:  MOVLB  0
07234:  CALL   179C
....................             if(RIGHT){ 
07238:  BSF    F93.2
0723A:  BTFSC  F81.2
0723C:  BRA    7244
....................                Opcion++; 
0723E:  MOVLB  3
07240:  INCF   x63,F
07242:  MOVLB  0
....................             } 
....................          } 
....................           
....................          if(LEFT){ 
07244:  BSF    F93.3
07246:  BTFSC  F81.3
07248:  BRA    7262
....................             delay_ms(20); 
0724A:  MOVLW  14
0724C:  MOVLB  4
0724E:  MOVWF  x04
07250:  MOVLB  0
07252:  CALL   179C
....................             if(LEFT){ 
07256:  BSF    F93.3
07258:  BTFSC  F81.3
0725A:  BRA    7262
....................                Opcion--; 
0725C:  MOVLB  3
0725E:  DECF   x63,F
07260:  MOVLB  0
....................             } 
....................          } 
....................           
....................          if(RX_Buffer[4]==0x0d && !Op){//Tecla Derecha Oprimida 
07262:  MOVF   34,W
07264:  SUBLW  0D
07266:  BNZ   7276
07268:  BTFSC  xA1.7
0726A:  BRA    7276
....................             Opcion++; 
0726C:  MOVLB  3
0726E:  INCF   x63,F
....................             RX_Buffer[4]=0x00; 
07270:  CLRF   34
....................             Op=ON; 
07272:  MOVLB  0
07274:  BSF    xA1.7
....................             //BorraBuffer(); 
....................          } 
....................           
....................          if(RX_Buffer[4]==0x0c && Op){//Tecla Derecha Oprimida 
07276:  MOVF   34,W
07278:  SUBLW  0C
0727A:  BNZ   728A
0727C:  BTFSS  xA1.7
0727E:  BRA    728A
....................             Opcion++; 
07280:  MOVLB  3
07282:  INCF   x63,F
....................             RX_Buffer[4]=0x00; 
07284:  CLRF   34
....................             Op=OFF; 
07286:  MOVLB  0
07288:  BCF    xA1.7
....................             //BorraBuffer(); 
....................          } 
....................           
....................          if(RX_Buffer[4]==0x0e && !Op2){//Tecla Izquierda Oprimida 
0728A:  MOVF   34,W
0728C:  SUBLW  0E
0728E:  BNZ   729E
07290:  BTFSC  xA2.0
07292:  BRA    729E
....................             Opcion--; 
07294:  MOVLB  3
07296:  DECF   x63,F
....................             RX_Buffer[4]=0x00; 
07298:  CLRF   34
....................             Op2=ON; 
0729A:  MOVLB  0
0729C:  BSF    xA2.0
....................             //BorraBuffer(); 
....................          } 
....................           
....................          if(RX_Buffer[4]==0x0f && Op2){//Tecla Izquierda Oprimida 
0729E:  MOVF   34,W
072A0:  SUBLW  0F
072A2:  BNZ   72B2
072A4:  BTFSS  xA2.0
072A6:  BRA    72B2
....................             Opcion--; 
072A8:  MOVLB  3
072AA:  DECF   x63,F
....................             RX_Buffer[4]=0x00; 
072AC:  CLRF   34
....................             Op2=OFF; 
072AE:  MOVLB  0
072B0:  BCF    xA2.0
072B2:  MOVLB  2
....................             //BorraBuffer(); 
....................          } 
....................           
....................       } 
....................          if(RIGHT && LEFT){ 
072B4:  BSF    F93.2
072B6:  BTFSC  F81.2
072B8:  BRA    7306
072BA:  BSF    F93.3
072BC:  BTFSC  F81.3
072BE:  BRA    7306
....................             delay_ms(20); 
072C0:  MOVLW  14
072C2:  MOVLB  4
072C4:  MOVWF  x04
072C6:  MOVLB  0
072C8:  CALL   179C
....................             if(RIGHT && LEFT){ 
072CC:  BSF    F93.2
072CE:  BTFSC  F81.2
072D0:  BRA    7304
072D2:  BSF    F93.3
072D4:  BTFSC  F81.3
072D6:  BRA    7304
....................                printf("page Clave"); 
072D8:  MOVLW  24
072DA:  MOVWF  FF6
072DC:  MOVLW  09
072DE:  MOVWF  FF7
072E0:  MOVLW  00
072E2:  MOVWF  FF8
072E4:  CALL   3506
....................                SendDataDisplay();  
072E8:  CALL   3538
....................                Op=OFF; 
072EC:  BCF    xA1.7
....................                Op2=OFF; 
072EE:  BCF    xA2.0
....................                MenuAnt=Menu; 
072F0:  MOVFF  35B,35C
....................                TipoClave=1; 
072F4:  MOVLW  01
072F6:  MOVLB  2
072F8:  MOVWF  xDD
....................                RX_Buffer[3]=0x00; 
072FA:  CLRF   33
....................                RX_Buffer2[3]=0x00; 
072FC:  CLRF   3E
....................                Opcion=0; 
072FE:  MOVLB  3
07300:  CLRF   x63
07302:  MOVLB  0
07304:  MOVLB  2
....................             } 
....................          } 
....................    } 
.................... //_--------------------------------------------------------------------------------------------------------------------------------------------------------        
....................  
.................... //_-------------------------------------------------------------------------------------------------------------------------------------------------------- 
....................     if(Menu==2){ //Menu de Tiempo Esterilizacion      
07306:  MOVLB  3
07308:  MOVF   x5B,W
0730A:  SUBLW  02
0730C:  BTFSS  FD8.2
0730E:  BRA    7830
....................       printf("fecha.txt=\"T:%3.1fC Fecha:%02u/%02u/20%02u Hora: %02u:%02u:%02u\"",Temperatura,Dia,Mes,Year,Hora,Minuto,Segundo); 
07310:  MOVLW  30
07312:  MOVWF  FF6
07314:  MOVLW  09
07316:  MOVWF  FF7
07318:  MOVLW  00
0731A:  MOVWF  FF8
0731C:  MOVLW  0D
0731E:  MOVWF  xF3
07320:  MOVLB  0
07322:  CALL   4276
07326:  MOVLW  02
07328:  MOVWF  FE9
0732A:  MOVFF  324,3F6
0732E:  MOVFF  323,3F5
07332:  MOVFF  322,3F4
07336:  MOVFF  321,3F3
0733A:  MOVLW  01
0733C:  MOVLB  3
0733E:  MOVWF  xF7
07340:  MOVLB  0
07342:  CALL   4416
07346:  MOVLW  42
07348:  MOVWF  FF6
0734A:  MOVLW  09
0734C:  MOVWF  FF7
0734E:  MOVLW  00
07350:  MOVWF  FF8
07352:  MOVLW  09
07354:  MOVLB  3
07356:  MOVWF  xF3
07358:  MOVLB  0
0735A:  CALL   4276
0735E:  MOVFF  397,3F1
07362:  MOVLW  01
07364:  MOVLB  3
07366:  MOVWF  xF2
07368:  MOVLB  0
0736A:  CALL   42D4
0736E:  MOVLW  2F
07370:  BTFSS  F9E.4
07372:  BRA    7370
07374:  MOVWF  FAD
07376:  MOVFF  396,3F1
0737A:  MOVLW  01
0737C:  MOVLB  3
0737E:  MOVWF  xF2
07380:  MOVLB  0
07382:  CALL   42D4
07386:  MOVLW  2F
07388:  BTFSS  F9E.4
0738A:  BRA    7388
0738C:  MOVWF  FAD
0738E:  MOVLW  32
07390:  BTFSS  F9E.4
07392:  BRA    7390
07394:  MOVWF  FAD
07396:  MOVLW  30
07398:  BTFSS  F9E.4
0739A:  BRA    7398
0739C:  MOVWF  FAD
0739E:  MOVFF  395,3F1
073A2:  MOVLW  01
073A4:  MOVLB  3
073A6:  MOVWF  xF2
073A8:  MOVLB  0
073AA:  CALL   42D4
073AE:  MOVLW  5B
073B0:  MOVWF  FF6
073B2:  MOVLW  09
073B4:  MOVWF  FF7
073B6:  MOVLW  00
073B8:  MOVWF  FF8
073BA:  MOVLW  07
073BC:  MOVLB  3
073BE:  MOVWF  xF3
073C0:  MOVLB  0
073C2:  CALL   4276
073C6:  MOVFF  398,3F1
073CA:  MOVLW  01
073CC:  MOVLB  3
073CE:  MOVWF  xF2
073D0:  MOVLB  0
073D2:  CALL   42D4
073D6:  MOVLW  3A
073D8:  BTFSS  F9E.4
073DA:  BRA    73D8
073DC:  MOVWF  FAD
073DE:  MOVFF  399,3F1
073E2:  MOVLW  01
073E4:  MOVLB  3
073E6:  MOVWF  xF2
073E8:  MOVLB  0
073EA:  CALL   42D4
073EE:  MOVLW  3A
073F0:  BTFSS  F9E.4
073F2:  BRA    73F0
073F4:  MOVWF  FAD
073F6:  MOVFF  39A,3F1
073FA:  MOVLW  01
073FC:  MOVLB  3
073FE:  MOVWF  xF2
07400:  MOVLB  0
07402:  CALL   42D4
07406:  MOVLW  22
07408:  BTFSS  F9E.4
0740A:  BRA    7408
0740C:  MOVWF  FAD
....................       SendDataDisplay(); 
0740E:  CALL   3538
....................          if(RX_Buffer[4]==0x0a){//Selecciono Minutos 
07412:  MOVF   34,W
07414:  SUBLW  0A
07416:  BNZ   741C
....................             Minutos=ON; 
07418:  BSF    xA2.1
....................             Segundos=OFF; 
0741A:  BCF    xA2.2
....................          } 
....................           
....................          if(RX_Buffer[4]==0x0b){//Selecciono Segundos 
0741C:  MOVF   34,W
0741E:  SUBLW  0B
07420:  BNZ   7426
....................             Segundos=ON; 
07422:  BSF    xA2.2
....................             Minutos=OFF; 
07424:  BCF    xA2.1
....................          }            
....................           
....................          if(RX_Buffer[4]==0x11 || LEFT){//Selecciono Regresar 
07426:  MOVF   34,W
07428:  SUBLW  11
0742A:  BZ    7432
0742C:  BSF    F93.3
0742E:  BTFSC  F81.3
07430:  BRA    75B4
....................             delay_ms(100); 
07432:  MOVLW  64
07434:  MOVLB  4
07436:  MOVWF  x04
07438:  MOVLB  0
0743A:  CALL   179C
....................             if(RX_Buffer[4]==0x11 || LEFT){ 
0743E:  MOVF   34,W
07440:  SUBLW  11
07442:  BZ    744A
07444:  BSF    F93.3
07446:  BTFSC  F81.3
07448:  BRA    75B4
....................                Segundos=OFF; 
0744A:  BCF    xA2.2
....................                Minutos=OFF; 
0744C:  BCF    xA2.1
....................                printf("page CicloPersona"); 
0744E:  MOVLW  72
07450:  MOVWF  FF6
07452:  MOVLW  09
07454:  MOVWF  FF7
07456:  MOVLW  00
07458:  MOVWF  FF8
0745A:  CALL   3506
....................                SendDataDisplay();   
0745E:  CALL   3538
....................                PantallaPrincipal=1; 
07462:  MOVLW  01
07464:  MOVLB  2
07466:  MOVWF  xDC
....................                Op=OFF; 
07468:  MOVLB  0
0746A:  BCF    xA1.7
....................                Op2=OFF; 
0746C:  BCF    xA2.0
....................                if(!GuardaEEPROM){ 
0746E:  BTFSC  xA2.3
07470:  BRA    75B4
....................                   CiclosPersonalizados[CicloLibre-1].Minutoest=Testerilizacionp[2]+(Testerilizacionp[3]*10); 
07472:  MOVLW  01
07474:  MOVLB  3
07476:  SUBWF  x37,W
07478:  MULLW  0A
0747A:  MOVF   FF3,W
0747C:  CLRF   xF0
0747E:  MOVWF  xEF
07480:  MOVLW  09
07482:  ADDWF  xEF,W
07484:  MOVWF  01
07486:  MOVLW  00
07488:  ADDWFC xF0,W
0748A:  MOVWF  03
0748C:  MOVF   01,W
0748E:  ADDLW  C7
07490:  MOVWF  FE9
07492:  MOVLW  03
07494:  ADDWFC 03,W
07496:  MOVWF  FEA
07498:  MOVFF  B8,3F1
0749C:  MOVLW  0A
0749E:  MOVWF  xF2
074A0:  MOVLB  0
074A2:  CALL   2A9A
074A6:  MOVF   01,W
074A8:  ADDWF  xB7,W
074AA:  MOVWF  FEF
....................                   CiclosPersonalizados[CicloLibre-1].Segundoest=Testerilizacionp[0]+(Testerilizacionp[1]*10); 
074AC:  MOVLW  01
074AE:  MOVLB  3
074B0:  SUBWF  x37,W
074B2:  MULLW  0A
074B4:  MOVF   FF3,W
074B6:  CLRF   xF0
074B8:  MOVWF  xEF
074BA:  MOVLW  03
074BC:  ADDWF  xEF,W
074BE:  MOVWF  01
074C0:  MOVLW  00
074C2:  ADDWFC xF0,W
074C4:  MOVWF  03
074C6:  MOVF   01,W
074C8:  ADDLW  C7
074CA:  MOVWF  FE9
074CC:  MOVLW  03
074CE:  ADDWFC 03,W
074D0:  MOVWF  FEA
074D2:  MOVFF  B6,3F1
074D6:  MOVLW  0A
074D8:  MOVWF  xF2
074DA:  MOVLB  0
074DC:  CALL   2A9A
074E0:  MOVF   01,W
074E2:  ADDWF  xB5,W
074E4:  MOVWF  FEF
....................                   write_eeprom(102+((CicloLibre-1)*8),Testerilizacionp[2]+(Testerilizacionp[3]*10)); 
074E6:  MOVLW  01
074E8:  MOVLB  3
074EA:  SUBWF  x37,W
074EC:  MULLW  08
074EE:  MOVF   FF3,W
074F0:  ADDLW  66
074F2:  MOVWF  xEF
074F4:  MOVFF  B8,3F1
074F8:  MOVLW  0A
074FA:  MOVWF  xF2
074FC:  MOVLB  0
074FE:  CALL   2A9A
07502:  MOVF   01,W
07504:  ADDWF  xB7,W
07506:  MOVLB  3
07508:  MOVWF  xF0
0750A:  CLRF   FAA
0750C:  MOVFF  3EF,FA9
07510:  MOVFF  3F0,FA8
07514:  BCF    FA6.6
07516:  BCF    FA6.7
07518:  BSF    FA6.2
0751A:  MOVF   FF2,W
0751C:  MOVWF  00
0751E:  BCF    FF2.6
07520:  BCF    FF2.7
07522:  MOVLB  F
07524:  MOVLW  55
07526:  MOVWF  FA7
07528:  MOVLW  AA
0752A:  MOVWF  FA7
0752C:  BSF    FA6.1
0752E:  BTFSC  FA6.1
07530:  BRA    752E
07532:  BCF    FA6.2
07534:  MOVF   00,W
07536:  IORWF  FF2,F
....................                   delay_ms(10); 
07538:  MOVLW  0A
0753A:  MOVLB  4
0753C:  MOVWF  x04
0753E:  MOVLB  0
07540:  CALL   179C
....................                   write_eeprom(103+((CicloLibre-1)*8),Testerilizacionp[0]+(Testerilizacionp[1]*10)); 
07544:  MOVLW  01
07546:  MOVLB  3
07548:  SUBWF  x37,W
0754A:  MULLW  08
0754C:  MOVF   FF3,W
0754E:  ADDLW  67
07550:  MOVWF  xEF
07552:  MOVFF  B6,3F1
07556:  MOVLW  0A
07558:  MOVWF  xF2
0755A:  MOVLB  0
0755C:  CALL   2A9A
07560:  MOVF   01,W
07562:  ADDWF  xB5,W
07564:  MOVLB  3
07566:  MOVWF  xF0
07568:  CLRF   FAA
0756A:  MOVFF  3EF,FA9
0756E:  MOVFF  3F0,FA8
07572:  BCF    FA6.6
07574:  BCF    FA6.7
07576:  BSF    FA6.2
07578:  MOVF   FF2,W
0757A:  MOVWF  00
0757C:  BCF    FF2.6
0757E:  BCF    FF2.7
07580:  MOVLB  F
07582:  MOVLW  55
07584:  MOVWF  FA7
07586:  MOVLW  AA
07588:  MOVWF  FA7
0758A:  BSF    FA6.1
0758C:  BTFSC  FA6.1
0758E:  BRA    758C
07590:  BCF    FA6.2
07592:  MOVF   00,W
07594:  IORWF  FF2,F
....................                   delay_ms(10); 
07596:  MOVLW  0A
07598:  MOVLB  4
0759A:  MOVWF  x04
0759C:  MOVLB  0
0759E:  CALL   179C
....................                   Testerilizacion[0]=Testerilizacionp[0]; 
075A2:  MOVFF  B5,B0
....................                   Testerilizacion[1]=Testerilizacionp[1]; 
075A6:  MOVFF  B6,B1
....................                   Testerilizacion[2]=Testerilizacionp[2]; 
075AA:  MOVFF  B7,B2
....................                   Testerilizacion[3]=Testerilizacionp[3];                   
075AE:  MOVFF  B8,B3
....................                   GuardaEEPROM=ON; 
075B2:  BSF    xA2.3
....................                } 
....................             } 
....................          } 
....................           
....................          if(RIGHT){ 
075B4:  BSF    F93.2
075B6:  BTFSC  F81.2
075B8:  BRA    762E
....................             delay_ms(100); 
075BA:  MOVLW  64
075BC:  MOVLB  4
075BE:  MOVWF  x04
075C0:  MOVLB  0
075C2:  CALL   179C
....................             if(RIGHT){ 
075C6:  BSF    F93.2
075C8:  BTFSC  F81.2
075CA:  BRA    762E
....................                if(!Segundos){ 
075CC:  BTFSC  xA2.2
075CE:  BRA    75FE
....................                   Segundos=ON; 
075D0:  BSF    xA2.2
....................                   Minutos=OFF; 
075D2:  BCF    xA2.1
....................                   printf("tsecest.pco=65535"); 
075D4:  MOVLW  84
075D6:  MOVWF  FF6
075D8:  MOVLW  09
075DA:  MOVWF  FF7
075DC:  MOVLW  00
075DE:  MOVWF  FF8
075E0:  CALL   3506
....................                   SendDataDisplay();   
075E4:  CALL   3538
....................                   printf("tminest.pco=0"); 
075E8:  MOVLW  96
075EA:  MOVWF  FF6
075EC:  MOVLW  09
075EE:  MOVWF  FF7
075F0:  MOVLW  00
075F2:  MOVWF  FF8
075F4:  CALL   3506
....................                   SendDataDisplay();   
075F8:  CALL   3538
....................                }else if(!Minutos){ 
075FC:  BRA    762E
075FE:  BTFSC  xA2.1
07600:  BRA    762E
....................                   Segundos=OFF; 
07602:  BCF    xA2.2
....................                   Minutos=ON; 
07604:  BSF    xA2.1
....................                   printf("tsecest.pco=0"); 
07606:  MOVLW  A4
07608:  MOVWF  FF6
0760A:  MOVLW  09
0760C:  MOVWF  FF7
0760E:  MOVLW  00
07610:  MOVWF  FF8
07612:  CALL   3506
....................                   SendDataDisplay();   
07616:  CALL   3538
....................                   printf("tminest.pco=65535"); 
0761A:  MOVLW  B2
0761C:  MOVWF  FF6
0761E:  MOVLW  09
07620:  MOVWF  FF7
07622:  MOVLW  00
07624:  MOVWF  FF8
07626:  CALL   3506
....................                   SendDataDisplay();   
0762A:  CALL   3538
....................                } 
....................             } 
....................          } 
....................           
....................          if(UP){ 
0762E:  BSF    F93.0
07630:  BTFSC  F81.0
07632:  BRA    767A
....................             delay_ms(100); 
07634:  MOVLW  64
07636:  MOVLB  4
07638:  MOVWF  x04
0763A:  MOVLB  0
0763C:  CALL   179C
....................             if(UP){ 
07640:  BSF    F93.0
07642:  BTFSC  F81.0
07644:  BRA    767A
....................                if(Segundos){ 
07646:  BTFSS  xA2.2
07648:  BRA    765A
....................                   Testerilizacionp[0]++; 
0764A:  INCF   xB5,F
....................                   if(Testerilizacionp[0]>9){ 
0764C:  BTFSC  xB5.7
0764E:  BRA    765A
07650:  MOVF   xB5,W
07652:  SUBLW  09
07654:  BC    765A
....................                      Testerilizacionp[1]++; 
07656:  INCF   xB6,F
....................                      Testerilizacionp[0]=0; 
07658:  CLRF   xB5
....................                   } 
....................                } 
....................                if(Minutos){ 
0765A:  BTFSS  xA2.1
0765C:  BRA    767A
....................                   Testerilizacionp[2]++; 
0765E:  INCF   xB7,F
....................                   if(Testerilizacionp[2]>9){ 
07660:  BTFSC  xB7.7
07662:  BRA    766E
07664:  MOVF   xB7,W
07666:  SUBLW  09
07668:  BC    766E
....................                      Testerilizacionp[3]++; 
0766A:  INCF   xB8,F
....................                      Testerilizacionp[2]=0; 
0766C:  CLRF   xB7
....................                   } 
....................                   if(Testerilizacionp[3]>9){                      
0766E:  BTFSC  xB8.7
07670:  BRA    767A
07672:  MOVF   xB8,W
07674:  SUBLW  09
07676:  BC    767A
....................                      Testerilizacionp[3]=0; 
07678:  CLRF   xB8
....................                   } 
....................                }     
....................             } 
....................          } 
....................           
....................          if(DOWN){ 
0767A:  BSF    F93.1
0767C:  BTFSC  F81.1
0767E:  BRA    76C0
....................             delay_ms(100); 
07680:  MOVLW  64
07682:  MOVLB  4
07684:  MOVWF  x04
07686:  MOVLB  0
07688:  CALL   179C
....................             if(DOWN){ 
0768C:  BSF    F93.1
0768E:  BTFSC  F81.1
07690:  BRA    76C0
....................                if(Segundos){ 
07692:  BTFSS  xA2.2
07694:  BRA    76A4
....................                   Testerilizacionp[0]--; 
07696:  DECF   xB5,F
....................                   if(Testerilizacionp[0]<0){ 
07698:  BTFSC  xB5.7
0769A:  BRA    769E
0769C:  BRA    76A4
....................                      Testerilizacionp[1]--; 
0769E:  DECF   xB6,F
....................                      Testerilizacionp[0]=9; 
076A0:  MOVLW  09
076A2:  MOVWF  xB5
....................                   } 
....................                } 
....................                if(Minutos){ 
076A4:  BTFSS  xA2.1
076A6:  BRA    76C0
....................                   Testerilizacionp[2]--; 
076A8:  DECF   xB7,F
....................                   if(Testerilizacionp[2]<0){ 
076AA:  BTFSC  xB7.7
076AC:  BRA    76B0
076AE:  BRA    76B6
....................                      Testerilizacionp[3]--; 
076B0:  DECF   xB8,F
....................                      Testerilizacionp[2]=9; 
076B2:  MOVLW  09
076B4:  MOVWF  xB7
....................                   } 
....................                   if(Testerilizacionp[3]<0){ 
076B6:  BTFSC  xB8.7
076B8:  BRA    76BC
076BA:  BRA    76C0
....................                      Testerilizacionp[3]=9; 
076BC:  MOVLW  09
076BE:  MOVWF  xB8
....................                   } 
....................                }     
....................             } 
....................          } 
....................           
....................          if(RX_Buffer[4]==0x0c || RX_Buffer[4]==0x0d){//Tecla Derecha Oprimida 
076C0:  MOVF   34,W
076C2:  SUBLW  0C
076C4:  BZ    76CC
076C6:  MOVF   34,W
076C8:  SUBLW  0D
076CA:  BNZ   7704
....................             if(Segundos){ 
076CC:  BTFSS  xA2.2
076CE:  BRA    76E0
....................                Testerilizacionp[0]++; 
076D0:  INCF   xB5,F
....................                if(Testerilizacionp[0]>9){ 
076D2:  BTFSC  xB5.7
076D4:  BRA    76E0
076D6:  MOVF   xB5,W
076D8:  SUBLW  09
076DA:  BC    76E0
....................                   Testerilizacionp[1]++; 
076DC:  INCF   xB6,F
....................                   Testerilizacionp[0]=0; 
076DE:  CLRF   xB5
....................                } 
....................             } 
....................             if(Minutos){ 
076E0:  BTFSS  xA2.1
076E2:  BRA    7700
....................                Testerilizacionp[2]++; 
076E4:  INCF   xB7,F
....................                if(Testerilizacionp[2]>9){ 
076E6:  BTFSC  xB7.7
076E8:  BRA    76F4
076EA:  MOVF   xB7,W
076EC:  SUBLW  09
076EE:  BC    76F4
....................                   Testerilizacionp[3]++; 
076F0:  INCF   xB8,F
....................                   Testerilizacionp[2]=0; 
076F2:  CLRF   xB7
....................                } 
....................                if(Testerilizacionp[3]>9){                   
076F4:  BTFSC  xB8.7
076F6:  BRA    7700
076F8:  MOVF   xB8,W
076FA:  SUBLW  09
076FC:  BC    7700
....................                   Testerilizacionp[3]=0; 
076FE:  CLRF   xB8
....................                } 
....................             } 
....................             RX_Buffer[4]=0x00;   
07700:  CLRF   34
....................             RX_Buffer2[4]=0x00; 
07702:  CLRF   3F
....................          } 
....................           
....................          if(RX_Buffer[4]==0x0f || RX_Buffer[4]==0x0e){//Tecla Izquierda Oprimida 
07704:  MOVF   34,W
07706:  SUBLW  0F
07708:  BZ    7710
0770A:  MOVF   34,W
0770C:  SUBLW  0E
0770E:  BNZ   7742
....................              
....................             if(Segundos){ 
07710:  BTFSS  xA2.2
07712:  BRA    7722
....................                Testerilizacionp[0]--; 
07714:  DECF   xB5,F
....................                if(Testerilizacionp[0]<0){ 
07716:  BTFSC  xB5.7
07718:  BRA    771C
0771A:  BRA    7722
....................                   Testerilizacionp[1]--; 
0771C:  DECF   xB6,F
....................                   Testerilizacionp[0]=9; 
0771E:  MOVLW  09
07720:  MOVWF  xB5
....................                } 
....................             } 
....................             if(Minutos){ 
07722:  BTFSS  xA2.1
07724:  BRA    773E
....................                Testerilizacionp[2]--; 
07726:  DECF   xB7,F
....................                if(Testerilizacionp[2]<0){ 
07728:  BTFSC  xB7.7
0772A:  BRA    772E
0772C:  BRA    7734
....................                   Testerilizacionp[3]--; 
0772E:  DECF   xB8,F
....................                   Testerilizacionp[2]=9; 
07730:  MOVLW  09
07732:  MOVWF  xB7
....................                } 
....................                if(Testerilizacionp[3]<0){ 
07734:  BTFSC  xB8.7
07736:  BRA    773A
07738:  BRA    773E
....................                   Testerilizacionp[3]=9; 
0773A:  MOVLW  09
0773C:  MOVWF  xB8
....................                } 
....................             } 
....................             RX_Buffer[4]=0x00;   
0773E:  CLRF   34
....................             RX_Buffer2[4]=0x00; 
07740:  CLRF   3F
....................          } 
....................           
....................          if(Testerilizacionp[0]<0) 
07742:  BTFSC  xB5.7
07744:  BRA    7748
07746:  BRA    774C
....................             Testerilizacionp[0]=9;             
07748:  MOVLW  09
0774A:  MOVWF  xB5
....................          if(Testerilizacionp[1]<0) 
0774C:  BTFSC  xB6.7
0774E:  BRA    7752
07750:  BRA    7756
....................             Testerilizacionp[1]=5;             
07752:  MOVLW  05
07754:  MOVWF  xB6
....................          if(Testerilizacionp[2]<0) 
07756:  BTFSC  xB7.7
07758:  BRA    775C
0775A:  BRA    7760
....................             Testerilizacionp[2]=9;             
0775C:  MOVLW  09
0775E:  MOVWF  xB7
....................          if(Testerilizacionp[3]<0) 
07760:  BTFSC  xB8.7
07762:  BRA    7766
07764:  BRA    776A
....................             Testerilizacionp[3]=9;             
07766:  MOVLW  09
07768:  MOVWF  xB8
....................           
....................          if(Testerilizacionp[0]>9) 
0776A:  BTFSC  xB5.7
0776C:  BRA    7776
0776E:  MOVF   xB5,W
07770:  SUBLW  09
07772:  BC    7776
....................             Testerilizacionp[0]=0;             
07774:  CLRF   xB5
....................          if(Testerilizacionp[1]>5) 
07776:  BTFSC  xB6.7
07778:  BRA    7782
0777A:  MOVF   xB6,W
0777C:  SUBLW  05
0777E:  BC    7782
....................             Testerilizacionp[1]=0;             
07780:  CLRF   xB6
....................          if(Testerilizacionp[2]>9) 
07782:  BTFSC  xB7.7
07784:  BRA    778E
07786:  MOVF   xB7,W
07788:  SUBLW  09
0778A:  BC    778E
....................             Testerilizacionp[2]=0;             
0778C:  CLRF   xB7
....................          if(Testerilizacionp[3]>9) 
0778E:  BTFSC  xB8.7
07790:  BRA    779A
07792:  MOVF   xB8,W
07794:  SUBLW  09
07796:  BC    779A
....................             Testerilizacionp[3]=0;  
07798:  CLRF   xB8
....................              
....................          printf("tminest.txt=\"%02u\"",((Testerilizacionp[3]*10)+Testerilizacionp[2])); 
0779A:  MOVFF  B8,3F1
0779E:  MOVLW  0A
077A0:  MOVLB  3
077A2:  MOVWF  xF2
077A4:  MOVLB  0
077A6:  CALL   2A9A
077AA:  MOVF   xB7,W
077AC:  ADDWF  01,W
077AE:  MOVLB  3
077B0:  MOVWF  xEF
077B2:  MOVLW  C4
077B4:  MOVWF  FF6
077B6:  MOVLW  09
077B8:  MOVWF  FF7
077BA:  MOVLW  00
077BC:  MOVWF  FF8
077BE:  MOVLW  0D
077C0:  MOVWF  xF3
077C2:  MOVLB  0
077C4:  CALL   4276
077C8:  MOVFF  3EF,3F1
077CC:  MOVLW  01
077CE:  MOVLB  3
077D0:  MOVWF  xF2
077D2:  MOVLB  0
077D4:  CALL   42D4
077D8:  MOVLW  22
077DA:  BTFSS  F9E.4
077DC:  BRA    77DA
077DE:  MOVWF  FAD
....................          SendDataDisplay(); 
077E0:  CALL   3538
....................          printf("tsecest.txt=\"%02u\"",((Testerilizacionp[1]*10)+Testerilizacionp[0])); 
077E4:  MOVFF  B6,3F1
077E8:  MOVLW  0A
077EA:  MOVLB  3
077EC:  MOVWF  xF2
077EE:  MOVLB  0
077F0:  CALL   2A9A
077F4:  MOVF   xB5,W
077F6:  ADDWF  01,W
077F8:  MOVLB  3
077FA:  MOVWF  xEF
077FC:  MOVLW  D8
077FE:  MOVWF  FF6
07800:  MOVLW  09
07802:  MOVWF  FF7
07804:  MOVLW  00
07806:  MOVWF  FF8
07808:  MOVLW  0D
0780A:  MOVWF  xF3
0780C:  MOVLB  0
0780E:  CALL   4276
07812:  MOVFF  3EF,3F1
07816:  MOVLW  01
07818:  MOVLB  3
0781A:  MOVWF  xF2
0781C:  MOVLB  0
0781E:  CALL   42D4
07822:  MOVLW  22
07824:  BTFSS  F9E.4
07826:  BRA    7824
07828:  MOVWF  FAD
....................          SendDataDisplay(); 
0782A:  CALL   3538
0782E:  MOVLB  3
....................     } 
.................... //_--------------------------------------------------------------------------------------------------------------------------------------------------------        
....................  
.................... //_-------------------------------------------------------------------------------------------------------------------------------------------------------- 
....................     if(Menu==3){ //Menu de Tiempo de Secado 
07830:  MOVF   x5B,W
07832:  SUBLW  03
07834:  BTFSS  FD8.2
07836:  BRA    7D26
....................       printf("fecha.txt=\"T:%3.1fC Fecha:%02u/%02u/20%02u Hora: %02u:%02u:%02u\"",Temperatura,Dia,Mes,Year,Hora,Minuto,Segundo); 
07838:  MOVLW  EC
0783A:  MOVWF  FF6
0783C:  MOVLW  09
0783E:  MOVWF  FF7
07840:  MOVLW  00
07842:  MOVWF  FF8
07844:  MOVLW  0D
07846:  MOVWF  xF3
07848:  MOVLB  0
0784A:  CALL   4276
0784E:  MOVLW  02
07850:  MOVWF  FE9
07852:  MOVFF  324,3F6
07856:  MOVFF  323,3F5
0785A:  MOVFF  322,3F4
0785E:  MOVFF  321,3F3
07862:  MOVLW  01
07864:  MOVLB  3
07866:  MOVWF  xF7
07868:  MOVLB  0
0786A:  CALL   4416
0786E:  MOVLW  FE
07870:  MOVWF  FF6
07872:  MOVLW  09
07874:  MOVWF  FF7
07876:  MOVLW  00
07878:  MOVWF  FF8
0787A:  MOVLW  09
0787C:  MOVLB  3
0787E:  MOVWF  xF3
07880:  MOVLB  0
07882:  CALL   4276
07886:  MOVFF  397,3F1
0788A:  MOVLW  01
0788C:  MOVLB  3
0788E:  MOVWF  xF2
07890:  MOVLB  0
07892:  CALL   42D4
07896:  MOVLW  2F
07898:  BTFSS  F9E.4
0789A:  BRA    7898
0789C:  MOVWF  FAD
0789E:  MOVFF  396,3F1
078A2:  MOVLW  01
078A4:  MOVLB  3
078A6:  MOVWF  xF2
078A8:  MOVLB  0
078AA:  CALL   42D4
078AE:  MOVLW  2F
078B0:  BTFSS  F9E.4
078B2:  BRA    78B0
078B4:  MOVWF  FAD
078B6:  MOVLW  32
078B8:  BTFSS  F9E.4
078BA:  BRA    78B8
078BC:  MOVWF  FAD
078BE:  MOVLW  30
078C0:  BTFSS  F9E.4
078C2:  BRA    78C0
078C4:  MOVWF  FAD
078C6:  MOVFF  395,3F1
078CA:  MOVLW  01
078CC:  MOVLB  3
078CE:  MOVWF  xF2
078D0:  MOVLB  0
078D2:  CALL   42D4
078D6:  MOVLW  17
078D8:  MOVWF  FF6
078DA:  MOVLW  0A
078DC:  MOVWF  FF7
078DE:  MOVLW  00
078E0:  MOVWF  FF8
078E2:  MOVLW  07
078E4:  MOVLB  3
078E6:  MOVWF  xF3
078E8:  MOVLB  0
078EA:  CALL   4276
078EE:  MOVFF  398,3F1
078F2:  MOVLW  01
078F4:  MOVLB  3
078F6:  MOVWF  xF2
078F8:  MOVLB  0
078FA:  CALL   42D4
078FE:  MOVLW  3A
07900:  BTFSS  F9E.4
07902:  BRA    7900
07904:  MOVWF  FAD
07906:  MOVFF  399,3F1
0790A:  MOVLW  01
0790C:  MOVLB  3
0790E:  MOVWF  xF2
07910:  MOVLB  0
07912:  CALL   42D4
07916:  MOVLW  3A
07918:  BTFSS  F9E.4
0791A:  BRA    7918
0791C:  MOVWF  FAD
0791E:  MOVFF  39A,3F1
07922:  MOVLW  01
07924:  MOVLB  3
07926:  MOVWF  xF2
07928:  MOVLB  0
0792A:  CALL   42D4
0792E:  MOVLW  22
07930:  BTFSS  F9E.4
07932:  BRA    7930
07934:  MOVWF  FAD
....................       SendDataDisplay();             
07936:  CALL   3538
....................              
....................          if(RX_Buffer[4]==0x0a){//Selecciono Minutos 
0793A:  MOVF   34,W
0793C:  SUBLW  0A
0793E:  BNZ   7944
....................             Minutos=ON; 
07940:  BSF    xA2.1
....................             Segundos=OFF; 
07942:  BCF    xA2.2
....................          } 
....................           
....................          if(RX_Buffer[4]==0x0b){//Selecciono Segundos 
07944:  MOVF   34,W
07946:  SUBLW  0B
07948:  BNZ   794E
....................             Segundos=ON; 
0794A:  BSF    xA2.2
....................             Minutos=OFF; 
0794C:  BCF    xA2.1
....................          } 
....................           
....................          if(RX_Buffer[4]==0x11 || LEFT){//Selecciono Regresar 
0794E:  MOVF   34,W
07950:  SUBLW  11
07952:  BZ    795A
07954:  BSF    F93.3
07956:  BTFSC  F81.3
07958:  BRA    7ABC
....................             Segundos=OFF; 
0795A:  BCF    xA2.2
....................             Minutos=OFF; 
0795C:  BCF    xA2.1
....................             printf("page CicloPersona"); 
0795E:  MOVLW  2E
07960:  MOVWF  FF6
07962:  MOVLW  0A
07964:  MOVWF  FF7
07966:  MOVLW  00
07968:  MOVWF  FF8
0796A:  CALL   3506
....................             SendDataDisplay();   
0796E:  CALL   3538
....................             //PantallaPrincipal=1; 
....................             Op=OFF; 
07972:  BCF    xA1.7
....................             Op2=OFF; 
07974:  BCF    xA2.0
....................             if(!GuardaEEPROM){ 
07976:  BTFSC  xA2.3
07978:  BRA    7ABC
....................                CiclosPersonalizados[CicloLibre-1].Minutosec=Tsecadop[2]+(Tsecadop[3]*10); 
0797A:  MOVLW  01
0797C:  MOVLB  3
0797E:  SUBWF  x37,W
07980:  MULLW  0A
07982:  MOVF   FF3,W
07984:  CLRF   xF0
07986:  MOVWF  xEF
07988:  MOVLW  04
0798A:  ADDWF  xEF,W
0798C:  MOVWF  01
0798E:  MOVLW  00
07990:  ADDWFC xF0,W
07992:  MOVWF  03
07994:  MOVF   01,W
07996:  ADDLW  C7
07998:  MOVWF  FE9
0799A:  MOVLW  03
0799C:  ADDWFC 03,W
0799E:  MOVWF  FEA
079A0:  MOVFF  C1,3F1
079A4:  MOVLW  0A
079A6:  MOVWF  xF2
079A8:  MOVLB  0
079AA:  CALL   2A9A
079AE:  MOVF   01,W
079B0:  ADDWF  xC0,W
079B2:  MOVWF  FEF
....................                CiclosPersonalizados[CicloLibre-1].Segundosec=Tsecadop[0]+(Tsecadop[1]*10); 
079B4:  MOVLW  01
079B6:  MOVLB  3
079B8:  SUBWF  x37,W
079BA:  MULLW  0A
079BC:  MOVF   FF3,W
079BE:  CLRF   xF0
079C0:  MOVWF  xEF
079C2:  MOVLW  05
079C4:  ADDWF  xEF,W
079C6:  MOVWF  01
079C8:  MOVLW  00
079CA:  ADDWFC xF0,W
079CC:  MOVWF  03
079CE:  MOVF   01,W
079D0:  ADDLW  C7
079D2:  MOVWF  FE9
079D4:  MOVLW  03
079D6:  ADDWFC 03,W
079D8:  MOVWF  FEA
079DA:  MOVFF  BF,3F1
079DE:  MOVLW  0A
079E0:  MOVWF  xF2
079E2:  MOVLB  0
079E4:  CALL   2A9A
079E8:  MOVF   01,W
079EA:  ADDWF  xBE,W
079EC:  MOVWF  FEF
....................                write_eeprom(104+((CicloLibre-1)*8),Tsecadop[2]+(Tsecadop[3]*10)); 
079EE:  MOVLW  01
079F0:  MOVLB  3
079F2:  SUBWF  x37,W
079F4:  MULLW  08
079F6:  MOVF   FF3,W
079F8:  ADDLW  68
079FA:  MOVWF  xEF
079FC:  MOVFF  C1,3F1
07A00:  MOVLW  0A
07A02:  MOVWF  xF2
07A04:  MOVLB  0
07A06:  CALL   2A9A
07A0A:  MOVF   01,W
07A0C:  ADDWF  xC0,W
07A0E:  MOVLB  3
07A10:  MOVWF  xF0
07A12:  CLRF   FAA
07A14:  MOVFF  3EF,FA9
07A18:  MOVFF  3F0,FA8
07A1C:  BCF    FA6.6
07A1E:  BCF    FA6.7
07A20:  BSF    FA6.2
07A22:  MOVF   FF2,W
07A24:  MOVWF  00
07A26:  BCF    FF2.6
07A28:  BCF    FF2.7
07A2A:  MOVLB  F
07A2C:  MOVLW  55
07A2E:  MOVWF  FA7
07A30:  MOVLW  AA
07A32:  MOVWF  FA7
07A34:  BSF    FA6.1
07A36:  BTFSC  FA6.1
07A38:  BRA    7A36
07A3A:  BCF    FA6.2
07A3C:  MOVF   00,W
07A3E:  IORWF  FF2,F
....................                delay_ms(10); 
07A40:  MOVLW  0A
07A42:  MOVLB  4
07A44:  MOVWF  x04
07A46:  MOVLB  0
07A48:  CALL   179C
....................                write_eeprom(105+((CicloLibre-1)*8),Tsecadop[0]+(Tsecadop[1]*10)); 
07A4C:  MOVLW  01
07A4E:  MOVLB  3
07A50:  SUBWF  x37,W
07A52:  MULLW  08
07A54:  MOVF   FF3,W
07A56:  ADDLW  69
07A58:  MOVWF  xEF
07A5A:  MOVFF  BF,3F1
07A5E:  MOVLW  0A
07A60:  MOVWF  xF2
07A62:  MOVLB  0
07A64:  CALL   2A9A
07A68:  MOVF   01,W
07A6A:  ADDWF  xBE,W
07A6C:  MOVLB  3
07A6E:  MOVWF  xF0
07A70:  CLRF   FAA
07A72:  MOVFF  3EF,FA9
07A76:  MOVFF  3F0,FA8
07A7A:  BCF    FA6.6
07A7C:  BCF    FA6.7
07A7E:  BSF    FA6.2
07A80:  MOVF   FF2,W
07A82:  MOVWF  00
07A84:  BCF    FF2.6
07A86:  BCF    FF2.7
07A88:  MOVLB  F
07A8A:  MOVLW  55
07A8C:  MOVWF  FA7
07A8E:  MOVLW  AA
07A90:  MOVWF  FA7
07A92:  BSF    FA6.1
07A94:  BTFSC  FA6.1
07A96:  BRA    7A94
07A98:  BCF    FA6.2
07A9A:  MOVF   00,W
07A9C:  IORWF  FF2,F
....................                delay_ms(10); 
07A9E:  MOVLW  0A
07AA0:  MOVLB  4
07AA2:  MOVWF  x04
07AA4:  MOVLB  0
07AA6:  CALL   179C
....................                Tsecado[0]=Tsecadop[0]; 
07AAA:  MOVFF  BE,BA
....................                Tsecado[1]=Tsecadop[1]; 
07AAE:  MOVFF  BF,BB
....................                Tsecado[2]=Tsecadop[2]; 
07AB2:  MOVFF  C0,BC
....................                Tsecado[3]=Tsecadop[3]; 
07AB6:  MOVFF  C1,BD
....................                GuardaEEPROM=ON; 
07ABA:  BSF    xA2.3
....................             } 
....................          } 
....................           
....................          if(RIGHT){ 
07ABC:  BSF    F93.2
07ABE:  BTFSC  F81.2
07AC0:  BRA    7B36
....................             delay_ms(100); 
07AC2:  MOVLW  64
07AC4:  MOVLB  4
07AC6:  MOVWF  x04
07AC8:  MOVLB  0
07ACA:  CALL   179C
....................             if(RIGHT){ 
07ACE:  BSF    F93.2
07AD0:  BTFSC  F81.2
07AD2:  BRA    7B36
....................                if(!Segundos){ 
07AD4:  BTFSC  xA2.2
07AD6:  BRA    7B06
....................                   Segundos=ON; 
07AD8:  BSF    xA2.2
....................                   Minutos=OFF; 
07ADA:  BCF    xA2.1
....................                   printf("tminsec.pco=0"); 
07ADC:  MOVLW  40
07ADE:  MOVWF  FF6
07AE0:  MOVLW  0A
07AE2:  MOVWF  FF7
07AE4:  MOVLW  00
07AE6:  MOVWF  FF8
07AE8:  CALL   3506
....................                   SendDataDisplay();                    
07AEC:  CALL   3538
....................                   printf("tsecsec.pco=65535"); 
07AF0:  MOVLW  4E
07AF2:  MOVWF  FF6
07AF4:  MOVLW  0A
07AF6:  MOVWF  FF7
07AF8:  MOVLW  00
07AFA:  MOVWF  FF8
07AFC:  CALL   3506
....................                   SendDataDisplay();   
07B00:  CALL   3538
....................                }else if(!Minutos){ 
07B04:  BRA    7B36
07B06:  BTFSC  xA2.1
07B08:  BRA    7B36
....................                   Segundos=OFF; 
07B0A:  BCF    xA2.2
....................                   Minutos=ON; 
07B0C:  BSF    xA2.1
....................                   printf("tminsec.pco=65535"); 
07B0E:  MOVLW  60
07B10:  MOVWF  FF6
07B12:  MOVLW  0A
07B14:  MOVWF  FF7
07B16:  MOVLW  00
07B18:  MOVWF  FF8
07B1A:  CALL   3506
....................                   SendDataDisplay();   
07B1E:  CALL   3538
....................                   printf("tsecsec.pco=0"); 
07B22:  MOVLW  72
07B24:  MOVWF  FF6
07B26:  MOVLW  0A
07B28:  MOVWF  FF7
07B2A:  MOVLW  00
07B2C:  MOVWF  FF8
07B2E:  CALL   3506
....................                   SendDataDisplay();   
07B32:  CALL   3538
....................                } 
....................             } 
....................          } 
....................           
....................          if(UP){ 
07B36:  BSF    F93.0
07B38:  BTFSC  F81.0
07B3A:  BRA    7B76
....................             delay_ms(100); 
07B3C:  MOVLW  64
07B3E:  MOVLB  4
07B40:  MOVWF  x04
07B42:  MOVLB  0
07B44:  CALL   179C
....................             if(UP){ 
07B48:  BSF    F93.0
07B4A:  BTFSC  F81.0
07B4C:  BRA    7B76
....................                if(Segundos){ 
07B4E:  BTFSS  xA2.2
07B50:  BRA    7B62
....................                   Tsecadop[0]++; 
07B52:  INCF   xBE,F
....................                   if(Tsecadop[0]>9){ 
07B54:  BTFSC  xBE.7
07B56:  BRA    7B62
07B58:  MOVF   xBE,W
07B5A:  SUBLW  09
07B5C:  BC    7B62
....................                      Tsecadop[1]++; 
07B5E:  INCF   xBF,F
....................                      Tsecadop[0]=0; 
07B60:  CLRF   xBE
....................                   } 
....................                } 
....................                if(Minutos){ 
07B62:  BTFSS  xA2.1
07B64:  BRA    7B76
....................                   Tsecado[2]++; 
07B66:  INCF   xBC,F
....................                   if(Tsecadop[2]>9){ 
07B68:  BTFSC  xC0.7
07B6A:  BRA    7B76
07B6C:  MOVF   xC0,W
07B6E:  SUBLW  09
07B70:  BC    7B76
....................                      Tsecadop[3]++; 
07B72:  INCF   xC1,F
....................                      Tsecadop[2]=0; 
07B74:  CLRF   xC0
....................                   } 
....................                }   
....................             } 
....................          } 
....................           
....................          if(DOWN){ 
07B76:  BSF    F93.1
07B78:  BTFSC  F81.1
07B7A:  BRA    7BBE
....................             delay_ms(100); 
07B7C:  MOVLW  64
07B7E:  MOVLB  4
07B80:  MOVWF  x04
07B82:  MOVLB  0
07B84:  CALL   179C
....................             if(DOWN){ 
07B88:  BSF    F93.1
07B8A:  BTFSC  F81.1
07B8C:  BRA    7BBE
....................                if(Segundos){ 
07B8E:  BTFSS  xA2.2
07B90:  BRA    7BAC
....................                   Tsecadop[0]--; 
07B92:  DECF   xBE,F
....................                   if(Tsecadop[0]<0){ 
07B94:  BTFSS  xBE.7
07B96:  BRA    7B9E
....................                      Tsecadop[1]--; 
07B98:  DECF   xBF,F
....................                      Tsecadop[0]=9; 
07B9A:  MOVLW  09
07B9C:  MOVWF  xBE
....................                   } 
....................                   if(Tsecadop[1]<0){ 
07B9E:  BTFSC  xBF.7
07BA0:  BRA    7BA4
07BA2:  BRA    7BAC
....................                      Tsecadop[1]=5; 
07BA4:  MOVLW  05
07BA6:  MOVWF  xBF
....................                      Tsecadop[0]=9; 
07BA8:  MOVLW  09
07BAA:  MOVWF  xBE
....................                   } 
....................                } 
....................                if(Minutos){ 
07BAC:  BTFSS  xA2.1
07BAE:  BRA    7BBE
....................                   Tsecadop[2]--; 
07BB0:  DECF   xC0,F
....................                   if(Tsecadop[2]<0){ 
07BB2:  BTFSC  xC0.7
07BB4:  BRA    7BB8
07BB6:  BRA    7BBE
....................                      Tsecadop[3]--; 
07BB8:  DECF   xC1,F
....................                      Tsecadop[2]=9; 
07BBA:  MOVLW  09
07BBC:  MOVWF  xC0
....................                   } 
....................                }   
....................             } 
....................          } 
....................           
....................          if(RX_Buffer[4]==0x0c || RX_Buffer[4]==0x0d){//Tecla Derecha Oprimida 
07BBE:  MOVF   34,W
07BC0:  SUBLW  0C
07BC2:  BZ    7BCA
07BC4:  MOVF   34,W
07BC6:  SUBLW  0D
07BC8:  BNZ   7BF6
....................             if(Segundos){ 
07BCA:  BTFSS  xA2.2
07BCC:  BRA    7BDE
....................                Tsecadop[0]++; 
07BCE:  INCF   xBE,F
....................                if(Tsecadop[0]>9){ 
07BD0:  BTFSC  xBE.7
07BD2:  BRA    7BDE
07BD4:  MOVF   xBE,W
07BD6:  SUBLW  09
07BD8:  BC    7BDE
....................                   Tsecadop[1]++; 
07BDA:  INCF   xBF,F
....................                   Tsecadop[0]=0; 
07BDC:  CLRF   xBE
....................                } 
....................             } 
....................             if(Minutos){ 
07BDE:  BTFSS  xA2.1
07BE0:  BRA    7BF2
....................                Tsecadop[2]++; 
07BE2:  INCF   xC0,F
....................                if(Tsecadop[2]>9){ 
07BE4:  BTFSC  xC0.7
07BE6:  BRA    7BF2
07BE8:  MOVF   xC0,W
07BEA:  SUBLW  09
07BEC:  BC    7BF2
....................                   Tsecadop[3]++; 
07BEE:  INCF   xC1,F
....................                   Tsecadop[2]=0; 
07BF0:  CLRF   xC0
....................                } 
....................             } 
....................             RX_Buffer[4]=0x00;   
07BF2:  CLRF   34
....................             RX_Buffer2[4]=0x00;  
07BF4:  CLRF   3F
....................          } 
....................           
....................          if(RX_Buffer[4]==0x0f || RX_Buffer[4]==0x0e){//Tecla Izquierda Oprimida 
07BF6:  MOVF   34,W
07BF8:  SUBLW  0F
07BFA:  BZ    7C02
07BFC:  MOVF   34,W
07BFE:  SUBLW  0E
07C00:  BNZ   7C38
....................             if(Segundos){ 
07C02:  BTFSS  xA2.2
07C04:  BRA    7C22
....................                Tsecadop[0]--; 
07C06:  DECF   xBE,F
....................                if(Tsecadop[0]<0){ 
07C08:  BTFSC  xBE.7
07C0A:  BRA    7C0E
07C0C:  BRA    7C14
....................                   Tsecadop[1]--; 
07C0E:  DECF   xBF,F
....................                   Tsecadop[0]=9; 
07C10:  MOVLW  09
07C12:  MOVWF  xBE
....................                } 
....................                if(Tsecadop[1]<0){ 
07C14:  BTFSC  xBF.7
07C16:  BRA    7C1A
07C18:  BRA    7C22
....................                   Tsecadop[1]=5; 
07C1A:  MOVLW  05
07C1C:  MOVWF  xBF
....................                   Tsecadop[0]=9; 
07C1E:  MOVLW  09
07C20:  MOVWF  xBE
....................                } 
....................             } 
....................             if(Minutos){ 
07C22:  BTFSS  xA2.1
07C24:  BRA    7C34
....................                Tsecadop[2]--; 
07C26:  DECF   xC0,F
....................                if(Tsecadop[2]<0){ 
07C28:  BTFSC  xC0.7
07C2A:  BRA    7C2E
07C2C:  BRA    7C34
....................                   Tsecadop[3]--; 
07C2E:  DECF   xC1,F
....................                   Tsecadop[2]=9; 
07C30:  MOVLW  09
07C32:  MOVWF  xC0
....................                } 
....................             } 
....................             RX_Buffer[4]=0x00;   
07C34:  CLRF   34
....................             RX_Buffer2[4]=0x00;             
07C36:  CLRF   3F
....................          } 
....................        
....................          if(Tsecadop[0]<0) 
07C38:  BTFSC  xBE.7
07C3A:  BRA    7C3E
07C3C:  BRA    7C42
....................             Tsecadop[0]=9;             
07C3E:  MOVLW  09
07C40:  MOVWF  xBE
....................          if(Tsecadop[1]<0) 
07C42:  BTFSC  xBF.7
07C44:  BRA    7C48
07C46:  BRA    7C4C
....................             Tsecadop[1]=5;             
07C48:  MOVLW  05
07C4A:  MOVWF  xBF
....................          if(Tsecadop[2]<0) 
07C4C:  BTFSC  xC0.7
07C4E:  BRA    7C52
07C50:  BRA    7C56
....................             Tsecadop[2]=9;             
07C52:  MOVLW  09
07C54:  MOVWF  xC0
....................          if(Tsecadop[3]<0) 
07C56:  BTFSC  xC1.7
07C58:  BRA    7C5C
07C5A:  BRA    7C60
....................             Tsecadop[3]=9;             
07C5C:  MOVLW  09
07C5E:  MOVWF  xC1
....................           
....................          if(Tsecadop[0]>9) 
07C60:  BTFSC  xBE.7
07C62:  BRA    7C6C
07C64:  MOVF   xBE,W
07C66:  SUBLW  09
07C68:  BC    7C6C
....................             Tsecadop[0]=0;             
07C6A:  CLRF   xBE
....................          if(Tsecadop[1]>5) 
07C6C:  BTFSC  xBF.7
07C6E:  BRA    7C78
07C70:  MOVF   xBF,W
07C72:  SUBLW  05
07C74:  BC    7C78
....................             Tsecadop[1]=0;             
07C76:  CLRF   xBF
....................          if(Tsecadop[2]>9) 
07C78:  BTFSC  xC0.7
07C7A:  BRA    7C84
07C7C:  MOVF   xC0,W
07C7E:  SUBLW  09
07C80:  BC    7C84
....................             Tsecadop[2]=0;             
07C82:  CLRF   xC0
....................          if(Tsecadop[3]>9) 
07C84:  BTFSC  xC1.7
07C86:  BRA    7C90
07C88:  MOVF   xC1,W
07C8A:  SUBLW  09
07C8C:  BC    7C90
....................             Tsecadop[3]=0; 
07C8E:  CLRF   xC1
....................              
....................       printf("tminsec.txt=\"%02u\"",((Tsecadop[3]*10)+Tsecadop[2])); 
07C90:  MOVFF  C1,3F1
07C94:  MOVLW  0A
07C96:  MOVLB  3
07C98:  MOVWF  xF2
07C9A:  MOVLB  0
07C9C:  CALL   2A9A
07CA0:  MOVF   xC0,W
07CA2:  ADDWF  01,W
07CA4:  MOVLB  3
07CA6:  MOVWF  xEF
07CA8:  MOVLW  80
07CAA:  MOVWF  FF6
07CAC:  MOVLW  0A
07CAE:  MOVWF  FF7
07CB0:  MOVLW  00
07CB2:  MOVWF  FF8
07CB4:  MOVLW  0D
07CB6:  MOVWF  xF3
07CB8:  MOVLB  0
07CBA:  CALL   4276
07CBE:  MOVFF  3EF,3F1
07CC2:  MOVLW  01
07CC4:  MOVLB  3
07CC6:  MOVWF  xF2
07CC8:  MOVLB  0
07CCA:  CALL   42D4
07CCE:  MOVLW  22
07CD0:  BTFSS  F9E.4
07CD2:  BRA    7CD0
07CD4:  MOVWF  FAD
....................       SendDataDisplay(); 
07CD6:  CALL   3538
....................       printf("tsecsec.txt=\"%02u\"",((Tsecadop[1]*10)+Tsecadop[0])); 
07CDA:  MOVFF  BF,3F1
07CDE:  MOVLW  0A
07CE0:  MOVLB  3
07CE2:  MOVWF  xF2
07CE4:  MOVLB  0
07CE6:  CALL   2A9A
07CEA:  MOVF   xBE,W
07CEC:  ADDWF  01,W
07CEE:  MOVLB  3
07CF0:  MOVWF  xEF
07CF2:  MOVLW  94
07CF4:  MOVWF  FF6
07CF6:  MOVLW  0A
07CF8:  MOVWF  FF7
07CFA:  MOVLW  00
07CFC:  MOVWF  FF8
07CFE:  MOVLW  0D
07D00:  MOVWF  xF3
07D02:  MOVLB  0
07D04:  CALL   4276
07D08:  MOVFF  3EF,3F1
07D0C:  MOVLW  01
07D0E:  MOVLB  3
07D10:  MOVWF  xF2
07D12:  MOVLB  0
07D14:  CALL   42D4
07D18:  MOVLW  22
07D1A:  BTFSS  F9E.4
07D1C:  BRA    7D1A
07D1E:  MOVWF  FAD
....................       SendDataDisplay(); 
07D20:  CALL   3538
07D24:  MOVLB  3
....................     } 
.................... //_--------------------------------------------------------------------------------------------------------------------------------------------------------        
....................  
.................... //_-------------------------------------------------------------------------------------------------------------------------------------------------------- 
....................     if(Menu==4){ //Menu de Temperatura 
07D26:  MOVF   x5B,W
07D28:  SUBLW  04
07D2A:  BTFSS  FD8.2
07D2C:  BRA    7F76
....................       printf("fecha.txt=\"T:%3.1fC Fecha:%02u/%02u/20%02u Hora: %02u:%02u:%02u\"",Temperatura,Dia,Mes,Year,Hora,Minuto,Segundo); 
07D2E:  MOVLW  A8
07D30:  MOVWF  FF6
07D32:  MOVLW  0A
07D34:  MOVWF  FF7
07D36:  MOVLW  00
07D38:  MOVWF  FF8
07D3A:  MOVLW  0D
07D3C:  MOVWF  xF3
07D3E:  MOVLB  0
07D40:  CALL   4276
07D44:  MOVLW  02
07D46:  MOVWF  FE9
07D48:  MOVFF  324,3F6
07D4C:  MOVFF  323,3F5
07D50:  MOVFF  322,3F4
07D54:  MOVFF  321,3F3
07D58:  MOVLW  01
07D5A:  MOVLB  3
07D5C:  MOVWF  xF7
07D5E:  MOVLB  0
07D60:  CALL   4416
07D64:  MOVLW  BA
07D66:  MOVWF  FF6
07D68:  MOVLW  0A
07D6A:  MOVWF  FF7
07D6C:  MOVLW  00
07D6E:  MOVWF  FF8
07D70:  MOVLW  09
07D72:  MOVLB  3
07D74:  MOVWF  xF3
07D76:  MOVLB  0
07D78:  CALL   4276
07D7C:  MOVFF  397,3F1
07D80:  MOVLW  01
07D82:  MOVLB  3
07D84:  MOVWF  xF2
07D86:  MOVLB  0
07D88:  CALL   42D4
07D8C:  MOVLW  2F
07D8E:  BTFSS  F9E.4
07D90:  BRA    7D8E
07D92:  MOVWF  FAD
07D94:  MOVFF  396,3F1
07D98:  MOVLW  01
07D9A:  MOVLB  3
07D9C:  MOVWF  xF2
07D9E:  MOVLB  0
07DA0:  CALL   42D4
07DA4:  MOVLW  2F
07DA6:  BTFSS  F9E.4
07DA8:  BRA    7DA6
07DAA:  MOVWF  FAD
07DAC:  MOVLW  32
07DAE:  BTFSS  F9E.4
07DB0:  BRA    7DAE
07DB2:  MOVWF  FAD
07DB4:  MOVLW  30
07DB6:  BTFSS  F9E.4
07DB8:  BRA    7DB6
07DBA:  MOVWF  FAD
07DBC:  MOVFF  395,3F1
07DC0:  MOVLW  01
07DC2:  MOVLB  3
07DC4:  MOVWF  xF2
07DC6:  MOVLB  0
07DC8:  CALL   42D4
07DCC:  MOVLW  D3
07DCE:  MOVWF  FF6
07DD0:  MOVLW  0A
07DD2:  MOVWF  FF7
07DD4:  MOVLW  00
07DD6:  MOVWF  FF8
07DD8:  MOVLW  07
07DDA:  MOVLB  3
07DDC:  MOVWF  xF3
07DDE:  MOVLB  0
07DE0:  CALL   4276
07DE4:  MOVFF  398,3F1
07DE8:  MOVLW  01
07DEA:  MOVLB  3
07DEC:  MOVWF  xF2
07DEE:  MOVLB  0
07DF0:  CALL   42D4
07DF4:  MOVLW  3A
07DF6:  BTFSS  F9E.4
07DF8:  BRA    7DF6
07DFA:  MOVWF  FAD
07DFC:  MOVFF  399,3F1
07E00:  MOVLW  01
07E02:  MOVLB  3
07E04:  MOVWF  xF2
07E06:  MOVLB  0
07E08:  CALL   42D4
07E0C:  MOVLW  3A
07E0E:  BTFSS  F9E.4
07E10:  BRA    7E0E
07E12:  MOVWF  FAD
07E14:  MOVFF  39A,3F1
07E18:  MOVLW  01
07E1A:  MOVLB  3
07E1C:  MOVWF  xF2
07E1E:  MOVLB  0
07E20:  CALL   42D4
07E24:  MOVLW  22
07E26:  BTFSS  F9E.4
07E28:  BRA    7E26
07E2A:  MOVWF  FAD
....................       SendDataDisplay(); 
07E2C:  CALL   3538
....................          if(Setpoint<105) 
07E30:  MOVLB  3
07E32:  MOVF   x62,W
07E34:  SUBLW  68
07E36:  BNC   7E3C
....................             Setpoint=134; 
07E38:  MOVLW  86
07E3A:  MOVWF  x62
....................          if(Setpoint>134) 
07E3C:  MOVF   x62,W
07E3E:  SUBLW  86
07E40:  BC    7E46
....................             Setpoint=105; 
07E42:  MOVLW  69
07E44:  MOVWF  x62
....................           
....................          if(RX_Buffer[4]==0x11 || LEFT){//Selecciono Regresar 
07E46:  MOVF   34,W
07E48:  SUBLW  11
07E4A:  BZ    7E52
07E4C:  BSF    F93.3
07E4E:  BTFSC  F81.3
07E50:  BRA    7EE4
....................             Segundos=OFF; 
07E52:  MOVLB  0
07E54:  BCF    xA2.2
....................             Minutos=OFF; 
07E56:  BCF    xA2.1
....................             printf("page CicloPersona"); 
07E58:  MOVLW  EA
07E5A:  MOVWF  FF6
07E5C:  MOVLW  0A
07E5E:  MOVWF  FF7
07E60:  MOVLW  00
07E62:  MOVWF  FF8
07E64:  CALL   3506
....................             SendDataDisplay();   
07E68:  CALL   3538
....................             PantallaPrincipal=1; 
07E6C:  MOVLW  01
07E6E:  MOVLB  2
07E70:  MOVWF  xDC
....................             Op=OFF; 
07E72:  MOVLB  0
07E74:  BCF    xA1.7
....................             Op2=OFF; 
07E76:  BCF    xA2.0
....................             if(!GuardaEEPROM){ 
07E78:  BTFSC  xA2.3
07E7A:  BRA    7EE2
....................                CiclosPersonalizados[CicloLibre-1].Temperatura=Setpoint; 
07E7C:  MOVLW  01
07E7E:  MOVLB  3
07E80:  SUBWF  x37,W
07E82:  MULLW  0A
07E84:  MOVF   FF3,W
07E86:  CLRF   xF0
07E88:  MOVWF  xEF
07E8A:  MOVLW  C7
07E8C:  ADDWF  xEF,W
07E8E:  MOVWF  FE9
07E90:  MOVLW  03
07E92:  ADDWFC xF0,W
07E94:  MOVWF  FEA
07E96:  MOVFF  362,FEF
....................                write_eeprom(100+((CicloLibre-1)*8),Setpoint); 
07E9A:  MOVLW  01
07E9C:  SUBWF  x37,W
07E9E:  MULLW  08
07EA0:  MOVF   FF3,W
07EA2:  ADDLW  64
07EA4:  MOVWF  xEF
07EA6:  CLRF   FAA
07EA8:  MOVFF  3EF,FA9
07EAC:  MOVFF  362,FA8
07EB0:  BCF    FA6.6
07EB2:  BCF    FA6.7
07EB4:  BSF    FA6.2
07EB6:  MOVF   FF2,W
07EB8:  MOVWF  00
07EBA:  BCF    FF2.6
07EBC:  BCF    FF2.7
07EBE:  MOVLB  F
07EC0:  MOVLW  55
07EC2:  MOVWF  FA7
07EC4:  MOVLW  AA
07EC6:  MOVWF  FA7
07EC8:  BSF    FA6.1
07ECA:  BTFSC  FA6.1
07ECC:  BRA    7ECA
07ECE:  BCF    FA6.2
07ED0:  MOVF   00,W
07ED2:  IORWF  FF2,F
....................                delay_ms(10); 
07ED4:  MOVLW  0A
07ED6:  MOVLB  4
07ED8:  MOVWF  x04
07EDA:  MOVLB  0
07EDC:  CALL   179C
....................                GuardaEEPROM=ON; 
07EE0:  BSF    xA2.3
07EE2:  MOVLB  3
....................             } 
....................          } 
....................           
....................          if(UP){ 
07EE4:  BSF    F93.0
07EE6:  BTFSC  F81.0
07EE8:  BRA    7F00
....................             delay_ms(100); 
07EEA:  MOVLW  64
07EEC:  MOVLB  4
07EEE:  MOVWF  x04
07EF0:  MOVLB  0
07EF2:  CALL   179C
....................             if(UP){ 
07EF6:  BSF    F93.0
07EF8:  BTFSC  F81.0
07EFA:  BRA    7F02
....................                Setpoint++; 
07EFC:  MOVLB  3
07EFE:  INCF   x62,F
07F00:  MOVLB  0
....................             } 
....................          } 
....................           
....................          if(DOWN){ 
07F02:  BSF    F93.1
07F04:  BTFSC  F81.1
07F06:  BRA    7F20
....................             delay_ms(100); 
07F08:  MOVLW  64
07F0A:  MOVLB  4
07F0C:  MOVWF  x04
07F0E:  MOVLB  0
07F10:  CALL   179C
....................             if(DOWN){ 
07F14:  BSF    F93.1
07F16:  BTFSC  F81.1
07F18:  BRA    7F20
....................                Setpoint--; 
07F1A:  MOVLB  3
07F1C:  DECF   x62,F
07F1E:  MOVLB  0
....................             } 
....................          } 
....................           
....................          if(RX_Buffer[4]==0x0d){//Tecla Arriba Oprimida 
07F20:  MOVF   34,W
07F22:  SUBLW  0D
07F24:  BNZ   7F30
....................             Setpoint++; 
07F26:  MOVLB  3
07F28:  INCF   x62,F
....................             RX_Buffer[4]=0x00;   
07F2A:  CLRF   34
....................             RX_Buffer2[4]=0x00;             
07F2C:  CLRF   3F
07F2E:  MOVLB  0
....................             //BorraBuffer(); 
....................          } 
....................           
....................          if(RX_Buffer[4]==0x0c){//Tecla Abajo Oprimida 
07F30:  MOVF   34,W
07F32:  SUBLW  0C
07F34:  BNZ   7F40
....................             Setpoint--; 
07F36:  MOVLB  3
07F38:  DECF   x62,F
....................             RX_Buffer[4]=0x00; 
07F3A:  CLRF   34
....................             RX_Buffer2[4]=0x00;             
07F3C:  CLRF   3F
07F3E:  MOVLB  0
....................             //BorraBuffer(); 
....................          } 
....................           
....................       printf("tsettem.txt=\"%03u\"",Setpoint); 
07F40:  MOVLW  FC
07F42:  MOVWF  FF6
07F44:  MOVLW  0A
07F46:  MOVWF  FF7
07F48:  MOVLW  00
07F4A:  MOVWF  FF8
07F4C:  MOVLW  0D
07F4E:  MOVLB  3
07F50:  MOVWF  xF3
07F52:  MOVLB  0
07F54:  CALL   4276
07F58:  MOVFF  362,3F1
07F5C:  MOVLW  03
07F5E:  MOVLB  3
07F60:  MOVWF  xF2
07F62:  MOVLB  0
07F64:  CALL   42D4
07F68:  MOVLW  22
07F6A:  BTFSS  F9E.4
07F6C:  BRA    7F6A
07F6E:  MOVWF  FAD
....................       SendDataDisplay(); 
07F70:  CALL   3538
07F74:  MOVLB  3
....................     } 
.................... //_--------------------------------------------------------------------------------------------------------------------------------------------------------        
....................  
.................... //_--------------------------------------------------------------------------------------------------------------------------------------------------------       
....................    if(Menu==5){//Menu de Nivel 
07F76:  MOVF   x5B,W
07F78:  SUBLW  05
07F7A:  BTFSS  FD8.2
07F7C:  BRA    8242
....................       printf("fecha.txt=\"T:%3.1fC Fecha:%02u/%02u/20%02u Hora: %02u:%02u:%02u\"",Temperatura,Dia,Mes,Year,Hora,Minuto,Segundo); 
07F7E:  MOVLW  10
07F80:  MOVWF  FF6
07F82:  MOVLW  0B
07F84:  MOVWF  FF7
07F86:  MOVLW  00
07F88:  MOVWF  FF8
07F8A:  MOVLW  0D
07F8C:  MOVWF  xF3
07F8E:  MOVLB  0
07F90:  CALL   4276
07F94:  MOVLW  02
07F96:  MOVWF  FE9
07F98:  MOVFF  324,3F6
07F9C:  MOVFF  323,3F5
07FA0:  MOVFF  322,3F4
07FA4:  MOVFF  321,3F3
07FA8:  MOVLW  01
07FAA:  MOVLB  3
07FAC:  MOVWF  xF7
07FAE:  MOVLB  0
07FB0:  CALL   4416
07FB4:  MOVLW  22
07FB6:  MOVWF  FF6
07FB8:  MOVLW  0B
07FBA:  MOVWF  FF7
07FBC:  MOVLW  00
07FBE:  MOVWF  FF8
07FC0:  MOVLW  09
07FC2:  MOVLB  3
07FC4:  MOVWF  xF3
07FC6:  MOVLB  0
07FC8:  CALL   4276
07FCC:  MOVFF  397,3F1
07FD0:  MOVLW  01
07FD2:  MOVLB  3
07FD4:  MOVWF  xF2
07FD6:  MOVLB  0
07FD8:  CALL   42D4
07FDC:  MOVLW  2F
07FDE:  BTFSS  F9E.4
07FE0:  BRA    7FDE
07FE2:  MOVWF  FAD
07FE4:  MOVFF  396,3F1
07FE8:  MOVLW  01
07FEA:  MOVLB  3
07FEC:  MOVWF  xF2
07FEE:  MOVLB  0
07FF0:  CALL   42D4
07FF4:  MOVLW  2F
07FF6:  BTFSS  F9E.4
07FF8:  BRA    7FF6
07FFA:  MOVWF  FAD
07FFC:  MOVLW  32
07FFE:  BTFSS  F9E.4
08000:  BRA    7FFE
08002:  MOVWF  FAD
08004:  MOVLW  30
08006:  BTFSS  F9E.4
08008:  BRA    8006
0800A:  MOVWF  FAD
0800C:  MOVFF  395,3F1
08010:  MOVLW  01
08012:  MOVLB  3
08014:  MOVWF  xF2
08016:  MOVLB  0
08018:  CALL   42D4
0801C:  MOVLW  3B
0801E:  MOVWF  FF6
08020:  MOVLW  0B
08022:  MOVWF  FF7
08024:  MOVLW  00
08026:  MOVWF  FF8
08028:  MOVLW  07
0802A:  MOVLB  3
0802C:  MOVWF  xF3
0802E:  MOVLB  0
08030:  CALL   4276
08034:  MOVFF  398,3F1
08038:  MOVLW  01
0803A:  MOVLB  3
0803C:  MOVWF  xF2
0803E:  MOVLB  0
08040:  CALL   42D4
08044:  MOVLW  3A
08046:  BTFSS  F9E.4
08048:  BRA    8046
0804A:  MOVWF  FAD
0804C:  MOVFF  399,3F1
08050:  MOVLW  01
08052:  MOVLB  3
08054:  MOVWF  xF2
08056:  MOVLB  0
08058:  CALL   42D4
0805C:  MOVLW  3A
0805E:  BTFSS  F9E.4
08060:  BRA    805E
08062:  MOVWF  FAD
08064:  MOVFF  39A,3F1
08068:  MOVLW  01
0806A:  MOVLB  3
0806C:  MOVWF  xF2
0806E:  MOVLB  0
08070:  CALL   42D4
08074:  MOVLW  22
08076:  BTFSS  F9E.4
08078:  BRA    8076
0807A:  MOVWF  FAD
....................       SendDataDisplay(); 
0807C:  CALL   3538
....................          if(Nivel<1) 
08080:  MOVLB  3
08082:  MOVF   x70,F
08084:  BNZ   8090
08086:  MOVF   x71,F
08088:  BNZ   8090
....................             Nivel=6; 
0808A:  CLRF   x71
0808C:  MOVLW  06
0808E:  MOVWF  x70
....................          if(Nivel>6) 
08090:  MOVF   x71,F
08092:  BNZ   809A
08094:  MOVF   x70,W
08096:  SUBLW  06
08098:  BC    80A0
....................             Nivel=1; 
0809A:  CLRF   x71
0809C:  MOVLW  01
0809E:  MOVWF  x70
....................           
....................          if(RX_Buffer[4]==0x11 || LEFT){//Selecciono Regresar 
080A0:  MOVF   34,W
080A2:  SUBLW  11
080A4:  BZ    80AC
080A6:  BSF    F93.3
080A8:  BTFSC  F81.3
080AA:  BRA    819C
....................             Segundos=OFF; 
080AC:  MOVLB  0
080AE:  BCF    xA2.2
....................             Minutos=OFF;             
080B0:  BCF    xA2.1
....................             tiempo_secado=0; 
080B2:  MOVLB  3
080B4:  CLRF   x66
....................              
....................             if(!GuardaEEPROM){     
080B6:  MOVLB  0
080B8:  BTFSC  xA2.3
080BA:  BRA    814E
....................                CiclosPersonalizados[CicloLibre-1].NivelDesfogue=Nivel; 
080BC:  MOVLW  01
080BE:  MOVLB  3
080C0:  SUBWF  x37,W
080C2:  MULLW  0A
080C4:  MOVF   FF3,W
080C6:  CLRF   xF0
080C8:  MOVWF  xEF
080CA:  MOVLW  08
080CC:  ADDWF  xEF,W
080CE:  MOVWF  01
080D0:  MOVLW  00
080D2:  ADDWFC xF0,W
080D4:  MOVWF  03
080D6:  MOVF   01,W
080D8:  ADDLW  C7
080DA:  MOVWF  FE9
080DC:  MOVLW  03
080DE:  ADDWFC 03,W
080E0:  MOVWF  FEA
080E2:  MOVFF  370,FEF
....................                write_eeprom(107+((CicloLibre-1)*8),Nivel); 
080E6:  MOVLW  01
080E8:  SUBWF  x37,W
080EA:  MULLW  08
080EC:  MOVF   FF3,W
080EE:  ADDLW  6B
080F0:  MOVWF  xEF
080F2:  CLRF   FAA
080F4:  MOVFF  3EF,FA9
080F8:  MOVFF  370,FA8
080FC:  BCF    FA6.6
080FE:  BCF    FA6.7
08100:  BSF    FA6.2
08102:  MOVF   FF2,W
08104:  MOVWF  00
08106:  BCF    FF2.6
08108:  BCF    FF2.7
0810A:  MOVLB  F
0810C:  MOVLW  55
0810E:  MOVWF  FA7
08110:  MOVLW  AA
08112:  MOVWF  FA7
08114:  BSF    FA6.1
08116:  BTFSC  FA6.1
08118:  BRA    8116
0811A:  BCF    FA6.2
0811C:  MOVF   00,W
0811E:  IORWF  FF2,F
....................                delay_ms(20);             
08120:  MOVLW  14
08122:  MOVLB  4
08124:  MOVWF  x04
08126:  MOVLB  0
08128:  CALL   179C
....................                NivelSeleccionado=4995*Nivel; 
0812C:  MOVLW  13
0812E:  MOVLB  3
08130:  MOVWF  xF9
08132:  MOVLW  83
08134:  MOVWF  xF8
08136:  MOVFF  371,3FB
0813A:  MOVFF  370,3FA
0813E:  MOVLB  0
08140:  CALL   35E0
08144:  MOVFF  02,37B
08148:  MOVFF  01,37A
....................                GuardaEEPROM=ON; 
0814C:  BSF    xA2.3
....................             } 
....................              
....................             if(Nivel<6) 
0814E:  MOVLB  3
08150:  MOVF   x71,F
08152:  BNZ   815E
08154:  MOVF   x70,W
08156:  SUBLW  05
08158:  BNC   815E
....................                desfoguelento=1; 
0815A:  BSF    x50.0
....................             else             
0815C:  BRA    8160
....................                desfoguelento=0; 
0815E:  BCF    x50.0
....................  
....................             if(MenuAnt==1){ 
08160:  DECFSZ x5C,W
08162:  BRA    817E
....................                //Buzzer_on; 
....................                printf("page CicloPersona"); 
08164:  MOVLW  52
08166:  MOVWF  FF6
08168:  MOVLW  0B
0816A:  MOVWF  FF7
0816C:  MOVLW  00
0816E:  MOVWF  FF8
08170:  MOVLB  0
08172:  CALL   3506
....................                SendDataDisplay();  
08176:  CALL   3538
....................                //PantallaPrincipal=1; 
....................             }else if(MenuAnt==2){ 
0817A:  BRA    819A
0817C:  MOVLB  3
0817E:  MOVF   x5C,W
08180:  SUBLW  02
08182:  BNZ   819C
....................                printf("page Funcionamiento"); 
08184:  MOVLW  64
08186:  MOVWF  FF6
08188:  MOVLW  0B
0818A:  MOVWF  FF7
0818C:  MOVLW  00
0818E:  MOVWF  FF8
08190:  MOVLB  0
08192:  CALL   3506
....................                SendDataDisplay();  
08196:  CALL   3538
0819A:  MOVLB  3
....................                //if(Temperatura>60)TTrampa=TTrampa+5; 
....................             } 
....................          } 
....................           
....................          if(UP){ 
0819C:  BSF    F93.0
0819E:  BTFSC  F81.0
081A0:  BRA    81BC
....................             delay_ms(100); 
081A2:  MOVLW  64
081A4:  MOVLB  4
081A6:  MOVWF  x04
081A8:  MOVLB  0
081AA:  CALL   179C
....................             if(UP){ 
081AE:  BSF    F93.0
081B0:  BTFSC  F81.0
081B2:  BRA    81BE
....................                Nivel++; 
081B4:  MOVLB  3
081B6:  INCF   x70,F
081B8:  BTFSC  FD8.2
081BA:  INCF   x71,F
081BC:  MOVLB  0
....................             } 
....................          } 
....................           
....................          if(DOWN){ 
081BE:  BSF    F93.1
081C0:  BTFSC  F81.1
081C2:  BRA    81E2
....................             delay_ms(100); 
081C4:  MOVLW  64
081C6:  MOVLB  4
081C8:  MOVWF  x04
081CA:  MOVLB  0
081CC:  CALL   179C
....................             if(DOWN){ 
081D0:  BSF    F93.1
081D2:  BTFSC  F81.1
081D4:  BRA    81E2
....................                Nivel--; 
081D6:  MOVLB  3
081D8:  MOVF   x70,W
081DA:  BTFSC  FD8.2
081DC:  DECF   x71,F
081DE:  DECF   x70,F
081E0:  MOVLB  0
....................             } 
....................          } 
....................           
....................          if(RX_Buffer[4]==0x0d){//Tecla Arriba Oprimida 
081E2:  MOVF   34,W
081E4:  SUBLW  0D
081E6:  BNZ   81F6
....................             Nivel++; 
081E8:  MOVLB  3
081EA:  INCF   x70,F
081EC:  BTFSC  FD8.2
081EE:  INCF   x71,F
....................             RX_Buffer[4]=0x00;             
081F0:  CLRF   34
....................             RX_Buffer2[4]=0x00;             
081F2:  CLRF   3F
081F4:  MOVLB  0
....................             //BorraBuffer(); 
....................          } 
....................           
....................          if(RX_Buffer[4]==0x0c){//Tecla Abajo Oprimida 
081F6:  MOVF   34,W
081F8:  SUBLW  0C
081FA:  BNZ   820C
....................             Nivel--; 
081FC:  MOVLB  3
081FE:  MOVF   x70,W
08200:  BTFSC  FD8.2
08202:  DECF   x71,F
08204:  DECF   x70,F
....................             RX_Buffer[4]=0x00; 
08206:  CLRF   34
....................             RX_Buffer2[4]=0x00;             
08208:  CLRF   3F
0820A:  MOVLB  0
....................             //BorraBuffer(); 
....................          } 
....................           
....................       printf("tnivel.txt=\"%Lu\"",Nivel); 
0820C:  MOVLW  78
0820E:  MOVWF  FF6
08210:  MOVLW  0B
08212:  MOVWF  FF7
08214:  MOVLW  00
08216:  MOVWF  FF8
08218:  MOVLW  0C
0821A:  MOVLB  3
0821C:  MOVWF  xF3
0821E:  MOVLB  0
08220:  CALL   4276
08224:  MOVLW  10
08226:  MOVWF  FE9
08228:  MOVFF  371,3F4
0822C:  MOVFF  370,3F3
08230:  CALL   4640
08234:  MOVLW  22
08236:  BTFSS  F9E.4
08238:  BRA    8236
0823A:  MOVWF  FAD
....................       SendDataDisplay(); 
0823C:  CALL   3538
08240:  MOVLB  3
....................    } 
.................... //_--------------------------------------------------------------------------------------------------------------------------------------------------------       
....................  
.................... //_--------------------------------------------------------------------------------------------------------------------------------------------------------       
....................       if(Menu==6){ // Menu de Prueba de Componentes 
08242:  MOVF   x5B,W
08244:  SUBLW  06
08246:  BTFSS  FD8.2
08248:  BRA    895A
....................          PruebaEstados=ON; 
0824A:  MOVLB  0
0824C:  BSF    xA1.2
....................           
....................          if(RX_Buffer[4]==0x02)//Oprimio EV Desfogue 
0824E:  MOVF   34,W
08250:  SUBLW  02
08252:  BNZ   825A
....................          { 
....................             EstadoDesfogue=!EstadoDesfogue; 
08254:  BTG    xA0.7
....................             RX_Buffer[4]=0x00; 
08256:  CLRF   34
....................             RX_Buffer2[4]=0x00; 
08258:  CLRF   3F
....................          } 
....................           
....................          if(EstadoDesfogue){ 
0825A:  BTFSS  xA0.7
0825C:  BRA    8278
....................             printf("b1.bco=2016"); 
0825E:  MOVLW  8A
08260:  MOVWF  FF6
08262:  MOVLW  0B
08264:  MOVWF  FF7
08266:  MOVLW  00
08268:  MOVWF  FF8
0826A:  CALL   3506
....................             SendDataDisplay();  
0826E:  CALL   3538
....................             Desfogue_on; 
08272:  BSF    F8C.4
08274:  BCF    F95.4
....................          } 
....................          else{ 
08276:  BRA    8290
....................             printf("b1.bco=63488"); 
08278:  MOVLW  96
0827A:  MOVWF  FF6
0827C:  MOVLW  0B
0827E:  MOVWF  FF7
08280:  MOVLW  00
08282:  MOVWF  FF8
08284:  CALL   3506
....................             SendDataDisplay();  
08288:  CALL   3538
....................             Desfogue_off; 
0828C:  BCF    F8C.4
0828E:  BCF    F95.4
....................          } 
....................           
....................          if(RX_Buffer[4]==0x01)//Oprimio EV Agua 
08290:  DECFSZ 34,W
08292:  BRA    829A
....................          { 
....................             EstadoAgua=!EstadoAgua; 
08294:  BTG    xA1.0
....................             RX_Buffer[4]=0x00; 
08296:  CLRF   34
....................             RX_Buffer2[4]=0x00; 
08298:  CLRF   3F
....................          } 
....................           
....................          if(EstadoAgua){ 
0829A:  BTFSS  xA1.0
0829C:  BRA    82B8
....................             printf("b0.bco=2016"); 
0829E:  MOVLW  A4
082A0:  MOVWF  FF6
082A2:  MOVLW  0B
082A4:  MOVWF  FF7
082A6:  MOVLW  00
082A8:  MOVWF  FF8
082AA:  CALL   3506
....................             SendDataDisplay();  
082AE:  CALL   3538
....................             Vent_on; 
082B2:  BSF    F8C.5
082B4:  BCF    F95.5
....................          } 
....................          else{ 
082B6:  BRA    82D0
....................             printf("b0.bco=63488"); 
082B8:  MOVLW  B0
082BA:  MOVWF  FF6
082BC:  MOVLW  0B
082BE:  MOVWF  FF7
082C0:  MOVLW  00
082C2:  MOVWF  FF8
082C4:  CALL   3506
....................             SendDataDisplay();  
082C8:  CALL   3538
....................             Vent_off; 
082CC:  BCF    F8C.5
082CE:  BCF    F95.5
....................          } 
....................           
....................          if(RX_Buffer[4]==0x03)//Oprimio EV Paso 
082D0:  MOVF   34,W
082D2:  SUBLW  03
082D4:  BNZ   82DC
....................          { 
....................             EstadoPaso=!EstadoPaso; 
082D6:  BTG    xA2.4
....................             RX_Buffer[4]=0x00; 
082D8:  CLRF   34
....................             RX_Buffer2[4]=0x00; 
082DA:  CLRF   3F
....................          } 
....................           
....................          if(EstadoPaso){ 
082DC:  BTFSS  xA2.4
082DE:  BRA    82FA
....................             printf("b2.bco=2016"); 
082E0:  MOVLW  BE
082E2:  MOVWF  FF6
082E4:  MOVLW  0B
082E6:  MOVWF  FF7
082E8:  MOVLW  00
082EA:  MOVWF  FF8
082EC:  CALL   3506
....................             SendDataDisplay();  
082F0:  CALL   3538
....................             Paso_on; 
082F4:  BSF    F8C.6
082F6:  BCF    F95.6
....................          } 
....................          else{ 
082F8:  BRA    8312
....................             printf("b2.bco=63488"); 
082FA:  MOVLW  CA
082FC:  MOVWF  FF6
082FE:  MOVLW  0B
08300:  MOVWF  FF7
08302:  MOVLW  00
08304:  MOVWF  FF8
08306:  CALL   3506
....................             SendDataDisplay();  
0830A:  CALL   3538
....................             Paso_off; 
0830E:  BCF    F8C.6
08310:  BCF    F95.6
....................          } 
....................          
....................          /* 
....................          if(RX_Buffer[4]==0x05)//Oprimio Bloqueo 
....................          { 
....................             EstadoBloqueo=!EstadoBloqueo; 
....................             RX_Buffer[4]=0x00; 
....................             RX_Buffer2[4]=0x00; 
....................          } 
....................           
....................          if(EstadoBloqueo){ 
....................             printf("b4.bco=2016"); 
....................             SendDataDisplay();  
....................              
....................          } 
....................          else{ 
....................             printf("b4.bco=63488"); 
....................             SendDataDisplay();  
....................              
....................          } 
....................          */ 
....................           
....................          if(RX_Buffer[4]==0x04)//Oprimio SSR1 
08312:  MOVF   34,W
08314:  SUBLW  04
08316:  BNZ   831E
....................          { 
....................             EstadoSSR=!EstadoSSR; 
08318:  BTG    xA1.1
....................             RX_Buffer[4]=0x00; 
0831A:  CLRF   34
....................             RX_Buffer2[4]=0x00; 
0831C:  CLRF   3F
....................          } 
....................           
....................          if(EstadoSSR){ 
0831E:  BTFSS  xA1.1
08320:  BRA    833C
....................             printf("b3.bco=2016"); 
08322:  MOVLW  D8
08324:  MOVWF  FF6
08326:  MOVLW  0B
08328:  MOVWF  FF7
0832A:  MOVLW  00
0832C:  MOVWF  FF8
0832E:  CALL   3506
....................             SendDataDisplay();  
08332:  CALL   3538
....................             SSR_on; 
08336:  BCF    F8B.2
08338:  BCF    F94.2
....................          } 
....................          else{ 
0833A:  BRA    8354
....................             printf("b3.bco=63488"); 
0833C:  MOVLW  E4
0833E:  MOVWF  FF6
08340:  MOVLW  0B
08342:  MOVWF  FF7
08344:  MOVLW  00
08346:  MOVWF  FF8
08348:  CALL   3506
....................             SendDataDisplay();  
0834C:  CALL   3538
....................             SSR_off; 
08350:  BSF    F8B.2
08352:  BCF    F94.2
....................          } 
....................           
....................          if(DOOR){ 
08354:  BSF    F93.6
08356:  BTFSC  F81.6
08358:  BRA    8370
....................             printf("b8.bco=2016"); 
0835A:  MOVLW  F2
0835C:  MOVWF  FF6
0835E:  MOVLW  0B
08360:  MOVWF  FF7
08362:  MOVLW  00
08364:  MOVWF  FF8
08366:  CALL   3506
....................             SendDataDisplay();  
0836A:  CALL   3538
....................          }else{ 
0836E:  BRA    8384
....................             printf("b8.bco=63488"); 
08370:  MOVLW  FE
08372:  MOVWF  FF6
08374:  MOVLW  0B
08376:  MOVWF  FF7
08378:  MOVLW  00
0837A:  MOVWF  FF8
0837C:  CALL   3506
....................             SendDataDisplay();  
08380:  CALL   3538
....................          } 
....................           
....................          if(TERM){ 
08384:  BSF    F93.5
08386:  BTFSC  F81.5
08388:  BRA    83A0
....................             printf("b9.bco=2016"); 
0838A:  MOVLW  0C
0838C:  MOVWF  FF6
0838E:  MOVLW  0C
08390:  MOVWF  FF7
08392:  MOVLW  00
08394:  MOVWF  FF8
08396:  CALL   3506
....................             SendDataDisplay();  
0839A:  CALL   3538
....................          }else{ 
0839E:  BRA    83B4
....................             printf("b9.bco=63488"); 
083A0:  MOVLW  18
083A2:  MOVWF  FF6
083A4:  MOVLW  0C
083A6:  MOVWF  FF7
083A8:  MOVLW  00
083AA:  MOVWF  FF8
083AC:  CALL   3506
....................             SendDataDisplay();  
083B0:  CALL   3538
....................          } 
....................           
....................          if(STOP){ 
083B4:  BSF    F93.7
083B6:  BTFSC  F81.7
083B8:  BRA    83D0
....................             printf("b10.bco=2016"); 
083BA:  MOVLW  26
083BC:  MOVWF  FF6
083BE:  MOVLW  0C
083C0:  MOVWF  FF7
083C2:  MOVLW  00
083C4:  MOVWF  FF8
083C6:  CALL   3506
....................             SendDataDisplay();  
083CA:  CALL   3538
....................          }else{ 
083CE:  BRA    83E4
....................             printf("b10.bco=63488"); 
083D0:  MOVLW  34
083D2:  MOVWF  FF6
083D4:  MOVLW  0C
083D6:  MOVWF  FF7
083D8:  MOVLW  00
083DA:  MOVWF  FF8
083DC:  CALL   3506
....................             SendDataDisplay();  
083E0:  CALL   3538
....................          } 
....................           
....................          /*if(PRES){ 
....................             printf("b11.bco=2016"); 
....................             SendDataDisplay();  
....................          }else{ 
....................             printf("b11.bco=63488"); 
....................             SendDataDisplay();  
....................          }*/ 
....................           
....................          if(RX_Buffer[4]==0x13)//Oprimio Buzzer 
083E4:  MOVF   34,W
083E6:  SUBLW  13
083E8:  BNZ   83F0
....................          { 
....................             EstadoBuzzer=!EstadoBuzzer; 
083EA:  BTG    xA2.5
....................             RX_Buffer[4]=0x00; 
083EC:  CLRF   34
....................             RX_Buffer2[4]=0x00; 
083EE:  CLRF   3F
....................          } 
....................           
....................          if(EstadoBuzzer){ 
083F0:  BTFSS  xA2.5
083F2:  BRA    840E
....................             printf("b12.bco=2016"); 
083F4:  MOVLW  42
083F6:  MOVWF  FF6
083F8:  MOVLW  0C
083FA:  MOVWF  FF7
083FC:  MOVLW  00
083FE:  MOVWF  FF8
08400:  CALL   3506
....................             SendDataDisplay();  
08404:  CALL   3538
....................             Buzzer_on; 
08408:  BSF    F8C.0
0840A:  BCF    F95.0
....................          } 
....................          else{ 
0840C:  BRA    8426
....................             printf("b12.bco=63488"); 
0840E:  MOVLW  50
08410:  MOVWF  FF6
08412:  MOVLW  0C
08414:  MOVWF  FF7
08416:  MOVLW  00
08418:  MOVWF  FF8
0841A:  CALL   3506
....................             SendDataDisplay();  
0841E:  CALL   3538
....................             Buzzer_off; 
08422:  BCF    F8C.0
08424:  BCF    F95.0
....................          } 
....................           
....................          if(HIG){ 
08426:  BSF    F94.0
08428:  BTFSS  F82.0
0842A:  BRA    8442
....................             printf("b16.bco=2016"); 
0842C:  MOVLW  5E
0842E:  MOVWF  FF6
08430:  MOVLW  0C
08432:  MOVWF  FF7
08434:  MOVLW  00
08436:  MOVWF  FF8
08438:  CALL   3506
....................             SendDataDisplay();  
0843C:  CALL   3538
....................          }else{ 
08440:  BRA    8456
....................             printf("b16.bco=63488"); 
08442:  MOVLW  6C
08444:  MOVWF  FF6
08446:  MOVLW  0C
08448:  MOVWF  FF7
0844A:  MOVLW  00
0844C:  MOVWF  FF8
0844E:  CALL   3506
....................             SendDataDisplay();  
08452:  CALL   3538
....................          } 
....................           
....................          if(LOW){ 
08456:  BSF    F94.1
08458:  BTFSS  F82.1
0845A:  BRA    8472
....................             printf("b17.bco=2016"); 
0845C:  MOVLW  7A
0845E:  MOVWF  FF6
08460:  MOVLW  0C
08462:  MOVWF  FF7
08464:  MOVLW  00
08466:  MOVWF  FF8
08468:  CALL   3506
....................             SendDataDisplay();  
0846C:  CALL   3538
....................          }else{ 
08470:  BRA    8486
....................             printf("b17.bco=63488"); 
08472:  MOVLW  88
08474:  MOVWF  FF6
08476:  MOVLW  0C
08478:  MOVWF  FF7
0847A:  MOVLW  00
0847C:  MOVWF  FF8
0847E:  CALL   3506
....................             SendDataDisplay();  
08482:  CALL   3538
....................          } 
....................           
....................          printf("b13.txt=\"ADC0:%3.0f\"",sensores(0));          
08486:  MOVLB  3
08488:  CLRF   xF8
0848A:  MOVLB  0
0848C:  CALL   3586
08490:  MOVFF  00,3EF
08494:  MOVFF  01,3F0
08498:  MOVFF  02,3F1
0849C:  MOVFF  03,3F2
084A0:  MOVLW  96
084A2:  MOVWF  FF6
084A4:  MOVLW  0C
084A6:  MOVWF  FF7
084A8:  MOVLW  00
084AA:  MOVWF  FF8
084AC:  MOVLW  0E
084AE:  MOVLB  3
084B0:  MOVWF  xF3
084B2:  MOVLB  0
084B4:  CALL   4276
084B8:  MOVLW  02
084BA:  MOVWF  FE9
084BC:  MOVFF  3F2,3F6
084C0:  MOVFF  3F1,3F5
084C4:  MOVFF  3F0,3F4
084C8:  MOVFF  3EF,3F3
084CC:  MOVLB  3
084CE:  CLRF   xF7
084D0:  MOVLB  0
084D2:  CALL   4416
084D6:  MOVLW  22
084D8:  BTFSS  F9E.4
084DA:  BRA    84D8
084DC:  MOVWF  FAD
....................          SendDataDisplay(); 
084DE:  CALL   3538
....................          printf("b14.txt=\"ADC1:%3.0f\"",sensores(1));          
084E2:  MOVLW  01
084E4:  MOVLB  3
084E6:  MOVWF  xF8
084E8:  MOVLB  0
084EA:  CALL   3586
084EE:  MOVFF  00,3EF
084F2:  MOVFF  01,3F0
084F6:  MOVFF  02,3F1
084FA:  MOVFF  03,3F2
084FE:  MOVLW  AC
08500:  MOVWF  FF6
08502:  MOVLW  0C
08504:  MOVWF  FF7
08506:  MOVLW  00
08508:  MOVWF  FF8
0850A:  MOVLW  0E
0850C:  MOVLB  3
0850E:  MOVWF  xF3
08510:  MOVLB  0
08512:  CALL   4276
08516:  MOVLW  02
08518:  MOVWF  FE9
0851A:  MOVFF  3F2,3F6
0851E:  MOVFF  3F1,3F5
08522:  MOVFF  3F0,3F4
08526:  MOVFF  3EF,3F3
0852A:  MOVLB  3
0852C:  CLRF   xF7
0852E:  MOVLB  0
08530:  CALL   4416
08534:  MOVLW  22
08536:  BTFSS  F9E.4
08538:  BRA    8536
0853A:  MOVWF  FAD
....................          SendDataDisplay(); 
0853C:  CALL   3538
....................          printf("b15.txt=\"A2:%3.0f %03Lu\"",sensores(2),PresionCamara); 
08540:  MOVLW  02
08542:  MOVLB  3
08544:  MOVWF  xF8
08546:  MOVLB  0
08548:  CALL   3586
0854C:  MOVFF  00,3EF
08550:  MOVFF  01,3F0
08554:  MOVFF  02,3F1
08558:  MOVFF  03,3F2
0855C:  MOVLW  C2
0855E:  MOVWF  FF6
08560:  MOVLW  0C
08562:  MOVWF  FF7
08564:  MOVLW  00
08566:  MOVWF  FF8
08568:  MOVLW  0C
0856A:  MOVLB  3
0856C:  MOVWF  xF3
0856E:  MOVLB  0
08570:  CALL   4276
08574:  MOVLW  02
08576:  MOVWF  FE9
08578:  MOVFF  3F2,3F6
0857C:  MOVFF  3F1,3F5
08580:  MOVFF  3F0,3F4
08584:  MOVFF  3EF,3F3
08588:  MOVLB  3
0858A:  CLRF   xF7
0858C:  MOVLB  0
0858E:  CALL   4416
08592:  MOVLW  20
08594:  BTFSS  F9E.4
08596:  BRA    8594
08598:  MOVWF  FAD
0859A:  MOVLW  0A
0859C:  MOVWF  FE9
0859E:  MOVFF  375,3F4
085A2:  MOVFF  374,3F3
085A6:  CALL   4640
085AA:  MOVLW  22
085AC:  BTFSS  F9E.4
085AE:  BRA    85AC
085B0:  MOVWF  FAD
....................          SendDataDisplay(); 
085B2:  CALL   3538
....................          printf("b18.txt=\"A3:%3.0f %03Lu\"",sensores(3),PresionPreCamara); 
085B6:  MOVLW  03
085B8:  MOVLB  3
085BA:  MOVWF  xF8
085BC:  MOVLB  0
085BE:  CALL   3586
085C2:  MOVFF  00,3EF
085C6:  MOVFF  01,3F0
085CA:  MOVFF  02,3F1
085CE:  MOVFF  03,3F2
085D2:  MOVLW  DC
085D4:  MOVWF  FF6
085D6:  MOVLW  0C
085D8:  MOVWF  FF7
085DA:  MOVLW  00
085DC:  MOVWF  FF8
085DE:  MOVLW  0C
085E0:  MOVLB  3
085E2:  MOVWF  xF3
085E4:  MOVLB  0
085E6:  CALL   4276
085EA:  MOVLW  02
085EC:  MOVWF  FE9
085EE:  MOVFF  3F2,3F6
085F2:  MOVFF  3F1,3F5
085F6:  MOVFF  3F0,3F4
085FA:  MOVFF  3EF,3F3
085FE:  MOVLB  3
08600:  CLRF   xF7
08602:  MOVLB  0
08604:  CALL   4416
08608:  MOVLW  20
0860A:  BTFSS  F9E.4
0860C:  BRA    860A
0860E:  MOVWF  FAD
08610:  MOVLW  0A
08612:  MOVWF  FE9
08614:  MOVFF  377,3F4
08618:  MOVFF  376,3F3
0861C:  CALL   4640
08620:  MOVLW  22
08622:  BTFSS  F9E.4
08624:  BRA    8622
08626:  MOVWF  FAD
....................          SendDataDisplay(); 
08628:  CALL   3538
....................          printf("b20.txt=\"T1:%3.1f\"",Temperatura); 
0862C:  MOVLW  F6
0862E:  MOVWF  FF6
08630:  MOVLW  0C
08632:  MOVWF  FF7
08634:  MOVLW  00
08636:  MOVWF  FF8
08638:  MOVLW  0C
0863A:  MOVLB  3
0863C:  MOVWF  xF3
0863E:  MOVLB  0
08640:  CALL   4276
08644:  MOVLW  02
08646:  MOVWF  FE9
08648:  MOVFF  324,3F6
0864C:  MOVFF  323,3F5
08650:  MOVFF  322,3F4
08654:  MOVFF  321,3F3
08658:  MOVLW  01
0865A:  MOVLB  3
0865C:  MOVWF  xF7
0865E:  MOVLB  0
08660:  CALL   4416
08664:  MOVLW  22
08666:  BTFSS  F9E.4
08668:  BRA    8666
0866A:  MOVWF  FAD
....................          SendDataDisplay(); 
0866C:  CALL   3538
....................           
....................          if(RX_Buffer[4]==0x21 || LEFT){//Oprimio salir 
08670:  MOVF   34,W
08672:  SUBLW  21
08674:  BZ    867C
08676:  BSF    F93.3
08678:  BTFSC  F81.3
0867A:  BRA    86C0
....................             delay_ms(100); 
0867C:  MOVLW  64
0867E:  MOVLB  4
08680:  MOVWF  x04
08682:  MOVLB  0
08684:  CALL   179C
....................             if(RX_Buffer[4]==0x21 || LEFT){ 
08688:  MOVF   34,W
0868A:  SUBLW  21
0868C:  BZ    8694
0868E:  BSF    F93.3
08690:  BTFSC  F81.3
08692:  BRA    86C0
....................                printf("page MenuPrincipal"); 
08694:  MOVLW  0A
08696:  MOVWF  FF6
08698:  MOVLW  0D
0869A:  MOVWF  FF7
0869C:  MOVLW  00
0869E:  MOVWF  FF8
086A0:  CALL   3506
....................                SendDataDisplay(); 
086A4:  CALL   3538
....................                PantallaPrincipal=0; 
086A8:  MOVLB  2
086AA:  CLRF   xDC
....................                PruebaEstados=OFF;Desfogue_off;Vent_off;SSR_off; 
086AC:  MOVLB  0
086AE:  BCF    xA1.2
086B0:  BCF    F8C.4
086B2:  BCF    F95.4
086B4:  BCF    F8C.5
086B6:  BCF    F95.5
086B8:  BSF    F8B.2
086BA:  BCF    F94.2
....................                ApagaSalidas(); 
086BC:  CALL   356E
....................                // Falta apagar Todo 
....................             } 
....................          } 
....................           
....................          if(UP){ 
086C0:  BSF    F93.0
086C2:  BTFSC  F81.0
086C4:  BRA    880E
....................             delay_ms(100); 
086C6:  MOVLW  64
086C8:  MOVLB  4
086CA:  MOVWF  x04
086CC:  MOVLB  0
086CE:  CALL   179C
....................             if(UP){ 
086D2:  BSF    F93.0
086D4:  BTFSC  F81.0
086D6:  BRA    880E
....................                G1=41-sensores(2); 
086D8:  MOVLW  02
086DA:  MOVLB  3
086DC:  MOVWF  xF8
086DE:  MOVLB  0
086E0:  CALL   3586
086E4:  MOVFF  FEA,3F0
086E8:  MOVFF  FE9,3EF
086EC:  BSF    FD8.1
086EE:  MOVLB  4
086F0:  CLRF   x07
086F2:  CLRF   x06
086F4:  MOVLW  24
086F6:  MOVWF  x05
086F8:  MOVLW  84
086FA:  MOVWF  x04
086FC:  MOVFF  03,40B
08700:  MOVFF  02,40A
08704:  MOVFF  01,409
08708:  MOVFF  00,408
0870C:  MOVLB  0
0870E:  CALL   19A6
08712:  MOVFF  3F0,FEA
08716:  MOVFF  3EF,FE9
0871A:  MOVFF  03,407
0871E:  MOVFF  02,406
08722:  MOVFF  01,405
08726:  MOVFF  00,404
0872A:  CALL   3CB8
0872E:  MOVFF  01,3A5
....................                if(G1<0) 
08732:  MOVLB  3
08734:  BTFSC  xA5.7
08736:  BRA    873A
08738:  BRA    8740
....................                   sg1=10; 
0873A:  MOVLW  0A
0873C:  MOVWF  xA7
....................                else 
0873E:  BRA    8744
....................                   sg1=5; 
08740:  MOVLW  05
08742:  MOVWF  xA7
....................                    
....................                write_eeprom(42,(int8)G1); 
08744:  CLRF   FAA
08746:  MOVLW  2A
08748:  MOVWF  FA9
0874A:  MOVFF  3A5,FA8
0874E:  BCF    FA6.6
08750:  BCF    FA6.7
08752:  BSF    FA6.2
08754:  MOVF   FF2,W
08756:  MOVWF  00
08758:  BCF    FF2.6
0875A:  BCF    FF2.7
0875C:  MOVLB  F
0875E:  MOVLW  55
08760:  MOVWF  FA7
08762:  MOVLW  AA
08764:  MOVWF  FA7
08766:  BSF    FA6.1
08768:  BTFSC  FA6.1
0876A:  BRA    8768
0876C:  BCF    FA6.2
0876E:  MOVF   00,W
08770:  IORWF  FF2,F
....................                delay_ms(10); 
08772:  MOVLW  0A
08774:  MOVLB  4
08776:  MOVWF  x04
08778:  MOVLB  0
0877A:  CALL   179C
....................                write_eeprom(44,(int8)sg1); 
0877E:  CLRF   FAA
08780:  MOVLW  2C
08782:  MOVWF  FA9
08784:  MOVFF  3A7,FA8
08788:  BCF    FA6.6
0878A:  BCF    FA6.7
0878C:  BSF    FA6.2
0878E:  MOVF   FF2,W
08790:  MOVWF  00
08792:  BCF    FF2.6
08794:  BCF    FF2.7
08796:  MOVLB  F
08798:  MOVLW  55
0879A:  MOVWF  FA7
0879C:  MOVLW  AA
0879E:  MOVWF  FA7
087A0:  BSF    FA6.1
087A2:  BTFSC  FA6.1
087A4:  BRA    87A2
087A6:  BCF    FA6.2
087A8:  MOVF   00,W
087AA:  IORWF  FF2,F
....................                delay_ms(10); 
087AC:  MOVLW  0A
087AE:  MOVLB  4
087B0:  MOVWF  x04
087B2:  MOVLB  0
087B4:  CALL   179C
....................                Buzzer_on; 
087B8:  BSF    F8C.0
087BA:  BCF    F95.0
....................                delay_ms(1000); 
087BC:  MOVLW  04
087BE:  MOVLB  3
087C0:  MOVWF  xEF
087C2:  MOVLW  FA
087C4:  MOVLB  4
087C6:  MOVWF  x04
087C8:  MOVLB  0
087CA:  CALL   179C
087CE:  MOVLB  3
087D0:  DECFSZ xEF,F
087D2:  BRA    87C2
....................                Buzzer_off; 
087D4:  BCF    F8C.0
087D6:  BCF    F95.0
....................                delay_ms(1000); 
087D8:  MOVLW  04
087DA:  MOVWF  xEF
087DC:  MOVLW  FA
087DE:  MOVLB  4
087E0:  MOVWF  x04
087E2:  MOVLB  0
087E4:  CALL   179C
087E8:  MOVLB  3
087EA:  DECFSZ xEF,F
087EC:  BRA    87DC
....................                Buzzer_on; 
087EE:  BSF    F8C.0
087F0:  BCF    F95.0
....................                delay_ms(1000); 
087F2:  MOVLW  04
087F4:  MOVWF  xEF
087F6:  MOVLW  FA
087F8:  MOVLB  4
087FA:  MOVWF  x04
087FC:  MOVLB  0
087FE:  CALL   179C
08802:  MOVLB  3
08804:  DECFSZ xEF,F
08806:  BRA    87F6
....................                Buzzer_off; 
08808:  BCF    F8C.0
0880A:  BCF    F95.0
0880C:  MOVLB  0
....................             } 
....................          } 
....................           
....................          if(DOWN){ 
0880E:  BSF    F93.1
08810:  BTFSC  F81.1
08812:  BRA    895C
....................             delay_ms(100); 
08814:  MOVLW  64
08816:  MOVLB  4
08818:  MOVWF  x04
0881A:  MOVLB  0
0881C:  CALL   179C
....................             if(DOWN){ 
08820:  BSF    F93.1
08822:  BTFSC  F81.1
08824:  BRA    895C
....................                G2=41-sensores(3); 
08826:  MOVLW  03
08828:  MOVLB  3
0882A:  MOVWF  xF8
0882C:  MOVLB  0
0882E:  CALL   3586
08832:  MOVFF  FEA,3F0
08836:  MOVFF  FE9,3EF
0883A:  BSF    FD8.1
0883C:  MOVLB  4
0883E:  CLRF   x07
08840:  CLRF   x06
08842:  MOVLW  24
08844:  MOVWF  x05
08846:  MOVLW  84
08848:  MOVWF  x04
0884A:  MOVFF  03,40B
0884E:  MOVFF  02,40A
08852:  MOVFF  01,409
08856:  MOVFF  00,408
0885A:  MOVLB  0
0885C:  CALL   19A6
08860:  MOVFF  3F0,FEA
08864:  MOVFF  3EF,FE9
08868:  MOVFF  03,407
0886C:  MOVFF  02,406
08870:  MOVFF  01,405
08874:  MOVFF  00,404
08878:  CALL   3CB8
0887C:  MOVFF  01,3A6
....................                if(G2<0) 
08880:  MOVLB  3
08882:  BTFSC  xA6.7
08884:  BRA    8888
08886:  BRA    888E
....................                   sg2=10; 
08888:  MOVLW  0A
0888A:  MOVWF  xA8
....................                else 
0888C:  BRA    8892
....................                   sg2=5; 
0888E:  MOVLW  05
08890:  MOVWF  xA8
....................                    
....................                write_eeprom(43,(int8)G2); 
08892:  CLRF   FAA
08894:  MOVLW  2B
08896:  MOVWF  FA9
08898:  MOVFF  3A6,FA8
0889C:  BCF    FA6.6
0889E:  BCF    FA6.7
088A0:  BSF    FA6.2
088A2:  MOVF   FF2,W
088A4:  MOVWF  00
088A6:  BCF    FF2.6
088A8:  BCF    FF2.7
088AA:  MOVLB  F
088AC:  MOVLW  55
088AE:  MOVWF  FA7
088B0:  MOVLW  AA
088B2:  MOVWF  FA7
088B4:  BSF    FA6.1
088B6:  BTFSC  FA6.1
088B8:  BRA    88B6
088BA:  BCF    FA6.2
088BC:  MOVF   00,W
088BE:  IORWF  FF2,F
....................                delay_ms(10); 
088C0:  MOVLW  0A
088C2:  MOVLB  4
088C4:  MOVWF  x04
088C6:  MOVLB  0
088C8:  CALL   179C
....................                write_eeprom(45,(int8)sg2); 
088CC:  CLRF   FAA
088CE:  MOVLW  2D
088D0:  MOVWF  FA9
088D2:  MOVFF  3A8,FA8
088D6:  BCF    FA6.6
088D8:  BCF    FA6.7
088DA:  BSF    FA6.2
088DC:  MOVF   FF2,W
088DE:  MOVWF  00
088E0:  BCF    FF2.6
088E2:  BCF    FF2.7
088E4:  MOVLB  F
088E6:  MOVLW  55
088E8:  MOVWF  FA7
088EA:  MOVLW  AA
088EC:  MOVWF  FA7
088EE:  BSF    FA6.1
088F0:  BTFSC  FA6.1
088F2:  BRA    88F0
088F4:  BCF    FA6.2
088F6:  MOVF   00,W
088F8:  IORWF  FF2,F
....................                delay_ms(10); 
088FA:  MOVLW  0A
088FC:  MOVLB  4
088FE:  MOVWF  x04
08900:  MOVLB  0
08902:  CALL   179C
....................                Buzzer_on; 
08906:  BSF    F8C.0
08908:  BCF    F95.0
....................                delay_ms(1000); 
0890A:  MOVLW  04
0890C:  MOVLB  3
0890E:  MOVWF  xEF
08910:  MOVLW  FA
08912:  MOVLB  4
08914:  MOVWF  x04
08916:  MOVLB  0
08918:  CALL   179C
0891C:  MOVLB  3
0891E:  DECFSZ xEF,F
08920:  BRA    8910
....................                Buzzer_off; 
08922:  BCF    F8C.0
08924:  BCF    F95.0
....................                delay_ms(1000); 
08926:  MOVLW  04
08928:  MOVWF  xEF
0892A:  MOVLW  FA
0892C:  MOVLB  4
0892E:  MOVWF  x04
08930:  MOVLB  0
08932:  CALL   179C
08936:  MOVLB  3
08938:  DECFSZ xEF,F
0893A:  BRA    892A
....................                Buzzer_on; 
0893C:  BSF    F8C.0
0893E:  BCF    F95.0
....................                delay_ms(1000); 
08940:  MOVLW  04
08942:  MOVWF  xEF
08944:  MOVLW  FA
08946:  MOVLB  4
08948:  MOVWF  x04
0894A:  MOVLB  0
0894C:  CALL   179C
08950:  MOVLB  3
08952:  DECFSZ xEF,F
08954:  BRA    8944
....................                Buzzer_off; 
08956:  BCF    F8C.0
08958:  BCF    F95.0
0895A:  MOVLB  0
....................             } 
....................          } 
....................      } 
.................... //_--------------------------------------------------------------------------------------------------------------------------------------------------------     
....................  
.................... //_--------------------------------------------------------------------------------------------------------------------------------------------------------       
....................       if(Menu==7){ //Menu de Configuracin de Fecha y Hora 
0895C:  MOVLB  3
0895E:  MOVF   x5B,W
08960:  SUBLW  07
08962:  BTFSS  FD8.2
08964:  BRA    8D84
....................        
....................          if(RX_Buffer[4]==0x0a){//Selecciono Hora 
08966:  MOVF   34,W
08968:  SUBLW  0A
0896A:  BNZ   8970
....................             Opcion=4; 
0896C:  MOVLW  04
0896E:  MOVWF  x63
....................          } 
....................           
....................          if(RX_Buffer[4]==0x0b){//Selecciono Minuto 
08970:  MOVF   34,W
08972:  SUBLW  0B
08974:  BNZ   897A
....................             Opcion=5; 
08976:  MOVLW  05
08978:  MOVWF  x63
....................          } 
....................           
....................          if(RX_Buffer[4]==0x0c){//Selecciono Dia 
0897A:  MOVF   34,W
0897C:  SUBLW  0C
0897E:  BNZ   8984
....................             Opcion=1; 
08980:  MOVLW  01
08982:  MOVWF  x63
....................          } 
....................           
....................          if(RX_Buffer[4]==0x0d){//Selecciono Hora 
08984:  MOVF   34,W
08986:  SUBLW  0D
08988:  BNZ   898E
....................             Opcion=2; 
0898A:  MOVLW  02
0898C:  MOVWF  x63
....................          } 
....................           
....................          if(RX_Buffer[4]==0x0e){//Selecciono Year 
0898E:  MOVF   34,W
08990:  SUBLW  0E
08992:  BNZ   8998
....................             Opcion=3; 
08994:  MOVLW  03
08996:  MOVWF  x63
....................          } 
....................           
....................          if(RIGHT){ 
08998:  BSF    F93.2
0899A:  BTFSC  F81.2
0899C:  BRA    89B4
....................             delay_ms(200); 
0899E:  MOVLW  C8
089A0:  MOVLB  4
089A2:  MOVWF  x04
089A4:  MOVLB  0
089A6:  CALL   179C
....................             if(RIGHT){ 
089AA:  BSF    F93.2
089AC:  BTFSC  F81.2
089AE:  BRA    89B6
....................                Opcion++; 
089B0:  MOVLB  3
089B2:  INCF   x63,F
089B4:  MOVLB  0
....................             } 
....................          } 
....................          if(Opcion>5) 
089B6:  MOVLB  3
089B8:  MOVF   x63,W
089BA:  SUBLW  05
089BC:  BC    89C2
....................             Opcion=1; 
089BE:  MOVLW  01
089C0:  MOVWF  x63
....................          if(Opcion<1) 
089C2:  MOVF   x63,F
089C4:  BNZ   89CA
....................             Opcion=5; 
089C6:  MOVLW  05
089C8:  MOVWF  x63
....................              
....................          if(RX_Buffer[4]==0x11 || LEFT){//Selecciono Regresar 
089CA:  MOVF   34,W
089CC:  SUBLW  11
089CE:  BZ    89D6
089D0:  BSF    F93.3
089D2:  BTFSC  F81.3
089D4:  BRA    8AE6
....................             printf("page MenuPrincipal"); 
089D6:  MOVLW  1E
089D8:  MOVWF  FF6
089DA:  MOVLW  0D
089DC:  MOVWF  FF7
089DE:  MOVLW  00
089E0:  MOVWF  FF8
089E2:  MOVLB  0
089E4:  CALL   3506
....................             SendDataDisplay();   
089E8:  CALL   3538
....................             PantallaPrincipal=0; 
089EC:  MOVLB  2
089EE:  CLRF   xDC
....................             Op=OFF; 
089F0:  MOVLB  0
089F2:  BCF    xA1.7
....................             Op2=OFF; 
089F4:  BCF    xA2.0
....................              
....................             if(esBisiesto(YearTx)) 
089F6:  MOVFF  39C,3EF
089FA:  CALL   4732
089FE:  MOVF   01,F
08A00:  BZ    8A1C
....................                Modulo=Bisiesto[MesTx]; 
08A02:  CLRF   03
08A04:  MOVLB  3
08A06:  MOVF   x9D,W
08A08:  ADDLW  93
08A0A:  MOVWF  FE9
08A0C:  MOVLW  00
08A0E:  ADDWFC 03,W
08A10:  MOVWF  FEA
08A12:  MOVFF  FEF,2DE
08A16:  MOVLB  2
....................             else 
08A18:  BRA    8A32
08A1A:  MOVLB  0
....................                Modulo=Regular[MesTx]; 
08A1C:  CLRF   03
08A1E:  MOVLB  3
08A20:  MOVF   x9D,W
08A22:  ADDLW  87
08A24:  MOVWF  FE9
08A26:  MOVLW  00
08A28:  ADDWFC 03,W
08A2A:  MOVWF  FEA
08A2C:  MOVFF  FEF,2DE
08A30:  MOVLB  2
....................           
....................             dowTx=((YearTx-1)%7+((YearTx-1)/4-3*((YearTx-1)/100+1)/4)%7+Modulo+DiaTx%7)%7; 
08A32:  MOVLW  01
08A34:  MOVLB  3
08A36:  SUBWF  x9C,W
08A38:  MOVWF  xF0
08A3A:  MOVWF  xF9
08A3C:  MOVLW  07
08A3E:  MOVWF  xFA
08A40:  MOVLB  0
08A42:  CALL   42A8
08A46:  MOVFF  00,3EF
08A4A:  MOVLW  01
08A4C:  MOVLB  3
08A4E:  SUBWF  x9C,W
08A50:  MOVWF  00
08A52:  RRCF   00,W
08A54:  MOVWF  xF0
08A56:  RRCF   xF0,F
08A58:  MOVLW  3F
08A5A:  ANDWF  xF0,F
08A5C:  MOVLW  01
08A5E:  SUBWF  x9C,W
08A60:  MOVWF  xF2
08A62:  MOVWF  xF9
08A64:  MOVLW  64
08A66:  MOVWF  xFA
08A68:  MOVLB  0
08A6A:  CALL   42A8
08A6E:  MOVLW  01
08A70:  ADDWF  01,W
08A72:  MULLW  03
08A74:  MOVFF  FF3,00
08A78:  RRCF   00,F
08A7A:  RRCF   00,F
08A7C:  MOVLW  3F
08A7E:  ANDWF  00,F
08A80:  MOVF   00,W
08A82:  MOVLB  3
08A84:  SUBWF  xF0,W
08A86:  MOVWF  xF1
08A88:  MOVWF  xF9
08A8A:  MOVLW  07
08A8C:  MOVWF  xFA
08A8E:  MOVLB  0
08A90:  CALL   42A8
08A94:  MOVF   00,W
08A96:  MOVLB  3
08A98:  ADDWF  xEF,W
08A9A:  MOVLB  2
08A9C:  ADDWF  xDE,W
08A9E:  MOVLB  3
08AA0:  MOVWF  xEF
08AA2:  MOVFF  39E,3F9
08AA6:  MOVLW  07
08AA8:  MOVWF  xFA
08AAA:  MOVLB  0
08AAC:  CALL   42A8
08AB0:  MOVF   00,W
08AB2:  MOVLB  3
08AB4:  ADDWF  xEF,W
08AB6:  MOVWF  xF0
08AB8:  MOVWF  xF9
08ABA:  MOVLW  07
08ABC:  MOVWF  xFA
08ABE:  MOVLB  0
08AC0:  CALL   42A8
08AC4:  MOVFF  00,3A2
....................             rtc_set_datetime(DiaTx,MesTx,YearTx,dowTx,HoraTx,MinutoTx); 
08AC8:  MOVFF  39E,3EF
08ACC:  MOVFF  39D,3F0
08AD0:  MOVFF  39C,3F1
08AD4:  MOVFF  3A2,3F2
08AD8:  MOVFF  39F,3F3
08ADC:  MOVFF  3A0,3F4
08AE0:  GOTO   47B4
08AE4:  MOVLB  3
....................          } 
....................           
....................          if((RX_Buffer[4]==0x2a)|| UP){//Tecla Arriba Oprimida 
08AE6:  MOVF   34,W
08AE8:  SUBLW  2A
08AEA:  BZ    8AF2
08AEC:  BSF    F93.0
08AEE:  BTFSC  F81.0
08AF0:  BRA    8BF0
....................             delay_ms(200); 
08AF2:  MOVLW  C8
08AF4:  MOVLB  4
08AF6:  MOVWF  x04
08AF8:  MOVLB  0
08AFA:  CALL   179C
....................             if((RX_Buffer[4]==0x2a)|| UP){    
08AFE:  MOVF   34,W
08B00:  SUBLW  2A
08B02:  BZ    8B0A
08B04:  BSF    F93.0
08B06:  BTFSC  F81.0
08B08:  BRA    8BF2
....................                if(Opcion==1){ 
08B0A:  MOVLB  3
08B0C:  DECFSZ x63,W
08B0E:  BRA    8B9C
....................                   if(MesTx==2){ 
08B10:  MOVF   x9D,W
08B12:  SUBLW  02
08B14:  BNZ   8B4A
....................                      if(esBisiesto(YearTx)){ 
08B16:  MOVFF  39C,3EF
08B1A:  MOVLB  0
08B1C:  CALL   4732
08B20:  MOVF   01,F
08B22:  BZ    8B38
....................                         if(DiaTx<29) 
08B24:  MOVLB  3
08B26:  MOVF   x9E,W
08B28:  SUBLW  1C
08B2A:  BNC   8B30
....................                            DiaTx++; 
08B2C:  INCF   x9E,F
....................                         else 
08B2E:  BRA    8B34
....................                            DiaTx=1;    
08B30:  MOVLW  01
08B32:  MOVWF  x9E
....................                      }else{ 
08B34:  BRA    8B48
08B36:  MOVLB  0
....................                         if(DiaTx<28) 
08B38:  MOVLB  3
08B3A:  MOVF   x9E,W
08B3C:  SUBLW  1B
08B3E:  BNC   8B44
....................                            DiaTx++; 
08B40:  INCF   x9E,F
....................                         else 
08B42:  BRA    8B48
....................                            DiaTx=1;    
08B44:  MOVLW  01
08B46:  MOVWF  x9E
....................                      } 
....................                   }else{ 
08B48:  BRA    8B9A
....................                      if(MesTx<=7){ 
08B4A:  MOVF   x9D,W
08B4C:  SUBLW  07
08B4E:  BNC   8B76
....................                         if(MesTx % 2 ==0){ 
08B50:  MOVF   x9D,W
08B52:  ANDLW  01
08B54:  BNZ   8B66
....................                            if(DiaTx<30) 
08B56:  MOVF   x9E,W
08B58:  SUBLW  1D
08B5A:  BNC   8B60
....................                               DiaTx++;     
08B5C:  INCF   x9E,F
....................                            else 
08B5E:  BRA    8B64
....................                               DiaTx=1;    
08B60:  MOVLW  01
08B62:  MOVWF  x9E
....................                         }else{ 
08B64:  BRA    8B74
....................                            if(DiaTx<31) 
08B66:  MOVF   x9E,W
08B68:  SUBLW  1E
08B6A:  BNC   8B70
....................                               DiaTx++;     
08B6C:  INCF   x9E,F
....................                            else 
08B6E:  BRA    8B74
....................                               DiaTx=1;    
08B70:  MOVLW  01
08B72:  MOVWF  x9E
....................                         }     
....................                      }else{ 
08B74:  BRA    8B9A
....................                         if(MesTx % 2 ==0){ 
08B76:  MOVF   x9D,W
08B78:  ANDLW  01
08B7A:  BNZ   8B8C
....................                            if(DiaTx<31) 
08B7C:  MOVF   x9E,W
08B7E:  SUBLW  1E
08B80:  BNC   8B86
....................                               DiaTx++;   
08B82:  INCF   x9E,F
....................                            else 
08B84:  BRA    8B8A
....................                               DiaTx=1; 
08B86:  MOVLW  01
08B88:  MOVWF  x9E
....................                         }else{ 
08B8A:  BRA    8B9A
....................                            if(DiaTx<30) 
08B8C:  MOVF   x9E,W
08B8E:  SUBLW  1D
08B90:  BNC   8B96
....................                               DiaTx++;     
08B92:  INCF   x9E,F
....................                            else 
08B94:  BRA    8B9A
....................                               DiaTx=1; 
08B96:  MOVLW  01
08B98:  MOVWF  x9E
....................                         }     
....................                      } 
....................                   } 
....................                }else if(Opcion==2){ 
08B9A:  BRA    8BEC
08B9C:  MOVF   x63,W
08B9E:  SUBLW  02
08BA0:  BNZ   8BB2
....................                   if(MesTx<12) 
08BA2:  MOVF   x9D,W
08BA4:  SUBLW  0B
08BA6:  BNC   8BAC
....................                      MesTx++; 
08BA8:  INCF   x9D,F
....................                   else 
08BAA:  BRA    8BB0
....................                      MesTx=1; 
08BAC:  MOVLW  01
08BAE:  MOVWF  x9D
....................                }else if(Opcion==3){ 
08BB0:  BRA    8BEC
08BB2:  MOVF   x63,W
08BB4:  SUBLW  03
08BB6:  BNZ   8BC6
....................                   if(YearTx<99) 
08BB8:  MOVF   x9C,W
08BBA:  SUBLW  62
08BBC:  BNC   8BC2
....................                      YearTx++; 
08BBE:  INCF   x9C,F
....................                   else  
08BC0:  BRA    8BC4
....................                      YearTx=0; 
08BC2:  CLRF   x9C
....................                }else if(Opcion==4){ 
08BC4:  BRA    8BEC
08BC6:  MOVF   x63,W
08BC8:  SUBLW  04
08BCA:  BNZ   8BDA
....................                   if(HoraTx<24) 
08BCC:  MOVF   x9F,W
08BCE:  SUBLW  17
08BD0:  BNC   8BD6
....................                      HoraTx++; 
08BD2:  INCF   x9F,F
....................                   else 
08BD4:  BRA    8BD8
....................                      HoraTx=0; 
08BD6:  CLRF   x9F
....................                }else if(Opcion==5){ 
08BD8:  BRA    8BEC
08BDA:  MOVF   x63,W
08BDC:  SUBLW  05
08BDE:  BNZ   8BEC
....................                   if(MinutoTx<59) 
08BE0:  MOVF   xA0,W
08BE2:  SUBLW  3A
08BE4:  BNC   8BEA
....................                      MinutoTx++; 
08BE6:  INCF   xA0,F
....................                   else 
08BE8:  BRA    8BEC
....................                      MinutoTx=0; 
08BEA:  CLRF   xA0
....................                } 
....................                RX_Buffer[4]=0x00; 
08BEC:  CLRF   34
....................                RX_Buffer2[4]=0x00; 
08BEE:  CLRF   3F
08BF0:  MOVLB  0
....................             } 
....................          } 
....................           
....................          if(RX_Buffer[4]==0x2b || DOWN){//Tecla Abajo Oprimida 
08BF2:  MOVF   34,W
08BF4:  SUBLW  2B
08BF6:  BZ    8BFE
08BF8:  BSF    F93.1
08BFA:  BTFSC  F81.1
08BFC:  BRA    8C7A
....................             delay_ms(200); 
08BFE:  MOVLW  C8
08C00:  MOVLB  4
08C02:  MOVWF  x04
08C04:  MOVLB  0
08C06:  CALL   179C
....................             if(RX_Buffer[4]==0x2b || DOWN){    
08C0A:  MOVF   34,W
08C0C:  SUBLW  2B
08C0E:  BZ    8C16
08C10:  BSF    F93.1
08C12:  BTFSC  F81.1
08C14:  BRA    8C7A
....................                if(Opcion==1){ 
08C16:  MOVLB  3
08C18:  DECFSZ x63,W
08C1A:  BRA    8C24
....................                   if(DiaTx>0) 
08C1C:  MOVF   x9E,F
08C1E:  BZ    8C22
....................                      DiaTx--; 
08C20:  DECF   x9E,F
....................                }else if(Opcion==2){ 
08C22:  BRA    8C74
08C24:  MOVF   x63,W
08C26:  SUBLW  02
08C28:  BNZ   8C3A
....................                   if(MesTx>1) 
08C2A:  MOVF   x9D,W
08C2C:  SUBLW  01
08C2E:  BC    8C34
....................                      MesTx--; 
08C30:  DECF   x9D,F
....................                   else 
08C32:  BRA    8C38
....................                      MesTx=12; 
08C34:  MOVLW  0C
08C36:  MOVWF  x9D
....................                }else if(Opcion==3){ 
08C38:  BRA    8C74
08C3A:  MOVF   x63,W
08C3C:  SUBLW  03
08C3E:  BNZ   8C4E
....................                   if(YearTx>0) 
08C40:  MOVF   x9C,F
08C42:  BZ    8C48
....................                      YearTx--; 
08C44:  DECF   x9C,F
....................                   else 
08C46:  BRA    8C4C
....................                      YearTx=99; 
08C48:  MOVLW  63
08C4A:  MOVWF  x9C
....................                }else if(Opcion==4){ 
08C4C:  BRA    8C74
08C4E:  MOVF   x63,W
08C50:  SUBLW  04
08C52:  BNZ   8C62
....................                   if(HoraTx>0) 
08C54:  MOVF   x9F,F
08C56:  BZ    8C5C
....................                      HoraTx--; 
08C58:  DECF   x9F,F
....................                   else 
08C5A:  BRA    8C60
....................                      HoraTx=23; 
08C5C:  MOVLW  17
08C5E:  MOVWF  x9F
....................                }else if(Opcion==5){ 
08C60:  BRA    8C74
08C62:  MOVF   x63,W
08C64:  SUBLW  05
08C66:  BNZ   8C74
....................                   if(MinutoTx>0) 
08C68:  MOVF   xA0,F
08C6A:  BZ    8C70
....................                      MinutoTx--; 
08C6C:  DECF   xA0,F
....................                   else 
08C6E:  BRA    8C74
....................                      MinutoTx=59; 
08C70:  MOVLW  3B
08C72:  MOVWF  xA0
....................                } 
....................                RX_Buffer[4]=0x00; 
08C74:  CLRF   34
....................                RX_Buffer2[4]=0x00; 
08C76:  CLRF   3F
08C78:  MOVLB  0
....................             } 
....................          } 
....................        
....................       printf("thora.txt=\"%02u\"",HoraTx); 
08C7A:  MOVLW  32
08C7C:  MOVWF  FF6
08C7E:  MOVLW  0D
08C80:  MOVWF  FF7
08C82:  MOVLW  00
08C84:  MOVWF  FF8
08C86:  MOVLW  0B
08C88:  MOVLB  3
08C8A:  MOVWF  xF3
08C8C:  MOVLB  0
08C8E:  CALL   4276
08C92:  MOVFF  39F,3F1
08C96:  MOVLW  01
08C98:  MOVLB  3
08C9A:  MOVWF  xF2
08C9C:  MOVLB  0
08C9E:  CALL   42D4
08CA2:  MOVLW  22
08CA4:  BTFSS  F9E.4
08CA6:  BRA    8CA4
08CA8:  MOVWF  FAD
....................       SendDataDisplay(); 
08CAA:  CALL   3538
....................       printf("tminutos.txt=\"%02u\"",MinutoTx); 
08CAE:  MOVLW  44
08CB0:  MOVWF  FF6
08CB2:  MOVLW  0D
08CB4:  MOVWF  FF7
08CB6:  MOVLW  00
08CB8:  MOVWF  FF8
08CBA:  MOVLW  0E
08CBC:  MOVLB  3
08CBE:  MOVWF  xF3
08CC0:  MOVLB  0
08CC2:  CALL   4276
08CC6:  MOVFF  3A0,3F1
08CCA:  MOVLW  01
08CCC:  MOVLB  3
08CCE:  MOVWF  xF2
08CD0:  MOVLB  0
08CD2:  CALL   42D4
08CD6:  MOVLW  22
08CD8:  BTFSS  F9E.4
08CDA:  BRA    8CD8
08CDC:  MOVWF  FAD
....................       SendDataDisplay(); 
08CDE:  CALL   3538
....................       printf("tdia.txt=\"%02u\"",DiaTx); 
08CE2:  MOVLW  58
08CE4:  MOVWF  FF6
08CE6:  MOVLW  0D
08CE8:  MOVWF  FF7
08CEA:  MOVLW  00
08CEC:  MOVWF  FF8
08CEE:  MOVLW  0A
08CF0:  MOVLB  3
08CF2:  MOVWF  xF3
08CF4:  MOVLB  0
08CF6:  CALL   4276
08CFA:  MOVFF  39E,3F1
08CFE:  MOVLW  01
08D00:  MOVLB  3
08D02:  MOVWF  xF2
08D04:  MOVLB  0
08D06:  CALL   42D4
08D0A:  MOVLW  22
08D0C:  BTFSS  F9E.4
08D0E:  BRA    8D0C
08D10:  MOVWF  FAD
....................       SendDataDisplay(); 
08D12:  CALL   3538
....................       printf("tmes.txt=\"%02u\"",MesTx); 
08D16:  MOVLW  68
08D18:  MOVWF  FF6
08D1A:  MOVLW  0D
08D1C:  MOVWF  FF7
08D1E:  MOVLW  00
08D20:  MOVWF  FF8
08D22:  MOVLW  0A
08D24:  MOVLB  3
08D26:  MOVWF  xF3
08D28:  MOVLB  0
08D2A:  CALL   4276
08D2E:  MOVFF  39D,3F1
08D32:  MOVLW  01
08D34:  MOVLB  3
08D36:  MOVWF  xF2
08D38:  MOVLB  0
08D3A:  CALL   42D4
08D3E:  MOVLW  22
08D40:  BTFSS  F9E.4
08D42:  BRA    8D40
08D44:  MOVWF  FAD
....................       SendDataDisplay(); 
08D46:  CALL   3538
....................       printf("tyear.txt=\"%02u\"",YearTx); 
08D4A:  MOVLW  78
08D4C:  MOVWF  FF6
08D4E:  MOVLW  0D
08D50:  MOVWF  FF7
08D52:  MOVLW  00
08D54:  MOVWF  FF8
08D56:  MOVLW  0B
08D58:  MOVLB  3
08D5A:  MOVWF  xF3
08D5C:  MOVLB  0
08D5E:  CALL   4276
08D62:  MOVFF  39C,3F1
08D66:  MOVLW  01
08D68:  MOVLB  3
08D6A:  MOVWF  xF2
08D6C:  MOVLB  0
08D6E:  CALL   42D4
08D72:  MOVLW  22
08D74:  BTFSS  F9E.4
08D76:  BRA    8D74
08D78:  MOVWF  FAD
....................       SendDataDisplay(); 
08D7A:  CALL   3538
....................       LimitaDia();   
08D7E:  GOTO   4870
08D82:  MOVLB  3
....................     } 
.................... //_--------------------------------------------------------------------------------------------------------------------------------------------------------        
....................  
.................... //_-------------------------------------------------------------------------------------------------------------------------------------------------------- 
....................    if(Menu==8){ //Menu Ciclos Personalizados 
08D84:  MOVF   x5B,W
08D86:  SUBLW  08
08D88:  BTFSS  FD8.2
08D8A:  GOTO   9B8A
....................       printf("fecha.txt=\"T:%3.1fC Fecha:%02u/%02u/20%02u Hora: %02u:%02u:%02u\"",Temperatura,Dia,Mes,Year,Hora,Minuto,Segundo); 
08D8E:  MOVLW  8A
08D90:  MOVWF  FF6
08D92:  MOVLW  0D
08D94:  MOVWF  FF7
08D96:  MOVLW  00
08D98:  MOVWF  FF8
08D9A:  MOVLW  0D
08D9C:  MOVWF  xF3
08D9E:  MOVLB  0
08DA0:  CALL   4276
08DA4:  MOVLW  02
08DA6:  MOVWF  FE9
08DA8:  MOVFF  324,3F6
08DAC:  MOVFF  323,3F5
08DB0:  MOVFF  322,3F4
08DB4:  MOVFF  321,3F3
08DB8:  MOVLW  01
08DBA:  MOVLB  3
08DBC:  MOVWF  xF7
08DBE:  MOVLB  0
08DC0:  CALL   4416
08DC4:  MOVLW  9C
08DC6:  MOVWF  FF6
08DC8:  MOVLW  0D
08DCA:  MOVWF  FF7
08DCC:  MOVLW  00
08DCE:  MOVWF  FF8
08DD0:  MOVLW  09
08DD2:  MOVLB  3
08DD4:  MOVWF  xF3
08DD6:  MOVLB  0
08DD8:  CALL   4276
08DDC:  MOVFF  397,3F1
08DE0:  MOVLW  01
08DE2:  MOVLB  3
08DE4:  MOVWF  xF2
08DE6:  MOVLB  0
08DE8:  CALL   42D4
08DEC:  MOVLW  2F
08DEE:  BTFSS  F9E.4
08DF0:  BRA    8DEE
08DF2:  MOVWF  FAD
08DF4:  MOVFF  396,3F1
08DF8:  MOVLW  01
08DFA:  MOVLB  3
08DFC:  MOVWF  xF2
08DFE:  MOVLB  0
08E00:  CALL   42D4
08E04:  MOVLW  2F
08E06:  BTFSS  F9E.4
08E08:  BRA    8E06
08E0A:  MOVWF  FAD
08E0C:  MOVLW  32
08E0E:  BTFSS  F9E.4
08E10:  BRA    8E0E
08E12:  MOVWF  FAD
08E14:  MOVLW  30
08E16:  BTFSS  F9E.4
08E18:  BRA    8E16
08E1A:  MOVWF  FAD
08E1C:  MOVFF  395,3F1
08E20:  MOVLW  01
08E22:  MOVLB  3
08E24:  MOVWF  xF2
08E26:  MOVLB  0
08E28:  CALL   42D4
08E2C:  MOVLW  B5
08E2E:  MOVWF  FF6
08E30:  MOVLW  0D
08E32:  MOVWF  FF7
08E34:  MOVLW  00
08E36:  MOVWF  FF8
08E38:  MOVLW  07
08E3A:  MOVLB  3
08E3C:  MOVWF  xF3
08E3E:  MOVLB  0
08E40:  CALL   4276
08E44:  MOVFF  398,3F1
08E48:  MOVLW  01
08E4A:  MOVLB  3
08E4C:  MOVWF  xF2
08E4E:  MOVLB  0
08E50:  CALL   42D4
08E54:  MOVLW  3A
08E56:  BTFSS  F9E.4
08E58:  BRA    8E56
08E5A:  MOVWF  FAD
08E5C:  MOVFF  399,3F1
08E60:  MOVLW  01
08E62:  MOVLB  3
08E64:  MOVWF  xF2
08E66:  MOVLB  0
08E68:  CALL   42D4
08E6C:  MOVLW  3A
08E6E:  BTFSS  F9E.4
08E70:  BRA    8E6E
08E72:  MOVWF  FAD
08E74:  MOVFF  39A,3F1
08E78:  MOVLW  01
08E7A:  MOVLB  3
08E7C:  MOVWF  xF2
08E7E:  MOVLB  0
08E80:  CALL   42D4
08E84:  MOVLW  22
08E86:  BTFSS  F9E.4
08E88:  BRA    8E86
08E8A:  MOVWF  FAD
....................       SendDataDisplay(); 
08E8C:  CALL   3538
....................       GuardaEEPROM=OFF; 
08E90:  BCF    xA2.3
....................        
....................       if(RX_Buffer[4]>0x00 && RX_Buffer[4]<0x04){//Personalizados 
08E92:  MOVF   34,F
08E94:  BTFSC  FD8.2
08E96:  BRA    90C4
08E98:  MOVF   34,W
08E9A:  SUBLW  03
08E9C:  BTFSS  FD8.0
08E9E:  BRA    90C4
....................          printf("ciclo.txt=\"CICLO P%02u\"",RX_Buffer[4]+0x04); 
08EA0:  MOVLW  04
08EA2:  ADDWF  34,W
08EA4:  MOVLB  3
08EA6:  MOVWF  xEF
08EA8:  MOVLW  CC
08EAA:  MOVWF  FF6
08EAC:  MOVLW  0D
08EAE:  MOVWF  FF7
08EB0:  MOVLW  00
08EB2:  MOVWF  FF8
08EB4:  MOVLW  12
08EB6:  MOVWF  xF3
08EB8:  MOVLB  0
08EBA:  CALL   4276
08EBE:  MOVFF  3EF,3F1
08EC2:  MOVLW  01
08EC4:  MOVLB  3
08EC6:  MOVWF  xF2
08EC8:  MOVLB  0
08ECA:  CALL   42D4
08ECE:  MOVLW  22
08ED0:  BTFSS  F9E.4
08ED2:  BRA    8ED0
08ED4:  MOVWF  FAD
....................          SendDataDisplay();           
08ED6:  CALL   3538
....................          printf("temp.txt=\"%u\"",CiclosPersonalizados[RX_Buffer[4]-1].Temperatura); 
08EDA:  MOVLW  01
08EDC:  SUBWF  34,W
08EDE:  MULLW  0A
08EE0:  MOVF   FF3,W
08EE2:  MOVLB  3
08EE4:  CLRF   xF0
08EE6:  MOVWF  xEF
08EE8:  MOVLW  C7
08EEA:  ADDWF  xEF,W
08EEC:  MOVWF  FE9
08EEE:  MOVLW  03
08EF0:  ADDWFC xF0,W
08EF2:  MOVWF  FEA
08EF4:  MOVFF  FEF,3EF
08EF8:  MOVLW  E4
08EFA:  MOVWF  FF6
08EFC:  MOVLW  0D
08EFE:  MOVWF  FF7
08F00:  MOVLW  00
08F02:  MOVWF  FF8
08F04:  MOVLW  0A
08F06:  MOVWF  xF3
08F08:  MOVLB  0
08F0A:  CALL   4276
08F0E:  MOVFF  3EF,3F1
08F12:  MOVLW  1B
08F14:  MOVLB  3
08F16:  MOVWF  xF2
08F18:  MOVLB  0
08F1A:  CALL   42D4
08F1E:  MOVLW  22
08F20:  BTFSS  F9E.4
08F22:  BRA    8F20
08F24:  MOVWF  FAD
....................          SendDataDisplay(); 
08F26:  CALL   3538
....................          printf("test.txt=\"%02u:%02u\"",CiclosPersonalizados[RX_Buffer[4]-1].Minutoest,CiclosPersonalizados[RX_Buffer[4]-1].Segundoest); 
08F2A:  MOVLW  01
08F2C:  SUBWF  34,W
08F2E:  MULLW  0A
08F30:  MOVF   FF3,W
08F32:  MOVLB  3
08F34:  CLRF   xF0
08F36:  MOVWF  xEF
08F38:  MOVLW  09
08F3A:  ADDWF  xEF,W
08F3C:  MOVWF  01
08F3E:  MOVLW  00
08F40:  ADDWFC xF0,W
08F42:  MOVWF  03
08F44:  MOVF   01,W
08F46:  ADDLW  C7
08F48:  MOVWF  FE9
08F4A:  MOVLW  03
08F4C:  ADDWFC 03,W
08F4E:  MOVWF  FEA
08F50:  MOVFF  FEF,3EF
08F54:  MOVLW  01
08F56:  SUBWF  34,W
08F58:  MULLW  0A
08F5A:  MOVF   FF3,W
08F5C:  CLRF   xF1
08F5E:  MOVWF  xF0
08F60:  MOVLW  03
08F62:  ADDWF  xF0,W
08F64:  MOVWF  01
08F66:  MOVLW  00
08F68:  ADDWFC xF1,W
08F6A:  MOVWF  03
08F6C:  MOVF   01,W
08F6E:  ADDLW  C7
08F70:  MOVWF  FE9
08F72:  MOVLW  03
08F74:  ADDWFC 03,W
08F76:  MOVWF  FEA
08F78:  MOVFF  FEF,3F0
08F7C:  MOVLW  F2
08F7E:  MOVWF  FF6
08F80:  MOVLW  0D
08F82:  MOVWF  FF7
08F84:  MOVLW  00
08F86:  MOVWF  FF8
08F88:  MOVLW  0A
08F8A:  MOVWF  xF3
08F8C:  MOVLB  0
08F8E:  CALL   4276
08F92:  MOVFF  3EF,3F1
08F96:  MOVLW  01
08F98:  MOVLB  3
08F9A:  MOVWF  xF2
08F9C:  MOVLB  0
08F9E:  CALL   42D4
08FA2:  MOVLW  3A
08FA4:  BTFSS  F9E.4
08FA6:  BRA    8FA4
08FA8:  MOVWF  FAD
08FAA:  MOVFF  3F0,3F1
08FAE:  MOVLW  01
08FB0:  MOVLB  3
08FB2:  MOVWF  xF2
08FB4:  MOVLB  0
08FB6:  CALL   42D4
08FBA:  MOVLW  22
08FBC:  BTFSS  F9E.4
08FBE:  BRA    8FBC
08FC0:  MOVWF  FAD
....................          SendDataDisplay(); 
08FC2:  CALL   3538
....................          printf("tsec.txt=\"%02u:%02u\"",CiclosPersonalizados[RX_Buffer[4]-1].Minutosec,CiclosPersonalizados[RX_Buffer[4]-1].Segundosec); 
08FC6:  MOVLW  01
08FC8:  SUBWF  34,W
08FCA:  MULLW  0A
08FCC:  MOVF   FF3,W
08FCE:  MOVLB  3
08FD0:  CLRF   xF0
08FD2:  MOVWF  xEF
08FD4:  MOVLW  04
08FD6:  ADDWF  xEF,W
08FD8:  MOVWF  01
08FDA:  MOVLW  00
08FDC:  ADDWFC xF0,W
08FDE:  MOVWF  03
08FE0:  MOVF   01,W
08FE2:  ADDLW  C7
08FE4:  MOVWF  FE9
08FE6:  MOVLW  03
08FE8:  ADDWFC 03,W
08FEA:  MOVWF  FEA
08FEC:  MOVFF  FEF,3EF
08FF0:  MOVLW  01
08FF2:  SUBWF  34,W
08FF4:  MULLW  0A
08FF6:  MOVF   FF3,W
08FF8:  CLRF   xF1
08FFA:  MOVWF  xF0
08FFC:  MOVLW  05
08FFE:  ADDWF  xF0,W
09000:  MOVWF  01
09002:  MOVLW  00
09004:  ADDWFC xF1,W
09006:  MOVWF  03
09008:  MOVF   01,W
0900A:  ADDLW  C7
0900C:  MOVWF  FE9
0900E:  MOVLW  03
09010:  ADDWFC 03,W
09012:  MOVWF  FEA
09014:  MOVFF  FEF,3F0
09018:  MOVLW  08
0901A:  MOVWF  FF6
0901C:  MOVLW  0E
0901E:  MOVWF  FF7
09020:  MOVLW  00
09022:  MOVWF  FF8
09024:  MOVLW  0A
09026:  MOVWF  xF3
09028:  MOVLB  0
0902A:  CALL   4276
0902E:  MOVFF  3EF,3F1
09032:  MOVLW  01
09034:  MOVLB  3
09036:  MOVWF  xF2
09038:  MOVLB  0
0903A:  CALL   42D4
0903E:  MOVLW  3A
09040:  BTFSS  F9E.4
09042:  BRA    9040
09044:  MOVWF  FAD
09046:  MOVFF  3F0,3F1
0904A:  MOVLW  01
0904C:  MOVLB  3
0904E:  MOVWF  xF2
09050:  MOVLB  0
09052:  CALL   42D4
09056:  MOVLW  22
09058:  BTFSS  F9E.4
0905A:  BRA    9058
0905C:  MOVWF  FAD
....................          SendDataDisplay(); 
0905E:  CALL   3538
....................          printf("desfogue.txt=\"%u\"",CiclosPersonalizados[RX_Buffer[4]-1].NivelDesfogue); 
09062:  MOVLW  01
09064:  SUBWF  34,W
09066:  MULLW  0A
09068:  MOVF   FF3,W
0906A:  MOVLB  3
0906C:  CLRF   xF0
0906E:  MOVWF  xEF
09070:  MOVLW  08
09072:  ADDWF  xEF,W
09074:  MOVWF  01
09076:  MOVLW  00
09078:  ADDWFC xF0,W
0907A:  MOVWF  03
0907C:  MOVF   01,W
0907E:  ADDLW  C7
09080:  MOVWF  FE9
09082:  MOVLW  03
09084:  ADDWFC 03,W
09086:  MOVWF  FEA
09088:  MOVFF  FEF,3EF
0908C:  MOVLW  1E
0908E:  MOVWF  FF6
09090:  MOVLW  0E
09092:  MOVWF  FF7
09094:  MOVLW  00
09096:  MOVWF  FF8
09098:  MOVLW  0E
0909A:  MOVWF  xF3
0909C:  MOVLB  0
0909E:  CALL   4276
090A2:  MOVFF  3EF,3F1
090A6:  MOVLW  1B
090A8:  MOVLB  3
090AA:  MOVWF  xF2
090AC:  MOVLB  0
090AE:  CALL   42D4
090B2:  MOVLW  22
090B4:  BTFSS  F9E.4
090B6:  BRA    90B4
090B8:  MOVWF  FAD
....................          SendDataDisplay(); 
090BA:  CALL   3538
....................          CicloLibre=RX_Buffer[4]; 
090BE:  MOVFF  34,337
....................       }else if(CicloLibre==0x00){ 
090C2:  BRA    935E
090C4:  MOVLB  3
090C6:  MOVF   x37,F
090C8:  BNZ   9134
....................          printf("ciclo.txt=\"CICLO P--\""); 
090CA:  MOVLW  30
090CC:  MOVWF  FF6
090CE:  MOVLW  0E
090D0:  MOVWF  FF7
090D2:  MOVLW  00
090D4:  MOVWF  FF8
090D6:  MOVLB  0
090D8:  CALL   3506
....................          SendDataDisplay();           
090DC:  CALL   3538
....................          printf("temp.txt=\"--\""); 
090E0:  MOVLW  46
090E2:  MOVWF  FF6
090E4:  MOVLW  0E
090E6:  MOVWF  FF7
090E8:  MOVLW  00
090EA:  MOVWF  FF8
090EC:  CALL   3506
....................          SendDataDisplay(); 
090F0:  CALL   3538
....................          printf("test.txt=\"--:--\""); 
090F4:  MOVLW  54
090F6:  MOVWF  FF6
090F8:  MOVLW  0E
090FA:  MOVWF  FF7
090FC:  MOVLW  00
090FE:  MOVWF  FF8
09100:  CALL   3506
....................          SendDataDisplay(); 
09104:  CALL   3538
....................          printf("tsec.txt=\"--:--\""); 
09108:  MOVLW  66
0910A:  MOVWF  FF6
0910C:  MOVLW  0E
0910E:  MOVWF  FF7
09110:  MOVLW  00
09112:  MOVWF  FF8
09114:  CALL   3506
....................          SendDataDisplay(); 
09118:  CALL   3538
....................          printf("desfogue.txt=\"--\""); 
0911C:  MOVLW  78
0911E:  MOVWF  FF6
09120:  MOVLW  0E
09122:  MOVWF  FF7
09124:  MOVLW  00
09126:  MOVWF  FF8
09128:  CALL   3506
....................          SendDataDisplay(); 
0912C:  CALL   3538
....................       }else if(CicloLibre>0 && CicloLibre<4){ 
09130:  BRA    935E
09132:  MOVLB  3
09134:  MOVF   x37,F
09136:  BTFSC  FD8.2
09138:  BRA    9360
0913A:  MOVF   x37,W
0913C:  SUBLW  03
0913E:  BTFSS  FD8.0
09140:  BRA    9360
....................          printf("ciclo.txt=\"CICLO P%02u\"",CicloLibre+0x04); 
09142:  MOVLW  04
09144:  ADDWF  x37,W
09146:  MOVWF  xEF
09148:  MOVLW  8A
0914A:  MOVWF  FF6
0914C:  MOVLW  0E
0914E:  MOVWF  FF7
09150:  MOVLW  00
09152:  MOVWF  FF8
09154:  MOVLW  12
09156:  MOVWF  xF3
09158:  MOVLB  0
0915A:  CALL   4276
0915E:  MOVFF  3EF,3F1
09162:  MOVLW  01
09164:  MOVLB  3
09166:  MOVWF  xF2
09168:  MOVLB  0
0916A:  CALL   42D4
0916E:  MOVLW  22
09170:  BTFSS  F9E.4
09172:  BRA    9170
09174:  MOVWF  FAD
....................          SendDataDisplay();           
09176:  CALL   3538
....................          printf("temp.txt=\"%u\"",CiclosPersonalizados[CicloLibre-1].Temperatura); 
0917A:  MOVLW  01
0917C:  MOVLB  3
0917E:  SUBWF  x37,W
09180:  MULLW  0A
09182:  MOVF   FF3,W
09184:  CLRF   xF0
09186:  MOVWF  xEF
09188:  MOVLW  C7
0918A:  ADDWF  xEF,W
0918C:  MOVWF  FE9
0918E:  MOVLW  03
09190:  ADDWFC xF0,W
09192:  MOVWF  FEA
09194:  MOVFF  FEF,3EF
09198:  MOVLW  A2
0919A:  MOVWF  FF6
0919C:  MOVLW  0E
0919E:  MOVWF  FF7
091A0:  MOVLW  00
091A2:  MOVWF  FF8
091A4:  MOVLW  0A
091A6:  MOVWF  xF3
091A8:  MOVLB  0
091AA:  CALL   4276
091AE:  MOVFF  3EF,3F1
091B2:  MOVLW  1B
091B4:  MOVLB  3
091B6:  MOVWF  xF2
091B8:  MOVLB  0
091BA:  CALL   42D4
091BE:  MOVLW  22
091C0:  BTFSS  F9E.4
091C2:  BRA    91C0
091C4:  MOVWF  FAD
....................          SendDataDisplay(); 
091C6:  CALL   3538
....................          printf("test.txt=\"%02u:%02u\"",CiclosPersonalizados[CicloLibre-1].Minutoest,CiclosPersonalizados[CicloLibre-1].Segundoest); 
091CA:  MOVLW  01
091CC:  MOVLB  3
091CE:  SUBWF  x37,W
091D0:  MULLW  0A
091D2:  MOVF   FF3,W
091D4:  CLRF   xF0
091D6:  MOVWF  xEF
091D8:  MOVLW  09
091DA:  ADDWF  xEF,W
091DC:  MOVWF  01
091DE:  MOVLW  00
091E0:  ADDWFC xF0,W
091E2:  MOVWF  03
091E4:  MOVF   01,W
091E6:  ADDLW  C7
091E8:  MOVWF  FE9
091EA:  MOVLW  03
091EC:  ADDWFC 03,W
091EE:  MOVWF  FEA
091F0:  MOVFF  FEF,3EF
091F4:  MOVLW  01
091F6:  SUBWF  x37,W
091F8:  MULLW  0A
091FA:  MOVF   FF3,W
091FC:  CLRF   xF1
091FE:  MOVWF  xF0
09200:  MOVLW  03
09202:  ADDWF  xF0,W
09204:  MOVWF  01
09206:  MOVLW  00
09208:  ADDWFC xF1,W
0920A:  MOVWF  03
0920C:  MOVF   01,W
0920E:  ADDLW  C7
09210:  MOVWF  FE9
09212:  MOVLW  03
09214:  ADDWFC 03,W
09216:  MOVWF  FEA
09218:  MOVFF  FEF,3F0
0921C:  MOVLW  B0
0921E:  MOVWF  FF6
09220:  MOVLW  0E
09222:  MOVWF  FF7
09224:  MOVLW  00
09226:  MOVWF  FF8
09228:  MOVLW  0A
0922A:  MOVWF  xF3
0922C:  MOVLB  0
0922E:  CALL   4276
09232:  MOVFF  3EF,3F1
09236:  MOVLW  01
09238:  MOVLB  3
0923A:  MOVWF  xF2
0923C:  MOVLB  0
0923E:  CALL   42D4
09242:  MOVLW  3A
09244:  BTFSS  F9E.4
09246:  BRA    9244
09248:  MOVWF  FAD
0924A:  MOVFF  3F0,3F1
0924E:  MOVLW  01
09250:  MOVLB  3
09252:  MOVWF  xF2
09254:  MOVLB  0
09256:  CALL   42D4
0925A:  MOVLW  22
0925C:  BTFSS  F9E.4
0925E:  BRA    925C
09260:  MOVWF  FAD
....................          SendDataDisplay(); 
09262:  CALL   3538
....................          printf("tsec.txt=\"%02u:%02u\"",CiclosPersonalizados[CicloLibre-1].Minutosec,CiclosPersonalizados[CicloLibre-1].Segundosec); 
09266:  MOVLW  01
09268:  MOVLB  3
0926A:  SUBWF  x37,W
0926C:  MULLW  0A
0926E:  MOVF   FF3,W
09270:  CLRF   xF0
09272:  MOVWF  xEF
09274:  MOVLW  04
09276:  ADDWF  xEF,W
09278:  MOVWF  01
0927A:  MOVLW  00
0927C:  ADDWFC xF0,W
0927E:  MOVWF  03
09280:  MOVF   01,W
09282:  ADDLW  C7
09284:  MOVWF  FE9
09286:  MOVLW  03
09288:  ADDWFC 03,W
0928A:  MOVWF  FEA
0928C:  MOVFF  FEF,3EF
09290:  MOVLW  01
09292:  SUBWF  x37,W
09294:  MULLW  0A
09296:  MOVF   FF3,W
09298:  CLRF   xF1
0929A:  MOVWF  xF0
0929C:  MOVLW  05
0929E:  ADDWF  xF0,W
092A0:  MOVWF  01
092A2:  MOVLW  00
092A4:  ADDWFC xF1,W
092A6:  MOVWF  03
092A8:  MOVF   01,W
092AA:  ADDLW  C7
092AC:  MOVWF  FE9
092AE:  MOVLW  03
092B0:  ADDWFC 03,W
092B2:  MOVWF  FEA
092B4:  MOVFF  FEF,3F0
092B8:  MOVLW  C6
092BA:  MOVWF  FF6
092BC:  MOVLW  0E
092BE:  MOVWF  FF7
092C0:  MOVLW  00
092C2:  MOVWF  FF8
092C4:  MOVLW  0A
092C6:  MOVWF  xF3
092C8:  MOVLB  0
092CA:  CALL   4276
092CE:  MOVFF  3EF,3F1
092D2:  MOVLW  01
092D4:  MOVLB  3
092D6:  MOVWF  xF2
092D8:  MOVLB  0
092DA:  CALL   42D4
092DE:  MOVLW  3A
092E0:  BTFSS  F9E.4
092E2:  BRA    92E0
092E4:  MOVWF  FAD
092E6:  MOVFF  3F0,3F1
092EA:  MOVLW  01
092EC:  MOVLB  3
092EE:  MOVWF  xF2
092F0:  MOVLB  0
092F2:  CALL   42D4
092F6:  MOVLW  22
092F8:  BTFSS  F9E.4
092FA:  BRA    92F8
092FC:  MOVWF  FAD
....................          SendDataDisplay(); 
092FE:  CALL   3538
....................          printf("desfogue.txt=\"%u\"",CiclosPersonalizados[CicloLibre-1].NivelDesfogue); 
09302:  MOVLW  01
09304:  MOVLB  3
09306:  SUBWF  x37,W
09308:  MULLW  0A
0930A:  MOVF   FF3,W
0930C:  CLRF   xF0
0930E:  MOVWF  xEF
09310:  MOVLW  08
09312:  ADDWF  xEF,W
09314:  MOVWF  01
09316:  MOVLW  00
09318:  ADDWFC xF0,W
0931A:  MOVWF  03
0931C:  MOVF   01,W
0931E:  ADDLW  C7
09320:  MOVWF  FE9
09322:  MOVLW  03
09324:  ADDWFC 03,W
09326:  MOVWF  FEA
09328:  MOVFF  FEF,3EF
0932C:  MOVLW  DC
0932E:  MOVWF  FF6
09330:  MOVLW  0E
09332:  MOVWF  FF7
09334:  MOVLW  00
09336:  MOVWF  FF8
09338:  MOVLW  0E
0933A:  MOVWF  xF3
0933C:  MOVLB  0
0933E:  CALL   4276
09342:  MOVFF  3EF,3F1
09346:  MOVLW  1B
09348:  MOVLB  3
0934A:  MOVWF  xF2
0934C:  MOVLB  0
0934E:  CALL   42D4
09352:  MOVLW  22
09354:  BTFSS  F9E.4
09356:  BRA    9354
09358:  MOVWF  FAD
....................          SendDataDisplay(); 
0935A:  CALL   3538
0935E:  MOVLB  3
....................       } 
....................        
....................       if(RIGHT){ 
09360:  BSF    F93.2
09362:  BTFSC  F81.2
09364:  BRA    937C
....................          delay_ms(100); 
09366:  MOVLW  64
09368:  MOVLB  4
0936A:  MOVWF  x04
0936C:  MOVLB  0
0936E:  CALL   179C
....................          if(RIGHT){ 
09372:  BSF    F93.2
09374:  BTFSC  F81.2
09376:  BRA    937E
....................             CicloLibre++; 
09378:  MOVLB  3
0937A:  INCF   x37,F
0937C:  MOVLB  0
....................          } 
....................       }       
....................        
....................       if(CicloLibre<1) 
0937E:  MOVLB  3
09380:  MOVF   x37,F
09382:  BNZ   9388
....................          CicloLibre=1; 
09384:  MOVLW  01
09386:  MOVWF  x37
....................       if(CicloLibre>4) 
09388:  MOVF   x37,W
0938A:  SUBLW  04
0938C:  BC    9392
....................          CicloLibre=4; 
0938E:  MOVLW  04
09390:  MOVWF  x37
....................        
....................       if(RX_Buffer[4]==0xa0 || LEFT){//a0, Menu Principal 
09392:  MOVF   34,W
09394:  SUBLW  A0
09396:  BZ    939E
09398:  BSF    F93.3
0939A:  BTFSC  F81.3
0939C:  BRA    93D6
....................          delay_ms(100); 
0939E:  MOVLW  64
093A0:  MOVLB  4
093A2:  MOVWF  x04
093A4:  MOVLB  0
093A6:  CALL   179C
....................          if(RX_Buffer[4]==0xa0 || LEFT){ 
093AA:  MOVF   34,W
093AC:  SUBLW  A0
093AE:  BZ    93B6
093B0:  BSF    F93.3
093B2:  BTFSC  F81.3
093B4:  BRA    93D4
....................             printf("page MenuPrincipal"); 
093B6:  MOVLW  EE
093B8:  MOVWF  FF6
093BA:  MOVLW  0E
093BC:  MOVWF  FF7
093BE:  MOVLW  00
093C0:  MOVWF  FF8
093C2:  CALL   3506
....................             SendDataDisplay();      
093C6:  CALL   3538
....................             PantallaPrincipal=0; 
093CA:  MOVLB  2
093CC:  CLRF   xDC
....................             Op=OFF; 
093CE:  MOVLB  0
093D0:  BCF    xA1.7
....................             Op2=OFF; 
093D2:  BCF    xA2.0
093D4:  MOVLB  3
....................          } 
....................       } 
....................        
....................       if(RX_Buffer[4]==0x20 && CicloLibre>0){//20, Temperatura 
093D6:  MOVF   34,W
093D8:  SUBLW  20
093DA:  BNZ   9414
093DC:  MOVF   x37,F
093DE:  BZ    9414
....................             printf("page Temperatura"); 
093E0:  MOVLW  02
093E2:  MOVWF  FF6
093E4:  MOVLW  0F
093E6:  MOVWF  FF7
093E8:  MOVLW  00
093EA:  MOVWF  FF8
093EC:  MOVLB  0
093EE:  CALL   3506
....................             SendDataDisplay();      
093F2:  CALL   3538
....................             Setpoint=CiclosPersonalizados[CicloLibre-1].Temperatura; 
093F6:  MOVLW  01
093F8:  MOVLB  3
093FA:  SUBWF  x37,W
093FC:  MULLW  0A
093FE:  MOVF   FF3,W
09400:  CLRF   xF0
09402:  MOVWF  xEF
09404:  MOVLW  C7
09406:  ADDWF  xEF,W
09408:  MOVWF  FE9
0940A:  MOVLW  03
0940C:  ADDWFC xF0,W
0940E:  MOVWF  FEA
09410:  MOVFF  FEF,362
....................       } 
....................        
....................       if(RX_Buffer[4]==0x30 && CicloLibre>0){//30, Test 
09414:  MOVF   34,W
09416:  SUBLW  30
09418:  BTFSS  FD8.2
0941A:  BRA    952E
0941C:  MOVF   x37,F
0941E:  BTFSC  FD8.2
09420:  BRA    952E
....................             printf("page TiempoEst"); 
09422:  MOVLW  14
09424:  MOVWF  FF6
09426:  MOVLW  0F
09428:  MOVWF  FF7
0942A:  MOVLW  00
0942C:  MOVWF  FF8
0942E:  MOVLB  0
09430:  CALL   3506
....................             SendDataDisplay();      
09434:  CALL   3538
....................             Testerilizacionp[3]=CiclosPersonalizados[CicloLibre-1].Minutoest/10; 
09438:  MOVLW  01
0943A:  MOVLB  3
0943C:  SUBWF  x37,W
0943E:  MULLW  0A
09440:  MOVF   FF3,W
09442:  CLRF   xF0
09444:  MOVWF  xEF
09446:  MOVLW  09
09448:  ADDWF  xEF,W
0944A:  MOVWF  01
0944C:  MOVLW  00
0944E:  ADDWFC xF0,W
09450:  MOVWF  03
09452:  MOVF   01,W
09454:  ADDLW  C7
09456:  MOVWF  FE9
09458:  MOVLW  03
0945A:  ADDWFC 03,W
0945C:  MOVWF  FEA
0945E:  MOVFF  FEF,3F9
09462:  MOVLW  0A
09464:  MOVWF  xFA
09466:  MOVLB  0
09468:  CALL   42A8
0946C:  MOVFF  01,B8
....................             Testerilizacionp[2]=CiclosPersonalizados[CicloLibre-1].Minutoest-(Testerilizacionp[3]*10); 
09470:  MOVLW  01
09472:  MOVLB  3
09474:  SUBWF  x37,W
09476:  MULLW  0A
09478:  MOVF   FF3,W
0947A:  CLRF   xF0
0947C:  MOVWF  xEF
0947E:  MOVLW  09
09480:  ADDWF  xEF,W
09482:  MOVWF  01
09484:  MOVLW  00
09486:  ADDWFC xF0,W
09488:  MOVWF  03
0948A:  MOVF   01,W
0948C:  ADDLW  C7
0948E:  MOVWF  FE9
09490:  MOVLW  03
09492:  ADDWFC 03,W
09494:  MOVWF  FEA
09496:  MOVFF  FEF,3EF
0949A:  MOVFF  B8,3F1
0949E:  MOVLW  0A
094A0:  MOVWF  xF2
094A2:  MOVLB  0
094A4:  CALL   2A9A
094A8:  MOVF   01,W
094AA:  MOVLB  3
094AC:  SUBWF  xEF,W
094AE:  MOVLB  0
094B0:  MOVWF  xB7
....................             Testerilizacionp[1]=CiclosPersonalizados[CicloLibre-1].Segundoest/10; 
094B2:  MOVLW  01
094B4:  MOVLB  3
094B6:  SUBWF  x37,W
094B8:  MULLW  0A
094BA:  MOVF   FF3,W
094BC:  CLRF   xF0
094BE:  MOVWF  xEF
094C0:  MOVLW  03
094C2:  ADDWF  xEF,W
094C4:  MOVWF  01
094C6:  MOVLW  00
094C8:  ADDWFC xF0,W
094CA:  MOVWF  03
094CC:  MOVF   01,W
094CE:  ADDLW  C7
094D0:  MOVWF  FE9
094D2:  MOVLW  03
094D4:  ADDWFC 03,W
094D6:  MOVWF  FEA
094D8:  MOVFF  FEF,3F9
094DC:  MOVLW  0A
094DE:  MOVWF  xFA
094E0:  MOVLB  0
094E2:  CALL   42A8
094E6:  MOVFF  01,B6
....................             Testerilizacionp[0]=CiclosPersonalizados[CicloLibre-1].Segundoest-(Testerilizacionp[1]*10); 
094EA:  MOVLW  01
094EC:  MOVLB  3
094EE:  SUBWF  x37,W
094F0:  MULLW  0A
094F2:  MOVF   FF3,W
094F4:  CLRF   xF0
094F6:  MOVWF  xEF
094F8:  MOVLW  03
094FA:  ADDWF  xEF,W
094FC:  MOVWF  01
094FE:  MOVLW  00
09500:  ADDWFC xF0,W
09502:  MOVWF  03
09504:  MOVF   01,W
09506:  ADDLW  C7
09508:  MOVWF  FE9
0950A:  MOVLW  03
0950C:  ADDWFC 03,W
0950E:  MOVWF  FEA
09510:  MOVFF  FEF,3EF
09514:  MOVFF  B6,3F1
09518:  MOVLW  0A
0951A:  MOVWF  xF2
0951C:  MOVLB  0
0951E:  CALL   2A9A
09522:  MOVF   01,W
09524:  MOVLB  3
09526:  SUBWF  xEF,W
09528:  MOVLB  0
0952A:  MOVWF  xB5
0952C:  MOVLB  3
....................       } 
....................        
....................       if(RX_Buffer[4]==0x40 && CicloLibre>0){//30, Test 
0952E:  MOVF   34,W
09530:  SUBLW  40
09532:  BTFSS  FD8.2
09534:  BRA    9648
09536:  MOVF   x37,F
09538:  BTFSC  FD8.2
0953A:  BRA    9648
....................             printf("page TiempoSec"); 
0953C:  MOVLW  24
0953E:  MOVWF  FF6
09540:  MOVLW  0F
09542:  MOVWF  FF7
09544:  MOVLW  00
09546:  MOVWF  FF8
09548:  MOVLB  0
0954A:  CALL   3506
....................             SendDataDisplay();      
0954E:  CALL   3538
....................             Tsecadop[3]=CiclosPersonalizados[CicloLibre-1].Minutosec/10; 
09552:  MOVLW  01
09554:  MOVLB  3
09556:  SUBWF  x37,W
09558:  MULLW  0A
0955A:  MOVF   FF3,W
0955C:  CLRF   xF0
0955E:  MOVWF  xEF
09560:  MOVLW  04
09562:  ADDWF  xEF,W
09564:  MOVWF  01
09566:  MOVLW  00
09568:  ADDWFC xF0,W
0956A:  MOVWF  03
0956C:  MOVF   01,W
0956E:  ADDLW  C7
09570:  MOVWF  FE9
09572:  MOVLW  03
09574:  ADDWFC 03,W
09576:  MOVWF  FEA
09578:  MOVFF  FEF,3F9
0957C:  MOVLW  0A
0957E:  MOVWF  xFA
09580:  MOVLB  0
09582:  CALL   42A8
09586:  MOVFF  01,C1
....................             Tsecadop[2]=CiclosPersonalizados[CicloLibre-1].Minutosec-(Tsecadop[3]*10); 
0958A:  MOVLW  01
0958C:  MOVLB  3
0958E:  SUBWF  x37,W
09590:  MULLW  0A
09592:  MOVF   FF3,W
09594:  CLRF   xF0
09596:  MOVWF  xEF
09598:  MOVLW  04
0959A:  ADDWF  xEF,W
0959C:  MOVWF  01
0959E:  MOVLW  00
095A0:  ADDWFC xF0,W
095A2:  MOVWF  03
095A4:  MOVF   01,W
095A6:  ADDLW  C7
095A8:  MOVWF  FE9
095AA:  MOVLW  03
095AC:  ADDWFC 03,W
095AE:  MOVWF  FEA
095B0:  MOVFF  FEF,3EF
095B4:  MOVFF  C1,3F1
095B8:  MOVLW  0A
095BA:  MOVWF  xF2
095BC:  MOVLB  0
095BE:  CALL   2A9A
095C2:  MOVF   01,W
095C4:  MOVLB  3
095C6:  SUBWF  xEF,W
095C8:  MOVLB  0
095CA:  MOVWF  xC0
....................             Tsecadop[1]=CiclosPersonalizados[CicloLibre-1].Segundosec/10; 
095CC:  MOVLW  01
095CE:  MOVLB  3
095D0:  SUBWF  x37,W
095D2:  MULLW  0A
095D4:  MOVF   FF3,W
095D6:  CLRF   xF0
095D8:  MOVWF  xEF
095DA:  MOVLW  05
095DC:  ADDWF  xEF,W
095DE:  MOVWF  01
095E0:  MOVLW  00
095E2:  ADDWFC xF0,W
095E4:  MOVWF  03
095E6:  MOVF   01,W
095E8:  ADDLW  C7
095EA:  MOVWF  FE9
095EC:  MOVLW  03
095EE:  ADDWFC 03,W
095F0:  MOVWF  FEA
095F2:  MOVFF  FEF,3F9
095F6:  MOVLW  0A
095F8:  MOVWF  xFA
095FA:  MOVLB  0
095FC:  CALL   42A8
09600:  MOVFF  01,BF
....................             Tsecadop[0]=CiclosPersonalizados[CicloLibre-1].Segundosec-(Tsecadop[1]*10); 
09604:  MOVLW  01
09606:  MOVLB  3
09608:  SUBWF  x37,W
0960A:  MULLW  0A
0960C:  MOVF   FF3,W
0960E:  CLRF   xF0
09610:  MOVWF  xEF
09612:  MOVLW  05
09614:  ADDWF  xEF,W
09616:  MOVWF  01
09618:  MOVLW  00
0961A:  ADDWFC xF0,W
0961C:  MOVWF  03
0961E:  MOVF   01,W
09620:  ADDLW  C7
09622:  MOVWF  FE9
09624:  MOVLW  03
09626:  ADDWFC 03,W
09628:  MOVWF  FEA
0962A:  MOVFF  FEF,3EF
0962E:  MOVFF  BF,3F1
09632:  MOVLW  0A
09634:  MOVWF  xF2
09636:  MOVLB  0
09638:  CALL   2A9A
0963C:  MOVF   01,W
0963E:  MOVLB  3
09640:  SUBWF  xEF,W
09642:  MOVLB  0
09644:  MOVWF  xBE
09646:  MOVLB  3
....................       } 
....................        
....................       if(RX_Buffer[4]==0x80 && CicloLibre>0){//80, NivelDesfogue          
09648:  MOVF   34,W
0964A:  SUBLW  80
0964C:  BNZ   9698
0964E:  MOVF   x37,F
09650:  BZ    9698
....................             printf("page Nivel"); 
09652:  MOVLW  34
09654:  MOVWF  FF6
09656:  MOVLW  0F
09658:  MOVWF  FF7
0965A:  MOVLW  00
0965C:  MOVWF  FF8
0965E:  MOVLB  0
09660:  CALL   3506
....................             SendDataDisplay();      
09664:  CALL   3538
....................             Nivel=CiclosPersonalizados[CicloLibre-1].NivelDesfogue;          
09668:  MOVLW  01
0966A:  MOVLB  3
0966C:  SUBWF  x37,W
0966E:  MULLW  0A
09670:  MOVF   FF3,W
09672:  CLRF   xF0
09674:  MOVWF  xEF
09676:  MOVLW  08
09678:  ADDWF  xEF,W
0967A:  MOVWF  01
0967C:  MOVLW  00
0967E:  ADDWFC xF0,W
09680:  MOVWF  03
09682:  MOVF   01,W
09684:  ADDLW  C7
09686:  MOVWF  FE9
09688:  MOVLW  03
0968A:  ADDWFC 03,W
0968C:  MOVWF  FEA
0968E:  MOVF   FEF,W
09690:  CLRF   03
09692:  MOVWF  x70
09694:  MOVFF  03,371
....................       } 
....................        
....................       if((RX_Buffer[4]==0x70 || UP)&& CicloLibre>0){//70, Iniciar Ciclo 
09698:  MOVF   34,W
0969A:  SUBLW  70
0969C:  BZ    96A4
0969E:  BSF    F93.0
096A0:  BTFSC  F81.0
096A2:  BRA    9B8A
096A4:  MOVF   x37,F
096A6:  BTFSC  FD8.2
096A8:  BRA    9B8A
....................          delay_ms(100); 
096AA:  MOVLW  64
096AC:  MOVLB  4
096AE:  MOVWF  x04
096B0:  MOVLB  0
096B2:  CALL   179C
....................          if((RX_Buffer[4]==0x70 || UP)&& CicloLibre>0){ 
096B6:  MOVF   34,W
096B8:  SUBLW  70
096BA:  BZ    96C2
096BC:  BSF    F93.0
096BE:  BTFSC  F81.0
096C0:  BRA    9B88
096C2:  MOVLB  3
096C4:  MOVF   x37,F
096C6:  BTFSS  FD8.2
096C8:  BRA    96CE
096CA:  MOVLB  0
096CC:  BRA    9B88
....................             printf("page Funcionamiento"); 
096CE:  MOVLW  40
096D0:  MOVWF  FF6
096D2:  MOVLW  0F
096D4:  MOVWF  FF7
096D6:  MOVLW  00
096D8:  MOVWF  FF8
096DA:  MOVLB  0
096DC:  CALL   3506
....................             SendDataDisplay();        
096E0:  CALL   3538
....................             Libre=ON; 
096E4:  BSF    xA3.3
....................             if(CiclosPersonalizados[CicloLibre-1].NivelDesfogue>5){ 
096E6:  MOVLW  01
096E8:  MOVLB  3
096EA:  SUBWF  x37,W
096EC:  MULLW  0A
096EE:  MOVF   FF3,W
096F0:  CLRF   xF0
096F2:  MOVWF  xEF
096F4:  MOVLW  08
096F6:  ADDWF  xEF,W
096F8:  MOVWF  01
096FA:  MOVLW  00
096FC:  ADDWFC xF0,W
096FE:  MOVWF  03
09700:  MOVF   01,W
09702:  ADDLW  C7
09704:  MOVWF  FE9
09706:  MOVLW  03
09708:  ADDWFC 03,W
0970A:  MOVWF  FEA
0970C:  MOVF   FEF,W
0970E:  SUBLW  05
09710:  BTFSC  FD8.0
09712:  BRA    992C
....................                ConfiguraCiclo(extraeDecima(CiclosPersonalizados[CicloLibre-1].Segundoest), 
....................                            CiclosPersonalizados[CicloLibre-1].Segundoest/10, 
....................                            extraeDecima(CiclosPersonalizados[CicloLibre-1].Minutoest), 
....................                            CiclosPersonalizados[CicloLibre-1].Minutoest/10, 
....................                            extraeDecima(CiclosPersonalizados[CicloLibre-1].Segundosec), 
....................                            CiclosPersonalizados[CicloLibre-1].Segundosec/10, 
....................                            extraeDecima(CiclosPersonalizados[CicloLibre-1].Minutosec), 
....................                            CiclosPersonalizados[CicloLibre-1].Minutosec/10,0,CicloLibre+4,CiclosPersonalizados[CicloLibre-1].Temperatura);             
09714:  MOVLW  01
09716:  SUBWF  x37,W
09718:  MULLW  0A
0971A:  MOVF   FF3,W
0971C:  CLRF   xF0
0971E:  MOVWF  xEF
09720:  MOVLW  03
09722:  ADDWF  xEF,W
09724:  MOVWF  01
09726:  MOVLW  00
09728:  ADDWFC xF0,W
0972A:  MOVWF  03
0972C:  MOVF   01,W
0972E:  ADDLW  C7
09730:  MOVWF  FE9
09732:  MOVLW  03
09734:  ADDWFC 03,W
09736:  MOVWF  FEA
09738:  MOVFF  FEF,3EF
0973C:  MOVFF  3EF,3F6
09740:  MOVLB  0
09742:  CALL   4904
09746:  MOVFF  01,3EF
0974A:  MOVLW  01
0974C:  MOVLB  3
0974E:  SUBWF  x37,W
09750:  MULLW  0A
09752:  MOVF   FF3,W
09754:  CLRF   xF1
09756:  MOVWF  xF0
09758:  MOVLW  03
0975A:  ADDWF  xF0,W
0975C:  MOVWF  01
0975E:  MOVLW  00
09760:  ADDWFC xF1,W
09762:  MOVWF  03
09764:  MOVF   01,W
09766:  ADDLW  C7
09768:  MOVWF  FE9
0976A:  MOVLW  03
0976C:  ADDWFC 03,W
0976E:  MOVWF  FEA
09770:  MOVFF  FEF,3F9
09774:  MOVLW  0A
09776:  MOVWF  xFA
09778:  MOVLB  0
0977A:  CALL   42A8
0977E:  MOVFF  01,3F0
09782:  MOVLW  01
09784:  MOVLB  3
09786:  SUBWF  x37,W
09788:  MULLW  0A
0978A:  MOVF   FF3,W
0978C:  CLRF   xF2
0978E:  MOVWF  xF1
09790:  MOVLW  09
09792:  ADDWF  xF1,W
09794:  MOVWF  01
09796:  MOVLW  00
09798:  ADDWFC xF2,W
0979A:  MOVWF  03
0979C:  MOVF   01,W
0979E:  ADDLW  C7
097A0:  MOVWF  FE9
097A2:  MOVLW  03
097A4:  ADDWFC 03,W
097A6:  MOVWF  FEA
097A8:  MOVFF  FEF,3F1
097AC:  MOVFF  3F1,3F6
097B0:  MOVLB  0
097B2:  CALL   4904
097B6:  MOVFF  01,3F1
097BA:  MOVLW  01
097BC:  MOVLB  3
097BE:  SUBWF  x37,W
097C0:  MULLW  0A
097C2:  MOVF   FF3,W
097C4:  CLRF   xF3
097C6:  MOVWF  xF2
097C8:  MOVLW  09
097CA:  ADDWF  xF2,W
097CC:  MOVWF  01
097CE:  MOVLW  00
097D0:  ADDWFC xF3,W
097D2:  MOVWF  03
097D4:  MOVF   01,W
097D6:  ADDLW  C7
097D8:  MOVWF  FE9
097DA:  MOVLW  03
097DC:  ADDWFC 03,W
097DE:  MOVWF  FEA
097E0:  MOVFF  FEF,3F9
097E4:  MOVLW  0A
097E6:  MOVWF  xFA
097E8:  MOVLB  0
097EA:  CALL   42A8
097EE:  MOVFF  01,3F2
097F2:  MOVLW  01
097F4:  MOVLB  3
097F6:  SUBWF  x37,W
097F8:  MULLW  0A
097FA:  MOVF   FF3,W
097FC:  CLRF   xF4
097FE:  MOVWF  xF3
09800:  MOVLW  05
09802:  ADDWF  xF3,W
09804:  MOVWF  01
09806:  MOVLW  00
09808:  ADDWFC xF4,W
0980A:  MOVWF  03
0980C:  MOVF   01,W
0980E:  ADDLW  C7
09810:  MOVWF  FE9
09812:  MOVLW  03
09814:  ADDWFC 03,W
09816:  MOVWF  FEA
09818:  MOVFF  FEF,3F3
0981C:  MOVFF  3F3,3F6
09820:  MOVLB  0
09822:  CALL   4904
09826:  MOVFF  01,3F3
0982A:  MOVLW  01
0982C:  MOVLB  3
0982E:  SUBWF  x37,W
09830:  MULLW  0A
09832:  MOVF   FF3,W
09834:  CLRF   xF5
09836:  MOVWF  xF4
09838:  MOVLW  05
0983A:  ADDWF  xF4,W
0983C:  MOVWF  01
0983E:  MOVLW  00
09840:  ADDWFC xF5,W
09842:  MOVWF  03
09844:  MOVF   01,W
09846:  ADDLW  C7
09848:  MOVWF  FE9
0984A:  MOVLW  03
0984C:  ADDWFC 03,W
0984E:  MOVWF  FEA
09850:  MOVFF  FEF,3F9
09854:  MOVLW  0A
09856:  MOVWF  xFA
09858:  MOVLB  0
0985A:  CALL   42A8
0985E:  MOVFF  01,3F4
09862:  MOVLW  01
09864:  MOVLB  3
09866:  SUBWF  x37,W
09868:  MULLW  0A
0986A:  MOVF   FF3,W
0986C:  CLRF   xF6
0986E:  MOVWF  xF5
09870:  MOVLW  04
09872:  ADDWF  xF5,W
09874:  MOVWF  01
09876:  MOVLW  00
09878:  ADDWFC xF6,W
0987A:  MOVWF  03
0987C:  MOVF   01,W
0987E:  ADDLW  C7
09880:  MOVWF  FE9
09882:  MOVLW  03
09884:  ADDWFC 03,W
09886:  MOVWF  FEA
09888:  MOVFF  FEF,3F5
0988C:  MOVFF  3F5,3F6
09890:  MOVLB  0
09892:  CALL   4904
09896:  MOVFF  01,3F5
0989A:  MOVLW  01
0989C:  MOVLB  3
0989E:  SUBWF  x37,W
098A0:  MULLW  0A
098A2:  MOVF   FF3,W
098A4:  CLRF   xF7
098A6:  MOVWF  xF6
098A8:  MOVLW  04
098AA:  ADDWF  xF6,W
098AC:  MOVWF  01
098AE:  MOVLW  00
098B0:  ADDWFC xF7,W
098B2:  MOVWF  03
098B4:  MOVF   01,W
098B6:  ADDLW  C7
098B8:  MOVWF  FE9
098BA:  MOVLW  03
098BC:  ADDWFC 03,W
098BE:  MOVWF  FEA
098C0:  MOVFF  FEF,3F9
098C4:  MOVLW  0A
098C6:  MOVWF  xFA
098C8:  MOVLB  0
098CA:  CALL   42A8
098CE:  MOVFF  01,3F6
098D2:  MOVLW  04
098D4:  MOVLB  3
098D6:  ADDWF  x37,W
098D8:  MOVWF  xF7
098DA:  MOVLW  01
098DC:  SUBWF  x37,W
098DE:  MULLW  0A
098E0:  MOVF   FF3,W
098E2:  CLRF   xF9
098E4:  MOVWF  xF8
098E6:  MOVLW  C7
098E8:  ADDWF  xF8,W
098EA:  MOVWF  FE9
098EC:  MOVLW  03
098EE:  ADDWFC xF9,W
098F0:  MOVWF  FEA
098F2:  MOVFF  FEF,3F8
098F6:  MOVFF  3EF,3F9
098FA:  MOVFF  3F0,3FA
098FE:  MOVFF  3F1,3FB
09902:  MOVFF  3F2,3FC
09906:  MOVFF  3F3,3FD
0990A:  MOVFF  3F4,3FE
0990E:  MOVFF  3F5,3FF
09912:  MOVFF  01,400
09916:  MOVLB  4
09918:  CLRF   x01
0991A:  MOVFF  3F7,402
0991E:  MOVFF  3F8,403
09922:  MOVLB  0
09924:  CALL   45BE
....................             }else{ 
09928:  BRA    9B88
0992A:  MOVLB  3
....................                ConfiguraCiclo(extraeDecima(CiclosPersonalizados[CicloLibre-1].Segundoest), 
....................                            CiclosPersonalizados[CicloLibre-1].Segundoest/10, 
....................                            extraeDecima(CiclosPersonalizados[CicloLibre-1].Minutoest), 
....................                            CiclosPersonalizados[CicloLibre-1].Minutoest/10, 
....................                            extraeDecima(CiclosPersonalizados[CicloLibre-1].Segundosec), 
....................                            CiclosPersonalizados[CicloLibre-1].Segundosec/10, 
....................                            extraeDecima(CiclosPersonalizados[CicloLibre-1].Minutosec), 
....................                            CiclosPersonalizados[CicloLibre-1].Minutosec/10,1,CicloLibre+4,CiclosPersonalizados[CicloLibre-1].Temperatura);             
0992C:  MOVLW  01
0992E:  SUBWF  x37,W
09930:  MULLW  0A
09932:  MOVF   FF3,W
09934:  CLRF   xF0
09936:  MOVWF  xEF
09938:  MOVLW  03
0993A:  ADDWF  xEF,W
0993C:  MOVWF  01
0993E:  MOVLW  00
09940:  ADDWFC xF0,W
09942:  MOVWF  03
09944:  MOVF   01,W
09946:  ADDLW  C7
09948:  MOVWF  FE9
0994A:  MOVLW  03
0994C:  ADDWFC 03,W
0994E:  MOVWF  FEA
09950:  MOVFF  FEF,3EF
09954:  MOVFF  3EF,3F6
09958:  MOVLB  0
0995A:  CALL   4904
0995E:  MOVFF  01,3EF
09962:  MOVLW  01
09964:  MOVLB  3
09966:  SUBWF  x37,W
09968:  MULLW  0A
0996A:  MOVF   FF3,W
0996C:  CLRF   xF1
0996E:  MOVWF  xF0
09970:  MOVLW  03
09972:  ADDWF  xF0,W
09974:  MOVWF  01
09976:  MOVLW  00
09978:  ADDWFC xF1,W
0997A:  MOVWF  03
0997C:  MOVF   01,W
0997E:  ADDLW  C7
09980:  MOVWF  FE9
09982:  MOVLW  03
09984:  ADDWFC 03,W
09986:  MOVWF  FEA
09988:  MOVFF  FEF,3F9
0998C:  MOVLW  0A
0998E:  MOVWF  xFA
09990:  MOVLB  0
09992:  CALL   42A8
09996:  MOVFF  01,3F0
0999A:  MOVLW  01
0999C:  MOVLB  3
0999E:  SUBWF  x37,W
099A0:  MULLW  0A
099A2:  MOVF   FF3,W
099A4:  CLRF   xF2
099A6:  MOVWF  xF1
099A8:  MOVLW  09
099AA:  ADDWF  xF1,W
099AC:  MOVWF  01
099AE:  MOVLW  00
099B0:  ADDWFC xF2,W
099B2:  MOVWF  03
099B4:  MOVF   01,W
099B6:  ADDLW  C7
099B8:  MOVWF  FE9
099BA:  MOVLW  03
099BC:  ADDWFC 03,W
099BE:  MOVWF  FEA
099C0:  MOVFF  FEF,3F1
099C4:  MOVFF  3F1,3F6
099C8:  MOVLB  0
099CA:  CALL   4904
099CE:  MOVFF  01,3F1
099D2:  MOVLW  01
099D4:  MOVLB  3
099D6:  SUBWF  x37,W
099D8:  MULLW  0A
099DA:  MOVF   FF3,W
099DC:  CLRF   xF3
099DE:  MOVWF  xF2
099E0:  MOVLW  09
099E2:  ADDWF  xF2,W
099E4:  MOVWF  01
099E6:  MOVLW  00
099E8:  ADDWFC xF3,W
099EA:  MOVWF  03
099EC:  MOVF   01,W
099EE:  ADDLW  C7
099F0:  MOVWF  FE9
099F2:  MOVLW  03
099F4:  ADDWFC 03,W
099F6:  MOVWF  FEA
099F8:  MOVFF  FEF,3F9
099FC:  MOVLW  0A
099FE:  MOVWF  xFA
09A00:  MOVLB  0
09A02:  CALL   42A8
09A06:  MOVFF  01,3F2
09A0A:  MOVLW  01
09A0C:  MOVLB  3
09A0E:  SUBWF  x37,W
09A10:  MULLW  0A
09A12:  MOVF   FF3,W
09A14:  CLRF   xF4
09A16:  MOVWF  xF3
09A18:  MOVLW  05
09A1A:  ADDWF  xF3,W
09A1C:  MOVWF  01
09A1E:  MOVLW  00
09A20:  ADDWFC xF4,W
09A22:  MOVWF  03
09A24:  MOVF   01,W
09A26:  ADDLW  C7
09A28:  MOVWF  FE9
09A2A:  MOVLW  03
09A2C:  ADDWFC 03,W
09A2E:  MOVWF  FEA
09A30:  MOVFF  FEF,3F3
09A34:  MOVFF  3F3,3F6
09A38:  MOVLB  0
09A3A:  CALL   4904
09A3E:  MOVFF  01,3F3
09A42:  MOVLW  01
09A44:  MOVLB  3
09A46:  SUBWF  x37,W
09A48:  MULLW  0A
09A4A:  MOVF   FF3,W
09A4C:  CLRF   xF5
09A4E:  MOVWF  xF4
09A50:  MOVLW  05
09A52:  ADDWF  xF4,W
09A54:  MOVWF  01
09A56:  MOVLW  00
09A58:  ADDWFC xF5,W
09A5A:  MOVWF  03
09A5C:  MOVF   01,W
09A5E:  ADDLW  C7
09A60:  MOVWF  FE9
09A62:  MOVLW  03
09A64:  ADDWFC 03,W
09A66:  MOVWF  FEA
09A68:  MOVFF  FEF,3F9
09A6C:  MOVLW  0A
09A6E:  MOVWF  xFA
09A70:  MOVLB  0
09A72:  CALL   42A8
09A76:  MOVFF  01,3F4
09A7A:  MOVLW  01
09A7C:  MOVLB  3
09A7E:  SUBWF  x37,W
09A80:  MULLW  0A
09A82:  MOVF   FF3,W
09A84:  CLRF   xF6
09A86:  MOVWF  xF5
09A88:  MOVLW  04
09A8A:  ADDWF  xF5,W
09A8C:  MOVWF  01
09A8E:  MOVLW  00
09A90:  ADDWFC xF6,W
09A92:  MOVWF  03
09A94:  MOVF   01,W
09A96:  ADDLW  C7
09A98:  MOVWF  FE9
09A9A:  MOVLW  03
09A9C:  ADDWFC 03,W
09A9E:  MOVWF  FEA
09AA0:  MOVFF  FEF,3F5
09AA4:  MOVFF  3F5,3F6
09AA8:  MOVLB  0
09AAA:  CALL   4904
09AAE:  MOVFF  01,3F5
09AB2:  MOVLW  01
09AB4:  MOVLB  3
09AB6:  SUBWF  x37,W
09AB8:  MULLW  0A
09ABA:  MOVF   FF3,W
09ABC:  CLRF   xF7
09ABE:  MOVWF  xF6
09AC0:  MOVLW  04
09AC2:  ADDWF  xF6,W
09AC4:  MOVWF  01
09AC6:  MOVLW  00
09AC8:  ADDWFC xF7,W
09ACA:  MOVWF  03
09ACC:  MOVF   01,W
09ACE:  ADDLW  C7
09AD0:  MOVWF  FE9
09AD2:  MOVLW  03
09AD4:  ADDWFC 03,W
09AD6:  MOVWF  FEA
09AD8:  MOVFF  FEF,3F9
09ADC:  MOVLW  0A
09ADE:  MOVWF  xFA
09AE0:  MOVLB  0
09AE2:  CALL   42A8
09AE6:  MOVFF  01,3F6
09AEA:  MOVLW  04
09AEC:  MOVLB  3
09AEE:  ADDWF  x37,W
09AF0:  MOVWF  xF7
09AF2:  MOVLW  01
09AF4:  SUBWF  x37,W
09AF6:  MULLW  0A
09AF8:  MOVF   FF3,W
09AFA:  CLRF   xF9
09AFC:  MOVWF  xF8
09AFE:  MOVLW  C7
09B00:  ADDWF  xF8,W
09B02:  MOVWF  FE9
09B04:  MOVLW  03
09B06:  ADDWFC xF9,W
09B08:  MOVWF  FEA
09B0A:  MOVFF  FEF,3F8
09B0E:  MOVFF  3EF,3F9
09B12:  MOVFF  3F0,3FA
09B16:  MOVFF  3F1,3FB
09B1A:  MOVFF  3F2,3FC
09B1E:  MOVFF  3F3,3FD
09B22:  MOVFF  3F4,3FE
09B26:  MOVFF  3F5,3FF
09B2A:  MOVFF  01,400
09B2E:  MOVLW  01
09B30:  MOVLB  4
09B32:  MOVWF  x01
09B34:  MOVFF  3F7,402
09B38:  MOVFF  3F8,403
09B3C:  MOVLB  0
09B3E:  CALL   45BE
....................                NivelSeleccionado=4995*CiclosPersonalizados[CicloLibre-1].NivelDesfogue; 
09B42:  MOVLW  01
09B44:  MOVLB  3
09B46:  SUBWF  x37,W
09B48:  MULLW  0A
09B4A:  MOVF   FF3,W
09B4C:  CLRF   xF0
09B4E:  MOVWF  xEF
09B50:  MOVLW  08
09B52:  ADDWF  xEF,W
09B54:  MOVWF  01
09B56:  MOVLW  00
09B58:  ADDWFC xF0,W
09B5A:  MOVWF  03
09B5C:  MOVF   01,W
09B5E:  ADDLW  C7
09B60:  MOVWF  FE9
09B62:  MOVLW  03
09B64:  ADDWFC 03,W
09B66:  MOVWF  FEA
09B68:  MOVFF  FEF,3EF
09B6C:  MOVLW  13
09B6E:  MOVWF  xF9
09B70:  MOVLW  83
09B72:  MOVWF  xF8
09B74:  CLRF   xFB
09B76:  MOVFF  3EF,3FA
09B7A:  MOVLB  0
09B7C:  CALL   35E0
09B80:  MOVFF  02,37B
09B84:  MOVFF  01,37A
09B88:  MOVLB  3
....................             } 
....................          } 
....................       } 
....................    } 
.................... //_--------------------------------------------------------------------------------------------------------------------------------------------------------        
....................  
.................... //_--------------------------------------------------------------------------------------------------------------------------------------------------------       
....................     if(Menu==15){//Menu de Clave Correcta 
09B8A:  MOVF   x5B,W
09B8C:  SUBLW  0F
09B8E:  BNZ   9BC8
....................       if(!entro){ 
09B90:  MOVLB  0
09B92:  BTFSC  xA3.5
09B94:  BRA    9BB2
....................          delay_ms(2000); 
09B96:  MOVLW  08
09B98:  MOVLB  3
09B9A:  MOVWF  xEF
09B9C:  MOVLW  FA
09B9E:  MOVLB  4
09BA0:  MOVWF  x04
09BA2:  MOVLB  0
09BA4:  CALL   179C
09BA8:  MOVLB  3
09BAA:  DECFSZ xEF,F
09BAC:  BRA    9B9C
....................          entro=ON; 
09BAE:  MOVLB  0
09BB0:  BSF    xA3.5
....................       } 
....................       printf("page MenuPrincipal"); 
09BB2:  MOVLW  54
09BB4:  MOVWF  FF6
09BB6:  MOVLW  0F
09BB8:  MOVWF  FF7
09BBA:  MOVLW  00
09BBC:  MOVWF  FF8
09BBE:  CALL   3506
....................       SendDataDisplay(); 
09BC2:  CALL   3538
09BC6:  MOVLB  3
....................    } 
.................... //_--------------------------------------------------------------------------------------------------------------------------------------------------------       
....................  
.................... //_--------------------------------------------------------------------------------------------------------------------------------------------------------       
....................     if(Menu==16){//Menu de Clave InCorrecta 
09BC8:  MOVF   x5B,W
09BCA:  SUBLW  10
09BCC:  BNZ   9C06
....................       if(!entro){ 
09BCE:  MOVLB  0
09BD0:  BTFSC  xA3.5
09BD2:  BRA    9BF0
....................          delay_ms(2000); 
09BD4:  MOVLW  08
09BD6:  MOVLB  3
09BD8:  MOVWF  xEF
09BDA:  MOVLW  FA
09BDC:  MOVLB  4
09BDE:  MOVWF  x04
09BE0:  MOVLB  0
09BE2:  CALL   179C
09BE6:  MOVLB  3
09BE8:  DECFSZ xEF,F
09BEA:  BRA    9BDA
....................          entro=ON; 
09BEC:  MOVLB  0
09BEE:  BSF    xA3.5
....................       } 
....................       printf("page Clave"); 
09BF0:  MOVLW  68
09BF2:  MOVWF  FF6
09BF4:  MOVLW  0F
09BF6:  MOVWF  FF7
09BF8:  MOVLW  00
09BFA:  MOVWF  FF8
09BFC:  CALL   3506
....................       SendDataDisplay(); 
09C00:  CALL   3538
09C04:  MOVLB  3
....................    } 
.................... //_--------------------------------------------------------------------------------------------------------------------------------------------------------       
....................  
.................... //_--------------------------------------------------------------------------------------------------------------------------------------------------------     
....................    if(Menu==20){ // Este es el menu de cuando el proceso se inicio. 
09C06:  MOVF   x5B,W
09C08:  SUBLW  14
09C0A:  BTFSS  FD8.2
09C0C:  GOTO   AD4C
....................    //Lectura_Esclavos(); 
....................     
....................    if(!Libre){ 
09C10:  MOVLB  0
09C12:  BTFSC  xA3.3
09C14:  BRA    9C98
....................       printf("t2f.txt=\"%u\"",CicloSeleccionado); 
09C16:  MOVLW  74
09C18:  MOVWF  FF6
09C1A:  MOVLW  0F
09C1C:  MOVWF  FF7
09C1E:  MOVLW  00
09C20:  MOVWF  FF8
09C22:  MOVLW  09
09C24:  MOVLB  3
09C26:  MOVWF  xF3
09C28:  MOVLB  0
09C2A:  CALL   4276
09C2E:  MOVFF  361,3F1
09C32:  MOVLW  1B
09C34:  MOVLB  3
09C36:  MOVWF  xF2
09C38:  MOVLB  0
09C3A:  CALL   42D4
09C3E:  MOVLW  22
09C40:  BTFSS  F9E.4
09C42:  BRA    9C40
09C44:  MOVWF  FAD
....................       SendDataDisplay(); 
09C46:  CALL   3538
....................       printf("t3f.txt=\"%s\"",texto[CicloSeleccionado-1]); 
09C4A:  MOVLW  01
09C4C:  MOVLB  3
09C4E:  SUBWF  x61,W
09C50:  MULLW  14
09C52:  MOVF   FF3,W
09C54:  CLRF   03
09C56:  MOVWF  xEF
09C58:  MOVLW  82
09C5A:  MOVWF  FF6
09C5C:  MOVLW  0F
09C5E:  MOVWF  FF7
09C60:  MOVLW  00
09C62:  MOVWF  FF8
09C64:  MOVLW  09
09C66:  MOVWF  xF3
09C68:  MOVLB  0
09C6A:  CALL   4276
09C6E:  MOVLW  50
09C70:  MOVWF  FF6
09C72:  MOVLW  01
09C74:  MOVWF  FF7
09C76:  MOVLW  00
09C78:  MOVWF  FF8
09C7A:  MOVLB  3
09C7C:  MOVF   xEF,W
09C7E:  ADDWF  FF6,F
09C80:  MOVLW  00
09C82:  ADDWFC FF7,F
09C84:  MOVLB  0
09C86:  CALL   3506
09C8A:  MOVLW  22
09C8C:  BTFSS  F9E.4
09C8E:  BRA    9C8C
09C90:  MOVWF  FAD
....................       SendDataDisplay(); 
09C92:  CALL   3538
....................    }else{ 
09C96:  BRA    9CE6
....................       printf("t2f.txt=\"%u\"",CicloLibre+4); 
09C98:  MOVLW  04
09C9A:  MOVLB  3
09C9C:  ADDWF  x37,W
09C9E:  MOVWF  xEF
09CA0:  MOVLW  90
09CA2:  MOVWF  FF6
09CA4:  MOVLW  0F
09CA6:  MOVWF  FF7
09CA8:  MOVLW  00
09CAA:  MOVWF  FF8
09CAC:  MOVLW  09
09CAE:  MOVWF  xF3
09CB0:  MOVLB  0
09CB2:  CALL   4276
09CB6:  MOVFF  3EF,3F1
09CBA:  MOVLW  1B
09CBC:  MOVLB  3
09CBE:  MOVWF  xF2
09CC0:  MOVLB  0
09CC2:  CALL   42D4
09CC6:  MOVLW  22
09CC8:  BTFSS  F9E.4
09CCA:  BRA    9CC8
09CCC:  MOVWF  FAD
....................       SendDataDisplay(); 
09CCE:  CALL   3538
....................       printf("t3f.txt=\"Personalizado\""); 
09CD2:  MOVLW  9E
09CD4:  MOVWF  FF6
09CD6:  MOVLW  0F
09CD8:  MOVWF  FF7
09CDA:  MOVLW  00
09CDC:  MOVWF  FF8
09CDE:  CALL   3506
....................       SendDataDisplay(); 
09CE2:  CALL   3538
....................    } 
....................     
....................    if(RIGHT){ 
09CE6:  BSF    F93.2
09CE8:  BTFSC  F81.2
09CEA:  BRA    9D04
....................       //glcd_init(ON); 
....................       delay_ms(1000); 
09CEC:  MOVLW  04
09CEE:  MOVLB  3
09CF0:  MOVWF  xEF
09CF2:  MOVLW  FA
09CF4:  MOVLB  4
09CF6:  MOVWF  x04
09CF8:  MOVLB  0
09CFA:  CALL   179C
09CFE:  MOVLB  3
09D00:  DECFSZ xEF,F
09D02:  BRA    9CF2
....................       /*flagCalentando=OFF; 
....................       flagDesfogando=OFF; 
....................       flagEsterilizando=OFF;*/ 
....................    } 
....................     
....................    if(PresionCamara>275){ 
09D04:  MOVLB  3
09D06:  MOVF   x75,W
09D08:  SUBLW  00
09D0A:  BC    9D1C
09D0C:  XORLW  FF
09D0E:  BNZ   9D16
09D10:  MOVF   x74,W
09D12:  SUBLW  13
09D14:  BC    9D1C
....................       AlarmaPresion=ON; 
09D16:  MOVLB  0
09D18:  BSF    xA3.2
09D1A:  MOVLB  3
....................    } 
....................     
....................    if(Temperatura>105 && PresionCamara<10 && !Desfogando){ 
09D1C:  CLRF   xF6
09D1E:  CLRF   xF5
09D20:  MOVLW  52
09D22:  MOVWF  xF4
09D24:  MOVLW  85
09D26:  MOVWF  xF3
09D28:  MOVFF  324,3FA
09D2C:  MOVFF  323,3F9
09D30:  MOVFF  322,3F8
09D34:  MOVFF  321,3F7
09D38:  MOVLB  0
09D3A:  CALL   2A20
09D3E:  BNC   9D60
09D40:  MOVLB  3
09D42:  MOVF   x75,F
09D44:  BTFSC  FD8.2
09D46:  BRA    9D4C
09D48:  MOVLB  0
09D4A:  BRA    9D60
09D4C:  MOVF   x74,W
09D4E:  SUBLW  09
09D50:  BTFSC  FD8.0
09D52:  BRA    9D58
09D54:  MOVLB  0
09D56:  BRA    9D60
09D58:  MOVLB  0
09D5A:  BTFSC  xA0.5
09D5C:  BRA    9D60
....................       AlarmaCiclo=ON; 
09D5E:  BSF    x9F.6
....................    } 
....................     
....................    if(TiempoCiclo>3000){ 
09D60:  MOVF   xA5,W
09D62:  SUBLW  0A
09D64:  BC    9D98
09D66:  XORLW  FF
09D68:  BNZ   9D70
09D6A:  MOVF   xA4,W
09D6C:  SUBLW  B8
09D6E:  BC    9D98
....................       if(TiempoCiclo>5000) 
09D70:  MOVF   xA5,W
09D72:  SUBLW  12
09D74:  BC    9D82
09D76:  XORLW  FF
09D78:  BNZ   9D80
09D7A:  MOVF   xA4,W
09D7C:  SUBLW  88
09D7E:  BC    9D82
....................          AlarmaTiempoProlongado=ON; 
09D80:  BSF    x9F.0
....................       if(PresionCamara<10){ 
09D82:  MOVLB  3
09D84:  MOVF   x75,F
09D86:  BNZ   9D94
09D88:  MOVF   x74,W
09D8A:  SUBLW  09
09D8C:  BNC   9D94
....................          AlarmaTiempoProlongado=ON; 
09D8E:  MOVLB  0
09D90:  BSF    x9F.0
09D92:  MOVLB  3
....................       } 
....................    }else{ 
09D94:  BRA    9D9A
09D96:  MOVLB  0
....................       AlarmaTiempoProlongado=OFF; 
09D98:  BCF    x9F.0
....................    } 
....................     
....................    if(Temperatura>Setpoint+3.0){ 
09D9A:  MOVLB  4
09D9C:  CLRF   x05
09D9E:  MOVFF  362,404
09DA2:  MOVLB  0
09DA4:  CALL   17C2
09DA8:  BCF    FD8.1
09DAA:  MOVFF  03,407
09DAE:  MOVFF  02,406
09DB2:  MOVFF  01,405
09DB6:  MOVFF  00,404
09DBA:  MOVLB  4
09DBC:  CLRF   x0B
09DBE:  CLRF   x0A
09DC0:  MOVLW  40
09DC2:  MOVWF  x09
09DC4:  MOVLW  80
09DC6:  MOVWF  x08
09DC8:  MOVLB  0
09DCA:  CALL   19A6
09DCE:  MOVFF  03,3F6
09DD2:  MOVFF  02,3F5
09DD6:  MOVFF  01,3F4
09DDA:  MOVFF  00,3F3
09DDE:  MOVFF  324,3FA
09DE2:  MOVFF  323,3F9
09DE6:  MOVFF  322,3F8
09DEA:  MOVFF  321,3F7
09DEE:  CALL   2A20
09DF2:  BNC   9DF6
....................       AlarmaSobreTemperatura=ON; 
09DF4:  BSF    x9F.1
....................    } 
....................     
....................    if(TiempoLlenado>600){ 
09DF6:  MOVF   xA7,W
09DF8:  SUBLW  01
09DFA:  BC    9E0A
09DFC:  XORLW  FF
09DFE:  BNZ   9E06
09E00:  MOVF   xA6,W
09E02:  SUBLW  58
09E04:  BC    9E0A
....................       AlarmaLlenado=ON; 
09E06:  BSF    x9F.2
....................    }else{ 
09E08:  BRA    9E0C
....................       AlarmaLlenado=OFF; 
09E0A:  BCF    x9F.2
....................    } 
....................     
....................    if(tTermostato>=2000){ 
09E0C:  MOVLB  3
09E0E:  MOVF   x94,W
09E10:  SUBLW  06
09E12:  BC    9E24
09E14:  XORLW  FF
09E16:  BNZ   9E1E
09E18:  MOVF   x93,W
09E1A:  SUBLW  CF
09E1C:  BC    9E24
....................       AlarmaTermostato=ON; 
09E1E:  MOVLB  0
09E20:  BSF    x9F.3
09E22:  MOVLB  3
....................    } 
....................     
....................    if(!DOOR){ 
09E24:  BSF    F93.6
09E26:  BTFSS  F81.6
09E28:  BRA    9E46
....................       //Desfogue_off; 
....................       //Solenoide_off; 
....................       Paso_off; 
09E2A:  BCF    F8C.6
09E2C:  BCF    F95.6
....................       if(CalderinLleno && !Secando && !Finalizo && !Desfogando){ 
09E2E:  MOVLB  0
09E30:  BTFSS  xA0.0
09E32:  BRA    9E42
09E34:  BTFSC  xA0.3
09E36:  BRA    9E42
09E38:  BTFSC  xA3.1
09E3A:  BRA    9E42
09E3C:  BTFSC  xA0.5
09E3E:  BRA    9E42
....................          AlarmaPuerta=ON; 
09E40:  BSF    x9F.4
....................       } 
....................    }else{ 
09E42:  BRA    9E4A
09E44:  MOVLB  3
....................       AlarmaPuerta=OFF; 
09E46:  MOVLB  0
09E48:  BCF    x9F.4
....................    } 
....................  
....................    if(tStop>=300){ 
09E4A:  MOVLB  3
09E4C:  MOVF   x92,W
09E4E:  SUBLW  00
09E50:  BC    9E62
09E52:  XORLW  FF
09E54:  BNZ   9E5C
09E56:  MOVF   x91,W
09E58:  SUBLW  2B
09E5A:  BC    9E62
....................       AlarmaEmergencia=ON; 
09E5C:  MOVLB  0
09E5E:  BSF    x9F.5
09E60:  MOVLB  3
....................    } 
....................     
....................    if(AlarmaPuerta || AlarmaTermostato || AlarmaLlenado || AlarmaSobreTemperatura || AlarmaTiempoProlongado || AlarmaEmergencia || AlarmaPresion 
....................    || AlarmaCiclo){ 
09E62:  MOVLB  0
09E64:  BTFSC  x9F.4
09E66:  BRA    9E84
09E68:  BTFSC  x9F.3
09E6A:  BRA    9E84
09E6C:  BTFSC  x9F.2
09E6E:  BRA    9E84
09E70:  BTFSC  x9F.1
09E72:  BRA    9E84
09E74:  BTFSC  x9F.0
09E76:  BRA    9E84
09E78:  BTFSC  x9F.5
09E7A:  BRA    9E84
09E7C:  BTFSC  xA3.2
09E7E:  BRA    9E84
09E80:  BTFSS  x9F.6
09E82:  BRA    A20C
....................       ActivaAlarma(1); 
09E84:  MOVLW  01
09E86:  MOVLB  3
09E88:  MOVWF  xEF
09E8A:  MOVLB  0
09E8C:  CALL   417A
....................       if(AlarmaEmergencia){ 
09E90:  BTFSS  x9F.5
09E92:  BRA    9F02
....................          printf("Funcionamiento.t4f.txt=\" Parada de Emergencia\""); 
09E94:  MOVLW  B6
09E96:  MOVWF  FF6
09E98:  MOVLW  0F
09E9A:  MOVWF  FF7
09E9C:  MOVLW  00
09E9E:  MOVWF  FF8
09EA0:  CALL   3506
....................          SendDataDisplay(); 
09EA4:  CALL   3538
....................          printf("Funcionamiento.t5f.txt=\" Cancelado\""); 
09EA8:  MOVLW  E6
09EAA:  MOVWF  FF6
09EAC:  MOVLW  0F
09EAE:  MOVWF  FF7
09EB0:  MOVLW  00
09EB2:  MOVWF  FF8
09EB4:  CALL   3506
....................          SendDataDisplay(); 
09EB8:  CALL   3538
....................          Desfogue_on; 
09EBC:  BSF    F8C.4
09EBE:  BCF    F95.4
....................          SSR_off; 
09EC0:  BSF    F8B.2
09EC2:  BCF    F94.2
....................          Paso_off; 
09EC4:  BCF    F8C.6
09EC6:  BCF    F95.6
....................          Vent_on; 
09EC8:  BSF    F8C.5
09ECA:  BCF    F95.5
....................          Esterilizando=OFF; 
09ECC:  BCF    xA0.2
....................          Desfogando=OFF; 
09ECE:  BCF    xA0.5
....................          DesfogueSuave=OFF; 
09ED0:  BCF    xA0.6
....................          Esterilizando=OFF; 
09ED2:  BCF    xA0.2
....................          //IniciaCiclo=OFF; 
....................          Controlando=0; 
09ED4:  MOVLB  3
09ED6:  CLRF   x53
....................          if(!flagImprimir && ActivaImpresion==1){ 
09ED8:  BTFSC  x50.6
09EDA:  BRA    9EFE
09EDC:  DECFSZ x54,W
09EDE:  BRA    9EFE
....................             Imprime=20; 
09EE0:  MOVLW  14
09EE2:  MOVWF  xA4
....................             Envio_Esclavos(); 
09EE4:  MOVLB  0
09EE6:  CALL   3F0E
....................             delay_ms(100); 
09EEA:  MOVLW  64
09EEC:  MOVLB  4
09EEE:  MOVWF  x04
09EF0:  MOVLB  0
09EF2:  CALL   179C
....................             Imprime=10; 
09EF6:  MOVLW  0A
09EF8:  MOVLB  3
09EFA:  MOVWF  xA4
....................             flagImprimir=1; 
09EFC:  BSF    x50.6
....................          } 
....................       }else if(AlarmaPuerta){ 
09EFE:  BRA    A206
09F00:  MOVLB  0
09F02:  BTFSS  x9F.4
09F04:  BRA    9F44
....................             printf("Funcionamiento.t4f.txt=\" Puerta Abierta\""); 
09F06:  MOVLW  0A
09F08:  MOVWF  FF6
09F0A:  MOVLW  10
09F0C:  MOVWF  FF7
09F0E:  MOVLW  00
09F10:  MOVWF  FF8
09F12:  CALL   3506
....................             SendDataDisplay(); 
09F16:  CALL   3538
....................             printf("Funcionamiento.t5f.txt=\" Pausado\""); 
09F1A:  MOVLW  34
09F1C:  MOVWF  FF6
09F1E:  MOVLW  10
09F20:  MOVWF  FF7
09F22:  MOVLW  00
09F24:  MOVWF  FF8
09F26:  CALL   3506
....................             SendDataDisplay(); 
09F2A:  CALL   3538
....................             SSR_off; 
09F2E:  BSF    F8B.2
09F30:  BCF    F94.2
....................             Paso_off; 
09F32:  BCF    F8C.6
09F34:  BCF    F95.6
....................             IniciaLlenado=OFF; 
09F36:  BCF    x9F.7
....................             IniciaCiclo=OFF; 
09F38:  BCF    xA0.1
....................             Esterilizando=OFF; 
09F3A:  BCF    xA0.2
....................             Controlando=0; 
09F3C:  MOVLB  3
09F3E:  CLRF   x53
....................       }else if(AlarmaLlenado){ 
09F40:  BRA    A206
09F42:  MOVLB  0
09F44:  BTFSS  x9F.2
09F46:  BRA    9FB0
....................             printf("Funcionamiento.t4f.txt=\" Tiempo Llenado\""); 
09F48:  MOVLW  56
09F4A:  MOVWF  FF6
09F4C:  MOVLW  10
09F4E:  MOVWF  FF7
09F50:  MOVLW  00
09F52:  MOVWF  FF8
09F54:  CALL   3506
....................             SendDataDisplay(); 
09F58:  CALL   3538
....................             printf("Funcionamiento.t5f.txt=\" Cancelado\""); 
09F5C:  MOVLW  80
09F5E:  MOVWF  FF6
09F60:  MOVLW  10
09F62:  MOVWF  FF7
09F64:  MOVLW  00
09F66:  MOVWF  FF8
09F68:  CALL   3506
....................             SendDataDisplay(); 
09F6C:  CALL   3538
....................             Desfogue_off; 
09F70:  BCF    F8C.4
09F72:  BCF    F95.4
....................             SSR_off; 
09F74:  BSF    F8B.2
09F76:  BCF    F94.2
....................             Paso_off; 
09F78:  BCF    F8C.6
09F7A:  BCF    F95.6
....................             IniciaLlenado=OFF; 
09F7C:  BCF    x9F.7
....................             IniciaCiclo=OFF; 
09F7E:  BCF    xA0.1
....................             Esterilizando=OFF; 
09F80:  BCF    xA0.2
....................             Controlando=0; 
09F82:  MOVLB  3
09F84:  CLRF   x53
....................             if(!flagImprimir && ActivaImpresion==1){ 
09F86:  BTFSC  x50.6
09F88:  BRA    9FAC
09F8A:  DECFSZ x54,W
09F8C:  BRA    9FAC
....................                Imprime=21; 
09F8E:  MOVLW  15
09F90:  MOVWF  xA4
....................                Envio_Esclavos(); 
09F92:  MOVLB  0
09F94:  CALL   3F0E
....................                delay_ms(100); 
09F98:  MOVLW  64
09F9A:  MOVLB  4
09F9C:  MOVWF  x04
09F9E:  MOVLB  0
09FA0:  CALL   179C
....................                Imprime=10; 
09FA4:  MOVLW  0A
09FA6:  MOVLB  3
09FA8:  MOVWF  xA4
....................                flagImprimir=1; 
09FAA:  BSF    x50.6
....................             } 
....................       }else if(AlarmaTermostato){ // Alarma de Termostato 
09FAC:  BRA    A206
09FAE:  MOVLB  0
09FB0:  BTFSS  x9F.3
09FB2:  BRA    A028
....................             tiempo_esterilizacion=0;tiempo_secado=0;          
09FB4:  MOVLB  3
09FB6:  CLRF   x65
09FB8:  CLRF   x66
....................             printf("Funcionamiento.t4f.txt=\" Termostato\""); 
09FBA:  MOVLW  A4
09FBC:  MOVWF  FF6
09FBE:  MOVLW  10
09FC0:  MOVWF  FF7
09FC2:  MOVLW  00
09FC4:  MOVWF  FF8
09FC6:  MOVLB  0
09FC8:  CALL   3506
....................             SendDataDisplay(); 
09FCC:  CALL   3538
....................             printf("Funcionamiento.t5f.txt=\" Cancelado\""); 
09FD0:  MOVLW  CA
09FD2:  MOVWF  FF6
09FD4:  MOVLW  10
09FD6:  MOVWF  FF7
09FD8:  MOVLW  00
09FDA:  MOVWF  FF8
09FDC:  CALL   3506
....................             SendDataDisplay(); 
09FE0:  CALL   3538
....................             Desfogue_on;             
09FE4:  BSF    F8C.4
09FE6:  BCF    F95.4
....................             SSR_off; 
09FE8:  BSF    F8B.2
09FEA:  BCF    F94.2
....................             Paso_off; 
09FEC:  BCF    F8C.6
09FEE:  BCF    F95.6
....................             Esterilizando=OFF; 
09FF0:  BCF    xA0.2
....................             Desfogando=OFF; 
09FF2:  BCF    xA0.5
....................             IniciaCiclo=OFF; 
09FF4:  BCF    xA0.1
....................             Controlando=0; 
09FF6:  MOVLB  3
09FF8:  CLRF   x53
....................             Vent_on; 
09FFA:  BSF    F8C.5
09FFC:  BCF    F95.5
....................             if(!flagImprimir && ActivaImpresion==1){ 
09FFE:  BTFSC  x50.6
0A000:  BRA    A024
0A002:  DECFSZ x54,W
0A004:  BRA    A024
....................                Imprime=22; 
0A006:  MOVLW  16
0A008:  MOVWF  xA4
....................                Envio_Esclavos(); 
0A00A:  MOVLB  0
0A00C:  CALL   3F0E
....................                delay_ms(100); 
0A010:  MOVLW  64
0A012:  MOVLB  4
0A014:  MOVWF  x04
0A016:  MOVLB  0
0A018:  CALL   179C
....................                Imprime=10; 
0A01C:  MOVLW  0A
0A01E:  MOVLB  3
0A020:  MOVWF  xA4
....................                flagImprimir=1; 
0A022:  BSF    x50.6
....................             } 
....................       }else if(AlarmaSobreTemperatura){ // Alarma de Sobre Temperatura 
0A024:  BRA    A206
0A026:  MOVLB  0
0A028:  BTFSS  x9F.1
0A02A:  BRA    A0A4
....................          tiempo_esterilizacion=0;tiempo_secado=0;          
0A02C:  MOVLB  3
0A02E:  CLRF   x65
0A030:  CLRF   x66
....................          printf("Funcionamiento.t4f.txt=\" Sobretemperatura\""); 
0A032:  MOVLW  EE
0A034:  MOVWF  FF6
0A036:  MOVLW  10
0A038:  MOVWF  FF7
0A03A:  MOVLW  00
0A03C:  MOVWF  FF8
0A03E:  MOVLB  0
0A040:  CALL   3506
....................          SendDataDisplay(); 
0A044:  CALL   3538
....................          printf("Funcionamiento.t5f.txt=\" Cancelado\""); 
0A048:  MOVLW  1A
0A04A:  MOVWF  FF6
0A04C:  MOVLW  11
0A04E:  MOVWF  FF7
0A050:  MOVLW  00
0A052:  MOVWF  FF8
0A054:  CALL   3506
....................          SendDataDisplay();   
0A058:  CALL   3538
....................          Desfogue_on; 
0A05C:  BSF    F8C.4
0A05E:  BCF    F95.4
....................          SSR_off; 
0A060:  BSF    F8B.2
0A062:  BCF    F94.2
....................          Paso_off; 
0A064:  BCF    F8C.6
0A066:  BCF    F95.6
....................          Controlando=0; 
0A068:  MOVLB  3
0A06A:  CLRF   x53
....................          IniciaLlenado=OFF; 
0A06C:  MOVLB  0
0A06E:  BCF    x9F.7
....................          IniciaCiclo=OFF; 
0A070:  BCF    xA0.1
....................          Esterilizando=OFF; 
0A072:  BCF    xA0.2
....................          Vent_on; 
0A074:  BSF    F8C.5
0A076:  BCF    F95.5
....................          if(!flagImprimir && ActivaImpresion==1){ 
0A078:  MOVLB  3
0A07A:  BTFSC  x50.6
0A07C:  BRA    A0A0
0A07E:  DECFSZ x54,W
0A080:  BRA    A0A0
....................             Imprime=23; 
0A082:  MOVLW  17
0A084:  MOVWF  xA4
....................             Envio_Esclavos(); 
0A086:  MOVLB  0
0A088:  CALL   3F0E
....................             delay_ms(100); 
0A08C:  MOVLW  64
0A08E:  MOVLB  4
0A090:  MOVWF  x04
0A092:  MOVLB  0
0A094:  CALL   179C
....................             Imprime=10; 
0A098:  MOVLW  0A
0A09A:  MOVLB  3
0A09C:  MOVWF  xA4
....................             flagImprimir=1; 
0A09E:  BSF    x50.6
....................          } 
....................       }else if(AlarmaTiempoProlongado){ // Alarma de Error de Tiempo: Error por exceso de tiempo de calentamiento. 
0A0A0:  BRA    A206
0A0A2:  MOVLB  0
0A0A4:  BTFSS  x9F.0
0A0A6:  BRA    A118
....................          printf("Funcionamiento.t4f.txt=\" Tiempo Prolongado\""); 
0A0A8:  MOVLW  3E
0A0AA:  MOVWF  FF6
0A0AC:  MOVLW  11
0A0AE:  MOVWF  FF7
0A0B0:  MOVLW  00
0A0B2:  MOVWF  FF8
0A0B4:  CALL   3506
....................          SendDataDisplay(); 
0A0B8:  CALL   3538
....................          printf("Funcionamiento.t5f.txt=\" Cancelado\""); 
0A0BC:  MOVLW  6A
0A0BE:  MOVWF  FF6
0A0C0:  MOVLW  11
0A0C2:  MOVWF  FF7
0A0C4:  MOVLW  00
0A0C6:  MOVWF  FF8
0A0C8:  CALL   3506
....................          SendDataDisplay(); 
0A0CC:  CALL   3538
....................          Desfogue_on; 
0A0D0:  BSF    F8C.4
0A0D2:  BCF    F95.4
....................          SSR_off; 
0A0D4:  BSF    F8B.2
0A0D6:  BCF    F94.2
....................          Paso_off; 
0A0D8:  BCF    F8C.6
0A0DA:  BCF    F95.6
....................          Controlando=0; 
0A0DC:  MOVLB  3
0A0DE:  CLRF   x53
....................          IniciaLlenado=OFF; 
0A0E0:  MOVLB  0
0A0E2:  BCF    x9F.7
....................          IniciaCiclo=OFF; 
0A0E4:  BCF    xA0.1
....................          Esterilizando=OFF; 
0A0E6:  BCF    xA0.2
....................          Vent_on; 
0A0E8:  BSF    F8C.5
0A0EA:  BCF    F95.5
....................          if(!flagImprimir && ActivaImpresion==1){ 
0A0EC:  MOVLB  3
0A0EE:  BTFSC  x50.6
0A0F0:  BRA    A114
0A0F2:  DECFSZ x54,W
0A0F4:  BRA    A114
....................             Imprime=24; 
0A0F6:  MOVLW  18
0A0F8:  MOVWF  xA4
....................             Envio_Esclavos(); 
0A0FA:  MOVLB  0
0A0FC:  CALL   3F0E
....................             delay_ms(100); 
0A100:  MOVLW  64
0A102:  MOVLB  4
0A104:  MOVWF  x04
0A106:  MOVLB  0
0A108:  CALL   179C
....................             Imprime=10; 
0A10C:  MOVLW  0A
0A10E:  MOVLB  3
0A110:  MOVWF  xA4
....................             flagImprimir=1; 
0A112:  BSF    x50.6
....................          } 
....................       }else if(AlarmaPresion){ // Alarma de Error de SobrePresion: Error por exceso de Presion. 
0A114:  BRA    A206
0A116:  MOVLB  0
0A118:  BTFSS  xA3.2
0A11A:  BRA    A19E
....................          printf("Funcionamiento.t4f.txt=\" SobrePresin\""); 
0A11C:  MOVLW  8E
0A11E:  MOVWF  FF6
0A120:  MOVLW  11
0A122:  MOVWF  FF7
0A124:  MOVLW  00
0A126:  MOVWF  FF8
0A128:  CALL   3506
....................          SendDataDisplay(); 
0A12C:  CALL   3538
....................          printf("Funcionamiento.t5f.txt=\" Cancelado\""); 
0A130:  MOVLW  B6
0A132:  MOVWF  FF6
0A134:  MOVLW  11
0A136:  MOVWF  FF7
0A138:  MOVLW  00
0A13A:  MOVWF  FF8
0A13C:  CALL   3506
....................          SendDataDisplay(); 
0A140:  CALL   3538
....................          Desfogue_on; 
0A144:  BSF    F8C.4
0A146:  BCF    F95.4
....................          SSR_off; 
0A148:  BSF    F8B.2
0A14A:  BCF    F94.2
....................          IniciaLlenado=OFF; 
0A14C:  BCF    x9F.7
....................          IniciaCiclo=OFF; 
0A14E:  BCF    xA0.1
....................          Esterilizando=OFF; 
0A150:  BCF    xA0.2
....................          Vent_on; 
0A152:  BSF    F8C.5
0A154:  BCF    F95.5
....................          if(PresionPreCamara>20 && DOOR) 
0A156:  MOVLB  3
0A158:  MOVF   x77,F
0A15A:  BNZ   A162
0A15C:  MOVF   x76,W
0A15E:  SUBLW  14
0A160:  BC    A16E
0A162:  BSF    F93.6
0A164:  BTFSC  F81.6
0A166:  BRA    A16E
....................             Paso_on; 
0A168:  BSF    F8C.6
0A16A:  BCF    F95.6
....................          else 
0A16C:  BRA    A172
....................             Paso_off; 
0A16E:  BCF    F8C.6
0A170:  BCF    F95.6
....................          Controlando=0; 
0A172:  CLRF   x53
....................          if(!flagImprimir && ActivaImpresion==1){ 
0A174:  BTFSC  x50.6
0A176:  BRA    A19A
0A178:  DECFSZ x54,W
0A17A:  BRA    A19A
....................             Imprime=25; 
0A17C:  MOVLW  19
0A17E:  MOVWF  xA4
....................             Envio_Esclavos(); 
0A180:  MOVLB  0
0A182:  CALL   3F0E
....................             delay_ms(100); 
0A186:  MOVLW  64
0A188:  MOVLB  4
0A18A:  MOVWF  x04
0A18C:  MOVLB  0
0A18E:  CALL   179C
....................             Imprime=10; 
0A192:  MOVLW  0A
0A194:  MOVLB  3
0A196:  MOVWF  xA4
....................             flagImprimir=1; 
0A198:  BSF    x50.6
....................          } 
....................       }else if(AlarmaCiclo){ // Alarma de Error de SobrePresion: Error por exceso de Presion. 
0A19A:  BRA    A206
0A19C:  MOVLB  0
0A19E:  BTFSS  x9F.6
0A1A0:  BRA    A208
....................          printf("Funcionamiento.t4f.txt=\" Error Ciclo\""); 
0A1A2:  MOVLW  DA
0A1A4:  MOVWF  FF6
0A1A6:  MOVLW  11
0A1A8:  MOVWF  FF7
0A1AA:  MOVLW  00
0A1AC:  MOVWF  FF8
0A1AE:  CALL   3506
....................          SendDataDisplay(); 
0A1B2:  CALL   3538
....................          printf("Funcionamiento.t5f.txt=\" Cancelado\""); 
0A1B6:  MOVLW  00
0A1B8:  MOVWF  FF6
0A1BA:  MOVLW  12
0A1BC:  MOVWF  FF7
0A1BE:  MOVLW  00
0A1C0:  MOVWF  FF8
0A1C2:  CALL   3506
....................          SendDataDisplay(); 
0A1C6:  CALL   3538
....................          Desfogue_on; 
0A1CA:  BSF    F8C.4
0A1CC:  BCF    F95.4
....................          SSR_off; 
0A1CE:  BSF    F8B.2
0A1D0:  BCF    F94.2
....................          IniciaLlenado=OFF; 
0A1D2:  BCF    x9F.7
....................          IniciaCiclo=OFF; 
0A1D4:  BCF    xA0.1
....................          Esterilizando=OFF; 
0A1D6:  BCF    xA0.2
....................          Controlando=0; 
0A1D8:  MOVLB  3
0A1DA:  CLRF   x53
....................          Vent_on; 
0A1DC:  BSF    F8C.5
0A1DE:  BCF    F95.5
....................          if(!flagImprimir && ActivaImpresion==1){ 
0A1E0:  BTFSC  x50.6
0A1E2:  BRA    A206
0A1E4:  DECFSZ x54,W
0A1E6:  BRA    A206
....................             Imprime=26; 
0A1E8:  MOVLW  1A
0A1EA:  MOVWF  xA4
....................             Envio_Esclavos(); 
0A1EC:  MOVLB  0
0A1EE:  CALL   3F0E
....................             delay_ms(100); 
0A1F2:  MOVLW  64
0A1F4:  MOVLB  4
0A1F6:  MOVWF  x04
0A1F8:  MOVLB  0
0A1FA:  CALL   179C
....................             Imprime=10; 
0A1FE:  MOVLW  0A
0A200:  MOVLB  3
0A202:  MOVWF  xA4
....................             flagImprimir=1; 
0A204:  BSF    x50.6
0A206:  MOVLB  0
....................          } 
....................       } 
....................    } 
....................    else{   
0A208:  GOTO   AA30
....................       Buzzer_off; 
0A20C:  BCF    F8C.0
0A20E:  BCF    F95.0
....................       IniciaCiclo=ON; 
0A210:  BSF    xA0.1
....................       if(flagImprime && ActivaImpresion==1){ 
0A212:  MOVLB  3
0A214:  BTFSS  x50.5
0A216:  BRA    A23A
0A218:  DECFSZ x54,W
0A21A:  BRA    A23A
....................          Imprime=5; 
0A21C:  MOVLW  05
0A21E:  MOVWF  xA4
....................          Envio_Esclavos(); 
0A220:  MOVLB  0
0A222:  CALL   3F0E
....................          delay_ms(100); 
0A226:  MOVLW  64
0A228:  MOVLB  4
0A22A:  MOVWF  x04
0A22C:  MOVLB  0
0A22E:  CALL   179C
....................          Imprime=10; 
0A232:  MOVLW  0A
0A234:  MOVLB  3
0A236:  MOVWF  xA4
....................          flagImprime=0; 
0A238:  BCF    x50.5
....................       } 
....................          if(!CalderinLleno){ 
0A23A:  MOVLB  0
0A23C:  BTFSC  xA0.0
0A23E:  BRA    A282
....................             printf("Funcionamiento.t4f.txt=\" Aplique Agua\""); 
0A240:  MOVLW  24
0A242:  MOVWF  FF6
0A244:  MOVLW  12
0A246:  MOVWF  FF7
0A248:  MOVLW  00
0A24A:  MOVWF  FF8
0A24C:  CALL   3506
....................             SendDataDisplay(); 
0A250:  CALL   3538
....................             printf("Funcionamiento.t5f.txt=\" Nivel Bajo\""); 
0A254:  MOVLW  4C
0A256:  MOVWF  FF6
0A258:  MOVLW  12
0A25A:  MOVWF  FF7
0A25C:  MOVLW  00
0A25E:  MOVWF  FF8
0A260:  CALL   3506
....................             SendDataDisplay(); 
0A264:  CALL   3538
....................             Control=0; 
0A268:  MOVLB  3
0A26A:  CLRF   x51
....................             IniciaLlenado=ON; 
0A26C:  MOVLB  0
0A26E:  BSF    x9F.7
....................             Controlando=0; 
0A270:  MOVLB  3
0A272:  CLRF   x53
....................             Desfogue_on; 
0A274:  BSF    F8C.4
0A276:  BCF    F95.4
....................             //AguaIn_on; 
....................             Paso_off; 
0A278:  BCF    F8C.6
0A27A:  BCF    F95.6
....................          } 
....................          else{ 
0A27C:  GOTO   AA32
0A280:  MOVLB  0
....................             if(!Esterilizando){ 
0A282:  BTFSC  xA0.2
0A284:  BRA    A336
....................                ControlaPresion2(); 
0A286:  CALL   49A0
....................                if(Tactual>=100){ 
0A28A:  MOVLB  3
0A28C:  CLRF   xF6
0A28E:  CLRF   xF5
0A290:  MOVLW  48
0A292:  MOVWF  xF4
0A294:  MOVLW  85
0A296:  MOVWF  xF3
0A298:  MOVFF  34B,3FA
0A29C:  MOVFF  34A,3F9
0A2A0:  MOVFF  349,3F8
0A2A4:  MOVFF  348,3F7
0A2A8:  MOVLB  0
0A2AA:  CALL   2A20
0A2AE:  BC    A2B2
0A2B0:  BNZ   A2C2
....................                   Temperatura=Tactual; 
0A2B2:  MOVFF  34B,324
0A2B6:  MOVFF  34A,323
0A2BA:  MOVFF  349,322
0A2BE:  MOVFF  348,321
....................                } 
....................                printf("Funcionamiento.t4f.txt=\" Ninguna\""); 
0A2C2:  MOVLW  72
0A2C4:  MOVWF  FF6
0A2C6:  MOVLW  12
0A2C8:  MOVWF  FF7
0A2CA:  MOVLW  00
0A2CC:  MOVWF  FF8
0A2CE:  CALL   3506
....................                SendDataDisplay(); 
0A2D2:  CALL   3538
....................                printf("Funcionamiento.t5f.txt=\" Calentando\""); 
0A2D6:  MOVLW  94
0A2D8:  MOVWF  FF6
0A2DA:  MOVLW  12
0A2DC:  MOVWF  FF7
0A2DE:  MOVLW  00
0A2E0:  MOVWF  FF8
0A2E2:  CALL   3506
....................                SendDataDisplay(); 
0A2E6:  CALL   3538
....................                Control=1; 
0A2EA:  MOVLW  01
0A2EC:  MOVLB  3
0A2EE:  MOVWF  x51
....................                //Controla(); 
....................                Paso_on; 
0A2F0:  BSF    F8C.6
0A2F2:  BCF    F95.6
....................                if(Temperatura<=TTrampa){ 
0A2F4:  MOVLB  4
0A2F6:  CLRF   x05
0A2F8:  MOVFF  2DB,404
0A2FC:  MOVLB  0
0A2FE:  CALL   17C2
0A302:  MOVFF  324,3F6
0A306:  MOVFF  323,3F5
0A30A:  MOVFF  322,3F4
0A30E:  MOVFF  321,3F3
0A312:  MOVFF  03,3FA
0A316:  MOVFF  02,3F9
0A31A:  MOVFF  01,3F8
0A31E:  MOVFF  00,3F7
0A322:  CALL   2A20
0A326:  BC    A32A
0A328:  BNZ   A330
....................                   Desfogue_on; 
0A32A:  BSF    F8C.4
0A32C:  BCF    F95.4
....................                }else{ 
0A32E:  BRA    A334
....................                   //Desfogue_off; 
....................                   purgaAire(); 
0A330:  GOTO   5204
....................                } 
....................             }else{ 
0A334:  BRA    A94E
....................                TiempoCiclo=0; 
0A336:  CLRF   xA5
0A338:  CLRF   xA4
....................                if((Testerilizacion[0]==0)&&(Testerilizacion[1]==0)&& 
....................                (Testerilizacion[2]==0)&&(Testerilizacion[3]==0)){  
0A33A:  MOVF   xB0,F
0A33C:  BTFSS  FD8.2
0A33E:  BRA    A906
0A340:  MOVF   xB1,F
0A342:  BTFSS  FD8.2
0A344:  BRA    A906
0A346:  MOVF   xB2,F
0A348:  BTFSS  FD8.2
0A34A:  BRA    A906
0A34C:  MOVF   xB3,F
0A34E:  BTFSS  FD8.2
0A350:  BRA    A906
....................                   if(desfoguelento){ 
0A352:  MOVLB  3
0A354:  BTFSS  x50.0
0A356:  BRA    A4E8
....................                      Controlando=0; 
0A358:  CLRF   x53
....................                      if(PresionCamara<=25){ 
0A35A:  MOVF   x75,F
0A35C:  BTFSS  FD8.2
0A35E:  BRA    A4A4
0A360:  MOVF   x74,W
0A362:  SUBLW  19
0A364:  BTFSS  FD8.0
0A366:  BRA    A4A4
....................                         Secando=OFF; 
0A368:  MOVLB  0
0A36A:  BCF    xA0.3
....................                         DesfogueSuave=OFF; 
0A36C:  BCF    xA0.6
....................                         //Paso_off; 
....................                         if(!DOOR){ 
0A36E:  BSF    F93.6
0A370:  BTFSS  F81.6
0A372:  BRA    A37E
....................                            Desfogue_off;  
0A374:  BCF    F8C.4
0A376:  BCF    F95.4
....................                            Paso_off; 
0A378:  BCF    F8C.6
0A37A:  BCF    F95.6
....................                         }else{ 
0A37C:  BRA    A386
....................                            Desfogue_on; 
0A37E:  BSF    F8C.4
0A380:  BCF    F95.4
....................                            Paso_off; 
0A382:  BCF    F8C.6
0A384:  BCF    F95.6
....................                         } 
....................                         if(PresionCamara<2){ 
0A386:  MOVLB  3
0A388:  MOVF   x75,F
0A38A:  BTFSS  FD8.2
0A38C:  BRA    A49E
0A38E:  MOVF   x74,W
0A390:  SUBLW  01
0A392:  BTFSS  FD8.0
0A394:  BRA    A49E
....................                            if(Temperatura<=90){ 
0A396:  MOVFF  324,3F6
0A39A:  MOVFF  323,3F5
0A39E:  MOVFF  322,3F4
0A3A2:  MOVFF  321,3F3
0A3A6:  CLRF   xFA
0A3A8:  CLRF   xF9
0A3AA:  MOVLW  34
0A3AC:  MOVWF  xF8
0A3AE:  MOVLW  85
0A3B0:  MOVWF  xF7
0A3B2:  MOVLB  0
0A3B4:  CALL   2A20
0A3B8:  BC    A3BC
0A3BA:  BNZ   A3F2
....................                               ActivaAlarma(2); 
0A3BC:  MOVLW  02
0A3BE:  MOVLB  3
0A3C0:  MOVWF  xEF
0A3C2:  MOVLB  0
0A3C4:  CALL   417A
....................                               printf("Funcionamiento.t4f.txt=\" Ninguna\""); 
0A3C8:  MOVLW  BA
0A3CA:  MOVWF  FF6
0A3CC:  MOVLW  12
0A3CE:  MOVWF  FF7
0A3D0:  MOVLW  00
0A3D2:  MOVWF  FF8
0A3D4:  CALL   3506
....................                               SendDataDisplay(); 
0A3D8:  CALL   3538
....................                               printf("Funcionamiento.t5f.txt=\" Finalizado\""); 
0A3DC:  MOVLW  DC
0A3DE:  MOVWF  FF6
0A3E0:  MOVLW  12
0A3E2:  MOVWF  FF7
0A3E4:  MOVLW  00
0A3E6:  MOVWF  FF8
0A3E8:  CALL   3506
....................                               SendDataDisplay(); 
0A3EC:  CALL   3538
....................                               Finalizo=ON; 
0A3F0:  BSF    xA3.1
....................                            } 
....................                            if(!Ciclo){ 
0A3F2:  BTFSC  xA1.3
0A3F4:  BRA    A4A0
....................                               Ciclo=ON; 
0A3F6:  BSF    xA1.3
....................                               Ciclos++; 
0A3F8:  MOVLB  3
0A3FA:  INCF   x78,F
0A3FC:  BTFSC  FD8.2
0A3FE:  INCF   x79,F
....................                               CiclosL=make8(Ciclos,0); 
0A400:  MOVFF  378,35F
....................                               CiclosH=make8(Ciclos,1); 
0A404:  MOVFF  379,360
....................                               write_eeprom(37,CiclosL); 
0A408:  CLRF   FAA
0A40A:  MOVLW  25
0A40C:  MOVWF  FA9
0A40E:  MOVFF  35F,FA8
0A412:  BCF    FA6.6
0A414:  BCF    FA6.7
0A416:  BSF    FA6.2
0A418:  MOVF   FF2,W
0A41A:  MOVWF  00
0A41C:  BCF    FF2.6
0A41E:  BCF    FF2.7
0A420:  MOVLB  F
0A422:  MOVLW  55
0A424:  MOVWF  FA7
0A426:  MOVLW  AA
0A428:  MOVWF  FA7
0A42A:  BSF    FA6.1
0A42C:  BTFSC  FA6.1
0A42E:  BRA    A42C
0A430:  BCF    FA6.2
0A432:  MOVF   00,W
0A434:  IORWF  FF2,F
....................                               delay_ms(20); 
0A436:  MOVLW  14
0A438:  MOVLB  4
0A43A:  MOVWF  x04
0A43C:  MOVLB  0
0A43E:  CALL   179C
....................                               write_eeprom(38,CiclosH); 
0A442:  CLRF   FAA
0A444:  MOVLW  26
0A446:  MOVWF  FA9
0A448:  MOVFF  360,FA8
0A44C:  BCF    FA6.6
0A44E:  BCF    FA6.7
0A450:  BSF    FA6.2
0A452:  MOVF   FF2,W
0A454:  MOVWF  00
0A456:  BCF    FF2.6
0A458:  BCF    FF2.7
0A45A:  MOVLB  F
0A45C:  MOVLW  55
0A45E:  MOVWF  FA7
0A460:  MOVLW  AA
0A462:  MOVWF  FA7
0A464:  BSF    FA6.1
0A466:  BTFSC  FA6.1
0A468:  BRA    A466
0A46A:  BCF    FA6.2
0A46C:  MOVF   00,W
0A46E:  IORWF  FF2,F
....................                               delay_ms(20); 
0A470:  MOVLW  14
0A472:  MOVLB  4
0A474:  MOVWF  x04
0A476:  MOVLB  0
0A478:  CALL   179C
....................                               if(ActivaImpresion==1){ 
0A47C:  MOVLB  3
0A47E:  DECFSZ x54,W
0A480:  BRA    A49E
....................                                  Imprime=28; 
0A482:  MOVLW  1C
0A484:  MOVWF  xA4
....................                                  Envio_Esclavos(); 
0A486:  MOVLB  0
0A488:  CALL   3F0E
....................                                  delay_ms(100); 
0A48C:  MOVLW  64
0A48E:  MOVLB  4
0A490:  MOVWF  x04
0A492:  MOVLB  0
0A494:  CALL   179C
....................                                  Imprime=10; 
0A498:  MOVLW  0A
0A49A:  MOVLB  3
0A49C:  MOVWF  xA4
0A49E:  MOVLB  0
....................                               } 
....................                            } 
....................                         } 
....................                      }else{ 
0A4A0:  BRA    A4E4
0A4A2:  MOVLB  3
....................                         Desfogando=ON; 
0A4A4:  MOVLB  0
0A4A6:  BSF    xA0.5
....................                         DesfogueSuave=ON; 
0A4A8:  BSF    xA0.6
....................                         printf("Funcionamiento.t4f.txt=\" Ninguna\""); 
0A4AA:  MOVLW  02
0A4AC:  MOVWF  FF6
0A4AE:  MOVLW  13
0A4B0:  MOVWF  FF7
0A4B2:  MOVLW  00
0A4B4:  MOVWF  FF8
0A4B6:  CALL   3506
....................                         SendDataDisplay(); 
0A4BA:  CALL   3538
....................                         printf("Funcionamiento.t5f.txt=\" Despresurizando\""); 
0A4BE:  MOVLW  24
0A4C0:  MOVWF  FF6
0A4C2:  MOVLW  13
0A4C4:  MOVWF  FF7
0A4C6:  MOVLW  00
0A4C8:  MOVWF  FF8
0A4CA:  CALL   3506
....................                         SendDataDisplay(); 
0A4CE:  CALL   3538
....................                         Control=0; 
0A4D2:  MOVLB  3
0A4D4:  CLRF   x51
....................                         SSR_off; 
0A4D6:  BSF    F8B.2
0A4D8:  BCF    F94.2
....................                         Vent_on; 
0A4DA:  BSF    F8C.5
0A4DC:  BCF    F95.5
....................                         Paso_on; 
0A4DE:  BSF    F8C.6
0A4E0:  BCF    F95.6
0A4E2:  MOVLB  0
....................                      } 
....................                   }else{ 
0A4E4:  BRA    A904
0A4E6:  MOVLB  3
....................                      //SSR_off; 
....................                      Paso_off; 
0A4E8:  BCF    F8C.6
0A4EA:  BCF    F95.6
....................                      Controlando=0; 
0A4EC:  CLRF   x53
....................                      Control=0; 
0A4EE:  CLRF   x51
....................                      if(PresionCamara<2){ 
0A4F0:  MOVF   x75,F
0A4F2:  BTFSS  FD8.2
0A4F4:  BRA    A67C
0A4F6:  MOVF   x74,W
0A4F8:  SUBLW  01
0A4FA:  BTFSS  FD8.0
0A4FC:  BRA    A67C
....................                         if((Tsecado[0]==0)&&(Tsecado[1]==0)&&(Tsecado[2]==0)&&(Tsecado[3]==0)){ 
0A4FE:  MOVLB  0
0A500:  MOVF   xBA,F
0A502:  BTFSS  FD8.2
0A504:  BRA    A646
0A506:  MOVF   xBB,F
0A508:  BTFSS  FD8.2
0A50A:  BRA    A646
0A50C:  MOVF   xBC,F
0A50E:  BTFSS  FD8.2
0A510:  BRA    A646
0A512:  MOVF   xBD,F
0A514:  BTFSS  FD8.2
0A516:  BRA    A646
....................                            if(!DOOR){ 
0A518:  BSF    F93.6
0A51A:  BTFSS  F81.6
0A51C:  BRA    A528
....................                               Desfogue_off; 
0A51E:  BCF    F8C.4
0A520:  BCF    F95.4
....................                               Paso_off; 
0A522:  BCF    F8C.6
0A524:  BCF    F95.6
....................                            }else{ 
0A526:  BRA    A530
....................                               Desfogue_on;  
0A528:  BSF    F8C.4
0A52A:  BCF    F95.4
....................                               Paso_off; 
0A52C:  BCF    F8C.6
0A52E:  BCF    F95.6
....................                            } 
....................                            SSR_off; 
0A530:  BSF    F8B.2
0A532:  BCF    F94.2
....................                            Secando=OFF; 
0A534:  BCF    xA0.3
....................                            if(Temperatura<=90){ 
0A536:  MOVFF  324,3F6
0A53A:  MOVFF  323,3F5
0A53E:  MOVFF  322,3F4
0A542:  MOVFF  321,3F3
0A546:  MOVLB  3
0A548:  CLRF   xFA
0A54A:  CLRF   xF9
0A54C:  MOVLW  34
0A54E:  MOVWF  xF8
0A550:  MOVLW  85
0A552:  MOVWF  xF7
0A554:  MOVLB  0
0A556:  CALL   2A20
0A55A:  BC    A55E
0A55C:  BNZ   A594
....................                               ActivaAlarma(2); 
0A55E:  MOVLW  02
0A560:  MOVLB  3
0A562:  MOVWF  xEF
0A564:  MOVLB  0
0A566:  CALL   417A
....................                               printf("Funcionamiento.t4f.txt=\" Ninguna\""); 
0A56A:  MOVLW  4E
0A56C:  MOVWF  FF6
0A56E:  MOVLW  13
0A570:  MOVWF  FF7
0A572:  MOVLW  00
0A574:  MOVWF  FF8
0A576:  CALL   3506
....................                               SendDataDisplay(); 
0A57A:  CALL   3538
....................                               printf("Funcionamiento.t5f.txt=\" Finalizado\""); 
0A57E:  MOVLW  70
0A580:  MOVWF  FF6
0A582:  MOVLW  13
0A584:  MOVWF  FF7
0A586:  MOVLW  00
0A588:  MOVWF  FF8
0A58A:  CALL   3506
....................                               SendDataDisplay(); 
0A58E:  CALL   3538
....................                               Finalizo=ON; 
0A592:  BSF    xA3.1
....................                            } 
....................                            if(!Ciclo){ 
0A594:  BTFSC  xA1.3
0A596:  BRA    A642
....................                               Ciclo=ON; 
0A598:  BSF    xA1.3
....................                               Ciclos++; 
0A59A:  MOVLB  3
0A59C:  INCF   x78,F
0A59E:  BTFSC  FD8.2
0A5A0:  INCF   x79,F
....................                               CiclosL=make8(Ciclos,0); 
0A5A2:  MOVFF  378,35F
....................                               CiclosH=make8(Ciclos,1); 
0A5A6:  MOVFF  379,360
....................                               write_eeprom(37,CiclosL); 
0A5AA:  CLRF   FAA
0A5AC:  MOVLW  25
0A5AE:  MOVWF  FA9
0A5B0:  MOVFF  35F,FA8
0A5B4:  BCF    FA6.6
0A5B6:  BCF    FA6.7
0A5B8:  BSF    FA6.2
0A5BA:  MOVF   FF2,W
0A5BC:  MOVWF  00
0A5BE:  BCF    FF2.6
0A5C0:  BCF    FF2.7
0A5C2:  MOVLB  F
0A5C4:  MOVLW  55
0A5C6:  MOVWF  FA7
0A5C8:  MOVLW  AA
0A5CA:  MOVWF  FA7
0A5CC:  BSF    FA6.1
0A5CE:  BTFSC  FA6.1
0A5D0:  BRA    A5CE
0A5D2:  BCF    FA6.2
0A5D4:  MOVF   00,W
0A5D6:  IORWF  FF2,F
....................                               delay_ms(20); 
0A5D8:  MOVLW  14
0A5DA:  MOVLB  4
0A5DC:  MOVWF  x04
0A5DE:  MOVLB  0
0A5E0:  CALL   179C
....................                               write_eeprom(38,CiclosH); 
0A5E4:  CLRF   FAA
0A5E6:  MOVLW  26
0A5E8:  MOVWF  FA9
0A5EA:  MOVFF  360,FA8
0A5EE:  BCF    FA6.6
0A5F0:  BCF    FA6.7
0A5F2:  BSF    FA6.2
0A5F4:  MOVF   FF2,W
0A5F6:  MOVWF  00
0A5F8:  BCF    FF2.6
0A5FA:  BCF    FF2.7
0A5FC:  MOVLB  F
0A5FE:  MOVLW  55
0A600:  MOVWF  FA7
0A602:  MOVLW  AA
0A604:  MOVWF  FA7
0A606:  BSF    FA6.1
0A608:  BTFSC  FA6.1
0A60A:  BRA    A608
0A60C:  BCF    FA6.2
0A60E:  MOVF   00,W
0A610:  IORWF  FF2,F
....................                               delay_ms(20); 
0A612:  MOVLW  14
0A614:  MOVLB  4
0A616:  MOVWF  x04
0A618:  MOVLB  0
0A61A:  CALL   179C
....................                               if(ActivaImpresion==1){ 
0A61E:  MOVLB  3
0A620:  DECFSZ x54,W
0A622:  BRA    A640
....................                                  Imprime=28; 
0A624:  MOVLW  1C
0A626:  MOVWF  xA4
....................                                  Envio_Esclavos(); 
0A628:  MOVLB  0
0A62A:  CALL   3F0E
....................                                  delay_ms(100); 
0A62E:  MOVLW  64
0A630:  MOVLB  4
0A632:  MOVWF  x04
0A634:  MOVLB  0
0A636:  CALL   179C
....................                                  Imprime=10; 
0A63A:  MOVLW  0A
0A63C:  MOVLB  3
0A63E:  MOVWF  xA4
0A640:  MOVLB  0
....................                               } 
....................                            } 
....................                            Secando=OFF; 
0A642:  BCF    xA0.3
....................                         }else{ 
0A644:  BRA    A678
....................                            Secando=ON; 
0A646:  BSF    xA0.3
....................                            printf("Funcionamiento.t4f.txt=\" Ninguna\""); 
0A648:  MOVLW  96
0A64A:  MOVWF  FF6
0A64C:  MOVLW  13
0A64E:  MOVWF  FF7
0A650:  MOVLW  00
0A652:  MOVWF  FF8
0A654:  CALL   3506
....................                            SendDataDisplay(); 
0A658:  CALL   3538
....................                            printf("Funcionamiento.t5f.txt=\" Secando\""); 
0A65C:  MOVLW  B8
0A65E:  MOVWF  FF6
0A660:  MOVLW  13
0A662:  MOVWF  FF7
0A664:  MOVLW  00
0A666:  MOVWF  FF8
0A668:  CALL   3506
....................                            SendDataDisplay(); 
0A66C:  CALL   3538
....................                            Paso_off; 
0A670:  BCF    F8C.6
0A672:  BCF    F95.6
....................                            SSR_off; 
0A674:  BSF    F8B.2
0A676:  BCF    F94.2
....................                            //CalientaChaqueta(); 
....................                         } 
....................                      }else{ 
0A678:  BRA    A904
0A67A:  MOVLB  3
....................                         Desfogando=ON; 
0A67C:  MOVLB  0
0A67E:  BSF    xA0.5
....................                         printf("Funcionamiento.t4f.txt=\" Ninguna\""); 
0A680:  MOVLW  DA
0A682:  MOVWF  FF6
0A684:  MOVLW  13
0A686:  MOVWF  FF7
0A688:  MOVLW  00
0A68A:  MOVWF  FF8
0A68C:  CALL   3506
....................                         SendDataDisplay(); 
0A690:  CALL   3538
....................                         printf("Funcionamiento.t5f.txt=\" Despresurizando\""); 
0A694:  MOVLW  FC
0A696:  MOVWF  FF6
0A698:  MOVLW  13
0A69A:  MOVWF  FF7
0A69C:  MOVLW  00
0A69E:  MOVWF  FF8
0A6A0:  CALL   3506
....................                         SendDataDisplay(); 
0A6A4:  CALL   3538
....................                         Control=0; 
0A6A8:  MOVLB  3
0A6AA:  CLRF   x51
....................                         SSR_off; 
0A6AC:  BSF    F8B.2
0A6AE:  BCF    F94.2
....................                         Controlando=0; 
0A6B0:  CLRF   x53
....................                         Paso_off; 
0A6B2:  BCF    F8C.6
0A6B4:  BCF    F95.6
....................                         Desfogue_on; 
0A6B6:  BSF    F8C.4
0A6B8:  BCF    F95.4
....................                         Vent_on; 
0A6BA:  BSF    F8C.5
0A6BC:  BCF    F95.5
....................                         prc=(float)PresionCamara+72; 
0A6BE:  MOVFF  375,405
0A6C2:  MOVFF  374,404
0A6C6:  MOVLB  0
0A6C8:  CALL   17C2
0A6CC:  MOVFF  00,3EF
0A6D0:  MOVFF  01,3F0
0A6D4:  MOVFF  02,3F1
0A6D8:  MOVFF  03,3F2
0A6DC:  BCF    FD8.1
0A6DE:  MOVFF  03,407
0A6E2:  MOVFF  02,406
0A6E6:  MOVFF  01,405
0A6EA:  MOVFF  00,404
0A6EE:  MOVLB  4
0A6F0:  CLRF   x0B
0A6F2:  CLRF   x0A
0A6F4:  MOVLW  10
0A6F6:  MOVWF  x09
0A6F8:  MOVLW  85
0A6FA:  MOVWF  x08
0A6FC:  MOVLB  0
0A6FE:  CALL   19A6
0A702:  MOVFF  03,34F
0A706:  MOVFF  02,34E
0A70A:  MOVFF  01,34D
0A70E:  MOVFF  00,34C
....................                         Tactual=((prc)*(prc)*(prc)*p1)+((prc)*(prc)*p2)+(p3*prc)+p4; 
0A712:  MOVFF  34F,40B
0A716:  MOVFF  34E,40A
0A71A:  MOVFF  34D,409
0A71E:  MOVFF  34C,408
0A722:  MOVFF  34F,40F
0A726:  MOVFF  34E,40E
0A72A:  MOVFF  34D,40D
0A72E:  MOVFF  34C,40C
0A732:  CALL   3602
0A736:  MOVFF  00,3EF
0A73A:  MOVFF  01,3F0
0A73E:  MOVFF  02,3F1
0A742:  MOVFF  03,3F2
0A746:  MOVFF  03,40B
0A74A:  MOVFF  02,40A
0A74E:  MOVFF  01,409
0A752:  MOVFF  00,408
0A756:  MOVFF  34F,40F
0A75A:  MOVFF  34E,40E
0A75E:  MOVFF  34D,40D
0A762:  MOVFF  34C,40C
0A766:  CALL   3602
0A76A:  MOVFF  00,3EF
0A76E:  MOVFF  01,3F0
0A772:  MOVFF  02,3F1
0A776:  MOVFF  03,3F2
0A77A:  MOVFF  03,40B
0A77E:  MOVFF  02,40A
0A782:  MOVFF  01,409
0A786:  MOVFF  00,408
0A78A:  MOVFF  33B,40F
0A78E:  MOVFF  33A,40E
0A792:  MOVFF  339,40D
0A796:  MOVFF  338,40C
0A79A:  CALL   3602
0A79E:  MOVFF  00,3EF
0A7A2:  MOVFF  01,3F0
0A7A6:  MOVFF  02,3F1
0A7AA:  MOVFF  03,3F2
0A7AE:  MOVFF  34F,40B
0A7B2:  MOVFF  34E,40A
0A7B6:  MOVFF  34D,409
0A7BA:  MOVFF  34C,408
0A7BE:  MOVFF  34F,40F
0A7C2:  MOVFF  34E,40E
0A7C6:  MOVFF  34D,40D
0A7CA:  MOVFF  34C,40C
0A7CE:  CALL   3602
0A7D2:  MOVFF  00,3F3
0A7D6:  MOVFF  01,3F4
0A7DA:  MOVFF  02,3F5
0A7DE:  MOVFF  03,3F6
0A7E2:  MOVFF  03,40B
0A7E6:  MOVFF  02,40A
0A7EA:  MOVFF  01,409
0A7EE:  MOVFF  00,408
0A7F2:  MOVFF  33F,40F
0A7F6:  MOVFF  33E,40E
0A7FA:  MOVFF  33D,40D
0A7FE:  MOVFF  33C,40C
0A802:  CALL   3602
0A806:  BCF    FD8.1
0A808:  MOVFF  3F2,407
0A80C:  MOVFF  3F1,406
0A810:  MOVFF  3F0,405
0A814:  MOVFF  3EF,404
0A818:  MOVFF  03,40B
0A81C:  MOVFF  02,40A
0A820:  MOVFF  01,409
0A824:  MOVFF  00,408
0A828:  CALL   19A6
0A82C:  MOVFF  00,3EF
0A830:  MOVFF  01,3F0
0A834:  MOVFF  02,3F1
0A838:  MOVFF  03,3F2
0A83C:  MOVFF  343,40B
0A840:  MOVFF  342,40A
0A844:  MOVFF  341,409
0A848:  MOVFF  340,408
0A84C:  MOVFF  34F,40F
0A850:  MOVFF  34E,40E
0A854:  MOVFF  34D,40D
0A858:  MOVFF  34C,40C
0A85C:  CALL   3602
0A860:  BCF    FD8.1
0A862:  MOVFF  3F2,407
0A866:  MOVFF  3F1,406
0A86A:  MOVFF  3F0,405
0A86E:  MOVFF  3EF,404
0A872:  MOVFF  03,40B
0A876:  MOVFF  02,40A
0A87A:  MOVFF  01,409
0A87E:  MOVFF  00,408
0A882:  CALL   19A6
0A886:  MOVFF  00,3EF
0A88A:  MOVFF  01,3F0
0A88E:  MOVFF  02,3F1
0A892:  MOVFF  03,3F2
0A896:  BCF    FD8.1
0A898:  MOVFF  03,407
0A89C:  MOVFF  02,406
0A8A0:  MOVFF  01,405
0A8A4:  MOVFF  00,404
0A8A8:  MOVFF  347,40B
0A8AC:  MOVFF  346,40A
0A8B0:  MOVFF  345,409
0A8B4:  MOVFF  344,408
0A8B8:  CALL   19A6
0A8BC:  MOVFF  03,34B
0A8C0:  MOVFF  02,34A
0A8C4:  MOVFF  01,349
0A8C8:  MOVFF  00,348
....................                         if(Temperatura>=100){ 
0A8CC:  MOVLB  3
0A8CE:  CLRF   xF6
0A8D0:  CLRF   xF5
0A8D2:  MOVLW  48
0A8D4:  MOVWF  xF4
0A8D6:  MOVLW  85
0A8D8:  MOVWF  xF3
0A8DA:  MOVFF  324,3FA
0A8DE:  MOVFF  323,3F9
0A8E2:  MOVFF  322,3F8
0A8E6:  MOVFF  321,3F7
0A8EA:  MOVLB  0
0A8EC:  CALL   2A20
0A8F0:  BC    A8F4
0A8F2:  BNZ   A904
....................                            Temperatura=Tactual; 
0A8F4:  MOVFF  34B,324
0A8F8:  MOVFF  34A,323
0A8FC:  MOVFF  349,322
0A900:  MOVFF  348,321
....................                         } 
....................                      } 
....................                   } 
....................                    
....................                }else{ 
0A904:  BRA    A94E
....................                   printf("Funcionamiento.t4f.txt=\" Ninguna\""); 
0A906:  MOVLW  26
0A908:  MOVWF  FF6
0A90A:  MOVLW  14
0A90C:  MOVWF  FF7
0A90E:  MOVLW  00
0A910:  MOVWF  FF8
0A912:  CALL   3506
....................                   SendDataDisplay(); 
0A916:  CALL   3538
....................                   printf("Funcionamiento.t5f.txt=\" Esterilizando\""); 
0A91A:  MOVLW  48
0A91C:  MOVWF  FF6
0A91E:  MOVLW  14
0A920:  MOVWF  FF7
0A922:  MOVLW  00
0A924:  MOVWF  FF8
0A926:  CALL   3506
....................                   SendDataDisplay(); 
0A92A:  CALL   3538
....................                   Paso_on; 
0A92E:  BSF    F8C.6
0A930:  BCF    F95.6
....................                   Control=1; 
0A932:  MOVLW  01
0A934:  MOVLB  3
0A936:  MOVWF  x51
....................                   //Controla(); 
....................                   ControlaPresion2(); 
0A938:  MOVLB  0
0A93A:  CALL   49A0
....................                   Temperatura=Tactual; 
0A93E:  MOVFF  34B,324
0A942:  MOVFF  34A,323
0A946:  MOVFF  349,322
0A94A:  MOVFF  348,321
....................                } 
....................             } 
....................             //AguaIn_off; 
....................             if(Temperatura>=((float)Setpoint-0.3)){ 
0A94E:  MOVLB  4
0A950:  CLRF   x05
0A952:  MOVFF  362,404
0A956:  MOVLB  0
0A958:  CALL   17C2
0A95C:  MOVFF  00,3EF
0A960:  MOVFF  01,3F0
0A964:  MOVFF  02,3F1
0A968:  MOVFF  03,3F2
0A96C:  BSF    FD8.1
0A96E:  MOVFF  03,407
0A972:  MOVFF  02,406
0A976:  MOVFF  01,405
0A97A:  MOVFF  00,404
0A97E:  MOVLW  9A
0A980:  MOVLB  4
0A982:  MOVWF  x0B
0A984:  MOVLW  99
0A986:  MOVWF  x0A
0A988:  MOVLW  19
0A98A:  MOVWF  x09
0A98C:  MOVLW  7D
0A98E:  MOVWF  x08
0A990:  MOVLB  0
0A992:  CALL   19A6
0A996:  MOVFF  03,3F6
0A99A:  MOVFF  02,3F5
0A99E:  MOVFF  01,3F4
0A9A2:  MOVFF  00,3F3
0A9A6:  MOVFF  324,3FA
0A9AA:  MOVFF  323,3F9
0A9AE:  MOVFF  322,3F8
0A9B2:  MOVFF  321,3F7
0A9B6:  CALL   2A20
0A9BA:  BC    A9BE
0A9BC:  BNZ   A9C0
....................                Esterilizando=ON; 
0A9BE:  BSF    xA0.2
....................             } 
....................              
....................             if(Temperatura<((float)Setpoint-0.9) && !Desfogando){ 
0A9C0:  MOVLB  4
0A9C2:  CLRF   x05
0A9C4:  MOVFF  362,404
0A9C8:  MOVLB  0
0A9CA:  CALL   17C2
0A9CE:  MOVFF  00,3EF
0A9D2:  MOVFF  01,3F0
0A9D6:  MOVFF  02,3F1
0A9DA:  MOVFF  03,3F2
0A9DE:  BSF    FD8.1
0A9E0:  MOVFF  03,407
0A9E4:  MOVFF  02,406
0A9E8:  MOVFF  01,405
0A9EC:  MOVFF  00,404
0A9F0:  MOVLW  66
0A9F2:  MOVLB  4
0A9F4:  MOVWF  x0B
0A9F6:  MOVWF  x0A
0A9F8:  MOVWF  x09
0A9FA:  MOVLW  7E
0A9FC:  MOVWF  x08
0A9FE:  MOVLB  0
0AA00:  CALL   19A6
0AA04:  MOVFF  324,3F6
0AA08:  MOVFF  323,3F5
0AA0C:  MOVFF  322,3F4
0AA10:  MOVFF  321,3F3
0AA14:  MOVFF  03,3FA
0AA18:  MOVFF  02,3F9
0AA1C:  MOVFF  01,3F8
0AA20:  MOVFF  00,3F7
0AA24:  CALL   2A20
0AA28:  BNC   AA30
0AA2A:  BTFSC  xA0.5
0AA2C:  BRA    AA30
....................                Esterilizando=OFF; 
0AA2E:  BCF    xA0.2
0AA30:  MOVLB  3
....................             } 
....................          } 
....................    } 
....................  
....................    if(Grafica==1){ 
0AA32:  BTFSS  x50.2
0AA34:  BRA    AA72
....................       printf("add 14,0,%1.0f",Temperatura); 
0AA36:  MOVLW  70
0AA38:  MOVWF  FF6
0AA3A:  MOVLW  14
0AA3C:  MOVWF  FF7
0AA3E:  MOVLW  00
0AA40:  MOVWF  FF8
0AA42:  MOVLW  09
0AA44:  MOVWF  xF3
0AA46:  MOVLB  0
0AA48:  CALL   4276
0AA4C:  MOVLW  00
0AA4E:  MOVWF  FE9
0AA50:  MOVFF  324,3F6
0AA54:  MOVFF  323,3F5
0AA58:  MOVFF  322,3F4
0AA5C:  MOVFF  321,3F3
0AA60:  MOVLB  3
0AA62:  CLRF   xF7
0AA64:  MOVLB  0
0AA66:  CALL   4416
....................       SendDataDisplay(); 
0AA6A:  CALL   3538
....................       Grafica=0; 
0AA6E:  MOVLB  3
0AA70:  BCF    x50.2
....................    } 
....................    if(Lectura==1)// Utilizado para visualizar la lectura de la temperatura 
0AA72:  BTFSS  x50.1
0AA74:  BRA    AD4C
....................    {                             
....................       Lectura=0; 
0AA76:  BCF    x50.1
....................       printf("t6f.txt=\"%3.1fC\"",Temperatura); 
0AA78:  MOVLW  80
0AA7A:  MOVWF  FF6
0AA7C:  MOVLW  14
0AA7E:  MOVWF  FF7
0AA80:  MOVLW  00
0AA82:  MOVWF  FF8
0AA84:  MOVLW  09
0AA86:  MOVWF  xF3
0AA88:  MOVLB  0
0AA8A:  CALL   4276
0AA8E:  MOVLW  02
0AA90:  MOVWF  FE9
0AA92:  MOVFF  324,3F6
0AA96:  MOVFF  323,3F5
0AA9A:  MOVFF  322,3F4
0AA9E:  MOVFF  321,3F3
0AAA2:  MOVLW  01
0AAA4:  MOVLB  3
0AAA6:  MOVWF  xF7
0AAA8:  MOVLB  0
0AAAA:  CALL   4416
0AAAE:  MOVLW  B0
0AAB0:  BTFSS  F9E.4
0AAB2:  BRA    AAB0
0AAB4:  MOVWF  FAD
0AAB6:  MOVLW  43
0AAB8:  BTFSS  F9E.4
0AABA:  BRA    AAB8
0AABC:  MOVWF  FAD
0AABE:  MOVLW  22
0AAC0:  BTFSS  F9E.4
0AAC2:  BRA    AAC0
0AAC4:  MOVWF  FAD
....................       SendDataDisplay(); 
0AAC6:  CALL   3538
....................       printf("Funcionamiento.t7f.txt=\"%03LukPa\"",PresionCamara); 
0AACA:  MOVLW  92
0AACC:  MOVWF  FF6
0AACE:  MOVLW  14
0AAD0:  MOVWF  FF7
0AAD2:  MOVLW  00
0AAD4:  MOVWF  FF8
0AAD6:  MOVLW  18
0AAD8:  MOVLB  3
0AADA:  MOVWF  xF3
0AADC:  MOVLB  0
0AADE:  CALL   4276
0AAE2:  MOVLW  0A
0AAE4:  MOVWF  FE9
0AAE6:  MOVFF  375,3F4
0AAEA:  MOVFF  374,3F3
0AAEE:  CALL   4640
0AAF2:  MOVLW  AF
0AAF4:  MOVWF  FF6
0AAF6:  MOVLW  14
0AAF8:  MOVWF  FF7
0AAFA:  MOVLW  00
0AAFC:  MOVWF  FF8
0AAFE:  MOVLW  04
0AB00:  MOVLB  3
0AB02:  MOVWF  xF3
0AB04:  MOVLB  0
0AB06:  CALL   4276
....................       SendDataDisplay(); 
0AB0A:  CALL   3538
....................       //printf("Funcionamiento.t12f.txt=\"%03LukPa\"",PresionPreCamara); 
....................       printf("Funcionamiento.t12f.txt=\"000kPa\""); 
0AB0E:  MOVLW  B4
0AB10:  MOVWF  FF6
0AB12:  MOVLW  14
0AB14:  MOVWF  FF7
0AB16:  MOVLW  00
0AB18:  MOVWF  FF8
0AB1A:  CALL   3506
....................       SendDataDisplay(); 
0AB1E:  CALL   3538
....................       printf("Funcionamiento.t9f.txt=\"%03u\"",Setpoint); 
0AB22:  MOVLW  D6
0AB24:  MOVWF  FF6
0AB26:  MOVLW  14
0AB28:  MOVWF  FF7
0AB2A:  MOVLW  00
0AB2C:  MOVWF  FF8
0AB2E:  MOVLW  18
0AB30:  MOVLB  3
0AB32:  MOVWF  xF3
0AB34:  MOVLB  0
0AB36:  CALL   4276
0AB3A:  MOVFF  362,3F1
0AB3E:  MOVLW  03
0AB40:  MOVLB  3
0AB42:  MOVWF  xF2
0AB44:  MOVLB  0
0AB46:  CALL   42D4
0AB4A:  MOVLW  22
0AB4C:  BTFSS  F9E.4
0AB4E:  BRA    AB4C
0AB50:  MOVWF  FAD
....................       SendDataDisplay();       
0AB52:  CALL   3538
....................       printf("Funcionamiento.t10f.txt=\"%02u\"",((Testerilizacion[3]*10)+Testerilizacion[2])); 
0AB56:  MOVFF  B3,3F1
0AB5A:  MOVLW  0A
0AB5C:  MOVLB  3
0AB5E:  MOVWF  xF2
0AB60:  MOVLB  0
0AB62:  CALL   2A9A
0AB66:  MOVF   xB2,W
0AB68:  ADDWF  01,W
0AB6A:  MOVLB  3
0AB6C:  MOVWF  xEF
0AB6E:  MOVLW  F4
0AB70:  MOVWF  FF6
0AB72:  MOVLW  14
0AB74:  MOVWF  FF7
0AB76:  MOVLW  00
0AB78:  MOVWF  FF8
0AB7A:  MOVLW  19
0AB7C:  MOVWF  xF3
0AB7E:  MOVLB  0
0AB80:  CALL   4276
0AB84:  MOVFF  3EF,3F1
0AB88:  MOVLW  01
0AB8A:  MOVLB  3
0AB8C:  MOVWF  xF2
0AB8E:  MOVLB  0
0AB90:  CALL   42D4
0AB94:  MOVLW  22
0AB96:  BTFSS  F9E.4
0AB98:  BRA    AB96
0AB9A:  MOVWF  FAD
....................       SendDataDisplay();       
0AB9C:  CALL   3538
....................       printf("Funcionamiento.t13f.txt=\"%02u\"",((Testerilizacion[1]*10)+Testerilizacion[0])); 
0ABA0:  MOVFF  B1,3F1
0ABA4:  MOVLW  0A
0ABA6:  MOVLB  3
0ABA8:  MOVWF  xF2
0ABAA:  MOVLB  0
0ABAC:  CALL   2A9A
0ABB0:  MOVF   xB0,W
0ABB2:  ADDWF  01,W
0ABB4:  MOVLB  3
0ABB6:  MOVWF  xEF
0ABB8:  MOVLW  14
0ABBA:  MOVWF  FF6
0ABBC:  MOVLW  15
0ABBE:  MOVWF  FF7
0ABC0:  MOVLW  00
0ABC2:  MOVWF  FF8
0ABC4:  MOVLW  19
0ABC6:  MOVWF  xF3
0ABC8:  MOVLB  0
0ABCA:  CALL   4276
0ABCE:  MOVFF  3EF,3F1
0ABD2:  MOVLW  01
0ABD4:  MOVLB  3
0ABD6:  MOVWF  xF2
0ABD8:  MOVLB  0
0ABDA:  CALL   42D4
0ABDE:  MOVLW  22
0ABE0:  BTFSS  F9E.4
0ABE2:  BRA    ABE0
0ABE4:  MOVWF  FAD
....................       SendDataDisplay();       
0ABE6:  CALL   3538
....................       printf("Funcionamiento.t11f.txt=\"%02u\"",((Tsecado[3]*10)+Tsecado[2])); 
0ABEA:  MOVFF  BD,3F1
0ABEE:  MOVLW  0A
0ABF0:  MOVLB  3
0ABF2:  MOVWF  xF2
0ABF4:  MOVLB  0
0ABF6:  CALL   2A9A
0ABFA:  MOVF   xBC,W
0ABFC:  ADDWF  01,W
0ABFE:  MOVLB  3
0AC00:  MOVWF  xEF
0AC02:  MOVLW  34
0AC04:  MOVWF  FF6
0AC06:  MOVLW  15
0AC08:  MOVWF  FF7
0AC0A:  MOVLW  00
0AC0C:  MOVWF  FF8
0AC0E:  MOVLW  19
0AC10:  MOVWF  xF3
0AC12:  MOVLB  0
0AC14:  CALL   4276
0AC18:  MOVFF  3EF,3F1
0AC1C:  MOVLW  01
0AC1E:  MOVLB  3
0AC20:  MOVWF  xF2
0AC22:  MOVLB  0
0AC24:  CALL   42D4
0AC28:  MOVLW  22
0AC2A:  BTFSS  F9E.4
0AC2C:  BRA    AC2A
0AC2E:  MOVWF  FAD
....................       SendDataDisplay();       
0AC30:  CALL   3538
....................       printf("Funcionamiento.t16f.txt=\"%02u\"",((Tsecado[1]*10)+Tsecado[0])); 
0AC34:  MOVFF  BB,3F1
0AC38:  MOVLW  0A
0AC3A:  MOVLB  3
0AC3C:  MOVWF  xF2
0AC3E:  MOVLB  0
0AC40:  CALL   2A9A
0AC44:  MOVF   xBA,W
0AC46:  ADDWF  01,W
0AC48:  MOVLB  3
0AC4A:  MOVWF  xEF
0AC4C:  MOVLW  54
0AC4E:  MOVWF  FF6
0AC50:  MOVLW  15
0AC52:  MOVWF  FF7
0AC54:  MOVLW  00
0AC56:  MOVWF  FF8
0AC58:  MOVLW  19
0AC5A:  MOVWF  xF3
0AC5C:  MOVLB  0
0AC5E:  CALL   4276
0AC62:  MOVFF  3EF,3F1
0AC66:  MOVLW  01
0AC68:  MOVLB  3
0AC6A:  MOVWF  xF2
0AC6C:  MOVLB  0
0AC6E:  CALL   42D4
0AC72:  MOVLW  22
0AC74:  BTFSS  F9E.4
0AC76:  BRA    AC74
0AC78:  MOVWF  FAD
....................       SendDataDisplay();       
0AC7A:  CALL   3538
....................        
....................       printf("fecha.txt=\"Fecha:%02u/%02u/20%02u Hora: %02u:%02u:%02u\"",Dia,Mes,Year,Hora,Minuto,Segundo); 
0AC7E:  MOVLW  74
0AC80:  MOVWF  FF6
0AC82:  MOVLW  15
0AC84:  MOVWF  FF7
0AC86:  MOVLW  00
0AC88:  MOVWF  FF8
0AC8A:  MOVLW  11
0AC8C:  MOVLB  3
0AC8E:  MOVWF  xF3
0AC90:  MOVLB  0
0AC92:  CALL   4276
0AC96:  MOVFF  397,3F1
0AC9A:  MOVLW  01
0AC9C:  MOVLB  3
0AC9E:  MOVWF  xF2
0ACA0:  MOVLB  0
0ACA2:  CALL   42D4
0ACA6:  MOVLW  2F
0ACA8:  BTFSS  F9E.4
0ACAA:  BRA    ACA8
0ACAC:  MOVWF  FAD
0ACAE:  MOVFF  396,3F1
0ACB2:  MOVLW  01
0ACB4:  MOVLB  3
0ACB6:  MOVWF  xF2
0ACB8:  MOVLB  0
0ACBA:  CALL   42D4
0ACBE:  MOVLW  2F
0ACC0:  BTFSS  F9E.4
0ACC2:  BRA    ACC0
0ACC4:  MOVWF  FAD
0ACC6:  MOVLW  32
0ACC8:  BTFSS  F9E.4
0ACCA:  BRA    ACC8
0ACCC:  MOVWF  FAD
0ACCE:  MOVLW  30
0ACD0:  BTFSS  F9E.4
0ACD2:  BRA    ACD0
0ACD4:  MOVWF  FAD
0ACD6:  MOVFF  395,3F1
0ACDA:  MOVLW  01
0ACDC:  MOVLB  3
0ACDE:  MOVWF  xF2
0ACE0:  MOVLB  0
0ACE2:  CALL   42D4
0ACE6:  MOVLW  95
0ACE8:  MOVWF  FF6
0ACEA:  MOVLW  15
0ACEC:  MOVWF  FF7
0ACEE:  MOVLW  00
0ACF0:  MOVWF  FF8
0ACF2:  MOVLW  07
0ACF4:  MOVLB  3
0ACF6:  MOVWF  xF3
0ACF8:  MOVLB  0
0ACFA:  CALL   4276
0ACFE:  MOVFF  398,3F1
0AD02:  MOVLW  01
0AD04:  MOVLB  3
0AD06:  MOVWF  xF2
0AD08:  MOVLB  0
0AD0A:  CALL   42D4
0AD0E:  MOVLW  3A
0AD10:  BTFSS  F9E.4
0AD12:  BRA    AD10
0AD14:  MOVWF  FAD
0AD16:  MOVFF  399,3F1
0AD1A:  MOVLW  01
0AD1C:  MOVLB  3
0AD1E:  MOVWF  xF2
0AD20:  MOVLB  0
0AD22:  CALL   42D4
0AD26:  MOVLW  3A
0AD28:  BTFSS  F9E.4
0AD2A:  BRA    AD28
0AD2C:  MOVWF  FAD
0AD2E:  MOVFF  39A,3F1
0AD32:  MOVLW  01
0AD34:  MOVLB  3
0AD36:  MOVWF  xF2
0AD38:  MOVLB  0
0AD3A:  CALL   42D4
0AD3E:  MOVLW  22
0AD40:  BTFSS  F9E.4
0AD42:  BRA    AD40
0AD44:  MOVWF  FAD
....................       SendDataDisplay(); 
0AD46:  CALL   3538
0AD4A:  MOVLB  3
....................    } 
....................  
....................  
.................... } 
.................... //_-------------------------------------------------------------------------------------------------------------------------------------------------------- 
....................  
.................... //_-------------------------------------------------------------------------------------------------------------------------------------------------------- 
....................       if(Menu==100){ //Menu de Configuracin de Parametros de Control 
0AD4C:  MOVF   x5B,W
0AD4E:  SUBLW  64
0AD50:  BTFSS  FD8.2
0AD52:  GOTO   BB7C
....................       
....................       if(Opcion2>10) 
0AD56:  MOVF   x64,W
0AD58:  SUBLW  0A
0AD5A:  BC    AD60
....................          Opcion2=1; 
0AD5C:  MOVLW  01
0AD5E:  MOVWF  x64
....................       if(Opcion2<1) 
0AD60:  MOVF   x64,F
0AD62:  BNZ   AD68
....................          Opcion2=10; 
0AD64:  MOVLW  0A
0AD66:  MOVWF  x64
....................        
....................       if(Opcion2==1){ 
0AD68:  DECFSZ x64,W
0AD6A:  BRA    AEE8
....................          printf("Config.t2c.txt=\"Proporcional\""); 
0AD6C:  MOVLW  AC
0AD6E:  MOVWF  FF6
0AD70:  MOVLW  15
0AD72:  MOVWF  FF7
0AD74:  MOVLW  00
0AD76:  MOVWF  FF8
0AD78:  MOVLB  0
0AD7A:  CALL   3506
....................          SendDataDisplay();       
0AD7E:  CALL   3538
....................          printf("t3c.txt=\"%2.0f\"",Ganancia); 
0AD82:  MOVLW  CA
0AD84:  MOVWF  FF6
0AD86:  MOVLW  15
0AD88:  MOVWF  FF7
0AD8A:  MOVLW  00
0AD8C:  MOVWF  FF8
0AD8E:  MOVLW  09
0AD90:  MOVLB  3
0AD92:  MOVWF  xF3
0AD94:  MOVLB  0
0AD96:  CALL   4276
0AD9A:  MOVLW  01
0AD9C:  MOVWF  FE9
0AD9E:  MOVFF  304,3F6
0ADA2:  MOVFF  303,3F5
0ADA6:  MOVFF  302,3F4
0ADAA:  MOVFF  301,3F3
0ADAE:  MOVLB  3
0ADB0:  CLRF   xF7
0ADB2:  MOVLB  0
0ADB4:  CALL   4416
0ADB8:  MOVLW  22
0ADBA:  BTFSS  F9E.4
0ADBC:  BRA    ADBA
0ADBE:  MOVWF  FAD
....................          SendDataDisplay(); 
0ADC0:  CALL   3538
....................          if(RX_Buffer[4]==0x0a || UP){//Tecla Arriba Oprimida 
0ADC4:  MOVF   34,W
0ADC6:  SUBLW  0A
0ADC8:  BZ    ADD0
0ADCA:  BSF    F93.0
0ADCC:  BTFSC  F81.0
0ADCE:  BRA    AE20
....................             delay_ms(20); 
0ADD0:  MOVLW  14
0ADD2:  MOVLB  4
0ADD4:  MOVWF  x04
0ADD6:  MOVLB  0
0ADD8:  CALL   179C
....................             if(RX_Buffer[4]==0x0a || UP){ 
0ADDC:  MOVF   34,W
0ADDE:  SUBLW  0A
0ADE0:  BZ    ADE8
0ADE2:  BSF    F93.0
0ADE4:  BTFSC  F81.0
0ADE6:  BRA    AE20
....................                Ganancia+=1.0; 
0ADE8:  BCF    FD8.1
0ADEA:  MOVFF  304,407
0ADEE:  MOVFF  303,406
0ADF2:  MOVFF  302,405
0ADF6:  MOVFF  301,404
0ADFA:  MOVLB  4
0ADFC:  CLRF   x0B
0ADFE:  CLRF   x0A
0AE00:  CLRF   x09
0AE02:  MOVLW  7F
0AE04:  MOVWF  x08
0AE06:  MOVLB  0
0AE08:  CALL   19A6
0AE0C:  MOVFF  03,304
0AE10:  MOVFF  02,303
0AE14:  MOVFF  01,302
0AE18:  MOVFF  00,301
....................                RX_Buffer[4]=0x00;   
0AE1C:  CLRF   34
....................                RX_Buffer2[4]=0x00;             
0AE1E:  CLRF   3F
....................                //BorraBuffer(); 
....................             } 
....................          } 
....................              
....................          if(RX_Buffer[4]==0x0b || DOWN){//Tecla Abajo Oprimida 
0AE20:  MOVF   34,W
0AE22:  SUBLW  0B
0AE24:  BZ    AE2C
0AE26:  BSF    F93.1
0AE28:  BTFSC  F81.1
0AE2A:  BRA    AE7C
....................             delay_ms(20); 
0AE2C:  MOVLW  14
0AE2E:  MOVLB  4
0AE30:  MOVWF  x04
0AE32:  MOVLB  0
0AE34:  CALL   179C
....................             if(RX_Buffer[4]==0x0b || DOWN){ 
0AE38:  MOVF   34,W
0AE3A:  SUBLW  0B
0AE3C:  BZ    AE44
0AE3E:  BSF    F93.1
0AE40:  BTFSC  F81.1
0AE42:  BRA    AE7C
....................                Ganancia-=1.0; 
0AE44:  BSF    FD8.1
0AE46:  MOVFF  304,407
0AE4A:  MOVFF  303,406
0AE4E:  MOVFF  302,405
0AE52:  MOVFF  301,404
0AE56:  MOVLB  4
0AE58:  CLRF   x0B
0AE5A:  CLRF   x0A
0AE5C:  CLRF   x09
0AE5E:  MOVLW  7F
0AE60:  MOVWF  x08
0AE62:  MOVLB  0
0AE64:  CALL   19A6
0AE68:  MOVFF  03,304
0AE6C:  MOVFF  02,303
0AE70:  MOVFF  01,302
0AE74:  MOVFF  00,301
....................                RX_Buffer[4]=0x00; 
0AE78:  CLRF   34
....................                RX_Buffer2[4]=0x00;             
0AE7A:  CLRF   3F
....................                //BorraBuffer(); 
....................             } 
....................          } 
....................           
....................          if(Ganancia>40) 
0AE7C:  MOVLB  3
0AE7E:  CLRF   xF6
0AE80:  CLRF   xF5
0AE82:  MOVLW  20
0AE84:  MOVWF  xF4
0AE86:  MOVLW  84
0AE88:  MOVWF  xF3
0AE8A:  MOVFF  304,3FA
0AE8E:  MOVFF  303,3F9
0AE92:  MOVFF  302,3F8
0AE96:  MOVFF  301,3F7
0AE9A:  MOVLB  0
0AE9C:  CALL   2A20
0AEA0:  BNC   AEAE
....................             Ganancia=1; 
0AEA2:  MOVLB  3
0AEA4:  CLRF   x04
0AEA6:  CLRF   x03
0AEA8:  CLRF   x02
0AEAA:  MOVLW  7F
0AEAC:  MOVWF  x01
....................          if(Ganancia<1) 
0AEAE:  MOVFF  304,3F6
0AEB2:  MOVFF  303,3F5
0AEB6:  MOVFF  302,3F4
0AEBA:  MOVFF  301,3F3
0AEBE:  MOVLB  3
0AEC0:  CLRF   xFA
0AEC2:  CLRF   xF9
0AEC4:  CLRF   xF8
0AEC6:  MOVLW  7F
0AEC8:  MOVWF  xF7
0AECA:  MOVLB  0
0AECC:  CALL   2A20
0AED0:  BNC   AEE2
....................             Ganancia=40; 
0AED2:  MOVLB  3
0AED4:  CLRF   x04
0AED6:  CLRF   x03
0AED8:  MOVLW  20
0AEDA:  MOVWF  x02
0AEDC:  MOVLW  84
0AEDE:  MOVWF  x01
0AEE0:  MOVLB  0
....................       }else if(Opcion2==2){ 
0AEE2:  GOTO   B69E
0AEE6:  MOVLB  3
0AEE8:  MOVF   x64,W
0AEEA:  SUBLW  02
0AEEC:  BNZ   AFAC
....................          printf("Config.t2c.txt=\"Derivativo\""); 
0AEEE:  MOVLW  DA
0AEF0:  MOVWF  FF6
0AEF2:  MOVLW  15
0AEF4:  MOVWF  FF7
0AEF6:  MOVLW  00
0AEF8:  MOVWF  FF8
0AEFA:  MOVLB  0
0AEFC:  CALL   3506
....................          SendDataDisplay();       
0AF00:  CALL   3538
....................          printf("t3c.txt=\"%u\"",Derivativo); 
0AF04:  MOVLW  F6
0AF06:  MOVWF  FF6
0AF08:  MOVLW  15
0AF0A:  MOVWF  FF7
0AF0C:  MOVLW  00
0AF0E:  MOVWF  FF8
0AF10:  MOVLW  09
0AF12:  MOVLB  3
0AF14:  MOVWF  xF3
0AF16:  MOVLB  0
0AF18:  CALL   4276
0AF1C:  MOVFF  336,3F1
0AF20:  MOVLW  1B
0AF22:  MOVLB  3
0AF24:  MOVWF  xF2
0AF26:  MOVLB  0
0AF28:  CALL   42D4
0AF2C:  MOVLW  22
0AF2E:  BTFSS  F9E.4
0AF30:  BRA    AF2E
0AF32:  MOVWF  FAD
....................          SendDataDisplay(); 
0AF34:  CALL   3538
....................          if(RX_Buffer[4]==0x0a || UP){//Tecla Arriba Oprimida 
0AF38:  MOVF   34,W
0AF3A:  SUBLW  0A
0AF3C:  BZ    AF44
0AF3E:  BSF    F93.0
0AF40:  BTFSC  F81.0
0AF42:  BRA    AF66
....................             delay_ms(20); 
0AF44:  MOVLW  14
0AF46:  MOVLB  4
0AF48:  MOVWF  x04
0AF4A:  MOVLB  0
0AF4C:  CALL   179C
....................             if(RX_Buffer[4]==0x0a || UP){ 
0AF50:  MOVF   34,W
0AF52:  SUBLW  0A
0AF54:  BZ    AF5C
0AF56:  BSF    F93.0
0AF58:  BTFSC  F81.0
0AF5A:  BRA    AF66
....................                Derivativo++; 
0AF5C:  MOVLB  3
0AF5E:  INCF   x36,F
....................                RX_Buffer[4]=0x00;   
0AF60:  CLRF   34
....................                RX_Buffer2[4]=0x00;             
0AF62:  CLRF   3F
0AF64:  MOVLB  0
....................                //BorraBuffer(); 
....................             } 
....................          } 
....................              
....................          if(RX_Buffer[4]==0x0b || DOWN){//Tecla Abajo Oprimida 
0AF66:  MOVF   34,W
0AF68:  SUBLW  0B
0AF6A:  BZ    AF72
0AF6C:  BSF    F93.1
0AF6E:  BTFSC  F81.1
0AF70:  BRA    AF94
....................             delay_ms(20); 
0AF72:  MOVLW  14
0AF74:  MOVLB  4
0AF76:  MOVWF  x04
0AF78:  MOVLB  0
0AF7A:  CALL   179C
....................             if(RX_Buffer[4]==0x0b || DOWN){ 
0AF7E:  MOVF   34,W
0AF80:  SUBLW  0B
0AF82:  BZ    AF8A
0AF84:  BSF    F93.1
0AF86:  BTFSC  F81.1
0AF88:  BRA    AF94
....................                Derivativo--; 
0AF8A:  MOVLB  3
0AF8C:  DECF   x36,F
....................                RX_Buffer[4]=0x00; 
0AF8E:  CLRF   34
....................                RX_Buffer2[4]=0x00;             
0AF90:  CLRF   3F
0AF92:  MOVLB  0
....................                //BorraBuffer(); 
....................             } 
....................          } 
....................           
....................           
....................          if(Derivativo>40) 
0AF94:  MOVLB  3
0AF96:  MOVF   x36,W
0AF98:  SUBLW  28
0AF9A:  BC    AFA0
....................             Derivativo=1; 
0AF9C:  MOVLW  01
0AF9E:  MOVWF  x36
....................          if(Derivativo<1) 
0AFA0:  MOVF   x36,F
0AFA2:  BNZ   AFA8
....................             Derivativo=40; 
0AFA4:  MOVLW  28
0AFA6:  MOVWF  x36
....................       }else if(Opcion2==3){ 
0AFA8:  GOTO   B6A0
0AFAC:  MOVF   x64,W
0AFAE:  SUBLW  03
0AFB0:  BNZ   B06E
....................          printf("Config.t2c.txt=\"Integral\""); 
0AFB2:  MOVLW  04
0AFB4:  MOVWF  FF6
0AFB6:  MOVLW  16
0AFB8:  MOVWF  FF7
0AFBA:  MOVLW  00
0AFBC:  MOVWF  FF8
0AFBE:  MOVLB  0
0AFC0:  CALL   3506
....................          SendDataDisplay();       
0AFC4:  CALL   3538
....................          printf("t3c.txt=\"%u\"",Integral); 
0AFC8:  MOVLW  1E
0AFCA:  MOVWF  FF6
0AFCC:  MOVLW  16
0AFCE:  MOVWF  FF7
0AFD0:  MOVLW  00
0AFD2:  MOVWF  FF8
0AFD4:  MOVLW  09
0AFD6:  MOVLB  3
0AFD8:  MOVWF  xF3
0AFDA:  MOVLB  0
0AFDC:  CALL   4276
0AFE0:  MOVFF  335,3F1
0AFE4:  MOVLW  1B
0AFE6:  MOVLB  3
0AFE8:  MOVWF  xF2
0AFEA:  MOVLB  0
0AFEC:  CALL   42D4
0AFF0:  MOVLW  22
0AFF2:  BTFSS  F9E.4
0AFF4:  BRA    AFF2
0AFF6:  MOVWF  FAD
....................          SendDataDisplay(); 
0AFF8:  CALL   3538
....................          if(RX_Buffer[4]==0x0a || UP){//Tecla Arriba Oprimida 
0AFFC:  MOVF   34,W
0AFFE:  SUBLW  0A
0B000:  BZ    B008
0B002:  BSF    F93.0
0B004:  BTFSC  F81.0
0B006:  BRA    B02A
....................             delay_ms(20); 
0B008:  MOVLW  14
0B00A:  MOVLB  4
0B00C:  MOVWF  x04
0B00E:  MOVLB  0
0B010:  CALL   179C
....................             if(RX_Buffer[4]==0x0a || UP){ 
0B014:  MOVF   34,W
0B016:  SUBLW  0A
0B018:  BZ    B020
0B01A:  BSF    F93.0
0B01C:  BTFSC  F81.0
0B01E:  BRA    B02A
....................                Integral++; 
0B020:  MOVLB  3
0B022:  INCF   x35,F
....................                RX_Buffer[4]=0x00;   
0B024:  CLRF   34
....................                RX_Buffer2[4]=0x00;             
0B026:  CLRF   3F
0B028:  MOVLB  0
....................                //BorraBuffer(); 
....................             } 
....................          } 
....................              
....................          if(RX_Buffer[4]==0x0b || DOWN){//Tecla Abajo Oprimida 
0B02A:  MOVF   34,W
0B02C:  SUBLW  0B
0B02E:  BZ    B036
0B030:  BSF    F93.1
0B032:  BTFSC  F81.1
0B034:  BRA    B058
....................             delay_ms(20); 
0B036:  MOVLW  14
0B038:  MOVLB  4
0B03A:  MOVWF  x04
0B03C:  MOVLB  0
0B03E:  CALL   179C
....................             if(RX_Buffer[4]==0x0b || DOWN){ 
0B042:  MOVF   34,W
0B044:  SUBLW  0B
0B046:  BZ    B04E
0B048:  BSF    F93.1
0B04A:  BTFSC  F81.1
0B04C:  BRA    B058
....................                Integral--; 
0B04E:  MOVLB  3
0B050:  DECF   x35,F
....................                RX_Buffer[4]=0x00; 
0B052:  CLRF   34
....................                RX_Buffer2[4]=0x00;             
0B054:  CLRF   3F
0B056:  MOVLB  0
....................                //BorraBuffer(); 
....................             } 
....................          } 
....................           
....................          if(Integral>40) 
0B058:  MOVLB  3
0B05A:  MOVF   x35,W
0B05C:  SUBLW  28
0B05E:  BC    B064
....................             Integral=1; 
0B060:  MOVLW  01
0B062:  MOVWF  x35
....................          if(Integral<1) 
0B064:  MOVF   x35,F
0B066:  BNZ   B06C
....................             Integral=40; 
0B068:  MOVLW  28
0B06A:  MOVWF  x35
....................       }else if(Opcion2==4){ 
0B06C:  BRA    B6A0
0B06E:  MOVF   x64,W
0B070:  SUBLW  04
0B072:  BTFSS  FD8.2
0B074:  BRA    B1F4
....................          printf("Config.t2c.txt=\"Tciclo\""); 
0B076:  MOVLW  2C
0B078:  MOVWF  FF6
0B07A:  MOVLW  16
0B07C:  MOVWF  FF7
0B07E:  MOVLW  00
0B080:  MOVWF  FF8
0B082:  MOVLB  0
0B084:  CALL   3506
....................          SendDataDisplay();       
0B088:  CALL   3538
....................          printf("t3c.txt=\"%2.0f\"",Tciclo); 
0B08C:  MOVLW  44
0B08E:  MOVWF  FF6
0B090:  MOVLW  16
0B092:  MOVWF  FF7
0B094:  MOVLW  00
0B096:  MOVWF  FF8
0B098:  MOVLW  09
0B09A:  MOVLB  3
0B09C:  MOVWF  xF3
0B09E:  MOVLB  0
0B0A0:  CALL   4276
0B0A4:  MOVLW  01
0B0A6:  MOVWF  FE9
0B0A8:  MOVFF  2EC,3F6
0B0AC:  MOVFF  2EB,3F5
0B0B0:  MOVFF  2EA,3F4
0B0B4:  MOVFF  2E9,3F3
0B0B8:  MOVLB  3
0B0BA:  CLRF   xF7
0B0BC:  MOVLB  0
0B0BE:  CALL   4416
0B0C2:  MOVLW  22
0B0C4:  BTFSS  F9E.4
0B0C6:  BRA    B0C4
0B0C8:  MOVWF  FAD
....................          SendDataDisplay(); 
0B0CA:  CALL   3538
....................          if(RX_Buffer[4]==0x0a || UP){//Tecla Arriba Oprimida 
0B0CE:  MOVF   34,W
0B0D0:  SUBLW  0A
0B0D2:  BZ    B0DA
0B0D4:  BSF    F93.0
0B0D6:  BTFSC  F81.0
0B0D8:  BRA    B12A
....................             delay_ms(20); 
0B0DA:  MOVLW  14
0B0DC:  MOVLB  4
0B0DE:  MOVWF  x04
0B0E0:  MOVLB  0
0B0E2:  CALL   179C
....................             if(RX_Buffer[4]==0x0a || UP){ 
0B0E6:  MOVF   34,W
0B0E8:  SUBLW  0A
0B0EA:  BZ    B0F2
0B0EC:  BSF    F93.0
0B0EE:  BTFSC  F81.0
0B0F0:  BRA    B12A
....................                Tciclo+=1.0; 
0B0F2:  BCF    FD8.1
0B0F4:  MOVFF  2EC,407
0B0F8:  MOVFF  2EB,406
0B0FC:  MOVFF  2EA,405
0B100:  MOVFF  2E9,404
0B104:  MOVLB  4
0B106:  CLRF   x0B
0B108:  CLRF   x0A
0B10A:  CLRF   x09
0B10C:  MOVLW  7F
0B10E:  MOVWF  x08
0B110:  MOVLB  0
0B112:  CALL   19A6
0B116:  MOVFF  03,2EC
0B11A:  MOVFF  02,2EB
0B11E:  MOVFF  01,2EA
0B122:  MOVFF  00,2E9
....................                RX_Buffer[4]=0x00;   
0B126:  CLRF   34
....................                RX_Buffer2[4]=0x00;             
0B128:  CLRF   3F
....................                //BorraBuffer(); 
....................             } 
....................          } 
....................              
....................          if(RX_Buffer[4]==0x0b || DOWN){//Tecla Abajo Oprimida 
0B12A:  MOVF   34,W
0B12C:  SUBLW  0B
0B12E:  BZ    B136
0B130:  BSF    F93.1
0B132:  BTFSC  F81.1
0B134:  BRA    B186
....................             delay_ms(20); 
0B136:  MOVLW  14
0B138:  MOVLB  4
0B13A:  MOVWF  x04
0B13C:  MOVLB  0
0B13E:  CALL   179C
....................             if(RX_Buffer[4]==0x0b || DOWN){ 
0B142:  MOVF   34,W
0B144:  SUBLW  0B
0B146:  BZ    B14E
0B148:  BSF    F93.1
0B14A:  BTFSC  F81.1
0B14C:  BRA    B186
....................                Tciclo-=1.0; 
0B14E:  BSF    FD8.1
0B150:  MOVFF  2EC,407
0B154:  MOVFF  2EB,406
0B158:  MOVFF  2EA,405
0B15C:  MOVFF  2E9,404
0B160:  MOVLB  4
0B162:  CLRF   x0B
0B164:  CLRF   x0A
0B166:  CLRF   x09
0B168:  MOVLW  7F
0B16A:  MOVWF  x08
0B16C:  MOVLB  0
0B16E:  CALL   19A6
0B172:  MOVFF  03,2EC
0B176:  MOVFF  02,2EB
0B17A:  MOVFF  01,2EA
0B17E:  MOVFF  00,2E9
....................                RX_Buffer[4]=0x00; 
0B182:  CLRF   34
....................                RX_Buffer2[4]=0x00;             
0B184:  CLRF   3F
....................                //BorraBuffer(); 
....................             } 
....................          } 
....................           
....................          if(Tciclo>20) 
0B186:  MOVLB  3
0B188:  CLRF   xF6
0B18A:  CLRF   xF5
0B18C:  MOVLW  20
0B18E:  MOVWF  xF4
0B190:  MOVLW  83
0B192:  MOVWF  xF3
0B194:  MOVFF  2EC,3FA
0B198:  MOVFF  2EB,3F9
0B19C:  MOVFF  2EA,3F8
0B1A0:  MOVFF  2E9,3F7
0B1A4:  MOVLB  0
0B1A6:  CALL   2A20
0B1AA:  BNC   B1BA
....................             Tciclo=5; 
0B1AC:  MOVLB  2
0B1AE:  CLRF   xEC
0B1B0:  CLRF   xEB
0B1B2:  MOVLW  20
0B1B4:  MOVWF  xEA
0B1B6:  MOVLW  81
0B1B8:  MOVWF  xE9
....................          if(Tciclo<5) 
0B1BA:  MOVFF  2EC,3F6
0B1BE:  MOVFF  2EB,3F5
0B1C2:  MOVFF  2EA,3F4
0B1C6:  MOVFF  2E9,3F3
0B1CA:  MOVLB  3
0B1CC:  CLRF   xFA
0B1CE:  CLRF   xF9
0B1D0:  MOVLW  20
0B1D2:  MOVWF  xF8
0B1D4:  MOVLW  81
0B1D6:  MOVWF  xF7
0B1D8:  MOVLB  0
0B1DA:  CALL   2A20
0B1DE:  BNC   B1F0
....................             Tciclo=20; 
0B1E0:  MOVLB  2
0B1E2:  CLRF   xEC
0B1E4:  CLRF   xEB
0B1E6:  MOVLW  20
0B1E8:  MOVWF  xEA
0B1EA:  MOVLW  83
0B1EC:  MOVWF  xE9
0B1EE:  MOVLB  0
....................       }else if(Opcion2==5){ 
0B1F0:  BRA    B69E
0B1F2:  MOVLB  3
0B1F4:  MOVF   x64,W
0B1F6:  SUBLW  05
0B1F8:  BNZ   B2AE
....................          printf("Config.t2c.txt=\"Ajuste +\""); 
0B1FA:  MOVLW  54
0B1FC:  MOVWF  FF6
0B1FE:  MOVLW  16
0B200:  MOVWF  FF7
0B202:  MOVLW  00
0B204:  MOVWF  FF8
0B206:  MOVLB  0
0B208:  CALL   3506
....................          SendDataDisplay();       
0B20C:  CALL   3538
....................          printf("t3c.txt=\"%u\"",Ajuste); 
0B210:  MOVLW  6E
0B212:  MOVWF  FF6
0B214:  MOVLW  16
0B216:  MOVWF  FF7
0B218:  MOVLW  00
0B21A:  MOVWF  FF8
0B21C:  MOVLW  09
0B21E:  MOVLB  3
0B220:  MOVWF  xF3
0B222:  MOVLB  0
0B224:  CALL   4276
0B228:  MOVFF  2D8,3F1
0B22C:  MOVLW  1B
0B22E:  MOVLB  3
0B230:  MOVWF  xF2
0B232:  MOVLB  0
0B234:  CALL   42D4
0B238:  MOVLW  22
0B23A:  BTFSS  F9E.4
0B23C:  BRA    B23A
0B23E:  MOVWF  FAD
....................          SendDataDisplay(); 
0B240:  CALL   3538
....................          if(RX_Buffer[4]==0x0a || UP){//Tecla Arriba Oprimida 
0B244:  MOVF   34,W
0B246:  SUBLW  0A
0B248:  BZ    B250
0B24A:  BSF    F93.0
0B24C:  BTFSC  F81.0
0B24E:  BRA    B278
....................             delay_ms(20); 
0B250:  MOVLW  14
0B252:  MOVLB  4
0B254:  MOVWF  x04
0B256:  MOVLB  0
0B258:  CALL   179C
....................             if(RX_Buffer[4]==0x0a || UP){ 
0B25C:  MOVF   34,W
0B25E:  SUBLW  0A
0B260:  BZ    B268
0B262:  BSF    F93.0
0B264:  BTFSC  F81.0
0B266:  BRA    B278
....................                if(Ajuste<100) 
0B268:  MOVLB  2
0B26A:  MOVF   xD8,W
0B26C:  SUBLW  63
0B26E:  BNC   B272
....................                   Ajuste++; 
0B270:  INCF   xD8,F
....................                RX_Buffer[4]=0x00;   
0B272:  CLRF   34
....................                RX_Buffer2[4]=0x00;             
0B274:  CLRF   3F
0B276:  MOVLB  0
....................                //BorraBuffer(); 
....................             } 
....................          } 
....................              
....................          if(RX_Buffer[4]==0x0b || DOWN){//Tecla Abajo Oprimida 
0B278:  MOVF   34,W
0B27A:  SUBLW  0B
0B27C:  BZ    B284
0B27E:  BSF    F93.1
0B280:  BTFSC  F81.1
0B282:  BRA    B2AA
....................             delay_ms(20); 
0B284:  MOVLW  14
0B286:  MOVLB  4
0B288:  MOVWF  x04
0B28A:  MOVLB  0
0B28C:  CALL   179C
....................             if(RX_Buffer[4]==0x0b || DOWN){ 
0B290:  MOVF   34,W
0B292:  SUBLW  0B
0B294:  BZ    B29C
0B296:  BSF    F93.1
0B298:  BTFSC  F81.1
0B29A:  BRA    B2AA
....................                if(Ajuste>0) 
0B29C:  MOVLB  2
0B29E:  MOVF   xD8,F
0B2A0:  BZ    B2A4
....................                   Ajuste--; 
0B2A2:  DECF   xD8,F
....................                RX_Buffer[4]=0x00; 
0B2A4:  CLRF   34
....................                RX_Buffer2[4]=0x00;             
0B2A6:  CLRF   3F
0B2A8:  MOVLB  0
....................                //BorraBuffer(); 
....................             } 
....................          } 
....................       }else if(Opcion2==6){ 
0B2AA:  BRA    B69E
0B2AC:  MOVLB  3
0B2AE:  MOVF   x64,W
0B2B0:  SUBLW  06
0B2B2:  BNZ   B368
....................          printf("Config.t2c.txt=\"Ajuste -\""); 
0B2B4:  MOVLW  7C
0B2B6:  MOVWF  FF6
0B2B8:  MOVLW  16
0B2BA:  MOVWF  FF7
0B2BC:  MOVLW  00
0B2BE:  MOVWF  FF8
0B2C0:  MOVLB  0
0B2C2:  CALL   3506
....................          SendDataDisplay();       
0B2C6:  CALL   3538
....................          printf("t3c.txt=\"%u\"",Ajusten); 
0B2CA:  MOVLW  96
0B2CC:  MOVWF  FF6
0B2CE:  MOVLW  16
0B2D0:  MOVWF  FF7
0B2D2:  MOVLW  00
0B2D4:  MOVWF  FF8
0B2D6:  MOVLW  09
0B2D8:  MOVLB  3
0B2DA:  MOVWF  xF3
0B2DC:  MOVLB  0
0B2DE:  CALL   4276
0B2E2:  MOVFF  2D9,3F1
0B2E6:  MOVLW  1B
0B2E8:  MOVLB  3
0B2EA:  MOVWF  xF2
0B2EC:  MOVLB  0
0B2EE:  CALL   42D4
0B2F2:  MOVLW  22
0B2F4:  BTFSS  F9E.4
0B2F6:  BRA    B2F4
0B2F8:  MOVWF  FAD
....................          SendDataDisplay(); 
0B2FA:  CALL   3538
....................          if(RX_Buffer[4]==0x0a || UP){//Tecla Arriba Oprimida 
0B2FE:  MOVF   34,W
0B300:  SUBLW  0A
0B302:  BZ    B30A
0B304:  BSF    F93.0
0B306:  BTFSC  F81.0
0B308:  BRA    B332
....................             delay_ms(20); 
0B30A:  MOVLW  14
0B30C:  MOVLB  4
0B30E:  MOVWF  x04
0B310:  MOVLB  0
0B312:  CALL   179C
....................             if(RX_Buffer[4]==0x0a || UP){ 
0B316:  MOVF   34,W
0B318:  SUBLW  0A
0B31A:  BZ    B322
0B31C:  BSF    F93.0
0B31E:  BTFSC  F81.0
0B320:  BRA    B332
....................                if(Ajusten<100) 
0B322:  MOVLB  2
0B324:  MOVF   xD9,W
0B326:  SUBLW  63
0B328:  BNC   B32C
....................                   Ajusten++; 
0B32A:  INCF   xD9,F
....................                RX_Buffer[4]=0x00;   
0B32C:  CLRF   34
....................                RX_Buffer2[4]=0x00;             
0B32E:  CLRF   3F
0B330:  MOVLB  0
....................                //BorraBuffer(); 
....................             } 
....................          } 
....................              
....................          if(RX_Buffer[4]==0x0b || DOWN){//Tecla Abajo Oprimida 
0B332:  MOVF   34,W
0B334:  SUBLW  0B
0B336:  BZ    B33E
0B338:  BSF    F93.1
0B33A:  BTFSC  F81.1
0B33C:  BRA    B364
....................             delay_ms(20); 
0B33E:  MOVLW  14
0B340:  MOVLB  4
0B342:  MOVWF  x04
0B344:  MOVLB  0
0B346:  CALL   179C
....................             if(RX_Buffer[4]==0x0b || DOWN){ 
0B34A:  MOVF   34,W
0B34C:  SUBLW  0B
0B34E:  BZ    B356
0B350:  BSF    F93.1
0B352:  BTFSC  F81.1
0B354:  BRA    B364
....................                if(Ajusten>0) 
0B356:  MOVLB  2
0B358:  MOVF   xD9,F
0B35A:  BZ    B35E
....................                   Ajusten--; 
0B35C:  DECF   xD9,F
....................                RX_Buffer[4]=0x00; 
0B35E:  CLRF   34
....................                RX_Buffer2[4]=0x00;             
0B360:  CLRF   3F
0B362:  MOVLB  0
....................                //BorraBuffer(); 
....................             } 
....................          } 
....................       }else if(Opcion2==7){ 
0B364:  BRA    B69E
0B366:  MOVLB  3
0B368:  MOVF   x64,W
0B36A:  SUBLW  07
0B36C:  BNZ   B424
....................          printf("Config.t2c.txt=\"Media\""); 
0B36E:  MOVLW  A4
0B370:  MOVWF  FF6
0B372:  MOVLW  16
0B374:  MOVWF  FF7
0B376:  MOVLW  00
0B378:  MOVWF  FF8
0B37A:  MOVLB  0
0B37C:  CALL   3506
....................          SendDataDisplay();       
0B380:  CALL   3538
....................          printf("t3c.txt=\"%u\"",MediaMovil); 
0B384:  MOVLW  BC
0B386:  MOVWF  FF6
0B388:  MOVLW  16
0B38A:  MOVWF  FF7
0B38C:  MOVLW  00
0B38E:  MOVWF  FF8
0B390:  MOVLW  09
0B392:  MOVLB  3
0B394:  MOVWF  xF3
0B396:  MOVLB  0
0B398:  CALL   4276
0B39C:  MOVFF  2DA,3F1
0B3A0:  MOVLW  1B
0B3A2:  MOVLB  3
0B3A4:  MOVWF  xF2
0B3A6:  MOVLB  0
0B3A8:  CALL   42D4
0B3AC:  MOVLW  22
0B3AE:  BTFSS  F9E.4
0B3B0:  BRA    B3AE
0B3B2:  MOVWF  FAD
....................          SendDataDisplay(); 
0B3B4:  CALL   3538
....................          if(RX_Buffer[4]==0x0a || UP){//Tecla Arriba Oprimida 
0B3B8:  MOVF   34,W
0B3BA:  SUBLW  0A
0B3BC:  BZ    B3C4
0B3BE:  BSF    F93.0
0B3C0:  BTFSC  F81.0
0B3C2:  BRA    B3EC
....................             delay_ms(20); 
0B3C4:  MOVLW  14
0B3C6:  MOVLB  4
0B3C8:  MOVWF  x04
0B3CA:  MOVLB  0
0B3CC:  CALL   179C
....................             if(RX_Buffer[4]==0x0a || UP){ 
0B3D0:  MOVF   34,W
0B3D2:  SUBLW  0A
0B3D4:  BZ    B3DC
0B3D6:  BSF    F93.0
0B3D8:  BTFSC  F81.0
0B3DA:  BRA    B3EC
....................                if(MediaMovil<80) 
0B3DC:  MOVLB  2
0B3DE:  MOVF   xDA,W
0B3E0:  SUBLW  4F
0B3E2:  BNC   B3E6
....................                   MediaMovil++; 
0B3E4:  INCF   xDA,F
....................                RX_Buffer[4]=0x00;   
0B3E6:  CLRF   34
....................                RX_Buffer2[4]=0x00;             
0B3E8:  CLRF   3F
0B3EA:  MOVLB  0
....................                //BorraBuffer(); 
....................             } 
....................          } 
....................              
....................          if(RX_Buffer[4]==0x0b || DOWN){//Tecla Abajo Oprimida 
0B3EC:  MOVF   34,W
0B3EE:  SUBLW  0B
0B3F0:  BZ    B3F8
0B3F2:  BSF    F93.1
0B3F4:  BTFSC  F81.1
0B3F6:  BRA    B420
....................             delay_ms(20); 
0B3F8:  MOVLW  14
0B3FA:  MOVLB  4
0B3FC:  MOVWF  x04
0B3FE:  MOVLB  0
0B400:  CALL   179C
....................             if(RX_Buffer[4]==0x0b || DOWN){ 
0B404:  MOVF   34,W
0B406:  SUBLW  0B
0B408:  BZ    B410
0B40A:  BSF    F93.1
0B40C:  BTFSC  F81.1
0B40E:  BRA    B420
....................                if(MediaMovil>10) 
0B410:  MOVLB  2
0B412:  MOVF   xDA,W
0B414:  SUBLW  0A
0B416:  BC    B41A
....................                   MediaMovil--; 
0B418:  DECF   xDA,F
....................                RX_Buffer[4]=0x00; 
0B41A:  CLRF   34
....................                RX_Buffer2[4]=0x00;             
0B41C:  CLRF   3F
0B41E:  MOVLB  0
....................                //BorraBuffer(); 
....................             } 
....................          } 
....................       }else if(Opcion2==8){ 
0B420:  BRA    B69E
0B422:  MOVLB  3
0B424:  MOVF   x64,W
0B426:  SUBLW  08
0B428:  BTFSS  FD8.2
0B42A:  BRA    B592
....................          printf("Config.t2c.txt=\"RPT100B\""); 
0B42C:  MOVLW  CA
0B42E:  MOVWF  FF6
0B430:  MOVLW  16
0B432:  MOVWF  FF7
0B434:  MOVLW  00
0B436:  MOVWF  FF8
0B438:  MOVLB  0
0B43A:  CALL   3506
....................          SendDataDisplay();       
0B43E:  CALL   3538
....................          printf("t3c.txt=\"%2.1f\"",RPT100); 
0B442:  MOVLW  E4
0B444:  MOVWF  FF6
0B446:  MOVLW  16
0B448:  MOVWF  FF7
0B44A:  MOVLW  00
0B44C:  MOVWF  FF8
0B44E:  MOVLW  09
0B450:  MOVLB  3
0B452:  MOVWF  xF3
0B454:  MOVLB  0
0B456:  CALL   4276
0B45A:  MOVLW  01
0B45C:  MOVWF  FE9
0B45E:  MOVFF  2A9,3F6
0B462:  MOVFF  2A8,3F5
0B466:  MOVFF  2A7,3F4
0B46A:  MOVFF  2A6,3F3
0B46E:  MOVLB  3
0B470:  MOVWF  xF7
0B472:  MOVLB  0
0B474:  CALL   4416
0B478:  MOVLW  22
0B47A:  BTFSS  F9E.4
0B47C:  BRA    B47A
0B47E:  MOVWF  FAD
....................          SendDataDisplay(); 
0B480:  CALL   3538
....................          if(RX_Buffer[4]==0x0a || UP){//Tecla Arriba Oprimida 
0B484:  MOVF   34,W
0B486:  SUBLW  0A
0B488:  BZ    B490
0B48A:  BSF    F93.0
0B48C:  BTFSC  F81.0
0B48E:  BRA    B50A
....................             delay_ms(20); 
0B490:  MOVLW  14
0B492:  MOVLB  4
0B494:  MOVWF  x04
0B496:  MOVLB  0
0B498:  CALL   179C
....................             if(RX_Buffer[4]==0x0a || UP){ 
0B49C:  MOVF   34,W
0B49E:  SUBLW  0A
0B4A0:  BZ    B4A8
0B4A2:  BSF    F93.0
0B4A4:  BTFSC  F81.0
0B4A6:  BRA    B50A
....................                if(RPT100<2.0) 
0B4A8:  MOVFF  2A9,3F6
0B4AC:  MOVFF  2A8,3F5
0B4B0:  MOVFF  2A7,3F4
0B4B4:  MOVFF  2A6,3F3
0B4B8:  MOVLB  3
0B4BA:  CLRF   xFA
0B4BC:  CLRF   xF9
0B4BE:  CLRF   xF8
0B4C0:  MOVLW  80
0B4C2:  MOVWF  xF7
0B4C4:  MOVLB  0
0B4C6:  CALL   2A20
0B4CA:  BNC   B506
....................                   RPT100+=0.1; 
0B4CC:  BCF    FD8.1
0B4CE:  MOVFF  2A9,407
0B4D2:  MOVFF  2A8,406
0B4D6:  MOVFF  2A7,405
0B4DA:  MOVFF  2A6,404
0B4DE:  MOVLW  CD
0B4E0:  MOVLB  4
0B4E2:  MOVWF  x0B
0B4E4:  MOVLW  CC
0B4E6:  MOVWF  x0A
0B4E8:  MOVLW  4C
0B4EA:  MOVWF  x09
0B4EC:  MOVLW  7B
0B4EE:  MOVWF  x08
0B4F0:  MOVLB  0
0B4F2:  CALL   19A6
0B4F6:  MOVFF  03,2A9
0B4FA:  MOVFF  02,2A8
0B4FE:  MOVFF  01,2A7
0B502:  MOVFF  00,2A6
....................                RX_Buffer[4]=0x00;   
0B506:  CLRF   34
....................                RX_Buffer2[4]=0x00;             
0B508:  CLRF   3F
....................                //BorraBuffer(); 
....................             } 
....................          } 
....................              
....................          if(RX_Buffer[4]==0x0b || DOWN){//Tecla Abajo Oprimida 
0B50A:  MOVF   34,W
0B50C:  SUBLW  0B
0B50E:  BZ    B516
0B510:  BSF    F93.1
0B512:  BTFSC  F81.1
0B514:  BRA    B58E
....................             delay_ms(20); 
0B516:  MOVLW  14
0B518:  MOVLB  4
0B51A:  MOVWF  x04
0B51C:  MOVLB  0
0B51E:  CALL   179C
....................             if(RX_Buffer[4]==0x0b || DOWN){ 
0B522:  MOVF   34,W
0B524:  SUBLW  0B
0B526:  BZ    B52E
0B528:  BSF    F93.1
0B52A:  BTFSC  F81.1
0B52C:  BRA    B58E
....................                if(RPT100>0.0) 
0B52E:  MOVLB  3
0B530:  CLRF   xF6
0B532:  CLRF   xF5
0B534:  CLRF   xF4
0B536:  CLRF   xF3
0B538:  MOVFF  2A9,3FA
0B53C:  MOVFF  2A8,3F9
0B540:  MOVFF  2A7,3F8
0B544:  MOVFF  2A6,3F7
0B548:  MOVLB  0
0B54A:  CALL   2A20
0B54E:  BNC   B58A
....................                   RPT100-=0.1; 
0B550:  BSF    FD8.1
0B552:  MOVFF  2A9,407
0B556:  MOVFF  2A8,406
0B55A:  MOVFF  2A7,405
0B55E:  MOVFF  2A6,404
0B562:  MOVLW  CD
0B564:  MOVLB  4
0B566:  MOVWF  x0B
0B568:  MOVLW  CC
0B56A:  MOVWF  x0A
0B56C:  MOVLW  4C
0B56E:  MOVWF  x09
0B570:  MOVLW  7B
0B572:  MOVWF  x08
0B574:  MOVLB  0
0B576:  CALL   19A6
0B57A:  MOVFF  03,2A9
0B57E:  MOVFF  02,2A8
0B582:  MOVFF  01,2A7
0B586:  MOVFF  00,2A6
....................                RX_Buffer[4]=0x00; 
0B58A:  CLRF   34
....................                RX_Buffer2[4]=0x00;             
0B58C:  CLRF   3F
....................                //BorraBuffer(); 
....................             } 
....................          } 
....................       }else if(Opcion2==9){ 
0B58E:  BRA    B69E
0B590:  MOVLB  3
0B592:  MOVF   x64,W
0B594:  SUBLW  09
0B596:  BNZ   B64E
....................          printf("Config.t2c.txt=\"TTrampa\""); 
0B598:  MOVLW  F4
0B59A:  MOVWF  FF6
0B59C:  MOVLW  16
0B59E:  MOVWF  FF7
0B5A0:  MOVLW  00
0B5A2:  MOVWF  FF8
0B5A4:  MOVLB  0
0B5A6:  CALL   3506
....................          SendDataDisplay();       
0B5AA:  CALL   3538
....................          printf("t3c.txt=\"%02u\"",TTrampa); 
0B5AE:  MOVLW  0E
0B5B0:  MOVWF  FF6
0B5B2:  MOVLW  17
0B5B4:  MOVWF  FF7
0B5B6:  MOVLW  00
0B5B8:  MOVWF  FF8
0B5BA:  MOVLW  09
0B5BC:  MOVLB  3
0B5BE:  MOVWF  xF3
0B5C0:  MOVLB  0
0B5C2:  CALL   4276
0B5C6:  MOVFF  2DB,3F1
0B5CA:  MOVLW  01
0B5CC:  MOVLB  3
0B5CE:  MOVWF  xF2
0B5D0:  MOVLB  0
0B5D2:  CALL   42D4
0B5D6:  MOVLW  22
0B5D8:  BTFSS  F9E.4
0B5DA:  BRA    B5D8
0B5DC:  MOVWF  FAD
....................          SendDataDisplay(); 
0B5DE:  CALL   3538
....................          if(RX_Buffer[4]==0x0a || UP){//Tecla Arriba Oprimida 
0B5E2:  MOVF   34,W
0B5E4:  SUBLW  0A
0B5E6:  BZ    B5EE
0B5E8:  BSF    F93.0
0B5EA:  BTFSC  F81.0
0B5EC:  BRA    B616
....................             delay_ms(20); 
0B5EE:  MOVLW  14
0B5F0:  MOVLB  4
0B5F2:  MOVWF  x04
0B5F4:  MOVLB  0
0B5F6:  CALL   179C
....................             if(RX_Buffer[4]==0x0a || UP){ 
0B5FA:  MOVF   34,W
0B5FC:  SUBLW  0A
0B5FE:  BZ    B606
0B600:  BSF    F93.0
0B602:  BTFSC  F81.0
0B604:  BRA    B616
....................                if(TTrampa<100) 
0B606:  MOVLB  2
0B608:  MOVF   xDB,W
0B60A:  SUBLW  63
0B60C:  BNC   B610
....................                   TTrampa++; 
0B60E:  INCF   xDB,F
....................                RX_Buffer[4]=0x00;   
0B610:  CLRF   34
....................                RX_Buffer2[4]=0x00;             
0B612:  CLRF   3F
0B614:  MOVLB  0
....................                //BorraBuffer(); 
....................             } 
....................          } 
....................              
....................          if(RX_Buffer[4]==0x0b || DOWN){//Tecla Abajo Oprimida 
0B616:  MOVF   34,W
0B618:  SUBLW  0B
0B61A:  BZ    B622
0B61C:  BSF    F93.1
0B61E:  BTFSC  F81.1
0B620:  BRA    B64A
....................             delay_ms(20); 
0B622:  MOVLW  14
0B624:  MOVLB  4
0B626:  MOVWF  x04
0B628:  MOVLB  0
0B62A:  CALL   179C
....................             if(RX_Buffer[4]==0x0b || DOWN){ 
0B62E:  MOVF   34,W
0B630:  SUBLW  0B
0B632:  BZ    B63A
0B634:  BSF    F93.1
0B636:  BTFSC  F81.1
0B638:  BRA    B64A
....................                if(TTrampa>50) 
0B63A:  MOVLB  2
0B63C:  MOVF   xDB,W
0B63E:  SUBLW  32
0B640:  BC    B644
....................                   TTrampa--; 
0B642:  DECF   xDB,F
....................                RX_Buffer[4]=0x00; 
0B644:  CLRF   34
....................                RX_Buffer2[4]=0x00;             
0B646:  CLRF   3F
0B648:  MOVLB  0
....................                //BorraBuffer(); 
....................             } 
....................          } 
....................       }else if(Opcion2==10){ 
0B64A:  BRA    B69E
0B64C:  MOVLB  3
0B64E:  MOVF   x64,W
0B650:  SUBLW  0A
0B652:  BNZ   B6A0
....................          printf("Config.t2c.txt=\"Ciclos\""); 
0B654:  MOVLW  1E
0B656:  MOVWF  FF6
0B658:  MOVLW  17
0B65A:  MOVWF  FF7
0B65C:  MOVLW  00
0B65E:  MOVWF  FF8
0B660:  MOVLB  0
0B662:  CALL   3506
....................          SendDataDisplay();       
0B666:  CALL   3538
....................          printf("t3c.txt=\"%05Lu\"",Ciclos); 
0B66A:  MOVLW  36
0B66C:  MOVWF  FF6
0B66E:  MOVLW  17
0B670:  MOVWF  FF7
0B672:  MOVLW  00
0B674:  MOVWF  FF8
0B676:  MOVLW  09
0B678:  MOVLB  3
0B67A:  MOVWF  xF3
0B67C:  MOVLB  0
0B67E:  CALL   4276
0B682:  MOVLW  08
0B684:  MOVWF  FE9
0B686:  MOVFF  379,3F4
0B68A:  MOVFF  378,3F3
0B68E:  CALL   4640
0B692:  MOVLW  22
0B694:  BTFSS  F9E.4
0B696:  BRA    B694
0B698:  MOVWF  FAD
....................          SendDataDisplay(); 
0B69A:  CALL   3538
0B69E:  MOVLB  3
....................       } 
....................        
....................       if(RX_Buffer[4]==0x0c || LEFT){//Tecla Izquierda Oprimida 
0B6A0:  MOVF   34,W
0B6A2:  SUBLW  0C
0B6A4:  BZ    B6AC
0B6A6:  BSF    F93.3
0B6A8:  BTFSC  F81.3
0B6AA:  BRA    B6CC
....................          delay_ms(20); 
0B6AC:  MOVLW  14
0B6AE:  MOVLB  4
0B6B0:  MOVWF  x04
0B6B2:  MOVLB  0
0B6B4:  CALL   179C
....................          if(RX_Buffer[4]==0x0c || LEFT){ 
0B6B8:  MOVF   34,W
0B6BA:  SUBLW  0C
0B6BC:  BZ    B6C4
0B6BE:  BSF    F93.3
0B6C0:  BTFSC  F81.3
0B6C2:  BRA    B6CE
....................             Opcion2++; 
0B6C4:  MOVLB  3
0B6C6:  INCF   x64,F
....................             RX_Buffer[4]=0x00;   
0B6C8:  CLRF   34
....................             RX_Buffer2[4]=0x00;             
0B6CA:  CLRF   3F
0B6CC:  MOVLB  0
....................             //BorraBuffer(); 
....................          } 
....................       } 
....................           
....................       if(RX_Buffer[4]==0x0d || RIGHT){//Tecla Derecha Oprimida 
0B6CE:  MOVF   34,W
0B6D0:  SUBLW  0D
0B6D2:  BZ    B6DA
0B6D4:  BSF    F93.2
0B6D6:  BTFSC  F81.2
0B6D8:  BRA    B6FC
....................          delay_ms(20); 
0B6DA:  MOVLW  14
0B6DC:  MOVLB  4
0B6DE:  MOVWF  x04
0B6E0:  MOVLB  0
0B6E2:  CALL   179C
....................          if(RX_Buffer[4]==0x0d || RIGHT){ 
0B6E6:  MOVF   34,W
0B6E8:  SUBLW  0D
0B6EA:  BZ    B6F2
0B6EC:  BSF    F93.2
0B6EE:  BTFSC  F81.2
0B6F0:  BRA    B6FC
....................             Opcion2--; 
0B6F2:  MOVLB  3
0B6F4:  DECF   x64,F
....................             RX_Buffer[4]=0x00; 
0B6F6:  CLRF   34
....................             RX_Buffer2[4]=0x00;             
0B6F8:  CLRF   3F
0B6FA:  MOVLB  0
....................             //BorraBuffer(); 
....................          } 
....................       } 
....................        
....................       if(RX_Buffer[4]==0x11 || (RIGHT && LEFT)){//Tecla Regresar 
0B6FC:  MOVF   34,W
0B6FE:  SUBLW  11
0B700:  BZ    B70E
0B702:  BSF    F93.2
0B704:  BTFSC  F81.2
0B706:  BRA    BA76
0B708:  BSF    F93.3
0B70A:  BTFSC  F81.3
0B70C:  BRA    BA76
....................          delay_ms(20); 
0B70E:  MOVLW  14
0B710:  MOVLB  4
0B712:  MOVWF  x04
0B714:  MOVLB  0
0B716:  CALL   179C
....................          if(RX_Buffer[4]==0x11 || (RIGHT && LEFT)){ 
0B71A:  MOVF   34,W
0B71C:  SUBLW  11
0B71E:  BZ    B72C
0B720:  BSF    F93.2
0B722:  BTFSC  F81.2
0B724:  BRA    BA76
0B726:  BSF    F93.3
0B728:  BTFSC  F81.3
0B72A:  BRA    BA76
....................             if(!GuardaEEPROM){ 
0B72C:  BTFSC  xA2.3
0B72E:  BRA    BA62
....................                write_eeprom(20,(int8)Ganancia); 
0B730:  MOVFF  304,407
0B734:  MOVFF  303,406
0B738:  MOVFF  302,405
0B73C:  MOVFF  301,404
0B740:  CALL   3CB8
0B744:  MOVFF  01,3EF
0B748:  CLRF   FAA
0B74A:  MOVLW  14
0B74C:  MOVWF  FA9
0B74E:  MOVFF  3EF,FA8
0B752:  BCF    FA6.6
0B754:  BCF    FA6.7
0B756:  BSF    FA6.2
0B758:  MOVF   FF2,W
0B75A:  MOVWF  00
0B75C:  BCF    FF2.6
0B75E:  BCF    FF2.7
0B760:  MOVLB  F
0B762:  MOVLW  55
0B764:  MOVWF  FA7
0B766:  MOVLW  AA
0B768:  MOVWF  FA7
0B76A:  BSF    FA6.1
0B76C:  BTFSC  FA6.1
0B76E:  BRA    B76C
0B770:  BCF    FA6.2
0B772:  MOVF   00,W
0B774:  IORWF  FF2,F
....................                delay_ms(10); 
0B776:  MOVLW  0A
0B778:  MOVLB  4
0B77A:  MOVWF  x04
0B77C:  MOVLB  0
0B77E:  CALL   179C
....................                write_eeprom(26,(int8)Integral); 
0B782:  CLRF   FAA
0B784:  MOVLW  1A
0B786:  MOVWF  FA9
0B788:  MOVFF  335,FA8
0B78C:  BCF    FA6.6
0B78E:  BCF    FA6.7
0B790:  BSF    FA6.2
0B792:  MOVF   FF2,W
0B794:  MOVWF  00
0B796:  BCF    FF2.6
0B798:  BCF    FF2.7
0B79A:  MOVLB  F
0B79C:  MOVLW  55
0B79E:  MOVWF  FA7
0B7A0:  MOVLW  AA
0B7A2:  MOVWF  FA7
0B7A4:  BSF    FA6.1
0B7A6:  BTFSC  FA6.1
0B7A8:  BRA    B7A6
0B7AA:  BCF    FA6.2
0B7AC:  MOVF   00,W
0B7AE:  IORWF  FF2,F
....................                delay_ms(10); 
0B7B0:  MOVLW  0A
0B7B2:  MOVLB  4
0B7B4:  MOVWF  x04
0B7B6:  MOVLB  0
0B7B8:  CALL   179C
....................                write_eeprom(27,(int8)Derivativo); 
0B7BC:  CLRF   FAA
0B7BE:  MOVLW  1B
0B7C0:  MOVWF  FA9
0B7C2:  MOVFF  336,FA8
0B7C6:  BCF    FA6.6
0B7C8:  BCF    FA6.7
0B7CA:  BSF    FA6.2
0B7CC:  MOVF   FF2,W
0B7CE:  MOVWF  00
0B7D0:  BCF    FF2.6
0B7D2:  BCF    FF2.7
0B7D4:  MOVLB  F
0B7D6:  MOVLW  55
0B7D8:  MOVWF  FA7
0B7DA:  MOVLW  AA
0B7DC:  MOVWF  FA7
0B7DE:  BSF    FA6.1
0B7E0:  BTFSC  FA6.1
0B7E2:  BRA    B7E0
0B7E4:  BCF    FA6.2
0B7E6:  MOVF   00,W
0B7E8:  IORWF  FF2,F
....................                delay_ms(10); 
0B7EA:  MOVLW  0A
0B7EC:  MOVLB  4
0B7EE:  MOVWF  x04
0B7F0:  MOVLB  0
0B7F2:  CALL   179C
....................                write_eeprom(25,(int8)Tciclo); 
0B7F6:  MOVFF  2EC,407
0B7FA:  MOVFF  2EB,406
0B7FE:  MOVFF  2EA,405
0B802:  MOVFF  2E9,404
0B806:  CALL   3CB8
0B80A:  MOVFF  01,3EF
0B80E:  CLRF   FAA
0B810:  MOVLW  19
0B812:  MOVWF  FA9
0B814:  MOVFF  3EF,FA8
0B818:  BCF    FA6.6
0B81A:  BCF    FA6.7
0B81C:  BSF    FA6.2
0B81E:  MOVF   FF2,W
0B820:  MOVWF  00
0B822:  BCF    FF2.6
0B824:  BCF    FF2.7
0B826:  MOVLB  F
0B828:  MOVLW  55
0B82A:  MOVWF  FA7
0B82C:  MOVLW  AA
0B82E:  MOVWF  FA7
0B830:  BSF    FA6.1
0B832:  BTFSC  FA6.1
0B834:  BRA    B832
0B836:  BCF    FA6.2
0B838:  MOVF   00,W
0B83A:  IORWF  FF2,F
....................                delay_ms(10); 
0B83C:  MOVLW  0A
0B83E:  MOVLB  4
0B840:  MOVWF  x04
0B842:  MOVLB  0
0B844:  CALL   179C
....................                write_eeprom(21,Ajuste); 
0B848:  CLRF   FAA
0B84A:  MOVLW  15
0B84C:  MOVWF  FA9
0B84E:  MOVFF  2D8,FA8
0B852:  BCF    FA6.6
0B854:  BCF    FA6.7
0B856:  BSF    FA6.2
0B858:  MOVF   FF2,W
0B85A:  MOVWF  00
0B85C:  BCF    FF2.6
0B85E:  BCF    FF2.7
0B860:  MOVLB  F
0B862:  MOVLW  55
0B864:  MOVWF  FA7
0B866:  MOVLW  AA
0B868:  MOVWF  FA7
0B86A:  BSF    FA6.1
0B86C:  BTFSC  FA6.1
0B86E:  BRA    B86C
0B870:  BCF    FA6.2
0B872:  MOVF   00,W
0B874:  IORWF  FF2,F
....................                delay_ms(10); 
0B876:  MOVLW  0A
0B878:  MOVLB  4
0B87A:  MOVWF  x04
0B87C:  MOVLB  0
0B87E:  CALL   179C
....................                write_eeprom(22,Ajusten); 
0B882:  CLRF   FAA
0B884:  MOVLW  16
0B886:  MOVWF  FA9
0B888:  MOVFF  2D9,FA8
0B88C:  BCF    FA6.6
0B88E:  BCF    FA6.7
0B890:  BSF    FA6.2
0B892:  MOVF   FF2,W
0B894:  MOVWF  00
0B896:  BCF    FF2.6
0B898:  BCF    FF2.7
0B89A:  MOVLB  F
0B89C:  MOVLW  55
0B89E:  MOVWF  FA7
0B8A0:  MOVLW  AA
0B8A2:  MOVWF  FA7
0B8A4:  BSF    FA6.1
0B8A6:  BTFSC  FA6.1
0B8A8:  BRA    B8A6
0B8AA:  BCF    FA6.2
0B8AC:  MOVF   00,W
0B8AE:  IORWF  FF2,F
....................                delay_ms(10); 
0B8B0:  MOVLW  0A
0B8B2:  MOVLB  4
0B8B4:  MOVWF  x04
0B8B6:  MOVLB  0
0B8B8:  CALL   179C
....................                write_eeprom(24,(int8)MediaMovil); 
0B8BC:  CLRF   FAA
0B8BE:  MOVLW  18
0B8C0:  MOVWF  FA9
0B8C2:  MOVFF  2DA,FA8
0B8C6:  BCF    FA6.6
0B8C8:  BCF    FA6.7
0B8CA:  BSF    FA6.2
0B8CC:  MOVF   FF2,W
0B8CE:  MOVWF  00
0B8D0:  BCF    FF2.6
0B8D2:  BCF    FF2.7
0B8D4:  MOVLB  F
0B8D6:  MOVLW  55
0B8D8:  MOVWF  FA7
0B8DA:  MOVLW  AA
0B8DC:  MOVWF  FA7
0B8DE:  BSF    FA6.1
0B8E0:  BTFSC  FA6.1
0B8E2:  BRA    B8E0
0B8E4:  BCF    FA6.2
0B8E6:  MOVF   00,W
0B8E8:  IORWF  FF2,F
....................                delay_ms(10); 
0B8EA:  MOVLW  0A
0B8EC:  MOVLB  4
0B8EE:  MOVWF  x04
0B8F0:  MOVLB  0
0B8F2:  CALL   179C
....................                write_eeprom(32,(int8)RPT100); 
0B8F6:  MOVFF  2A9,407
0B8FA:  MOVFF  2A8,406
0B8FE:  MOVFF  2A7,405
0B902:  MOVFF  2A6,404
0B906:  CALL   3CB8
0B90A:  MOVFF  01,3EF
0B90E:  CLRF   FAA
0B910:  MOVLW  20
0B912:  MOVWF  FA9
0B914:  MOVFF  3EF,FA8
0B918:  BCF    FA6.6
0B91A:  BCF    FA6.7
0B91C:  BSF    FA6.2
0B91E:  MOVF   FF2,W
0B920:  MOVWF  00
0B922:  BCF    FF2.6
0B924:  BCF    FF2.7
0B926:  MOVLB  F
0B928:  MOVLW  55
0B92A:  MOVWF  FA7
0B92C:  MOVLW  AA
0B92E:  MOVWF  FA7
0B930:  BSF    FA6.1
0B932:  BTFSC  FA6.1
0B934:  BRA    B932
0B936:  BCF    FA6.2
0B938:  MOVF   00,W
0B93A:  IORWF  FF2,F
....................                delay_ms(10); 
0B93C:  MOVLW  0A
0B93E:  MOVLB  4
0B940:  MOVWF  x04
0B942:  MOVLB  0
0B944:  CALL   179C
....................                Temporal=RPT100-((int8)RPT100); 
0B948:  MOVFF  2A9,407
0B94C:  MOVFF  2A8,406
0B950:  MOVFF  2A7,405
0B954:  MOVFF  2A6,404
0B958:  CALL   3CB8
0B95C:  MOVLB  4
0B95E:  CLRF   x05
0B960:  MOVFF  01,404
0B964:  MOVLB  0
0B966:  CALL   17C2
0B96A:  BSF    FD8.1
0B96C:  MOVFF  2A9,407
0B970:  MOVFF  2A8,406
0B974:  MOVFF  2A7,405
0B978:  MOVFF  2A6,404
0B97C:  MOVFF  03,40B
0B980:  MOVFF  02,40A
0B984:  MOVFF  01,409
0B988:  MOVFF  00,408
0B98C:  CALL   19A6
0B990:  MOVFF  03,2AD
0B994:  MOVFF  02,2AC
0B998:  MOVFF  01,2AB
0B99C:  MOVFF  00,2AA
....................                Temporal=Temporal*10; 
0B9A0:  MOVFF  2AD,40B
0B9A4:  MOVFF  2AC,40A
0B9A8:  MOVFF  2AB,409
0B9AC:  MOVFF  2AA,408
0B9B0:  MOVLB  4
0B9B2:  CLRF   x0F
0B9B4:  CLRF   x0E
0B9B6:  MOVLW  20
0B9B8:  MOVWF  x0D
0B9BA:  MOVLW  82
0B9BC:  MOVWF  x0C
0B9BE:  MOVLB  0
0B9C0:  CALL   3602
0B9C4:  MOVFF  03,2AD
0B9C8:  MOVFF  02,2AC
0B9CC:  MOVFF  01,2AB
0B9D0:  MOVFF  00,2AA
....................                write_eeprom(33,(int8)Temporal); 
0B9D4:  MOVFF  2AD,407
0B9D8:  MOVFF  2AC,406
0B9DC:  MOVFF  2AB,405
0B9E0:  MOVFF  2AA,404
0B9E4:  CALL   3CB8
0B9E8:  MOVFF  01,3EF
0B9EC:  CLRF   FAA
0B9EE:  MOVLW  21
0B9F0:  MOVWF  FA9
0B9F2:  MOVFF  3EF,FA8
0B9F6:  BCF    FA6.6
0B9F8:  BCF    FA6.7
0B9FA:  BSF    FA6.2
0B9FC:  MOVF   FF2,W
0B9FE:  MOVWF  00
0BA00:  BCF    FF2.6
0BA02:  BCF    FF2.7
0BA04:  MOVLB  F
0BA06:  MOVLW  55
0BA08:  MOVWF  FA7
0BA0A:  MOVLW  AA
0BA0C:  MOVWF  FA7
0BA0E:  BSF    FA6.1
0BA10:  BTFSC  FA6.1
0BA12:  BRA    BA10
0BA14:  BCF    FA6.2
0BA16:  MOVF   00,W
0BA18:  IORWF  FF2,F
....................                delay_ms(10); 
0BA1A:  MOVLW  0A
0BA1C:  MOVLB  4
0BA1E:  MOVWF  x04
0BA20:  MOVLB  0
0BA22:  CALL   179C
....................                write_eeprom(39,TTrampa); 
0BA26:  CLRF   FAA
0BA28:  MOVLW  27
0BA2A:  MOVWF  FA9
0BA2C:  MOVFF  2DB,FA8
0BA30:  BCF    FA6.6
0BA32:  BCF    FA6.7
0BA34:  BSF    FA6.2
0BA36:  MOVF   FF2,W
0BA38:  MOVWF  00
0BA3A:  BCF    FF2.6
0BA3C:  BCF    FF2.7
0BA3E:  MOVLB  F
0BA40:  MOVLW  55
0BA42:  MOVWF  FA7
0BA44:  MOVLW  AA
0BA46:  MOVWF  FA7
0BA48:  BSF    FA6.1
0BA4A:  BTFSC  FA6.1
0BA4C:  BRA    BA4A
0BA4E:  BCF    FA6.2
0BA50:  MOVF   00,W
0BA52:  IORWF  FF2,F
....................                delay_ms(10); 
0BA54:  MOVLW  0A
0BA56:  MOVLB  4
0BA58:  MOVWF  x04
0BA5A:  MOVLB  0
0BA5C:  CALL   179C
....................                GuardaEEPROM=ON; 
0BA60:  BSF    xA2.3
....................             } 
....................             printf("page MenuPrincipal"); 
0BA62:  MOVLW  46
0BA64:  MOVWF  FF6
0BA66:  MOVLW  17
0BA68:  MOVWF  FF7
0BA6A:  MOVLW  00
0BA6C:  MOVWF  FF8
0BA6E:  CALL   3506
....................             SendDataDisplay(); 
0BA72:  CALL   3538
....................             //BorraBuffer(); 
....................          } 
....................       } 
....................       printf("fecha.txt=\"T:%3.1fC Fecha:%02u/%02u/20%02u Hora: %02u:%02u:%02u\"",Temperatura,Dia,Mes,Year,Hora,Minuto,Segundo); 
0BA76:  MOVLW  5A
0BA78:  MOVWF  FF6
0BA7A:  MOVLW  17
0BA7C:  MOVWF  FF7
0BA7E:  MOVLW  00
0BA80:  MOVWF  FF8
0BA82:  MOVLW  0D
0BA84:  MOVLB  3
0BA86:  MOVWF  xF3
0BA88:  MOVLB  0
0BA8A:  CALL   4276
0BA8E:  MOVLW  02
0BA90:  MOVWF  FE9
0BA92:  MOVFF  324,3F6
0BA96:  MOVFF  323,3F5
0BA9A:  MOVFF  322,3F4
0BA9E:  MOVFF  321,3F3
0BAA2:  MOVLW  01
0BAA4:  MOVLB  3
0BAA6:  MOVWF  xF7
0BAA8:  MOVLB  0
0BAAA:  CALL   4416
0BAAE:  MOVLW  6C
0BAB0:  MOVWF  FF6
0BAB2:  MOVLW  17
0BAB4:  MOVWF  FF7
0BAB6:  MOVLW  00
0BAB8:  MOVWF  FF8
0BABA:  MOVLW  09
0BABC:  MOVLB  3
0BABE:  MOVWF  xF3
0BAC0:  MOVLB  0
0BAC2:  CALL   4276
0BAC6:  MOVFF  397,3F1
0BACA:  MOVLW  01
0BACC:  MOVLB  3
0BACE:  MOVWF  xF2
0BAD0:  MOVLB  0
0BAD2:  CALL   42D4
0BAD6:  MOVLW  2F
0BAD8:  BTFSS  F9E.4
0BADA:  BRA    BAD8
0BADC:  MOVWF  FAD
0BADE:  MOVFF  396,3F1
0BAE2:  MOVLW  01
0BAE4:  MOVLB  3
0BAE6:  MOVWF  xF2
0BAE8:  MOVLB  0
0BAEA:  CALL   42D4
0BAEE:  MOVLW  2F
0BAF0:  BTFSS  F9E.4
0BAF2:  BRA    BAF0
0BAF4:  MOVWF  FAD
0BAF6:  MOVLW  32
0BAF8:  BTFSS  F9E.4
0BAFA:  BRA    BAF8
0BAFC:  MOVWF  FAD
0BAFE:  MOVLW  30
0BB00:  BTFSS  F9E.4
0BB02:  BRA    BB00
0BB04:  MOVWF  FAD
0BB06:  MOVFF  395,3F1
0BB0A:  MOVLW  01
0BB0C:  MOVLB  3
0BB0E:  MOVWF  xF2
0BB10:  MOVLB  0
0BB12:  CALL   42D4
0BB16:  MOVLW  85
0BB18:  MOVWF  FF6
0BB1A:  MOVLW  17
0BB1C:  MOVWF  FF7
0BB1E:  MOVLW  00
0BB20:  MOVWF  FF8
0BB22:  MOVLW  07
0BB24:  MOVLB  3
0BB26:  MOVWF  xF3
0BB28:  MOVLB  0
0BB2A:  CALL   4276
0BB2E:  MOVFF  398,3F1
0BB32:  MOVLW  01
0BB34:  MOVLB  3
0BB36:  MOVWF  xF2
0BB38:  MOVLB  0
0BB3A:  CALL   42D4
0BB3E:  MOVLW  3A
0BB40:  BTFSS  F9E.4
0BB42:  BRA    BB40
0BB44:  MOVWF  FAD
0BB46:  MOVFF  399,3F1
0BB4A:  MOVLW  01
0BB4C:  MOVLB  3
0BB4E:  MOVWF  xF2
0BB50:  MOVLB  0
0BB52:  CALL   42D4
0BB56:  MOVLW  3A
0BB58:  BTFSS  F9E.4
0BB5A:  BRA    BB58
0BB5C:  MOVWF  FAD
0BB5E:  MOVFF  39A,3F1
0BB62:  MOVLW  01
0BB64:  MOVLB  3
0BB66:  MOVWF  xF2
0BB68:  MOVLB  0
0BB6A:  CALL   42D4
0BB6E:  MOVLW  22
0BB70:  BTFSS  F9E.4
0BB72:  BRA    BB70
0BB74:  MOVWF  FAD
....................       SendDataDisplay();  
0BB76:  CALL   3538
0BB7A:  MOVLB  3
....................     } 
.................... //_--------------------------------------------------------------------------------------------------------------------------------------------------------        
....................  
....................    } 
0BB7C:  GOTO   5C4C
.................... } 
0BB80:  SLEEP 

Configuration Fuses:
   Word  1: 0200   HS NOIESO NOFCMEN
   Word  2: 1B19   NOBROWNOUT WDT BORV20 NOPUT WDT8192
   Word  3: 0000   NOPBADEN NOLPT1OSC NOMCLR
   Word  4: 00B0   NOSTVREN NODEBUG NOLVP NOXINST BBSIZ4K
   Word  5: C03F   NOPROTECT NOCPD NOCPB
   Word  6: E03F   NOWRT NOWRTD NOWRTC NOWRTB
   Word  7: 403F   NOEBTR NOEBTRB
