CCS PCH C Compiler, Version 4.104, 5967               24-jun.-20 12:37

               Filename: D:\Laboratorio\Autoclave\Autoclaves Vertical\Con Precamara\2020\Autoclave 160L Sociedad Integral Suministros OP202055 #0045881XX\Firmware V4.0\GLCD_Controller V4.0.2\GLCD_Controller.lst

               ROM used: 59044 bytes (60%)
                         Largest free fragment is 32768
               RAM used: 1984 (60%) at main() level
                         2013 (60%) worst case
               Stack:    5 worst case (4 in main + 1 for interrupts)

*
00000:  GOTO   7A50
*
00008:  GOTO   00BA
0000C:  NOP   
0000E:  NOP   
00010:  NOP   
00012:  NOP   
00014:  NOP   
00016:  NOP   
00018:  MOVWF  04
0001A:  MOVFF  FD8,05
0001E:  MOVFF  FE0,06
00022:  MOVLB  0
00024:  MOVFF  FE9,0C
00028:  MOVFF  FEA,07
0002C:  MOVFF  FE1,08
00030:  MOVFF  FE2,09
00034:  MOVFF  FD9,0A
00038:  MOVFF  FDA,0B
0003C:  MOVFF  FF3,12
00040:  MOVFF  FF4,13
00044:  MOVFF  FFA,14
00048:  MOVFF  FFB,15
0004C:  MOVFF  00,0E
00050:  MOVFF  01,0F
00054:  MOVFF  02,10
00058:  MOVFF  03,11
0005C:  BTFSS  FF2.5
0005E:  GOTO   0068
00062:  BTFSC  FF2.2
00064:  GOTO   0626
00068:  BTFSS  F9D.0
0006A:  GOTO   0074
0006E:  BTFSC  F9E.0
00070:  GOTO   0676
00074:  MOVFF  0E,00
00078:  MOVFF  0F,01
0007C:  MOVFF  10,02
00080:  MOVFF  11,03
00084:  MOVFF  0C,FE9
00088:  MOVFF  07,FEA
0008C:  BSF    07.7
0008E:  MOVFF  08,FE1
00092:  MOVFF  09,FE2
00096:  MOVFF  0A,FD9
0009A:  MOVFF  0B,FDA
0009E:  MOVFF  12,FF3
000A2:  MOVFF  13,FF4
000A6:  MOVFF  14,FFA
000AA:  MOVFF  15,FFB
000AE:  MOVF   04,W
000B0:  MOVFF  06,FE0
000B4:  MOVFF  05,FD8
000B8:  RETFIE 0
000BA:  MOVWF  17
000BC:  MOVFF  FD8,18
000C0:  MOVFF  FE0,19
000C4:  MOVLB  0
000C6:  MOVFF  FE9,1F
000CA:  MOVFF  FEA,1A
000CE:  MOVFF  FE1,1B
000D2:  MOVFF  FE2,1C
000D6:  MOVFF  FD9,1D
000DA:  MOVFF  FDA,1E
000DE:  MOVFF  FF3,25
000E2:  MOVFF  FF4,26
000E6:  MOVFF  FFA,27
000EA:  MOVFF  FFB,28
000EE:  MOVFF  00,21
000F2:  MOVFF  01,22
000F6:  MOVFF  02,23
000FA:  MOVFF  03,24
000FE:  BTFSS  F9D.5
00100:  GOTO   010A
00104:  BTFSC  F9E.5
00106:  GOTO   05B8
0010A:  MOVFF  21,00
0010E:  MOVFF  22,01
00112:  MOVFF  23,02
00116:  MOVFF  24,03
0011A:  MOVFF  1F,FE9
0011E:  MOVFF  1A,FEA
00122:  BSF    1A.7
00124:  MOVFF  1B,FE1
00128:  MOVFF  1C,FE2
0012C:  MOVFF  1D,FD9
00130:  MOVFF  1E,FDA
00134:  MOVFF  25,FF3
00138:  MOVFF  26,FF4
0013C:  MOVFF  27,FFA
00140:  MOVFF  28,FFB
00144:  MOVF   17,W
00146:  MOVFF  19,FE0
0014A:  MOVFF  18,FD8
0014E:  RETFIE 0
.................... //Falta crear menu de ajuste de variables y de norma CFR21 
....................  
.................... #include <18F4685.h> 
.................... //////// Standard Header file for the PIC18F4685 device //////////////// 
.................... #device PIC18F4685 
.................... #list 
....................  
.................... #device adc=10 
.................... #device HIGH_INTS=TRUE //Activamos niveles de prioridad 
.................... #fuses HS,WDT8192,NOPROTECT,NOLVP,NODEBUG,NOSTVREN,NOPUT,NOCPD,NOWRT,NOIESO,NOFCMEN,NOPBADEN,NOWRTC,NOWRTB,NOEBTR,NOEBTRB,NOCPB,NOXINST,NOLPT1OSC,NOMCLR 
.................... #use delay(clock=20000000) 
*
01FA0:  MOVLW  07
01FA2:  MOVWF  FEA
01FA4:  MOVLW  C9
01FA6:  MOVWF  FE9
01FA8:  MOVF   FEF,W
01FAA:  BZ    1FC6
01FAC:  MOVLW  06
01FAE:  MOVWF  01
01FB0:  CLRF   00
01FB2:  DECFSZ 00,F
01FB4:  BRA    1FB2
01FB6:  DECFSZ 01,F
01FB8:  BRA    1FB0
01FBA:  MOVLW  7B
01FBC:  MOVWF  00
01FBE:  DECFSZ 00,F
01FC0:  BRA    1FBE
01FC2:  DECFSZ FEF,F
01FC4:  BRA    1FAC
01FC6:  RETLW  00
.................... #use i2c(Master,slow,sda=PIN_C4,scl=PIN_C3) 
*
0205E:  MOVLW  08
02060:  MOVWF  01
02062:  MOVLW  05
02064:  MOVWF  00
02066:  DECFSZ 00,F
02068:  BRA    2066
0206A:  BCF    F8B.3
0206C:  BCF    F94.3
0206E:  MOVLW  06
02070:  MOVWF  00
02072:  DECFSZ 00,F
02074:  BRA    2072
02076:  MOVLB  7
02078:  RLCF   xCD,F
0207A:  BCF    F8B.4
0207C:  BTFSC  FD8.0
0207E:  BSF    F94.4
02080:  BTFSS  FD8.0
02082:  BCF    F94.4
02084:  BSF    F94.3
02086:  BTFSS  F82.3
02088:  BRA    2086
0208A:  DECFSZ 01,F
0208C:  BRA    2090
0208E:  BRA    2094
02090:  MOVLB  0
02092:  BRA    2062
02094:  MOVLW  05
02096:  MOVWF  00
02098:  DECFSZ 00,F
0209A:  BRA    2098
0209C:  BCF    F8B.3
0209E:  BCF    F94.3
020A0:  NOP   
020A2:  BSF    F94.4
020A4:  MOVLW  06
020A6:  MOVWF  00
020A8:  DECFSZ 00,F
020AA:  BRA    20A8
020AC:  MOVLW  06
020AE:  MOVWF  00
020B0:  DECFSZ 00,F
020B2:  BRA    20B0
020B4:  BSF    F94.3
020B6:  BTFSS  F82.3
020B8:  BRA    20B6
020BA:  CLRF   01
020BC:  MOVLW  06
020BE:  MOVWF  00
020C0:  DECFSZ 00,F
020C2:  BRA    20C0
020C4:  BTFSC  F82.4
020C6:  BSF    01.0
020C8:  BCF    F8B.3
020CA:  BCF    F94.3
020CC:  BCF    F8B.4
020CE:  BCF    F94.4
020D0:  MOVLB  0
020D2:  RETLW  00
020D4:  MOVLW  08
020D6:  MOVLB  7
020D8:  MOVWF  xC2
020DA:  MOVFF  00,7C3
020DE:  BSF    F94.4
020E0:  MOVLW  06
020E2:  MOVWF  00
020E4:  DECFSZ 00,F
020E6:  BRA    20E4
020E8:  BSF    F94.3
020EA:  BTFSS  F82.3
020EC:  BRA    20EA
020EE:  BTFSC  F82.4
020F0:  BSF    FD8.0
020F2:  BTFSS  F82.4
020F4:  BCF    FD8.0
020F6:  RLCF   01,F
020F8:  MOVLW  05
020FA:  MOVWF  00
020FC:  DECFSZ 00,F
020FE:  BRA    20FC
02100:  BCF    F94.3
02102:  BCF    F8B.3
02104:  DECFSZ xC2,F
02106:  BRA    20DE
02108:  BSF    F94.4
0210A:  MOVLW  06
0210C:  MOVWF  00
0210E:  DECFSZ 00,F
02110:  BRA    210E
02112:  BCF    F8B.4
02114:  MOVF   xC3,W
02116:  BTFSS  FD8.2
02118:  BCF    F94.4
0211A:  NOP   
0211C:  BSF    F94.3
0211E:  BTFSS  F82.3
02120:  BRA    211E
02122:  MOVLW  05
02124:  MOVWF  00
02126:  DECFSZ 00,F
02128:  BRA    2126
0212A:  BCF    F8B.3
0212C:  BCF    F94.3
0212E:  MOVLW  06
02130:  MOVWF  00
02132:  DECFSZ 00,F
02134:  BRA    2132
02136:  BCF    F8B.4
02138:  BCF    F94.4
0213A:  MOVLB  0
0213C:  RETLW  00
.................... #use rs232(baud=9600, xmit=PIN_C6, rcv=PIN_C7, bits=8, parity=N) 
*
03E90:  BTFSS  F9E.4
03E92:  BRA    3E90
03E94:  MOVWF  FAD
03E96:  RETLW  00
....................  
.................... #include <stdio.h> 
.................... /////////////////////////////////////////////////////////////////////////// 
.................... ////        (C) Copyright 1996,2003 Custom Computer Services           //// 
.................... //// This source code may only be used by licensed users of the CCS C  //// 
.................... //// compiler.  This source code may only be distributed to other      //// 
.................... //// licensed users of the CCS C compiler.  No other use, reproduction //// 
.................... //// or distribution is permitted without written permission.          //// 
.................... //// Derivative programs created using this software in object code    //// 
.................... //// form are not restricted in any way.                               //// 
.................... /////////////////////////////////////////////////////////////////////////// 
....................  
.................... #ifndef _STDIO 
.................... #define _STDIO 
.................... #include <string.h> 
.................... //////////////////////////////////////////////////////////////////////////// 
.................... ////        (C) Copyright 1996,2008 Custom Computer Services            //// 
.................... //// This source code may only be used by licensed users of the CCS C   //// 
.................... //// compiler.  This source code may only be distributed to other       //// 
.................... //// licensed users of the CCS C compiler.  No other use, reproduction  //// 
.................... //// or distribution is permitted without written permission.           //// 
.................... //// Derivative programs created using this software in object code     //// 
.................... //// form are not restricted in any way.                                //// 
.................... //////////////////////////////////////////////////////////////////////////// 
....................  
.................... #ifndef _STRING 
.................... #define _STRING 
.................... #include <stddef.h> 
.................... /////////////////////////////////////////////////////////////////////////// 
.................... ////        (C) Copyright 1996,2003 Custom Computer Services           //// 
.................... //// This source code may only be used by licensed users of the CCS C  //// 
.................... //// compiler.  This source code may only be distributed to other      //// 
.................... //// licensed users of the CCS C compiler.  No other use, reproduction //// 
.................... //// or distribution is permitted without written permission.          //// 
.................... //// Derivative programs created using this software in object code    //// 
.................... //// form are not restricted in any way.                               //// 
.................... /////////////////////////////////////////////////////////////////////////// 
....................  
.................... #ifndef _STDDEF 
....................  
.................... #define _STDDEF 
....................  
.................... #if sizeof(unsigned int8 *)==1 
.................... #define ptrdiff_t unsigned int8 
.................... #else 
.................... #define ptrdiff_t unsigned int16 
.................... #endif 
....................  
.................... #define size_t unsigned int8 
.................... #define wchar_t char 
.................... #define NULL 0 
....................  
.................... #define offsetof(s,f) (offsetofbit(s,f)/8) 
....................  
.................... #endif 
....................  
.................... #include <ctype.h> 
.................... //////////////////////////////////////////////////////////////////////////// 
.................... ////        (C) Copyright 1996,2003 Custom Computer Services            //// 
.................... //// This source code may only be used by licensed users of the CCS C   //// 
.................... //// compiler.  This source code may only be distributed to other       //// 
.................... //// licensed users of the CCS C compiler.  No other use, reproduction  //// 
.................... //// or distribution is permitted without written permission.           //// 
.................... //// Derivative programs created using this software in object code     //// 
.................... //// form are not restricted in any way.                                //// 
.................... //////////////////////////////////////////////////////////////////////////// 
....................  
.................... #ifndef _CTYPE 
.................... #define _CTYPE 
....................  
.................... #define islower(x)  isamong(x,"abcdefghijklmnopqrstuvwxyz") 
.................... #define isupper(x)  isamong(x,"ABCDEFGHIJKLMNOPQRSTUVWXYZ") 
.................... #define isalnum(x)  isamong(x,"0123456789ABCDEFGHIJKLMNOPQRSTUVWXYZabcdefghijklmnopqrstuvwxyz") 
.................... #define isalpha(x)  isamong(x,"ABCDEFGHIJKLMNOPQRSTUVWXYZabcdefghijklmnopqrstuvwxyz") 
.................... #define isdigit(x)  isamong(x,"0123456789") 
.................... #define isspace(x)  ((x)==' ') 
.................... #define isxdigit(x) isamong(x,"0123456789ABCDEFabcdef") 
.................... #define iscntrl(x)  ((x)<' ') 
.................... #define isprint(x)  ((x)>=' ') 
.................... #define isgraph(x)  ((x)>' ') 
.................... #define ispunct(x)  (((x)>' ')&&!isalnum(x)) 
....................  
.................... #endif 
....................  
....................  
....................  
....................  
....................  
.................... ////////////////////////////////////////////// 
.................... //// Uncomment the following define to    //// 
.................... //// allow some functions to use a        //// 
.................... //// quicker algorithm, but use more ROM  //// 
.................... ////                                      //// 
.................... //// #define FASTER_BUT_MORE_ROM          //// 
.................... ////////////////////////////////////////////// 
....................  
....................  
....................  
.................... /*Copying functions*/ 
.................... /* standard template: 
....................    void *memmove(void *s1, void *s2, size_t n). 
....................    Copies max of n characters safely (not following ending '\0') 
....................    from s2 in s1; if s2 has less than n characters, appends 0 */ 
....................  
.................... char *memmove(void *s1,char *s2,size_t n) 
.................... { 
....................    char *sc1; 
....................    char *sc2; 
....................    sc1=s1; 
....................    sc2=s2; 
....................    if(sc2<sc1 && sc1 <sc2 +n) 
....................       for(sc1+=n,sc2+=n;0<n;--n) 
....................          *--sc1=*--sc2; 
....................    else 
....................       for(;0<n;--n) 
....................          *sc1++=*sc2++; 
....................   return s1; 
....................   } 
....................  
.................... /* Standard template: char *strcpy(char *s1, const char *s2) 
....................    copies the string s2 including the null character to s1. 
....................    This is a compiler built in to handle the different address 
....................    spaces */ 
....................  
.................... #define strcopy strcpy 
....................  
.................... /* standard template: 
....................    char *strncpy(char *s1, const char *s2, size_t n). 
....................    Copies max of n characters (not following ending '\0') 
....................    from s2 in s1; if s2 has less than n characters, appends 0 */ 
....................  
.................... char *strncpy(char *s1, char *s2, size_t n) 
.................... { 
....................   char *s; 
....................  
....................   for (s = s1; n > 0 && *s2 != '\0'; n--) 
....................      *s++ = *s2++; 
....................   for (; n > 0; n--) 
....................      *s++ = '\0'; 
....................  
....................   return(s1); 
.................... } 
.................... /***********************************************************/ 
....................  
.................... /*concatenation functions*/ 
.................... /* standard template: char *strcat(char *s1, const char *s2) 
.................... appends s2 to s1*/ 
....................  
.................... char *strcat(char *s1, char *s2) 
.................... { 
....................    char *s; 
....................  
....................    for (s = s1; *s != '\0'; ++s); 
....................    while(*s2 != '\0') 
....................    { 
....................       *s = *s2; 
....................       ++s; 
....................       ++s2; 
....................    } 
....................  
....................    *s = '\0'; 
....................    return(s1); 
.................... } 
.................... /* standard template: char *strncat(char *s1, char *s2,size_t n) 
.................... appends not more than n characters from s2 to s1*/ 
....................  
.................... char *strncat(char *s1, char *s2, size_t n) 
.................... { 
....................    char *s; 
....................  
....................    for (s = s1; *s != '\0'; ++s); 
....................    while(*s2 != '\0' && 0<n) 
....................    { 
....................       *s = *s2; 
....................       ++s; 
....................       ++s2; 
....................       --n; 
....................    } 
....................  
....................    *s = '\0'; 
....................    return(s1); 
.................... } 
....................  
.................... /***********************************************************/ 
....................  
....................  
.................... /*comparison functions*/ 
.................... /* standard template: signed int memcmp(void *s1, void *s2). 
....................    Compares s1 & s2; returns -1 if s1<s2, 0 if s1=s2, 1 if s1>s2 */ 
....................  
.................... signed int8 memcmp(void * s1,char *s2,size_t n) 
.................... { 
.................... char *su1, *su2; 
.................... for(su1=s1, su2=s2; 0<n; ++su1, ++su2, --n) 
.................... { 
....................    if(*su1!=*su2) 
....................       return ((*su1<*su2)?-1:+1); 
.................... } 
.................... return 0; 
.................... } 
....................  
.................... /* standard template: int strcmp(const char *s1, const char *s2). 
....................    Compares s1 & s2; returns -1 if s1<s2, 0 if s1=s2, 1 if s1>s2 */ 
....................  
.................... signed int8 strcmp(char *s1, char *s2) 
.................... { 
....................    for (; *s1 == *s2; s1++, s2++) 
....................       if (*s1 == '\0') 
....................          return(0); 
....................    return((*s1 < *s2) ? -1: 1); 
.................... } 
.................... /* standard template: int strcoll(const char *s1, const char *s2). 
....................    Compares s1 & s2; returns -1 if s1<s2, 0 if s1=s2, 1 if s1>s2 */ 
....................  
.................... signed int8 strcoll(char *s1, char *s2) 
.................... { 
....................    for (; *s1 == *s2; s1++, s2++) 
....................       if (*s1 == '\0') 
....................          return(0); 
....................    return((*s1 < *s2) ? -1: 1); 
.................... } 
....................  
.................... /* standard template: 
....................    int strncmp(const char *s1, const char *s2, size_t n). 
....................    Compares max of n characters (not following 0) from s1 to s2; 
....................    returns same as strcmp */ 
....................  
.................... signed int8 strncmp(char *s1, char *s2, size_t n) 
.................... { 
....................    for (; n > 0; s1++, s2++, n--) 
....................       if (*s1 != *s2) 
....................          return((*s1 <*s2) ? -1: 1); 
....................       else if (*s1 == '\0') 
....................          return(0); 
....................    return(0); 
.................... } 
.................... /* standard template: 
....................    int strxfrm(const char *s1, const char *s2, size_t n). 
....................    transforms maximum of n characters from s2 and places them into s1*/ 
.................... size_t strxfrm(char *s1, char *s2, size_t n) 
.................... { 
....................   char *s; 
....................   unsigned int8 n1; 
....................   n1=n; 
....................   for (s = s1; n > 0 && *s2 != '\0'; n--) 
....................      *s++ = *s2++; 
....................   for (; n > 0; n--) 
....................      *s++ = '\0'; 
....................  
....................   return(n1); 
.................... } 
....................  
....................  
....................  
....................  
....................  
.................... /***********************************************************/ 
.................... /*Search functions*/ 
.................... /* standard template: void *memchr(const char *s, int c). 
....................    Finds first occurrence of c in n characters of s */ 
....................  
.................... char *memchr(void *s,unsigned int8 c,size_t n) 
.................... { 
....................    char uc; 
....................    char *su; 
....................    uc=c; 
....................    for(su=s;0<n;++su,--n) 
....................       if(*su==uc) 
....................       return su; 
....................    return NULL; 
.................... } 
....................  
.................... /* standard template: char *strchr(const char *s, int c). 
....................    Finds first occurrence of c in s */ 
....................  
.................... char *strchr(char *s, unsigned int8 c) 
.................... { 
....................    for (; *s != c; s++) 
....................       if (*s == '\0') 
....................          return(0); 
....................    return(s); 
.................... } 
.................... /* standard template: 
....................    size_t strcspn(const char *s1, const char *s2). 
....................    Computes length of max initial segment of s1 that 
....................    consists entirely of characters NOT from s2*/ 
....................  
.................... unsigned int8  strcspn(char *s1, char *s2) 
.................... { 
....................    char *sc1, *sc2; 
....................  
....................    for (sc1 = s1; *sc1 != 0; sc1++) 
....................       for (sc2 = s2; *sc2 != 0; sc2++) 
....................          if (*sc1 == *sc2) 
....................             return(sc1 - s1); 
....................    return(sc1 - s1); 
.................... } 
.................... /* standard template: 
....................    char *strpbrk(const char *s1, const char *s2). 
....................    Locates first occurence of any character from s2 in s1; 
....................    returns s1 if s2 is empty string */ 
....................  
.................... char *strpbrk(char *s1, char *s2) 
.................... { 
....................    char *sc1, *sc2; 
....................  
....................    for (sc1 = s1; *sc1 != 0; sc1++) 
....................       for (sc2 = s2; *sc2 != 0; sc2++) 
....................          if (*sc1 == *sc2) 
....................             return(sc1); 
....................    return(0); 
.................... } 
....................  
....................  
.................... /* standard template: char *strrchr(const char *s, int c). 
....................    Finds last occurrence of c in s */ 
....................  
.................... char *strrchr(char *s, unsigned int8 c) 
.................... { 
....................    char *p; 
....................  
....................    for (p = 0; ; s++) 
....................    { 
....................       if (*s == c) 
....................          p = s; 
....................       if (*s == '\0') 
....................          return(p); 
....................    } 
.................... } 
.................... /* computes length of max initial segment of s1 consisting 
....................    entirely of characters from s2 */ 
....................  
.................... unsigned int8  strspn(char *s1, char *s2) 
.................... { 
....................    char *sc1, *sc2; 
....................  
....................    for (sc1 = s1; *sc1 != 0; sc1++) 
....................       for (sc2 = s2; ; sc2++) 
....................     if (*sc2 == '\0') 
....................        return(sc1 - s1); 
....................          else if (*sc1 == *sc2) 
....................             break; 
....................    return(sc1 - s1); 
.................... } 
.................... /* standard template: 
....................    char *strstr(const char *s1, const char *s2); 
....................    Locates first occurence of character sequence s2 in s1; 
....................    returns 0 if s2 is empty string 
....................  
....................    Uncomment #define FASTER_BUT_MORE_ROM at the top of the 
....................    file to use the faster algorithm */ 
.................... char *strstr(char *s1, char *s2) 
.................... { 
....................    char *s, *t; 
....................  
....................    #ifdef FASTER_BUT_MORE_ROM 
....................    if (*s2 == '\0') 
....................          return(s1); 
....................    #endif 
....................  
....................    while (*s1) 
....................    { 
....................       for(s = s1, t = s2; *t && (*s == *t); ++s, ++t); 
....................  
....................       if (*t == '\0') 
....................          return s1; 
....................       ++s1; 
....................       #ifdef FASTER_BUT_MORE_ROM 
....................          while(*s1 != '\0' && *s1 != *s2) 
....................             ++s1; 
....................       #endif 
....................    } 
....................    return 0; 
.................... } 
....................  
.................... /* standard template: char *strtok(char *s1, const char *s2). 
....................  
....................    Finds next token in s1 delimited by a character from separator 
....................    string s2 (which can be different from call to call).  First call 
....................    starts at beginning of s1 searching for first character NOT 
....................    contained in s2; returns 0 if none is found. 
....................    If one is found, it is the start of first token (return value). 
....................    Function then searches from there for a character contained in s2. 
....................    If none is found, current token extends to end of s1, and subsequent 
....................    searches for a token will return 0.  If one is found, it is 
....................    overwritten by '\0', which terminates current token.  Function saves 
....................    pointer to following character from which next search will start. 
....................    Each subsequent call, with 0 as first argument, starts searching 
....................    from saved pointer */ 
....................  
.................... char *strtok(char *s1, char *s2) 
.................... { 
....................    char *beg, *end; 
....................    static char *save; 
....................  
....................    beg = (s1)? s1: save; 
....................    beg += strspn(beg, s2); 
....................    if (*beg == '\0') 
....................    { 
....................       *save = ' '; 
....................       return(0); 
....................    } 
....................    end = strpbrk(beg, s2); 
....................    if (*end != '\0') 
....................    { 
....................       *end = '\0'; 
....................       end++; 
....................    } 
....................    save = end; 
....................    return(beg); 
.................... } 
....................  
.................... /*****************************************************************/ 
.................... /*Miscellaneous functions*/ 
.................... /* standard template 
.................... maps error number in errnum to an error message string 
.................... Returns: Pointer to string 
.................... */ 
.................... #ifdef _ERRNO 
.................... char * strerror(unsigned int8 errnum) 
.................... { 
.................... char s[15]; 
.................... switch( errnum) 
.................... { 
.................... case 0: 
....................    strcpy(s,"no errors"); 
....................    return s; 
.................... case EDOM : 
....................    strcpy(s,"domain error"); 
....................    return s; 
.................... case ERANGE: 
....................    strcpy(s,"range error"); 
....................    return s; 
.................... } 
.................... } 
.................... #ENDIF 
.................... /* standard template: size_t strlen(const char *s). 
....................    Computes length of s1 (preceding terminating 0) */ 
....................  
.................... unsigned int8 strlen(char *s) 
.................... { 
....................    char *sc; 
....................  
....................    for (sc = s; *sc != 0; sc++); 
....................    return(sc - s); 
.................... } 
....................  
.................... /* standard template: size_t stricmp(const char *s1, const char *s2). 
....................    Compares s1 to s2 ignoring case (upper vs. lower) */ 
....................  
.................... signed int8 stricmp(char *s1, char *s2) 
.................... { 
....................  for(; *s1==*s2||(isalpha(*s1)&&isalpha(*s2)&&(*s1==*s2+32||*s2==*s1+32)); 
....................     s1++, s2++) 
....................     if (*s1 == '\0') 
....................        return(0); 
....................  return((*s1 < *s2) ? -1: 1); 
.................... } 
....................  
....................  
.................... /* standard template: char *strlwr(char *s). 
....................    Replaces uppercase letters by lowercase; 
....................    returns pointer to new string s */ 
....................  
.................... char *strlwr(char *s) 
.................... { 
....................    char *p; 
....................  
....................    for (p = s; *p != '\0'; p++) 
....................       if (*p >= 'A' && *p <='Z') 
....................          *p += 'a' - 'A'; 
....................    return(s); 
.................... } 
....................  
....................  
.................... /************************************************************/ 
....................  
....................  
.................... #endif 
....................  
.................... #ifndef getc 
.................... #define getc getch 
.................... #define getchar getch 
.................... #define puts(s) {printf(s); putchar(13); putchar(10);} 
.................... #define putc putchar 
.................... #endif 
.................... /* maps error number to an error message. Writes a sequence of characters to 
.................... stderr stream thus: if s is not null then string pointed to by s follwed by 
.................... a colon (:) and a space and the appropriate error message returned by strerror 
.................... function with argument errno 
....................  
.................... Returns: no value 
.................... */ 
....................  
.................... #ifdef _ERRNO 
.................... void perror(char *s) 
.................... { 
....................   if(s) 
....................   fprintf(STDERR,"%s: ",s); 
....................   fprintf(STDERR,"%s\r\n",strerror(errno)); 
.................... } 
.................... #endif 
.................... #endif 
....................  
.................... #include <string.h> 
.................... //////////////////////////////////////////////////////////////////////////// 
.................... ////        (C) Copyright 1996,2008 Custom Computer Services            //// 
.................... //// This source code may only be used by licensed users of the CCS C   //// 
.................... //// compiler.  This source code may only be distributed to other       //// 
.................... //// licensed users of the CCS C compiler.  No other use, reproduction  //// 
.................... //// or distribution is permitted without written permission.           //// 
.................... //// Derivative programs created using this software in object code     //// 
.................... //// form are not restricted in any way.                                //// 
.................... //////////////////////////////////////////////////////////////////////////// 
....................  
.................... #ifndef _STRING 
.................... #define _STRING 
.................... #include <stddef.h> 
.................... #include <ctype.h> 
....................  
....................  
....................  
.................... ////////////////////////////////////////////// 
.................... //// Uncomment the following define to    //// 
.................... //// allow some functions to use a        //// 
.................... //// quicker algorithm, but use more ROM  //// 
.................... ////                                      //// 
.................... //// #define FASTER_BUT_MORE_ROM          //// 
.................... ////////////////////////////////////////////// 
....................  
....................  
....................  
.................... /*Copying functions*/ 
.................... /* standard template: 
....................    void *memmove(void *s1, void *s2, size_t n). 
....................    Copies max of n characters safely (not following ending '\0') 
....................    from s2 in s1; if s2 has less than n characters, appends 0 */ 
....................  
.................... char *memmove(void *s1,char *s2,size_t n) 
.................... { 
....................    char *sc1; 
....................    char *sc2; 
....................    sc1=s1; 
....................    sc2=s2; 
....................    if(sc2<sc1 && sc1 <sc2 +n) 
....................       for(sc1+=n,sc2+=n;0<n;--n) 
....................          *--sc1=*--sc2; 
....................    else 
....................       for(;0<n;--n) 
....................          *sc1++=*sc2++; 
....................   return s1; 
....................   } 
....................  
.................... /* Standard template: char *strcpy(char *s1, const char *s2) 
....................    copies the string s2 including the null character to s1. 
....................    This is a compiler built in to handle the different address 
....................    spaces */ 
....................  
.................... #define strcopy strcpy 
....................  
.................... /* standard template: 
....................    char *strncpy(char *s1, const char *s2, size_t n). 
....................    Copies max of n characters (not following ending '\0') 
....................    from s2 in s1; if s2 has less than n characters, appends 0 */ 
....................  
.................... char *strncpy(char *s1, char *s2, size_t n) 
.................... { 
....................   char *s; 
....................  
....................   for (s = s1; n > 0 && *s2 != '\0'; n--) 
....................      *s++ = *s2++; 
....................   for (; n > 0; n--) 
....................      *s++ = '\0'; 
....................  
....................   return(s1); 
.................... } 
.................... /***********************************************************/ 
....................  
.................... /*concatenation functions*/ 
.................... /* standard template: char *strcat(char *s1, const char *s2) 
.................... appends s2 to s1*/ 
....................  
.................... char *strcat(char *s1, char *s2) 
.................... { 
....................    char *s; 
....................  
....................    for (s = s1; *s != '\0'; ++s); 
....................    while(*s2 != '\0') 
....................    { 
....................       *s = *s2; 
....................       ++s; 
....................       ++s2; 
....................    } 
....................  
....................    *s = '\0'; 
....................    return(s1); 
.................... } 
.................... /* standard template: char *strncat(char *s1, char *s2,size_t n) 
.................... appends not more than n characters from s2 to s1*/ 
....................  
.................... char *strncat(char *s1, char *s2, size_t n) 
.................... { 
....................    char *s; 
....................  
....................    for (s = s1; *s != '\0'; ++s); 
....................    while(*s2 != '\0' && 0<n) 
....................    { 
....................       *s = *s2; 
....................       ++s; 
....................       ++s2; 
....................       --n; 
....................    } 
....................  
....................    *s = '\0'; 
....................    return(s1); 
.................... } 
....................  
.................... /***********************************************************/ 
....................  
....................  
.................... /*comparison functions*/ 
.................... /* standard template: signed int memcmp(void *s1, void *s2). 
....................    Compares s1 & s2; returns -1 if s1<s2, 0 if s1=s2, 1 if s1>s2 */ 
....................  
.................... signed int8 memcmp(void * s1,char *s2,size_t n) 
.................... { 
.................... char *su1, *su2; 
.................... for(su1=s1, su2=s2; 0<n; ++su1, ++su2, --n) 
.................... { 
....................    if(*su1!=*su2) 
....................       return ((*su1<*su2)?-1:+1); 
.................... } 
.................... return 0; 
.................... } 
....................  
.................... /* standard template: int strcmp(const char *s1, const char *s2). 
....................    Compares s1 & s2; returns -1 if s1<s2, 0 if s1=s2, 1 if s1>s2 */ 
....................  
.................... signed int8 strcmp(char *s1, char *s2) 
.................... { 
....................    for (; *s1 == *s2; s1++, s2++) 
....................       if (*s1 == '\0') 
....................          return(0); 
....................    return((*s1 < *s2) ? -1: 1); 
.................... } 
.................... /* standard template: int strcoll(const char *s1, const char *s2). 
....................    Compares s1 & s2; returns -1 if s1<s2, 0 if s1=s2, 1 if s1>s2 */ 
....................  
.................... signed int8 strcoll(char *s1, char *s2) 
.................... { 
....................    for (; *s1 == *s2; s1++, s2++) 
....................       if (*s1 == '\0') 
....................          return(0); 
....................    return((*s1 < *s2) ? -1: 1); 
.................... } 
....................  
.................... /* standard template: 
....................    int strncmp(const char *s1, const char *s2, size_t n). 
....................    Compares max of n characters (not following 0) from s1 to s2; 
....................    returns same as strcmp */ 
....................  
.................... signed int8 strncmp(char *s1, char *s2, size_t n) 
.................... { 
....................    for (; n > 0; s1++, s2++, n--) 
....................       if (*s1 != *s2) 
....................          return((*s1 <*s2) ? -1: 1); 
....................       else if (*s1 == '\0') 
....................          return(0); 
....................    return(0); 
.................... } 
.................... /* standard template: 
....................    int strxfrm(const char *s1, const char *s2, size_t n). 
....................    transforms maximum of n characters from s2 and places them into s1*/ 
.................... size_t strxfrm(char *s1, char *s2, size_t n) 
.................... { 
....................   char *s; 
....................   unsigned int8 n1; 
....................   n1=n; 
....................   for (s = s1; n > 0 && *s2 != '\0'; n--) 
....................      *s++ = *s2++; 
....................   for (; n > 0; n--) 
....................      *s++ = '\0'; 
....................  
....................   return(n1); 
.................... } 
....................  
....................  
....................  
....................  
....................  
.................... /***********************************************************/ 
.................... /*Search functions*/ 
.................... /* standard template: void *memchr(const char *s, int c). 
....................    Finds first occurrence of c in n characters of s */ 
....................  
.................... char *memchr(void *s,unsigned int8 c,size_t n) 
.................... { 
....................    char uc; 
....................    char *su; 
....................    uc=c; 
....................    for(su=s;0<n;++su,--n) 
....................       if(*su==uc) 
....................       return su; 
....................    return NULL; 
.................... } 
....................  
.................... /* standard template: char *strchr(const char *s, int c). 
....................    Finds first occurrence of c in s */ 
....................  
.................... char *strchr(char *s, unsigned int8 c) 
.................... { 
....................    for (; *s != c; s++) 
....................       if (*s == '\0') 
....................          return(0); 
....................    return(s); 
.................... } 
.................... /* standard template: 
....................    size_t strcspn(const char *s1, const char *s2). 
....................    Computes length of max initial segment of s1 that 
....................    consists entirely of characters NOT from s2*/ 
....................  
.................... unsigned int8  strcspn(char *s1, char *s2) 
.................... { 
....................    char *sc1, *sc2; 
....................  
....................    for (sc1 = s1; *sc1 != 0; sc1++) 
....................       for (sc2 = s2; *sc2 != 0; sc2++) 
....................          if (*sc1 == *sc2) 
....................             return(sc1 - s1); 
....................    return(sc1 - s1); 
.................... } 
.................... /* standard template: 
....................    char *strpbrk(const char *s1, const char *s2). 
....................    Locates first occurence of any character from s2 in s1; 
....................    returns s1 if s2 is empty string */ 
....................  
.................... char *strpbrk(char *s1, char *s2) 
.................... { 
....................    char *sc1, *sc2; 
....................  
....................    for (sc1 = s1; *sc1 != 0; sc1++) 
....................       for (sc2 = s2; *sc2 != 0; sc2++) 
....................          if (*sc1 == *sc2) 
....................             return(sc1); 
....................    return(0); 
.................... } 
....................  
....................  
.................... /* standard template: char *strrchr(const char *s, int c). 
....................    Finds last occurrence of c in s */ 
....................  
.................... char *strrchr(char *s, unsigned int8 c) 
.................... { 
....................    char *p; 
....................  
....................    for (p = 0; ; s++) 
....................    { 
....................       if (*s == c) 
....................          p = s; 
....................       if (*s == '\0') 
....................          return(p); 
....................    } 
.................... } 
.................... /* computes length of max initial segment of s1 consisting 
....................    entirely of characters from s2 */ 
....................  
.................... unsigned int8  strspn(char *s1, char *s2) 
.................... { 
....................    char *sc1, *sc2; 
....................  
....................    for (sc1 = s1; *sc1 != 0; sc1++) 
....................       for (sc2 = s2; ; sc2++) 
....................     if (*sc2 == '\0') 
....................        return(sc1 - s1); 
....................          else if (*sc1 == *sc2) 
....................             break; 
....................    return(sc1 - s1); 
.................... } 
.................... /* standard template: 
....................    char *strstr(const char *s1, const char *s2); 
....................    Locates first occurence of character sequence s2 in s1; 
....................    returns 0 if s2 is empty string 
....................  
....................    Uncomment #define FASTER_BUT_MORE_ROM at the top of the 
....................    file to use the faster algorithm */ 
.................... char *strstr(char *s1, char *s2) 
.................... { 
....................    char *s, *t; 
....................  
....................    #ifdef FASTER_BUT_MORE_ROM 
....................    if (*s2 == '\0') 
....................          return(s1); 
....................    #endif 
....................  
....................    while (*s1) 
....................    { 
....................       for(s = s1, t = s2; *t && (*s == *t); ++s, ++t); 
....................  
....................       if (*t == '\0') 
....................          return s1; 
....................       ++s1; 
....................       #ifdef FASTER_BUT_MORE_ROM 
....................          while(*s1 != '\0' && *s1 != *s2) 
....................             ++s1; 
....................       #endif 
....................    } 
....................    return 0; 
.................... } 
....................  
.................... /* standard template: char *strtok(char *s1, const char *s2). 
....................  
....................    Finds next token in s1 delimited by a character from separator 
....................    string s2 (which can be different from call to call).  First call 
....................    starts at beginning of s1 searching for first character NOT 
....................    contained in s2; returns 0 if none is found. 
....................    If one is found, it is the start of first token (return value). 
....................    Function then searches from there for a character contained in s2. 
....................    If none is found, current token extends to end of s1, and subsequent 
....................    searches for a token will return 0.  If one is found, it is 
....................    overwritten by '\0', which terminates current token.  Function saves 
....................    pointer to following character from which next search will start. 
....................    Each subsequent call, with 0 as first argument, starts searching 
....................    from saved pointer */ 
....................  
.................... char *strtok(char *s1, char *s2) 
.................... { 
....................    char *beg, *end; 
....................    static char *save; 
....................  
....................    beg = (s1)? s1: save; 
....................    beg += strspn(beg, s2); 
....................    if (*beg == '\0') 
....................    { 
....................       *save = ' '; 
....................       return(0); 
....................    } 
....................    end = strpbrk(beg, s2); 
....................    if (*end != '\0') 
....................    { 
....................       *end = '\0'; 
....................       end++; 
....................    } 
....................    save = end; 
....................    return(beg); 
.................... } 
....................  
.................... /*****************************************************************/ 
.................... /*Miscellaneous functions*/ 
.................... /* standard template 
.................... maps error number in errnum to an error message string 
.................... Returns: Pointer to string 
.................... */ 
.................... #ifdef _ERRNO 
.................... char * strerror(unsigned int8 errnum) 
.................... { 
.................... char s[15]; 
.................... switch( errnum) 
.................... { 
.................... case 0: 
....................    strcpy(s,"no errors"); 
....................    return s; 
.................... case EDOM : 
....................    strcpy(s,"domain error"); 
....................    return s; 
.................... case ERANGE: 
....................    strcpy(s,"range error"); 
....................    return s; 
.................... } 
.................... } 
.................... #ENDIF 
.................... /* standard template: size_t strlen(const char *s). 
....................    Computes length of s1 (preceding terminating 0) */ 
....................  
.................... unsigned int8 strlen(char *s) 
.................... { 
....................    char *sc; 
....................  
....................    for (sc = s; *sc != 0; sc++); 
....................    return(sc - s); 
.................... } 
....................  
.................... /* standard template: size_t stricmp(const char *s1, const char *s2). 
....................    Compares s1 to s2 ignoring case (upper vs. lower) */ 
....................  
.................... signed int8 stricmp(char *s1, char *s2) 
.................... { 
....................  for(; *s1==*s2||(isalpha(*s1)&&isalpha(*s2)&&(*s1==*s2+32||*s2==*s1+32)); 
....................     s1++, s2++) 
....................     if (*s1 == '\0') 
....................        return(0); 
....................  return((*s1 < *s2) ? -1: 1); 
.................... } 
....................  
....................  
.................... /* standard template: char *strlwr(char *s). 
....................    Replaces uppercase letters by lowercase; 
....................    returns pointer to new string s */ 
....................  
.................... char *strlwr(char *s) 
.................... { 
....................    char *p; 
....................  
....................    for (p = s; *p != '\0'; p++) 
....................       if (*p >= 'A' && *p <='Z') 
....................          *p += 'a' - 'A'; 
....................    return(s); 
.................... } 
....................  
....................  
.................... /************************************************************/ 
....................  
....................  
.................... #endif 
....................  
.................... #include <stdlib.h> 
.................... /////////////////////////////////////////////////////////////////////////// 
.................... ////        (C) Copyright 1996,2007 Custom Computer Services           //// 
.................... //// This source code may only be used by licensed users of the CCS C  //// 
.................... //// compiler.  This source code may only be distributed to other      //// 
.................... //// licensed users of the CCS C compiler.  No other use, reproduction //// 
.................... //// or distribution is permitted without written permission.          //// 
.................... //// Derivative programs created using this software in object code    //// 
.................... //// form are not restricted in any way.                               //// 
.................... /////////////////////////////////////////////////////////////////////////// 
....................  
.................... #ifndef _STDLIB 
.................... #define _STDLIB 
....................  
.................... //--------------------------------------------------------------------------- 
.................... // Definitions and types 
.................... //--------------------------------------------------------------------------- 
....................  
.................... #ifndef RAND_MAX 
.................... #define RAND_MAX  32767    // The value of which is the maximum value 
....................                            // ... returned by the rand function 
.................... #endif 
....................  
....................  
.................... #IF (sizeof(int16*)>1) 
.................... #DEFINE LONG_POINTERS 1 
.................... #ELSE  
.................... #DEFINE LONG_POINTERS 0 
.................... #ENDIF 
....................  
.................... typedef struct { 
....................    signed int quot; 
....................    signed int rem; 
.................... } div_t; 
....................  
.................... typedef struct { 
....................    signed long quot; 
....................    signed long rem; 
.................... } ldiv_t; 
....................  
.................... #include <stddef.h> 
.................... /////////////////////////////////////////////////////////////////////////// 
.................... ////        (C) Copyright 1996,2003 Custom Computer Services           //// 
.................... //// This source code may only be used by licensed users of the CCS C  //// 
.................... //// compiler.  This source code may only be distributed to other      //// 
.................... //// licensed users of the CCS C compiler.  No other use, reproduction //// 
.................... //// or distribution is permitted without written permission.          //// 
.................... //// Derivative programs created using this software in object code    //// 
.................... //// form are not restricted in any way.                               //// 
.................... /////////////////////////////////////////////////////////////////////////// 
....................  
.................... #ifndef _STDDEF 
....................  
.................... #define _STDDEF 
....................  
.................... #if sizeof(unsigned int8 *)==1 
.................... #define ptrdiff_t unsigned int8 
.................... #else 
.................... #define ptrdiff_t unsigned int16 
.................... #endif 
....................  
.................... #define size_t unsigned int8 
.................... #define wchar_t char 
.................... #define NULL 0 
....................  
.................... #define offsetof(s,f) (offsetofbit(s,f)/8) 
....................  
.................... #endif 
....................  
....................  
.................... //--------------------------------------------------------------------------- 
.................... // String conversion functions 
.................... //--------------------------------------------------------------------------- 
....................  
.................... /* Standard template: signed int  atoi(char * s) 
....................  * converts the initial portion of the string s to a signed int 
....................  * returns the converted value if any, 0 otherwise 
....................  */ 
.................... signed int atoi(char *s); 
....................  
.................... /* Syntax: signed int32  atoi32(char * s) 
....................    converts the initial portion of the string s to a signed int32 
....................    returns the converted value if any, 0 otherwise*/ 
.................... #if (sizeof(long)==4) 
....................  #define atoi32(s) atol(s) 
.................... #else  
....................  signed int32 atoi32(char *s); 
.................... #endif 
....................  
.................... #if defined(__PCD__) 
.................... // The following functions only work on the 24 bit compiler 
.................... // for the 30F, 33F, 24F and 24H parts 
.................... /* Syntax: signed int48  atoi48(char * s) 
....................    converts the initial portion of the string s to a signed int48 
....................    returns the converted value if any, 0 otherwise*/ 
....................     
.................... signed int48 atoi48(char *s); 
....................  
.................... /* Syntax: signed int64  atoi64(char * s) 
....................    converts the initial portion of the string s to a signed int64 
....................    returns the converted value if any, 0 otherwise*/ 
.................... signed int64 atoi64(char *s); 
.................... #endif 
....................  
.................... /* Syntax: char *  itoa(signed int32 num, int8 base, char * s) 
....................    converts the signed int32 to a string and 
....................    returns the converted value if any, 0 otherwise*/ 
.................... char * itoa(signed int32 num, unsigned int base, char * s); 
....................  
.................... /* Standard template: signed int16  atol(char * s) 
....................  * converts the initial portion of the string s to a signed int16 
....................  * returns the converted value if any, 0 otherwise 
....................  */ 
.................... signed long atol(char *s); 
....................  
.................... /* Standard template: int16 strtoul(char * s,char *endptr,signed int base) 
....................  * converts the initial portion of the string s, represented as an 
....................  * integral value of radix base  to a signed long. 
....................  * Returns the converted value if any, 0 otherwise 
....................  * the final string is returned in the endptr, if endptr is not null 
....................  */ 
.................... signed long strtol(char *s,char *endptr, signed int base); 
....................  
.................... /* Standard template: int16 strtoul(char * s,char *endptr,signed int base) 
....................  * converts the initial portion of the string s, represented as an 
....................  * integral value of radix base to a unsigned long. 
....................  * returns the converted value if any, 0 otherwise 
....................  * the final string is returned in the endptr, if endptr is not null 
....................  */ 
.................... unsigned long strtoul(char *s,char *endptr, signed int base); 
....................  
.................... /* Standart template: float strtof(char * s,char *endptr) 
....................                       float48 strtof48(char *s,char *endptr); 
....................                       float64 strtod(char *s,char *endptr); 
....................  * converts the initial portion of the string s to a float32, float48 or float64, 
....................  * returns the converted value if any, 0 otherwise 
....................  * the final string is returned in the endptr, if endptr is not null                    
.................... */ 
.................... float strtof(char *s,char *endptr); 
.................... #if defined(__PCD__) 
.................... float48 strtof48(char *s,char *endptr); 
.................... float64 strtod(char *s,char *endptr); 
.................... #else 
.................... //provided for compatibility 
.................... #define strtof48(s, e) strtof(s, e) 
.................... #define strtod(s, e) strtof(s, e) 
.................... #endif 
....................  
.................... /* Standard template: float32 atof(char * s) 
....................  * converts the initial portion of the string s to a float. 
....................  * returns the converted value if any, 0 otherwise 
....................  */ 
.................... #define atof(s)   strtof(s, 0) 
....................  
.................... #if defined(__PCD__) 
.................... // The following functions only work on the 24 bit compiler 
.................... // for the 30F, 33F, 24F and 24H parts 
....................  
.................... /* Standard template: float48 atof48(char * s) 
....................  * converts the initial portion of the string s to a float. 
....................  * returns the converted value if any, 0 otherwise 
....................  */ 
.................... #define atof48(s) strtof48(s, 0) 
....................  
.................... /* Standard template: float64 atof64(char * s) 
....................  * converts the initial portion of the string s to a float. 
....................  * returns the converted value if any, 0 otherwise 
....................  */ 
.................... #define atof64(s) strtod(s, 0) 
.................... #endif 
....................  
.................... /* Standard template: float32 atoe(char * s) 
....................  * converts the initial portion of the string s to a float. 
....................  * returns the converted value if any, 0 otherwise 
....................  * also handles E format numbers 
....................  */ 
.................... #if !defined(__PCD__) 
.................... float atoe(char * s); 
.................... #endif 
....................  
.................... #if defined(__PCD__) 
.................... float32 atoe(char * s); 
.................... #endif 
....................  
.................... //--------------------------------------------------------------------------- 
.................... // Pseudo-random sequence generation functions 
.................... //--------------------------------------------------------------------------- 
....................  
.................... /* The rand function computes a sequence of pseudo-random integers in 
....................  * the range 0 to RAND_MAX 
....................  * 
....................  * Parameters: 
....................  *       (none) 
....................  * 
....................  * Returns: 
....................  *       The pseudo-random integer 
....................  */ 
.................... unsigned int16 rand(void); 
....................  
.................... /* The srand function uses the argument as a seed for a new sequence of 
....................  * pseudo-random numbers to be returned by subsequent calls to rand. 
....................  * 
....................  * Parameters: 
....................  *       [in] seed: The seed value to start from. You might need to pass 
....................  * 
....................  * Returns: 
....................  *       (none) 
....................  * 
....................  * Remarks 
....................  *          The srand function sets the starting point for generating 
....................  *       a series of pseudorandom integers. To reinitialize the 
....................  *       generator, use 1 as the seed argument. Any other value for 
....................  *       seed sets the generator to a random starting point. rand 
....................  *       retrieves the pseudorandom numbers that are generated. 
....................  *       Calling rand before any call to srand generates the same 
....................  *       sequence as calling srand with seed passed as 1. 
....................  *          Usually, you need to pass a time here from outer source 
....................  *       so that the numbers will be different every time you run. 
....................  */ 
.................... void srand(unsigned int32 seed); 
....................  
.................... //--------------------------------------------------------------------------- 
.................... // Memory management functions 
.................... //--------------------------------------------------------------------------- 
....................  
.................... // Comming soon 
....................  
.................... //--------------------------------------------------------------------------- 
.................... // Communication with the environment 
.................... //--------------------------------------------------------------------------- 
....................  
.................... /* The function returns 0 always 
....................  */ 
.................... signed int8 system(char *string); 
....................  
.................... //--------------------------------------------------------------------------- 
.................... // Searching and sorting utilities 
.................... //--------------------------------------------------------------------------- 
....................  
.................... /* Performs a binary search of a sorted array.. 
....................  * 
....................  * Parameters: 
....................  *       [in] key: Object to search for 
....................  *       [in] base: Pointer to base of search data 
....................  *       [in] num: Number of elements 
....................  *       [in] width: Width of elements 
....................  *       [in] compare: Function that compares two elements 
....................  * 
....................  * Returns: 
....................  *       bsearch returns a pointer to an occurrence of key in the array pointed 
....................  *       to by base. If key is not found, the function returns NULL. If the 
....................  *       array is not in order or contains duplicate records with identical keys, 
....................  *       the result is unpredictable. 
....................  */ 
.................... //void *bsearch(const void *key, const void *base, size_t num, size_t width, 
.................... //              int (*compare)(const void *, const void *)); 
....................  
.................... /* Performs the shell-metzner sort (not the quick sort algorithm). The contents 
....................  * of the array are sorted into ascending order according to a comparison 
....................  * function pointed to by compar. 
....................  * 
....................  * Parameters: 
....................  *       [in] base: Pointer to base of search data 
....................  *       [in] num: Number of elements 
....................  *       [in] width: Width of elements 
....................  *       [in] compare: Function that compares two elements 
....................  * 
....................  * Returns: 
....................  *       (none) 
....................  */ 
.................... //void *qsort(const void *base, size_t num, size_t width, 
.................... //              int (*compare)(const void *, const void *)); 
....................  
.................... //--------------------------------------------------------------------------- 
.................... // Integer arithmetic functions 
.................... //--------------------------------------------------------------------------- 
....................  
.................... #define labs abs 
....................  
.................... div_t div(signed int numer, signed int denom); 
.................... ldiv_t ldiv(signed long numer, signed long denom); 
....................  
.................... //--------------------------------------------------------------------------- 
.................... // Multibyte character functions 
.................... //--------------------------------------------------------------------------- 
....................  
.................... // Not supported 
....................  
.................... //--------------------------------------------------------------------------- 
.................... // Multibyte string functions 
.................... //--------------------------------------------------------------------------- 
....................  
.................... // Not supported 
....................  
....................  
.................... //--------------------------------------------------------------------------- 
.................... // Internal implementation 
.................... //--------------------------------------------------------------------------- 
....................  
.................... #include <stddef.h> 
.................... /////////////////////////////////////////////////////////////////////////// 
.................... ////        (C) Copyright 1996,2003 Custom Computer Services           //// 
.................... //// This source code may only be used by licensed users of the CCS C  //// 
.................... //// compiler.  This source code may only be distributed to other      //// 
.................... //// licensed users of the CCS C compiler.  No other use, reproduction //// 
.................... //// or distribution is permitted without written permission.          //// 
.................... //// Derivative programs created using this software in object code    //// 
.................... //// form are not restricted in any way.                               //// 
.................... /////////////////////////////////////////////////////////////////////////// 
....................  
.................... #ifndef _STDDEF 
....................  
.................... #define _STDDEF 
....................  
.................... #if sizeof(unsigned int8 *)==1 
.................... #define ptrdiff_t unsigned int8 
.................... #else 
.................... #define ptrdiff_t unsigned int16 
.................... #endif 
....................  
.................... #define size_t unsigned int8 
.................... #define wchar_t char 
.................... #define NULL 0 
....................  
.................... #define offsetof(s,f) (offsetofbit(s,f)/8) 
....................  
.................... #endif 
....................  
.................... #include <string.h> 
.................... //////////////////////////////////////////////////////////////////////////// 
.................... ////        (C) Copyright 1996,2008 Custom Computer Services            //// 
.................... //// This source code may only be used by licensed users of the CCS C   //// 
.................... //// compiler.  This source code may only be distributed to other       //// 
.................... //// licensed users of the CCS C compiler.  No other use, reproduction  //// 
.................... //// or distribution is permitted without written permission.           //// 
.................... //// Derivative programs created using this software in object code     //// 
.................... //// form are not restricted in any way.                                //// 
.................... //////////////////////////////////////////////////////////////////////////// 
....................  
.................... #ifndef _STRING 
.................... #define _STRING 
.................... #include <stddef.h> 
.................... #include <ctype.h> 
....................  
....................  
....................  
.................... ////////////////////////////////////////////// 
.................... //// Uncomment the following define to    //// 
.................... //// allow some functions to use a        //// 
.................... //// quicker algorithm, but use more ROM  //// 
.................... ////                                      //// 
.................... //// #define FASTER_BUT_MORE_ROM          //// 
.................... ////////////////////////////////////////////// 
....................  
....................  
....................  
.................... /*Copying functions*/ 
.................... /* standard template: 
....................    void *memmove(void *s1, void *s2, size_t n). 
....................    Copies max of n characters safely (not following ending '\0') 
....................    from s2 in s1; if s2 has less than n characters, appends 0 */ 
....................  
.................... char *memmove(void *s1,char *s2,size_t n) 
.................... { 
....................    char *sc1; 
....................    char *sc2; 
....................    sc1=s1; 
....................    sc2=s2; 
....................    if(sc2<sc1 && sc1 <sc2 +n) 
....................       for(sc1+=n,sc2+=n;0<n;--n) 
....................          *--sc1=*--sc2; 
....................    else 
....................       for(;0<n;--n) 
....................          *sc1++=*sc2++; 
....................   return s1; 
....................   } 
....................  
.................... /* Standard template: char *strcpy(char *s1, const char *s2) 
....................    copies the string s2 including the null character to s1. 
....................    This is a compiler built in to handle the different address 
....................    spaces */ 
....................  
.................... #define strcopy strcpy 
....................  
.................... /* standard template: 
....................    char *strncpy(char *s1, const char *s2, size_t n). 
....................    Copies max of n characters (not following ending '\0') 
....................    from s2 in s1; if s2 has less than n characters, appends 0 */ 
....................  
.................... char *strncpy(char *s1, char *s2, size_t n) 
.................... { 
....................   char *s; 
....................  
....................   for (s = s1; n > 0 && *s2 != '\0'; n--) 
....................      *s++ = *s2++; 
....................   for (; n > 0; n--) 
....................      *s++ = '\0'; 
....................  
....................   return(s1); 
.................... } 
.................... /***********************************************************/ 
....................  
.................... /*concatenation functions*/ 
.................... /* standard template: char *strcat(char *s1, const char *s2) 
.................... appends s2 to s1*/ 
....................  
.................... char *strcat(char *s1, char *s2) 
.................... { 
....................    char *s; 
....................  
....................    for (s = s1; *s != '\0'; ++s); 
....................    while(*s2 != '\0') 
....................    { 
....................       *s = *s2; 
....................       ++s; 
....................       ++s2; 
....................    } 
....................  
....................    *s = '\0'; 
....................    return(s1); 
.................... } 
.................... /* standard template: char *strncat(char *s1, char *s2,size_t n) 
.................... appends not more than n characters from s2 to s1*/ 
....................  
.................... char *strncat(char *s1, char *s2, size_t n) 
.................... { 
....................    char *s; 
....................  
....................    for (s = s1; *s != '\0'; ++s); 
....................    while(*s2 != '\0' && 0<n) 
....................    { 
....................       *s = *s2; 
....................       ++s; 
....................       ++s2; 
....................       --n; 
....................    } 
....................  
....................    *s = '\0'; 
....................    return(s1); 
.................... } 
....................  
.................... /***********************************************************/ 
....................  
....................  
.................... /*comparison functions*/ 
.................... /* standard template: signed int memcmp(void *s1, void *s2). 
....................    Compares s1 & s2; returns -1 if s1<s2, 0 if s1=s2, 1 if s1>s2 */ 
....................  
.................... signed int8 memcmp(void * s1,char *s2,size_t n) 
.................... { 
.................... char *su1, *su2; 
.................... for(su1=s1, su2=s2; 0<n; ++su1, ++su2, --n) 
.................... { 
....................    if(*su1!=*su2) 
....................       return ((*su1<*su2)?-1:+1); 
.................... } 
.................... return 0; 
.................... } 
....................  
.................... /* standard template: int strcmp(const char *s1, const char *s2). 
....................    Compares s1 & s2; returns -1 if s1<s2, 0 if s1=s2, 1 if s1>s2 */ 
....................  
.................... signed int8 strcmp(char *s1, char *s2) 
.................... { 
....................    for (; *s1 == *s2; s1++, s2++) 
....................       if (*s1 == '\0') 
....................          return(0); 
....................    return((*s1 < *s2) ? -1: 1); 
.................... } 
.................... /* standard template: int strcoll(const char *s1, const char *s2). 
....................    Compares s1 & s2; returns -1 if s1<s2, 0 if s1=s2, 1 if s1>s2 */ 
....................  
.................... signed int8 strcoll(char *s1, char *s2) 
.................... { 
....................    for (; *s1 == *s2; s1++, s2++) 
....................       if (*s1 == '\0') 
....................          return(0); 
....................    return((*s1 < *s2) ? -1: 1); 
.................... } 
....................  
.................... /* standard template: 
....................    int strncmp(const char *s1, const char *s2, size_t n). 
....................    Compares max of n characters (not following 0) from s1 to s2; 
....................    returns same as strcmp */ 
....................  
.................... signed int8 strncmp(char *s1, char *s2, size_t n) 
.................... { 
....................    for (; n > 0; s1++, s2++, n--) 
....................       if (*s1 != *s2) 
....................          return((*s1 <*s2) ? -1: 1); 
....................       else if (*s1 == '\0') 
....................          return(0); 
....................    return(0); 
.................... } 
.................... /* standard template: 
....................    int strxfrm(const char *s1, const char *s2, size_t n). 
....................    transforms maximum of n characters from s2 and places them into s1*/ 
.................... size_t strxfrm(char *s1, char *s2, size_t n) 
.................... { 
....................   char *s; 
....................   unsigned int8 n1; 
....................   n1=n; 
....................   for (s = s1; n > 0 && *s2 != '\0'; n--) 
....................      *s++ = *s2++; 
....................   for (; n > 0; n--) 
....................      *s++ = '\0'; 
....................  
....................   return(n1); 
.................... } 
....................  
....................  
....................  
....................  
....................  
.................... /***********************************************************/ 
.................... /*Search functions*/ 
.................... /* standard template: void *memchr(const char *s, int c). 
....................    Finds first occurrence of c in n characters of s */ 
....................  
.................... char *memchr(void *s,unsigned int8 c,size_t n) 
.................... { 
....................    char uc; 
....................    char *su; 
....................    uc=c; 
....................    for(su=s;0<n;++su,--n) 
....................       if(*su==uc) 
....................       return su; 
....................    return NULL; 
.................... } 
....................  
.................... /* standard template: char *strchr(const char *s, int c). 
....................    Finds first occurrence of c in s */ 
....................  
.................... char *strchr(char *s, unsigned int8 c) 
.................... { 
....................    for (; *s != c; s++) 
....................       if (*s == '\0') 
....................          return(0); 
....................    return(s); 
.................... } 
.................... /* standard template: 
....................    size_t strcspn(const char *s1, const char *s2). 
....................    Computes length of max initial segment of s1 that 
....................    consists entirely of characters NOT from s2*/ 
....................  
.................... unsigned int8  strcspn(char *s1, char *s2) 
.................... { 
....................    char *sc1, *sc2; 
....................  
....................    for (sc1 = s1; *sc1 != 0; sc1++) 
....................       for (sc2 = s2; *sc2 != 0; sc2++) 
....................          if (*sc1 == *sc2) 
....................             return(sc1 - s1); 
....................    return(sc1 - s1); 
.................... } 
.................... /* standard template: 
....................    char *strpbrk(const char *s1, const char *s2). 
....................    Locates first occurence of any character from s2 in s1; 
....................    returns s1 if s2 is empty string */ 
....................  
.................... char *strpbrk(char *s1, char *s2) 
.................... { 
....................    char *sc1, *sc2; 
....................  
....................    for (sc1 = s1; *sc1 != 0; sc1++) 
....................       for (sc2 = s2; *sc2 != 0; sc2++) 
....................          if (*sc1 == *sc2) 
....................             return(sc1); 
....................    return(0); 
.................... } 
....................  
....................  
.................... /* standard template: char *strrchr(const char *s, int c). 
....................    Finds last occurrence of c in s */ 
....................  
.................... char *strrchr(char *s, unsigned int8 c) 
.................... { 
....................    char *p; 
....................  
....................    for (p = 0; ; s++) 
....................    { 
....................       if (*s == c) 
....................          p = s; 
....................       if (*s == '\0') 
....................          return(p); 
....................    } 
.................... } 
.................... /* computes length of max initial segment of s1 consisting 
....................    entirely of characters from s2 */ 
....................  
.................... unsigned int8  strspn(char *s1, char *s2) 
.................... { 
....................    char *sc1, *sc2; 
....................  
....................    for (sc1 = s1; *sc1 != 0; sc1++) 
....................       for (sc2 = s2; ; sc2++) 
....................     if (*sc2 == '\0') 
....................        return(sc1 - s1); 
....................          else if (*sc1 == *sc2) 
....................             break; 
....................    return(sc1 - s1); 
.................... } 
.................... /* standard template: 
....................    char *strstr(const char *s1, const char *s2); 
....................    Locates first occurence of character sequence s2 in s1; 
....................    returns 0 if s2 is empty string 
....................  
....................    Uncomment #define FASTER_BUT_MORE_ROM at the top of the 
....................    file to use the faster algorithm */ 
.................... char *strstr(char *s1, char *s2) 
.................... { 
....................    char *s, *t; 
....................  
....................    #ifdef FASTER_BUT_MORE_ROM 
....................    if (*s2 == '\0') 
....................          return(s1); 
....................    #endif 
....................  
....................    while (*s1) 
....................    { 
....................       for(s = s1, t = s2; *t && (*s == *t); ++s, ++t); 
....................  
....................       if (*t == '\0') 
....................          return s1; 
....................       ++s1; 
....................       #ifdef FASTER_BUT_MORE_ROM 
....................          while(*s1 != '\0' && *s1 != *s2) 
....................             ++s1; 
....................       #endif 
....................    } 
....................    return 0; 
.................... } 
....................  
.................... /* standard template: char *strtok(char *s1, const char *s2). 
....................  
....................    Finds next token in s1 delimited by a character from separator 
....................    string s2 (which can be different from call to call).  First call 
....................    starts at beginning of s1 searching for first character NOT 
....................    contained in s2; returns 0 if none is found. 
....................    If one is found, it is the start of first token (return value). 
....................    Function then searches from there for a character contained in s2. 
....................    If none is found, current token extends to end of s1, and subsequent 
....................    searches for a token will return 0.  If one is found, it is 
....................    overwritten by '\0', which terminates current token.  Function saves 
....................    pointer to following character from which next search will start. 
....................    Each subsequent call, with 0 as first argument, starts searching 
....................    from saved pointer */ 
....................  
.................... char *strtok(char *s1, char *s2) 
.................... { 
....................    char *beg, *end; 
....................    static char *save; 
....................  
....................    beg = (s1)? s1: save; 
....................    beg += strspn(beg, s2); 
....................    if (*beg == '\0') 
....................    { 
....................       *save = ' '; 
....................       return(0); 
....................    } 
....................    end = strpbrk(beg, s2); 
....................    if (*end != '\0') 
....................    { 
....................       *end = '\0'; 
....................       end++; 
....................    } 
....................    save = end; 
....................    return(beg); 
.................... } 
....................  
.................... /*****************************************************************/ 
.................... /*Miscellaneous functions*/ 
.................... /* standard template 
.................... maps error number in errnum to an error message string 
.................... Returns: Pointer to string 
.................... */ 
.................... #ifdef _ERRNO 
.................... char * strerror(unsigned int8 errnum) 
.................... { 
.................... char s[15]; 
.................... switch( errnum) 
.................... { 
.................... case 0: 
....................    strcpy(s,"no errors"); 
....................    return s; 
.................... case EDOM : 
....................    strcpy(s,"domain error"); 
....................    return s; 
.................... case ERANGE: 
....................    strcpy(s,"range error"); 
....................    return s; 
.................... } 
.................... } 
.................... #ENDIF 
.................... /* standard template: size_t strlen(const char *s). 
....................    Computes length of s1 (preceding terminating 0) */ 
....................  
.................... unsigned int8 strlen(char *s) 
.................... { 
....................    char *sc; 
....................  
....................    for (sc = s; *sc != 0; sc++); 
....................    return(sc - s); 
.................... } 
....................  
.................... /* standard template: size_t stricmp(const char *s1, const char *s2). 
....................    Compares s1 to s2 ignoring case (upper vs. lower) */ 
....................  
.................... signed int8 stricmp(char *s1, char *s2) 
.................... { 
....................  for(; *s1==*s2||(isalpha(*s1)&&isalpha(*s2)&&(*s1==*s2+32||*s2==*s1+32)); 
....................     s1++, s2++) 
....................     if (*s1 == '\0') 
....................        return(0); 
....................  return((*s1 < *s2) ? -1: 1); 
.................... } 
....................  
....................  
.................... /* standard template: char *strlwr(char *s). 
....................    Replaces uppercase letters by lowercase; 
....................    returns pointer to new string s */ 
....................  
.................... char *strlwr(char *s) 
.................... { 
....................    char *p; 
....................  
....................    for (p = s; *p != '\0'; p++) 
....................       if (*p >= 'A' && *p <='Z') 
....................          *p += 'a' - 'A'; 
....................    return(s); 
.................... } 
....................  
....................  
.................... /************************************************************/ 
....................  
....................  
.................... #endif 
....................  
....................  
.................... div_t div(signed int numer, signed int denom) 
.................... { 
....................    div_t val; 
....................    val.quot = numer / denom; 
....................    val.rem = numer - (denom * val.quot); 
....................    return (val); 
.................... } 
....................  
.................... ldiv_t ldiv(signed long numer, signed long denom) 
.................... { 
....................    ldiv_t val; 
....................  
....................    val.quot = numer / denom; 
....................    val.rem = numer - (denom * val.quot); 
....................    return (val); 
.................... } 
....................  
.................... #if defined(__PCD__) 
.................... float32 atoe(char * s) 
.................... { 
....................    float32 pow10 = 1.0; 
....................    float32 result = 0.0; 
....................    unsigned int8 sign = 0; 
....................    unsigned int8 expsign = 0; 
....................    char c; 
....................    unsigned int8 ptr = 0; 
....................    unsigned int8 i; 
....................    float32 exp = 1.0; 
....................    unsigned int8 expcnt = 0; 
....................  
....................    c = s[ptr++]; 
....................  
....................    if ((c>='0' && c<='9') || c=='+' || c=='-' || c=='.' || c=='E' || c=='e') { 
....................       if(c == '-') { 
....................          sign = 1; 
....................          c = s[ptr++]; 
....................       } 
....................       if(c == '+') 
....................          c = s[ptr++]; 
....................  
....................       while((c >= '0' && c <= '9')) { 
....................          result = 10*result + c - '0'; 
....................          c = s[ptr++]; 
....................       } 
....................  
....................       if (c == '.') { 
....................          c = s[ptr++]; 
....................          while((c >= '0' && c <= '9')) { 
....................              pow10 = pow10*10; 
....................              result += (c - '0')/pow10; 
....................              c = s[ptr++]; 
....................          } 
....................       } 
....................  
....................       // Handling the exponent 
....................       if (c=='e' || c=='E') { 
....................          c = s[ptr++]; 
....................  
....................          if(c == '-') { 
....................             expsign = 1; 
....................             c = s[ptr++]; 
....................          } 
....................          if(c == '+') 
....................             c = s[ptr++]; 
....................  
....................          while((c >= '0' && c <= '9')) { 
....................             expcnt = 10*expcnt + c - '0'; 
....................             c = s[ptr++]; 
....................          } 
....................  
....................          for(i=0;i<expcnt;i++) 
....................             exp*=10; 
....................  
....................          if(expsign==1) 
....................             result/=exp; 
....................          else 
....................             result*=exp; 
....................       } 
....................    } 
....................  
....................    if (sign == 1) 
....................       result = -1*result; 
....................    return(result); 
.................... } 
.................... #endif 
....................  
.................... #if !defined(__PCD__) 
.................... float atoe(char * s) 
.................... { 
....................    float pow10 = 1.0; 
....................    float result = 0.0; 
....................    unsigned int8 sign = 0; 
....................    unsigned int8 expsign = 0; 
....................    char c; 
....................    unsigned int8 ptr = 0; 
....................    unsigned int8 i; 
....................    float exp = 1.0; 
....................    unsigned int8 expcnt = 0; 
....................  
....................    c = s[ptr++]; 
....................  
....................    if ((c>='0' && c<='9') || c=='+' || c=='-' || c=='.' || c=='E' || c=='e') { 
....................       if(c == '-') { 
....................          sign = 1; 
....................          c = s[ptr++]; 
....................       } 
....................       if(c == '+') 
....................          c = s[ptr++]; 
....................  
....................       while((c >= '0' && c <= '9')) { 
....................          result = 10*result + c - '0'; 
....................          c = s[ptr++]; 
....................       } 
....................  
....................       if (c == '.') { 
....................          c = s[ptr++]; 
....................          while((c >= '0' && c <= '9')) { 
....................              pow10 = pow10*10; 
....................              result += (c - '0')/pow10; 
....................              c = s[ptr++]; 
....................          } 
....................       } 
....................  
....................       // Handling the exponent 
....................       if (c=='e' || c=='E') { 
....................          c = s[ptr++]; 
....................  
....................          if(c == '-') { 
....................             expsign = 1; 
....................             c = s[ptr++]; 
....................          } 
....................          if(c == '+') 
....................             c = s[ptr++]; 
....................  
....................          while((c >= '0' && c <= '9')) { 
....................             expcnt = 10*expcnt + c - '0'; 
....................             c = s[ptr++]; 
....................          } 
....................  
....................          for(i=0;i<expcnt;i++) 
....................             exp*=10; 
....................  
....................          if(expsign==1) 
....................             result/=exp; 
....................          else 
....................             result*=exp; 
....................       } 
....................    } 
....................  
....................    if (sign == 1) 
....................       result = -1*result; 
....................    return(result); 
.................... } 
.................... #endif 
....................  
.................... signed int atoi(char *s) 
.................... { 
....................    signed int result; 
....................    unsigned int sign, base, index; 
....................    char c; 
....................  
....................    index = 0; 
....................    sign = 0; 
....................    base = 10; 
....................    result = 0; 
....................  
....................    if (!s) 
....................       return 0; 
....................    // Omit all preceeding alpha characters 
....................    c = s[index++]; 
....................  
....................    // increase index if either positive or negative sign is detected 
....................    if (c == '-') 
....................    { 
....................       sign = 1;         // Set the sign to negative 
....................       c = s[index++]; 
....................    } 
....................    else if (c == '+') 
....................    { 
....................       c = s[index++]; 
....................    } 
....................  
....................    if (c >= '0' && c <= '9') 
....................    { 
....................  
....................       // Check for hexa number 
....................       if (c == '0' && (s[index] == 'x' || s[index] == 'X')) 
....................       { 
....................          base = 16; 
....................          index++; 
....................          c = s[index++]; 
....................       } 
....................  
....................       // The number is a decimal number 
....................       if (base == 10) 
....................       { 
....................          while (c >= '0' && c <= '9') 
....................          { 
....................             result = 10*result + (c - '0'); 
....................             c = s[index++]; 
....................          } 
....................       } 
....................       else if (base == 16)    // The number is a hexa number 
....................       { 
....................          c = toupper(c); 
....................          while ( (c >= '0' && c <= '9') || (c >= 'A' && c<='F')) 
....................          { 
....................             if (c >= '0' && c <= '9') 
....................                result = (result << 4) + (c - '0'); 
....................             else 
....................                result = (result << 4) + (c - 'A' + 10); 
....................  
....................             c = s[index++]; 
....................             c = toupper(c); 
....................          } 
....................       } 
....................    } 
....................  
....................    if (sign == 1 && base == 10) 
....................        result = -result; 
....................  
....................    return(result); 
.................... } 
....................  
.................... signed long atol(char *s) 
.................... { 
....................    signed long result; 
....................    unsigned int sign, base, index; 
....................    char c; 
....................  
....................    index = 0; 
....................    sign = 0; 
....................    base = 10; 
....................    result = 0; 
....................  
....................    if (!s) 
....................       return 0; 
....................    c = s[index++]; 
....................  
....................    // increase index if either positive or negative sign is detected 
....................    if (c == '-') 
....................    { 
....................       sign = 1;         // Set the sign to negative 
....................       c = s[index++]; 
....................    } 
....................    else if (c == '+') 
....................    { 
....................       c = s[index++]; 
....................    } 
....................  
....................    if (c >= '0' && c <= '9') 
....................    { 
....................       if (c == '0' && (s[index] == 'x' || s[index] == 'X')) 
....................       { 
....................          base = 16; 
....................          index++; 
....................          c = s[index++]; 
....................       } 
....................  
....................       // The number is a decimal number 
....................       if (base == 10) 
....................       { 
....................          while (c >= '0' && c <= '9') 
....................          { 
....................             result = 10*result + (c - '0'); 
....................             c = s[index++]; 
....................          } 
....................       } 
....................       else if (base == 16)    // The number is a hexa number 
....................       { 
....................          c = toupper(c); 
....................          while ( (c >= '0' && c <= '9') || (c >= 'A' && c <='F')) 
....................          { 
....................             if (c >= '0' && c <= '9') 
....................                result = (result << 4) + (c - '0'); 
....................             else 
....................                result = (result << 4) + (c - 'A' + 10); 
....................  
....................             c = s[index++];c = toupper(c); 
....................          } 
....................       } 
....................    } 
....................  
....................    if (base == 10 && sign == 1) 
....................       result = -result; 
....................  
....................    return(result); 
.................... } 
....................  
.................... /* A fast routine to multiply by 10 
....................  */ 
.................... signed int32 mult_with10(int32 num) 
.................... { 
....................    return ( (num << 1) + (num << 3) ); 
.................... } 
....................  
.................... #if sizeof(long)==2 
.................... signed int32 atoi32(char *s) 
.................... { 
....................    signed int32 result; 
....................    int8 sign, base, index; 
....................    char c; 
....................  
....................    index = 0; 
....................    sign = 0; 
....................    base = 10; 
....................    result = 0; 
....................  
....................    if (!s) 
....................       return 0; 
....................    c = s[index++]; 
....................  
....................    // increase index if either positive or negative sign is detected 
....................    if (c == '-') 
....................    { 
....................       sign = 1;         // Set the sign to negative 
....................       c = s[index++]; 
....................    } 
....................    else if (c == '+') 
....................    { 
....................       c = s[index++]; 
....................    } 
....................  
....................    if (c >= '0' && c <= '9') 
....................    { 
....................       if (c == '0' && (s[index] == 'x' || s[index] == 'X')) 
....................       { 
....................          base = 16; 
....................          index++; 
....................          c = s[index++]; 
....................       } 
....................  
....................       // The number is a decimal number 
....................       if (base == 10) 
....................       { 
....................          while (c >= '0' && c <= '9') { 
....................             result = (result << 1) + (result << 3);  // result *= 10; 
....................             result += (c - '0'); 
....................             c = s[index++]; 
....................          } 
....................       } 
....................       else if (base == 16)    // The number is a hexa number 
....................       { 
....................          c = toupper(c); 
....................          while ((c >= '0' && c <= '9') || (c >= 'A' && c <='F')) 
....................          { 
....................             if (c >= '0' && c <= '9') 
....................                result = (result << 4) + (c - '0'); 
....................             else 
....................                result = (result << 4) + (c - 'A' + 10); 
....................  
....................             c = s[index++];c = toupper(c); 
....................          } 
....................       } 
....................    } 
....................  
....................    if (base == 10 && sign == 1) 
....................       result = -result; 
....................  
....................    return(result); 
.................... } 
.................... #endif 
....................  
.................... #if defined(__PCD__) 
....................  
.................... signed int48 atoi48(char *s) 
.................... { 
....................    signed int48 result; 
....................    int8 sign, base, index; 
....................    char c; 
....................  
....................    index = 0; 
....................    sign = 0; 
....................    base = 10; 
....................    result = 0; 
....................  
....................    if (!s) 
....................       return 0; 
....................    c = s[index++]; 
....................  
....................    // increase index if either positive or negative sign is detected 
....................    if (c == '-') 
....................    { 
....................       sign = 1;         // Set the sign to negative 
....................       c = s[index++]; 
....................    } 
....................    else if (c == '+') 
....................    { 
....................       c = s[index++]; 
....................    } 
....................  
....................    if (c >= '0' && c <= '9') 
....................    { 
....................       if (c == '0' && (s[index] == 'x' || s[index] == 'X')) 
....................       { 
....................          base = 16; 
....................          index++; 
....................          c = s[index++]; 
....................       } 
....................  
....................       // The number is a decimal number 
....................       if (base == 10) 
....................       { 
....................          while (c >= '0' && c <= '9') { 
....................             result = (result << 1) + (result << 3);  // result *= 10; 
....................             result += (c - '0'); 
....................             c = s[index++]; 
....................          } 
....................       } 
....................       else if (base == 16)    // The number is a hexa number 
....................       { 
....................          c = toupper(c); 
....................          while ((c >= '0' && c <= '9') || (c >= 'A' && c <='F')) 
....................          { 
....................             if (c >= '0' && c <= '9') 
....................                result = (result << 4) + (c - '0'); 
....................             else 
....................                result = (result << 4) + (c - 'A' + 10); 
....................  
....................             c = s[index++];c = toupper(c); 
....................          } 
....................       } 
....................    } 
....................  
....................    if (base == 10 && sign == 1) 
....................       result = -result; 
....................  
....................    return(result); 
.................... } 
....................  
.................... signed int64 atoi64(char *s) 
.................... { 
....................    signed int64 result; 
....................    int8 sign, base, index; 
....................    char c; 
....................  
....................    index = 0; 
....................    sign = 0; 
....................    base = 10; 
....................    result = 0; 
....................  
....................    if (!s) 
....................       return 0; 
....................    c = s[index++]; 
....................  
....................    // increase index if either positive or negative sign is detected 
....................    if (c == '-') 
....................    { 
....................       sign = 1;         // Set the sign to negative 
....................       c = s[index++]; 
....................    } 
....................    else if (c == '+') 
....................    { 
....................       c = s[index++]; 
....................    } 
....................  
....................    if (c >= '0' && c <= '9') 
....................    { 
....................       if (c == '0' && (s[index] == 'x' || s[index] == 'X')) 
....................       { 
....................          base = 16; 
....................          index++; 
....................          c = s[index++]; 
....................       } 
....................  
....................       // The number is a decimal number 
....................       if (base == 10) 
....................       { 
....................          while (c >= '0' && c <= '9') { 
....................             result = (result << 1) + (result << 3);  // result *= 10; 
....................             result += (c - '0'); 
....................             c = s[index++]; 
....................          } 
....................       } 
....................       else if (base == 16)    // The number is a hexa number 
....................       { 
....................          c = toupper(c); 
....................          while ((c >= '0' && c <= '9') || (c >= 'A' && c <='F')) 
....................          { 
....................             if (c >= '0' && c <= '9') 
....................                result = (result << 4) + (c - '0'); 
....................             else 
....................                result = (result << 4) + (c - 'A' + 10); 
....................  
....................             c = s[index++];c = toupper(c); 
....................          } 
....................       } 
....................    } 
....................  
....................    if (base == 10 && sign == 1) 
....................       result = -result; 
....................  
....................    return(result); 
.................... } 
.................... #endif 
....................  
.................... char * itoa(signed int32 num, unsigned int base, char * s) 
.................... { 
....................      unsigned int32 temp=1; 
....................      unsigned int8 i,sign=0,cnt=0; 
....................      char c; 
....................  
....................      if(num<0) { 
....................          sign=1;        // Check for negative number 
....................          num*=-1; 
....................      } 
....................  
....................      while(temp>0) { 
....................          temp=(num/base); 
....................          s[cnt]=(num%base)+'0';    // Conversion 
....................  
....................          if(s[cnt]>0x39) 
....................             s[cnt]+=0x7; 
....................  
....................          cnt++; 
....................          num=temp; 
....................      } 
....................  
....................      if(sign==1) { 
....................          s[cnt]=0x2D;      // Negative sign 
....................          cnt++; 
....................      } 
....................  
....................      for(i = 0;i<(int8)(cnt/2);i++) { 
....................  
....................          c=s[i]; 
....................          s[i]=s[cnt-i-1];        // Reverse the number 
....................          s[cnt-i-1]=c; 
....................      } 
....................      s[cnt]='\0';     // End the string 
....................      return s; 
.................... } 
....................  
.................... float strtof(char *s, char *endptr) 
.................... { 
....................    float pow10 = 1.0; 
....................    float result = 0.0; 
....................    int1 skip = 1, sign = 0, point = 0; 
....................    char c; 
....................    unsigned int8 ptr = 0; 
....................  
....................    if (!s) 
....................       return 0; 
....................  
....................    for(c=s[ptr++]; c!=0; c=s[ptr++]) 
....................    { 
....................       if (skip && !isspace(c)) 
....................       { 
....................          skip = 0; 
....................          if (c == '+') 
....................          { 
....................             sign = 0; 
....................             continue; 
....................          }             
....................          else if (c == '-') 
....................          { 
....................             sign = 1; 
....................             continue; 
....................          } 
....................       } 
....................       if (!skip && (c == '.') && !point) 
....................          point = 1; 
....................       else if (!skip && isdigit(c)) 
....................       { 
....................          c -= '0'; 
....................          if (point) 
....................          { 
....................             pow10 = pow10 * 10.0; 
....................             result += (float)c / pow10;    
....................          } 
....................          else 
....................          { 
....................             result = 10.0 * result + (float)c; 
....................          } 
....................       } 
....................       else if (!skip) 
....................          break; 
....................    } 
....................  
....................    if (sign) 
....................       result = -1*result; 
....................        
....................    if(endptr) 
....................    { 
....................       if (ptr) { 
....................          ptr--; 
....................        #IF LONG_POINTERS  
....................          *((long *)endptr)= s+ptr;  
....................        #ELSE 
....................          *((char *)endptr)=s+ptr; 
....................        #ENDIF 
....................       } 
....................       else 
....................       { 
....................       #IF LONG_POINTERS 
....................       *((long *)endptr)= s;  
....................       #ELSE 
....................       *((char *)endptr)=s; 
....................       #ENDIF 
....................       } 
....................    } 
....................  
....................    return(result); 
.................... } 
....................  
.................... #if defined(__PCD__) 
.................... float48 strtof48(char *s, char *endptr) 
.................... { 
....................    float48 pow10 = 1.0; 
....................    float48 result = 0.0; 
....................    int1 skip = 1, sign = 0, point = 0; 
....................    char c; 
....................    unsigned int8 ptr = 0; 
....................  
....................    if (!s) 
....................       return 0; 
....................  
....................    for(c=s[ptr++]; c!=0; c=s[ptr++]) 
....................    { 
....................       if (skip && !isspace(c)) 
....................       { 
....................          skip = 0; 
....................          if (c == '+') 
....................          { 
....................             sign = 0; 
....................             continue; 
....................          }             
....................          else if (c == '-') 
....................          { 
....................             sign = 1; 
....................             continue; 
....................          } 
....................       } 
....................       if (!skip && (c == '.') && !point) 
....................          point = 1; 
....................       else if (!skip && isdigit(c)) 
....................       { 
....................          c -= '0'; 
....................          if (point) 
....................          { 
....................             pow10 = pow10 * 10.0; 
....................             result += (float48)c / pow10;    
....................          } 
....................          else 
....................          { 
....................             result = 10.0 * result + (float48)c; 
....................          } 
....................       } 
....................       else if (!skip) 
....................          break; 
....................    } 
....................  
....................    if (sign) 
....................       result = -1*result; 
....................        
....................    if(endptr) 
....................    { 
....................       if (ptr) { 
....................          ptr--; 
....................        #IF LONG_POINTERS  
....................          *((long *)endptr)= s+ptr;  
....................        #ELSE 
....................          *((char *)endptr)=s+ptr; 
....................        #ENDIF 
....................       } 
....................       else 
....................       { 
....................       #IF LONG_POINTERS 
....................       *((long *)endptr)= s;  
....................       #ELSE 
....................       *((char *)endptr)=s; 
....................       #ENDIF 
....................       } 
....................    } 
....................  
....................    return(result); 
.................... } 
....................  
.................... float64 strtod(char *s, char *endptr) 
.................... { 
....................    float64 pow10 = 1.0; 
....................    float64 result = 0.0; 
....................    int1 skip = 1, sign = 0, point = 0; 
....................    char c; 
....................    unsigned int8 ptr = 0; 
....................  
....................    if (!s) 
....................       return 0; 
....................  
....................    for(c=s[ptr++]; c!=0; c=s[ptr++]) 
....................    { 
....................       if (skip && !isspace(c)) 
....................       { 
....................          skip = 0; 
....................          if (c == '+') 
....................          { 
....................             sign = 0; 
....................             continue; 
....................          }             
....................          else if (c == '-') 
....................          { 
....................             sign = 1; 
....................             continue; 
....................          } 
....................       } 
....................       if (!skip && (c == '.') && !point) 
....................          point = 1; 
....................       else if (!skip && isdigit(c)) 
....................       { 
....................          c -= '0'; 
....................          if (point) 
....................          { 
....................             pow10 = pow10 * 10.0; 
....................             result += (float64)c / pow10;    
....................          } 
....................          else 
....................          { 
....................             result = 10.0 * result + (float64)c; 
....................          } 
....................       } 
....................       else if (!skip) 
....................          break; 
....................    } 
....................  
....................    if (sign) 
....................       result = -1*result; 
....................        
....................    if(endptr) 
....................    { 
....................       if (ptr) { 
....................          ptr--; 
....................        #IF LONG_POINTERS  
....................          *((long *)endptr)= s+ptr;  
....................        #ELSE 
....................          *((char *)endptr)=s+ptr; 
....................        #ENDIF 
....................       } 
....................       else 
....................       { 
....................       #IF LONG_POINTERS 
....................       *((long *)endptr)= s;  
....................       #ELSE 
....................       *((char *)endptr)=s; 
....................       #ENDIF 
....................       } 
....................    } 
....................  
....................    return(result); 
.................... } 
.................... #endif 
....................  
.................... unsigned long strtoul(char *s, char *endptr, signed int base) 
.................... { 
....................    char *sc,*s1,*sd; 
....................    unsigned long x=0; 
....................    char sign; 
....................    char digits[]="0123456789abcdefghijklmnopqstuvwxyz"; 
....................    for(sc=s;isspace(*sc);++sc); 
....................    sign=*sc=='-'||*sc=='+'?*sc++:'+'; 
....................    if(sign=='-' || base <0 || base ==1|| base >36) // invalid base 
....................    goto StrtoulGO; 
....................  
....................    else if (base) 
....................    { 
....................       if(base==16 && *sc =='0'&&(sc[1]=='x' || sc[1]=='X')) 
....................          sc+=2; 
....................       if(base==8 && *sc =='0') 
....................          sc+=1; 
....................       if(base==2 && *sc =='0'&&sc[1]=='b') 
....................          sc+=2; 
....................  
....................    } 
....................    else if(*sc!='0') // base is 0, find base 
....................       base=10; 
....................    else if (sc[1]=='x' || sc[1]=='X') 
....................       base =16,sc+=2; 
....................    else if(sc[1]=='b') 
....................       base=2,sc+=2; 
....................    else 
....................       base=8; 
....................    for (s1=sc;*sc=='0';++sc);// skip leading zeroes 
....................    sd=memchr(digits,tolower(*sc),base); 
....................    for(; sd!=0; ) 
....................    { 
....................       x=x*base+(int16)(sd-digits); 
....................       ++sc; 
....................       sd=memchr(digits,tolower(*sc),base); 
....................    } 
....................    if(s1==sc) 
....................    { 
....................    StrtoulGO: 
....................       if (endptr) 
....................       { 
....................          #IF LONG_POINTERS 
....................          *((long *)endptr)= s;  
....................          #ELSE 
....................          *((char *)endptr)=s; 
....................          #ENDIF 
....................          } 
....................    return 0; 
....................    } 
....................    if (endptr) 
....................    { 
....................          #IF LONG_POINTERS 
....................          *((long *)endptr)= sc;  
....................          #ELSE 
....................          *((char *)endptr)=sc;  
....................          #ENDIF 
....................    } 
....................    return x; 
.................... } 
....................  
....................  
.................... signed long strtol(char *s,char *endptr, signed int base) 
.................... { 
....................    char *sc,*s1,*sd; 
....................    signed long x=0; 
....................    char sign; 
....................    char digits[]="0123456789abcdefghijklmnopqstuvwxyz"; 
....................    for(sc=s;isspace(*sc);++sc); 
....................    sign=*sc=='-'||*sc=='+'?*sc++:'+'; 
....................    if (base <0 || base ==1|| base >36) // invalid base 
....................    goto StrtolGO; 
....................    else if (base) 
....................    { 
....................       if(base==16 && *sc =='0'&&(sc[1]=='x' || sc[1]=='X')) 
....................          sc+=2; 
....................       if(base==8 && *sc =='0') 
....................          sc+=1; 
....................       if(base==2 && *sc =='0'&&sc[1]=='b') 
....................          sc+=2; 
....................  
....................    } 
....................    else if(*sc!='0') // base is 0, find base 
....................       base=10; 
....................    else if (sc[1]=='x' || sc[1]=='X') 
....................       base =16,sc+=2; 
....................    else if(sc[1]=='b') 
....................       base=2,sc+=2; 
....................    else 
....................       base=8; 
....................    for (s1=sc;*sc=='0';++sc);// skip leading zeroes 
....................  
....................    sd=memchr(digits,tolower(*sc),base); 
....................    for(;sd!=0;) 
....................    { 
....................       x=x*base+(int16)(sd-digits); 
....................       ++sc; 
....................       sd=memchr(digits,tolower(*sc),base); 
....................    } 
....................    if(s1==sc) 
....................    { 
....................    StrtolGO: 
....................       if (endptr) 
....................       { 
....................          #IF LONG_POINTERS 
....................          *((long *)endptr)= s;  
....................          #ELSE 
....................          *((char *)endptr)=s; 
....................          #ENDIF 
....................       } 
....................    return 0; 
....................    } 
....................    if(sign=='-') 
....................       x  =-x; 
....................    if (endptr) 
....................    { 
....................         #IF LONG_POINTERS 
....................          *((long *)endptr)= sc;  
....................         #ELSE 
....................         *((char *)endptr)=sc; 
....................         #ENDIF 
....................    } 
....................    return x; 
.................... } 
....................  
.................... signed int8 system(char *string) 
.................... { 
....................    return 0; 
.................... } 
....................  
.................... int8 mblen(char *s,size_t n) 
.................... { 
....................    return strlen(s); 
.................... } 
....................  
.................... int8 mbtowc(wchar_t *pwc,char *s,size_t n) 
.................... { 
....................    *pwc=*s; 
....................    return 1; 
.................... } 
....................  
.................... int8 wctomb(char *s,wchar_t wchar) 
.................... { 
....................    *s=wchar; 
....................    return 1; 
.................... } 
....................  
.................... size_t mbstowcs(wchar_t *pwcs,char *s,size_t n) 
.................... { 
....................    strncpy(pwcs,s,n); 
....................    return strlen(pwcs); 
.................... } 
....................  
.................... size_t wcstombs(char *s,wchar_t *pwcs,size_t n) 
.................... { 
....................    strncpy(s,pwcs,n); 
....................    return strlen(s); 
.................... } 
....................  
.................... //--------------------------------------------------------------------------- 
.................... // The random number implementation 
.................... //--------------------------------------------------------------------------- 
....................  
.................... unsigned int32 _Randseed; 
....................  
.................... unsigned int16 rand(void) 
.................... { 
....................    _Randseed = _Randseed * 1103515245 + 12345; 
....................    return ((unsigned int16)(_Randseed >> 16) % RAND_MAX); 
.................... } 
....................  
.................... void srand(unsigned int32 seed) 
.................... { 
....................    _Randseed = seed; 
.................... } 
....................  
.................... //--------------------------------------------------------------------------- 
.................... // Searching and sorting utilities implementation 
.................... //--------------------------------------------------------------------------- 
....................  
.................... #if !defined(__PCD__) 
.................... typedef signed int8 (*_Cmpfun)(char * p1,char * p2);  
.................... #else  
.................... typedef signed int16 (*_Cmpfun)(char * p1,char * p2);  
.................... #endif 
....................  
....................  
....................  
.................... void qsort(char * qdata, unsigned int qitems, unsigned int qsize, _Cmpfun cmp) { 
....................    unsigned int m,j,i,l; 
....................    int1 done; 
....................    unsigned int8 t[16]; 
....................  
....................    m = qitems/2; 
....................    while( m > 0 ) { 
....................      for(j=0; j<(qitems-m); ++j) { 
....................         i = j; 
....................         do 
....................         { 
....................            done=1; 
....................            l = i+m; 
....................            if( (*cmp)(qdata+i*qsize, qdata+l*qsize) > 0 ) { 
....................               memcpy(t, qdata+i*qsize, qsize); 
....................               memcpy(qdata+i*qsize, qdata+l*qsize, qsize); 
....................               memcpy(qdata+l*qsize, t, qsize); 
....................               if(m <= i) 
....................                 i -= m; 
....................                 done = 0; 
....................            } 
....................         } while(!done); 
....................      } 
....................      m = m/2; 
....................    } 
.................... } 
....................  
....................  
.................... char *bsearch(char *key, char *base, size_t num, size_t width,_Cmpfun cmp) 
.................... { 
....................    char *p, *q; 
....................    size_t n; 
....................    size_t pivot; 
....................    signed int val; 
....................  
....................    p = base; 
....................    n = num; 
....................  
....................    while (n > 0) 
....................    { 
....................       pivot = n >> 1; 
....................       q = p + width * pivot; 
....................  
....................       val = (*cmp)(key, q); 
....................  
....................       if (val < 0) 
....................          n = pivot; 
....................       else if (val == 0) 
....................          return ((char *)q); 
....................       else { 
....................          p = q + width; 
....................          n -= pivot + 1; 
....................       } 
....................    } 
....................  
....................    return NULL;      // There's no match 
.................... } 
....................  
....................  
.................... #endif 
....................  
.................... #include <DS1302.c> 
.................... ////////////////////////////////////////////////////////////////////////// 
.................... ////                               DS1302.C                           //// 
.................... ////                     Driver for Real Time Clock                   //// 
.................... ////                                                                  //// 
.................... ////  rtc_init()                                   Call after power up//// 
.................... ////                                                                  //// 
.................... ////  rtc_set_datetime(day,mth,year,dow,hour,min)  Set the date/time  //// 
.................... ////                                                                  //// 
.................... ////  rtc_get_date(day,mth,year,dow)               Get the date       //// 
.................... ////                                                                  //// 
.................... ////  rtc_get_time(hr,min,sec)                     Get the time       //// 
.................... ////                                                                  //// 
.................... ////  rtc_write_nvr(address,data)                  Write to NVR       //// 
.................... ////                                                                  //// 
.................... ////  data = rtc_read_nvr(address)                 Read from NVR      //// 
.................... ////                                                                  //// 
.................... ////  get_bcd(data)                              Convert data to BCD  //// 
.................... ////                                                                  //// 
.................... ////  rm_bcd(data)                               Convert data to int  //// 
.................... ////                                                                  //// 
.................... ////////////////////////////////////////////////////////////////////////// 
.................... ////        (C) Copyright 1996,2003 Custom Computer Services          //// 
.................... //// This source code may only be used by licensed users of the CCS C //// 
.................... //// compiler.  This source code may only be distributed to other     //// 
.................... //// licensed users of the CCS C compiler.  No other use, reproduction//// 
.................... //// or distribution is permitted without written permission.         //// 
.................... //// Derivative programs created using this software in object code   //// 
.................... //// form are not restricted in any way.                              //// 
.................... ////////////////////////////////////////////////////////////////////////// 
....................  
.................... //#ifndef RTC_SCLK 
....................  
.................... #define RTC_SCLK PIN_D4 
.................... #define RTC_IO   PIN_D5 
.................... #define RTC_RST  PIN_D6 
....................  
.................... //#endif 
....................  
.................... void write_ds1302_byte(BYTE cmd) { 
....................    BYTE i; 
....................  
....................    for(i=0;i<=7;++i) { 
*
037EE:  MOVLB  7
037F0:  CLRF   xC3
037F2:  MOVF   xC3,W
037F4:  SUBLW  07
037F6:  BNC   3812
....................       output_bit(RTC_IO, shift_right(&cmd,1,0) ); 
037F8:  BCF    FD8.0
037FA:  RRCF   xC2,F
037FC:  BC    3802
037FE:  BCF    F8C.5
03800:  BRA    3804
03802:  BSF    F8C.5
03804:  BCF    F95.5
....................       output_high(RTC_SCLK); 
03806:  BCF    F95.4
03808:  BSF    F8C.4
....................       output_low(RTC_SCLK); 
0380A:  BCF    F95.4
0380C:  BCF    F8C.4
....................    } 
0380E:  INCF   xC3,F
03810:  BRA    37F2
.................... } 
03812:  MOVLB  0
03814:  RETLW  00
....................  
.................... void write_ds1302(BYTE cmd, BYTE data) { 
....................  
....................    output_high(RTC_RST); 
03816:  BCF    F95.6
03818:  BSF    F8C.6
....................    write_ds1302_byte(cmd); 
0381A:  MOVFF  7C0,7C2
0381E:  RCALL  37EE
....................    write_ds1302_byte(data); 
03820:  MOVFF  7C1,7C2
03824:  RCALL  37EE
....................    output_low(RTC_RST); 
03826:  BCF    F95.6
03828:  BCF    F8C.6
.................... } 
0382A:  RETLW  00
....................  
.................... BYTE read_ds1302(BYTE cmd) { 
....................    BYTE i,data; 
....................  
....................    output_high(RTC_RST); 
0382C:  BCF    F95.6
0382E:  BSF    F8C.6
....................    write_ds1302_byte(cmd); 
03830:  MOVFF  7BF,7C2
03834:  RCALL  37EE
....................     
....................    input(RTC_IO); 
03836:  BSF    F95.5
....................    delay_us(10); 
03838:  MOVLW  10
0383A:  MOVWF  00
0383C:  DECFSZ 00,F
0383E:  BRA    383C
03840:  NOP   
....................           
....................    for(i=0;i<=7;++i) { 
03842:  MOVLB  7
03844:  CLRF   xC0
03846:  MOVF   xC0,W
03848:  SUBLW  07
0384A:  BNC   3876
....................       shift_right(&data,1,input(RTC_IO)); 
0384C:  BSF    F95.5
0384E:  BTFSC  F83.5
03850:  BRA    3856
03852:  BCF    FD8.0
03854:  BRA    3858
03856:  BSF    FD8.0
03858:  RRCF   xC1,F
....................       output_high(RTC_SCLK); 
0385A:  BCF    F95.4
0385C:  BSF    F8C.4
....................       delay_us(20); 
0385E:  MOVLW  21
03860:  MOVWF  00
03862:  DECFSZ 00,F
03864:  BRA    3862
....................       output_low(RTC_SCLK); 
03866:  BCF    F95.4
03868:  BCF    F8C.4
....................       delay_us(20); 
0386A:  MOVLW  21
0386C:  MOVWF  00
0386E:  DECFSZ 00,F
03870:  BRA    386E
....................    } 
03872:  INCF   xC0,F
03874:  BRA    3846
....................    output_low(RTC_RST); 
03876:  BCF    F95.6
03878:  BCF    F8C.6
....................  
....................    return(data); 
0387A:  MOVFF  7C1,01
.................... } 
0387E:  MOVLB  0
03880:  RETLW  00
....................  
.................... void rtc_init() { 
....................    BYTE x; 
....................    output_low(RTC_RST); 
03882:  BCF    F95.6
03884:  BCF    F8C.6
....................    delay_us(20); 
03886:  MOVLW  21
03888:  MOVWF  00
0388A:  DECFSZ 00,F
0388C:  BRA    388A
....................    output_low(RTC_SCLK); 
0388E:  BCF    F95.4
03890:  BCF    F8C.4
....................    write_ds1302(0x8e,0); 
03892:  MOVLW  8E
03894:  MOVLB  7
03896:  MOVWF  xC0
03898:  CLRF   xC1
0389A:  MOVLB  0
0389C:  RCALL  3816
....................    write_ds1302(0x90,0xa4); 
0389E:  MOVLW  90
038A0:  MOVLB  7
038A2:  MOVWF  xC0
038A4:  MOVLW  A4
038A6:  MOVWF  xC1
038A8:  MOVLB  0
038AA:  RCALL  3816
....................    x=read_ds1302(0x81); 
038AC:  MOVLW  81
038AE:  MOVLB  7
038B0:  MOVWF  xBF
038B2:  MOVLB  0
038B4:  RCALL  382C
038B6:  MOVFF  01,7B9
....................    if((x & 0x80)!=0) 
038BA:  MOVLB  7
038BC:  MOVF   xB9,W
038BE:  ANDLW  80
038C0:  BZ    38CE
....................      write_ds1302(0x80,0); 
038C2:  MOVLW  80
038C4:  MOVWF  xC0
038C6:  CLRF   xC1
038C8:  MOVLB  0
038CA:  RCALL  3816
038CC:  MOVLB  7
.................... } 
038CE:  MOVLB  0
038D0:  GOTO   821A (RETURN)
....................  
.................... byte get_bcd(BYTE data) 
.................... { 
....................    byte nibh; 
....................    byte nibl; 
....................  
....................    nibh=data/10; 
*
05DDC:  MOVFF  7BF,7C2
05DE0:  MOVLW  0A
05DE2:  MOVLB  7
05DE4:  MOVWF  xC3
05DE6:  MOVLB  0
05DE8:  RCALL  58B4
05DEA:  MOVFF  01,7C0
....................    nibl=data-(nibh*10); 
05DEE:  MOVLB  7
05DF0:  MOVF   xC0,W
05DF2:  MULLW  0A
05DF4:  MOVF   FF3,W
05DF6:  SUBWF  xBF,W
05DF8:  MOVWF  xC1
....................  
....................    return((nibh<<4)|nibl); 
05DFA:  SWAPF  xC0,W
05DFC:  MOVWF  00
05DFE:  MOVLW  F0
05E00:  ANDWF  00,F
05E02:  MOVF   00,W
05E04:  IORWF  xC1,W
05E06:  MOVWF  01
.................... } 
05E08:  MOVLB  0
05E0A:  RETLW  00
....................  
.................... byte rm_bcd(BYTE data) 
.................... { 
....................    byte i; 
....................  
....................    i=data; 
*
051DE:  MOVFF  7C0,7C1
....................    data=(i>>4)*10; 
051E2:  MOVLB  7
051E4:  SWAPF  xC1,W
051E6:  MOVWF  00
051E8:  MOVLW  0F
051EA:  ANDWF  00,F
051EC:  MOVF   00,W
051EE:  MULLW  0A
051F0:  MOVFF  FF3,7C0
....................    data=data+(i<<4>>4); 
051F4:  SWAPF  xC1,W
051F6:  MOVWF  00
051F8:  MOVLW  F0
051FA:  ANDWF  00,F
051FC:  MOVF   00,W
051FE:  SWAPF  00,F
05200:  MOVLW  0F
05202:  ANDWF  00,F
05204:  MOVF   00,W
05206:  ADDWF  xC0,F
....................  
....................    return data; 
05208:  MOVFF  7C0,01
.................... } 
0520C:  MOVLB  0
0520E:  RETLW  00
....................  
.................... void rtc_set_datetime(BYTE day, BYTE mth, BYTE year, BYTE dow, BYTE hr, BYTE min) { 
....................  
....................    write_ds1302(0x86,get_bcd(day)); 
*
05E0C:  MOVFF  7B9,7BF
05E10:  RCALL  5DDC
05E12:  MOVFF  01,7BF
05E16:  MOVLW  86
05E18:  MOVLB  7
05E1A:  MOVWF  xC0
05E1C:  MOVFF  01,7C1
05E20:  MOVLB  0
05E22:  CALL   3816
....................    write_ds1302(0x88,get_bcd(mth)); 
05E26:  MOVFF  7BA,7BF
05E2A:  RCALL  5DDC
05E2C:  MOVFF  01,7BF
05E30:  MOVLW  88
05E32:  MOVLB  7
05E34:  MOVWF  xC0
05E36:  MOVFF  01,7C1
05E3A:  MOVLB  0
05E3C:  CALL   3816
....................    write_ds1302(0x8c,get_bcd(year)); 
05E40:  MOVFF  7BB,7BF
05E44:  RCALL  5DDC
05E46:  MOVFF  01,7BF
05E4A:  MOVLW  8C
05E4C:  MOVLB  7
05E4E:  MOVWF  xC0
05E50:  MOVFF  01,7C1
05E54:  MOVLB  0
05E56:  CALL   3816
....................    write_ds1302(0x8a,get_bcd(dow)); 
05E5A:  MOVFF  7BC,7BF
05E5E:  RCALL  5DDC
05E60:  MOVFF  01,7BF
05E64:  MOVLW  8A
05E66:  MOVLB  7
05E68:  MOVWF  xC0
05E6A:  MOVFF  01,7C1
05E6E:  MOVLB  0
05E70:  CALL   3816
....................    write_ds1302(0x84,get_bcd(hr)); 
05E74:  MOVFF  7BD,7BF
05E78:  RCALL  5DDC
05E7A:  MOVFF  01,7BF
05E7E:  MOVLW  84
05E80:  MOVLB  7
05E82:  MOVWF  xC0
05E84:  MOVFF  01,7C1
05E88:  MOVLB  0
05E8A:  CALL   3816
....................    write_ds1302(0x82,get_bcd(min)); 
05E8E:  MOVFF  7BE,7BF
05E92:  RCALL  5DDC
05E94:  MOVFF  01,7BF
05E98:  MOVLW  82
05E9A:  MOVLB  7
05E9C:  MOVWF  xC0
05E9E:  MOVFF  01,7C1
05EA2:  MOVLB  0
05EA4:  CALL   3816
....................    write_ds1302(0x80,get_bcd(0)); 
05EA8:  MOVLB  7
05EAA:  CLRF   xBF
05EAC:  MOVLB  0
05EAE:  RCALL  5DDC
05EB0:  MOVFF  01,7BF
05EB4:  MOVLW  80
05EB6:  MOVLB  7
05EB8:  MOVWF  xC0
05EBA:  MOVFF  01,7C1
05EBE:  MOVLB  0
05EC0:  CALL   3816
.................... } 
05EC4:  GOTO   A590 (RETURN)
....................  
.................... void rtc_get_date(BYTE& day, BYTE& mth, BYTE& year, BYTE& dow) { 
....................    day = rm_bcd(read_ds1302(0x87)); 
*
052B2:  MOVLW  87
052B4:  MOVLB  7
052B6:  MOVWF  xBF
052B8:  MOVLB  0
052BA:  CALL   382C
052BE:  MOVFF  01,7BB
052C2:  MOVFF  01,7C0
052C6:  RCALL  51DE
052C8:  MOVFF  01,386
....................    mth = rm_bcd(read_ds1302(0x89)); 
052CC:  MOVLW  89
052CE:  MOVLB  7
052D0:  MOVWF  xBF
052D2:  MOVLB  0
052D4:  CALL   382C
052D8:  MOVFF  01,7BB
052DC:  MOVFF  01,7C0
052E0:  RCALL  51DE
052E2:  MOVFF  01,385
....................    year = rm_bcd(read_ds1302(0x8d)); 
052E6:  MOVLW  8D
052E8:  MOVLB  7
052EA:  MOVWF  xBF
052EC:  MOVLB  0
052EE:  CALL   382C
052F2:  MOVFF  01,7BB
052F6:  MOVFF  01,7C0
052FA:  RCALL  51DE
052FC:  MOVFF  01,384
....................    dow = rm_bcd(read_ds1302(0x8b)); 
05300:  MOVLW  8B
05302:  MOVLB  7
05304:  MOVWF  xBF
05306:  MOVLB  0
05308:  CALL   382C
0530C:  MOVFF  01,7BB
05310:  MOVFF  01,7C0
05314:  RCALL  51DE
05316:  MOVFF  01,38A
.................... } 
....................  
.................... void rtc_get_time(BYTE& hr, BYTE& min, BYTE& sec) { 
....................    hr = rm_bcd(read_ds1302(0x85)); 
0531A:  MOVLW  85
0531C:  MOVLB  7
0531E:  MOVWF  xBF
05320:  MOVLB  0
05322:  CALL   382C
05326:  MOVFF  01,7BB
0532A:  MOVFF  01,7C0
0532E:  RCALL  51DE
05330:  MOVFF  01,387
....................    min = rm_bcd(read_ds1302(0x83)); 
05334:  MOVLW  83
05336:  MOVLB  7
05338:  MOVWF  xBF
0533A:  MOVLB  0
0533C:  CALL   382C
05340:  MOVFF  01,7BB
05344:  MOVFF  01,7C0
05348:  RCALL  51DE
0534A:  MOVFF  01,388
....................    sec = rm_bcd(read_ds1302(0x81)); 
0534E:  MOVLW  81
05350:  MOVLB  7
05352:  MOVWF  xBF
05354:  MOVLB  0
05356:  CALL   382C
0535A:  MOVFF  01,7BB
0535E:  MOVFF  01,7C0
05362:  RCALL  51DE
05364:  MOVFF  01,389
.................... } 
....................  
.................... void rtc_write_nvr(BYTE address, BYTE data) { 
....................    write_ds1302(address|0xc0,data); 
.................... } 
....................  
.................... BYTE rtc_read_nvr(BYTE address) { 
....................     return(read_ds1302(address|0xc1)); 
.................... } 
....................  
.................... #include <24512.c> 
.................... /////////////////////////////////////////////////////////////////////////// 
.................... ////   Library for a 24LC512 serial EEPROM                             //// 
.................... ////                                                                   //// 
.................... ////   init_ext_eeprom();    Call before the other functions are used  //// 
.................... ////                                                                   //// 
.................... ////   write_ext_eeprom(a, d);  Write the byte d to the address a      //// 
.................... ////                                                                   //// 
.................... ////   d = read_ext_eeprom(a);   Read the byte d from the address a    //// 
.................... ////                                                                   //// 
.................... ////   The main program may define eeprom_sda                          //// 
.................... ////   and eeprom_scl to override the defaults below.                  //// 
.................... ////                                                                   //// 
.................... /////////////////////////////////////////////////////////////////////////// 
.................... ////        (C) Copyright 1996,2003 Custom Computer Services           //// 
.................... //// This source code may only be used by licensed users of the CCS C  //// 
.................... //// compiler.  This source code may only be distributed to other      //// 
.................... //// licensed users of the CCS C compiler.  No other use, reproduction //// 
.................... //// or distribution is permitted without written permission.          //// 
.................... //// Derivative programs created using this software in object code    //// 
.................... //// form are not restricted in any way.                               //// 
.................... /////////////////////////////////////////////////////////////////////////// 
....................  
.................... #ifndef EEPROM_SDA 
....................  
.................... #define EEPROM_SDA  PIN_C4 
.................... #define EEPROM_SCL  PIN_C3 
....................  
.................... #endif 
....................  
.................... //#use i2c(master, sda=EEPROM_SDA, scl=EEPROM_SCL) 
....................  
.................... #define EEPROM_ADDRESS long int 
.................... #define EEPROM_SIZE   65535 
....................  
.................... void init_ext_eeprom() 
.................... { 
....................    output_float(EEPROM_SCL); 
....................    output_float(EEPROM_SDA); 
....................  
.................... } 
....................  
.................... void write_ext_eeprom(long int address, BYTE data) 
.................... { 
....................    short int status; 
....................    i2c_start(); 
*
06C26:  BSF    F94.4
06C28:  MOVLW  05
06C2A:  MOVWF  00
06C2C:  DECFSZ 00,F
06C2E:  BRA    6C2C
06C30:  BSF    F94.3
06C32:  MOVLW  06
06C34:  MOVWF  00
06C36:  DECFSZ 00,F
06C38:  BRA    6C36
06C3A:  BCF    F8B.4
06C3C:  BCF    F94.4
06C3E:  MOVLW  05
06C40:  MOVWF  00
06C42:  DECFSZ 00,F
06C44:  BRA    6C42
06C46:  BCF    F8B.3
06C48:  BCF    F94.3
....................    i2c_write(0xA0); 
06C4A:  MOVLW  A0
06C4C:  MOVLB  7
06C4E:  MOVWF  xCD
06C50:  MOVLB  0
06C52:  CALL   205E
....................    i2c_write(address>>8); 
06C56:  MOVFF  7C1,7C4
06C5A:  MOVLB  7
06C5C:  CLRF   xC5
06C5E:  MOVFF  7C1,7CD
06C62:  MOVLB  0
06C64:  CALL   205E
....................    i2c_write(address); 
06C68:  MOVFF  7C0,7CD
06C6C:  CALL   205E
....................    i2c_write(data); 
06C70:  MOVFF  7C2,7CD
06C74:  CALL   205E
....................    i2c_stop(); 
06C78:  BCF    F94.4
06C7A:  NOP   
06C7C:  BSF    F94.3
06C7E:  BTFSS  F82.3
06C80:  BRA    6C7E
06C82:  MOVLW  05
06C84:  MOVWF  00
06C86:  DECFSZ 00,F
06C88:  BRA    6C86
06C8A:  BRA    6C8C
06C8C:  NOP   
06C8E:  BSF    F94.4
06C90:  MOVLW  05
06C92:  MOVWF  00
06C94:  DECFSZ 00,F
06C96:  BRA    6C94
....................    i2c_start(); 
06C98:  BSF    F94.4
06C9A:  MOVLW  05
06C9C:  MOVWF  00
06C9E:  DECFSZ 00,F
06CA0:  BRA    6C9E
06CA2:  BSF    F94.3
06CA4:  MOVLW  06
06CA6:  MOVWF  00
06CA8:  DECFSZ 00,F
06CAA:  BRA    6CA8
06CAC:  BCF    F8B.4
06CAE:  BCF    F94.4
06CB0:  MOVLW  05
06CB2:  MOVWF  00
06CB4:  DECFSZ 00,F
06CB6:  BRA    6CB4
06CB8:  BCF    F8B.3
06CBA:  BCF    F94.3
....................    status=i2c_write(0xA0); 
06CBC:  MOVLW  A0
06CBE:  MOVLB  7
06CC0:  MOVWF  xCD
06CC2:  MOVLB  0
06CC4:  CALL   205E
06CC8:  MOVF   01,W
06CCA:  MOVLB  7
06CCC:  BCF    xC3.0
06CCE:  BTFSC  01.0
06CD0:  BSF    xC3.0
....................    while(status==1) 
....................    { 
06CD2:  BTFSS  xC3.0
06CD4:  BRA    6D14
....................       i2c_start(); 
06CD6:  BSF    F94.4
06CD8:  MOVLW  05
06CDA:  MOVWF  00
06CDC:  DECFSZ 00,F
06CDE:  BRA    6CDC
06CE0:  BSF    F94.3
06CE2:  MOVLW  06
06CE4:  MOVWF  00
06CE6:  DECFSZ 00,F
06CE8:  BRA    6CE6
06CEA:  BTFSS  F82.3
06CEC:  BRA    6CEA
06CEE:  BCF    F8B.4
06CF0:  BCF    F94.4
06CF2:  MOVLW  05
06CF4:  MOVWF  00
06CF6:  DECFSZ 00,F
06CF8:  BRA    6CF6
06CFA:  BCF    F8B.3
06CFC:  BCF    F94.3
....................       status=i2c_write(0xA0); 
06CFE:  MOVLW  A0
06D00:  MOVWF  xCD
06D02:  MOVLB  0
06D04:  CALL   205E
06D08:  MOVF   01,W
06D0A:  MOVLB  7
06D0C:  BCF    xC3.0
06D0E:  BTFSC  01.0
06D10:  BSF    xC3.0
....................    } 
06D12:  BRA    6CD2
....................    i2c_stop(); 
06D14:  BCF    F94.4
06D16:  NOP   
06D18:  BSF    F94.3
06D1A:  BTFSS  F82.3
06D1C:  BRA    6D1A
06D1E:  MOVLW  05
06D20:  MOVWF  00
06D22:  DECFSZ 00,F
06D24:  BRA    6D22
06D26:  BRA    6D28
06D28:  NOP   
06D2A:  BSF    F94.4
06D2C:  MOVLW  05
06D2E:  MOVWF  00
06D30:  DECFSZ 00,F
06D32:  BRA    6D30
.................... } 
06D34:  MOVLB  0
06D36:  RETLW  00
....................  
.................... BYTE read_ext_eeprom(long int address) { 
....................    BYTE data; 
....................    i2c_start(); 
*
0213E:  BSF    F94.4
02140:  MOVLW  05
02142:  MOVWF  00
02144:  DECFSZ 00,F
02146:  BRA    2144
02148:  BSF    F94.3
0214A:  MOVLW  06
0214C:  MOVWF  00
0214E:  DECFSZ 00,F
02150:  BRA    214E
02152:  BCF    F8B.4
02154:  BCF    F94.4
02156:  MOVLW  05
02158:  MOVWF  00
0215A:  DECFSZ 00,F
0215C:  BRA    215A
0215E:  BCF    F8B.3
02160:  BCF    F94.3
....................    i2c_write(0xA0); 
02162:  MOVLW  A0
02164:  MOVLB  7
02166:  MOVWF  xCD
02168:  MOVLB  0
0216A:  RCALL  205E
....................    i2c_write(address>>8); 
0216C:  MOVFF  7BF,7C1
02170:  MOVLB  7
02172:  CLRF   xC2
02174:  MOVFF  7BF,7CD
02178:  MOVLB  0
0217A:  RCALL  205E
....................    i2c_write(address); 
0217C:  MOVFF  7BE,7CD
02180:  RCALL  205E
....................    i2c_start(); 
02182:  BSF    F94.4
02184:  MOVLW  05
02186:  MOVWF  00
02188:  DECFSZ 00,F
0218A:  BRA    2188
0218C:  BSF    F94.3
0218E:  MOVLW  06
02190:  MOVWF  00
02192:  DECFSZ 00,F
02194:  BRA    2192
02196:  BTFSS  F82.3
02198:  BRA    2196
0219A:  BCF    F8B.4
0219C:  BCF    F94.4
0219E:  MOVLW  05
021A0:  MOVWF  00
021A2:  DECFSZ 00,F
021A4:  BRA    21A2
021A6:  BCF    F8B.3
021A8:  BCF    F94.3
....................    i2c_write(0xA1); 
021AA:  MOVLW  A1
021AC:  MOVLB  7
021AE:  MOVWF  xCD
021B0:  MOVLB  0
021B2:  RCALL  205E
....................    data=i2c_read(0); 
021B4:  CLRF   00
021B6:  RCALL  20D4
021B8:  MOVFF  01,7C0
....................    i2c_stop(); 
021BC:  BCF    F94.4
021BE:  NOP   
021C0:  BSF    F94.3
021C2:  BTFSS  F82.3
021C4:  BRA    21C2
021C6:  MOVLW  05
021C8:  MOVWF  00
021CA:  DECFSZ 00,F
021CC:  BRA    21CA
021CE:  BRA    21D0
021D0:  NOP   
021D2:  BSF    F94.4
021D4:  MOVLW  05
021D6:  MOVWF  00
021D8:  DECFSZ 00,F
021DA:  BRA    21D8
....................    return(data); 
021DC:  MOVLB  7
021DE:  MOVFF  7C0,01
.................... } 
021E2:  MOVLB  0
021E4:  RETLW  00
....................  
....................  
.................... //#define   UP            !input(PIN_B0) 
.................... //#define   DOWN          !input(PIN_B1) 
.................... //#define   RIGHT         !input(PIN_B2) 
.................... //#define   LEFT          !input(PIN_B3) 
....................  
.................... #define   UPD            !input(PIN_B0) 
.................... #define   DND            !input(PIN_B1) 
.................... #define   SWBLO          !input(PIN_B2) 
.................... #define   DOORO          !input(PIN_B3) 
.................... #define   TERM           input(PIN_B4) 
.................... #define   STOP           !input(PIN_B5) 
.................... #define   SWBL           !input(PIN_B6) 
.................... #define   DOOR           !input(PIN_B7) 
....................  
.................... //#define   LOW           //input(PIN_A2) 
.................... //#define   HIG           //input(PIN_A3) 
....................  
.................... #define   SSR_on           output_bit(PIN_E1,1) 
.................... #define   SSR_off          output_bit(PIN_E1,0) 
....................  
.................... #define   SSR2_on          output_bit(PIN_E2,1) 
.................... #define   SSR2_off         output_bit(PIN_E2,0) 
....................  
.................... #define   Buzzer_on        output_bit(PIN_D7,1) 
.................... #define   Buzzer_off       output_bit(PIN_D7,0) 
....................  
.................... #define   Paso_on          output_bit(PIN_C0,0) 
.................... #define   Paso_off         output_bit(PIN_C0,1) 
....................  
.................... #define   Desfogue_on      output_bit(PIN_C1,0) 
.................... #define   Desfogue_off     output_bit(PIN_C1,1) 
....................  
.................... #define   Agua_on          output_bit(PIN_C2,0) 
.................... #define   Agua_off         output_bit(PIN_C2,1) 
....................  
.................... #define OFF 0 
.................... #define ON  1 
.................... #define RX_BUFFER_SIZE  10 
.................... char Rx_Buffer[RX_BUFFER_SIZE+1]; 
.................... char Rx_Buffer2[RX_BUFFER_SIZE+1]; 
.................... char RX_Wr_Index=0; 
.................... char RX_Rd_Index=0; 
.................... char RX_Counter=0; 
....................  
.................... #define TX_BUFFER_SIZE  24 
.................... char Tx_Buffer[TX_BUFFER_SIZE+1]; 
.................... char TX_Wr_Index=0; 
.................... char TX_Counter=0; 
.................... //int1 RX_Buffer_Overflow=0; 
....................  
.................... //Comunicacion//------------------------ 
.................... byte SlaveA0Tx[0X20]; 
.................... byte dato=0;            //Contendr la informacin a enviar o recibir 
.................... byte direccion=0;       //Contendr la direccin del esclavo en el bus I2C 
.................... byte posicion=0;        //Contendr la posicin en el buffer de memoria del esclavo donde se almacenar o de donde se recuperar el dato 
....................  
.................... /* Tabla de Modulos, Primera Fila Ao Regular y el siguiente ao Bisiesto 
.................... E   F   M   A   M   J   J   A   S   O   N   D 
.................... 0   3   3   6   1   4   6   2   5   0   3   5 
.................... 0   3   4   0   2   5   0   3   6   1   4   6 
.................... */ 
.................... int8 Regular[12]={0,3,3,6,1,4,6,2,5,0,3,5}; 
.................... int8 Bisiesto[12]={0,3,4,0,2,5,0,3,6,1,4,6}; 
....................  
.................... //Alarmas//--------------------- 
.................... short AlarmaTiempoProlongado=OFF,AlarmaSobreTemperatura=OFF,AlarmaLlenado=OFF,AlarmaTermostato=OFF,AlarmaPuerta=OFF,AlarmaEmergencia=OFF,AlarmaBomba=OFF; 
.................... short AlarmaVacio=OFF,UP=OFF,DOWN=OFF,RIGHT=OFF,LEFT=OFF,flagAbreSecado=0,AlarmaApertura=OFF,flagApertura=OFF,AlarmaBloqueo=OFF,flagBloqueo=OFF,flagDesbloqueo=OFF; 
....................  
.................... //Banderas//-------------------- 
.................... short IniciaLlenado=OFF,CalderinLleno=OFF,IniciaCiclo=OFF,Esterilizando=OFF,Secando=OFF,SensadoNivel=OFF,Desfogando=OFF,DesfogueSuave=OFF; 
.................... short EstadoDesfogue=OFF,EstadoAgua=OFF,EstadoSSR=OFF,PruebaEstados=OFF,Ciclo=OFF; 
.................... short Op=OFF,Op2=OFF,Minutos=OFF,Segundos=OFF,GuardaEEPROM=OFF,EstadoPaso=OFF,EstadoBuzzer=OFF,flagAlarma=OFF; 
.................... short flagBuzzer=OFF,flagSilencio=OFF,Finalizo=OFF,AlarmaPresion=OFF,Libre=OFF,purga=OFF,Fugas=OFF,disp_Guarda=OFF,guardaCiclo=OFF; 
.................... short PreCalentamiento=OFF,IniciaVacio=OFF,IniciaVacio2=OFF,EstadoAireBomba=OFF; 
.................... short EstadoVacio=OFF,EstadoAire=OFF,EstadoACierre=OFF,entro=OFF,LOW=OFF,HIG=OFF; 
.................... short SensadoNivelL=OFF,NivelBajo=OFF,flagBombaAgua=OFF,flagBombaAguaOff=OFF,ingreso=0,cerro=OFF,abrio=OFF,flagLiquidos=OFF,pulsoSubir=OFF,pulsoBajar=OFF; 
....................  
.................... //Tiempos//--------------------- 
.................... int16 TiempoCiclo=0,TiempoLlenado=0,TiempoSensadoNivel=0,Tp=0,Tc=0,tBombaAgua=0,tBombaAguaOff=0,NivelSeleccionado=0,tiempoApertura=0,tBloqueo=0,tDesbloqueo=0; 
.................... int8 sEst=0,mEst=0,sSec=0,mSec=0,sEstp=0,mEstp=0,sSecp=0,mSecp=0,j=0,cicloVisto=1,codigoUsuario=0,cicloVisualizado=1,codigoUsuario2=0,codigoUsuarioant=0,NivelDes=0,conteo=0,TTrampa=0; 
....................  
.................... //Control//------------------------ 
.................... float promedio[80]={0.0,0.0,0.0,0.0,0.0,0.0,0.0,0.0,0.0,0.0,0.0,0.0,0.0,0.0,0.0,0.0,0.0,0.0,0.0,0.0,0.0,0.0,0.0,0.0,0.0,0.0,0.0,0.0,0.0,0.0,0.0,0.0,0.0,0.0,0.0,0.0,0.0,0.0,0.0,0.0,0.0,0.0,0.0,0.0,0.0,0.0,0.0,0.0,0.0,0.0,0.0,0.0,0.0,0.0,0.0,0.0,0.0,0.0,0.0,0.0,0.0,0.0,0.0,0.0}; 
.................... float PromPresion[20]={0.0,0.0,0.0,0.0,0.0,0.0,0.0,0.0,0.0,0.0,0.0,0.0,0.0,0.0,0.0,0.0,0.0,0.0,0.0,0.0}; 
.................... float PromPresionp[20]={0.0,0.0,0.0,0.0,0.0,0.0,0.0,0.0,0.0,0.0,0.0,0.0,0.0,0.0,0.0,0.0,0.0,0.0,0.0,0.0}; 
.................... float Gain=141.6,RPT100=0.5; 
.................... float R10=6800; 
.................... float X[2]={0.0,0.0}; 
.................... float promediopresion=0.0,Aumento=0.0,promediopresionp=0.0; 
.................... int8 h=0,l=0,Ajuste=0,Ajusten=0,MediaMovil=20,PantallaPrincipal=0,TipoClave=0,Modulo=0,tApertura=0; 
.................... float V0=0.0,Pt,Tciclo=10.0,Tpulso=0.0,error=0.0,Prom=0.0,Temperature=0.0,tmp=0.0,Ganancia=25.0,Ganancia2=20.0,desvio=1.0,tmp2=0.0; 
.................... float V1=0.0,Presion=0.0,V2=0.0,Presionp=0.0; 
.................... float Temperatura=0.0,Temperatura2=0.0,K=0.0012858; 
.................... float a=0.0011,b=2.3302,c=-244.0723; 
.................... int8 Integral=0,Derivativo=0,CicloLibre=0,difPresionC=0,difPresionPC=0; 
....................  
.................... //Varios//-------------------------------- 
.................... int8 CantidadPulsos=4,NivelVacio=25,Pulsos=0,posicionDato=0,codigoAlarma=0,Atmosferica=0,conteoRx=0,comandoRx=0,tAbreSecado=0; 
.................... int16 TiempoVacio=0,tguarda=0,tNivelBajo=0; 
.................... short desfoguelento=0,Lectura=0,Grafica=0; 
.................... short disp_Stop=0,flagTC=0,flagImprime=0,flagImprimir=0; 
.................... int8 Control=0,tiemporecta=0,Controlando=0,ActivaImpresion=1,timpresion=2,CalculoImpresion=0,Inicio=1,Dato_Exitoso=0,Dato2=0; 
.................... int8 Menu=0, MenuAnt=0,MenuAntt=240,i=0,CiclosL=0,CiclosH=0,CicloSeleccionado=0; 
.................... int8 Setpoint=0,Opcion=1,Opcion2=1,tiempo_esterilizacion=0,tiempo_secado=0,tiempoImpresion=0; 
.................... int16 tiempos=0,tiempos2=0,tiempos3=0,tiempoctrl=0,Nivel=0,tinicio=0,PresionCamara=0,PresionPreCamara=0,Ciclos=0; 
.................... int16 tbomba=0,tvacio=0; 
.................... signed int  Password[4]={0,0,0,0};        // Contrasena Almacenada de 4 digitos 
.................... int8 r=0,t=0,r22=0,t2=0,TiempoControl=0; 
.................... int8 y=0,ConteoBuzzer=0,codigoAnt=0,PulsosVacio=0; 
.................... int16 tbuzzer=0,tsilencio=0,t_exhaust=0; 
.................... int8 Year=18,Mes=9,Dia=13,Hora=0,Minuto=0,Segundo=0,dow=0; 
.................... int8 YearTx=0,MesTx=0,DiaTx=0,HoraTx=0,MinutoTx=0,dowTx=0,SetTime=0,Imprime=0; 
.................... signed int8 G1=0,G2=0,sg1=0,sg2=0; 
.................... const char Texto[12][24]={"TEXTIL & INSTRUMENTAL","CAUCHO","LIQUIDOS A","LIQUIDOS B","NO ENVUELTO","ENVUELTO 121", 
.................... "ENVUELTO DOBLE","LIQUIDOS C","SOLIIDOS","DESINFECCION","TEST DE COMPONENTES","HORA Y FECHA"}; 
....................  
.................... //Textil & Instrumental 134C, 5m,15m 
.................... //Prion 134C, 20m,15m 
.................... //Caucho 121C, 25m,15m 
.................... //Contenedores 134C, 5m,25m 
.................... //Rapid 134C, 5m,8m 
....................  
.................... char usuario[20]; 
.................... float TCiclos[7]; 
.................... int16 PcCiclos[7]; 
.................... int16 PpcCiclos[7]; 
.................... int8 horaCiclos[7]; 
.................... int8 minutoCiclos[7]; 
.................... int8 ACiclos[7]; 
.................... int8 diaCiclos=0,mesCiclos=0,yearCiclos=0,usuarioCiclos=0,cicloCiclos=0; 
.................... short estados[30]={0,0,0,0,0,0,0,0,0,0,0,0,0,0,0,0,0,0,0,0,0,0,0,0,0,0,0,0,0,0}; 
....................  
.................... typedef struct{ 
....................    int8 Password[4]; 
.................... }Claves; 
....................  
.................... typedef struct{ 
....................    int8 Temperatura; 
....................    int8 MinutoestH; 
....................    int8 MinutoestL; 
....................    int8 Segundoest; 
....................    int8 Minutosec; 
....................    int8 Segundosec; 
....................    int8 PulsosVacio; 
....................    int8 NivelVacio; 
....................    int8 NivelDesfogue; 
....................    int8 Minutoest; 
.................... }Personalizado; 
....................  
.................... typedef struct{ 
....................    float BN; 
....................    float AN; 
....................    float V0; 
....................    float Pt; 
....................    float RPT100; 
....................    int8 l; 
....................    int8 h; 
....................    float Prom; 
....................    float Temperature; 
....................    int8 Ajuste; 
....................    int8 Ajusten; 
....................    float promedio[80]; 
....................    float Gain; 
.................... }SensorPT100; 
....................  
.................... SensorPT100 Sensor[2]; 
.................... Personalizado CiclosPersonalizados[20]; 
.................... Claves Clave[10]; 
....................  
.................... #include "Funciones.h" 
.................... void BorraBuffer(void){ 
.................... RX_Buffer[0]=0; 
*
05566:  CLRF   30
.................... RX_Buffer[1]=0; 
05568:  CLRF   31
.................... RX_Buffer[2]=0; 
0556A:  CLRF   32
.................... RX_Buffer[3]=0; 
0556C:  CLRF   33
.................... RX_Buffer[4]=0; 
0556E:  CLRF   34
.................... RX_Buffer[5]=0; 
05570:  CLRF   35
.................... RX_Buffer[6]=0; 
05572:  CLRF   36
.................... RX_Buffer[7]=0; 
05574:  CLRF   37
.................... RX_Buffer[8]=0; 
05576:  CLRF   38
.................... RX_Buffer[9]=0; 
05578:  CLRF   39
....................  
.................... RX_Buffer2[0]=0; 
0557A:  CLRF   3B
.................... RX_Buffer2[1]=0; 
0557C:  CLRF   3C
.................... RX_Buffer2[2]=0; 
0557E:  CLRF   3D
.................... RX_Buffer2[3]=0; 
05580:  CLRF   3E
.................... RX_Buffer2[4]=0; 
05582:  CLRF   3F
.................... RX_Buffer2[5]=0; 
05584:  CLRF   40
.................... RX_Buffer2[6]=0; 
05586:  CLRF   41
.................... RX_Buffer2[7]=0; 
05588:  CLRF   42
.................... RX_Buffer2[8]=0; 
0558A:  CLRF   43
.................... RX_Buffer2[9]=0; 
0558C:  CLRF   44
....................  
.................... } 
0558E:  GOTO   55E2 (RETURN)
....................  
.................... char bgetc(void){ 
....................    char c; 
....................    while(RX_Counter==0) 
....................       ; 
....................    c=Rx_Buffer2[RX_Rd_Index]; 
....................    if(++RX_Rd_Index>RX_BUFFER_SIZE) 
....................       RX_Rd_Index=0; 
....................    if(RX_Counter) 
....................       RX_Counter--; 
....................    return c; 
.................... } 
....................  
.................... void bputc(char c){ 
....................    char restart=0; 
....................    while(TX_Counter> (TX_BUFFER_SIZE-1)) 
....................       ; 
....................    if(TX_Counter==0) 
....................       restart=1; 
....................    TX_Buffer[TX_Wr_Index++]=c; 
....................    if(TX_Wr_Index>TX_BUFFER_SIZE) 
....................       TX_Wr_Index=0; 
....................     
....................    TX_Counter++; 
....................     
....................    if(restart==1) 
....................       enable_interrupts(int_tbe); 
.................... } 
....................  
.................... void SendDataDisplay(void){ 
.................... delay_us(10); 
*
03E98:  MOVLW  10
03E9A:  MOVWF  00
03E9C:  DECFSZ 00,F
03E9E:  BRA    3E9C
03EA0:  NOP   
.................... putc(0xFF); 
03EA2:  MOVLW  FF
03EA4:  RCALL  3E90
.................... delay_us(10); 
03EA6:  MOVLW  10
03EA8:  MOVWF  00
03EAA:  DECFSZ 00,F
03EAC:  BRA    3EAA
03EAE:  NOP   
.................... putc(0xFF); 
03EB0:  MOVLW  FF
03EB2:  RCALL  3E90
.................... delay_us(10); 
03EB4:  MOVLW  10
03EB6:  MOVWF  00
03EB8:  DECFSZ 00,F
03EBA:  BRA    3EB8
03EBC:  NOP   
.................... putc(0xFF); 
03EBE:  MOVLW  FF
03EC0:  RCALL  3E90
.................... delay_us(10); 
03EC2:  MOVLW  10
03EC4:  MOVWF  00
03EC6:  DECFSZ 00,F
03EC8:  BRA    3EC6
03ECA:  NOP   
.................... } 
03ECC:  RETLW  00
....................  
.................... short esBisiesto(int8 year) { 
....................      return ((year % 4 == 0 && year % 100 != 0) || year % 400 == 0); 
*
05D8A:  MOVLB  7
05D8C:  MOVF   xB9,W
05D8E:  ANDLW  03
05D90:  BNZ   5DA4
05D92:  MOVFF  7B9,7C2
05D96:  MOVLW  64
05D98:  MOVWF  xC3
05D9A:  MOVLB  0
05D9C:  RCALL  58B4
05D9E:  MOVF   00,F
05DA0:  BNZ   5DD2
05DA2:  MOVLB  7
05DA4:  CLRF   xBE
05DA6:  MOVFF  7B9,7BD
05DAA:  MOVLW  01
05DAC:  MOVWF  xC0
05DAE:  MOVLW  90
05DB0:  MOVWF  xBF
05DB2:  MOVLB  0
05DB4:  RCALL  5D44
05DB6:  MOVFF  00,7BA
05DBA:  MOVLB  7
05DBC:  MOVFF  03,7BB
05DC0:  MOVF   xBA,F
05DC2:  BNZ   5DCE
05DC4:  MOVF   xBB,F
05DC6:  BTFSS  FD8.2
05DC8:  BRA    5DCE
05DCA:  MOVLB  0
05DCC:  BRA    5DD2
05DCE:  MOVLW  00
05DD0:  BRA    5DD6
05DD2:  MOVLW  01
05DD4:  MOVLB  7
05DD6:  MOVWF  01
.................... } 
05DD8:  MOVLB  0
05DDA:  RETLW  00
....................  
.................... void LimitaDia(){ 
....................    if(MesTx>12) 
*
05EC8:  MOVLB  3
05ECA:  MOVF   x8C,W
05ECC:  SUBLW  0C
05ECE:  BC    5ED4
....................       MesTx=10; 
05ED0:  MOVLW  0A
05ED2:  MOVWF  x8C
....................    if(DiaTx>31) 
05ED4:  MOVF   x8D,W
05ED6:  SUBLW  1F
05ED8:  BC    5EDE
....................       DiaTx=16; 
05EDA:  MOVLW  10
05EDC:  MOVWF  x8D
....................    if(YearTx>99) 
05EDE:  MOVF   x8B,W
05EE0:  SUBLW  63
05EE2:  BC    5EE8
....................       YearTx=18;    
05EE4:  MOVLW  12
05EE6:  MOVWF  x8B
....................    if(HoraTx>24) 
05EE8:  MOVF   x8E,W
05EEA:  SUBLW  18
05EEC:  BC    5EF2
....................       HoraTx=11;       
05EEE:  MOVLW  0B
05EF0:  MOVWF  x8E
....................    if(MinutoTx>59) 
05EF2:  MOVF   x8F,W
05EF4:  SUBLW  3B
05EF6:  BC    5EFC
....................       MinutoTx=30;       
05EF8:  MOVLW  1E
05EFA:  MOVWF  x8F
....................     
....................       if(MesTx==2){ 
05EFC:  MOVF   x8C,W
05EFE:  SUBLW  02
05F00:  BNZ   5F2C
....................          if(esBisiesto(YearTx)){ 
05F02:  MOVFF  38B,7B9
05F06:  MOVLB  0
05F08:  RCALL  5D8A
05F0A:  MOVF   01,F
05F0C:  BZ    5F1E
....................             if(DiaTx>29){ 
05F0E:  MOVLB  3
05F10:  MOVF   x8D,W
05F12:  SUBLW  1D
05F14:  BC    5F1A
....................                DiaTx=29; 
05F16:  MOVLW  1D
05F18:  MOVWF  x8D
....................             } 
....................          }else{ 
05F1A:  BRA    5F2A
05F1C:  MOVLB  0
....................             if(DiaTx>28){ 
05F1E:  MOVLB  3
05F20:  MOVF   x8D,W
05F22:  SUBLW  1C
05F24:  BC    5F2A
....................                DiaTx=28; 
05F26:  MOVLW  1C
05F28:  MOVWF  x8D
....................             } 
....................          } 
....................       }else{ 
05F2A:  BRA    5F56
....................          if(MesTx<=7){ 
05F2C:  MOVF   x8C,W
05F2E:  SUBLW  07
05F30:  BNC   5F44
....................             if(MesTx % 2 ==0){ 
05F32:  MOVF   x8C,W
05F34:  ANDLW  01
05F36:  BNZ   5F42
....................                if(DiaTx>30){ 
05F38:  MOVF   x8D,W
05F3A:  SUBLW  1E
05F3C:  BC    5F42
....................                   DiaTx=30;                    
05F3E:  MOVLW  1E
05F40:  MOVWF  x8D
....................                } 
....................             } 
....................          }else{ 
05F42:  BRA    5F56
....................             if(MesTx % 2 ==1){ 
05F44:  MOVF   x8C,W
05F46:  ANDLW  01
05F48:  SUBLW  01
05F4A:  BNZ   5F56
....................                if(DiaTx>30){ 
05F4C:  MOVF   x8D,W
05F4E:  SUBLW  1E
05F50:  BC    5F56
....................                   DiaTx=30;  
05F52:  MOVLW  1E
05F54:  MOVWF  x8D
....................                } 
....................             } 
....................          } 
....................       } 
.................... } 
05F56:  MOVLB  0
05F58:  GOTO   A824 (RETURN)
....................  
.................... void ActualizaRecta(){ 
....................    X[y]=Temperature; 
*
0749C:  MOVLB  3
0749E:  MOVF   x7A,W
074A0:  MULLW  04
074A2:  MOVF   FF3,W
074A4:  CLRF   03
074A6:  ADDLW  BB
074A8:  MOVWF  FE9
074AA:  MOVLW  02
074AC:  ADDWFC 03,W
074AE:  MOVWF  FEA
074B0:  MOVFF  2F0,FEF
074B4:  MOVFF  2F1,FEC
074B8:  MOVFF  2F2,FEC
074BC:  MOVFF  2F3,FEC
....................    y++; 
074C0:  INCF   x7A,F
....................    if(y>=2){ 
074C2:  MOVF   x7A,W
074C4:  SUBLW  01
074C6:  BC    7504
....................       y=0; 
074C8:  CLRF   x7A
....................       Aumento=X[1]-X[0]; 
074CA:  BSF    FD8.1
074CC:  MOVFF  2C2,7CE
074D0:  MOVFF  2C1,7CD
074D4:  MOVFF  2C0,7CC
074D8:  MOVFF  2BF,7CB
074DC:  MOVFF  2BE,7D2
074E0:  MOVFF  2BD,7D1
074E4:  MOVFF  2BC,7D0
074E8:  MOVFF  2BB,7CF
074EC:  MOVLB  0
074EE:  CALL   2384
074F2:  MOVFF  03,2CA
074F6:  MOVFF  02,2C9
074FA:  MOVFF  01,2C8
074FE:  MOVFF  00,2C7
07502:  MOVLB  3
....................    } 
.................... } 
07504:  MOVLB  0
07506:  GOTO   7582 (RETURN)
....................  
.................... // Funcion para conversor analogo-digital 
.................... float sensores(int x){ 
.................... float y;set_adc_channel(x);delay_ms(1);y=read_adc();return (y); 
*
03EF2:  MOVLB  7
03EF4:  RLCF   xBF,W
03EF6:  MOVWF  00
03EF8:  RLCF   00,F
03EFA:  MOVLW  FC
03EFC:  ANDWF  00,F
03EFE:  MOVFF  00,01
03F02:  MOVF   FC2,W
03F04:  ANDLW  C3
03F06:  IORWF  00,W
03F08:  MOVWF  FC2
03F0A:  MOVLW  01
03F0C:  MOVWF  xC9
03F0E:  MOVLB  0
03F10:  CALL   1FA0
03F14:  BSF    FC2.1
03F16:  BTFSC  FC2.1
03F18:  BRA    3F16
03F1A:  MOVFF  FC4,7CC
03F1E:  MOVFF  FC3,7CB
03F22:  MOVLB  0
03F24:  CALL   1F6A
03F28:  MOVFF  03,7C3
03F2C:  MOVFF  02,7C2
03F30:  MOVFF  01,7C1
03F34:  MOVFF  00,7C0
03F38:  MOVFF  7C0,00
03F3C:  MOVFF  7C1,01
03F40:  MOVFF  7C2,02
03F44:  MOVFF  7C3,03
.................... } 
03F48:  RETLW  00
....................  
.................... float LeerPT100(int8 canal,int media) 
.................... { 
....................    Prom=0.0;  
*
04040:  MOVLB  2
04042:  CLRF   xEF
04044:  CLRF   xEE
04046:  CLRF   xED
04048:  CLRF   xEC
....................    Sensor[canal].V0 = sensores(canal);   //Lectura de Divisor de Voltaje de PT100 con resistencia de 6.18k (+-2%) 
0404A:  MOVLB  7
0404C:  CLRF   xC4
0404E:  MOVFF  7BB,7C3
04052:  MOVLW  01
04054:  MOVWF  xC6
04056:  MOVLW  64
04058:  MOVWF  xC5
0405A:  MOVLB  0
0405C:  CALL   203C
04060:  MOVFF  01,7BD
04064:  MOVLW  08
04066:  MOVLB  7
04068:  ADDWF  01,W
0406A:  MOVWF  01
0406C:  MOVLW  00
0406E:  ADDWFC 02,W
04070:  MOVWF  03
04072:  MOVF   01,W
04074:  ADDLW  01
04076:  MOVWF  01
04078:  MOVLW  04
0407A:  ADDWFC 03,F
0407C:  MOVFF  01,7BD
04080:  MOVFF  03,7BE
04084:  MOVFF  7BB,7BF
04088:  MOVLB  0
0408A:  RCALL  3EF2
0408C:  MOVFF  7BE,FEA
04090:  MOVFF  7BD,FE9
04094:  MOVFF  00,FEF
04098:  MOVFF  01,FEC
0409C:  MOVFF  02,FEC
040A0:  MOVFF  03,FEC
....................    Sensor[canal].V0 = Sensor[canal].V0/Sensor[canal].Gain; // Se elimina la ganancia 
040A4:  MOVLB  7
040A6:  CLRF   xC4
040A8:  MOVFF  7BB,7C3
040AC:  MOVLW  01
040AE:  MOVWF  xC6
040B0:  MOVLW  64
040B2:  MOVWF  xC5
040B4:  MOVLB  0
040B6:  CALL   203C
040BA:  MOVFF  01,7BD
040BE:  MOVLW  08
040C0:  MOVLB  7
040C2:  ADDWF  01,W
040C4:  MOVWF  01
040C6:  MOVLW  00
040C8:  ADDWFC 02,W
040CA:  MOVWF  03
040CC:  MOVF   01,W
040CE:  ADDLW  01
040D0:  MOVWF  01
040D2:  MOVLW  04
040D4:  ADDWFC 03,F
040D6:  MOVFF  01,7BD
040DA:  MOVFF  03,7BE
040DE:  CLRF   xC4
040E0:  MOVFF  7BB,7C3
040E4:  MOVLW  01
040E6:  MOVWF  xC6
040E8:  MOVLW  64
040EA:  MOVWF  xC5
040EC:  MOVLB  0
040EE:  CALL   203C
040F2:  MOVFF  01,7BF
040F6:  MOVLW  08
040F8:  MOVLB  7
040FA:  ADDWF  01,W
040FC:  MOVWF  01
040FE:  MOVLW  00
04100:  ADDWFC 02,W
04102:  MOVWF  03
04104:  MOVF   01,W
04106:  ADDLW  01
04108:  MOVWF  FE9
0410A:  MOVLW  04
0410C:  ADDWFC 03,W
0410E:  MOVWF  FEA
04110:  MOVFF  FEF,7BF
04114:  MOVFF  FEC,7C0
04118:  MOVFF  FEC,7C1
0411C:  MOVFF  FEC,7C2
04120:  CLRF   xC4
04122:  MOVFF  7BB,7C3
04126:  MOVLW  01
04128:  MOVWF  xC6
0412A:  MOVLW  64
0412C:  MOVWF  xC5
0412E:  MOVLB  0
04130:  CALL   203C
04134:  MOVFF  02,7C4
04138:  MOVFF  01,7C3
0413C:  MOVLW  60
0413E:  MOVLB  7
04140:  ADDWF  01,W
04142:  MOVWF  01
04144:  MOVLW  01
04146:  ADDWFC 02,W
04148:  MOVWF  03
0414A:  MOVF   01,W
0414C:  ADDLW  01
0414E:  MOVWF  FE9
04150:  MOVLW  04
04152:  ADDWFC 03,W
04154:  MOVWF  FEA
04156:  MOVFF  FEF,00
0415A:  MOVFF  FEC,01
0415E:  MOVFF  FEC,02
04162:  MOVFF  FEC,03
04166:  MOVFF  7C2,7C8
0416A:  MOVFF  7C1,7C7
0416E:  MOVFF  7C0,7C6
04172:  MOVFF  7BF,7C5
04176:  MOVFF  03,7CC
0417A:  MOVFF  02,7CB
0417E:  MOVFF  01,7CA
04182:  MOVFF  00,7C9
04186:  MOVLB  0
04188:  CALL   21E6
0418C:  MOVFF  7BE,FEA
04190:  MOVFF  7BD,FE9
04194:  MOVFF  00,FEF
04198:  MOVFF  01,FEC
0419C:  MOVFF  02,FEC
041A0:  MOVFF  03,FEC
....................    Sensor[canal].V0 = Sensor[canal].V0+14.79; // Se suma voltaje de divisor fijo 
041A4:  MOVLB  7
041A6:  CLRF   xC4
041A8:  MOVFF  7BB,7C3
041AC:  MOVLW  01
041AE:  MOVWF  xC6
041B0:  MOVLW  64
041B2:  MOVWF  xC5
041B4:  MOVLB  0
041B6:  CALL   203C
041BA:  MOVFF  01,7BD
041BE:  MOVLW  08
041C0:  MOVLB  7
041C2:  ADDWF  01,W
041C4:  MOVWF  01
041C6:  MOVLW  00
041C8:  ADDWFC 02,W
041CA:  MOVWF  03
041CC:  MOVF   01,W
041CE:  ADDLW  01
041D0:  MOVWF  01
041D2:  MOVLW  04
041D4:  ADDWFC 03,F
041D6:  MOVFF  01,7BD
041DA:  MOVFF  03,7BE
041DE:  CLRF   xC4
041E0:  MOVFF  7BB,7C3
041E4:  MOVLW  01
041E6:  MOVWF  xC6
041E8:  MOVLW  64
041EA:  MOVWF  xC5
041EC:  MOVLB  0
041EE:  CALL   203C
041F2:  MOVFF  01,7BF
041F6:  MOVLW  08
041F8:  MOVLB  7
041FA:  ADDWF  01,W
041FC:  MOVWF  01
041FE:  MOVLW  00
04200:  ADDWFC 02,W
04202:  MOVWF  03
04204:  MOVF   01,W
04206:  ADDLW  01
04208:  MOVWF  FE9
0420A:  MOVLW  04
0420C:  ADDWFC 03,W
0420E:  MOVWF  FEA
04210:  MOVFF  FEF,7BF
04214:  MOVFF  FEC,7C0
04218:  MOVFF  FEC,7C1
0421C:  MOVFF  FEC,7C2
04220:  MOVFF  FEA,7C4
04224:  MOVFF  FE9,7C3
04228:  BCF    FD8.1
0422A:  MOVFF  7C2,7CE
0422E:  MOVFF  7C1,7CD
04232:  MOVFF  7C0,7CC
04236:  MOVFF  7BF,7CB
0423A:  MOVLW  D7
0423C:  MOVWF  xD2
0423E:  MOVLW  A3
04240:  MOVWF  xD1
04242:  MOVLW  6C
04244:  MOVWF  xD0
04246:  MOVLW  82
04248:  MOVWF  xCF
0424A:  MOVLB  0
0424C:  CALL   2384
04250:  MOVFF  7C4,FEA
04254:  MOVFF  7C3,FE9
04258:  MOVFF  7BE,FEA
0425C:  MOVFF  7BD,FE9
04260:  MOVFF  00,FEF
04264:  MOVFF  01,FEC
04268:  MOVFF  02,FEC
0426C:  MOVFF  03,FEC
....................    //Sensor[canal].BN=(Sensor[canal].V0*(R8+R9))+(1023*R9); 
....................    Sensor[canal].Pt = R10/((1023/Sensor[canal].V0)-1); 
04270:  MOVLB  7
04272:  CLRF   xC4
04274:  MOVFF  7BB,7C3
04278:  MOVLW  01
0427A:  MOVWF  xC6
0427C:  MOVLW  64
0427E:  MOVWF  xC5
04280:  MOVLB  0
04282:  CALL   203C
04286:  MOVFF  01,7BD
0428A:  MOVLW  0C
0428C:  MOVLB  7
0428E:  ADDWF  01,W
04290:  MOVWF  01
04292:  MOVLW  00
04294:  ADDWFC 02,W
04296:  MOVWF  03
04298:  MOVF   01,W
0429A:  ADDLW  01
0429C:  MOVWF  01
0429E:  MOVLW  04
042A0:  ADDWFC 03,F
042A2:  MOVFF  01,7BD
042A6:  MOVFF  03,7BE
042AA:  CLRF   xC4
042AC:  MOVFF  7BB,7C3
042B0:  MOVLW  01
042B2:  MOVWF  xC6
042B4:  MOVLW  64
042B6:  MOVWF  xC5
042B8:  MOVLB  0
042BA:  CALL   203C
042BE:  MOVFF  02,7C0
042C2:  MOVFF  01,7BF
042C6:  MOVLW  08
042C8:  MOVLB  7
042CA:  ADDWF  01,W
042CC:  MOVWF  01
042CE:  MOVLW  00
042D0:  ADDWFC 02,W
042D2:  MOVWF  03
042D4:  MOVF   01,W
042D6:  ADDLW  01
042D8:  MOVWF  FE9
042DA:  MOVLW  04
042DC:  ADDWFC 03,W
042DE:  MOVWF  FEA
042E0:  MOVFF  FEF,00
042E4:  MOVFF  FEC,01
042E8:  MOVFF  FEC,02
042EC:  MOVFF  FEC,03
042F0:  CLRF   xC8
042F2:  MOVLW  C0
042F4:  MOVWF  xC7
042F6:  MOVLW  7F
042F8:  MOVWF  xC6
042FA:  MOVLW  88
042FC:  MOVWF  xC5
042FE:  MOVFF  03,7CC
04302:  MOVFF  02,7CB
04306:  MOVFF  01,7CA
0430A:  MOVFF  00,7C9
0430E:  MOVLB  0
04310:  CALL   21E6
04314:  MOVFF  00,7BF
04318:  MOVFF  01,7C0
0431C:  MOVFF  02,7C1
04320:  MOVFF  03,7C2
04324:  MOVFF  FEA,7C4
04328:  MOVFF  FE9,7C3
0432C:  BSF    FD8.1
0432E:  MOVFF  03,7CE
04332:  MOVFF  02,7CD
04336:  MOVFF  01,7CC
0433A:  MOVFF  00,7CB
0433E:  MOVLB  7
04340:  CLRF   xD2
04342:  CLRF   xD1
04344:  CLRF   xD0
04346:  MOVLW  7F
04348:  MOVWF  xCF
0434A:  MOVLB  0
0434C:  CALL   2384
04350:  MOVFF  7C4,FEA
04354:  MOVFF  7C3,FE9
04358:  MOVFF  2BA,7C8
0435C:  MOVFF  2B9,7C7
04360:  MOVFF  2B8,7C6
04364:  MOVFF  2B7,7C5
04368:  MOVFF  03,7CC
0436C:  MOVFF  02,7CB
04370:  MOVFF  01,7CA
04374:  MOVFF  00,7C9
04378:  CALL   21E6
0437C:  MOVFF  7BE,FEA
04380:  MOVFF  7BD,FE9
04384:  MOVFF  00,FEF
04388:  MOVFF  01,FEC
0438C:  MOVFF  02,FEC
04390:  MOVFF  03,FEC
....................    //Sensor[canal].Pt=Sensor[canal].Pt-Sensor[canal].RPT100; //Ajuste de impedancia de cableado de PT100    
....................              
....................    if(Sensor[canal].l>(media-1)) 
04394:  MOVLB  7
04396:  CLRF   xC4
04398:  MOVFF  7BB,7C3
0439C:  MOVLW  01
0439E:  MOVWF  xC6
043A0:  MOVLW  64
043A2:  MOVWF  xC5
043A4:  MOVLB  0
043A6:  CALL   203C
043AA:  MOVFF  02,7BE
043AE:  MOVFF  01,7BD
043B2:  MOVLW  14
043B4:  MOVLB  7
043B6:  ADDWF  01,W
043B8:  MOVWF  01
043BA:  MOVLW  00
043BC:  ADDWFC 02,W
043BE:  MOVWF  03
043C0:  MOVF   01,W
043C2:  ADDLW  01
043C4:  MOVWF  FE9
043C6:  MOVLW  04
043C8:  ADDWFC 03,W
043CA:  MOVWF  FEA
043CC:  MOVFF  FEF,7BD
043D0:  MOVLW  01
043D2:  SUBWF  xBC,W
043D4:  SUBWF  xBD,W
043D6:  BZ    440E
043D8:  BNC   440E
....................    {Sensor[canal].l=0;} 
043DA:  CLRF   xC4
043DC:  MOVFF  7BB,7C3
043E0:  MOVLW  01
043E2:  MOVWF  xC6
043E4:  MOVLW  64
043E6:  MOVWF  xC5
043E8:  MOVLB  0
043EA:  CALL   203C
043EE:  MOVFF  01,7BD
043F2:  MOVLW  14
043F4:  MOVLB  7
043F6:  ADDWF  01,W
043F8:  MOVWF  01
043FA:  MOVLW  00
043FC:  ADDWFC 02,W
043FE:  MOVWF  03
04400:  MOVF   01,W
04402:  ADDLW  01
04404:  MOVWF  FE9
04406:  MOVLW  04
04408:  ADDWFC 03,W
0440A:  MOVWF  FEA
0440C:  CLRF   FEF
....................     
....................    Sensor[canal].promedio[Sensor[canal].l]=Sensor[canal].Pt;Sensor[canal].l++; 
0440E:  CLRF   xC4
04410:  MOVFF  7BB,7C3
04414:  MOVLW  01
04416:  MOVWF  xC6
04418:  MOVLW  64
0441A:  MOVWF  xC5
0441C:  MOVLB  0
0441E:  CALL   203C
04422:  MOVFF  02,7BE
04426:  MOVFF  01,7BD
0442A:  MOVLW  20
0442C:  MOVLB  7
0442E:  ADDWF  xBD,F
04430:  MOVLW  00
04432:  ADDWFC xBE,F
04434:  CLRF   xC4
04436:  MOVFF  7BB,7C3
0443A:  MOVLW  01
0443C:  MOVWF  xC6
0443E:  MOVLW  64
04440:  MOVWF  xC5
04442:  MOVLB  0
04444:  CALL   203C
04448:  MOVFF  02,7C0
0444C:  MOVFF  01,7BF
04450:  MOVLW  14
04452:  MOVLB  7
04454:  ADDWF  01,W
04456:  MOVWF  01
04458:  MOVLW  00
0445A:  ADDWFC 02,W
0445C:  MOVWF  03
0445E:  MOVF   01,W
04460:  ADDLW  01
04462:  MOVWF  FE9
04464:  MOVLW  04
04466:  ADDWFC 03,W
04468:  MOVWF  FEA
0446A:  CLRF   xC4
0446C:  MOVFF  FEF,7C3
04470:  CLRF   xC6
04472:  MOVLW  04
04474:  MOVWF  xC5
04476:  MOVLB  0
04478:  CALL   203C
0447C:  MOVFF  02,03
04480:  MOVF   01,W
04482:  MOVLB  7
04484:  ADDWF  xBD,W
04486:  MOVWF  01
04488:  MOVF   xBE,W
0448A:  ADDWFC 03,F
0448C:  MOVF   01,W
0448E:  ADDLW  01
04490:  MOVWF  01
04492:  MOVLW  04
04494:  ADDWFC 03,F
04496:  MOVFF  01,7BD
0449A:  MOVFF  03,7BE
0449E:  CLRF   xC4
044A0:  MOVFF  7BB,7C3
044A4:  MOVLW  01
044A6:  MOVWF  xC6
044A8:  MOVLW  64
044AA:  MOVWF  xC5
044AC:  MOVLB  0
044AE:  CALL   203C
044B2:  MOVFF  02,7C0
044B6:  MOVFF  01,7BF
044BA:  MOVLW  0C
044BC:  MOVLB  7
044BE:  ADDWF  01,W
044C0:  MOVWF  01
044C2:  MOVLW  00
044C4:  ADDWFC 02,W
044C6:  MOVWF  03
044C8:  MOVF   01,W
044CA:  ADDLW  01
044CC:  MOVWF  FE9
044CE:  MOVLW  04
044D0:  ADDWFC 03,W
044D2:  MOVWF  FEA
044D4:  MOVFF  FEF,00
044D8:  MOVFF  FEC,01
044DC:  MOVFF  FEC,02
044E0:  MOVFF  FEC,03
044E4:  MOVFF  7BE,FEA
044E8:  MOVFF  7BD,FE9
044EC:  MOVFF  00,FEF
044F0:  MOVFF  01,FEC
044F4:  MOVFF  02,FEC
044F8:  MOVFF  03,FEC
044FC:  CLRF   xC4
044FE:  MOVFF  7BB,7C3
04502:  MOVLW  01
04504:  MOVWF  xC6
04506:  MOVLW  64
04508:  MOVWF  xC5
0450A:  MOVLB  0
0450C:  CALL   203C
04510:  MOVFF  01,7BD
04514:  MOVLW  14
04516:  MOVLB  7
04518:  ADDWF  01,W
0451A:  MOVWF  01
0451C:  MOVLW  00
0451E:  ADDWFC 02,W
04520:  MOVWF  03
04522:  MOVF   01,W
04524:  ADDLW  01
04526:  MOVWF  FE9
04528:  MOVLW  04
0452A:  ADDWFC 03,W
0452C:  MOVWF  FEA
0452E:  INCF   FEF,F
....................           
....................    for(Sensor[canal].h=0;Sensor[canal].h<media;Sensor[canal].h++) 
04530:  CLRF   xC4
04532:  MOVFF  7BB,7C3
04536:  MOVLW  01
04538:  MOVWF  xC6
0453A:  MOVLW  64
0453C:  MOVWF  xC5
0453E:  MOVLB  0
04540:  CALL   203C
04544:  MOVFF  02,7BE
04548:  MOVFF  01,7BD
0454C:  MOVLW  15
0454E:  MOVLB  7
04550:  ADDWF  01,W
04552:  MOVWF  01
04554:  MOVLW  00
04556:  ADDWFC 02,W
04558:  MOVWF  03
0455A:  MOVF   01,W
0455C:  ADDLW  01
0455E:  MOVWF  FE9
04560:  MOVLW  04
04562:  ADDWFC 03,W
04564:  MOVWF  FEA
04566:  CLRF   FEF
04568:  CLRF   xC4
0456A:  MOVFF  7BB,7C3
0456E:  MOVLW  01
04570:  MOVWF  xC6
04572:  MOVLW  64
04574:  MOVWF  xC5
04576:  MOVLB  0
04578:  CALL   203C
0457C:  MOVFF  02,7BE
04580:  MOVFF  01,7BD
04584:  MOVLW  15
04586:  MOVLB  7
04588:  ADDWF  01,W
0458A:  MOVWF  01
0458C:  MOVLW  00
0458E:  ADDWFC 02,W
04590:  MOVWF  03
04592:  MOVF   01,W
04594:  ADDLW  01
04596:  MOVWF  FE9
04598:  MOVLW  04
0459A:  ADDWFC 03,W
0459C:  MOVWF  FEA
0459E:  MOVF   xBC,W
045A0:  SUBWF  FEF,W
045A2:  BTFSC  FD8.0
045A4:  BRA    46C4
....................    { 
....................       Prom+=Sensor[canal].promedio[Sensor[canal].h]; 
045A6:  CLRF   xC4
045A8:  MOVFF  7BB,7C3
045AC:  MOVLW  01
045AE:  MOVWF  xC6
045B0:  MOVLW  64
045B2:  MOVWF  xC5
045B4:  MOVLB  0
045B6:  CALL   203C
045BA:  MOVFF  02,7BE
045BE:  MOVFF  01,7BD
045C2:  MOVLW  20
045C4:  MOVLB  7
045C6:  ADDWF  xBD,F
045C8:  MOVLW  00
045CA:  ADDWFC xBE,F
045CC:  CLRF   xC4
045CE:  MOVFF  7BB,7C3
045D2:  MOVLW  01
045D4:  MOVWF  xC6
045D6:  MOVLW  64
045D8:  MOVWF  xC5
045DA:  MOVLB  0
045DC:  CALL   203C
045E0:  MOVFF  02,7C0
045E4:  MOVFF  01,7BF
045E8:  MOVLW  15
045EA:  MOVLB  7
045EC:  ADDWF  01,W
045EE:  MOVWF  01
045F0:  MOVLW  00
045F2:  ADDWFC 02,W
045F4:  MOVWF  03
045F6:  MOVF   01,W
045F8:  ADDLW  01
045FA:  MOVWF  FE9
045FC:  MOVLW  04
045FE:  ADDWFC 03,W
04600:  MOVWF  FEA
04602:  CLRF   xC4
04604:  MOVFF  FEF,7C3
04608:  CLRF   xC6
0460A:  MOVLW  04
0460C:  MOVWF  xC5
0460E:  MOVLB  0
04610:  CALL   203C
04614:  MOVFF  02,03
04618:  MOVF   01,W
0461A:  MOVLB  7
0461C:  ADDWF  xBD,W
0461E:  MOVWF  01
04620:  MOVF   xBE,W
04622:  ADDWFC 03,F
04624:  MOVF   01,W
04626:  ADDLW  01
04628:  MOVWF  FE9
0462A:  MOVLW  04
0462C:  ADDWFC 03,W
0462E:  MOVWF  FEA
04630:  MOVFF  FEF,00
04634:  MOVFF  FEC,01
04638:  MOVFF  FEC,02
0463C:  MOVFF  FEC,03
04640:  MOVFF  FEA,7BE
04644:  MOVFF  FE9,7BD
04648:  BCF    FD8.1
0464A:  MOVFF  2EF,7CE
0464E:  MOVFF  2EE,7CD
04652:  MOVFF  2ED,7CC
04656:  MOVFF  2EC,7CB
0465A:  MOVFF  03,7D2
0465E:  MOVFF  02,7D1
04662:  MOVFF  01,7D0
04666:  MOVFF  00,7CF
0466A:  MOVLB  0
0466C:  CALL   2384
04670:  MOVFF  7BE,FEA
04674:  MOVFF  7BD,FE9
04678:  MOVFF  03,2EF
0467C:  MOVFF  02,2EE
04680:  MOVFF  01,2ED
04684:  MOVFF  00,2EC
....................    }  
04688:  MOVLB  7
0468A:  CLRF   xC4
0468C:  MOVFF  7BB,7C3
04690:  MOVLW  01
04692:  MOVWF  xC6
04694:  MOVLW  64
04696:  MOVWF  xC5
04698:  MOVLB  0
0469A:  CALL   203C
0469E:  MOVFF  02,7BE
046A2:  MOVFF  01,7BD
046A6:  MOVLW  15
046A8:  MOVLB  7
046AA:  ADDWF  01,W
046AC:  MOVWF  01
046AE:  MOVLW  00
046B0:  ADDWFC 02,W
046B2:  MOVWF  03
046B4:  MOVF   01,W
046B6:  ADDLW  01
046B8:  MOVWF  FE9
046BA:  MOVLW  04
046BC:  ADDWFC 03,W
046BE:  MOVWF  FEA
046C0:  INCF   FEF,F
046C2:  BRA    4568
....................    Prom=Prom/media;    
046C4:  CLRF   xCC
046C6:  MOVFF  7BC,7CB
046CA:  MOVLB  0
046CC:  CALL   1F6A
046D0:  MOVFF  2EF,7C8
046D4:  MOVFF  2EE,7C7
046D8:  MOVFF  2ED,7C6
046DC:  MOVFF  2EC,7C5
046E0:  MOVFF  03,7CC
046E4:  MOVFF  02,7CB
046E8:  MOVFF  01,7CA
046EC:  MOVFF  00,7C9
046F0:  CALL   21E6
046F4:  MOVFF  03,2EF
046F8:  MOVFF  02,2EE
046FC:  MOVFF  01,2ED
04700:  MOVFF  00,2EC
....................    //Temperature=(Prom-100.0)/(0.385);  // Ecuacin determinada por linealizacin en Matlab. Revisar este polinomio.   
....................    Temperature=((Prom*Prom)*a)+(Prom*b)+c;  // Ecuacin determinada por linealizacin en Matlab. Revisar este polinomio. 
04704:  MOVFF  2EF,7D2
04708:  MOVFF  2EE,7D1
0470C:  MOVFF  2ED,7D0
04710:  MOVFF  2EC,7CF
04714:  MOVFF  2EF,7D6
04718:  MOVFF  2EE,7D5
0471C:  MOVFF  2ED,7D4
04720:  MOVFF  2EC,7D3
04724:  RCALL  3F4A
04726:  MOVFF  00,7BD
0472A:  MOVFF  01,7BE
0472E:  MOVFF  02,7BF
04732:  MOVFF  03,7C0
04736:  MOVFF  03,7D2
0473A:  MOVFF  02,7D1
0473E:  MOVFF  01,7D0
04742:  MOVFF  00,7CF
04746:  MOVFF  327,7D6
0474A:  MOVFF  326,7D5
0474E:  MOVFF  325,7D4
04752:  MOVFF  324,7D3
04756:  CALL   3F4A
0475A:  MOVFF  00,7BD
0475E:  MOVFF  01,7BE
04762:  MOVFF  02,7BF
04766:  MOVFF  03,7C0
0476A:  MOVFF  2EF,7D2
0476E:  MOVFF  2EE,7D1
04772:  MOVFF  2ED,7D0
04776:  MOVFF  2EC,7CF
0477A:  MOVFF  32B,7D6
0477E:  MOVFF  32A,7D5
04782:  MOVFF  329,7D4
04786:  MOVFF  328,7D3
0478A:  CALL   3F4A
0478E:  BCF    FD8.1
04790:  MOVFF  7C0,7CE
04794:  MOVFF  7BF,7CD
04798:  MOVFF  7BE,7CC
0479C:  MOVFF  7BD,7CB
047A0:  MOVFF  03,7D2
047A4:  MOVFF  02,7D1
047A8:  MOVFF  01,7D0
047AC:  MOVFF  00,7CF
047B0:  CALL   2384
047B4:  MOVFF  00,7BD
047B8:  MOVFF  01,7BE
047BC:  MOVFF  02,7BF
047C0:  MOVFF  03,7C0
047C4:  BCF    FD8.1
047C6:  MOVFF  03,7CE
047CA:  MOVFF  02,7CD
047CE:  MOVFF  01,7CC
047D2:  MOVFF  00,7CB
047D6:  MOVFF  32F,7D2
047DA:  MOVFF  32E,7D1
047DE:  MOVFF  32D,7D0
047E2:  MOVFF  32C,7CF
047E6:  CALL   2384
047EA:  MOVFF  03,2F3
047EE:  MOVFF  02,2F2
047F2:  MOVFF  01,2F1
047F6:  MOVFF  00,2F0
....................    Temperature+=((float)Sensor[canal].Ajuste-(float)Sensor[canal].Ajusten); 
047FA:  MOVLB  7
047FC:  CLRF   xC4
047FE:  MOVFF  7BB,7C3
04802:  MOVLW  01
04804:  MOVWF  xC6
04806:  MOVLW  64
04808:  MOVWF  xC5
0480A:  MOVLB  0
0480C:  CALL   203C
04810:  MOVFF  02,7BE
04814:  MOVFF  01,7BD
04818:  MOVLW  1E
0481A:  MOVLB  7
0481C:  ADDWF  01,W
0481E:  MOVWF  01
04820:  MOVLW  00
04822:  ADDWFC 02,W
04824:  MOVWF  03
04826:  MOVF   01,W
04828:  ADDLW  01
0482A:  MOVWF  FE9
0482C:  MOVLW  04
0482E:  ADDWFC 03,W
04830:  MOVWF  FEA
04832:  MOVF   FEF,W
04834:  CLRF   xCC
04836:  MOVWF  xCB
04838:  MOVLB  0
0483A:  CALL   1F6A
0483E:  MOVFF  00,7BD
04842:  MOVFF  01,7BE
04846:  MOVFF  02,7BF
0484A:  MOVFF  03,7C0
0484E:  MOVLB  7
04850:  CLRF   xC4
04852:  MOVFF  7BB,7C3
04856:  MOVLW  01
04858:  MOVWF  xC6
0485A:  MOVLW  64
0485C:  MOVWF  xC5
0485E:  MOVLB  0
04860:  CALL   203C
04864:  MOVFF  02,7C2
04868:  MOVFF  01,7C1
0486C:  MOVLW  1F
0486E:  MOVLB  7
04870:  ADDWF  01,W
04872:  MOVWF  01
04874:  MOVLW  00
04876:  ADDWFC 02,W
04878:  MOVWF  03
0487A:  MOVF   01,W
0487C:  ADDLW  01
0487E:  MOVWF  FE9
04880:  MOVLW  04
04882:  ADDWFC 03,W
04884:  MOVWF  FEA
04886:  MOVF   FEF,W
04888:  CLRF   xCC
0488A:  MOVWF  xCB
0488C:  MOVLB  0
0488E:  CALL   1F6A
04892:  MOVFF  FEA,7C2
04896:  MOVFF  FE9,7C1
0489A:  BSF    FD8.1
0489C:  MOVFF  7C0,7CE
048A0:  MOVFF  7BF,7CD
048A4:  MOVFF  7BE,7CC
048A8:  MOVFF  7BD,7CB
048AC:  MOVFF  03,7D2
048B0:  MOVFF  02,7D1
048B4:  MOVFF  01,7D0
048B8:  MOVFF  00,7CF
048BC:  CALL   2384
048C0:  MOVFF  7C2,FEA
048C4:  MOVFF  7C1,FE9
048C8:  MOVFF  FEA,7BE
048CC:  MOVFF  FE9,7BD
048D0:  BCF    FD8.1
048D2:  MOVFF  2F3,7CE
048D6:  MOVFF  2F2,7CD
048DA:  MOVFF  2F1,7CC
048DE:  MOVFF  2F0,7CB
048E2:  MOVFF  03,7D2
048E6:  MOVFF  02,7D1
048EA:  MOVFF  01,7D0
048EE:  MOVFF  00,7CF
048F2:  CALL   2384
048F6:  MOVFF  7BE,FEA
048FA:  MOVFF  7BD,FE9
048FE:  MOVFF  03,2F3
04902:  MOVFF  02,2F2
04906:  MOVFF  01,2F1
0490A:  MOVFF  00,2F0
....................     
....................    return Temperature; 
0490E:  MOVFF  2F0,00
04912:  MOVFF  2F1,01
04916:  MOVFF  2F2,02
0491A:  MOVFF  2F3,03
.................... } 
0491E:  RETLW  00
....................  
.................... float Leer_Sensor_Presion_Camara(int media){ 
....................    promediopresion=0.0; 
04920:  MOVLB  2
04922:  CLRF   xC6
04924:  CLRF   xC5
04926:  CLRF   xC4
04928:  CLRF   xC3
....................    V1 = sensores(5);   //Lectura de Divisor de Voltaje de PT100 con resistencia de 1k (+-10%) 
0492A:  MOVLW  05
0492C:  MOVLB  7
0492E:  MOVWF  xBF
04930:  MOVLB  0
04932:  CALL   3EF2
04936:  MOVFF  03,30B
0493A:  MOVFF  02,30A
0493E:  MOVFF  01,309
04942:  MOVFF  00,308
....................    Presion=(((V1)/1023)-0.04)/K; 
04946:  MOVFF  30B,7C8
0494A:  MOVFF  30A,7C7
0494E:  MOVFF  309,7C6
04952:  MOVFF  308,7C5
04956:  MOVLB  7
04958:  CLRF   xCC
0495A:  MOVLW  C0
0495C:  MOVWF  xCB
0495E:  MOVLW  7F
04960:  MOVWF  xCA
04962:  MOVLW  88
04964:  MOVWF  xC9
04966:  MOVLB  0
04968:  CALL   21E6
0496C:  MOVFF  00,7BC
04970:  MOVFF  01,7BD
04974:  MOVFF  02,7BE
04978:  MOVFF  03,7BF
0497C:  BSF    FD8.1
0497E:  MOVFF  03,7CE
04982:  MOVFF  02,7CD
04986:  MOVFF  01,7CC
0498A:  MOVFF  00,7CB
0498E:  MOVLW  0A
04990:  MOVLB  7
04992:  MOVWF  xD2
04994:  MOVLW  D7
04996:  MOVWF  xD1
04998:  MOVLW  23
0499A:  MOVWF  xD0
0499C:  MOVLW  7A
0499E:  MOVWF  xCF
049A0:  MOVLB  0
049A2:  CALL   2384
049A6:  MOVFF  00,7BC
049AA:  MOVFF  01,7BD
049AE:  MOVFF  02,7BE
049B2:  MOVFF  03,7BF
049B6:  MOVFF  03,7C8
049BA:  MOVFF  02,7C7
049BE:  MOVFF  01,7C6
049C2:  MOVFF  00,7C5
049C6:  MOVFF  323,7CC
049CA:  MOVFF  322,7CB
049CE:  MOVFF  321,7CA
049D2:  MOVFF  320,7C9
049D6:  CALL   21E6
049DA:  MOVFF  03,30F
049DE:  MOVFF  02,30E
049E2:  MOVFF  01,30D
049E6:  MOVFF  00,30C
....................     
....................    if(Presion<0.0) 
049EA:  MOVFF  30F,7C2
049EE:  MOVFF  30E,7C1
049F2:  MOVFF  30D,7C0
049F6:  MOVFF  30C,7BF
049FA:  MOVLB  7
049FC:  CLRF   xC6
049FE:  CLRF   xC5
04A00:  CLRF   xC4
04A02:  CLRF   xC3
04A04:  MOVLB  0
04A06:  CALL   25FC
04A0A:  BNC   4A16
....................       Presion=0.0; 
04A0C:  MOVLB  3
04A0E:  CLRF   x0F
04A10:  CLRF   x0E
04A12:  CLRF   x0D
04A14:  CLRF   x0C
....................     
....................    if(r>media-1) 
04A16:  MOVLW  01
04A18:  MOVLB  7
04A1A:  SUBWF  xBB,W
04A1C:  MOVLB  3
04A1E:  SUBWF  x75,W
04A20:  BZ    4A26
04A22:  BNC   4A26
....................       r=0; 
04A24:  CLRF   x75
....................    PromPresion[r]=Presion;r++; 
04A26:  MOVF   x75,W
04A28:  MULLW  04
04A2A:  MOVF   FF3,W
04A2C:  CLRF   03
04A2E:  ADDLW  0F
04A30:  MOVWF  FE9
04A32:  MOVLW  02
04A34:  ADDWFC 03,W
04A36:  MOVWF  FEA
04A38:  MOVFF  30C,FEF
04A3C:  MOVFF  30D,FEC
04A40:  MOVFF  30E,FEC
04A44:  MOVFF  30F,FEC
04A48:  INCF   x75,F
....................           
....................    for(t=0;t<=(media-1);t++) 
04A4A:  CLRF   x76
04A4C:  MOVLW  01
04A4E:  MOVLB  7
04A50:  SUBWF  xBB,W
04A52:  MOVLB  3
04A54:  SUBWF  x76,W
04A56:  BZ    4A5A
04A58:  BC    4ACA
....................       promediopresion+=PromPresion[t]; 
04A5A:  MOVF   x76,W
04A5C:  MULLW  04
04A5E:  MOVF   FF3,W
04A60:  CLRF   03
04A62:  ADDLW  0F
04A64:  MOVWF  FE9
04A66:  MOVLW  02
04A68:  ADDWFC 03,W
04A6A:  MOVWF  FEA
04A6C:  MOVFF  FEF,00
04A70:  MOVFF  FEC,01
04A74:  MOVFF  FEC,02
04A78:  MOVFF  FEC,03
04A7C:  MOVFF  FEA,7BD
04A80:  MOVFF  FE9,7BC
04A84:  BCF    FD8.1
04A86:  MOVFF  2C6,7CE
04A8A:  MOVFF  2C5,7CD
04A8E:  MOVFF  2C4,7CC
04A92:  MOVFF  2C3,7CB
04A96:  MOVFF  03,7D2
04A9A:  MOVFF  02,7D1
04A9E:  MOVFF  01,7D0
04AA2:  MOVFF  00,7CF
04AA6:  MOVLB  0
04AA8:  CALL   2384
04AAC:  MOVFF  7BD,FEA
04AB0:  MOVFF  7BC,FE9
04AB4:  MOVFF  03,2C6
04AB8:  MOVFF  02,2C5
04ABC:  MOVFF  01,2C4
04AC0:  MOVFF  00,2C3
04AC4:  MOVLB  3
04AC6:  INCF   x76,F
04AC8:  BRA    4A4C
....................      
....................    promediopresion=promediopresion/media;    
04ACA:  MOVLB  7
04ACC:  CLRF   xCC
04ACE:  MOVFF  7BB,7CB
04AD2:  MOVLB  0
04AD4:  CALL   1F6A
04AD8:  MOVFF  2C6,7C8
04ADC:  MOVFF  2C5,7C7
04AE0:  MOVFF  2C4,7C6
04AE4:  MOVFF  2C3,7C5
04AE8:  MOVFF  03,7CC
04AEC:  MOVFF  02,7CB
04AF0:  MOVFF  01,7CA
04AF4:  MOVFF  00,7C9
04AF8:  CALL   21E6
04AFC:  MOVFF  03,2C6
04B00:  MOVFF  02,2C5
04B04:  MOVFF  01,2C4
04B08:  MOVFF  00,2C3
....................     
....................    return promediopresion; 
04B0C:  MOVFF  2C3,00
04B10:  MOVFF  2C4,01
04B14:  MOVFF  2C5,02
04B18:  MOVFF  2C6,03
.................... } 
04B1C:  RETLW  00
....................  
.................... float Leer_Sensor_Presion_PreCamara(int media){ 
....................    promediopresionp=0.0; 
*
04B5A:  MOVLB  2
04B5C:  CLRF   xCE
04B5E:  CLRF   xCD
04B60:  CLRF   xCC
04B62:  CLRF   xCB
....................    V2 = sensores(4);   //Lectura de Divisor de Voltaje de PT100 con resistencia de 1k (+-10%) 
04B64:  MOVLW  04
04B66:  MOVLB  7
04B68:  MOVWF  xBF
04B6A:  MOVLB  0
04B6C:  CALL   3EF2
04B70:  MOVFF  03,313
04B74:  MOVFF  02,312
04B78:  MOVFF  01,311
04B7C:  MOVFF  00,310
....................    //Punto cero con esta ecuacion es 41 cuentas del ADC 
....................    Presionp=(((V2)/1023)-0.04)/K;//K=0.0012858 
04B80:  MOVFF  313,7C8
04B84:  MOVFF  312,7C7
04B88:  MOVFF  311,7C6
04B8C:  MOVFF  310,7C5
04B90:  MOVLB  7
04B92:  CLRF   xCC
04B94:  MOVLW  C0
04B96:  MOVWF  xCB
04B98:  MOVLW  7F
04B9A:  MOVWF  xCA
04B9C:  MOVLW  88
04B9E:  MOVWF  xC9
04BA0:  MOVLB  0
04BA2:  CALL   21E6
04BA6:  MOVFF  00,7BC
04BAA:  MOVFF  01,7BD
04BAE:  MOVFF  02,7BE
04BB2:  MOVFF  03,7BF
04BB6:  BSF    FD8.1
04BB8:  MOVFF  03,7CE
04BBC:  MOVFF  02,7CD
04BC0:  MOVFF  01,7CC
04BC4:  MOVFF  00,7CB
04BC8:  MOVLW  0A
04BCA:  MOVLB  7
04BCC:  MOVWF  xD2
04BCE:  MOVLW  D7
04BD0:  MOVWF  xD1
04BD2:  MOVLW  23
04BD4:  MOVWF  xD0
04BD6:  MOVLW  7A
04BD8:  MOVWF  xCF
04BDA:  MOVLB  0
04BDC:  CALL   2384
04BE0:  MOVFF  00,7BC
04BE4:  MOVFF  01,7BD
04BE8:  MOVFF  02,7BE
04BEC:  MOVFF  03,7BF
04BF0:  MOVFF  03,7C8
04BF4:  MOVFF  02,7C7
04BF8:  MOVFF  01,7C6
04BFC:  MOVFF  00,7C5
04C00:  MOVFF  323,7CC
04C04:  MOVFF  322,7CB
04C08:  MOVFF  321,7CA
04C0C:  MOVFF  320,7C9
04C10:  CALL   21E6
04C14:  MOVFF  03,317
04C18:  MOVFF  02,316
04C1C:  MOVFF  01,315
04C20:  MOVFF  00,314
....................     
....................    if(Presionp<0.0) 
04C24:  MOVFF  317,7C2
04C28:  MOVFF  316,7C1
04C2C:  MOVFF  315,7C0
04C30:  MOVFF  314,7BF
04C34:  MOVLB  7
04C36:  CLRF   xC6
04C38:  CLRF   xC5
04C3A:  CLRF   xC4
04C3C:  CLRF   xC3
04C3E:  MOVLB  0
04C40:  CALL   25FC
04C44:  BNC   4C50
....................       Presionp=0.0; 
04C46:  MOVLB  3
04C48:  CLRF   x17
04C4A:  CLRF   x16
04C4C:  CLRF   x15
04C4E:  CLRF   x14
....................     
....................    if(r22>media-1) 
04C50:  MOVLW  01
04C52:  MOVLB  7
04C54:  SUBWF  xBB,W
04C56:  MOVLB  3
04C58:  SUBWF  x77,W
04C5A:  BZ    4C60
04C5C:  BNC   4C60
....................       r22=0; 
04C5E:  CLRF   x77
....................    PromPresionp[r22]=Presionp;r22++; 
04C60:  MOVF   x77,W
04C62:  MULLW  04
04C64:  MOVF   FF3,W
04C66:  CLRF   03
04C68:  ADDLW  5F
04C6A:  MOVWF  FE9
04C6C:  MOVLW  02
04C6E:  ADDWFC 03,W
04C70:  MOVWF  FEA
04C72:  MOVFF  314,FEF
04C76:  MOVFF  315,FEC
04C7A:  MOVFF  316,FEC
04C7E:  MOVFF  317,FEC
04C82:  INCF   x77,F
....................           
....................    for(t2=0;t2<=(media-1);t2++) 
04C84:  CLRF   x78
04C86:  MOVLW  01
04C88:  MOVLB  7
04C8A:  SUBWF  xBB,W
04C8C:  MOVLB  3
04C8E:  SUBWF  x78,W
04C90:  BZ    4C94
04C92:  BC    4D04
....................       promediopresionp+=PromPresionp[t2];  
04C94:  MOVF   x78,W
04C96:  MULLW  04
04C98:  MOVF   FF3,W
04C9A:  CLRF   03
04C9C:  ADDLW  5F
04C9E:  MOVWF  FE9
04CA0:  MOVLW  02
04CA2:  ADDWFC 03,W
04CA4:  MOVWF  FEA
04CA6:  MOVFF  FEF,00
04CAA:  MOVFF  FEC,01
04CAE:  MOVFF  FEC,02
04CB2:  MOVFF  FEC,03
04CB6:  MOVFF  FEA,7BD
04CBA:  MOVFF  FE9,7BC
04CBE:  BCF    FD8.1
04CC0:  MOVFF  2CE,7CE
04CC4:  MOVFF  2CD,7CD
04CC8:  MOVFF  2CC,7CC
04CCC:  MOVFF  2CB,7CB
04CD0:  MOVFF  03,7D2
04CD4:  MOVFF  02,7D1
04CD8:  MOVFF  01,7D0
04CDC:  MOVFF  00,7CF
04CE0:  MOVLB  0
04CE2:  CALL   2384
04CE6:  MOVFF  7BD,FEA
04CEA:  MOVFF  7BC,FE9
04CEE:  MOVFF  03,2CE
04CF2:  MOVFF  02,2CD
04CF6:  MOVFF  01,2CC
04CFA:  MOVFF  00,2CB
04CFE:  MOVLB  3
04D00:  INCF   x78,F
04D02:  BRA    4C86
....................        
....................    promediopresionp=promediopresionp/media;    
04D04:  MOVLB  7
04D06:  CLRF   xCC
04D08:  MOVFF  7BB,7CB
04D0C:  MOVLB  0
04D0E:  CALL   1F6A
04D12:  MOVFF  2CE,7C8
04D16:  MOVFF  2CD,7C7
04D1A:  MOVFF  2CC,7C6
04D1E:  MOVFF  2CB,7C5
04D22:  MOVFF  03,7CC
04D26:  MOVFF  02,7CB
04D2A:  MOVFF  01,7CA
04D2E:  MOVFF  00,7C9
04D32:  CALL   21E6
04D36:  MOVFF  03,2CE
04D3A:  MOVFF  02,2CD
04D3E:  MOVFF  01,2CC
04D42:  MOVFF  00,2CB
....................     
....................    return promediopresionp; 
04D46:  MOVFF  2CB,00
04D4A:  MOVFF  2CC,01
04D4E:  MOVFF  2CD,02
04D52:  MOVFF  2CE,03
.................... } 
04D56:  RETLW  00
....................  
.................... void Controla(){ 
....................    if(tiemporecta>=Derivativo/2.0){ 
*
0750A:  MOVLB  7
0750C:  CLRF   xCC
0750E:  MOVFF  331,7CB
07512:  MOVLB  0
07514:  CALL   1F6A
07518:  MOVFF  03,7C8
0751C:  MOVFF  02,7C7
07520:  MOVFF  01,7C6
07524:  MOVFF  00,7C5
07528:  MOVLB  7
0752A:  CLRF   xCC
0752C:  CLRF   xCB
0752E:  CLRF   xCA
07530:  MOVLW  80
07532:  MOVWF  xC9
07534:  MOVLB  0
07536:  CALL   21E6
0753A:  MOVFF  00,7B9
0753E:  MOVFF  01,7BA
07542:  MOVFF  02,7BB
07546:  MOVFF  03,7BC
0754A:  MOVLB  7
0754C:  CLRF   xCC
0754E:  MOVFF  346,7CB
07552:  MOVLB  0
07554:  CALL   1F6A
07558:  MOVFF  7BC,7C2
0755C:  MOVFF  7BB,7C1
07560:  MOVFF  7BA,7C0
07564:  MOVFF  7B9,7BF
07568:  MOVFF  03,7C6
0756C:  MOVFF  02,7C5
07570:  MOVFF  01,7C4
07574:  MOVFF  00,7C3
07578:  CALL   25FC
0757C:  BC    7580
0757E:  BNZ   7586
....................       ActualizaRecta(); 
07580:  BRA    749C
....................       tiemporecta=0; 
07582:  MOVLB  3
07584:  CLRF   x46
....................    }  
.................... //-------------------------------Control de Calentamiento------------------------------------------------------------//          
....................    error=desvio+Setpoint-Temperatura;      // Clculo del error ****** 
07586:  MOVLB  7
07588:  CLRF   xCC
0758A:  MOVFF  355,7CB
0758E:  MOVLB  0
07590:  CALL   1F6A
07594:  BCF    FD8.1
07596:  MOVFF  303,7CE
0759A:  MOVFF  302,7CD
0759E:  MOVFF  301,7CC
075A2:  MOVFF  300,7CB
075A6:  MOVFF  03,7D2
075AA:  MOVFF  02,7D1
075AE:  MOVFF  01,7D0
075B2:  MOVFF  00,7CF
075B6:  CALL   2384
075BA:  MOVFF  00,7B9
075BE:  MOVFF  01,7BA
075C2:  MOVFF  02,7BB
075C6:  MOVFF  03,7BC
075CA:  BSF    FD8.1
075CC:  MOVFF  03,7CE
075D0:  MOVFF  02,7CD
075D4:  MOVFF  01,7CC
075D8:  MOVFF  00,7CB
075DC:  MOVFF  31B,7D2
075E0:  MOVFF  31A,7D1
075E4:  MOVFF  319,7D0
075E8:  MOVFF  318,7CF
075EC:  CALL   2384
075F0:  MOVFF  03,2EB
075F4:  MOVFF  02,2EA
075F8:  MOVFF  01,2E9
075FC:  MOVFF  00,2E8
....................     
....................    if(error>1.0 && error<15 && Aumento<0.3){ 
07600:  MOVLB  7
07602:  CLRF   xC2
07604:  CLRF   xC1
07606:  CLRF   xC0
07608:  MOVLW  7F
0760A:  MOVWF  xBF
0760C:  MOVFF  2EB,7C6
07610:  MOVFF  2EA,7C5
07614:  MOVFF  2E9,7C4
07618:  MOVFF  2E8,7C3
0761C:  MOVLB  0
0761E:  CALL   25FC
07622:  BTFSS  FD8.0
07624:  BRA    7800
07626:  MOVFF  2EB,7C2
0762A:  MOVFF  2EA,7C1
0762E:  MOVFF  2E9,7C0
07632:  MOVFF  2E8,7BF
07636:  MOVLB  7
07638:  CLRF   xC6
0763A:  CLRF   xC5
0763C:  MOVLW  70
0763E:  MOVWF  xC4
07640:  MOVLW  82
07642:  MOVWF  xC3
07644:  MOVLB  0
07646:  CALL   25FC
0764A:  BTFSS  FD8.0
0764C:  BRA    7800
0764E:  MOVFF  2CA,7C2
07652:  MOVFF  2C9,7C1
07656:  MOVFF  2C8,7C0
0765A:  MOVFF  2C7,7BF
0765E:  MOVLW  9A
07660:  MOVLB  7
07662:  MOVWF  xC6
07664:  MOVLW  99
07666:  MOVWF  xC5
07668:  MOVLW  19
0766A:  MOVWF  xC4
0766C:  MOVLW  7D
0766E:  MOVWF  xC3
07670:  MOVLB  0
07672:  CALL   25FC
07676:  BTFSS  FD8.0
07678:  BRA    7800
....................       if(Tpulso<7.0){ 
0767A:  MOVFF  2E7,7C2
0767E:  MOVFF  2E6,7C1
07682:  MOVFF  2E5,7C0
07686:  MOVFF  2E4,7BF
0768A:  MOVLB  7
0768C:  CLRF   xC6
0768E:  CLRF   xC5
07690:  MOVLW  60
07692:  MOVWF  xC4
07694:  MOVLW  81
07696:  MOVWF  xC3
07698:  MOVLB  0
0769A:  CALL   25FC
0769E:  BTFSS  FD8.0
076A0:  BRA    77FC
....................          flagTC=1; 
076A2:  MOVLB  3
076A4:  BSF    x44.0
....................          if(TiempoControl>=Derivativo){ 
076A6:  MOVF   x31,W
076A8:  SUBWF  x79,W
076AA:  BTFSS  FD8.0
076AC:  BRA    77F8
....................             TiempoControl=0; 
076AE:  CLRF   x79
....................             if(Aumento<-0.5){ 
076B0:  MOVFF  2CA,7C2
076B4:  MOVFF  2C9,7C1
076B8:  MOVFF  2C8,7C0
076BC:  MOVFF  2C7,7BF
076C0:  MOVLB  7
076C2:  CLRF   xC6
076C4:  CLRF   xC5
076C6:  MOVLW  80
076C8:  MOVWF  xC4
076CA:  MOVLW  7E
076CC:  MOVWF  xC3
076CE:  MOVLB  0
076D0:  CALL   25FC
076D4:  BNC   7720
....................                Ganancia+=Integral+1; 
076D6:  MOVLW  01
076D8:  MOVLB  3
076DA:  ADDWF  x30,W
076DC:  MOVLB  7
076DE:  CLRF   xCC
076E0:  MOVWF  xCB
076E2:  MOVLB  0
076E4:  CALL   1F6A
076E8:  BCF    FD8.1
076EA:  MOVFF  2FB,7CE
076EE:  MOVFF  2FA,7CD
076F2:  MOVFF  2F9,7CC
076F6:  MOVFF  2F8,7CB
076FA:  MOVFF  03,7D2
076FE:  MOVFF  02,7D1
07702:  MOVFF  01,7D0
07706:  MOVFF  00,7CF
0770A:  CALL   2384
0770E:  MOVFF  03,2FB
07712:  MOVFF  02,2FA
07716:  MOVFF  01,2F9
0771A:  MOVFF  00,2F8
....................             }else{ 
0771E:  BRA    77F6
....................                if(Aumento<-0.1){ 
07720:  MOVFF  2CA,7C2
07724:  MOVFF  2C9,7C1
07728:  MOVFF  2C8,7C0
0772C:  MOVFF  2C7,7BF
07730:  MOVLW  CD
07732:  MOVLB  7
07734:  MOVWF  xC6
07736:  MOVLW  CC
07738:  MOVWF  xC5
0773A:  MOVWF  xC4
0773C:  MOVLW  7B
0773E:  MOVWF  xC3
07740:  MOVLB  0
07742:  CALL   25FC
07746:  BNC   77B2
....................                   Ganancia+=Integral+0.5; 
07748:  MOVLB  7
0774A:  CLRF   xCC
0774C:  MOVFF  330,7CB
07750:  MOVLB  0
07752:  CALL   1F6A
07756:  BCF    FD8.1
07758:  MOVFF  03,7CE
0775C:  MOVFF  02,7CD
07760:  MOVFF  01,7CC
07764:  MOVFF  00,7CB
07768:  MOVLB  7
0776A:  CLRF   xD2
0776C:  CLRF   xD1
0776E:  CLRF   xD0
07770:  MOVLW  7E
07772:  MOVWF  xCF
07774:  MOVLB  0
07776:  CALL   2384
0777A:  BCF    FD8.1
0777C:  MOVFF  2FB,7CE
07780:  MOVFF  2FA,7CD
07784:  MOVFF  2F9,7CC
07788:  MOVFF  2F8,7CB
0778C:  MOVFF  03,7D2
07790:  MOVFF  02,7D1
07794:  MOVFF  01,7D0
07798:  MOVFF  00,7CF
0779C:  CALL   2384
077A0:  MOVFF  03,2FB
077A4:  MOVFF  02,2FA
077A8:  MOVFF  01,2F9
077AC:  MOVFF  00,2F8
....................                }else{ 
077B0:  BRA    77F6
....................                   Ganancia+=Integral; 
077B2:  MOVLB  7
077B4:  CLRF   xCC
077B6:  MOVFF  330,7CB
077BA:  MOVLB  0
077BC:  CALL   1F6A
077C0:  BCF    FD8.1
077C2:  MOVFF  2FB,7CE
077C6:  MOVFF  2FA,7CD
077CA:  MOVFF  2F9,7CC
077CE:  MOVFF  2F8,7CB
077D2:  MOVFF  03,7D2
077D6:  MOVFF  02,7D1
077DA:  MOVFF  01,7D0
077DE:  MOVFF  00,7CF
077E2:  CALL   2384
077E6:  MOVFF  03,2FB
077EA:  MOVFF  02,2FA
077EE:  MOVFF  01,2F9
077F2:  MOVFF  00,2F8
077F6:  MOVLB  3
....................                } 
....................             } 
....................          } 
....................       }else{ 
077F8:  BRA    7800
077FA:  MOVLB  0
....................          flagTC=0; 
077FC:  MOVLB  3
077FE:  BCF    x44.0
....................       } 
....................    } 
....................     
....................    if(error<-0.3) 
07800:  MOVFF  2EB,7C2
07804:  MOVFF  2EA,7C1
07808:  MOVFF  2E9,7C0
0780C:  MOVFF  2E8,7BF
07810:  MOVLW  9A
07812:  MOVLB  7
07814:  MOVWF  xC6
07816:  MOVLW  99
07818:  MOVWF  xC5
0781A:  MOVWF  xC4
0781C:  MOVLW  7D
0781E:  MOVWF  xC3
07820:  MOVLB  0
07822:  CALL   25FC
07826:  BNC   7838
....................       Ganancia=Ganancia2; 
07828:  MOVFF  2FF,2FB
0782C:  MOVFF  2FE,2FA
07830:  MOVFF  2FD,2F9
07834:  MOVFF  2FC,2F8
....................     
....................    if(Ganancia<1) 
07838:  MOVFF  2FB,7C2
0783C:  MOVFF  2FA,7C1
07840:  MOVFF  2F9,7C0
07844:  MOVFF  2F8,7BF
07848:  MOVLB  7
0784A:  CLRF   xC6
0784C:  CLRF   xC5
0784E:  CLRF   xC4
07850:  MOVLW  7F
07852:  MOVWF  xC3
07854:  MOVLB  0
07856:  CALL   25FC
0785A:  BNC   7868
....................       Ganancia=1; 
0785C:  MOVLB  2
0785E:  CLRF   xFB
07860:  CLRF   xFA
07862:  CLRF   xF9
07864:  MOVLW  7F
07866:  MOVWF  xF8
....................     
....................    if(error<0.0)     // Anti Wind_DOWN     
07868:  MOVFF  2EB,7C2
0786C:  MOVFF  2EA,7C1
07870:  MOVFF  2E9,7C0
07874:  MOVFF  2E8,7BF
07878:  MOVLB  7
0787A:  CLRF   xC6
0787C:  CLRF   xC5
0787E:  CLRF   xC4
07880:  CLRF   xC3
07882:  MOVLB  0
07884:  CALL   25FC
07888:  BNC   7896
....................       error=0.0; 
0788A:  MOVLB  2
0788C:  CLRF   xEB
0788E:  CLRF   xEA
07890:  CLRF   xE9
07892:  CLRF   xE8
07894:  MOVLB  0
....................    //tmp=(Setpoint-Prom)*Ganancia;  // Control Proporcional. 
....................    tmp=error*Ganancia;  // Control Proporcional. 
07896:  MOVFF  2EB,7D2
0789A:  MOVFF  2EA,7D1
0789E:  MOVFF  2E9,7D0
078A2:  MOVFF  2E8,7CF
078A6:  MOVFF  2FB,7D6
078AA:  MOVFF  2FA,7D5
078AE:  MOVFF  2F9,7D4
078B2:  MOVFF  2F8,7D3
078B6:  CALL   3F4A
078BA:  MOVFF  03,2F7
078BE:  MOVFF  02,2F6
078C2:  MOVFF  01,2F5
078C6:  MOVFF  00,2F4
....................           
....................    if(tmp>Setpoint)   // Anti Wind-UP       
078CA:  MOVLB  7
078CC:  CLRF   xCC
078CE:  MOVFF  355,7CB
078D2:  MOVLB  0
078D4:  CALL   1F6A
078D8:  MOVFF  03,7C2
078DC:  MOVFF  02,7C1
078E0:  MOVFF  01,7C0
078E4:  MOVFF  00,7BF
078E8:  MOVFF  2F7,7C6
078EC:  MOVFF  2F6,7C5
078F0:  MOVFF  2F5,7C4
078F4:  MOVFF  2F4,7C3
078F8:  CALL   25FC
078FC:  BNC   791C
....................       tmp=Setpoint; 
078FE:  MOVLB  7
07900:  CLRF   xCC
07902:  MOVFF  355,7CB
07906:  MOVLB  0
07908:  CALL   1F6A
0790C:  MOVFF  03,2F7
07910:  MOVFF  02,2F6
07914:  MOVFF  01,2F5
07918:  MOVFF  00,2F4
....................                 
....................    if(tmp<0.0)     // Anti Wind_DOWN     
0791C:  MOVFF  2F7,7C2
07920:  MOVFF  2F6,7C1
07924:  MOVFF  2F5,7C0
07928:  MOVFF  2F4,7BF
0792C:  MOVLB  7
0792E:  CLRF   xC6
07930:  CLRF   xC5
07932:  CLRF   xC4
07934:  CLRF   xC3
07936:  MOVLB  0
07938:  CALL   25FC
0793C:  BNC   7948
....................       tmp=0.0; 
0793E:  MOVLB  2
07940:  CLRF   xF7
07942:  CLRF   xF6
07944:  CLRF   xF5
07946:  CLRF   xF4
....................     
....................    // Tpulso(t)= Tciclo*(y(t)-ymin)/(ymax - ymin); calculo de ciclo util para control de resistencia.ymax=140.ymin=0; 
....................    // Tpulso es float, hay que pasar ese ciclo a una salida de un puerto usando el TMR1. 
....................    tmp2=(tmp/Setpoint); 
07948:  MOVLB  7
0794A:  CLRF   xCC
0794C:  MOVFF  355,7CB
07950:  MOVLB  0
07952:  CALL   1F6A
07956:  MOVFF  2F7,7C8
0795A:  MOVFF  2F6,7C7
0795E:  MOVFF  2F5,7C6
07962:  MOVFF  2F4,7C5
07966:  MOVFF  03,7CC
0796A:  MOVFF  02,7CB
0796E:  MOVFF  01,7CA
07972:  MOVFF  00,7C9
07976:  CALL   21E6
0797A:  MOVFF  03,307
0797E:  MOVFF  02,306
07982:  MOVFF  01,305
07986:  MOVFF  00,304
....................    //if(tmp2>0.8) 
....................    //tmp2=0.8; 
....................    Tpulso=tmp2*Tciclo;   
0798A:  MOVFF  307,7D2
0798E:  MOVFF  306,7D1
07992:  MOVFF  305,7D0
07996:  MOVFF  304,7CF
0799A:  MOVFF  2E3,7D6
0799E:  MOVFF  2E2,7D5
079A2:  MOVFF  2E1,7D4
079A6:  MOVFF  2E0,7D3
079AA:  CALL   3F4A
079AE:  MOVFF  03,2E7
079B2:  MOVFF  02,2E6
079B6:  MOVFF  01,2E5
079BA:  MOVFF  00,2E4
....................                                        
....................    Tp=(Tpulso/0.005); 
079BE:  MOVFF  2E7,7C8
079C2:  MOVFF  2E6,7C7
079C6:  MOVFF  2E5,7C6
079CA:  MOVFF  2E4,7C5
079CE:  MOVLW  0A
079D0:  MOVLB  7
079D2:  MOVWF  xCC
079D4:  MOVLW  D7
079D6:  MOVWF  xCB
079D8:  MOVLW  23
079DA:  MOVWF  xCA
079DC:  MOVLW  77
079DE:  MOVWF  xC9
079E0:  MOVLB  0
079E2:  CALL   21E6
079E6:  MOVFF  03,7CE
079EA:  MOVFF  02,7CD
079EE:  MOVFF  01,7CC
079F2:  MOVFF  00,7CB
079F6:  CALL   4B1E
079FA:  MOVFF  02,AF
079FE:  MOVFF  01,AE
....................    Tc=(Tciclo/0.005); 
07A02:  MOVFF  2E3,7C8
07A06:  MOVFF  2E2,7C7
07A0A:  MOVFF  2E1,7C6
07A0E:  MOVFF  2E0,7C5
07A12:  MOVLW  0A
07A14:  MOVLB  7
07A16:  MOVWF  xCC
07A18:  MOVLW  D7
07A1A:  MOVWF  xCB
07A1C:  MOVLW  23
07A1E:  MOVWF  xCA
07A20:  MOVLW  77
07A22:  MOVWF  xC9
07A24:  MOVLB  0
07A26:  CALL   21E6
07A2A:  MOVFF  03,7CE
07A2E:  MOVFF  02,7CD
07A32:  MOVFF  01,7CC
07A36:  MOVFF  00,7CB
07A3A:  CALL   4B1E
07A3E:  MOVFF  02,B1
07A42:  MOVFF  01,B0
....................    Controlando=1;    
07A46:  MOVLW  01
07A48:  MOVLB  3
07A4A:  MOVWF  x47
.................... //--------------------------------------------------------------------------------------------------------------------//    
.................... } 
07A4C:  MOVLB  0
07A4E:  RETLW  00
....................  
.................... void Envio_I2C(direccion, posicion, dato){ 
....................  
....................    i2c_start();            // Comienzo comunicacin 
*
04D58:  BSF    F94.4
04D5A:  MOVLW  05
04D5C:  MOVWF  00
04D5E:  DECFSZ 00,F
04D60:  BRA    4D5E
04D62:  BSF    F94.3
04D64:  MOVLW  06
04D66:  MOVWF  00
04D68:  DECFSZ 00,F
04D6A:  BRA    4D68
04D6C:  BCF    F8B.4
04D6E:  BCF    F94.4
04D70:  MOVLW  05
04D72:  MOVWF  00
04D74:  DECFSZ 00,F
04D76:  BRA    4D74
04D78:  BCF    F8B.3
04D7A:  BCF    F94.3
....................    i2c_write(direccion);   // Direccin del esclavo en el bus I2C 
04D7C:  MOVFF  7CA,7CD
04D80:  CALL   205E
....................    i2c_write(posicion);    // Posicin donde se guardara el dato transmitido 
04D84:  MOVFF  7CB,7CD
04D88:  CALL   205E
....................    i2c_write(dato);        // Dato a transmitir 
04D8C:  MOVFF  7CC,7CD
04D90:  CALL   205E
....................    i2c_stop();             // Fin comunicacin 
04D94:  BCF    F94.4
04D96:  NOP   
04D98:  BSF    F94.3
04D9A:  BTFSS  F82.3
04D9C:  BRA    4D9A
04D9E:  MOVLW  05
04DA0:  MOVWF  00
04DA2:  DECFSZ 00,F
04DA4:  BRA    4DA2
04DA6:  BRA    4DA8
04DA8:  NOP   
04DAA:  BSF    F94.4
04DAC:  MOVLW  05
04DAE:  MOVWF  00
04DB0:  DECFSZ 00,F
04DB2:  BRA    4DB0
....................  } 
04DB4:  RETLW  00
....................  
.................... void Lectura_I2C (byte direccion, byte posicion, byte &dato) { 
....................  
....................    i2c_start();            // Comienzo de la comunicacin 
*
0A042:  BSF    F94.4
0A044:  MOVLW  05
0A046:  MOVWF  00
0A048:  DECFSZ 00,F
0A04A:  BRA    A048
0A04C:  BSF    F94.3
0A04E:  MOVLW  06
0A050:  MOVWF  00
0A052:  DECFSZ 00,F
0A054:  BRA    A052
0A056:  BCF    F8B.4
0A058:  BCF    F94.4
0A05A:  MOVLW  05
0A05C:  MOVWF  00
0A05E:  DECFSZ 00,F
0A060:  BRA    A05E
0A062:  BCF    F8B.3
0A064:  BCF    F94.3
*
0A0E4:  BSF    F94.4
0A0E6:  MOVLW  05
0A0E8:  MOVWF  00
0A0EA:  DECFSZ 00,F
0A0EC:  BRA    A0EA
0A0EE:  BSF    F94.3
0A0F0:  MOVLW  06
0A0F2:  MOVWF  00
0A0F4:  DECFSZ 00,F
0A0F6:  BRA    A0F4
0A0F8:  BCF    F8B.4
0A0FA:  BCF    F94.4
0A0FC:  MOVLW  05
0A0FE:  MOVWF  00
0A100:  DECFSZ 00,F
0A102:  BRA    A100
0A104:  BCF    F8B.3
0A106:  BCF    F94.3
....................    i2c_write(direccion);   // Direccin del esclavo en el bus I2C 
*
0A066:  MOVFF  7B9,7CD
0A06A:  MOVLB  0
0A06C:  CALL   205E
*
0A108:  MOVFF  7B9,7CD
0A10C:  MOVLB  0
0A10E:  CALL   205E
....................    i2c_write(posicion);    // Posicin de donde se leer el dato en el esclavo 
*
0A070:  MOVFF  7BA,7CD
0A074:  CALL   205E
*
0A112:  MOVFF  7BA,7CD
0A116:  CALL   205E
....................    i2c_start();            // Reinicio 
*
0A078:  BSF    F94.4
0A07A:  MOVLW  05
0A07C:  MOVWF  00
0A07E:  DECFSZ 00,F
0A080:  BRA    A07E
0A082:  BSF    F94.3
0A084:  MOVLW  06
0A086:  MOVWF  00
0A088:  DECFSZ 00,F
0A08A:  BRA    A088
0A08C:  BTFSS  F82.3
0A08E:  BRA    A08C
0A090:  BCF    F8B.4
0A092:  BCF    F94.4
0A094:  MOVLW  05
0A096:  MOVWF  00
0A098:  DECFSZ 00,F
0A09A:  BRA    A098
0A09C:  BCF    F8B.3
0A09E:  BCF    F94.3
*
0A11A:  BSF    F94.4
0A11C:  MOVLW  05
0A11E:  MOVWF  00
0A120:  DECFSZ 00,F
0A122:  BRA    A120
0A124:  BSF    F94.3
0A126:  MOVLW  06
0A128:  MOVWF  00
0A12A:  DECFSZ 00,F
0A12C:  BRA    A12A
0A12E:  BTFSS  F82.3
0A130:  BRA    A12E
0A132:  BCF    F8B.4
0A134:  BCF    F94.4
0A136:  MOVLW  05
0A138:  MOVWF  00
0A13A:  DECFSZ 00,F
0A13C:  BRA    A13A
0A13E:  BCF    F8B.3
0A140:  BCF    F94.3
....................    i2c_write(direccion+1); // Direccin del esclavo en modo lectura 
*
0A0A0:  MOVLW  01
0A0A2:  MOVLB  7
0A0A4:  ADDWF  xB9,W
0A0A6:  MOVWF  xBB
0A0A8:  MOVWF  xCD
0A0AA:  MOVLB  0
0A0AC:  CALL   205E
*
0A142:  MOVLW  01
0A144:  MOVLB  7
0A146:  ADDWF  xB9,W
0A148:  MOVWF  xBB
0A14A:  MOVWF  xCD
0A14C:  MOVLB  0
0A14E:  CALL   205E
....................    dato=i2c_read(0);       // Lectura del dato 
*
0A0B0:  CLRF   00
0A0B2:  CALL   20D4
0A0B6:  MOVFF  01,33B
*
0A152:  CLRF   00
0A154:  CALL   20D4
0A158:  MOVFF  01,33C
....................    i2c_stop();             // Fin comunicacin 
*
0A0BA:  BCF    F94.4
0A0BC:  NOP   
0A0BE:  BSF    F94.3
0A0C0:  BTFSS  F82.3
0A0C2:  BRA    A0C0
0A0C4:  MOVLW  05
0A0C6:  MOVWF  00
0A0C8:  DECFSZ 00,F
0A0CA:  BRA    A0C8
0A0CC:  BRA    A0CE
0A0CE:  NOP   
0A0D0:  BSF    F94.4
0A0D2:  MOVLW  05
0A0D4:  MOVWF  00
0A0D6:  DECFSZ 00,F
0A0D8:  BRA    A0D6
*
0A15C:  BCF    F94.4
0A15E:  NOP   
0A160:  BSF    F94.3
0A162:  BTFSS  F82.3
0A164:  BRA    A162
0A166:  MOVLW  05
0A168:  MOVWF  00
0A16A:  DECFSZ 00,F
0A16C:  BRA    A16A
0A16E:  BRA    A170
0A170:  NOP   
0A172:  BSF    F94.4
0A174:  MOVLW  05
0A176:  MOVWF  00
0A178:  DECFSZ 00,F
0A17A:  BRA    A178
.................... } 
....................  
.................... void Carga_Vector(void){ 
....................    SlaveA0Tx[0]=(int8)Temperatura; 
*
05032:  MOVFF  31B,7CE
05036:  MOVFF  31A,7CD
0503A:  MOVFF  319,7CC
0503E:  MOVFF  318,7CB
05042:  RCALL  4B1E
05044:  MOVFF  01,64
....................    SlaveA0Tx[1]=(Temperatura-((int8)Temperatura))*10; 
05048:  MOVFF  31B,7CE
0504C:  MOVFF  31A,7CD
05050:  MOVFF  319,7CC
05054:  MOVFF  318,7CB
05058:  RCALL  4B1E
0505A:  MOVLB  7
0505C:  CLRF   xCC
0505E:  MOVFF  01,7CB
05062:  MOVLB  0
05064:  CALL   1F6A
05068:  BSF    FD8.1
0506A:  MOVFF  31B,7CE
0506E:  MOVFF  31A,7CD
05072:  MOVFF  319,7CC
05076:  MOVFF  318,7CB
0507A:  MOVFF  03,7D2
0507E:  MOVFF  02,7D1
05082:  MOVFF  01,7D0
05086:  MOVFF  00,7CF
0508A:  CALL   2384
0508E:  MOVFF  00,7C9
05092:  MOVFF  01,7CA
05096:  MOVFF  02,7CB
0509A:  MOVFF  03,7CC
0509E:  MOVFF  03,7D2
050A2:  MOVFF  02,7D1
050A6:  MOVFF  01,7D0
050AA:  MOVFF  00,7CF
050AE:  MOVLB  7
050B0:  CLRF   xD6
050B2:  CLRF   xD5
050B4:  MOVLW  20
050B6:  MOVWF  xD4
050B8:  MOVLW  82
050BA:  MOVWF  xD3
050BC:  MOVLB  0
050BE:  CALL   3F4A
050C2:  MOVFF  03,7CE
050C6:  MOVFF  02,7CD
050CA:  MOVFF  01,7CC
050CE:  MOVFF  00,7CB
050D2:  RCALL  4B1E
050D4:  MOVFF  01,65
....................    SlaveA0Tx[2]=make8((int16)PresionCamara,0); 
050D8:  MOVFF  367,66
050DC:  MOVLB  0
....................    SlaveA0Tx[3]=make8((int16)PresionCamara,1); 
050DE:  MOVFF  368,67
050E2:  MOVLB  0
....................    SlaveA0Tx[4]=make8((int16)PresionPreCamara,0); 
050E4:  MOVFF  369,68
050E8:  MOVLB  0
....................    SlaveA0Tx[5]=make8((int16)PresionPreCamara,1); 
050EA:  MOVFF  36A,69
050EE:  MOVLB  0
....................    SlaveA0Tx[6]=(int8)Tpulso*10; 
050F0:  MOVFF  2E7,7CE
050F4:  MOVFF  2E6,7CD
050F8:  MOVFF  2E5,7CC
050FC:  MOVFF  2E4,7CB
05100:  RCALL  4B1E
05102:  MOVF   01,W
05104:  MULLW  0A
05106:  MOVFF  FF3,6A
....................    SlaveA0Tx[7]=HIG; 
0510A:  CLRF   x6B
0510C:  BTFSC  xA6.1
0510E:  INCF   x6B,F
....................    SlaveA0Tx[8]=LOW; 
05110:  CLRF   x6C
05112:  BTFSC  xA6.0
05114:  INCF   x6C,F
....................    SlaveA0Tx[9]=TERM; 
05116:  BSF    F93.4
05118:  CLRF   x6D
0511A:  BTFSC  F81.4
0511C:  INCF   x6D,F
....................    SlaveA0Tx[10]=DOOR; 
0511E:  BSF    F93.7
05120:  CLRF   x6E
05122:  BTFSS  F81.7
05124:  INCF   x6E,F
....................    SlaveA0Tx[11]=STOP; 
05126:  BSF    F93.5
05128:  CLRF   x6F
0512A:  BTFSS  F81.5
0512C:  INCF   x6F,F
....................    SlaveA0Tx[12]=(int8)error; 
0512E:  MOVFF  2EB,7CE
05132:  MOVFF  2EA,7CD
05136:  MOVFF  2E9,7CC
0513A:  MOVFF  2E8,7CB
0513E:  RCALL  4B1E
05140:  MOVFF  01,70
....................    SlaveA0Tx[13]=CicloSeleccionado; 
05144:  MOVFF  354,71
....................    SlaveA0Tx[14]=SetTime; 
05148:  MOVFF  391,72
....................    SlaveA0Tx[15]=Dia; 
0514C:  MOVFF  386,73
....................    SlaveA0Tx[16]=Mes; 
05150:  MOVFF  385,74
....................    SlaveA0Tx[17]=Year; 
05154:  MOVFF  384,75
....................    SlaveA0Tx[18]=Hora; 
05158:  MOVFF  387,76
....................    SlaveA0Tx[19]=Minuto; 
0515C:  MOVFF  388,77
....................    SlaveA0Tx[20]=Segundo; 
05160:  MOVFF  389,78
....................    SlaveA0Tx[21]=Imprime; 
05164:  MOVFF  392,79
....................    SlaveA0Tx[22]=make8(Ciclos,0); 
05168:  MOVFF  36B,7A
0516C:  MOVLB  0
....................    SlaveA0Tx[23]=make8(Ciclos,1); 
0516E:  MOVFF  36C,7B
05172:  MOVLB  0
.................... } 
05174:  GOTO   517A (RETURN)
....................  
.................... void Lee_Vector(void){ 
....................    /*Dia=txbuf[0]; 
....................    Mess=txbuf[1]; 
....................    Year=txbuf[2]; 
....................    Hora=txbuf[3]; 
....................    Minuto=txbuf[4]; 
....................    Segundo=txbuf[5]; 
....................    dow=txbuf[6];*/ 
.................... } 
....................  
.................... void Envio_Esclavos(void){ 
....................    Carga_Vector(); 
05178:  BRA    5032
....................    for(i=0;i<24;i++){ 
0517A:  MOVLB  3
0517C:  CLRF   x51
0517E:  MOVF   x51,W
05180:  SUBLW  17
05182:  BNC   51B4
....................       direccion=0xB0; 
05184:  MOVLW  B0
05186:  MOVLB  0
05188:  MOVWF  x85
....................       Envio_I2C(direccion,i,SlaveA0Tx[i]); 
0518A:  CLRF   03
0518C:  MOVLB  3
0518E:  MOVF   x51,W
05190:  ADDLW  64
05192:  MOVWF  FE9
05194:  MOVLW  00
05196:  ADDWFC 03,W
05198:  MOVWF  FEA
0519A:  MOVFF  FEF,7C9
0519E:  MOVFF  85,7CA
051A2:  MOVFF  351,7CB
051A6:  MOVFF  7C9,7CC
051AA:  MOVLB  0
051AC:  RCALL  4D58
....................    }  
051AE:  MOVLB  3
051B0:  INCF   x51,F
051B2:  BRA    517E
.................... } 
051B4:  MOVLB  0
051B6:  RETLW  00
.................... void Lectura_Esclavos(void){ 
....................    //for(i=0;i<7;i++) 
....................    //{ 
....................    //   direccion=0xA0;                        //Direccin en el bus I2c 
....................    //   posicion=i;                         //Posicin de memoria a leer 
....................    //   Lectura_I2C(direccion, posicion, dato);    //Lectura por I2C 
....................    //   txbuf[i]=(int8)dato; 
....................    //} 
....................    //Lee_Vector(); 
.................... } 
....................  
.................... int8 extraeDecimal(float data){ 
*
06F26:  MOVLB  7
06F28:  CLRF   xC6
06F2A:  CLRF   xC5
06F2C:  CLRF   xC4
06F2E:  CLRF   xC3
06F30:  CLRF   xCA
06F32:  CLRF   xC9
06F34:  CLRF   xC8
06F36:  CLRF   xC7
....................    float entero=0; 
....................    float tmp=0.0; 
....................     
....................    entero=(int8)data; 
06F38:  MOVFF  7C2,7CE
06F3C:  MOVFF  7C1,7CD
06F40:  MOVFF  7C0,7CC
06F44:  MOVFF  7BF,7CB
06F48:  MOVLB  0
06F4A:  CALL   4B1E
06F4E:  MOVLB  7
06F50:  CLRF   xCC
06F52:  MOVFF  01,7CB
06F56:  MOVLB  0
06F58:  CALL   1F6A
06F5C:  MOVFF  03,7C6
06F60:  MOVFF  02,7C5
06F64:  MOVFF  01,7C4
06F68:  MOVFF  00,7C3
....................    tmp=(data-entero)*10; 
06F6C:  BSF    FD8.1
06F6E:  MOVFF  7C2,7CE
06F72:  MOVFF  7C1,7CD
06F76:  MOVFF  7C0,7CC
06F7A:  MOVFF  7BF,7CB
06F7E:  MOVFF  7C6,7D2
06F82:  MOVFF  7C5,7D1
06F86:  MOVFF  7C4,7D0
06F8A:  MOVFF  7C3,7CF
06F8E:  CALL   2384
06F92:  MOVFF  00,7CB
06F96:  MOVFF  01,7CC
06F9A:  MOVFF  02,7CD
06F9E:  MOVFF  03,7CE
06FA2:  MOVFF  03,7D2
06FA6:  MOVFF  02,7D1
06FAA:  MOVFF  01,7D0
06FAE:  MOVFF  00,7CF
06FB2:  MOVLB  7
06FB4:  CLRF   xD6
06FB6:  CLRF   xD5
06FB8:  MOVLW  20
06FBA:  MOVWF  xD4
06FBC:  MOVLW  82
06FBE:  MOVWF  xD3
06FC0:  MOVLB  0
06FC2:  CALL   3F4A
06FC6:  MOVFF  03,7CA
06FCA:  MOVFF  02,7C9
06FCE:  MOVFF  01,7C8
06FD2:  MOVFF  00,7C7
....................    return (int8)tmp; 
06FD6:  MOVFF  7CA,7CE
06FDA:  MOVFF  7C9,7CD
06FDE:  MOVFF  7C8,7CC
06FE2:  MOVFF  7C7,7CB
06FE6:  CALL   4B1E
06FEA:  MOVF   01,W
.................... } 
06FEC:  GOTO   70FE (RETURN)
....................  
.................... float inttofloat(int8 decimal){ 
....................    float tmp; 
....................    tmp=decimal; 
*
02344:  MOVLB  7
02346:  CLRF   xCC
02348:  MOVFF  7BD,7CB
0234C:  MOVLB  0
0234E:  RCALL  1F6A
02350:  MOVFF  03,7C1
02354:  MOVFF  02,7C0
02358:  MOVFF  01,7BF
0235C:  MOVFF  00,7BE
....................    return tmp/10; 
02360:  MOVFF  7C1,7C8
02364:  MOVFF  7C0,7C7
02368:  MOVFF  7BF,7C6
0236C:  MOVFF  7BE,7C5
02370:  MOVLB  7
02372:  CLRF   xCC
02374:  CLRF   xCB
02376:  MOVLW  20
02378:  MOVWF  xCA
0237A:  MOVLW  82
0237C:  MOVWF  xC9
0237E:  MOVLB  0
02380:  RCALL  21E6
.................... } 
02382:  RETLW  00
....................  
.................... void LeeEEPROM(){ 
.................... //Lectura EEPROM//-------------------------- 
....................    Ganancia=read_eeprom(20); 
*
02676:  MOVFF  FF2,7B9
0267A:  BCF    FF2.6
0267C:  BCF    FF2.7
0267E:  CLRF   FAA
02680:  MOVLW  14
02682:  MOVWF  FA9
02684:  BCF    FA6.6
02686:  BCF    FA6.7
02688:  BSF    FA6.0
0268A:  MOVF   FA8,W
0268C:  MOVLB  7
0268E:  BTFSC  xB9.6
02690:  BSF    FF2.6
02692:  BTFSC  xB9.7
02694:  BSF    FF2.7
02696:  CLRF   xCC
02698:  MOVWF  xCB
0269A:  MOVLB  0
0269C:  RCALL  1F6A
0269E:  MOVFF  03,2FB
026A2:  MOVFF  02,2FA
026A6:  MOVFF  01,2F9
026AA:  MOVFF  00,2F8
....................    delay_ms(10); 
026AE:  MOVLW  0A
026B0:  MOVLB  7
026B2:  MOVWF  xC9
026B4:  MOVLB  0
026B6:  RCALL  1FA0
....................    Sensor[0].Ajuste=read_eeprom(21); 
026B8:  MOVFF  FF2,7B9
026BC:  BCF    FF2.6
026BE:  BCF    FF2.7
026C0:  CLRF   FAA
026C2:  MOVLW  15
026C4:  MOVWF  FA9
026C6:  BCF    FA6.6
026C8:  BCF    FA6.7
026CA:  BSF    FA6.0
026CC:  MOVF   FA8,W
026CE:  MOVLB  7
026D0:  BTFSC  xB9.6
026D2:  BSF    FF2.6
026D4:  BTFSC  xB9.7
026D6:  BSF    FF2.7
026D8:  MOVLB  4
026DA:  MOVWF  x1F
....................    delay_ms(10); 
026DC:  MOVLW  0A
026DE:  MOVLB  7
026E0:  MOVWF  xC9
026E2:  MOVLB  0
026E4:  RCALL  1FA0
....................    Sensor[0].Ajusten=read_eeprom(22); 
026E6:  MOVFF  FF2,7B9
026EA:  BCF    FF2.6
026EC:  BCF    FF2.7
026EE:  CLRF   FAA
026F0:  MOVLW  16
026F2:  MOVWF  FA9
026F4:  BCF    FA6.6
026F6:  BCF    FA6.7
026F8:  BSF    FA6.0
026FA:  MOVF   FA8,W
026FC:  MOVLB  7
026FE:  BTFSC  xB9.6
02700:  BSF    FF2.6
02702:  BTFSC  xB9.7
02704:  BSF    FF2.7
02706:  MOVLB  4
02708:  MOVWF  x20
....................    delay_ms(10); 
0270A:  MOVLW  0A
0270C:  MOVLB  7
0270E:  MOVWF  xC9
02710:  MOVLB  0
02712:  RCALL  1FA0
....................    Sensor[1].Ajuste=read_eeprom(23); 
02714:  MOVFF  FF2,7B9
02718:  BCF    FF2.6
0271A:  BCF    FF2.7
0271C:  CLRF   FAA
0271E:  MOVLW  17
02720:  MOVWF  FA9
02722:  BCF    FA6.6
02724:  BCF    FA6.7
02726:  BSF    FA6.0
02728:  MOVF   FA8,W
0272A:  MOVLB  7
0272C:  BTFSC  xB9.6
0272E:  BSF    FF2.6
02730:  BTFSC  xB9.7
02732:  BSF    FF2.7
02734:  MOVLB  5
02736:  MOVWF  x83
....................    delay_ms(10); 
02738:  MOVLW  0A
0273A:  MOVLB  7
0273C:  MOVWF  xC9
0273E:  MOVLB  0
02740:  RCALL  1FA0
....................    Sensor[1].Ajusten=read_eeprom(24); 
02742:  MOVFF  FF2,7B9
02746:  BCF    FF2.6
02748:  BCF    FF2.7
0274A:  CLRF   FAA
0274C:  MOVLW  18
0274E:  MOVWF  FA9
02750:  BCF    FA6.6
02752:  BCF    FA6.7
02754:  BSF    FA6.0
02756:  MOVF   FA8,W
02758:  MOVLB  7
0275A:  BTFSC  xB9.6
0275C:  BSF    FF2.6
0275E:  BTFSC  xB9.7
02760:  BSF    FF2.7
02762:  MOVLB  5
02764:  MOVWF  x84
....................    delay_ms(10);    
02766:  MOVLW  0A
02768:  MOVLB  7
0276A:  MOVWF  xC9
0276C:  MOVLB  0
0276E:  RCALL  1FA0
....................    MediaMovil=read_eeprom(25); 
02770:  MOVFF  FF2,7B9
02774:  BCF    FF2.6
02776:  BCF    FF2.7
02778:  CLRF   FAA
0277A:  MOVLW  19
0277C:  MOVWF  FA9
0277E:  BCF    FA6.6
02780:  BCF    FA6.7
02782:  BSF    FA6.0
02784:  MOVF   FA8,W
02786:  MOVLB  7
02788:  BTFSC  xB9.6
0278A:  BSF    FF2.6
0278C:  BTFSC  xB9.7
0278E:  BSF    FF2.7
02790:  MOVLB  2
02792:  MOVWF  xD3
....................    delay_ms(10); 
02794:  MOVLW  0A
02796:  MOVLB  7
02798:  MOVWF  xC9
0279A:  MOVLB  0
0279C:  RCALL  1FA0
....................    Tciclo=read_eeprom(26); 
0279E:  MOVFF  FF2,7B9
027A2:  BCF    FF2.6
027A4:  BCF    FF2.7
027A6:  CLRF   FAA
027A8:  MOVLW  1A
027AA:  MOVWF  FA9
027AC:  BCF    FA6.6
027AE:  BCF    FA6.7
027B0:  BSF    FA6.0
027B2:  MOVF   FA8,W
027B4:  MOVLB  7
027B6:  BTFSC  xB9.6
027B8:  BSF    FF2.6
027BA:  BTFSC  xB9.7
027BC:  BSF    FF2.7
027BE:  CLRF   xCC
027C0:  MOVWF  xCB
027C2:  MOVLB  0
027C4:  CALL   1F6A
027C8:  MOVFF  03,2E3
027CC:  MOVFF  02,2E2
027D0:  MOVFF  01,2E1
027D4:  MOVFF  00,2E0
....................    delay_ms(10); 
027D8:  MOVLW  0A
027DA:  MOVLB  7
027DC:  MOVWF  xC9
027DE:  MOVLB  0
027E0:  CALL   1FA0
....................    Integral=read_eeprom(27); 
027E4:  MOVFF  FF2,7B9
027E8:  BCF    FF2.6
027EA:  BCF    FF2.7
027EC:  CLRF   FAA
027EE:  MOVLW  1B
027F0:  MOVWF  FA9
027F2:  BCF    FA6.6
027F4:  BCF    FA6.7
027F6:  BSF    FA6.0
027F8:  MOVF   FA8,W
027FA:  MOVLB  7
027FC:  BTFSC  xB9.6
027FE:  BSF    FF2.6
02800:  BTFSC  xB9.7
02802:  BSF    FF2.7
02804:  MOVLB  3
02806:  MOVWF  x30
....................    delay_ms(10); 
02808:  MOVLW  0A
0280A:  MOVLB  7
0280C:  MOVWF  xC9
0280E:  MOVLB  0
02810:  CALL   1FA0
....................    Derivativo=read_eeprom(28); 
02814:  MOVFF  FF2,7B9
02818:  BCF    FF2.6
0281A:  BCF    FF2.7
0281C:  CLRF   FAA
0281E:  MOVLW  1C
02820:  MOVWF  FA9
02822:  BCF    FA6.6
02824:  BCF    FA6.7
02826:  BSF    FA6.0
02828:  MOVF   FA8,W
0282A:  MOVLB  7
0282C:  BTFSC  xB9.6
0282E:  BSF    FF2.6
02830:  BTFSC  xB9.7
02832:  BSF    FF2.7
02834:  MOVLB  3
02836:  MOVWF  x31
....................    delay_ms(10); 
02838:  MOVLW  0A
0283A:  MOVLB  7
0283C:  MOVWF  xC9
0283E:  MOVLB  0
02840:  CALL   1FA0
....................    Atmosferica=read_eeprom(31); 
02844:  MOVFF  FF2,7B9
02848:  BCF    FF2.6
0284A:  BCF    FF2.7
0284C:  CLRF   FAA
0284E:  MOVLW  1F
02850:  MOVWF  FA9
02852:  BCF    FA6.6
02854:  BCF    FA6.7
02856:  BSF    FA6.0
02858:  MOVF   FA8,W
0285A:  MOVLB  7
0285C:  BTFSC  xB9.6
0285E:  BSF    FF2.6
02860:  BTFSC  xB9.7
02862:  BSF    FF2.7
02864:  MOVLB  3
02866:  MOVWF  x3A
....................    delay_ms(10); 
02868:  MOVLW  0A
0286A:  MOVLB  7
0286C:  MOVWF  xC9
0286E:  MOVLB  0
02870:  CALL   1FA0
....................    Tapertura=read_eeprom(32); 
02874:  MOVFF  FF2,7B9
02878:  BCF    FF2.6
0287A:  BCF    FF2.7
0287C:  CLRF   FAA
0287E:  MOVLW  20
02880:  MOVWF  FA9
02882:  BCF    FA6.6
02884:  BCF    FA6.7
02886:  BSF    FA6.0
02888:  MOVF   FA8,W
0288A:  MOVLB  7
0288C:  BTFSC  xB9.6
0288E:  BSF    FF2.6
02890:  BTFSC  xB9.7
02892:  BSF    FF2.7
02894:  MOVLB  2
02896:  MOVWF  xD7
....................    delay_ms(10); 
02898:  MOVLW  0A
0289A:  MOVLB  7
0289C:  MOVWF  xC9
0289E:  MOVLB  0
028A0:  CALL   1FA0
....................    CiclosL=read_eeprom(37); 
028A4:  MOVFF  FF2,7B9
028A8:  BCF    FF2.6
028AA:  BCF    FF2.7
028AC:  CLRF   FAA
028AE:  MOVLW  25
028B0:  MOVWF  FA9
028B2:  BCF    FA6.6
028B4:  BCF    FA6.7
028B6:  BSF    FA6.0
028B8:  MOVF   FA8,W
028BA:  MOVLB  7
028BC:  BTFSC  xB9.6
028BE:  BSF    FF2.6
028C0:  BTFSC  xB9.7
028C2:  BSF    FF2.7
028C4:  MOVLB  3
028C6:  MOVWF  x52
....................    delay_ms(10); 
028C8:  MOVLW  0A
028CA:  MOVLB  7
028CC:  MOVWF  xC9
028CE:  MOVLB  0
028D0:  CALL   1FA0
....................    CiclosH=read_eeprom(38); 
028D4:  MOVFF  FF2,7B9
028D8:  BCF    FF2.6
028DA:  BCF    FF2.7
028DC:  CLRF   FAA
028DE:  MOVLW  26
028E0:  MOVWF  FA9
028E2:  BCF    FA6.6
028E4:  BCF    FA6.7
028E6:  BSF    FA6.0
028E8:  MOVF   FA8,W
028EA:  MOVLB  7
028EC:  BTFSC  xB9.6
028EE:  BSF    FF2.6
028F0:  BTFSC  xB9.7
028F2:  BSF    FF2.7
028F4:  MOVLB  3
028F6:  MOVWF  x53
....................    delay_ms(10); 
028F8:  MOVLW  0A
028FA:  MOVLB  7
028FC:  MOVWF  xC9
028FE:  MOVLB  0
02900:  CALL   1FA0
....................    TTrampa=read_eeprom(39); 
02904:  MOVFF  FF2,7B9
02908:  BCF    FF2.6
0290A:  BCF    FF2.7
0290C:  CLRF   FAA
0290E:  MOVLW  27
02910:  MOVWF  FA9
02912:  BCF    FA6.6
02914:  BCF    FA6.7
02916:  BSF    FA6.0
02918:  MOVF   FA8,W
0291A:  MOVLB  7
0291C:  BTFSC  xB9.6
0291E:  BSF    FF2.6
02920:  BTFSC  xB9.7
02922:  BSF    FF2.7
02924:  MOVLB  0
02926:  MOVWF  xCE
....................    delay_ms(10); 
02928:  MOVLW  0A
0292A:  MOVLB  7
0292C:  MOVWF  xC9
0292E:  MOVLB  0
02930:  CALL   1FA0
....................    Ciclos=make16(CiclosH,CiclosL); 
02934:  MOVFF  353,36C
02938:  MOVFF  352,36B
....................    delay_ms(10); 
0293C:  MOVLW  0A
0293E:  MOVLB  7
02940:  MOVWF  xC9
02942:  MOVLB  0
02944:  CALL   1FA0
....................    G1=read_eeprom(42); 
02948:  MOVFF  FF2,7B9
0294C:  BCF    FF2.6
0294E:  BCF    FF2.7
02950:  CLRF   FAA
02952:  MOVLW  2A
02954:  MOVWF  FA9
02956:  BCF    FA6.6
02958:  BCF    FA6.7
0295A:  BSF    FA6.0
0295C:  MOVF   FA8,W
0295E:  MOVLB  7
02960:  BTFSC  xB9.6
02962:  BSF    FF2.6
02964:  BTFSC  xB9.7
02966:  BSF    FF2.7
02968:  MOVLB  3
0296A:  MOVWF  x93
....................    delay_ms(10); 
0296C:  MOVLW  0A
0296E:  MOVLB  7
02970:  MOVWF  xC9
02972:  MOVLB  0
02974:  CALL   1FA0
....................    G2=read_eeprom(43); 
02978:  MOVFF  FF2,7B9
0297C:  BCF    FF2.6
0297E:  BCF    FF2.7
02980:  CLRF   FAA
02982:  MOVLW  2B
02984:  MOVWF  FA9
02986:  BCF    FA6.6
02988:  BCF    FA6.7
0298A:  BSF    FA6.0
0298C:  MOVF   FA8,W
0298E:  MOVLB  7
02990:  BTFSC  xB9.6
02992:  BSF    FF2.6
02994:  BTFSC  xB9.7
02996:  BSF    FF2.7
02998:  MOVLB  3
0299A:  MOVWF  x94
....................    delay_ms(10); 
0299C:  MOVLW  0A
0299E:  MOVLB  7
029A0:  MOVWF  xC9
029A2:  MOVLB  0
029A4:  CALL   1FA0
....................    sg1=read_eeprom(44); 
029A8:  MOVFF  FF2,7B9
029AC:  BCF    FF2.6
029AE:  BCF    FF2.7
029B0:  CLRF   FAA
029B2:  MOVLW  2C
029B4:  MOVWF  FA9
029B6:  BCF    FA6.6
029B8:  BCF    FA6.7
029BA:  BSF    FA6.0
029BC:  MOVF   FA8,W
029BE:  MOVLB  7
029C0:  BTFSC  xB9.6
029C2:  BSF    FF2.6
029C4:  BTFSC  xB9.7
029C6:  BSF    FF2.7
029C8:  MOVLB  3
029CA:  MOVWF  x95
....................    delay_ms(10); 
029CC:  MOVLW  0A
029CE:  MOVLB  7
029D0:  MOVWF  xC9
029D2:  MOVLB  0
029D4:  CALL   1FA0
....................    sg2=read_eeprom(45); 
029D8:  MOVFF  FF2,7B9
029DC:  BCF    FF2.6
029DE:  BCF    FF2.7
029E0:  CLRF   FAA
029E2:  MOVLW  2D
029E4:  MOVWF  FA9
029E6:  BCF    FA6.6
029E8:  BCF    FA6.7
029EA:  BSF    FA6.0
029EC:  MOVF   FA8,W
029EE:  MOVLB  7
029F0:  BTFSC  xB9.6
029F2:  BSF    FF2.6
029F4:  BTFSC  xB9.7
029F6:  BSF    FF2.7
029F8:  MOVLB  3
029FA:  MOVWF  x96
....................     
....................    for(i=0;i<30;i++){ 
029FC:  CLRF   x51
029FE:  MOVF   x51,W
02A00:  SUBLW  1D
02A02:  BNC   2A7C
....................       estados[i]=read_eeprom(i+50); 
02A04:  MOVLW  32
02A06:  ADDWF  x51,W
02A08:  MOVLB  7
02A0A:  MOVWF  xB9
02A0C:  MOVFF  FF2,7BA
02A10:  BCF    FF2.6
02A12:  BCF    FF2.7
02A14:  CLRF   FAA
02A16:  MOVFF  7B9,FA9
02A1A:  BCF    FA6.6
02A1C:  BCF    FA6.7
02A1E:  BSF    FA6.0
02A20:  MOVF   FA8,W
02A22:  BTFSC  xBA.6
02A24:  BSF    FF2.6
02A26:  BTFSC  xBA.7
02A28:  BSF    FF2.7
02A2A:  MOVFF  351,7BB
02A2E:  MOVWF  xBC
02A30:  MOVLW  03
02A32:  MOVWF  xBE
02A34:  MOVLW  FD
02A36:  MOVWF  xBD
02A38:  MOVLB  0
02A3A:  CALL   1FC8
....................       if(estados[i]>1) 
02A3E:  MOVFF  351,7BA
02A42:  MOVLW  03
02A44:  MOVLB  7
02A46:  MOVWF  xBC
02A48:  MOVLW  FD
02A4A:  MOVWF  xBB
02A4C:  MOVLB  0
02A4E:  CALL   200A
02A52:  MOVLW  00
02A54:  BTFSC  01.0
02A56:  MOVLW  01
02A58:  ANDLW  01
02A5A:  SUBLW  01
02A5C:  BC    2A76
....................          estados[i]=1; 
02A5E:  MOVFF  351,7BB
02A62:  MOVLW  01
02A64:  MOVLB  7
02A66:  MOVWF  xBC
02A68:  MOVLW  03
02A6A:  MOVWF  xBE
02A6C:  MOVLW  FD
02A6E:  MOVWF  xBD
02A70:  MOVLB  0
02A72:  CALL   1FC8
....................    } 
02A76:  MOVLB  3
02A78:  INCF   x51,F
02A7A:  BRA    29FE
....................     
....................    for(i=0;i<20;i++){//Lee valores almacenados de ciclos personalizados 
02A7C:  CLRF   x51
02A7E:  MOVF   x51,W
02A80:  SUBLW  13
02A82:  BTFSS  FD8.0
02A84:  BRA    3052
....................       CiclosPersonalizados[i].Temperatura=read_eeprom(100+(i*8));  
02A86:  MOVF   x51,W
02A88:  MULLW  0A
02A8A:  MOVF   FF3,W
02A8C:  MOVLB  7
02A8E:  CLRF   xBA
02A90:  MOVWF  xB9
02A92:  MOVLW  C9
02A94:  ADDWF  xB9,W
02A96:  MOVWF  FE9
02A98:  MOVLW  06
02A9A:  ADDWFC xBA,W
02A9C:  MOVWF  FEA
02A9E:  MOVLB  3
02AA0:  MOVF   x51,W
02AA2:  MULLW  08
02AA4:  MOVF   FF3,W
02AA6:  ADDLW  64
02AA8:  MOVLB  7
02AAA:  MOVWF  xBB
02AAC:  MOVFF  FF2,7BC
02AB0:  BCF    FF2.6
02AB2:  BCF    FF2.7
02AB4:  CLRF   FAA
02AB6:  MOVFF  7BB,FA9
02ABA:  BCF    FA6.6
02ABC:  BCF    FA6.7
02ABE:  BSF    FA6.0
02AC0:  MOVF   FA8,W
02AC2:  BTFSC  xBC.6
02AC4:  BSF    FF2.6
02AC6:  BTFSC  xBC.7
02AC8:  BSF    FF2.7
02ACA:  MOVWF  FEF
....................       CiclosPersonalizados[i].Minutoest=read_eeprom(101+(i*8));  
02ACC:  MOVLB  3
02ACE:  MOVF   x51,W
02AD0:  MULLW  0A
02AD2:  MOVF   FF3,W
02AD4:  MOVLB  7
02AD6:  CLRF   xBA
02AD8:  MOVWF  xB9
02ADA:  MOVLW  09
02ADC:  ADDWF  xB9,W
02ADE:  MOVWF  01
02AE0:  MOVLW  00
02AE2:  ADDWFC xBA,W
02AE4:  MOVWF  03
02AE6:  MOVF   01,W
02AE8:  ADDLW  C9
02AEA:  MOVWF  FE9
02AEC:  MOVLW  06
02AEE:  ADDWFC 03,W
02AF0:  MOVWF  FEA
02AF2:  MOVLB  3
02AF4:  MOVF   x51,W
02AF6:  MULLW  08
02AF8:  MOVF   FF3,W
02AFA:  ADDLW  65
02AFC:  MOVLB  7
02AFE:  MOVWF  xBB
02B00:  MOVFF  FF2,7BC
02B04:  BCF    FF2.6
02B06:  BCF    FF2.7
02B08:  CLRF   FAA
02B0A:  MOVFF  7BB,FA9
02B0E:  BCF    FA6.6
02B10:  BCF    FA6.7
02B12:  BSF    FA6.0
02B14:  MOVF   FA8,W
02B16:  BTFSC  xBC.6
02B18:  BSF    FF2.6
02B1A:  BTFSC  xBC.7
02B1C:  BSF    FF2.7
02B1E:  MOVWF  FEF
....................       CiclosPersonalizados[i].Segundoest=read_eeprom(102+(i*8));  
02B20:  MOVLB  3
02B22:  MOVF   x51,W
02B24:  MULLW  0A
02B26:  MOVF   FF3,W
02B28:  MOVLB  7
02B2A:  CLRF   xBA
02B2C:  MOVWF  xB9
02B2E:  MOVLW  03
02B30:  ADDWF  xB9,W
02B32:  MOVWF  01
02B34:  MOVLW  00
02B36:  ADDWFC xBA,W
02B38:  MOVWF  03
02B3A:  MOVF   01,W
02B3C:  ADDLW  C9
02B3E:  MOVWF  FE9
02B40:  MOVLW  06
02B42:  ADDWFC 03,W
02B44:  MOVWF  FEA
02B46:  MOVLB  3
02B48:  MOVF   x51,W
02B4A:  MULLW  08
02B4C:  MOVF   FF3,W
02B4E:  ADDLW  66
02B50:  MOVLB  7
02B52:  MOVWF  xBB
02B54:  MOVFF  FF2,7BC
02B58:  BCF    FF2.6
02B5A:  BCF    FF2.7
02B5C:  CLRF   FAA
02B5E:  MOVFF  7BB,FA9
02B62:  BCF    FA6.6
02B64:  BCF    FA6.7
02B66:  BSF    FA6.0
02B68:  MOVF   FA8,W
02B6A:  BTFSC  xBC.6
02B6C:  BSF    FF2.6
02B6E:  BTFSC  xBC.7
02B70:  BSF    FF2.7
02B72:  MOVWF  FEF
....................       CiclosPersonalizados[i].Minutosec=read_eeprom(103+(i*8));  
02B74:  MOVLB  3
02B76:  MOVF   x51,W
02B78:  MULLW  0A
02B7A:  MOVF   FF3,W
02B7C:  MOVLB  7
02B7E:  CLRF   xBA
02B80:  MOVWF  xB9
02B82:  MOVLW  04
02B84:  ADDWF  xB9,W
02B86:  MOVWF  01
02B88:  MOVLW  00
02B8A:  ADDWFC xBA,W
02B8C:  MOVWF  03
02B8E:  MOVF   01,W
02B90:  ADDLW  C9
02B92:  MOVWF  FE9
02B94:  MOVLW  06
02B96:  ADDWFC 03,W
02B98:  MOVWF  FEA
02B9A:  MOVLB  3
02B9C:  MOVF   x51,W
02B9E:  MULLW  08
02BA0:  MOVF   FF3,W
02BA2:  ADDLW  67
02BA4:  MOVLB  7
02BA6:  MOVWF  xBB
02BA8:  MOVFF  FF2,7BC
02BAC:  BCF    FF2.6
02BAE:  BCF    FF2.7
02BB0:  CLRF   FAA
02BB2:  MOVFF  7BB,FA9
02BB6:  BCF    FA6.6
02BB8:  BCF    FA6.7
02BBA:  BSF    FA6.0
02BBC:  MOVF   FA8,W
02BBE:  BTFSC  xBC.6
02BC0:  BSF    FF2.6
02BC2:  BTFSC  xBC.7
02BC4:  BSF    FF2.7
02BC6:  MOVWF  FEF
....................       CiclosPersonalizados[i].Segundosec=read_eeprom(104+(i*8));  
02BC8:  MOVLB  3
02BCA:  MOVF   x51,W
02BCC:  MULLW  0A
02BCE:  MOVF   FF3,W
02BD0:  MOVLB  7
02BD2:  CLRF   xBA
02BD4:  MOVWF  xB9
02BD6:  MOVLW  05
02BD8:  ADDWF  xB9,W
02BDA:  MOVWF  01
02BDC:  MOVLW  00
02BDE:  ADDWFC xBA,W
02BE0:  MOVWF  03
02BE2:  MOVF   01,W
02BE4:  ADDLW  C9
02BE6:  MOVWF  FE9
02BE8:  MOVLW  06
02BEA:  ADDWFC 03,W
02BEC:  MOVWF  FEA
02BEE:  MOVLB  3
02BF0:  MOVF   x51,W
02BF2:  MULLW  08
02BF4:  MOVF   FF3,W
02BF6:  ADDLW  68
02BF8:  MOVLB  7
02BFA:  MOVWF  xBB
02BFC:  MOVFF  FF2,7BC
02C00:  BCF    FF2.6
02C02:  BCF    FF2.7
02C04:  CLRF   FAA
02C06:  MOVFF  7BB,FA9
02C0A:  BCF    FA6.6
02C0C:  BCF    FA6.7
02C0E:  BSF    FA6.0
02C10:  MOVF   FA8,W
02C12:  BTFSC  xBC.6
02C14:  BSF    FF2.6
02C16:  BTFSC  xBC.7
02C18:  BSF    FF2.7
02C1A:  MOVWF  FEF
....................       CiclosPersonalizados[i].PulsosVacio=read_eeprom(105+(i*8));  
02C1C:  MOVLB  3
02C1E:  MOVF   x51,W
02C20:  MULLW  0A
02C22:  MOVF   FF3,W
02C24:  MOVLB  7
02C26:  CLRF   xBA
02C28:  MOVWF  xB9
02C2A:  MOVLW  06
02C2C:  ADDWF  xB9,W
02C2E:  MOVWF  01
02C30:  MOVLW  00
02C32:  ADDWFC xBA,W
02C34:  MOVWF  03
02C36:  MOVF   01,W
02C38:  ADDLW  C9
02C3A:  MOVWF  FE9
02C3C:  MOVLW  06
02C3E:  ADDWFC 03,W
02C40:  MOVWF  FEA
02C42:  MOVLB  3
02C44:  MOVF   x51,W
02C46:  MULLW  08
02C48:  MOVF   FF3,W
02C4A:  ADDLW  69
02C4C:  MOVLB  7
02C4E:  MOVWF  xBB
02C50:  MOVFF  FF2,7BC
02C54:  BCF    FF2.6
02C56:  BCF    FF2.7
02C58:  CLRF   FAA
02C5A:  MOVFF  7BB,FA9
02C5E:  BCF    FA6.6
02C60:  BCF    FA6.7
02C62:  BSF    FA6.0
02C64:  MOVF   FA8,W
02C66:  BTFSC  xBC.6
02C68:  BSF    FF2.6
02C6A:  BTFSC  xBC.7
02C6C:  BSF    FF2.7
02C6E:  MOVWF  FEF
....................       CiclosPersonalizados[i].NivelVacio=read_eeprom(106+(i*8));  
02C70:  MOVLB  3
02C72:  MOVF   x51,W
02C74:  MULLW  0A
02C76:  MOVF   FF3,W
02C78:  MOVLB  7
02C7A:  CLRF   xBA
02C7C:  MOVWF  xB9
02C7E:  MOVLW  07
02C80:  ADDWF  xB9,W
02C82:  MOVWF  01
02C84:  MOVLW  00
02C86:  ADDWFC xBA,W
02C88:  MOVWF  03
02C8A:  MOVF   01,W
02C8C:  ADDLW  C9
02C8E:  MOVWF  FE9
02C90:  MOVLW  06
02C92:  ADDWFC 03,W
02C94:  MOVWF  FEA
02C96:  MOVLB  3
02C98:  MOVF   x51,W
02C9A:  MULLW  08
02C9C:  MOVF   FF3,W
02C9E:  ADDLW  6A
02CA0:  MOVLB  7
02CA2:  MOVWF  xBB
02CA4:  MOVFF  FF2,7BC
02CA8:  BCF    FF2.6
02CAA:  BCF    FF2.7
02CAC:  CLRF   FAA
02CAE:  MOVFF  7BB,FA9
02CB2:  BCF    FA6.6
02CB4:  BCF    FA6.7
02CB6:  BSF    FA6.0
02CB8:  MOVF   FA8,W
02CBA:  BTFSC  xBC.6
02CBC:  BSF    FF2.6
02CBE:  BTFSC  xBC.7
02CC0:  BSF    FF2.7
02CC2:  MOVWF  FEF
....................       CiclosPersonalizados[i].NivelDesfogue=read_eeprom(107+(i*8));  
02CC4:  MOVLB  3
02CC6:  MOVF   x51,W
02CC8:  MULLW  0A
02CCA:  MOVF   FF3,W
02CCC:  MOVLB  7
02CCE:  CLRF   xBA
02CD0:  MOVWF  xB9
02CD2:  MOVLW  08
02CD4:  ADDWF  xB9,W
02CD6:  MOVWF  01
02CD8:  MOVLW  00
02CDA:  ADDWFC xBA,W
02CDC:  MOVWF  03
02CDE:  MOVF   01,W
02CE0:  ADDLW  C9
02CE2:  MOVWF  FE9
02CE4:  MOVLW  06
02CE6:  ADDWFC 03,W
02CE8:  MOVWF  FEA
02CEA:  MOVLB  3
02CEC:  MOVF   x51,W
02CEE:  MULLW  08
02CF0:  MOVF   FF3,W
02CF2:  ADDLW  6B
02CF4:  MOVLB  7
02CF6:  MOVWF  xBB
02CF8:  MOVFF  FF2,7BC
02CFC:  BCF    FF2.6
02CFE:  BCF    FF2.7
02D00:  CLRF   FAA
02D02:  MOVFF  7BB,FA9
02D06:  BCF    FA6.6
02D08:  BCF    FA6.7
02D0A:  BSF    FA6.0
02D0C:  MOVF   FA8,W
02D0E:  BTFSC  xBC.6
02D10:  BSF    FF2.6
02D12:  BTFSC  xBC.7
02D14:  BSF    FF2.7
02D16:  MOVWF  FEF
....................        
....................       if(CiclosPersonalizados[i].Temperatura>134 || CiclosPersonalizados[i].Temperatura<105) 
02D18:  MOVLB  3
02D1A:  MOVF   x51,W
02D1C:  MULLW  0A
02D1E:  MOVF   FF3,W
02D20:  MOVLB  7
02D22:  CLRF   xBA
02D24:  MOVWF  xB9
02D26:  MOVLW  C9
02D28:  ADDWF  xB9,W
02D2A:  MOVWF  FE9
02D2C:  MOVLW  06
02D2E:  ADDWFC xBA,W
02D30:  MOVWF  FEA
02D32:  MOVF   FEF,W
02D34:  SUBLW  86
02D36:  BNC   2D58
02D38:  MOVLB  3
02D3A:  MOVF   x51,W
02D3C:  MULLW  0A
02D3E:  MOVF   FF3,W
02D40:  MOVLB  7
02D42:  CLRF   xBA
02D44:  MOVWF  xB9
02D46:  MOVLW  C9
02D48:  ADDWF  xB9,W
02D4A:  MOVWF  FE9
02D4C:  MOVLW  06
02D4E:  ADDWFC xBA,W
02D50:  MOVWF  FEA
02D52:  MOVF   FEF,W
02D54:  SUBLW  68
02D56:  BNC   2D76
....................          CiclosPersonalizados[i].Temperatura=121; 
02D58:  MOVLB  3
02D5A:  MOVF   x51,W
02D5C:  MULLW  0A
02D5E:  MOVF   FF3,W
02D60:  MOVLB  7
02D62:  CLRF   xBA
02D64:  MOVWF  xB9
02D66:  MOVLW  C9
02D68:  ADDWF  xB9,W
02D6A:  MOVWF  FE9
02D6C:  MOVLW  06
02D6E:  ADDWFC xBA,W
02D70:  MOVWF  FEA
02D72:  MOVLW  79
02D74:  MOVWF  FEF
....................       if(CiclosPersonalizados[i].Minutoest>99 || CiclosPersonalizados[i].Minutoest<1) 
02D76:  MOVLB  3
02D78:  MOVF   x51,W
02D7A:  MULLW  0A
02D7C:  MOVF   FF3,W
02D7E:  MOVLB  7
02D80:  CLRF   xBA
02D82:  MOVWF  xB9
02D84:  MOVLW  09
02D86:  ADDWF  xB9,W
02D88:  MOVWF  01
02D8A:  MOVLW  00
02D8C:  ADDWFC xBA,W
02D8E:  MOVWF  03
02D90:  MOVF   01,W
02D92:  ADDLW  C9
02D94:  MOVWF  FE9
02D96:  MOVLW  06
02D98:  ADDWFC 03,W
02D9A:  MOVWF  FEA
02D9C:  MOVF   FEF,W
02D9E:  SUBLW  63
02DA0:  BNC   2DCC
02DA2:  MOVLB  3
02DA4:  MOVF   x51,W
02DA6:  MULLW  0A
02DA8:  MOVF   FF3,W
02DAA:  MOVLB  7
02DAC:  CLRF   xBA
02DAE:  MOVWF  xB9
02DB0:  MOVLW  09
02DB2:  ADDWF  xB9,W
02DB4:  MOVWF  01
02DB6:  MOVLW  00
02DB8:  ADDWFC xBA,W
02DBA:  MOVWF  03
02DBC:  MOVF   01,W
02DBE:  ADDLW  C9
02DC0:  MOVWF  FE9
02DC2:  MOVLW  06
02DC4:  ADDWFC 03,W
02DC6:  MOVWF  FEA
02DC8:  MOVF   FEF,F
02DCA:  BNZ   2DF6
....................          CiclosPersonalizados[i].Minutoest=3; 
02DCC:  MOVLB  3
02DCE:  MOVF   x51,W
02DD0:  MULLW  0A
02DD2:  MOVF   FF3,W
02DD4:  MOVLB  7
02DD6:  CLRF   xBA
02DD8:  MOVWF  xB9
02DDA:  MOVLW  09
02DDC:  ADDWF  xB9,W
02DDE:  MOVWF  01
02DE0:  MOVLW  00
02DE2:  ADDWFC xBA,W
02DE4:  MOVWF  03
02DE6:  MOVF   01,W
02DE8:  ADDLW  C9
02DEA:  MOVWF  FE9
02DEC:  MOVLW  06
02DEE:  ADDWFC 03,W
02DF0:  MOVWF  FEA
02DF2:  MOVLW  03
02DF4:  MOVWF  FEF
....................       if(CiclosPersonalizados[i].Minutosec>99 || CiclosPersonalizados[i].Minutosec<1) 
02DF6:  MOVLB  3
02DF8:  MOVF   x51,W
02DFA:  MULLW  0A
02DFC:  MOVF   FF3,W
02DFE:  MOVLB  7
02E00:  CLRF   xBA
02E02:  MOVWF  xB9
02E04:  MOVLW  04
02E06:  ADDWF  xB9,W
02E08:  MOVWF  01
02E0A:  MOVLW  00
02E0C:  ADDWFC xBA,W
02E0E:  MOVWF  03
02E10:  MOVF   01,W
02E12:  ADDLW  C9
02E14:  MOVWF  FE9
02E16:  MOVLW  06
02E18:  ADDWFC 03,W
02E1A:  MOVWF  FEA
02E1C:  MOVF   FEF,W
02E1E:  SUBLW  63
02E20:  BNC   2E4C
02E22:  MOVLB  3
02E24:  MOVF   x51,W
02E26:  MULLW  0A
02E28:  MOVF   FF3,W
02E2A:  MOVLB  7
02E2C:  CLRF   xBA
02E2E:  MOVWF  xB9
02E30:  MOVLW  04
02E32:  ADDWF  xB9,W
02E34:  MOVWF  01
02E36:  MOVLW  00
02E38:  ADDWFC xBA,W
02E3A:  MOVWF  03
02E3C:  MOVF   01,W
02E3E:  ADDLW  C9
02E40:  MOVWF  FE9
02E42:  MOVLW  06
02E44:  ADDWFC 03,W
02E46:  MOVWF  FEA
02E48:  MOVF   FEF,F
02E4A:  BNZ   2E76
....................          CiclosPersonalizados[i].Minutosec=1;    
02E4C:  MOVLB  3
02E4E:  MOVF   x51,W
02E50:  MULLW  0A
02E52:  MOVF   FF3,W
02E54:  MOVLB  7
02E56:  CLRF   xBA
02E58:  MOVWF  xB9
02E5A:  MOVLW  04
02E5C:  ADDWF  xB9,W
02E5E:  MOVWF  01
02E60:  MOVLW  00
02E62:  ADDWFC xBA,W
02E64:  MOVWF  03
02E66:  MOVF   01,W
02E68:  ADDLW  C9
02E6A:  MOVWF  FE9
02E6C:  MOVLW  06
02E6E:  ADDWFC 03,W
02E70:  MOVWF  FEA
02E72:  MOVLW  01
02E74:  MOVWF  FEF
....................       if(CiclosPersonalizados[i].Segundoest>59) 
02E76:  MOVLB  3
02E78:  MOVF   x51,W
02E7A:  MULLW  0A
02E7C:  MOVF   FF3,W
02E7E:  MOVLB  7
02E80:  CLRF   xBA
02E82:  MOVWF  xB9
02E84:  MOVLW  03
02E86:  ADDWF  xB9,W
02E88:  MOVWF  01
02E8A:  MOVLW  00
02E8C:  ADDWFC xBA,W
02E8E:  MOVWF  03
02E90:  MOVF   01,W
02E92:  ADDLW  C9
02E94:  MOVWF  FE9
02E96:  MOVLW  06
02E98:  ADDWFC 03,W
02E9A:  MOVWF  FEA
02E9C:  MOVF   FEF,W
02E9E:  SUBLW  3B
02EA0:  BC    2ECA
....................          CiclosPersonalizados[i].Segundoest=0; 
02EA2:  MOVLB  3
02EA4:  MOVF   x51,W
02EA6:  MULLW  0A
02EA8:  MOVF   FF3,W
02EAA:  MOVLB  7
02EAC:  CLRF   xBA
02EAE:  MOVWF  xB9
02EB0:  MOVLW  03
02EB2:  ADDWF  xB9,W
02EB4:  MOVWF  01
02EB6:  MOVLW  00
02EB8:  ADDWFC xBA,W
02EBA:  MOVWF  03
02EBC:  MOVF   01,W
02EBE:  ADDLW  C9
02EC0:  MOVWF  FE9
02EC2:  MOVLW  06
02EC4:  ADDWFC 03,W
02EC6:  MOVWF  FEA
02EC8:  CLRF   FEF
....................       if(CiclosPersonalizados[i].Segundosec>59) 
02ECA:  MOVLB  3
02ECC:  MOVF   x51,W
02ECE:  MULLW  0A
02ED0:  MOVF   FF3,W
02ED2:  MOVLB  7
02ED4:  CLRF   xBA
02ED6:  MOVWF  xB9
02ED8:  MOVLW  05
02EDA:  ADDWF  xB9,W
02EDC:  MOVWF  01
02EDE:  MOVLW  00
02EE0:  ADDWFC xBA,W
02EE2:  MOVWF  03
02EE4:  MOVF   01,W
02EE6:  ADDLW  C9
02EE8:  MOVWF  FE9
02EEA:  MOVLW  06
02EEC:  ADDWFC 03,W
02EEE:  MOVWF  FEA
02EF0:  MOVF   FEF,W
02EF2:  SUBLW  3B
02EF4:  BC    2F1E
....................          CiclosPersonalizados[i].Segundosec=0;       
02EF6:  MOVLB  3
02EF8:  MOVF   x51,W
02EFA:  MULLW  0A
02EFC:  MOVF   FF3,W
02EFE:  MOVLB  7
02F00:  CLRF   xBA
02F02:  MOVWF  xB9
02F04:  MOVLW  05
02F06:  ADDWF  xB9,W
02F08:  MOVWF  01
02F0A:  MOVLW  00
02F0C:  ADDWFC xBA,W
02F0E:  MOVWF  03
02F10:  MOVF   01,W
02F12:  ADDLW  C9
02F14:  MOVWF  FE9
02F16:  MOVLW  06
02F18:  ADDWFC 03,W
02F1A:  MOVWF  FEA
02F1C:  CLRF   FEF
....................       if(CiclosPersonalizados[i].PulsosVacio>15) 
02F1E:  MOVLB  3
02F20:  MOVF   x51,W
02F22:  MULLW  0A
02F24:  MOVF   FF3,W
02F26:  MOVLB  7
02F28:  CLRF   xBA
02F2A:  MOVWF  xB9
02F2C:  MOVLW  06
02F2E:  ADDWF  xB9,W
02F30:  MOVWF  01
02F32:  MOVLW  00
02F34:  ADDWFC xBA,W
02F36:  MOVWF  03
02F38:  MOVF   01,W
02F3A:  ADDLW  C9
02F3C:  MOVWF  FE9
02F3E:  MOVLW  06
02F40:  ADDWFC 03,W
02F42:  MOVWF  FEA
02F44:  MOVF   FEF,W
02F46:  SUBLW  0F
02F48:  BC    2F74
....................          CiclosPersonalizados[i].PulsosVacio=4; 
02F4A:  MOVLB  3
02F4C:  MOVF   x51,W
02F4E:  MULLW  0A
02F50:  MOVF   FF3,W
02F52:  MOVLB  7
02F54:  CLRF   xBA
02F56:  MOVWF  xB9
02F58:  MOVLW  06
02F5A:  ADDWF  xB9,W
02F5C:  MOVWF  01
02F5E:  MOVLW  00
02F60:  ADDWFC xBA,W
02F62:  MOVWF  03
02F64:  MOVF   01,W
02F66:  ADDLW  C9
02F68:  MOVWF  FE9
02F6A:  MOVLW  06
02F6C:  ADDWFC 03,W
02F6E:  MOVWF  FEA
02F70:  MOVLW  04
02F72:  MOVWF  FEF
....................       if(CiclosPersonalizados[i].NivelVacio>100 || CiclosPersonalizados[i].NivelVacio<10) 
02F74:  MOVLB  3
02F76:  MOVF   x51,W
02F78:  MULLW  0A
02F7A:  MOVF   FF3,W
02F7C:  MOVLB  7
02F7E:  CLRF   xBA
02F80:  MOVWF  xB9
02F82:  MOVLW  07
02F84:  ADDWF  xB9,W
02F86:  MOVWF  01
02F88:  MOVLW  00
02F8A:  ADDWFC xBA,W
02F8C:  MOVWF  03
02F8E:  MOVF   01,W
02F90:  ADDLW  C9
02F92:  MOVWF  FE9
02F94:  MOVLW  06
02F96:  ADDWFC 03,W
02F98:  MOVWF  FEA
02F9A:  MOVF   FEF,W
02F9C:  SUBLW  64
02F9E:  BNC   2FCC
02FA0:  MOVLB  3
02FA2:  MOVF   x51,W
02FA4:  MULLW  0A
02FA6:  MOVF   FF3,W
02FA8:  MOVLB  7
02FAA:  CLRF   xBA
02FAC:  MOVWF  xB9
02FAE:  MOVLW  07
02FB0:  ADDWF  xB9,W
02FB2:  MOVWF  01
02FB4:  MOVLW  00
02FB6:  ADDWFC xBA,W
02FB8:  MOVWF  03
02FBA:  MOVF   01,W
02FBC:  ADDLW  C9
02FBE:  MOVWF  FE9
02FC0:  MOVLW  06
02FC2:  ADDWFC 03,W
02FC4:  MOVWF  FEA
02FC6:  MOVF   FEF,W
02FC8:  SUBLW  09
02FCA:  BNC   2FF6
....................          CiclosPersonalizados[i].NivelVacio=25;    
02FCC:  MOVLB  3
02FCE:  MOVF   x51,W
02FD0:  MULLW  0A
02FD2:  MOVF   FF3,W
02FD4:  MOVLB  7
02FD6:  CLRF   xBA
02FD8:  MOVWF  xB9
02FDA:  MOVLW  07
02FDC:  ADDWF  xB9,W
02FDE:  MOVWF  01
02FE0:  MOVLW  00
02FE2:  ADDWFC xBA,W
02FE4:  MOVWF  03
02FE6:  MOVF   01,W
02FE8:  ADDLW  C9
02FEA:  MOVWF  FE9
02FEC:  MOVLW  06
02FEE:  ADDWFC 03,W
02FF0:  MOVWF  FEA
02FF2:  MOVLW  19
02FF4:  MOVWF  FEF
....................       if(CiclosPersonalizados[i].NivelDesfogue>6) 
02FF6:  MOVLB  3
02FF8:  MOVF   x51,W
02FFA:  MULLW  0A
02FFC:  MOVF   FF3,W
02FFE:  MOVLB  7
03000:  CLRF   xBA
03002:  MOVWF  xB9
03004:  MOVLW  08
03006:  ADDWF  xB9,W
03008:  MOVWF  01
0300A:  MOVLW  00
0300C:  ADDWFC xBA,W
0300E:  MOVWF  03
03010:  MOVF   01,W
03012:  ADDLW  C9
03014:  MOVWF  FE9
03016:  MOVLW  06
03018:  ADDWFC 03,W
0301A:  MOVWF  FEA
0301C:  MOVF   FEF,W
0301E:  SUBLW  06
03020:  BC    304C
....................          CiclosPersonalizados[i].NivelDesfogue=6; 
03022:  MOVLB  3
03024:  MOVF   x51,W
03026:  MULLW  0A
03028:  MOVF   FF3,W
0302A:  MOVLB  7
0302C:  CLRF   xBA
0302E:  MOVWF  xB9
03030:  MOVLW  08
03032:  ADDWF  xB9,W
03034:  MOVWF  01
03036:  MOVLW  00
03038:  ADDWFC xBA,W
0303A:  MOVWF  03
0303C:  MOVF   01,W
0303E:  ADDLW  C9
03040:  MOVWF  FE9
03042:  MOVLW  06
03044:  ADDWFC 03,W
03046:  MOVWF  FEA
03048:  MOVLW  06
0304A:  MOVWF  FEF
....................    } 
0304C:  MOVLB  3
0304E:  INCF   x51,F
03050:  BRA    2A7E
....................     
....................    for(i=0;i<10;i++){//Lee contraseas de usuarios 
03052:  CLRF   x51
03054:  MOVF   x51,W
03056:  SUBLW  09
03058:  BNC   313A
....................       for(j=0;j<4;j++){ 
0305A:  MOVLB  0
0305C:  CLRF   xC6
0305E:  MOVF   xC6,W
03060:  SUBLW  03
03062:  BNC   3134
....................          Clave[i].Password[j]=read_eeprom((300+j)+(i*4)); 
03064:  MOVLB  3
03066:  MOVF   x51,W
03068:  MULLW  04
0306A:  MOVF   FF3,W
0306C:  MOVLB  7
0306E:  CLRF   xBA
03070:  MOVWF  xB9
03072:  CLRF   03
03074:  MOVLB  0
03076:  MOVF   xC6,W
03078:  MOVLB  7
0307A:  ADDWF  xB9,W
0307C:  MOVWF  01
0307E:  MOVF   xBA,W
03080:  ADDWFC 03,F
03082:  MOVF   01,W
03084:  ADDLW  91
03086:  MOVWF  FE9
03088:  MOVLW  07
0308A:  ADDWFC 03,W
0308C:  MOVWF  FEA
0308E:  MOVLW  2C
03090:  MOVLB  0
03092:  ADDWF  xC6,W
03094:  MOVLB  7
03096:  MOVWF  xBB
03098:  MOVLW  01
0309A:  MOVWF  xBC
0309C:  BTFSC  FD8.0
0309E:  INCF   xBC,F
030A0:  MOVLB  3
030A2:  MOVF   x51,W
030A4:  MULLW  04
030A6:  MOVF   FF3,W
030A8:  MOVLB  7
030AA:  ADDWF  xBB,F
030AC:  MOVLW  00
030AE:  ADDWFC xBC,F
030B0:  MOVFF  FF2,7BD
030B4:  BCF    FF2.6
030B6:  BCF    FF2.7
030B8:  MOVFF  7BC,FAA
030BC:  MOVFF  7BB,FA9
030C0:  BCF    FA6.6
030C2:  BCF    FA6.7
030C4:  BSF    FA6.0
030C6:  MOVF   FA8,W
030C8:  BTFSC  xBD.6
030CA:  BSF    FF2.6
030CC:  BTFSC  xBD.7
030CE:  BSF    FF2.7
030D0:  MOVWF  FEF
....................          if(Clave[i].Password[j]>9) 
030D2:  MOVLB  3
030D4:  MOVF   x51,W
030D6:  MULLW  04
030D8:  MOVF   FF3,W
030DA:  MOVLB  7
030DC:  CLRF   xBA
030DE:  MOVWF  xB9
030E0:  CLRF   03
030E2:  MOVLB  0
030E4:  MOVF   xC6,W
030E6:  MOVLB  7
030E8:  ADDWF  xB9,W
030EA:  MOVWF  01
030EC:  MOVF   xBA,W
030EE:  ADDWFC 03,F
030F0:  MOVF   01,W
030F2:  ADDLW  91
030F4:  MOVWF  FE9
030F6:  MOVLW  07
030F8:  ADDWFC 03,W
030FA:  MOVWF  FEA
030FC:  MOVF   FEF,W
030FE:  SUBLW  09
03100:  BC    312E
....................             Clave[i].Password[j]=0; 
03102:  MOVLB  3
03104:  MOVF   x51,W
03106:  MULLW  04
03108:  MOVF   FF3,W
0310A:  MOVLB  7
0310C:  CLRF   xBA
0310E:  MOVWF  xB9
03110:  CLRF   03
03112:  MOVLB  0
03114:  MOVF   xC6,W
03116:  MOVLB  7
03118:  ADDWF  xB9,W
0311A:  MOVWF  01
0311C:  MOVF   xBA,W
0311E:  ADDWFC 03,F
03120:  MOVF   01,W
03122:  ADDLW  91
03124:  MOVWF  FE9
03126:  MOVLW  07
03128:  ADDWFC 03,W
0312A:  MOVWF  FEA
0312C:  CLRF   FEF
....................       } 
0312E:  MOVLB  0
03130:  INCF   xC6,F
03132:  BRA    305E
....................    } 
03134:  MOVLB  3
03136:  INCF   x51,F
03138:  BRA    3054
....................     
....................    diaCiclos=read_ext_eeprom(2+(cicloVisto*320)); 
0313A:  MOVLB  7
0313C:  CLRF   xC4
0313E:  MOVFF  C7,7C3
03142:  MOVLW  01
03144:  MOVWF  xC6
03146:  MOVLW  40
03148:  MOVWF  xC5
0314A:  MOVLB  0
0314C:  CALL   203C
03150:  MOVFF  02,03
03154:  MOVF   01,W
03156:  ADDLW  02
03158:  MOVLB  7
0315A:  MOVWF  xB9
0315C:  MOVLW  00
0315E:  ADDWFC 02,W
03160:  MOVWF  xBA
03162:  MOVWF  xBF
03164:  MOVFF  7B9,7BE
03168:  MOVLB  0
0316A:  CALL   213E
0316E:  MOVFF  01,3F8
....................    if(diaCiclos>31) 
03172:  MOVLB  3
03174:  MOVF   xF8,W
03176:  SUBLW  1F
03178:  BC    317E
....................       diaCiclos=1; 
0317A:  MOVLW  01
0317C:  MOVWF  xF8
....................    mesCiclos=read_ext_eeprom(3+(cicloVisto*320)); 
0317E:  MOVLB  7
03180:  CLRF   xC4
03182:  MOVFF  C7,7C3
03186:  MOVLW  01
03188:  MOVWF  xC6
0318A:  MOVLW  40
0318C:  MOVWF  xC5
0318E:  MOVLB  0
03190:  CALL   203C
03194:  MOVFF  02,03
03198:  MOVF   01,W
0319A:  ADDLW  03
0319C:  MOVLB  7
0319E:  MOVWF  xB9
031A0:  MOVLW  00
031A2:  ADDWFC 02,W
031A4:  MOVWF  xBA
031A6:  MOVWF  xBF
031A8:  MOVFF  7B9,7BE
031AC:  MOVLB  0
031AE:  CALL   213E
031B2:  MOVFF  01,3F9
....................    if(mesCiclos>12) 
031B6:  MOVLB  3
031B8:  MOVF   xF9,W
031BA:  SUBLW  0C
031BC:  BC    31C2
....................       mesCiclos=1; 
031BE:  MOVLW  01
031C0:  MOVWF  xF9
....................    yearCiclos=read_ext_eeprom(4+(cicloVisto*320)); 
031C2:  MOVLB  7
031C4:  CLRF   xC4
031C6:  MOVFF  C7,7C3
031CA:  MOVLW  01
031CC:  MOVWF  xC6
031CE:  MOVLW  40
031D0:  MOVWF  xC5
031D2:  MOVLB  0
031D4:  CALL   203C
031D8:  MOVFF  02,03
031DC:  MOVF   01,W
031DE:  ADDLW  04
031E0:  MOVLB  7
031E2:  MOVWF  xB9
031E4:  MOVLW  00
031E6:  ADDWFC 02,W
031E8:  MOVWF  xBA
031EA:  MOVWF  xBF
031EC:  MOVFF  7B9,7BE
031F0:  MOVLB  0
031F2:  CALL   213E
031F6:  MOVFF  01,3FA
....................    if(yearCiclos>99) 
031FA:  MOVLB  3
031FC:  MOVF   xFA,W
031FE:  SUBLW  63
03200:  BC    3206
....................       yearCiclos=19; 
03202:  MOVLW  13
03204:  MOVWF  xFA
....................    cicloCiclos=read_ext_eeprom(1+(cicloVisto*320)); 
03206:  MOVLB  7
03208:  CLRF   xC4
0320A:  MOVFF  C7,7C3
0320E:  MOVLW  01
03210:  MOVWF  xC6
03212:  MOVLW  40
03214:  MOVWF  xC5
03216:  MOVLB  0
03218:  CALL   203C
0321C:  MOVFF  02,03
03220:  MOVF   01,W
03222:  ADDLW  01
03224:  MOVLB  7
03226:  MOVWF  xB9
03228:  MOVLW  00
0322A:  ADDWFC 02,W
0322C:  MOVWF  xBA
0322E:  MOVWF  xBF
03230:  MOVFF  7B9,7BE
03234:  MOVLB  0
03236:  CALL   213E
0323A:  MOVFF  01,3FC
....................    if(cicloCiclos>20) 
0323E:  MOVLB  3
03240:  MOVF   xFC,W
03242:  SUBLW  14
03244:  BC    324A
....................       cicloCiclos=1; 
03246:  MOVLW  01
03248:  MOVWF  xFC
....................    usuarioCiclos=read_ext_eeprom((cicloVisto*320)); 
0324A:  MOVLB  7
0324C:  CLRF   xC4
0324E:  MOVFF  C7,7C3
03252:  MOVLW  01
03254:  MOVWF  xC6
03256:  MOVLW  40
03258:  MOVWF  xC5
0325A:  MOVLB  0
0325C:  CALL   203C
03260:  MOVFF  02,7BA
03264:  MOVFF  01,7B9
03268:  MOVFF  02,7BF
0326C:  MOVFF  01,7BE
03270:  CALL   213E
03274:  MOVFF  01,3FB
....................    if(usuarioCiclos>10) 
03278:  MOVLB  3
0327A:  MOVF   xFB,W
0327C:  SUBLW  0A
0327E:  BC    3284
....................       usuarioCiclos=1; 
03280:  MOVLW  01
03282:  MOVWF  xFB
....................    for(i=0;i<7;i++){//Lee Valores para completar la Tabla 
03284:  CLRF   x51
03286:  MOVF   x51,W
03288:  SUBLW  06
0328A:  BTFSS  FD8.0
0328C:  BRA    37E8
....................       horaCiclos[i]=read_ext_eeprom((cicloVisto*320)+11+((cicloVisualizado+i)*9)); 
0328E:  CLRF   03
03290:  MOVF   x51,W
03292:  ADDLW  E3
03294:  MOVWF  01
03296:  MOVLW  03
03298:  ADDWFC 03,F
0329A:  MOVFF  01,7B9
0329E:  MOVLB  7
032A0:  MOVFF  03,7BA
032A4:  CLRF   xC4
032A6:  MOVFF  C7,7C3
032AA:  MOVLW  01
032AC:  MOVWF  xC6
032AE:  MOVLW  40
032B0:  MOVWF  xC5
032B2:  MOVLB  0
032B4:  CALL   203C
032B8:  MOVFF  02,7BC
032BC:  MOVFF  01,7BB
032C0:  MOVLW  0B
032C2:  MOVLB  7
032C4:  ADDWF  xBB,F
032C6:  MOVLW  00
032C8:  ADDWFC xBC,F
032CA:  MOVLB  3
032CC:  MOVF   x51,W
032CE:  MOVLB  0
032D0:  ADDWF  xC9,W
032D2:  MULLW  09
032D4:  MOVF   FF3,W
032D6:  MOVLB  7
032D8:  ADDWF  xBB,F
032DA:  MOVLW  00
032DC:  ADDWFC xBC,F
032DE:  MOVFF  7BC,7BF
032E2:  MOVFF  7BB,7BE
032E6:  MOVLB  0
032E8:  CALL   213E
032EC:  MOVFF  7BA,FEA
032F0:  MOVFF  7B9,FE9
032F4:  MOVFF  01,FEF
....................       if(horaCiclos[i]>24) 
032F8:  CLRF   03
032FA:  MOVLB  3
032FC:  MOVF   x51,W
032FE:  ADDLW  E3
03300:  MOVWF  FE9
03302:  MOVLW  03
03304:  ADDWFC 03,W
03306:  MOVWF  FEA
03308:  MOVF   FEF,W
0330A:  SUBLW  18
0330C:  BC    331E
....................          horaCiclos[i]=0; 
0330E:  CLRF   03
03310:  MOVF   x51,W
03312:  ADDLW  E3
03314:  MOVWF  FE9
03316:  MOVLW  03
03318:  ADDWFC 03,W
0331A:  MOVWF  FEA
0331C:  CLRF   FEF
....................       minutoCiclos[i]=read_ext_eeprom((cicloVisto*320)+12+((cicloVisualizado+i)*9)); 
0331E:  CLRF   03
03320:  MOVF   x51,W
03322:  ADDLW  EA
03324:  MOVWF  01
03326:  MOVLW  03
03328:  ADDWFC 03,F
0332A:  MOVFF  01,7B9
0332E:  MOVLB  7
03330:  MOVFF  03,7BA
03334:  CLRF   xC4
03336:  MOVFF  C7,7C3
0333A:  MOVLW  01
0333C:  MOVWF  xC6
0333E:  MOVLW  40
03340:  MOVWF  xC5
03342:  MOVLB  0
03344:  CALL   203C
03348:  MOVFF  02,7BC
0334C:  MOVFF  01,7BB
03350:  MOVLW  0C
03352:  MOVLB  7
03354:  ADDWF  xBB,F
03356:  MOVLW  00
03358:  ADDWFC xBC,F
0335A:  MOVLB  3
0335C:  MOVF   x51,W
0335E:  MOVLB  0
03360:  ADDWF  xC9,W
03362:  MULLW  09
03364:  MOVF   FF3,W
03366:  MOVLB  7
03368:  ADDWF  xBB,F
0336A:  MOVLW  00
0336C:  ADDWFC xBC,F
0336E:  MOVFF  7BC,7BF
03372:  MOVFF  7BB,7BE
03376:  MOVLB  0
03378:  CALL   213E
0337C:  MOVFF  7BA,FEA
03380:  MOVFF  7B9,FE9
03384:  MOVFF  01,FEF
....................       if(minutoCiclos[i]>59) 
03388:  CLRF   03
0338A:  MOVLB  3
0338C:  MOVF   x51,W
0338E:  ADDLW  EA
03390:  MOVWF  FE9
03392:  MOVLW  03
03394:  ADDWFC 03,W
03396:  MOVWF  FEA
03398:  MOVF   FEF,W
0339A:  SUBLW  3B
0339C:  BC    33AE
....................          minutoCiclos[i]=0; 
0339E:  CLRF   03
033A0:  MOVF   x51,W
033A2:  ADDLW  EA
033A4:  MOVWF  FE9
033A6:  MOVLW  03
033A8:  ADDWFC 03,W
033AA:  MOVWF  FEA
033AC:  CLRF   FEF
....................       TCiclos[i]=read_ext_eeprom((cicloVisto*320)+5+((cicloVisualizado+i)*9))+inttofloat(read_ext_eeprom((cicloVisto*320)+6+((cicloVisualizado+i)*9))); 
033AE:  MOVF   x51,W
033B0:  MULLW  04
033B2:  MOVF   FF3,W
033B4:  CLRF   03
033B6:  ADDLW  AB
033B8:  MOVWF  01
033BA:  MOVLW  03
033BC:  ADDWFC 03,F
033BE:  MOVFF  01,7B9
033C2:  MOVLB  7
033C4:  MOVFF  03,7BA
033C8:  CLRF   xC4
033CA:  MOVFF  C7,7C3
033CE:  MOVLW  01
033D0:  MOVWF  xC6
033D2:  MOVLW  40
033D4:  MOVWF  xC5
033D6:  MOVLB  0
033D8:  CALL   203C
033DC:  MOVFF  02,7BC
033E0:  MOVFF  01,7BB
033E4:  MOVLW  05
033E6:  MOVLB  7
033E8:  ADDWF  xBB,F
033EA:  MOVLW  00
033EC:  ADDWFC xBC,F
033EE:  MOVLB  3
033F0:  MOVF   x51,W
033F2:  MOVLB  0
033F4:  ADDWF  xC9,W
033F6:  MULLW  09
033F8:  MOVF   FF3,W
033FA:  MOVLB  7
033FC:  ADDWF  xBB,F
033FE:  MOVLW  00
03400:  ADDWFC xBC,F
03402:  MOVFF  7BC,7BF
03406:  MOVFF  7BB,7BE
0340A:  MOVLB  0
0340C:  CALL   213E
03410:  MOVFF  01,7BB
03414:  MOVLB  7
03416:  CLRF   xC4
03418:  MOVFF  C7,7C3
0341C:  MOVLW  01
0341E:  MOVWF  xC6
03420:  MOVLW  40
03422:  MOVWF  xC5
03424:  MOVLB  0
03426:  CALL   203C
0342A:  MOVFF  02,7BD
0342E:  MOVFF  01,7BC
03432:  MOVLW  06
03434:  MOVLB  7
03436:  ADDWF  xBC,F
03438:  MOVLW  00
0343A:  ADDWFC xBD,F
0343C:  MOVLB  3
0343E:  MOVF   x51,W
03440:  MOVLB  0
03442:  ADDWF  xC9,W
03444:  MULLW  09
03446:  MOVF   FF3,W
03448:  MOVLB  7
0344A:  ADDWF  xBC,F
0344C:  MOVLW  00
0344E:  ADDWFC xBD,F
03450:  MOVFF  7BD,7BF
03454:  MOVFF  7BC,7BE
03458:  MOVLB  0
0345A:  CALL   213E
0345E:  MOVFF  01,7BC
03462:  MOVFF  01,7BD
03466:  CALL   2344
0346A:  MOVFF  00,7BC
0346E:  MOVFF  01,7BD
03472:  MOVFF  02,7BE
03476:  MOVFF  03,7BF
0347A:  MOVLB  7
0347C:  CLRF   xCC
0347E:  MOVFF  7BB,7CB
03482:  MOVLB  0
03484:  CALL   1F6A
03488:  MOVFF  FEA,7C1
0348C:  MOVFF  FE9,7C0
03490:  BCF    FD8.1
03492:  MOVFF  03,7CE
03496:  MOVFF  02,7CD
0349A:  MOVFF  01,7CC
0349E:  MOVFF  00,7CB
034A2:  MOVFF  7BF,7D2
034A6:  MOVFF  7BE,7D1
034AA:  MOVFF  7BD,7D0
034AE:  MOVFF  7BC,7CF
034B2:  CALL   2384
034B6:  MOVFF  7C1,FEA
034BA:  MOVFF  7C0,FE9
034BE:  MOVFF  7BA,FEA
034C2:  MOVFF  7B9,FE9
034C6:  MOVFF  00,FEF
034CA:  MOVFF  01,FEC
034CE:  MOVFF  02,FEC
034D2:  MOVFF  03,FEC
....................       if(TCiclos[i]>200) 
034D6:  MOVLB  3
034D8:  MOVF   x51,W
034DA:  MULLW  04
034DC:  MOVF   FF3,W
034DE:  CLRF   03
034E0:  ADDLW  AB
034E2:  MOVWF  FE9
034E4:  MOVLW  03
034E6:  ADDWFC 03,W
034E8:  MOVWF  FEA
034EA:  MOVFF  FEF,7B9
034EE:  MOVFF  FEC,7BA
034F2:  MOVFF  FEC,7BB
034F6:  MOVFF  FEC,7BC
034FA:  MOVLB  7
034FC:  CLRF   xC2
034FE:  CLRF   xC1
03500:  MOVLW  48
03502:  MOVWF  xC0
03504:  MOVLW  86
03506:  MOVWF  xBF
03508:  MOVFF  7BC,7C6
0350C:  MOVFF  7BB,7C5
03510:  MOVFF  7BA,7C4
03514:  MOVFF  7B9,7C3
03518:  MOVLB  0
0351A:  CALL   25FC
0351E:  BNC   353E
....................          TCiclos[i]=0; 
03520:  MOVLB  3
03522:  MOVF   x51,W
03524:  MULLW  04
03526:  MOVF   FF3,W
03528:  CLRF   03
0352A:  ADDLW  AB
0352C:  MOVWF  FE9
0352E:  MOVLW  03
03530:  ADDWFC 03,W
03532:  MOVWF  FEA
03534:  CLRF   FEF
03536:  CLRF   FEC
03538:  CLRF   FEC
0353A:  CLRF   FEC
0353C:  MOVLB  0
....................       PcCiclos[i]=make16(read_ext_eeprom((cicloVisto*320)+7+((cicloVisualizado+i)*9)),read_ext_eeprom((cicloVisto*320)+8+((cicloVisualizado+i)*9))); 
0353E:  BCF    FD8.0
03540:  MOVLB  3
03542:  RLCF   x51,W
03544:  CLRF   03
03546:  ADDLW  C7
03548:  MOVWF  01
0354A:  MOVLW  03
0354C:  ADDWFC 03,F
0354E:  MOVFF  01,7B9
03552:  MOVLB  7
03554:  MOVFF  03,7BA
03558:  CLRF   xC4
0355A:  MOVFF  C7,7C3
0355E:  MOVLW  01
03560:  MOVWF  xC6
03562:  MOVLW  40
03564:  MOVWF  xC5
03566:  MOVLB  0
03568:  CALL   203C
0356C:  MOVFF  02,7BC
03570:  MOVFF  01,7BB
03574:  MOVLW  07
03576:  MOVLB  7
03578:  ADDWF  xBB,F
0357A:  MOVLW  00
0357C:  ADDWFC xBC,F
0357E:  MOVLB  3
03580:  MOVF   x51,W
03582:  MOVLB  0
03584:  ADDWF  xC9,W
03586:  MULLW  09
03588:  MOVF   FF3,W
0358A:  MOVLB  7
0358C:  ADDWF  xBB,F
0358E:  MOVLW  00
03590:  ADDWFC xBC,F
03592:  MOVFF  7BC,7BF
03596:  MOVFF  7BB,7BE
0359A:  MOVLB  0
0359C:  CALL   213E
035A0:  MOVFF  01,7BB
035A4:  MOVLB  7
035A6:  CLRF   xC4
035A8:  MOVFF  C7,7C3
035AC:  MOVLW  01
035AE:  MOVWF  xC6
035B0:  MOVLW  40
035B2:  MOVWF  xC5
035B4:  MOVLB  0
035B6:  CALL   203C
035BA:  MOVFF  02,7BD
035BE:  MOVFF  01,7BC
035C2:  MOVLW  08
035C4:  MOVLB  7
035C6:  ADDWF  xBC,F
035C8:  MOVLW  00
035CA:  ADDWFC xBD,F
035CC:  MOVLB  3
035CE:  MOVF   x51,W
035D0:  MOVLB  0
035D2:  ADDWF  xC9,W
035D4:  MULLW  09
035D6:  MOVF   FF3,W
035D8:  MOVLB  7
035DA:  ADDWF  xBC,F
035DC:  MOVLW  00
035DE:  ADDWFC xBD,F
035E0:  MOVFF  7BD,7BF
035E4:  MOVFF  7BC,7BE
035E8:  MOVLB  0
035EA:  CALL   213E
035EE:  MOVFF  7BA,FEA
035F2:  MOVFF  7B9,FE9
035F6:  MOVFF  7BB,FEC
035FA:  MOVF   FED,F
035FC:  MOVFF  01,FEF
....................       if(PcCiclos[i]>500) 
03600:  BCF    FD8.0
03602:  MOVLB  3
03604:  RLCF   x51,W
03606:  CLRF   03
03608:  ADDLW  C7
0360A:  MOVWF  FE9
0360C:  MOVLW  03
0360E:  ADDWFC 03,W
03610:  MOVWF  FEA
03612:  MOVFF  FEC,7BA
03616:  MOVF   FED,F
03618:  MOVFF  FEF,7B9
0361C:  MOVLB  7
0361E:  MOVF   xBA,W
03620:  SUBLW  00
03622:  BC    3648
03624:  XORLW  FF
03626:  BNZ   362E
03628:  MOVF   xB9,W
0362A:  SUBLW  F4
0362C:  BC    3648
....................          PcCiclos[i]=0; 
0362E:  BCF    FD8.0
03630:  MOVLB  3
03632:  RLCF   x51,W
03634:  CLRF   03
03636:  ADDLW  C7
03638:  MOVWF  FE9
0363A:  MOVLW  03
0363C:  ADDWFC 03,W
0363E:  MOVWF  FEA
03640:  CLRF   FEC
03642:  MOVF   FED,F
03644:  CLRF   FEF
03646:  MOVLB  7
....................       PpcCiclos[i]=make16(read_ext_eeprom((cicloVisto*320)+9+((cicloVisualizado+i)*9)),read_ext_eeprom((cicloVisto*320)+10+((cicloVisualizado+i)*9))); 
03648:  BCF    FD8.0
0364A:  MOVLB  3
0364C:  RLCF   x51,W
0364E:  CLRF   03
03650:  ADDLW  D5
03652:  MOVWF  01
03654:  MOVLW  03
03656:  ADDWFC 03,F
03658:  MOVFF  01,7B9
0365C:  MOVLB  7
0365E:  MOVFF  03,7BA
03662:  CLRF   xC4
03664:  MOVFF  C7,7C3
03668:  MOVLW  01
0366A:  MOVWF  xC6
0366C:  MOVLW  40
0366E:  MOVWF  xC5
03670:  MOVLB  0
03672:  CALL   203C
03676:  MOVFF  02,7BC
0367A:  MOVFF  01,7BB
0367E:  MOVLW  09
03680:  MOVLB  7
03682:  ADDWF  xBB,F
03684:  MOVLW  00
03686:  ADDWFC xBC,F
03688:  MOVLB  3
0368A:  MOVF   x51,W
0368C:  MOVLB  0
0368E:  ADDWF  xC9,W
03690:  MULLW  09
03692:  MOVF   FF3,W
03694:  MOVLB  7
03696:  ADDWF  xBB,F
03698:  MOVLW  00
0369A:  ADDWFC xBC,F
0369C:  MOVFF  7BC,7BF
036A0:  MOVFF  7BB,7BE
036A4:  MOVLB  0
036A6:  CALL   213E
036AA:  MOVFF  01,7BB
036AE:  MOVLB  7
036B0:  CLRF   xC4
036B2:  MOVFF  C7,7C3
036B6:  MOVLW  01
036B8:  MOVWF  xC6
036BA:  MOVLW  40
036BC:  MOVWF  xC5
036BE:  MOVLB  0
036C0:  CALL   203C
036C4:  MOVFF  02,7BD
036C8:  MOVFF  01,7BC
036CC:  MOVLW  0A
036CE:  MOVLB  7
036D0:  ADDWF  xBC,F
036D2:  MOVLW  00
036D4:  ADDWFC xBD,F
036D6:  MOVLB  3
036D8:  MOVF   x51,W
036DA:  MOVLB  0
036DC:  ADDWF  xC9,W
036DE:  MULLW  09
036E0:  MOVF   FF3,W
036E2:  MOVLB  7
036E4:  ADDWF  xBC,F
036E6:  MOVLW  00
036E8:  ADDWFC xBD,F
036EA:  MOVFF  7BD,7BF
036EE:  MOVFF  7BC,7BE
036F2:  MOVLB  0
036F4:  CALL   213E
036F8:  MOVFF  7BA,FEA
036FC:  MOVFF  7B9,FE9
03700:  MOVFF  7BB,FEC
03704:  MOVF   FED,F
03706:  MOVFF  01,FEF
....................       if(PpcCiclos[i]>500) 
0370A:  BCF    FD8.0
0370C:  MOVLB  3
0370E:  RLCF   x51,W
03710:  CLRF   03
03712:  ADDLW  D5
03714:  MOVWF  FE9
03716:  MOVLW  03
03718:  ADDWFC 03,W
0371A:  MOVWF  FEA
0371C:  MOVFF  FEC,7BA
03720:  MOVF   FED,F
03722:  MOVFF  FEF,7B9
03726:  MOVLB  7
03728:  MOVF   xBA,W
0372A:  SUBLW  00
0372C:  BC    3752
0372E:  XORLW  FF
03730:  BNZ   3738
03732:  MOVF   xB9,W
03734:  SUBLW  F4
03736:  BC    3752
....................          PpcCiclos[i]=0; 
03738:  BCF    FD8.0
0373A:  MOVLB  3
0373C:  RLCF   x51,W
0373E:  CLRF   03
03740:  ADDLW  D5
03742:  MOVWF  FE9
03744:  MOVLW  03
03746:  ADDWFC 03,W
03748:  MOVWF  FEA
0374A:  CLRF   FEC
0374C:  MOVF   FED,F
0374E:  CLRF   FEF
03750:  MOVLB  7
....................       ACiclos[i]=read_ext_eeprom((cicloVisto*320)+13+((cicloVisualizado+i)*9)); 
03752:  CLRF   03
03754:  MOVLB  3
03756:  MOVF   x51,W
03758:  ADDLW  F1
0375A:  MOVWF  01
0375C:  MOVLW  03
0375E:  ADDWFC 03,F
03760:  MOVFF  01,7B9
03764:  MOVLB  7
03766:  MOVFF  03,7BA
0376A:  CLRF   xC4
0376C:  MOVFF  C7,7C3
03770:  MOVLW  01
03772:  MOVWF  xC6
03774:  MOVLW  40
03776:  MOVWF  xC5
03778:  MOVLB  0
0377A:  CALL   203C
0377E:  MOVFF  02,7BC
03782:  MOVFF  01,7BB
03786:  MOVLW  0D
03788:  MOVLB  7
0378A:  ADDWF  xBB,F
0378C:  MOVLW  00
0378E:  ADDWFC xBC,F
03790:  MOVLB  3
03792:  MOVF   x51,W
03794:  MOVLB  0
03796:  ADDWF  xC9,W
03798:  MULLW  09
0379A:  MOVF   FF3,W
0379C:  MOVLB  7
0379E:  ADDWF  xBB,F
037A0:  MOVLW  00
037A2:  ADDWFC xBC,F
037A4:  MOVFF  7BC,7BF
037A8:  MOVFF  7BB,7BE
037AC:  MOVLB  0
037AE:  CALL   213E
037B2:  MOVFF  7BA,FEA
037B6:  MOVFF  7B9,FE9
037BA:  MOVFF  01,FEF
....................       if(ACiclos[i]>30) 
037BE:  CLRF   03
037C0:  MOVLB  3
037C2:  MOVF   x51,W
037C4:  ADDLW  F1
037C6:  MOVWF  FE9
037C8:  MOVLW  03
037CA:  ADDWFC 03,W
037CC:  MOVWF  FEA
037CE:  MOVF   FEF,W
037D0:  SUBLW  1E
037D2:  BC    37E4
....................          ACiclos[i]=0; 
037D4:  CLRF   03
037D6:  MOVF   x51,W
037D8:  ADDLW  F1
037DA:  MOVWF  FE9
037DC:  MOVLW  03
037DE:  ADDWFC 03,W
037E0:  MOVWF  FEA
037E2:  CLRF   FEF
....................    } 
037E4:  INCF   x51,F
037E6:  BRA    3286
.................... } 
037E8:  MOVLB  0
037EA:  GOTO   8216 (RETURN)
....................  
.................... void LimitaValores(){ 
....................    if(Ganancia>20.0){ 
*
03922:  MOVLB  7
03924:  CLRF   xC2
03926:  CLRF   xC1
03928:  MOVLW  20
0392A:  MOVWF  xC0
0392C:  MOVLW  83
0392E:  MOVWF  xBF
03930:  MOVFF  2FB,7C6
03934:  MOVFF  2FA,7C5
03938:  MOVFF  2F9,7C4
0393C:  MOVFF  2F8,7C3
03940:  MOVLB  0
03942:  CALL   25FC
03946:  BNC   3990
....................       Ganancia=15.0; 
03948:  MOVLB  2
0394A:  CLRF   xFB
0394C:  CLRF   xFA
0394E:  MOVLW  70
03950:  MOVWF  xF9
03952:  MOVLW  82
03954:  MOVWF  xF8
....................       write_eeprom(20,15); 
03956:  CLRF   FAA
03958:  MOVLW  14
0395A:  MOVWF  FA9
0395C:  MOVLW  0F
0395E:  MOVWF  FA8
03960:  BCF    FA6.6
03962:  BCF    FA6.7
03964:  BSF    FA6.2
03966:  MOVF   FF2,W
03968:  MOVWF  00
0396A:  BCF    FF2.6
0396C:  BCF    FF2.7
0396E:  MOVLB  F
03970:  MOVLW  55
03972:  MOVWF  FA7
03974:  MOVLW  AA
03976:  MOVWF  FA7
03978:  BSF    FA6.1
0397A:  BTFSC  FA6.1
0397C:  BRA    397A
0397E:  BCF    FA6.2
03980:  MOVF   00,W
03982:  IORWF  FF2,F
....................       delay_ms(10); 
03984:  MOVLW  0A
03986:  MOVLB  7
03988:  MOVWF  xC9
0398A:  MOVLB  0
0398C:  CALL   1FA0
....................    } 
....................    if(Sensor[0].Ajuste>20){ 
03990:  MOVLB  4
03992:  MOVF   x1F,W
03994:  SUBLW  14
03996:  BC    39D4
....................       Sensor[0].Ajuste=0; 
03998:  CLRF   x1F
....................       write_eeprom(21,0); 
0399A:  CLRF   FAA
0399C:  MOVLW  15
0399E:  MOVWF  FA9
039A0:  CLRF   FA8
039A2:  BCF    FA6.6
039A4:  BCF    FA6.7
039A6:  BSF    FA6.2
039A8:  MOVF   FF2,W
039AA:  MOVWF  00
039AC:  BCF    FF2.6
039AE:  BCF    FF2.7
039B0:  MOVLB  F
039B2:  MOVLW  55
039B4:  MOVWF  FA7
039B6:  MOVLW  AA
039B8:  MOVWF  FA7
039BA:  BSF    FA6.1
039BC:  BTFSC  FA6.1
039BE:  BRA    39BC
039C0:  BCF    FA6.2
039C2:  MOVF   00,W
039C4:  IORWF  FF2,F
....................       delay_ms(10); 
039C6:  MOVLW  0A
039C8:  MOVLB  7
039CA:  MOVWF  xC9
039CC:  MOVLB  0
039CE:  CALL   1FA0
039D2:  MOVLB  4
....................    } 
....................    if(Sensor[0].Ajusten>20){ 
039D4:  MOVF   x20,W
039D6:  SUBLW  14
039D8:  BC    3A14
....................       Sensor[0].Ajusten=0; 
039DA:  CLRF   x20
....................       write_eeprom(22,0); 
039DC:  CLRF   FAA
039DE:  MOVLW  16
039E0:  MOVWF  FA9
039E2:  CLRF   FA8
039E4:  BCF    FA6.6
039E6:  BCF    FA6.7
039E8:  BSF    FA6.2
039EA:  MOVF   FF2,W
039EC:  MOVWF  00
039EE:  BCF    FF2.6
039F0:  BCF    FF2.7
039F2:  MOVLB  F
039F4:  MOVLW  55
039F6:  MOVWF  FA7
039F8:  MOVLW  AA
039FA:  MOVWF  FA7
039FC:  BSF    FA6.1
039FE:  BTFSC  FA6.1
03A00:  BRA    39FE
03A02:  BCF    FA6.2
03A04:  MOVF   00,W
03A06:  IORWF  FF2,F
....................       delay_ms(10); 
03A08:  MOVLW  0A
03A0A:  MOVLB  7
03A0C:  MOVWF  xC9
03A0E:  MOVLB  0
03A10:  CALL   1FA0
....................    } 
....................    if(Sensor[1].Ajuste>20){ 
03A14:  MOVLB  5
03A16:  MOVF   x83,W
03A18:  SUBLW  14
03A1A:  BC    3A58
....................       Sensor[1].Ajuste=0; 
03A1C:  CLRF   x83
....................       write_eeprom(23,0); 
03A1E:  CLRF   FAA
03A20:  MOVLW  17
03A22:  MOVWF  FA9
03A24:  CLRF   FA8
03A26:  BCF    FA6.6
03A28:  BCF    FA6.7
03A2A:  BSF    FA6.2
03A2C:  MOVF   FF2,W
03A2E:  MOVWF  00
03A30:  BCF    FF2.6
03A32:  BCF    FF2.7
03A34:  MOVLB  F
03A36:  MOVLW  55
03A38:  MOVWF  FA7
03A3A:  MOVLW  AA
03A3C:  MOVWF  FA7
03A3E:  BSF    FA6.1
03A40:  BTFSC  FA6.1
03A42:  BRA    3A40
03A44:  BCF    FA6.2
03A46:  MOVF   00,W
03A48:  IORWF  FF2,F
....................       delay_ms(10); 
03A4A:  MOVLW  0A
03A4C:  MOVLB  7
03A4E:  MOVWF  xC9
03A50:  MOVLB  0
03A52:  CALL   1FA0
03A56:  MOVLB  5
....................    } 
....................    if(Sensor[1].Ajusten>20){ 
03A58:  MOVF   x84,W
03A5A:  SUBLW  14
03A5C:  BC    3A98
....................       Sensor[1].Ajusten=0; 
03A5E:  CLRF   x84
....................       write_eeprom(24,0); 
03A60:  CLRF   FAA
03A62:  MOVLW  18
03A64:  MOVWF  FA9
03A66:  CLRF   FA8
03A68:  BCF    FA6.6
03A6A:  BCF    FA6.7
03A6C:  BSF    FA6.2
03A6E:  MOVF   FF2,W
03A70:  MOVWF  00
03A72:  BCF    FF2.6
03A74:  BCF    FF2.7
03A76:  MOVLB  F
03A78:  MOVLW  55
03A7A:  MOVWF  FA7
03A7C:  MOVLW  AA
03A7E:  MOVWF  FA7
03A80:  BSF    FA6.1
03A82:  BTFSC  FA6.1
03A84:  BRA    3A82
03A86:  BCF    FA6.2
03A88:  MOVF   00,W
03A8A:  IORWF  FF2,F
....................       delay_ms(10); 
03A8C:  MOVLW  0A
03A8E:  MOVLB  7
03A90:  MOVWF  xC9
03A92:  MOVLB  0
03A94:  CALL   1FA0
....................    } 
....................    if(MediaMovil>80){ 
03A98:  MOVLB  2
03A9A:  MOVF   xD3,W
03A9C:  SUBLW  50
03A9E:  BC    3ADE
....................       MediaMovil=40; 
03AA0:  MOVLW  28
03AA2:  MOVWF  xD3
....................       write_eeprom(25,40); 
03AA4:  CLRF   FAA
03AA6:  MOVLW  19
03AA8:  MOVWF  FA9
03AAA:  MOVLW  28
03AAC:  MOVWF  FA8
03AAE:  BCF    FA6.6
03AB0:  BCF    FA6.7
03AB2:  BSF    FA6.2
03AB4:  MOVF   FF2,W
03AB6:  MOVWF  00
03AB8:  BCF    FF2.6
03ABA:  BCF    FF2.7
03ABC:  MOVLB  F
03ABE:  MOVLW  55
03AC0:  MOVWF  FA7
03AC2:  MOVLW  AA
03AC4:  MOVWF  FA7
03AC6:  BSF    FA6.1
03AC8:  BTFSC  FA6.1
03ACA:  BRA    3AC8
03ACC:  BCF    FA6.2
03ACE:  MOVF   00,W
03AD0:  IORWF  FF2,F
....................       delay_ms(10); 
03AD2:  MOVLW  0A
03AD4:  MOVLB  7
03AD6:  MOVWF  xC9
03AD8:  MOVLB  0
03ADA:  CALL   1FA0
....................    } 
....................    if(Tciclo>10){ 
03ADE:  MOVLB  7
03AE0:  CLRF   xC2
03AE2:  CLRF   xC1
03AE4:  MOVLW  20
03AE6:  MOVWF  xC0
03AE8:  MOVLW  82
03AEA:  MOVWF  xBF
03AEC:  MOVFF  2E3,7C6
03AF0:  MOVFF  2E2,7C5
03AF4:  MOVFF  2E1,7C4
03AF8:  MOVFF  2E0,7C3
03AFC:  MOVLB  0
03AFE:  CALL   25FC
03B02:  BNC   3B4C
....................       Tciclo=10; 
03B04:  MOVLB  2
03B06:  CLRF   xE3
03B08:  CLRF   xE2
03B0A:  MOVLW  20
03B0C:  MOVWF  xE1
03B0E:  MOVLW  82
03B10:  MOVWF  xE0
....................       write_eeprom(26,10); 
03B12:  CLRF   FAA
03B14:  MOVLW  1A
03B16:  MOVWF  FA9
03B18:  MOVLW  0A
03B1A:  MOVWF  FA8
03B1C:  BCF    FA6.6
03B1E:  BCF    FA6.7
03B20:  BSF    FA6.2
03B22:  MOVF   FF2,W
03B24:  MOVWF  00
03B26:  BCF    FF2.6
03B28:  BCF    FF2.7
03B2A:  MOVLB  F
03B2C:  MOVLW  55
03B2E:  MOVWF  FA7
03B30:  MOVLW  AA
03B32:  MOVWF  FA7
03B34:  BSF    FA6.1
03B36:  BTFSC  FA6.1
03B38:  BRA    3B36
03B3A:  BCF    FA6.2
03B3C:  MOVF   00,W
03B3E:  IORWF  FF2,F
....................       delay_ms(10); 
03B40:  MOVLW  0A
03B42:  MOVLB  7
03B44:  MOVWF  xC9
03B46:  MOVLB  0
03B48:  CALL   1FA0
....................    } 
....................    if(Sensor[1].RPT100>2.0){ 
03B4C:  MOVLB  7
03B4E:  CLRF   xC2
03B50:  CLRF   xC1
03B52:  CLRF   xC0
03B54:  MOVLW  80
03B56:  MOVWF  xBF
03B58:  MOVFF  578,7C6
03B5C:  MOVFF  577,7C5
03B60:  MOVFF  576,7C4
03B64:  MOVFF  575,7C3
03B68:  MOVLB  0
03B6A:  CALL   25FC
03B6E:  BNC   3BEE
....................       Sensor[1].RPT100=0.5; 
03B70:  MOVLB  5
03B72:  CLRF   x78
03B74:  CLRF   x77
03B76:  CLRF   x76
03B78:  MOVLW  7E
03B7A:  MOVWF  x75
....................       write_eeprom(30,0); 
03B7C:  CLRF   FAA
03B7E:  MOVLW  1E
03B80:  MOVWF  FA9
03B82:  CLRF   FA8
03B84:  BCF    FA6.6
03B86:  BCF    FA6.7
03B88:  BSF    FA6.2
03B8A:  MOVF   FF2,W
03B8C:  MOVWF  00
03B8E:  BCF    FF2.6
03B90:  BCF    FF2.7
03B92:  MOVLB  F
03B94:  MOVLW  55
03B96:  MOVWF  FA7
03B98:  MOVLW  AA
03B9A:  MOVWF  FA7
03B9C:  BSF    FA6.1
03B9E:  BTFSC  FA6.1
03BA0:  BRA    3B9E
03BA2:  BCF    FA6.2
03BA4:  MOVF   00,W
03BA6:  IORWF  FF2,F
....................       delay_ms(10); 
03BA8:  MOVLW  0A
03BAA:  MOVLB  7
03BAC:  MOVWF  xC9
03BAE:  MOVLB  0
03BB0:  CALL   1FA0
....................       write_eeprom(29,5); 
03BB4:  CLRF   FAA
03BB6:  MOVLW  1D
03BB8:  MOVWF  FA9
03BBA:  MOVLW  05
03BBC:  MOVWF  FA8
03BBE:  BCF    FA6.6
03BC0:  BCF    FA6.7
03BC2:  BSF    FA6.2
03BC4:  MOVF   FF2,W
03BC6:  MOVWF  00
03BC8:  BCF    FF2.6
03BCA:  BCF    FF2.7
03BCC:  MOVLB  F
03BCE:  MOVLW  55
03BD0:  MOVWF  FA7
03BD2:  MOVLW  AA
03BD4:  MOVWF  FA7
03BD6:  BSF    FA6.1
03BD8:  BTFSC  FA6.1
03BDA:  BRA    3BD8
03BDC:  BCF    FA6.2
03BDE:  MOVF   00,W
03BE0:  IORWF  FF2,F
....................       delay_ms(10); 
03BE2:  MOVLW  0A
03BE4:  MOVLB  7
03BE6:  MOVWF  xC9
03BE8:  MOVLB  0
03BEA:  CALL   1FA0
....................    } 
....................    if(Atmosferica>100){ 
03BEE:  MOVLB  3
03BF0:  MOVF   x3A,W
03BF2:  SUBLW  64
03BF4:  BC    3C34
....................       Atmosferica=69; 
03BF6:  MOVLW  45
03BF8:  MOVWF  x3A
....................       write_eeprom(31,69); 
03BFA:  CLRF   FAA
03BFC:  MOVLW  1F
03BFE:  MOVWF  FA9
03C00:  MOVLW  45
03C02:  MOVWF  FA8
03C04:  BCF    FA6.6
03C06:  BCF    FA6.7
03C08:  BSF    FA6.2
03C0A:  MOVF   FF2,W
03C0C:  MOVWF  00
03C0E:  BCF    FF2.6
03C10:  BCF    FF2.7
03C12:  MOVLB  F
03C14:  MOVLW  55
03C16:  MOVWF  FA7
03C18:  MOVLW  AA
03C1A:  MOVWF  FA7
03C1C:  BSF    FA6.1
03C1E:  BTFSC  FA6.1
03C20:  BRA    3C1E
03C22:  BCF    FA6.2
03C24:  MOVF   00,W
03C26:  IORWF  FF2,F
....................       delay_ms(10); 
03C28:  MOVLW  0A
03C2A:  MOVLB  7
03C2C:  MOVWF  xC9
03C2E:  MOVLB  0
03C30:  CALL   1FA0
....................    } 
....................    if(Tapertura>100){ 
03C34:  MOVLB  2
03C36:  MOVF   xD7,W
03C38:  SUBLW  64
03C3A:  BC    3C7A
....................       Tapertura=85; 
03C3C:  MOVLW  55
03C3E:  MOVWF  xD7
....................       write_eeprom(32,85); 
03C40:  CLRF   FAA
03C42:  MOVLW  20
03C44:  MOVWF  FA9
03C46:  MOVLW  55
03C48:  MOVWF  FA8
03C4A:  BCF    FA6.6
03C4C:  BCF    FA6.7
03C4E:  BSF    FA6.2
03C50:  MOVF   FF2,W
03C52:  MOVWF  00
03C54:  BCF    FF2.6
03C56:  BCF    FF2.7
03C58:  MOVLB  F
03C5A:  MOVLW  55
03C5C:  MOVWF  FA7
03C5E:  MOVLW  AA
03C60:  MOVWF  FA7
03C62:  BSF    FA6.1
03C64:  BTFSC  FA6.1
03C66:  BRA    3C64
03C68:  BCF    FA6.2
03C6A:  MOVF   00,W
03C6C:  IORWF  FF2,F
....................       delay_ms(10); 
03C6E:  MOVLW  0A
03C70:  MOVLB  7
03C72:  MOVWF  xC9
03C74:  MOVLB  0
03C76:  CALL   1FA0
....................    } 
....................    if(Ciclos>60000){ 
03C7A:  MOVLB  3
03C7C:  MOVF   x6C,W
03C7E:  SUBLW  E9
03C80:  BC    3D00
03C82:  XORLW  FF
03C84:  BNZ   3C8C
03C86:  MOVF   x6B,W
03C88:  SUBLW  60
03C8A:  BC    3D00
....................       Ciclos=0; 
03C8C:  CLRF   x6C
03C8E:  CLRF   x6B
....................       write_eeprom(37,0); 
03C90:  CLRF   FAA
03C92:  MOVLW  25
03C94:  MOVWF  FA9
03C96:  CLRF   FA8
03C98:  BCF    FA6.6
03C9A:  BCF    FA6.7
03C9C:  BSF    FA6.2
03C9E:  MOVF   FF2,W
03CA0:  MOVWF  00
03CA2:  BCF    FF2.6
03CA4:  BCF    FF2.7
03CA6:  MOVLB  F
03CA8:  MOVLW  55
03CAA:  MOVWF  FA7
03CAC:  MOVLW  AA
03CAE:  MOVWF  FA7
03CB0:  BSF    FA6.1
03CB2:  BTFSC  FA6.1
03CB4:  BRA    3CB2
03CB6:  BCF    FA6.2
03CB8:  MOVF   00,W
03CBA:  IORWF  FF2,F
....................       delay_ms(10); 
03CBC:  MOVLW  0A
03CBE:  MOVLB  7
03CC0:  MOVWF  xC9
03CC2:  MOVLB  0
03CC4:  CALL   1FA0
....................       write_eeprom(38,0); 
03CC8:  CLRF   FAA
03CCA:  MOVLW  26
03CCC:  MOVWF  FA9
03CCE:  CLRF   FA8
03CD0:  BCF    FA6.6
03CD2:  BCF    FA6.7
03CD4:  BSF    FA6.2
03CD6:  MOVF   FF2,W
03CD8:  MOVWF  00
03CDA:  BCF    FF2.6
03CDC:  BCF    FF2.7
03CDE:  MOVLB  F
03CE0:  MOVLW  55
03CE2:  MOVWF  FA7
03CE4:  MOVLW  AA
03CE6:  MOVWF  FA7
03CE8:  BSF    FA6.1
03CEA:  BTFSC  FA6.1
03CEC:  BRA    3CEA
03CEE:  BCF    FA6.2
03CF0:  MOVF   00,W
03CF2:  IORWF  FF2,F
....................       delay_ms(10); 
03CF4:  MOVLW  0A
03CF6:  MOVLB  7
03CF8:  MOVWF  xC9
03CFA:  MOVLB  0
03CFC:  CALL   1FA0
....................    } 
....................    if(TTrampa>100){ 
03D00:  MOVLB  0
03D02:  MOVF   xCE,W
03D04:  SUBLW  64
03D06:  BC    3D46
....................       TTrampa=80; 
03D08:  MOVLW  50
03D0A:  MOVWF  xCE
....................       write_eeprom(39,80); 
03D0C:  CLRF   FAA
03D0E:  MOVLW  27
03D10:  MOVWF  FA9
03D12:  MOVLW  50
03D14:  MOVWF  FA8
03D16:  BCF    FA6.6
03D18:  BCF    FA6.7
03D1A:  BSF    FA6.2
03D1C:  MOVF   FF2,W
03D1E:  MOVWF  00
03D20:  BCF    FF2.6
03D22:  BCF    FF2.7
03D24:  MOVLB  F
03D26:  MOVLW  55
03D28:  MOVWF  FA7
03D2A:  MOVLW  AA
03D2C:  MOVWF  FA7
03D2E:  BSF    FA6.1
03D30:  BTFSC  FA6.1
03D32:  BRA    3D30
03D34:  BCF    FA6.2
03D36:  MOVF   00,W
03D38:  IORWF  FF2,F
....................       delay_ms(10); 
03D3A:  MOVLW  0A
03D3C:  MOVLB  7
03D3E:  MOVWF  xC9
03D40:  MOVLB  0
03D42:  CALL   1FA0
....................    } 
....................    if(sg1==10){ 
03D46:  MOVLB  3
03D48:  MOVF   x95,W
03D4A:  SUBLW  0A
03D4C:  BNZ   3D62
....................       G1=G1*(-1); 
03D4E:  MOVFF  393,7B9
03D52:  MOVLW  FF
03D54:  MOVLB  7
03D56:  MOVWF  xBA
03D58:  MOVLB  0
03D5A:  RCALL  38D4
03D5C:  MOVFF  01,393
03D60:  MOVLB  3
....................    } 
....................    if(sg2==10){ 
03D62:  MOVF   x96,W
03D64:  SUBLW  0A
03D66:  BNZ   3D7A
....................       G2=G2*(-1); 
03D68:  MOVFF  394,7B9
03D6C:  MOVLW  FF
03D6E:  MOVLB  7
03D70:  MOVWF  xBA
03D72:  MOVLB  0
03D74:  RCALL  38D4
03D76:  MOVFF  01,394
....................    } 
....................    if(Integral>10.0){ 
03D7A:  MOVLB  7
03D7C:  CLRF   xCC
03D7E:  MOVFF  330,7CB
03D82:  MOVLB  0
03D84:  CALL   1F6A
03D88:  MOVLB  7
03D8A:  CLRF   xC2
03D8C:  CLRF   xC1
03D8E:  MOVLW  20
03D90:  MOVWF  xC0
03D92:  MOVLW  82
03D94:  MOVWF  xBF
03D96:  MOVFF  03,7C6
03D9A:  MOVFF  02,7C5
03D9E:  MOVFF  01,7C4
03DA2:  MOVFF  00,7C3
03DA6:  MOVLB  0
03DA8:  CALL   25FC
03DAC:  BNC   3DEE
....................       Integral=1.0; 
03DAE:  MOVLW  01
03DB0:  MOVLB  3
03DB2:  MOVWF  x30
....................       write_eeprom(27,1); 
03DB4:  CLRF   FAA
03DB6:  MOVLW  1B
03DB8:  MOVWF  FA9
03DBA:  MOVLW  01
03DBC:  MOVWF  FA8
03DBE:  BCF    FA6.6
03DC0:  BCF    FA6.7
03DC2:  BSF    FA6.2
03DC4:  MOVF   FF2,W
03DC6:  MOVWF  00
03DC8:  BCF    FF2.6
03DCA:  BCF    FF2.7
03DCC:  MOVLB  F
03DCE:  MOVLW  55
03DD0:  MOVWF  FA7
03DD2:  MOVLW  AA
03DD4:  MOVWF  FA7
03DD6:  BSF    FA6.1
03DD8:  BTFSC  FA6.1
03DDA:  BRA    3DD8
03DDC:  BCF    FA6.2
03DDE:  MOVF   00,W
03DE0:  IORWF  FF2,F
....................       delay_ms(10); 
03DE2:  MOVLW  0A
03DE4:  MOVLB  7
03DE6:  MOVWF  xC9
03DE8:  MOVLB  0
03DEA:  CALL   1FA0
....................    } 
....................    if(Derivativo>90.0){ 
03DEE:  MOVLB  7
03DF0:  CLRF   xCC
03DF2:  MOVFF  331,7CB
03DF6:  MOVLB  0
03DF8:  CALL   1F6A
03DFC:  MOVLB  7
03DFE:  CLRF   xC2
03E00:  CLRF   xC1
03E02:  MOVLW  34
03E04:  MOVWF  xC0
03E06:  MOVLW  85
03E08:  MOVWF  xBF
03E0A:  MOVFF  03,7C6
03E0E:  MOVFF  02,7C5
03E12:  MOVFF  01,7C4
03E16:  MOVFF  00,7C3
03E1A:  MOVLB  0
03E1C:  CALL   25FC
03E20:  BNC   3E62
....................       Derivativo=15.0; 
03E22:  MOVLW  0F
03E24:  MOVLB  3
03E26:  MOVWF  x31
....................       write_eeprom(28,15); 
03E28:  CLRF   FAA
03E2A:  MOVLW  1C
03E2C:  MOVWF  FA9
03E2E:  MOVLW  0F
03E30:  MOVWF  FA8
03E32:  BCF    FA6.6
03E34:  BCF    FA6.7
03E36:  BSF    FA6.2
03E38:  MOVF   FF2,W
03E3A:  MOVWF  00
03E3C:  BCF    FF2.6
03E3E:  BCF    FF2.7
03E40:  MOVLB  F
03E42:  MOVLW  55
03E44:  MOVWF  FA7
03E46:  MOVLW  AA
03E48:  MOVWF  FA7
03E4A:  BSF    FA6.1
03E4C:  BTFSC  FA6.1
03E4E:  BRA    3E4C
03E50:  BCF    FA6.2
03E52:  MOVF   00,W
03E54:  IORWF  FF2,F
....................       delay_ms(10); 
03E56:  MOVLW  0A
03E58:  MOVLB  7
03E5A:  MOVWF  xC9
03E5C:  MOVLB  0
03E5E:  CALL   1FA0
....................    } 
.................... } 
03E62:  GOTO   822A (RETURN)
....................  
.................... void LeeDisplay(void){ 
....................    if(Dato_Exitoso==5){ 
*
04E42:  MOVLB  3
04E44:  MOVF   x4C,W
04E46:  SUBLW  05
04E48:  BTFSS  FD8.2
04E4A:  BRA    502C
....................          RX_Buffer[0]=RX_Buffer2[0]; 
04E4C:  MOVFF  3B,30
....................          RX_Buffer[1]=RX_Buffer2[1]; 
04E50:  MOVFF  3C,31
....................          RX_Buffer[2]=RX_Buffer2[2]; 
04E54:  MOVFF  3D,32
....................          RX_Buffer[3]=RX_Buffer2[3]; 
04E58:  MOVFF  3E,33
....................          RX_Buffer[4]=RX_Buffer2[4]; 
04E5C:  MOVFF  3F,34
....................          RX_Buffer[5]=RX_Buffer2[5]; 
04E60:  MOVFF  40,35
....................          RX_Buffer[6]=RX_Buffer2[6]; 
04E64:  MOVFF  41,36
....................          RX_Buffer[7]=RX_Buffer2[7]; 
04E68:  MOVFF  42,37
....................          RX_Buffer[8]=RX_Buffer2[8]; 
04E6C:  MOVFF  43,38
....................          RX_Buffer[9]=RX_Buffer2[9]; 
04E70:  MOVFF  44,39
....................           
....................       if(RX_Buffer[3]==0x01){// Pregunta por la pagina en la que esta el display,01 es Contrasea de Acceso 
04E74:  DECFSZ 33,W
04E76:  BRA    4E86
....................          Menu=0; 
04E78:  CLRF   x4E
....................          if(MenuAntt!=Menu) 
04E7A:  MOVF   x4E,W
04E7C:  SUBWF  x50,W
04E7E:  BZ    4E84
....................             MenuAntt=Menu; 
04E80:  MOVFF  34E,350
....................       }else if(RX_Buffer[3]==0x02){//02 es Ciclos Fijos 
04E84:  BRA    502C
04E86:  MOVF   33,W
04E88:  SUBLW  02
04E8A:  BNZ   4E9C
....................          Menu=1; 
04E8C:  MOVLW  01
04E8E:  MOVWF  x4E
....................          if(MenuAntt!=Menu) 
04E90:  MOVF   x4E,W
04E92:  SUBWF  x50,W
04E94:  BZ    4E9A
....................             MenuAntt=Menu; 
04E96:  MOVFF  34E,350
....................       }else if(RX_Buffer[3]==0x03){//03 es Tiempo Esterilizacion 
04E9A:  BRA    502C
04E9C:  MOVF   33,W
04E9E:  SUBLW  03
04EA0:  BNZ   4EB2
....................          Menu=2; 
04EA2:  MOVLW  02
04EA4:  MOVWF  x4E
....................          if(MenuAntt!=Menu) 
04EA6:  MOVF   x4E,W
04EA8:  SUBWF  x50,W
04EAA:  BZ    4EB0
....................             MenuAntt=Menu; 
04EAC:  MOVFF  34E,350
....................       }else if(RX_Buffer[3]==0x04){//04 es Tiempo de Secado 
04EB0:  BRA    502C
04EB2:  MOVF   33,W
04EB4:  SUBLW  04
04EB6:  BNZ   4EC8
....................          Menu=3; 
04EB8:  MOVLW  03
04EBA:  MOVWF  x4E
....................          if(MenuAntt!=Menu) 
04EBC:  MOVF   x4E,W
04EBE:  SUBWF  x50,W
04EC0:  BZ    4EC6
....................             MenuAntt=Menu; 
04EC2:  MOVFF  34E,350
....................       }else if(RX_Buffer[3]==0x05){//05 es Temperatura 
04EC6:  BRA    502C
04EC8:  MOVF   33,W
04ECA:  SUBLW  05
04ECC:  BNZ   4EDE
....................          Menu=4; 
04ECE:  MOVLW  04
04ED0:  MOVWF  x4E
....................          if(MenuAntt!=Menu) 
04ED2:  MOVF   x4E,W
04ED4:  SUBWF  x50,W
04ED6:  BZ    4EDC
....................             MenuAntt=Menu; 
04ED8:  MOVFF  34E,350
....................       }else if(RX_Buffer[3]==0x06){//06 es Nivel de Vacio 
04EDC:  BRA    502C
04EDE:  MOVF   33,W
04EE0:  SUBLW  06
04EE2:  BNZ   4EF4
....................          Menu=5; 
04EE4:  MOVLW  05
04EE6:  MOVWF  x4E
....................          if(MenuAntt!=Menu) 
04EE8:  MOVF   x4E,W
04EEA:  SUBWF  x50,W
04EEC:  BZ    4EF2
....................             MenuAntt=Menu; 
04EEE:  MOVFF  34E,350
....................       }else if(RX_Buffer[3]==0x07){//07 es Test de Componentes 
04EF2:  BRA    502C
04EF4:  MOVF   33,W
04EF6:  SUBLW  07
04EF8:  BNZ   4F0A
....................          Menu=6; 
04EFA:  MOVLW  06
04EFC:  MOVWF  x4E
....................          if(MenuAntt!=Menu) 
04EFE:  MOVF   x4E,W
04F00:  SUBWF  x50,W
04F02:  BZ    4F08
....................             MenuAntt=Menu; 
04F04:  MOVFF  34E,350
....................       }else if(RX_Buffer[3]==0x08){//08 es Fecha y hora 
04F08:  BRA    502C
04F0A:  MOVF   33,W
04F0C:  SUBLW  08
04F0E:  BNZ   4F20
....................          Menu=7; 
04F10:  MOVLW  07
04F12:  MOVWF  x4E
....................          if(MenuAntt!=Menu) 
04F14:  MOVF   x4E,W
04F16:  SUBWF  x50,W
04F18:  BZ    4F1E
....................             MenuAntt=Menu; 
04F1A:  MOVFF  34E,350
....................       }else if(RX_Buffer[3]==0x09){//09 es Ciclos Personalizados 
04F1E:  BRA    502C
04F20:  MOVF   33,W
04F22:  SUBLW  09
04F24:  BNZ   4F36
....................          Menu=8; 
04F26:  MOVLW  08
04F28:  MOVWF  x4E
....................          if(MenuAntt!=Menu) 
04F2A:  MOVF   x4E,W
04F2C:  SUBWF  x50,W
04F2E:  BZ    4F34
....................             MenuAntt=Menu; 
04F30:  MOVFF  34E,350
....................       }else if(RX_Buffer[3]==0x0a){//0a es Pulsos de Vacio 
04F34:  BRA    502C
04F36:  MOVF   33,W
04F38:  SUBLW  0A
04F3A:  BNZ   4F4C
....................          Menu=9; 
04F3C:  MOVLW  09
04F3E:  MOVWF  x4E
....................          if(MenuAntt!=Menu) 
04F40:  MOVF   x4E,W
04F42:  SUBWF  x50,W
04F44:  BZ    4F4A
....................             MenuAntt=Menu; 
04F46:  MOVFF  34E,350
....................       }else if(RX_Buffer[3]==0x0b){//0b es Usuarios 
04F4A:  BRA    502C
04F4C:  MOVF   33,W
04F4E:  SUBLW  0B
04F50:  BNZ   4F62
....................          Menu=10; 
04F52:  MOVLW  0A
04F54:  MOVWF  x4E
....................          if(MenuAntt!=Menu) 
04F56:  MOVF   x4E,W
04F58:  SUBWF  x50,W
04F5A:  BZ    4F60
....................             MenuAntt=Menu; 
04F5C:  MOVFF  34E,350
....................       }else if(RX_Buffer[3]==0x0c){//0c es Configuraciones 
04F60:  BRA    502C
04F62:  MOVF   33,W
04F64:  SUBLW  0C
04F66:  BNZ   4F78
....................          Menu=11; 
04F68:  MOVLW  0B
04F6A:  MOVWF  x4E
....................          if(MenuAntt!=Menu) 
04F6C:  MOVF   x4E,W
04F6E:  SUBWF  x50,W
04F70:  BZ    4F76
....................             MenuAntt=Menu; 
04F72:  MOVFF  34E,350
....................       }else if(RX_Buffer[3]==0x0d){//0d es Ciclos 
04F76:  BRA    502C
04F78:  MOVF   33,W
04F7A:  SUBLW  0D
04F7C:  BNZ   4F8E
....................          Menu=12; 
04F7E:  MOVLW  0C
04F80:  MOVWF  x4E
....................          if(MenuAntt!=Menu) 
04F82:  MOVF   x4E,W
04F84:  SUBWF  x50,W
04F86:  BZ    4F8C
....................             MenuAntt=Menu; 
04F88:  MOVFF  34E,350
....................       }else if(RX_Buffer[3]==0x0e){//0d es Activacion de Ciclos 
04F8C:  BRA    502C
04F8E:  MOVF   33,W
04F90:  SUBLW  0E
04F92:  BNZ   4FA4
....................          Menu=14; 
04F94:  MOVLW  0E
04F96:  MOVWF  x4E
....................          if(MenuAntt!=Menu) 
04F98:  MOVF   x4E,W
04F9A:  SUBWF  x50,W
04F9C:  BZ    4FA2
....................             MenuAntt=Menu; 
04F9E:  MOVFF  34E,350
....................       }else if(RX_Buffer[3]==0x10){//10 es Nivel de Desfogue 
04FA2:  BRA    502C
04FA4:  MOVF   33,W
04FA6:  SUBLW  10
04FA8:  BNZ   4FBA
....................          Menu=13; 
04FAA:  MOVLW  0D
04FAC:  MOVWF  x4E
....................          if(MenuAntt!=Menu) 
04FAE:  MOVF   x4E,W
04FB0:  SUBWF  x50,W
04FB2:  BZ    4FB8
....................             MenuAntt=Menu; 
04FB4:  MOVFF  34E,350
....................       }else if(RX_Buffer[3]==0x0f){//0f es Recibe caracteres de contrasea desde display 
04FB8:  BRA    502C
04FBA:  MOVF   33,W
04FBC:  SUBLW  0F
04FBE:  BNZ   4FC2
....................           
....................       }else if(RX_Buffer[3]==0x1a){//1a es Menu de Funcionamiento 
04FC0:  BRA    502C
04FC2:  MOVF   33,W
04FC4:  SUBLW  1A
04FC6:  BNZ   4FD8
....................          Menu=20; 
04FC8:  MOVLW  14
04FCA:  MOVWF  x4E
....................          if(MenuAntt!=Menu) 
04FCC:  MOVF   x4E,W
04FCE:  SUBWF  x50,W
04FD0:  BZ    4FD6
....................             MenuAntt=Menu; 
04FD2:  MOVFF  34E,350
....................       }else if(RX_Buffer[3]==0x1b){//1b es Menu de clave correcta 
04FD6:  BRA    502C
04FD8:  MOVF   33,W
04FDA:  SUBLW  1B
04FDC:  BNZ   4FEE
....................          Menu=15; 
04FDE:  MOVLW  0F
04FE0:  MOVWF  x4E
....................          if(MenuAntt!=Menu) 
04FE2:  MOVF   x4E,W
04FE4:  SUBWF  x50,W
04FE6:  BZ    4FEC
....................             MenuAntt=Menu; 
04FE8:  MOVFF  34E,350
....................       }else if(RX_Buffer[3]==0x1c){//1c es Menu de clave incorrecta 
04FEC:  BRA    502C
04FEE:  MOVF   33,W
04FF0:  SUBLW  1C
04FF2:  BNZ   5004
....................          Menu=16; 
04FF4:  MOVLW  10
04FF6:  MOVWF  x4E
....................          if(MenuAntt!=Menu) 
04FF8:  MOVF   x4E,W
04FFA:  SUBWF  x50,W
04FFC:  BZ    5002
....................             MenuAntt=Menu; 
04FFE:  MOVFF  34E,350
....................       }else if(RX_Buffer[3]==0x2c){//2c es Menu de Configuracion de Parametros 
05002:  BRA    502C
05004:  MOVF   33,W
05006:  SUBLW  2C
05008:  BNZ   501A
....................          Menu=100; 
0500A:  MOVLW  64
0500C:  MOVWF  x4E
....................          if(MenuAntt!=Menu) 
0500E:  MOVF   x4E,W
05010:  SUBWF  x50,W
05012:  BZ    5018
....................             MenuAntt=Menu; 
05014:  MOVFF  34E,350
....................       }else if(RX_Buffer[3]==0xcc){//cc es Menu de Bienvenida 
05018:  BRA    502C
0501A:  MOVF   33,W
0501C:  SUBLW  CC
0501E:  BNZ   502C
....................          Menu=240; 
05020:  MOVLW  F0
05022:  MOVWF  x4E
....................          if(MenuAntt!=240) 
05024:  MOVF   x50,W
05026:  SUBLW  F0
05028:  BZ    502C
....................             reset_cpu(); 
0502A:  RESET
....................       } 
....................    } 
.................... } 
0502C:  MOVLB  0
0502E:  GOTO   83EA (RETURN)
....................  
.................... void ConfiguraCiclo(int8 segest,minest,segsec,minsec,liquidos,ciclo,temperatura,pulsos,nvacio,fug){ 
....................    sEstp=segest; 
*
0595E:  MOVFF  7BF,C2
....................    mEstp=minest; 
05962:  MOVFF  7C0,C3
....................    sSecp=segsec; 
05966:  MOVFF  7C1,C4
....................    mSecp=minsec; 
0596A:  MOVFF  7C2,C5
....................    Setpoint=temperatura;                
0596E:  MOVFF  7C5,355
....................    tiempo_secado=0; 
05972:  MOVLB  3
05974:  CLRF   x59
....................    desfoguelento=liquidos; 
05976:  MOVLB  0
05978:  BCF    xA7.4
0597A:  MOVLB  7
0597C:  BTFSS  xC3.0
0597E:  BRA    5986
05980:  MOVLB  0
05982:  BSF    xA7.4
05984:  MOVLB  7
....................    CicloSeleccionado=ciclo; 
05986:  MOVFF  7C4,354
....................    sEst=sEstp; 
0598A:  MOVFF  C2,BE
....................    mEst=mEstp; 
0598E:  MOVFF  C3,BF
....................    sSec=sSecp; 
05992:  MOVFF  C4,C0
....................    mSec=mSecp; 
05996:  MOVFF  C5,C1
....................    CantidadPulsos=pulsos; 
0599A:  MOVFF  7C6,335
....................    NivelVacio=nvacio; 
0599E:  MOVFF  7C7,336
....................    Fugas=fug; 
059A2:  MOVLB  0
059A4:  BCF    xA4.5
059A6:  MOVLB  7
059A8:  BTFSS  xC8.0
059AA:  BRA    59B2
059AC:  MOVLB  0
059AE:  BSF    xA4.5
059B0:  MOVLB  7
....................    //TiempoVacio=CantidadPulsos*180; 
....................    Imprime=15; 
059B2:  MOVLW  0F
059B4:  MOVLB  3
059B6:  MOVWF  x92
....................    Envio_Esclavos(); 
059B8:  MOVLB  0
059BA:  CALL   5178
....................    delay_ms(100); 
059BE:  MOVLW  64
059C0:  MOVLB  7
059C2:  MOVWF  xC9
059C4:  MOVLB  0
059C6:  CALL   1FA0
....................    Imprime=10; 
059CA:  MOVLW  0A
059CC:  MOVLB  3
059CE:  MOVWF  x92
.................... } 
059D0:  MOVLB  0
059D2:  RETLW  00
....................  
.................... void ActivaAlarma(int8 Tipo){ 
....................     
....................    if(tsilencio>12000){ 
*
054A0:  MOVLB  3
054A2:  MOVF   x81,W
054A4:  SUBLW  2D
054A6:  BC    54BA
054A8:  XORLW  FF
054AA:  BNZ   54B2
054AC:  MOVF   x80,W
054AE:  SUBLW  E0
054B0:  BC    54BA
....................       tsilencio=0; 
054B2:  CLRF   x81
054B4:  CLRF   x80
....................       flagSilencio=OFF; 
054B6:  MOVLB  0
054B8:  BCF    xA4.0
....................    } 
....................     
....................    if(Tipo==1){ // Alarma por Error 
054BA:  MOVLB  7
054BC:  DECFSZ xB9,W
054BE:  BRA    550C
....................    if(UP || DOWN || RIGHT || LEFT) 
054C0:  MOVLB  0
054C2:  BTFSC  xA0.0
054C4:  BRA    54D2
054C6:  BTFSC  xA0.1
054C8:  BRA    54D2
054CA:  BTFSC  xA0.2
054CC:  BRA    54D2
054CE:  BTFSS  xA0.3
054D0:  BRA    54D4
....................       flagSilencio=ON; 
054D2:  BSF    xA4.0
....................        
....................       if(!flagSilencio){ 
054D4:  BTFSC  xA4.0
054D6:  BRA    5502
....................          flagAlarma=1; 
054D8:  BSF    xA3.6
....................          if(tbuzzer>200){ 
054DA:  MOVLB  3
054DC:  MOVF   x7F,F
054DE:  BNZ   54E6
054E0:  MOVF   x7E,W
054E2:  SUBLW  C8
054E4:  BC    54FE
....................             tbuzzer=0; 
054E6:  CLRF   x7F
054E8:  CLRF   x7E
....................             flagBuzzer=!flagBuzzer; 
054EA:  MOVLB  0
054EC:  BTG    xA3.7
....................             if(flagBuzzer) 
054EE:  BTFSS  xA3.7
054F0:  BRA    54F8
....................                Buzzer_on; 
054F2:  BSF    F8C.7
054F4:  BCF    F95.7
....................             else 
054F6:  BRA    54FC
....................                Buzzer_off; 
054F8:  BCF    F8C.7
054FA:  BCF    F95.7
054FC:  MOVLB  3
....................          } 
....................       }else{ 
054FE:  BRA    5508
05500:  MOVLB  0
....................          Buzzer_off; 
05502:  BCF    F8C.7
05504:  BCF    F95.7
05506:  MOVLB  3
....................       } 
....................    }else if(Tipo==2){ 
05508:  BRA    5560
0550A:  MOVLB  7
0550C:  MOVF   xB9,W
0550E:  SUBLW  02
05510:  BNZ   5562
....................    if(UP || DOWN || RIGHT || LEFT) 
05512:  MOVLB  0
05514:  BTFSC  xA0.0
05516:  BRA    5524
05518:  BTFSC  xA0.1
0551A:  BRA    5524
0551C:  BTFSC  xA0.2
0551E:  BRA    5524
05520:  BTFSS  xA0.3
05522:  BRA    552C
....................       ConteoBuzzer=21; 
05524:  MOVLW  15
05526:  MOVLB  3
05528:  MOVWF  x7B
0552A:  MOVLB  0
....................        
....................       flagAlarma=1; 
0552C:  BSF    xA3.6
....................       if(ConteoBuzzer<20){    
0552E:  MOVLB  3
05530:  MOVF   x7B,W
05532:  SUBLW  13
05534:  BNC   555C
....................          if(tbuzzer>100){ 
05536:  MOVF   x7F,F
05538:  BNZ   5540
0553A:  MOVF   x7E,W
0553C:  SUBLW  64
0553E:  BC    555A
....................             tbuzzer=0; 
05540:  CLRF   x7F
05542:  CLRF   x7E
....................             flagBuzzer=!flagBuzzer; 
05544:  MOVLB  0
05546:  BTG    xA3.7
....................             if(flagBuzzer) 
05548:  BTFSS  xA3.7
0554A:  BRA    5552
....................                Buzzer_on; 
0554C:  BSF    F8C.7
0554E:  BCF    F95.7
....................             else 
05550:  BRA    5556
....................                Buzzer_off; 
05552:  BCF    F8C.7
05554:  BCF    F95.7
....................                 
....................             ConteoBuzzer++;    
05556:  MOVLB  3
05558:  INCF   x7B,F
....................          } 
....................       }else{ 
0555A:  BRA    5560
....................          Buzzer_off; 
0555C:  BCF    F8C.7
0555E:  BCF    F95.7
05560:  MOVLB  7
....................       } 
....................    } 
.................... } 
05562:  MOVLB  0
05564:  RETLW  00
....................  
.................... void ControlaPresion(){ 
....................    if(Setpoint<125){ 
*
07420:  MOVLB  3
07422:  MOVF   x55,W
07424:  SUBLW  7C
07426:  BNC   7476
....................       if(Setpoint<115){ 
07428:  MOVF   x55,W
0742A:  SUBLW  72
0742C:  BNC   7452
....................          if(PresionPrecamara>=60){ 
0742E:  MOVF   x6A,F
07430:  BNZ   7438
07432:  MOVF   x69,W
07434:  SUBLW  3B
07436:  BC    7442
....................             SSR_off; 
07438:  BCF    F8D.1
0743A:  BCF    F96.1
....................             Precalentamiento=ON; 
0743C:  MOVLB  0
0743E:  BSF    xA5.0
07440:  MOVLB  3
....................          } 
....................          if(PresionPrecamara<50) 
07442:  MOVF   x6A,F
07444:  BNZ   7450
07446:  MOVF   x69,W
07448:  SUBLW  31
0744A:  BNC   7450
....................             SSR_on; 
0744C:  BSF    F8D.1
0744E:  BCF    F96.1
....................       }else{  
07450:  BRA    7474
....................          if(PresionPrecamara>=140){ 
07452:  MOVF   x6A,F
07454:  BNZ   745C
07456:  MOVF   x69,W
07458:  SUBLW  8B
0745A:  BC    7466
....................             SSR_off; 
0745C:  BCF    F8D.1
0745E:  BCF    F96.1
....................             Precalentamiento=ON; 
07460:  MOVLB  0
07462:  BSF    xA5.0
07464:  MOVLB  3
....................          } 
....................          if(PresionPrecamara<130) 
07466:  MOVF   x6A,F
07468:  BNZ   7474
0746A:  MOVF   x69,W
0746C:  SUBLW  81
0746E:  BNC   7474
....................             SSR_on; 
07470:  BSF    F8D.1
07472:  BCF    F96.1
....................       } 
....................    }else{ 
07474:  BRA    7498
....................       if(PresionPrecamara>=200){ 
07476:  MOVF   x6A,F
07478:  BNZ   7480
0747A:  MOVF   x69,W
0747C:  SUBLW  C7
0747E:  BC    748A
....................          SSR_off; 
07480:  BCF    F8D.1
07482:  BCF    F96.1
....................          Precalentamiento=ON; 
07484:  MOVLB  0
07486:  BSF    xA5.0
07488:  MOVLB  3
....................       } 
....................       if(PresionPrecamara<190) 
0748A:  MOVF   x6A,F
0748C:  BNZ   7498
0748E:  MOVF   x69,W
07490:  SUBLW  BD
07492:  BNC   7498
....................          SSR_on; 
07494:  BSF    F8D.1
07496:  BCF    F96.1
....................    } 
.................... } 
07498:  MOVLB  0
0749A:  RETLW  00
....................  
.................... void ApagaSalidas(){ 
....................    Desfogue_off; 
*
03ECE:  BSF    F8B.1
03ED0:  BCF    F94.1
....................    Agua_off; 
03ED2:  BSF    F8B.2
03ED4:  BCF    F94.2
....................    Buzzer_off; 
03ED6:  BCF    F8C.7
03ED8:  BCF    F95.7
....................    SSR_off; 
03EDA:  BCF    F8D.1
03EDC:  BCF    F96.1
....................    Agua_off; 
03EDE:  BSF    F8B.2
03EE0:  BCF    F94.2
....................    Paso_off; 
03EE2:  BSF    F8B.0
03EE4:  BCF    F94.0
....................    SSR2_off; 
03EE6:  BCF    F8D.2
03EE8:  BCF    F96.2
....................    Controlando=0; 
03EEA:  MOVLB  3
03EEC:  CLRF   x47
.................... } 
03EEE:  MOVLB  0
03EF0:  RETLW  00
....................  
.................... void purgaAire(){ 
....................    if(!purga){ 
....................       for(i=0;i<4;i++){ 
....................          Desfogue_on; 
....................          delay_ms(2000); 
....................          Desfogue_off; 
....................          delay_ms(1000); 
....................       } 
....................       purga=ON; 
....................    } 
.................... } 
....................  
.................... void GuardaDatoEstatico(){ 
*
06D38:  MOVLB  7
06D3A:  CLRF   xBA
06D3C:  CLRF   xB9
06D3E:  CLRF   xBC
06D40:  CLRF   xBB
....................    int16 posCiclo=0,cicloMemoria=0; 
....................    posCiclo=Ciclos/200; 
06D42:  MOVFF  36C,7BE
06D46:  MOVFF  36B,7BD
06D4A:  CLRF   xC0
06D4C:  MOVLW  C8
06D4E:  MOVWF  xBF
06D50:  MOVLB  0
06D52:  CALL   5D44
06D56:  MOVFF  02,7BA
06D5A:  MOVFF  01,7B9
....................    cicloMemoria=Ciclos-(posCiclo*200); 
06D5E:  MOVFF  7BA,7C4
06D62:  MOVFF  7B9,7C3
06D66:  MOVLB  7
06D68:  CLRF   xC6
06D6A:  MOVLW  C8
06D6C:  MOVWF  xC5
06D6E:  MOVLB  0
06D70:  CALL   203C
06D74:  MOVF   01,W
06D76:  MOVLB  3
06D78:  SUBWF  x6B,W
06D7A:  MOVLB  7
06D7C:  MOVWF  xBB
06D7E:  MOVF   02,W
06D80:  MOVLB  3
06D82:  SUBWFB x6C,W
06D84:  MOVLB  7
06D86:  MOVWF  xBC
....................    if(!disp_Guarda){ 
06D88:  MOVLB  0
06D8A:  BTFSC  xA4.6
06D8C:  BRA    6F22
....................       write_ext_eeprom(cicloMemoria*320,codigoUsuario); 
06D8E:  MOVFF  7BC,7C4
06D92:  MOVFF  7BB,7C3
06D96:  MOVLW  01
06D98:  MOVLB  7
06D9A:  MOVWF  xC6
06D9C:  MOVLW  40
06D9E:  MOVWF  xC5
06DA0:  MOVLB  0
06DA2:  CALL   203C
06DA6:  MOVFF  02,7BE
06DAA:  MOVFF  01,7BD
06DAE:  MOVFF  02,7C1
06DB2:  MOVFF  01,7C0
06DB6:  MOVFF  C8,7C2
06DBA:  RCALL  6C26
....................       delay_ms(10); 
06DBC:  MOVLW  0A
06DBE:  MOVLB  7
06DC0:  MOVWF  xC9
06DC2:  MOVLB  0
06DC4:  CALL   1FA0
....................       if(!Libre) 
06DC8:  BTFSC  xA4.3
06DCA:  BRA    6E06
....................          write_ext_eeprom(1+(cicloMemoria*320),CicloSeleccionado); 
06DCC:  MOVFF  7BC,7C4
06DD0:  MOVFF  7BB,7C3
06DD4:  MOVLW  01
06DD6:  MOVLB  7
06DD8:  MOVWF  xC6
06DDA:  MOVLW  40
06DDC:  MOVWF  xC5
06DDE:  MOVLB  0
06DE0:  CALL   203C
06DE4:  MOVFF  02,03
06DE8:  MOVF   01,W
06DEA:  ADDLW  01
06DEC:  MOVLB  7
06DEE:  MOVWF  xBD
06DF0:  MOVLW  00
06DF2:  ADDWFC 02,W
06DF4:  MOVWF  xBE
06DF6:  MOVWF  xC1
06DF8:  MOVFF  7BD,7C0
06DFC:  MOVFF  354,7C2
06E00:  MOVLB  0
06E02:  RCALL  6C26
....................       else 
06E04:  BRA    6E48
....................          write_ext_eeprom(1+(cicloMemoria*320),CicloLibre+10); 
06E06:  MOVFF  7BC,7C4
06E0A:  MOVFF  7BB,7C3
06E0E:  MOVLW  01
06E10:  MOVLB  7
06E12:  MOVWF  xC6
06E14:  MOVLW  40
06E16:  MOVWF  xC5
06E18:  MOVLB  0
06E1A:  CALL   203C
06E1E:  MOVFF  02,03
06E22:  MOVF   01,W
06E24:  ADDLW  01
06E26:  MOVLB  7
06E28:  MOVWF  xBD
06E2A:  MOVLW  00
06E2C:  ADDWFC 02,W
06E2E:  MOVWF  xBE
06E30:  MOVLW  0A
06E32:  MOVLB  3
06E34:  ADDWF  x32,W
06E36:  MOVLB  7
06E38:  MOVWF  xBF
06E3A:  MOVFF  7BE,7C1
06E3E:  MOVFF  7BD,7C0
06E42:  MOVWF  xC2
06E44:  MOVLB  0
06E46:  RCALL  6C26
....................       delay_ms(10); 
06E48:  MOVLW  0A
06E4A:  MOVLB  7
06E4C:  MOVWF  xC9
06E4E:  MOVLB  0
06E50:  CALL   1FA0
....................       write_ext_eeprom(2+(cicloMemoria*320),Dia); 
06E54:  MOVFF  7BC,7C4
06E58:  MOVFF  7BB,7C3
06E5C:  MOVLW  01
06E5E:  MOVLB  7
06E60:  MOVWF  xC6
06E62:  MOVLW  40
06E64:  MOVWF  xC5
06E66:  MOVLB  0
06E68:  CALL   203C
06E6C:  MOVFF  02,03
06E70:  MOVF   01,W
06E72:  ADDLW  02
06E74:  MOVLB  7
06E76:  MOVWF  xBD
06E78:  MOVLW  00
06E7A:  ADDWFC 02,W
06E7C:  MOVWF  xBE
06E7E:  MOVWF  xC1
06E80:  MOVFF  7BD,7C0
06E84:  MOVFF  386,7C2
06E88:  MOVLB  0
06E8A:  RCALL  6C26
....................       delay_ms(10); 
06E8C:  MOVLW  0A
06E8E:  MOVLB  7
06E90:  MOVWF  xC9
06E92:  MOVLB  0
06E94:  CALL   1FA0
....................       write_ext_eeprom(3+(cicloMemoria*320),Mes); 
06E98:  MOVFF  7BC,7C4
06E9C:  MOVFF  7BB,7C3
06EA0:  MOVLW  01
06EA2:  MOVLB  7
06EA4:  MOVWF  xC6
06EA6:  MOVLW  40
06EA8:  MOVWF  xC5
06EAA:  MOVLB  0
06EAC:  CALL   203C
06EB0:  MOVFF  02,03
06EB4:  MOVF   01,W
06EB6:  ADDLW  03
06EB8:  MOVLB  7
06EBA:  MOVWF  xBD
06EBC:  MOVLW  00
06EBE:  ADDWFC 02,W
06EC0:  MOVWF  xBE
06EC2:  MOVWF  xC1
06EC4:  MOVFF  7BD,7C0
06EC8:  MOVFF  385,7C2
06ECC:  MOVLB  0
06ECE:  RCALL  6C26
....................       delay_ms(10); 
06ED0:  MOVLW  0A
06ED2:  MOVLB  7
06ED4:  MOVWF  xC9
06ED6:  MOVLB  0
06ED8:  CALL   1FA0
....................       write_ext_eeprom(4+(cicloMemoria*320),Year); 
06EDC:  MOVFF  7BC,7C4
06EE0:  MOVFF  7BB,7C3
06EE4:  MOVLW  01
06EE6:  MOVLB  7
06EE8:  MOVWF  xC6
06EEA:  MOVLW  40
06EEC:  MOVWF  xC5
06EEE:  MOVLB  0
06EF0:  CALL   203C
06EF4:  MOVFF  02,03
06EF8:  MOVF   01,W
06EFA:  ADDLW  04
06EFC:  MOVLB  7
06EFE:  MOVWF  xBD
06F00:  MOVLW  00
06F02:  ADDWFC 02,W
06F04:  MOVWF  xBE
06F06:  MOVWF  xC1
06F08:  MOVFF  7BD,7C0
06F0C:  MOVFF  384,7C2
06F10:  MOVLB  0
06F12:  RCALL  6C26
....................       delay_ms(10);  
06F14:  MOVLW  0A
06F16:  MOVLB  7
06F18:  MOVWF  xC9
06F1A:  MOVLB  0
06F1C:  CALL   1FA0
....................       disp_Guarda=1; 
06F20:  BSF    xA4.6
....................    }    
.................... } 
06F22:  GOTO   C800 (RETURN)
....................  
.................... void GuardaDatoCiclo(){ 
*
06FF0:  MOVLB  7
06FF2:  CLRF   xBA
06FF4:  CLRF   xB9
06FF6:  CLRF   xBC
06FF8:  CLRF   xBB
....................    int16 posCiclo=0,cicloMemoria=0; 
....................    posCiclo=Ciclos/200; 
06FFA:  MOVFF  36C,7BE
06FFE:  MOVFF  36B,7BD
07002:  CLRF   xC0
07004:  MOVLW  C8
07006:  MOVWF  xBF
07008:  MOVLB  0
0700A:  CALL   5D44
0700E:  MOVFF  02,7BA
07012:  MOVFF  01,7B9
....................    if(!Ciclo){ 
07016:  BTFSC  xA2.6
07018:  BRA    7390
....................       cicloMemoria=Ciclos-(posCiclo*200); 
0701A:  MOVFF  7BA,7C4
0701E:  MOVFF  7B9,7C3
07022:  MOVLB  7
07024:  CLRF   xC6
07026:  MOVLW  C8
07028:  MOVWF  xC5
0702A:  MOVLB  0
0702C:  CALL   203C
07030:  MOVF   01,W
07032:  MOVLB  3
07034:  SUBWF  x6B,W
07036:  MOVLB  7
07038:  MOVWF  xBB
0703A:  MOVF   02,W
0703C:  MOVLB  3
0703E:  SUBWFB x6C,W
07040:  MOVLB  7
07042:  MOVWF  xBC
....................       write_ext_eeprom(5+(cicloMemoria*320)+(posicionDato*9),(int8)Temperatura); 
07044:  MOVFF  7BC,7C4
07048:  MOVFF  7BB,7C3
0704C:  MOVLW  01
0704E:  MOVWF  xC6
07050:  MOVLW  40
07052:  MOVWF  xC5
07054:  MOVLB  0
07056:  CALL   203C
0705A:  MOVFF  02,03
0705E:  MOVF   01,W
07060:  ADDLW  05
07062:  MOVLB  7
07064:  MOVWF  xBD
07066:  MOVLW  00
07068:  ADDWFC 02,W
0706A:  MOVWF  xBE
0706C:  MOVLB  3
0706E:  MOVF   x38,W
07070:  MULLW  09
07072:  MOVF   FF3,W
07074:  MOVLB  7
07076:  ADDWF  xBD,F
07078:  MOVLW  00
0707A:  ADDWFC xBE,F
0707C:  MOVFF  31B,7CE
07080:  MOVFF  31A,7CD
07084:  MOVFF  319,7CC
07088:  MOVFF  318,7CB
0708C:  MOVLB  0
0708E:  CALL   4B1E
07092:  MOVFF  01,7BF
07096:  MOVFF  7BE,7C1
0709A:  MOVFF  7BD,7C0
0709E:  MOVFF  01,7C2
070A2:  RCALL  6C26
....................       delay_ms(10); 
070A4:  MOVLW  0A
070A6:  MOVLB  7
070A8:  MOVWF  xC9
070AA:  MOVLB  0
070AC:  CALL   1FA0
....................       write_ext_eeprom(6+(cicloMemoria*320)+(posicionDato*9),extraeDecimal(Temperatura)); 
070B0:  MOVFF  7BC,7C4
070B4:  MOVFF  7BB,7C3
070B8:  MOVLW  01
070BA:  MOVLB  7
070BC:  MOVWF  xC6
070BE:  MOVLW  40
070C0:  MOVWF  xC5
070C2:  MOVLB  0
070C4:  CALL   203C
070C8:  MOVFF  02,03
070CC:  MOVF   01,W
070CE:  ADDLW  06
070D0:  MOVLB  7
070D2:  MOVWF  xBD
070D4:  MOVLW  00
070D6:  ADDWFC 02,W
070D8:  MOVWF  xBE
070DA:  MOVLB  3
070DC:  MOVF   x38,W
070DE:  MULLW  09
070E0:  MOVF   FF3,W
070E2:  MOVLB  7
070E4:  ADDWF  xBD,F
070E6:  MOVLW  00
070E8:  ADDWFC xBE,F
070EA:  MOVFF  31B,7C2
070EE:  MOVFF  31A,7C1
070F2:  MOVFF  319,7C0
070F6:  MOVFF  318,7BF
070FA:  MOVLB  0
070FC:  BRA    6F26
070FE:  MOVFF  01,7BF
07102:  MOVFF  7BE,7C1
07106:  MOVFF  7BD,7C0
0710A:  MOVFF  01,7C2
0710E:  RCALL  6C26
....................       delay_ms(10); 
07110:  MOVLW  0A
07112:  MOVLB  7
07114:  MOVWF  xC9
07116:  MOVLB  0
07118:  CALL   1FA0
....................       write_ext_eeprom(7+(cicloMemoria*320)+(posicionDato*9),make8(PresionCamara,1)); 
0711C:  MOVFF  7BC,7C4
07120:  MOVFF  7BB,7C3
07124:  MOVLW  01
07126:  MOVLB  7
07128:  MOVWF  xC6
0712A:  MOVLW  40
0712C:  MOVWF  xC5
0712E:  MOVLB  0
07130:  CALL   203C
07134:  MOVFF  02,03
07138:  MOVF   01,W
0713A:  ADDLW  07
0713C:  MOVLB  7
0713E:  MOVWF  xBD
07140:  MOVLW  00
07142:  ADDWFC 02,W
07144:  MOVWF  xBE
07146:  MOVLB  3
07148:  MOVF   x38,W
0714A:  MULLW  09
0714C:  MOVF   FF3,W
0714E:  MOVLB  7
07150:  ADDWF  xBD,F
07152:  MOVLW  00
07154:  ADDWFC xBE,F
07156:  MOVFF  368,7BF
0715A:  MOVFF  7BE,7C1
0715E:  MOVFF  7BD,7C0
07162:  MOVFF  368,7C2
07166:  MOVLB  0
07168:  RCALL  6C26
....................       delay_ms(10); 
0716A:  MOVLW  0A
0716C:  MOVLB  7
0716E:  MOVWF  xC9
07170:  MOVLB  0
07172:  CALL   1FA0
....................       write_ext_eeprom(8+(cicloMemoria*320)+(posicionDato*9),make8(PresionCamara,0)); 
07176:  MOVFF  7BC,7C4
0717A:  MOVFF  7BB,7C3
0717E:  MOVLW  01
07180:  MOVLB  7
07182:  MOVWF  xC6
07184:  MOVLW  40
07186:  MOVWF  xC5
07188:  MOVLB  0
0718A:  CALL   203C
0718E:  MOVFF  02,03
07192:  MOVF   01,W
07194:  ADDLW  08
07196:  MOVLB  7
07198:  MOVWF  xBD
0719A:  MOVLW  00
0719C:  ADDWFC 02,W
0719E:  MOVWF  xBE
071A0:  MOVLB  3
071A2:  MOVF   x38,W
071A4:  MULLW  09
071A6:  MOVF   FF3,W
071A8:  MOVLB  7
071AA:  ADDWF  xBD,F
071AC:  MOVLW  00
071AE:  ADDWFC xBE,F
071B0:  MOVFF  367,7BF
071B4:  MOVFF  7BE,7C1
071B8:  MOVFF  7BD,7C0
071BC:  MOVFF  367,7C2
071C0:  MOVLB  0
071C2:  RCALL  6C26
....................       delay_ms(10); 
071C4:  MOVLW  0A
071C6:  MOVLB  7
071C8:  MOVWF  xC9
071CA:  MOVLB  0
071CC:  CALL   1FA0
....................       write_ext_eeprom(9+(cicloMemoria*320)+(posicionDato*9),make8(PresionPreCamara,1)); 
071D0:  MOVFF  7BC,7C4
071D4:  MOVFF  7BB,7C3
071D8:  MOVLW  01
071DA:  MOVLB  7
071DC:  MOVWF  xC6
071DE:  MOVLW  40
071E0:  MOVWF  xC5
071E2:  MOVLB  0
071E4:  CALL   203C
071E8:  MOVFF  02,03
071EC:  MOVF   01,W
071EE:  ADDLW  09
071F0:  MOVLB  7
071F2:  MOVWF  xBD
071F4:  MOVLW  00
071F6:  ADDWFC 02,W
071F8:  MOVWF  xBE
071FA:  MOVLB  3
071FC:  MOVF   x38,W
071FE:  MULLW  09
07200:  MOVF   FF3,W
07202:  MOVLB  7
07204:  ADDWF  xBD,F
07206:  MOVLW  00
07208:  ADDWFC xBE,F
0720A:  MOVFF  36A,7BF
0720E:  MOVFF  7BE,7C1
07212:  MOVFF  7BD,7C0
07216:  MOVFF  36A,7C2
0721A:  MOVLB  0
0721C:  RCALL  6C26
....................       delay_ms(10); 
0721E:  MOVLW  0A
07220:  MOVLB  7
07222:  MOVWF  xC9
07224:  MOVLB  0
07226:  CALL   1FA0
....................       write_ext_eeprom(10+(cicloMemoria*320)+(posicionDato*9),make8(PresionPreCamara,0)); 
0722A:  MOVFF  7BC,7C4
0722E:  MOVFF  7BB,7C3
07232:  MOVLW  01
07234:  MOVLB  7
07236:  MOVWF  xC6
07238:  MOVLW  40
0723A:  MOVWF  xC5
0723C:  MOVLB  0
0723E:  CALL   203C
07242:  MOVFF  02,03
07246:  MOVF   01,W
07248:  ADDLW  0A
0724A:  MOVLB  7
0724C:  MOVWF  xBD
0724E:  MOVLW  00
07250:  ADDWFC 02,W
07252:  MOVWF  xBE
07254:  MOVLB  3
07256:  MOVF   x38,W
07258:  MULLW  09
0725A:  MOVF   FF3,W
0725C:  MOVLB  7
0725E:  ADDWF  xBD,F
07260:  MOVLW  00
07262:  ADDWFC xBE,F
07264:  MOVFF  369,7BF
07268:  MOVFF  7BE,7C1
0726C:  MOVFF  7BD,7C0
07270:  MOVFF  369,7C2
07274:  MOVLB  0
07276:  RCALL  6C26
....................       delay_ms(10); 
07278:  MOVLW  0A
0727A:  MOVLB  7
0727C:  MOVWF  xC9
0727E:  MOVLB  0
07280:  CALL   1FA0
....................       write_ext_eeprom(11+(cicloMemoria*320)+(posicionDato*9),Hora); 
07284:  MOVFF  7BC,7C4
07288:  MOVFF  7BB,7C3
0728C:  MOVLW  01
0728E:  MOVLB  7
07290:  MOVWF  xC6
07292:  MOVLW  40
07294:  MOVWF  xC5
07296:  MOVLB  0
07298:  CALL   203C
0729C:  MOVFF  02,03
072A0:  MOVF   01,W
072A2:  ADDLW  0B
072A4:  MOVLB  7
072A6:  MOVWF  xBD
072A8:  MOVLW  00
072AA:  ADDWFC 02,W
072AC:  MOVWF  xBE
072AE:  MOVLB  3
072B0:  MOVF   x38,W
072B2:  MULLW  09
072B4:  MOVF   FF3,W
072B6:  MOVLB  7
072B8:  ADDWF  xBD,F
072BA:  MOVLW  00
072BC:  ADDWFC xBE,F
072BE:  MOVFF  7BE,7C1
072C2:  MOVFF  7BD,7C0
072C6:  MOVFF  387,7C2
072CA:  MOVLB  0
072CC:  RCALL  6C26
....................       delay_ms(10); 
072CE:  MOVLW  0A
072D0:  MOVLB  7
072D2:  MOVWF  xC9
072D4:  MOVLB  0
072D6:  CALL   1FA0
....................       write_ext_eeprom(12+(cicloMemoria*320)+(posicionDato*9),Minuto); 
072DA:  MOVFF  7BC,7C4
072DE:  MOVFF  7BB,7C3
072E2:  MOVLW  01
072E4:  MOVLB  7
072E6:  MOVWF  xC6
072E8:  MOVLW  40
072EA:  MOVWF  xC5
072EC:  MOVLB  0
072EE:  CALL   203C
072F2:  MOVFF  02,03
072F6:  MOVF   01,W
072F8:  ADDLW  0C
072FA:  MOVLB  7
072FC:  MOVWF  xBD
072FE:  MOVLW  00
07300:  ADDWFC 02,W
07302:  MOVWF  xBE
07304:  MOVLB  3
07306:  MOVF   x38,W
07308:  MULLW  09
0730A:  MOVF   FF3,W
0730C:  MOVLB  7
0730E:  ADDWF  xBD,F
07310:  MOVLW  00
07312:  ADDWFC xBE,F
07314:  MOVFF  7BE,7C1
07318:  MOVFF  7BD,7C0
0731C:  MOVFF  388,7C2
07320:  MOVLB  0
07322:  RCALL  6C26
....................       delay_ms(10); 
07324:  MOVLW  0A
07326:  MOVLB  7
07328:  MOVWF  xC9
0732A:  MOVLB  0
0732C:  CALL   1FA0
....................       write_ext_eeprom(13+(cicloMemoria*320)+(posicionDato*9),codigoAlarma); 
07330:  MOVFF  7BC,7C4
07334:  MOVFF  7BB,7C3
07338:  MOVLW  01
0733A:  MOVLB  7
0733C:  MOVWF  xC6
0733E:  MOVLW  40
07340:  MOVWF  xC5
07342:  MOVLB  0
07344:  CALL   203C
07348:  MOVFF  02,03
0734C:  MOVF   01,W
0734E:  ADDLW  0D
07350:  MOVLB  7
07352:  MOVWF  xBD
07354:  MOVLW  00
07356:  ADDWFC 02,W
07358:  MOVWF  xBE
0735A:  MOVLB  3
0735C:  MOVF   x38,W
0735E:  MULLW  09
07360:  MOVF   FF3,W
07362:  MOVLB  7
07364:  ADDWF  xBD,F
07366:  MOVLW  00
07368:  ADDWFC xBE,F
0736A:  MOVFF  7BE,7C1
0736E:  MOVFF  7BD,7C0
07372:  MOVFF  339,7C2
07376:  MOVLB  0
07378:  RCALL  6C26
....................       delay_ms(10); 
0737A:  MOVLW  0A
0737C:  MOVLB  7
0737E:  MOVWF  xC9
07380:  MOVLB  0
07382:  CALL   1FA0
....................     
....................       if(posicionDato<35) 
07386:  MOVLB  3
07388:  MOVF   x38,W
0738A:  SUBLW  22
0738C:  BNC   7390
....................          ++posicionDato; 
0738E:  INCF   x38,F
07390:  MOVLB  0
....................    } 
.................... } 
07392:  RETLW  00
....................  
.................... void incrementaCiclos(){ 
....................    if(!Ciclo){ 
07394:  BTFSC  xA2.6
07396:  BRA    741E
....................       Ciclo=ON; 
07398:  BSF    xA2.6
....................       Ciclos++; 
0739A:  MOVLB  3
0739C:  INCF   x6B,F
0739E:  BTFSC  FD8.2
073A0:  INCF   x6C,F
....................       CiclosL=make8(Ciclos,0); 
073A2:  MOVFF  36B,352
....................       CiclosH=make8(Ciclos,1); 
073A6:  MOVFF  36C,353
....................       write_eeprom(37,CiclosL); 
073AA:  CLRF   FAA
073AC:  MOVLW  25
073AE:  MOVWF  FA9
073B0:  MOVFF  352,FA8
073B4:  BCF    FA6.6
073B6:  BCF    FA6.7
073B8:  BSF    FA6.2
073BA:  MOVF   FF2,W
073BC:  MOVWF  00
073BE:  BCF    FF2.6
073C0:  BCF    FF2.7
073C2:  MOVLB  F
073C4:  MOVLW  55
073C6:  MOVWF  FA7
073C8:  MOVLW  AA
073CA:  MOVWF  FA7
073CC:  BSF    FA6.1
073CE:  BTFSC  FA6.1
073D0:  BRA    73CE
073D2:  BCF    FA6.2
073D4:  MOVF   00,W
073D6:  IORWF  FF2,F
....................       delay_ms(20); 
073D8:  MOVLW  14
073DA:  MOVLB  7
073DC:  MOVWF  xC9
073DE:  MOVLB  0
073E0:  CALL   1FA0
....................       write_eeprom(38,CiclosH); 
073E4:  CLRF   FAA
073E6:  MOVLW  26
073E8:  MOVWF  FA9
073EA:  MOVFF  353,FA8
073EE:  BCF    FA6.6
073F0:  BCF    FA6.7
073F2:  BSF    FA6.2
073F4:  MOVF   FF2,W
073F6:  MOVWF  00
073F8:  BCF    FF2.6
073FA:  BCF    FF2.7
073FC:  MOVLB  F
073FE:  MOVLW  55
07400:  MOVWF  FA7
07402:  MOVLW  AA
07404:  MOVWF  FA7
07406:  BSF    FA6.1
07408:  BTFSC  FA6.1
0740A:  BRA    7408
0740C:  BCF    FA6.2
0740E:  MOVF   00,W
07410:  IORWF  FF2,F
....................       delay_ms(20); 
07412:  MOVLW  14
07414:  MOVLB  7
07416:  MOVWF  xC9
07418:  MOVLB  0
0741A:  CALL   1FA0
....................    } 
.................... } 
0741E:  RETLW  00
....................  
.................... void exportarData(){ 
.................... int16 posicion=0; 
.................... int8 tmp=0; 
.................... posicion=40; 
.................... direccion=0xD0; 
.................... //Buzzer_on; 
.................... //Inicio de Transmision 
.................... i2c_start();            // Comienzo comunicacin 
.................... i2c_write(direccion);   // Direccin del esclavo en el bus I2C 
.................... i2c_write(make8(posicion,0));    // Posicin donde se guardara el dato transmitido 
.................... i2c_write(make8(posicion,1));    // Posicin donde se guardara el dato transmitido 
.................... i2c_write(0xff);        // Dato a transmitir 
.................... i2c_stop(); 
.................... ++posicion; 
.................... i2c_start();            // Comienzo comunicacin 
.................... i2c_write(direccion);   // Direccin del esclavo en el bus I2C 
.................... i2c_write(make8(posicion,0));    // Posicin donde se guardara el dato transmitido 
.................... i2c_write(make8(posicion,1));    // Posicin donde se guardara el dato transmitido 
.................... i2c_write(0xff);        // Dato a transmitir 
.................... i2c_stop(); 
.................... ++posicion; 
.................... //Se envian 2 veces ff para indicar que se inicia la transmision. 
....................  
....................    for(i=0;i<5;i++){ 
....................       tmp=read_ext_eeprom((cicloVisto*320)+i); 
....................       //if(tmp>250) 
....................       //   tmp=20; 
....................       i2c_start();            // Comienzo comunicacin 
....................       i2c_write(direccion);   // Direccin del esclavo en el bus I2C 
....................       i2c_write(make8(posicion,0));    // Posicin donde se guardara el dato transmitido 
....................       i2c_write(make8(posicion,1));    // Posicin donde se guardara el dato transmitido 
....................       i2c_write(tmp);        // Dato a transmitir 
....................       i2c_stop();  
....................       ++posicion; 
....................    } 
....................    for(i=0;i<35;i++){//Lee Valores para completar la Tabla 
....................       for(j=5;j<14;j++){//Lee Valores para completar la Tabla 
....................          tmp=read_ext_eeprom((cicloVisto*320)+j+(i*9)); 
....................          //if(tmp>250) 
....................          //   tmp=20; 
....................          i2c_start();            // Comienzo comunicacin 
....................          i2c_write(direccion);   // Direccin del esclavo en el bus I2C 
....................          i2c_write(make8(posicion,0));    // Posicin donde se guardara el dato transmitido 
....................          i2c_write(make8(posicion,1));    // Posicin donde se guardara el dato transmitido 
....................          i2c_write(tmp);        // Dato a transmitir 
....................          i2c_stop();  
....................          ++posicion; 
....................       } 
....................    } 
....................  
.................... //Fin de Transmision 
.................... i2c_start();            // Comienzo comunicacin 
.................... i2c_write(direccion);   // Direccin del esclavo en el bus I2C 
.................... i2c_write(make8(posicion,0));    // Posicin donde se guardara el dato transmitido 
.................... i2c_write(make8(posicion,1));    // Posicin donde se guardara el dato transmitido 
.................... i2c_write(0x1f);        // Dato a transmitir 
.................... i2c_stop(); 
.................... ++posicion; 
.................... i2c_start();            // Comienzo comunicacin 
.................... i2c_write(direccion);   // Direccin del esclavo en el bus I2C 
.................... i2c_write(make8(posicion,0));    // Posicin donde se guardara el dato transmitido 
.................... i2c_write(make8(posicion,1));    // Posicin donde se guardara el dato transmitido 
.................... i2c_write(0x1f);        // Dato a transmitir 
.................... i2c_stop(); 
.................... ++posicion; 
.................... //Se envian 2 veces 1f para indicar que se inicia la transmision. 
.................... delay_ms(200); 
.................... //Buzzer_off; 
.................... } 
....................  
.................... void codificaAlarma(){ 
....................    if(ACiclos[i]==0){ 
*
0660E:  CLRF   03
06610:  MOVLB  3
06612:  MOVF   x51,W
06614:  ADDLW  F1
06616:  MOVWF  FE9
06618:  MOVLW  03
0661A:  ADDWFC 03,W
0661C:  MOVWF  FEA
0661E:  MOVF   FEF,F
06620:  BNZ   6660
....................       printf("A%u.txt=\"----\"",i+1); 
06622:  MOVLW  01
06624:  ADDWF  x51,W
06626:  MOVLB  7
06628:  MOVWF  xB9
0662A:  MOVLW  41
0662C:  BTFSS  F9E.4
0662E:  BRA    662C
06630:  MOVWF  FAD
06632:  MOVFF  7B9,7BE
06636:  MOVLW  1B
06638:  MOVWF  xBF
0663A:  MOVLB  0
0663C:  CALL   58E0
06640:  MOVLW  3F
06642:  MOVWF  FF6
06644:  MOVLW  04
06646:  MOVWF  FF7
06648:  MOVLW  00
0664A:  MOVWF  FF8
0664C:  MOVLW  0B
0664E:  MOVLB  7
06650:  MOVWF  xBE
06652:  MOVLB  0
06654:  CALL   55F4
....................       SendDataDisplay(); 
06658:  CALL   3E98
....................    }else if(ACiclos[i]==1){ 
0665C:  BRA    6C1E
0665E:  MOVLB  3
06660:  CLRF   03
06662:  MOVF   x51,W
06664:  ADDLW  F1
06666:  MOVWF  FE9
06668:  MOVLW  03
0666A:  ADDWFC 03,W
0666C:  MOVWF  FEA
0666E:  DECFSZ FEF,W
06670:  BRA    66B0
....................       printf("A%u.txt=\"Parada\"",i+1); 
06672:  MOVLW  01
06674:  ADDWF  x51,W
06676:  MOVLB  7
06678:  MOVWF  xB9
0667A:  MOVLW  41
0667C:  BTFSS  F9E.4
0667E:  BRA    667C
06680:  MOVWF  FAD
06682:  MOVFF  7B9,7BE
06686:  MOVLW  1B
06688:  MOVWF  xBF
0668A:  MOVLB  0
0668C:  CALL   58E0
06690:  MOVLW  4F
06692:  MOVWF  FF6
06694:  MOVLW  04
06696:  MOVWF  FF7
06698:  MOVLW  00
0669A:  MOVWF  FF8
0669C:  MOVLW  0D
0669E:  MOVLB  7
066A0:  MOVWF  xBE
066A2:  MOVLB  0
066A4:  CALL   55F4
....................       SendDataDisplay(); 
066A8:  CALL   3E98
....................    }else if(ACiclos[i]==2){ 
066AC:  BRA    6C1E
066AE:  MOVLB  3
066B0:  CLRF   03
066B2:  MOVF   x51,W
066B4:  ADDLW  F1
066B6:  MOVWF  FE9
066B8:  MOVLW  03
066BA:  ADDWFC 03,W
066BC:  MOVWF  FEA
066BE:  MOVF   FEF,W
066C0:  SUBLW  02
066C2:  BNZ   6702
....................       printf("A%u.txt=\"Puerta\"",i+1); 
066C4:  MOVLW  01
066C6:  ADDWF  x51,W
066C8:  MOVLB  7
066CA:  MOVWF  xB9
066CC:  MOVLW  41
066CE:  BTFSS  F9E.4
066D0:  BRA    66CE
066D2:  MOVWF  FAD
066D4:  MOVFF  7B9,7BE
066D8:  MOVLW  1B
066DA:  MOVWF  xBF
066DC:  MOVLB  0
066DE:  CALL   58E0
066E2:  MOVLW  61
066E4:  MOVWF  FF6
066E6:  MOVLW  04
066E8:  MOVWF  FF7
066EA:  MOVLW  00
066EC:  MOVWF  FF8
066EE:  MOVLW  0D
066F0:  MOVLB  7
066F2:  MOVWF  xBE
066F4:  MOVLB  0
066F6:  CALL   55F4
....................       SendDataDisplay(); 
066FA:  CALL   3E98
....................    }else if(ACiclos[i]==3){ 
066FE:  BRA    6C1E
06700:  MOVLB  3
06702:  CLRF   03
06704:  MOVF   x51,W
06706:  ADDLW  F1
06708:  MOVWF  FE9
0670A:  MOVLW  03
0670C:  ADDWFC 03,W
0670E:  MOVWF  FEA
06710:  MOVF   FEF,W
06712:  SUBLW  03
06714:  BNZ   6754
....................       printf("A%u.txt=\"Termostato\"",i+1); 
06716:  MOVLW  01
06718:  ADDWF  x51,W
0671A:  MOVLB  7
0671C:  MOVWF  xB9
0671E:  MOVLW  41
06720:  BTFSS  F9E.4
06722:  BRA    6720
06724:  MOVWF  FAD
06726:  MOVFF  7B9,7BE
0672A:  MOVLW  1B
0672C:  MOVWF  xBF
0672E:  MOVLB  0
06730:  CALL   58E0
06734:  MOVLW  73
06736:  MOVWF  FF6
06738:  MOVLW  04
0673A:  MOVWF  FF7
0673C:  MOVLW  00
0673E:  MOVWF  FF8
06740:  MOVLW  11
06742:  MOVLB  7
06744:  MOVWF  xBE
06746:  MOVLB  0
06748:  CALL   55F4
....................       SendDataDisplay(); 
0674C:  CALL   3E98
....................    }else if(ACiclos[i]==4){ 
06750:  BRA    6C1E
06752:  MOVLB  3
06754:  CLRF   03
06756:  MOVF   x51,W
06758:  ADDLW  F1
0675A:  MOVWF  FE9
0675C:  MOVLW  03
0675E:  ADDWFC 03,W
06760:  MOVWF  FEA
06762:  MOVF   FEF,W
06764:  SUBLW  04
06766:  BNZ   67A6
....................       printf("A%u.txt=\"SobreT\"",i+1); 
06768:  MOVLW  01
0676A:  ADDWF  x51,W
0676C:  MOVLB  7
0676E:  MOVWF  xB9
06770:  MOVLW  41
06772:  BTFSS  F9E.4
06774:  BRA    6772
06776:  MOVWF  FAD
06778:  MOVFF  7B9,7BE
0677C:  MOVLW  1B
0677E:  MOVWF  xBF
06780:  MOVLB  0
06782:  CALL   58E0
06786:  MOVLW  89
06788:  MOVWF  FF6
0678A:  MOVLW  04
0678C:  MOVWF  FF7
0678E:  MOVLW  00
06790:  MOVWF  FF8
06792:  MOVLW  0D
06794:  MOVLB  7
06796:  MOVWF  xBE
06798:  MOVLB  0
0679A:  CALL   55F4
....................       SendDataDisplay(); 
0679E:  CALL   3E98
....................    }else if(ACiclos[i]==5){ 
067A2:  BRA    6C1E
067A4:  MOVLB  3
067A6:  CLRF   03
067A8:  MOVF   x51,W
067AA:  ADDLW  F1
067AC:  MOVWF  FE9
067AE:  MOVLW  03
067B0:  ADDWFC 03,W
067B2:  MOVWF  FEA
067B4:  MOVF   FEF,W
067B6:  SUBLW  05
067B8:  BNZ   67F8
....................       printf("A%u.txt=\"Tiempo\"",i+1); 
067BA:  MOVLW  01
067BC:  ADDWF  x51,W
067BE:  MOVLB  7
067C0:  MOVWF  xB9
067C2:  MOVLW  41
067C4:  BTFSS  F9E.4
067C6:  BRA    67C4
067C8:  MOVWF  FAD
067CA:  MOVFF  7B9,7BE
067CE:  MOVLW  1B
067D0:  MOVWF  xBF
067D2:  MOVLB  0
067D4:  CALL   58E0
067D8:  MOVLW  9B
067DA:  MOVWF  FF6
067DC:  MOVLW  04
067DE:  MOVWF  FF7
067E0:  MOVLW  00
067E2:  MOVWF  FF8
067E4:  MOVLW  0D
067E6:  MOVLB  7
067E8:  MOVWF  xBE
067EA:  MOVLB  0
067EC:  CALL   55F4
....................       SendDataDisplay(); 
067F0:  CALL   3E98
....................    }else if(ACiclos[i]==6){ 
067F4:  BRA    6C1E
067F6:  MOVLB  3
067F8:  CLRF   03
067FA:  MOVF   x51,W
067FC:  ADDLW  F1
067FE:  MOVWF  FE9
06800:  MOVLW  03
06802:  ADDWFC 03,W
06804:  MOVWF  FEA
06806:  MOVF   FEF,W
06808:  SUBLW  06
0680A:  BNZ   684A
....................       printf("A%u.txt=\"Presion\"",i+1); 
0680C:  MOVLW  01
0680E:  ADDWF  x51,W
06810:  MOVLB  7
06812:  MOVWF  xB9
06814:  MOVLW  41
06816:  BTFSS  F9E.4
06818:  BRA    6816
0681A:  MOVWF  FAD
0681C:  MOVFF  7B9,7BE
06820:  MOVLW  1B
06822:  MOVWF  xBF
06824:  MOVLB  0
06826:  CALL   58E0
0682A:  MOVLW  AD
0682C:  MOVWF  FF6
0682E:  MOVLW  04
06830:  MOVWF  FF7
06832:  MOVLW  00
06834:  MOVWF  FF8
06836:  MOVLW  0E
06838:  MOVLB  7
0683A:  MOVWF  xBE
0683C:  MOVLB  0
0683E:  CALL   55F4
....................       SendDataDisplay(); 
06842:  CALL   3E98
....................    }else if(ACiclos[i]==7){ 
06846:  BRA    6C1E
06848:  MOVLB  3
0684A:  CLRF   03
0684C:  MOVF   x51,W
0684E:  ADDLW  F1
06850:  MOVWF  FE9
06852:  MOVLW  03
06854:  ADDWFC 03,W
06856:  MOVWF  FEA
06858:  MOVF   FEF,W
0685A:  SUBLW  07
0685C:  BNZ   689C
....................       printf("A%u.txt=\"ErrorBloqueo\"",i+1); 
0685E:  MOVLW  01
06860:  ADDWF  x51,W
06862:  MOVLB  7
06864:  MOVWF  xB9
06866:  MOVLW  41
06868:  BTFSS  F9E.4
0686A:  BRA    6868
0686C:  MOVWF  FAD
0686E:  MOVFF  7B9,7BE
06872:  MOVLW  1B
06874:  MOVWF  xBF
06876:  MOVLB  0
06878:  CALL   58E0
0687C:  MOVLW  BF
0687E:  MOVWF  FF6
06880:  MOVLW  04
06882:  MOVWF  FF7
06884:  MOVLW  00
06886:  MOVWF  FF8
06888:  MOVLW  13
0688A:  MOVLB  7
0688C:  MOVWF  xBE
0688E:  MOVLB  0
06890:  CALL   55F4
....................       SendDataDisplay(); 
06894:  CALL   3E98
....................    }else if(ACiclos[i]==8){ 
06898:  BRA    6C1E
0689A:  MOVLB  3
0689C:  CLRF   03
0689E:  MOVF   x51,W
068A0:  ADDLW  F1
068A2:  MOVWF  FE9
068A4:  MOVLW  03
068A6:  ADDWFC 03,W
068A8:  MOVWF  FEA
068AA:  MOVF   FEF,W
068AC:  SUBLW  08
068AE:  BNZ   68EE
....................       printf("A%u.txt=\"ErrorApertura\"",i+1); 
068B0:  MOVLW  01
068B2:  ADDWF  x51,W
068B4:  MOVLB  7
068B6:  MOVWF  xB9
068B8:  MOVLW  41
068BA:  BTFSS  F9E.4
068BC:  BRA    68BA
068BE:  MOVWF  FAD
068C0:  MOVFF  7B9,7BE
068C4:  MOVLW  1B
068C6:  MOVWF  xBF
068C8:  MOVLB  0
068CA:  CALL   58E0
068CE:  MOVLW  D7
068D0:  MOVWF  FF6
068D2:  MOVLW  04
068D4:  MOVWF  FF7
068D6:  MOVLW  00
068D8:  MOVWF  FF8
068DA:  MOVLW  14
068DC:  MOVLB  7
068DE:  MOVWF  xBE
068E0:  MOVLB  0
068E2:  CALL   55F4
....................       SendDataDisplay(); 
068E6:  CALL   3E98
....................    }else if(ACiclos[i]==9){ 
068EA:  BRA    6C1E
068EC:  MOVLB  3
068EE:  CLRF   03
068F0:  MOVF   x51,W
068F2:  ADDLW  F1
068F4:  MOVWF  FE9
068F6:  MOVLW  03
068F8:  ADDWFC 03,W
068FA:  MOVWF  FEA
068FC:  MOVF   FEF,W
068FE:  SUBLW  09
06900:  BNZ   6940
....................       printf("A%u.txt=\"Llenado\"",i+1); 
06902:  MOVLW  01
06904:  ADDWF  x51,W
06906:  MOVLB  7
06908:  MOVWF  xB9
0690A:  MOVLW  41
0690C:  BTFSS  F9E.4
0690E:  BRA    690C
06910:  MOVWF  FAD
06912:  MOVFF  7B9,7BE
06916:  MOVLW  1B
06918:  MOVWF  xBF
0691A:  MOVLB  0
0691C:  CALL   58E0
06920:  MOVLW  EF
06922:  MOVWF  FF6
06924:  MOVLW  04
06926:  MOVWF  FF7
06928:  MOVLW  00
0692A:  MOVWF  FF8
0692C:  MOVLW  0E
0692E:  MOVLB  7
06930:  MOVWF  xBE
06932:  MOVLB  0
06934:  CALL   55F4
....................       SendDataDisplay(); 
06938:  CALL   3E98
....................    }else if(ACiclos[i]==10){ 
0693C:  BRA    6C1E
0693E:  MOVLB  3
06940:  CLRF   03
06942:  MOVF   x51,W
06944:  ADDLW  F1
06946:  MOVWF  FE9
06948:  MOVLW  03
0694A:  ADDWFC 03,W
0694C:  MOVWF  FEA
0694E:  MOVF   FEF,W
06950:  SUBLW  0A
06952:  BNZ   6992
....................       printf("A%u.txt=\"PreCale\"",i+1); 
06954:  MOVLW  01
06956:  ADDWF  x51,W
06958:  MOVLB  7
0695A:  MOVWF  xB9
0695C:  MOVLW  41
0695E:  BTFSS  F9E.4
06960:  BRA    695E
06962:  MOVWF  FAD
06964:  MOVFF  7B9,7BE
06968:  MOVLW  1B
0696A:  MOVWF  xBF
0696C:  MOVLB  0
0696E:  CALL   58E0
06972:  MOVLW  01
06974:  MOVWF  FF6
06976:  MOVLW  05
06978:  MOVWF  FF7
0697A:  MOVLW  00
0697C:  MOVWF  FF8
0697E:  MOVLW  0E
06980:  MOVLB  7
06982:  MOVWF  xBE
06984:  MOVLB  0
06986:  CALL   55F4
....................       SendDataDisplay(); 
0698A:  CALL   3E98
....................    }else if(ACiclos[i]==11){ 
0698E:  BRA    6C1E
06990:  MOVLB  3
06992:  CLRF   03
06994:  MOVF   x51,W
06996:  ADDLW  F1
06998:  MOVWF  FE9
0699A:  MOVLW  03
0699C:  ADDWFC 03,W
0699E:  MOVWF  FEA
069A0:  MOVF   FEF,W
069A2:  SUBLW  0B
069A4:  BNZ   69E4
....................       printf("A%u.txt=\"Vacio\"",i+1); 
069A6:  MOVLW  01
069A8:  ADDWF  x51,W
069AA:  MOVLB  7
069AC:  MOVWF  xB9
069AE:  MOVLW  41
069B0:  BTFSS  F9E.4
069B2:  BRA    69B0
069B4:  MOVWF  FAD
069B6:  MOVFF  7B9,7BE
069BA:  MOVLW  1B
069BC:  MOVWF  xBF
069BE:  MOVLB  0
069C0:  CALL   58E0
069C4:  MOVLW  13
069C6:  MOVWF  FF6
069C8:  MOVLW  05
069CA:  MOVWF  FF7
069CC:  MOVLW  00
069CE:  MOVWF  FF8
069D0:  MOVLW  0C
069D2:  MOVLB  7
069D4:  MOVWF  xBE
069D6:  MOVLB  0
069D8:  CALL   55F4
....................       SendDataDisplay(); 
069DC:  CALL   3E98
....................    }else if(ACiclos[i]==12){ 
069E0:  BRA    6C1E
069E2:  MOVLB  3
069E4:  CLRF   03
069E6:  MOVF   x51,W
069E8:  ADDLW  F1
069EA:  MOVWF  FE9
069EC:  MOVLW  03
069EE:  ADDWFC 03,W
069F0:  MOVWF  FEA
069F2:  MOVF   FEF,W
069F4:  SUBLW  0C
069F6:  BNZ   6A36
....................       printf("A%u.txt=\"Calen\"",i+1); 
069F8:  MOVLW  01
069FA:  ADDWF  x51,W
069FC:  MOVLB  7
069FE:  MOVWF  xB9
06A00:  MOVLW  41
06A02:  BTFSS  F9E.4
06A04:  BRA    6A02
06A06:  MOVWF  FAD
06A08:  MOVFF  7B9,7BE
06A0C:  MOVLW  1B
06A0E:  MOVWF  xBF
06A10:  MOVLB  0
06A12:  CALL   58E0
06A16:  MOVLW  23
06A18:  MOVWF  FF6
06A1A:  MOVLW  05
06A1C:  MOVWF  FF7
06A1E:  MOVLW  00
06A20:  MOVWF  FF8
06A22:  MOVLW  0C
06A24:  MOVLB  7
06A26:  MOVWF  xBE
06A28:  MOVLB  0
06A2A:  CALL   55F4
....................       SendDataDisplay(); 
06A2E:  CALL   3E98
....................    }else if(ACiclos[i]==13){ 
06A32:  BRA    6C1E
06A34:  MOVLB  3
06A36:  CLRF   03
06A38:  MOVF   x51,W
06A3A:  ADDLW  F1
06A3C:  MOVWF  FE9
06A3E:  MOVLW  03
06A40:  ADDWFC 03,W
06A42:  MOVWF  FEA
06A44:  MOVF   FEF,W
06A46:  SUBLW  0D
06A48:  BNZ   6A88
....................       printf("A%u.txt=\"Desfoga\"",i+1); 
06A4A:  MOVLW  01
06A4C:  ADDWF  x51,W
06A4E:  MOVLB  7
06A50:  MOVWF  xB9
06A52:  MOVLW  41
06A54:  BTFSS  F9E.4
06A56:  BRA    6A54
06A58:  MOVWF  FAD
06A5A:  MOVFF  7B9,7BE
06A5E:  MOVLW  1B
06A60:  MOVWF  xBF
06A62:  MOVLB  0
06A64:  CALL   58E0
06A68:  MOVLW  33
06A6A:  MOVWF  FF6
06A6C:  MOVLW  05
06A6E:  MOVWF  FF7
06A70:  MOVLW  00
06A72:  MOVWF  FF8
06A74:  MOVLW  0E
06A76:  MOVLB  7
06A78:  MOVWF  xBE
06A7A:  MOVLB  0
06A7C:  CALL   55F4
....................       SendDataDisplay(); 
06A80:  CALL   3E98
....................    }else if(ACiclos[i]==14){ 
06A84:  BRA    6C1E
06A86:  MOVLB  3
06A88:  CLRF   03
06A8A:  MOVF   x51,W
06A8C:  ADDLW  F1
06A8E:  MOVWF  FE9
06A90:  MOVLW  03
06A92:  ADDWFC 03,W
06A94:  MOVWF  FEA
06A96:  MOVF   FEF,W
06A98:  SUBLW  0E
06A9A:  BNZ   6ADA
....................       printf("A%u.txt=\"Finalizado\"",i+1); 
06A9C:  MOVLW  01
06A9E:  ADDWF  x51,W
06AA0:  MOVLB  7
06AA2:  MOVWF  xB9
06AA4:  MOVLW  41
06AA6:  BTFSS  F9E.4
06AA8:  BRA    6AA6
06AAA:  MOVWF  FAD
06AAC:  MOVFF  7B9,7BE
06AB0:  MOVLW  1B
06AB2:  MOVWF  xBF
06AB4:  MOVLB  0
06AB6:  CALL   58E0
06ABA:  MOVLW  45
06ABC:  MOVWF  FF6
06ABE:  MOVLW  05
06AC0:  MOVWF  FF7
06AC2:  MOVLW  00
06AC4:  MOVWF  FF8
06AC6:  MOVLW  11
06AC8:  MOVLB  7
06ACA:  MOVWF  xBE
06ACC:  MOVLB  0
06ACE:  CALL   55F4
....................       SendDataDisplay(); 
06AD2:  CALL   3E98
....................    }else if(ACiclos[i]==15){ 
06AD6:  BRA    6C1E
06AD8:  MOVLB  3
06ADA:  CLRF   03
06ADC:  MOVF   x51,W
06ADE:  ADDLW  F1
06AE0:  MOVWF  FE9
06AE2:  MOVLW  03
06AE4:  ADDWFC 03,W
06AE6:  MOVWF  FEA
06AE8:  MOVF   FEF,W
06AEA:  SUBLW  0F
06AEC:  BNZ   6B2C
....................       printf("A%u.txt=\"Secando\"",i+1); 
06AEE:  MOVLW  01
06AF0:  ADDWF  x51,W
06AF2:  MOVLB  7
06AF4:  MOVWF  xB9
06AF6:  MOVLW  41
06AF8:  BTFSS  F9E.4
06AFA:  BRA    6AF8
06AFC:  MOVWF  FAD
06AFE:  MOVFF  7B9,7BE
06B02:  MOVLW  1B
06B04:  MOVWF  xBF
06B06:  MOVLB  0
06B08:  CALL   58E0
06B0C:  MOVLW  5B
06B0E:  MOVWF  FF6
06B10:  MOVLW  05
06B12:  MOVWF  FF7
06B14:  MOVLW  00
06B16:  MOVWF  FF8
06B18:  MOVLW  0E
06B1A:  MOVLB  7
06B1C:  MOVWF  xBE
06B1E:  MOVLB  0
06B20:  CALL   55F4
....................       SendDataDisplay(); 
06B24:  CALL   3E98
....................    }else if(ACiclos[i]==16){ 
06B28:  BRA    6C1E
06B2A:  MOVLB  3
06B2C:  CLRF   03
06B2E:  MOVF   x51,W
06B30:  ADDLW  F1
06B32:  MOVWF  FE9
06B34:  MOVLW  03
06B36:  ADDWFC 03,W
06B38:  MOVWF  FEA
06B3A:  MOVF   FEF,W
06B3C:  SUBLW  10
06B3E:  BNZ   6B7E
....................       printf("A%u.txt=\"Esterilizando\"",i+1); 
06B40:  MOVLW  01
06B42:  ADDWF  x51,W
06B44:  MOVLB  7
06B46:  MOVWF  xB9
06B48:  MOVLW  41
06B4A:  BTFSS  F9E.4
06B4C:  BRA    6B4A
06B4E:  MOVWF  FAD
06B50:  MOVFF  7B9,7BE
06B54:  MOVLW  1B
06B56:  MOVWF  xBF
06B58:  MOVLB  0
06B5A:  CALL   58E0
06B5E:  MOVLW  6D
06B60:  MOVWF  FF6
06B62:  MOVLW  05
06B64:  MOVWF  FF7
06B66:  MOVLW  00
06B68:  MOVWF  FF8
06B6A:  MOVLW  14
06B6C:  MOVLB  7
06B6E:  MOVWF  xBE
06B70:  MOVLB  0
06B72:  CALL   55F4
....................       SendDataDisplay(); 
06B76:  CALL   3E98
....................    }else if(ACiclos[i]==17){ 
06B7A:  BRA    6C1E
06B7C:  MOVLB  3
06B7E:  CLRF   03
06B80:  MOVF   x51,W
06B82:  ADDLW  F1
06B84:  MOVWF  FE9
06B86:  MOVLW  03
06B88:  ADDWFC 03,W
06B8A:  MOVWF  FEA
06B8C:  MOVF   FEF,W
06B8E:  SUBLW  11
06B90:  BNZ   6BD0
....................       printf("A%u.txt=\"Llenando\"",i+1); 
06B92:  MOVLW  01
06B94:  ADDWF  x51,W
06B96:  MOVLB  7
06B98:  MOVWF  xB9
06B9A:  MOVLW  41
06B9C:  BTFSS  F9E.4
06B9E:  BRA    6B9C
06BA0:  MOVWF  FAD
06BA2:  MOVFF  7B9,7BE
06BA6:  MOVLW  1B
06BA8:  MOVWF  xBF
06BAA:  MOVLB  0
06BAC:  CALL   58E0
06BB0:  MOVLW  85
06BB2:  MOVWF  FF6
06BB4:  MOVLW  05
06BB6:  MOVWF  FF7
06BB8:  MOVLW  00
06BBA:  MOVWF  FF8
06BBC:  MOVLW  0F
06BBE:  MOVLB  7
06BC0:  MOVWF  xBE
06BC2:  MOVLB  0
06BC4:  CALL   55F4
....................       SendDataDisplay(); 
06BC8:  CALL   3E98
....................    }else if(ACiclos[i]==30){ 
06BCC:  BRA    6C1E
06BCE:  MOVLB  3
06BD0:  CLRF   03
06BD2:  MOVF   x51,W
06BD4:  ADDLW  F1
06BD6:  MOVWF  FE9
06BD8:  MOVLW  03
06BDA:  ADDWFC 03,W
06BDC:  MOVWF  FEA
06BDE:  MOVF   FEF,W
06BE0:  SUBLW  1E
06BE2:  BNZ   6C20
....................       printf("A%u.txt=\"Empaque\"",i+1); 
06BE4:  MOVLW  01
06BE6:  ADDWF  x51,W
06BE8:  MOVLB  7
06BEA:  MOVWF  xB9
06BEC:  MOVLW  41
06BEE:  BTFSS  F9E.4
06BF0:  BRA    6BEE
06BF2:  MOVWF  FAD
06BF4:  MOVFF  7B9,7BE
06BF8:  MOVLW  1B
06BFA:  MOVWF  xBF
06BFC:  MOVLB  0
06BFE:  CALL   58E0
06C02:  MOVLW  99
06C04:  MOVWF  FF6
06C06:  MOVLW  05
06C08:  MOVWF  FF7
06C0A:  MOVLW  00
06C0C:  MOVWF  FF8
06C0E:  MOVLW  0E
06C10:  MOVLB  7
06C12:  MOVWF  xBE
06C14:  MOVLB  0
06C16:  CALL   55F4
....................       SendDataDisplay(); 
06C1A:  CALL   3E98
06C1E:  MOVLB  3
....................    } 
.................... } 
06C20:  MOVLB  0
06C22:  GOTO   C288 (RETURN)
....................  
.................... void graficaCurva(int16 tGrafica){ 
....................    if(tiempos2>=tGrafica){ 
*
051B8:  MOVLB  7
051BA:  MOVF   xBA,W
051BC:  MOVLB  3
051BE:  SUBWF  x5E,W
051C0:  BNC   51D8
051C2:  BNZ   51CE
051C4:  MOVLB  7
051C6:  MOVF   xB9,W
051C8:  MOVLB  3
051CA:  SUBWF  x5D,W
051CC:  BNC   51D8
....................       Grafica=1; 
051CE:  MOVLB  0
051D0:  BSF    xA7.6
....................       tiempos2=0; 
051D2:  MOVLB  3
051D4:  CLRF   x5E
051D6:  CLRF   x5D
....................    } 
.................... } 
051D8:  MOVLB  0
051DA:  GOTO   8424 (RETURN)
....................  
.................... void muestreo(int16 tmuestreo){ 
....................    if(tiempos3>=tmuestreo){ 
*
05210:  MOVLB  7
05212:  MOVF   xBA,W
05214:  MOVLB  3
05216:  SUBWF  x60,W
05218:  BTFSS  FD8.0
0521A:  BRA    53FA
0521C:  BNZ   522A
0521E:  MOVLB  7
05220:  MOVF   xB9,W
05222:  MOVLB  3
05224:  SUBWF  x5F,W
05226:  BTFSS  FD8.0
05228:  BRA    53FA
....................       Temperatura=LeerPt100(0,MediaMovil); 
0522A:  MOVLB  7
0522C:  CLRF   xBB
0522E:  MOVFF  2D3,7BC
05232:  MOVLB  0
05234:  CALL   4040
05238:  MOVFF  03,31B
0523C:  MOVFF  02,31A
05240:  MOVFF  01,319
05244:  MOVFF  00,318
....................       Temperatura2=LeerPt100(1,MediaMovil); 
05248:  MOVLW  01
0524A:  MOVLB  7
0524C:  MOVWF  xBB
0524E:  MOVFF  2D3,7BC
05252:  MOVLB  0
05254:  CALL   4040
05258:  MOVFF  03,31F
0525C:  MOVFF  02,31E
05260:  MOVFF  01,31D
05264:  MOVFF  00,31C
....................       PresionCamara=Leer_Sensor_Presion_Camara(5); 
05268:  MOVLW  05
0526A:  MOVLB  7
0526C:  MOVWF  xBB
0526E:  MOVLB  0
05270:  CALL   4920
05274:  MOVFF  03,7CE
05278:  MOVFF  02,7CD
0527C:  MOVFF  01,7CC
05280:  MOVFF  00,7CB
05284:  RCALL  4B1E
05286:  MOVFF  02,368
0528A:  MOVFF  01,367
....................       PresionPreCamara=Leer_Sensor_Presion_PreCamara(5); 
0528E:  MOVLW  05
05290:  MOVLB  7
05292:  MOVWF  xBB
05294:  MOVLB  0
05296:  RCALL  4B5A
05298:  MOVFF  03,7CE
0529C:  MOVFF  02,7CD
052A0:  MOVFF  01,7CC
052A4:  MOVFF  00,7CB
052A8:  RCALL  4B1E
052AA:  MOVFF  02,36A
052AE:  MOVFF  01,369
....................       rtc_get_date(Dia,Mes,Year,dow); 
....................       rtc_get_time(Hora,Minuto,Segundo); 
....................       if(sensores(2)<512) 
*
05368:  MOVLW  02
0536A:  MOVLB  7
0536C:  MOVWF  xBF
0536E:  MOVLB  0
05370:  CALL   3EF2
05374:  MOVFF  00,7BB
05378:  MOVFF  01,7BC
0537C:  MOVFF  02,7BD
05380:  MOVFF  03,7BE
05384:  MOVFF  03,7C2
05388:  MOVFF  02,7C1
0538C:  MOVFF  01,7C0
05390:  MOVFF  00,7BF
05394:  MOVLB  7
05396:  CLRF   xC6
05398:  CLRF   xC5
0539A:  CLRF   xC4
0539C:  MOVLW  88
0539E:  MOVWF  xC3
053A0:  MOVLB  0
053A2:  CALL   25FC
053A6:  BNC   53AC
....................          LOW=ON; 
053A8:  BSF    xA6.0
....................       else 
053AA:  BRA    53AE
....................          LOW=OFF; 
053AC:  BCF    xA6.0
....................        
....................       if(sensores(3)<512)//3 
053AE:  MOVLW  03
053B0:  MOVLB  7
053B2:  MOVWF  xBF
053B4:  MOVLB  0
053B6:  CALL   3EF2
053BA:  MOVFF  00,7BB
053BE:  MOVFF  01,7BC
053C2:  MOVFF  02,7BD
053C6:  MOVFF  03,7BE
053CA:  MOVFF  03,7C2
053CE:  MOVFF  02,7C1
053D2:  MOVFF  01,7C0
053D6:  MOVFF  00,7BF
053DA:  MOVLB  7
053DC:  CLRF   xC6
053DE:  CLRF   xC5
053E0:  CLRF   xC4
053E2:  MOVLW  88
053E4:  MOVWF  xC3
053E6:  MOVLB  0
053E8:  CALL   25FC
053EC:  BNC   53F2
....................          HIG=ON; 
053EE:  BSF    xA6.1
....................       else 
053F0:  BRA    53F4
....................          HIG=OFF; 
053F2:  BCF    xA6.1
....................       tiempos3=0; 
053F4:  MOVLB  3
053F6:  CLRF   x60
053F8:  CLRF   x5F
....................    } 
.................... } 
053FA:  MOVLB  0
053FC:  GOTO   8432 (RETURN)
....................  
.................... void monitoreaAgua(){ 
....................    if(!LOW){//Si no sensa agua en el nivel alto y no se ha llenado el calderin          
05400:  BTFSC  xA6.0
05402:  BRA    540E
....................       SensadoNivelL=ON;  
05404:  BSF    xA6.2
....................       Controlando=0;    
05406:  MOVLB  3
05408:  CLRF   x47
....................    }else{ 
0540A:  BRA    541C
0540C:  MOVLB  0
....................       NivelBajo=ON; 
0540E:  BSF    xA6.3
....................       tNivelBajo=0; 
05410:  MOVLB  3
05412:  CLRF   x43
05414:  CLRF   x42
....................       SensadoNivelL=OFF; 
05416:  MOVLB  0
05418:  BCF    xA6.2
0541A:  MOVLB  3
....................    } 
....................    
....................    if(tNivelBajo>3){ 
0541C:  MOVF   x43,F
0541E:  BNZ   5426
05420:  MOVF   x42,W
05422:  SUBLW  03
05424:  BC    5438
....................       SensadoNivelL=OFF; 
05426:  MOVLB  0
05428:  BCF    xA6.2
....................       NivelBajo=OFF; 
0542A:  BCF    xA6.3
....................       TiempoSensadoNivel=0; 
0542C:  CLRF   xAD
0542E:  CLRF   xAC
....................       SensadoNivel=OFF; 
05430:  BCF    xA1.7
....................       if(!Esterilizando) 
05432:  BTFSC  xA1.5
05434:  BRA    5438
....................          CalderinLleno=OFF; 
05436:  BCF    xA1.3
....................    } 
....................    
....................    if(!PruebaEstados){ 
05438:  MOVLB  0
0543A:  BTFSC  xA2.5
0543C:  BRA    549A
....................       if(NivelBajo){ 
0543E:  BTFSS  xA6.3
05440:  BRA    5474
....................          if(HIG){ 
05442:  BTFSS  xA6.1
05444:  BRA    545E
....................             SensadoNivel=ON; 
05446:  BSF    xA1.7
....................             if(TiempoSensadoNivel>2){ 
05448:  MOVF   xAD,F
0544A:  BNZ   5452
0544C:  MOVF   xAC,W
0544E:  SUBLW  02
05450:  BC    545C
....................                SensadoNivel=OFF; 
05452:  BCF    xA1.7
....................                CalderinLleno=ON; 
05454:  BSF    xA1.3
....................                IniciaLlenado=OFF;                   
05456:  BCF    xA1.2
....................                Agua_off; 
05458:  BSF    F8B.2
0545A:  BCF    F94.2
....................             } 
....................          }else{ 
0545C:  BRA    5472
....................             SensadoNivel=OFF; 
0545E:  BCF    xA1.7
....................             TiempoSensadoNivel=0; 
05460:  CLRF   xAD
05462:  CLRF   xAC
....................             if(!AlarmaLlenado && !CalderinLleno)    
05464:  BTFSC  x9F.2
05466:  BRA    5470
05468:  BTFSC  xA1.3
0546A:  BRA    5470
....................                Agua_on; 
0546C:  BCF    F8B.2
0546E:  BCF    F94.2
....................             IniciaLlenado=ON; 
05470:  BSF    xA1.2
....................          } 
....................       }else{ 
05472:  BRA    547E
....................          if(!AlarmaLlenado) 
05474:  BTFSC  x9F.2
05476:  BRA    547C
....................             Agua_on; 
05478:  BCF    F8B.2
0547A:  BCF    F94.2
....................          IniciaLlenado=ON; 
0547C:  BSF    xA1.2
....................       } 
....................        
....................       if(TiempoLlenado>600){ 
0547E:  MOVF   xAB,W
05480:  SUBLW  01
05482:  BC    5496
05484:  XORLW  FF
05486:  BNZ   548E
05488:  MOVF   xAA,W
0548A:  SUBLW  58
0548C:  BC    5496
....................          AlarmaLlenado=ON; 
0548E:  BSF    x9F.2
....................          Agua_off; 
05490:  BSF    F8B.2
05492:  BCF    F94.2
....................       }else{ 
05494:  BRA    5498
....................          AlarmaLlenado=OFF; 
05496:  BCF    x9F.2
....................       } 
....................    }else{ 
05498:  BRA    549C
....................       IniciaLlenado=OFF; 
0549A:  BCF    xA1.2
....................    } 
.................... } 
0549C:  GOTO   8436 (RETURN)
....................  
.................... /* 
.................... void monitoreaNivelAlto(){ 
....................    if(LRES){ 
....................       printf("Funcionamiento.t4f.txt=\" Ninguna\""); 
....................       SendDataDisplay(); 
....................       if(HIG){ 
....................          SensadoNivel=ON; 
....................          if(TiempoSensadoNivel>2){ 
....................             SensadoNivel=OFF; 
....................             CalderinLleno=ON; 
....................             IniciaLlenado=OFF;                   
....................             Agua_off; 
....................          } 
....................      }else{ 
....................         SensadoNivel=OFF; 
....................         TiempoSensadoNivel=0; 
....................         Agua_on; 
....................      }   
....................   }else{ 
....................       printf("Funcionamiento.t4f.txt=\" Reservorio Vacio\""); 
....................       SendDataDisplay(); 
....................       Agua_off;      
....................   } 
.................... } 
.................... */ 
....................  
....................  
.................... void detieneBloqueo(){    
....................    conteo++; 
*
04DF8:  INCF   xCD,F
....................    Envio_I2C(0XC0,0,conteo); 
04DFA:  MOVLW  C0
04DFC:  MOVLB  7
04DFE:  MOVWF  xCA
04E00:  CLRF   xCB
04E02:  MOVFF  CD,7CC
04E06:  MOVLB  0
04E08:  RCALL  4D58
....................    delay_us(100); 
04E0A:  MOVLW  A6
04E0C:  MOVWF  00
04E0E:  DECFSZ 00,F
04E10:  BRA    4E0E
04E12:  NOP   
....................    Envio_I2C(0XC0,1,60); 
04E14:  MOVLW  C0
04E16:  MOVLB  7
04E18:  MOVWF  xCA
04E1A:  MOVLW  01
04E1C:  MOVWF  xCB
04E1E:  MOVLW  3C
04E20:  MOVWF  xCC
04E22:  MOVLB  0
04E24:  RCALL  4D58
....................    delay_us(100); 
04E26:  MOVLW  A6
04E28:  MOVWF  00
04E2A:  DECFSZ 00,F
04E2C:  BRA    4E2A
04E2E:  NOP   
....................    flagDesbloqueo=OFF; 
04E30:  BCF    xA1.1
....................    flagBloqueo=OFF; 
04E32:  BCF    xA1.0
....................    if(!AlarmaBloqueo){ 
04E34:  BTFSC  xA0.7
04E36:  BRA    4E40
....................       tDesbloqueo=0; 
04E38:  CLRF   xBD
04E3A:  CLRF   xBC
....................       tBloqueo=0; 
04E3C:  CLRF   xBB
04E3E:  CLRF   xBA
....................    } 
.................... } 
04E40:  RETLW  00
....................  
.................... void detienePuerta(){ 
....................    if(PruebaEstados){ 
*
04DB6:  BTFSS  xA2.5
04DB8:  BRA    4DBC
....................       EstadoAireBomba=1; 
04DBA:  BSF    xA5.3
....................    } 
....................    flagApertura=OFF; 
04DBC:  BCF    xA0.6
....................    conteo++; 
04DBE:  INCF   xCD,F
....................    Envio_I2C(0XC0,0,conteo); 
04DC0:  MOVLW  C0
04DC2:  MOVLB  7
04DC4:  MOVWF  xCA
04DC6:  CLRF   xCB
04DC8:  MOVFF  CD,7CC
04DCC:  MOVLB  0
04DCE:  RCALL  4D58
....................    delay_us(100); 
04DD0:  MOVLW  A6
04DD2:  MOVWF  00
04DD4:  DECFSZ 00,F
04DD6:  BRA    4DD4
04DD8:  NOP   
....................    Envio_I2C(0XC0,1,70); 
04DDA:  MOVLW  C0
04DDC:  MOVLB  7
04DDE:  MOVWF  xCA
04DE0:  MOVLW  01
04DE2:  MOVWF  xCB
04DE4:  MOVLW  46
04DE6:  MOVWF  xCC
04DE8:  MOVLB  0
04DEA:  RCALL  4D58
....................    delay_us(100); 
04DEC:  MOVLW  A6
04DEE:  MOVWF  00
04DF0:  DECFSZ 00,F
04DF2:  BRA    4DF0
04DF4:  NOP   
.................... } 
04DF6:  RETLW  00
....................  
.................... void bloqueaPuerta(){ 
....................    if(!SWBL && DOOR){ 
*
05C60:  BSF    F93.6
05C62:  BTFSS  F81.6
05C64:  BRA    5CC0
05C66:  BSF    F93.7
05C68:  BTFSC  F81.7
05C6A:  BRA    5CC0
....................       if(tDesbloqueo<10){ 
05C6C:  MOVF   xBD,F
05C6E:  BNZ   5CB6
05C70:  MOVF   xBC,W
05C72:  SUBLW  09
05C74:  BNC   5CB6
....................          flagBloqueo=ON; 
05C76:  BSF    xA1.0
....................          conteo++; 
05C78:  INCF   xCD,F
....................          Envio_I2C(0XC0,0,conteo); 
05C7A:  MOVLW  C0
05C7C:  MOVLB  7
05C7E:  MOVWF  xCA
05C80:  CLRF   xCB
05C82:  MOVFF  CD,7CC
05C86:  MOVLB  0
05C88:  CALL   4D58
....................          delay_us(100); 
05C8C:  MOVLW  A6
05C8E:  MOVWF  00
05C90:  DECFSZ 00,F
05C92:  BRA    5C90
05C94:  NOP   
....................          Envio_I2C(0XC0,1,40); 
05C96:  MOVLW  C0
05C98:  MOVLB  7
05C9A:  MOVWF  xCA
05C9C:  MOVLW  01
05C9E:  MOVWF  xCB
05CA0:  MOVLW  28
05CA2:  MOVWF  xCC
05CA4:  MOVLB  0
05CA6:  CALL   4D58
....................          delay_us(100); 
05CAA:  MOVLW  A6
05CAC:  MOVWF  00
05CAE:  DECFSZ 00,F
05CB0:  BRA    5CAE
05CB2:  NOP   
....................       }else{ 
05CB4:  BRA    5CBE
....................          detieneBloqueo(); 
05CB6:  CALL   4DF8
....................          flagBloqueo=OFF; 
05CBA:  BCF    xA1.0
....................          AlarmaBloqueo=ON; 
05CBC:  BSF    xA0.7
....................       } 
....................    }else{ 
05CBE:  BRA    5CCA
....................       detieneBloqueo(); 
05CC0:  CALL   4DF8
....................       flagBloqueo=OFF; 
05CC4:  BCF    xA1.0
....................       tBloqueo=0; 
05CC6:  CLRF   xBB
05CC8:  CLRF   xBA
....................    } 
.................... } 
05CCA:  RETLW  00
....................  
.................... void desbloqueaPuerta(){    
....................    if(PresionCamara<=2 && !SWBLO){ 
05CCC:  MOVLB  3
05CCE:  MOVF   x68,F
05CD0:  BNZ   5D36
05CD2:  MOVF   x67,W
05CD4:  SUBLW  02
05CD6:  BNC   5D36
05CD8:  BSF    F93.2
05CDA:  BTFSS  F81.2
05CDC:  BRA    5D36
....................       if(tDesbloqueo<10){ 
05CDE:  MOVLB  0
05CE0:  MOVF   xBD,F
05CE2:  BNZ   5D2A
05CE4:  MOVF   xBC,W
05CE6:  SUBLW  09
05CE8:  BNC   5D2A
....................          flagDesbloqueo=ON; 
05CEA:  BSF    xA1.1
....................          conteo++; 
05CEC:  INCF   xCD,F
....................          Envio_I2C(0XC0,0,conteo); 
05CEE:  MOVLW  C0
05CF0:  MOVLB  7
05CF2:  MOVWF  xCA
05CF4:  CLRF   xCB
05CF6:  MOVFF  CD,7CC
05CFA:  MOVLB  0
05CFC:  CALL   4D58
....................          delay_us(100); 
05D00:  MOVLW  A6
05D02:  MOVWF  00
05D04:  DECFSZ 00,F
05D06:  BRA    5D04
05D08:  NOP   
....................          Envio_I2C(0XC0,1,50); 
05D0A:  MOVLW  C0
05D0C:  MOVLB  7
05D0E:  MOVWF  xCA
05D10:  MOVLW  01
05D12:  MOVWF  xCB
05D14:  MOVLW  32
05D16:  MOVWF  xCC
05D18:  MOVLB  0
05D1A:  CALL   4D58
....................          delay_us(100); 
05D1E:  MOVLW  A6
05D20:  MOVWF  00
05D22:  DECFSZ 00,F
05D24:  BRA    5D22
05D26:  NOP   
....................       }else{ 
05D28:  BRA    5D32
....................          detieneBloqueo(); 
05D2A:  CALL   4DF8
....................          flagDesbloqueo=OFF; 
05D2E:  BCF    xA1.1
....................          AlarmaBloqueo=ON; 
05D30:  BSF    xA0.7
....................       } 
....................    }else{ 
05D32:  BRA    5D42
05D34:  MOVLB  3
....................       detieneBloqueo(); 
05D36:  MOVLB  0
05D38:  CALL   4DF8
....................       flagDesbloqueo=OFF; 
05D3C:  BCF    xA1.1
....................       tDesbloqueo=0; 
05D3E:  CLRF   xBD
05D40:  CLRF   xBC
....................    } 
.................... } 
05D42:  RETLW  00
....................  
.................... void cierraPuerta(){ 
....................    if(!DOOR){ 
*
05BDA:  BSF    F93.7
05BDC:  BTFSS  F81.7
05BDE:  BRA    5C36
....................       if(tiempoApertura>=50){ 
05BE0:  MOVF   xB9,F
05BE2:  BNZ   5BEA
05BE4:  MOVF   xB8,W
05BE6:  SUBLW  31
05BE8:  BC    5BF4
....................          detienePuerta(); 
05BEA:  CALL   4DB6
....................          AlarmaApertura=ON; 
05BEE:  BSF    xA0.5
....................          flagApertura=OFF; 
05BF0:  BCF    xA0.6
....................       }else{ 
05BF2:  BRA    5C34
....................          cerro=OFF; 
05BF4:  BCF    xA6.7
....................          conteo++; 
05BF6:  INCF   xCD,F
....................          Envio_I2C(0XC0,0,conteo); 
05BF8:  MOVLW  C0
05BFA:  MOVLB  7
05BFC:  MOVWF  xCA
05BFE:  CLRF   xCB
05C00:  MOVFF  CD,7CC
05C04:  MOVLB  0
05C06:  CALL   4D58
....................          delay_us(100); 
05C0A:  MOVLW  A6
05C0C:  MOVWF  00
05C0E:  DECFSZ 00,F
05C10:  BRA    5C0E
05C12:  NOP   
....................          Envio_I2C(0XC0,1,10);       
05C14:  MOVLW  C0
05C16:  MOVLB  7
05C18:  MOVWF  xCA
05C1A:  MOVLW  01
05C1C:  MOVWF  xCB
05C1E:  MOVLW  0A
05C20:  MOVWF  xCC
05C22:  MOVLB  0
05C24:  CALL   4D58
....................          delay_us(100); 
05C28:  MOVLW  A6
05C2A:  MOVWF  00
05C2C:  DECFSZ 00,F
05C2E:  BRA    5C2C
05C30:  NOP   
....................          flagApertura=ON; 
05C32:  BSF    xA0.6
....................          //desbloqueaPuerta(); 
....................       } 
....................    }else{ 
05C34:  BRA    5C5E
....................       if(!cerro){ 
05C36:  BTFSC  xA6.7
05C38:  BRA    5C58
....................          cerro=ON; 
05C3A:  BSF    xA6.7
....................          delay_ms(800); 
05C3C:  MOVLW  04
05C3E:  MOVLB  7
05C40:  MOVWF  xB9
05C42:  MOVLW  C8
05C44:  MOVWF  xC9
05C46:  MOVLB  0
05C48:  CALL   1FA0
05C4C:  MOVLB  7
05C4E:  DECFSZ xB9,F
05C50:  BRA    5C42
....................          detienePuerta(); 
05C52:  MOVLB  0
05C54:  CALL   4DB6
....................       } 
....................       flagApertura=OFF; 
05C58:  BCF    xA0.6
....................       tiempoApertura=0; 
05C5A:  CLRF   xB9
05C5C:  CLRF   xB8
....................    } 
.................... } 
05C5E:  RETLW  00
....................  
.................... void abrePuerta(){ 
....................    if(PresionCamara<=2 && !SWBL && !DOORO && SWBLO){ 
*
05A7E:  MOVLB  3
05A80:  MOVF   x68,F
05A82:  BTFSS  FD8.2
05A84:  BRA    5BC6
05A86:  MOVF   x67,W
05A88:  SUBLW  02
05A8A:  BTFSS  FD8.0
05A8C:  BRA    5BC6
05A8E:  BSF    F93.6
05A90:  BTFSS  F81.6
05A92:  BRA    5BC6
05A94:  BSF    F93.3
05A96:  BTFSS  F81.3
05A98:  BRA    5BC6
05A9A:  BSF    F93.2
05A9C:  BTFSC  F81.2
05A9E:  BRA    5BC6
....................       if(tiempoApertura>=50){ 
05AA0:  MOVLB  0
05AA2:  MOVF   xB9,F
05AA4:  BNZ   5AAC
05AA6:  MOVF   xB8,W
05AA8:  SUBLW  31
05AAA:  BC    5AB6
....................          detienePuerta(); 
05AAC:  CALL   4DB6
....................          AlarmaApertura=ON; 
05AB0:  BSF    xA0.5
....................          flagApertura=OFF; 
05AB2:  BCF    xA0.6
....................       }else{ 
05AB4:  BRA    5BC2
....................          if(DOOR && tiempoApertura<=2){ 
05AB6:  BSF    F93.7
05AB8:  BTFSC  F81.7
05ABA:  BRA    5B08
05ABC:  MOVF   xB9,F
05ABE:  BNZ   5B08
05AC0:  MOVF   xB8,W
05AC2:  SUBLW  02
05AC4:  BNC   5B08
....................             abrio=OFF; 
05AC6:  BCF    xA7.0
....................             flagApertura=ON; 
05AC8:  BSF    xA0.6
....................             conteo++; 
05ACA:  INCF   xCD,F
....................             Envio_I2C(0XC0,0,conteo); 
05ACC:  MOVLW  C0
05ACE:  MOVLB  7
05AD0:  MOVWF  xCA
05AD2:  CLRF   xCB
05AD4:  MOVFF  CD,7CC
05AD8:  MOVLB  0
05ADA:  CALL   4D58
....................             delay_us(100); 
05ADE:  MOVLW  A6
05AE0:  MOVWF  00
05AE2:  DECFSZ 00,F
05AE4:  BRA    5AE2
05AE6:  NOP   
....................             Envio_I2C(0XC0,1,20); 
05AE8:  MOVLW  C0
05AEA:  MOVLB  7
05AEC:  MOVWF  xCA
05AEE:  MOVLW  01
05AF0:  MOVWF  xCB
05AF2:  MOVLW  14
05AF4:  MOVWF  xCC
05AF6:  MOVLB  0
05AF8:  CALL   4D58
....................             delay_us(100);   
05AFC:  MOVLW  A6
05AFE:  MOVWF  00
05B00:  DECFSZ 00,F
05B02:  BRA    5B00
05B04:  NOP   
....................          }else if(DOOR && tiempoApertura>2){ 
05B06:  BRA    5BC2
05B08:  BSF    F93.7
05B0A:  BTFSC  F81.7
05B0C:  BRA    5B20
05B0E:  MOVF   xB9,F
05B10:  BNZ   5B18
05B12:  MOVF   xB8,W
05B14:  SUBLW  02
05B16:  BC    5B20
....................             detienePuerta(); 
05B18:  CALL   4DB6
....................             AlarmaApertura=ON; 
05B1C:  BSF    xA0.5
....................          }else if(!DOOR && tiempoApertura>2){ 
05B1E:  BRA    5BC2
05B20:  BSF    F93.7
05B22:  BTFSS  F81.7
05B24:  BRA    5B72
05B26:  MOVF   xB9,F
05B28:  BNZ   5B30
05B2A:  MOVF   xB8,W
05B2C:  SUBLW  02
05B2E:  BC    5B72
....................             abrio=OFF; 
05B30:  BCF    xA7.0
....................             flagApertura=ON; 
05B32:  BSF    xA0.6
....................             conteo++; 
05B34:  INCF   xCD,F
....................             Envio_I2C(0XC0,0,conteo); 
05B36:  MOVLW  C0
05B38:  MOVLB  7
05B3A:  MOVWF  xCA
05B3C:  CLRF   xCB
05B3E:  MOVFF  CD,7CC
05B42:  MOVLB  0
05B44:  CALL   4D58
....................             delay_us(100); 
05B48:  MOVLW  A6
05B4A:  MOVWF  00
05B4C:  DECFSZ 00,F
05B4E:  BRA    5B4C
05B50:  NOP   
....................             Envio_I2C(0XC0,1,20); 
05B52:  MOVLW  C0
05B54:  MOVLB  7
05B56:  MOVWF  xCA
05B58:  MOVLW  01
05B5A:  MOVWF  xCB
05B5C:  MOVLW  14
05B5E:  MOVWF  xCC
05B60:  MOVLB  0
05B62:  CALL   4D58
....................             delay_us(100);   
05B66:  MOVLW  A6
05B68:  MOVWF  00
05B6A:  DECFSZ 00,F
05B6C:  BRA    5B6A
05B6E:  NOP   
....................          }else if(!DOOR && tiempoApertura<=2){ 
05B70:  BRA    5BC2
05B72:  BSF    F93.7
05B74:  BTFSS  F81.7
05B76:  BRA    5BC2
05B78:  MOVF   xB9,F
05B7A:  BNZ   5BC2
05B7C:  MOVF   xB8,W
05B7E:  SUBLW  02
05B80:  BNC   5BC2
....................             abrio=OFF; 
05B82:  BCF    xA7.0
....................             flagApertura=ON; 
05B84:  BSF    xA0.6
....................             conteo++; 
05B86:  INCF   xCD,F
....................             Envio_I2C(0XC0,0,conteo); 
05B88:  MOVLW  C0
05B8A:  MOVLB  7
05B8C:  MOVWF  xCA
05B8E:  CLRF   xCB
05B90:  MOVFF  CD,7CC
05B94:  MOVLB  0
05B96:  CALL   4D58
....................             delay_us(100); 
05B9A:  MOVLW  A6
05B9C:  MOVWF  00
05B9E:  DECFSZ 00,F
05BA0:  BRA    5B9E
05BA2:  NOP   
....................             Envio_I2C(0XC0,1,20); 
05BA4:  MOVLW  C0
05BA6:  MOVLB  7
05BA8:  MOVWF  xCA
05BAA:  MOVLW  01
05BAC:  MOVWF  xCB
05BAE:  MOVLW  14
05BB0:  MOVWF  xCC
05BB2:  MOVLB  0
05BB4:  CALL   4D58
....................             delay_us(100);   
05BB8:  MOVLW  A6
05BBA:  MOVWF  00
05BBC:  DECFSZ 00,F
05BBE:  BRA    5BBC
05BC0:  NOP   
....................          } 
....................       } 
....................    }else{ 
05BC2:  BRA    5BD8
05BC4:  MOVLB  3
....................       if(!abrio){ 
05BC6:  MOVLB  0
05BC8:  BTFSC  xA7.0
05BCA:  BRA    5BD2
....................          abrio=ON; 
05BCC:  BSF    xA7.0
....................          detienePuerta(); 
05BCE:  CALL   4DB6
....................       } 
....................       flagApertura=OFF; 
05BD2:  BCF    xA0.6
....................       tiempoApertura=0; 
05BD4:  CLRF   xB9
05BD6:  CLRF   xB8
....................    } 
.................... } 
05BD8:  RETLW  00
....................  
.................... void monitoreaStop(){ 
....................    if(!STOP && !IniciaCiclo && !PruebaEstados){ 
*
05592:  BSF    F93.5
05594:  BTFSS  F81.5
05596:  BRA    55EA
05598:  BTFSC  xA1.4
0559A:  BRA    55EA
0559C:  BTFSC  xA2.5
0559E:  BRA    55EA
....................       if(!disp_Stop){ 
055A0:  BTFSC  xA7.7
055A2:  BRA    55C2
....................          disp_Stop=1;Menu=255; 
055A4:  BSF    xA7.7
055A6:  MOVLW  FF
055A8:  MOVLB  3
055AA:  MOVWF  x4E
....................          printf("page Emergencia"); 
055AC:  MOVLW  A8
055AE:  MOVWF  FF6
055B0:  MOVLW  05
055B2:  MOVWF  FF7
055B4:  MOVLW  00
055B6:  MOVWF  FF8
055B8:  MOVLB  0
055BA:  CALL   3E66
....................          SendDataDisplay(); 
055BE:  CALL   3E98
....................       } 
....................       Controlando=0; 
055C2:  MOVLB  3
055C4:  CLRF   x47
....................       Desfogue_on; 
055C6:  BCF    F8B.1
055C8:  BCF    F94.1
....................       SSR_off; 
055CA:  BCF    F8D.1
055CC:  BCF    F96.1
....................       Paso_off; 
055CE:  BSF    F8B.0
055D0:  BCF    F94.0
....................       DesfogueSuave=OFF; 
055D2:  MOVLB  0
055D4:  BCF    xA2.1
....................       ActivaAlarma(1); 
055D6:  MOVLW  01
055D8:  MOVLB  7
055DA:  MOVWF  xB9
055DC:  MOVLB  0
055DE:  RCALL  54A0
....................       BorraBuffer(); 
055E0:  BRA    5566
....................       detieneBloqueo(); 
055E2:  RCALL  4DF8
....................       detienePuerta(); 
055E4:  CALL   4DB6
....................    }else{ 
055E8:  BRA    55F0
....................       if(disp_Stop){ 
055EA:  BTFSS  xA7.7
055EC:  BRA    55F0
....................          reset_cpu(); 
055EE:  RESET
....................       } 
....................    }            
.................... } 
055F0:  GOTO   843A (RETURN)
....................  
.................... void actualizaTabla(){ 
....................    diaCiclos=read_ext_eeprom(2+(cicloVisto*320)); 
*
05F5C:  MOVLB  7
05F5E:  CLRF   xC4
05F60:  MOVFF  C7,7C3
05F64:  MOVLW  01
05F66:  MOVWF  xC6
05F68:  MOVLW  40
05F6A:  MOVWF  xC5
05F6C:  MOVLB  0
05F6E:  CALL   203C
05F72:  MOVFF  02,03
05F76:  MOVF   01,W
05F78:  ADDLW  02
05F7A:  MOVLB  7
05F7C:  MOVWF  xB9
05F7E:  MOVLW  00
05F80:  ADDWFC 02,W
05F82:  MOVWF  xBA
05F84:  MOVWF  xBF
05F86:  MOVFF  7B9,7BE
05F8A:  MOVLB  0
05F8C:  CALL   213E
05F90:  MOVFF  01,3F8
....................          if(diaCiclos>31) 
05F94:  MOVLB  3
05F96:  MOVF   xF8,W
05F98:  SUBLW  1F
05F9A:  BC    5FA0
....................             diaCiclos=1; 
05F9C:  MOVLW  01
05F9E:  MOVWF  xF8
....................          mesCiclos=read_ext_eeprom(3+(cicloVisto*320)); 
05FA0:  MOVLB  7
05FA2:  CLRF   xC4
05FA4:  MOVFF  C7,7C3
05FA8:  MOVLW  01
05FAA:  MOVWF  xC6
05FAC:  MOVLW  40
05FAE:  MOVWF  xC5
05FB0:  MOVLB  0
05FB2:  CALL   203C
05FB6:  MOVFF  02,03
05FBA:  MOVF   01,W
05FBC:  ADDLW  03
05FBE:  MOVLB  7
05FC0:  MOVWF  xB9
05FC2:  MOVLW  00
05FC4:  ADDWFC 02,W
05FC6:  MOVWF  xBA
05FC8:  MOVWF  xBF
05FCA:  MOVFF  7B9,7BE
05FCE:  MOVLB  0
05FD0:  CALL   213E
05FD4:  MOVFF  01,3F9
....................          if(mesCiclos>12) 
05FD8:  MOVLB  3
05FDA:  MOVF   xF9,W
05FDC:  SUBLW  0C
05FDE:  BC    5FE4
....................             mesCiclos=1; 
05FE0:  MOVLW  01
05FE2:  MOVWF  xF9
....................          yearCiclos=read_ext_eeprom(4+(cicloVisto*320)); 
05FE4:  MOVLB  7
05FE6:  CLRF   xC4
05FE8:  MOVFF  C7,7C3
05FEC:  MOVLW  01
05FEE:  MOVWF  xC6
05FF0:  MOVLW  40
05FF2:  MOVWF  xC5
05FF4:  MOVLB  0
05FF6:  CALL   203C
05FFA:  MOVFF  02,03
05FFE:  MOVF   01,W
06000:  ADDLW  04
06002:  MOVLB  7
06004:  MOVWF  xB9
06006:  MOVLW  00
06008:  ADDWFC 02,W
0600A:  MOVWF  xBA
0600C:  MOVWF  xBF
0600E:  MOVFF  7B9,7BE
06012:  MOVLB  0
06014:  CALL   213E
06018:  MOVFF  01,3FA
....................          if(yearCiclos>99) 
0601C:  MOVLB  3
0601E:  MOVF   xFA,W
06020:  SUBLW  63
06022:  BC    6028
....................             yearCiclos=19; 
06024:  MOVLW  13
06026:  MOVWF  xFA
....................          cicloCiclos=read_ext_eeprom(1+(cicloVisto*320)); 
06028:  MOVLB  7
0602A:  CLRF   xC4
0602C:  MOVFF  C7,7C3
06030:  MOVLW  01
06032:  MOVWF  xC6
06034:  MOVLW  40
06036:  MOVWF  xC5
06038:  MOVLB  0
0603A:  CALL   203C
0603E:  MOVFF  02,03
06042:  MOVF   01,W
06044:  ADDLW  01
06046:  MOVLB  7
06048:  MOVWF  xB9
0604A:  MOVLW  00
0604C:  ADDWFC 02,W
0604E:  MOVWF  xBA
06050:  MOVWF  xBF
06052:  MOVFF  7B9,7BE
06056:  MOVLB  0
06058:  CALL   213E
0605C:  MOVFF  01,3FC
....................          if(cicloCiclos>20) 
06060:  MOVLB  3
06062:  MOVF   xFC,W
06064:  SUBLW  14
06066:  BC    606C
....................             cicloCiclos=1; 
06068:  MOVLW  01
0606A:  MOVWF  xFC
....................          usuarioCiclos=read_ext_eeprom((cicloVisto*320)); 
0606C:  MOVLB  7
0606E:  CLRF   xC4
06070:  MOVFF  C7,7C3
06074:  MOVLW  01
06076:  MOVWF  xC6
06078:  MOVLW  40
0607A:  MOVWF  xC5
0607C:  MOVLB  0
0607E:  CALL   203C
06082:  MOVFF  02,7BA
06086:  MOVFF  01,7B9
0608A:  MOVFF  02,7BF
0608E:  MOVFF  01,7BE
06092:  CALL   213E
06096:  MOVFF  01,3FB
....................          if(usuarioCiclos>10) 
0609A:  MOVLB  3
0609C:  MOVF   xFB,W
0609E:  SUBLW  0A
060A0:  BC    60A6
....................             usuarioCiclos=1; 
060A2:  MOVLW  01
060A4:  MOVWF  xFB
....................          for(i=0;i<7;i++){//Lee Valores para completar la Tabla 
060A6:  CLRF   x51
060A8:  MOVF   x51,W
060AA:  SUBLW  06
060AC:  BTFSS  FD8.0
060AE:  BRA    660A
....................             horaCiclos[i]=read_ext_eeprom((cicloVisto*320)+11+((cicloVisualizado+i)*9)); 
060B0:  CLRF   03
060B2:  MOVF   x51,W
060B4:  ADDLW  E3
060B6:  MOVWF  01
060B8:  MOVLW  03
060BA:  ADDWFC 03,F
060BC:  MOVFF  01,7B9
060C0:  MOVLB  7
060C2:  MOVFF  03,7BA
060C6:  CLRF   xC4
060C8:  MOVFF  C7,7C3
060CC:  MOVLW  01
060CE:  MOVWF  xC6
060D0:  MOVLW  40
060D2:  MOVWF  xC5
060D4:  MOVLB  0
060D6:  CALL   203C
060DA:  MOVFF  02,7BC
060DE:  MOVFF  01,7BB
060E2:  MOVLW  0B
060E4:  MOVLB  7
060E6:  ADDWF  xBB,F
060E8:  MOVLW  00
060EA:  ADDWFC xBC,F
060EC:  MOVLB  3
060EE:  MOVF   x51,W
060F0:  MOVLB  0
060F2:  ADDWF  xC9,W
060F4:  MULLW  09
060F6:  MOVF   FF3,W
060F8:  MOVLB  7
060FA:  ADDWF  xBB,F
060FC:  MOVLW  00
060FE:  ADDWFC xBC,F
06100:  MOVFF  7BC,7BF
06104:  MOVFF  7BB,7BE
06108:  MOVLB  0
0610A:  CALL   213E
0610E:  MOVFF  7BA,FEA
06112:  MOVFF  7B9,FE9
06116:  MOVFF  01,FEF
....................             if(horaCiclos[i]>24) 
0611A:  CLRF   03
0611C:  MOVLB  3
0611E:  MOVF   x51,W
06120:  ADDLW  E3
06122:  MOVWF  FE9
06124:  MOVLW  03
06126:  ADDWFC 03,W
06128:  MOVWF  FEA
0612A:  MOVF   FEF,W
0612C:  SUBLW  18
0612E:  BC    6140
....................                horaCiclos[i]=0; 
06130:  CLRF   03
06132:  MOVF   x51,W
06134:  ADDLW  E3
06136:  MOVWF  FE9
06138:  MOVLW  03
0613A:  ADDWFC 03,W
0613C:  MOVWF  FEA
0613E:  CLRF   FEF
....................             minutoCiclos[i]=read_ext_eeprom((cicloVisto*320)+12+((cicloVisualizado+i)*9)); 
06140:  CLRF   03
06142:  MOVF   x51,W
06144:  ADDLW  EA
06146:  MOVWF  01
06148:  MOVLW  03
0614A:  ADDWFC 03,F
0614C:  MOVFF  01,7B9
06150:  MOVLB  7
06152:  MOVFF  03,7BA
06156:  CLRF   xC4
06158:  MOVFF  C7,7C3
0615C:  MOVLW  01
0615E:  MOVWF  xC6
06160:  MOVLW  40
06162:  MOVWF  xC5
06164:  MOVLB  0
06166:  CALL   203C
0616A:  MOVFF  02,7BC
0616E:  MOVFF  01,7BB
06172:  MOVLW  0C
06174:  MOVLB  7
06176:  ADDWF  xBB,F
06178:  MOVLW  00
0617A:  ADDWFC xBC,F
0617C:  MOVLB  3
0617E:  MOVF   x51,W
06180:  MOVLB  0
06182:  ADDWF  xC9,W
06184:  MULLW  09
06186:  MOVF   FF3,W
06188:  MOVLB  7
0618A:  ADDWF  xBB,F
0618C:  MOVLW  00
0618E:  ADDWFC xBC,F
06190:  MOVFF  7BC,7BF
06194:  MOVFF  7BB,7BE
06198:  MOVLB  0
0619A:  CALL   213E
0619E:  MOVFF  7BA,FEA
061A2:  MOVFF  7B9,FE9
061A6:  MOVFF  01,FEF
....................             if(minutoCiclos[i]>59) 
061AA:  CLRF   03
061AC:  MOVLB  3
061AE:  MOVF   x51,W
061B0:  ADDLW  EA
061B2:  MOVWF  FE9
061B4:  MOVLW  03
061B6:  ADDWFC 03,W
061B8:  MOVWF  FEA
061BA:  MOVF   FEF,W
061BC:  SUBLW  3B
061BE:  BC    61D0
....................                minutoCiclos[i]=0; 
061C0:  CLRF   03
061C2:  MOVF   x51,W
061C4:  ADDLW  EA
061C6:  MOVWF  FE9
061C8:  MOVLW  03
061CA:  ADDWFC 03,W
061CC:  MOVWF  FEA
061CE:  CLRF   FEF
....................             TCiclos[i]=read_ext_eeprom((cicloVisto*320)+5+((cicloVisualizado+i)*9))+inttofloat(read_ext_eeprom((cicloVisto*320)+6+((cicloVisualizado+i)*9))); 
061D0:  MOVF   x51,W
061D2:  MULLW  04
061D4:  MOVF   FF3,W
061D6:  CLRF   03
061D8:  ADDLW  AB
061DA:  MOVWF  01
061DC:  MOVLW  03
061DE:  ADDWFC 03,F
061E0:  MOVFF  01,7B9
061E4:  MOVLB  7
061E6:  MOVFF  03,7BA
061EA:  CLRF   xC4
061EC:  MOVFF  C7,7C3
061F0:  MOVLW  01
061F2:  MOVWF  xC6
061F4:  MOVLW  40
061F6:  MOVWF  xC5
061F8:  MOVLB  0
061FA:  CALL   203C
061FE:  MOVFF  02,7BC
06202:  MOVFF  01,7BB
06206:  MOVLW  05
06208:  MOVLB  7
0620A:  ADDWF  xBB,F
0620C:  MOVLW  00
0620E:  ADDWFC xBC,F
06210:  MOVLB  3
06212:  MOVF   x51,W
06214:  MOVLB  0
06216:  ADDWF  xC9,W
06218:  MULLW  09
0621A:  MOVF   FF3,W
0621C:  MOVLB  7
0621E:  ADDWF  xBB,F
06220:  MOVLW  00
06222:  ADDWFC xBC,F
06224:  MOVFF  7BC,7BF
06228:  MOVFF  7BB,7BE
0622C:  MOVLB  0
0622E:  CALL   213E
06232:  MOVFF  01,7BB
06236:  MOVLB  7
06238:  CLRF   xC4
0623A:  MOVFF  C7,7C3
0623E:  MOVLW  01
06240:  MOVWF  xC6
06242:  MOVLW  40
06244:  MOVWF  xC5
06246:  MOVLB  0
06248:  CALL   203C
0624C:  MOVFF  02,7BD
06250:  MOVFF  01,7BC
06254:  MOVLW  06
06256:  MOVLB  7
06258:  ADDWF  xBC,F
0625A:  MOVLW  00
0625C:  ADDWFC xBD,F
0625E:  MOVLB  3
06260:  MOVF   x51,W
06262:  MOVLB  0
06264:  ADDWF  xC9,W
06266:  MULLW  09
06268:  MOVF   FF3,W
0626A:  MOVLB  7
0626C:  ADDWF  xBC,F
0626E:  MOVLW  00
06270:  ADDWFC xBD,F
06272:  MOVFF  7BD,7BF
06276:  MOVFF  7BC,7BE
0627A:  MOVLB  0
0627C:  CALL   213E
06280:  MOVFF  01,7BC
06284:  MOVFF  01,7BD
06288:  CALL   2344
0628C:  MOVFF  00,7BC
06290:  MOVFF  01,7BD
06294:  MOVFF  02,7BE
06298:  MOVFF  03,7BF
0629C:  MOVLB  7
0629E:  CLRF   xCC
062A0:  MOVFF  7BB,7CB
062A4:  MOVLB  0
062A6:  CALL   1F6A
062AA:  MOVFF  FEA,7C1
062AE:  MOVFF  FE9,7C0
062B2:  BCF    FD8.1
062B4:  MOVFF  03,7CE
062B8:  MOVFF  02,7CD
062BC:  MOVFF  01,7CC
062C0:  MOVFF  00,7CB
062C4:  MOVFF  7BF,7D2
062C8:  MOVFF  7BE,7D1
062CC:  MOVFF  7BD,7D0
062D0:  MOVFF  7BC,7CF
062D4:  CALL   2384
062D8:  MOVFF  7C1,FEA
062DC:  MOVFF  7C0,FE9
062E0:  MOVFF  7BA,FEA
062E4:  MOVFF  7B9,FE9
062E8:  MOVFF  00,FEF
062EC:  MOVFF  01,FEC
062F0:  MOVFF  02,FEC
062F4:  MOVFF  03,FEC
....................             if(TCiclos[i]>150) 
062F8:  MOVLB  3
062FA:  MOVF   x51,W
062FC:  MULLW  04
062FE:  MOVF   FF3,W
06300:  CLRF   03
06302:  ADDLW  AB
06304:  MOVWF  FE9
06306:  MOVLW  03
06308:  ADDWFC 03,W
0630A:  MOVWF  FEA
0630C:  MOVFF  FEF,7B9
06310:  MOVFF  FEC,7BA
06314:  MOVFF  FEC,7BB
06318:  MOVFF  FEC,7BC
0631C:  MOVLB  7
0631E:  CLRF   xC2
06320:  CLRF   xC1
06322:  MOVLW  16
06324:  MOVWF  xC0
06326:  MOVLW  86
06328:  MOVWF  xBF
0632A:  MOVFF  7BC,7C6
0632E:  MOVFF  7BB,7C5
06332:  MOVFF  7BA,7C4
06336:  MOVFF  7B9,7C3
0633A:  MOVLB  0
0633C:  CALL   25FC
06340:  BNC   6360
....................                TCiclos[i]=0; 
06342:  MOVLB  3
06344:  MOVF   x51,W
06346:  MULLW  04
06348:  MOVF   FF3,W
0634A:  CLRF   03
0634C:  ADDLW  AB
0634E:  MOVWF  FE9
06350:  MOVLW  03
06352:  ADDWFC 03,W
06354:  MOVWF  FEA
06356:  CLRF   FEF
06358:  CLRF   FEC
0635A:  CLRF   FEC
0635C:  CLRF   FEC
0635E:  MOVLB  0
....................             PcCiclos[i]=make16(read_ext_eeprom((cicloVisto*320)+7+((cicloVisualizado+i)*9)),read_ext_eeprom((cicloVisto*320)+8+((cicloVisualizado+i)*9))); 
06360:  BCF    FD8.0
06362:  MOVLB  3
06364:  RLCF   x51,W
06366:  CLRF   03
06368:  ADDLW  C7
0636A:  MOVWF  01
0636C:  MOVLW  03
0636E:  ADDWFC 03,F
06370:  MOVFF  01,7B9
06374:  MOVLB  7
06376:  MOVFF  03,7BA
0637A:  CLRF   xC4
0637C:  MOVFF  C7,7C3
06380:  MOVLW  01
06382:  MOVWF  xC6
06384:  MOVLW  40
06386:  MOVWF  xC5
06388:  MOVLB  0
0638A:  CALL   203C
0638E:  MOVFF  02,7BC
06392:  MOVFF  01,7BB
06396:  MOVLW  07
06398:  MOVLB  7
0639A:  ADDWF  xBB,F
0639C:  MOVLW  00
0639E:  ADDWFC xBC,F
063A0:  MOVLB  3
063A2:  MOVF   x51,W
063A4:  MOVLB  0
063A6:  ADDWF  xC9,W
063A8:  MULLW  09
063AA:  MOVF   FF3,W
063AC:  MOVLB  7
063AE:  ADDWF  xBB,F
063B0:  MOVLW  00
063B2:  ADDWFC xBC,F
063B4:  MOVFF  7BC,7BF
063B8:  MOVFF  7BB,7BE
063BC:  MOVLB  0
063BE:  CALL   213E
063C2:  MOVFF  01,7BB
063C6:  MOVLB  7
063C8:  CLRF   xC4
063CA:  MOVFF  C7,7C3
063CE:  MOVLW  01
063D0:  MOVWF  xC6
063D2:  MOVLW  40
063D4:  MOVWF  xC5
063D6:  MOVLB  0
063D8:  CALL   203C
063DC:  MOVFF  02,7BD
063E0:  MOVFF  01,7BC
063E4:  MOVLW  08
063E6:  MOVLB  7
063E8:  ADDWF  xBC,F
063EA:  MOVLW  00
063EC:  ADDWFC xBD,F
063EE:  MOVLB  3
063F0:  MOVF   x51,W
063F2:  MOVLB  0
063F4:  ADDWF  xC9,W
063F6:  MULLW  09
063F8:  MOVF   FF3,W
063FA:  MOVLB  7
063FC:  ADDWF  xBC,F
063FE:  MOVLW  00
06400:  ADDWFC xBD,F
06402:  MOVFF  7BD,7BF
06406:  MOVFF  7BC,7BE
0640A:  MOVLB  0
0640C:  CALL   213E
06410:  MOVFF  7BA,FEA
06414:  MOVFF  7B9,FE9
06418:  MOVFF  7BB,FEC
0641C:  MOVF   FED,F
0641E:  MOVFF  01,FEF
....................             if(PcCiclos[i]>400) 
06422:  BCF    FD8.0
06424:  MOVLB  3
06426:  RLCF   x51,W
06428:  CLRF   03
0642A:  ADDLW  C7
0642C:  MOVWF  FE9
0642E:  MOVLW  03
06430:  ADDWFC 03,W
06432:  MOVWF  FEA
06434:  MOVFF  FEC,7BA
06438:  MOVF   FED,F
0643A:  MOVFF  FEF,7B9
0643E:  MOVLB  7
06440:  MOVF   xBA,W
06442:  SUBLW  00
06444:  BC    646A
06446:  XORLW  FF
06448:  BNZ   6450
0644A:  MOVF   xB9,W
0644C:  SUBLW  90
0644E:  BC    646A
....................                PcCiclos[i]=0; 
06450:  BCF    FD8.0
06452:  MOVLB  3
06454:  RLCF   x51,W
06456:  CLRF   03
06458:  ADDLW  C7
0645A:  MOVWF  FE9
0645C:  MOVLW  03
0645E:  ADDWFC 03,W
06460:  MOVWF  FEA
06462:  CLRF   FEC
06464:  MOVF   FED,F
06466:  CLRF   FEF
06468:  MOVLB  7
....................             PpcCiclos[i]=make16(read_ext_eeprom((cicloVisto*320)+9+((cicloVisualizado+i)*9)),read_ext_eeprom((cicloVisto*320)+10+((cicloVisualizado+i)*9))); 
0646A:  BCF    FD8.0
0646C:  MOVLB  3
0646E:  RLCF   x51,W
06470:  CLRF   03
06472:  ADDLW  D5
06474:  MOVWF  01
06476:  MOVLW  03
06478:  ADDWFC 03,F
0647A:  MOVFF  01,7B9
0647E:  MOVLB  7
06480:  MOVFF  03,7BA
06484:  CLRF   xC4
06486:  MOVFF  C7,7C3
0648A:  MOVLW  01
0648C:  MOVWF  xC6
0648E:  MOVLW  40
06490:  MOVWF  xC5
06492:  MOVLB  0
06494:  CALL   203C
06498:  MOVFF  02,7BC
0649C:  MOVFF  01,7BB
064A0:  MOVLW  09
064A2:  MOVLB  7
064A4:  ADDWF  xBB,F
064A6:  MOVLW  00
064A8:  ADDWFC xBC,F
064AA:  MOVLB  3
064AC:  MOVF   x51,W
064AE:  MOVLB  0
064B0:  ADDWF  xC9,W
064B2:  MULLW  09
064B4:  MOVF   FF3,W
064B6:  MOVLB  7
064B8:  ADDWF  xBB,F
064BA:  MOVLW  00
064BC:  ADDWFC xBC,F
064BE:  MOVFF  7BC,7BF
064C2:  MOVFF  7BB,7BE
064C6:  MOVLB  0
064C8:  CALL   213E
064CC:  MOVFF  01,7BB
064D0:  MOVLB  7
064D2:  CLRF   xC4
064D4:  MOVFF  C7,7C3
064D8:  MOVLW  01
064DA:  MOVWF  xC6
064DC:  MOVLW  40
064DE:  MOVWF  xC5
064E0:  MOVLB  0
064E2:  CALL   203C
064E6:  MOVFF  02,7BD
064EA:  MOVFF  01,7BC
064EE:  MOVLW  0A
064F0:  MOVLB  7
064F2:  ADDWF  xBC,F
064F4:  MOVLW  00
064F6:  ADDWFC xBD,F
064F8:  MOVLB  3
064FA:  MOVF   x51,W
064FC:  MOVLB  0
064FE:  ADDWF  xC9,W
06500:  MULLW  09
06502:  MOVF   FF3,W
06504:  MOVLB  7
06506:  ADDWF  xBC,F
06508:  MOVLW  00
0650A:  ADDWFC xBD,F
0650C:  MOVFF  7BD,7BF
06510:  MOVFF  7BC,7BE
06514:  MOVLB  0
06516:  CALL   213E
0651A:  MOVFF  7BA,FEA
0651E:  MOVFF  7B9,FE9
06522:  MOVFF  7BB,FEC
06526:  MOVF   FED,F
06528:  MOVFF  01,FEF
....................             if(PpcCiclos[i]>400) 
0652C:  BCF    FD8.0
0652E:  MOVLB  3
06530:  RLCF   x51,W
06532:  CLRF   03
06534:  ADDLW  D5
06536:  MOVWF  FE9
06538:  MOVLW  03
0653A:  ADDWFC 03,W
0653C:  MOVWF  FEA
0653E:  MOVFF  FEC,7BA
06542:  MOVF   FED,F
06544:  MOVFF  FEF,7B9
06548:  MOVLB  7
0654A:  MOVF   xBA,W
0654C:  SUBLW  00
0654E:  BC    6574
06550:  XORLW  FF
06552:  BNZ   655A
06554:  MOVF   xB9,W
06556:  SUBLW  90
06558:  BC    6574
....................                PpcCiclos[i]=0; 
0655A:  BCF    FD8.0
0655C:  MOVLB  3
0655E:  RLCF   x51,W
06560:  CLRF   03
06562:  ADDLW  D5
06564:  MOVWF  FE9
06566:  MOVLW  03
06568:  ADDWFC 03,W
0656A:  MOVWF  FEA
0656C:  CLRF   FEC
0656E:  MOVF   FED,F
06570:  CLRF   FEF
06572:  MOVLB  7
....................             ACiclos[i]=read_ext_eeprom((cicloVisto*320)+13+((cicloVisualizado+i)*9)); 
06574:  CLRF   03
06576:  MOVLB  3
06578:  MOVF   x51,W
0657A:  ADDLW  F1
0657C:  MOVWF  01
0657E:  MOVLW  03
06580:  ADDWFC 03,F
06582:  MOVFF  01,7B9
06586:  MOVLB  7
06588:  MOVFF  03,7BA
0658C:  CLRF   xC4
0658E:  MOVFF  C7,7C3
06592:  MOVLW  01
06594:  MOVWF  xC6
06596:  MOVLW  40
06598:  MOVWF  xC5
0659A:  MOVLB  0
0659C:  CALL   203C
065A0:  MOVFF  02,7BC
065A4:  MOVFF  01,7BB
065A8:  MOVLW  0D
065AA:  MOVLB  7
065AC:  ADDWF  xBB,F
065AE:  MOVLW  00
065B0:  ADDWFC xBC,F
065B2:  MOVLB  3
065B4:  MOVF   x51,W
065B6:  MOVLB  0
065B8:  ADDWF  xC9,W
065BA:  MULLW  09
065BC:  MOVF   FF3,W
065BE:  MOVLB  7
065C0:  ADDWF  xBB,F
065C2:  MOVLW  00
065C4:  ADDWFC xBC,F
065C6:  MOVFF  7BC,7BF
065CA:  MOVFF  7BB,7BE
065CE:  MOVLB  0
065D0:  CALL   213E
065D4:  MOVFF  7BA,FEA
065D8:  MOVFF  7B9,FE9
065DC:  MOVFF  01,FEF
....................             if(ACiclos[i]>30) 
065E0:  CLRF   03
065E2:  MOVLB  3
065E4:  MOVF   x51,W
065E6:  ADDLW  F1
065E8:  MOVWF  FE9
065EA:  MOVLW  03
065EC:  ADDWFC 03,W
065EE:  MOVWF  FEA
065F0:  MOVF   FEF,W
065F2:  SUBLW  1E
065F4:  BC    6606
....................                ACiclos[i]=0; 
065F6:  CLRF   03
065F8:  MOVF   x51,W
065FA:  ADDLW  F1
065FC:  MOVWF  FE9
065FE:  MOVLW  03
06600:  ADDWFC 03,W
06602:  MOVWF  FEA
06604:  CLRF   FEF
....................          } 
06606:  INCF   x51,F
06608:  BRA    60A8
.................... } 
0660A:  MOVLB  0
0660C:  RETLW  00
....................  
....................  
.................... #int_rda HIGH 
.................... void serial_rx_isr(){ 
....................    Dato2=fgetc(); 
*
005B8:  BTFSS  F9E.5
005BA:  BRA    05B8
005BC:  MOVFF  FAE,34D
005C0:  MOVLB  3
....................    if(Dato2==0x65){//Inicio Comunicacion 
005C2:  MOVF   x4D,W
005C4:  SUBLW  65
005C6:  BNZ   05CE
....................       Inicio=1; 
005C8:  MOVLW  01
005CA:  MOVWF  x4B
....................       RX_Wr_Index =0; 
005CC:  CLRF   46
....................    } 
....................    if(Inicio==1){ 
005CE:  DECFSZ x4B,W
005D0:  BRA    05E6
....................       Rx_Buffer2[RX_Wr_Index] = Dato2; 
005D2:  CLRF   03
005D4:  MOVF   46,W
005D6:  ADDLW  3B
005D8:  MOVWF  FE9
005DA:  MOVLW  00
005DC:  ADDWFC 03,W
005DE:  MOVWF  FEA
005E0:  MOVFF  34D,FEF
....................       RX_Wr_Index++; 
005E4:  INCF   46,F
....................    } 
....................    if(RX_Wr_Index >= RX_BUFFER_SIZE){ 
005E6:  MOVF   46,W
005E8:  SUBLW  09
005EA:  BC    05F0
....................       RX_Wr_Index =0; 
005EC:  CLRF   46
....................       Inicio=0; 
005EE:  CLRF   x4B
....................    } 
....................    if(RX_Wr_Index==0){ 
005F0:  MOVF   46,F
005F2:  BNZ   0614
....................       if(Rx_Buffer2[0]==0x65 && Rx_Buffer2[1]==0xff && Rx_Buffer2[2]==0xff && Rx_Buffer2[8]==0x00 && Rx_Buffer2[9]==0xff ) 
005F4:  MOVF   3B,W
005F6:  SUBLW  65
005F8:  BNZ   0610
005FA:  INCFSZ 3C,W
005FC:  BRA    0610
005FE:  INCFSZ 3D,W
00600:  BRA    0610
00602:  MOVF   43,F
00604:  BNZ   0610
00606:  INCFSZ 44,W
00608:  BRA    0610
....................          Dato_Exitoso=5; 
0060A:  MOVLW  05
0060C:  MOVWF  x4C
....................       else 
0060E:  BRA    0614
....................          Dato_Exitoso=10; 
00610:  MOVLW  0A
00612:  MOVWF  x4C
....................    } 
....................    if(Menu==20) 
00614:  MOVF   x4E,W
00616:  SUBLW  14
00618:  BNZ   061E
....................      Buzzer_on; 
0061A:  BSF    F8C.7
0061C:  BCF    F95.7
.................... } 
....................  
0061E:  BCF    F9E.5
00620:  MOVLB  0
00622:  GOTO   010A
.................... #int_TIMER0 
.................... void temp0s(void){ 
....................    set_timer0(0); 
00626:  CLRF   FD7
00628:  CLRF   FD6
....................    t_exhaust++; 
0062A:  MOVLB  3
0062C:  INCF   x82,F
0062E:  BTFSC  FD8.2
00630:  INCF   x83,F
....................    if(DesfogueSuave){ 
00632:  MOVLB  0
00634:  BTFSS  xA2.1
00636:  BRA    0670
....................          if(t_exhaust<=NivelSeleccionado){ // Si el tiempo es menor o igual al tiempo de control se enciende la resistencia de lo contrario se apaga. 
00638:  MOVLB  3
0063A:  MOVF   x83,W
0063C:  MOVLB  0
0063E:  SUBWF  xB7,W
00640:  BNC   0654
00642:  BNZ   064E
00644:  MOVLB  3
00646:  MOVF   x82,W
00648:  MOVLB  0
0064A:  SUBWF  xB6,W
0064C:  BNC   0654
....................             Desfogue_on; 
0064E:  BCF    F8B.1
00650:  BCF    F94.1
....................          }else{             
00652:  BRA    0658
....................             Desfogue_off; 
00654:  BSF    F8B.1
00656:  BCF    F94.1
....................          }    
....................        
....................          if(t_exhaust>=60000){ // Si el tiempo de control es mayor al tiempo de ciclo se reinicia tiempo de control 
00658:  MOVLB  3
0065A:  MOVF   x83,W
0065C:  SUBLW  E9
0065E:  BC    066E
00660:  XORLW  FF
00662:  BNZ   066A
00664:  MOVF   x82,W
00666:  SUBLW  5F
00668:  BC    066E
....................             t_exhaust=0; 
0066A:  CLRF   x83
0066C:  CLRF   x82
0066E:  MOVLB  0
....................          } // tiempoctrl incrementa una unidad cada Xms, por eso se dividen los tiempos por 0.005. 
....................    }   
.................... } 
....................  
00670:  BCF    FF2.2
00672:  GOTO   0074
.................... #int_TIMER1 
.................... void temp1s(void){ 
....................    set_timer1(40536); // Se repite cada 5ms 
00676:  MOVLW  9E
00678:  MOVWF  FCF
0067A:  MOVLW  58
0067C:  MOVWF  FCE
....................    tiempos++; 
0067E:  MOVLB  3
00680:  INCF   x5B,F
00682:  BTFSC  FD8.2
00684:  INCF   x5C,F
....................    tiempos2++; 
00686:  INCF   x5D,F
00688:  BTFSC  FD8.2
0068A:  INCF   x5E,F
....................    tiempos3++; 
0068C:  INCF   x5F,F
0068E:  BTFSC  FD8.2
00690:  INCF   x60,F
....................    tiempoctrl++; 
00692:  INCF   x61,F
00694:  BTFSC  FD8.2
00696:  INCF   x62,F
....................     
....................    if(flagAlarma) 
00698:  MOVLB  0
0069A:  BTFSS  xA3.6
0069C:  BRA    06A8
....................       tbuzzer++; 
0069E:  MOVLB  3
006A0:  INCF   x7E,F
006A2:  BTFSC  FD8.2
006A4:  INCF   x7F,F
006A6:  MOVLB  0
....................        
....................    if(flagSilencio)    
006A8:  BTFSS  xA4.0
006AA:  BRA    06B4
....................       tsilencio++; 
006AC:  MOVLB  3
006AE:  INCF   x80,F
006B0:  BTFSC  FD8.2
006B2:  INCF   x81,F
....................     
....................    if(Controlando==1){ 
006B4:  MOVLB  3
006B6:  DECFSZ x47,W
006B8:  BRA    06F6
....................       if(tiempoctrl<Tp) // Si el tiempo es menor o igual al tiempo de control se enciende la resistencia de lo contrario se apaga. 
006BA:  MOVF   x62,W
006BC:  MOVLB  0
006BE:  SUBWF  xAF,W
006C0:  BNC   06DA
006C2:  BNZ   06D4
006C4:  MOVF   xAE,W
006C6:  MOVLB  3
006C8:  SUBWF  x61,W
006CA:  BTFSS  FD8.0
006CC:  BRA    06D2
006CE:  MOVLB  0
006D0:  BRA    06DA
006D2:  MOVLB  0
....................          SSR_on; 
006D4:  BSF    F8D.1
006D6:  BCF    F96.1
....................       else          
006D8:  BRA    06DE
....................          SSR_off; 
006DA:  BCF    F8D.1
006DC:  BCF    F96.1
....................              
....................       if(tiempoctrl>=Tc) // Si el tiempo de control es mayor al tiempo de ciclo se reinicia tiempo de control 
006DE:  MOVF   xB1,W
006E0:  MOVLB  3
006E2:  SUBWF  x62,W
006E4:  BNC   06F6
006E6:  BNZ   06F2
006E8:  MOVLB  0
006EA:  MOVF   xB0,W
006EC:  MOVLB  3
006EE:  SUBWF  x61,W
006F0:  BNC   06F6
....................          tiempoctrl=0;// tiempoctrl incrementa una unidad cada 5ms, por eso se dividen los tiempos por 0.005. 
006F2:  CLRF   x62
006F4:  CLRF   x61
....................    } 
....................     
....................    if(tiempos>=200){  // 12000 para que incremente cada minuto, 200para que incremente cada segundo. 
006F6:  MOVF   x5C,F
006F8:  BNZ   0702
006FA:  MOVF   x5B,W
006FC:  SUBLW  C7
006FE:  BTFSC  FD8.0
00700:  BRA    080E
....................       if(flagTC) 
00702:  BTFSS  x44.0
00704:  BRA    0708
....................          TiempoControl++; 
00706:  INCF   x79,F
....................        
....................       tiemporecta++; 
00708:  INCF   x46,F
....................        
....................       if(flagBloqueo) 
0070A:  MOVLB  0
0070C:  BTFSS  xA1.0
0070E:  BRA    0716
....................          tBloqueo++; 
00710:  INCF   xBA,F
00712:  BTFSC  FD8.2
00714:  INCF   xBB,F
....................        
....................       if(flagDesbloqueo) 
00716:  BTFSS  xA1.1
00718:  BRA    0720
....................          tDesbloqueo++; 
0071A:  INCF   xBC,F
0071C:  BTFSC  FD8.2
0071E:  INCF   xBD,F
....................           
....................       if(flagApertura) 
00720:  BTFSS  xA0.6
00722:  BRA    072A
....................          tiempoApertura++; 
00724:  INCF   xB8,F
00726:  BTFSC  FD8.2
00728:  INCF   xB9,F
....................        
....................       if(guardaCiclo) 
0072A:  BTFSS  xA4.7
0072C:  BRA    0738
....................          tguarda++; 
0072E:  MOVLB  3
00730:  INCF   x40,F
00732:  BTFSC  FD8.2
00734:  INCF   x41,F
00736:  MOVLB  0
....................           
....................       if(flagAbreSecado) 
00738:  BTFSS  xA0.4
0073A:  BRA    0742
....................          tAbreSecado++; 
0073C:  MOVLB  3
0073E:  INCF   x3D,F
00740:  MOVLB  0
....................        
....................       if(flagBombaAgua) 
00742:  BTFSS  xA6.4
00744:  BRA    074C
....................          tBombaAgua++; 
00746:  INCF   xB2,F
00748:  BTFSC  FD8.2
0074A:  INCF   xB3,F
....................        
....................       if(flagBombaAguaOff) 
0074C:  BTFSS  xA6.5
0074E:  BRA    0756
....................          tBombaAguaOff++; 
00750:  INCF   xB4,F
00752:  BTFSC  FD8.2
00754:  INCF   xB5,F
....................        
....................       if(IniciaCiclo && tiempoImpresion<CalculoImpresion){ 
00756:  BTFSS  xA1.4
00758:  BRA    076C
0075A:  MOVLB  3
0075C:  MOVF   x4A,W
0075E:  SUBWF  x5A,W
00760:  BTFSS  FD8.0
00762:  BRA    0768
00764:  MOVLB  0
00766:  BRA    076C
....................          tiempoImpresion++; 
00768:  INCF   x5A,F
....................       }else if(tiempoImpresion>=CalculoImpresion){ 
0076A:  BRA    0778
0076C:  MOVLB  3
0076E:  MOVF   x4A,W
00770:  SUBWF  x5A,W
00772:  BNC   0778
....................          flagImprime=1; 
00774:  BSF    x44.1
....................          tiempoImpresion=0; 
00776:  CLRF   x5A
....................       } 
....................        
....................       if(IniciaCiclo && !Esterilizando) 
00778:  MOVLB  0
0077A:  BTFSS  xA1.4
0077C:  BRA    0788
0077E:  BTFSC  xA1.5
00780:  BRA    0788
....................          TiempoCiclo++; 
00782:  INCF   xA8,F
00784:  BTFSC  FD8.2
00786:  INCF   xA9,F
....................        
....................       if(IniciaLlenado && !CalderinLleno) 
00788:  BTFSS  xA1.2
0078A:  BRA    0796
0078C:  BTFSC  xA1.3
0078E:  BRA    0796
....................          TiempoLlenado++; 
00790:  INCF   xAA,F
00792:  BTFSC  FD8.2
00794:  INCF   xAB,F
....................        
....................       if(SensadoNivel) 
00796:  BTFSS  xA1.7
00798:  BRA    07A0
....................          TiempoSensadoNivel++; 
0079A:  INCF   xAC,F
0079C:  BTFSC  FD8.2
0079E:  INCF   xAD,F
....................        
....................       if(SensadoNivelL) 
007A0:  BTFSS  xA6.2
007A2:  BRA    07AE
....................          tNivelBajo++; 
007A4:  MOVLB  3
007A6:  INCF   x42,F
007A8:  BTFSC  FD8.2
007AA:  INCF   x43,F
007AC:  MOVLB  0
....................           
....................       if(IniciaVacio) 
007AE:  BTFSS  xA5.1
007B0:  BRA    07BC
....................          tvacio++;          
007B2:  MOVLB  3
007B4:  INCF   x6F,F
007B6:  BTFSC  FD8.2
007B8:  INCF   x70,F
007BA:  MOVLB  0
....................        
....................       if(IniciaVacio2) 
007BC:  BTFSS  xA5.2
007BE:  BRA    07C8
....................          tbomba++;    
007C0:  MOVLB  3
007C2:  INCF   x6D,F
007C4:  BTFSC  FD8.2
007C6:  INCF   x6E,F
....................           
....................       tiempos=0;Lectura=1;tinicio++; 
007C8:  MOVLB  3
007CA:  CLRF   x5C
007CC:  CLRF   x5B
007CE:  MOVLB  0
007D0:  BSF    xA7.5
007D2:  MOVLB  3
007D4:  INCF   x65,F
007D6:  BTFSC  FD8.2
007D8:  INCF   x66,F
....................     
....................       if(Esterilizando && !Desfogando){                
007DA:  MOVLB  0
007DC:  BTFSS  xA1.5
007DE:  BRA    07F6
007E0:  BTFSC  xA2.0
007E2:  BRA    07F6
....................          if(sEst>0){ 
007E4:  MOVF   xBE,F
007E6:  BZ    07EC
....................             sEst--; 
007E8:  DECF   xBE,F
....................          }else if(mEst>0){ 
007EA:  BRA    07F6
007EC:  MOVF   xBF,F
007EE:  BZ    07F6
....................             mEst--; 
007F0:  DECF   xBF,F
....................             sEst=59; 
007F2:  MOVLW  3B
007F4:  MOVWF  xBE
....................          } 
....................       } 
....................       if(Secando){ 
007F6:  BTFSS  xA1.6
007F8:  BRA    080C
....................          if(sSec>0){ 
007FA:  MOVF   xC0,F
007FC:  BZ    0802
....................             sSec--; 
007FE:  DECF   xC0,F
....................          }else if(mSec>0){ 
00800:  BRA    080C
00802:  MOVF   xC1,F
00804:  BZ    080C
....................             mSec--; 
00806:  DECF   xC1,F
....................             sSec=59; 
00808:  MOVLW  3B
0080A:  MOVWF  xC0
0080C:  MOVLB  3
....................          } 
....................       } 
....................    } 
.................... } 
....................  
0080E:  BCF    F9E.0
00810:  MOVLB  0
00812:  GOTO   0074
.................... void main(){ 
*
07A50:  CLRF   FF8
07A52:  BCF    FF1.2
07A54:  BCF    F9F.0
07A56:  BSF    F9F.5
07A58:  BSF    FD0.7
07A5A:  BSF    07.7
07A5C:  CLRF   FEA
07A5E:  CLRF   FE9
07A60:  BSF    FB8.3
07A62:  MOVLW  08
07A64:  MOVWF  FAF
07A66:  MOVLW  02
07A68:  MOVWF  FB0
07A6A:  MOVLW  A6
07A6C:  MOVWF  FAC
07A6E:  MOVLW  90
07A70:  MOVWF  FAB
07A72:  CLRF   46
07A74:  CLRF   47
07A76:  CLRF   48
07A78:  CLRF   x62
07A7A:  CLRF   x63
07A7C:  CLRF   x84
07A7E:  CLRF   x85
07A80:  CLRF   x86
07A82:  BCF    x9F.0
07A84:  BCF    x9F.1
07A86:  BCF    x9F.2
07A88:  BCF    x9F.3
07A8A:  BCF    x9F.4
07A8C:  BCF    x9F.5
07A8E:  BCF    x9F.6
07A90:  BCF    x9F.7
07A92:  BCF    xA0.0
07A94:  BCF    xA0.1
07A96:  BCF    xA0.2
07A98:  BCF    xA0.3
07A9A:  BCF    xA0.4
07A9C:  BCF    xA0.5
07A9E:  BCF    xA0.6
07AA0:  BCF    xA0.7
07AA2:  BCF    xA1.0
07AA4:  BCF    xA1.1
07AA6:  BCF    xA1.2
07AA8:  BCF    xA1.3
07AAA:  BCF    xA1.4
07AAC:  BCF    xA1.5
07AAE:  BCF    xA1.6
07AB0:  BCF    xA1.7
07AB2:  BCF    xA2.0
07AB4:  BCF    xA2.1
07AB6:  BCF    xA2.2
07AB8:  BCF    xA2.3
07ABA:  BCF    xA2.4
07ABC:  BCF    xA2.5
07ABE:  BCF    xA2.6
07AC0:  BCF    xA2.7
07AC2:  BCF    xA3.0
07AC4:  BCF    xA3.1
07AC6:  BCF    xA3.2
07AC8:  BCF    xA3.3
07ACA:  BCF    xA3.4
07ACC:  BCF    xA3.5
07ACE:  BCF    xA3.6
07AD0:  BCF    xA3.7
07AD2:  BCF    xA4.0
07AD4:  BCF    xA4.1
07AD6:  BCF    xA4.2
07AD8:  BCF    xA4.3
07ADA:  BCF    xA4.4
07ADC:  BCF    xA4.5
07ADE:  BCF    xA4.6
07AE0:  BCF    xA4.7
07AE2:  BCF    xA5.0
07AE4:  BCF    xA5.1
07AE6:  BCF    xA5.2
07AE8:  BCF    xA5.3
07AEA:  BCF    xA5.4
07AEC:  BCF    xA5.5
07AEE:  BCF    xA5.6
07AF0:  BCF    xA5.7
07AF2:  BCF    xA6.0
07AF4:  BCF    xA6.1
07AF6:  BCF    xA6.2
07AF8:  BCF    xA6.3
07AFA:  BCF    xA6.4
07AFC:  BCF    xA6.5
07AFE:  BCF    xA6.6
07B00:  BCF    xA6.7
07B02:  BCF    xA7.0
07B04:  BCF    xA7.1
07B06:  BCF    xA7.2
07B08:  BCF    xA7.3
07B0A:  CLRF   xA9
07B0C:  CLRF   xA8
07B0E:  CLRF   xAB
07B10:  CLRF   xAA
07B12:  CLRF   xAD
07B14:  CLRF   xAC
07B16:  CLRF   xAF
07B18:  CLRF   xAE
07B1A:  CLRF   xB1
07B1C:  CLRF   xB0
07B1E:  CLRF   xB3
07B20:  CLRF   xB2
07B22:  CLRF   xB5
07B24:  CLRF   xB4
07B26:  CLRF   xB7
07B28:  CLRF   xB6
07B2A:  CLRF   xB9
07B2C:  CLRF   xB8
07B2E:  CLRF   xBB
07B30:  CLRF   xBA
07B32:  CLRF   xBD
07B34:  CLRF   xBC
07B36:  CLRF   xBE
07B38:  CLRF   xBF
07B3A:  CLRF   xC0
07B3C:  CLRF   xC1
07B3E:  CLRF   xC2
07B40:  CLRF   xC3
07B42:  CLRF   xC4
07B44:  CLRF   xC5
07B46:  CLRF   xC6
07B48:  MOVLW  01
07B4A:  MOVWF  xC7
07B4C:  CLRF   xC8
07B4E:  MOVWF  xC9
07B50:  CLRF   xCA
07B52:  CLRF   xCB
07B54:  CLRF   xCC
07B56:  CLRF   xCD
07B58:  CLRF   xCE
07B5A:  MOVLW  9A
07B5C:  MOVLB  2
07B5E:  MOVWF  xB2
07B60:  MOVLW  99
07B62:  MOVWF  xB1
07B64:  MOVLW  0D
07B66:  MOVWF  xB0
07B68:  MOVLW  86
07B6A:  MOVWF  xAF
07B6C:  CLRF   xB6
07B6E:  CLRF   xB5
07B70:  CLRF   xB4
07B72:  MOVLW  7E
07B74:  MOVWF  xB3
07B76:  CLRF   xBA
07B78:  MOVLW  80
07B7A:  MOVWF  xB9
07B7C:  MOVLW  54
07B7E:  MOVWF  xB8
07B80:  MOVLW  8B
07B82:  MOVWF  xB7
07B84:  CLRF   xC6
07B86:  CLRF   xC5
07B88:  CLRF   xC4
07B8A:  CLRF   xC3
07B8C:  CLRF   xCA
07B8E:  CLRF   xC9
07B90:  CLRF   xC8
07B92:  CLRF   xC7
07B94:  CLRF   xCE
07B96:  CLRF   xCD
07B98:  CLRF   xCC
07B9A:  CLRF   xCB
07B9C:  CLRF   xCF
07B9E:  CLRF   xD0
07BA0:  CLRF   xD1
07BA2:  CLRF   xD2
07BA4:  MOVLW  14
07BA6:  MOVWF  xD3
07BA8:  CLRF   xD4
07BAA:  CLRF   xD5
07BAC:  CLRF   xD6
07BAE:  CLRF   xD7
07BB0:  CLRF   xDB
07BB2:  CLRF   xDA
07BB4:  CLRF   xD9
07BB6:  CLRF   xD8
07BB8:  CLRF   xE3
07BBA:  CLRF   xE2
07BBC:  MOVLW  20
07BBE:  MOVWF  xE1
07BC0:  MOVLW  82
07BC2:  MOVWF  xE0
07BC4:  CLRF   xE7
07BC6:  CLRF   xE6
07BC8:  CLRF   xE5
07BCA:  CLRF   xE4
07BCC:  CLRF   xEB
07BCE:  CLRF   xEA
07BD0:  CLRF   xE9
07BD2:  CLRF   xE8
07BD4:  CLRF   xEF
07BD6:  CLRF   xEE
07BD8:  CLRF   xED
07BDA:  CLRF   xEC
07BDC:  CLRF   xF3
07BDE:  CLRF   xF2
07BE0:  CLRF   xF1
07BE2:  CLRF   xF0
07BE4:  CLRF   xF7
07BE6:  CLRF   xF6
07BE8:  CLRF   xF5
07BEA:  CLRF   xF4
07BEC:  CLRF   xFB
07BEE:  CLRF   xFA
07BF0:  MOVLW  48
07BF2:  MOVWF  xF9
07BF4:  MOVLW  83
07BF6:  MOVWF  xF8
07BF8:  CLRF   xFF
07BFA:  CLRF   xFE
07BFC:  MOVLW  20
07BFE:  MOVWF  xFD
07C00:  MOVLW  83
07C02:  MOVWF  xFC
07C04:  MOVLB  3
07C06:  CLRF   x03
07C08:  CLRF   x02
07C0A:  CLRF   x01
07C0C:  MOVLW  7F
07C0E:  MOVWF  x00
07C10:  CLRF   x07
07C12:  CLRF   x06
07C14:  CLRF   x05
07C16:  CLRF   x04
07C18:  CLRF   x0B
07C1A:  CLRF   x0A
07C1C:  CLRF   x09
07C1E:  CLRF   x08
07C20:  CLRF   x0F
07C22:  CLRF   x0E
07C24:  CLRF   x0D
07C26:  CLRF   x0C
07C28:  CLRF   x13
07C2A:  CLRF   x12
07C2C:  CLRF   x11
07C2E:  CLRF   x10
07C30:  CLRF   x17
07C32:  CLRF   x16
07C34:  CLRF   x15
07C36:  CLRF   x14
07C38:  CLRF   x1B
07C3A:  CLRF   x1A
07C3C:  CLRF   x19
07C3E:  CLRF   x18
07C40:  CLRF   x1F
07C42:  CLRF   x1E
07C44:  CLRF   x1D
07C46:  CLRF   x1C
07C48:  MOVLW  4A
07C4A:  MOVWF  x23
07C4C:  MOVLW  88
07C4E:  MOVWF  x22
07C50:  MOVLW  28
07C52:  MOVWF  x21
07C54:  MOVLW  75
07C56:  MOVWF  x20
07C58:  MOVLW  E0
07C5A:  MOVWF  x27
07C5C:  MOVLW  2D
07C5E:  MOVWF  x26
07C60:  MOVLW  10
07C62:  MOVWF  x25
07C64:  MOVLW  75
07C66:  MOVWF  x24
07C68:  MOVLW  FF
07C6A:  MOVWF  x2B
07C6C:  MOVLW  21
07C6E:  MOVWF  x2A
07C70:  MOVLW  15
07C72:  MOVWF  x29
07C74:  MOVLW  80
07C76:  MOVWF  x28
07C78:  MOVLW  82
07C7A:  MOVWF  x2F
07C7C:  MOVLW  12
07C7E:  MOVWF  x2E
07C80:  MOVLW  F4
07C82:  MOVWF  x2D
07C84:  MOVLW  86
07C86:  MOVWF  x2C
07C88:  CLRF   x30
07C8A:  CLRF   x31
07C8C:  CLRF   x32
07C8E:  CLRF   x33
07C90:  CLRF   x34
07C92:  MOVLW  04
07C94:  MOVWF  x35
07C96:  MOVLW  19
07C98:  MOVWF  x36
07C9A:  CLRF   x37
07C9C:  CLRF   x38
07C9E:  CLRF   x39
07CA0:  CLRF   x3A
07CA2:  CLRF   x3B
07CA4:  CLRF   x3C
07CA6:  CLRF   x3D
07CA8:  CLRF   x3F
07CAA:  CLRF   x3E
07CAC:  CLRF   x41
07CAE:  CLRF   x40
07CB0:  CLRF   x43
07CB2:  CLRF   x42
07CB4:  MOVLB  0
07CB6:  BCF    xA7.4
07CB8:  BCF    xA7.5
07CBA:  BCF    xA7.6
07CBC:  BCF    xA7.7
07CBE:  MOVLB  3
07CC0:  BCF    x44.0
07CC2:  BCF    x44.1
07CC4:  BCF    x44.2
07CC6:  CLRF   x45
07CC8:  CLRF   x46
07CCA:  CLRF   x47
07CCC:  MOVLW  01
07CCE:  MOVWF  x48
07CD0:  MOVLW  02
07CD2:  MOVWF  x49
07CD4:  CLRF   x4A
07CD6:  MOVLW  01
07CD8:  MOVWF  x4B
07CDA:  CLRF   x4C
07CDC:  CLRF   x4D
07CDE:  CLRF   x4E
07CE0:  CLRF   x4F
07CE2:  MOVLW  F0
07CE4:  MOVWF  x50
07CE6:  CLRF   x51
07CE8:  CLRF   x52
07CEA:  CLRF   x53
07CEC:  CLRF   x54
07CEE:  CLRF   x55
07CF0:  MOVLW  01
07CF2:  MOVWF  x56
07CF4:  MOVWF  x57
07CF6:  CLRF   x58
07CF8:  CLRF   x59
07CFA:  CLRF   x5A
07CFC:  CLRF   x5C
07CFE:  CLRF   x5B
07D00:  CLRF   x5E
07D02:  CLRF   x5D
07D04:  CLRF   x60
07D06:  CLRF   x5F
07D08:  CLRF   x62
07D0A:  CLRF   x61
07D0C:  CLRF   x64
07D0E:  CLRF   x63
07D10:  CLRF   x66
07D12:  CLRF   x65
07D14:  CLRF   x68
07D16:  CLRF   x67
07D18:  CLRF   x6A
07D1A:  CLRF   x69
07D1C:  CLRF   x6C
07D1E:  CLRF   x6B
07D20:  CLRF   x6E
07D22:  CLRF   x6D
07D24:  CLRF   x70
07D26:  CLRF   x6F
07D28:  CLRF   x75
07D2A:  CLRF   x76
07D2C:  CLRF   x77
07D2E:  CLRF   x78
07D30:  CLRF   x79
07D32:  CLRF   x7A
07D34:  CLRF   x7B
07D36:  CLRF   x7C
07D38:  CLRF   x7D
07D3A:  CLRF   x7F
07D3C:  CLRF   x7E
07D3E:  CLRF   x81
07D40:  CLRF   x80
07D42:  CLRF   x83
07D44:  CLRF   x82
07D46:  MOVLW  12
07D48:  MOVWF  x84
07D4A:  MOVLW  09
07D4C:  MOVWF  x85
07D4E:  MOVLW  0D
07D50:  MOVWF  x86
07D52:  CLRF   x87
07D54:  CLRF   x88
07D56:  CLRF   x89
07D58:  CLRF   x8A
07D5A:  CLRF   x8B
07D5C:  CLRF   x8C
07D5E:  CLRF   x8D
07D60:  CLRF   x8E
07D62:  CLRF   x8F
07D64:  CLRF   x90
07D66:  CLRF   x91
07D68:  CLRF   x92
07D6A:  CLRF   x93
07D6C:  CLRF   x94
07D6E:  CLRF   x95
07D70:  CLRF   x96
07D72:  CLRF   xF8
07D74:  CLRF   xF9
07D76:  CLRF   xFA
07D78:  CLRF   xFB
07D7A:  CLRF   xFC
07D7C:  MOVF   FC1,W
07D7E:  ANDLW  C0
07D80:  IORLW  0F
07D82:  MOVWF  FC1
07D84:  MOVLW  07
07D86:  MOVWF  FB4
07D88:  CLRF   2A
07D8A:  CLRF   2B
07D8C:  MOVLB  0
07D8E:  CLRF   x87
07D90:  MOVLW  03
07D92:  MOVWF  x88
07D94:  MOVWF  x89
07D96:  MOVLW  06
07D98:  MOVWF  x8A
07D9A:  MOVLW  01
07D9C:  MOVWF  x8B
07D9E:  MOVLW  04
07DA0:  MOVWF  x8C
07DA2:  MOVLW  06
07DA4:  MOVWF  x8D
07DA6:  MOVLW  02
07DA8:  MOVWF  x8E
07DAA:  MOVLW  05
07DAC:  MOVWF  x8F
07DAE:  CLRF   x90
07DB0:  MOVLW  03
07DB2:  MOVWF  x91
07DB4:  MOVLW  05
07DB6:  MOVWF  x92
07DB8:  CLRF   x93
07DBA:  MOVLW  03
07DBC:  MOVWF  x94
07DBE:  MOVLW  04
07DC0:  MOVWF  x95
07DC2:  CLRF   x96
07DC4:  MOVLW  02
07DC6:  MOVWF  x97
07DC8:  MOVLW  05
07DCA:  MOVWF  x98
07DCC:  CLRF   x99
07DCE:  MOVLW  03
07DD0:  MOVWF  x9A
07DD2:  MOVLW  06
07DD4:  MOVWF  x9B
07DD6:  MOVLW  01
07DD8:  MOVWF  x9C
07DDA:  MOVLW  04
07DDC:  MOVWF  x9D
07DDE:  MOVLW  06
07DE0:  MOVWF  x9E
07DE2:  CLRF   xCF
07DE4:  CLRF   xD0
07DE6:  CLRF   xD1
07DE8:  CLRF   xD2
07DEA:  CLRF   xD3
07DEC:  CLRF   xD4
07DEE:  CLRF   xD5
07DF0:  CLRF   xD6
07DF2:  CLRF   xD7
07DF4:  CLRF   xD8
07DF6:  CLRF   xD9
07DF8:  CLRF   xDA
07DFA:  CLRF   xDB
07DFC:  CLRF   xDC
07DFE:  CLRF   xDD
07E00:  CLRF   xDE
07E02:  CLRF   xDF
07E04:  CLRF   xE0
07E06:  CLRF   xE1
07E08:  CLRF   xE2
07E0A:  CLRF   xE3
07E0C:  CLRF   xE4
07E0E:  CLRF   xE5
07E10:  CLRF   xE6
07E12:  CLRF   xE7
07E14:  CLRF   xE8
07E16:  CLRF   xE9
07E18:  CLRF   xEA
07E1A:  CLRF   xEB
07E1C:  CLRF   xEC
07E1E:  CLRF   xED
07E20:  CLRF   xEE
07E22:  CLRF   xEF
07E24:  CLRF   xF0
07E26:  CLRF   xF1
07E28:  CLRF   xF2
07E2A:  CLRF   xF3
07E2C:  CLRF   xF4
07E2E:  CLRF   xF5
07E30:  CLRF   xF6
07E32:  CLRF   xF7
07E34:  CLRF   xF8
07E36:  CLRF   xF9
07E38:  CLRF   xFA
07E3A:  CLRF   xFB
07E3C:  CLRF   xFC
07E3E:  CLRF   xFD
07E40:  CLRF   xFE
07E42:  CLRF   xFF
07E44:  MOVLB  1
07E46:  CLRF   x00
07E48:  CLRF   x01
07E4A:  CLRF   x02
07E4C:  CLRF   x03
07E4E:  CLRF   x04
07E50:  CLRF   x05
07E52:  CLRF   x06
07E54:  CLRF   x07
07E56:  CLRF   x08
07E58:  CLRF   x09
07E5A:  CLRF   x0A
07E5C:  CLRF   x0B
07E5E:  CLRF   x0C
07E60:  CLRF   x0D
07E62:  CLRF   x0E
07E64:  CLRF   x0F
07E66:  CLRF   x10
07E68:  CLRF   x11
07E6A:  CLRF   x12
07E6C:  CLRF   x13
07E6E:  CLRF   x14
07E70:  CLRF   x15
07E72:  CLRF   x16
07E74:  CLRF   x17
07E76:  CLRF   x18
07E78:  CLRF   x19
07E7A:  CLRF   x1A
07E7C:  CLRF   x1B
07E7E:  CLRF   x1C
07E80:  CLRF   x1D
07E82:  CLRF   x1E
07E84:  CLRF   x1F
07E86:  CLRF   x20
07E88:  CLRF   x21
07E8A:  CLRF   x22
07E8C:  CLRF   x23
07E8E:  CLRF   x24
07E90:  CLRF   x25
07E92:  CLRF   x26
07E94:  CLRF   x27
07E96:  CLRF   x28
07E98:  CLRF   x29
07E9A:  CLRF   x2A
07E9C:  CLRF   x2B
07E9E:  CLRF   x2C
07EA0:  CLRF   x2D
07EA2:  CLRF   x2E
07EA4:  CLRF   x2F
07EA6:  CLRF   x30
07EA8:  CLRF   x31
07EAA:  CLRF   x32
07EAC:  CLRF   x33
07EAE:  CLRF   x34
07EB0:  CLRF   x35
07EB2:  CLRF   x36
07EB4:  CLRF   x37
07EB6:  CLRF   x38
07EB8:  CLRF   x39
07EBA:  CLRF   x3A
07EBC:  CLRF   x3B
07EBE:  CLRF   x3C
07EC0:  CLRF   x3D
07EC2:  CLRF   x3E
07EC4:  CLRF   x3F
07EC6:  CLRF   x40
07EC8:  CLRF   x41
07ECA:  CLRF   x42
07ECC:  CLRF   x43
07ECE:  CLRF   x44
07ED0:  CLRF   x45
07ED2:  CLRF   x46
07ED4:  CLRF   x47
07ED6:  CLRF   x48
07ED8:  CLRF   x49
07EDA:  CLRF   x4A
07EDC:  CLRF   x4B
07EDE:  CLRF   x4C
07EE0:  CLRF   x4D
07EE2:  CLRF   x4E
07EE4:  CLRF   x4F
07EE6:  CLRF   x50
07EE8:  CLRF   x51
07EEA:  CLRF   x52
07EEC:  CLRF   x53
07EEE:  CLRF   x54
07EF0:  CLRF   x55
07EF2:  CLRF   x56
07EF4:  CLRF   x57
07EF6:  CLRF   x58
07EF8:  CLRF   x59
07EFA:  CLRF   x5A
07EFC:  CLRF   x5B
07EFE:  CLRF   x5C
07F00:  CLRF   x5D
07F02:  CLRF   x5E
07F04:  CLRF   x5F
07F06:  CLRF   x60
07F08:  CLRF   x61
07F0A:  CLRF   x62
07F0C:  CLRF   x63
07F0E:  CLRF   x64
07F10:  CLRF   x65
07F12:  CLRF   x66
07F14:  CLRF   x67
07F16:  CLRF   x68
07F18:  CLRF   x69
07F1A:  CLRF   x6A
07F1C:  CLRF   x6B
07F1E:  CLRF   x6C
07F20:  CLRF   x6D
07F22:  CLRF   x6E
07F24:  CLRF   x6F
07F26:  CLRF   x70
07F28:  CLRF   x71
07F2A:  CLRF   x72
07F2C:  CLRF   x73
07F2E:  CLRF   x74
07F30:  CLRF   x75
07F32:  CLRF   x76
07F34:  CLRF   x77
07F36:  CLRF   x78
07F38:  CLRF   x79
07F3A:  CLRF   x7A
07F3C:  CLRF   x7B
07F3E:  CLRF   x7C
07F40:  CLRF   x7D
07F42:  CLRF   x7E
07F44:  CLRF   x7F
07F46:  CLRF   x80
07F48:  CLRF   x81
07F4A:  CLRF   x82
07F4C:  CLRF   x83
07F4E:  CLRF   x84
07F50:  CLRF   x85
07F52:  CLRF   x86
07F54:  CLRF   x87
07F56:  CLRF   x88
07F58:  CLRF   x89
07F5A:  CLRF   x8A
07F5C:  CLRF   x8B
07F5E:  CLRF   x8C
07F60:  CLRF   x8D
07F62:  CLRF   x8E
07F64:  CLRF   x8F
07F66:  CLRF   x90
07F68:  CLRF   x91
07F6A:  CLRF   x92
07F6C:  CLRF   x93
07F6E:  CLRF   x94
07F70:  CLRF   x95
07F72:  CLRF   x96
07F74:  CLRF   x97
07F76:  CLRF   x98
07F78:  CLRF   x99
07F7A:  CLRF   x9A
07F7C:  CLRF   x9B
07F7E:  CLRF   x9C
07F80:  CLRF   x9D
07F82:  CLRF   x9E
07F84:  CLRF   x9F
07F86:  CLRF   xA0
07F88:  CLRF   xA1
07F8A:  CLRF   xA2
07F8C:  CLRF   xA3
07F8E:  CLRF   xA4
07F90:  CLRF   xA5
07F92:  CLRF   xA6
07F94:  CLRF   xA7
07F96:  CLRF   xA8
07F98:  CLRF   xA9
07F9A:  CLRF   xAA
07F9C:  CLRF   xAB
07F9E:  CLRF   xAC
07FA0:  CLRF   xAD
07FA2:  CLRF   xAE
07FA4:  CLRF   xAF
07FA6:  CLRF   xB0
07FA8:  CLRF   xB1
07FAA:  CLRF   xB2
07FAC:  CLRF   xB3
07FAE:  CLRF   xB4
07FB0:  CLRF   xB5
07FB2:  CLRF   xB6
07FB4:  CLRF   xB7
07FB6:  CLRF   xB8
07FB8:  CLRF   xB9
07FBA:  CLRF   xBA
07FBC:  CLRF   xBB
07FBE:  CLRF   xBC
07FC0:  CLRF   xBD
07FC2:  CLRF   xBE
07FC4:  CLRF   xBF
07FC6:  CLRF   xC0
07FC8:  CLRF   xC1
07FCA:  CLRF   xC2
07FCC:  CLRF   xC3
07FCE:  CLRF   xC4
07FD0:  CLRF   xC5
07FD2:  CLRF   xC6
07FD4:  CLRF   xC7
07FD6:  CLRF   xC8
07FD8:  CLRF   xC9
07FDA:  CLRF   xCA
07FDC:  CLRF   xCB
07FDE:  CLRF   xCC
07FE0:  CLRF   xCD
07FE2:  CLRF   xCE
07FE4:  CLRF   xCF
07FE6:  CLRF   xD0
07FE8:  CLRF   xD1
07FEA:  CLRF   xD2
07FEC:  CLRF   xD3
07FEE:  CLRF   xD4
07FF0:  CLRF   xD5
07FF2:  CLRF   xD6
07FF4:  CLRF   xD7
07FF6:  CLRF   xD8
07FF8:  CLRF   xD9
07FFA:  CLRF   xDA
07FFC:  CLRF   xDB
07FFE:  CLRF   xDC
08000:  CLRF   xDD
08002:  CLRF   xDE
08004:  CLRF   xDF
08006:  CLRF   xE0
08008:  CLRF   xE1
0800A:  CLRF   xE2
0800C:  CLRF   xE3
0800E:  CLRF   xE4
08010:  CLRF   xE5
08012:  CLRF   xE6
08014:  CLRF   xE7
08016:  CLRF   xE8
08018:  CLRF   xE9
0801A:  CLRF   xEA
0801C:  CLRF   xEB
0801E:  CLRF   xEC
08020:  CLRF   xED
08022:  CLRF   xEE
08024:  CLRF   xEF
08026:  CLRF   xF0
08028:  CLRF   xF1
0802A:  CLRF   xF2
0802C:  CLRF   xF3
0802E:  CLRF   xF4
08030:  CLRF   xF5
08032:  CLRF   xF6
08034:  CLRF   xF7
08036:  CLRF   xF8
08038:  CLRF   xF9
0803A:  CLRF   xFA
0803C:  CLRF   xFB
0803E:  CLRF   xFC
08040:  CLRF   xFD
08042:  CLRF   xFE
08044:  CLRF   xFF
08046:  MOVLB  2
08048:  CLRF   x00
0804A:  CLRF   x01
0804C:  CLRF   x02
0804E:  CLRF   x03
08050:  CLRF   x04
08052:  CLRF   x05
08054:  CLRF   x06
08056:  CLRF   x07
08058:  CLRF   x08
0805A:  CLRF   x09
0805C:  CLRF   x0A
0805E:  CLRF   x0B
08060:  CLRF   x0C
08062:  CLRF   x0D
08064:  CLRF   x0E
08066:  CLRF   x0F
08068:  CLRF   x10
0806A:  CLRF   x11
0806C:  CLRF   x12
0806E:  CLRF   x13
08070:  CLRF   x14
08072:  CLRF   x15
08074:  CLRF   x16
08076:  CLRF   x17
08078:  CLRF   x18
0807A:  CLRF   x19
0807C:  CLRF   x1A
0807E:  CLRF   x1B
08080:  CLRF   x1C
08082:  CLRF   x1D
08084:  CLRF   x1E
08086:  CLRF   x1F
08088:  CLRF   x20
0808A:  CLRF   x21
0808C:  CLRF   x22
0808E:  CLRF   x23
08090:  CLRF   x24
08092:  CLRF   x25
08094:  CLRF   x26
08096:  CLRF   x27
08098:  CLRF   x28
0809A:  CLRF   x29
0809C:  CLRF   x2A
0809E:  CLRF   x2B
080A0:  CLRF   x2C
080A2:  CLRF   x2D
080A4:  CLRF   x2E
080A6:  CLRF   x2F
080A8:  CLRF   x30
080AA:  CLRF   x31
080AC:  CLRF   x32
080AE:  CLRF   x33
080B0:  CLRF   x34
080B2:  CLRF   x35
080B4:  CLRF   x36
080B6:  CLRF   x37
080B8:  CLRF   x38
080BA:  CLRF   x39
080BC:  CLRF   x3A
080BE:  CLRF   x3B
080C0:  CLRF   x3C
080C2:  CLRF   x3D
080C4:  CLRF   x3E
080C6:  CLRF   x3F
080C8:  CLRF   x40
080CA:  CLRF   x41
080CC:  CLRF   x42
080CE:  CLRF   x43
080D0:  CLRF   x44
080D2:  CLRF   x45
080D4:  CLRF   x46
080D6:  CLRF   x47
080D8:  CLRF   x48
080DA:  CLRF   x49
080DC:  CLRF   x4A
080DE:  CLRF   x4B
080E0:  CLRF   x4C
080E2:  CLRF   x4D
080E4:  CLRF   x4E
080E6:  CLRF   x4F
080E8:  CLRF   x50
080EA:  CLRF   x51
080EC:  CLRF   x52
080EE:  CLRF   x53
080F0:  CLRF   x54
080F2:  CLRF   x55
080F4:  CLRF   x56
080F6:  CLRF   x57
080F8:  CLRF   x58
080FA:  CLRF   x59
080FC:  CLRF   x5A
080FE:  CLRF   x5B
08100:  CLRF   x5C
08102:  CLRF   x5D
08104:  CLRF   x5E
08106:  CLRF   x5F
08108:  CLRF   x60
0810A:  CLRF   x61
0810C:  CLRF   x62
0810E:  CLRF   x63
08110:  CLRF   x64
08112:  CLRF   x65
08114:  CLRF   x66
08116:  CLRF   x67
08118:  CLRF   x68
0811A:  CLRF   x69
0811C:  CLRF   x6A
0811E:  CLRF   x6B
08120:  CLRF   x6C
08122:  CLRF   x6D
08124:  CLRF   x6E
08126:  CLRF   x6F
08128:  CLRF   x70
0812A:  CLRF   x71
0812C:  CLRF   x72
0812E:  CLRF   x73
08130:  CLRF   x74
08132:  CLRF   x75
08134:  CLRF   x76
08136:  CLRF   x77
08138:  CLRF   x78
0813A:  CLRF   x79
0813C:  CLRF   x7A
0813E:  CLRF   x7B
08140:  CLRF   x7C
08142:  CLRF   x7D
08144:  CLRF   x7E
08146:  CLRF   x7F
08148:  CLRF   x80
0814A:  CLRF   x81
0814C:  CLRF   x82
0814E:  CLRF   x83
08150:  CLRF   x84
08152:  CLRF   x85
08154:  CLRF   x86
08156:  CLRF   x87
08158:  CLRF   x88
0815A:  CLRF   x89
0815C:  CLRF   x8A
0815E:  CLRF   x8B
08160:  CLRF   x8C
08162:  CLRF   x8D
08164:  CLRF   x8E
08166:  CLRF   x8F
08168:  CLRF   x90
0816A:  CLRF   x91
0816C:  CLRF   x92
0816E:  CLRF   x93
08170:  CLRF   x94
08172:  CLRF   x95
08174:  CLRF   x96
08176:  CLRF   x97
08178:  CLRF   x98
0817A:  CLRF   x99
0817C:  CLRF   x9A
0817E:  CLRF   x9B
08180:  CLRF   x9C
08182:  CLRF   x9D
08184:  CLRF   x9E
08186:  CLRF   x9F
08188:  CLRF   xA0
0818A:  CLRF   xA1
0818C:  CLRF   xA2
0818E:  CLRF   xA3
08190:  CLRF   xA4
08192:  CLRF   xA5
08194:  CLRF   xA6
08196:  CLRF   xA7
08198:  CLRF   xA8
0819A:  CLRF   xA9
0819C:  CLRF   xAA
0819E:  CLRF   xAB
081A0:  CLRF   xAC
081A2:  CLRF   xAD
081A4:  CLRF   xAE
081A6:  CLRF   xBB
081A8:  CLRF   xBC
081AA:  CLRF   xBD
081AC:  CLRF   xBE
081AE:  CLRF   xBF
081B0:  CLRF   xC0
081B2:  CLRF   xC1
081B4:  CLRF   xC2
081B6:  MOVLB  3
081B8:  CLRF   x71
081BA:  CLRF   x72
081BC:  CLRF   x73
081BE:  CLRF   x74
081C0:  CLRF   xFD
081C2:  CLRF   xFE
081C4:  CLRF   xFF
081C6:  MOVLB  4
081C8:  CLRF   x00
....................     
....................    for (posicion=0;posicion<0x10;posicion++){ 
081CA:  MOVLB  0
081CC:  CLRF   x86
081CE:  MOVF   x86,W
081D0:  SUBLW  0F
081D2:  BNC   81E8
....................       SlaveA0Tx[posicion] = 0x00; 
081D4:  CLRF   03
081D6:  MOVF   x86,W
081D8:  ADDLW  64
081DA:  MOVWF  FE9
081DC:  MOVLW  00
081DE:  ADDWFC 03,W
081E0:  MOVWF  FEA
081E2:  CLRF   FEF
....................    } 
081E4:  INCF   x86,F
081E6:  BRA    81CE
....................    setup_timer_0(RTCC_8_BIT|RTCC_DIV_1); 
081E8:  MOVLW  C8
081EA:  MOVWF  FD5
....................    enable_interrupts(INT_TIMER0); 
081EC:  BSF    FF2.5
....................    setup_timer_1(T1_INTERNAL|T1_DIV_BY_1); 
081EE:  MOVLW  85
081F0:  MOVWF  FCD
....................    enable_interrupts(INT_TIMER1); 
081F2:  BSF    F9D.0
....................    setup_adc_ports(AN0_TO_AN5); 
081F4:  MOVF   FC1,W
081F6:  ANDLW  C0
081F8:  IORLW  09
081FA:  MOVWF  FC1
....................    setup_adc(ADC_CLOCK_DIV_64); 
081FC:  MOVF   FC0,W
081FE:  ANDLW  C0
08200:  IORLW  06
08202:  MOVWF  FC0
08204:  BSF    FC0.7
08206:  BSF    FC2.0
....................    port_b_pullups(true); 
08208:  BCF    FF1.7
....................    enable_interrupts(int_rda); 
0820A:  BSF    F9D.5
....................    setup_wdt(WDT_ON); 
0820C:  BSF    FD1.0
....................    enable_interrupts(global); 
0820E:  MOVLW  C0
08210:  IORWF  FF2,F
....................    LeeEEPROM(); 
08212:  GOTO   2676
....................    rtc_init(); 
08216:  GOTO   3882
....................    delay_ms(1); 
0821A:  MOVLW  01
0821C:  MOVLB  7
0821E:  MOVWF  xC9
08220:  MOVLB  0
08222:  CALL   1FA0
....................    LimitaValores(); 
08226:  GOTO   3922
....................    CalculoImpresion=timpresion*60; 
0822A:  MOVLB  3
0822C:  MOVF   x49,W
0822E:  MULLW  3C
08230:  MOVFF  FF3,34A
....................    ActivaImpresion=1; 
08234:  MOVLW  01
08236:  MOVWF  x48
....................    printf("page Bienvenida"); 
08238:  MOVLW  16
0823A:  MOVWF  FF6
0823C:  MOVLW  08
0823E:  MOVWF  FF7
08240:  MOVLW  00
08242:  MOVWF  FF8
08244:  MOVLB  0
08246:  CALL   3E66
....................    SendDataDisplay(); 
0824A:  CALL   3E98
....................    printf("bkcmd=0"); 
0824E:  MOVLW  26
08250:  MOVWF  FF6
08252:  MOVLW  08
08254:  MOVWF  FF7
08256:  MOVLW  00
08258:  MOVWF  FF8
0825A:  CALL   3E66
....................    SendDataDisplay(); 
0825E:  CALL   3E98
....................    delay_ms(10);  
08262:  MOVLW  0A
08264:  MOVLB  7
08266:  MOVWF  xC9
08268:  MOVLB  0
0826A:  CALL   1FA0
....................    printf("page Usuarios"); 
0826E:  MOVLW  2E
08270:  MOVWF  FF6
08272:  MOVLW  08
08274:  MOVWF  FF7
08276:  MOVLW  00
08278:  MOVWF  FF8
0827A:  CALL   3E66
....................    SendDataDisplay(); 
0827E:  CALL   3E98
....................    ApagaSalidas(); 
08282:  CALL   3ECE
....................    TiempoVacio=360;  
08286:  MOVLW  01
08288:  MOVLB  3
0828A:  MOVWF  x3F
0828C:  MOVLW  68
0828E:  MOVWF  x3E
....................    Sensor[0].Gain=105.56; 
08290:  MOVLW  B8
08292:  MOVLB  5
08294:  MOVWF  x64
08296:  MOVLW  1E
08298:  MOVWF  x63
0829A:  MOVLW  53
0829C:  MOVWF  x62
0829E:  MOVLW  85
082A0:  MOVWF  x61
....................    Sensor[1].Gain=105.56; 
082A2:  MOVLW  B8
082A4:  MOVLB  6
082A6:  MOVWF  xC8
082A8:  MOVLW  1E
082AA:  MOVWF  xC7
082AC:  MOVLW  53
082AE:  MOVWF  xC6
082B0:  MOVLW  85
082B2:  MOVWF  xC5
....................    Imprime=10; 
082B4:  MOVLW  0A
082B6:  MOVLB  3
082B8:  MOVWF  x92
....................     
....................    for(i=0;i<MediaMovil;i++){ 
082BA:  CLRF   x51
082BC:  MOVLB  2
082BE:  MOVF   xD3,W
082C0:  MOVLB  3
082C2:  SUBWF  x51,W
082C4:  BC    835A
....................       Temperatura=LeerPT100(0,MediaMovil); 
082C6:  MOVLB  7
082C8:  CLRF   xBB
082CA:  MOVFF  2D3,7BC
082CE:  MOVLB  0
082D0:  CALL   4040
082D4:  MOVFF  03,31B
082D8:  MOVFF  02,31A
082DC:  MOVFF  01,319
082E0:  MOVFF  00,318
....................       Temperatura2=LeerPT100(1,MediaMovil); 
082E4:  MOVLW  01
082E6:  MOVLB  7
082E8:  MOVWF  xBB
082EA:  MOVFF  2D3,7BC
082EE:  MOVLB  0
082F0:  CALL   4040
082F4:  MOVFF  03,31F
082F8:  MOVFF  02,31E
082FC:  MOVFF  01,31D
08300:  MOVFF  00,31C
....................       PresionCamara=Leer_Sensor_Presion_Camara(10); 
08304:  MOVLW  0A
08306:  MOVLB  7
08308:  MOVWF  xBB
0830A:  MOVLB  0
0830C:  CALL   4920
08310:  MOVFF  03,7CE
08314:  MOVFF  02,7CD
08318:  MOVFF  01,7CC
0831C:  MOVFF  00,7CB
08320:  CALL   4B1E
08324:  MOVFF  02,368
08328:  MOVFF  01,367
....................       PresionPreCamara=Leer_Sensor_Presion_PreCamara(10); 
0832C:  MOVLW  0A
0832E:  MOVLB  7
08330:  MOVWF  xBB
08332:  MOVLB  0
08334:  CALL   4B5A
08338:  MOVFF  03,7CE
0833C:  MOVFF  02,7CD
08340:  MOVFF  01,7CC
08344:  MOVFF  00,7CB
08348:  CALL   4B1E
0834C:  MOVFF  02,36A
08350:  MOVFF  01,369
....................    } 
08354:  MOVLB  3
08356:  INCF   x51,F
08358:  BRA    82BC
....................     
....................    if(UP && DOWN && RIGHT && LEFT)//Si oprime boton de Toma. 
0835A:  MOVLB  0
0835C:  BTFSS  xA0.0
0835E:  BRA    83DE
08360:  BTFSS  xA0.1
08362:  BRA    83DE
08364:  BTFSS  xA0.2
08366:  BRA    83DE
08368:  BTFSS  xA0.3
0836A:  BRA    83DE
....................    { 
....................       write_eeprom(37,0); 
0836C:  CLRF   FAA
0836E:  MOVLW  25
08370:  MOVWF  FA9
08372:  CLRF   FA8
08374:  BCF    FA6.6
08376:  BCF    FA6.7
08378:  BSF    FA6.2
0837A:  MOVF   FF2,W
0837C:  MOVWF  00
0837E:  BCF    FF2.6
08380:  BCF    FF2.7
08382:  MOVLB  F
08384:  MOVLW  55
08386:  MOVWF  FA7
08388:  MOVLW  AA
0838A:  MOVWF  FA7
0838C:  BSF    FA6.1
0838E:  BTFSC  FA6.1
08390:  BRA    838E
08392:  BCF    FA6.2
08394:  MOVF   00,W
08396:  IORWF  FF2,F
....................       delay_ms(20); 
08398:  MOVLW  14
0839A:  MOVLB  7
0839C:  MOVWF  xC9
0839E:  MOVLB  0
083A0:  CALL   1FA0
....................       write_eeprom(38,0); 
083A4:  CLRF   FAA
083A6:  MOVLW  26
083A8:  MOVWF  FA9
083AA:  CLRF   FA8
083AC:  BCF    FA6.6
083AE:  BCF    FA6.7
083B0:  BSF    FA6.2
083B2:  MOVF   FF2,W
083B4:  MOVWF  00
083B6:  BCF    FF2.6
083B8:  BCF    FF2.7
083BA:  MOVLB  F
083BC:  MOVLW  55
083BE:  MOVWF  FA7
083C0:  MOVLW  AA
083C2:  MOVWF  FA7
083C4:  BSF    FA6.1
083C6:  BTFSC  FA6.1
083C8:  BRA    83C6
083CA:  BCF    FA6.2
083CC:  MOVF   00,W
083CE:  IORWF  FF2,F
....................       delay_ms(20); 
083D0:  MOVLW  14
083D2:  MOVLB  7
083D4:  MOVWF  xC9
083D6:  MOVLB  0
083D8:  CALL   1FA0
....................       reset_cpu(); 
083DC:  RESET
....................    } 
....................    detienePuerta(); 
083DE:  CALL   4DB6
....................    detieneBloqueo(); 
083E2:  CALL   4DF8
....................     
....................    while(true){ 
....................       LeeDisplay(); 
083E6:  GOTO   4E42
....................       Envio_Esclavos(); 
083EA:  CALL   5178
....................       delay_ms(1); 
083EE:  MOVLW  01
083F0:  MOVLB  7
083F2:  MOVWF  xC9
083F4:  MOVLB  0
083F6:  CALL   1FA0
....................       //Lectura_Esclavos(); 
....................       restart_wdt(); 
083FA:  CLRWDT
....................       if(!Esterilizando || Desfogando){ 
083FC:  BTFSS  xA1.5
083FE:  BRA    8404
08400:  BTFSS  xA2.0
08402:  BRA    840E
....................          CalculoImpresion=180; 
08404:  MOVLW  B4
08406:  MOVLB  3
08408:  MOVWF  x4A
....................       }else{ 
0840A:  BRA    8414
0840C:  MOVLB  0
....................          CalculoImpresion=60; 
0840E:  MOVLW  3C
08410:  MOVLB  3
08412:  MOVWF  x4A
....................       } 
....................       graficaCurva(6000); 
08414:  MOVLW  17
08416:  MOVLB  7
08418:  MOVWF  xBA
0841A:  MOVLW  70
0841C:  MOVWF  xB9
0841E:  MOVLB  0
08420:  GOTO   51B8
....................       muestreo(20); 
08424:  MOVLB  7
08426:  CLRF   xBA
08428:  MOVLW  14
0842A:  MOVWF  xB9
0842C:  MOVLB  0
0842E:  GOTO   5210
....................       monitoreaAgua(); 
08432:  GOTO   5400
....................       monitoreaStop(); 
08436:  GOTO   5592
....................        
....................             
.................... //_-------------------------------------------------------------------------------------------------------------------------------------------------------- 
....................    if(Menu==240){ //Menu de Bienvenida. 
0843A:  MOVLB  3
0843C:  MOVF   x4E,W
0843E:  SUBLW  F0
08440:  BNZ   847A
....................       printf("bkcmd=0"); 
08442:  MOVLW  3C
08444:  MOVWF  FF6
08446:  MOVLW  08
08448:  MOVWF  FF7
0844A:  MOVLW  00
0844C:  MOVWF  FF8
0844E:  MOVLB  0
08450:  CALL   3E66
....................       SendDataDisplay(); 
08454:  CALL   3E98
....................       delay_ms(100); 
08458:  MOVLW  64
0845A:  MOVLB  7
0845C:  MOVWF  xC9
0845E:  MOVLB  0
08460:  CALL   1FA0
....................       printf("page Usuarios"); 
08464:  MOVLW  44
08466:  MOVWF  FF6
08468:  MOVLW  08
0846A:  MOVWF  FF7
0846C:  MOVLW  00
0846E:  MOVWF  FF8
08470:  CALL   3E66
....................       SendDataDisplay(); 
08474:  CALL   3E98
08478:  MOVLB  3
....................       //ApagaSalidas(); 
....................    } 
.................... //_-------------------------------------------------------------------------------------------------------------------------------------------------------- 
....................  
.................... //_-------------------------------------------------------------------------------------------------------------------------------------------------------- 
....................     if(Menu==0){ //Menu de Contrasea de acceso. 
0847A:  MOVF   x4E,F
0847C:  BTFSS  FD8.2
0847E:  BRA    8A78
....................       entro=OFF; 
08480:  MOVLB  0
08482:  BCF    xA5.7
....................       //ApagaSalidas(); 
....................       //printf("bkcmd=0"); 
....................       //SendDataDisplay(); 
....................        
....................        
....................       if(TipoClave==3){ 
08484:  MOVLB  2
08486:  MOVF   xD5,W
08488:  SUBLW  03
0848A:  BNZ   84A4
....................          printf("titulo.txt=\"Clave Nueva\""); 
0848C:  MOVLW  52
0848E:  MOVWF  FF6
08490:  MOVLW  08
08492:  MOVWF  FF7
08494:  MOVLW  00
08496:  MOVWF  FF8
08498:  MOVLB  0
0849A:  CALL   3E66
....................          SendDataDisplay(); 
0849E:  CALL   3E98
084A2:  MOVLB  2
....................       } 
....................        
....................       if(TipoClave==2){ 
084A4:  MOVF   xD5,W
084A6:  SUBLW  02
084A8:  BNZ   84C2
....................          printf("titulo.txt=\"Clave Actual\""); 
084AA:  MOVLW  6C
084AC:  MOVWF  FF6
084AE:  MOVLW  08
084B0:  MOVWF  FF7
084B2:  MOVLW  00
084B4:  MOVWF  FF8
084B6:  MOVLB  0
084B8:  CALL   3E66
....................          SendDataDisplay();         
084BC:  CALL   3E98
084C0:  MOVLB  2
....................       } 
....................        
....................       if(TipoClave==1){ 
084C2:  DECFSZ xD5,W
084C4:  BRA    84DE
....................          printf("titulo.txt=\"Clave Tecnico\""); 
084C6:  MOVLW  86
084C8:  MOVWF  FF6
084CA:  MOVLW  08
084CC:  MOVWF  FF7
084CE:  MOVLW  00
084D0:  MOVWF  FF8
084D2:  MOVLB  0
084D4:  CALL   3E66
....................          SendDataDisplay(); 
084D8:  CALL   3E98
084DC:  MOVLB  2
....................       } 
....................        
....................       if(TipoClave==0){ 
084DE:  MOVF   xD5,F
084E0:  BNZ   8514
....................          printf("titulo.txt=\"%s\"",usuario); 
084E2:  MOVLW  A2
084E4:  MOVWF  FF6
084E6:  MOVLW  08
084E8:  MOVWF  FF7
084EA:  MOVLW  00
084EC:  MOVWF  FF8
084EE:  MOVLW  0C
084F0:  MOVLB  7
084F2:  MOVWF  xBE
084F4:  MOVLB  0
084F6:  CALL   55F4
084FA:  MOVLW  03
084FC:  MOVWF  FEA
084FE:  MOVLW  97
08500:  MOVWF  FE9
08502:  CALL   5626
08506:  MOVLW  22
08508:  BTFSS  F9E.4
0850A:  BRA    8508
0850C:  MOVWF  FAD
....................          SendDataDisplay(); 
0850E:  CALL   3E98
08512:  MOVLB  2
....................       } 
....................        
....................       if(RX_Buffer[4]==0x11){//11, Regresar 
08514:  MOVF   34,W
08516:  SUBLW  11
08518:  BNZ   8550
....................          if(TipoClave==1){ 
0851A:  DECFSZ xD5,W
0851C:  BRA    8538
....................             printf("page Ajustes"); 
0851E:  MOVLW  B2
08520:  MOVWF  FF6
08522:  MOVLW  08
08524:  MOVWF  FF7
08526:  MOVLW  00
08528:  MOVWF  FF8
0852A:  MOVLB  0
0852C:  CALL   3E66
....................             SendDataDisplay();        
08530:  CALL   3E98
....................          }else{ 
08534:  BRA    854E
08536:  MOVLB  2
....................             printf("page Usuarios"); 
08538:  MOVLW  C0
0853A:  MOVWF  FF6
0853C:  MOVLW  08
0853E:  MOVWF  FF7
08540:  MOVLW  00
08542:  MOVWF  FF8
08544:  MOVLB  0
08546:  CALL   3E66
....................             SendDataDisplay();        
0854A:  CALL   3E98
0854E:  MOVLB  2
....................          } 
....................       } 
....................        
....................       if(RX_Buffer[3]==0x0f){//0f, recibe caracteres ingresados desde el Display 
08550:  MOVF   33,W
08552:  SUBLW  0F
08554:  BTFSS  FD8.2
08556:  BRA    8A76
....................          delay_ms(800); 
08558:  MOVLW  04
0855A:  MOVLB  7
0855C:  MOVWF  xB9
0855E:  MOVLW  C8
08560:  MOVWF  xC9
08562:  MOVLB  0
08564:  CALL   1FA0
08568:  MOVLB  7
0856A:  DECFSZ xB9,F
0856C:  BRA    855E
....................          if(TipoClave==0){ 
0856E:  MOVLB  2
08570:  MOVF   xD5,F
08572:  BTFSS  FD8.2
08574:  BRA    8726
....................             if(RX_Buffer[4]==0x33&&RX_Buffer[5]==0x38&&RX_Buffer[6]==0x39&&RX_Buffer[7]==0x32 &&RX_Buffer[8]==0x00 &&RX_Buffer[9]==0xff){ // Si Ingresa clave para reset general del sistema. 
08576:  MOVF   34,W
08578:  SUBLW  33
0857A:  BNZ   85F4
0857C:  MOVF   35,W
0857E:  SUBLW  38
08580:  BNZ   85F4
08582:  MOVF   36,W
08584:  SUBLW  39
08586:  BNZ   85F4
08588:  MOVF   37,W
0858A:  SUBLW  32
0858C:  BNZ   85F4
0858E:  MOVF   38,F
08590:  BNZ   85F4
08592:  INCFSZ 39,W
08594:  BRA    85F4
....................                for(i=0;i<40;i++){//Lee contraseas de usuarios 
08596:  MOVLB  3
08598:  CLRF   x51
0859A:  MOVF   x51,W
0859C:  SUBLW  27
0859E:  BNC   85F0
....................                   write_eeprom(300+i,0);delay_ms(20); 
085A0:  MOVLW  2C
085A2:  ADDWF  x51,W
085A4:  MOVLB  7
085A6:  MOVWF  xB9
085A8:  MOVLW  01
085AA:  MOVWF  xBA
085AC:  BTFSC  FD8.0
085AE:  INCF   xBA,F
085B0:  MOVFF  7BA,FAA
085B4:  MOVFF  7B9,FA9
085B8:  CLRF   FA8
085BA:  BCF    FA6.6
085BC:  BCF    FA6.7
085BE:  BSF    FA6.2
085C0:  MOVF   FF2,W
085C2:  MOVWF  00
085C4:  BCF    FF2.6
085C6:  BCF    FF2.7
085C8:  MOVLB  F
085CA:  MOVLW  55
085CC:  MOVWF  FA7
085CE:  MOVLW  AA
085D0:  MOVWF  FA7
085D2:  BSF    FA6.1
085D4:  BTFSC  FA6.1
085D6:  BRA    85D4
085D8:  BCF    FA6.2
085DA:  MOVF   00,W
085DC:  IORWF  FF2,F
085DE:  MOVLW  14
085E0:  MOVLB  7
085E2:  MOVWF  xC9
085E4:  MOVLB  0
085E6:  CALL   1FA0
....................                } 
085EA:  MOVLB  3
085EC:  INCF   x51,F
085EE:  BRA    859A
....................                reset_cpu(); 
085F0:  RESET
085F2:  MOVLB  2
....................             } 
....................              
....................             if(RX_Buffer[4]>=0x30 && RX_Buffer[5]>=0x30 && RX_Buffer[6]>=0x30 && RX_Buffer[7]>=0x30 
....................             && RX_Buffer[4]<=0x39 && RX_Buffer[5]<=0x39 && RX_Buffer[6]<=0x39 && RX_Buffer[7]<=0x39){ 
085F4:  MOVF   34,W
085F6:  SUBLW  2F
085F8:  BTFSC  FD8.0
085FA:  BRA    8724
085FC:  MOVF   35,W
085FE:  SUBLW  2F
08600:  BTFSC  FD8.0
08602:  BRA    8724
08604:  MOVF   36,W
08606:  SUBLW  2F
08608:  BTFSC  FD8.0
0860A:  BRA    8724
0860C:  MOVF   37,W
0860E:  SUBLW  2F
08610:  BTFSC  FD8.0
08612:  BRA    8724
08614:  MOVF   34,W
08616:  SUBLW  39
08618:  BTFSS  FD8.0
0861A:  BRA    8724
0861C:  MOVF   35,W
0861E:  SUBLW  39
08620:  BTFSS  FD8.0
08622:  BRA    8724
08624:  MOVF   36,W
08626:  SUBLW  39
08628:  BTFSS  FD8.0
0862A:  BRA    8724
0862C:  MOVF   37,W
0862E:  SUBLW  39
08630:  BTFSS  FD8.0
08632:  BRA    8724
....................                if((RX_Buffer[4]==Clave[codigoUsuario].Password[0]+0x30)&&(RX_Buffer[5]==Clave[codigoUsuario].Password[1]+0x30)&& 
....................                (RX_Buffer[6]==Clave[codigoUsuario].Password[2]+0x30)&&(RX_Buffer[7]==Clave[codigoUsuario].Password[3]+0x30) 
....................                &&RX_Buffer[8]==0x00 &&RX_Buffer[9]==0xff){ 
08634:  MOVLB  0
08636:  MOVF   xC8,W
08638:  MULLW  04
0863A:  MOVF   FF3,W
0863C:  MOVLB  7
0863E:  CLRF   xBA
08640:  MOVWF  xB9
08642:  MOVLW  91
08644:  ADDWF  xB9,W
08646:  MOVWF  FE9
08648:  MOVLW  07
0864A:  ADDWFC xBA,W
0864C:  MOVWF  FEA
0864E:  MOVLW  30
08650:  ADDWF  FEF,W
08652:  SUBWF  34,W
08654:  BNZ   8708
08656:  MOVLB  0
08658:  MOVF   xC8,W
0865A:  MULLW  04
0865C:  MOVF   FF3,W
0865E:  MOVLB  7
08660:  CLRF   xBA
08662:  MOVWF  xB9
08664:  MOVLW  01
08666:  ADDWF  xB9,W
08668:  MOVWF  01
0866A:  MOVLW  00
0866C:  ADDWFC xBA,W
0866E:  MOVWF  03
08670:  MOVF   01,W
08672:  ADDLW  91
08674:  MOVWF  FE9
08676:  MOVLW  07
08678:  ADDWFC 03,W
0867A:  MOVWF  FEA
0867C:  MOVLW  30
0867E:  ADDWF  FEF,W
08680:  SUBWF  35,W
08682:  BNZ   8708
08684:  MOVLB  0
08686:  MOVF   xC8,W
08688:  MULLW  04
0868A:  MOVF   FF3,W
0868C:  MOVLB  7
0868E:  CLRF   xBA
08690:  MOVWF  xB9
08692:  MOVLW  02
08694:  ADDWF  xB9,W
08696:  MOVWF  01
08698:  MOVLW  00
0869A:  ADDWFC xBA,W
0869C:  MOVWF  03
0869E:  MOVF   01,W
086A0:  ADDLW  91
086A2:  MOVWF  FE9
086A4:  MOVLW  07
086A6:  ADDWFC 03,W
086A8:  MOVWF  FEA
086AA:  MOVLW  30
086AC:  ADDWF  FEF,W
086AE:  SUBWF  36,W
086B0:  BNZ   8708
086B2:  MOVLB  0
086B4:  MOVF   xC8,W
086B6:  MULLW  04
086B8:  MOVF   FF3,W
086BA:  MOVLB  7
086BC:  CLRF   xBA
086BE:  MOVWF  xB9
086C0:  MOVLW  03
086C2:  ADDWF  xB9,W
086C4:  MOVWF  01
086C6:  MOVLW  00
086C8:  ADDWFC xBA,W
086CA:  MOVWF  03
086CC:  MOVF   01,W
086CE:  ADDLW  91
086D0:  MOVWF  FE9
086D2:  MOVLW  07
086D4:  ADDWFC 03,W
086D6:  MOVWF  FEA
086D8:  MOVLW  30
086DA:  ADDWF  FEF,W
086DC:  SUBWF  37,W
086DE:  BNZ   8708
086E0:  MOVF   38,F
086E2:  BNZ   8708
086E4:  INCFSZ 39,W
086E6:  BRA    8708
....................                   printf("page ClaveCorrecta"); 
086E8:  MOVLW  CE
086EA:  MOVWF  FF6
086EC:  MOVLW  08
086EE:  MOVWF  FF7
086F0:  MOVLW  00
086F2:  MOVWF  FF8
086F4:  MOVLB  0
086F6:  CALL   3E66
....................                   SendDataDisplay(); 
086FA:  CALL   3E98
....................                   ingreso=ON; 
086FE:  BSF    xA6.6
....................                   RX_Buffer[3]=0x00;RX_Buffer2[3]=0x00;   
08700:  CLRF   33
08702:  CLRF   3E
....................                }else{ 
08704:  BRA    8722
08706:  MOVLB  7
....................                   printf("page ClaveBad"); 
08708:  MOVLW  E2
0870A:  MOVWF  FF6
0870C:  MOVLW  08
0870E:  MOVWF  FF7
08710:  MOVLW  00
08712:  MOVWF  FF8
08714:  MOVLB  0
08716:  CALL   3E66
....................                   SendDataDisplay(); 
0871A:  CALL   3E98
....................                   RX_Buffer[3]=0x00;RX_Buffer2[3]=0x00;   
0871E:  CLRF   33
08720:  CLRF   3E
08722:  MOVLB  2
....................                }  
....................             } 
....................          }else if(TipoClave==1){ 
08724:  BRA    8A76
08726:  DECFSZ xD5,W
08728:  BRA    8786
....................             if(RX_Buffer[4]==0x34&&RX_Buffer[5]==0x34&&RX_Buffer[6]==0x34&&RX_Buffer[7]==0x34&&RX_Buffer[8]==0x00 &&RX_Buffer[9]==0xff){ // Si Ingresa clave de Servicio Tecnico 
0872A:  MOVF   34,W
0872C:  SUBLW  34
0872E:  BNZ   8768
08730:  MOVF   35,W
08732:  SUBLW  34
08734:  BNZ   8768
08736:  MOVF   36,W
08738:  SUBLW  34
0873A:  BNZ   8768
0873C:  MOVF   37,W
0873E:  SUBLW  34
08740:  BNZ   8768
08742:  MOVF   38,F
08744:  BNZ   8768
08746:  INCFSZ 39,W
08748:  BRA    8768
....................                printf("page Config"); 
0874A:  MOVLW  F0
0874C:  MOVWF  FF6
0874E:  MOVLW  08
08750:  MOVWF  FF7
08752:  MOVLW  00
08754:  MOVWF  FF8
08756:  MOVLB  0
08758:  CALL   3E66
....................                SendDataDisplay(); 
0875C:  CALL   3E98
....................                RX_Buffer[3]=0x00;RX_Buffer2[3]=0x00;   
08760:  CLRF   33
08762:  CLRF   3E
....................             }else{ 
08764:  BRA    8782
08766:  MOVLB  2
....................                printf("page MenuPrincipal"); 
08768:  MOVLW  FC
0876A:  MOVWF  FF6
0876C:  MOVLW  08
0876E:  MOVWF  FF7
08770:  MOVLW  00
08772:  MOVWF  FF8
08774:  MOVLB  0
08776:  CALL   3E66
....................                SendDataDisplay(); 
0877A:  CALL   3E98
....................                RX_Buffer[3]=0x00;RX_Buffer2[3]=0x00;   
0877E:  CLRF   33
08780:  CLRF   3E
....................             } 
....................          }else if(TipoClave==2){ 
08782:  BRA    8A74
08784:  MOVLB  2
08786:  MOVF   xD5,W
08788:  SUBLW  02
0878A:  BTFSS  FD8.2
0878C:  BRA    88DC
....................             if(RX_Buffer[4]>=0x30 && RX_Buffer[5]>=0x30 && RX_Buffer[6]>=0x30 && RX_Buffer[7]>=0x30 
....................             && RX_Buffer[4]<=0x39 && RX_Buffer[5]<=0x39 && RX_Buffer[6]<=0x39 && RX_Buffer[7]<=0x39){ 
0878E:  MOVF   34,W
08790:  SUBLW  2F
08792:  BTFSC  FD8.0
08794:  BRA    88DA
08796:  MOVF   35,W
08798:  SUBLW  2F
0879A:  BTFSC  FD8.0
0879C:  BRA    88DA
0879E:  MOVF   36,W
087A0:  SUBLW  2F
087A2:  BTFSC  FD8.0
087A4:  BRA    88DA
087A6:  MOVF   37,W
087A8:  SUBLW  2F
087AA:  BTFSC  FD8.0
087AC:  BRA    88DA
087AE:  MOVF   34,W
087B0:  SUBLW  39
087B2:  BTFSS  FD8.0
087B4:  BRA    88DA
087B6:  MOVF   35,W
087B8:  SUBLW  39
087BA:  BTFSS  FD8.0
087BC:  BRA    88DA
087BE:  MOVF   36,W
087C0:  SUBLW  39
087C2:  BTFSS  FD8.0
087C4:  BRA    88DA
087C6:  MOVF   37,W
087C8:  SUBLW  39
087CA:  BTFSS  FD8.0
087CC:  BRA    88DA
....................                if((RX_Buffer[4]==Clave[codigoUsuario2].Password[0]+0x30)&&(RX_Buffer[5]==Clave[codigoUsuario2].Password[1]+0x30)&& 
....................                (RX_Buffer[6]==Clave[codigoUsuario2].Password[2]+0x30)&&(RX_Buffer[7]==Clave[codigoUsuario2].Password[3]+0x30) 
....................                &&RX_Buffer[8]==0x00 &&RX_Buffer[9]==0xff){ 
087CE:  MOVLB  0
087D0:  MOVF   xCA,W
087D2:  MULLW  04
087D4:  MOVF   FF3,W
087D6:  MOVLB  7
087D8:  CLRF   xBA
087DA:  MOVWF  xB9
087DC:  MOVLW  91
087DE:  ADDWF  xB9,W
087E0:  MOVWF  FE9
087E2:  MOVLW  07
087E4:  ADDWFC xBA,W
087E6:  MOVWF  FEA
087E8:  MOVLW  30
087EA:  ADDWF  FEF,W
087EC:  SUBWF  34,W
087EE:  BNZ   88BA
087F0:  MOVLB  0
087F2:  MOVF   xCA,W
087F4:  MULLW  04
087F6:  MOVF   FF3,W
087F8:  MOVLB  7
087FA:  CLRF   xBA
087FC:  MOVWF  xB9
087FE:  MOVLW  01
08800:  ADDWF  xB9,W
08802:  MOVWF  01
08804:  MOVLW  00
08806:  ADDWFC xBA,W
08808:  MOVWF  03
0880A:  MOVF   01,W
0880C:  ADDLW  91
0880E:  MOVWF  FE9
08810:  MOVLW  07
08812:  ADDWFC 03,W
08814:  MOVWF  FEA
08816:  MOVLW  30
08818:  ADDWF  FEF,W
0881A:  SUBWF  35,W
0881C:  BNZ   88BA
0881E:  MOVLB  0
08820:  MOVF   xCA,W
08822:  MULLW  04
08824:  MOVF   FF3,W
08826:  MOVLB  7
08828:  CLRF   xBA
0882A:  MOVWF  xB9
0882C:  MOVLW  02
0882E:  ADDWF  xB9,W
08830:  MOVWF  01
08832:  MOVLW  00
08834:  ADDWFC xBA,W
08836:  MOVWF  03
08838:  MOVF   01,W
0883A:  ADDLW  91
0883C:  MOVWF  FE9
0883E:  MOVLW  07
08840:  ADDWFC 03,W
08842:  MOVWF  FEA
08844:  MOVLW  30
08846:  ADDWF  FEF,W
08848:  SUBWF  36,W
0884A:  BNZ   88BA
0884C:  MOVLB  0
0884E:  MOVF   xCA,W
08850:  MULLW  04
08852:  MOVF   FF3,W
08854:  MOVLB  7
08856:  CLRF   xBA
08858:  MOVWF  xB9
0885A:  MOVLW  03
0885C:  ADDWF  xB9,W
0885E:  MOVWF  01
08860:  MOVLW  00
08862:  ADDWFC xBA,W
08864:  MOVWF  03
08866:  MOVF   01,W
08868:  ADDLW  91
0886A:  MOVWF  FE9
0886C:  MOVLW  07
0886E:  ADDWFC 03,W
08870:  MOVWF  FEA
08872:  MOVLW  30
08874:  ADDWF  FEF,W
08876:  SUBWF  37,W
08878:  BNZ   88BA
0887A:  MOVF   38,F
0887C:  BNZ   88BA
0887E:  INCFSZ 39,W
08880:  BRA    88BA
....................                   printf("page Clave"); 
08882:  MOVLW  10
08884:  MOVWF  FF6
08886:  MOVLW  09
08888:  MOVWF  FF7
0888A:  MOVLW  00
0888C:  MOVWF  FF8
0888E:  MOVLB  0
08890:  CALL   3E66
....................                   SendDataDisplay(); 
08894:  CALL   3E98
....................                   printf("titulo.txt=\"Clave Nueva\""); 
08898:  MOVLW  1C
0889A:  MOVWF  FF6
0889C:  MOVLW  09
0889E:  MOVWF  FF7
088A0:  MOVLW  00
088A2:  MOVWF  FF8
088A4:  CALL   3E66
....................                   SendDataDisplay(); 
088A8:  CALL   3E98
....................                   TipoClave=3; 
088AC:  MOVLW  03
088AE:  MOVLB  2
088B0:  MOVWF  xD5
....................                   RX_Buffer[3]=0x00; 
088B2:  CLRF   33
....................                   RX_Buffer2[3]=0x00; 
088B4:  CLRF   3E
....................                }else{ 
088B6:  BRA    88DA
088B8:  MOVLB  7
....................                   printf("page MenuPrincipal"); 
088BA:  MOVLW  36
088BC:  MOVWF  FF6
088BE:  MOVLW  09
088C0:  MOVWF  FF7
088C2:  MOVLW  00
088C4:  MOVWF  FF8
088C6:  MOVLB  0
088C8:  CALL   3E66
....................                   SendDataDisplay(); 
088CC:  CALL   3E98
....................                   RX_Buffer[3]=0x00; 
088D0:  CLRF   33
....................                   RX_Buffer2[3]=0x00; 
088D2:  CLRF   3E
....................                   codigoUsuario=codigoUsuarioant; 
088D4:  MOVFF  CB,C8
088D8:  MOVLB  2
....................                }  
....................             } 
....................          }else if(TipoClave==3){ 
088DA:  BRA    8A76
088DC:  MOVF   xD5,W
088DE:  SUBLW  03
088E0:  BTFSS  FD8.2
088E2:  BRA    8A76
....................             printf("titulo.txt=\"Clave Nueva\""); 
088E4:  MOVLW  4A
088E6:  MOVWF  FF6
088E8:  MOVLW  09
088EA:  MOVWF  FF7
088EC:  MOVLW  00
088EE:  MOVWF  FF8
088F0:  MOVLB  0
088F2:  CALL   3E66
....................             SendDataDisplay(); 
088F6:  CALL   3E98
....................             printf("page MenuPrincipal"); 
088FA:  MOVLW  64
088FC:  MOVWF  FF6
088FE:  MOVLW  09
08900:  MOVWF  FF7
08902:  MOVLW  00
08904:  MOVWF  FF8
08906:  CALL   3E66
....................             SendDataDisplay(); 
0890A:  CALL   3E98
....................             if(!GuardaEEPROM){ 
0890E:  BTFSC  xA3.3
08910:  BRA    8A70
....................                write_eeprom(300+(codigoUsuario2*4),RX_Buffer[4]-0x30);delay_ms(20); 
08912:  MOVF   xCA,W
08914:  MULLW  04
08916:  MOVF   FF3,W
08918:  ADDLW  2C
0891A:  MOVLB  7
0891C:  MOVWF  xB9
0891E:  MOVLW  01
08920:  MOVWF  xBA
08922:  BTFSC  FD8.0
08924:  INCF   xBA,F
08926:  MOVLW  30
08928:  SUBWF  34,W
0892A:  MOVWF  xBB
0892C:  MOVFF  7BA,FAA
08930:  MOVFF  7B9,FA9
08934:  MOVFF  7BB,FA8
08938:  BCF    FA6.6
0893A:  BCF    FA6.7
0893C:  BSF    FA6.2
0893E:  MOVF   FF2,W
08940:  MOVWF  00
08942:  BCF    FF2.6
08944:  BCF    FF2.7
08946:  MOVLB  F
08948:  MOVLW  55
0894A:  MOVWF  FA7
0894C:  MOVLW  AA
0894E:  MOVWF  FA7
08950:  BSF    FA6.1
08952:  BTFSC  FA6.1
08954:  BRA    8952
08956:  BCF    FA6.2
08958:  MOVF   00,W
0895A:  IORWF  FF2,F
0895C:  MOVLW  14
0895E:  MOVLB  7
08960:  MOVWF  xC9
08962:  MOVLB  0
08964:  CALL   1FA0
....................                write_eeprom(301+(codigoUsuario2*4),RX_Buffer[5]-0x30);delay_ms(20); 
08968:  MOVF   xCA,W
0896A:  MULLW  04
0896C:  MOVF   FF3,W
0896E:  ADDLW  2D
08970:  MOVLB  7
08972:  MOVWF  xB9
08974:  MOVLW  01
08976:  MOVWF  xBA
08978:  BTFSC  FD8.0
0897A:  INCF   xBA,F
0897C:  MOVLW  30
0897E:  SUBWF  35,W
08980:  MOVWF  xBB
08982:  MOVFF  7BA,FAA
08986:  MOVFF  7B9,FA9
0898A:  MOVFF  7BB,FA8
0898E:  BCF    FA6.6
08990:  BCF    FA6.7
08992:  BSF    FA6.2
08994:  MOVF   FF2,W
08996:  MOVWF  00
08998:  BCF    FF2.6
0899A:  BCF    FF2.7
0899C:  MOVLB  F
0899E:  MOVLW  55
089A0:  MOVWF  FA7
089A2:  MOVLW  AA
089A4:  MOVWF  FA7
089A6:  BSF    FA6.1
089A8:  BTFSC  FA6.1
089AA:  BRA    89A8
089AC:  BCF    FA6.2
089AE:  MOVF   00,W
089B0:  IORWF  FF2,F
089B2:  MOVLW  14
089B4:  MOVLB  7
089B6:  MOVWF  xC9
089B8:  MOVLB  0
089BA:  CALL   1FA0
....................                write_eeprom(302+(codigoUsuario2*4),RX_Buffer[6]-0x30);delay_ms(20); 
089BE:  MOVF   xCA,W
089C0:  MULLW  04
089C2:  MOVF   FF3,W
089C4:  ADDLW  2E
089C6:  MOVLB  7
089C8:  MOVWF  xB9
089CA:  MOVLW  01
089CC:  MOVWF  xBA
089CE:  BTFSC  FD8.0
089D0:  INCF   xBA,F
089D2:  MOVLW  30
089D4:  SUBWF  36,W
089D6:  MOVWF  xBB
089D8:  MOVFF  7BA,FAA
089DC:  MOVFF  7B9,FA9
089E0:  MOVFF  7BB,FA8
089E4:  BCF    FA6.6
089E6:  BCF    FA6.7
089E8:  BSF    FA6.2
089EA:  MOVF   FF2,W
089EC:  MOVWF  00
089EE:  BCF    FF2.6
089F0:  BCF    FF2.7
089F2:  MOVLB  F
089F4:  MOVLW  55
089F6:  MOVWF  FA7
089F8:  MOVLW  AA
089FA:  MOVWF  FA7
089FC:  BSF    FA6.1
089FE:  BTFSC  FA6.1
08A00:  BRA    89FE
08A02:  BCF    FA6.2
08A04:  MOVF   00,W
08A06:  IORWF  FF2,F
08A08:  MOVLW  14
08A0A:  MOVLB  7
08A0C:  MOVWF  xC9
08A0E:  MOVLB  0
08A10:  CALL   1FA0
....................                write_eeprom(303+(codigoUsuario2*4),RX_Buffer[7]-0x30);delay_ms(20); 
08A14:  MOVF   xCA,W
08A16:  MULLW  04
08A18:  MOVF   FF3,W
08A1A:  ADDLW  2F
08A1C:  MOVLB  7
08A1E:  MOVWF  xB9
08A20:  MOVLW  01
08A22:  MOVWF  xBA
08A24:  BTFSC  FD8.0
08A26:  INCF   xBA,F
08A28:  MOVLW  30
08A2A:  SUBWF  37,W
08A2C:  MOVWF  xBB
08A2E:  MOVFF  7BA,FAA
08A32:  MOVFF  7B9,FA9
08A36:  MOVFF  7BB,FA8
08A3A:  BCF    FA6.6
08A3C:  BCF    FA6.7
08A3E:  BSF    FA6.2
08A40:  MOVF   FF2,W
08A42:  MOVWF  00
08A44:  BCF    FF2.6
08A46:  BCF    FF2.7
08A48:  MOVLB  F
08A4A:  MOVLW  55
08A4C:  MOVWF  FA7
08A4E:  MOVLW  AA
08A50:  MOVWF  FA7
08A52:  BSF    FA6.1
08A54:  BTFSC  FA6.1
08A56:  BRA    8A54
08A58:  BCF    FA6.2
08A5A:  MOVF   00,W
08A5C:  IORWF  FF2,F
08A5E:  MOVLW  14
08A60:  MOVLB  7
08A62:  MOVWF  xC9
08A64:  MOVLB  0
08A66:  CALL   1FA0
....................                GuardaEEPROM=ON; 
08A6A:  BSF    xA3.3
....................                codigoUsuario=codigoUsuarioant; 
08A6C:  MOVFF  CB,C8
....................             } 
....................             RX_Buffer[3]=0x00; 
08A70:  CLRF   33
....................             RX_Buffer2[3]=0x00; 
08A72:  CLRF   3E
08A74:  MOVLB  2
08A76:  MOVLB  3
....................          } 
....................       } 
....................     } 
.................... //_--------------------------------------------------------------------------------------------------------------------------------------------------------        
....................  
.................... //_-------------------------------------------------------------------------------------------------------------------------------------------------------- 
....................    if(Menu==1){ //Menu Principal. 
08A78:  DECFSZ x4E,W
08A7A:  GOTO   91FE
....................       printf("fecha.txt=\"T:%2.1fC Fecha:%02u/%02u/20%02u Hora:%02u:%02u:%02u\"",Temperatura,Dia,Mes,Year,Hora,Minuto,Segundo); 
08A7E:  MOVLW  78
08A80:  MOVWF  FF6
08A82:  MOVLW  09
08A84:  MOVWF  FF7
08A86:  MOVLW  00
08A88:  MOVWF  FF8
08A8A:  MOVLW  0D
08A8C:  MOVLB  7
08A8E:  MOVWF  xBE
08A90:  MOVLB  0
08A92:  CALL   55F4
08A96:  MOVLW  01
08A98:  MOVWF  FE9
08A9A:  MOVFF  31B,7C1
08A9E:  MOVFF  31A,7C0
08AA2:  MOVFF  319,7BF
08AA6:  MOVFF  318,7BE
08AAA:  MOVLB  7
08AAC:  MOVWF  xC2
08AAE:  MOVLB  0
08AB0:  CALL   5710
08AB4:  MOVLW  8A
08AB6:  MOVWF  FF6
08AB8:  MOVLW  09
08ABA:  MOVWF  FF7
08ABC:  MOVLW  00
08ABE:  MOVWF  FF8
08AC0:  MOVLW  09
08AC2:  MOVLB  7
08AC4:  MOVWF  xBE
08AC6:  MOVLB  0
08AC8:  CALL   55F4
08ACC:  MOVFF  386,7BE
08AD0:  MOVLW  01
08AD2:  MOVLB  7
08AD4:  MOVWF  xBF
08AD6:  MOVLB  0
08AD8:  CALL   58E0
08ADC:  MOVLW  2F
08ADE:  BTFSS  F9E.4
08AE0:  BRA    8ADE
08AE2:  MOVWF  FAD
08AE4:  MOVFF  385,7BE
08AE8:  MOVLW  01
08AEA:  MOVLB  7
08AEC:  MOVWF  xBF
08AEE:  MOVLB  0
08AF0:  CALL   58E0
08AF4:  MOVLW  2F
08AF6:  BTFSS  F9E.4
08AF8:  BRA    8AF6
08AFA:  MOVWF  FAD
08AFC:  MOVLW  32
08AFE:  BTFSS  F9E.4
08B00:  BRA    8AFE
08B02:  MOVWF  FAD
08B04:  MOVLW  30
08B06:  BTFSS  F9E.4
08B08:  BRA    8B06
08B0A:  MOVWF  FAD
08B0C:  MOVFF  384,7BE
08B10:  MOVLW  01
08B12:  MOVLB  7
08B14:  MOVWF  xBF
08B16:  MOVLB  0
08B18:  CALL   58E0
08B1C:  MOVLW  A3
08B1E:  MOVWF  FF6
08B20:  MOVLW  09
08B22:  MOVWF  FF7
08B24:  MOVLW  00
08B26:  MOVWF  FF8
08B28:  MOVLW  06
08B2A:  MOVLB  7
08B2C:  MOVWF  xBE
08B2E:  MOVLB  0
08B30:  CALL   55F4
08B34:  MOVFF  387,7BE
08B38:  MOVLW  01
08B3A:  MOVLB  7
08B3C:  MOVWF  xBF
08B3E:  MOVLB  0
08B40:  CALL   58E0
08B44:  MOVLW  3A
08B46:  BTFSS  F9E.4
08B48:  BRA    8B46
08B4A:  MOVWF  FAD
08B4C:  MOVFF  388,7BE
08B50:  MOVLW  01
08B52:  MOVLB  7
08B54:  MOVWF  xBF
08B56:  MOVLB  0
08B58:  CALL   58E0
08B5C:  MOVLW  3A
08B5E:  BTFSS  F9E.4
08B60:  BRA    8B5E
08B62:  MOVWF  FAD
08B64:  MOVFF  389,7BE
08B68:  MOVLW  01
08B6A:  MOVLB  7
08B6C:  MOVWF  xBF
08B6E:  MOVLB  0
08B70:  CALL   58E0
08B74:  MOVLW  22
08B76:  BTFSS  F9E.4
08B78:  BRA    8B76
08B7A:  MOVWF  FAD
....................       SendDataDisplay(); 
08B7C:  CALL   3E98
....................       GuardaEEPROM=OFF; 
08B80:  BCF    xA3.3
....................       printf("tuser.txt=\"%s\"",usuario); 
08B82:  MOVLW  BA
08B84:  MOVWF  FF6
08B86:  MOVLW  09
08B88:  MOVWF  FF7
08B8A:  MOVLW  00
08B8C:  MOVWF  FF8
08B8E:  MOVLW  0B
08B90:  MOVLB  7
08B92:  MOVWF  xBE
08B94:  MOVLB  0
08B96:  CALL   55F4
08B9A:  MOVLW  03
08B9C:  MOVWF  FEA
08B9E:  MOVLW  97
08BA0:  MOVWF  FE9
08BA2:  CALL   5626
08BA6:  MOVLW  22
08BA8:  BTFSS  F9E.4
08BAA:  BRA    8BA8
08BAC:  MOVWF  FAD
....................       SendDataDisplay(); 
08BAE:  CALL   3E98
....................       codigoUsuarioant=codigoUsuario; 
08BB2:  MOVFF  C8,CB
....................        
....................       if(RX_Buffer[4]==0x01 && RX_Buffer[5]==0x0f && estados[19+RX_Buffer[4]]){//01, Textil & Instrumental 
08BB6:  DECFSZ 34,W
08BB8:  BRA    8C48
08BBA:  MOVF   35,W
08BBC:  SUBLW  0F
08BBE:  BNZ   8C48
08BC0:  MOVLW  13
08BC2:  ADDWF  34,W
08BC4:  MOVLB  7
08BC6:  MOVWF  xBA
08BC8:  MOVLW  03
08BCA:  MOVWF  xBC
08BCC:  MOVLW  FD
08BCE:  MOVWF  xBB
08BD0:  MOVLB  0
08BD2:  CALL   200A
08BD6:  BTFSS  01.0
08BD8:  BRA    8C48
....................          delay_ms(5); 
08BDA:  MOVLW  05
08BDC:  MOVLB  7
08BDE:  MOVWF  xC9
08BE0:  MOVLB  0
08BE2:  CALL   1FA0
....................          if(RX_Buffer[4]==0x01 && RX_Buffer[5]==0x0f && estados[19+RX_Buffer[4]]){//01, Textil & Instrumental 
08BE6:  DECFSZ 34,W
08BE8:  BRA    8C48
08BEA:  MOVF   35,W
08BEC:  SUBLW  0F
08BEE:  BNZ   8C48
08BF0:  MOVLW  13
08BF2:  ADDWF  34,W
08BF4:  MOVLB  7
08BF6:  MOVWF  xBA
08BF8:  MOVLW  03
08BFA:  MOVWF  xBC
08BFC:  MOVLW  FD
08BFE:  MOVWF  xBB
08C00:  MOVLB  0
08C02:  CALL   200A
08C06:  BTFSS  01.0
08C08:  BRA    8C48
....................             printf("page Funcionamiento"); 
08C0A:  MOVLW  CA
08C0C:  MOVWF  FF6
08C0E:  MOVLW  09
08C10:  MOVWF  FF7
08C12:  MOVLW  00
08C14:  MOVWF  FF8
08C16:  CALL   3E66
....................             SendDataDisplay(); 
08C1A:  CALL   3E98
....................             ConfiguraCiclo(0,15,0,15,0,1,121,7,25,0); 
08C1E:  MOVLB  7
08C20:  CLRF   xBF
08C22:  MOVLW  0F
08C24:  MOVWF  xC0
08C26:  CLRF   xC1
08C28:  MOVWF  xC2
08C2A:  CLRF   xC3
08C2C:  MOVLW  01
08C2E:  MOVWF  xC4
08C30:  MOVLW  79
08C32:  MOVWF  xC5
08C34:  MOVLW  07
08C36:  MOVWF  xC6
08C38:  MOVLW  19
08C3A:  MOVWF  xC7
08C3C:  CLRF   xC8
08C3E:  MOVLB  0
08C40:  CALL   595E
....................             Op=OFF; 
08C44:  BCF    xA2.7
....................             Op2=OFF; 
08C46:  BCF    xA3.0
....................          } 
....................       } 
....................        
....................       if(RX_Buffer[4]==0x02 && RX_Buffer[5]==0x0f && estados[19+RX_Buffer[4]]){//02, Caucho 
08C48:  MOVF   34,W
08C4A:  SUBLW  02
08C4C:  BNZ   8CE0
08C4E:  MOVF   35,W
08C50:  SUBLW  0F
08C52:  BNZ   8CE0
08C54:  MOVLW  13
08C56:  ADDWF  34,W
08C58:  MOVLB  7
08C5A:  MOVWF  xBA
08C5C:  MOVLW  03
08C5E:  MOVWF  xBC
08C60:  MOVLW  FD
08C62:  MOVWF  xBB
08C64:  MOVLB  0
08C66:  CALL   200A
08C6A:  BTFSS  01.0
08C6C:  BRA    8CE0
....................          delay_ms(5); 
08C6E:  MOVLW  05
08C70:  MOVLB  7
08C72:  MOVWF  xC9
08C74:  MOVLB  0
08C76:  CALL   1FA0
....................          if(RX_Buffer[4]==0x02 && RX_Buffer[5]==0x0f && estados[19+RX_Buffer[4]]){ 
08C7A:  MOVF   34,W
08C7C:  SUBLW  02
08C7E:  BNZ   8CE0
08C80:  MOVF   35,W
08C82:  SUBLW  0F
08C84:  BNZ   8CE0
08C86:  MOVLW  13
08C88:  ADDWF  34,W
08C8A:  MOVLB  7
08C8C:  MOVWF  xBA
08C8E:  MOVLW  03
08C90:  MOVWF  xBC
08C92:  MOVLW  FD
08C94:  MOVWF  xBB
08C96:  MOVLB  0
08C98:  CALL   200A
08C9C:  BTFSS  01.0
08C9E:  BRA    8CE0
....................             printf("page Funcionamiento"); 
08CA0:  MOVLW  DE
08CA2:  MOVWF  FF6
08CA4:  MOVLW  09
08CA6:  MOVWF  FF7
08CA8:  MOVLW  00
08CAA:  MOVWF  FF8
08CAC:  CALL   3E66
....................             SendDataDisplay();        
08CB0:  CALL   3E98
....................             ConfiguraCiclo(0,25,0,15,0,2,121,7,25,0);             
08CB4:  MOVLB  7
08CB6:  CLRF   xBF
08CB8:  MOVLW  19
08CBA:  MOVWF  xC0
08CBC:  CLRF   xC1
08CBE:  MOVLW  0F
08CC0:  MOVWF  xC2
08CC2:  CLRF   xC3
08CC4:  MOVLW  02
08CC6:  MOVWF  xC4
08CC8:  MOVLW  79
08CCA:  MOVWF  xC5
08CCC:  MOVLW  07
08CCE:  MOVWF  xC6
08CD0:  MOVLW  19
08CD2:  MOVWF  xC7
08CD4:  CLRF   xC8
08CD6:  MOVLB  0
08CD8:  CALL   595E
....................             Op=OFF; 
08CDC:  BCF    xA2.7
....................             Op2=OFF; 
08CDE:  BCF    xA3.0
....................          } 
....................       } 
....................        
....................       if(RX_Buffer[4]==0x03  && RX_Buffer[5]==0x0f && estados[19+RX_Buffer[4]]){//03, Liquidos A 
08CE0:  MOVF   34,W
08CE2:  SUBLW  03
08CE4:  BNZ   8D7E
08CE6:  MOVF   35,W
08CE8:  SUBLW  0F
08CEA:  BNZ   8D7E
08CEC:  MOVLW  13
08CEE:  ADDWF  34,W
08CF0:  MOVLB  7
08CF2:  MOVWF  xBA
08CF4:  MOVLW  03
08CF6:  MOVWF  xBC
08CF8:  MOVLW  FD
08CFA:  MOVWF  xBB
08CFC:  MOVLB  0
08CFE:  CALL   200A
08D02:  BTFSS  01.0
08D04:  BRA    8D7E
....................          delay_ms(5); 
08D06:  MOVLW  05
08D08:  MOVLB  7
08D0A:  MOVWF  xC9
08D0C:  MOVLB  0
08D0E:  CALL   1FA0
....................          if(RX_Buffer[4]==0x03 && RX_Buffer[5]==0x0f && estados[19+RX_Buffer[4]]){ 
08D12:  MOVF   34,W
08D14:  SUBLW  03
08D16:  BNZ   8D7E
08D18:  MOVF   35,W
08D1A:  SUBLW  0F
08D1C:  BNZ   8D7E
08D1E:  MOVLW  13
08D20:  ADDWF  34,W
08D22:  MOVLB  7
08D24:  MOVWF  xBA
08D26:  MOVLW  03
08D28:  MOVWF  xBC
08D2A:  MOVLW  FD
08D2C:  MOVWF  xBB
08D2E:  MOVLB  0
08D30:  CALL   200A
08D34:  BTFSS  01.0
08D36:  BRA    8D7E
....................             printf("page NivelDes"); 
08D38:  MOVLW  F2
08D3A:  MOVWF  FF6
08D3C:  MOVLW  09
08D3E:  MOVWF  FF7
08D40:  MOVLW  00
08D42:  MOVWF  FF8
08D44:  CALL   3E66
....................             SendDataDisplay();      
08D48:  CALL   3E98
....................             ConfiguraCiclo(0,15,0,0,1,3,121,0,0,0);   
08D4C:  MOVLB  7
08D4E:  CLRF   xBF
08D50:  MOVLW  0F
08D52:  MOVWF  xC0
08D54:  CLRF   xC1
08D56:  CLRF   xC2
08D58:  MOVLW  01
08D5A:  MOVWF  xC3
08D5C:  MOVLW  03
08D5E:  MOVWF  xC4
08D60:  MOVLW  79
08D62:  MOVWF  xC5
08D64:  CLRF   xC6
08D66:  CLRF   xC7
08D68:  CLRF   xC8
08D6A:  MOVLB  0
08D6C:  CALL   595E
....................             Op=OFF; 
08D70:  BCF    xA2.7
....................             Op2=OFF; 
08D72:  BCF    xA3.0
....................             MenuAnt=2; 
08D74:  MOVLW  02
08D76:  MOVLB  3
08D78:  MOVWF  x4F
....................             flagLiquidos=ON; 
08D7A:  MOVLB  0
08D7C:  BSF    xA7.1
....................          } 
....................       } 
....................        
....................       if(RX_Buffer[4]==0x04 && RX_Buffer[5]==0x0f && estados[19+RX_Buffer[4]]){//04, Liquidos B 
08D7E:  MOVF   34,W
08D80:  SUBLW  04
08D82:  BNZ   8E1C
08D84:  MOVF   35,W
08D86:  SUBLW  0F
08D88:  BNZ   8E1C
08D8A:  MOVLW  13
08D8C:  ADDWF  34,W
08D8E:  MOVLB  7
08D90:  MOVWF  xBA
08D92:  MOVLW  03
08D94:  MOVWF  xBC
08D96:  MOVLW  FD
08D98:  MOVWF  xBB
08D9A:  MOVLB  0
08D9C:  CALL   200A
08DA0:  BTFSS  01.0
08DA2:  BRA    8E1C
....................          delay_ms(5); 
08DA4:  MOVLW  05
08DA6:  MOVLB  7
08DA8:  MOVWF  xC9
08DAA:  MOVLB  0
08DAC:  CALL   1FA0
....................          if(RX_Buffer[4]==0x04 && RX_Buffer[5]==0x0f && estados[19+RX_Buffer[4]]){ 
08DB0:  MOVF   34,W
08DB2:  SUBLW  04
08DB4:  BNZ   8E1C
08DB6:  MOVF   35,W
08DB8:  SUBLW  0F
08DBA:  BNZ   8E1C
08DBC:  MOVLW  13
08DBE:  ADDWF  34,W
08DC0:  MOVLB  7
08DC2:  MOVWF  xBA
08DC4:  MOVLW  03
08DC6:  MOVWF  xBC
08DC8:  MOVLW  FD
08DCA:  MOVWF  xBB
08DCC:  MOVLB  0
08DCE:  CALL   200A
08DD2:  BTFSS  01.0
08DD4:  BRA    8E1C
....................             printf("page NivelDes"); 
08DD6:  MOVLW  00
08DD8:  MOVWF  FF6
08DDA:  MOVLW  0A
08DDC:  MOVWF  FF7
08DDE:  MOVLW  00
08DE0:  MOVWF  FF8
08DE2:  CALL   3E66
....................             SendDataDisplay();        
08DE6:  CALL   3E98
....................             ConfiguraCiclo(0,20,0,0,1,4,121,0,0,0);   
08DEA:  MOVLB  7
08DEC:  CLRF   xBF
08DEE:  MOVLW  14
08DF0:  MOVWF  xC0
08DF2:  CLRF   xC1
08DF4:  CLRF   xC2
08DF6:  MOVLW  01
08DF8:  MOVWF  xC3
08DFA:  MOVLW  04
08DFC:  MOVWF  xC4
08DFE:  MOVLW  79
08E00:  MOVWF  xC5
08E02:  CLRF   xC6
08E04:  CLRF   xC7
08E06:  CLRF   xC8
08E08:  MOVLB  0
08E0A:  CALL   595E
....................             Op=OFF; 
08E0E:  BCF    xA2.7
....................             Op2=OFF; 
08E10:  BCF    xA3.0
....................             MenuAnt=2; 
08E12:  MOVLW  02
08E14:  MOVLB  3
08E16:  MOVWF  x4F
....................             flagLiquidos=ON; 
08E18:  MOVLB  0
08E1A:  BSF    xA7.1
....................          } 
....................       } 
....................        
....................       if(RX_Buffer[4]==0x05 && RX_Buffer[5]==0x0f && estados[19+RX_Buffer[4]]){//05, No Envueltos 121 
08E1C:  MOVF   34,W
08E1E:  SUBLW  05
08E20:  BNZ   8EB6
08E22:  MOVF   35,W
08E24:  SUBLW  0F
08E26:  BNZ   8EB6
08E28:  MOVLW  13
08E2A:  ADDWF  34,W
08E2C:  MOVLB  7
08E2E:  MOVWF  xBA
08E30:  MOVLW  03
08E32:  MOVWF  xBC
08E34:  MOVLW  FD
08E36:  MOVWF  xBB
08E38:  MOVLB  0
08E3A:  CALL   200A
08E3E:  BTFSS  01.0
08E40:  BRA    8EB6
....................          delay_ms(5); 
08E42:  MOVLW  05
08E44:  MOVLB  7
08E46:  MOVWF  xC9
08E48:  MOVLB  0
08E4A:  CALL   1FA0
....................          if(RX_Buffer[4]==0x05 && RX_Buffer[5]==0x0f && estados[19+RX_Buffer[4]]){ 
08E4E:  MOVF   34,W
08E50:  SUBLW  05
08E52:  BNZ   8EB6
08E54:  MOVF   35,W
08E56:  SUBLW  0F
08E58:  BNZ   8EB6
08E5A:  MOVLW  13
08E5C:  ADDWF  34,W
08E5E:  MOVLB  7
08E60:  MOVWF  xBA
08E62:  MOVLW  03
08E64:  MOVWF  xBC
08E66:  MOVLW  FD
08E68:  MOVWF  xBB
08E6A:  MOVLB  0
08E6C:  CALL   200A
08E70:  BTFSS  01.0
08E72:  BRA    8EB6
....................             printf("page Funcionamiento"); 
08E74:  MOVLW  0E
08E76:  MOVWF  FF6
08E78:  MOVLW  0A
08E7A:  MOVWF  FF7
08E7C:  MOVLW  00
08E7E:  MOVWF  FF8
08E80:  CALL   3E66
....................             SendDataDisplay();        
08E84:  CALL   3E98
....................             ConfiguraCiclo(0,15,0,2,0,5,121,7,25,0);   
08E88:  MOVLB  7
08E8A:  CLRF   xBF
08E8C:  MOVLW  0F
08E8E:  MOVWF  xC0
08E90:  CLRF   xC1
08E92:  MOVLW  02
08E94:  MOVWF  xC2
08E96:  CLRF   xC3
08E98:  MOVLW  05
08E9A:  MOVWF  xC4
08E9C:  MOVLW  79
08E9E:  MOVWF  xC5
08EA0:  MOVLW  07
08EA2:  MOVWF  xC6
08EA4:  MOVLW  19
08EA6:  MOVWF  xC7
08EA8:  CLRF   xC8
08EAA:  MOVLB  0
08EAC:  CALL   595E
....................             Op=OFF; 
08EB0:  BCF    xA2.7
....................             Op2=OFF; 
08EB2:  BCF    xA3.0
....................             Fugas=OFF; 
08EB4:  BCF    xA4.5
....................          } 
....................       } 
....................        
....................       if(RX_Buffer[4]==0x06 && RX_Buffer[5]==0x0f && estados[19+RX_Buffer[4]]){//06, Envuelto 121 
08EB6:  MOVF   34,W
08EB8:  SUBLW  06
08EBA:  BNZ   8F4E
08EBC:  MOVF   35,W
08EBE:  SUBLW  0F
08EC0:  BNZ   8F4E
08EC2:  MOVLW  13
08EC4:  ADDWF  34,W
08EC6:  MOVLB  7
08EC8:  MOVWF  xBA
08ECA:  MOVLW  03
08ECC:  MOVWF  xBC
08ECE:  MOVLW  FD
08ED0:  MOVWF  xBB
08ED2:  MOVLB  0
08ED4:  CALL   200A
08ED8:  BTFSS  01.0
08EDA:  BRA    8F4E
....................          delay_ms(5); 
08EDC:  MOVLW  05
08EDE:  MOVLB  7
08EE0:  MOVWF  xC9
08EE2:  MOVLB  0
08EE4:  CALL   1FA0
....................          if(RX_Buffer[4]==0x06 && RX_Buffer[5]==0x0f && estados[19+RX_Buffer[4]]){ 
08EE8:  MOVF   34,W
08EEA:  SUBLW  06
08EEC:  BNZ   8F4E
08EEE:  MOVF   35,W
08EF0:  SUBLW  0F
08EF2:  BNZ   8F4E
08EF4:  MOVLW  13
08EF6:  ADDWF  34,W
08EF8:  MOVLB  7
08EFA:  MOVWF  xBA
08EFC:  MOVLW  03
08EFE:  MOVWF  xBC
08F00:  MOVLW  FD
08F02:  MOVWF  xBB
08F04:  MOVLB  0
08F06:  CALL   200A
08F0A:  BTFSS  01.0
08F0C:  BRA    8F4E
....................             printf("page Funcionamiento"); 
08F0E:  MOVLW  22
08F10:  MOVWF  FF6
08F12:  MOVLW  0A
08F14:  MOVWF  FF7
08F16:  MOVLW  00
08F18:  MOVWF  FF8
08F1A:  CALL   3E66
....................             SendDataDisplay();        
08F1E:  CALL   3E98
....................             ConfiguraCiclo(0,15,0,20,0,6,121,7,25,0);   
08F22:  MOVLB  7
08F24:  CLRF   xBF
08F26:  MOVLW  0F
08F28:  MOVWF  xC0
08F2A:  CLRF   xC1
08F2C:  MOVLW  14
08F2E:  MOVWF  xC2
08F30:  CLRF   xC3
08F32:  MOVLW  06
08F34:  MOVWF  xC4
08F36:  MOVLW  79
08F38:  MOVWF  xC5
08F3A:  MOVLW  07
08F3C:  MOVWF  xC6
08F3E:  MOVLW  19
08F40:  MOVWF  xC7
08F42:  CLRF   xC8
08F44:  MOVLB  0
08F46:  CALL   595E
....................             Op=OFF; 
08F4A:  BCF    xA2.7
....................             Op2=OFF; 
08F4C:  BCF    xA3.0
....................          } 
....................       } 
....................        
....................       if(RX_Buffer[4]==0x07 && RX_Buffer[5]==0x0f && estados[19+RX_Buffer[4]]){//07, Envuelto Doble 2 
08F4E:  MOVF   34,W
08F50:  SUBLW  07
08F52:  BNZ   8FE4
08F54:  MOVF   35,W
08F56:  SUBLW  0F
08F58:  BNZ   8FE4
08F5A:  MOVLW  13
08F5C:  ADDWF  34,W
08F5E:  MOVLB  7
08F60:  MOVWF  xBA
08F62:  MOVLW  03
08F64:  MOVWF  xBC
08F66:  MOVLW  FD
08F68:  MOVWF  xBB
08F6A:  MOVLB  0
08F6C:  CALL   200A
08F70:  BTFSS  01.0
08F72:  BRA    8FE4
....................          delay_ms(5); 
08F74:  MOVLW  05
08F76:  MOVLB  7
08F78:  MOVWF  xC9
08F7A:  MOVLB  0
08F7C:  CALL   1FA0
....................          if(RX_Buffer[4]==0x07 && RX_Buffer[5]==0x0f && estados[19+RX_Buffer[4]]){ 
08F80:  MOVF   34,W
08F82:  SUBLW  07
08F84:  BNZ   8FE4
08F86:  MOVF   35,W
08F88:  SUBLW  0F
08F8A:  BNZ   8FE4
08F8C:  MOVLW  13
08F8E:  ADDWF  34,W
08F90:  MOVLB  7
08F92:  MOVWF  xBA
08F94:  MOVLW  03
08F96:  MOVWF  xBC
08F98:  MOVLW  FD
08F9A:  MOVWF  xBB
08F9C:  MOVLB  0
08F9E:  CALL   200A
08FA2:  BTFSS  01.0
08FA4:  BRA    8FE4
....................             printf("page Funcionamiento"); 
08FA6:  MOVLW  36
08FA8:  MOVWF  FF6
08FAA:  MOVLW  0A
08FAC:  MOVWF  FF7
08FAE:  MOVLW  00
08FB0:  MOVWF  FF8
08FB2:  CALL   3E66
....................             SendDataDisplay();        
08FB6:  CALL   3E98
....................             ConfiguraCiclo(0,30,0,30,0,7,121,7,25,0);   
08FBA:  MOVLB  7
08FBC:  CLRF   xBF
08FBE:  MOVLW  1E
08FC0:  MOVWF  xC0
08FC2:  CLRF   xC1
08FC4:  MOVWF  xC2
08FC6:  CLRF   xC3
08FC8:  MOVLW  07
08FCA:  MOVWF  xC4
08FCC:  MOVLW  79
08FCE:  MOVWF  xC5
08FD0:  MOVLW  07
08FD2:  MOVWF  xC6
08FD4:  MOVLW  19
08FD6:  MOVWF  xC7
08FD8:  CLRF   xC8
08FDA:  MOVLB  0
08FDC:  CALL   595E
....................             Op=OFF; 
08FE0:  BCF    xA2.7
....................             Op2=OFF; 
08FE2:  BCF    xA3.0
....................          } 
....................       } 
....................        
....................       if(RX_Buffer[4]==0x08 && RX_Buffer[5]==0x0f && estados[19+RX_Buffer[4]]){//08, Liquidos C 
08FE4:  MOVF   34,W
08FE6:  SUBLW  08
08FE8:  BNZ   9082
08FEA:  MOVF   35,W
08FEC:  SUBLW  0F
08FEE:  BNZ   9082
08FF0:  MOVLW  13
08FF2:  ADDWF  34,W
08FF4:  MOVLB  7
08FF6:  MOVWF  xBA
08FF8:  MOVLW  03
08FFA:  MOVWF  xBC
08FFC:  MOVLW  FD
08FFE:  MOVWF  xBB
09000:  MOVLB  0
09002:  CALL   200A
09006:  BTFSS  01.0
09008:  BRA    9082
....................          delay_ms(5); 
0900A:  MOVLW  05
0900C:  MOVLB  7
0900E:  MOVWF  xC9
09010:  MOVLB  0
09012:  CALL   1FA0
....................          if(RX_Buffer[4]==0x08 && RX_Buffer[5]==0x0f && estados[19+RX_Buffer[4]]){ 
09016:  MOVF   34,W
09018:  SUBLW  08
0901A:  BNZ   9082
0901C:  MOVF   35,W
0901E:  SUBLW  0F
09020:  BNZ   9082
09022:  MOVLW  13
09024:  ADDWF  34,W
09026:  MOVLB  7
09028:  MOVWF  xBA
0902A:  MOVLW  03
0902C:  MOVWF  xBC
0902E:  MOVLW  FD
09030:  MOVWF  xBB
09032:  MOVLB  0
09034:  CALL   200A
09038:  BTFSS  01.0
0903A:  BRA    9082
....................             printf("page NivelDes"); 
0903C:  MOVLW  4A
0903E:  MOVWF  FF6
09040:  MOVLW  0A
09042:  MOVWF  FF7
09044:  MOVLW  00
09046:  MOVWF  FF8
09048:  CALL   3E66
....................             SendDataDisplay();        
0904C:  CALL   3E98
....................             ConfiguraCiclo(0,30,0,0,1,8,121,0,0,0);   
09050:  MOVLB  7
09052:  CLRF   xBF
09054:  MOVLW  1E
09056:  MOVWF  xC0
09058:  CLRF   xC1
0905A:  CLRF   xC2
0905C:  MOVLW  01
0905E:  MOVWF  xC3
09060:  MOVLW  08
09062:  MOVWF  xC4
09064:  MOVLW  79
09066:  MOVWF  xC5
09068:  CLRF   xC6
0906A:  CLRF   xC7
0906C:  CLRF   xC8
0906E:  MOVLB  0
09070:  CALL   595E
....................             Op=OFF; 
09074:  BCF    xA2.7
....................             Op2=OFF; 
09076:  BCF    xA3.0
....................             MenuAnt=2; 
09078:  MOVLW  02
0907A:  MOVLB  3
0907C:  MOVWF  x4F
....................             flagLiquidos=ON; 
0907E:  MOVLB  0
09080:  BSF    xA7.1
....................          } 
....................       } 
....................        
....................       if(RX_Buffer[4]==0x09 && RX_Buffer[5]==0x0f && estados[19+RX_Buffer[4]]){//09, Solidos 
09082:  MOVF   34,W
09084:  SUBLW  09
09086:  BNZ   9114
09088:  MOVF   35,W
0908A:  SUBLW  0F
0908C:  BNZ   9114
0908E:  MOVLW  13
09090:  ADDWF  34,W
09092:  MOVLB  7
09094:  MOVWF  xBA
09096:  MOVLW  03
09098:  MOVWF  xBC
0909A:  MOVLW  FD
0909C:  MOVWF  xBB
0909E:  MOVLB  0
090A0:  CALL   200A
090A4:  BTFSS  01.0
090A6:  BRA    9114
....................          delay_ms(5); 
090A8:  MOVLW  05
090AA:  MOVLB  7
090AC:  MOVWF  xC9
090AE:  MOVLB  0
090B0:  CALL   1FA0
....................          if(RX_Buffer[4]==0x09 && RX_Buffer[5]==0x0f && estados[19+RX_Buffer[4]]){ 
090B4:  MOVF   34,W
090B6:  SUBLW  09
090B8:  BNZ   9114
090BA:  MOVF   35,W
090BC:  SUBLW  0F
090BE:  BNZ   9114
090C0:  MOVLW  13
090C2:  ADDWF  34,W
090C4:  MOVLB  7
090C6:  MOVWF  xBA
090C8:  MOVLW  03
090CA:  MOVWF  xBC
090CC:  MOVLW  FD
090CE:  MOVWF  xBB
090D0:  MOVLB  0
090D2:  CALL   200A
090D6:  BTFSS  01.0
090D8:  BRA    9114
....................             printf("page Funcionamiento"); 
090DA:  MOVLW  58
090DC:  MOVWF  FF6
090DE:  MOVLW  0A
090E0:  MOVWF  FF7
090E2:  MOVLW  00
090E4:  MOVWF  FF8
090E6:  CALL   3E66
....................             SendDataDisplay();        
090EA:  CALL   3E98
....................             ConfiguraCiclo(0,20,0,20,0,9,121,0,0,0);   
090EE:  MOVLB  7
090F0:  CLRF   xBF
090F2:  MOVLW  14
090F4:  MOVWF  xC0
090F6:  CLRF   xC1
090F8:  MOVWF  xC2
090FA:  CLRF   xC3
090FC:  MOVLW  09
090FE:  MOVWF  xC4
09100:  MOVLW  79
09102:  MOVWF  xC5
09104:  CLRF   xC6
09106:  CLRF   xC7
09108:  CLRF   xC8
0910A:  MOVLB  0
0910C:  CALL   595E
....................             Op=OFF; 
09110:  BCF    xA2.7
....................             Op2=OFF;            
09112:  BCF    xA3.0
....................          } 
....................       } 
....................        
....................       if(RX_Buffer[4]==0x0a && RX_Buffer[5]==0x0f && estados[19+RX_Buffer[4]]){//0a, Desinfeccion 
09114:  MOVF   34,W
09116:  SUBLW  0A
09118:  BNZ   91A4
0911A:  MOVF   35,W
0911C:  SUBLW  0F
0911E:  BNZ   91A4
09120:  MOVLW  13
09122:  ADDWF  34,W
09124:  MOVLB  7
09126:  MOVWF  xBA
09128:  MOVLW  03
0912A:  MOVWF  xBC
0912C:  MOVLW  FD
0912E:  MOVWF  xBB
09130:  MOVLB  0
09132:  CALL   200A
09136:  BTFSS  01.0
09138:  BRA    91A4
....................          delay_ms(5); 
0913A:  MOVLW  05
0913C:  MOVLB  7
0913E:  MOVWF  xC9
09140:  MOVLB  0
09142:  CALL   1FA0
....................          if(RX_Buffer[4]==0x0a && RX_Buffer[5]==0x0f && estados[19+RX_Buffer[4]]){ 
09146:  MOVF   34,W
09148:  SUBLW  0A
0914A:  BNZ   91A4
0914C:  MOVF   35,W
0914E:  SUBLW  0F
09150:  BNZ   91A4
09152:  MOVLW  13
09154:  ADDWF  34,W
09156:  MOVLB  7
09158:  MOVWF  xBA
0915A:  MOVLW  03
0915C:  MOVWF  xBC
0915E:  MOVLW  FD
09160:  MOVWF  xBB
09162:  MOVLB  0
09164:  CALL   200A
09168:  BTFSS  01.0
0916A:  BRA    91A4
....................             printf("page Funcionamiento"); 
0916C:  MOVLW  6C
0916E:  MOVWF  FF6
09170:  MOVLW  0A
09172:  MOVWF  FF7
09174:  MOVLW  00
09176:  MOVWF  FF8
09178:  CALL   3E66
....................             SendDataDisplay();        
0917C:  CALL   3E98
....................             ConfiguraCiclo(0,25,0,15,0,10,105,0,0,0);   
09180:  MOVLB  7
09182:  CLRF   xBF
09184:  MOVLW  19
09186:  MOVWF  xC0
09188:  CLRF   xC1
0918A:  MOVLW  0F
0918C:  MOVWF  xC2
0918E:  CLRF   xC3
09190:  MOVLW  0A
09192:  MOVWF  xC4
09194:  MOVLW  69
09196:  MOVWF  xC5
09198:  CLRF   xC6
0919A:  CLRF   xC7
0919C:  CLRF   xC8
0919E:  MOVLB  0
091A0:  CALL   595E
....................          } 
....................       } 
....................        
....................       if(RX_Buffer[4]==0xa0){//a0, Ciclos Fijos 
091A4:  MOVF   34,W
091A6:  SUBLW  A0
091A8:  BNZ   91BE
....................          printf("page MenuPrincipal"); 
091AA:  MOVLW  80
091AC:  MOVWF  FF6
091AE:  MOVLW  0A
091B0:  MOVWF  FF7
091B2:  MOVLW  00
091B4:  MOVWF  FF8
091B6:  CALL   3E66
....................          SendDataDisplay();      
091BA:  CALL   3E98
....................       } 
....................        
....................       if(RX_Buffer[4]==0xb0){//b0, Personalizados 
091BE:  MOVF   34,W
091C0:  SUBLW  B0
091C2:  BNZ   91D8
....................          printf("page CicloPersona"); 
091C4:  MOVLW  94
091C6:  MOVWF  FF6
091C8:  MOVLW  0A
091CA:  MOVWF  FF7
091CC:  MOVLW  00
091CE:  MOVWF  FF8
091D0:  CALL   3E66
....................          SendDataDisplay();      
091D4:  CALL   3E98
....................       } 
....................        
....................       if(RX_Buffer[4]==0xc0){//c0, Configuraciones 
091D8:  MOVF   34,W
091DA:  SUBLW  C0
091DC:  BNZ   91FC
....................          if(codigoUsuario==0 || codigoUsuario==9){        
091DE:  MOVF   xC8,F
091E0:  BZ    91E8
091E2:  MOVF   xC8,W
091E4:  SUBLW  09
091E6:  BNZ   91FC
....................             printf("page Ajustes"); 
091E8:  MOVLW  A6
091EA:  MOVWF  FF6
091EC:  MOVLW  0A
091EE:  MOVWF  FF7
091F0:  MOVLW  00
091F2:  MOVWF  FF8
091F4:  CALL   3E66
....................             SendDataDisplay();      
091F8:  CALL   3E98
091FC:  MOVLB  3
....................          } 
....................       } 
....................    } 
.................... //_--------------------------------------------------------------------------------------------------------------------------------------------------------        
....................  
.................... //_-------------------------------------------------------------------------------------------------------------------------------------------------------- 
....................       if(Menu==2){ //Menu de Tiempo Esterilizacion      
091FE:  MOVF   x4E,W
09200:  SUBLW  02
09202:  BTFSS  FD8.2
09204:  BRA    94F6
....................          printf("fecha.txt=\"T:%2.1fC Fecha:%02u/%02u/20%02u Hora:%02u:%02u:%02u\"",Temperatura,Dia,Mes,Year,Hora,Minuto,Segundo); 
09206:  MOVLW  B4
09208:  MOVWF  FF6
0920A:  MOVLW  0A
0920C:  MOVWF  FF7
0920E:  MOVLW  00
09210:  MOVWF  FF8
09212:  MOVLW  0D
09214:  MOVLB  7
09216:  MOVWF  xBE
09218:  MOVLB  0
0921A:  CALL   55F4
0921E:  MOVLW  01
09220:  MOVWF  FE9
09222:  MOVFF  31B,7C1
09226:  MOVFF  31A,7C0
0922A:  MOVFF  319,7BF
0922E:  MOVFF  318,7BE
09232:  MOVLB  7
09234:  MOVWF  xC2
09236:  MOVLB  0
09238:  CALL   5710
0923C:  MOVLW  C6
0923E:  MOVWF  FF6
09240:  MOVLW  0A
09242:  MOVWF  FF7
09244:  MOVLW  00
09246:  MOVWF  FF8
09248:  MOVLW  09
0924A:  MOVLB  7
0924C:  MOVWF  xBE
0924E:  MOVLB  0
09250:  CALL   55F4
09254:  MOVFF  386,7BE
09258:  MOVLW  01
0925A:  MOVLB  7
0925C:  MOVWF  xBF
0925E:  MOVLB  0
09260:  CALL   58E0
09264:  MOVLW  2F
09266:  BTFSS  F9E.4
09268:  BRA    9266
0926A:  MOVWF  FAD
0926C:  MOVFF  385,7BE
09270:  MOVLW  01
09272:  MOVLB  7
09274:  MOVWF  xBF
09276:  MOVLB  0
09278:  CALL   58E0
0927C:  MOVLW  2F
0927E:  BTFSS  F9E.4
09280:  BRA    927E
09282:  MOVWF  FAD
09284:  MOVLW  32
09286:  BTFSS  F9E.4
09288:  BRA    9286
0928A:  MOVWF  FAD
0928C:  MOVLW  30
0928E:  BTFSS  F9E.4
09290:  BRA    928E
09292:  MOVWF  FAD
09294:  MOVFF  384,7BE
09298:  MOVLW  01
0929A:  MOVLB  7
0929C:  MOVWF  xBF
0929E:  MOVLB  0
092A0:  CALL   58E0
092A4:  MOVLW  DF
092A6:  MOVWF  FF6
092A8:  MOVLW  0A
092AA:  MOVWF  FF7
092AC:  MOVLW  00
092AE:  MOVWF  FF8
092B0:  MOVLW  06
092B2:  MOVLB  7
092B4:  MOVWF  xBE
092B6:  MOVLB  0
092B8:  CALL   55F4
092BC:  MOVFF  387,7BE
092C0:  MOVLW  01
092C2:  MOVLB  7
092C4:  MOVWF  xBF
092C6:  MOVLB  0
092C8:  CALL   58E0
092CC:  MOVLW  3A
092CE:  BTFSS  F9E.4
092D0:  BRA    92CE
092D2:  MOVWF  FAD
092D4:  MOVFF  388,7BE
092D8:  MOVLW  01
092DA:  MOVLB  7
092DC:  MOVWF  xBF
092DE:  MOVLB  0
092E0:  CALL   58E0
092E4:  MOVLW  3A
092E6:  BTFSS  F9E.4
092E8:  BRA    92E6
092EA:  MOVWF  FAD
092EC:  MOVFF  389,7BE
092F0:  MOVLW  01
092F2:  MOVLB  7
092F4:  MOVWF  xBF
092F6:  MOVLB  0
092F8:  CALL   58E0
092FC:  MOVLW  22
092FE:  BTFSS  F9E.4
09300:  BRA    92FE
09302:  MOVWF  FAD
....................          SendDataDisplay(); 
09304:  CALL   3E98
....................          if(RX_Buffer[4]==0x0a){//Selecciono Minutos 
09308:  MOVF   34,W
0930A:  SUBLW  0A
0930C:  BNZ   9312
....................             Minutos=ON; 
0930E:  BSF    xA3.1
....................             Segundos=OFF; 
09310:  BCF    xA3.2
....................          } 
....................           
....................          if(RX_Buffer[4]==0x0b){//Selecciono Segundos 
09312:  MOVF   34,W
09314:  SUBLW  0B
09316:  BNZ   931C
....................             Segundos=ON; 
09318:  BSF    xA3.2
....................             Minutos=OFF; 
0931A:  BCF    xA3.1
....................          }            
....................           
....................          if(RX_Buffer[4]==0x11){//Selecciono Regresar             
0931C:  MOVF   34,W
0931E:  SUBLW  11
09320:  BTFSS  FD8.2
09322:  BRA    9436
....................                Segundos=OFF; 
09324:  BCF    xA3.2
....................                Minutos=OFF; 
09326:  BCF    xA3.1
....................                printf("page CicloPersona"); 
09328:  MOVLW  F6
0932A:  MOVWF  FF6
0932C:  MOVLW  0A
0932E:  MOVWF  FF7
09330:  MOVLW  00
09332:  MOVWF  FF8
09334:  CALL   3E66
....................                SendDataDisplay();   
09338:  CALL   3E98
....................                if(!GuardaEEPROM){ 
0933C:  BTFSC  xA3.3
0933E:  BRA    9436
....................                   CiclosPersonalizados[CicloLibre-1].Minutoest=mEstp; 
09340:  MOVLW  01
09342:  MOVLB  3
09344:  SUBWF  x32,W
09346:  MULLW  0A
09348:  MOVF   FF3,W
0934A:  MOVLB  7
0934C:  CLRF   xBA
0934E:  MOVWF  xB9
09350:  MOVLW  09
09352:  ADDWF  xB9,W
09354:  MOVWF  01
09356:  MOVLW  00
09358:  ADDWFC xBA,W
0935A:  MOVWF  03
0935C:  MOVF   01,W
0935E:  ADDLW  C9
09360:  MOVWF  FE9
09362:  MOVLW  06
09364:  ADDWFC 03,W
09366:  MOVWF  FEA
09368:  MOVFF  C3,FEF
....................                   CiclosPersonalizados[CicloLibre-1].Segundoest=sEstp; 
0936C:  MOVLW  01
0936E:  MOVLB  3
09370:  SUBWF  x32,W
09372:  MULLW  0A
09374:  MOVF   FF3,W
09376:  MOVLB  7
09378:  CLRF   xBA
0937A:  MOVWF  xB9
0937C:  MOVLW  03
0937E:  ADDWF  xB9,W
09380:  MOVWF  01
09382:  MOVLW  00
09384:  ADDWFC xBA,W
09386:  MOVWF  03
09388:  MOVF   01,W
0938A:  ADDLW  C9
0938C:  MOVWF  FE9
0938E:  MOVLW  06
09390:  ADDWFC 03,W
09392:  MOVWF  FEA
09394:  MOVFF  C2,FEF
....................                   write_eeprom(101+((CicloLibre-1)*8),mEstp); 
09398:  MOVLW  01
0939A:  MOVLB  3
0939C:  SUBWF  x32,W
0939E:  MULLW  08
093A0:  MOVF   FF3,W
093A2:  ADDLW  65
093A4:  MOVLB  7
093A6:  MOVWF  xB9
093A8:  CLRF   FAA
093AA:  MOVFF  7B9,FA9
093AE:  MOVFF  C3,FA8
093B2:  BCF    FA6.6
093B4:  BCF    FA6.7
093B6:  BSF    FA6.2
093B8:  MOVF   FF2,W
093BA:  MOVWF  00
093BC:  BCF    FF2.6
093BE:  BCF    FF2.7
093C0:  MOVLB  F
093C2:  MOVLW  55
093C4:  MOVWF  FA7
093C6:  MOVLW  AA
093C8:  MOVWF  FA7
093CA:  BSF    FA6.1
093CC:  BTFSC  FA6.1
093CE:  BRA    93CC
093D0:  BCF    FA6.2
093D2:  MOVF   00,W
093D4:  IORWF  FF2,F
....................                   delay_ms(10); 
093D6:  MOVLW  0A
093D8:  MOVLB  7
093DA:  MOVWF  xC9
093DC:  MOVLB  0
093DE:  CALL   1FA0
....................                   write_eeprom(102+((CicloLibre-1)*8),sEstp); 
093E2:  MOVLW  01
093E4:  MOVLB  3
093E6:  SUBWF  x32,W
093E8:  MULLW  08
093EA:  MOVF   FF3,W
093EC:  ADDLW  66
093EE:  MOVLB  7
093F0:  MOVWF  xB9
093F2:  CLRF   FAA
093F4:  MOVFF  7B9,FA9
093F8:  MOVFF  C2,FA8
093FC:  BCF    FA6.6
093FE:  BCF    FA6.7
09400:  BSF    FA6.2
09402:  MOVF   FF2,W
09404:  MOVWF  00
09406:  BCF    FF2.6
09408:  BCF    FF2.7
0940A:  MOVLB  F
0940C:  MOVLW  55
0940E:  MOVWF  FA7
09410:  MOVLW  AA
09412:  MOVWF  FA7
09414:  BSF    FA6.1
09416:  BTFSC  FA6.1
09418:  BRA    9416
0941A:  BCF    FA6.2
0941C:  MOVF   00,W
0941E:  IORWF  FF2,F
....................                   delay_ms(10); 
09420:  MOVLW  0A
09422:  MOVLB  7
09424:  MOVWF  xC9
09426:  MOVLB  0
09428:  CALL   1FA0
....................                   mEst=mEstp; 
0942C:  MOVFF  C3,BF
....................                   sEst=sEstp; 
09430:  MOVFF  C2,BE
....................                   GuardaEEPROM=ON; 
09434:  BSF    xA3.3
....................                } 
....................          } 
....................           
....................          if(RX_Buffer[4]==0x0c || RX_Buffer[4]==0x0d){//Tecla arriba Oprimida 
09436:  MOVF   34,W
09438:  SUBLW  0C
0943A:  BZ    9442
0943C:  MOVF   34,W
0943E:  SUBLW  0D
09440:  BNZ   9452
....................             if(Segundos){ 
09442:  BTFSS  xA3.2
09444:  BRA    9448
....................                sEstp++; 
09446:  INCF   xC2,F
....................             } 
....................             if(Minutos){ 
09448:  BTFSS  xA3.1
0944A:  BRA    944E
....................                mEstp++; 
0944C:  INCF   xC3,F
....................             }   
....................             RX_Buffer[4]=0x00;   
0944E:  CLRF   34
....................             RX_Buffer2[4]=0x00; 
09450:  CLRF   3F
....................          } 
....................           
....................          if(RX_Buffer[4]==0x0f || RX_Buffer[4]==0x0e){//Tecla abajo oprimida 
09452:  MOVF   34,W
09454:  SUBLW  0F
09456:  BZ    945E
09458:  MOVF   34,W
0945A:  SUBLW  0E
0945C:  BNZ   9472
....................             if(Segundos && sEstp>0){ 
0945E:  BTFSS  xA3.2
09460:  BRA    9468
09462:  MOVF   xC2,F
09464:  BZ    9468
....................                sEstp--; 
09466:  DECF   xC2,F
....................             } 
....................             if(Minutos){ 
09468:  BTFSS  xA3.1
0946A:  BRA    946E
....................                mEstp--; 
0946C:  DECF   xC3,F
....................             } 
....................             RX_Buffer[4]=0x00;   
0946E:  CLRF   34
....................             RX_Buffer2[4]=0x00; 
09470:  CLRF   3F
....................          } 
....................           
....................          if(mEstp<1)mEstp=99; 
09472:  MOVF   xC3,F
09474:  BNZ   947A
09476:  MOVLW  63
09478:  MOVWF  xC3
....................          if(mEstp>99)mEstp=1; 
0947A:  MOVF   xC3,W
0947C:  SUBLW  63
0947E:  BC    9484
09480:  MOVLW  01
09482:  MOVWF  xC3
....................          if(sEstp>59)sEstp=0; 
09484:  MOVF   xC2,W
09486:  SUBLW  3B
09488:  BTFSS  FD8.0
0948A:  CLRF   xC2
....................              
....................          printf("tminest.txt=\"%02u\"",mEstp); 
0948C:  MOVLW  08
0948E:  MOVWF  FF6
09490:  MOVLW  0B
09492:  MOVWF  FF7
09494:  MOVLW  00
09496:  MOVWF  FF8
09498:  MOVLW  0D
0949A:  MOVLB  7
0949C:  MOVWF  xBE
0949E:  MOVLB  0
094A0:  CALL   55F4
094A4:  MOVFF  C3,7BE
094A8:  MOVLW  01
094AA:  MOVLB  7
094AC:  MOVWF  xBF
094AE:  MOVLB  0
094B0:  CALL   58E0
094B4:  MOVLW  22
094B6:  BTFSS  F9E.4
094B8:  BRA    94B6
094BA:  MOVWF  FAD
....................          SendDataDisplay(); 
094BC:  CALL   3E98
....................          printf("tsecest.txt=\"%02u\"",sEstp); 
094C0:  MOVLW  1C
094C2:  MOVWF  FF6
094C4:  MOVLW  0B
094C6:  MOVWF  FF7
094C8:  MOVLW  00
094CA:  MOVWF  FF8
094CC:  MOVLW  0D
094CE:  MOVLB  7
094D0:  MOVWF  xBE
094D2:  MOVLB  0
094D4:  CALL   55F4
094D8:  MOVFF  C2,7BE
094DC:  MOVLW  01
094DE:  MOVLB  7
094E0:  MOVWF  xBF
094E2:  MOVLB  0
094E4:  CALL   58E0
094E8:  MOVLW  22
094EA:  BTFSS  F9E.4
094EC:  BRA    94EA
094EE:  MOVWF  FAD
....................          SendDataDisplay(); 
094F0:  CALL   3E98
094F4:  MOVLB  3
....................     } 
.................... //_--------------------------------------------------------------------------------------------------------------------------------------------------------        
....................  
.................... //_-------------------------------------------------------------------------------------------------------------------------------------------------------- 
....................     if(Menu==3){ //Menu de Tiempo de Secado 
094F6:  MOVF   x4E,W
094F8:  SUBLW  03
094FA:  BTFSS  FD8.2
094FC:  BRA    97EE
....................       printf("fecha.txt=\"T:%2.1fC Fecha:%02u/%02u/20%02u Hora:%02u:%02u:%02u\"",Temperatura,Dia,Mes,Year,Hora,Minuto,Segundo); 
094FE:  MOVLW  30
09500:  MOVWF  FF6
09502:  MOVLW  0B
09504:  MOVWF  FF7
09506:  MOVLW  00
09508:  MOVWF  FF8
0950A:  MOVLW  0D
0950C:  MOVLB  7
0950E:  MOVWF  xBE
09510:  MOVLB  0
09512:  CALL   55F4
09516:  MOVLW  01
09518:  MOVWF  FE9
0951A:  MOVFF  31B,7C1
0951E:  MOVFF  31A,7C0
09522:  MOVFF  319,7BF
09526:  MOVFF  318,7BE
0952A:  MOVLB  7
0952C:  MOVWF  xC2
0952E:  MOVLB  0
09530:  CALL   5710
09534:  MOVLW  42
09536:  MOVWF  FF6
09538:  MOVLW  0B
0953A:  MOVWF  FF7
0953C:  MOVLW  00
0953E:  MOVWF  FF8
09540:  MOVLW  09
09542:  MOVLB  7
09544:  MOVWF  xBE
09546:  MOVLB  0
09548:  CALL   55F4
0954C:  MOVFF  386,7BE
09550:  MOVLW  01
09552:  MOVLB  7
09554:  MOVWF  xBF
09556:  MOVLB  0
09558:  CALL   58E0
0955C:  MOVLW  2F
0955E:  BTFSS  F9E.4
09560:  BRA    955E
09562:  MOVWF  FAD
09564:  MOVFF  385,7BE
09568:  MOVLW  01
0956A:  MOVLB  7
0956C:  MOVWF  xBF
0956E:  MOVLB  0
09570:  CALL   58E0
09574:  MOVLW  2F
09576:  BTFSS  F9E.4
09578:  BRA    9576
0957A:  MOVWF  FAD
0957C:  MOVLW  32
0957E:  BTFSS  F9E.4
09580:  BRA    957E
09582:  MOVWF  FAD
09584:  MOVLW  30
09586:  BTFSS  F9E.4
09588:  BRA    9586
0958A:  MOVWF  FAD
0958C:  MOVFF  384,7BE
09590:  MOVLW  01
09592:  MOVLB  7
09594:  MOVWF  xBF
09596:  MOVLB  0
09598:  CALL   58E0
0959C:  MOVLW  5B
0959E:  MOVWF  FF6
095A0:  MOVLW  0B
095A2:  MOVWF  FF7
095A4:  MOVLW  00
095A6:  MOVWF  FF8
095A8:  MOVLW  06
095AA:  MOVLB  7
095AC:  MOVWF  xBE
095AE:  MOVLB  0
095B0:  CALL   55F4
095B4:  MOVFF  387,7BE
095B8:  MOVLW  01
095BA:  MOVLB  7
095BC:  MOVWF  xBF
095BE:  MOVLB  0
095C0:  CALL   58E0
095C4:  MOVLW  3A
095C6:  BTFSS  F9E.4
095C8:  BRA    95C6
095CA:  MOVWF  FAD
095CC:  MOVFF  388,7BE
095D0:  MOVLW  01
095D2:  MOVLB  7
095D4:  MOVWF  xBF
095D6:  MOVLB  0
095D8:  CALL   58E0
095DC:  MOVLW  3A
095DE:  BTFSS  F9E.4
095E0:  BRA    95DE
095E2:  MOVWF  FAD
095E4:  MOVFF  389,7BE
095E8:  MOVLW  01
095EA:  MOVLB  7
095EC:  MOVWF  xBF
095EE:  MOVLB  0
095F0:  CALL   58E0
095F4:  MOVLW  22
095F6:  BTFSS  F9E.4
095F8:  BRA    95F6
095FA:  MOVWF  FAD
....................       SendDataDisplay();             
095FC:  CALL   3E98
....................              
....................          if(RX_Buffer[4]==0x0a){//Selecciono Minutos 
09600:  MOVF   34,W
09602:  SUBLW  0A
09604:  BNZ   960A
....................             Minutos=ON; 
09606:  BSF    xA3.1
....................             Segundos=OFF; 
09608:  BCF    xA3.2
....................          } 
....................           
....................          if(RX_Buffer[4]==0x0b){//Selecciono Segundos 
0960A:  MOVF   34,W
0960C:  SUBLW  0B
0960E:  BNZ   9614
....................             Segundos=ON; 
09610:  BSF    xA3.2
....................             Minutos=OFF; 
09612:  BCF    xA3.1
....................          } 
....................           
....................          if(RX_Buffer[4]==0x11){//Selecciono Regresar 
09614:  MOVF   34,W
09616:  SUBLW  11
09618:  BTFSS  FD8.2
0961A:  BRA    972E
....................             Segundos=OFF; 
0961C:  BCF    xA3.2
....................             Minutos=OFF; 
0961E:  BCF    xA3.1
....................             printf("page CicloPersona"); 
09620:  MOVLW  72
09622:  MOVWF  FF6
09624:  MOVLW  0B
09626:  MOVWF  FF7
09628:  MOVLW  00
0962A:  MOVWF  FF8
0962C:  CALL   3E66
....................             SendDataDisplay();   
09630:  CALL   3E98
....................             if(!GuardaEEPROM){ 
09634:  BTFSC  xA3.3
09636:  BRA    972E
....................                CiclosPersonalizados[CicloLibre-1].Minutosec=mSecp; 
09638:  MOVLW  01
0963A:  MOVLB  3
0963C:  SUBWF  x32,W
0963E:  MULLW  0A
09640:  MOVF   FF3,W
09642:  MOVLB  7
09644:  CLRF   xBA
09646:  MOVWF  xB9
09648:  MOVLW  04
0964A:  ADDWF  xB9,W
0964C:  MOVWF  01
0964E:  MOVLW  00
09650:  ADDWFC xBA,W
09652:  MOVWF  03
09654:  MOVF   01,W
09656:  ADDLW  C9
09658:  MOVWF  FE9
0965A:  MOVLW  06
0965C:  ADDWFC 03,W
0965E:  MOVWF  FEA
09660:  MOVFF  C5,FEF
....................                CiclosPersonalizados[CicloLibre-1].Segundosec=sSecp; 
09664:  MOVLW  01
09666:  MOVLB  3
09668:  SUBWF  x32,W
0966A:  MULLW  0A
0966C:  MOVF   FF3,W
0966E:  MOVLB  7
09670:  CLRF   xBA
09672:  MOVWF  xB9
09674:  MOVLW  05
09676:  ADDWF  xB9,W
09678:  MOVWF  01
0967A:  MOVLW  00
0967C:  ADDWFC xBA,W
0967E:  MOVWF  03
09680:  MOVF   01,W
09682:  ADDLW  C9
09684:  MOVWF  FE9
09686:  MOVLW  06
09688:  ADDWFC 03,W
0968A:  MOVWF  FEA
0968C:  MOVFF  C4,FEF
....................                write_eeprom(103+((CicloLibre-1)*8),mSecp); 
09690:  MOVLW  01
09692:  MOVLB  3
09694:  SUBWF  x32,W
09696:  MULLW  08
09698:  MOVF   FF3,W
0969A:  ADDLW  67
0969C:  MOVLB  7
0969E:  MOVWF  xB9
096A0:  CLRF   FAA
096A2:  MOVFF  7B9,FA9
096A6:  MOVFF  C5,FA8
096AA:  BCF    FA6.6
096AC:  BCF    FA6.7
096AE:  BSF    FA6.2
096B0:  MOVF   FF2,W
096B2:  MOVWF  00
096B4:  BCF    FF2.6
096B6:  BCF    FF2.7
096B8:  MOVLB  F
096BA:  MOVLW  55
096BC:  MOVWF  FA7
096BE:  MOVLW  AA
096C0:  MOVWF  FA7
096C2:  BSF    FA6.1
096C4:  BTFSC  FA6.1
096C6:  BRA    96C4
096C8:  BCF    FA6.2
096CA:  MOVF   00,W
096CC:  IORWF  FF2,F
....................                delay_ms(10); 
096CE:  MOVLW  0A
096D0:  MOVLB  7
096D2:  MOVWF  xC9
096D4:  MOVLB  0
096D6:  CALL   1FA0
....................                write_eeprom(104+((CicloLibre-1)*8),sSecp); 
096DA:  MOVLW  01
096DC:  MOVLB  3
096DE:  SUBWF  x32,W
096E0:  MULLW  08
096E2:  MOVF   FF3,W
096E4:  ADDLW  68
096E6:  MOVLB  7
096E8:  MOVWF  xB9
096EA:  CLRF   FAA
096EC:  MOVFF  7B9,FA9
096F0:  MOVFF  C4,FA8
096F4:  BCF    FA6.6
096F6:  BCF    FA6.7
096F8:  BSF    FA6.2
096FA:  MOVF   FF2,W
096FC:  MOVWF  00
096FE:  BCF    FF2.6
09700:  BCF    FF2.7
09702:  MOVLB  F
09704:  MOVLW  55
09706:  MOVWF  FA7
09708:  MOVLW  AA
0970A:  MOVWF  FA7
0970C:  BSF    FA6.1
0970E:  BTFSC  FA6.1
09710:  BRA    970E
09712:  BCF    FA6.2
09714:  MOVF   00,W
09716:  IORWF  FF2,F
....................                delay_ms(10); 
09718:  MOVLW  0A
0971A:  MOVLB  7
0971C:  MOVWF  xC9
0971E:  MOVLB  0
09720:  CALL   1FA0
....................                mSec=mSecp; 
09724:  MOVFF  C5,C1
....................                sSec=sSecp; 
09728:  MOVFF  C4,C0
....................                GuardaEEPROM=ON; 
0972C:  BSF    xA3.3
....................             } 
....................          } 
....................           
....................          if(RX_Buffer[4]==0x0c || RX_Buffer[4]==0x0d){//Tecla Derecha Oprimida 
0972E:  MOVF   34,W
09730:  SUBLW  0C
09732:  BZ    973A
09734:  MOVF   34,W
09736:  SUBLW  0D
09738:  BNZ   974A
....................             if(Segundos){ 
0973A:  BTFSS  xA3.2
0973C:  BRA    9740
....................                sSecp++; 
0973E:  INCF   xC4,F
....................             } 
....................             if(Minutos){ 
09740:  BTFSS  xA3.1
09742:  BRA    9746
....................                mSecp++; 
09744:  INCF   xC5,F
....................             }   
....................             RX_Buffer[4]=0x00;   
09746:  CLRF   34
....................             RX_Buffer2[4]=0x00;  
09748:  CLRF   3F
....................          } 
....................           
....................          if(RX_Buffer[4]==0x0f || RX_Buffer[4]==0x0e){//Tecla Izquierda Oprimida 
0974A:  MOVF   34,W
0974C:  SUBLW  0F
0974E:  BZ    9756
09750:  MOVF   34,W
09752:  SUBLW  0E
09754:  BNZ   976A
....................             if(Segundos && sSecp>0){ 
09756:  BTFSS  xA3.2
09758:  BRA    9760
0975A:  MOVF   xC4,F
0975C:  BZ    9760
....................                sSecp--; 
0975E:  DECF   xC4,F
....................             } 
....................             if(Minutos){ 
09760:  BTFSS  xA3.1
09762:  BRA    9766
....................                mSecp--; 
09764:  DECF   xC5,F
....................             }  
....................             RX_Buffer[4]=0x00;   
09766:  CLRF   34
....................             RX_Buffer2[4]=0x00;             
09768:  CLRF   3F
....................          } 
....................          if(mSecp<1)mSecp=99; 
0976A:  MOVF   xC5,F
0976C:  BNZ   9772
0976E:  MOVLW  63
09770:  MOVWF  xC5
....................          if(mSecp>99)mSecp=1; 
09772:  MOVF   xC5,W
09774:  SUBLW  63
09776:  BC    977C
09778:  MOVLW  01
0977A:  MOVWF  xC5
....................          if(sSecp>59)mSecp=0; 
0977C:  MOVF   xC4,W
0977E:  SUBLW  3B
09780:  BTFSS  FD8.0
09782:  CLRF   xC5
....................              
....................       printf("tminsec.txt=\"%02u\"",mSecp); 
09784:  MOVLW  84
09786:  MOVWF  FF6
09788:  MOVLW  0B
0978A:  MOVWF  FF7
0978C:  MOVLW  00
0978E:  MOVWF  FF8
09790:  MOVLW  0D
09792:  MOVLB  7
09794:  MOVWF  xBE
09796:  MOVLB  0
09798:  CALL   55F4
0979C:  MOVFF  C5,7BE
097A0:  MOVLW  01
097A2:  MOVLB  7
097A4:  MOVWF  xBF
097A6:  MOVLB  0
097A8:  CALL   58E0
097AC:  MOVLW  22
097AE:  BTFSS  F9E.4
097B0:  BRA    97AE
097B2:  MOVWF  FAD
....................       SendDataDisplay(); 
097B4:  CALL   3E98
....................       printf("tsecsec.txt=\"%02u\"",sSecp); 
097B8:  MOVLW  98
097BA:  MOVWF  FF6
097BC:  MOVLW  0B
097BE:  MOVWF  FF7
097C0:  MOVLW  00
097C2:  MOVWF  FF8
097C4:  MOVLW  0D
097C6:  MOVLB  7
097C8:  MOVWF  xBE
097CA:  MOVLB  0
097CC:  CALL   55F4
097D0:  MOVFF  C4,7BE
097D4:  MOVLW  01
097D6:  MOVLB  7
097D8:  MOVWF  xBF
097DA:  MOVLB  0
097DC:  CALL   58E0
097E0:  MOVLW  22
097E2:  BTFSS  F9E.4
097E4:  BRA    97E2
097E6:  MOVWF  FAD
....................       SendDataDisplay(); 
097E8:  CALL   3E98
097EC:  MOVLB  3
....................     } 
.................... //_--------------------------------------------------------------------------------------------------------------------------------------------------------        
....................  
.................... //_-------------------------------------------------------------------------------------------------------------------------------------------------------- 
....................     if(Menu==4){ //Menu de Temperatura 
097EE:  MOVF   x4E,W
097F0:  SUBLW  04
097F2:  BTFSS  FD8.2
097F4:  BRA    99FA
....................       printf("fecha.txt=\"T:%2.1fC Fecha:%02u/%02u/20%02u Hora:%02u:%02u:%02u\"",Temperatura,Dia,Mes,Year,Hora,Minuto,Segundo); 
097F6:  MOVLW  AC
097F8:  MOVWF  FF6
097FA:  MOVLW  0B
097FC:  MOVWF  FF7
097FE:  MOVLW  00
09800:  MOVWF  FF8
09802:  MOVLW  0D
09804:  MOVLB  7
09806:  MOVWF  xBE
09808:  MOVLB  0
0980A:  CALL   55F4
0980E:  MOVLW  01
09810:  MOVWF  FE9
09812:  MOVFF  31B,7C1
09816:  MOVFF  31A,7C0
0981A:  MOVFF  319,7BF
0981E:  MOVFF  318,7BE
09822:  MOVLB  7
09824:  MOVWF  xC2
09826:  MOVLB  0
09828:  CALL   5710
0982C:  MOVLW  BE
0982E:  MOVWF  FF6
09830:  MOVLW  0B
09832:  MOVWF  FF7
09834:  MOVLW  00
09836:  MOVWF  FF8
09838:  MOVLW  09
0983A:  MOVLB  7
0983C:  MOVWF  xBE
0983E:  MOVLB  0
09840:  CALL   55F4
09844:  MOVFF  386,7BE
09848:  MOVLW  01
0984A:  MOVLB  7
0984C:  MOVWF  xBF
0984E:  MOVLB  0
09850:  CALL   58E0
09854:  MOVLW  2F
09856:  BTFSS  F9E.4
09858:  BRA    9856
0985A:  MOVWF  FAD
0985C:  MOVFF  385,7BE
09860:  MOVLW  01
09862:  MOVLB  7
09864:  MOVWF  xBF
09866:  MOVLB  0
09868:  CALL   58E0
0986C:  MOVLW  2F
0986E:  BTFSS  F9E.4
09870:  BRA    986E
09872:  MOVWF  FAD
09874:  MOVLW  32
09876:  BTFSS  F9E.4
09878:  BRA    9876
0987A:  MOVWF  FAD
0987C:  MOVLW  30
0987E:  BTFSS  F9E.4
09880:  BRA    987E
09882:  MOVWF  FAD
09884:  MOVFF  384,7BE
09888:  MOVLW  01
0988A:  MOVLB  7
0988C:  MOVWF  xBF
0988E:  MOVLB  0
09890:  CALL   58E0
09894:  MOVLW  D7
09896:  MOVWF  FF6
09898:  MOVLW  0B
0989A:  MOVWF  FF7
0989C:  MOVLW  00
0989E:  MOVWF  FF8
098A0:  MOVLW  06
098A2:  MOVLB  7
098A4:  MOVWF  xBE
098A6:  MOVLB  0
098A8:  CALL   55F4
098AC:  MOVFF  387,7BE
098B0:  MOVLW  01
098B2:  MOVLB  7
098B4:  MOVWF  xBF
098B6:  MOVLB  0
098B8:  CALL   58E0
098BC:  MOVLW  3A
098BE:  BTFSS  F9E.4
098C0:  BRA    98BE
098C2:  MOVWF  FAD
098C4:  MOVFF  388,7BE
098C8:  MOVLW  01
098CA:  MOVLB  7
098CC:  MOVWF  xBF
098CE:  MOVLB  0
098D0:  CALL   58E0
098D4:  MOVLW  3A
098D6:  BTFSS  F9E.4
098D8:  BRA    98D6
098DA:  MOVWF  FAD
098DC:  MOVFF  389,7BE
098E0:  MOVLW  01
098E2:  MOVLB  7
098E4:  MOVWF  xBF
098E6:  MOVLB  0
098E8:  CALL   58E0
098EC:  MOVLW  22
098EE:  BTFSS  F9E.4
098F0:  BRA    98EE
098F2:  MOVWF  FAD
....................       SendDataDisplay(); 
098F4:  CALL   3E98
....................          if(Setpoint<105) 
098F8:  MOVLB  3
098FA:  MOVF   x55,W
098FC:  SUBLW  68
098FE:  BNC   9904
....................             Setpoint=134; 
09900:  MOVLW  86
09902:  MOVWF  x55
....................          if(Setpoint>134) 
09904:  MOVF   x55,W
09906:  SUBLW  86
09908:  BC    990E
....................             Setpoint=105; 
0990A:  MOVLW  69
0990C:  MOVWF  x55
....................           
....................          if(RX_Buffer[4]==0x11){//Selecciono Regresar 
0990E:  MOVF   34,W
09910:  SUBLW  11
09912:  BNZ   99AC
....................             Segundos=OFF; 
09914:  MOVLB  0
09916:  BCF    xA3.2
....................             Minutos=OFF; 
09918:  BCF    xA3.1
....................             printf("page CicloPersona"); 
0991A:  MOVLW  EE
0991C:  MOVWF  FF6
0991E:  MOVLW  0B
09920:  MOVWF  FF7
09922:  MOVLW  00
09924:  MOVWF  FF8
09926:  CALL   3E66
....................             SendDataDisplay();   
0992A:  CALL   3E98
....................             PantallaPrincipal=1; 
0992E:  MOVLW  01
09930:  MOVLB  2
09932:  MOVWF  xD4
....................             Op=OFF; 
09934:  MOVLB  0
09936:  BCF    xA2.7
....................             Op2=OFF; 
09938:  BCF    xA3.0
....................             if(!GuardaEEPROM){ 
0993A:  BTFSC  xA3.3
0993C:  BRA    99AA
....................                CiclosPersonalizados[CicloLibre-1].Temperatura=Setpoint; 
0993E:  MOVLW  01
09940:  MOVLB  3
09942:  SUBWF  x32,W
09944:  MULLW  0A
09946:  MOVF   FF3,W
09948:  MOVLB  7
0994A:  CLRF   xBA
0994C:  MOVWF  xB9
0994E:  MOVLW  C9
09950:  ADDWF  xB9,W
09952:  MOVWF  FE9
09954:  MOVLW  06
09956:  ADDWFC xBA,W
09958:  MOVWF  FEA
0995A:  MOVFF  355,FEF
....................                write_eeprom(100+((CicloLibre-1)*8),Setpoint); 
0995E:  MOVLW  01
09960:  MOVLB  3
09962:  SUBWF  x32,W
09964:  MULLW  08
09966:  MOVF   FF3,W
09968:  ADDLW  64
0996A:  MOVLB  7
0996C:  MOVWF  xB9
0996E:  CLRF   FAA
09970:  MOVFF  7B9,FA9
09974:  MOVFF  355,FA8
09978:  BCF    FA6.6
0997A:  BCF    FA6.7
0997C:  BSF    FA6.2
0997E:  MOVF   FF2,W
09980:  MOVWF  00
09982:  BCF    FF2.6
09984:  BCF    FF2.7
09986:  MOVLB  F
09988:  MOVLW  55
0998A:  MOVWF  FA7
0998C:  MOVLW  AA
0998E:  MOVWF  FA7
09990:  BSF    FA6.1
09992:  BTFSC  FA6.1
09994:  BRA    9992
09996:  BCF    FA6.2
09998:  MOVF   00,W
0999A:  IORWF  FF2,F
....................                delay_ms(10); 
0999C:  MOVLW  0A
0999E:  MOVLB  7
099A0:  MOVWF  xC9
099A2:  MOVLB  0
099A4:  CALL   1FA0
....................                GuardaEEPROM=ON; 
099A8:  BSF    xA3.3
099AA:  MOVLB  3
....................             } 
....................          } 
....................           
....................          if(RX_Buffer[4]==0x0d){//Tecla Arriba Oprimida 
099AC:  MOVF   34,W
099AE:  SUBLW  0D
099B0:  BNZ   99B8
....................             Setpoint++; 
099B2:  INCF   x55,F
....................             RX_Buffer[4]=0x00;   
099B4:  CLRF   34
....................             RX_Buffer2[4]=0x00;             
099B6:  CLRF   3F
....................             //BorraBuffer(); 
....................          } 
....................           
....................          if(RX_Buffer[4]==0x0c){//Tecla Abajo Oprimida 
099B8:  MOVF   34,W
099BA:  SUBLW  0C
099BC:  BNZ   99C4
....................             Setpoint--; 
099BE:  DECF   x55,F
....................             RX_Buffer[4]=0x00; 
099C0:  CLRF   34
....................             RX_Buffer2[4]=0x00;             
099C2:  CLRF   3F
....................             //BorraBuffer(); 
....................          } 
....................           
....................       printf("tsettem.txt=\"%03u\"",Setpoint); 
099C4:  MOVLW  00
099C6:  MOVWF  FF6
099C8:  MOVLW  0C
099CA:  MOVWF  FF7
099CC:  MOVLW  00
099CE:  MOVWF  FF8
099D0:  MOVLW  0D
099D2:  MOVLB  7
099D4:  MOVWF  xBE
099D6:  MOVLB  0
099D8:  CALL   55F4
099DC:  MOVFF  355,7BE
099E0:  MOVLW  03
099E2:  MOVLB  7
099E4:  MOVWF  xBF
099E6:  MOVLB  0
099E8:  CALL   58E0
099EC:  MOVLW  22
099EE:  BTFSS  F9E.4
099F0:  BRA    99EE
099F2:  MOVWF  FAD
....................       SendDataDisplay(); 
099F4:  CALL   3E98
099F8:  MOVLB  3
....................     } 
.................... //_--------------------------------------------------------------------------------------------------------------------------------------------------------        
....................  
.................... //_--------------------------------------------------------------------------------------------------------------------------------------------------------       
....................    if(Menu==5){//Menu de Nivel 
099FA:  MOVF   x4E,W
099FC:  SUBLW  05
099FE:  BTFSS  FD8.2
09A00:  BRA    9C38
....................       printf("fecha.txt=\"Fecha:%02u/%02u/20%02u    Hora: %02u:%02u:%02u\"",Dia,Mes,Year,Hora,Minuto,Segundo); 
09A02:  MOVLW  14
09A04:  MOVWF  FF6
09A06:  MOVLW  0C
09A08:  MOVWF  FF7
09A0A:  MOVLW  00
09A0C:  MOVWF  FF8
09A0E:  MOVLW  11
09A10:  MOVLB  7
09A12:  MOVWF  xBE
09A14:  MOVLB  0
09A16:  CALL   55F4
09A1A:  MOVFF  386,7BE
09A1E:  MOVLW  01
09A20:  MOVLB  7
09A22:  MOVWF  xBF
09A24:  MOVLB  0
09A26:  CALL   58E0
09A2A:  MOVLW  2F
09A2C:  BTFSS  F9E.4
09A2E:  BRA    9A2C
09A30:  MOVWF  FAD
09A32:  MOVFF  385,7BE
09A36:  MOVLW  01
09A38:  MOVLB  7
09A3A:  MOVWF  xBF
09A3C:  MOVLB  0
09A3E:  CALL   58E0
09A42:  MOVLW  2F
09A44:  BTFSS  F9E.4
09A46:  BRA    9A44
09A48:  MOVWF  FAD
09A4A:  MOVLW  32
09A4C:  BTFSS  F9E.4
09A4E:  BRA    9A4C
09A50:  MOVWF  FAD
09A52:  MOVLW  30
09A54:  BTFSS  F9E.4
09A56:  BRA    9A54
09A58:  MOVWF  FAD
09A5A:  MOVFF  384,7BE
09A5E:  MOVLW  01
09A60:  MOVLB  7
09A62:  MOVWF  xBF
09A64:  MOVLB  0
09A66:  CALL   58E0
09A6A:  MOVLW  35
09A6C:  MOVWF  FF6
09A6E:  MOVLW  0C
09A70:  MOVWF  FF7
09A72:  MOVLW  00
09A74:  MOVWF  FF8
09A76:  MOVLW  0A
09A78:  MOVLB  7
09A7A:  MOVWF  xBE
09A7C:  MOVLB  0
09A7E:  CALL   55F4
09A82:  MOVFF  387,7BE
09A86:  MOVLW  01
09A88:  MOVLB  7
09A8A:  MOVWF  xBF
09A8C:  MOVLB  0
09A8E:  CALL   58E0
09A92:  MOVLW  3A
09A94:  BTFSS  F9E.4
09A96:  BRA    9A94
09A98:  MOVWF  FAD
09A9A:  MOVFF  388,7BE
09A9E:  MOVLW  01
09AA0:  MOVLB  7
09AA2:  MOVWF  xBF
09AA4:  MOVLB  0
09AA6:  CALL   58E0
09AAA:  MOVLW  3A
09AAC:  BTFSS  F9E.4
09AAE:  BRA    9AAC
09AB0:  MOVWF  FAD
09AB2:  MOVFF  389,7BE
09AB6:  MOVLW  01
09AB8:  MOVLB  7
09ABA:  MOVWF  xBF
09ABC:  MOVLB  0
09ABE:  CALL   58E0
09AC2:  MOVLW  22
09AC4:  BTFSS  F9E.4
09AC6:  BRA    9AC4
09AC8:  MOVWF  FAD
....................       SendDataDisplay(); 
09ACA:  CALL   3E98
....................          if(Nivel<25) 
09ACE:  MOVLB  3
09AD0:  MOVF   x64,F
09AD2:  BNZ   9AE0
09AD4:  MOVF   x63,W
09AD6:  SUBLW  18
09AD8:  BNC   9AE0
....................             Nivel=Atmosferica; 
09ADA:  CLRF   x64
09ADC:  MOVFF  33A,363
....................          if(Nivel>Atmosferica) 
09AE0:  MOVF   x64,F
09AE2:  BNZ   9AEA
09AE4:  MOVF   x63,W
09AE6:  SUBWF  x3A,W
09AE8:  BC    9AF0
....................             Nivel=25; 
09AEA:  CLRF   x64
09AEC:  MOVLW  19
09AEE:  MOVWF  x63
....................           
....................          if(RX_Buffer[4]==0x11 || LEFT){//Selecciono Regresar 
09AF0:  MOVF   34,W
09AF2:  SUBLW  11
09AF4:  BZ    9AFE
09AF6:  MOVLB  0
09AF8:  BTFSS  xA0.3
09AFA:  BRA    9B9A
09AFC:  MOVLB  3
....................             Segundos=OFF; 
09AFE:  MOVLB  0
09B00:  BCF    xA3.2
....................             Minutos=OFF;             
09B02:  BCF    xA3.1
....................             tiempo_secado=0; 
09B04:  MOVLB  3
09B06:  CLRF   x59
....................             printf("page CicloPersona"); 
09B08:  MOVLW  50
09B0A:  MOVWF  FF6
09B0C:  MOVLW  0C
09B0E:  MOVWF  FF7
09B10:  MOVLW  00
09B12:  MOVWF  FF8
09B14:  MOVLB  0
09B16:  CALL   3E66
....................             SendDataDisplay();  
09B1A:  CALL   3E98
....................             if(!GuardaEEPROM){     
09B1E:  BTFSC  xA3.3
09B20:  BRA    9B9A
....................                CiclosPersonalizados[CicloLibre-1].NivelVacio=Nivel; 
09B22:  MOVLW  01
09B24:  MOVLB  3
09B26:  SUBWF  x32,W
09B28:  MULLW  0A
09B2A:  MOVF   FF3,W
09B2C:  MOVLB  7
09B2E:  CLRF   xBA
09B30:  MOVWF  xB9
09B32:  MOVLW  07
09B34:  ADDWF  xB9,W
09B36:  MOVWF  01
09B38:  MOVLW  00
09B3A:  ADDWFC xBA,W
09B3C:  MOVWF  03
09B3E:  MOVF   01,W
09B40:  ADDLW  C9
09B42:  MOVWF  FE9
09B44:  MOVLW  06
09B46:  ADDWFC 03,W
09B48:  MOVWF  FEA
09B4A:  MOVFF  363,FEF
....................                write_eeprom(106+((CicloLibre-1)*8),Nivel); 
09B4E:  MOVLW  01
09B50:  MOVLB  3
09B52:  SUBWF  x32,W
09B54:  MULLW  08
09B56:  MOVF   FF3,W
09B58:  ADDLW  6A
09B5A:  MOVLB  7
09B5C:  MOVWF  xB9
09B5E:  CLRF   FAA
09B60:  MOVFF  7B9,FA9
09B64:  MOVFF  363,FA8
09B68:  BCF    FA6.6
09B6A:  BCF    FA6.7
09B6C:  BSF    FA6.2
09B6E:  MOVF   FF2,W
09B70:  MOVWF  00
09B72:  BCF    FF2.6
09B74:  BCF    FF2.7
09B76:  MOVLB  F
09B78:  MOVLW  55
09B7A:  MOVWF  FA7
09B7C:  MOVLW  AA
09B7E:  MOVWF  FA7
09B80:  BSF    FA6.1
09B82:  BTFSC  FA6.1
09B84:  BRA    9B82
09B86:  BCF    FA6.2
09B88:  MOVF   00,W
09B8A:  IORWF  FF2,F
....................                delay_ms(20);             
09B8C:  MOVLW  14
09B8E:  MOVLB  7
09B90:  MOVWF  xC9
09B92:  MOVLB  0
09B94:  CALL   1FA0
....................                GuardaEEPROM=ON; 
09B98:  BSF    xA3.3
....................             } 
....................          } 
....................           
....................          if(UP){ 
09B9A:  BTFSS  xA0.0
09B9C:  BRA    9BB8
....................             delay_ms(200); 
09B9E:  MOVLW  C8
09BA0:  MOVLB  7
09BA2:  MOVWF  xC9
09BA4:  MOVLB  0
09BA6:  CALL   1FA0
....................             if(UP){ 
09BAA:  BTFSS  xA0.0
09BAC:  BRA    9BB8
....................                Nivel++; 
09BAE:  MOVLB  3
09BB0:  INCF   x63,F
09BB2:  BTFSC  FD8.2
09BB4:  INCF   x64,F
09BB6:  MOVLB  0
....................             } 
....................          } 
....................           
....................          if(DOWN){ 
09BB8:  BTFSS  xA0.1
09BBA:  BRA    9BD8
....................             delay_ms(200); 
09BBC:  MOVLW  C8
09BBE:  MOVLB  7
09BC0:  MOVWF  xC9
09BC2:  MOVLB  0
09BC4:  CALL   1FA0
....................             if(DOWN){ 
09BC8:  BTFSS  xA0.1
09BCA:  BRA    9BD8
....................                Nivel--; 
09BCC:  MOVLB  3
09BCE:  MOVF   x63,W
09BD0:  BTFSC  FD8.2
09BD2:  DECF   x64,F
09BD4:  DECF   x63,F
09BD6:  MOVLB  0
....................             } 
....................          } 
....................           
....................          if(RX_Buffer[4]==0x0d){//Tecla Arriba Oprimida 
09BD8:  MOVF   34,W
09BDA:  SUBLW  0D
09BDC:  BNZ   9BEC
....................             Nivel++;             
09BDE:  MOVLB  3
09BE0:  INCF   x63,F
09BE2:  BTFSC  FD8.2
09BE4:  INCF   x64,F
....................             RX_Buffer[4]=0x00;             
09BE6:  CLRF   34
....................             RX_Buffer2[4]=0x00;             
09BE8:  CLRF   3F
09BEA:  MOVLB  0
....................          } 
....................           
....................          if(RX_Buffer[4]==0x0c){//Tecla Abajo Oprimida 
09BEC:  MOVF   34,W
09BEE:  SUBLW  0C
09BF0:  BNZ   9C02
....................             Nivel--; 
09BF2:  MOVLB  3
09BF4:  MOVF   x63,W
09BF6:  BTFSC  FD8.2
09BF8:  DECF   x64,F
09BFA:  DECF   x63,F
....................             RX_Buffer[4]=0x00; 
09BFC:  CLRF   34
....................             RX_Buffer2[4]=0x00;             
09BFE:  CLRF   3F
09C00:  MOVLB  0
....................          } 
....................           
....................       printf("tnivel.txt=\"%02Lu\"",Nivel); 
09C02:  MOVLW  62
09C04:  MOVWF  FF6
09C06:  MOVLW  0C
09C08:  MOVWF  FF7
09C0A:  MOVLW  00
09C0C:  MOVWF  FF8
09C0E:  MOVLW  0C
09C10:  MOVLB  7
09C12:  MOVWF  xBE
09C14:  MOVLB  0
09C16:  CALL   55F4
09C1A:  MOVLW  0B
09C1C:  MOVWF  FE9
09C1E:  MOVFF  364,7BE
09C22:  MOVFF  363,7BD
09C26:  CALL   59D4
09C2A:  MOVLW  22
09C2C:  BTFSS  F9E.4
09C2E:  BRA    9C2C
09C30:  MOVWF  FAD
....................       SendDataDisplay(); 
09C32:  CALL   3E98
09C36:  MOVLB  3
....................    } 
.................... //_--------------------------------------------------------------------------------------------------------------------------------------------------------       
....................  
.................... //_--------------------------------------------------------------------------------------------------------------------------------------------------------       
....................       if(Menu==6){ // Menu de Prueba de Componentes 
09C38:  MOVF   x4E,W
09C3A:  SUBLW  06
09C3C:  BTFSS  FD8.2
09C3E:  GOTO   A402
....................          PruebaEstados=ON; 
09C42:  MOVLB  0
09C44:  BSF    xA2.5
....................           
....................          if(RX_Buffer[4]==0x01)//Oprimio EV Paso 
09C46:  DECFSZ 34,W
09C48:  BRA    9C50
....................          { 
....................             EstadoPaso=!EstadoPaso; 
09C4A:  BTG    xA3.4
....................             RX_Buffer[4]=0x00; 
09C4C:  CLRF   34
....................             RX_Buffer2[4]=0x00; 
09C4E:  CLRF   3F
....................          } 
....................           
....................          if(EstadoPaso){ 
09C50:  BTFSS  xA3.4
09C52:  BRA    9C6E
....................             printf("b0.bco=2016"); 
09C54:  MOVLW  76
09C56:  MOVWF  FF6
09C58:  MOVLW  0C
09C5A:  MOVWF  FF7
09C5C:  MOVLW  00
09C5E:  MOVWF  FF8
09C60:  CALL   3E66
....................             SendDataDisplay();  
09C64:  CALL   3E98
....................             Paso_on; 
09C68:  BCF    F8B.0
09C6A:  BCF    F94.0
....................          }else{ 
09C6C:  BRA    9C86
....................             printf("b0.bco=63488"); 
09C6E:  MOVLW  82
09C70:  MOVWF  FF6
09C72:  MOVLW  0C
09C74:  MOVWF  FF7
09C76:  MOVLW  00
09C78:  MOVWF  FF8
09C7A:  CALL   3E66
....................             SendDataDisplay();  
09C7E:  CALL   3E98
....................             Paso_off; 
09C82:  BSF    F8B.0
09C84:  BCF    F94.0
....................          } 
....................           
....................          if(RX_Buffer[4]==0x02)//Oprimio EV Desfogue 
09C86:  MOVF   34,W
09C88:  SUBLW  02
09C8A:  BNZ   9C92
....................          { 
....................             EstadoDesfogue=!EstadoDesfogue; 
09C8C:  BTG    xA2.2
....................             RX_Buffer[4]=0x00; 
09C8E:  CLRF   34
....................             RX_Buffer2[4]=0x00; 
09C90:  CLRF   3F
....................          } 
....................           
....................          if(EstadoDesfogue){ 
09C92:  BTFSS  xA2.2
09C94:  BRA    9CB0
....................             printf("b1.bco=2016"); 
09C96:  MOVLW  90
09C98:  MOVWF  FF6
09C9A:  MOVLW  0C
09C9C:  MOVWF  FF7
09C9E:  MOVLW  00
09CA0:  MOVWF  FF8
09CA2:  CALL   3E66
....................             SendDataDisplay();  
09CA6:  CALL   3E98
....................             Desfogue_on; 
09CAA:  BCF    F8B.1
09CAC:  BCF    F94.1
....................          }else{ 
09CAE:  BRA    9CC8
....................             printf("b1.bco=63488"); 
09CB0:  MOVLW  9C
09CB2:  MOVWF  FF6
09CB4:  MOVLW  0C
09CB6:  MOVWF  FF7
09CB8:  MOVLW  00
09CBA:  MOVWF  FF8
09CBC:  CALL   3E66
....................             SendDataDisplay();  
09CC0:  CALL   3E98
....................             Desfogue_off; 
09CC4:  BSF    F8B.1
09CC6:  BCF    F94.1
....................          } 
....................           
....................          if(RX_Buffer[4]==0x03)//Oprimio EV Agua 
09CC8:  MOVF   34,W
09CCA:  SUBLW  03
09CCC:  BNZ   9CD4
....................          { 
....................             EstadoAgua=!EstadoAgua; 
09CCE:  BTG    xA2.3
....................             RX_Buffer[4]=0x00; 
09CD0:  CLRF   34
....................             RX_Buffer2[4]=0x00; 
09CD2:  CLRF   3F
....................          } 
....................           
....................          if(EstadoAgua){ 
09CD4:  BTFSS  xA2.3
09CD6:  BRA    9CF2
....................             printf("b2.bco=2016"); 
09CD8:  MOVLW  AA
09CDA:  MOVWF  FF6
09CDC:  MOVLW  0C
09CDE:  MOVWF  FF7
09CE0:  MOVLW  00
09CE2:  MOVWF  FF8
09CE4:  CALL   3E66
....................             SendDataDisplay();  
09CE8:  CALL   3E98
....................             Agua_on; 
09CEC:  BCF    F8B.2
09CEE:  BCF    F94.2
....................          }else{ 
09CF0:  BRA    9D0A
....................             printf("b2.bco=63488"); 
09CF2:  MOVLW  B6
09CF4:  MOVWF  FF6
09CF6:  MOVLW  0C
09CF8:  MOVWF  FF7
09CFA:  MOVLW  00
09CFC:  MOVWF  FF8
09CFE:  CALL   3E66
....................             SendDataDisplay();  
09D02:  CALL   3E98
....................             Agua_off; 
09D06:  BSF    F8B.2
09D08:  BCF    F94.2
....................          } 
....................           
....................          if(RX_Buffer[4]==0x04)//Oprimio SSR1 
09D0A:  MOVF   34,W
09D0C:  SUBLW  04
09D0E:  BNZ   9D16
....................          { 
....................             EstadoSSR=!EstadoSSR; 
09D10:  BTG    xA2.4
....................             RX_Buffer[4]=0x00; 
09D12:  CLRF   34
....................             RX_Buffer2[4]=0x00; 
09D14:  CLRF   3F
....................          } 
....................           
....................          if(EstadoSSR){ 
09D16:  BTFSS  xA2.4
09D18:  BRA    9D34
....................             printf("b3.bco=2016"); 
09D1A:  MOVLW  C4
09D1C:  MOVWF  FF6
09D1E:  MOVLW  0C
09D20:  MOVWF  FF7
09D22:  MOVLW  00
09D24:  MOVWF  FF8
09D26:  CALL   3E66
....................             SendDataDisplay();  
09D2A:  CALL   3E98
....................             SSR_on; 
09D2E:  BSF    F8D.1
09D30:  BCF    F96.1
....................          }else{ 
09D32:  BRA    9D4C
....................             printf("b3.bco=63488"); 
09D34:  MOVLW  D0
09D36:  MOVWF  FF6
09D38:  MOVLW  0C
09D3A:  MOVWF  FF7
09D3C:  MOVLW  00
09D3E:  MOVWF  FF8
09D40:  CALL   3E66
....................             SendDataDisplay();  
09D44:  CALL   3E98
....................             SSR_off; 
09D48:  BCF    F8D.1
09D4A:  BCF    F96.1
....................          } 
....................           
....................          if(RX_Buffer[4]==0x05)//Oprimio Abrir Puerta 
09D4C:  MOVF   34,W
09D4E:  SUBLW  05
09D50:  BNZ   9D58
....................          { 
....................             //EstadoVacio=!EstadoVacio; 
....................             EstadoVacio=1; 
09D52:  BSF    xA5.4
....................             RX_Buffer[4]=0x00; 
09D54:  CLRF   34
....................             RX_Buffer2[4]=0x00; 
09D56:  CLRF   3F
....................          } 
....................           
....................          if(EstadoVacio){ 
09D58:  BTFSS  xA5.4
09D5A:  BRA    9D76
....................             printf("b4.bco=2016"); 
09D5C:  MOVLW  DE
09D5E:  MOVWF  FF6
09D60:  MOVLW  0C
09D62:  MOVWF  FF7
09D64:  MOVLW  00
09D66:  MOVWF  FF8
09D68:  CALL   3E66
....................             SendDataDisplay();  
09D6C:  CALL   3E98
....................             abrePuerta(); 
09D70:  CALL   5A7E
....................          }else{ 
09D74:  BRA    9D8A
....................             printf("b4.bco=63488"); 
09D76:  MOVLW  EA
09D78:  MOVWF  FF6
09D7A:  MOVLW  0C
09D7C:  MOVWF  FF7
09D7E:  MOVLW  00
09D80:  MOVWF  FF8
09D82:  CALL   3E66
....................             SendDataDisplay();  
09D86:  CALL   3E98
....................              
....................          } 
....................          
....................          if(RX_Buffer[4]==0x06)//Oprimio Cierra Puerta 
09D8A:  MOVF   34,W
09D8C:  SUBLW  06
09D8E:  BNZ   9D96
....................          { 
....................             //EstadoAire=!EstadoAire; 
....................             EstadoAire=1; 
09D90:  BSF    xA5.5
....................             RX_Buffer[4]=0x00; 
09D92:  CLRF   34
....................             RX_Buffer2[4]=0x00; 
09D94:  CLRF   3F
....................          } 
....................           
....................          if(EstadoAire){ 
09D96:  BTFSS  xA5.5
09D98:  BRA    9DB4
....................             printf("b5.bco=2016"); 
09D9A:  MOVLW  F8
09D9C:  MOVWF  FF6
09D9E:  MOVLW  0C
09DA0:  MOVWF  FF7
09DA2:  MOVLW  00
09DA4:  MOVWF  FF8
09DA6:  CALL   3E66
....................             SendDataDisplay();  
09DAA:  CALL   3E98
....................             cierraPuerta(); 
09DAE:  CALL   5BDA
....................          }else{ 
09DB2:  BRA    9DC8
....................             printf("b5.bco=63488"); 
09DB4:  MOVLW  04
09DB6:  MOVWF  FF6
09DB8:  MOVLW  0D
09DBA:  MOVWF  FF7
09DBC:  MOVLW  00
09DBE:  MOVWF  FF8
09DC0:  CALL   3E66
....................             SendDataDisplay();  
09DC4:  CALL   3E98
....................              
....................          } 
....................           
....................          if(RX_Buffer[4]==0x07)//Oprimio Detiene Puerta 
09DC8:  MOVF   34,W
09DCA:  SUBLW  07
09DCC:  BNZ   9DD4
....................          { 
....................             EstadoAireBomba=!EstadoAireBomba; 
09DCE:  BTG    xA5.3
....................             RX_Buffer[4]=0x00; 
09DD0:  CLRF   34
....................             RX_Buffer2[4]=0x00; 
09DD2:  CLRF   3F
....................          } 
....................           
....................          if(EstadoAireBomba){ 
09DD4:  BTFSS  xA5.3
09DD6:  BRA    9DF6
....................             printf("b6.bco=2016"); 
09DD8:  MOVLW  12
09DDA:  MOVWF  FF6
09DDC:  MOVLW  0D
09DDE:  MOVWF  FF7
09DE0:  MOVLW  00
09DE2:  MOVWF  FF8
09DE4:  CALL   3E66
....................             SendDataDisplay(); 
09DE8:  CALL   3E98
....................             EstadoAire=0; 
09DEC:  BCF    xA5.5
....................             EstadoVacio=0; 
09DEE:  BCF    xA5.4
....................             detienePuerta(); 
09DF0:  CALL   4DB6
....................              
....................          }else{ 
09DF4:  BRA    9E0A
....................             printf("b6.bco=63488"); 
09DF6:  MOVLW  1E
09DF8:  MOVWF  FF6
09DFA:  MOVLW  0D
09DFC:  MOVWF  FF7
09DFE:  MOVLW  00
09E00:  MOVWF  FF8
09E02:  CALL   3E66
....................             SendDataDisplay();  
09E06:  CALL   3E98
....................          } 
....................           
....................          if(RX_Buffer[4]==0x08)//Oprimio Buzzer 
09E0A:  MOVF   34,W
09E0C:  SUBLW  08
09E0E:  BNZ   9E16
....................          { 
....................             EstadoBuzzer=!EstadoBuzzer; 
09E10:  BTG    xA3.5
....................             RX_Buffer[4]=0x00; 
09E12:  CLRF   34
....................             RX_Buffer2[4]=0x00; 
09E14:  CLRF   3F
....................          } 
....................           
....................          if(EstadoBuzzer){ 
09E16:  BTFSS  xA3.5
09E18:  BRA    9E34
....................             printf("b7.bco=2016"); 
09E1A:  MOVLW  2C
09E1C:  MOVWF  FF6
09E1E:  MOVLW  0D
09E20:  MOVWF  FF7
09E22:  MOVLW  00
09E24:  MOVWF  FF8
09E26:  CALL   3E66
....................             SendDataDisplay();  
09E2A:  CALL   3E98
....................             Buzzer_on; 
09E2E:  BSF    F8C.7
09E30:  BCF    F95.7
....................          } 
....................          else{ 
09E32:  BRA    9E4C
....................             printf("b7.bco=63488"); 
09E34:  MOVLW  38
09E36:  MOVWF  FF6
09E38:  MOVLW  0D
09E3A:  MOVWF  FF7
09E3C:  MOVLW  00
09E3E:  MOVWF  FF8
09E40:  CALL   3E66
....................             SendDataDisplay();  
09E44:  CALL   3E98
....................             Buzzer_off; 
09E48:  BCF    F8C.7
09E4A:  BCF    F95.7
....................          } 
....................           
....................          if(RX_Buffer[4]==0x17)//Oprimio Abrir Cierre 
09E4C:  MOVF   34,W
09E4E:  SUBLW  17
09E50:  BNZ   9E58
....................          { 
....................             EstadoACierre=!EstadoACierre; 
09E52:  BTG    xA5.6
....................             RX_Buffer[4]=0x00; 
09E54:  CLRF   34
....................             RX_Buffer2[4]=0x00; 
09E56:  CLRF   3F
....................          } 
....................           
....................          if(EstadoACierre){ 
09E58:  BTFSS  xA5.6
09E5A:  BRA    9E76
....................             printf("b16.bco=2016"); 
09E5C:  MOVLW  46
09E5E:  MOVWF  FF6
09E60:  MOVLW  0D
09E62:  MOVWF  FF7
09E64:  MOVLW  00
09E66:  MOVWF  FF8
09E68:  CALL   3E66
....................             SendDataDisplay();  
09E6C:  CALL   3E98
....................             bloqueaPuerta(); 
09E70:  CALL   5C60
....................          } 
....................          else{ 
09E74:  BRA    9E8E
....................             printf("b16.bco=63488"); 
09E76:  MOVLW  54
09E78:  MOVWF  FF6
09E7A:  MOVLW  0D
09E7C:  MOVWF  FF7
09E7E:  MOVLW  00
09E80:  MOVWF  FF8
09E82:  CALL   3E66
....................             SendDataDisplay();  
09E86:  CALL   3E98
....................             desbloqueaPuerta(); 
09E8A:  CALL   5CCC
....................          } 
....................           
....................          if(DOOR){ 
09E8E:  BSF    F93.7
09E90:  BTFSC  F81.7
09E92:  BRA    9EAA
....................             printf("b8.bco=2016"); 
09E94:  MOVLW  62
09E96:  MOVWF  FF6
09E98:  MOVLW  0D
09E9A:  MOVWF  FF7
09E9C:  MOVLW  00
09E9E:  MOVWF  FF8
09EA0:  CALL   3E66
....................             SendDataDisplay();  
09EA4:  CALL   3E98
....................          }else{ 
09EA8:  BRA    9EBE
....................             printf("b8.bco=63488"); 
09EAA:  MOVLW  6E
09EAC:  MOVWF  FF6
09EAE:  MOVLW  0D
09EB0:  MOVWF  FF7
09EB2:  MOVLW  00
09EB4:  MOVWF  FF8
09EB6:  CALL   3E66
....................             SendDataDisplay();  
09EBA:  CALL   3E98
....................          } 
....................           
....................          if(TERM){ 
09EBE:  BSF    F93.4
09EC0:  BTFSS  F81.4
09EC2:  BRA    9EDA
....................             printf("b9.bco=2016"); 
09EC4:  MOVLW  7C
09EC6:  MOVWF  FF6
09EC8:  MOVLW  0D
09ECA:  MOVWF  FF7
09ECC:  MOVLW  00
09ECE:  MOVWF  FF8
09ED0:  CALL   3E66
....................             SendDataDisplay();  
09ED4:  CALL   3E98
....................          }else{ 
09ED8:  BRA    9EEE
....................             printf("b9.bco=63488"); 
09EDA:  MOVLW  88
09EDC:  MOVWF  FF6
09EDE:  MOVLW  0D
09EE0:  MOVWF  FF7
09EE2:  MOVLW  00
09EE4:  MOVWF  FF8
09EE6:  CALL   3E66
....................             SendDataDisplay();  
09EEA:  CALL   3E98
....................          } 
....................           
....................          if(STOP){ 
09EEE:  BSF    F93.5
09EF0:  BTFSC  F81.5
09EF2:  BRA    9F0A
....................             printf("b10.bco=2016"); 
09EF4:  MOVLW  96
09EF6:  MOVWF  FF6
09EF8:  MOVLW  0D
09EFA:  MOVWF  FF7
09EFC:  MOVLW  00
09EFE:  MOVWF  FF8
09F00:  CALL   3E66
....................             SendDataDisplay();  
09F04:  CALL   3E98
....................          }else{ 
09F08:  BRA    9F1E
....................             printf("b10.bco=63488"); 
09F0A:  MOVLW  A4
09F0C:  MOVWF  FF6
09F0E:  MOVLW  0D
09F10:  MOVWF  FF7
09F12:  MOVLW  00
09F14:  MOVWF  FF8
09F16:  CALL   3E66
....................             SendDataDisplay();  
09F1A:  CALL   3E98
....................          } 
....................           
....................          if(SWBL){ 
09F1E:  BSF    F93.6
09F20:  BTFSC  F81.6
09F22:  BRA    9F3A
....................             printf("b11.bco=2016"); 
09F24:  MOVLW  B2
09F26:  MOVWF  FF6
09F28:  MOVLW  0D
09F2A:  MOVWF  FF7
09F2C:  MOVLW  00
09F2E:  MOVWF  FF8
09F30:  CALL   3E66
....................             SendDataDisplay();  
09F34:  CALL   3E98
....................          }else{ 
09F38:  BRA    9F4E
....................             printf("b11.bco=63488"); 
09F3A:  MOVLW  C0
09F3C:  MOVWF  FF6
09F3E:  MOVLW  0D
09F40:  MOVWF  FF7
09F42:  MOVLW  00
09F44:  MOVWF  FF8
09F46:  CALL   3E66
....................             SendDataDisplay();  
09F4A:  CALL   3E98
....................          } 
....................           
....................          if(LOW){ 
09F4E:  BTFSS  xA6.0
09F50:  BRA    9F68
....................             printf("b17.bco=2016"); 
09F52:  MOVLW  CE
09F54:  MOVWF  FF6
09F56:  MOVLW  0D
09F58:  MOVWF  FF7
09F5A:  MOVLW  00
09F5C:  MOVWF  FF8
09F5E:  CALL   3E66
....................             SendDataDisplay();  
09F62:  CALL   3E98
....................          }else{ 
09F66:  BRA    9F7C
....................             printf("b17.bco=63488"); 
09F68:  MOVLW  DC
09F6A:  MOVWF  FF6
09F6C:  MOVLW  0D
09F6E:  MOVWF  FF7
09F70:  MOVLW  00
09F72:  MOVWF  FF8
09F74:  CALL   3E66
....................             SendDataDisplay();  
09F78:  CALL   3E98
....................          } 
....................           
....................          if(HIG){ 
09F7C:  BTFSS  xA6.1
09F7E:  BRA    9F96
....................             printf("b21.bco=2016"); 
09F80:  MOVLW  EA
09F82:  MOVWF  FF6
09F84:  MOVLW  0D
09F86:  MOVWF  FF7
09F88:  MOVLW  00
09F8A:  MOVWF  FF8
09F8C:  CALL   3E66
....................             SendDataDisplay();  
09F90:  CALL   3E98
....................          }else{ 
09F94:  BRA    9FAA
....................             printf("b21.bco=63488"); 
09F96:  MOVLW  F8
09F98:  MOVWF  FF6
09F9A:  MOVLW  0D
09F9C:  MOVWF  FF7
09F9E:  MOVLW  00
09FA0:  MOVWF  FF8
09FA2:  CALL   3E66
....................             SendDataDisplay();  
09FA6:  CALL   3E98
....................          } 
....................           
....................          if(DOORO){ 
09FAA:  BSF    F93.3
09FAC:  BTFSC  F81.3
09FAE:  BRA    9FC6
....................             printf("b12.bco=2016"); 
09FB0:  MOVLW  06
09FB2:  MOVWF  FF6
09FB4:  MOVLW  0E
09FB6:  MOVWF  FF7
09FB8:  MOVLW  00
09FBA:  MOVWF  FF8
09FBC:  CALL   3E66
....................             SendDataDisplay();  
09FC0:  CALL   3E98
....................          }else{ 
09FC4:  BRA    9FDA
....................             printf("b12.bco=63488"); 
09FC6:  MOVLW  14
09FC8:  MOVWF  FF6
09FCA:  MOVLW  0E
09FCC:  MOVWF  FF7
09FCE:  MOVLW  00
09FD0:  MOVWF  FF8
09FD2:  CALL   3E66
....................             SendDataDisplay();  
09FD6:  CALL   3E98
....................          } 
....................           
....................          if(SWBLO){ 
09FDA:  BSF    F93.2
09FDC:  BTFSC  F81.2
09FDE:  BRA    9FF6
....................             printf("b19.bco=2016"); 
09FE0:  MOVLW  22
09FE2:  MOVWF  FF6
09FE4:  MOVLW  0E
09FE6:  MOVWF  FF7
09FE8:  MOVLW  00
09FEA:  MOVWF  FF8
09FEC:  CALL   3E66
....................             SendDataDisplay();  
09FF0:  CALL   3E98
....................          }else{ 
09FF4:  BRA    A00A
....................             printf("b19.bco=63488"); 
09FF6:  MOVLW  30
09FF8:  MOVWF  FF6
09FFA:  MOVLW  0E
09FFC:  MOVWF  FF7
09FFE:  MOVLW  00
0A000:  MOVWF  FF8
0A002:  CALL   3E66
....................             SendDataDisplay();  
0A006:  CALL   3E98
....................          } 
....................           
....................          if(AlarmaBloqueo){ 
0A00A:  BTFSS  xA0.7
0A00C:  BRA    A022
....................             printf("t0.txt=\"Bloqueo\"");          
0A00E:  MOVLW  3E
0A010:  MOVWF  FF6
0A012:  MOVLW  0E
0A014:  MOVWF  FF7
0A016:  MOVLW  00
0A018:  MOVWF  FF8
0A01A:  CALL   3E66
....................             SendDataDisplay(); 
0A01E:  CALL   3E98
....................          } 
....................           
....................          if(AlarmaApertura){ 
0A022:  BTFSS  xA0.5
0A024:  BRA    A03A
....................             printf("t0.txt=\"Apertura\"");          
0A026:  MOVLW  50
0A028:  MOVWF  FF6
0A02A:  MOVLW  0E
0A02C:  MOVWF  FF7
0A02E:  MOVLW  00
0A030:  MOVWF  FF8
0A032:  CALL   3E66
....................             SendDataDisplay(); 
0A036:  CALL   3E98
....................          } 
....................           
....................          Lectura_I2C(0XC0, 0, conteoRx);    //Lectura por I2C 
0A03A:  MOVLW  C0
0A03C:  MOVLB  7
0A03E:  MOVWF  xB9
0A040:  CLRF   xBA
....................          Lectura_I2C(0XC0, 1, comandoRx);    //Lectura por I2C 
*
0A0DA:  MOVLW  C0
0A0DC:  MOVLB  7
0A0DE:  MOVWF  xB9
0A0E0:  MOVLW  01
0A0E2:  MOVWF  xBA
....................                    
....................          printf("b13.txt=\"ADC0:%3.0f\"",sensores(0));          
*
0A17C:  MOVLB  7
0A17E:  CLRF   xBF
0A180:  MOVLB  0
0A182:  CALL   3EF2
0A186:  MOVFF  00,7B9
0A18A:  MOVFF  01,7BA
0A18E:  MOVFF  02,7BB
0A192:  MOVFF  03,7BC
0A196:  MOVLW  62
0A198:  MOVWF  FF6
0A19A:  MOVLW  0E
0A19C:  MOVWF  FF7
0A19E:  MOVLW  00
0A1A0:  MOVWF  FF8
0A1A2:  MOVLW  0E
0A1A4:  MOVLB  7
0A1A6:  MOVWF  xBE
0A1A8:  MOVLB  0
0A1AA:  CALL   55F4
0A1AE:  MOVLW  02
0A1B0:  MOVWF  FE9
0A1B2:  MOVFF  7BC,7C1
0A1B6:  MOVFF  7BB,7C0
0A1BA:  MOVFF  7BA,7BF
0A1BE:  MOVFF  7B9,7BE
0A1C2:  MOVLB  7
0A1C4:  CLRF   xC2
0A1C6:  MOVLB  0
0A1C8:  CALL   5710
0A1CC:  MOVLW  22
0A1CE:  BTFSS  F9E.4
0A1D0:  BRA    A1CE
0A1D2:  MOVWF  FAD
....................          SendDataDisplay(); 
0A1D4:  CALL   3E98
....................          printf("b14.txt=\"ADC1:%3.0f\"",sensores(1));          
0A1D8:  MOVLW  01
0A1DA:  MOVLB  7
0A1DC:  MOVWF  xBF
0A1DE:  MOVLB  0
0A1E0:  CALL   3EF2
0A1E4:  MOVFF  00,7B9
0A1E8:  MOVFF  01,7BA
0A1EC:  MOVFF  02,7BB
0A1F0:  MOVFF  03,7BC
0A1F4:  MOVLW  78
0A1F6:  MOVWF  FF6
0A1F8:  MOVLW  0E
0A1FA:  MOVWF  FF7
0A1FC:  MOVLW  00
0A1FE:  MOVWF  FF8
0A200:  MOVLW  0E
0A202:  MOVLB  7
0A204:  MOVWF  xBE
0A206:  MOVLB  0
0A208:  CALL   55F4
0A20C:  MOVLW  02
0A20E:  MOVWF  FE9
0A210:  MOVFF  7BC,7C1
0A214:  MOVFF  7BB,7C0
0A218:  MOVFF  7BA,7BF
0A21C:  MOVFF  7B9,7BE
0A220:  MOVLB  7
0A222:  CLRF   xC2
0A224:  MOVLB  0
0A226:  CALL   5710
0A22A:  MOVLW  22
0A22C:  BTFSS  F9E.4
0A22E:  BRA    A22C
0A230:  MOVWF  FAD
....................          SendDataDisplay(); 
0A232:  CALL   3E98
....................          printf("b15.txt=\"A5:%3.0f %03Lu\"",sensores(5),PresionCamara); 
0A236:  MOVLW  05
0A238:  MOVLB  7
0A23A:  MOVWF  xBF
0A23C:  MOVLB  0
0A23E:  CALL   3EF2
0A242:  MOVFF  00,7B9
0A246:  MOVFF  01,7BA
0A24A:  MOVFF  02,7BB
0A24E:  MOVFF  03,7BC
0A252:  MOVLW  8E
0A254:  MOVWF  FF6
0A256:  MOVLW  0E
0A258:  MOVWF  FF7
0A25A:  MOVLW  00
0A25C:  MOVWF  FF8
0A25E:  MOVLW  0C
0A260:  MOVLB  7
0A262:  MOVWF  xBE
0A264:  MOVLB  0
0A266:  CALL   55F4
0A26A:  MOVLW  02
0A26C:  MOVWF  FE9
0A26E:  MOVFF  7BC,7C1
0A272:  MOVFF  7BB,7C0
0A276:  MOVFF  7BA,7BF
0A27A:  MOVFF  7B9,7BE
0A27E:  MOVLB  7
0A280:  CLRF   xC2
0A282:  MOVLB  0
0A284:  CALL   5710
0A288:  MOVLW  20
0A28A:  BTFSS  F9E.4
0A28C:  BRA    A28A
0A28E:  MOVWF  FAD
0A290:  MOVLW  0A
0A292:  MOVWF  FE9
0A294:  MOVFF  368,7BE
0A298:  MOVFF  367,7BD
0A29C:  CALL   59D4
0A2A0:  MOVLW  22
0A2A2:  BTFSS  F9E.4
0A2A4:  BRA    A2A2
0A2A6:  MOVWF  FAD
....................          SendDataDisplay(); 
0A2A8:  CALL   3E98
....................          printf("b18.txt=\"A4:%3.0f %03Lu\"",sensores(4),PresionPreCamara); 
0A2AC:  MOVLW  04
0A2AE:  MOVLB  7
0A2B0:  MOVWF  xBF
0A2B2:  MOVLB  0
0A2B4:  CALL   3EF2
0A2B8:  MOVFF  00,7B9
0A2BC:  MOVFF  01,7BA
0A2C0:  MOVFF  02,7BB
0A2C4:  MOVFF  03,7BC
0A2C8:  MOVLW  A8
0A2CA:  MOVWF  FF6
0A2CC:  MOVLW  0E
0A2CE:  MOVWF  FF7
0A2D0:  MOVLW  00
0A2D2:  MOVWF  FF8
0A2D4:  MOVLW  0C
0A2D6:  MOVLB  7
0A2D8:  MOVWF  xBE
0A2DA:  MOVLB  0
0A2DC:  CALL   55F4
0A2E0:  MOVLW  02
0A2E2:  MOVWF  FE9
0A2E4:  MOVFF  7BC,7C1
0A2E8:  MOVFF  7BB,7C0
0A2EC:  MOVFF  7BA,7BF
0A2F0:  MOVFF  7B9,7BE
0A2F4:  MOVLB  7
0A2F6:  CLRF   xC2
0A2F8:  MOVLB  0
0A2FA:  CALL   5710
0A2FE:  MOVLW  20
0A300:  BTFSS  F9E.4
0A302:  BRA    A300
0A304:  MOVWF  FAD
0A306:  MOVLW  0A
0A308:  MOVWF  FE9
0A30A:  MOVFF  36A,7BE
0A30E:  MOVFF  369,7BD
0A312:  CALL   59D4
0A316:  MOVLW  22
0A318:  BTFSS  F9E.4
0A31A:  BRA    A318
0A31C:  MOVWF  FAD
....................          SendDataDisplay(); 
0A31E:  CALL   3E98
....................          printf("b19.txt=\"%u %u\"",conteoRx,comandoRx); 
0A322:  MOVLW  C2
0A324:  MOVWF  FF6
0A326:  MOVLW  0E
0A328:  MOVWF  FF7
0A32A:  MOVLW  00
0A32C:  MOVWF  FF8
0A32E:  MOVLW  09
0A330:  MOVLB  7
0A332:  MOVWF  xBE
0A334:  MOVLB  0
0A336:  CALL   55F4
0A33A:  MOVFF  33B,7BE
0A33E:  MOVLW  1B
0A340:  MOVLB  7
0A342:  MOVWF  xBF
0A344:  MOVLB  0
0A346:  CALL   58E0
0A34A:  MOVLW  20
0A34C:  BTFSS  F9E.4
0A34E:  BRA    A34C
0A350:  MOVWF  FAD
0A352:  MOVFF  33C,7BE
0A356:  MOVLW  1B
0A358:  MOVLB  7
0A35A:  MOVWF  xBF
0A35C:  MOVLB  0
0A35E:  CALL   58E0
0A362:  MOVLW  22
0A364:  BTFSS  F9E.4
0A366:  BRA    A364
0A368:  MOVWF  FAD
....................          SendDataDisplay(); 
0A36A:  CALL   3E98
....................          printf("b20.txt=\"%3.1f %3.1f\"",Temperatura,Sensor[0].Pt); 
0A36E:  MOVLW  D2
0A370:  MOVWF  FF6
0A372:  MOVLW  0E
0A374:  MOVWF  FF7
0A376:  MOVLW  00
0A378:  MOVWF  FF8
0A37A:  MOVLW  09
0A37C:  MOVLB  7
0A37E:  MOVWF  xBE
0A380:  MOVLB  0
0A382:  CALL   55F4
0A386:  MOVLW  02
0A388:  MOVWF  FE9
0A38A:  MOVFF  31B,7C1
0A38E:  MOVFF  31A,7C0
0A392:  MOVFF  319,7BF
0A396:  MOVFF  318,7BE
0A39A:  MOVLW  01
0A39C:  MOVLB  7
0A39E:  MOVWF  xC2
0A3A0:  MOVLB  0
0A3A2:  CALL   5710
0A3A6:  MOVLW  20
0A3A8:  BTFSS  F9E.4
0A3AA:  BRA    A3A8
0A3AC:  MOVWF  FAD
0A3AE:  MOVLW  02
0A3B0:  MOVWF  FE9
0A3B2:  MOVFF  410,7C1
0A3B6:  MOVFF  40F,7C0
0A3BA:  MOVFF  40E,7BF
0A3BE:  MOVFF  40D,7BE
0A3C2:  MOVLW  01
0A3C4:  MOVLB  7
0A3C6:  MOVWF  xC2
0A3C8:  MOVLB  0
0A3CA:  CALL   5710
0A3CE:  MOVLW  22
0A3D0:  BTFSS  F9E.4
0A3D2:  BRA    A3D0
0A3D4:  MOVWF  FAD
....................          SendDataDisplay(); 
0A3D6:  CALL   3E98
....................           
....................          if(RX_Buffer[4]==0x21){//Oprimio salir 
0A3DA:  MOVF   34,W
0A3DC:  SUBLW  21
0A3DE:  BNZ   A400
....................             printf("page MenuPrincipal"); 
0A3E0:  MOVLW  E8
0A3E2:  MOVWF  FF6
0A3E4:  MOVLW  0E
0A3E6:  MOVWF  FF7
0A3E8:  MOVLW  00
0A3EA:  MOVWF  FF8
0A3EC:  CALL   3E66
....................             SendDataDisplay(); 
0A3F0:  CALL   3E98
....................             PantallaPrincipal=0; 
0A3F4:  MOVLB  2
0A3F6:  CLRF   xD4
....................             PruebaEstados=OFF; 
0A3F8:  MOVLB  0
0A3FA:  BCF    xA2.5
....................             ApagaSalidas(); 
0A3FC:  CALL   3ECE
0A400:  MOVLB  3
....................          } 
....................      } 
.................... //_--------------------------------------------------------------------------------------------------------------------------------------------------------     
....................  
.................... //_--------------------------------------------------------------------------------------------------------------------------------------------------------       
....................       if(Menu==7){ //Menu de Configuracin de Fecha y Hora 
0A402:  MOVF   x4E,W
0A404:  SUBLW  07
0A406:  BTFSS  FD8.2
0A408:  BRA    A826
....................          if(RX_Buffer[4]==0x0a){//Selecciono Hora 
0A40A:  MOVF   34,W
0A40C:  SUBLW  0A
0A40E:  BNZ   A414
....................             Opcion=4; 
0A410:  MOVLW  04
0A412:  MOVWF  x56
....................          } 
....................           
....................          if(RX_Buffer[4]==0x0b){//Selecciono Minuto 
0A414:  MOVF   34,W
0A416:  SUBLW  0B
0A418:  BNZ   A41E
....................             Opcion=5; 
0A41A:  MOVLW  05
0A41C:  MOVWF  x56
....................          } 
....................           
....................          if(RX_Buffer[4]==0x0c){//Selecciono Dia 
0A41E:  MOVF   34,W
0A420:  SUBLW  0C
0A422:  BNZ   A428
....................             Opcion=1; 
0A424:  MOVLW  01
0A426:  MOVWF  x56
....................          } 
....................           
....................          if(RX_Buffer[4]==0x0d){//Selecciono Hora 
0A428:  MOVF   34,W
0A42A:  SUBLW  0D
0A42C:  BNZ   A432
....................             Opcion=2; 
0A42E:  MOVLW  02
0A430:  MOVWF  x56
....................          } 
....................           
....................          if(RX_Buffer[4]==0x0e){//Selecciono Year 
0A432:  MOVF   34,W
0A434:  SUBLW  0E
0A436:  BNZ   A43C
....................             Opcion=3; 
0A438:  MOVLW  03
0A43A:  MOVWF  x56
....................          } 
....................           
....................          if(RIGHT){ 
0A43C:  MOVLB  0
0A43E:  BTFSS  xA0.2
0A440:  BRA    A458
....................             delay_ms(200); 
0A442:  MOVLW  C8
0A444:  MOVLB  7
0A446:  MOVWF  xC9
0A448:  MOVLB  0
0A44A:  CALL   1FA0
....................             if(RIGHT){ 
0A44E:  BTFSS  xA0.2
0A450:  BRA    A458
....................                Opcion++; 
0A452:  MOVLB  3
0A454:  INCF   x56,F
0A456:  MOVLB  0
....................             } 
....................          } 
....................          if(Opcion>5) 
0A458:  MOVLB  3
0A45A:  MOVF   x56,W
0A45C:  SUBLW  05
0A45E:  BC    A464
....................             Opcion=1; 
0A460:  MOVLW  01
0A462:  MOVWF  x56
....................          if(Opcion<1) 
0A464:  MOVF   x56,F
0A466:  BNZ   A46C
....................             Opcion=5; 
0A468:  MOVLW  05
0A46A:  MOVWF  x56
....................              
....................          if(RX_Buffer[4]==0x11 || LEFT){//Selecciono Regresar 
0A46C:  MOVF   34,W
0A46E:  SUBLW  11
0A470:  BZ    A47A
0A472:  MOVLB  0
0A474:  BTFSS  xA0.3
0A476:  BRA    A590
0A478:  MOVLB  3
....................             printf("page MenuPrincipal"); 
0A47A:  MOVLW  FC
0A47C:  MOVWF  FF6
0A47E:  MOVLW  0E
0A480:  MOVWF  FF7
0A482:  MOVLW  00
0A484:  MOVWF  FF8
0A486:  MOVLB  0
0A488:  CALL   3E66
....................             SendDataDisplay();   
0A48C:  CALL   3E98
....................             PantallaPrincipal=0; 
0A490:  MOVLB  2
0A492:  CLRF   xD4
....................             Op=OFF; 
0A494:  MOVLB  0
0A496:  BCF    xA2.7
....................             Op2=OFF; 
0A498:  BCF    xA3.0
....................              
....................             if(esBisiesto(YearTx)) 
0A49A:  MOVFF  38B,7B9
0A49E:  CALL   5D8A
0A4A2:  MOVF   01,F
0A4A4:  BZ    A4C0
....................                Modulo=Bisiesto[MesTx]; 
0A4A6:  CLRF   03
0A4A8:  MOVLB  3
0A4AA:  MOVF   x8C,W
0A4AC:  ADDLW  93
0A4AE:  MOVWF  FE9
0A4B0:  MOVLW  00
0A4B2:  ADDWFC 03,W
0A4B4:  MOVWF  FEA
0A4B6:  MOVFF  FEF,2D6
0A4BA:  MOVLB  2
....................             else 
0A4BC:  BRA    A4D6
0A4BE:  MOVLB  0
....................                Modulo=Regular[MesTx]; 
0A4C0:  CLRF   03
0A4C2:  MOVLB  3
0A4C4:  MOVF   x8C,W
0A4C6:  ADDLW  87
0A4C8:  MOVWF  FE9
0A4CA:  MOVLW  00
0A4CC:  ADDWFC 03,W
0A4CE:  MOVWF  FEA
0A4D0:  MOVFF  FEF,2D6
0A4D4:  MOVLB  2
....................           
....................             dowTx=((YearTx-1)%7+((YearTx-1)/4-3*((YearTx-1)/100+1)/4)%7+Modulo+DiaTx%7)%7; 
0A4D6:  MOVLW  01
0A4D8:  MOVLB  3
0A4DA:  SUBWF  x8B,W
0A4DC:  MOVLB  7
0A4DE:  MOVWF  xBA
0A4E0:  MOVWF  xC2
0A4E2:  MOVLW  07
0A4E4:  MOVWF  xC3
0A4E6:  MOVLB  0
0A4E8:  CALL   58B4
0A4EC:  MOVFF  00,7B9
0A4F0:  MOVLW  01
0A4F2:  MOVLB  3
0A4F4:  SUBWF  x8B,W
0A4F6:  MOVWF  00
0A4F8:  RRCF   00,W
0A4FA:  MOVLB  7
0A4FC:  MOVWF  xBA
0A4FE:  RRCF   xBA,F
0A500:  MOVLW  3F
0A502:  ANDWF  xBA,F
0A504:  MOVLW  01
0A506:  MOVLB  3
0A508:  SUBWF  x8B,W
0A50A:  MOVLB  7
0A50C:  MOVWF  xBC
0A50E:  MOVWF  xC2
0A510:  MOVLW  64
0A512:  MOVWF  xC3
0A514:  MOVLB  0
0A516:  CALL   58B4
0A51A:  MOVLW  01
0A51C:  ADDWF  01,W
0A51E:  MULLW  03
0A520:  MOVFF  FF3,00
0A524:  RRCF   00,F
0A526:  RRCF   00,F
0A528:  MOVLW  3F
0A52A:  ANDWF  00,F
0A52C:  MOVF   00,W
0A52E:  MOVLB  7
0A530:  SUBWF  xBA,W
0A532:  MOVWF  xBB
0A534:  MOVWF  xC2
0A536:  MOVLW  07
0A538:  MOVWF  xC3
0A53A:  MOVLB  0
0A53C:  CALL   58B4
0A540:  MOVF   00,W
0A542:  MOVLB  7
0A544:  ADDWF  xB9,W
0A546:  MOVLB  2
0A548:  ADDWF  xD6,W
0A54A:  MOVLB  7
0A54C:  MOVWF  xB9
0A54E:  MOVFF  38D,7C2
0A552:  MOVLW  07
0A554:  MOVWF  xC3
0A556:  MOVLB  0
0A558:  CALL   58B4
0A55C:  MOVF   00,W
0A55E:  MOVLB  7
0A560:  ADDWF  xB9,W
0A562:  MOVWF  xBA
0A564:  MOVWF  xC2
0A566:  MOVLW  07
0A568:  MOVWF  xC3
0A56A:  MOVLB  0
0A56C:  CALL   58B4
0A570:  MOVFF  00,390
....................             rtc_set_datetime(DiaTx,MesTx,YearTx,dowTx,HoraTx,MinutoTx); 
0A574:  MOVFF  38D,7B9
0A578:  MOVFF  38C,7BA
0A57C:  MOVFF  38B,7BB
0A580:  MOVFF  390,7BC
0A584:  MOVFF  38E,7BD
0A588:  MOVFF  38F,7BE
0A58C:  GOTO   5E0C
....................          } 
....................           
....................          if((RX_Buffer[4]==0x2a)|| UP){//Tecla Arriba Oprimida 
0A590:  MOVF   34,W
0A592:  SUBLW  2A
0A594:  BZ    A59A
0A596:  BTFSS  xA0.0
0A598:  BRA    A698
....................             delay_ms(200); 
0A59A:  MOVLW  C8
0A59C:  MOVLB  7
0A59E:  MOVWF  xC9
0A5A0:  MOVLB  0
0A5A2:  CALL   1FA0
....................             if((RX_Buffer[4]==0x2a)|| UP){    
0A5A6:  MOVF   34,W
0A5A8:  SUBLW  2A
0A5AA:  BZ    A5B0
0A5AC:  BTFSS  xA0.0
0A5AE:  BRA    A698
....................                if(Opcion==1){ 
0A5B0:  MOVLB  3
0A5B2:  DECFSZ x56,W
0A5B4:  BRA    A642
....................                   if(MesTx==2){ 
0A5B6:  MOVF   x8C,W
0A5B8:  SUBLW  02
0A5BA:  BNZ   A5F0
....................                      if(esBisiesto(YearTx)){ 
0A5BC:  MOVFF  38B,7B9
0A5C0:  MOVLB  0
0A5C2:  CALL   5D8A
0A5C6:  MOVF   01,F
0A5C8:  BZ    A5DE
....................                         if(DiaTx<29) 
0A5CA:  MOVLB  3
0A5CC:  MOVF   x8D,W
0A5CE:  SUBLW  1C
0A5D0:  BNC   A5D6
....................                            DiaTx++; 
0A5D2:  INCF   x8D,F
....................                         else 
0A5D4:  BRA    A5DA
....................                            DiaTx=1;    
0A5D6:  MOVLW  01
0A5D8:  MOVWF  x8D
....................                      }else{ 
0A5DA:  BRA    A5EE
0A5DC:  MOVLB  0
....................                         if(DiaTx<28) 
0A5DE:  MOVLB  3
0A5E0:  MOVF   x8D,W
0A5E2:  SUBLW  1B
0A5E4:  BNC   A5EA
....................                            DiaTx++; 
0A5E6:  INCF   x8D,F
....................                         else 
0A5E8:  BRA    A5EE
....................                            DiaTx=1;    
0A5EA:  MOVLW  01
0A5EC:  MOVWF  x8D
....................                      } 
....................                   }else{ 
0A5EE:  BRA    A640
....................                      if(MesTx<=7){ 
0A5F0:  MOVF   x8C,W
0A5F2:  SUBLW  07
0A5F4:  BNC   A61C
....................                         if(MesTx % 2 ==0){ 
0A5F6:  MOVF   x8C,W
0A5F8:  ANDLW  01
0A5FA:  BNZ   A60C
....................                            if(DiaTx<30) 
0A5FC:  MOVF   x8D,W
0A5FE:  SUBLW  1D
0A600:  BNC   A606
....................                               DiaTx++;     
0A602:  INCF   x8D,F
....................                            else 
0A604:  BRA    A60A
....................                               DiaTx=1;    
0A606:  MOVLW  01
0A608:  MOVWF  x8D
....................                         }else{ 
0A60A:  BRA    A61A
....................                            if(DiaTx<31) 
0A60C:  MOVF   x8D,W
0A60E:  SUBLW  1E
0A610:  BNC   A616
....................                               DiaTx++;     
0A612:  INCF   x8D,F
....................                            else 
0A614:  BRA    A61A
....................                               DiaTx=1;    
0A616:  MOVLW  01
0A618:  MOVWF  x8D
....................                         }     
....................                      }else{ 
0A61A:  BRA    A640
....................                         if(MesTx % 2 ==0){ 
0A61C:  MOVF   x8C,W
0A61E:  ANDLW  01
0A620:  BNZ   A632
....................                            if(DiaTx<31) 
0A622:  MOVF   x8D,W
0A624:  SUBLW  1E
0A626:  BNC   A62C
....................                               DiaTx++;   
0A628:  INCF   x8D,F
....................                            else 
0A62A:  BRA    A630
....................                               DiaTx=1; 
0A62C:  MOVLW  01
0A62E:  MOVWF  x8D
....................                         }else{ 
0A630:  BRA    A640
....................                            if(DiaTx<30) 
0A632:  MOVF   x8D,W
0A634:  SUBLW  1D
0A636:  BNC   A63C
....................                               DiaTx++;     
0A638:  INCF   x8D,F
....................                            else 
0A63A:  BRA    A640
....................                               DiaTx=1; 
0A63C:  MOVLW  01
0A63E:  MOVWF  x8D
....................                         }     
....................                      } 
....................                   } 
....................                }else if(Opcion==2){ 
0A640:  BRA    A692
0A642:  MOVF   x56,W
0A644:  SUBLW  02
0A646:  BNZ   A658
....................                   if(MesTx<12) 
0A648:  MOVF   x8C,W
0A64A:  SUBLW  0B
0A64C:  BNC   A652
....................                      MesTx++; 
0A64E:  INCF   x8C,F
....................                   else 
0A650:  BRA    A656
....................                      MesTx=1; 
0A652:  MOVLW  01
0A654:  MOVWF  x8C
....................                }else if(Opcion==3){ 
0A656:  BRA    A692
0A658:  MOVF   x56,W
0A65A:  SUBLW  03
0A65C:  BNZ   A66C
....................                   if(YearTx<99) 
0A65E:  MOVF   x8B,W
0A660:  SUBLW  62
0A662:  BNC   A668
....................                      YearTx++; 
0A664:  INCF   x8B,F
....................                   else  
0A666:  BRA    A66A
....................                      YearTx=0; 
0A668:  CLRF   x8B
....................                }else if(Opcion==4){ 
0A66A:  BRA    A692
0A66C:  MOVF   x56,W
0A66E:  SUBLW  04
0A670:  BNZ   A680
....................                   if(HoraTx<24) 
0A672:  MOVF   x8E,W
0A674:  SUBLW  17
0A676:  BNC   A67C
....................                      HoraTx++; 
0A678:  INCF   x8E,F
....................                   else 
0A67A:  BRA    A67E
....................                      HoraTx=0; 
0A67C:  CLRF   x8E
....................                }else if(Opcion==5){ 
0A67E:  BRA    A692
0A680:  MOVF   x56,W
0A682:  SUBLW  05
0A684:  BNZ   A692
....................                   if(MinutoTx<59) 
0A686:  MOVF   x8F,W
0A688:  SUBLW  3A
0A68A:  BNC   A690
....................                      MinutoTx++; 
0A68C:  INCF   x8F,F
....................                   else 
0A68E:  BRA    A692
....................                      MinutoTx=0; 
0A690:  CLRF   x8F
....................                } 
....................                RX_Buffer[4]=0x00; 
0A692:  CLRF   34
....................                RX_Buffer2[4]=0x00; 
0A694:  CLRF   3F
0A696:  MOVLB  0
....................             } 
....................          } 
....................           
....................          if(RX_Buffer[4]==0x2b || DOWN){//Tecla Abajo Oprimida 
0A698:  MOVF   34,W
0A69A:  SUBLW  2B
0A69C:  BZ    A6A2
0A69E:  BTFSS  xA0.1
0A6A0:  BRA    A71C
....................             delay_ms(200); 
0A6A2:  MOVLW  C8
0A6A4:  MOVLB  7
0A6A6:  MOVWF  xC9
0A6A8:  MOVLB  0
0A6AA:  CALL   1FA0
....................             if(RX_Buffer[4]==0x2b || DOWN){    
0A6AE:  MOVF   34,W
0A6B0:  SUBLW  2B
0A6B2:  BZ    A6B8
0A6B4:  BTFSS  xA0.1
0A6B6:  BRA    A71C
....................                if(Opcion==1){ 
0A6B8:  MOVLB  3
0A6BA:  DECFSZ x56,W
0A6BC:  BRA    A6C6
....................                   if(DiaTx>0) 
0A6BE:  MOVF   x8D,F
0A6C0:  BZ    A6C4
....................                      DiaTx--; 
0A6C2:  DECF   x8D,F
....................                }else if(Opcion==2){ 
0A6C4:  BRA    A716
0A6C6:  MOVF   x56,W
0A6C8:  SUBLW  02
0A6CA:  BNZ   A6DC
....................                   if(MesTx>1) 
0A6CC:  MOVF   x8C,W
0A6CE:  SUBLW  01
0A6D0:  BC    A6D6
....................                      MesTx--; 
0A6D2:  DECF   x8C,F
....................                   else 
0A6D4:  BRA    A6DA
....................                      MesTx=12; 
0A6D6:  MOVLW  0C
0A6D8:  MOVWF  x8C
....................                }else if(Opcion==3){ 
0A6DA:  BRA    A716
0A6DC:  MOVF   x56,W
0A6DE:  SUBLW  03
0A6E0:  BNZ   A6F0
....................                   if(YearTx>0) 
0A6E2:  MOVF   x8B,F
0A6E4:  BZ    A6EA
....................                      YearTx--; 
0A6E6:  DECF   x8B,F
....................                   else 
0A6E8:  BRA    A6EE
....................                      YearTx=99; 
0A6EA:  MOVLW  63
0A6EC:  MOVWF  x8B
....................                }else if(Opcion==4){ 
0A6EE:  BRA    A716
0A6F0:  MOVF   x56,W
0A6F2:  SUBLW  04
0A6F4:  BNZ   A704
....................                   if(HoraTx>0) 
0A6F6:  MOVF   x8E,F
0A6F8:  BZ    A6FE
....................                      HoraTx--; 
0A6FA:  DECF   x8E,F
....................                   else 
0A6FC:  BRA    A702
....................                      HoraTx=23; 
0A6FE:  MOVLW  17
0A700:  MOVWF  x8E
....................                }else if(Opcion==5){ 
0A702:  BRA    A716
0A704:  MOVF   x56,W
0A706:  SUBLW  05
0A708:  BNZ   A716
....................                   if(MinutoTx>0) 
0A70A:  MOVF   x8F,F
0A70C:  BZ    A712
....................                      MinutoTx--; 
0A70E:  DECF   x8F,F
....................                   else 
0A710:  BRA    A716
....................                      MinutoTx=59; 
0A712:  MOVLW  3B
0A714:  MOVWF  x8F
....................                } 
....................                RX_Buffer[4]=0x00; 
0A716:  CLRF   34
....................                RX_Buffer2[4]=0x00; 
0A718:  CLRF   3F
0A71A:  MOVLB  0
....................             } 
....................          } 
....................        
....................       printf("thora.txt=\"%02u\"",HoraTx); 
0A71C:  MOVLW  10
0A71E:  MOVWF  FF6
0A720:  MOVLW  0F
0A722:  MOVWF  FF7
0A724:  MOVLW  00
0A726:  MOVWF  FF8
0A728:  MOVLW  0B
0A72A:  MOVLB  7
0A72C:  MOVWF  xBE
0A72E:  MOVLB  0
0A730:  CALL   55F4
0A734:  MOVFF  38E,7BE
0A738:  MOVLW  01
0A73A:  MOVLB  7
0A73C:  MOVWF  xBF
0A73E:  MOVLB  0
0A740:  CALL   58E0
0A744:  MOVLW  22
0A746:  BTFSS  F9E.4
0A748:  BRA    A746
0A74A:  MOVWF  FAD
....................       SendDataDisplay(); 
0A74C:  CALL   3E98
....................       printf("tminutos.txt=\"%02u\"",MinutoTx); 
0A750:  MOVLW  22
0A752:  MOVWF  FF6
0A754:  MOVLW  0F
0A756:  MOVWF  FF7
0A758:  MOVLW  00
0A75A:  MOVWF  FF8
0A75C:  MOVLW  0E
0A75E:  MOVLB  7
0A760:  MOVWF  xBE
0A762:  MOVLB  0
0A764:  CALL   55F4
0A768:  MOVFF  38F,7BE
0A76C:  MOVLW  01
0A76E:  MOVLB  7
0A770:  MOVWF  xBF
0A772:  MOVLB  0
0A774:  CALL   58E0
0A778:  MOVLW  22
0A77A:  BTFSS  F9E.4
0A77C:  BRA    A77A
0A77E:  MOVWF  FAD
....................       SendDataDisplay(); 
0A780:  CALL   3E98
....................       printf("tdia.txt=\"%02u\"",DiaTx); 
0A784:  MOVLW  36
0A786:  MOVWF  FF6
0A788:  MOVLW  0F
0A78A:  MOVWF  FF7
0A78C:  MOVLW  00
0A78E:  MOVWF  FF8
0A790:  MOVLW  0A
0A792:  MOVLB  7
0A794:  MOVWF  xBE
0A796:  MOVLB  0
0A798:  CALL   55F4
0A79C:  MOVFF  38D,7BE
0A7A0:  MOVLW  01
0A7A2:  MOVLB  7
0A7A4:  MOVWF  xBF
0A7A6:  MOVLB  0
0A7A8:  CALL   58E0
0A7AC:  MOVLW  22
0A7AE:  BTFSS  F9E.4
0A7B0:  BRA    A7AE
0A7B2:  MOVWF  FAD
....................       SendDataDisplay(); 
0A7B4:  CALL   3E98
....................       printf("tmes.txt=\"%02u\"",MesTx); 
0A7B8:  MOVLW  46
0A7BA:  MOVWF  FF6
0A7BC:  MOVLW  0F
0A7BE:  MOVWF  FF7
0A7C0:  MOVLW  00
0A7C2:  MOVWF  FF8
0A7C4:  MOVLW  0A
0A7C6:  MOVLB  7
0A7C8:  MOVWF  xBE
0A7CA:  MOVLB  0
0A7CC:  CALL   55F4
0A7D0:  MOVFF  38C,7BE
0A7D4:  MOVLW  01
0A7D6:  MOVLB  7
0A7D8:  MOVWF  xBF
0A7DA:  MOVLB  0
0A7DC:  CALL   58E0
0A7E0:  MOVLW  22
0A7E2:  BTFSS  F9E.4
0A7E4:  BRA    A7E2
0A7E6:  MOVWF  FAD
....................       SendDataDisplay(); 
0A7E8:  CALL   3E98
....................       printf("tyear.txt=\"%02u\"",YearTx); 
0A7EC:  MOVLW  56
0A7EE:  MOVWF  FF6
0A7F0:  MOVLW  0F
0A7F2:  MOVWF  FF7
0A7F4:  MOVLW  00
0A7F6:  MOVWF  FF8
0A7F8:  MOVLW  0B
0A7FA:  MOVLB  7
0A7FC:  MOVWF  xBE
0A7FE:  MOVLB  0
0A800:  CALL   55F4
0A804:  MOVFF  38B,7BE
0A808:  MOVLW  01
0A80A:  MOVLB  7
0A80C:  MOVWF  xBF
0A80E:  MOVLB  0
0A810:  CALL   58E0
0A814:  MOVLW  22
0A816:  BTFSS  F9E.4
0A818:  BRA    A816
0A81A:  MOVWF  FAD
....................       SendDataDisplay(); 
0A81C:  CALL   3E98
....................       LimitaDia();   
0A820:  GOTO   5EC8
0A824:  MOVLB  3
....................     } 
.................... //_--------------------------------------------------------------------------------------------------------------------------------------------------------        
....................  
.................... //_-------------------------------------------------------------------------------------------------------------------------------------------------------- 
....................    if(Menu==8){ //Menu Ciclos Personalizados 
0A826:  MOVF   x4E,W
0A828:  SUBLW  08
0A82A:  BTFSS  FD8.2
0A82C:  GOTO   B434
....................       printf("fecha.txt=\"T:%2.1fC Fecha:%02u/%02u/20%02u Hora:%02u:%02u:%02u\"",Temperatura,Dia,Mes,Year,Hora,Minuto,Segundo); 
0A830:  MOVLW  68
0A832:  MOVWF  FF6
0A834:  MOVLW  0F
0A836:  MOVWF  FF7
0A838:  MOVLW  00
0A83A:  MOVWF  FF8
0A83C:  MOVLW  0D
0A83E:  MOVLB  7
0A840:  MOVWF  xBE
0A842:  MOVLB  0
0A844:  CALL   55F4
0A848:  MOVLW  01
0A84A:  MOVWF  FE9
0A84C:  MOVFF  31B,7C1
0A850:  MOVFF  31A,7C0
0A854:  MOVFF  319,7BF
0A858:  MOVFF  318,7BE
0A85C:  MOVLB  7
0A85E:  MOVWF  xC2
0A860:  MOVLB  0
0A862:  CALL   5710
0A866:  MOVLW  7A
0A868:  MOVWF  FF6
0A86A:  MOVLW  0F
0A86C:  MOVWF  FF7
0A86E:  MOVLW  00
0A870:  MOVWF  FF8
0A872:  MOVLW  09
0A874:  MOVLB  7
0A876:  MOVWF  xBE
0A878:  MOVLB  0
0A87A:  CALL   55F4
0A87E:  MOVFF  386,7BE
0A882:  MOVLW  01
0A884:  MOVLB  7
0A886:  MOVWF  xBF
0A888:  MOVLB  0
0A88A:  CALL   58E0
0A88E:  MOVLW  2F
0A890:  BTFSS  F9E.4
0A892:  BRA    A890
0A894:  MOVWF  FAD
0A896:  MOVFF  385,7BE
0A89A:  MOVLW  01
0A89C:  MOVLB  7
0A89E:  MOVWF  xBF
0A8A0:  MOVLB  0
0A8A2:  CALL   58E0
0A8A6:  MOVLW  2F
0A8A8:  BTFSS  F9E.4
0A8AA:  BRA    A8A8
0A8AC:  MOVWF  FAD
0A8AE:  MOVLW  32
0A8B0:  BTFSS  F9E.4
0A8B2:  BRA    A8B0
0A8B4:  MOVWF  FAD
0A8B6:  MOVLW  30
0A8B8:  BTFSS  F9E.4
0A8BA:  BRA    A8B8
0A8BC:  MOVWF  FAD
0A8BE:  MOVFF  384,7BE
0A8C2:  MOVLW  01
0A8C4:  MOVLB  7
0A8C6:  MOVWF  xBF
0A8C8:  MOVLB  0
0A8CA:  CALL   58E0
0A8CE:  MOVLW  93
0A8D0:  MOVWF  FF6
0A8D2:  MOVLW  0F
0A8D4:  MOVWF  FF7
0A8D6:  MOVLW  00
0A8D8:  MOVWF  FF8
0A8DA:  MOVLW  06
0A8DC:  MOVLB  7
0A8DE:  MOVWF  xBE
0A8E0:  MOVLB  0
0A8E2:  CALL   55F4
0A8E6:  MOVFF  387,7BE
0A8EA:  MOVLW  01
0A8EC:  MOVLB  7
0A8EE:  MOVWF  xBF
0A8F0:  MOVLB  0
0A8F2:  CALL   58E0
0A8F6:  MOVLW  3A
0A8F8:  BTFSS  F9E.4
0A8FA:  BRA    A8F8
0A8FC:  MOVWF  FAD
0A8FE:  MOVFF  388,7BE
0A902:  MOVLW  01
0A904:  MOVLB  7
0A906:  MOVWF  xBF
0A908:  MOVLB  0
0A90A:  CALL   58E0
0A90E:  MOVLW  3A
0A910:  BTFSS  F9E.4
0A912:  BRA    A910
0A914:  MOVWF  FAD
0A916:  MOVFF  389,7BE
0A91A:  MOVLW  01
0A91C:  MOVLB  7
0A91E:  MOVWF  xBF
0A920:  MOVLB  0
0A922:  CALL   58E0
0A926:  MOVLW  22
0A928:  BTFSS  F9E.4
0A92A:  BRA    A928
0A92C:  MOVWF  FAD
....................       SendDataDisplay(); 
0A92E:  CALL   3E98
....................       GuardaEEPROM=OFF; 
0A932:  BCF    xA3.3
....................       printf("tuser.txt=\"%s\"",usuario); 
0A934:  MOVLW  AA
0A936:  MOVWF  FF6
0A938:  MOVLW  0F
0A93A:  MOVWF  FF7
0A93C:  MOVLW  00
0A93E:  MOVWF  FF8
0A940:  MOVLW  0B
0A942:  MOVLB  7
0A944:  MOVWF  xBE
0A946:  MOVLB  0
0A948:  CALL   55F4
0A94C:  MOVLW  03
0A94E:  MOVWF  FEA
0A950:  MOVLW  97
0A952:  MOVWF  FE9
0A954:  CALL   5626
0A958:  MOVLW  22
0A95A:  BTFSS  F9E.4
0A95C:  BRA    A95A
0A95E:  MOVWF  FAD
....................       SendDataDisplay(); 
0A960:  CALL   3E98
....................        
....................       if(RX_Buffer[4]>0x00 && RX_Buffer[4]<0x15 && estados[RX_Buffer[4]-1]){//Personalizados 
0A964:  MOVF   34,F
0A966:  BTFSC  FD8.2
0A968:  BRA    ABD8
0A96A:  MOVF   34,W
0A96C:  SUBLW  14
0A96E:  BTFSS  FD8.0
0A970:  BRA    ABD8
0A972:  MOVLW  01
0A974:  SUBWF  34,W
0A976:  MOVLB  7
0A978:  MOVWF  xBA
0A97A:  MOVLW  03
0A97C:  MOVWF  xBC
0A97E:  MOVLW  FD
0A980:  MOVWF  xBB
0A982:  MOVLB  0
0A984:  CALL   200A
0A988:  BTFSS  01.0
0A98A:  BRA    ABD8
....................          printf("ciclo.txt=\"CICLO P%02u\"",RX_Buffer[4]+0x0a); 
0A98C:  MOVLW  0A
0A98E:  ADDWF  34,W
0A990:  MOVLB  7
0A992:  MOVWF  xB9
0A994:  MOVLW  BA
0A996:  MOVWF  FF6
0A998:  MOVLW  0F
0A99A:  MOVWF  FF7
0A99C:  MOVLW  00
0A99E:  MOVWF  FF8
0A9A0:  MOVLW  12
0A9A2:  MOVWF  xBE
0A9A4:  MOVLB  0
0A9A6:  CALL   55F4
0A9AA:  MOVFF  7B9,7BE
0A9AE:  MOVLW  01
0A9B0:  MOVLB  7
0A9B2:  MOVWF  xBF
0A9B4:  MOVLB  0
0A9B6:  CALL   58E0
0A9BA:  MOVLW  22
0A9BC:  BTFSS  F9E.4
0A9BE:  BRA    A9BC
0A9C0:  MOVWF  FAD
....................          SendDataDisplay();           
0A9C2:  CALL   3E98
....................          printf("temp.txt=\"%u\"",CiclosPersonalizados[RX_Buffer[4]-1].Temperatura); 
0A9C6:  MOVLW  01
0A9C8:  SUBWF  34,W
0A9CA:  MULLW  0A
0A9CC:  MOVF   FF3,W
0A9CE:  MOVLB  7
0A9D0:  CLRF   xBA
0A9D2:  MOVWF  xB9
0A9D4:  MOVLW  C9
0A9D6:  ADDWF  xB9,W
0A9D8:  MOVWF  FE9
0A9DA:  MOVLW  06
0A9DC:  ADDWFC xBA,W
0A9DE:  MOVWF  FEA
0A9E0:  MOVFF  FEF,7B9
0A9E4:  MOVLW  D2
0A9E6:  MOVWF  FF6
0A9E8:  MOVLW  0F
0A9EA:  MOVWF  FF7
0A9EC:  MOVLW  00
0A9EE:  MOVWF  FF8
0A9F0:  MOVLW  0A
0A9F2:  MOVWF  xBE
0A9F4:  MOVLB  0
0A9F6:  CALL   55F4
0A9FA:  MOVFF  7B9,7BE
0A9FE:  MOVLW  1B
0AA00:  MOVLB  7
0AA02:  MOVWF  xBF
0AA04:  MOVLB  0
0AA06:  CALL   58E0
0AA0A:  MOVLW  22
0AA0C:  BTFSS  F9E.4
0AA0E:  BRA    AA0C
0AA10:  MOVWF  FAD
....................          SendDataDisplay(); 
0AA12:  CALL   3E98
....................          printf("test.txt=\"%02u:%02u\"",CiclosPersonalizados[RX_Buffer[4]-1].Minutoest,CiclosPersonalizados[RX_Buffer[4]-1].Segundoest); 
0AA16:  MOVLW  01
0AA18:  SUBWF  34,W
0AA1A:  MULLW  0A
0AA1C:  MOVF   FF3,W
0AA1E:  MOVLB  7
0AA20:  CLRF   xBA
0AA22:  MOVWF  xB9
0AA24:  MOVLW  09
0AA26:  ADDWF  xB9,W
0AA28:  MOVWF  01
0AA2A:  MOVLW  00
0AA2C:  ADDWFC xBA,W
0AA2E:  MOVWF  03
0AA30:  MOVF   01,W
0AA32:  ADDLW  C9
0AA34:  MOVWF  FE9
0AA36:  MOVLW  06
0AA38:  ADDWFC 03,W
0AA3A:  MOVWF  FEA
0AA3C:  MOVFF  FEF,7B9
0AA40:  MOVLW  01
0AA42:  SUBWF  34,W
0AA44:  MULLW  0A
0AA46:  MOVF   FF3,W
0AA48:  CLRF   xBB
0AA4A:  MOVWF  xBA
0AA4C:  MOVLW  03
0AA4E:  ADDWF  xBA,W
0AA50:  MOVWF  01
0AA52:  MOVLW  00
0AA54:  ADDWFC xBB,W
0AA56:  MOVWF  03
0AA58:  MOVF   01,W
0AA5A:  ADDLW  C9
0AA5C:  MOVWF  FE9
0AA5E:  MOVLW  06
0AA60:  ADDWFC 03,W
0AA62:  MOVWF  FEA
0AA64:  MOVFF  FEF,7BA
0AA68:  MOVLW  E0
0AA6A:  MOVWF  FF6
0AA6C:  MOVLW  0F
0AA6E:  MOVWF  FF7
0AA70:  MOVLW  00
0AA72:  MOVWF  FF8
0AA74:  MOVLW  0A
0AA76:  MOVWF  xBE
0AA78:  MOVLB  0
0AA7A:  CALL   55F4
0AA7E:  MOVFF  7B9,7BE
0AA82:  MOVLW  01
0AA84:  MOVLB  7
0AA86:  MOVWF  xBF
0AA88:  MOVLB  0
0AA8A:  CALL   58E0
0AA8E:  MOVLW  3A
0AA90:  BTFSS  F9E.4
0AA92:  BRA    AA90
0AA94:  MOVWF  FAD
0AA96:  MOVFF  7BA,7BE
0AA9A:  MOVLW  01
0AA9C:  MOVLB  7
0AA9E:  MOVWF  xBF
0AAA0:  MOVLB  0
0AAA2:  CALL   58E0
0AAA6:  MOVLW  22
0AAA8:  BTFSS  F9E.4
0AAAA:  BRA    AAA8
0AAAC:  MOVWF  FAD
....................          SendDataDisplay(); 
0AAAE:  CALL   3E98
....................          printf("tsec.txt=\"%02u:%02u\"",CiclosPersonalizados[RX_Buffer[4]-1].Minutosec,CiclosPersonalizados[RX_Buffer[4]-1].Segundosec); 
0AAB2:  MOVLW  01
0AAB4:  SUBWF  34,W
0AAB6:  MULLW  0A
0AAB8:  MOVF   FF3,W
0AABA:  MOVLB  7
0AABC:  CLRF   xBA
0AABE:  MOVWF  xB9
0AAC0:  MOVLW  04
0AAC2:  ADDWF  xB9,W
0AAC4:  MOVWF  01
0AAC6:  MOVLW  00
0AAC8:  ADDWFC xBA,W
0AACA:  MOVWF  03
0AACC:  MOVF   01,W
0AACE:  ADDLW  C9
0AAD0:  MOVWF  FE9
0AAD2:  MOVLW  06
0AAD4:  ADDWFC 03,W
0AAD6:  MOVWF  FEA
0AAD8:  MOVFF  FEF,7B9
0AADC:  MOVLW  01
0AADE:  SUBWF  34,W
0AAE0:  MULLW  0A
0AAE2:  MOVF   FF3,W
0AAE4:  CLRF   xBB
0AAE6:  MOVWF  xBA
0AAE8:  MOVLW  05
0AAEA:  ADDWF  xBA,W
0AAEC:  MOVWF  01
0AAEE:  MOVLW  00
0AAF0:  ADDWFC xBB,W
0AAF2:  MOVWF  03
0AAF4:  MOVF   01,W
0AAF6:  ADDLW  C9
0AAF8:  MOVWF  FE9
0AAFA:  MOVLW  06
0AAFC:  ADDWFC 03,W
0AAFE:  MOVWF  FEA
0AB00:  MOVFF  FEF,7BA
0AB04:  MOVLW  F6
0AB06:  MOVWF  FF6
0AB08:  MOVLW  0F
0AB0A:  MOVWF  FF7
0AB0C:  MOVLW  00
0AB0E:  MOVWF  FF8
0AB10:  MOVLW  0A
0AB12:  MOVWF  xBE
0AB14:  MOVLB  0
0AB16:  CALL   55F4
0AB1A:  MOVFF  7B9,7BE
0AB1E:  MOVLW  01
0AB20:  MOVLB  7
0AB22:  MOVWF  xBF
0AB24:  MOVLB  0
0AB26:  CALL   58E0
0AB2A:  MOVLW  3A
0AB2C:  BTFSS  F9E.4
0AB2E:  BRA    AB2C
0AB30:  MOVWF  FAD
0AB32:  MOVFF  7BA,7BE
0AB36:  MOVLW  01
0AB38:  MOVLB  7
0AB3A:  MOVWF  xBF
0AB3C:  MOVLB  0
0AB3E:  CALL   58E0
0AB42:  MOVLW  22
0AB44:  BTFSS  F9E.4
0AB46:  BRA    AB44
0AB48:  MOVWF  FAD
....................          SendDataDisplay(); 
0AB4A:  CALL   3E98
....................          //printf("pulsos.txt=\"%02u\"",CiclosPersonalizados[RX_Buffer[4]-1].PulsosVacio); 
....................          printf("pulsos.txt=\"--\""); 
0AB4E:  MOVLW  0C
0AB50:  MOVWF  FF6
0AB52:  MOVLW  10
0AB54:  MOVWF  FF7
0AB56:  MOVLW  00
0AB58:  MOVWF  FF8
0AB5A:  CALL   3E66
....................          SendDataDisplay(); 
0AB5E:  CALL   3E98
....................          //printf("vacio.txt=\"%03u kPa\"",CiclosPersonalizados[RX_Buffer[4]-1].NivelVacio); 
....................          printf("vacio.txt=\"--\""); 
0AB62:  MOVLW  1C
0AB64:  MOVWF  FF6
0AB66:  MOVLW  10
0AB68:  MOVWF  FF7
0AB6A:  MOVLW  00
0AB6C:  MOVWF  FF8
0AB6E:  CALL   3E66
....................          SendDataDisplay(); 
0AB72:  CALL   3E98
....................          printf("desfogue.txt=\"%u\"",CiclosPersonalizados[RX_Buffer[4]-1].NivelDesfogue); 
0AB76:  MOVLW  01
0AB78:  SUBWF  34,W
0AB7A:  MULLW  0A
0AB7C:  MOVF   FF3,W
0AB7E:  MOVLB  7
0AB80:  CLRF   xBA
0AB82:  MOVWF  xB9
0AB84:  MOVLW  08
0AB86:  ADDWF  xB9,W
0AB88:  MOVWF  01
0AB8A:  MOVLW  00
0AB8C:  ADDWFC xBA,W
0AB8E:  MOVWF  03
0AB90:  MOVF   01,W
0AB92:  ADDLW  C9
0AB94:  MOVWF  FE9
0AB96:  MOVLW  06
0AB98:  ADDWFC 03,W
0AB9A:  MOVWF  FEA
0AB9C:  MOVFF  FEF,7B9
0ABA0:  MOVLW  2C
0ABA2:  MOVWF  FF6
0ABA4:  MOVLW  10
0ABA6:  MOVWF  FF7
0ABA8:  MOVLW  00
0ABAA:  MOVWF  FF8
0ABAC:  MOVLW  0E
0ABAE:  MOVWF  xBE
0ABB0:  MOVLB  0
0ABB2:  CALL   55F4
0ABB6:  MOVFF  7B9,7BE
0ABBA:  MOVLW  1B
0ABBC:  MOVLB  7
0ABBE:  MOVWF  xBF
0ABC0:  MOVLB  0
0ABC2:  CALL   58E0
0ABC6:  MOVLW  22
0ABC8:  BTFSS  F9E.4
0ABCA:  BRA    ABC8
0ABCC:  MOVWF  FAD
....................          //printf("desfogue.txt=\"N/A\""); 
....................          SendDataDisplay(); 
0ABCE:  CALL   3E98
....................          CicloLibre=RX_Buffer[4]; 
0ABD2:  MOVFF  34,332
....................       }else if(CicloLibre==0x00){ 
0ABD6:  BRA    AEF4
0ABD8:  MOVLB  3
0ABDA:  MOVF   x32,F
0ABDC:  BNZ   AC70
....................          printf("ciclo.txt=\"CICLO P--\""); 
0ABDE:  MOVLW  3E
0ABE0:  MOVWF  FF6
0ABE2:  MOVLW  10
0ABE4:  MOVWF  FF7
0ABE6:  MOVLW  00
0ABE8:  MOVWF  FF8
0ABEA:  MOVLB  0
0ABEC:  CALL   3E66
....................          SendDataDisplay();           
0ABF0:  CALL   3E98
....................          printf("temp.txt=\"--\""); 
0ABF4:  MOVLW  54
0ABF6:  MOVWF  FF6
0ABF8:  MOVLW  10
0ABFA:  MOVWF  FF7
0ABFC:  MOVLW  00
0ABFE:  MOVWF  FF8
0AC00:  CALL   3E66
....................          SendDataDisplay(); 
0AC04:  CALL   3E98
....................          printf("test.txt=\"--:--\""); 
0AC08:  MOVLW  62
0AC0A:  MOVWF  FF6
0AC0C:  MOVLW  10
0AC0E:  MOVWF  FF7
0AC10:  MOVLW  00
0AC12:  MOVWF  FF8
0AC14:  CALL   3E66
....................          SendDataDisplay(); 
0AC18:  CALL   3E98
....................          printf("tsec.txt=\"--:--\""); 
0AC1C:  MOVLW  74
0AC1E:  MOVWF  FF6
0AC20:  MOVLW  10
0AC22:  MOVWF  FF7
0AC24:  MOVLW  00
0AC26:  MOVWF  FF8
0AC28:  CALL   3E66
....................          SendDataDisplay(); 
0AC2C:  CALL   3E98
....................          printf("pulsos.txt=\"--\""); 
0AC30:  MOVLW  86
0AC32:  MOVWF  FF6
0AC34:  MOVLW  10
0AC36:  MOVWF  FF7
0AC38:  MOVLW  00
0AC3A:  MOVWF  FF8
0AC3C:  CALL   3E66
....................          SendDataDisplay(); 
0AC40:  CALL   3E98
....................          printf("vacio.txt=\"--\""); 
0AC44:  MOVLW  96
0AC46:  MOVWF  FF6
0AC48:  MOVLW  10
0AC4A:  MOVWF  FF7
0AC4C:  MOVLW  00
0AC4E:  MOVWF  FF8
0AC50:  CALL   3E66
....................          SendDataDisplay(); 
0AC54:  CALL   3E98
....................          printf("desfogue.txt=\"--\""); 
0AC58:  MOVLW  A6
0AC5A:  MOVWF  FF6
0AC5C:  MOVLW  10
0AC5E:  MOVWF  FF7
0AC60:  MOVLW  00
0AC62:  MOVWF  FF8
0AC64:  CALL   3E66
....................          SendDataDisplay(); 
0AC68:  CALL   3E98
....................       }else if(CicloLibre>0 && CicloLibre<21 && estados[CicloLibre-1]){ 
0AC6C:  BRA    AEF4
0AC6E:  MOVLB  3
0AC70:  MOVF   x32,F
0AC72:  BTFSC  FD8.2
0AC74:  BRA    AEF6
0AC76:  MOVF   x32,W
0AC78:  SUBLW  14
0AC7A:  BTFSS  FD8.0
0AC7C:  BRA    AEF6
0AC7E:  MOVLW  01
0AC80:  SUBWF  x32,W
0AC82:  MOVLB  7
0AC84:  MOVWF  xBA
0AC86:  MOVLW  03
0AC88:  MOVWF  xBC
0AC8A:  MOVLW  FD
0AC8C:  MOVWF  xBB
0AC8E:  MOVLB  0
0AC90:  CALL   200A
0AC94:  BTFSC  01.0
0AC96:  BRA    AC9C
0AC98:  MOVLB  3
0AC9A:  BRA    AEF6
....................          printf("ciclo.txt=\"CICLO P%02u\"",CicloLibre+0x0a); 
0AC9C:  MOVLW  0A
0AC9E:  MOVLB  3
0ACA0:  ADDWF  x32,W
0ACA2:  MOVLB  7
0ACA4:  MOVWF  xB9
0ACA6:  MOVLW  B8
0ACA8:  MOVWF  FF6
0ACAA:  MOVLW  10
0ACAC:  MOVWF  FF7
0ACAE:  MOVLW  00
0ACB0:  MOVWF  FF8
0ACB2:  MOVLW  12
0ACB4:  MOVWF  xBE
0ACB6:  MOVLB  0
0ACB8:  CALL   55F4
0ACBC:  MOVFF  7B9,7BE
0ACC0:  MOVLW  01
0ACC2:  MOVLB  7
0ACC4:  MOVWF  xBF
0ACC6:  MOVLB  0
0ACC8:  CALL   58E0
0ACCC:  MOVLW  22
0ACCE:  BTFSS  F9E.4
0ACD0:  BRA    ACCE
0ACD2:  MOVWF  FAD
....................          SendDataDisplay();           
0ACD4:  CALL   3E98
....................          printf("temp.txt=\"%u\"",CiclosPersonalizados[CicloLibre-1].Temperatura); 
0ACD8:  MOVLW  01
0ACDA:  MOVLB  3
0ACDC:  SUBWF  x32,W
0ACDE:  MULLW  0A
0ACE0:  MOVF   FF3,W
0ACE2:  MOVLB  7
0ACE4:  CLRF   xBA
0ACE6:  MOVWF  xB9
0ACE8:  MOVLW  C9
0ACEA:  ADDWF  xB9,W
0ACEC:  MOVWF  FE9
0ACEE:  MOVLW  06
0ACF0:  ADDWFC xBA,W
0ACF2:  MOVWF  FEA
0ACF4:  MOVFF  FEF,7B9
0ACF8:  MOVLW  D0
0ACFA:  MOVWF  FF6
0ACFC:  MOVLW  10
0ACFE:  MOVWF  FF7
0AD00:  MOVLW  00
0AD02:  MOVWF  FF8
0AD04:  MOVLW  0A
0AD06:  MOVWF  xBE
0AD08:  MOVLB  0
0AD0A:  CALL   55F4
0AD0E:  MOVFF  7B9,7BE
0AD12:  MOVLW  1B
0AD14:  MOVLB  7
0AD16:  MOVWF  xBF
0AD18:  MOVLB  0
0AD1A:  CALL   58E0
0AD1E:  MOVLW  22
0AD20:  BTFSS  F9E.4
0AD22:  BRA    AD20
0AD24:  MOVWF  FAD
....................          SendDataDisplay(); 
0AD26:  CALL   3E98
....................          printf("test.txt=\"%02u:%02u\"",CiclosPersonalizados[CicloLibre-1].Minutoest,CiclosPersonalizados[CicloLibre-1].Segundoest); 
0AD2A:  MOVLW  01
0AD2C:  MOVLB  3
0AD2E:  SUBWF  x32,W
0AD30:  MULLW  0A
0AD32:  MOVF   FF3,W
0AD34:  MOVLB  7
0AD36:  CLRF   xBA
0AD38:  MOVWF  xB9
0AD3A:  MOVLW  09
0AD3C:  ADDWF  xB9,W
0AD3E:  MOVWF  01
0AD40:  MOVLW  00
0AD42:  ADDWFC xBA,W
0AD44:  MOVWF  03
0AD46:  MOVF   01,W
0AD48:  ADDLW  C9
0AD4A:  MOVWF  FE9
0AD4C:  MOVLW  06
0AD4E:  ADDWFC 03,W
0AD50:  MOVWF  FEA
0AD52:  MOVFF  FEF,7B9
0AD56:  MOVLW  01
0AD58:  MOVLB  3
0AD5A:  SUBWF  x32,W
0AD5C:  MULLW  0A
0AD5E:  MOVF   FF3,W
0AD60:  MOVLB  7
0AD62:  CLRF   xBB
0AD64:  MOVWF  xBA
0AD66:  MOVLW  03
0AD68:  ADDWF  xBA,W
0AD6A:  MOVWF  01
0AD6C:  MOVLW  00
0AD6E:  ADDWFC xBB,W
0AD70:  MOVWF  03
0AD72:  MOVF   01,W
0AD74:  ADDLW  C9
0AD76:  MOVWF  FE9
0AD78:  MOVLW  06
0AD7A:  ADDWFC 03,W
0AD7C:  MOVWF  FEA
0AD7E:  MOVFF  FEF,7BA
0AD82:  MOVLW  DE
0AD84:  MOVWF  FF6
0AD86:  MOVLW  10
0AD88:  MOVWF  FF7
0AD8A:  MOVLW  00
0AD8C:  MOVWF  FF8
0AD8E:  MOVLW  0A
0AD90:  MOVWF  xBE
0AD92:  MOVLB  0
0AD94:  CALL   55F4
0AD98:  MOVFF  7B9,7BE
0AD9C:  MOVLW  01
0AD9E:  MOVLB  7
0ADA0:  MOVWF  xBF
0ADA2:  MOVLB  0
0ADA4:  CALL   58E0
0ADA8:  MOVLW  3A
0ADAA:  BTFSS  F9E.4
0ADAC:  BRA    ADAA
0ADAE:  MOVWF  FAD
0ADB0:  MOVFF  7BA,7BE
0ADB4:  MOVLW  01
0ADB6:  MOVLB  7
0ADB8:  MOVWF  xBF
0ADBA:  MOVLB  0
0ADBC:  CALL   58E0
0ADC0:  MOVLW  22
0ADC2:  BTFSS  F9E.4
0ADC4:  BRA    ADC2
0ADC6:  MOVWF  FAD
....................          SendDataDisplay(); 
0ADC8:  CALL   3E98
....................          printf("tsec.txt=\"%02u:%02u\"",CiclosPersonalizados[CicloLibre-1].Minutosec,CiclosPersonalizados[CicloLibre-1].Segundosec); 
0ADCC:  MOVLW  01
0ADCE:  MOVLB  3
0ADD0:  SUBWF  x32,W
0ADD2:  MULLW  0A
0ADD4:  MOVF   FF3,W
0ADD6:  MOVLB  7
0ADD8:  CLRF   xBA
0ADDA:  MOVWF  xB9
0ADDC:  MOVLW  04
0ADDE:  ADDWF  xB9,W
0ADE0:  MOVWF  01
0ADE2:  MOVLW  00
0ADE4:  ADDWFC xBA,W
0ADE6:  MOVWF  03
0ADE8:  MOVF   01,W
0ADEA:  ADDLW  C9
0ADEC:  MOVWF  FE9
0ADEE:  MOVLW  06
0ADF0:  ADDWFC 03,W
0ADF2:  MOVWF  FEA
0ADF4:  MOVFF  FEF,7B9
0ADF8:  MOVLW  01
0ADFA:  MOVLB  3
0ADFC:  SUBWF  x32,W
0ADFE:  MULLW  0A
0AE00:  MOVF   FF3,W
0AE02:  MOVLB  7
0AE04:  CLRF   xBB
0AE06:  MOVWF  xBA
0AE08:  MOVLW  05
0AE0A:  ADDWF  xBA,W
0AE0C:  MOVWF  01
0AE0E:  MOVLW  00
0AE10:  ADDWFC xBB,W
0AE12:  MOVWF  03
0AE14:  MOVF   01,W
0AE16:  ADDLW  C9
0AE18:  MOVWF  FE9
0AE1A:  MOVLW  06
0AE1C:  ADDWFC 03,W
0AE1E:  MOVWF  FEA
0AE20:  MOVFF  FEF,7BA
0AE24:  MOVLW  F4
0AE26:  MOVWF  FF6
0AE28:  MOVLW  10
0AE2A:  MOVWF  FF7
0AE2C:  MOVLW  00
0AE2E:  MOVWF  FF8
0AE30:  MOVLW  0A
0AE32:  MOVWF  xBE
0AE34:  MOVLB  0
0AE36:  CALL   55F4
0AE3A:  MOVFF  7B9,7BE
0AE3E:  MOVLW  01
0AE40:  MOVLB  7
0AE42:  MOVWF  xBF
0AE44:  MOVLB  0
0AE46:  CALL   58E0
0AE4A:  MOVLW  3A
0AE4C:  BTFSS  F9E.4
0AE4E:  BRA    AE4C
0AE50:  MOVWF  FAD
0AE52:  MOVFF  7BA,7BE
0AE56:  MOVLW  01
0AE58:  MOVLB  7
0AE5A:  MOVWF  xBF
0AE5C:  MOVLB  0
0AE5E:  CALL   58E0
0AE62:  MOVLW  22
0AE64:  BTFSS  F9E.4
0AE66:  BRA    AE64
0AE68:  MOVWF  FAD
....................          SendDataDisplay(); 
0AE6A:  CALL   3E98
....................          //printf("pulsos.txt=\"%02u\"",CiclosPersonalizados[CicloLibre-1].PulsosVacio); 
....................          printf("pulsos.txt=\"--\""); 
0AE6E:  MOVLW  0A
0AE70:  MOVWF  FF6
0AE72:  MOVLW  11
0AE74:  MOVWF  FF7
0AE76:  MOVLW  00
0AE78:  MOVWF  FF8
0AE7A:  CALL   3E66
....................          SendDataDisplay(); 
0AE7E:  CALL   3E98
....................          //printf("vacio.txt=\"%03u kPa\"",CiclosPersonalizados[CicloLibre-1].NivelVacio); 
....................          printf("vacio.txt=\"--\""); 
0AE82:  MOVLW  1A
0AE84:  MOVWF  FF6
0AE86:  MOVLW  11
0AE88:  MOVWF  FF7
0AE8A:  MOVLW  00
0AE8C:  MOVWF  FF8
0AE8E:  CALL   3E66
....................          SendDataDisplay(); 
0AE92:  CALL   3E98
....................          printf("desfogue.txt=\"%u\"",CiclosPersonalizados[CicloLibre-1].NivelDesfogue); 
0AE96:  MOVLW  01
0AE98:  MOVLB  3
0AE9A:  SUBWF  x32,W
0AE9C:  MULLW  0A
0AE9E:  MOVF   FF3,W
0AEA0:  MOVLB  7
0AEA2:  CLRF   xBA
0AEA4:  MOVWF  xB9
0AEA6:  MOVLW  08
0AEA8:  ADDWF  xB9,W
0AEAA:  MOVWF  01
0AEAC:  MOVLW  00
0AEAE:  ADDWFC xBA,W
0AEB0:  MOVWF  03
0AEB2:  MOVF   01,W
0AEB4:  ADDLW  C9
0AEB6:  MOVWF  FE9
0AEB8:  MOVLW  06
0AEBA:  ADDWFC 03,W
0AEBC:  MOVWF  FEA
0AEBE:  MOVFF  FEF,7B9
0AEC2:  MOVLW  2A
0AEC4:  MOVWF  FF6
0AEC6:  MOVLW  11
0AEC8:  MOVWF  FF7
0AECA:  MOVLW  00
0AECC:  MOVWF  FF8
0AECE:  MOVLW  0E
0AED0:  MOVWF  xBE
0AED2:  MOVLB  0
0AED4:  CALL   55F4
0AED8:  MOVFF  7B9,7BE
0AEDC:  MOVLW  1B
0AEDE:  MOVLB  7
0AEE0:  MOVWF  xBF
0AEE2:  MOVLB  0
0AEE4:  CALL   58E0
0AEE8:  MOVLW  22
0AEEA:  BTFSS  F9E.4
0AEEC:  BRA    AEEA
0AEEE:  MOVWF  FAD
....................          //printf("desfogue.txt=\"N/A\""); 
....................          SendDataDisplay(); 
0AEF0:  CALL   3E98
0AEF4:  MOVLB  3
....................       } 
....................        
....................       if(RX_Buffer[4]==0xa0){//a0, Menu Principal 
0AEF6:  MOVF   34,W
0AEF8:  SUBLW  A0
0AEFA:  BNZ   AF14
....................          printf("page MenuPrincipal"); 
0AEFC:  MOVLW  3C
0AEFE:  MOVWF  FF6
0AF00:  MOVLW  11
0AF02:  MOVWF  FF7
0AF04:  MOVLW  00
0AF06:  MOVWF  FF8
0AF08:  MOVLB  0
0AF0A:  CALL   3E66
....................          SendDataDisplay();      
0AF0E:  CALL   3E98
0AF12:  MOVLB  3
....................       } 
....................        
....................       if(RX_Buffer[4]==0xb0){//b0, Personalizados 
0AF14:  MOVF   34,W
0AF16:  SUBLW  B0
0AF18:  BNZ   AF32
....................          printf("page CicloPersona"); 
0AF1A:  MOVLW  50
0AF1C:  MOVWF  FF6
0AF1E:  MOVLW  11
0AF20:  MOVWF  FF7
0AF22:  MOVLW  00
0AF24:  MOVWF  FF8
0AF26:  MOVLB  0
0AF28:  CALL   3E66
....................          SendDataDisplay();      
0AF2C:  CALL   3E98
0AF30:  MOVLB  3
....................       } 
....................        
....................       if(RX_Buffer[4]==0xc0){//c0, Configuraciones 
0AF32:  MOVF   34,W
0AF34:  SUBLW  C0
0AF36:  BNZ   AF5A
....................          if(codigoUsuario==0 || codigoUsuario==9){   
0AF38:  MOVLB  0
0AF3A:  MOVF   xC8,F
0AF3C:  BZ    AF44
0AF3E:  MOVF   xC8,W
0AF40:  SUBLW  09
0AF42:  BNZ   AF58
....................             printf("page Ajustes"); 
0AF44:  MOVLW  62
0AF46:  MOVWF  FF6
0AF48:  MOVLW  11
0AF4A:  MOVWF  FF7
0AF4C:  MOVLW  00
0AF4E:  MOVWF  FF8
0AF50:  CALL   3E66
....................             SendDataDisplay();      
0AF54:  CALL   3E98
0AF58:  MOVLB  3
....................          } 
....................       } 
....................        
....................       if(RX_Buffer[4]==0x20 && CicloLibre>0){//20, Temperatura 
0AF5A:  MOVF   34,W
0AF5C:  SUBLW  20
0AF5E:  BNZ   AFA6
0AF60:  MOVF   x32,F
0AF62:  BZ    AFA6
....................          if(codigoUsuario==0 || codigoUsuario==9){   
0AF64:  MOVLB  0
0AF66:  MOVF   xC8,F
0AF68:  BZ    AF70
0AF6A:  MOVF   xC8,W
0AF6C:  SUBLW  09
0AF6E:  BNZ   AFA8
....................             printf("page Temperatura"); 
0AF70:  MOVLW  70
0AF72:  MOVWF  FF6
0AF74:  MOVLW  11
0AF76:  MOVWF  FF7
0AF78:  MOVLW  00
0AF7A:  MOVWF  FF8
0AF7C:  CALL   3E66
....................             SendDataDisplay();      
0AF80:  CALL   3E98
....................             Setpoint=CiclosPersonalizados[CicloLibre-1].Temperatura; 
0AF84:  MOVLW  01
0AF86:  MOVLB  3
0AF88:  SUBWF  x32,W
0AF8A:  MULLW  0A
0AF8C:  MOVF   FF3,W
0AF8E:  MOVLB  7
0AF90:  CLRF   xBA
0AF92:  MOVWF  xB9
0AF94:  MOVLW  C9
0AF96:  ADDWF  xB9,W
0AF98:  MOVWF  FE9
0AF9A:  MOVLW  06
0AF9C:  ADDWFC xBA,W
0AF9E:  MOVWF  FEA
0AFA0:  MOVFF  FEF,355
0AFA4:  MOVLB  3
0AFA6:  MOVLB  0
....................          } 
....................       } 
....................        
....................       if(RX_Buffer[4]==0x30 && CicloLibre>0){//30, Test 
0AFA8:  MOVF   34,W
0AFAA:  SUBLW  30
0AFAC:  BNZ   B036
0AFAE:  MOVLB  3
0AFB0:  MOVF   x32,F
0AFB2:  BTFSS  FD8.2
0AFB4:  BRA    AFBA
0AFB6:  MOVLB  0
0AFB8:  BRA    B036
....................          if(codigoUsuario==0 || codigoUsuario==9){   
0AFBA:  MOVLB  0
0AFBC:  MOVF   xC8,F
0AFBE:  BZ    AFC6
0AFC0:  MOVF   xC8,W
0AFC2:  SUBLW  09
0AFC4:  BNZ   B036
....................             printf("page TiempoEst"); 
0AFC6:  MOVLW  82
0AFC8:  MOVWF  FF6
0AFCA:  MOVLW  11
0AFCC:  MOVWF  FF7
0AFCE:  MOVLW  00
0AFD0:  MOVWF  FF8
0AFD2:  CALL   3E66
....................             SendDataDisplay();      
0AFD6:  CALL   3E98
....................             mEstp=CiclosPersonalizados[CicloLibre-1].Minutoest; 
0AFDA:  MOVLW  01
0AFDC:  MOVLB  3
0AFDE:  SUBWF  x32,W
0AFE0:  MULLW  0A
0AFE2:  MOVF   FF3,W
0AFE4:  MOVLB  7
0AFE6:  CLRF   xBA
0AFE8:  MOVWF  xB9
0AFEA:  MOVLW  09
0AFEC:  ADDWF  xB9,W
0AFEE:  MOVWF  01
0AFF0:  MOVLW  00
0AFF2:  ADDWFC xBA,W
0AFF4:  MOVWF  03
0AFF6:  MOVF   01,W
0AFF8:  ADDLW  C9
0AFFA:  MOVWF  FE9
0AFFC:  MOVLW  06
0AFFE:  ADDWFC 03,W
0B000:  MOVWF  FEA
0B002:  MOVFF  FEF,C3
0B006:  MOVLB  0
....................             sEstp=CiclosPersonalizados[CicloLibre-1].Segundoest; 
0B008:  MOVLW  01
0B00A:  MOVLB  3
0B00C:  SUBWF  x32,W
0B00E:  MULLW  0A
0B010:  MOVF   FF3,W
0B012:  MOVLB  7
0B014:  CLRF   xBA
0B016:  MOVWF  xB9
0B018:  MOVLW  03
0B01A:  ADDWF  xB9,W
0B01C:  MOVWF  01
0B01E:  MOVLW  00
0B020:  ADDWFC xBA,W
0B022:  MOVWF  03
0B024:  MOVF   01,W
0B026:  ADDLW  C9
0B028:  MOVWF  FE9
0B02A:  MOVLW  06
0B02C:  ADDWFC 03,W
0B02E:  MOVWF  FEA
0B030:  MOVFF  FEF,C2
0B034:  MOVLB  0
....................          } 
....................       } 
....................        
....................       if(RX_Buffer[4]==0x40 && CicloLibre>0){//40, Tsec 
0B036:  MOVF   34,W
0B038:  SUBLW  40
0B03A:  BNZ   B0C4
0B03C:  MOVLB  3
0B03E:  MOVF   x32,F
0B040:  BTFSS  FD8.2
0B042:  BRA    B048
0B044:  MOVLB  0
0B046:  BRA    B0C4
....................          if(codigoUsuario==0 || codigoUsuario==9){   
0B048:  MOVLB  0
0B04A:  MOVF   xC8,F
0B04C:  BZ    B054
0B04E:  MOVF   xC8,W
0B050:  SUBLW  09
0B052:  BNZ   B0C4
....................             printf("page TiempoSec"); 
0B054:  MOVLW  92
0B056:  MOVWF  FF6
0B058:  MOVLW  11
0B05A:  MOVWF  FF7
0B05C:  MOVLW  00
0B05E:  MOVWF  FF8
0B060:  CALL   3E66
....................             SendDataDisplay();    
0B064:  CALL   3E98
....................             mSecp=CiclosPersonalizados[CicloLibre-1].Minutosec; 
0B068:  MOVLW  01
0B06A:  MOVLB  3
0B06C:  SUBWF  x32,W
0B06E:  MULLW  0A
0B070:  MOVF   FF3,W
0B072:  MOVLB  7
0B074:  CLRF   xBA
0B076:  MOVWF  xB9
0B078:  MOVLW  04
0B07A:  ADDWF  xB9,W
0B07C:  MOVWF  01
0B07E:  MOVLW  00
0B080:  ADDWFC xBA,W
0B082:  MOVWF  03
0B084:  MOVF   01,W
0B086:  ADDLW  C9
0B088:  MOVWF  FE9
0B08A:  MOVLW  06
0B08C:  ADDWFC 03,W
0B08E:  MOVWF  FEA
0B090:  MOVFF  FEF,C5
0B094:  MOVLB  0
....................             sSecp=CiclosPersonalizados[CicloLibre-1].Segundosec; 
0B096:  MOVLW  01
0B098:  MOVLB  3
0B09A:  SUBWF  x32,W
0B09C:  MULLW  0A
0B09E:  MOVF   FF3,W
0B0A0:  MOVLB  7
0B0A2:  CLRF   xBA
0B0A4:  MOVWF  xB9
0B0A6:  MOVLW  05
0B0A8:  ADDWF  xB9,W
0B0AA:  MOVWF  01
0B0AC:  MOVLW  00
0B0AE:  ADDWFC xBA,W
0B0B0:  MOVWF  03
0B0B2:  MOVF   01,W
0B0B4:  ADDLW  C9
0B0B6:  MOVWF  FE9
0B0B8:  MOVLW  06
0B0BA:  ADDWFC 03,W
0B0BC:  MOVWF  FEA
0B0BE:  MOVFF  FEF,C4
0B0C2:  MOVLB  0
....................          } 
....................       } 
....................        
....................       if(RX_Buffer[4]==0x50 && CicloLibre>0){//50, PulsosVacio 
0B0C4:  MOVF   34,W
0B0C6:  SUBLW  50
0B0C8:  BNZ   B0D8
0B0CA:  MOVLB  3
0B0CC:  MOVF   x32,F
0B0CE:  BTFSS  FD8.2
0B0D0:  BRA    B0D6
0B0D2:  MOVLB  0
0B0D4:  BRA    B0D8
0B0D6:  MOVLB  0
....................          /* 
....................          if(codigoUsuario==0 || codigoUsuario==9){ 
....................             printf("page Pulsos"); 
....................             SendDataDisplay();      
....................             Pulsos=CiclosPersonalizados[CicloLibre-1].PulsosVacio; 
....................          } 
....................          */ 
....................       } 
....................        
....................       if(RX_Buffer[4]==0x60 && CicloLibre>0){//60, NivelVacio 
0B0D8:  MOVF   34,W
0B0DA:  SUBLW  60
0B0DC:  BNZ   B0EC
0B0DE:  MOVLB  3
0B0E0:  MOVF   x32,F
0B0E2:  BTFSS  FD8.2
0B0E4:  BRA    B0EA
0B0E6:  MOVLB  0
0B0E8:  BRA    B0EC
0B0EA:  MOVLB  0
....................          /* 
....................          if(codigoUsuario==0 || codigoUsuario==9){ 
....................             printf("page Nivel"); 
....................             SendDataDisplay();      
....................             Nivel=CiclosPersonalizados[CicloLibre-1].NivelVacio; 
....................          } 
....................          */ 
....................       } 
....................        
....................       if(RX_Buffer[4]==0x80 && CicloLibre>0){//80, NivelDesfogue 
0B0EC:  MOVF   34,W
0B0EE:  SUBLW  80
0B0F0:  BNZ   B154
0B0F2:  MOVLB  3
0B0F4:  MOVF   x32,F
0B0F6:  BTFSS  FD8.2
0B0F8:  BRA    B0FE
0B0FA:  MOVLB  0
0B0FC:  BRA    B154
....................          if(codigoUsuario==0 || codigoUsuario==9){   
0B0FE:  MOVLB  0
0B100:  MOVF   xC8,F
0B102:  BZ    B10A
0B104:  MOVF   xC8,W
0B106:  SUBLW  09
0B108:  BNZ   B154
....................             printf("page NivelDes"); 
0B10A:  MOVLW  A2
0B10C:  MOVWF  FF6
0B10E:  MOVLW  11
0B110:  MOVWF  FF7
0B112:  MOVLW  00
0B114:  MOVWF  FF8
0B116:  CALL   3E66
....................             SendDataDisplay();      
0B11A:  CALL   3E98
....................             NivelDes=CiclosPersonalizados[CicloLibre-1].NivelDesfogue; 
0B11E:  MOVLW  01
0B120:  MOVLB  3
0B122:  SUBWF  x32,W
0B124:  MULLW  0A
0B126:  MOVF   FF3,W
0B128:  MOVLB  7
0B12A:  CLRF   xBA
0B12C:  MOVWF  xB9
0B12E:  MOVLW  08
0B130:  ADDWF  xB9,W
0B132:  MOVWF  01
0B134:  MOVLW  00
0B136:  ADDWFC xBA,W
0B138:  MOVWF  03
0B13A:  MOVF   01,W
0B13C:  ADDLW  C9
0B13E:  MOVWF  FE9
0B140:  MOVLW  06
0B142:  ADDWFC 03,W
0B144:  MOVWF  FEA
0B146:  MOVFF  FEF,CC
0B14A:  MOVLB  0
....................             MenuAnt=1; 
0B14C:  MOVLW  01
0B14E:  MOVLB  3
0B150:  MOVWF  x4F
0B152:  MOVLB  0
....................          } 
....................       } 
....................        
....................       if(RX_Buffer[4]==0x70 && CicloLibre>0){//70, Iniciar Ciclo 
0B154:  MOVF   34,W
0B156:  SUBLW  70
0B158:  BTFSS  FD8.2
0B15A:  BRA    B432
0B15C:  MOVLB  3
0B15E:  MOVF   x32,F
0B160:  BTFSS  FD8.2
0B162:  BRA    B168
0B164:  MOVLB  0
0B166:  BRA    B432
....................          printf("page Funcionamiento"); 
0B168:  MOVLW  B0
0B16A:  MOVWF  FF6
0B16C:  MOVLW  11
0B16E:  MOVWF  FF7
0B170:  MOVLW  00
0B172:  MOVWF  FF8
0B174:  MOVLB  0
0B176:  CALL   3E66
....................          SendDataDisplay();        
0B17A:  CALL   3E98
....................          Libre=ON; 
0B17E:  BSF    xA4.3
....................          if(CiclosPersonalizados[CicloLibre-1].NivelDesfogue>5){ 
0B180:  MOVLW  01
0B182:  MOVLB  3
0B184:  SUBWF  x32,W
0B186:  MULLW  0A
0B188:  MOVF   FF3,W
0B18A:  MOVLB  7
0B18C:  CLRF   xBA
0B18E:  MOVWF  xB9
0B190:  MOVLW  08
0B192:  ADDWF  xB9,W
0B194:  MOVWF  01
0B196:  MOVLW  00
0B198:  ADDWFC xBA,W
0B19A:  MOVWF  03
0B19C:  MOVF   01,W
0B19E:  ADDLW  C9
0B1A0:  MOVWF  FE9
0B1A2:  MOVLW  06
0B1A4:  ADDWFC 03,W
0B1A6:  MOVWF  FEA
0B1A8:  MOVF   FEF,W
0B1AA:  SUBLW  05
0B1AC:  BTFSC  FD8.0
0B1AE:  BRA    B2B4
....................             ConfiguraCiclo(CiclosPersonalizados[CicloLibre-1].Segundoest,CiclosPersonalizados[CicloLibre-1].Minutoest, 
....................             CiclosPersonalizados[CicloLibre-1].Segundosec,CiclosPersonalizados[CicloLibre-1].MinutoSec,0,CicloLibre+10, 
....................             CiclosPersonalizados[CicloLibre-1].Temperatura,0,0 
....................             ,0); 
0B1B0:  MOVLW  01
0B1B2:  MOVLB  3
0B1B4:  SUBWF  x32,W
0B1B6:  MULLW  0A
0B1B8:  MOVF   FF3,W
0B1BA:  MOVLB  7
0B1BC:  CLRF   xBA
0B1BE:  MOVWF  xB9
0B1C0:  MOVLW  03
0B1C2:  ADDWF  xB9,W
0B1C4:  MOVWF  01
0B1C6:  MOVLW  00
0B1C8:  ADDWFC xBA,W
0B1CA:  MOVWF  03
0B1CC:  MOVF   01,W
0B1CE:  ADDLW  C9
0B1D0:  MOVWF  FE9
0B1D2:  MOVLW  06
0B1D4:  ADDWFC 03,W
0B1D6:  MOVWF  FEA
0B1D8:  MOVFF  FEF,7B9
0B1DC:  MOVLW  01
0B1DE:  MOVLB  3
0B1E0:  SUBWF  x32,W
0B1E2:  MULLW  0A
0B1E4:  MOVF   FF3,W
0B1E6:  MOVLB  7
0B1E8:  CLRF   xBB
0B1EA:  MOVWF  xBA
0B1EC:  MOVLW  09
0B1EE:  ADDWF  xBA,W
0B1F0:  MOVWF  01
0B1F2:  MOVLW  00
0B1F4:  ADDWFC xBB,W
0B1F6:  MOVWF  03
0B1F8:  MOVF   01,W
0B1FA:  ADDLW  C9
0B1FC:  MOVWF  FE9
0B1FE:  MOVLW  06
0B200:  ADDWFC 03,W
0B202:  MOVWF  FEA
0B204:  MOVFF  FEF,7BA
0B208:  MOVLW  01
0B20A:  MOVLB  3
0B20C:  SUBWF  x32,W
0B20E:  MULLW  0A
0B210:  MOVF   FF3,W
0B212:  MOVLB  7
0B214:  CLRF   xBC
0B216:  MOVWF  xBB
0B218:  MOVLW  05
0B21A:  ADDWF  xBB,W
0B21C:  MOVWF  01
0B21E:  MOVLW  00
0B220:  ADDWFC xBC,W
0B222:  MOVWF  03
0B224:  MOVF   01,W
0B226:  ADDLW  C9
0B228:  MOVWF  FE9
0B22A:  MOVLW  06
0B22C:  ADDWFC 03,W
0B22E:  MOVWF  FEA
0B230:  MOVFF  FEF,7BB
0B234:  MOVLW  01
0B236:  MOVLB  3
0B238:  SUBWF  x32,W
0B23A:  MULLW  0A
0B23C:  MOVF   FF3,W
0B23E:  MOVLB  7
0B240:  CLRF   xBD
0B242:  MOVWF  xBC
0B244:  MOVLW  04
0B246:  ADDWF  xBC,W
0B248:  MOVWF  01
0B24A:  MOVLW  00
0B24C:  ADDWFC xBD,W
0B24E:  MOVWF  03
0B250:  MOVF   01,W
0B252:  ADDLW  C9
0B254:  MOVWF  FE9
0B256:  MOVLW  06
0B258:  ADDWFC 03,W
0B25A:  MOVWF  FEA
0B25C:  MOVFF  FEF,7BC
0B260:  MOVLW  0A
0B262:  MOVLB  3
0B264:  ADDWF  x32,W
0B266:  MOVLB  7
0B268:  MOVWF  xBD
0B26A:  MOVLW  01
0B26C:  MOVLB  3
0B26E:  SUBWF  x32,W
0B270:  MULLW  0A
0B272:  MOVF   FF3,W
0B274:  MOVLB  7
0B276:  CLRF   xBF
0B278:  MOVWF  xBE
0B27A:  MOVLW  C9
0B27C:  ADDWF  xBE,W
0B27E:  MOVWF  FE9
0B280:  MOVLW  06
0B282:  ADDWFC xBF,W
0B284:  MOVWF  FEA
0B286:  MOVFF  FEF,7BE
0B28A:  MOVFF  7B9,7BF
0B28E:  MOVFF  7BA,7C0
0B292:  MOVFF  7BB,7C1
0B296:  MOVFF  7BC,7C2
0B29A:  CLRF   xC3
0B29C:  MOVFF  7BD,7C4
0B2A0:  MOVFF  7BE,7C5
0B2A4:  CLRF   xC6
0B2A6:  CLRF   xC7
0B2A8:  CLRF   xC8
0B2AA:  MOVLB  0
0B2AC:  CALL   595E
....................          }else{ 
0B2B0:  BRA    B3FE
0B2B2:  MOVLB  7
....................             ConfiguraCiclo(CiclosPersonalizados[CicloLibre-1].Segundoest,CiclosPersonalizados[CicloLibre-1].Minutoest, 
....................             CiclosPersonalizados[CicloLibre-1].Segundosec,CiclosPersonalizados[CicloLibre-1].MinutoSec,1,CicloLibre+10, 
....................             CiclosPersonalizados[CicloLibre-1].Temperatura,0,0 
....................             ,0); 
0B2B4:  MOVLW  01
0B2B6:  MOVLB  3
0B2B8:  SUBWF  x32,W
0B2BA:  MULLW  0A
0B2BC:  MOVF   FF3,W
0B2BE:  MOVLB  7
0B2C0:  CLRF   xBA
0B2C2:  MOVWF  xB9
0B2C4:  MOVLW  03
0B2C6:  ADDWF  xB9,W
0B2C8:  MOVWF  01
0B2CA:  MOVLW  00
0B2CC:  ADDWFC xBA,W
0B2CE:  MOVWF  03
0B2D0:  MOVF   01,W
0B2D2:  ADDLW  C9
0B2D4:  MOVWF  FE9
0B2D6:  MOVLW  06
0B2D8:  ADDWFC 03,W
0B2DA:  MOVWF  FEA
0B2DC:  MOVFF  FEF,7B9
0B2E0:  MOVLW  01
0B2E2:  MOVLB  3
0B2E4:  SUBWF  x32,W
0B2E6:  MULLW  0A
0B2E8:  MOVF   FF3,W
0B2EA:  MOVLB  7
0B2EC:  CLRF   xBB
0B2EE:  MOVWF  xBA
0B2F0:  MOVLW  09
0B2F2:  ADDWF  xBA,W
0B2F4:  MOVWF  01
0B2F6:  MOVLW  00
0B2F8:  ADDWFC xBB,W
0B2FA:  MOVWF  03
0B2FC:  MOVF   01,W
0B2FE:  ADDLW  C9
0B300:  MOVWF  FE9
0B302:  MOVLW  06
0B304:  ADDWFC 03,W
0B306:  MOVWF  FEA
0B308:  MOVFF  FEF,7BA
0B30C:  MOVLW  01
0B30E:  MOVLB  3
0B310:  SUBWF  x32,W
0B312:  MULLW  0A
0B314:  MOVF   FF3,W
0B316:  MOVLB  7
0B318:  CLRF   xBC
0B31A:  MOVWF  xBB
0B31C:  MOVLW  05
0B31E:  ADDWF  xBB,W
0B320:  MOVWF  01
0B322:  MOVLW  00
0B324:  ADDWFC xBC,W
0B326:  MOVWF  03
0B328:  MOVF   01,W
0B32A:  ADDLW  C9
0B32C:  MOVWF  FE9
0B32E:  MOVLW  06
0B330:  ADDWFC 03,W
0B332:  MOVWF  FEA
0B334:  MOVFF  FEF,7BB
0B338:  MOVLW  01
0B33A:  MOVLB  3
0B33C:  SUBWF  x32,W
0B33E:  MULLW  0A
0B340:  MOVF   FF3,W
0B342:  MOVLB  7
0B344:  CLRF   xBD
0B346:  MOVWF  xBC
0B348:  MOVLW  04
0B34A:  ADDWF  xBC,W
0B34C:  MOVWF  01
0B34E:  MOVLW  00
0B350:  ADDWFC xBD,W
0B352:  MOVWF  03
0B354:  MOVF   01,W
0B356:  ADDLW  C9
0B358:  MOVWF  FE9
0B35A:  MOVLW  06
0B35C:  ADDWFC 03,W
0B35E:  MOVWF  FEA
0B360:  MOVFF  FEF,7BC
0B364:  MOVLW  0A
0B366:  MOVLB  3
0B368:  ADDWF  x32,W
0B36A:  MOVLB  7
0B36C:  MOVWF  xBD
0B36E:  MOVLW  01
0B370:  MOVLB  3
0B372:  SUBWF  x32,W
0B374:  MULLW  0A
0B376:  MOVF   FF3,W
0B378:  MOVLB  7
0B37A:  CLRF   xBF
0B37C:  MOVWF  xBE
0B37E:  MOVLW  C9
0B380:  ADDWF  xBE,W
0B382:  MOVWF  FE9
0B384:  MOVLW  06
0B386:  ADDWFC xBF,W
0B388:  MOVWF  FEA
0B38A:  MOVFF  FEF,7BE
0B38E:  MOVFF  7B9,7BF
0B392:  MOVFF  7BA,7C0
0B396:  MOVFF  7BB,7C1
0B39A:  MOVFF  7BC,7C2
0B39E:  MOVLW  01
0B3A0:  MOVWF  xC3
0B3A2:  MOVFF  7BD,7C4
0B3A6:  MOVFF  7BE,7C5
0B3AA:  CLRF   xC6
0B3AC:  CLRF   xC7
0B3AE:  CLRF   xC8
0B3B0:  MOVLB  0
0B3B2:  CALL   595E
....................             NivelSeleccionado=4995*CiclosPersonalizados[CicloLibre-1].NivelDesfogue; 
0B3B6:  MOVLW  01
0B3B8:  MOVLB  3
0B3BA:  SUBWF  x32,W
0B3BC:  MULLW  0A
0B3BE:  MOVF   FF3,W
0B3C0:  MOVLB  7
0B3C2:  CLRF   xBA
0B3C4:  MOVWF  xB9
0B3C6:  MOVLW  08
0B3C8:  ADDWF  xB9,W
0B3CA:  MOVWF  01
0B3CC:  MOVLW  00
0B3CE:  ADDWFC xBA,W
0B3D0:  MOVWF  03
0B3D2:  MOVF   01,W
0B3D4:  ADDLW  C9
0B3D6:  MOVWF  FE9
0B3D8:  MOVLW  06
0B3DA:  ADDWFC 03,W
0B3DC:  MOVWF  FEA
0B3DE:  MOVFF  FEF,7B9
0B3E2:  MOVLW  13
0B3E4:  MOVWF  xC4
0B3E6:  MOVLW  83
0B3E8:  MOVWF  xC3
0B3EA:  CLRF   xC6
0B3EC:  MOVFF  7B9,7C5
0B3F0:  MOVLB  0
0B3F2:  CALL   203C
0B3F6:  MOVFF  02,B7
0B3FA:  MOVFF  01,B6
....................          } 
....................          NivelVacio=CiclosPersonalizados[CicloLibre-1].NivelVacio; 
0B3FE:  MOVLW  01
0B400:  MOVLB  3
0B402:  SUBWF  x32,W
0B404:  MULLW  0A
0B406:  MOVF   FF3,W
0B408:  MOVLB  7
0B40A:  CLRF   xBA
0B40C:  MOVWF  xB9
0B40E:  MOVLW  07
0B410:  ADDWF  xB9,W
0B412:  MOVWF  01
0B414:  MOVLW  00
0B416:  ADDWFC xBA,W
0B418:  MOVWF  03
0B41A:  MOVF   01,W
0B41C:  ADDLW  C9
0B41E:  MOVWF  FE9
0B420:  MOVLW  06
0B422:  ADDWFC 03,W
0B424:  MOVWF  FEA
0B426:  MOVFF  FEF,336
0B42A:  MOVLB  3
....................          CantidadPulsos=0; 
0B42C:  CLRF   x35
....................          Fugas=OFF; 
0B42E:  MOVLB  0
0B430:  BCF    xA4.5
0B432:  MOVLB  3
....................       } 
....................    } 
.................... //_--------------------------------------------------------------------------------------------------------------------------------------------------------        
....................  
.................... //_--------------------------------------------------------------------------------------------------------------------------------------------------------       
....................    if(Menu==9){//Menu de Pulsos de Vacio 
0B434:  MOVF   x4E,W
0B436:  SUBLW  09
0B438:  BTFSS  FD8.2
0B43A:  BRA    B60A
....................       printf("fecha.txt=\"Fecha:%02u/%02u/20%02u    Hora: %02u:%02u:%02u\"",Dia,Mes,Year,Hora,Minuto,Segundo); 
0B43C:  MOVLW  C4
0B43E:  MOVWF  FF6
0B440:  MOVLW  11
0B442:  MOVWF  FF7
0B444:  MOVLW  00
0B446:  MOVWF  FF8
0B448:  MOVLW  11
0B44A:  MOVLB  7
0B44C:  MOVWF  xBE
0B44E:  MOVLB  0
0B450:  CALL   55F4
0B454:  MOVFF  386,7BE
0B458:  MOVLW  01
0B45A:  MOVLB  7
0B45C:  MOVWF  xBF
0B45E:  MOVLB  0
0B460:  CALL   58E0
0B464:  MOVLW  2F
0B466:  BTFSS  F9E.4
0B468:  BRA    B466
0B46A:  MOVWF  FAD
0B46C:  MOVFF  385,7BE
0B470:  MOVLW  01
0B472:  MOVLB  7
0B474:  MOVWF  xBF
0B476:  MOVLB  0
0B478:  CALL   58E0
0B47C:  MOVLW  2F
0B47E:  BTFSS  F9E.4
0B480:  BRA    B47E
0B482:  MOVWF  FAD
0B484:  MOVLW  32
0B486:  BTFSS  F9E.4
0B488:  BRA    B486
0B48A:  MOVWF  FAD
0B48C:  MOVLW  30
0B48E:  BTFSS  F9E.4
0B490:  BRA    B48E
0B492:  MOVWF  FAD
0B494:  MOVFF  384,7BE
0B498:  MOVLW  01
0B49A:  MOVLB  7
0B49C:  MOVWF  xBF
0B49E:  MOVLB  0
0B4A0:  CALL   58E0
0B4A4:  MOVLW  E5
0B4A6:  MOVWF  FF6
0B4A8:  MOVLW  11
0B4AA:  MOVWF  FF7
0B4AC:  MOVLW  00
0B4AE:  MOVWF  FF8
0B4B0:  MOVLW  0A
0B4B2:  MOVLB  7
0B4B4:  MOVWF  xBE
0B4B6:  MOVLB  0
0B4B8:  CALL   55F4
0B4BC:  MOVFF  387,7BE
0B4C0:  MOVLW  01
0B4C2:  MOVLB  7
0B4C4:  MOVWF  xBF
0B4C6:  MOVLB  0
0B4C8:  CALL   58E0
0B4CC:  MOVLW  3A
0B4CE:  BTFSS  F9E.4
0B4D0:  BRA    B4CE
0B4D2:  MOVWF  FAD
0B4D4:  MOVFF  388,7BE
0B4D8:  MOVLW  01
0B4DA:  MOVLB  7
0B4DC:  MOVWF  xBF
0B4DE:  MOVLB  0
0B4E0:  CALL   58E0
0B4E4:  MOVLW  3A
0B4E6:  BTFSS  F9E.4
0B4E8:  BRA    B4E6
0B4EA:  MOVWF  FAD
0B4EC:  MOVFF  389,7BE
0B4F0:  MOVLW  01
0B4F2:  MOVLB  7
0B4F4:  MOVWF  xBF
0B4F6:  MOVLB  0
0B4F8:  CALL   58E0
0B4FC:  MOVLW  22
0B4FE:  BTFSS  F9E.4
0B500:  BRA    B4FE
0B502:  MOVWF  FAD
....................       SendDataDisplay(); 
0B504:  CALL   3E98
....................          if(Pulsos<2) 
0B508:  MOVLB  3
0B50A:  MOVF   x37,W
0B50C:  SUBLW  01
0B50E:  BNC   B514
....................             Pulsos=8; 
0B510:  MOVLW  08
0B512:  MOVWF  x37
....................          if(Pulsos>8) 
0B514:  MOVF   x37,W
0B516:  SUBLW  08
0B518:  BC    B51E
....................             Pulsos=2; 
0B51A:  MOVLW  02
0B51C:  MOVWF  x37
....................           
....................          if(RX_Buffer[4]==0x11){//Selecciono Regresar 
0B51E:  MOVF   34,W
0B520:  SUBLW  11
0B522:  BNZ   B5BC
....................             Segundos=OFF; 
0B524:  MOVLB  0
0B526:  BCF    xA3.2
....................             Minutos=OFF;             
0B528:  BCF    xA3.1
....................             printf("page CicloPersona"); 
0B52A:  MOVLW  00
0B52C:  MOVWF  FF6
0B52E:  MOVLW  12
0B530:  MOVWF  FF7
0B532:  MOVLW  00
0B534:  MOVWF  FF8
0B536:  CALL   3E66
....................             SendDataDisplay();   
0B53A:  CALL   3E98
....................             if(!GuardaEEPROM){     
0B53E:  BTFSC  xA3.3
0B540:  BRA    B5BA
....................                CiclosPersonalizados[CicloLibre-1].PulsosVacio=Pulsos; 
0B542:  MOVLW  01
0B544:  MOVLB  3
0B546:  SUBWF  x32,W
0B548:  MULLW  0A
0B54A:  MOVF   FF3,W
0B54C:  MOVLB  7
0B54E:  CLRF   xBA
0B550:  MOVWF  xB9
0B552:  MOVLW  06
0B554:  ADDWF  xB9,W
0B556:  MOVWF  01
0B558:  MOVLW  00
0B55A:  ADDWFC xBA,W
0B55C:  MOVWF  03
0B55E:  MOVF   01,W
0B560:  ADDLW  C9
0B562:  MOVWF  FE9
0B564:  MOVLW  06
0B566:  ADDWFC 03,W
0B568:  MOVWF  FEA
0B56A:  MOVFF  337,FEF
....................                write_eeprom(105+((CicloLibre-1)*8),Pulsos); 
0B56E:  MOVLW  01
0B570:  MOVLB  3
0B572:  SUBWF  x32,W
0B574:  MULLW  08
0B576:  MOVF   FF3,W
0B578:  ADDLW  69
0B57A:  MOVLB  7
0B57C:  MOVWF  xB9
0B57E:  CLRF   FAA
0B580:  MOVFF  7B9,FA9
0B584:  MOVFF  337,FA8
0B588:  BCF    FA6.6
0B58A:  BCF    FA6.7
0B58C:  BSF    FA6.2
0B58E:  MOVF   FF2,W
0B590:  MOVWF  00
0B592:  BCF    FF2.6
0B594:  BCF    FF2.7
0B596:  MOVLB  F
0B598:  MOVLW  55
0B59A:  MOVWF  FA7
0B59C:  MOVLW  AA
0B59E:  MOVWF  FA7
0B5A0:  BSF    FA6.1
0B5A2:  BTFSC  FA6.1
0B5A4:  BRA    B5A2
0B5A6:  BCF    FA6.2
0B5A8:  MOVF   00,W
0B5AA:  IORWF  FF2,F
....................                delay_ms(20);                            
0B5AC:  MOVLW  14
0B5AE:  MOVLB  7
0B5B0:  MOVWF  xC9
0B5B2:  MOVLB  0
0B5B4:  CALL   1FA0
....................                GuardaEEPROM=ON; 
0B5B8:  BSF    xA3.3
0B5BA:  MOVLB  3
....................             } 
....................          } 
....................           
....................          if(RX_Buffer[4]==0x0d){//Tecla Arriba Oprimida 
0B5BC:  MOVF   34,W
0B5BE:  SUBLW  0D
0B5C0:  BNZ   B5C8
....................             Pulsos++; 
0B5C2:  INCF   x37,F
....................             RX_Buffer[4]=0x00;             
0B5C4:  CLRF   34
....................             RX_Buffer2[4]=0x00;             
0B5C6:  CLRF   3F
....................          } 
....................           
....................          if(RX_Buffer[4]==0x0c){//Tecla Abajo Oprimida 
0B5C8:  MOVF   34,W
0B5CA:  SUBLW  0C
0B5CC:  BNZ   B5D4
....................             Pulsos--; 
0B5CE:  DECF   x37,F
....................             RX_Buffer[4]=0x00; 
0B5D0:  CLRF   34
....................             RX_Buffer2[4]=0x00;                         
0B5D2:  CLRF   3F
....................          } 
....................           
....................       printf("tpulsos.txt=\"%u\"",Pulsos); 
0B5D4:  MOVLW  12
0B5D6:  MOVWF  FF6
0B5D8:  MOVLW  12
0B5DA:  MOVWF  FF7
0B5DC:  MOVLW  00
0B5DE:  MOVWF  FF8
0B5E0:  MOVLW  0D
0B5E2:  MOVLB  7
0B5E4:  MOVWF  xBE
0B5E6:  MOVLB  0
0B5E8:  CALL   55F4
0B5EC:  MOVFF  337,7BE
0B5F0:  MOVLW  1B
0B5F2:  MOVLB  7
0B5F4:  MOVWF  xBF
0B5F6:  MOVLB  0
0B5F8:  CALL   58E0
0B5FC:  MOVLW  22
0B5FE:  BTFSS  F9E.4
0B600:  BRA    B5FE
0B602:  MOVWF  FAD
....................       SendDataDisplay(); 
0B604:  CALL   3E98
0B608:  MOVLB  3
....................    } 
.................... //_--------------------------------------------------------------------------------------------------------------------------------------------------------       
....................  
.................... //_--------------------------------------------------------------------------------------------------------------------------------------------------------       
....................    if(Menu==10){//Menu de Usuarios 
0B60A:  MOVF   x4E,W
0B60C:  SUBLW  0A
0B60E:  BTFSS  FD8.2
0B610:  BRA    BACE
....................       printf("fecha.txt=\"T:%2.1fC Fecha:%02u/%02u/20%02u Hora:%02u:%02u:%02u\"",Temperatura,Dia,Mes,Year,Hora,Minuto,Segundo); 
0B612:  MOVLW  24
0B614:  MOVWF  FF6
0B616:  MOVLW  12
0B618:  MOVWF  FF7
0B61A:  MOVLW  00
0B61C:  MOVWF  FF8
0B61E:  MOVLW  0D
0B620:  MOVLB  7
0B622:  MOVWF  xBE
0B624:  MOVLB  0
0B626:  CALL   55F4
0B62A:  MOVLW  01
0B62C:  MOVWF  FE9
0B62E:  MOVFF  31B,7C1
0B632:  MOVFF  31A,7C0
0B636:  MOVFF  319,7BF
0B63A:  MOVFF  318,7BE
0B63E:  MOVLB  7
0B640:  MOVWF  xC2
0B642:  MOVLB  0
0B644:  CALL   5710
0B648:  MOVLW  36
0B64A:  MOVWF  FF6
0B64C:  MOVLW  12
0B64E:  MOVWF  FF7
0B650:  MOVLW  00
0B652:  MOVWF  FF8
0B654:  MOVLW  09
0B656:  MOVLB  7
0B658:  MOVWF  xBE
0B65A:  MOVLB  0
0B65C:  CALL   55F4
0B660:  MOVFF  386,7BE
0B664:  MOVLW  01
0B666:  MOVLB  7
0B668:  MOVWF  xBF
0B66A:  MOVLB  0
0B66C:  CALL   58E0
0B670:  MOVLW  2F
0B672:  BTFSS  F9E.4
0B674:  BRA    B672
0B676:  MOVWF  FAD
0B678:  MOVFF  385,7BE
0B67C:  MOVLW  01
0B67E:  MOVLB  7
0B680:  MOVWF  xBF
0B682:  MOVLB  0
0B684:  CALL   58E0
0B688:  MOVLW  2F
0B68A:  BTFSS  F9E.4
0B68C:  BRA    B68A
0B68E:  MOVWF  FAD
0B690:  MOVLW  32
0B692:  BTFSS  F9E.4
0B694:  BRA    B692
0B696:  MOVWF  FAD
0B698:  MOVLW  30
0B69A:  BTFSS  F9E.4
0B69C:  BRA    B69A
0B69E:  MOVWF  FAD
0B6A0:  MOVFF  384,7BE
0B6A4:  MOVLW  01
0B6A6:  MOVLB  7
0B6A8:  MOVWF  xBF
0B6AA:  MOVLB  0
0B6AC:  CALL   58E0
0B6B0:  MOVLW  4F
0B6B2:  MOVWF  FF6
0B6B4:  MOVLW  12
0B6B6:  MOVWF  FF7
0B6B8:  MOVLW  00
0B6BA:  MOVWF  FF8
0B6BC:  MOVLW  06
0B6BE:  MOVLB  7
0B6C0:  MOVWF  xBE
0B6C2:  MOVLB  0
0B6C4:  CALL   55F4
0B6C8:  MOVFF  387,7BE
0B6CC:  MOVLW  01
0B6CE:  MOVLB  7
0B6D0:  MOVWF  xBF
0B6D2:  MOVLB  0
0B6D4:  CALL   58E0
0B6D8:  MOVLW  3A
0B6DA:  BTFSS  F9E.4
0B6DC:  BRA    B6DA
0B6DE:  MOVWF  FAD
0B6E0:  MOVFF  388,7BE
0B6E4:  MOVLW  01
0B6E6:  MOVLB  7
0B6E8:  MOVWF  xBF
0B6EA:  MOVLB  0
0B6EC:  CALL   58E0
0B6F0:  MOVLW  3A
0B6F2:  BTFSS  F9E.4
0B6F4:  BRA    B6F2
0B6F6:  MOVWF  FAD
0B6F8:  MOVFF  389,7BE
0B6FC:  MOVLW  01
0B6FE:  MOVLB  7
0B700:  MOVWF  xBF
0B702:  MOVLB  0
0B704:  CALL   58E0
0B708:  MOVLW  22
0B70A:  BTFSS  F9E.4
0B70C:  BRA    B70A
0B70E:  MOVWF  FAD
....................       SendDataDisplay(); 
0B710:  CALL   3E98
....................       GuardaEEPROM=OFF; 
0B714:  BCF    xA3.3
....................       if(ingreso) 
0B716:  BTFSS  xA6.6
0B718:  BRA    B722
....................          TipoClave=2; 
0B71A:  MOVLW  02
0B71C:  MOVLB  2
0B71E:  MOVWF  xD5
....................       else 
0B720:  BRA    B726
....................          TipoClave=0; 
0B722:  MOVLB  2
0B724:  CLRF   xD5
....................        
....................       if(RX_Buffer[4]==0x01){//01, Admin 
0B726:  DECFSZ 34,W
0B728:  BRA    B77A
....................          printf("page Clave"); 
0B72A:  MOVLW  66
0B72C:  MOVWF  FF6
0B72E:  MOVLW  12
0B730:  MOVWF  FF7
0B732:  MOVLW  00
0B734:  MOVWF  FF8
0B736:  MOVLB  0
0B738:  CALL   3E66
....................          SendDataDisplay();        
0B73C:  CALL   3E98
....................          if(!ingreso){ 
0B740:  BTFSC  xA6.6
0B742:  BRA    B774
....................             usuario="Admin"; 
0B744:  MOVLW  03
0B746:  MOVWF  FEA
0B748:  MOVLW  97
0B74A:  MOVWF  FE9
0B74C:  MOVFF  FF2,7B9
0B750:  BCF    FF2.6
0B752:  BCF    FF2.7
0B754:  MOVLW  00
0B756:  CALL   0150
0B75A:  TBLRD*-
0B75C:  TBLRD*+
0B75E:  MOVF   FF5,W
0B760:  MOVWF  FEE
0B762:  IORLW  00
0B764:  BNZ   B75C
0B766:  MOVLB  7
0B768:  BTFSC  xB9.6
0B76A:  BSF    FF2.6
0B76C:  BTFSC  xB9.7
0B76E:  BSF    FF2.7
....................             codigoUsuario=0; 
0B770:  MOVLB  0
0B772:  CLRF   xC8
....................          } 
....................          codigoUsuario2=0; 
0B774:  CLRF   xCA
....................       }else if(RX_Buffer[4]==0x02){//02, Operador 1 
0B776:  BRA    BAA0
0B778:  MOVLB  2
0B77A:  MOVF   34,W
0B77C:  SUBLW  02
0B77E:  BNZ   B7D4
....................          printf("page Clave"); 
0B780:  MOVLW  72
0B782:  MOVWF  FF6
0B784:  MOVLW  12
0B786:  MOVWF  FF7
0B788:  MOVLW  00
0B78A:  MOVWF  FF8
0B78C:  MOVLB  0
0B78E:  CALL   3E66
....................          SendDataDisplay();        
0B792:  CALL   3E98
....................          if(!ingreso){ 
0B796:  BTFSC  xA6.6
0B798:  BRA    B7CC
....................             usuario="Operador 1"; 
0B79A:  MOVLW  03
0B79C:  MOVWF  FEA
0B79E:  MOVLW  97
0B7A0:  MOVWF  FE9
0B7A2:  MOVFF  FF2,7B9
0B7A6:  BCF    FF2.6
0B7A8:  BCF    FF2.7
0B7AA:  MOVLW  00
0B7AC:  CALL   017A
0B7B0:  TBLRD*-
0B7B2:  TBLRD*+
0B7B4:  MOVF   FF5,W
0B7B6:  MOVWF  FEE
0B7B8:  IORLW  00
0B7BA:  BNZ   B7B2
0B7BC:  MOVLB  7
0B7BE:  BTFSC  xB9.6
0B7C0:  BSF    FF2.6
0B7C2:  BTFSC  xB9.7
0B7C4:  BSF    FF2.7
....................             codigoUsuario=1; 
0B7C6:  MOVLW  01
0B7C8:  MOVLB  0
0B7CA:  MOVWF  xC8
....................          } 
....................          codigoUsuario2=1; 
0B7CC:  MOVLW  01
0B7CE:  MOVWF  xCA
....................       }else if(RX_Buffer[4]==0x03){//03, Operador 2 
0B7D0:  BRA    BAA0
0B7D2:  MOVLB  2
0B7D4:  MOVF   34,W
0B7D6:  SUBLW  03
0B7D8:  BNZ   B82E
....................          printf("page Clave"); 
0B7DA:  MOVLW  7E
0B7DC:  MOVWF  FF6
0B7DE:  MOVLW  12
0B7E0:  MOVWF  FF7
0B7E2:  MOVLW  00
0B7E4:  MOVWF  FF8
0B7E6:  MOVLB  0
0B7E8:  CALL   3E66
....................          SendDataDisplay();        
0B7EC:  CALL   3E98
....................          if(!ingreso){ 
0B7F0:  BTFSC  xA6.6
0B7F2:  BRA    B826
....................             usuario="Operador 2"; 
0B7F4:  MOVLW  03
0B7F6:  MOVWF  FEA
0B7F8:  MOVLW  97
0B7FA:  MOVWF  FE9
0B7FC:  MOVFF  FF2,7B9
0B800:  BCF    FF2.6
0B802:  BCF    FF2.7
0B804:  MOVLW  00
0B806:  CALL   01AA
0B80A:  TBLRD*-
0B80C:  TBLRD*+
0B80E:  MOVF   FF5,W
0B810:  MOVWF  FEE
0B812:  IORLW  00
0B814:  BNZ   B80C
0B816:  MOVLB  7
0B818:  BTFSC  xB9.6
0B81A:  BSF    FF2.6
0B81C:  BTFSC  xB9.7
0B81E:  BSF    FF2.7
....................             codigoUsuario=2; 
0B820:  MOVLW  02
0B822:  MOVLB  0
0B824:  MOVWF  xC8
....................          } 
....................          codigoUsuario2=2; 
0B826:  MOVLW  02
0B828:  MOVWF  xCA
....................       }else if(RX_Buffer[4]==0x04){//04, Operador 3 
0B82A:  BRA    BAA0
0B82C:  MOVLB  2
0B82E:  MOVF   34,W
0B830:  SUBLW  04
0B832:  BNZ   B888
....................          printf("page Clave"); 
0B834:  MOVLW  8A
0B836:  MOVWF  FF6
0B838:  MOVLW  12
0B83A:  MOVWF  FF7
0B83C:  MOVLW  00
0B83E:  MOVWF  FF8
0B840:  MOVLB  0
0B842:  CALL   3E66
....................          SendDataDisplay();        
0B846:  CALL   3E98
....................          if(!ingreso){ 
0B84A:  BTFSC  xA6.6
0B84C:  BRA    B880
....................             usuario="Operador 3"; 
0B84E:  MOVLW  03
0B850:  MOVWF  FEA
0B852:  MOVLW  97
0B854:  MOVWF  FE9
0B856:  MOVFF  FF2,7B9
0B85A:  BCF    FF2.6
0B85C:  BCF    FF2.7
0B85E:  MOVLW  00
0B860:  CALL   01DA
0B864:  TBLRD*-
0B866:  TBLRD*+
0B868:  MOVF   FF5,W
0B86A:  MOVWF  FEE
0B86C:  IORLW  00
0B86E:  BNZ   B866
0B870:  MOVLB  7
0B872:  BTFSC  xB9.6
0B874:  BSF    FF2.6
0B876:  BTFSC  xB9.7
0B878:  BSF    FF2.7
....................             codigoUsuario=3; 
0B87A:  MOVLW  03
0B87C:  MOVLB  0
0B87E:  MOVWF  xC8
....................          } 
....................          codigoUsuario2=3; 
0B880:  MOVLW  03
0B882:  MOVWF  xCA
....................       }else if(RX_Buffer[4]==0x05){//05, Operador 4 
0B884:  BRA    BAA0
0B886:  MOVLB  2
0B888:  MOVF   34,W
0B88A:  SUBLW  05
0B88C:  BNZ   B8E2
....................          printf("page Clave"); 
0B88E:  MOVLW  96
0B890:  MOVWF  FF6
0B892:  MOVLW  12
0B894:  MOVWF  FF7
0B896:  MOVLW  00
0B898:  MOVWF  FF8
0B89A:  MOVLB  0
0B89C:  CALL   3E66
....................          SendDataDisplay();        
0B8A0:  CALL   3E98
....................          if(!ingreso){ 
0B8A4:  BTFSC  xA6.6
0B8A6:  BRA    B8DA
....................             usuario="Operador 4"; 
0B8A8:  MOVLW  03
0B8AA:  MOVWF  FEA
0B8AC:  MOVLW  97
0B8AE:  MOVWF  FE9
0B8B0:  MOVFF  FF2,7B9
0B8B4:  BCF    FF2.6
0B8B6:  BCF    FF2.7
0B8B8:  MOVLW  00
0B8BA:  CALL   020A
0B8BE:  TBLRD*-
0B8C0:  TBLRD*+
0B8C2:  MOVF   FF5,W
0B8C4:  MOVWF  FEE
0B8C6:  IORLW  00
0B8C8:  BNZ   B8C0
0B8CA:  MOVLB  7
0B8CC:  BTFSC  xB9.6
0B8CE:  BSF    FF2.6
0B8D0:  BTFSC  xB9.7
0B8D2:  BSF    FF2.7
....................             codigoUsuario=4; 
0B8D4:  MOVLW  04
0B8D6:  MOVLB  0
0B8D8:  MOVWF  xC8
....................          } 
....................          codigoUsuario2=4; 
0B8DA:  MOVLW  04
0B8DC:  MOVWF  xCA
....................       }else if(RX_Buffer[4]==0x06){//06, Operador 5 
0B8DE:  BRA    BAA0
0B8E0:  MOVLB  2
0B8E2:  MOVF   34,W
0B8E4:  SUBLW  06
0B8E6:  BNZ   B93C
....................          printf("page Clave"); 
0B8E8:  MOVLW  A2
0B8EA:  MOVWF  FF6
0B8EC:  MOVLW  12
0B8EE:  MOVWF  FF7
0B8F0:  MOVLW  00
0B8F2:  MOVWF  FF8
0B8F4:  MOVLB  0
0B8F6:  CALL   3E66
....................          SendDataDisplay();        
0B8FA:  CALL   3E98
....................          if(!ingreso){ 
0B8FE:  BTFSC  xA6.6
0B900:  BRA    B934
....................             usuario="Operador 5"; 
0B902:  MOVLW  03
0B904:  MOVWF  FEA
0B906:  MOVLW  97
0B908:  MOVWF  FE9
0B90A:  MOVFF  FF2,7B9
0B90E:  BCF    FF2.6
0B910:  BCF    FF2.7
0B912:  MOVLW  00
0B914:  CALL   023A
0B918:  TBLRD*-
0B91A:  TBLRD*+
0B91C:  MOVF   FF5,W
0B91E:  MOVWF  FEE
0B920:  IORLW  00
0B922:  BNZ   B91A
0B924:  MOVLB  7
0B926:  BTFSC  xB9.6
0B928:  BSF    FF2.6
0B92A:  BTFSC  xB9.7
0B92C:  BSF    FF2.7
....................             codigoUsuario=5; 
0B92E:  MOVLW  05
0B930:  MOVLB  0
0B932:  MOVWF  xC8
....................          } 
....................          codigoUsuario2=5; 
0B934:  MOVLW  05
0B936:  MOVWF  xCA
....................       }else if(RX_Buffer[4]==0x07){//07, Operador 6 
0B938:  BRA    BAA0
0B93A:  MOVLB  2
0B93C:  MOVF   34,W
0B93E:  SUBLW  07
0B940:  BNZ   B996
....................          printf("page Clave"); 
0B942:  MOVLW  AE
0B944:  MOVWF  FF6
0B946:  MOVLW  12
0B948:  MOVWF  FF7
0B94A:  MOVLW  00
0B94C:  MOVWF  FF8
0B94E:  MOVLB  0
0B950:  CALL   3E66
....................          SendDataDisplay();        
0B954:  CALL   3E98
....................          if(!ingreso){ 
0B958:  BTFSC  xA6.6
0B95A:  BRA    B98E
....................             usuario="Operador 6"; 
0B95C:  MOVLW  03
0B95E:  MOVWF  FEA
0B960:  MOVLW  97
0B962:  MOVWF  FE9
0B964:  MOVFF  FF2,7B9
0B968:  BCF    FF2.6
0B96A:  BCF    FF2.7
0B96C:  MOVLW  00
0B96E:  CALL   026A
0B972:  TBLRD*-
0B974:  TBLRD*+
0B976:  MOVF   FF5,W
0B978:  MOVWF  FEE
0B97A:  IORLW  00
0B97C:  BNZ   B974
0B97E:  MOVLB  7
0B980:  BTFSC  xB9.6
0B982:  BSF    FF2.6
0B984:  BTFSC  xB9.7
0B986:  BSF    FF2.7
....................             codigoUsuario=6; 
0B988:  MOVLW  06
0B98A:  MOVLB  0
0B98C:  MOVWF  xC8
....................          } 
....................          codigoUsuario2=6; 
0B98E:  MOVLW  06
0B990:  MOVWF  xCA
....................       }else if(RX_Buffer[4]==0x08){//08, Operador 7 
0B992:  BRA    BAA0
0B994:  MOVLB  2
0B996:  MOVF   34,W
0B998:  SUBLW  08
0B99A:  BNZ   B9F0
....................          printf("page Clave"); 
0B99C:  MOVLW  BA
0B99E:  MOVWF  FF6
0B9A0:  MOVLW  12
0B9A2:  MOVWF  FF7
0B9A4:  MOVLW  00
0B9A6:  MOVWF  FF8
0B9A8:  MOVLB  0
0B9AA:  CALL   3E66
....................          SendDataDisplay();        
0B9AE:  CALL   3E98
....................          if(!ingreso){ 
0B9B2:  BTFSC  xA6.6
0B9B4:  BRA    B9E8
....................             usuario="Operador 7"; 
0B9B6:  MOVLW  03
0B9B8:  MOVWF  FEA
0B9BA:  MOVLW  97
0B9BC:  MOVWF  FE9
0B9BE:  MOVFF  FF2,7B9
0B9C2:  BCF    FF2.6
0B9C4:  BCF    FF2.7
0B9C6:  MOVLW  00
0B9C8:  CALL   029A
0B9CC:  TBLRD*-
0B9CE:  TBLRD*+
0B9D0:  MOVF   FF5,W
0B9D2:  MOVWF  FEE
0B9D4:  IORLW  00
0B9D6:  BNZ   B9CE
0B9D8:  MOVLB  7
0B9DA:  BTFSC  xB9.6
0B9DC:  BSF    FF2.6
0B9DE:  BTFSC  xB9.7
0B9E0:  BSF    FF2.7
....................             codigoUsuario=7; 
0B9E2:  MOVLW  07
0B9E4:  MOVLB  0
0B9E6:  MOVWF  xC8
....................          } 
....................          codigoUsuario2=7; 
0B9E8:  MOVLW  07
0B9EA:  MOVWF  xCA
....................       }else if(RX_Buffer[4]==0x09){//09, Operador 8 
0B9EC:  BRA    BAA0
0B9EE:  MOVLB  2
0B9F0:  MOVF   34,W
0B9F2:  SUBLW  09
0B9F4:  BNZ   BA4A
....................          printf("page Clave"); 
0B9F6:  MOVLW  C6
0B9F8:  MOVWF  FF6
0B9FA:  MOVLW  12
0B9FC:  MOVWF  FF7
0B9FE:  MOVLW  00
0BA00:  MOVWF  FF8
0BA02:  MOVLB  0
0BA04:  CALL   3E66
....................          SendDataDisplay();        
0BA08:  CALL   3E98
....................          if(!ingreso){ 
0BA0C:  BTFSC  xA6.6
0BA0E:  BRA    BA42
....................             usuario="Operador 8"; 
0BA10:  MOVLW  03
0BA12:  MOVWF  FEA
0BA14:  MOVLW  97
0BA16:  MOVWF  FE9
0BA18:  MOVFF  FF2,7B9
0BA1C:  BCF    FF2.6
0BA1E:  BCF    FF2.7
0BA20:  MOVLW  00
0BA22:  CALL   02CA
0BA26:  TBLRD*-
0BA28:  TBLRD*+
0BA2A:  MOVF   FF5,W
0BA2C:  MOVWF  FEE
0BA2E:  IORLW  00
0BA30:  BNZ   BA28
0BA32:  MOVLB  7
0BA34:  BTFSC  xB9.6
0BA36:  BSF    FF2.6
0BA38:  BTFSC  xB9.7
0BA3A:  BSF    FF2.7
....................             codigoUsuario=8; 
0BA3C:  MOVLW  08
0BA3E:  MOVLB  0
0BA40:  MOVWF  xC8
....................          } 
....................          codigoUsuario2=8; 
0BA42:  MOVLW  08
0BA44:  MOVWF  xCA
....................       }else if(RX_Buffer[4]==0x0a){//0a, Tecnico 
0BA46:  BRA    BAA0
0BA48:  MOVLB  2
0BA4A:  MOVF   34,W
0BA4C:  SUBLW  0A
0BA4E:  BNZ   BAA2
....................          printf("page Clave"); 
0BA50:  MOVLW  D2
0BA52:  MOVWF  FF6
0BA54:  MOVLW  12
0BA56:  MOVWF  FF7
0BA58:  MOVLW  00
0BA5A:  MOVWF  FF8
0BA5C:  MOVLB  0
0BA5E:  CALL   3E66
....................          SendDataDisplay();        
0BA62:  CALL   3E98
....................          if(!ingreso){ 
0BA66:  BTFSC  xA6.6
0BA68:  BRA    BA9C
....................             usuario="Tecnico"; 
0BA6A:  MOVLW  03
0BA6C:  MOVWF  FEA
0BA6E:  MOVLW  97
0BA70:  MOVWF  FE9
0BA72:  MOVFF  FF2,7B9
0BA76:  BCF    FF2.6
0BA78:  BCF    FF2.7
0BA7A:  MOVLW  00
0BA7C:  CALL   02FA
0BA80:  TBLRD*-
0BA82:  TBLRD*+
0BA84:  MOVF   FF5,W
0BA86:  MOVWF  FEE
0BA88:  IORLW  00
0BA8A:  BNZ   BA82
0BA8C:  MOVLB  7
0BA8E:  BTFSC  xB9.6
0BA90:  BSF    FF2.6
0BA92:  BTFSC  xB9.7
0BA94:  BSF    FF2.7
....................             codigoUsuario=9; 
0BA96:  MOVLW  09
0BA98:  MOVLB  0
0BA9A:  MOVWF  xC8
....................          } 
....................          codigoUsuario2=9; 
0BA9C:  MOVLW  09
0BA9E:  MOVWF  xCA
0BAA0:  MOVLB  2
....................       } 
....................        
....................       if(RX_Buffer[4]==0xaa && ingreso){//aa, Regresar 
0BAA2:  MOVF   34,W
0BAA4:  SUBLW  AA
0BAA6:  BNZ   BACC
0BAA8:  MOVLB  0
0BAAA:  BTFSC  xA6.6
0BAAC:  BRA    BAB2
0BAAE:  MOVLB  2
0BAB0:  BRA    BACC
....................          printf("page Ajustes"); 
0BAB2:  MOVLW  DE
0BAB4:  MOVWF  FF6
0BAB6:  MOVLW  12
0BAB8:  MOVWF  FF7
0BABA:  MOVLW  00
0BABC:  MOVWF  FF8
0BABE:  CALL   3E66
....................          SendDataDisplay();        
0BAC2:  CALL   3E98
....................          codigoUsuario2=10; 
0BAC6:  MOVLW  0A
0BAC8:  MOVWF  xCA
0BACA:  MOVLB  2
0BACC:  MOVLB  3
....................       } 
....................    } 
.................... //_--------------------------------------------------------------------------------------------------------------------------------------------------------       
....................  
.................... //_--------------------------------------------------------------------------------------------------------------------------------------------------------       
....................    if(Menu==11){//Menu de Configuraciones 
0BACE:  MOVF   x4E,W
0BAD0:  SUBLW  0B
0BAD2:  BTFSS  FD8.2
0BAD4:  BRA    BD40
....................       printf("fecha.txt=\"T:%2.1fC Fecha:%02u/%02u/20%02u Hora:%02u:%02u:%02u\"",Temperatura,Dia,Mes,Year,Hora,Minuto,Segundo); 
0BAD6:  MOVLW  EC
0BAD8:  MOVWF  FF6
0BADA:  MOVLW  12
0BADC:  MOVWF  FF7
0BADE:  MOVLW  00
0BAE0:  MOVWF  FF8
0BAE2:  MOVLW  0D
0BAE4:  MOVLB  7
0BAE6:  MOVWF  xBE
0BAE8:  MOVLB  0
0BAEA:  CALL   55F4
0BAEE:  MOVLW  01
0BAF0:  MOVWF  FE9
0BAF2:  MOVFF  31B,7C1
0BAF6:  MOVFF  31A,7C0
0BAFA:  MOVFF  319,7BF
0BAFE:  MOVFF  318,7BE
0BB02:  MOVLB  7
0BB04:  MOVWF  xC2
0BB06:  MOVLB  0
0BB08:  CALL   5710
0BB0C:  MOVLW  FE
0BB0E:  MOVWF  FF6
0BB10:  MOVLW  12
0BB12:  MOVWF  FF7
0BB14:  MOVLW  00
0BB16:  MOVWF  FF8
0BB18:  MOVLW  09
0BB1A:  MOVLB  7
0BB1C:  MOVWF  xBE
0BB1E:  MOVLB  0
0BB20:  CALL   55F4
0BB24:  MOVFF  386,7BE
0BB28:  MOVLW  01
0BB2A:  MOVLB  7
0BB2C:  MOVWF  xBF
0BB2E:  MOVLB  0
0BB30:  CALL   58E0
0BB34:  MOVLW  2F
0BB36:  BTFSS  F9E.4
0BB38:  BRA    BB36
0BB3A:  MOVWF  FAD
0BB3C:  MOVFF  385,7BE
0BB40:  MOVLW  01
0BB42:  MOVLB  7
0BB44:  MOVWF  xBF
0BB46:  MOVLB  0
0BB48:  CALL   58E0
0BB4C:  MOVLW  2F
0BB4E:  BTFSS  F9E.4
0BB50:  BRA    BB4E
0BB52:  MOVWF  FAD
0BB54:  MOVLW  32
0BB56:  BTFSS  F9E.4
0BB58:  BRA    BB56
0BB5A:  MOVWF  FAD
0BB5C:  MOVLW  30
0BB5E:  BTFSS  F9E.4
0BB60:  BRA    BB5E
0BB62:  MOVWF  FAD
0BB64:  MOVFF  384,7BE
0BB68:  MOVLW  01
0BB6A:  MOVLB  7
0BB6C:  MOVWF  xBF
0BB6E:  MOVLB  0
0BB70:  CALL   58E0
0BB74:  MOVLW  17
0BB76:  MOVWF  FF6
0BB78:  MOVLW  13
0BB7A:  MOVWF  FF7
0BB7C:  MOVLW  00
0BB7E:  MOVWF  FF8
0BB80:  MOVLW  06
0BB82:  MOVLB  7
0BB84:  MOVWF  xBE
0BB86:  MOVLB  0
0BB88:  CALL   55F4
0BB8C:  MOVFF  387,7BE
0BB90:  MOVLW  01
0BB92:  MOVLB  7
0BB94:  MOVWF  xBF
0BB96:  MOVLB  0
0BB98:  CALL   58E0
0BB9C:  MOVLW  3A
0BB9E:  BTFSS  F9E.4
0BBA0:  BRA    BB9E
0BBA2:  MOVWF  FAD
0BBA4:  MOVFF  388,7BE
0BBA8:  MOVLW  01
0BBAA:  MOVLB  7
0BBAC:  MOVWF  xBF
0BBAE:  MOVLB  0
0BBB0:  CALL   58E0
0BBB4:  MOVLW  3A
0BBB6:  BTFSS  F9E.4
0BBB8:  BRA    BBB6
0BBBA:  MOVWF  FAD
0BBBC:  MOVFF  389,7BE
0BBC0:  MOVLW  01
0BBC2:  MOVLB  7
0BBC4:  MOVWF  xBF
0BBC6:  MOVLB  0
0BBC8:  CALL   58E0
0BBCC:  MOVLW  22
0BBCE:  BTFSS  F9E.4
0BBD0:  BRA    BBCE
0BBD2:  MOVWF  FAD
....................       SendDataDisplay(); 
0BBD4:  CALL   3E98
....................       GuardaEEPROM=OFF; 
0BBD8:  BCF    xA3.3
....................       printf("tuser.txt=\"%s\"",usuario); 
0BBDA:  MOVLW  2E
0BBDC:  MOVWF  FF6
0BBDE:  MOVLW  13
0BBE0:  MOVWF  FF7
0BBE2:  MOVLW  00
0BBE4:  MOVWF  FF8
0BBE6:  MOVLW  0B
0BBE8:  MOVLB  7
0BBEA:  MOVWF  xBE
0BBEC:  MOVLB  0
0BBEE:  CALL   55F4
0BBF2:  MOVLW  03
0BBF4:  MOVWF  FEA
0BBF6:  MOVLW  97
0BBF8:  MOVWF  FE9
0BBFA:  CALL   5626
0BBFE:  MOVLW  22
0BC00:  BTFSS  F9E.4
0BC02:  BRA    BC00
0BC04:  MOVWF  FAD
....................       SendDataDisplay(); 
0BC06:  CALL   3E98
....................       TipoClave=0; 
0BC0A:  MOVLB  2
0BC0C:  CLRF   xD5
....................        
....................       if(RX_Buffer[4]==0x01){//01, Ciclos 
0BC0E:  DECFSZ 34,W
0BC10:  BRA    BC2A
....................          printf("page Ciclos"); 
0BC12:  MOVLW  3E
0BC14:  MOVWF  FF6
0BC16:  MOVLW  13
0BC18:  MOVWF  FF7
0BC1A:  MOVLW  00
0BC1C:  MOVWF  FF8
0BC1E:  MOVLB  0
0BC20:  CALL   3E66
....................          SendDataDisplay();      
0BC24:  CALL   3E98
0BC28:  MOVLB  2
....................       } 
....................        
....................       if(RX_Buffer[4]==0x02){//02, Test de Componentes 
0BC2A:  MOVF   34,W
0BC2C:  SUBLW  02
0BC2E:  BNZ   BC48
....................          printf("page Test"); 
0BC30:  MOVLW  4A
0BC32:  MOVWF  FF6
0BC34:  MOVLW  13
0BC36:  MOVWF  FF7
0BC38:  MOVLW  00
0BC3A:  MOVWF  FF8
0BC3C:  MOVLB  0
0BC3E:  CALL   3E66
....................          SendDataDisplay();      
0BC42:  CALL   3E98
0BC46:  MOVLB  2
....................       } 
....................        
....................       if(RX_Buffer[4]==0x03){//03, Modificacin de clave Usuarios 
0BC48:  MOVF   34,W
0BC4A:  SUBLW  03
0BC4C:  BNZ   BC66
....................          printf("page Usuarios"); 
0BC4E:  MOVLW  54
0BC50:  MOVWF  FF6
0BC52:  MOVLW  13
0BC54:  MOVWF  FF7
0BC56:  MOVLW  00
0BC58:  MOVWF  FF8
0BC5A:  MOVLB  0
0BC5C:  CALL   3E66
....................          SendDataDisplay();      
0BC60:  CALL   3E98
0BC64:  MOVLB  2
....................       } 
....................        
....................       if(RX_Buffer[4]==0x04){//03, Modificacin de clave Usuarios 
0BC66:  MOVF   34,W
0BC68:  SUBLW  04
0BC6A:  BNZ   BC84
....................          printf("page Activa"); 
0BC6C:  MOVLW  62
0BC6E:  MOVWF  FF6
0BC70:  MOVLW  13
0BC72:  MOVWF  FF7
0BC74:  MOVLW  00
0BC76:  MOVWF  FF8
0BC78:  MOVLB  0
0BC7A:  CALL   3E66
....................          SendDataDisplay();      
0BC7E:  CALL   3E98
0BC82:  MOVLB  2
....................       } 
....................        
....................       if(RX_Buffer[4]==0x11 && CodigoUsuario==9){//11, Menu Oculto Tecnico 
0BC84:  MOVF   34,W
0BC86:  SUBLW  11
0BC88:  BNZ   BCB2
0BC8A:  MOVLB  0
0BC8C:  MOVF   xC8,W
0BC8E:  SUBLW  09
0BC90:  BTFSC  FD8.2
0BC92:  BRA    BC98
0BC94:  MOVLB  2
0BC96:  BRA    BCB2
....................          printf("page Clave"); 
0BC98:  MOVLW  6E
0BC9A:  MOVWF  FF6
0BC9C:  MOVLW  13
0BC9E:  MOVWF  FF7
0BCA0:  MOVLW  00
0BCA2:  MOVWF  FF8
0BCA4:  CALL   3E66
....................          SendDataDisplay();  
0BCA8:  CALL   3E98
....................          TipoClave=1; 
0BCAC:  MOVLW  01
0BCAE:  MOVLB  2
0BCB0:  MOVWF  xD5
....................       } 
....................        
....................       if(RX_Buffer[4]==0x05){//05, Hora y Fecha 
0BCB2:  MOVF   34,W
0BCB4:  SUBLW  05
0BCB6:  BNZ   BCE4
....................          printf("page Fecha"); 
0BCB8:  MOVLW  7A
0BCBA:  MOVWF  FF6
0BCBC:  MOVLW  13
0BCBE:  MOVWF  FF7
0BCC0:  MOVLW  00
0BCC2:  MOVWF  FF8
0BCC4:  MOVLB  0
0BCC6:  CALL   3E66
....................          SendDataDisplay();      
0BCCA:  CALL   3E98
....................          DiaTx=Dia; 
0BCCE:  MOVFF  386,38D
....................          MesTx=Mes; 
0BCD2:  MOVFF  385,38C
....................          YearTx=Year; 
0BCD6:  MOVFF  384,38B
....................          HoraTx=Hora; 
0BCDA:  MOVFF  387,38E
....................          MinutoTx=Minuto; 
0BCDE:  MOVFF  388,38F
0BCE2:  MOVLB  2
....................       } 
....................        
....................       if(RX_Buffer[4]==0xa0){//a0, Menu Principal 
0BCE4:  MOVF   34,W
0BCE6:  SUBLW  A0
0BCE8:  BNZ   BD02
....................          printf("page MenuPrincipal"); 
0BCEA:  MOVLW  86
0BCEC:  MOVWF  FF6
0BCEE:  MOVLW  13
0BCF0:  MOVWF  FF7
0BCF2:  MOVLW  00
0BCF4:  MOVWF  FF8
0BCF6:  MOVLB  0
0BCF8:  CALL   3E66
....................          SendDataDisplay();      
0BCFC:  CALL   3E98
0BD00:  MOVLB  2
....................       } 
....................        
....................       if(RX_Buffer[4]==0xb0){//b0, Personalizados 
0BD02:  MOVF   34,W
0BD04:  SUBLW  B0
0BD06:  BNZ   BD20
....................          printf("page CicloPersona"); 
0BD08:  MOVLW  9A
0BD0A:  MOVWF  FF6
0BD0C:  MOVLW  13
0BD0E:  MOVWF  FF7
0BD10:  MOVLW  00
0BD12:  MOVWF  FF8
0BD14:  MOVLB  0
0BD16:  CALL   3E66
....................          SendDataDisplay();      
0BD1A:  CALL   3E98
0BD1E:  MOVLB  2
....................       } 
....................        
....................       if(RX_Buffer[4]==0xc0){//c0, Configuraciones 
0BD20:  MOVF   34,W
0BD22:  SUBLW  C0
0BD24:  BNZ   BD3E
....................          printf("page Ajustes"); 
0BD26:  MOVLW  AC
0BD28:  MOVWF  FF6
0BD2A:  MOVLW  13
0BD2C:  MOVWF  FF7
0BD2E:  MOVLW  00
0BD30:  MOVWF  FF8
0BD32:  MOVLB  0
0BD34:  CALL   3E66
....................          SendDataDisplay();      
0BD38:  CALL   3E98
0BD3C:  MOVLB  2
0BD3E:  MOVLB  3
....................       } 
....................    } 
.................... //_--------------------------------------------------------------------------------------------------------------------------------------------------------       
....................  
.................... //_--------------------------------------------------------------------------------------------------------------------------------------------------------       
....................    if(Menu==12){//Menu de Visualizacion de Ciclos Realizados 
0BD40:  MOVF   x4E,W
0BD42:  SUBLW  0C
0BD44:  BTFSS  FD8.2
0BD46:  BRA    C28E
....................       //printf("fecha.txt=\"Fecha:%02u/%02u/20%02u    Hora: %02u:%02u\"",Dia,Mes,Year,Hora,Minuto); 
....................       //SendDataDisplay(); 
....................       GuardaEEPROM=OFF; 
0BD48:  MOVLB  0
0BD4A:  BCF    xA3.3
....................       /*  
....................       i2c_start();            // Comienzo de la comunicacin 
....................       i2c_write(0xA0);   // Direccin del esclavo en el bus I2C 
....................       i2c_write(9);    // Posicin de donde se leer el dato en el esclavo 
....................       i2c_write(0);    // Posicin de donde se leer el dato en el esclavo 
....................       i2c_start();            // Reinicio 
....................       i2c_write(direccion+1); // Direccin del esclavo en modo lectura 
....................       dato=i2c_read(0);       // Lectura del dato 
....................       i2c_stop(); 
....................       */       
....................       printf("estado.txt=\"----\""); 
0BD4C:  MOVLW  BA
0BD4E:  MOVWF  FF6
0BD50:  MOVLW  13
0BD52:  MOVWF  FF7
0BD54:  MOVLW  00
0BD56:  MOVWF  FF8
0BD58:  CALL   3E66
....................       SendDataDisplay();    
0BD5C:  CALL   3E98
....................        
....................       if(RX_Buffer[6]==0x01){//01, Ciclos 
0BD60:  DECFSZ 36,W
0BD62:  BRA    BD78
....................          printf("page Ajustes"); 
0BD64:  MOVLW  CC
0BD66:  MOVWF  FF6
0BD68:  MOVLW  13
0BD6A:  MOVWF  FF7
0BD6C:  MOVLW  00
0BD6E:  MOVWF  FF8
0BD70:  CALL   3E66
....................          SendDataDisplay();      
0BD74:  CALL   3E98
....................       } 
....................        
....................       if(RX_Buffer[6]==0x02){//02, Izquierda 
0BD78:  MOVF   36,W
0BD7A:  SUBLW  02
0BD7C:  BNZ   BDBA
....................          RX_Buffer[6]=0x00;   
0BD7E:  CLRF   36
....................          RX_Buffer2[6]=0x00; 
0BD80:  CLRF   41
....................          if(cicloVisto>1) 
0BD82:  MOVF   xC7,W
0BD84:  SUBLW  01
0BD86:  BC    BD8A
....................             cicloVisto--; 
0BD88:  DECF   xC7,F
....................          printf("h0.val=%u",cicloVisto); 
0BD8A:  MOVLW  DA
0BD8C:  MOVWF  FF6
0BD8E:  MOVLW  13
0BD90:  MOVWF  FF7
0BD92:  MOVLW  00
0BD94:  MOVWF  FF8
0BD96:  MOVLW  07
0BD98:  MOVLB  7
0BD9A:  MOVWF  xBE
0BD9C:  MOVLB  0
0BD9E:  CALL   55F4
0BDA2:  MOVFF  C7,7BE
0BDA6:  MOVLW  1B
0BDA8:  MOVLB  7
0BDAA:  MOVWF  xBF
0BDAC:  MOVLB  0
0BDAE:  CALL   58E0
....................          SendDataDisplay();      
0BDB2:  CALL   3E98
....................          actualizaTabla(); 
0BDB6:  CALL   5F5C
....................       } 
....................        
....................       if(RX_Buffer[6]==0x03){//03, Arriba 
0BDBA:  MOVF   36,W
0BDBC:  SUBLW  03
0BDBE:  BNZ   BDFC
....................          RX_Buffer[6]=0x00;   
0BDC0:  CLRF   36
....................          RX_Buffer2[6]=0x00; 
0BDC2:  CLRF   41
....................          if(cicloVisualizado<28) 
0BDC4:  MOVF   xC9,W
0BDC6:  SUBLW  1B
0BDC8:  BNC   BDCC
....................             cicloVisualizado++; 
0BDCA:  INCF   xC9,F
....................          printf("h1.val=%u",cicloVisualizado); 
0BDCC:  MOVLW  E4
0BDCE:  MOVWF  FF6
0BDD0:  MOVLW  13
0BDD2:  MOVWF  FF7
0BDD4:  MOVLW  00
0BDD6:  MOVWF  FF8
0BDD8:  MOVLW  07
0BDDA:  MOVLB  7
0BDDC:  MOVWF  xBE
0BDDE:  MOVLB  0
0BDE0:  CALL   55F4
0BDE4:  MOVFF  C9,7BE
0BDE8:  MOVLW  1B
0BDEA:  MOVLB  7
0BDEC:  MOVWF  xBF
0BDEE:  MOVLB  0
0BDF0:  CALL   58E0
....................          SendDataDisplay();     
0BDF4:  CALL   3E98
....................          actualizaTabla(); 
0BDF8:  CALL   5F5C
....................          //exportarData(); 
....................       } 
....................        
....................       if(RX_Buffer[6]==0x04){//04, Abajo 
0BDFC:  MOVF   36,W
0BDFE:  SUBLW  04
0BE00:  BNZ   BE3E
....................          RX_Buffer[6]=0x00;   
0BE02:  CLRF   36
....................          RX_Buffer2[6]=0x00; 
0BE04:  CLRF   41
....................          if(cicloVisualizado>1) 
0BE06:  MOVF   xC9,W
0BE08:  SUBLW  01
0BE0A:  BC    BE0E
....................             cicloVisualizado--; 
0BE0C:  DECF   xC9,F
....................          printf("h1.val=%u",cicloVisualizado); 
0BE0E:  MOVLW  EE
0BE10:  MOVWF  FF6
0BE12:  MOVLW  13
0BE14:  MOVWF  FF7
0BE16:  MOVLW  00
0BE18:  MOVWF  FF8
0BE1A:  MOVLW  07
0BE1C:  MOVLB  7
0BE1E:  MOVWF  xBE
0BE20:  MOVLB  0
0BE22:  CALL   55F4
0BE26:  MOVFF  C9,7BE
0BE2A:  MOVLW  1B
0BE2C:  MOVLB  7
0BE2E:  MOVWF  xBF
0BE30:  MOVLB  0
0BE32:  CALL   58E0
....................          SendDataDisplay();   
0BE36:  CALL   3E98
....................          actualizaTabla(); 
0BE3A:  CALL   5F5C
....................          //exportarData(); 
....................       } 
....................        
....................       if(RX_Buffer[6]==0x05){//05, Derecha 
0BE3E:  MOVF   36,W
0BE40:  SUBLW  05
0BE42:  BNZ   BE80
....................          RX_Buffer[6]=0x00;   
0BE44:  CLRF   36
....................          RX_Buffer2[6]=0x00; 
0BE46:  CLRF   41
....................          if(cicloVisto<200) 
0BE48:  MOVF   xC7,W
0BE4A:  SUBLW  C7
0BE4C:  BNC   BE50
....................             cicloVisto++; 
0BE4E:  INCF   xC7,F
....................          printf("h0.val=%u",cicloVisto); 
0BE50:  MOVLW  F8
0BE52:  MOVWF  FF6
0BE54:  MOVLW  13
0BE56:  MOVWF  FF7
0BE58:  MOVLW  00
0BE5A:  MOVWF  FF8
0BE5C:  MOVLW  07
0BE5E:  MOVLB  7
0BE60:  MOVWF  xBE
0BE62:  MOVLB  0
0BE64:  CALL   55F4
0BE68:  MOVFF  C7,7BE
0BE6C:  MOVLW  1B
0BE6E:  MOVLB  7
0BE70:  MOVWF  xBF
0BE72:  MOVLB  0
0BE74:  CALL   58E0
....................          SendDataDisplay();   
0BE78:  CALL   3E98
....................          actualizaTabla(); 
0BE7C:  CALL   5F5C
....................          //exportarData(); 
....................       } 
....................        
....................       if(RX_Buffer[4]>0x00 && RX_Buffer[5]>0x00){ 
0BE80:  MOVF   34,F
0BE82:  BZ    BEA0
0BE84:  MOVF   35,F
0BE86:  BZ    BEA0
....................          cicloVisualizado=RX_Buffer[4]-1; 
0BE88:  MOVLW  01
0BE8A:  SUBWF  34,W
0BE8C:  MOVWF  xC9
....................          cicloVisto=RX_Buffer[5]-1; 
0BE8E:  MOVLW  01
0BE90:  SUBWF  35,W
0BE92:  MOVWF  xC7
....................          RX_Buffer[4]=0x00; 
0BE94:  CLRF   34
....................          RX_Buffer[5]=0x00; 
0BE96:  CLRF   35
....................          RX_Buffer2[4]=0x00; 
0BE98:  CLRF   3F
....................          RX_Buffer2[5]=0x00; 
0BE9A:  CLRF   40
....................          actualizaTabla(); 
0BE9C:  CALL   5F5C
....................       } 
....................        
....................       //Imprime Valores Estaticos 
....................       printf("fecha.txt=\"%02u/%02u/%02u\"",diaCiclos,mesCiclos,yearCiclos); 
0BEA0:  MOVLW  02
0BEA2:  MOVWF  FF6
0BEA4:  MOVLW  14
0BEA6:  MOVWF  FF7
0BEA8:  MOVLW  00
0BEAA:  MOVWF  FF8
0BEAC:  MOVLW  0B
0BEAE:  MOVLB  7
0BEB0:  MOVWF  xBE
0BEB2:  MOVLB  0
0BEB4:  CALL   55F4
0BEB8:  MOVFF  3F8,7BE
0BEBC:  MOVLW  01
0BEBE:  MOVLB  7
0BEC0:  MOVWF  xBF
0BEC2:  MOVLB  0
0BEC4:  CALL   58E0
0BEC8:  MOVLW  2F
0BECA:  BTFSS  F9E.4
0BECC:  BRA    BECA
0BECE:  MOVWF  FAD
0BED0:  MOVFF  3F9,7BE
0BED4:  MOVLW  01
0BED6:  MOVLB  7
0BED8:  MOVWF  xBF
0BEDA:  MOVLB  0
0BEDC:  CALL   58E0
0BEE0:  MOVLW  2F
0BEE2:  BTFSS  F9E.4
0BEE4:  BRA    BEE2
0BEE6:  MOVWF  FAD
0BEE8:  MOVFF  3FA,7BE
0BEEC:  MOVLW  01
0BEEE:  MOVLB  7
0BEF0:  MOVWF  xBF
0BEF2:  MOVLB  0
0BEF4:  CALL   58E0
0BEF8:  MOVLW  22
0BEFA:  BTFSS  F9E.4
0BEFC:  BRA    BEFA
0BEFE:  MOVWF  FAD
....................       SendDataDisplay(); 
0BF00:  CALL   3E98
....................        
....................       printf("ciclo.txt=\"%02u\"",cicloCiclos); 
0BF04:  MOVLW  1E
0BF06:  MOVWF  FF6
0BF08:  MOVLW  14
0BF0A:  MOVWF  FF7
0BF0C:  MOVLW  00
0BF0E:  MOVWF  FF8
0BF10:  MOVLW  0B
0BF12:  MOVLB  7
0BF14:  MOVWF  xBE
0BF16:  MOVLB  0
0BF18:  CALL   55F4
0BF1C:  MOVFF  3FC,7BE
0BF20:  MOVLW  01
0BF22:  MOVLB  7
0BF24:  MOVWF  xBF
0BF26:  MOVLB  0
0BF28:  CALL   58E0
0BF2C:  MOVLW  22
0BF2E:  BTFSS  F9E.4
0BF30:  BRA    BF2E
0BF32:  MOVWF  FAD
....................       SendDataDisplay(); 
0BF34:  CALL   3E98
....................        
....................       printf("t0.txt=\"Ciclo %02u\"",cicloVisto); 
0BF38:  MOVLW  30
0BF3A:  MOVWF  FF6
0BF3C:  MOVLW  14
0BF3E:  MOVWF  FF7
0BF40:  MOVLW  00
0BF42:  MOVWF  FF8
0BF44:  MOVLW  0E
0BF46:  MOVLB  7
0BF48:  MOVWF  xBE
0BF4A:  MOVLB  0
0BF4C:  CALL   55F4
0BF50:  MOVFF  C7,7BE
0BF54:  MOVLW  01
0BF56:  MOVLB  7
0BF58:  MOVWF  xBF
0BF5A:  MOVLB  0
0BF5C:  CALL   58E0
0BF60:  MOVLW  22
0BF62:  BTFSS  F9E.4
0BF64:  BRA    BF62
0BF66:  MOVWF  FAD
....................       SendDataDisplay(); 
0BF68:  CALL   3E98
....................        
....................       if(usuarioCiclos==0){ 
0BF6C:  MOVLB  3
0BF6E:  MOVF   xFB,F
0BF70:  BNZ   BF8C
....................          printf("usuario.txt=\"Admin\""); 
0BF72:  MOVLW  44
0BF74:  MOVWF  FF6
0BF76:  MOVLW  14
0BF78:  MOVWF  FF7
0BF7A:  MOVLW  00
0BF7C:  MOVWF  FF8
0BF7E:  MOVLB  0
0BF80:  CALL   3E66
....................          SendDataDisplay(); 
0BF84:  CALL   3E98
....................       }else if(usuarioCiclos>0 && usuarioCiclos<9){ 
0BF88:  BRA    BFEA
0BF8A:  MOVLB  3
0BF8C:  MOVF   xFB,F
0BF8E:  BZ    BFCE
0BF90:  MOVF   xFB,W
0BF92:  SUBLW  08
0BF94:  BNC   BFCE
....................          printf("usuario.txt=\"Operador%u\"",usuarioCiclos); 
0BF96:  MOVLW  58
0BF98:  MOVWF  FF6
0BF9A:  MOVLW  14
0BF9C:  MOVWF  FF7
0BF9E:  MOVLW  00
0BFA0:  MOVWF  FF8
0BFA2:  MOVLW  15
0BFA4:  MOVLB  7
0BFA6:  MOVWF  xBE
0BFA8:  MOVLB  0
0BFAA:  CALL   55F4
0BFAE:  MOVFF  3FB,7BE
0BFB2:  MOVLW  1B
0BFB4:  MOVLB  7
0BFB6:  MOVWF  xBF
0BFB8:  MOVLB  0
0BFBA:  CALL   58E0
0BFBE:  MOVLW  22
0BFC0:  BTFSS  F9E.4
0BFC2:  BRA    BFC0
0BFC4:  MOVWF  FAD
....................          SendDataDisplay(); 
0BFC6:  CALL   3E98
....................       }else if(usuarioCiclos==9){ 
0BFCA:  BRA    BFEA
0BFCC:  MOVLB  3
0BFCE:  MOVF   xFB,W
0BFD0:  SUBLW  09
0BFD2:  BNZ   BFEC
....................          printf("usuario.txt=\"Tecnico\""); 
0BFD4:  MOVLW  72
0BFD6:  MOVWF  FF6
0BFD8:  MOVLW  14
0BFDA:  MOVWF  FF7
0BFDC:  MOVLW  00
0BFDE:  MOVWF  FF8
0BFE0:  MOVLB  0
0BFE2:  CALL   3E66
....................          SendDataDisplay(); 
0BFE6:  CALL   3E98
0BFEA:  MOVLB  3
....................       } 
....................        
....................       //Imprime Valores Dinamicos 
....................       for(i=0;i<7;i++){ 
0BFEC:  CLRF   x51
0BFEE:  MOVF   x51,W
0BFF0:  SUBLW  06
0BFF2:  BTFSS  FD8.0
0BFF4:  BRA    C28E
....................          printf("hora%u.txt=\"%02u.  %02u:%02u\"",i+1,cicloVisualizado+i+1,horaCiclos[i],minutoCiclos[i]); 
0BFF6:  MOVLW  01
0BFF8:  ADDWF  x51,W
0BFFA:  MOVLB  7
0BFFC:  MOVWF  xB9
0BFFE:  MOVLB  3
0C000:  MOVF   x51,W
0C002:  MOVLB  0
0C004:  ADDWF  xC9,W
0C006:  ADDLW  01
0C008:  MOVLB  7
0C00A:  MOVWF  xBA
0C00C:  CLRF   03
0C00E:  MOVLB  3
0C010:  MOVF   x51,W
0C012:  ADDLW  E3
0C014:  MOVWF  FE9
0C016:  MOVLW  03
0C018:  ADDWFC 03,W
0C01A:  MOVWF  FEA
0C01C:  MOVFF  FEF,7BB
0C020:  CLRF   03
0C022:  MOVF   x51,W
0C024:  ADDLW  EA
0C026:  MOVWF  FE9
0C028:  MOVLW  03
0C02A:  ADDWFC 03,W
0C02C:  MOVWF  FEA
0C02E:  MOVFF  FEF,7BC
0C032:  MOVLW  88
0C034:  MOVWF  FF6
0C036:  MOVLW  14
0C038:  MOVWF  FF7
0C03A:  MOVLW  00
0C03C:  MOVWF  FF8
0C03E:  MOVLW  04
0C040:  MOVLB  7
0C042:  MOVWF  xBE
0C044:  MOVLB  0
0C046:  CALL   55F4
0C04A:  MOVFF  7B9,7BE
0C04E:  MOVLW  1B
0C050:  MOVLB  7
0C052:  MOVWF  xBF
0C054:  MOVLB  0
0C056:  CALL   58E0
0C05A:  MOVLW  8E
0C05C:  MOVWF  FF6
0C05E:  MOVLW  14
0C060:  MOVWF  FF7
0C062:  MOVLW  00
0C064:  MOVWF  FF8
0C066:  MOVLW  06
0C068:  MOVLB  7
0C06A:  MOVWF  xBE
0C06C:  MOVLB  0
0C06E:  CALL   55F4
0C072:  MOVFF  7BA,7BE
0C076:  MOVLW  01
0C078:  MOVLB  7
0C07A:  MOVWF  xBF
0C07C:  MOVLB  0
0C07E:  CALL   58E0
0C082:  MOVLW  2E
0C084:  BTFSS  F9E.4
0C086:  BRA    C084
0C088:  MOVWF  FAD
0C08A:  MOVLW  20
0C08C:  BTFSS  F9E.4
0C08E:  BRA    C08C
0C090:  MOVWF  FAD
0C092:  MOVLW  20
0C094:  BTFSS  F9E.4
0C096:  BRA    C094
0C098:  MOVWF  FAD
0C09A:  MOVFF  7BB,7BE
0C09E:  MOVLW  01
0C0A0:  MOVLB  7
0C0A2:  MOVWF  xBF
0C0A4:  MOVLB  0
0C0A6:  CALL   58E0
0C0AA:  MOVLW  3A
0C0AC:  BTFSS  F9E.4
0C0AE:  BRA    C0AC
0C0B0:  MOVWF  FAD
0C0B2:  MOVFF  7BC,7BE
0C0B6:  MOVLW  01
0C0B8:  MOVLB  7
0C0BA:  MOVWF  xBF
0C0BC:  MOVLB  0
0C0BE:  CALL   58E0
0C0C2:  MOVLW  22
0C0C4:  BTFSS  F9E.4
0C0C6:  BRA    C0C4
0C0C8:  MOVWF  FAD
....................          SendDataDisplay(); 
0C0CA:  CALL   3E98
....................          printf("T%u.txt=\"%3.1fC\"",i+1,TCiclos[i]); 
0C0CE:  MOVLW  01
0C0D0:  MOVLB  3
0C0D2:  ADDWF  x51,W
0C0D4:  MOVLB  7
0C0D6:  MOVWF  xB9
0C0D8:  MOVLB  3
0C0DA:  MOVF   x51,W
0C0DC:  MULLW  04
0C0DE:  MOVF   FF3,W
0C0E0:  CLRF   03
0C0E2:  ADDLW  AB
0C0E4:  MOVWF  FE9
0C0E6:  MOVLW  03
0C0E8:  ADDWFC 03,W
0C0EA:  MOVWF  FEA
0C0EC:  MOVFF  FEF,7BA
0C0F0:  MOVFF  FEC,7BB
0C0F4:  MOVFF  FEC,7BC
0C0F8:  MOVFF  FEC,7BD
0C0FC:  MOVLW  54
0C0FE:  BTFSS  F9E.4
0C100:  BRA    C0FE
0C102:  MOVWF  FAD
0C104:  MOVFF  7B9,7BE
0C108:  MOVLW  1B
0C10A:  MOVLB  7
0C10C:  MOVWF  xBF
0C10E:  MOVLB  0
0C110:  CALL   58E0
0C114:  MOVLW  A9
0C116:  MOVWF  FF6
0C118:  MOVLW  14
0C11A:  MOVWF  FF7
0C11C:  MOVLW  00
0C11E:  MOVWF  FF8
0C120:  MOVLW  06
0C122:  MOVLB  7
0C124:  MOVWF  xBE
0C126:  MOVLB  0
0C128:  CALL   55F4
0C12C:  MOVLW  02
0C12E:  MOVWF  FE9
0C130:  MOVFF  7BD,7C1
0C134:  MOVFF  7BC,7C0
0C138:  MOVFF  7BB,7BF
0C13C:  MOVFF  7BA,7BE
0C140:  MOVLW  01
0C142:  MOVLB  7
0C144:  MOVWF  xC2
0C146:  MOVLB  0
0C148:  CALL   5710
0C14C:  MOVLW  B0
0C14E:  BTFSS  F9E.4
0C150:  BRA    C14E
0C152:  MOVWF  FAD
0C154:  MOVLW  43
0C156:  BTFSS  F9E.4
0C158:  BRA    C156
0C15A:  MOVWF  FAD
0C15C:  MOVLW  22
0C15E:  BTFSS  F9E.4
0C160:  BRA    C15E
0C162:  MOVWF  FAD
....................          SendDataDisplay(); 
0C164:  CALL   3E98
....................          printf("Pc%u.txt=\"%03LukPa\"",i+1,PcCiclos[i]); 
0C168:  MOVLW  01
0C16A:  MOVLB  3
0C16C:  ADDWF  x51,W
0C16E:  MOVLB  7
0C170:  MOVWF  xB9
0C172:  BCF    FD8.0
0C174:  MOVLB  3
0C176:  RLCF   x51,W
0C178:  CLRF   03
0C17A:  ADDLW  C7
0C17C:  MOVWF  FE9
0C17E:  MOVLW  03
0C180:  ADDWFC 03,W
0C182:  MOVWF  FEA
0C184:  MOVFF  FEC,7BB
0C188:  MOVF   FED,F
0C18A:  MOVFF  FEF,7BA
0C18E:  MOVLW  50
0C190:  BTFSS  F9E.4
0C192:  BRA    C190
0C194:  MOVWF  FAD
0C196:  MOVLW  63
0C198:  BTFSS  F9E.4
0C19A:  BRA    C198
0C19C:  MOVWF  FAD
0C19E:  MOVFF  7B9,7BE
0C1A2:  MOVLW  1B
0C1A4:  MOVLB  7
0C1A6:  MOVWF  xBF
0C1A8:  MOVLB  0
0C1AA:  CALL   58E0
0C1AE:  MOVLW  BC
0C1B0:  MOVWF  FF6
0C1B2:  MOVLW  14
0C1B4:  MOVWF  FF7
0C1B6:  MOVLW  00
0C1B8:  MOVWF  FF8
0C1BA:  MOVLW  06
0C1BC:  MOVLB  7
0C1BE:  MOVWF  xBE
0C1C0:  MOVLB  0
0C1C2:  CALL   55F4
0C1C6:  MOVLW  0A
0C1C8:  MOVWF  FE9
0C1CA:  MOVFF  7BB,7BE
0C1CE:  MOVFF  7BA,7BD
0C1D2:  CALL   59D4
0C1D6:  MOVLW  C7
0C1D8:  MOVWF  FF6
0C1DA:  MOVLW  14
0C1DC:  MOVWF  FF7
0C1DE:  MOVLW  00
0C1E0:  MOVWF  FF8
0C1E2:  MOVLW  04
0C1E4:  MOVLB  7
0C1E6:  MOVWF  xBE
0C1E8:  MOVLB  0
0C1EA:  CALL   55F4
....................          SendDataDisplay(); 
0C1EE:  CALL   3E98
....................          printf("Ppc%u.txt=\"%03LukPa\"",i+1,PpcCiclos[i]); 
0C1F2:  MOVLW  01
0C1F4:  MOVLB  3
0C1F6:  ADDWF  x51,W
0C1F8:  MOVLB  7
0C1FA:  MOVWF  xB9
0C1FC:  BCF    FD8.0
0C1FE:  MOVLB  3
0C200:  RLCF   x51,W
0C202:  CLRF   03
0C204:  ADDLW  D5
0C206:  MOVWF  FE9
0C208:  MOVLW  03
0C20A:  ADDWFC 03,W
0C20C:  MOVWF  FEA
0C20E:  MOVFF  FEC,7BB
0C212:  MOVF   FED,F
0C214:  MOVFF  FEF,7BA
0C218:  MOVLW  50
0C21A:  BTFSS  F9E.4
0C21C:  BRA    C21A
0C21E:  MOVWF  FAD
0C220:  MOVLW  70
0C222:  BTFSS  F9E.4
0C224:  BRA    C222
0C226:  MOVWF  FAD
0C228:  MOVLW  63
0C22A:  BTFSS  F9E.4
0C22C:  BRA    C22A
0C22E:  MOVWF  FAD
0C230:  MOVFF  7B9,7BE
0C234:  MOVLW  1B
0C236:  MOVLB  7
0C238:  MOVWF  xBF
0C23A:  MOVLB  0
0C23C:  CALL   58E0
0C240:  MOVLW  D1
0C242:  MOVWF  FF6
0C244:  MOVLW  14
0C246:  MOVWF  FF7
0C248:  MOVLW  00
0C24A:  MOVWF  FF8
0C24C:  MOVLW  06
0C24E:  MOVLB  7
0C250:  MOVWF  xBE
0C252:  MOVLB  0
0C254:  CALL   55F4
0C258:  MOVLW  0A
0C25A:  MOVWF  FE9
0C25C:  MOVFF  7BB,7BE
0C260:  MOVFF  7BA,7BD
0C264:  CALL   59D4
0C268:  MOVLW  DC
0C26A:  MOVWF  FF6
0C26C:  MOVLW  14
0C26E:  MOVWF  FF7
0C270:  MOVLW  00
0C272:  MOVWF  FF8
0C274:  MOVLW  04
0C276:  MOVLB  7
0C278:  MOVWF  xBE
0C27A:  MOVLB  0
0C27C:  CALL   55F4
....................          SendDataDisplay();          
0C280:  CALL   3E98
....................          codificaAlarma(); 
0C284:  GOTO   660E
....................       }   
0C288:  MOVLB  3
0C28A:  INCF   x51,F
0C28C:  BRA    BFEE
....................    } 
.................... //_--------------------------------------------------------------------------------------------------------------------------------------------------------       
....................  
.................... //_--------------------------------------------------------------------------------------------------------------------------------------------------------       
....................     if(Menu==13){//Menu de Nivel de Desfogue 
0C28E:  MOVF   x4E,W
0C290:  SUBLW  0D
0C292:  BTFSS  FD8.2
0C294:  BRA    C512
....................       printf("fecha.txt=\"T:%2.1fC Fecha:%02u/%02u/20%02u Hora:%02u:%02u:%02u\"",Temperatura,Dia,Mes,Year,Hora,Minuto,Segundo); 
0C296:  MOVLW  E2
0C298:  MOVWF  FF6
0C29A:  MOVLW  14
0C29C:  MOVWF  FF7
0C29E:  MOVLW  00
0C2A0:  MOVWF  FF8
0C2A2:  MOVLW  0D
0C2A4:  MOVLB  7
0C2A6:  MOVWF  xBE
0C2A8:  MOVLB  0
0C2AA:  CALL   55F4
0C2AE:  MOVLW  01
0C2B0:  MOVWF  FE9
0C2B2:  MOVFF  31B,7C1
0C2B6:  MOVFF  31A,7C0
0C2BA:  MOVFF  319,7BF
0C2BE:  MOVFF  318,7BE
0C2C2:  MOVLB  7
0C2C4:  MOVWF  xC2
0C2C6:  MOVLB  0
0C2C8:  CALL   5710
0C2CC:  MOVLW  F4
0C2CE:  MOVWF  FF6
0C2D0:  MOVLW  14
0C2D2:  MOVWF  FF7
0C2D4:  MOVLW  00
0C2D6:  MOVWF  FF8
0C2D8:  MOVLW  09
0C2DA:  MOVLB  7
0C2DC:  MOVWF  xBE
0C2DE:  MOVLB  0
0C2E0:  CALL   55F4
0C2E4:  MOVFF  386,7BE
0C2E8:  MOVLW  01
0C2EA:  MOVLB  7
0C2EC:  MOVWF  xBF
0C2EE:  MOVLB  0
0C2F0:  CALL   58E0
0C2F4:  MOVLW  2F
0C2F6:  BTFSS  F9E.4
0C2F8:  BRA    C2F6
0C2FA:  MOVWF  FAD
0C2FC:  MOVFF  385,7BE
0C300:  MOVLW  01
0C302:  MOVLB  7
0C304:  MOVWF  xBF
0C306:  MOVLB  0
0C308:  CALL   58E0
0C30C:  MOVLW  2F
0C30E:  BTFSS  F9E.4
0C310:  BRA    C30E
0C312:  MOVWF  FAD
0C314:  MOVLW  32
0C316:  BTFSS  F9E.4
0C318:  BRA    C316
0C31A:  MOVWF  FAD
0C31C:  MOVLW  30
0C31E:  BTFSS  F9E.4
0C320:  BRA    C31E
0C322:  MOVWF  FAD
0C324:  MOVFF  384,7BE
0C328:  MOVLW  01
0C32A:  MOVLB  7
0C32C:  MOVWF  xBF
0C32E:  MOVLB  0
0C330:  CALL   58E0
0C334:  MOVLW  0D
0C336:  MOVWF  FF6
0C338:  MOVLW  15
0C33A:  MOVWF  FF7
0C33C:  MOVLW  00
0C33E:  MOVWF  FF8
0C340:  MOVLW  06
0C342:  MOVLB  7
0C344:  MOVWF  xBE
0C346:  MOVLB  0
0C348:  CALL   55F4
0C34C:  MOVFF  387,7BE
0C350:  MOVLW  01
0C352:  MOVLB  7
0C354:  MOVWF  xBF
0C356:  MOVLB  0
0C358:  CALL   58E0
0C35C:  MOVLW  3A
0C35E:  BTFSS  F9E.4
0C360:  BRA    C35E
0C362:  MOVWF  FAD
0C364:  MOVFF  388,7BE
0C368:  MOVLW  01
0C36A:  MOVLB  7
0C36C:  MOVWF  xBF
0C36E:  MOVLB  0
0C370:  CALL   58E0
0C374:  MOVLW  3A
0C376:  BTFSS  F9E.4
0C378:  BRA    C376
0C37A:  MOVWF  FAD
0C37C:  MOVFF  389,7BE
0C380:  MOVLW  01
0C382:  MOVLB  7
0C384:  MOVWF  xBF
0C386:  MOVLB  0
0C388:  CALL   58E0
0C38C:  MOVLW  22
0C38E:  BTFSS  F9E.4
0C390:  BRA    C38E
0C392:  MOVWF  FAD
....................       SendDataDisplay(); 
0C394:  CALL   3E98
....................          if(NivelDes<1) 
0C398:  MOVF   xCC,F
0C39A:  BNZ   C3A0
....................             NivelDes=6; 
0C39C:  MOVLW  06
0C39E:  MOVWF  xCC
....................          if(NivelDes>6) 
0C3A0:  MOVF   xCC,W
0C3A2:  SUBLW  06
0C3A4:  BC    C3AA
....................             NivelDes=1; 
0C3A6:  MOVLW  01
0C3A8:  MOVWF  xCC
....................           
....................          if(RX_Buffer[4]==0x11){//Selecciono Regresar 
0C3AA:  MOVF   34,W
0C3AC:  SUBLW  11
0C3AE:  BTFSS  FD8.2
0C3B0:  BRA    C4C4
....................             Segundos=OFF; 
0C3B2:  BCF    xA3.2
....................             Minutos=OFF;             
0C3B4:  BCF    xA3.1
....................             tiempo_secado=0; 
0C3B6:  MOVLB  3
0C3B8:  CLRF   x59
....................             if(!GuardaEEPROM){     
0C3BA:  MOVLB  0
0C3BC:  BTFSC  xA3.3
0C3BE:  BRA    C438
....................                CiclosPersonalizados[CicloLibre-1].NivelDesfogue=NivelDes; 
0C3C0:  MOVLW  01
0C3C2:  MOVLB  3
0C3C4:  SUBWF  x32,W
0C3C6:  MULLW  0A
0C3C8:  MOVF   FF3,W
0C3CA:  MOVLB  7
0C3CC:  CLRF   xBA
0C3CE:  MOVWF  xB9
0C3D0:  MOVLW  08
0C3D2:  ADDWF  xB9,W
0C3D4:  MOVWF  01
0C3D6:  MOVLW  00
0C3D8:  ADDWFC xBA,W
0C3DA:  MOVWF  03
0C3DC:  MOVF   01,W
0C3DE:  ADDLW  C9
0C3E0:  MOVWF  FE9
0C3E2:  MOVLW  06
0C3E4:  ADDWFC 03,W
0C3E6:  MOVWF  FEA
0C3E8:  MOVFF  CC,FEF
....................                write_eeprom(107+((CicloLibre-1)*8),NivelDes); 
0C3EC:  MOVLW  01
0C3EE:  MOVLB  3
0C3F0:  SUBWF  x32,W
0C3F2:  MULLW  08
0C3F4:  MOVF   FF3,W
0C3F6:  ADDLW  6B
0C3F8:  MOVLB  7
0C3FA:  MOVWF  xB9
0C3FC:  CLRF   FAA
0C3FE:  MOVFF  7B9,FA9
0C402:  MOVFF  CC,FA8
0C406:  BCF    FA6.6
0C408:  BCF    FA6.7
0C40A:  BSF    FA6.2
0C40C:  MOVF   FF2,W
0C40E:  MOVWF  00
0C410:  BCF    FF2.6
0C412:  BCF    FF2.7
0C414:  MOVLB  F
0C416:  MOVLW  55
0C418:  MOVWF  FA7
0C41A:  MOVLW  AA
0C41C:  MOVWF  FA7
0C41E:  BSF    FA6.1
0C420:  BTFSC  FA6.1
0C422:  BRA    C420
0C424:  BCF    FA6.2
0C426:  MOVF   00,W
0C428:  IORWF  FF2,F
....................                delay_ms(20);             
0C42A:  MOVLW  14
0C42C:  MOVLB  7
0C42E:  MOVWF  xC9
0C430:  MOVLB  0
0C432:  CALL   1FA0
....................                GuardaEEPROM=ON; 
0C436:  BSF    xA3.3
....................             } 
....................              
....................             if(Nivel<6) 
0C438:  MOVLB  3
0C43A:  MOVF   x64,F
0C43C:  BNZ   C44A
0C43E:  MOVF   x63,W
0C440:  SUBLW  05
0C442:  BNC   C44A
....................                desfoguelento=1; 
0C444:  MOVLB  0
0C446:  BSF    xA7.4
....................             else             
0C448:  BRA    C44E
....................                desfoguelento=0; 
0C44A:  MOVLB  0
0C44C:  BCF    xA7.4
....................             if(flagLiquidos){ 
0C44E:  BTFSS  xA7.1
0C450:  BRA    C4B0
....................                printf("page Funcionamiento"); 
0C452:  MOVLW  24
0C454:  MOVWF  FF6
0C456:  MOVLW  15
0C458:  MOVWF  FF7
0C45A:  MOVLW  00
0C45C:  MOVWF  FF8
0C45E:  CALL   3E66
....................                SendDataDisplay();  
0C462:  CALL   3E98
....................                NivelSeleccionado=4995*CiclosPersonalizados[CicloLibre-1].NivelDesfogue; 
0C466:  MOVLW  01
0C468:  MOVLB  3
0C46A:  SUBWF  x32,W
0C46C:  MULLW  0A
0C46E:  MOVF   FF3,W
0C470:  MOVLB  7
0C472:  CLRF   xBA
0C474:  MOVWF  xB9
0C476:  MOVLW  08
0C478:  ADDWF  xB9,W
0C47A:  MOVWF  01
0C47C:  MOVLW  00
0C47E:  ADDWFC xBA,W
0C480:  MOVWF  03
0C482:  MOVF   01,W
0C484:  ADDLW  C9
0C486:  MOVWF  FE9
0C488:  MOVLW  06
0C48A:  ADDWFC 03,W
0C48C:  MOVWF  FEA
0C48E:  MOVFF  FEF,7B9
0C492:  MOVLW  13
0C494:  MOVWF  xC4
0C496:  MOVLW  83
0C498:  MOVWF  xC3
0C49A:  CLRF   xC6
0C49C:  MOVFF  7B9,7C5
0C4A0:  MOVLB  0
0C4A2:  CALL   203C
0C4A6:  MOVFF  02,B7
0C4AA:  MOVFF  01,B6
....................             }else{ 
0C4AE:  BRA    C4C4
....................                printf("page CicloPersona"); 
0C4B0:  MOVLW  38
0C4B2:  MOVWF  FF6
0C4B4:  MOVLW  15
0C4B6:  MOVWF  FF7
0C4B8:  MOVLW  00
0C4BA:  MOVWF  FF8
0C4BC:  CALL   3E66
....................                SendDataDisplay();  
0C4C0:  CALL   3E98
....................             } 
....................          } 
....................           
....................          if(RX_Buffer[4]==0x0d){//Tecla Arriba Oprimida 
0C4C4:  MOVF   34,W
0C4C6:  SUBLW  0D
0C4C8:  BNZ   C4D0
....................             NivelDes++; 
0C4CA:  INCF   xCC,F
....................             RX_Buffer[4]=0x00;             
0C4CC:  CLRF   34
....................             RX_Buffer2[4]=0x00;                        
0C4CE:  CLRF   3F
....................          } 
....................           
....................          if(RX_Buffer[4]==0x0c){//Tecla Abajo Oprimida 
0C4D0:  MOVF   34,W
0C4D2:  SUBLW  0C
0C4D4:  BNZ   C4DC
....................             NivelDes--; 
0C4D6:  DECF   xCC,F
....................             RX_Buffer[4]=0x00; 
0C4D8:  CLRF   34
....................             RX_Buffer2[4]=0x00;                         
0C4DA:  CLRF   3F
....................          } 
....................           
....................       printf("tnivel.txt=\"%u\"",NivelDes); 
0C4DC:  MOVLW  4A
0C4DE:  MOVWF  FF6
0C4E0:  MOVLW  15
0C4E2:  MOVWF  FF7
0C4E4:  MOVLW  00
0C4E6:  MOVWF  FF8
0C4E8:  MOVLW  0C
0C4EA:  MOVLB  7
0C4EC:  MOVWF  xBE
0C4EE:  MOVLB  0
0C4F0:  CALL   55F4
0C4F4:  MOVFF  CC,7BE
0C4F8:  MOVLW  1B
0C4FA:  MOVLB  7
0C4FC:  MOVWF  xBF
0C4FE:  MOVLB  0
0C500:  CALL   58E0
0C504:  MOVLW  22
0C506:  BTFSS  F9E.4
0C508:  BRA    C506
0C50A:  MOVWF  FAD
....................       SendDataDisplay(); 
0C50C:  CALL   3E98
0C510:  MOVLB  3
....................    } 
.................... //_--------------------------------------------------------------------------------------------------------------------------------------------------------       
....................  
.................... //_--------------------------------------------------------------------------------------------------------------------------------------------------------       
....................     if(Menu==14){//Menu de Activacion de Ciclos 
0C512:  MOVF   x4E,W
0C514:  SUBLW  0E
0C516:  BTFSS  FD8.2
0C518:  BRA    C778
....................       printf("fecha.txt=\"T:%2.1fC Fecha:%02u/%02u/20%02u Hora:%02u:%02u:%02u\"",Temperatura,Dia,Mes,Year,Hora,Minuto,Segundo); 
0C51A:  MOVLW  5A
0C51C:  MOVWF  FF6
0C51E:  MOVLW  15
0C520:  MOVWF  FF7
0C522:  MOVLW  00
0C524:  MOVWF  FF8
0C526:  MOVLW  0D
0C528:  MOVLB  7
0C52A:  MOVWF  xBE
0C52C:  MOVLB  0
0C52E:  CALL   55F4
0C532:  MOVLW  01
0C534:  MOVWF  FE9
0C536:  MOVFF  31B,7C1
0C53A:  MOVFF  31A,7C0
0C53E:  MOVFF  319,7BF
0C542:  MOVFF  318,7BE
0C546:  MOVLB  7
0C548:  MOVWF  xC2
0C54A:  MOVLB  0
0C54C:  CALL   5710
0C550:  MOVLW  6C
0C552:  MOVWF  FF6
0C554:  MOVLW  15
0C556:  MOVWF  FF7
0C558:  MOVLW  00
0C55A:  MOVWF  FF8
0C55C:  MOVLW  09
0C55E:  MOVLB  7
0C560:  MOVWF  xBE
0C562:  MOVLB  0
0C564:  CALL   55F4
0C568:  MOVFF  386,7BE
0C56C:  MOVLW  01
0C56E:  MOVLB  7
0C570:  MOVWF  xBF
0C572:  MOVLB  0
0C574:  CALL   58E0
0C578:  MOVLW  2F
0C57A:  BTFSS  F9E.4
0C57C:  BRA    C57A
0C57E:  MOVWF  FAD
0C580:  MOVFF  385,7BE
0C584:  MOVLW  01
0C586:  MOVLB  7
0C588:  MOVWF  xBF
0C58A:  MOVLB  0
0C58C:  CALL   58E0
0C590:  MOVLW  2F
0C592:  BTFSS  F9E.4
0C594:  BRA    C592
0C596:  MOVWF  FAD
0C598:  MOVLW  32
0C59A:  BTFSS  F9E.4
0C59C:  BRA    C59A
0C59E:  MOVWF  FAD
0C5A0:  MOVLW  30
0C5A2:  BTFSS  F9E.4
0C5A4:  BRA    C5A2
0C5A6:  MOVWF  FAD
0C5A8:  MOVFF  384,7BE
0C5AC:  MOVLW  01
0C5AE:  MOVLB  7
0C5B0:  MOVWF  xBF
0C5B2:  MOVLB  0
0C5B4:  CALL   58E0
0C5B8:  MOVLW  85
0C5BA:  MOVWF  FF6
0C5BC:  MOVLW  15
0C5BE:  MOVWF  FF7
0C5C0:  MOVLW  00
0C5C2:  MOVWF  FF8
0C5C4:  MOVLW  06
0C5C6:  MOVLB  7
0C5C8:  MOVWF  xBE
0C5CA:  MOVLB  0
0C5CC:  CALL   55F4
0C5D0:  MOVFF  387,7BE
0C5D4:  MOVLW  01
0C5D6:  MOVLB  7
0C5D8:  MOVWF  xBF
0C5DA:  MOVLB  0
0C5DC:  CALL   58E0
0C5E0:  MOVLW  3A
0C5E2:  BTFSS  F9E.4
0C5E4:  BRA    C5E2
0C5E6:  MOVWF  FAD
0C5E8:  MOVFF  388,7BE
0C5EC:  MOVLW  01
0C5EE:  MOVLB  7
0C5F0:  MOVWF  xBF
0C5F2:  MOVLB  0
0C5F4:  CALL   58E0
0C5F8:  MOVLW  3A
0C5FA:  BTFSS  F9E.4
0C5FC:  BRA    C5FA
0C5FE:  MOVWF  FAD
0C600:  MOVFF  389,7BE
0C604:  MOVLW  01
0C606:  MOVLB  7
0C608:  MOVWF  xBF
0C60A:  MOVLB  0
0C60C:  CALL   58E0
0C610:  MOVLW  22
0C612:  BTFSS  F9E.4
0C614:  BRA    C612
0C616:  MOVWF  FAD
....................       SendDataDisplay(); 
0C618:  CALL   3E98
....................        
....................       if(RX_Buffer[4]==0xaa){ 
0C61C:  MOVF   34,W
0C61E:  SUBLW  AA
0C620:  BNZ   C6AA
....................          for(i=0;i<30;i++){ 
0C622:  MOVLB  3
0C624:  CLRF   x51
0C626:  MOVF   x51,W
0C628:  SUBLW  1D
0C62A:  BNC   C690
....................             write_eeprom(50+i,estados[i]); 
0C62C:  MOVLW  32
0C62E:  ADDWF  x51,W
0C630:  MOVLB  7
0C632:  MOVWF  xB9
0C634:  MOVFF  351,7BA
0C638:  MOVLW  03
0C63A:  MOVWF  xBC
0C63C:  MOVLW  FD
0C63E:  MOVWF  xBB
0C640:  MOVLB  0
0C642:  CALL   200A
0C646:  MOVLW  00
0C648:  BTFSC  01.0
0C64A:  MOVLW  01
0C64C:  MOVLB  7
0C64E:  MOVWF  xBA
0C650:  CLRF   FAA
0C652:  MOVFF  7B9,FA9
0C656:  MOVFF  7BA,FA8
0C65A:  BCF    FA6.6
0C65C:  BCF    FA6.7
0C65E:  BSF    FA6.2
0C660:  MOVF   FF2,W
0C662:  MOVWF  00
0C664:  BCF    FF2.6
0C666:  BCF    FF2.7
0C668:  MOVLB  F
0C66A:  MOVLW  55
0C66C:  MOVWF  FA7
0C66E:  MOVLW  AA
0C670:  MOVWF  FA7
0C672:  BSF    FA6.1
0C674:  BTFSC  FA6.1
0C676:  BRA    C674
0C678:  BCF    FA6.2
0C67A:  MOVF   00,W
0C67C:  IORWF  FF2,F
....................             delay_ms(10); 
0C67E:  MOVLW  0A
0C680:  MOVLB  7
0C682:  MOVWF  xC9
0C684:  MOVLB  0
0C686:  CALL   1FA0
....................          } 
0C68A:  MOVLB  3
0C68C:  INCF   x51,F
0C68E:  BRA    C626
....................          printf("page Ajustes"); 
0C690:  MOVLW  9C
0C692:  MOVWF  FF6
0C694:  MOVLW  15
0C696:  MOVWF  FF7
0C698:  MOVLW  00
0C69A:  MOVWF  FF8
0C69C:  MOVLB  0
0C69E:  CALL   3E66
....................          SendDataDisplay();  
0C6A2:  CALL   3E98
....................          RX_Buffer[4]=0x00; 
0C6A6:  CLRF   34
....................          RX_Buffer2[4]=0x00; 
0C6A8:  CLRF   3F
....................       } 
....................        
....................       for(i=0;i<30;i++){ 
0C6AA:  MOVLB  3
0C6AC:  CLRF   x51
0C6AE:  MOVF   x51,W
0C6B0:  SUBLW  1D
0C6B2:  BNC   C778
....................          if(RX_Buffer[4]==i+1){ 
0C6B4:  MOVLW  01
0C6B6:  ADDWF  x51,W
0C6B8:  SUBWF  34,W
0C6BA:  BNZ   C6F0
....................             estados[i]=!estados[i]; 
0C6BC:  MOVFF  351,7BA
0C6C0:  MOVLW  03
0C6C2:  MOVLB  7
0C6C4:  MOVWF  xBC
0C6C6:  MOVLW  FD
0C6C8:  MOVWF  xBB
0C6CA:  MOVLB  0
0C6CC:  CALL   200A
0C6D0:  MOVLW  00
0C6D2:  BTFSS  01.0
0C6D4:  MOVLW  01
0C6D6:  MOVFF  351,7BB
0C6DA:  MOVLB  7
0C6DC:  MOVWF  xBC
0C6DE:  MOVLW  03
0C6E0:  MOVWF  xBE
0C6E2:  MOVLW  FD
0C6E4:  MOVWF  xBD
0C6E6:  MOVLB  0
0C6E8:  CALL   1FC8
....................             RX_Buffer[4]=0x00; 
0C6EC:  CLRF   34
....................             RX_Buffer2[4]=0x00; 
0C6EE:  CLRF   3F
....................          } 
....................           
....................          if(estados[i]){ 
0C6F0:  MOVFF  351,7BA
0C6F4:  MOVLW  03
0C6F6:  MOVLB  7
0C6F8:  MOVWF  xBC
0C6FA:  MOVLW  FD
0C6FC:  MOVWF  xBB
0C6FE:  MOVLB  0
0C700:  CALL   200A
0C704:  BTFSS  01.0
0C706:  BRA    C73E
....................             printf("b%u.bco=2016",i); 
0C708:  MOVLW  62
0C70A:  BTFSS  F9E.4
0C70C:  BRA    C70A
0C70E:  MOVWF  FAD
0C710:  MOVFF  351,7BE
0C714:  MOVLW  1B
0C716:  MOVLB  7
0C718:  MOVWF  xBF
0C71A:  MOVLB  0
0C71C:  CALL   58E0
0C720:  MOVLW  AD
0C722:  MOVWF  FF6
0C724:  MOVLW  15
0C726:  MOVWF  FF7
0C728:  MOVLW  00
0C72A:  MOVWF  FF8
0C72C:  MOVLW  09
0C72E:  MOVLB  7
0C730:  MOVWF  xBE
0C732:  MOVLB  0
0C734:  CALL   55F4
....................             SendDataDisplay();              
0C738:  CALL   3E98
....................          }else{ 
0C73C:  BRA    C772
....................             printf("b%u.bco=63488",i); 
0C73E:  MOVLW  62
0C740:  BTFSS  F9E.4
0C742:  BRA    C740
0C744:  MOVWF  FAD
0C746:  MOVFF  351,7BE
0C74A:  MOVLW  1B
0C74C:  MOVLB  7
0C74E:  MOVWF  xBF
0C750:  MOVLB  0
0C752:  CALL   58E0
0C756:  MOVLW  BB
0C758:  MOVWF  FF6
0C75A:  MOVLW  15
0C75C:  MOVWF  FF7
0C75E:  MOVLW  00
0C760:  MOVWF  FF8
0C762:  MOVLW  0A
0C764:  MOVLB  7
0C766:  MOVWF  xBE
0C768:  MOVLB  0
0C76A:  CALL   55F4
....................             SendDataDisplay();  
0C76E:  CALL   3E98
....................          } 
....................       } 
0C772:  MOVLB  3
0C774:  INCF   x51,F
0C776:  BRA    C6AE
....................    } 
.................... //_--------------------------------------------------------------------------------------------------------------------------------------------------------       
....................  
.................... //_--------------------------------------------------------------------------------------------------------------------------------------------------------       
....................     if(Menu==15){//Menu de Clave Correcta 
0C778:  MOVF   x4E,W
0C77A:  SUBLW  0F
0C77C:  BNZ   C7B4
....................       if(!entro){ 
0C77E:  MOVLB  0
0C780:  BTFSC  xA5.7
0C782:  BRA    C79E
....................          delay_ms(2000); 
0C784:  MOVLW  08
0C786:  MOVLB  7
0C788:  MOVWF  xB9
0C78A:  MOVLW  FA
0C78C:  MOVWF  xC9
0C78E:  MOVLB  0
0C790:  CALL   1FA0
0C794:  MOVLB  7
0C796:  DECFSZ xB9,F
0C798:  BRA    C78A
....................          entro=ON; 
0C79A:  MOVLB  0
0C79C:  BSF    xA5.7
....................       } 
....................       printf("page MenuPrincipal"); 
0C79E:  MOVLW  C6
0C7A0:  MOVWF  FF6
0C7A2:  MOVLW  15
0C7A4:  MOVWF  FF7
0C7A6:  MOVLW  00
0C7A8:  MOVWF  FF8
0C7AA:  CALL   3E66
....................       SendDataDisplay(); 
0C7AE:  CALL   3E98
0C7B2:  MOVLB  3
....................    } 
.................... //_--------------------------------------------------------------------------------------------------------------------------------------------------------       
....................  
.................... //_--------------------------------------------------------------------------------------------------------------------------------------------------------       
....................     if(Menu==16){//Menu de Clave InCorrecta 
0C7B4:  MOVF   x4E,W
0C7B6:  SUBLW  10
0C7B8:  BNZ   C7F0
....................       if(!entro){ 
0C7BA:  MOVLB  0
0C7BC:  BTFSC  xA5.7
0C7BE:  BRA    C7DA
....................          delay_ms(2000); 
0C7C0:  MOVLW  08
0C7C2:  MOVLB  7
0C7C4:  MOVWF  xB9
0C7C6:  MOVLW  FA
0C7C8:  MOVWF  xC9
0C7CA:  MOVLB  0
0C7CC:  CALL   1FA0
0C7D0:  MOVLB  7
0C7D2:  DECFSZ xB9,F
0C7D4:  BRA    C7C6
....................          entro=ON; 
0C7D6:  MOVLB  0
0C7D8:  BSF    xA5.7
....................       } 
....................       printf("page Clave"); 
0C7DA:  MOVLW  DA
0C7DC:  MOVWF  FF6
0C7DE:  MOVLW  15
0C7E0:  MOVWF  FF7
0C7E2:  MOVLW  00
0C7E4:  MOVWF  FF8
0C7E6:  CALL   3E66
....................       SendDataDisplay(); 
0C7EA:  CALL   3E98
0C7EE:  MOVLB  3
....................    } 
.................... //_--------------------------------------------------------------------------------------------------------------------------------------------------------       
....................  
.................... //_--------------------------------------------------------------------------------------------------------------------------------------------------------     
....................    if(Menu==20){ // Este es el menu de cuando el proceso se inicio. 
0C7F0:  MOVF   x4E,W
0C7F2:  SUBLW  14
0C7F4:  BTFSS  FD8.2
0C7F6:  GOTO   D96C
....................    GuardaDatoEstatico(); 
0C7FA:  MOVLB  0
0C7FC:  GOTO   6D38
....................    guardaCiclo=ON; 
0C800:  BSF    xA4.7
....................    if(!Libre){ 
0C802:  BTFSC  xA4.3
0C804:  BRA    C89E
....................       printf("t2f.txt=\"%u\"",CicloSeleccionado); 
0C806:  MOVLW  E6
0C808:  MOVWF  FF6
0C80A:  MOVLW  15
0C80C:  MOVWF  FF7
0C80E:  MOVLW  00
0C810:  MOVWF  FF8
0C812:  MOVLW  09
0C814:  MOVLB  7
0C816:  MOVWF  xBE
0C818:  MOVLB  0
0C81A:  CALL   55F4
0C81E:  MOVFF  354,7BE
0C822:  MOVLW  1B
0C824:  MOVLB  7
0C826:  MOVWF  xBF
0C828:  MOVLB  0
0C82A:  CALL   58E0
0C82E:  MOVLW  22
0C830:  BTFSS  F9E.4
0C832:  BRA    C830
0C834:  MOVWF  FAD
....................       SendDataDisplay(); 
0C836:  CALL   3E98
....................       printf("t3f.txt=\"%s\"",Texto[CicloSeleccionado-1]); 
0C83A:  MOVLW  01
0C83C:  MOVLB  3
0C83E:  SUBWF  x54,W
0C840:  MOVLB  7
0C842:  MOVWF  xBA
0C844:  CLRF   xC4
0C846:  MOVWF  xC3
0C848:  CLRF   xC6
0C84A:  MOVLW  18
0C84C:  MOVWF  xC5
0C84E:  MOVLB  0
0C850:  CALL   203C
0C854:  MOVFF  02,7BA
0C858:  MOVLB  7
0C85A:  MOVFF  01,7B9
0C85E:  MOVLW  F4
0C860:  MOVWF  FF6
0C862:  MOVLW  15
0C864:  MOVWF  FF7
0C866:  MOVLW  00
0C868:  MOVWF  FF8
0C86A:  MOVLW  09
0C86C:  MOVWF  xBE
0C86E:  MOVLB  0
0C870:  CALL   55F4
0C874:  MOVLW  26
0C876:  MOVWF  FF6
0C878:  MOVLW  03
0C87A:  MOVWF  FF7
0C87C:  MOVLW  00
0C87E:  MOVWF  FF8
0C880:  MOVLB  7
0C882:  MOVF   xB9,W
0C884:  ADDWF  FF6,F
0C886:  MOVF   xBA,W
0C888:  ADDWFC FF7,F
0C88A:  MOVLB  0
0C88C:  CALL   3E66
0C890:  MOVLW  22
0C892:  BTFSS  F9E.4
0C894:  BRA    C892
0C896:  MOVWF  FAD
....................       SendDataDisplay(); 
0C898:  CALL   3E98
....................    }else{ 
0C89C:  BRA    C8EE
....................       printf("t2f.txt=\"%u\"",CicloLibre+10); 
0C89E:  MOVLW  0A
0C8A0:  MOVLB  3
0C8A2:  ADDWF  x32,W
0C8A4:  MOVLB  7
0C8A6:  MOVWF  xB9
0C8A8:  MOVLW  02
0C8AA:  MOVWF  FF6
0C8AC:  MOVLW  16
0C8AE:  MOVWF  FF7
0C8B0:  MOVLW  00
0C8B2:  MOVWF  FF8
0C8B4:  MOVLW  09
0C8B6:  MOVWF  xBE
0C8B8:  MOVLB  0
0C8BA:  CALL   55F4
0C8BE:  MOVFF  7B9,7BE
0C8C2:  MOVLW  1B
0C8C4:  MOVLB  7
0C8C6:  MOVWF  xBF
0C8C8:  MOVLB  0
0C8CA:  CALL   58E0
0C8CE:  MOVLW  22
0C8D0:  BTFSS  F9E.4
0C8D2:  BRA    C8D0
0C8D4:  MOVWF  FAD
....................       SendDataDisplay(); 
0C8D6:  CALL   3E98
....................       printf("t3f.txt=\"Personalizado\""); 
0C8DA:  MOVLW  10
0C8DC:  MOVWF  FF6
0C8DE:  MOVLW  16
0C8E0:  MOVWF  FF7
0C8E2:  MOVLW  00
0C8E4:  MOVWF  FF8
0C8E6:  CALL   3E66
....................       SendDataDisplay(); 
0C8EA:  CALL   3E98
....................    } 
....................     
....................    if(!AlarmaEmergencia){ 
0C8EE:  BTFSC  x9F.5
0C8F0:  BRA    C90A
....................       if(pulsoSubir) 
0C8F2:  BTFSS  xA7.2
0C8F4:  BRA    C8FC
....................          abrePuerta(); 
0C8F6:  CALL   5A7E
....................       else if(pulsoBajar) 
0C8FA:  BRA    C90A
0C8FC:  BTFSS  xA7.3
0C8FE:  BRA    C906
....................         cierraPuerta();  
0C900:  CALL   5BDA
....................       else  
0C904:  BRA    C90A
....................          detienePuerta(); 
0C906:  CALL   4DB6
....................    } 
....................           
....................    if(UPD){//Oprimio Subir Puerta 
0C90A:  BSF    F93.0
0C90C:  BTFSC  F81.0
0C90E:  BRA    C914
....................       pulsoSubir=ON; 
0C910:  BSF    xA7.2
....................       pulsoBajar=OFF; 
0C912:  BCF    xA7.3
....................    } 
....................     
....................    if(!DND && !UPD){//Solto Botones 
0C914:  BSF    F93.1
0C916:  BTFSS  F81.1
0C918:  BRA    C924
0C91A:  BSF    F93.0
0C91C:  BTFSS  F81.0
0C91E:  BRA    C924
....................       pulsoSubir=OFF; 
0C920:  BCF    xA7.2
....................       pulsoBajar=OFF; 
0C922:  BCF    xA7.3
....................    } 
....................     
....................    if(DND){//Oprimio Bajar Puerta 
0C924:  BSF    F93.1
0C926:  BTFSC  F81.1
0C928:  BRA    C92E
....................       pulsoSubir=OFF; 
0C92A:  BCF    xA7.2
....................       pulsoBajar=ON; 
0C92C:  BSF    xA7.3
....................    } 
....................        
....................    if(PresionPreCamara>280 || PresionCamara>280){ 
0C92E:  MOVLB  3
0C930:  MOVF   x6A,W
0C932:  SUBLW  00
0C934:  BC    C940
0C936:  XORLW  FF
0C938:  BNZ   C950
0C93A:  MOVF   x69,W
0C93C:  SUBLW  18
0C93E:  BNC   C950
0C940:  MOVF   x68,W
0C942:  SUBLW  00
0C944:  BC    C954
0C946:  XORLW  FF
0C948:  BNZ   C950
0C94A:  MOVF   x67,W
0C94C:  SUBLW  18
0C94E:  BC    C954
....................       AlarmaPresion=ON; 
0C950:  MOVLB  0
0C952:  BSF    xA4.2
....................    } 
....................     
....................    if(TiempoCiclo>1800 && !Fugas){//ANALIZAR BIEN ESTA ALARMA 
0C954:  MOVLB  0
0C956:  MOVF   xA9,W
0C958:  SUBLW  06
0C95A:  BC    C992
0C95C:  XORLW  FF
0C95E:  BNZ   C966
0C960:  MOVF   xA8,W
0C962:  SUBLW  08
0C964:  BC    C992
0C966:  BTFSC  xA4.5
0C968:  BRA    C992
....................       if(TiempoCiclo>3600){ 
0C96A:  MOVF   xA9,W
0C96C:  SUBLW  0D
0C96E:  BC    C97C
0C970:  XORLW  FF
0C972:  BNZ   C97A
0C974:  MOVF   xA8,W
0C976:  SUBLW  10
0C978:  BC    C97C
....................          AlarmaTiempoProlongado=ON; 
0C97A:  BSF    x9F.0
....................       } 
....................       if(PresionPrecamara<10){ 
0C97C:  MOVLB  3
0C97E:  MOVF   x6A,F
0C980:  BNZ   C98E
0C982:  MOVF   x69,W
0C984:  SUBLW  09
0C986:  BNC   C98E
....................          AlarmaTiempoProlongado=ON; 
0C988:  MOVLB  0
0C98A:  BSF    x9F.0
0C98C:  MOVLB  3
....................       } 
....................    }else{ 
0C98E:  BRA    C994
0C990:  MOVLB  0
....................       AlarmaTiempoProlongado=OFF; 
0C992:  BCF    x9F.0
....................    } 
....................     
....................    if(Temperatura>Setpoint+4.0 && !Fugas){ 
0C994:  MOVLB  7
0C996:  CLRF   xCC
0C998:  MOVFF  355,7CB
0C99C:  MOVLB  0
0C99E:  CALL   1F6A
0C9A2:  BCF    FD8.1
0C9A4:  MOVFF  03,7CE
0C9A8:  MOVFF  02,7CD
0C9AC:  MOVFF  01,7CC
0C9B0:  MOVFF  00,7CB
0C9B4:  MOVLB  7
0C9B6:  CLRF   xD2
0C9B8:  CLRF   xD1
0C9BA:  CLRF   xD0
0C9BC:  MOVLW  81
0C9BE:  MOVWF  xCF
0C9C0:  MOVLB  0
0C9C2:  CALL   2384
0C9C6:  MOVFF  03,7C2
0C9CA:  MOVFF  02,7C1
0C9CE:  MOVFF  01,7C0
0C9D2:  MOVFF  00,7BF
0C9D6:  MOVFF  31B,7C6
0C9DA:  MOVFF  31A,7C5
0C9DE:  MOVFF  319,7C4
0C9E2:  MOVFF  318,7C3
0C9E6:  CALL   25FC
0C9EA:  BNC   C9F2
0C9EC:  BTFSC  xA4.5
0C9EE:  BRA    C9F2
....................       AlarmaSobreTemperatura=ON; 
0C9F0:  BSF    x9F.1
....................    } 
....................     
....................    if(!TERM){ 
0C9F2:  BSF    F93.4
0C9F4:  BTFSC  F81.4
0C9F6:  BRA    CA18
....................       delay_ms(1000); 
0C9F8:  MOVLW  04
0C9FA:  MOVLB  7
0C9FC:  MOVWF  xB9
0C9FE:  MOVLW  FA
0CA00:  MOVWF  xC9
0CA02:  MOVLB  0
0CA04:  CALL   1FA0
0CA08:  MOVLB  7
0CA0A:  DECFSZ xB9,F
0CA0C:  BRA    C9FE
....................       if(!TERM){ 
0CA0E:  BSF    F93.4
0CA10:  BTFSC  F81.4
0CA12:  BRA    CA1A
....................          AlarmaTermostato=ON; 
0CA14:  MOVLB  0
0CA16:  BSF    x9F.3
0CA18:  MOVLB  7
....................       } 
....................    } 
....................     
....................    if(!DOOR){ 
0CA1A:  BSF    F93.7
0CA1C:  BTFSS  F81.7
0CA1E:  BRA    CA40
....................       Paso_off; 
0CA20:  BSF    F8B.0
0CA22:  BCF    F94.0
....................       if(!Secando && !Finalizo && !Desfogando && !AlarmaEmergencia){ 
0CA24:  MOVLB  0
0CA26:  BTFSC  xA1.6
0CA28:  BRA    CA38
0CA2A:  BTFSC  xA4.1
0CA2C:  BRA    CA38
0CA2E:  BTFSC  xA2.0
0CA30:  BRA    CA38
0CA32:  BTFSC  x9F.5
0CA34:  BRA    CA38
....................          AlarmaPuerta=ON; 
0CA36:  BSF    x9F.4
....................       } 
....................       detieneBloqueo(); 
0CA38:  CALL   4DF8
....................    }else{ 
0CA3C:  BRA    CA54
0CA3E:  MOVLB  7
....................       AlarmaPuerta=OFF; 
0CA40:  MOVLB  0
0CA42:  BCF    x9F.4
....................       if(!Finalizo && !Secando && !AlarmaEmergencia){ 
0CA44:  BTFSC  xA4.1
0CA46:  BRA    CA54
0CA48:  BTFSC  xA1.6
0CA4A:  BRA    CA54
0CA4C:  BTFSC  x9F.5
0CA4E:  BRA    CA54
....................          bloqueaPuerta(); 
0CA50:  CALL   5C60
....................       } 
....................    } 
....................  
....................    if(!STOP){ 
0CA54:  BSF    F93.5
0CA56:  BTFSS  F81.5
0CA58:  BRA    CA5C
....................       AlarmaEmergencia=ON; 
0CA5A:  BSF    x9F.5
....................    } 
....................     
....................    if(AlarmaPuerta || AlarmaTermostato || AlarmaSobreTemperatura || AlarmaTiempoProlongado || AlarmaEmergencia || AlarmaPresion || AlarmaBloqueo || AlarmaApertura || AlarmaLlenado){ 
0CA5C:  BTFSC  x9F.4
0CA5E:  BRA    CA80
0CA60:  BTFSC  x9F.3
0CA62:  BRA    CA80
0CA64:  BTFSC  x9F.1
0CA66:  BRA    CA80
0CA68:  BTFSC  x9F.0
0CA6A:  BRA    CA80
0CA6C:  BTFSC  x9F.5
0CA6E:  BRA    CA80
0CA70:  BTFSC  xA4.2
0CA72:  BRA    CA80
0CA74:  BTFSC  xA0.7
0CA76:  BRA    CA80
0CA78:  BTFSC  xA0.5
0CA7A:  BRA    CA80
0CA7C:  BTFSS  x9F.2
0CA7E:  BRA    CF32
....................       ActivaAlarma(1); 
0CA80:  MOVLW  01
0CA82:  MOVLB  7
0CA84:  MOVWF  xB9
0CA86:  MOVLB  0
0CA88:  CALL   54A0
....................       if(AlarmaEmergencia){ 
0CA8C:  BTFSS  x9F.5
0CA8E:  BRA    CB20
....................          codigoAlarma=1; 
0CA90:  MOVLW  01
0CA92:  MOVLB  3
0CA94:  MOVWF  x39
....................          printf("Funcionamiento.t4f.txt=\" Parada de Emergencia\""); 
0CA96:  MOVLW  28
0CA98:  MOVWF  FF6
0CA9A:  MOVLW  16
0CA9C:  MOVWF  FF7
0CA9E:  MOVLW  00
0CAA0:  MOVWF  FF8
0CAA2:  MOVLB  0
0CAA4:  CALL   3E66
....................          SendDataDisplay(); 
0CAA8:  CALL   3E98
....................          printf("Funcionamiento.t5f.txt=\" Cancelado\""); 
0CAAC:  MOVLW  58
0CAAE:  MOVWF  FF6
0CAB0:  MOVLW  16
0CAB2:  MOVWF  FF7
0CAB4:  MOVLW  00
0CAB6:  MOVWF  FF8
0CAB8:  CALL   3E66
....................          SendDataDisplay(); 
0CABC:  CALL   3E98
....................          Desfogue_on; 
0CAC0:  BCF    F8B.1
0CAC2:  BCF    F94.1
....................          Paso_off; 
0CAC4:  BSF    F8B.0
0CAC6:  BCF    F94.0
....................          //Agua_off; 
....................          SSR_off; 
0CAC8:  BCF    F8D.1
0CACA:  BCF    F96.1
....................          SSR2_off; 
0CACC:  BCF    F8D.2
0CACE:  BCF    F96.2
....................          detieneBloqueo(); 
0CAD0:  CALL   4DF8
....................          detienePuerta(); 
0CAD4:  CALL   4DB6
....................          Esterilizando=OFF; 
0CAD8:  BCF    xA1.5
....................          Desfogando=OFF; 
0CADA:  BCF    xA2.0
....................          DesfogueSuave=OFF; 
0CADC:  BCF    xA2.1
....................          IniciaCiclo=OFF; 
0CADE:  BCF    xA1.4
....................          Controlando=0; 
0CAE0:  MOVLB  3
0CAE2:  CLRF   x47
....................          if(codigoAnt!=codigoAlarma){ 
0CAE4:  MOVF   x39,W
0CAE6:  SUBWF  x7C,W
0CAE8:  BZ    CAFA
....................             codigoAnt=codigoAlarma; 
0CAEA:  MOVFF  339,37C
....................             GuardaDatoCiclo(); 
0CAEE:  MOVLB  0
0CAF0:  CALL   6FF0
....................             incrementaCiclos(); 
0CAF4:  CALL   7394
0CAF8:  MOVLB  3
....................          } 
....................          if(!flagImprimir){ 
0CAFA:  BTFSC  x44.2
0CAFC:  BRA    CB1C
....................             Imprime=20; 
0CAFE:  MOVLW  14
0CB00:  MOVWF  x92
....................             Envio_Esclavos(); 
0CB02:  MOVLB  0
0CB04:  CALL   5178
....................             delay_ms(100); 
0CB08:  MOVLW  64
0CB0A:  MOVLB  7
0CB0C:  MOVWF  xC9
0CB0E:  MOVLB  0
0CB10:  CALL   1FA0
....................             Imprime=10; 
0CB14:  MOVLW  0A
0CB16:  MOVLB  3
0CB18:  MOVWF  x92
....................             flagImprimir=1; 
0CB1A:  BSF    x44.2
....................          } 
....................       }else if(AlarmaLlenado){ 
0CB1C:  BRA    CF2E
0CB1E:  MOVLB  0
0CB20:  BTFSS  x9F.2
0CB22:  BRA    CB90
....................             printf("Funcionamiento.t4f.txt=\" Tiempo Llenado\""); 
0CB24:  MOVLW  7C
0CB26:  MOVWF  FF6
0CB28:  MOVLW  16
0CB2A:  MOVWF  FF7
0CB2C:  MOVLW  00
0CB2E:  MOVWF  FF8
0CB30:  CALL   3E66
....................             SendDataDisplay(); 
0CB34:  CALL   3E98
....................             printf("Funcionamiento.t5f.txt=\" Cancelado\""); 
0CB38:  MOVLW  A6
0CB3A:  MOVWF  FF6
0CB3C:  MOVLW  16
0CB3E:  MOVWF  FF7
0CB40:  MOVLW  00
0CB42:  MOVWF  FF8
0CB44:  CALL   3E66
....................             SendDataDisplay(); 
0CB48:  CALL   3E98
....................             Desfogue_off; 
0CB4C:  BSF    F8B.1
0CB4E:  BCF    F94.1
....................             Paso_off; 
0CB50:  BSF    F8B.0
0CB52:  BCF    F94.0
....................             Agua_off; 
0CB54:  BSF    F8B.2
0CB56:  BCF    F94.2
....................             SSR_off; 
0CB58:  BCF    F8D.1
0CB5A:  BCF    F96.1
....................             SSR2_off; 
0CB5C:  BCF    F8D.2
0CB5E:  BCF    F96.2
....................             IniciaLlenado=OFF; 
0CB60:  BCF    xA1.2
....................             IniciaCiclo=OFF; 
0CB62:  BCF    xA1.4
....................             Esterilizando=OFF; 
0CB64:  BCF    xA1.5
....................             Controlando=0; 
0CB66:  MOVLB  3
0CB68:  CLRF   x47
....................             if(!flagImprimir){ 
0CB6A:  BTFSC  x44.2
0CB6C:  BRA    CB8C
....................                Imprime=21; 
0CB6E:  MOVLW  15
0CB70:  MOVWF  x92
....................                Envio_Esclavos(); 
0CB72:  MOVLB  0
0CB74:  CALL   5178
....................                delay_ms(100); 
0CB78:  MOVLW  64
0CB7A:  MOVLB  7
0CB7C:  MOVWF  xC9
0CB7E:  MOVLB  0
0CB80:  CALL   1FA0
....................                Imprime=10; 
0CB84:  MOVLW  0A
0CB86:  MOVLB  3
0CB88:  MOVWF  x92
....................                flagImprimir=1; 
0CB8A:  BSF    x44.2
....................             } 
....................       }else if(AlarmaTermostato){ 
0CB8C:  BRA    CF2E
0CB8E:  MOVLB  0
0CB90:  BTFSS  x9F.3
0CB92:  BRA    CC1E
....................          codigoAlarma=3; 
0CB94:  MOVLW  03
0CB96:  MOVLB  3
0CB98:  MOVWF  x39
....................          tiempo_esterilizacion=0;tiempo_secado=0;          
0CB9A:  CLRF   x58
0CB9C:  CLRF   x59
....................          printf("Funcionamiento.t4f.txt=\" Termostato\""); 
0CB9E:  MOVLW  CA
0CBA0:  MOVWF  FF6
0CBA2:  MOVLW  16
0CBA4:  MOVWF  FF7
0CBA6:  MOVLW  00
0CBA8:  MOVWF  FF8
0CBAA:  MOVLB  0
0CBAC:  CALL   3E66
....................          SendDataDisplay(); 
0CBB0:  CALL   3E98
....................          printf("Funcionamiento.t5f.txt=\" Cancelado\""); 
0CBB4:  MOVLW  F0
0CBB6:  MOVWF  FF6
0CBB8:  MOVLW  16
0CBBA:  MOVWF  FF7
0CBBC:  MOVLW  00
0CBBE:  MOVWF  FF8
0CBC0:  CALL   3E66
....................          SendDataDisplay(); 
0CBC4:  CALL   3E98
....................          Desfogue_on; 
0CBC8:  BCF    F8B.1
0CBCA:  BCF    F94.1
....................          Paso_off;          
0CBCC:  BSF    F8B.0
0CBCE:  BCF    F94.0
....................          //Agua_off; 
....................          SSR_off; 
0CBD0:  BCF    F8D.1
0CBD2:  BCF    F96.1
....................          SSR2_off; 
0CBD4:  BCF    F8D.2
0CBD6:  BCF    F96.2
....................          Esterilizando=OFF; 
0CBD8:  BCF    xA1.5
....................          Desfogando=OFF; 
0CBDA:  BCF    xA2.0
....................          IniciaCiclo=OFF; 
0CBDC:  BCF    xA1.4
....................          Controlando=0; 
0CBDE:  MOVLB  3
0CBE0:  CLRF   x47
....................          if(codigoAnt!=codigoAlarma){ 
0CBE2:  MOVF   x39,W
0CBE4:  SUBWF  x7C,W
0CBE6:  BZ    CBF8
....................             codigoAnt=codigoAlarma; 
0CBE8:  MOVFF  339,37C
....................             GuardaDatoCiclo(); 
0CBEC:  MOVLB  0
0CBEE:  CALL   6FF0
....................             incrementaCiclos(); 
0CBF2:  CALL   7394
0CBF6:  MOVLB  3
....................          } 
....................          if(!flagImprimir){ 
0CBF8:  BTFSC  x44.2
0CBFA:  BRA    CC1A
....................             Imprime=22; 
0CBFC:  MOVLW  16
0CBFE:  MOVWF  x92
....................             Envio_Esclavos(); 
0CC00:  MOVLB  0
0CC02:  CALL   5178
....................             delay_ms(100); 
0CC06:  MOVLW  64
0CC08:  MOVLB  7
0CC0A:  MOVWF  xC9
0CC0C:  MOVLB  0
0CC0E:  CALL   1FA0
....................             Imprime=10; 
0CC12:  MOVLW  0A
0CC14:  MOVLB  3
0CC16:  MOVWF  x92
....................             flagImprimir=1; 
0CC18:  BSF    x44.2
....................          } 
....................       }else if(AlarmaSobreTemperatura){                   
0CC1A:  BRA    CF2E
0CC1C:  MOVLB  0
0CC1E:  BTFSS  x9F.1
0CC20:  BRA    CCA6
....................          codigoAlarma=4; 
0CC22:  MOVLW  04
0CC24:  MOVLB  3
0CC26:  MOVWF  x39
....................          tiempo_esterilizacion=0;tiempo_secado=0;          
0CC28:  CLRF   x58
0CC2A:  CLRF   x59
....................          printf("Funcionamiento.t4f.txt=\" Sobretemperatura\""); 
0CC2C:  MOVLW  14
0CC2E:  MOVWF  FF6
0CC30:  MOVLW  17
0CC32:  MOVWF  FF7
0CC34:  MOVLW  00
0CC36:  MOVWF  FF8
0CC38:  MOVLB  0
0CC3A:  CALL   3E66
....................          SendDataDisplay(); 
0CC3E:  CALL   3E98
....................          printf("Funcionamiento.t5f.txt=\" Cancelado\""); 
0CC42:  MOVLW  40
0CC44:  MOVWF  FF6
0CC46:  MOVLW  17
0CC48:  MOVWF  FF7
0CC4A:  MOVLW  00
0CC4C:  MOVWF  FF8
0CC4E:  CALL   3E66
....................          SendDataDisplay();   
0CC52:  CALL   3E98
....................          Desfogue_on; 
0CC56:  BCF    F8B.1
0CC58:  BCF    F94.1
....................          Paso_off; 
0CC5A:  BSF    F8B.0
0CC5C:  BCF    F94.0
....................          //Agua_off; 
....................          SSR_off; 
0CC5E:  BCF    F8D.1
0CC60:  BCF    F96.1
....................          SSR2_off; 
0CC62:  BCF    F8D.2
0CC64:  BCF    F96.2
....................          Controlando=0; 
0CC66:  MOVLB  3
0CC68:  CLRF   x47
....................          if(codigoAnt!=codigoAlarma){ 
0CC6A:  MOVF   x39,W
0CC6C:  SUBWF  x7C,W
0CC6E:  BZ    CC80
....................             codigoAnt=codigoAlarma; 
0CC70:  MOVFF  339,37C
....................             GuardaDatoCiclo(); 
0CC74:  MOVLB  0
0CC76:  CALL   6FF0
....................             incrementaCiclos(); 
0CC7A:  CALL   7394
0CC7E:  MOVLB  3
....................          } 
....................          if(!flagImprimir){ 
0CC80:  BTFSC  x44.2
0CC82:  BRA    CCA2
....................             Imprime=23; 
0CC84:  MOVLW  17
0CC86:  MOVWF  x92
....................             Envio_Esclavos(); 
0CC88:  MOVLB  0
0CC8A:  CALL   5178
....................             delay_ms(100); 
0CC8E:  MOVLW  64
0CC90:  MOVLB  7
0CC92:  MOVWF  xC9
0CC94:  MOVLB  0
0CC96:  CALL   1FA0
....................             Imprime=10; 
0CC9A:  MOVLW  0A
0CC9C:  MOVLB  3
0CC9E:  MOVWF  x92
....................             flagImprimir=1; 
0CCA0:  BSF    x44.2
....................          } 
....................       }else if(AlarmaTiempoProlongado){ 
0CCA2:  BRA    CF2E
0CCA4:  MOVLB  0
0CCA6:  BTFSS  x9F.0
0CCA8:  BRA    CD2A
....................          codigoAlarma=5; 
0CCAA:  MOVLW  05
0CCAC:  MOVLB  3
0CCAE:  MOVWF  x39
....................          printf("Funcionamiento.t4f.txt=\" Tiempo Prolongado\""); 
0CCB0:  MOVLW  64
0CCB2:  MOVWF  FF6
0CCB4:  MOVLW  17
0CCB6:  MOVWF  FF7
0CCB8:  MOVLW  00
0CCBA:  MOVWF  FF8
0CCBC:  MOVLB  0
0CCBE:  CALL   3E66
....................          SendDataDisplay(); 
0CCC2:  CALL   3E98
....................          printf("Funcionamiento.t5f.txt=\" Cancelado\""); 
0CCC6:  MOVLW  90
0CCC8:  MOVWF  FF6
0CCCA:  MOVLW  17
0CCCC:  MOVWF  FF7
0CCCE:  MOVLW  00
0CCD0:  MOVWF  FF8
0CCD2:  CALL   3E66
....................          SendDataDisplay(); 
0CCD6:  CALL   3E98
....................          Desfogue_on; 
0CCDA:  BCF    F8B.1
0CCDC:  BCF    F94.1
....................          Paso_off; 
0CCDE:  BSF    F8B.0
0CCE0:  BCF    F94.0
....................          //Agua_off; 
....................          SSR_off; 
0CCE2:  BCF    F8D.1
0CCE4:  BCF    F96.1
....................          SSR2_off; 
0CCE6:  BCF    F8D.2
0CCE8:  BCF    F96.2
....................          Controlando=0; 
0CCEA:  MOVLB  3
0CCEC:  CLRF   x47
....................          if(codigoAnt!=codigoAlarma){ 
0CCEE:  MOVF   x39,W
0CCF0:  SUBWF  x7C,W
0CCF2:  BZ    CD04
....................             codigoAnt=codigoAlarma; 
0CCF4:  MOVFF  339,37C
....................             GuardaDatoCiclo(); 
0CCF8:  MOVLB  0
0CCFA:  CALL   6FF0
....................             incrementaCiclos(); 
0CCFE:  CALL   7394
0CD02:  MOVLB  3
....................          } 
....................          if(!flagImprimir){ 
0CD04:  BTFSC  x44.2
0CD06:  BRA    CD26
....................             Imprime=24; 
0CD08:  MOVLW  18
0CD0A:  MOVWF  x92
....................             Envio_Esclavos(); 
0CD0C:  MOVLB  0
0CD0E:  CALL   5178
....................             delay_ms(100); 
0CD12:  MOVLW  64
0CD14:  MOVLB  7
0CD16:  MOVWF  xC9
0CD18:  MOVLB  0
0CD1A:  CALL   1FA0
....................             Imprime=10; 
0CD1E:  MOVLW  0A
0CD20:  MOVLB  3
0CD22:  MOVWF  x92
....................             flagImprimir=1; 
0CD24:  BSF    x44.2
....................          } 
....................       }else if(AlarmaPresion){ // Alarma de Error de SobrePresion: Error por exceso de Presion. 
0CD26:  BRA    CF2E
0CD28:  MOVLB  0
0CD2A:  BTFSS  xA4.2
0CD2C:  BRA    CDC8
....................          codigoAlarma=6; 
0CD2E:  MOVLW  06
0CD30:  MOVLB  3
0CD32:  MOVWF  x39
....................          printf("Funcionamiento.t4f.txt=\" SobrePresion\""); 
0CD34:  MOVLW  B4
0CD36:  MOVWF  FF6
0CD38:  MOVLW  17
0CD3A:  MOVWF  FF7
0CD3C:  MOVLW  00
0CD3E:  MOVWF  FF8
0CD40:  MOVLB  0
0CD42:  CALL   3E66
....................          SendDataDisplay(); 
0CD46:  CALL   3E98
....................          printf("Funcionamiento.t5f.txt=\" Cancelado\""); 
0CD4A:  MOVLW  DC
0CD4C:  MOVWF  FF6
0CD4E:  MOVLW  17
0CD50:  MOVWF  FF7
0CD52:  MOVLW  00
0CD54:  MOVWF  FF8
0CD56:  CALL   3E66
....................          SendDataDisplay(); 
0CD5A:  CALL   3E98
....................          Desfogue_on; 
0CD5E:  BCF    F8B.1
0CD60:  BCF    F94.1
....................          //Agua_off; 
....................          SSR_off; 
0CD62:  BCF    F8D.1
0CD64:  BCF    F96.1
....................          SSR2_off; 
0CD66:  BCF    F8D.2
0CD68:  BCF    F96.2
....................          if(PresionCamara>(Atmosferica+4) && DOOR) 
0CD6A:  MOVLW  04
0CD6C:  MOVLB  3
0CD6E:  ADDWF  x3A,W
0CD70:  MOVF   x68,F
0CD72:  BNZ   CD7A
0CD74:  SUBWF  x67,W
0CD76:  BZ    CD86
0CD78:  BNC   CD86
0CD7A:  BSF    F93.7
0CD7C:  BTFSC  F81.7
0CD7E:  BRA    CD86
....................             Paso_on; 
0CD80:  BCF    F8B.0
0CD82:  BCF    F94.0
....................          else 
0CD84:  BRA    CD8A
....................             Paso_off; 
0CD86:  BSF    F8B.0
0CD88:  BCF    F94.0
....................          Controlando=0; 
0CD8A:  CLRF   x47
....................          if(codigoAnt!=codigoAlarma){ 
0CD8C:  MOVF   x39,W
0CD8E:  SUBWF  x7C,W
0CD90:  BZ    CDA2
....................             codigoAnt=codigoAlarma; 
0CD92:  MOVFF  339,37C
....................             GuardaDatoCiclo(); 
0CD96:  MOVLB  0
0CD98:  CALL   6FF0
....................             incrementaCiclos(); 
0CD9C:  CALL   7394
0CDA0:  MOVLB  3
....................          } 
....................          if(!flagImprimir){ 
0CDA2:  BTFSC  x44.2
0CDA4:  BRA    CDC4
....................             Imprime=25; 
0CDA6:  MOVLW  19
0CDA8:  MOVWF  x92
....................             Envio_Esclavos(); 
0CDAA:  MOVLB  0
0CDAC:  CALL   5178
....................             delay_ms(100); 
0CDB0:  MOVLW  64
0CDB2:  MOVLB  7
0CDB4:  MOVWF  xC9
0CDB6:  MOVLB  0
0CDB8:  CALL   1FA0
....................             Imprime=10; 
0CDBC:  MOVLW  0A
0CDBE:  MOVLB  3
0CDC0:  MOVWF  x92
....................             flagImprimir=1; 
0CDC2:  BSF    x44.2
....................          } 
....................       }else if(AlarmaBloqueo){ // Alarma de Error de Bloqueo 
0CDC4:  BRA    CF2E
0CDC6:  MOVLB  0
0CDC8:  BTFSS  xA0.7
0CDCA:  BRA    CE4C
....................          codigoAlarma=7; 
0CDCC:  MOVLW  07
0CDCE:  MOVLB  3
0CDD0:  MOVWF  x39
....................          printf("Funcionamiento.t4f.txt=\" Bloqueo Puerta\""); 
0CDD2:  MOVLW  00
0CDD4:  MOVWF  FF6
0CDD6:  MOVLW  18
0CDD8:  MOVWF  FF7
0CDDA:  MOVLW  00
0CDDC:  MOVWF  FF8
0CDDE:  MOVLB  0
0CDE0:  CALL   3E66
....................          SendDataDisplay(); 
0CDE4:  CALL   3E98
....................          printf("Funcionamiento.t5f.txt=\" Cancelado\""); 
0CDE8:  MOVLW  2A
0CDEA:  MOVWF  FF6
0CDEC:  MOVLW  18
0CDEE:  MOVWF  FF7
0CDF0:  MOVLW  00
0CDF2:  MOVWF  FF8
0CDF4:  CALL   3E66
....................          SendDataDisplay(); 
0CDF8:  CALL   3E98
....................          Desfogue_on; 
0CDFC:  BCF    F8B.1
0CDFE:  BCF    F94.1
....................          //Agua_off; 
....................          SSR_off; 
0CE00:  BCF    F8D.1
0CE02:  BCF    F96.1
....................          SSR2_off; 
0CE04:  BCF    F8D.2
0CE06:  BCF    F96.2
....................          Paso_off; 
0CE08:  BSF    F8B.0
0CE0A:  BCF    F94.0
....................          Controlando=0; 
0CE0C:  MOVLB  3
0CE0E:  CLRF   x47
....................          if(codigoAnt!=codigoAlarma){ 
0CE10:  MOVF   x39,W
0CE12:  SUBWF  x7C,W
0CE14:  BZ    CE26
....................             codigoAnt=codigoAlarma; 
0CE16:  MOVFF  339,37C
....................             GuardaDatoCiclo(); 
0CE1A:  MOVLB  0
0CE1C:  CALL   6FF0
....................             incrementaCiclos(); 
0CE20:  CALL   7394
0CE24:  MOVLB  3
....................          } 
....................          if(!flagImprimir){ 
0CE26:  BTFSC  x44.2
0CE28:  BRA    CE48
....................             Imprime=26; 
0CE2A:  MOVLW  1A
0CE2C:  MOVWF  x92
....................             Envio_Esclavos(); 
0CE2E:  MOVLB  0
0CE30:  CALL   5178
....................             delay_ms(100); 
0CE34:  MOVLW  64
0CE36:  MOVLB  7
0CE38:  MOVWF  xC9
0CE3A:  MOVLB  0
0CE3C:  CALL   1FA0
....................             Imprime=10; 
0CE40:  MOVLW  0A
0CE42:  MOVLB  3
0CE44:  MOVWF  x92
....................             flagImprimir=1; 
0CE46:  BSF    x44.2
....................          } 
....................       }else if(AlarmaApertura){ // Alarma de Error de Apertura o cierre de puerta 
0CE48:  BRA    CF2E
0CE4A:  MOVLB  0
0CE4C:  BTFSS  xA0.5
0CE4E:  BRA    CED0
....................          codigoAlarma=8; 
0CE50:  MOVLW  08
0CE52:  MOVLB  3
0CE54:  MOVWF  x39
....................          printf("Funcionamiento.t4f.txt=\" Sistema Puerta\""); 
0CE56:  MOVLW  4E
0CE58:  MOVWF  FF6
0CE5A:  MOVLW  18
0CE5C:  MOVWF  FF7
0CE5E:  MOVLW  00
0CE60:  MOVWF  FF8
0CE62:  MOVLB  0
0CE64:  CALL   3E66
....................          SendDataDisplay(); 
0CE68:  CALL   3E98
....................          printf("Funcionamiento.t5f.txt=\" Cancelado\""); 
0CE6C:  MOVLW  78
0CE6E:  MOVWF  FF6
0CE70:  MOVLW  18
0CE72:  MOVWF  FF7
0CE74:  MOVLW  00
0CE76:  MOVWF  FF8
0CE78:  CALL   3E66
....................          SendDataDisplay(); 
0CE7C:  CALL   3E98
....................          Desfogue_on; 
0CE80:  BCF    F8B.1
0CE82:  BCF    F94.1
....................          //Agua_off; 
....................          SSR_off; 
0CE84:  BCF    F8D.1
0CE86:  BCF    F96.1
....................          SSR2_off; 
0CE88:  BCF    F8D.2
0CE8A:  BCF    F96.2
....................          Paso_off; 
0CE8C:  BSF    F8B.0
0CE8E:  BCF    F94.0
....................          Controlando=0; 
0CE90:  MOVLB  3
0CE92:  CLRF   x47
....................          if(codigoAnt!=codigoAlarma){ 
0CE94:  MOVF   x39,W
0CE96:  SUBWF  x7C,W
0CE98:  BZ    CEAA
....................             codigoAnt=codigoAlarma; 
0CE9A:  MOVFF  339,37C
....................             GuardaDatoCiclo(); 
0CE9E:  MOVLB  0
0CEA0:  CALL   6FF0
....................             incrementaCiclos(); 
0CEA4:  CALL   7394
0CEA8:  MOVLB  3
....................          } 
....................          if(!flagImprimir){ 
0CEAA:  BTFSC  x44.2
0CEAC:  BRA    CECC
....................             Imprime=27; 
0CEAE:  MOVLW  1B
0CEB0:  MOVWF  x92
....................             Envio_Esclavos(); 
0CEB2:  MOVLB  0
0CEB4:  CALL   5178
....................             delay_ms(100); 
0CEB8:  MOVLW  64
0CEBA:  MOVLB  7
0CEBC:  MOVWF  xC9
0CEBE:  MOVLB  0
0CEC0:  CALL   1FA0
....................             Imprime=10; 
0CEC4:  MOVLW  0A
0CEC6:  MOVLB  3
0CEC8:  MOVWF  x92
....................             flagImprimir=1; 
0CECA:  BSF    x44.2
....................          } 
....................       }else if(AlarmaPuerta){ 
0CECC:  BRA    CF2E
0CECE:  MOVLB  0
0CED0:  BTFSS  x9F.4
0CED2:  BRA    CF2C
....................          codigoAlarma=2; 
0CED4:  MOVLW  02
0CED6:  MOVLB  3
0CED8:  MOVWF  x39
....................          printf("Funcionamiento.t4f.txt=\" Puerta Abierta\""); 
0CEDA:  MOVLW  9C
0CEDC:  MOVWF  FF6
0CEDE:  MOVLW  18
0CEE0:  MOVWF  FF7
0CEE2:  MOVLW  00
0CEE4:  MOVWF  FF8
0CEE6:  MOVLB  0
0CEE8:  CALL   3E66
....................          SendDataDisplay(); 
0CEEC:  CALL   3E98
....................          printf("Funcionamiento.t5f.txt=\" Pausado\""); 
0CEF0:  MOVLW  C6
0CEF2:  MOVWF  FF6
0CEF4:  MOVLW  18
0CEF6:  MOVWF  FF7
0CEF8:  MOVLW  00
0CEFA:  MOVWF  FF8
0CEFC:  CALL   3E66
....................          SendDataDisplay(); 
0CF00:  CALL   3E98
....................          Desfogue_off; 
0CF04:  BSF    F8B.1
0CF06:  BCF    F94.1
....................          Paso_off; 
0CF08:  BSF    F8B.0
0CF0A:  BCF    F94.0
....................          //Agua_off; 
....................          SSR_off; 
0CF0C:  BCF    F8D.1
0CF0E:  BCF    F96.1
....................          SSR2_off; 
0CF10:  BCF    F8D.2
0CF12:  BCF    F96.2
....................          IniciaLlenado=OFF; 
0CF14:  BCF    xA1.2
....................          IniciaCiclo=OFF; 
0CF16:  BCF    xA1.4
....................          Controlando=0; 
0CF18:  MOVLB  3
0CF1A:  CLRF   x47
....................          if(codigoAnt!=codigoAlarma){ 
0CF1C:  MOVF   x39,W
0CF1E:  SUBWF  x7C,W
0CF20:  BZ    CF2E
....................             codigoAnt=codigoAlarma; 
0CF22:  MOVFF  339,37C
....................             GuardaDatoCiclo(); 
0CF26:  MOVLB  0
0CF28:  CALL   6FF0
0CF2C:  MOVLB  3
....................          } 
....................       } 
....................    }else{ 
0CF2E:  BRA    D502
0CF30:  MOVLB  0
....................       if(!Fugas){//Si selecciono un ciclo diferente al test de fugas 
0CF32:  BTFSC  xA4.5
0CF34:  BRA    D500
....................          Buzzer_off; 
0CF36:  BCF    F8C.7
0CF38:  BCF    F95.7
....................          IniciaCiclo=ON; 
0CF3A:  BSF    xA1.4
....................        
....................       if(flagImprime){ 
0CF3C:  MOVLB  3
0CF3E:  BTFSS  x44.1
0CF40:  BRA    CF60
....................          Imprime=5; 
0CF42:  MOVLW  05
0CF44:  MOVWF  x92
....................          Envio_Esclavos(); 
0CF46:  MOVLB  0
0CF48:  CALL   5178
....................          delay_ms(100); 
0CF4C:  MOVLW  64
0CF4E:  MOVLB  7
0CF50:  MOVWF  xC9
0CF52:  MOVLB  0
0CF54:  CALL   1FA0
....................          Imprime=10; 
0CF58:  MOVLW  0A
0CF5A:  MOVLB  3
0CF5C:  MOVWF  x92
....................          flagImprime=0; 
0CF5E:  BCF    x44.1
....................       } 
....................         
....................       if(!CalderinLleno){ 
0CF60:  MOVLB  0
0CF62:  BTFSC  xA1.3
0CF64:  BRA    CFAE
....................          printf("Funcionamiento.t4f.txt=\" Ninguna\""); 
0CF66:  MOVLW  E8
0CF68:  MOVWF  FF6
0CF6A:  MOVLW  18
0CF6C:  MOVWF  FF7
0CF6E:  MOVLW  00
0CF70:  MOVWF  FF8
0CF72:  CALL   3E66
....................          SendDataDisplay(); 
0CF76:  CALL   3E98
....................          printf("Funcionamiento.t5f.txt=\" Llenado Generador\""); 
0CF7A:  MOVLW  0A
0CF7C:  MOVWF  FF6
0CF7E:  MOVLW  19
0CF80:  MOVWF  FF7
0CF82:  MOVLW  00
0CF84:  MOVWF  FF8
0CF86:  CALL   3E66
....................          SendDataDisplay(); 
0CF8A:  CALL   3E98
....................          Control=0; 
0CF8E:  MOVLB  3
0CF90:  CLRF   x45
....................          IniciaLlenado=ON; 
0CF92:  MOVLB  0
0CF94:  BSF    xA1.2
....................          Controlando=0; 
0CF96:  MOVLB  3
0CF98:  CLRF   x47
....................          Desfogue_off; 
0CF9A:  BSF    F8B.1
0CF9C:  BCF    F94.1
....................          Paso_off; 
0CF9E:  BSF    F8B.0
0CFA0:  BCF    F94.0
....................          SSR_off; 
0CFA2:  BCF    F8D.1
0CFA4:  BCF    F96.1
....................          SSR2_off; 
0CFA6:  BCF    F8D.2
0CFA8:  BCF    F96.2
....................       }else if(!Precalentamiento){ 
0CFAA:  BRA    D502
0CFAC:  MOVLB  0
0CFAE:  BTFSC  xA5.0
0CFB0:  BRA    D008
....................          printf("Funcionamiento.t4f.txt=\" Ninguna\""); 
0CFB2:  MOVLW  36
0CFB4:  MOVWF  FF6
0CFB6:  MOVLW  19
0CFB8:  MOVWF  FF7
0CFBA:  MOVLW  00
0CFBC:  MOVWF  FF8
0CFBE:  CALL   3E66
....................          SendDataDisplay(); 
0CFC2:  CALL   3E98
....................          printf("Funcionamiento.t5f.txt=\" PreCalentando\""); 
0CFC6:  MOVLW  58
0CFC8:  MOVWF  FF6
0CFCA:  MOVLW  19
0CFCC:  MOVWF  FF7
0CFCE:  MOVLW  00
0CFD0:  MOVWF  FF8
0CFD2:  CALL   3E66
....................          SendDataDisplay(); 
0CFD6:  CALL   3E98
....................          ControlaPresion();  
0CFDA:  CALL   7420
....................          Control=0; 
0CFDE:  MOVLB  3
0CFE0:  CLRF   x45
....................          codigoAlarma=10; 
0CFE2:  MOVLW  0A
0CFE4:  MOVWF  x39
....................          if(codigoAnt!=codigoAlarma){ 
0CFE6:  MOVF   x39,W
0CFE8:  SUBWF  x7C,W
0CFEA:  BZ    CFF8
....................             codigoAnt=codigoAlarma; 
0CFEC:  MOVFF  339,37C
....................             GuardaDatoCiclo(); 
0CFF0:  MOVLB  0
0CFF2:  CALL   6FF0
0CFF6:  MOVLB  3
....................          } 
....................          Desfogue_off; 
0CFF8:  BSF    F8B.1
0CFFA:  BCF    F94.1
....................          Agua_off; 
0CFFC:  BSF    F8B.2
0CFFE:  BCF    F94.2
....................          Paso_off; 
0D000:  BSF    F8B.0
0D002:  BCF    F94.0
....................       }else{ 
0D004:  BRA    D502
0D006:  MOVLB  0
....................             if(!Esterilizando){ 
0D008:  BTFSC  xA1.5
0D00A:  BRA    D116
....................                if(Temperatura>=((float)Setpoint-0.3)){ 
0D00C:  MOVLB  7
0D00E:  CLRF   xCC
0D010:  MOVFF  355,7CB
0D014:  MOVLB  0
0D016:  CALL   1F6A
0D01A:  MOVFF  00,7B9
0D01E:  MOVFF  01,7BA
0D022:  MOVFF  02,7BB
0D026:  MOVFF  03,7BC
0D02A:  BSF    FD8.1
0D02C:  MOVFF  03,7CE
0D030:  MOVFF  02,7CD
0D034:  MOVFF  01,7CC
0D038:  MOVFF  00,7CB
0D03C:  MOVLW  9A
0D03E:  MOVLB  7
0D040:  MOVWF  xD2
0D042:  MOVLW  99
0D044:  MOVWF  xD1
0D046:  MOVLW  19
0D048:  MOVWF  xD0
0D04A:  MOVLW  7D
0D04C:  MOVWF  xCF
0D04E:  MOVLB  0
0D050:  CALL   2384
0D054:  MOVFF  03,7C2
0D058:  MOVFF  02,7C1
0D05C:  MOVFF  01,7C0
0D060:  MOVFF  00,7BF
0D064:  MOVFF  31B,7C6
0D068:  MOVFF  31A,7C5
0D06C:  MOVFF  319,7C4
0D070:  MOVFF  318,7C3
0D074:  CALL   25FC
0D078:  BC    D07C
0D07A:  BNZ   D07E
....................                   Esterilizando=ON; 
0D07C:  BSF    xA1.5
....................                } 
....................                codigoAlarma=12; 
0D07E:  MOVLW  0C
0D080:  MOVLB  3
0D082:  MOVWF  x39
....................                if(codigoAnt!=codigoAlarma){ 
0D084:  MOVF   x39,W
0D086:  SUBWF  x7C,W
0D088:  BZ    D096
....................                   codigoAnt=codigoAlarma; 
0D08A:  MOVFF  339,37C
....................                   GuardaDatoCiclo();                   
0D08E:  MOVLB  0
0D090:  CALL   6FF0
0D094:  MOVLB  3
....................                } 
....................                printf("Funcionamiento.t4f.txt=\" Ninguna\""); 
0D096:  MOVLW  80
0D098:  MOVWF  FF6
0D09A:  MOVLW  19
0D09C:  MOVWF  FF7
0D09E:  MOVLW  00
0D0A0:  MOVWF  FF8
0D0A2:  MOVLB  0
0D0A4:  CALL   3E66
....................                SendDataDisplay(); 
0D0A8:  CALL   3E98
....................                printf("Funcionamiento.t5f.txt=\" Calentando\""); 
0D0AC:  MOVLW  A2
0D0AE:  MOVWF  FF6
0D0B0:  MOVLW  19
0D0B2:  MOVWF  FF7
0D0B4:  MOVLW  00
0D0B6:  MOVWF  FF8
0D0B8:  CALL   3E66
....................                SendDataDisplay(); 
0D0BC:  CALL   3E98
....................                Control=1; 
0D0C0:  MOVLW  01
0D0C2:  MOVLB  3
0D0C4:  MOVWF  x45
....................                Controla(); 
0D0C6:  MOVLB  0
0D0C8:  CALL   750A
....................                Paso_on; 
0D0CC:  BCF    F8B.0
0D0CE:  BCF    F94.0
....................                if(Temperatura<=TTrampa){ 
0D0D0:  MOVLB  7
0D0D2:  CLRF   xCC
0D0D4:  MOVFF  CE,7CB
0D0D8:  MOVLB  0
0D0DA:  CALL   1F6A
0D0DE:  MOVFF  31B,7C2
0D0E2:  MOVFF  31A,7C1
0D0E6:  MOVFF  319,7C0
0D0EA:  MOVFF  318,7BF
0D0EE:  MOVFF  03,7C6
0D0F2:  MOVFF  02,7C5
0D0F6:  MOVFF  01,7C4
0D0FA:  MOVFF  00,7C3
0D0FE:  CALL   25FC
0D102:  BC    D106
0D104:  BNZ   D10C
....................                   Desfogue_on; 
0D106:  BCF    F8B.1
0D108:  BCF    F94.1
....................                }else{ 
0D10A:  BRA    D110
....................                   Desfogue_off; 
0D10C:  BSF    F8B.1
0D10E:  BCF    F94.1
....................                } 
....................                Agua_off; 
0D110:  BSF    F8B.2
0D112:  BCF    F94.2
....................             }else{ 
0D114:  BRA    D500
....................                TiempoCiclo=0; 
0D116:  CLRF   xA9
0D118:  CLRF   xA8
....................                if(mEst==0 && sEst==0){  
0D11A:  MOVF   xBF,F
0D11C:  BTFSS  FD8.2
0D11E:  BRA    D432
0D120:  MOVF   xBE,F
0D122:  BTFSS  FD8.2
0D124:  BRA    D432
....................                   if(desfoguelento){ 
0D126:  BTFSS  xA7.4
0D128:  BRA    D286
....................                      Controlando=0; 
0D12A:  MOVLB  3
0D12C:  CLRF   x47
....................                      if(PresionCamara<=20){ 
0D12E:  MOVF   x68,F
0D130:  BTFSS  FD8.2
0D132:  BRA    D222
0D134:  MOVF   x67,W
0D136:  SUBLW  14
0D138:  BTFSS  FD8.0
0D13A:  BRA    D222
....................                         Secando=OFF; 
0D13C:  MOVLB  0
0D13E:  BCF    xA1.6
....................                         DesfogueSuave=OFF; 
0D140:  BCF    xA2.1
....................                         if(!DOOR){ 
0D142:  BSF    F93.7
0D144:  BTFSS  F81.7
0D146:  BRA    D14E
....................                            Desfogue_off; 
0D148:  BSF    F8B.1
0D14A:  BCF    F94.1
....................                         }else{ 
0D14C:  BRA    D152
....................                            Desfogue_on; 
0D14E:  BCF    F8B.1
0D150:  BCF    F94.1
....................                         } 
....................                         Paso_off;                         
0D152:  BSF    F8B.0
0D154:  BCF    F94.0
....................                         Agua_off; 
0D156:  BSF    F8B.2
0D158:  BCF    F94.2
....................                         SSR2_off; 
0D15A:  BCF    F8D.2
0D15C:  BCF    F96.2
....................                         SSR_off; 
0D15E:  BCF    F8D.1
0D160:  BCF    F96.1
....................                         if(PresionCamara<=2){ 
0D162:  MOVLB  3
0D164:  MOVF   x68,F
0D166:  BNZ   D220
0D168:  MOVF   x67,W
0D16A:  SUBLW  02
0D16C:  BNC   D220
....................                            if(Temperatura<=Tapertura){ 
0D16E:  MOVLB  7
0D170:  CLRF   xCC
0D172:  MOVFF  2D7,7CB
0D176:  MOVLB  0
0D178:  CALL   1F6A
0D17C:  MOVFF  31B,7C2
0D180:  MOVFF  31A,7C1
0D184:  MOVFF  319,7C0
0D188:  MOVFF  318,7BF
0D18C:  MOVFF  03,7C6
0D190:  MOVFF  02,7C5
0D194:  MOVFF  01,7C4
0D198:  MOVFF  00,7C3
0D19C:  CALL   25FC
0D1A0:  BC    D1A4
0D1A2:  BNZ   D21E
....................                               ActivaAlarma(2); 
0D1A4:  MOVLW  02
0D1A6:  MOVLB  7
0D1A8:  MOVWF  xB9
0D1AA:  MOVLB  0
0D1AC:  CALL   54A0
....................                               printf("Funcionamiento.t4f.txt=\" Ninguna\""); 
0D1B0:  MOVLW  C8
0D1B2:  MOVWF  FF6
0D1B4:  MOVLW  19
0D1B6:  MOVWF  FF7
0D1B8:  MOVLW  00
0D1BA:  MOVWF  FF8
0D1BC:  CALL   3E66
....................                               SendDataDisplay(); 
0D1C0:  CALL   3E98
....................                               printf("Funcionamiento.t5f.txt=\" Finalizado\""); 
0D1C4:  MOVLW  EA
0D1C6:  MOVWF  FF6
0D1C8:  MOVLW  19
0D1CA:  MOVWF  FF7
0D1CC:  MOVLW  00
0D1CE:  MOVWF  FF8
0D1D0:  CALL   3E66
....................                               SendDataDisplay(); 
0D1D4:  CALL   3E98
....................                               Finalizo=ON; 
0D1D8:  BSF    xA4.1
....................                               codigoAlarma=14; 
0D1DA:  MOVLW  0E
0D1DC:  MOVLB  3
0D1DE:  MOVWF  x39
....................                                  if(codigoAnt!=codigoAlarma){ 
0D1E0:  MOVF   x39,W
0D1E2:  SUBWF  x7C,W
0D1E4:  BZ    D1F2
....................                                     codigoAnt=codigoAlarma; 
0D1E6:  MOVFF  339,37C
....................                                     GuardaDatoCiclo();                   
0D1EA:  MOVLB  0
0D1EC:  CALL   6FF0
0D1F0:  MOVLB  3
....................                                  }  
....................                                  if(!flagImprimir){ 
0D1F2:  BTFSC  x44.2
0D1F4:  BRA    D214
....................                                     Imprime=28; 
0D1F6:  MOVLW  1C
0D1F8:  MOVWF  x92
....................                                     Envio_Esclavos(); 
0D1FA:  MOVLB  0
0D1FC:  CALL   5178
....................                                     delay_ms(200); 
0D200:  MOVLW  C8
0D202:  MOVLB  7
0D204:  MOVWF  xC9
0D206:  MOVLB  0
0D208:  CALL   1FA0
....................                                     Imprime=10; 
0D20C:  MOVLW  0A
0D20E:  MOVLB  3
0D210:  MOVWF  x92
....................                                     flagImprimir=1; 
0D212:  BSF    x44.2
....................                                  } 
....................                               //if(!SWBL && SWBLO){ 
....................                                 // abrePuerta(); 
....................                               //}else{ 
....................                                  desbloqueaPuerta(); 
0D214:  MOVLB  0
0D216:  CALL   5CCC
....................                               //} 
....................                               incrementaCiclos(); 
0D21A:  CALL   7394
0D21E:  MOVLB  3
....................                            } 
....................                         } 
....................                      }else if(PresionCamara>20){ 
0D220:  BRA    D282
0D222:  MOVF   x68,F
0D224:  BNZ   D22C
0D226:  MOVF   x67,W
0D228:  SUBLW  14
0D22A:  BC    D282
....................                         codigoAlarma=13; 
0D22C:  MOVLW  0D
0D22E:  MOVWF  x39
....................                         if(codigoAnt!=codigoAlarma){ 
0D230:  MOVF   x39,W
0D232:  SUBWF  x7C,W
0D234:  BZ    D240
....................                            codigoAnt=codigoAlarma; 
0D236:  MOVFF  339,37C
....................                            GuardaDatoCiclo();                   
0D23A:  MOVLB  0
0D23C:  CALL   6FF0
....................                         } 
....................                         Desfogando=ON; 
0D240:  MOVLB  0
0D242:  BSF    xA2.0
....................                         DesfogueSuave=ON; 
0D244:  BSF    xA2.1
....................                         printf("Funcionamiento.t4f.txt=\" Ninguna\""); 
0D246:  MOVLW  10
0D248:  MOVWF  FF6
0D24A:  MOVLW  1A
0D24C:  MOVWF  FF7
0D24E:  MOVLW  00
0D250:  MOVWF  FF8
0D252:  CALL   3E66
....................                         SendDataDisplay(); 
0D256:  CALL   3E98
....................                         printf("Funcionamiento.t5f.txt=\" Despresurizando\""); 
0D25A:  MOVLW  32
0D25C:  MOVWF  FF6
0D25E:  MOVLW  1A
0D260:  MOVWF  FF7
0D262:  MOVLW  00
0D264:  MOVWF  FF8
0D266:  CALL   3E66
....................                         SendDataDisplay(); 
0D26A:  CALL   3E98
....................                         Control=0; 
0D26E:  MOVLB  3
0D270:  CLRF   x45
....................                         //Desfogue_on; 
....................                         Paso_on; 
0D272:  BCF    F8B.0
0D274:  BCF    F94.0
....................                         Agua_off; 
0D276:  BSF    F8B.2
0D278:  BCF    F94.2
....................                         SSR2_off; 
0D27A:  BCF    F8D.2
0D27C:  BCF    F96.2
....................                         SSR_off; 
0D27E:  BCF    F8D.1
0D280:  BCF    F96.1
....................                      } 
....................                   }else{                      
0D282:  BRA    D42E
0D284:  MOVLB  0
....................                      Paso_off; 
0D286:  BSF    F8B.0
0D288:  BCF    F94.0
....................                      Controlando=0; 
0D28A:  MOVLB  3
0D28C:  CLRF   x47
....................                      Control=0; 
0D28E:  CLRF   x45
....................                      if(PresionCamara<=2){   
0D290:  MOVF   x68,F
0D292:  BTFSS  FD8.2
0D294:  BRA    D3CA
0D296:  MOVF   x67,W
0D298:  SUBLW  02
0D29A:  BTFSS  FD8.0
0D29C:  BRA    D3CA
....................                         if(sSec==0 && mSec==0){                           
0D29E:  MOVLB  0
0D2A0:  MOVF   xC0,F
0D2A2:  BNZ   D354
0D2A4:  MOVF   xC1,F
0D2A6:  BNZ   D354
....................                            Agua_off; 
0D2A8:  BSF    F8B.2
0D2AA:  BCF    F94.2
....................                            if(!DOOR){ 
0D2AC:  BSF    F93.7
0D2AE:  BTFSS  F81.7
0D2B0:  BRA    D2B8
....................                               Desfogue_off; 
0D2B2:  BSF    F8B.1
0D2B4:  BCF    F94.1
....................                            }else{ 
0D2B6:  BRA    D2BC
....................                               Desfogue_on; 
0D2B8:  BCF    F8B.1
0D2BA:  BCF    F94.1
....................                            } 
....................                            Paso_off; 
0D2BC:  BSF    F8B.0
0D2BE:  BCF    F94.0
....................                            SSR2_off; 
0D2C0:  BCF    F8D.2
0D2C2:  BCF    F96.2
....................                            SSR_off; 
0D2C4:  BCF    F8D.1
0D2C6:  BCF    F96.1
....................                            Secando=OFF; 
0D2C8:  BCF    xA1.6
....................                            if(PresionCamara<1){ 
0D2CA:  MOVLB  3
0D2CC:  MOVF   x67,F
0D2CE:  BNZ   D34A
0D2D0:  MOVF   x68,F
0D2D2:  BNZ   D34A
....................                               ActivaAlarma(2); 
0D2D4:  MOVLW  02
0D2D6:  MOVLB  7
0D2D8:  MOVWF  xB9
0D2DA:  MOVLB  0
0D2DC:  CALL   54A0
....................                               printf("Funcionamiento.t4f.txt=\" Ninguna\""); 
0D2E0:  MOVLW  5C
0D2E2:  MOVWF  FF6
0D2E4:  MOVLW  1A
0D2E6:  MOVWF  FF7
0D2E8:  MOVLW  00
0D2EA:  MOVWF  FF8
0D2EC:  CALL   3E66
....................                               SendDataDisplay(); 
0D2F0:  CALL   3E98
....................                               printf("Funcionamiento.t5f.txt=\" Finalizado\""); 
0D2F4:  MOVLW  7E
0D2F6:  MOVWF  FF6
0D2F8:  MOVLW  1A
0D2FA:  MOVWF  FF7
0D2FC:  MOVLW  00
0D2FE:  MOVWF  FF8
0D300:  CALL   3E66
....................                               SendDataDisplay(); 
0D304:  CALL   3E98
....................                               Finalizo=ON; 
0D308:  BSF    xA4.1
....................                               codigoAlarma=14; 
0D30A:  MOVLW  0E
0D30C:  MOVLB  3
0D30E:  MOVWF  x39
....................                               if(codigoAnt!=codigoAlarma){ 
0D310:  MOVF   x39,W
0D312:  SUBWF  x7C,W
0D314:  BZ    D322
....................                                  codigoAnt=codigoAlarma; 
0D316:  MOVFF  339,37C
....................                                  GuardaDatoCiclo();                   
0D31A:  MOVLB  0
0D31C:  CALL   6FF0
0D320:  MOVLB  3
....................                               } 
....................                               if(!flagImprimir){ 
0D322:  BTFSC  x44.2
0D324:  BRA    D344
....................                                  Imprime=28; 
0D326:  MOVLW  1C
0D328:  MOVWF  x92
....................                                  Envio_Esclavos(); 
0D32A:  MOVLB  0
0D32C:  CALL   5178
....................                                  delay_ms(200); 
0D330:  MOVLW  C8
0D332:  MOVLB  7
0D334:  MOVWF  xC9
0D336:  MOVLB  0
0D338:  CALL   1FA0
....................                                  Imprime=10; 
0D33C:  MOVLW  0A
0D33E:  MOVLB  3
0D340:  MOVWF  x92
....................                                  flagImprimir=1; 
0D342:  BSF    x44.2
....................                               } 
....................                               desbloqueaPuerta(); 
0D344:  MOVLB  0
0D346:  CALL   5CCC
....................                            } 
....................                            incrementaCiclos(); 
0D34A:  MOVLB  0
0D34C:  CALL   7394
....................                            Secando=OFF; 
0D350:  BCF    xA1.6
....................                         }else{ 
0D352:  BRA    D3C6
....................                            if(!DOOR){ 
0D354:  BSF    F93.7
0D356:  BTFSS  F81.7
0D358:  BRA    D360
....................                               Desfogue_off; 
0D35A:  BSF    F8B.1
0D35C:  BCF    F94.1
....................                            }else{ 
0D35E:  BRA    D364
....................                               Desfogue_on; 
0D360:  BCF    F8B.1
0D362:  BCF    F94.1
....................                            } 
....................                            codigoAlarma=15; 
0D364:  MOVLW  0F
0D366:  MOVLB  3
0D368:  MOVWF  x39
....................                            if(codigoAnt!=codigoAlarma){ 
0D36A:  MOVF   x39,W
0D36C:  SUBWF  x7C,W
0D36E:  BZ    D37C
....................                               codigoAnt=codigoAlarma; 
0D370:  MOVFF  339,37C
....................                               GuardaDatoCiclo();                   
0D374:  MOVLB  0
0D376:  CALL   6FF0
0D37A:  MOVLB  3
....................                            } 
....................                            if(PresionCamara==0){ 
0D37C:  MOVF   x67,F
0D37E:  BNZ   D38A
0D380:  MOVF   x68,F
0D382:  BNZ   D38A
....................                               desbloqueaPuerta(); 
0D384:  MOVLB  0
0D386:  CALL   5CCC
....................                            } 
....................                            Secando=ON; 
0D38A:  MOVLB  0
0D38C:  BSF    xA1.6
....................                            if(Secando){ 
0D38E:  BTFSS  xA1.6
0D390:  BRA    D3BA
....................                               printf("Funcionamiento.t4f.txt=\" Ninguna\""); 
0D392:  MOVLW  A4
0D394:  MOVWF  FF6
0D396:  MOVLW  1A
0D398:  MOVWF  FF7
0D39A:  MOVLW  00
0D39C:  MOVWF  FF8
0D39E:  CALL   3E66
....................                               SendDataDisplay(); 
0D3A2:  CALL   3E98
....................                               printf("Funcionamiento.t5f.txt=\" Secando\""); 
0D3A6:  MOVLW  C6
0D3A8:  MOVWF  FF6
0D3AA:  MOVLW  1A
0D3AC:  MOVWF  FF7
0D3AE:  MOVLW  00
0D3B0:  MOVWF  FF8
0D3B2:  CALL   3E66
....................                               SendDataDisplay(); 
0D3B6:  CALL   3E98
....................                            } 
....................                            ControlaPresion(); 
0D3BA:  CALL   7420
....................                            SSR2_on; 
0D3BE:  BSF    F8D.2
0D3C0:  BCF    F96.2
....................                            Paso_off; 
0D3C2:  BSF    F8B.0
0D3C4:  BCF    F94.0
....................                         } 
....................                      }else if(PresionCamara>15){ 
0D3C6:  BRA    D430
0D3C8:  MOVLB  3
0D3CA:  MOVF   x68,F
0D3CC:  BNZ   D3D4
0D3CE:  MOVF   x67,W
0D3D0:  SUBLW  0F
0D3D2:  BC    D42E
....................                         codigoAlarma=13; 
0D3D4:  MOVLW  0D
0D3D6:  MOVWF  x39
....................                         if(codigoAnt!=codigoAlarma){ 
0D3D8:  MOVF   x39,W
0D3DA:  SUBWF  x7C,W
0D3DC:  BZ    D3E8
....................                            codigoAnt=codigoAlarma; 
0D3DE:  MOVFF  339,37C
....................                            GuardaDatoCiclo();                   
0D3E2:  MOVLB  0
0D3E4:  CALL   6FF0
....................                         } 
....................                         Desfogando=ON; 
0D3E8:  MOVLB  0
0D3EA:  BSF    xA2.0
....................                         printf("Funcionamiento.t4f.txt=\" Ninguna\""); 
0D3EC:  MOVLW  E8
0D3EE:  MOVWF  FF6
0D3F0:  MOVLW  1A
0D3F2:  MOVWF  FF7
0D3F4:  MOVLW  00
0D3F6:  MOVWF  FF8
0D3F8:  CALL   3E66
....................                         SendDataDisplay(); 
0D3FC:  CALL   3E98
....................                         printf("Funcionamiento.t5f.txt=\" Despresurizando\""); 
0D400:  MOVLW  0A
0D402:  MOVWF  FF6
0D404:  MOVLW  1B
0D406:  MOVWF  FF7
0D408:  MOVLW  00
0D40A:  MOVWF  FF8
0D40C:  CALL   3E66
....................                         SendDataDisplay(); 
0D410:  CALL   3E98
....................                         Control=0; 
0D414:  MOVLB  3
0D416:  CLRF   x45
....................                         Controlando=0; 
0D418:  CLRF   x47
....................                         Desfogue_on; 
0D41A:  BCF    F8B.1
0D41C:  BCF    F94.1
....................                         Paso_off; 
0D41E:  BSF    F8B.0
0D420:  BCF    F94.0
....................                         Agua_off;  
0D422:  BSF    F8B.2
0D424:  BCF    F94.2
....................                         SSR2_on; 
0D426:  BSF    F8D.2
0D428:  BCF    F96.2
....................                         SSR_off;    
0D42A:  BCF    F8D.1
0D42C:  BCF    F96.1
0D42E:  MOVLB  0
....................                      } 
....................                   } 
....................                }else{ 
0D430:  BRA    D500
....................                   if(Temperatura<((float)Setpoint-0.9) && !Desfogando){ 
0D432:  MOVLB  7
0D434:  CLRF   xCC
0D436:  MOVFF  355,7CB
0D43A:  MOVLB  0
0D43C:  CALL   1F6A
0D440:  MOVFF  00,7B9
0D444:  MOVFF  01,7BA
0D448:  MOVFF  02,7BB
0D44C:  MOVFF  03,7BC
0D450:  BSF    FD8.1
0D452:  MOVFF  03,7CE
0D456:  MOVFF  02,7CD
0D45A:  MOVFF  01,7CC
0D45E:  MOVFF  00,7CB
0D462:  MOVLW  66
0D464:  MOVLB  7
0D466:  MOVWF  xD2
0D468:  MOVWF  xD1
0D46A:  MOVWF  xD0
0D46C:  MOVLW  7E
0D46E:  MOVWF  xCF
0D470:  MOVLB  0
0D472:  CALL   2384
0D476:  MOVFF  31B,7C2
0D47A:  MOVFF  31A,7C1
0D47E:  MOVFF  319,7C0
0D482:  MOVFF  318,7BF
0D486:  MOVFF  03,7C6
0D48A:  MOVFF  02,7C5
0D48E:  MOVFF  01,7C4
0D492:  MOVFF  00,7C3
0D496:  CALL   25FC
0D49A:  BNC   D4A2
0D49C:  BTFSC  xA2.0
0D49E:  BRA    D4A2
....................                      Esterilizando=OFF; 
0D4A0:  BCF    xA1.5
....................                   } 
....................                   codigoAlarma=16; 
0D4A2:  MOVLW  10
0D4A4:  MOVLB  3
0D4A6:  MOVWF  x39
....................                   if(codigoAnt!=codigoAlarma){ 
0D4A8:  MOVF   x39,W
0D4AA:  SUBWF  x7C,W
0D4AC:  BZ    D4BA
....................                      codigoAnt=codigoAlarma; 
0D4AE:  MOVFF  339,37C
....................                      GuardaDatoCiclo();                   
0D4B2:  MOVLB  0
0D4B4:  CALL   6FF0
0D4B8:  MOVLB  3
....................                   } 
....................                   printf("Funcionamiento.t4f.txt=\" Ninguna\""); 
0D4BA:  MOVLW  34
0D4BC:  MOVWF  FF6
0D4BE:  MOVLW  1B
0D4C0:  MOVWF  FF7
0D4C2:  MOVLW  00
0D4C4:  MOVWF  FF8
0D4C6:  MOVLB  0
0D4C8:  CALL   3E66
....................                   SendDataDisplay(); 
0D4CC:  CALL   3E98
....................                   printf("Funcionamiento.t5f.txt=\" Esterilizando\""); 
0D4D0:  MOVLW  56
0D4D2:  MOVWF  FF6
0D4D4:  MOVLW  1B
0D4D6:  MOVWF  FF7
0D4D8:  MOVLW  00
0D4DA:  MOVWF  FF8
0D4DC:  CALL   3E66
....................                   SendDataDisplay(); 
0D4E0:  CALL   3E98
....................                   Paso_on; 
0D4E4:  BCF    F8B.0
0D4E6:  BCF    F94.0
....................                   Desfogue_off; 
0D4E8:  BSF    F8B.1
0D4EA:  BCF    F94.1
....................                   Agua_off; 
0D4EC:  BSF    F8B.2
0D4EE:  BCF    F94.2
....................                   SSR2_off; 
0D4F0:  BCF    F8D.2
0D4F2:  BCF    F96.2
....................                   Control=1; 
0D4F4:  MOVLW  01
0D4F6:  MOVLB  3
0D4F8:  MOVWF  x45
....................                   Controla(); 
0D4FA:  MOVLB  0
0D4FC:  CALL   750A
0D500:  MOVLB  3
....................                } 
....................             } 
....................          } 
....................       } 
....................    } 
....................  
....................    if(tguarda>=180){ 
0D502:  MOVF   x41,F
0D504:  BNZ   D50C
0D506:  MOVF   x40,W
0D508:  SUBLW  B3
0D50A:  BC    D51C
....................       if(!Ciclo) 
0D50C:  MOVLB  0
0D50E:  BTFSC  xA2.6
0D510:  BRA    D516
....................          GuardaDatoCiclo(); 
0D512:  CALL   6FF0
....................       tguarda=0; 
0D516:  MOVLB  3
0D518:  CLRF   x41
0D51A:  CLRF   x40
....................    } 
....................  
....................    if(Grafica==1){ 
0D51C:  MOVLB  0
0D51E:  BTFSS  xA7.6
0D520:  BRA    D692
....................       printf("add 14,0,%1.0f",Temperatura*0.6); 
0D522:  MOVFF  31B,7D2
0D526:  MOVFF  31A,7D1
0D52A:  MOVFF  319,7D0
0D52E:  MOVFF  318,7CF
0D532:  MOVLW  9A
0D534:  MOVLB  7
0D536:  MOVWF  xD6
0D538:  MOVLW  99
0D53A:  MOVWF  xD5
0D53C:  MOVLW  19
0D53E:  MOVWF  xD4
0D540:  MOVLW  7E
0D542:  MOVWF  xD3
0D544:  MOVLB  0
0D546:  CALL   3F4A
0D54A:  MOVFF  00,7B9
0D54E:  MOVFF  01,7BA
0D552:  MOVFF  02,7BB
0D556:  MOVFF  03,7BC
0D55A:  MOVLW  7E
0D55C:  MOVWF  FF6
0D55E:  MOVLW  1B
0D560:  MOVWF  FF7
0D562:  MOVLW  00
0D564:  MOVWF  FF8
0D566:  MOVLW  09
0D568:  MOVLB  7
0D56A:  MOVWF  xBE
0D56C:  MOVLB  0
0D56E:  CALL   55F4
0D572:  MOVLW  00
0D574:  MOVWF  FE9
0D576:  MOVFF  7BC,7C1
0D57A:  MOVFF  7BB,7C0
0D57E:  MOVFF  7BA,7BF
0D582:  MOVFF  7B9,7BE
0D586:  MOVLB  7
0D588:  CLRF   xC2
0D58A:  MOVLB  0
0D58C:  CALL   5710
....................       SendDataDisplay(); 
0D590:  CALL   3E98
....................       printf("add 14,1,%1.0f",PresionCamara*0.6); 
0D594:  MOVFF  368,7CC
0D598:  MOVFF  367,7CB
0D59C:  CALL   1F6A
0D5A0:  MOVFF  03,7D2
0D5A4:  MOVFF  02,7D1
0D5A8:  MOVFF  01,7D0
0D5AC:  MOVFF  00,7CF
0D5B0:  MOVLW  9A
0D5B2:  MOVLB  7
0D5B4:  MOVWF  xD6
0D5B6:  MOVLW  99
0D5B8:  MOVWF  xD5
0D5BA:  MOVLW  19
0D5BC:  MOVWF  xD4
0D5BE:  MOVLW  7E
0D5C0:  MOVWF  xD3
0D5C2:  MOVLB  0
0D5C4:  CALL   3F4A
0D5C8:  MOVFF  00,7B9
0D5CC:  MOVFF  01,7BA
0D5D0:  MOVFF  02,7BB
0D5D4:  MOVFF  03,7BC
0D5D8:  MOVLW  8E
0D5DA:  MOVWF  FF6
0D5DC:  MOVLW  1B
0D5DE:  MOVWF  FF7
0D5E0:  MOVLW  00
0D5E2:  MOVWF  FF8
0D5E4:  MOVLW  09
0D5E6:  MOVLB  7
0D5E8:  MOVWF  xBE
0D5EA:  MOVLB  0
0D5EC:  CALL   55F4
0D5F0:  MOVLW  00
0D5F2:  MOVWF  FE9
0D5F4:  MOVFF  7BC,7C1
0D5F8:  MOVFF  7BB,7C0
0D5FC:  MOVFF  7BA,7BF
0D600:  MOVFF  7B9,7BE
0D604:  MOVLB  7
0D606:  CLRF   xC2
0D608:  MOVLB  0
0D60A:  CALL   5710
....................       SendDataDisplay(); 
0D60E:  CALL   3E98
....................       printf("add 14,2,%1.0f",PresionPreCamara*0.6); 
0D612:  MOVFF  36A,7CC
0D616:  MOVFF  369,7CB
0D61A:  CALL   1F6A
0D61E:  MOVFF  03,7D2
0D622:  MOVFF  02,7D1
0D626:  MOVFF  01,7D0
0D62A:  MOVFF  00,7CF
0D62E:  MOVLW  9A
0D630:  MOVLB  7
0D632:  MOVWF  xD6
0D634:  MOVLW  99
0D636:  MOVWF  xD5
0D638:  MOVLW  19
0D63A:  MOVWF  xD4
0D63C:  MOVLW  7E
0D63E:  MOVWF  xD3
0D640:  MOVLB  0
0D642:  CALL   3F4A
0D646:  MOVFF  00,7B9
0D64A:  MOVFF  01,7BA
0D64E:  MOVFF  02,7BB
0D652:  MOVFF  03,7BC
0D656:  MOVLW  9E
0D658:  MOVWF  FF6
0D65A:  MOVLW  1B
0D65C:  MOVWF  FF7
0D65E:  MOVLW  00
0D660:  MOVWF  FF8
0D662:  MOVLW  09
0D664:  MOVLB  7
0D666:  MOVWF  xBE
0D668:  MOVLB  0
0D66A:  CALL   55F4
0D66E:  MOVLW  00
0D670:  MOVWF  FE9
0D672:  MOVFF  7BC,7C1
0D676:  MOVFF  7BB,7C0
0D67A:  MOVFF  7BA,7BF
0D67E:  MOVFF  7B9,7BE
0D682:  MOVLB  7
0D684:  CLRF   xC2
0D686:  MOVLB  0
0D688:  CALL   5710
....................       SendDataDisplay(); 
0D68C:  CALL   3E98
....................       Grafica=0; 
0D690:  BCF    xA7.6
....................    } 
....................    if(Lectura==1)// Utilizado para visualizar la lectura de la temperatura 
0D692:  BTFSS  xA7.5
0D694:  BRA    D96A
....................    {                       
....................       Lectura=0; 
0D696:  BCF    xA7.5
....................       printf("tuser.txt=\"%s\"",1); 
0D698:  MOVLW  AE
0D69A:  MOVWF  FF6
0D69C:  MOVLW  1B
0D69E:  MOVWF  FF7
0D6A0:  MOVLW  00
0D6A2:  MOVWF  FF8
0D6A4:  MOVLW  0B
0D6A6:  MOVLB  7
0D6A8:  MOVWF  xBE
0D6AA:  MOVLB  0
0D6AC:  CALL   55F4
0D6B0:  CLRF   FEA
0D6B2:  MOVLW  01
0D6B4:  MOVWF  FE9
0D6B6:  CALL   5626
0D6BA:  MOVLW  22
0D6BC:  BTFSS  F9E.4
0D6BE:  BRA    D6BC
0D6C0:  MOVWF  FAD
....................       SendDataDisplay(); 
0D6C2:  CALL   3E98
....................       printf("t6f.txt=\"%3.1f\"",Temperatura); 
0D6C6:  MOVLW  BE
0D6C8:  MOVWF  FF6
0D6CA:  MOVLW  1B
0D6CC:  MOVWF  FF7
0D6CE:  MOVLW  00
0D6D0:  MOVWF  FF8
0D6D2:  MOVLW  09
0D6D4:  MOVLB  7
0D6D6:  MOVWF  xBE
0D6D8:  MOVLB  0
0D6DA:  CALL   55F4
0D6DE:  MOVLW  02
0D6E0:  MOVWF  FE9
0D6E2:  MOVFF  31B,7C1
0D6E6:  MOVFF  31A,7C0
0D6EA:  MOVFF  319,7BF
0D6EE:  MOVFF  318,7BE
0D6F2:  MOVLW  01
0D6F4:  MOVLB  7
0D6F6:  MOVWF  xC2
0D6F8:  MOVLB  0
0D6FA:  CALL   5710
0D6FE:  MOVLW  B0
0D700:  BTFSS  F9E.4
0D702:  BRA    D700
0D704:  MOVWF  FAD
0D706:  MOVLW  22
0D708:  BTFSS  F9E.4
0D70A:  BRA    D708
0D70C:  MOVWF  FAD
....................       SendDataDisplay(); 
0D70E:  CALL   3E98
....................       printf("Funcionamiento.t7f.txt=\"%03LukPa\"",PresionCamara); 
0D712:  MOVLW  D0
0D714:  MOVWF  FF6
0D716:  MOVLW  1B
0D718:  MOVWF  FF7
0D71A:  MOVLW  00
0D71C:  MOVWF  FF8
0D71E:  MOVLW  18
0D720:  MOVLB  7
0D722:  MOVWF  xBE
0D724:  MOVLB  0
0D726:  CALL   55F4
0D72A:  MOVLW  0A
0D72C:  MOVWF  FE9
0D72E:  MOVFF  368,7BE
0D732:  MOVFF  367,7BD
0D736:  CALL   59D4
0D73A:  MOVLW  ED
0D73C:  MOVWF  FF6
0D73E:  MOVLW  1B
0D740:  MOVWF  FF7
0D742:  MOVLW  00
0D744:  MOVWF  FF8
0D746:  MOVLW  04
0D748:  MOVLB  7
0D74A:  MOVWF  xBE
0D74C:  MOVLB  0
0D74E:  CALL   55F4
....................       SendDataDisplay(); 
0D752:  CALL   3E98
....................       printf("Funcionamiento.t12f.txt=\"%03LukPa\"",PresionPreCamara); 
0D756:  MOVLW  F2
0D758:  MOVWF  FF6
0D75A:  MOVLW  1B
0D75C:  MOVWF  FF7
0D75E:  MOVLW  00
0D760:  MOVWF  FF8
0D762:  MOVLW  19
0D764:  MOVLB  7
0D766:  MOVWF  xBE
0D768:  MOVLB  0
0D76A:  CALL   55F4
0D76E:  MOVLW  0A
0D770:  MOVWF  FE9
0D772:  MOVFF  36A,7BE
0D776:  MOVFF  369,7BD
0D77A:  CALL   59D4
0D77E:  MOVLW  10
0D780:  MOVWF  FF6
0D782:  MOVLW  1C
0D784:  MOVWF  FF7
0D786:  MOVLW  00
0D788:  MOVWF  FF8
0D78A:  MOVLW  04
0D78C:  MOVLB  7
0D78E:  MOVWF  xBE
0D790:  MOVLB  0
0D792:  CALL   55F4
....................       SendDataDisplay(); 
0D796:  CALL   3E98
....................       printf("Funcionamiento.t9f.txt=\"%03u\"",Setpoint); 
0D79A:  MOVLW  16
0D79C:  MOVWF  FF6
0D79E:  MOVLW  1C
0D7A0:  MOVWF  FF7
0D7A2:  MOVLW  00
0D7A4:  MOVWF  FF8
0D7A6:  MOVLW  18
0D7A8:  MOVLB  7
0D7AA:  MOVWF  xBE
0D7AC:  MOVLB  0
0D7AE:  CALL   55F4
0D7B2:  MOVFF  355,7BE
0D7B6:  MOVLW  03
0D7B8:  MOVLB  7
0D7BA:  MOVWF  xBF
0D7BC:  MOVLB  0
0D7BE:  CALL   58E0
0D7C2:  MOVLW  22
0D7C4:  BTFSS  F9E.4
0D7C6:  BRA    D7C4
0D7C8:  MOVWF  FAD
....................       SendDataDisplay();       
0D7CA:  CALL   3E98
....................       printf("Funcionamiento.t10f.txt=\"%02u\"",mEst); 
0D7CE:  MOVLW  34
0D7D0:  MOVWF  FF6
0D7D2:  MOVLW  1C
0D7D4:  MOVWF  FF7
0D7D6:  MOVLW  00
0D7D8:  MOVWF  FF8
0D7DA:  MOVLW  19
0D7DC:  MOVLB  7
0D7DE:  MOVWF  xBE
0D7E0:  MOVLB  0
0D7E2:  CALL   55F4
0D7E6:  MOVFF  BF,7BE
0D7EA:  MOVLW  01
0D7EC:  MOVLB  7
0D7EE:  MOVWF  xBF
0D7F0:  MOVLB  0
0D7F2:  CALL   58E0
0D7F6:  MOVLW  22
0D7F8:  BTFSS  F9E.4
0D7FA:  BRA    D7F8
0D7FC:  MOVWF  FAD
....................       SendDataDisplay();       
0D7FE:  CALL   3E98
....................       printf("Funcionamiento.t13f.txt=\"%02u\"",sEst); 
0D802:  MOVLW  54
0D804:  MOVWF  FF6
0D806:  MOVLW  1C
0D808:  MOVWF  FF7
0D80A:  MOVLW  00
0D80C:  MOVWF  FF8
0D80E:  MOVLW  19
0D810:  MOVLB  7
0D812:  MOVWF  xBE
0D814:  MOVLB  0
0D816:  CALL   55F4
0D81A:  MOVFF  BE,7BE
0D81E:  MOVLW  01
0D820:  MOVLB  7
0D822:  MOVWF  xBF
0D824:  MOVLB  0
0D826:  CALL   58E0
0D82A:  MOVLW  22
0D82C:  BTFSS  F9E.4
0D82E:  BRA    D82C
0D830:  MOVWF  FAD
....................       SendDataDisplay();       
0D832:  CALL   3E98
....................       printf("Funcionamiento.t11f.txt=\"%02u\"",mSec); 
0D836:  MOVLW  74
0D838:  MOVWF  FF6
0D83A:  MOVLW  1C
0D83C:  MOVWF  FF7
0D83E:  MOVLW  00
0D840:  MOVWF  FF8
0D842:  MOVLW  19
0D844:  MOVLB  7
0D846:  MOVWF  xBE
0D848:  MOVLB  0
0D84A:  CALL   55F4
0D84E:  MOVFF  C1,7BE
0D852:  MOVLW  01
0D854:  MOVLB  7
0D856:  MOVWF  xBF
0D858:  MOVLB  0
0D85A:  CALL   58E0
0D85E:  MOVLW  22
0D860:  BTFSS  F9E.4
0D862:  BRA    D860
0D864:  MOVWF  FAD
....................       SendDataDisplay();       
0D866:  CALL   3E98
....................       printf("Funcionamiento.t16f.txt=\"%02u\"",sSec); 
0D86A:  MOVLW  94
0D86C:  MOVWF  FF6
0D86E:  MOVLW  1C
0D870:  MOVWF  FF7
0D872:  MOVLW  00
0D874:  MOVWF  FF8
0D876:  MOVLW  19
0D878:  MOVLB  7
0D87A:  MOVWF  xBE
0D87C:  MOVLB  0
0D87E:  CALL   55F4
0D882:  MOVFF  C0,7BE
0D886:  MOVLW  01
0D888:  MOVLB  7
0D88A:  MOVWF  xBF
0D88C:  MOVLB  0
0D88E:  CALL   58E0
0D892:  MOVLW  22
0D894:  BTFSS  F9E.4
0D896:  BRA    D894
0D898:  MOVWF  FAD
....................       SendDataDisplay();       
0D89A:  CALL   3E98
....................        
....................       printf("fecha.txt=\"Fecha:%02u/%02u/20%02u    Hora: %02u:%02u:%02u\"",Dia,Mes,Year,Hora,Minuto,Segundo); 
0D89E:  MOVLW  B4
0D8A0:  MOVWF  FF6
0D8A2:  MOVLW  1C
0D8A4:  MOVWF  FF7
0D8A6:  MOVLW  00
0D8A8:  MOVWF  FF8
0D8AA:  MOVLW  11
0D8AC:  MOVLB  7
0D8AE:  MOVWF  xBE
0D8B0:  MOVLB  0
0D8B2:  CALL   55F4
0D8B6:  MOVFF  386,7BE
0D8BA:  MOVLW  01
0D8BC:  MOVLB  7
0D8BE:  MOVWF  xBF
0D8C0:  MOVLB  0
0D8C2:  CALL   58E0
0D8C6:  MOVLW  2F
0D8C8:  BTFSS  F9E.4
0D8CA:  BRA    D8C8
0D8CC:  MOVWF  FAD
0D8CE:  MOVFF  385,7BE
0D8D2:  MOVLW  01
0D8D4:  MOVLB  7
0D8D6:  MOVWF  xBF
0D8D8:  MOVLB  0
0D8DA:  CALL   58E0
0D8DE:  MOVLW  2F
0D8E0:  BTFSS  F9E.4
0D8E2:  BRA    D8E0
0D8E4:  MOVWF  FAD
0D8E6:  MOVLW  32
0D8E8:  BTFSS  F9E.4
0D8EA:  BRA    D8E8
0D8EC:  MOVWF  FAD
0D8EE:  MOVLW  30
0D8F0:  BTFSS  F9E.4
0D8F2:  BRA    D8F0
0D8F4:  MOVWF  FAD
0D8F6:  MOVFF  384,7BE
0D8FA:  MOVLW  01
0D8FC:  MOVLB  7
0D8FE:  MOVWF  xBF
0D900:  MOVLB  0
0D902:  CALL   58E0
0D906:  MOVLW  D5
0D908:  MOVWF  FF6
0D90A:  MOVLW  1C
0D90C:  MOVWF  FF7
0D90E:  MOVLW  00
0D910:  MOVWF  FF8
0D912:  MOVLW  0A
0D914:  MOVLB  7
0D916:  MOVWF  xBE
0D918:  MOVLB  0
0D91A:  CALL   55F4
0D91E:  MOVFF  387,7BE
0D922:  MOVLW  01
0D924:  MOVLB  7
0D926:  MOVWF  xBF
0D928:  MOVLB  0
0D92A:  CALL   58E0
0D92E:  MOVLW  3A
0D930:  BTFSS  F9E.4
0D932:  BRA    D930
0D934:  MOVWF  FAD
0D936:  MOVFF  388,7BE
0D93A:  MOVLW  01
0D93C:  MOVLB  7
0D93E:  MOVWF  xBF
0D940:  MOVLB  0
0D942:  CALL   58E0
0D946:  MOVLW  3A
0D948:  BTFSS  F9E.4
0D94A:  BRA    D948
0D94C:  MOVWF  FAD
0D94E:  MOVFF  389,7BE
0D952:  MOVLW  01
0D954:  MOVLB  7
0D956:  MOVWF  xBF
0D958:  MOVLB  0
0D95A:  CALL   58E0
0D95E:  MOVLW  22
0D960:  BTFSS  F9E.4
0D962:  BRA    D960
0D964:  MOVWF  FAD
....................       SendDataDisplay(); 
0D966:  CALL   3E98
0D96A:  MOVLB  3
....................       //printf("fecha.font=2"); 
....................       //SendDataDisplay(); 
....................    } 
.................... } 
.................... //_-------------------------------------------------------------------------------------------------------------------------------------------------------- 
....................  
.................... //_-------------------------------------------------------------------------------------------------------------------------------------------------------- 
....................       if(Menu==100){ //Menu de Configuracin de Parametros de Control 
0D96C:  MOVF   x4E,W
0D96E:  SUBLW  64
0D970:  BTFSS  FD8.2
0D972:  GOTO   E6A0
....................       
....................       if(Opcion2>13) 
0D976:  MOVF   x57,W
0D978:  SUBLW  0D
0D97A:  BC    D980
....................          Opcion2=1; 
0D97C:  MOVLW  01
0D97E:  MOVWF  x57
....................       if(Opcion2<1) 
0D980:  MOVF   x57,F
0D982:  BNZ   D988
....................          Opcion2=13; 
0D984:  MOVLW  0D
0D986:  MOVWF  x57
....................        
....................       if(Opcion2==1){ 
0D988:  DECFSZ x57,W
0D98A:  BRA    DACC
....................          printf("Config.t2c.txt=\"Proporcional\""); 
0D98C:  MOVLW  F0
0D98E:  MOVWF  FF6
0D990:  MOVLW  1C
0D992:  MOVWF  FF7
0D994:  MOVLW  00
0D996:  MOVWF  FF8
0D998:  MOVLB  0
0D99A:  CALL   3E66
....................          SendDataDisplay();       
0D99E:  CALL   3E98
....................          printf("t3c.txt=\"%2.0f\"",Ganancia); 
0D9A2:  MOVLW  0E
0D9A4:  MOVWF  FF6
0D9A6:  MOVLW  1D
0D9A8:  MOVWF  FF7
0D9AA:  MOVLW  00
0D9AC:  MOVWF  FF8
0D9AE:  MOVLW  09
0D9B0:  MOVLB  7
0D9B2:  MOVWF  xBE
0D9B4:  MOVLB  0
0D9B6:  CALL   55F4
0D9BA:  MOVLW  01
0D9BC:  MOVWF  FE9
0D9BE:  MOVFF  2FB,7C1
0D9C2:  MOVFF  2FA,7C0
0D9C6:  MOVFF  2F9,7BF
0D9CA:  MOVFF  2F8,7BE
0D9CE:  MOVLB  7
0D9D0:  CLRF   xC2
0D9D2:  MOVLB  0
0D9D4:  CALL   5710
0D9D8:  MOVLW  22
0D9DA:  BTFSS  F9E.4
0D9DC:  BRA    D9DA
0D9DE:  MOVWF  FAD
....................          SendDataDisplay(); 
0D9E0:  CALL   3E98
....................          if(RX_Buffer[4]==0x0a){//Tecla Arriba Oprimida 
0D9E4:  MOVF   34,W
0D9E6:  SUBLW  0A
0D9E8:  BNZ   DA22
....................                Ganancia+=1.0; 
0D9EA:  BCF    FD8.1
0D9EC:  MOVFF  2FB,7CE
0D9F0:  MOVFF  2FA,7CD
0D9F4:  MOVFF  2F9,7CC
0D9F8:  MOVFF  2F8,7CB
0D9FC:  MOVLB  7
0D9FE:  CLRF   xD2
0DA00:  CLRF   xD1
0DA02:  CLRF   xD0
0DA04:  MOVLW  7F
0DA06:  MOVWF  xCF
0DA08:  MOVLB  0
0DA0A:  CALL   2384
0DA0E:  MOVFF  03,2FB
0DA12:  MOVFF  02,2FA
0DA16:  MOVFF  01,2F9
0DA1A:  MOVFF  00,2F8
....................                RX_Buffer[4]=0x00;   
0DA1E:  CLRF   34
....................                RX_Buffer2[4]=0x00;             
0DA20:  CLRF   3F
....................                //BorraBuffer(); 
....................          } 
....................              
....................          if(RX_Buffer[4]==0x0b){//Tecla Abajo Oprimida 
0DA22:  MOVF   34,W
0DA24:  SUBLW  0B
0DA26:  BNZ   DA60
....................                Ganancia-=1.0; 
0DA28:  BSF    FD8.1
0DA2A:  MOVFF  2FB,7CE
0DA2E:  MOVFF  2FA,7CD
0DA32:  MOVFF  2F9,7CC
0DA36:  MOVFF  2F8,7CB
0DA3A:  MOVLB  7
0DA3C:  CLRF   xD2
0DA3E:  CLRF   xD1
0DA40:  CLRF   xD0
0DA42:  MOVLW  7F
0DA44:  MOVWF  xCF
0DA46:  MOVLB  0
0DA48:  CALL   2384
0DA4C:  MOVFF  03,2FB
0DA50:  MOVFF  02,2FA
0DA54:  MOVFF  01,2F9
0DA58:  MOVFF  00,2F8
....................                RX_Buffer[4]=0x00; 
0DA5C:  CLRF   34
....................                RX_Buffer2[4]=0x00;             
0DA5E:  CLRF   3F
....................                //BorraBuffer(); 
....................          } 
....................           
....................          if(Ganancia>40) 
0DA60:  MOVLB  7
0DA62:  CLRF   xC2
0DA64:  CLRF   xC1
0DA66:  MOVLW  20
0DA68:  MOVWF  xC0
0DA6A:  MOVLW  84
0DA6C:  MOVWF  xBF
0DA6E:  MOVFF  2FB,7C6
0DA72:  MOVFF  2FA,7C5
0DA76:  MOVFF  2F9,7C4
0DA7A:  MOVFF  2F8,7C3
0DA7E:  MOVLB  0
0DA80:  CALL   25FC
0DA84:  BNC   DA92
....................             Ganancia=1; 
0DA86:  MOVLB  2
0DA88:  CLRF   xFB
0DA8A:  CLRF   xFA
0DA8C:  CLRF   xF9
0DA8E:  MOVLW  7F
0DA90:  MOVWF  xF8
....................          if(Ganancia<1) 
0DA92:  MOVFF  2FB,7C2
0DA96:  MOVFF  2FA,7C1
0DA9A:  MOVFF  2F9,7C0
0DA9E:  MOVFF  2F8,7BF
0DAA2:  MOVLB  7
0DAA4:  CLRF   xC6
0DAA6:  CLRF   xC5
0DAA8:  CLRF   xC4
0DAAA:  MOVLW  7F
0DAAC:  MOVWF  xC3
0DAAE:  MOVLB  0
0DAB0:  CALL   25FC
0DAB4:  BNC   DAC6
....................             Ganancia=40; 
0DAB6:  MOVLB  2
0DAB8:  CLRF   xFB
0DABA:  CLRF   xFA
0DABC:  MOVLW  20
0DABE:  MOVWF  xF9
0DAC0:  MOVLW  84
0DAC2:  MOVWF  xF8
0DAC4:  MOVLB  0
....................       }else if(Opcion2==2){ 
0DAC6:  GOTO   E260
0DACA:  MOVLB  3
0DACC:  MOVF   x57,W
0DACE:  SUBLW  02
0DAD0:  BTFSS  FD8.2
0DAD2:  BRA    DC16
....................          printf("Config.t2c.txt=\"Tciclo\""); 
0DAD4:  MOVLW  1E
0DAD6:  MOVWF  FF6
0DAD8:  MOVLW  1D
0DADA:  MOVWF  FF7
0DADC:  MOVLW  00
0DADE:  MOVWF  FF8
0DAE0:  MOVLB  0
0DAE2:  CALL   3E66
....................          SendDataDisplay();       
0DAE6:  CALL   3E98
....................          printf("t3c.txt=\"%2.0f\"",Tciclo); 
0DAEA:  MOVLW  36
0DAEC:  MOVWF  FF6
0DAEE:  MOVLW  1D
0DAF0:  MOVWF  FF7
0DAF2:  MOVLW  00
0DAF4:  MOVWF  FF8
0DAF6:  MOVLW  09
0DAF8:  MOVLB  7
0DAFA:  MOVWF  xBE
0DAFC:  MOVLB  0
0DAFE:  CALL   55F4
0DB02:  MOVLW  01
0DB04:  MOVWF  FE9
0DB06:  MOVFF  2E3,7C1
0DB0A:  MOVFF  2E2,7C0
0DB0E:  MOVFF  2E1,7BF
0DB12:  MOVFF  2E0,7BE
0DB16:  MOVLB  7
0DB18:  CLRF   xC2
0DB1A:  MOVLB  0
0DB1C:  CALL   5710
0DB20:  MOVLW  22
0DB22:  BTFSS  F9E.4
0DB24:  BRA    DB22
0DB26:  MOVWF  FAD
....................          SendDataDisplay(); 
0DB28:  CALL   3E98
....................          if(RX_Buffer[4]==0x0a){//Tecla Arriba Oprimida 
0DB2C:  MOVF   34,W
0DB2E:  SUBLW  0A
0DB30:  BNZ   DB6A
....................                Tciclo+=1.0; 
0DB32:  BCF    FD8.1
0DB34:  MOVFF  2E3,7CE
0DB38:  MOVFF  2E2,7CD
0DB3C:  MOVFF  2E1,7CC
0DB40:  MOVFF  2E0,7CB
0DB44:  MOVLB  7
0DB46:  CLRF   xD2
0DB48:  CLRF   xD1
0DB4A:  CLRF   xD0
0DB4C:  MOVLW  7F
0DB4E:  MOVWF  xCF
0DB50:  MOVLB  0
0DB52:  CALL   2384
0DB56:  MOVFF  03,2E3
0DB5A:  MOVFF  02,2E2
0DB5E:  MOVFF  01,2E1
0DB62:  MOVFF  00,2E0
....................                RX_Buffer[4]=0x00;   
0DB66:  CLRF   34
....................                RX_Buffer2[4]=0x00;             
0DB68:  CLRF   3F
....................                //BorraBuffer(); 
....................          } 
....................              
....................          if(RX_Buffer[4]==0x0b){//Tecla Abajo Oprimida             
0DB6A:  MOVF   34,W
0DB6C:  SUBLW  0B
0DB6E:  BNZ   DBA8
....................                Tciclo-=1.0; 
0DB70:  BSF    FD8.1
0DB72:  MOVFF  2E3,7CE
0DB76:  MOVFF  2E2,7CD
0DB7A:  MOVFF  2E1,7CC
0DB7E:  MOVFF  2E0,7CB
0DB82:  MOVLB  7
0DB84:  CLRF   xD2
0DB86:  CLRF   xD1
0DB88:  CLRF   xD0
0DB8A:  MOVLW  7F
0DB8C:  MOVWF  xCF
0DB8E:  MOVLB  0
0DB90:  CALL   2384
0DB94:  MOVFF  03,2E3
0DB98:  MOVFF  02,2E2
0DB9C:  MOVFF  01,2E1
0DBA0:  MOVFF  00,2E0
....................                RX_Buffer[4]=0x00; 
0DBA4:  CLRF   34
....................                RX_Buffer2[4]=0x00;             
0DBA6:  CLRF   3F
....................                //BorraBuffer(); 
....................          } 
....................           
....................          if(Tciclo>20) 
0DBA8:  MOVLB  7
0DBAA:  CLRF   xC2
0DBAC:  CLRF   xC1
0DBAE:  MOVLW  20
0DBB0:  MOVWF  xC0
0DBB2:  MOVLW  83
0DBB4:  MOVWF  xBF
0DBB6:  MOVFF  2E3,7C6
0DBBA:  MOVFF  2E2,7C5
0DBBE:  MOVFF  2E1,7C4
0DBC2:  MOVFF  2E0,7C3
0DBC6:  MOVLB  0
0DBC8:  CALL   25FC
0DBCC:  BNC   DBDC
....................             Tciclo=5; 
0DBCE:  MOVLB  2
0DBD0:  CLRF   xE3
0DBD2:  CLRF   xE2
0DBD4:  MOVLW  20
0DBD6:  MOVWF  xE1
0DBD8:  MOVLW  81
0DBDA:  MOVWF  xE0
....................          if(Tciclo<5) 
0DBDC:  MOVFF  2E3,7C2
0DBE0:  MOVFF  2E2,7C1
0DBE4:  MOVFF  2E1,7C0
0DBE8:  MOVFF  2E0,7BF
0DBEC:  MOVLB  7
0DBEE:  CLRF   xC6
0DBF0:  CLRF   xC5
0DBF2:  MOVLW  20
0DBF4:  MOVWF  xC4
0DBF6:  MOVLW  81
0DBF8:  MOVWF  xC3
0DBFA:  MOVLB  0
0DBFC:  CALL   25FC
0DC00:  BNC   DC12
....................             Tciclo=20; 
0DC02:  MOVLB  2
0DC04:  CLRF   xE3
0DC06:  CLRF   xE2
0DC08:  MOVLW  20
0DC0A:  MOVWF  xE1
0DC0C:  MOVLW  83
0DC0E:  MOVWF  xE0
0DC10:  MOVLB  0
....................       }else if(Opcion2==3){ 
0DC12:  BRA    E260
0DC14:  MOVLB  3
0DC16:  MOVF   x57,W
0DC18:  SUBLW  03
0DC1A:  BNZ   DC94
....................          printf("Config.t2c.txt=\"Ajuste +\""); 
0DC1C:  MOVLW  46
0DC1E:  MOVWF  FF6
0DC20:  MOVLW  1D
0DC22:  MOVWF  FF7
0DC24:  MOVLW  00
0DC26:  MOVWF  FF8
0DC28:  MOVLB  0
0DC2A:  CALL   3E66
....................          SendDataDisplay();       
0DC2E:  CALL   3E98
....................          printf("t3c.txt=\"%u\"",Sensor[0].Ajuste); 
0DC32:  MOVLW  60
0DC34:  MOVWF  FF6
0DC36:  MOVLW  1D
0DC38:  MOVWF  FF7
0DC3A:  MOVLW  00
0DC3C:  MOVWF  FF8
0DC3E:  MOVLW  09
0DC40:  MOVLB  7
0DC42:  MOVWF  xBE
0DC44:  MOVLB  0
0DC46:  CALL   55F4
0DC4A:  MOVFF  41F,7BE
0DC4E:  MOVLW  1B
0DC50:  MOVLB  7
0DC52:  MOVWF  xBF
0DC54:  MOVLB  0
0DC56:  CALL   58E0
0DC5A:  MOVLW  22
0DC5C:  BTFSS  F9E.4
0DC5E:  BRA    DC5C
0DC60:  MOVWF  FAD
....................          SendDataDisplay(); 
0DC62:  CALL   3E98
....................          if(RX_Buffer[4]==0x0a){//Tecla Arriba Oprimida             
0DC66:  MOVF   34,W
0DC68:  SUBLW  0A
0DC6A:  BNZ   DC7C
....................                if(Sensor[0].Ajuste<40) 
0DC6C:  MOVLB  4
0DC6E:  MOVF   x1F,W
0DC70:  SUBLW  27
0DC72:  BNC   DC76
....................                   Sensor[0].Ajuste++; 
0DC74:  INCF   x1F,F
....................                RX_Buffer[4]=0x00;   
0DC76:  CLRF   34
....................                RX_Buffer2[4]=0x00;             
0DC78:  CLRF   3F
0DC7A:  MOVLB  0
....................                //BorraBuffer();             
....................          } 
....................              
....................          if(RX_Buffer[4]==0x0b){//Tecla Abajo Oprimida             
0DC7C:  MOVF   34,W
0DC7E:  SUBLW  0B
0DC80:  BNZ   DC90
....................                if(Sensor[0].Ajuste>0) 
0DC82:  MOVLB  4
0DC84:  MOVF   x1F,F
0DC86:  BZ    DC8A
....................                   Sensor[0].Ajuste--; 
0DC88:  DECF   x1F,F
....................                RX_Buffer[4]=0x00; 
0DC8A:  CLRF   34
....................                RX_Buffer2[4]=0x00;             
0DC8C:  CLRF   3F
0DC8E:  MOVLB  0
....................                //BorraBuffer(); 
....................          } 
....................       }else if(Opcion2==4){ 
0DC90:  BRA    E260
0DC92:  MOVLB  3
0DC94:  MOVF   x57,W
0DC96:  SUBLW  04
0DC98:  BNZ   DD12
....................          printf("Config.t2c.txt=\"Ajuste -\""); 
0DC9A:  MOVLW  6E
0DC9C:  MOVWF  FF6
0DC9E:  MOVLW  1D
0DCA0:  MOVWF  FF7
0DCA2:  MOVLW  00
0DCA4:  MOVWF  FF8
0DCA6:  MOVLB  0
0DCA8:  CALL   3E66
....................          SendDataDisplay();       
0DCAC:  CALL   3E98
....................          printf("t3c.txt=\"%u\"",Sensor[0].Ajusten); 
0DCB0:  MOVLW  88
0DCB2:  MOVWF  FF6
0DCB4:  MOVLW  1D
0DCB6:  MOVWF  FF7
0DCB8:  MOVLW  00
0DCBA:  MOVWF  FF8
0DCBC:  MOVLW  09
0DCBE:  MOVLB  7
0DCC0:  MOVWF  xBE
0DCC2:  MOVLB  0
0DCC4:  CALL   55F4
0DCC8:  MOVFF  420,7BE
0DCCC:  MOVLW  1B
0DCCE:  MOVLB  7
0DCD0:  MOVWF  xBF
0DCD2:  MOVLB  0
0DCD4:  CALL   58E0
0DCD8:  MOVLW  22
0DCDA:  BTFSS  F9E.4
0DCDC:  BRA    DCDA
0DCDE:  MOVWF  FAD
....................          SendDataDisplay(); 
0DCE0:  CALL   3E98
....................          if(RX_Buffer[4]==0x0a){//Tecla Arriba Oprimida             
0DCE4:  MOVF   34,W
0DCE6:  SUBLW  0A
0DCE8:  BNZ   DCFA
....................                if(Sensor[0].Ajusten<40) 
0DCEA:  MOVLB  4
0DCEC:  MOVF   x20,W
0DCEE:  SUBLW  27
0DCF0:  BNC   DCF4
....................                   Sensor[0].Ajusten++; 
0DCF2:  INCF   x20,F
....................                RX_Buffer[4]=0x00;   
0DCF4:  CLRF   34
....................                RX_Buffer2[4]=0x00;             
0DCF6:  CLRF   3F
0DCF8:  MOVLB  0
....................                //BorraBuffer();             
....................          } 
....................              
....................          if(RX_Buffer[4]==0x0b){//Tecla Abajo Oprimida             
0DCFA:  MOVF   34,W
0DCFC:  SUBLW  0B
0DCFE:  BNZ   DD0E
....................                if(Sensor[0].Ajusten>0) 
0DD00:  MOVLB  4
0DD02:  MOVF   x20,F
0DD04:  BZ    DD08
....................                   Sensor[0].Ajusten--; 
0DD06:  DECF   x20,F
....................                RX_Buffer[4]=0x00; 
0DD08:  CLRF   34
....................                RX_Buffer2[4]=0x00;             
0DD0A:  CLRF   3F
0DD0C:  MOVLB  0
....................                //BorraBuffer(); 
....................          } 
....................       }else if(Opcion2==5){ 
0DD0E:  BRA    E260
0DD10:  MOVLB  3
0DD12:  MOVF   x57,W
0DD14:  SUBLW  05
0DD16:  BNZ   DD90
....................          printf("Config.t2c.txt=\"Ajuste2 +\""); 
0DD18:  MOVLW  96
0DD1A:  MOVWF  FF6
0DD1C:  MOVLW  1D
0DD1E:  MOVWF  FF7
0DD20:  MOVLW  00
0DD22:  MOVWF  FF8
0DD24:  MOVLB  0
0DD26:  CALL   3E66
....................          SendDataDisplay();       
0DD2A:  CALL   3E98
....................          printf("t3c.txt=\"%u\"",Sensor[1].Ajuste); 
0DD2E:  MOVLW  B2
0DD30:  MOVWF  FF6
0DD32:  MOVLW  1D
0DD34:  MOVWF  FF7
0DD36:  MOVLW  00
0DD38:  MOVWF  FF8
0DD3A:  MOVLW  09
0DD3C:  MOVLB  7
0DD3E:  MOVWF  xBE
0DD40:  MOVLB  0
0DD42:  CALL   55F4
0DD46:  MOVFF  583,7BE
0DD4A:  MOVLW  1B
0DD4C:  MOVLB  7
0DD4E:  MOVWF  xBF
0DD50:  MOVLB  0
0DD52:  CALL   58E0
0DD56:  MOVLW  22
0DD58:  BTFSS  F9E.4
0DD5A:  BRA    DD58
0DD5C:  MOVWF  FAD
....................          SendDataDisplay(); 
0DD5E:  CALL   3E98
....................          if(RX_Buffer[4]==0x0a){//Tecla Arriba Oprimida 
0DD62:  MOVF   34,W
0DD64:  SUBLW  0A
0DD66:  BNZ   DD78
....................                if(Sensor[1].Ajuste<40) 
0DD68:  MOVLB  5
0DD6A:  MOVF   x83,W
0DD6C:  SUBLW  27
0DD6E:  BNC   DD72
....................                   Sensor[1].Ajuste++; 
0DD70:  INCF   x83,F
....................                RX_Buffer[4]=0x00;   
0DD72:  CLRF   34
....................                RX_Buffer2[4]=0x00;             
0DD74:  CLRF   3F
0DD76:  MOVLB  0
....................                //BorraBuffer(); 
....................          } 
....................              
....................          if(RX_Buffer[4]==0x0b){//Tecla Abajo Oprimida 
0DD78:  MOVF   34,W
0DD7A:  SUBLW  0B
0DD7C:  BNZ   DD8C
....................                if(Sensor[1].Ajuste>0) 
0DD7E:  MOVLB  5
0DD80:  MOVF   x83,F
0DD82:  BZ    DD86
....................                   Sensor[1].Ajuste--; 
0DD84:  DECF   x83,F
....................                RX_Buffer[4]=0x00; 
0DD86:  CLRF   34
....................                RX_Buffer2[4]=0x00;             
0DD88:  CLRF   3F
0DD8A:  MOVLB  0
....................                //BorraBuffer();             
....................          } 
....................       }else if(Opcion2==6){ 
0DD8C:  BRA    E260
0DD8E:  MOVLB  3
0DD90:  MOVF   x57,W
0DD92:  SUBLW  06
0DD94:  BNZ   DE0E
....................          printf("Config.t2c.txt=\"Ajuste2 -\""); 
0DD96:  MOVLW  C0
0DD98:  MOVWF  FF6
0DD9A:  MOVLW  1D
0DD9C:  MOVWF  FF7
0DD9E:  MOVLW  00
0DDA0:  MOVWF  FF8
0DDA2:  MOVLB  0
0DDA4:  CALL   3E66
....................          SendDataDisplay();       
0DDA8:  CALL   3E98
....................          printf("t3c.txt=\"%u\"",Sensor[1].Ajusten); 
0DDAC:  MOVLW  DC
0DDAE:  MOVWF  FF6
0DDB0:  MOVLW  1D
0DDB2:  MOVWF  FF7
0DDB4:  MOVLW  00
0DDB6:  MOVWF  FF8
0DDB8:  MOVLW  09
0DDBA:  MOVLB  7
0DDBC:  MOVWF  xBE
0DDBE:  MOVLB  0
0DDC0:  CALL   55F4
0DDC4:  MOVFF  584,7BE
0DDC8:  MOVLW  1B
0DDCA:  MOVLB  7
0DDCC:  MOVWF  xBF
0DDCE:  MOVLB  0
0DDD0:  CALL   58E0
0DDD4:  MOVLW  22
0DDD6:  BTFSS  F9E.4
0DDD8:  BRA    DDD6
0DDDA:  MOVWF  FAD
....................          SendDataDisplay(); 
0DDDC:  CALL   3E98
....................          if(RX_Buffer[4]==0x0a){//Tecla Arriba Oprimida             
0DDE0:  MOVF   34,W
0DDE2:  SUBLW  0A
0DDE4:  BNZ   DDF6
....................                if(Sensor[1].Ajusten<40) 
0DDE6:  MOVLB  5
0DDE8:  MOVF   x84,W
0DDEA:  SUBLW  27
0DDEC:  BNC   DDF0
....................                   Sensor[1].Ajusten++; 
0DDEE:  INCF   x84,F
....................                RX_Buffer[4]=0x00;   
0DDF0:  CLRF   34
....................                RX_Buffer2[4]=0x00;             
0DDF2:  CLRF   3F
0DDF4:  MOVLB  0
....................                //BorraBuffer(); 
....................          } 
....................              
....................          if(RX_Buffer[4]==0x0b){//Tecla Abajo Oprimida             
0DDF6:  MOVF   34,W
0DDF8:  SUBLW  0B
0DDFA:  BNZ   DE0A
....................                if(Sensor[1].Ajusten>0) 
0DDFC:  MOVLB  5
0DDFE:  MOVF   x84,F
0DE00:  BZ    DE04
....................                   Sensor[1].Ajusten--; 
0DE02:  DECF   x84,F
....................                RX_Buffer[4]=0x00; 
0DE04:  CLRF   34
....................                RX_Buffer2[4]=0x00;             
0DE06:  CLRF   3F
0DE08:  MOVLB  0
....................                //BorraBuffer(); 
....................          } 
....................       }else if(Opcion2==7){ 
0DE0A:  BRA    E260
0DE0C:  MOVLB  3
0DE0E:  MOVF   x57,W
0DE10:  SUBLW  07
0DE12:  BNZ   DE8E
....................          printf("Config.t2c.txt=\"Media\""); 
0DE14:  MOVLW  EA
0DE16:  MOVWF  FF6
0DE18:  MOVLW  1D
0DE1A:  MOVWF  FF7
0DE1C:  MOVLW  00
0DE1E:  MOVWF  FF8
0DE20:  MOVLB  0
0DE22:  CALL   3E66
....................          SendDataDisplay();       
0DE26:  CALL   3E98
....................          printf("t3c.txt=\"%u\"",MediaMovil); 
0DE2A:  MOVLW  02
0DE2C:  MOVWF  FF6
0DE2E:  MOVLW  1E
0DE30:  MOVWF  FF7
0DE32:  MOVLW  00
0DE34:  MOVWF  FF8
0DE36:  MOVLW  09
0DE38:  MOVLB  7
0DE3A:  MOVWF  xBE
0DE3C:  MOVLB  0
0DE3E:  CALL   55F4
0DE42:  MOVFF  2D3,7BE
0DE46:  MOVLW  1B
0DE48:  MOVLB  7
0DE4A:  MOVWF  xBF
0DE4C:  MOVLB  0
0DE4E:  CALL   58E0
0DE52:  MOVLW  22
0DE54:  BTFSS  F9E.4
0DE56:  BRA    DE54
0DE58:  MOVWF  FAD
....................          SendDataDisplay(); 
0DE5A:  CALL   3E98
....................          if(RX_Buffer[4]==0x0a){//Tecla Arriba Oprimida 
0DE5E:  MOVF   34,W
0DE60:  SUBLW  0A
0DE62:  BNZ   DE74
....................                if(MediaMovil<80) 
0DE64:  MOVLB  2
0DE66:  MOVF   xD3,W
0DE68:  SUBLW  4F
0DE6A:  BNC   DE6E
....................                   MediaMovil++; 
0DE6C:  INCF   xD3,F
....................                RX_Buffer[4]=0x00;   
0DE6E:  CLRF   34
....................                RX_Buffer2[4]=0x00;             
0DE70:  CLRF   3F
0DE72:  MOVLB  0
....................                //BorraBuffer(); 
....................          } 
....................              
....................          if(RX_Buffer[4]==0x0b){//Tecla Abajo Oprimida 
0DE74:  MOVF   34,W
0DE76:  SUBLW  0B
0DE78:  BNZ   DE8A
....................                if(MediaMovil>10) 
0DE7A:  MOVLB  2
0DE7C:  MOVF   xD3,W
0DE7E:  SUBLW  0A
0DE80:  BC    DE84
....................                   MediaMovil--; 
0DE82:  DECF   xD3,F
....................                RX_Buffer[4]=0x00; 
0DE84:  CLRF   34
....................                RX_Buffer2[4]=0x00;             
0DE86:  CLRF   3F
0DE88:  MOVLB  0
....................                //BorraBuffer();             
....................          } 
....................       }else if(Opcion2==8){ 
0DE8A:  BRA    E260
0DE8C:  MOVLB  3
0DE8E:  MOVF   x57,W
0DE90:  SUBLW  08
0DE92:  BNZ   DF12
....................          printf("Config.t2c.txt=\"Derivativo\""); 
0DE94:  MOVLW  10
0DE96:  MOVWF  FF6
0DE98:  MOVLW  1E
0DE9A:  MOVWF  FF7
0DE9C:  MOVLW  00
0DE9E:  MOVWF  FF8
0DEA0:  MOVLB  0
0DEA2:  CALL   3E66
....................          SendDataDisplay();       
0DEA6:  CALL   3E98
....................          printf("t3c.txt=\"%02u\"",Derivativo); 
0DEAA:  MOVLW  2C
0DEAC:  MOVWF  FF6
0DEAE:  MOVLW  1E
0DEB0:  MOVWF  FF7
0DEB2:  MOVLW  00
0DEB4:  MOVWF  FF8
0DEB6:  MOVLW  09
0DEB8:  MOVLB  7
0DEBA:  MOVWF  xBE
0DEBC:  MOVLB  0
0DEBE:  CALL   55F4
0DEC2:  MOVFF  331,7BE
0DEC6:  MOVLW  01
0DEC8:  MOVLB  7
0DECA:  MOVWF  xBF
0DECC:  MOVLB  0
0DECE:  CALL   58E0
0DED2:  MOVLW  22
0DED4:  BTFSS  F9E.4
0DED6:  BRA    DED4
0DED8:  MOVWF  FAD
....................          SendDataDisplay(); 
0DEDA:  CALL   3E98
....................          if(RX_Buffer[4]==0x0a ){//Tecla Arriba Oprimida 
0DEDE:  MOVF   34,W
0DEE0:  SUBLW  0A
0DEE2:  BNZ   DEEE
....................                Derivativo++; 
0DEE4:  MOVLB  3
0DEE6:  INCF   x31,F
....................                RX_Buffer[4]=0x00;   
0DEE8:  CLRF   34
....................                RX_Buffer2[4]=0x00;             
0DEEA:  CLRF   3F
0DEEC:  MOVLB  0
....................                //BorraBuffer();  
....................          } 
....................              
....................          if(RX_Buffer[4]==0x0b){//Tecla Abajo Oprimida 
0DEEE:  MOVF   34,W
0DEF0:  SUBLW  0B
0DEF2:  BNZ   DEFC
....................                Derivativo--; 
0DEF4:  MOVLB  3
0DEF6:  DECF   x31,F
....................                RX_Buffer[4]=0x00; 
0DEF8:  CLRF   34
....................                RX_Buffer2[4]=0x00;             
0DEFA:  CLRF   3F
....................          } 
....................           
....................           
....................          if(Derivativo>40) 
0DEFC:  MOVLB  3
0DEFE:  MOVF   x31,W
0DF00:  SUBLW  28
0DF02:  BC    DF08
....................             Derivativo=1; 
0DF04:  MOVLW  01
0DF06:  MOVWF  x31
....................          if(Derivativo<1) 
0DF08:  MOVF   x31,F
0DF0A:  BNZ   DF10
....................             Derivativo=40; 
0DF0C:  MOVLW  28
0DF0E:  MOVWF  x31
....................       }else if(Opcion2==9){ 
0DF10:  BRA    E260
0DF12:  MOVF   x57,W
0DF14:  SUBLW  09
0DF16:  BNZ   DF96
....................          printf("Config.t2c.txt=\"Integral\""); 
0DF18:  MOVLW  3C
0DF1A:  MOVWF  FF6
0DF1C:  MOVLW  1E
0DF1E:  MOVWF  FF7
0DF20:  MOVLW  00
0DF22:  MOVWF  FF8
0DF24:  MOVLB  0
0DF26:  CALL   3E66
....................          SendDataDisplay();       
0DF2A:  CALL   3E98
....................          printf("t3c.txt=\"%02u\"",Integral); 
0DF2E:  MOVLW  56
0DF30:  MOVWF  FF6
0DF32:  MOVLW  1E
0DF34:  MOVWF  FF7
0DF36:  MOVLW  00
0DF38:  MOVWF  FF8
0DF3A:  MOVLW  09
0DF3C:  MOVLB  7
0DF3E:  MOVWF  xBE
0DF40:  MOVLB  0
0DF42:  CALL   55F4
0DF46:  MOVFF  330,7BE
0DF4A:  MOVLW  01
0DF4C:  MOVLB  7
0DF4E:  MOVWF  xBF
0DF50:  MOVLB  0
0DF52:  CALL   58E0
0DF56:  MOVLW  22
0DF58:  BTFSS  F9E.4
0DF5A:  BRA    DF58
0DF5C:  MOVWF  FAD
....................          SendDataDisplay(); 
0DF5E:  CALL   3E98
....................          if(RX_Buffer[4]==0x0a){//Tecla Arriba Oprimida 
0DF62:  MOVF   34,W
0DF64:  SUBLW  0A
0DF66:  BNZ   DF72
....................                Integral++; 
0DF68:  MOVLB  3
0DF6A:  INCF   x30,F
....................                RX_Buffer[4]=0x00;   
0DF6C:  CLRF   34
....................                RX_Buffer2[4]=0x00;             
0DF6E:  CLRF   3F
0DF70:  MOVLB  0
....................                //BorraBuffer(); 
....................          } 
....................              
....................          if(RX_Buffer[4]==0x0b){//Tecla Abajo Oprimida 
0DF72:  MOVF   34,W
0DF74:  SUBLW  0B
0DF76:  BNZ   DF80
....................                Integral--; 
0DF78:  MOVLB  3
0DF7A:  DECF   x30,F
....................                RX_Buffer[4]=0x00; 
0DF7C:  CLRF   34
....................                RX_Buffer2[4]=0x00;             
0DF7E:  CLRF   3F
....................                //BorraBuffer(); 
....................          } 
....................           
....................          if(Integral>40) 
0DF80:  MOVLB  3
0DF82:  MOVF   x30,W
0DF84:  SUBLW  28
0DF86:  BC    DF8C
....................             Integral=1; 
0DF88:  MOVLW  01
0DF8A:  MOVWF  x30
....................          if(Integral<1) 
0DF8C:  MOVF   x30,F
0DF8E:  BNZ   DF94
....................             Integral=40; 
0DF90:  MOVLW  28
0DF92:  MOVWF  x30
....................       }else if(Opcion2==10){ 
0DF94:  BRA    E260
0DF96:  MOVF   x57,W
0DF98:  SUBLW  0A
0DF9A:  BTFSS  FD8.2
0DF9C:  BRA    E0B8
....................          printf("Config.t2c.txt=\"Ciclos\""); 
0DF9E:  MOVLW  66
0DFA0:  MOVWF  FF6
0DFA2:  MOVLW  1E
0DFA4:  MOVWF  FF7
0DFA6:  MOVLW  00
0DFA8:  MOVWF  FF8
0DFAA:  MOVLB  0
0DFAC:  CALL   3E66
....................          SendDataDisplay();       
0DFB0:  CALL   3E98
....................          printf("t3c.txt=\"%05Lu\"",Ciclos); 
0DFB4:  MOVLW  7E
0DFB6:  MOVWF  FF6
0DFB8:  MOVLW  1E
0DFBA:  MOVWF  FF7
0DFBC:  MOVLW  00
0DFBE:  MOVWF  FF8
0DFC0:  MOVLW  09
0DFC2:  MOVLB  7
0DFC4:  MOVWF  xBE
0DFC6:  MOVLB  0
0DFC8:  CALL   55F4
0DFCC:  MOVLW  08
0DFCE:  MOVWF  FE9
0DFD0:  MOVFF  36C,7BE
0DFD4:  MOVFF  36B,7BD
0DFD8:  CALL   59D4
0DFDC:  MOVLW  22
0DFDE:  BTFSS  F9E.4
0DFE0:  BRA    DFDE
0DFE2:  MOVWF  FAD
....................          SendDataDisplay(); 
0DFE4:  CALL   3E98
....................          if(UPD && DND){ 
0DFE8:  BSF    F93.0
0DFEA:  BTFSC  F81.0
0DFEC:  BRA    E0B2
0DFEE:  BSF    F93.1
0DFF0:  BTFSC  F81.1
0DFF2:  BRA    E0B2
....................             delay_ms(1000); 
0DFF4:  MOVLW  04
0DFF6:  MOVLB  7
0DFF8:  MOVWF  xB9
0DFFA:  MOVLW  FA
0DFFC:  MOVWF  xC9
0DFFE:  MOVLB  0
0E000:  CALL   1FA0
0E004:  MOVLB  7
0E006:  DECFSZ xB9,F
0E008:  BRA    DFFA
....................             if(UPD && DND){ 
0E00A:  BSF    F93.0
0E00C:  BTFSC  F81.0
0E00E:  BRA    E0B4
0E010:  BSF    F93.1
0E012:  BTFSC  F81.1
0E014:  BRA    E0B4
....................                Buzzer_on; 
0E016:  BSF    F8C.7
0E018:  BCF    F95.7
....................                delay_ms(100); 
0E01A:  MOVLW  64
0E01C:  MOVWF  xC9
0E01E:  MOVLB  0
0E020:  CALL   1FA0
....................                Buzzer_off; 
0E024:  BCF    F8C.7
0E026:  BCF    F95.7
....................                Buzzer_on; 
0E028:  BSF    F8C.7
0E02A:  BCF    F95.7
....................                delay_ms(100); 
0E02C:  MOVLW  64
0E02E:  MOVLB  7
0E030:  MOVWF  xC9
0E032:  MOVLB  0
0E034:  CALL   1FA0
....................                Buzzer_off; 
0E038:  BCF    F8C.7
0E03A:  BCF    F95.7
....................                Ciclos=0; 
0E03C:  MOVLB  3
0E03E:  CLRF   x6C
0E040:  CLRF   x6B
....................                write_eeprom(37,0); 
0E042:  CLRF   FAA
0E044:  MOVLW  25
0E046:  MOVWF  FA9
0E048:  CLRF   FA8
0E04A:  BCF    FA6.6
0E04C:  BCF    FA6.7
0E04E:  BSF    FA6.2
0E050:  MOVF   FF2,W
0E052:  MOVWF  00
0E054:  BCF    FF2.6
0E056:  BCF    FF2.7
0E058:  MOVLB  F
0E05A:  MOVLW  55
0E05C:  MOVWF  FA7
0E05E:  MOVLW  AA
0E060:  MOVWF  FA7
0E062:  BSF    FA6.1
0E064:  BTFSC  FA6.1
0E066:  BRA    E064
0E068:  BCF    FA6.2
0E06A:  MOVF   00,W
0E06C:  IORWF  FF2,F
....................                delay_ms(10); 
0E06E:  MOVLW  0A
0E070:  MOVLB  7
0E072:  MOVWF  xC9
0E074:  MOVLB  0
0E076:  CALL   1FA0
....................                write_eeprom(38,0); 
0E07A:  CLRF   FAA
0E07C:  MOVLW  26
0E07E:  MOVWF  FA9
0E080:  CLRF   FA8
0E082:  BCF    FA6.6
0E084:  BCF    FA6.7
0E086:  BSF    FA6.2
0E088:  MOVF   FF2,W
0E08A:  MOVWF  00
0E08C:  BCF    FF2.6
0E08E:  BCF    FF2.7
0E090:  MOVLB  F
0E092:  MOVLW  55
0E094:  MOVWF  FA7
0E096:  MOVLW  AA
0E098:  MOVWF  FA7
0E09A:  BSF    FA6.1
0E09C:  BTFSC  FA6.1
0E09E:  BRA    E09C
0E0A0:  BCF    FA6.2
0E0A2:  MOVF   00,W
0E0A4:  IORWF  FF2,F
....................                delay_ms(10); 
0E0A6:  MOVLW  0A
0E0A8:  MOVLB  7
0E0AA:  MOVWF  xC9
0E0AC:  MOVLB  0
0E0AE:  CALL   1FA0
0E0B2:  MOVLB  7
....................             } 
....................          } 
....................       }else if(Opcion2==11){ 
0E0B4:  BRA    E262
0E0B6:  MOVLB  3
0E0B8:  MOVF   x57,W
0E0BA:  SUBLW  0B
0E0BC:  BNZ   E138
....................          printf("Config.t2c.txt=\"Atmosferica\""); 
0E0BE:  MOVLW  8E
0E0C0:  MOVWF  FF6
0E0C2:  MOVLW  1E
0E0C4:  MOVWF  FF7
0E0C6:  MOVLW  00
0E0C8:  MOVWF  FF8
0E0CA:  MOVLB  0
0E0CC:  CALL   3E66
....................          SendDataDisplay();       
0E0D0:  CALL   3E98
....................          printf("t3c.txt=\"%03u\"",Atmosferica); 
0E0D4:  MOVLW  AC
0E0D6:  MOVWF  FF6
0E0D8:  MOVLW  1E
0E0DA:  MOVWF  FF7
0E0DC:  MOVLW  00
0E0DE:  MOVWF  FF8
0E0E0:  MOVLW  09
0E0E2:  MOVLB  7
0E0E4:  MOVWF  xBE
0E0E6:  MOVLB  0
0E0E8:  CALL   55F4
0E0EC:  MOVFF  33A,7BE
0E0F0:  MOVLW  03
0E0F2:  MOVLB  7
0E0F4:  MOVWF  xBF
0E0F6:  MOVLB  0
0E0F8:  CALL   58E0
0E0FC:  MOVLW  22
0E0FE:  BTFSS  F9E.4
0E100:  BRA    E0FE
0E102:  MOVWF  FAD
....................          SendDataDisplay(); 
0E104:  CALL   3E98
....................          if(RX_Buffer[4]==0x0a){//Tecla Arriba Oprimida 
0E108:  MOVF   34,W
0E10A:  SUBLW  0A
0E10C:  BNZ   E11E
....................                if(Atmosferica<100) 
0E10E:  MOVLB  3
0E110:  MOVF   x3A,W
0E112:  SUBLW  63
0E114:  BNC   E118
....................                   ++Atmosferica; 
0E116:  INCF   x3A,F
....................                RX_Buffer[4]=0x00;   
0E118:  CLRF   34
....................                RX_Buffer2[4]=0x00;             
0E11A:  CLRF   3F
0E11C:  MOVLB  0
....................                //BorraBuffer(); 
....................          } 
....................              
....................          if(RX_Buffer[4]==0x0b){//Tecla Abajo Oprimida 
0E11E:  MOVF   34,W
0E120:  SUBLW  0B
0E122:  BNZ   E134
....................                if(Atmosferica>50) 
0E124:  MOVLB  3
0E126:  MOVF   x3A,W
0E128:  SUBLW  32
0E12A:  BC    E12E
....................                   --Atmosferica; 
0E12C:  DECF   x3A,F
....................                RX_Buffer[4]=0x00; 
0E12E:  CLRF   34
....................                RX_Buffer2[4]=0x00;             
0E130:  CLRF   3F
0E132:  MOVLB  0
....................                //BorraBuffer(); 
....................          } 
....................       }else if(Opcion2==12){ 
0E134:  BRA    E260
0E136:  MOVLB  3
0E138:  MOVF   x57,W
0E13A:  SUBLW  0C
0E13C:  BNZ   E1B8
....................          printf("Config.t2c.txt=\"T. Apertura\""); 
0E13E:  MOVLW  BC
0E140:  MOVWF  FF6
0E142:  MOVLW  1E
0E144:  MOVWF  FF7
0E146:  MOVLW  00
0E148:  MOVWF  FF8
0E14A:  MOVLB  0
0E14C:  CALL   3E66
....................          SendDataDisplay();       
0E150:  CALL   3E98
....................          printf("t3c.txt=\"%03u\"",Tapertura); 
0E154:  MOVLW  DA
0E156:  MOVWF  FF6
0E158:  MOVLW  1E
0E15A:  MOVWF  FF7
0E15C:  MOVLW  00
0E15E:  MOVWF  FF8
0E160:  MOVLW  09
0E162:  MOVLB  7
0E164:  MOVWF  xBE
0E166:  MOVLB  0
0E168:  CALL   55F4
0E16C:  MOVFF  2D7,7BE
0E170:  MOVLW  03
0E172:  MOVLB  7
0E174:  MOVWF  xBF
0E176:  MOVLB  0
0E178:  CALL   58E0
0E17C:  MOVLW  22
0E17E:  BTFSS  F9E.4
0E180:  BRA    E17E
0E182:  MOVWF  FAD
....................          SendDataDisplay(); 
0E184:  CALL   3E98
....................          if(RX_Buffer[4]==0x0a){//Tecla Arriba Oprimida 
0E188:  MOVF   34,W
0E18A:  SUBLW  0A
0E18C:  BNZ   E19E
....................                if(Tapertura<100) 
0E18E:  MOVLB  2
0E190:  MOVF   xD7,W
0E192:  SUBLW  63
0E194:  BNC   E198
....................                   ++Tapertura; 
0E196:  INCF   xD7,F
....................                RX_Buffer[4]=0x00;   
0E198:  CLRF   34
....................                RX_Buffer2[4]=0x00;             
0E19A:  CLRF   3F
0E19C:  MOVLB  0
....................                //BorraBuffer(); 
....................          } 
....................              
....................          if(RX_Buffer[4]==0x0b){//Tecla Abajo Oprimida 
0E19E:  MOVF   34,W
0E1A0:  SUBLW  0B
0E1A2:  BNZ   E1B4
....................                if(Tapertura>50) 
0E1A4:  MOVLB  2
0E1A6:  MOVF   xD7,W
0E1A8:  SUBLW  32
0E1AA:  BC    E1AE
....................                   --Tapertura; 
0E1AC:  DECF   xD7,F
....................                RX_Buffer[4]=0x00; 
0E1AE:  CLRF   34
....................                RX_Buffer2[4]=0x00;             
0E1B0:  CLRF   3F
0E1B2:  MOVLB  0
....................                //BorraBuffer();            
....................          } 
....................       }else if(Opcion2==13){ 
0E1B4:  BRA    E260
0E1B6:  MOVLB  3
0E1B8:  MOVF   x57,W
0E1BA:  SUBLW  0D
0E1BC:  BNZ   E260
....................          printf("Config.t2c.txt=\"TTrampa\""); 
0E1BE:  MOVLW  EA
0E1C0:  MOVWF  FF6
0E1C2:  MOVLW  1E
0E1C4:  MOVWF  FF7
0E1C6:  MOVLW  00
0E1C8:  MOVWF  FF8
0E1CA:  MOVLB  0
0E1CC:  CALL   3E66
....................          SendDataDisplay();       
0E1D0:  CALL   3E98
....................          printf("t3c.txt=\"%02u\"",TTrampa); 
0E1D4:  MOVLW  04
0E1D6:  MOVWF  FF6
0E1D8:  MOVLW  1F
0E1DA:  MOVWF  FF7
0E1DC:  MOVLW  00
0E1DE:  MOVWF  FF8
0E1E0:  MOVLW  09
0E1E2:  MOVLB  7
0E1E4:  MOVWF  xBE
0E1E6:  MOVLB  0
0E1E8:  CALL   55F4
0E1EC:  MOVFF  CE,7BE
0E1F0:  MOVLW  01
0E1F2:  MOVLB  7
0E1F4:  MOVWF  xBF
0E1F6:  MOVLB  0
0E1F8:  CALL   58E0
0E1FC:  MOVLW  22
0E1FE:  BTFSS  F9E.4
0E200:  BRA    E1FE
0E202:  MOVWF  FAD
....................          SendDataDisplay(); 
0E204:  CALL   3E98
....................          if(RX_Buffer[4]==0x0a || UP){//Tecla Arriba Oprimida 
0E208:  MOVF   34,W
0E20A:  SUBLW  0A
0E20C:  BZ    E212
0E20E:  BTFSS  xA0.0
0E210:  BRA    E234
....................             delay_ms(20); 
0E212:  MOVLW  14
0E214:  MOVLB  7
0E216:  MOVWF  xC9
0E218:  MOVLB  0
0E21A:  CALL   1FA0
....................             if(RX_Buffer[4]==0x0a || UP){ 
0E21E:  MOVF   34,W
0E220:  SUBLW  0A
0E222:  BZ    E228
0E224:  BTFSS  xA0.0
0E226:  BRA    E234
....................                if(TTrampa<100) 
0E228:  MOVF   xCE,W
0E22A:  SUBLW  63
0E22C:  BNC   E230
....................                   TTrampa++; 
0E22E:  INCF   xCE,F
....................                RX_Buffer[4]=0x00;   
0E230:  CLRF   34
....................                RX_Buffer2[4]=0x00;             
0E232:  CLRF   3F
....................                //BorraBuffer(); 
....................             } 
....................          } 
....................              
....................          if(RX_Buffer[4]==0x0b || DOWN){//Tecla Abajo Oprimida 
0E234:  MOVF   34,W
0E236:  SUBLW  0B
0E238:  BZ    E23E
0E23A:  BTFSS  xA0.1
0E23C:  BRA    E260
....................             delay_ms(20); 
0E23E:  MOVLW  14
0E240:  MOVLB  7
0E242:  MOVWF  xC9
0E244:  MOVLB  0
0E246:  CALL   1FA0
....................             if(RX_Buffer[4]==0x0b || DOWN){ 
0E24A:  MOVF   34,W
0E24C:  SUBLW  0B
0E24E:  BZ    E254
0E250:  BTFSS  xA0.1
0E252:  BRA    E260
....................                if(TTrampa>50) 
0E254:  MOVF   xCE,W
0E256:  SUBLW  32
0E258:  BC    E25C
....................                   TTrampa--; 
0E25A:  DECF   xCE,F
....................                RX_Buffer[4]=0x00; 
0E25C:  CLRF   34
....................                RX_Buffer2[4]=0x00;             
0E25E:  CLRF   3F
0E260:  MOVLB  7
....................                //BorraBuffer(); 
....................             } 
....................          } 
....................       } 
....................        
....................       if(RX_Buffer[4]==0x0c){//Tecla Izquierda Oprimida 
0E262:  MOVF   34,W
0E264:  SUBLW  0C
0E266:  BNZ   E272
....................             Opcion2++; 
0E268:  MOVLB  3
0E26A:  INCF   x57,F
....................             RX_Buffer[4]=0x00;   
0E26C:  CLRF   34
....................             RX_Buffer2[4]=0x00;             
0E26E:  CLRF   3F
0E270:  MOVLB  7
....................             //BorraBuffer();    
....................       } 
....................           
....................       if(RX_Buffer[4]==0x0d){//Tecla Derecha Oprimida          
0E272:  MOVF   34,W
0E274:  SUBLW  0D
0E276:  BNZ   E282
....................             Opcion2--; 
0E278:  MOVLB  3
0E27A:  DECF   x57,F
....................             RX_Buffer[4]=0x00; 
0E27C:  CLRF   34
....................             RX_Buffer2[4]=0x00;             
0E27E:  CLRF   3F
0E280:  MOVLB  7
....................             //BorraBuffer(); 
....................       } 
....................        
....................       if(RX_Buffer[4]==0x11){//Tecla Regresar 
0E282:  MOVF   34,W
0E284:  SUBLW  11
0E286:  BTFSS  FD8.2
0E288:  BRA    E5A0
....................          delay_ms(20); 
0E28A:  MOVLW  14
0E28C:  MOVWF  xC9
0E28E:  MOVLB  0
0E290:  CALL   1FA0
....................          if(RX_Buffer[4]==0x11){ 
0E294:  MOVF   34,W
0E296:  SUBLW  11
0E298:  BTFSS  FD8.2
0E29A:  BRA    E59E
....................             if(!GuardaEEPROM){ 
0E29C:  BTFSC  xA3.3
0E29E:  BRA    E58A
....................                write_eeprom(20,(int8)Ganancia); 
0E2A0:  MOVFF  2FB,7CE
0E2A4:  MOVFF  2FA,7CD
0E2A8:  MOVFF  2F9,7CC
0E2AC:  MOVFF  2F8,7CB
0E2B0:  CALL   4B1E
0E2B4:  MOVFF  01,7B9
0E2B8:  CLRF   FAA
0E2BA:  MOVLW  14
0E2BC:  MOVWF  FA9
0E2BE:  MOVFF  7B9,FA8
0E2C2:  BCF    FA6.6
0E2C4:  BCF    FA6.7
0E2C6:  BSF    FA6.2
0E2C8:  MOVF   FF2,W
0E2CA:  MOVWF  00
0E2CC:  BCF    FF2.6
0E2CE:  BCF    FF2.7
0E2D0:  MOVLB  F
0E2D2:  MOVLW  55
0E2D4:  MOVWF  FA7
0E2D6:  MOVLW  AA
0E2D8:  MOVWF  FA7
0E2DA:  BSF    FA6.1
0E2DC:  BTFSC  FA6.1
0E2DE:  BRA    E2DC
0E2E0:  BCF    FA6.2
0E2E2:  MOVF   00,W
0E2E4:  IORWF  FF2,F
....................                delay_ms(10); 
0E2E6:  MOVLW  0A
0E2E8:  MOVLB  7
0E2EA:  MOVWF  xC9
0E2EC:  MOVLB  0
0E2EE:  CALL   1FA0
....................                write_eeprom(21,Sensor[0].Ajuste); 
0E2F2:  CLRF   FAA
0E2F4:  MOVLW  15
0E2F6:  MOVWF  FA9
0E2F8:  MOVFF  41F,FA8
0E2FC:  BCF    FA6.6
0E2FE:  BCF    FA6.7
0E300:  BSF    FA6.2
0E302:  MOVF   FF2,W
0E304:  MOVWF  00
0E306:  BCF    FF2.6
0E308:  BCF    FF2.7
0E30A:  MOVLB  F
0E30C:  MOVLW  55
0E30E:  MOVWF  FA7
0E310:  MOVLW  AA
0E312:  MOVWF  FA7
0E314:  BSF    FA6.1
0E316:  BTFSC  FA6.1
0E318:  BRA    E316
0E31A:  BCF    FA6.2
0E31C:  MOVF   00,W
0E31E:  IORWF  FF2,F
....................                delay_ms(10); 
0E320:  MOVLW  0A
0E322:  MOVLB  7
0E324:  MOVWF  xC9
0E326:  MOVLB  0
0E328:  CALL   1FA0
....................                write_eeprom(22,Sensor[0].Ajusten); 
0E32C:  CLRF   FAA
0E32E:  MOVLW  16
0E330:  MOVWF  FA9
0E332:  MOVFF  420,FA8
0E336:  BCF    FA6.6
0E338:  BCF    FA6.7
0E33A:  BSF    FA6.2
0E33C:  MOVF   FF2,W
0E33E:  MOVWF  00
0E340:  BCF    FF2.6
0E342:  BCF    FF2.7
0E344:  MOVLB  F
0E346:  MOVLW  55
0E348:  MOVWF  FA7
0E34A:  MOVLW  AA
0E34C:  MOVWF  FA7
0E34E:  BSF    FA6.1
0E350:  BTFSC  FA6.1
0E352:  BRA    E350
0E354:  BCF    FA6.2
0E356:  MOVF   00,W
0E358:  IORWF  FF2,F
....................                delay_ms(10); 
0E35A:  MOVLW  0A
0E35C:  MOVLB  7
0E35E:  MOVWF  xC9
0E360:  MOVLB  0
0E362:  CALL   1FA0
....................                write_eeprom(23,Sensor[1].Ajuste); 
0E366:  CLRF   FAA
0E368:  MOVLW  17
0E36A:  MOVWF  FA9
0E36C:  MOVFF  583,FA8
0E370:  BCF    FA6.6
0E372:  BCF    FA6.7
0E374:  BSF    FA6.2
0E376:  MOVF   FF2,W
0E378:  MOVWF  00
0E37A:  BCF    FF2.6
0E37C:  BCF    FF2.7
0E37E:  MOVLB  F
0E380:  MOVLW  55
0E382:  MOVWF  FA7
0E384:  MOVLW  AA
0E386:  MOVWF  FA7
0E388:  BSF    FA6.1
0E38A:  BTFSC  FA6.1
0E38C:  BRA    E38A
0E38E:  BCF    FA6.2
0E390:  MOVF   00,W
0E392:  IORWF  FF2,F
....................                delay_ms(10); 
0E394:  MOVLW  0A
0E396:  MOVLB  7
0E398:  MOVWF  xC9
0E39A:  MOVLB  0
0E39C:  CALL   1FA0
....................                write_eeprom(24,Sensor[1].Ajusten); 
0E3A0:  CLRF   FAA
0E3A2:  MOVLW  18
0E3A4:  MOVWF  FA9
0E3A6:  MOVFF  584,FA8
0E3AA:  BCF    FA6.6
0E3AC:  BCF    FA6.7
0E3AE:  BSF    FA6.2
0E3B0:  MOVF   FF2,W
0E3B2:  MOVWF  00
0E3B4:  BCF    FF2.6
0E3B6:  BCF    FF2.7
0E3B8:  MOVLB  F
0E3BA:  MOVLW  55
0E3BC:  MOVWF  FA7
0E3BE:  MOVLW  AA
0E3C0:  MOVWF  FA7
0E3C2:  BSF    FA6.1
0E3C4:  BTFSC  FA6.1
0E3C6:  BRA    E3C4
0E3C8:  BCF    FA6.2
0E3CA:  MOVF   00,W
0E3CC:  IORWF  FF2,F
....................                delay_ms(10); 
0E3CE:  MOVLW  0A
0E3D0:  MOVLB  7
0E3D2:  MOVWF  xC9
0E3D4:  MOVLB  0
0E3D6:  CALL   1FA0
....................                write_eeprom(25,(int8)MediaMovil); 
0E3DA:  CLRF   FAA
0E3DC:  MOVLW  19
0E3DE:  MOVWF  FA9
0E3E0:  MOVFF  2D3,FA8
0E3E4:  BCF    FA6.6
0E3E6:  BCF    FA6.7
0E3E8:  BSF    FA6.2
0E3EA:  MOVF   FF2,W
0E3EC:  MOVWF  00
0E3EE:  BCF    FF2.6
0E3F0:  BCF    FF2.7
0E3F2:  MOVLB  F
0E3F4:  MOVLW  55
0E3F6:  MOVWF  FA7
0E3F8:  MOVLW  AA
0E3FA:  MOVWF  FA7
0E3FC:  BSF    FA6.1
0E3FE:  BTFSC  FA6.1
0E400:  BRA    E3FE
0E402:  BCF    FA6.2
0E404:  MOVF   00,W
0E406:  IORWF  FF2,F
....................                delay_ms(10); 
0E408:  MOVLW  0A
0E40A:  MOVLB  7
0E40C:  MOVWF  xC9
0E40E:  MOVLB  0
0E410:  CALL   1FA0
....................                write_eeprom(26,(int8)Tciclo); 
0E414:  MOVFF  2E3,7CE
0E418:  MOVFF  2E2,7CD
0E41C:  MOVFF  2E1,7CC
0E420:  MOVFF  2E0,7CB
0E424:  CALL   4B1E
0E428:  MOVFF  01,7B9
0E42C:  CLRF   FAA
0E42E:  MOVLW  1A
0E430:  MOVWF  FA9
0E432:  MOVFF  7B9,FA8
0E436:  BCF    FA6.6
0E438:  BCF    FA6.7
0E43A:  BSF    FA6.2
0E43C:  MOVF   FF2,W
0E43E:  MOVWF  00
0E440:  BCF    FF2.6
0E442:  BCF    FF2.7
0E444:  MOVLB  F
0E446:  MOVLW  55
0E448:  MOVWF  FA7
0E44A:  MOVLW  AA
0E44C:  MOVWF  FA7
0E44E:  BSF    FA6.1
0E450:  BTFSC  FA6.1
0E452:  BRA    E450
0E454:  BCF    FA6.2
0E456:  MOVF   00,W
0E458:  IORWF  FF2,F
....................                delay_ms(10); 
0E45A:  MOVLW  0A
0E45C:  MOVLB  7
0E45E:  MOVWF  xC9
0E460:  MOVLB  0
0E462:  CALL   1FA0
....................                write_eeprom(27,(int8)Integral); 
0E466:  CLRF   FAA
0E468:  MOVLW  1B
0E46A:  MOVWF  FA9
0E46C:  MOVFF  330,FA8
0E470:  BCF    FA6.6
0E472:  BCF    FA6.7
0E474:  BSF    FA6.2
0E476:  MOVF   FF2,W
0E478:  MOVWF  00
0E47A:  BCF    FF2.6
0E47C:  BCF    FF2.7
0E47E:  MOVLB  F
0E480:  MOVLW  55
0E482:  MOVWF  FA7
0E484:  MOVLW  AA
0E486:  MOVWF  FA7
0E488:  BSF    FA6.1
0E48A:  BTFSC  FA6.1
0E48C:  BRA    E48A
0E48E:  BCF    FA6.2
0E490:  MOVF   00,W
0E492:  IORWF  FF2,F
....................                delay_ms(10); 
0E494:  MOVLW  0A
0E496:  MOVLB  7
0E498:  MOVWF  xC9
0E49A:  MOVLB  0
0E49C:  CALL   1FA0
....................                write_eeprom(28,(int8)Derivativo); 
0E4A0:  CLRF   FAA
0E4A2:  MOVLW  1C
0E4A4:  MOVWF  FA9
0E4A6:  MOVFF  331,FA8
0E4AA:  BCF    FA6.6
0E4AC:  BCF    FA6.7
0E4AE:  BSF    FA6.2
0E4B0:  MOVF   FF2,W
0E4B2:  MOVWF  00
0E4B4:  BCF    FF2.6
0E4B6:  BCF    FF2.7
0E4B8:  MOVLB  F
0E4BA:  MOVLW  55
0E4BC:  MOVWF  FA7
0E4BE:  MOVLW  AA
0E4C0:  MOVWF  FA7
0E4C2:  BSF    FA6.1
0E4C4:  BTFSC  FA6.1
0E4C6:  BRA    E4C4
0E4C8:  BCF    FA6.2
0E4CA:  MOVF   00,W
0E4CC:  IORWF  FF2,F
....................                delay_ms(10); 
0E4CE:  MOVLW  0A
0E4D0:  MOVLB  7
0E4D2:  MOVWF  xC9
0E4D4:  MOVLB  0
0E4D6:  CALL   1FA0
....................                write_eeprom(31,Atmosferica); 
0E4DA:  CLRF   FAA
0E4DC:  MOVLW  1F
0E4DE:  MOVWF  FA9
0E4E0:  MOVFF  33A,FA8
0E4E4:  BCF    FA6.6
0E4E6:  BCF    FA6.7
0E4E8:  BSF    FA6.2
0E4EA:  MOVF   FF2,W
0E4EC:  MOVWF  00
0E4EE:  BCF    FF2.6
0E4F0:  BCF    FF2.7
0E4F2:  MOVLB  F
0E4F4:  MOVLW  55
0E4F6:  MOVWF  FA7
0E4F8:  MOVLW  AA
0E4FA:  MOVWF  FA7
0E4FC:  BSF    FA6.1
0E4FE:  BTFSC  FA6.1
0E500:  BRA    E4FE
0E502:  BCF    FA6.2
0E504:  MOVF   00,W
0E506:  IORWF  FF2,F
....................                delay_ms(10); 
0E508:  MOVLW  0A
0E50A:  MOVLB  7
0E50C:  MOVWF  xC9
0E50E:  MOVLB  0
0E510:  CALL   1FA0
....................                write_eeprom(32,Tapertura); 
0E514:  CLRF   FAA
0E516:  MOVLW  20
0E518:  MOVWF  FA9
0E51A:  MOVFF  2D7,FA8
0E51E:  BCF    FA6.6
0E520:  BCF    FA6.7
0E522:  BSF    FA6.2
0E524:  MOVF   FF2,W
0E526:  MOVWF  00
0E528:  BCF    FF2.6
0E52A:  BCF    FF2.7
0E52C:  MOVLB  F
0E52E:  MOVLW  55
0E530:  MOVWF  FA7
0E532:  MOVLW  AA
0E534:  MOVWF  FA7
0E536:  BSF    FA6.1
0E538:  BTFSC  FA6.1
0E53A:  BRA    E538
0E53C:  BCF    FA6.2
0E53E:  MOVF   00,W
0E540:  IORWF  FF2,F
....................                delay_ms(10); 
0E542:  MOVLW  0A
0E544:  MOVLB  7
0E546:  MOVWF  xC9
0E548:  MOVLB  0
0E54A:  CALL   1FA0
....................                write_eeprom(39,TTrampa); 
0E54E:  CLRF   FAA
0E550:  MOVLW  27
0E552:  MOVWF  FA9
0E554:  MOVFF  CE,FA8
0E558:  BCF    FA6.6
0E55A:  BCF    FA6.7
0E55C:  BSF    FA6.2
0E55E:  MOVF   FF2,W
0E560:  MOVWF  00
0E562:  BCF    FF2.6
0E564:  BCF    FF2.7
0E566:  MOVLB  F
0E568:  MOVLW  55
0E56A:  MOVWF  FA7
0E56C:  MOVLW  AA
0E56E:  MOVWF  FA7
0E570:  BSF    FA6.1
0E572:  BTFSC  FA6.1
0E574:  BRA    E572
0E576:  BCF    FA6.2
0E578:  MOVF   00,W
0E57A:  IORWF  FF2,F
....................                delay_ms(10); 
0E57C:  MOVLW  0A
0E57E:  MOVLB  7
0E580:  MOVWF  xC9
0E582:  MOVLB  0
0E584:  CALL   1FA0
....................                GuardaEEPROM=ON; 
0E588:  BSF    xA3.3
....................             } 
....................             printf("page MenuPrincipal"); 
0E58A:  MOVLW  14
0E58C:  MOVWF  FF6
0E58E:  MOVLW  1F
0E590:  MOVWF  FF7
0E592:  MOVLW  00
0E594:  MOVWF  FF8
0E596:  CALL   3E66
....................             SendDataDisplay(); 
0E59A:  CALL   3E98
0E59E:  MOVLB  7
....................             //BorraBuffer(); 
....................          } 
....................       } 
....................       printf("fecha.txt=\"T:%2.1fC Fecha:%02u/%02u/20%02u Hora:%02u:%02u:%02u\"",Temperatura,Dia,Mes,Year,Hora,Minuto,Segundo); 
0E5A0:  MOVLW  28
0E5A2:  MOVWF  FF6
0E5A4:  MOVLW  1F
0E5A6:  MOVWF  FF7
0E5A8:  MOVLW  00
0E5AA:  MOVWF  FF8
0E5AC:  MOVLW  0D
0E5AE:  MOVWF  xBE
0E5B0:  MOVLB  0
0E5B2:  CALL   55F4
0E5B6:  MOVLW  01
0E5B8:  MOVWF  FE9
0E5BA:  MOVFF  31B,7C1
0E5BE:  MOVFF  31A,7C0
0E5C2:  MOVFF  319,7BF
0E5C6:  MOVFF  318,7BE
0E5CA:  MOVLB  7
0E5CC:  MOVWF  xC2
0E5CE:  MOVLB  0
0E5D0:  CALL   5710
0E5D4:  MOVLW  3A
0E5D6:  MOVWF  FF6
0E5D8:  MOVLW  1F
0E5DA:  MOVWF  FF7
0E5DC:  MOVLW  00
0E5DE:  MOVWF  FF8
0E5E0:  MOVLW  09
0E5E2:  MOVLB  7
0E5E4:  MOVWF  xBE
0E5E6:  MOVLB  0
0E5E8:  CALL   55F4
0E5EC:  MOVFF  386,7BE
0E5F0:  MOVLW  01
0E5F2:  MOVLB  7
0E5F4:  MOVWF  xBF
0E5F6:  MOVLB  0
0E5F8:  CALL   58E0
0E5FC:  MOVLW  2F
0E5FE:  BTFSS  F9E.4
0E600:  BRA    E5FE
0E602:  MOVWF  FAD
0E604:  MOVFF  385,7BE
0E608:  MOVLW  01
0E60A:  MOVLB  7
0E60C:  MOVWF  xBF
0E60E:  MOVLB  0
0E610:  CALL   58E0
0E614:  MOVLW  2F
0E616:  BTFSS  F9E.4
0E618:  BRA    E616
0E61A:  MOVWF  FAD
0E61C:  MOVLW  32
0E61E:  BTFSS  F9E.4
0E620:  BRA    E61E
0E622:  MOVWF  FAD
0E624:  MOVLW  30
0E626:  BTFSS  F9E.4
0E628:  BRA    E626
0E62A:  MOVWF  FAD
0E62C:  MOVFF  384,7BE
0E630:  MOVLW  01
0E632:  MOVLB  7
0E634:  MOVWF  xBF
0E636:  MOVLB  0
0E638:  CALL   58E0
0E63C:  MOVLW  53
0E63E:  MOVWF  FF6
0E640:  MOVLW  1F
0E642:  MOVWF  FF7
0E644:  MOVLW  00
0E646:  MOVWF  FF8
0E648:  MOVLW  06
0E64A:  MOVLB  7
0E64C:  MOVWF  xBE
0E64E:  MOVLB  0
0E650:  CALL   55F4
0E654:  MOVFF  387,7BE
0E658:  MOVLW  01
0E65A:  MOVLB  7
0E65C:  MOVWF  xBF
0E65E:  MOVLB  0
0E660:  CALL   58E0
0E664:  MOVLW  3A
0E666:  BTFSS  F9E.4
0E668:  BRA    E666
0E66A:  MOVWF  FAD
0E66C:  MOVFF  388,7BE
0E670:  MOVLW  01
0E672:  MOVLB  7
0E674:  MOVWF  xBF
0E676:  MOVLB  0
0E678:  CALL   58E0
0E67C:  MOVLW  3A
0E67E:  BTFSS  F9E.4
0E680:  BRA    E67E
0E682:  MOVWF  FAD
0E684:  MOVFF  389,7BE
0E688:  MOVLW  01
0E68A:  MOVLB  7
0E68C:  MOVWF  xBF
0E68E:  MOVLB  0
0E690:  CALL   58E0
0E694:  MOVLW  22
0E696:  BTFSS  F9E.4
0E698:  BRA    E696
0E69A:  MOVWF  FAD
....................       SendDataDisplay();  
0E69C:  CALL   3E98
....................     } 
.................... //_--------------------------------------------------------------------------------------------------------------------------------------------------------        
....................    } 
0E6A0:  MOVLB  0
0E6A2:  GOTO   83E6
.................... } 
0E6A6:  SLEEP 

Configuration Fuses:
   Word  1: 0200   HS NOIESO NOFCMEN
   Word  2: 1B1F   BROWNOUT WDT BORV20 NOPUT WDT8192
   Word  3: 0000   NOPBADEN NOLPT1OSC NOMCLR
   Word  4: 00B0   NOSTVREN NODEBUG NOLVP NOXINST BBSIZ4K
   Word  5: C03F   NOPROTECT NOCPD NOCPB
   Word  6: E03F   NOWRT NOWRTD NOWRTC NOWRTB
   Word  7: 403F   NOEBTR NOEBTRB
