CCS PCH C Compiler, Version 4.104, 5967               12-ene.-21 06:51

               Filename: D:\Laboratorio\Autoclave\Autoclave Horizontal\Sin Precamara\2019\Autoclave 23L con Vacio Peru #004588009 OP2019119\Firmware V4.3.1-Peru-ParamVacio\GLCD_Controller\GLCD_Controller.lst

               ROM used: 54434 bytes (55%)
                         Largest free fragment is 32768
               RAM used: 1695 (51%) at main() level
                         1722 (52%) worst case
               Stack:    5 worst case (4 in main + 1 for interrupts)

*
00000:  GOTO   649E
*
00008:  GOTO   00AE
0000C:  NOP   
0000E:  NOP   
00010:  NOP   
00012:  NOP   
00014:  NOP   
00016:  NOP   
00018:  MOVWF  04
0001A:  MOVFF  FD8,05
0001E:  MOVFF  FE0,06
00022:  MOVLB  0
00024:  MOVFF  FE9,0C
00028:  MOVFF  FEA,07
0002C:  MOVFF  FE1,08
00030:  MOVFF  FE2,09
00034:  MOVFF  FD9,0A
00038:  MOVFF  FDA,0B
0003C:  MOVFF  FF3,12
00040:  MOVFF  FF4,13
00044:  MOVFF  FFA,14
00048:  MOVFF  FFB,15
0004C:  MOVFF  00,0E
00050:  MOVFF  01,0F
00054:  MOVFF  02,10
00058:  MOVFF  03,11
0005C:  BTFSS  F9D.0
0005E:  GOTO   0068
00062:  BTFSC  F9E.0
00064:  GOTO   02CA
00068:  MOVFF  0E,00
0006C:  MOVFF  0F,01
00070:  MOVFF  10,02
00074:  MOVFF  11,03
00078:  MOVFF  0C,FE9
0007C:  MOVFF  07,FEA
00080:  BSF    07.7
00082:  MOVFF  08,FE1
00086:  MOVFF  09,FE2
0008A:  MOVFF  0A,FD9
0008E:  MOVFF  0B,FDA
00092:  MOVFF  12,FF3
00096:  MOVFF  13,FF4
0009A:  MOVFF  14,FFA
0009E:  MOVFF  15,FFB
000A2:  MOVF   04,W
000A4:  MOVFF  06,FE0
000A8:  MOVFF  05,FD8
000AC:  RETFIE 0
000AE:  MOVWF  17
000B0:  MOVFF  FD8,18
000B4:  MOVFF  FE0,19
000B8:  MOVLB  0
000BA:  MOVFF  FE9,1F
000BE:  MOVFF  FEA,1A
000C2:  MOVFF  FE1,1B
000C6:  MOVFF  FE2,1C
000CA:  MOVFF  FD9,1D
000CE:  MOVFF  FDA,1E
000D2:  MOVFF  FF3,25
000D6:  MOVFF  FF4,26
000DA:  MOVFF  FFA,27
000DE:  MOVFF  FFB,28
000E2:  MOVFF  00,21
000E6:  MOVFF  01,22
000EA:  MOVFF  02,23
000EE:  MOVFF  03,24
000F2:  BTFSS  F9D.5
000F4:  GOTO   00FE
000F8:  BTFSC  F9E.5
000FA:  GOTO   025C
000FE:  MOVFF  21,00
00102:  MOVFF  22,01
00106:  MOVFF  23,02
0010A:  MOVFF  24,03
0010E:  MOVFF  1F,FE9
00112:  MOVFF  1A,FEA
00116:  BSF    1A.7
00118:  MOVFF  1B,FE1
0011C:  MOVFF  1C,FE2
00120:  MOVFF  1D,FD9
00124:  MOVFF  1E,FDA
00128:  MOVFF  25,FF3
0012C:  MOVFF  26,FF4
00130:  MOVFF  27,FFA
00134:  MOVFF  28,FFB
00138:  MOVF   17,W
0013A:  MOVFF  19,FE0
0013E:  MOVFF  18,FD8
00142:  RETFIE 0
.................... //Falta crear menu de ajuste de variables y de norma CFR21 
....................  
.................... #include <18F4685.h> 
.................... //////// Standard Header file for the PIC18F4685 device //////////////// 
.................... #device PIC18F4685 
.................... #list 
....................  
.................... #device adc=10 
.................... #device HIGH_INTS=TRUE //Activamos niveles de prioridad 
.................... #fuses HS,WDT8192,NOPROTECT,NOLVP,NODEBUG,NOSTVREN,NOPUT,NOCPD,NOWRT,NOIESO,NOFCMEN,NOPBADEN,NOWRTC,NOWRTB,NOEBTR,NOEBTRB,NOCPB,NOXINST,NOLPT1OSC,NOMCLR 
.................... #use delay(clock=20000000) 
*
01D14:  MOVLW  06
01D16:  MOVWF  FEA
01D18:  MOVLW  A8
01D1A:  MOVWF  FE9
01D1C:  MOVF   FEF,W
01D1E:  BZ    1D3A
01D20:  MOVLW  06
01D22:  MOVWF  01
01D24:  CLRF   00
01D26:  DECFSZ 00,F
01D28:  BRA    1D26
01D2A:  DECFSZ 01,F
01D2C:  BRA    1D24
01D2E:  MOVLW  7B
01D30:  MOVWF  00
01D32:  DECFSZ 00,F
01D34:  BRA    1D32
01D36:  DECFSZ FEF,F
01D38:  BRA    1D20
01D3A:  RETLW  00
.................... #use i2c(Master,slow,sda=PIN_C4,scl=PIN_C3) 
*
04588:  MOVLW  08
0458A:  MOVWF  01
0458C:  MOVLW  05
0458E:  MOVWF  00
04590:  DECFSZ 00,F
04592:  BRA    4590
04594:  BCF    F8B.3
04596:  BCF    F94.3
04598:  MOVLW  06
0459A:  MOVWF  00
0459C:  DECFSZ 00,F
0459E:  BRA    459C
045A0:  MOVLB  6
045A2:  RLCF   xAC,F
045A4:  BCF    F8B.4
045A6:  BTFSC  FD8.0
045A8:  BSF    F94.4
045AA:  BTFSS  FD8.0
045AC:  BCF    F94.4
045AE:  BSF    F94.3
045B0:  BTFSS  F82.3
045B2:  BRA    45B0
045B4:  DECFSZ 01,F
045B6:  BRA    45BA
045B8:  BRA    45BE
045BA:  MOVLB  0
045BC:  BRA    458C
045BE:  MOVLW  05
045C0:  MOVWF  00
045C2:  DECFSZ 00,F
045C4:  BRA    45C2
045C6:  BCF    F8B.3
045C8:  BCF    F94.3
045CA:  NOP   
045CC:  BSF    F94.4
045CE:  MOVLW  06
045D0:  MOVWF  00
045D2:  DECFSZ 00,F
045D4:  BRA    45D2
045D6:  MOVLW  06
045D8:  MOVWF  00
045DA:  DECFSZ 00,F
045DC:  BRA    45DA
045DE:  BSF    F94.3
045E0:  BTFSS  F82.3
045E2:  BRA    45E0
045E4:  CLRF   01
045E6:  MOVLW  06
045E8:  MOVWF  00
045EA:  DECFSZ 00,F
045EC:  BRA    45EA
045EE:  BTFSC  F82.4
045F0:  BSF    01.0
045F2:  BCF    F8B.3
045F4:  BCF    F94.3
045F6:  BCF    F8B.4
045F8:  BCF    F94.4
045FA:  MOVLB  0
045FC:  RETLW  00
.................... #use rs232(baud=9600, xmit=PIN_C6, rcv=PIN_C7, bits=8, parity=N) 
*
037E4:  BTFSS  F9E.4
037E6:  BRA    37E4
037E8:  MOVWF  FAD
037EA:  RETLW  00
....................  
.................... #include <stdio.h> 
.................... /////////////////////////////////////////////////////////////////////////// 
.................... ////        (C) Copyright 1996,2003 Custom Computer Services           //// 
.................... //// This source code may only be used by licensed users of the CCS C  //// 
.................... //// compiler.  This source code may only be distributed to other      //// 
.................... //// licensed users of the CCS C compiler.  No other use, reproduction //// 
.................... //// or distribution is permitted without written permission.          //// 
.................... //// Derivative programs created using this software in object code    //// 
.................... //// form are not restricted in any way.                               //// 
.................... /////////////////////////////////////////////////////////////////////////// 
....................  
.................... #ifndef _STDIO 
.................... #define _STDIO 
.................... #include <string.h> 
.................... //////////////////////////////////////////////////////////////////////////// 
.................... ////        (C) Copyright 1996,2008 Custom Computer Services            //// 
.................... //// This source code may only be used by licensed users of the CCS C   //// 
.................... //// compiler.  This source code may only be distributed to other       //// 
.................... //// licensed users of the CCS C compiler.  No other use, reproduction  //// 
.................... //// or distribution is permitted without written permission.           //// 
.................... //// Derivative programs created using this software in object code     //// 
.................... //// form are not restricted in any way.                                //// 
.................... //////////////////////////////////////////////////////////////////////////// 
....................  
.................... #ifndef _STRING 
.................... #define _STRING 
.................... #include <stddef.h> 
.................... /////////////////////////////////////////////////////////////////////////// 
.................... ////        (C) Copyright 1996,2003 Custom Computer Services           //// 
.................... //// This source code may only be used by licensed users of the CCS C  //// 
.................... //// compiler.  This source code may only be distributed to other      //// 
.................... //// licensed users of the CCS C compiler.  No other use, reproduction //// 
.................... //// or distribution is permitted without written permission.          //// 
.................... //// Derivative programs created using this software in object code    //// 
.................... //// form are not restricted in any way.                               //// 
.................... /////////////////////////////////////////////////////////////////////////// 
....................  
.................... #ifndef _STDDEF 
....................  
.................... #define _STDDEF 
....................  
.................... #if sizeof(unsigned int8 *)==1 
.................... #define ptrdiff_t unsigned int8 
.................... #else 
.................... #define ptrdiff_t unsigned int16 
.................... #endif 
....................  
.................... #define size_t unsigned int8 
.................... #define wchar_t char 
.................... #define NULL 0 
....................  
.................... #define offsetof(s,f) (offsetofbit(s,f)/8) 
....................  
.................... #endif 
....................  
.................... #include <ctype.h> 
.................... //////////////////////////////////////////////////////////////////////////// 
.................... ////        (C) Copyright 1996,2003 Custom Computer Services            //// 
.................... //// This source code may only be used by licensed users of the CCS C   //// 
.................... //// compiler.  This source code may only be distributed to other       //// 
.................... //// licensed users of the CCS C compiler.  No other use, reproduction  //// 
.................... //// or distribution is permitted without written permission.           //// 
.................... //// Derivative programs created using this software in object code     //// 
.................... //// form are not restricted in any way.                                //// 
.................... //////////////////////////////////////////////////////////////////////////// 
....................  
.................... #ifndef _CTYPE 
.................... #define _CTYPE 
....................  
.................... #define islower(x)  isamong(x,"abcdefghijklmnopqrstuvwxyz") 
.................... #define isupper(x)  isamong(x,"ABCDEFGHIJKLMNOPQRSTUVWXYZ") 
.................... #define isalnum(x)  isamong(x,"0123456789ABCDEFGHIJKLMNOPQRSTUVWXYZabcdefghijklmnopqrstuvwxyz") 
.................... #define isalpha(x)  isamong(x,"ABCDEFGHIJKLMNOPQRSTUVWXYZabcdefghijklmnopqrstuvwxyz") 
.................... #define isdigit(x)  isamong(x,"0123456789") 
.................... #define isspace(x)  ((x)==' ') 
.................... #define isxdigit(x) isamong(x,"0123456789ABCDEFabcdef") 
.................... #define iscntrl(x)  ((x)<' ') 
.................... #define isprint(x)  ((x)>=' ') 
.................... #define isgraph(x)  ((x)>' ') 
.................... #define ispunct(x)  (((x)>' ')&&!isalnum(x)) 
....................  
.................... #endif 
....................  
....................  
....................  
....................  
....................  
.................... ////////////////////////////////////////////// 
.................... //// Uncomment the following define to    //// 
.................... //// allow some functions to use a        //// 
.................... //// quicker algorithm, but use more ROM  //// 
.................... ////                                      //// 
.................... //// #define FASTER_BUT_MORE_ROM          //// 
.................... ////////////////////////////////////////////// 
....................  
....................  
....................  
.................... /*Copying functions*/ 
.................... /* standard template: 
....................    void *memmove(void *s1, void *s2, size_t n). 
....................    Copies max of n characters safely (not following ending '\0') 
....................    from s2 in s1; if s2 has less than n characters, appends 0 */ 
....................  
.................... char *memmove(void *s1,char *s2,size_t n) 
.................... { 
....................    char *sc1; 
....................    char *sc2; 
....................    sc1=s1; 
....................    sc2=s2; 
....................    if(sc2<sc1 && sc1 <sc2 +n) 
....................       for(sc1+=n,sc2+=n;0<n;--n) 
....................          *--sc1=*--sc2; 
....................    else 
....................       for(;0<n;--n) 
....................          *sc1++=*sc2++; 
....................   return s1; 
....................   } 
....................  
.................... /* Standard template: char *strcpy(char *s1, const char *s2) 
....................    copies the string s2 including the null character to s1. 
....................    This is a compiler built in to handle the different address 
....................    spaces */ 
....................  
.................... #define strcopy strcpy 
....................  
.................... /* standard template: 
....................    char *strncpy(char *s1, const char *s2, size_t n). 
....................    Copies max of n characters (not following ending '\0') 
....................    from s2 in s1; if s2 has less than n characters, appends 0 */ 
....................  
.................... char *strncpy(char *s1, char *s2, size_t n) 
.................... { 
....................   char *s; 
....................  
....................   for (s = s1; n > 0 && *s2 != '\0'; n--) 
....................      *s++ = *s2++; 
....................   for (; n > 0; n--) 
....................      *s++ = '\0'; 
....................  
....................   return(s1); 
.................... } 
.................... /***********************************************************/ 
....................  
.................... /*concatenation functions*/ 
.................... /* standard template: char *strcat(char *s1, const char *s2) 
.................... appends s2 to s1*/ 
....................  
.................... char *strcat(char *s1, char *s2) 
.................... { 
....................    char *s; 
....................  
....................    for (s = s1; *s != '\0'; ++s); 
....................    while(*s2 != '\0') 
....................    { 
....................       *s = *s2; 
....................       ++s; 
....................       ++s2; 
....................    } 
....................  
....................    *s = '\0'; 
....................    return(s1); 
.................... } 
.................... /* standard template: char *strncat(char *s1, char *s2,size_t n) 
.................... appends not more than n characters from s2 to s1*/ 
....................  
.................... char *strncat(char *s1, char *s2, size_t n) 
.................... { 
....................    char *s; 
....................  
....................    for (s = s1; *s != '\0'; ++s); 
....................    while(*s2 != '\0' && 0<n) 
....................    { 
....................       *s = *s2; 
....................       ++s; 
....................       ++s2; 
....................       --n; 
....................    } 
....................  
....................    *s = '\0'; 
....................    return(s1); 
.................... } 
....................  
.................... /***********************************************************/ 
....................  
....................  
.................... /*comparison functions*/ 
.................... /* standard template: signed int memcmp(void *s1, void *s2). 
....................    Compares s1 & s2; returns -1 if s1<s2, 0 if s1=s2, 1 if s1>s2 */ 
....................  
.................... signed int8 memcmp(void * s1,char *s2,size_t n) 
.................... { 
.................... char *su1, *su2; 
.................... for(su1=s1, su2=s2; 0<n; ++su1, ++su2, --n) 
.................... { 
....................    if(*su1!=*su2) 
....................       return ((*su1<*su2)?-1:+1); 
.................... } 
.................... return 0; 
.................... } 
....................  
.................... /* standard template: int strcmp(const char *s1, const char *s2). 
....................    Compares s1 & s2; returns -1 if s1<s2, 0 if s1=s2, 1 if s1>s2 */ 
....................  
.................... signed int8 strcmp(char *s1, char *s2) 
.................... { 
....................    for (; *s1 == *s2; s1++, s2++) 
....................       if (*s1 == '\0') 
....................          return(0); 
....................    return((*s1 < *s2) ? -1: 1); 
.................... } 
.................... /* standard template: int strcoll(const char *s1, const char *s2). 
....................    Compares s1 & s2; returns -1 if s1<s2, 0 if s1=s2, 1 if s1>s2 */ 
....................  
.................... signed int8 strcoll(char *s1, char *s2) 
.................... { 
....................    for (; *s1 == *s2; s1++, s2++) 
....................       if (*s1 == '\0') 
....................          return(0); 
....................    return((*s1 < *s2) ? -1: 1); 
.................... } 
....................  
.................... /* standard template: 
....................    int strncmp(const char *s1, const char *s2, size_t n). 
....................    Compares max of n characters (not following 0) from s1 to s2; 
....................    returns same as strcmp */ 
....................  
.................... signed int8 strncmp(char *s1, char *s2, size_t n) 
.................... { 
....................    for (; n > 0; s1++, s2++, n--) 
....................       if (*s1 != *s2) 
....................          return((*s1 <*s2) ? -1: 1); 
....................       else if (*s1 == '\0') 
....................          return(0); 
....................    return(0); 
.................... } 
.................... /* standard template: 
....................    int strxfrm(const char *s1, const char *s2, size_t n). 
....................    transforms maximum of n characters from s2 and places them into s1*/ 
.................... size_t strxfrm(char *s1, char *s2, size_t n) 
.................... { 
....................   char *s; 
....................   unsigned int8 n1; 
....................   n1=n; 
....................   for (s = s1; n > 0 && *s2 != '\0'; n--) 
....................      *s++ = *s2++; 
....................   for (; n > 0; n--) 
....................      *s++ = '\0'; 
....................  
....................   return(n1); 
.................... } 
....................  
....................  
....................  
....................  
....................  
.................... /***********************************************************/ 
.................... /*Search functions*/ 
.................... /* standard template: void *memchr(const char *s, int c). 
....................    Finds first occurrence of c in n characters of s */ 
....................  
.................... char *memchr(void *s,unsigned int8 c,size_t n) 
.................... { 
....................    char uc; 
....................    char *su; 
....................    uc=c; 
....................    for(su=s;0<n;++su,--n) 
....................       if(*su==uc) 
....................       return su; 
....................    return NULL; 
.................... } 
....................  
.................... /* standard template: char *strchr(const char *s, int c). 
....................    Finds first occurrence of c in s */ 
....................  
.................... char *strchr(char *s, unsigned int8 c) 
.................... { 
....................    for (; *s != c; s++) 
....................       if (*s == '\0') 
....................          return(0); 
....................    return(s); 
.................... } 
.................... /* standard template: 
....................    size_t strcspn(const char *s1, const char *s2). 
....................    Computes length of max initial segment of s1 that 
....................    consists entirely of characters NOT from s2*/ 
....................  
.................... unsigned int8  strcspn(char *s1, char *s2) 
.................... { 
....................    char *sc1, *sc2; 
....................  
....................    for (sc1 = s1; *sc1 != 0; sc1++) 
....................       for (sc2 = s2; *sc2 != 0; sc2++) 
....................          if (*sc1 == *sc2) 
....................             return(sc1 - s1); 
....................    return(sc1 - s1); 
.................... } 
.................... /* standard template: 
....................    char *strpbrk(const char *s1, const char *s2). 
....................    Locates first occurence of any character from s2 in s1; 
....................    returns s1 if s2 is empty string */ 
....................  
.................... char *strpbrk(char *s1, char *s2) 
.................... { 
....................    char *sc1, *sc2; 
....................  
....................    for (sc1 = s1; *sc1 != 0; sc1++) 
....................       for (sc2 = s2; *sc2 != 0; sc2++) 
....................          if (*sc1 == *sc2) 
....................             return(sc1); 
....................    return(0); 
.................... } 
....................  
....................  
.................... /* standard template: char *strrchr(const char *s, int c). 
....................    Finds last occurrence of c in s */ 
....................  
.................... char *strrchr(char *s, unsigned int8 c) 
.................... { 
....................    char *p; 
....................  
....................    for (p = 0; ; s++) 
....................    { 
....................       if (*s == c) 
....................          p = s; 
....................       if (*s == '\0') 
....................          return(p); 
....................    } 
.................... } 
.................... /* computes length of max initial segment of s1 consisting 
....................    entirely of characters from s2 */ 
....................  
.................... unsigned int8  strspn(char *s1, char *s2) 
.................... { 
....................    char *sc1, *sc2; 
....................  
....................    for (sc1 = s1; *sc1 != 0; sc1++) 
....................       for (sc2 = s2; ; sc2++) 
....................     if (*sc2 == '\0') 
....................        return(sc1 - s1); 
....................          else if (*sc1 == *sc2) 
....................             break; 
....................    return(sc1 - s1); 
.................... } 
.................... /* standard template: 
....................    char *strstr(const char *s1, const char *s2); 
....................    Locates first occurence of character sequence s2 in s1; 
....................    returns 0 if s2 is empty string 
....................  
....................    Uncomment #define FASTER_BUT_MORE_ROM at the top of the 
....................    file to use the faster algorithm */ 
.................... char *strstr(char *s1, char *s2) 
.................... { 
....................    char *s, *t; 
....................  
....................    #ifdef FASTER_BUT_MORE_ROM 
....................    if (*s2 == '\0') 
....................          return(s1); 
....................    #endif 
....................  
....................    while (*s1) 
....................    { 
....................       for(s = s1, t = s2; *t && (*s == *t); ++s, ++t); 
....................  
....................       if (*t == '\0') 
....................          return s1; 
....................       ++s1; 
....................       #ifdef FASTER_BUT_MORE_ROM 
....................          while(*s1 != '\0' && *s1 != *s2) 
....................             ++s1; 
....................       #endif 
....................    } 
....................    return 0; 
.................... } 
....................  
.................... /* standard template: char *strtok(char *s1, const char *s2). 
....................  
....................    Finds next token in s1 delimited by a character from separator 
....................    string s2 (which can be different from call to call).  First call 
....................    starts at beginning of s1 searching for first character NOT 
....................    contained in s2; returns 0 if none is found. 
....................    If one is found, it is the start of first token (return value). 
....................    Function then searches from there for a character contained in s2. 
....................    If none is found, current token extends to end of s1, and subsequent 
....................    searches for a token will return 0.  If one is found, it is 
....................    overwritten by '\0', which terminates current token.  Function saves 
....................    pointer to following character from which next search will start. 
....................    Each subsequent call, with 0 as first argument, starts searching 
....................    from saved pointer */ 
....................  
.................... char *strtok(char *s1, char *s2) 
.................... { 
....................    char *beg, *end; 
....................    static char *save; 
....................  
....................    beg = (s1)? s1: save; 
....................    beg += strspn(beg, s2); 
....................    if (*beg == '\0') 
....................    { 
....................       *save = ' '; 
....................       return(0); 
....................    } 
....................    end = strpbrk(beg, s2); 
....................    if (*end != '\0') 
....................    { 
....................       *end = '\0'; 
....................       end++; 
....................    } 
....................    save = end; 
....................    return(beg); 
.................... } 
....................  
.................... /*****************************************************************/ 
.................... /*Miscellaneous functions*/ 
.................... /* standard template 
.................... maps error number in errnum to an error message string 
.................... Returns: Pointer to string 
.................... */ 
.................... #ifdef _ERRNO 
.................... char * strerror(unsigned int8 errnum) 
.................... { 
.................... char s[15]; 
.................... switch( errnum) 
.................... { 
.................... case 0: 
....................    strcpy(s,"no errors"); 
....................    return s; 
.................... case EDOM : 
....................    strcpy(s,"domain error"); 
....................    return s; 
.................... case ERANGE: 
....................    strcpy(s,"range error"); 
....................    return s; 
.................... } 
.................... } 
.................... #ENDIF 
.................... /* standard template: size_t strlen(const char *s). 
....................    Computes length of s1 (preceding terminating 0) */ 
....................  
.................... unsigned int8 strlen(char *s) 
.................... { 
....................    char *sc; 
....................  
....................    for (sc = s; *sc != 0; sc++); 
....................    return(sc - s); 
.................... } 
....................  
.................... /* standard template: size_t stricmp(const char *s1, const char *s2). 
....................    Compares s1 to s2 ignoring case (upper vs. lower) */ 
....................  
.................... signed int8 stricmp(char *s1, char *s2) 
.................... { 
....................  for(; *s1==*s2||(isalpha(*s1)&&isalpha(*s2)&&(*s1==*s2+32||*s2==*s1+32)); 
....................     s1++, s2++) 
....................     if (*s1 == '\0') 
....................        return(0); 
....................  return((*s1 < *s2) ? -1: 1); 
.................... } 
....................  
....................  
.................... /* standard template: char *strlwr(char *s). 
....................    Replaces uppercase letters by lowercase; 
....................    returns pointer to new string s */ 
....................  
.................... char *strlwr(char *s) 
.................... { 
....................    char *p; 
....................  
....................    for (p = s; *p != '\0'; p++) 
....................       if (*p >= 'A' && *p <='Z') 
....................          *p += 'a' - 'A'; 
....................    return(s); 
.................... } 
....................  
....................  
.................... /************************************************************/ 
....................  
....................  
.................... #endif 
....................  
.................... #ifndef getc 
.................... #define getc getch 
.................... #define getchar getch 
.................... #define puts(s) {printf(s); putchar(13); putchar(10);} 
.................... #define putc putchar 
.................... #endif 
.................... /* maps error number to an error message. Writes a sequence of characters to 
.................... stderr stream thus: if s is not null then string pointed to by s follwed by 
.................... a colon (:) and a space and the appropriate error message returned by strerror 
.................... function with argument errno 
....................  
.................... Returns: no value 
.................... */ 
....................  
.................... #ifdef _ERRNO 
.................... void perror(char *s) 
.................... { 
....................   if(s) 
....................   fprintf(STDERR,"%s: ",s); 
....................   fprintf(STDERR,"%s\r\n",strerror(errno)); 
.................... } 
.................... #endif 
.................... #endif 
....................  
.................... #include <string.h> 
.................... //////////////////////////////////////////////////////////////////////////// 
.................... ////        (C) Copyright 1996,2008 Custom Computer Services            //// 
.................... //// This source code may only be used by licensed users of the CCS C   //// 
.................... //// compiler.  This source code may only be distributed to other       //// 
.................... //// licensed users of the CCS C compiler.  No other use, reproduction  //// 
.................... //// or distribution is permitted without written permission.           //// 
.................... //// Derivative programs created using this software in object code     //// 
.................... //// form are not restricted in any way.                                //// 
.................... //////////////////////////////////////////////////////////////////////////// 
....................  
.................... #ifndef _STRING 
.................... #define _STRING 
.................... #include <stddef.h> 
.................... #include <ctype.h> 
....................  
....................  
....................  
.................... ////////////////////////////////////////////// 
.................... //// Uncomment the following define to    //// 
.................... //// allow some functions to use a        //// 
.................... //// quicker algorithm, but use more ROM  //// 
.................... ////                                      //// 
.................... //// #define FASTER_BUT_MORE_ROM          //// 
.................... ////////////////////////////////////////////// 
....................  
....................  
....................  
.................... /*Copying functions*/ 
.................... /* standard template: 
....................    void *memmove(void *s1, void *s2, size_t n). 
....................    Copies max of n characters safely (not following ending '\0') 
....................    from s2 in s1; if s2 has less than n characters, appends 0 */ 
....................  
.................... char *memmove(void *s1,char *s2,size_t n) 
.................... { 
....................    char *sc1; 
....................    char *sc2; 
....................    sc1=s1; 
....................    sc2=s2; 
....................    if(sc2<sc1 && sc1 <sc2 +n) 
....................       for(sc1+=n,sc2+=n;0<n;--n) 
....................          *--sc1=*--sc2; 
....................    else 
....................       for(;0<n;--n) 
....................          *sc1++=*sc2++; 
....................   return s1; 
....................   } 
....................  
.................... /* Standard template: char *strcpy(char *s1, const char *s2) 
....................    copies the string s2 including the null character to s1. 
....................    This is a compiler built in to handle the different address 
....................    spaces */ 
....................  
.................... #define strcopy strcpy 
....................  
.................... /* standard template: 
....................    char *strncpy(char *s1, const char *s2, size_t n). 
....................    Copies max of n characters (not following ending '\0') 
....................    from s2 in s1; if s2 has less than n characters, appends 0 */ 
....................  
.................... char *strncpy(char *s1, char *s2, size_t n) 
.................... { 
....................   char *s; 
....................  
....................   for (s = s1; n > 0 && *s2 != '\0'; n--) 
....................      *s++ = *s2++; 
....................   for (; n > 0; n--) 
....................      *s++ = '\0'; 
....................  
....................   return(s1); 
.................... } 
.................... /***********************************************************/ 
....................  
.................... /*concatenation functions*/ 
.................... /* standard template: char *strcat(char *s1, const char *s2) 
.................... appends s2 to s1*/ 
....................  
.................... char *strcat(char *s1, char *s2) 
.................... { 
....................    char *s; 
....................  
....................    for (s = s1; *s != '\0'; ++s); 
....................    while(*s2 != '\0') 
....................    { 
....................       *s = *s2; 
....................       ++s; 
....................       ++s2; 
....................    } 
....................  
....................    *s = '\0'; 
....................    return(s1); 
.................... } 
.................... /* standard template: char *strncat(char *s1, char *s2,size_t n) 
.................... appends not more than n characters from s2 to s1*/ 
....................  
.................... char *strncat(char *s1, char *s2, size_t n) 
.................... { 
....................    char *s; 
....................  
....................    for (s = s1; *s != '\0'; ++s); 
....................    while(*s2 != '\0' && 0<n) 
....................    { 
....................       *s = *s2; 
....................       ++s; 
....................       ++s2; 
....................       --n; 
....................    } 
....................  
....................    *s = '\0'; 
....................    return(s1); 
.................... } 
....................  
.................... /***********************************************************/ 
....................  
....................  
.................... /*comparison functions*/ 
.................... /* standard template: signed int memcmp(void *s1, void *s2). 
....................    Compares s1 & s2; returns -1 if s1<s2, 0 if s1=s2, 1 if s1>s2 */ 
....................  
.................... signed int8 memcmp(void * s1,char *s2,size_t n) 
.................... { 
.................... char *su1, *su2; 
.................... for(su1=s1, su2=s2; 0<n; ++su1, ++su2, --n) 
.................... { 
....................    if(*su1!=*su2) 
....................       return ((*su1<*su2)?-1:+1); 
.................... } 
.................... return 0; 
.................... } 
....................  
.................... /* standard template: int strcmp(const char *s1, const char *s2). 
....................    Compares s1 & s2; returns -1 if s1<s2, 0 if s1=s2, 1 if s1>s2 */ 
....................  
.................... signed int8 strcmp(char *s1, char *s2) 
.................... { 
....................    for (; *s1 == *s2; s1++, s2++) 
....................       if (*s1 == '\0') 
....................          return(0); 
....................    return((*s1 < *s2) ? -1: 1); 
.................... } 
.................... /* standard template: int strcoll(const char *s1, const char *s2). 
....................    Compares s1 & s2; returns -1 if s1<s2, 0 if s1=s2, 1 if s1>s2 */ 
....................  
.................... signed int8 strcoll(char *s1, char *s2) 
.................... { 
....................    for (; *s1 == *s2; s1++, s2++) 
....................       if (*s1 == '\0') 
....................          return(0); 
....................    return((*s1 < *s2) ? -1: 1); 
.................... } 
....................  
.................... /* standard template: 
....................    int strncmp(const char *s1, const char *s2, size_t n). 
....................    Compares max of n characters (not following 0) from s1 to s2; 
....................    returns same as strcmp */ 
....................  
.................... signed int8 strncmp(char *s1, char *s2, size_t n) 
.................... { 
....................    for (; n > 0; s1++, s2++, n--) 
....................       if (*s1 != *s2) 
....................          return((*s1 <*s2) ? -1: 1); 
....................       else if (*s1 == '\0') 
....................          return(0); 
....................    return(0); 
.................... } 
.................... /* standard template: 
....................    int strxfrm(const char *s1, const char *s2, size_t n). 
....................    transforms maximum of n characters from s2 and places them into s1*/ 
.................... size_t strxfrm(char *s1, char *s2, size_t n) 
.................... { 
....................   char *s; 
....................   unsigned int8 n1; 
....................   n1=n; 
....................   for (s = s1; n > 0 && *s2 != '\0'; n--) 
....................      *s++ = *s2++; 
....................   for (; n > 0; n--) 
....................      *s++ = '\0'; 
....................  
....................   return(n1); 
.................... } 
....................  
....................  
....................  
....................  
....................  
.................... /***********************************************************/ 
.................... /*Search functions*/ 
.................... /* standard template: void *memchr(const char *s, int c). 
....................    Finds first occurrence of c in n characters of s */ 
....................  
.................... char *memchr(void *s,unsigned int8 c,size_t n) 
.................... { 
....................    char uc; 
....................    char *su; 
....................    uc=c; 
....................    for(su=s;0<n;++su,--n) 
....................       if(*su==uc) 
....................       return su; 
....................    return NULL; 
.................... } 
....................  
.................... /* standard template: char *strchr(const char *s, int c). 
....................    Finds first occurrence of c in s */ 
....................  
.................... char *strchr(char *s, unsigned int8 c) 
.................... { 
....................    for (; *s != c; s++) 
....................       if (*s == '\0') 
....................          return(0); 
....................    return(s); 
.................... } 
.................... /* standard template: 
....................    size_t strcspn(const char *s1, const char *s2). 
....................    Computes length of max initial segment of s1 that 
....................    consists entirely of characters NOT from s2*/ 
....................  
.................... unsigned int8  strcspn(char *s1, char *s2) 
.................... { 
....................    char *sc1, *sc2; 
....................  
....................    for (sc1 = s1; *sc1 != 0; sc1++) 
....................       for (sc2 = s2; *sc2 != 0; sc2++) 
....................          if (*sc1 == *sc2) 
....................             return(sc1 - s1); 
....................    return(sc1 - s1); 
.................... } 
.................... /* standard template: 
....................    char *strpbrk(const char *s1, const char *s2). 
....................    Locates first occurence of any character from s2 in s1; 
....................    returns s1 if s2 is empty string */ 
....................  
.................... char *strpbrk(char *s1, char *s2) 
.................... { 
....................    char *sc1, *sc2; 
....................  
....................    for (sc1 = s1; *sc1 != 0; sc1++) 
....................       for (sc2 = s2; *sc2 != 0; sc2++) 
....................          if (*sc1 == *sc2) 
....................             return(sc1); 
....................    return(0); 
.................... } 
....................  
....................  
.................... /* standard template: char *strrchr(const char *s, int c). 
....................    Finds last occurrence of c in s */ 
....................  
.................... char *strrchr(char *s, unsigned int8 c) 
.................... { 
....................    char *p; 
....................  
....................    for (p = 0; ; s++) 
....................    { 
....................       if (*s == c) 
....................          p = s; 
....................       if (*s == '\0') 
....................          return(p); 
....................    } 
.................... } 
.................... /* computes length of max initial segment of s1 consisting 
....................    entirely of characters from s2 */ 
....................  
.................... unsigned int8  strspn(char *s1, char *s2) 
.................... { 
....................    char *sc1, *sc2; 
....................  
....................    for (sc1 = s1; *sc1 != 0; sc1++) 
....................       for (sc2 = s2; ; sc2++) 
....................     if (*sc2 == '\0') 
....................        return(sc1 - s1); 
....................          else if (*sc1 == *sc2) 
....................             break; 
....................    return(sc1 - s1); 
.................... } 
.................... /* standard template: 
....................    char *strstr(const char *s1, const char *s2); 
....................    Locates first occurence of character sequence s2 in s1; 
....................    returns 0 if s2 is empty string 
....................  
....................    Uncomment #define FASTER_BUT_MORE_ROM at the top of the 
....................    file to use the faster algorithm */ 
.................... char *strstr(char *s1, char *s2) 
.................... { 
....................    char *s, *t; 
....................  
....................    #ifdef FASTER_BUT_MORE_ROM 
....................    if (*s2 == '\0') 
....................          return(s1); 
....................    #endif 
....................  
....................    while (*s1) 
....................    { 
....................       for(s = s1, t = s2; *t && (*s == *t); ++s, ++t); 
....................  
....................       if (*t == '\0') 
....................          return s1; 
....................       ++s1; 
....................       #ifdef FASTER_BUT_MORE_ROM 
....................          while(*s1 != '\0' && *s1 != *s2) 
....................             ++s1; 
....................       #endif 
....................    } 
....................    return 0; 
.................... } 
....................  
.................... /* standard template: char *strtok(char *s1, const char *s2). 
....................  
....................    Finds next token in s1 delimited by a character from separator 
....................    string s2 (which can be different from call to call).  First call 
....................    starts at beginning of s1 searching for first character NOT 
....................    contained in s2; returns 0 if none is found. 
....................    If one is found, it is the start of first token (return value). 
....................    Function then searches from there for a character contained in s2. 
....................    If none is found, current token extends to end of s1, and subsequent 
....................    searches for a token will return 0.  If one is found, it is 
....................    overwritten by '\0', which terminates current token.  Function saves 
....................    pointer to following character from which next search will start. 
....................    Each subsequent call, with 0 as first argument, starts searching 
....................    from saved pointer */ 
....................  
.................... char *strtok(char *s1, char *s2) 
.................... { 
....................    char *beg, *end; 
....................    static char *save; 
....................  
....................    beg = (s1)? s1: save; 
....................    beg += strspn(beg, s2); 
....................    if (*beg == '\0') 
....................    { 
....................       *save = ' '; 
....................       return(0); 
....................    } 
....................    end = strpbrk(beg, s2); 
....................    if (*end != '\0') 
....................    { 
....................       *end = '\0'; 
....................       end++; 
....................    } 
....................    save = end; 
....................    return(beg); 
.................... } 
....................  
.................... /*****************************************************************/ 
.................... /*Miscellaneous functions*/ 
.................... /* standard template 
.................... maps error number in errnum to an error message string 
.................... Returns: Pointer to string 
.................... */ 
.................... #ifdef _ERRNO 
.................... char * strerror(unsigned int8 errnum) 
.................... { 
.................... char s[15]; 
.................... switch( errnum) 
.................... { 
.................... case 0: 
....................    strcpy(s,"no errors"); 
....................    return s; 
.................... case EDOM : 
....................    strcpy(s,"domain error"); 
....................    return s; 
.................... case ERANGE: 
....................    strcpy(s,"range error"); 
....................    return s; 
.................... } 
.................... } 
.................... #ENDIF 
.................... /* standard template: size_t strlen(const char *s). 
....................    Computes length of s1 (preceding terminating 0) */ 
....................  
.................... unsigned int8 strlen(char *s) 
.................... { 
....................    char *sc; 
....................  
....................    for (sc = s; *sc != 0; sc++); 
....................    return(sc - s); 
.................... } 
....................  
.................... /* standard template: size_t stricmp(const char *s1, const char *s2). 
....................    Compares s1 to s2 ignoring case (upper vs. lower) */ 
....................  
.................... signed int8 stricmp(char *s1, char *s2) 
.................... { 
....................  for(; *s1==*s2||(isalpha(*s1)&&isalpha(*s2)&&(*s1==*s2+32||*s2==*s1+32)); 
....................     s1++, s2++) 
....................     if (*s1 == '\0') 
....................        return(0); 
....................  return((*s1 < *s2) ? -1: 1); 
.................... } 
....................  
....................  
.................... /* standard template: char *strlwr(char *s). 
....................    Replaces uppercase letters by lowercase; 
....................    returns pointer to new string s */ 
....................  
.................... char *strlwr(char *s) 
.................... { 
....................    char *p; 
....................  
....................    for (p = s; *p != '\0'; p++) 
....................       if (*p >= 'A' && *p <='Z') 
....................          *p += 'a' - 'A'; 
....................    return(s); 
.................... } 
....................  
....................  
.................... /************************************************************/ 
....................  
....................  
.................... #endif 
....................  
.................... #include <stdlib.h> 
.................... /////////////////////////////////////////////////////////////////////////// 
.................... ////        (C) Copyright 1996,2007 Custom Computer Services           //// 
.................... //// This source code may only be used by licensed users of the CCS C  //// 
.................... //// compiler.  This source code may only be distributed to other      //// 
.................... //// licensed users of the CCS C compiler.  No other use, reproduction //// 
.................... //// or distribution is permitted without written permission.          //// 
.................... //// Derivative programs created using this software in object code    //// 
.................... //// form are not restricted in any way.                               //// 
.................... /////////////////////////////////////////////////////////////////////////// 
....................  
.................... #ifndef _STDLIB 
.................... #define _STDLIB 
....................  
.................... //--------------------------------------------------------------------------- 
.................... // Definitions and types 
.................... //--------------------------------------------------------------------------- 
....................  
.................... #ifndef RAND_MAX 
.................... #define RAND_MAX  32767    // The value of which is the maximum value 
....................                            // ... returned by the rand function 
.................... #endif 
....................  
....................  
.................... #IF (sizeof(int16*)>1) 
.................... #DEFINE LONG_POINTERS 1 
.................... #ELSE  
.................... #DEFINE LONG_POINTERS 0 
.................... #ENDIF 
....................  
.................... typedef struct { 
....................    signed int quot; 
....................    signed int rem; 
.................... } div_t; 
....................  
.................... typedef struct { 
....................    signed long quot; 
....................    signed long rem; 
.................... } ldiv_t; 
....................  
.................... #include <stddef.h> 
.................... /////////////////////////////////////////////////////////////////////////// 
.................... ////        (C) Copyright 1996,2003 Custom Computer Services           //// 
.................... //// This source code may only be used by licensed users of the CCS C  //// 
.................... //// compiler.  This source code may only be distributed to other      //// 
.................... //// licensed users of the CCS C compiler.  No other use, reproduction //// 
.................... //// or distribution is permitted without written permission.          //// 
.................... //// Derivative programs created using this software in object code    //// 
.................... //// form are not restricted in any way.                               //// 
.................... /////////////////////////////////////////////////////////////////////////// 
....................  
.................... #ifndef _STDDEF 
....................  
.................... #define _STDDEF 
....................  
.................... #if sizeof(unsigned int8 *)==1 
.................... #define ptrdiff_t unsigned int8 
.................... #else 
.................... #define ptrdiff_t unsigned int16 
.................... #endif 
....................  
.................... #define size_t unsigned int8 
.................... #define wchar_t char 
.................... #define NULL 0 
....................  
.................... #define offsetof(s,f) (offsetofbit(s,f)/8) 
....................  
.................... #endif 
....................  
....................  
.................... //--------------------------------------------------------------------------- 
.................... // String conversion functions 
.................... //--------------------------------------------------------------------------- 
....................  
.................... /* Standard template: signed int  atoi(char * s) 
....................  * converts the initial portion of the string s to a signed int 
....................  * returns the converted value if any, 0 otherwise 
....................  */ 
.................... signed int atoi(char *s); 
....................  
.................... /* Syntax: signed int32  atoi32(char * s) 
....................    converts the initial portion of the string s to a signed int32 
....................    returns the converted value if any, 0 otherwise*/ 
.................... #if (sizeof(long)==4) 
....................  #define atoi32(s) atol(s) 
.................... #else  
....................  signed int32 atoi32(char *s); 
.................... #endif 
....................  
.................... #if defined(__PCD__) 
.................... // The following functions only work on the 24 bit compiler 
.................... // for the 30F, 33F, 24F and 24H parts 
.................... /* Syntax: signed int48  atoi48(char * s) 
....................    converts the initial portion of the string s to a signed int48 
....................    returns the converted value if any, 0 otherwise*/ 
....................     
.................... signed int48 atoi48(char *s); 
....................  
.................... /* Syntax: signed int64  atoi64(char * s) 
....................    converts the initial portion of the string s to a signed int64 
....................    returns the converted value if any, 0 otherwise*/ 
.................... signed int64 atoi64(char *s); 
.................... #endif 
....................  
.................... /* Syntax: char *  itoa(signed int32 num, int8 base, char * s) 
....................    converts the signed int32 to a string and 
....................    returns the converted value if any, 0 otherwise*/ 
.................... char * itoa(signed int32 num, unsigned int base, char * s); 
....................  
.................... /* Standard template: signed int16  atol(char * s) 
....................  * converts the initial portion of the string s to a signed int16 
....................  * returns the converted value if any, 0 otherwise 
....................  */ 
.................... signed long atol(char *s); 
....................  
.................... /* Standard template: int16 strtoul(char * s,char *endptr,signed int base) 
....................  * converts the initial portion of the string s, represented as an 
....................  * integral value of radix base  to a signed long. 
....................  * Returns the converted value if any, 0 otherwise 
....................  * the final string is returned in the endptr, if endptr is not null 
....................  */ 
.................... signed long strtol(char *s,char *endptr, signed int base); 
....................  
.................... /* Standard template: int16 strtoul(char * s,char *endptr,signed int base) 
....................  * converts the initial portion of the string s, represented as an 
....................  * integral value of radix base to a unsigned long. 
....................  * returns the converted value if any, 0 otherwise 
....................  * the final string is returned in the endptr, if endptr is not null 
....................  */ 
.................... unsigned long strtoul(char *s,char *endptr, signed int base); 
....................  
.................... /* Standart template: float strtof(char * s,char *endptr) 
....................                       float48 strtof48(char *s,char *endptr); 
....................                       float64 strtod(char *s,char *endptr); 
....................  * converts the initial portion of the string s to a float32, float48 or float64, 
....................  * returns the converted value if any, 0 otherwise 
....................  * the final string is returned in the endptr, if endptr is not null                    
.................... */ 
.................... float strtof(char *s,char *endptr); 
.................... #if defined(__PCD__) 
.................... float48 strtof48(char *s,char *endptr); 
.................... float64 strtod(char *s,char *endptr); 
.................... #else 
.................... //provided for compatibility 
.................... #define strtof48(s, e) strtof(s, e) 
.................... #define strtod(s, e) strtof(s, e) 
.................... #endif 
....................  
.................... /* Standard template: float32 atof(char * s) 
....................  * converts the initial portion of the string s to a float. 
....................  * returns the converted value if any, 0 otherwise 
....................  */ 
.................... #define atof(s)   strtof(s, 0) 
....................  
.................... #if defined(__PCD__) 
.................... // The following functions only work on the 24 bit compiler 
.................... // for the 30F, 33F, 24F and 24H parts 
....................  
.................... /* Standard template: float48 atof48(char * s) 
....................  * converts the initial portion of the string s to a float. 
....................  * returns the converted value if any, 0 otherwise 
....................  */ 
.................... #define atof48(s) strtof48(s, 0) 
....................  
.................... /* Standard template: float64 atof64(char * s) 
....................  * converts the initial portion of the string s to a float. 
....................  * returns the converted value if any, 0 otherwise 
....................  */ 
.................... #define atof64(s) strtod(s, 0) 
.................... #endif 
....................  
.................... /* Standard template: float32 atoe(char * s) 
....................  * converts the initial portion of the string s to a float. 
....................  * returns the converted value if any, 0 otherwise 
....................  * also handles E format numbers 
....................  */ 
.................... #if !defined(__PCD__) 
.................... float atoe(char * s); 
.................... #endif 
....................  
.................... #if defined(__PCD__) 
.................... float32 atoe(char * s); 
.................... #endif 
....................  
.................... //--------------------------------------------------------------------------- 
.................... // Pseudo-random sequence generation functions 
.................... //--------------------------------------------------------------------------- 
....................  
.................... /* The rand function computes a sequence of pseudo-random integers in 
....................  * the range 0 to RAND_MAX 
....................  * 
....................  * Parameters: 
....................  *       (none) 
....................  * 
....................  * Returns: 
....................  *       The pseudo-random integer 
....................  */ 
.................... unsigned int16 rand(void); 
....................  
.................... /* The srand function uses the argument as a seed for a new sequence of 
....................  * pseudo-random numbers to be returned by subsequent calls to rand. 
....................  * 
....................  * Parameters: 
....................  *       [in] seed: The seed value to start from. You might need to pass 
....................  * 
....................  * Returns: 
....................  *       (none) 
....................  * 
....................  * Remarks 
....................  *          The srand function sets the starting point for generating 
....................  *       a series of pseudorandom integers. To reinitialize the 
....................  *       generator, use 1 as the seed argument. Any other value for 
....................  *       seed sets the generator to a random starting point. rand 
....................  *       retrieves the pseudorandom numbers that are generated. 
....................  *       Calling rand before any call to srand generates the same 
....................  *       sequence as calling srand with seed passed as 1. 
....................  *          Usually, you need to pass a time here from outer source 
....................  *       so that the numbers will be different every time you run. 
....................  */ 
.................... void srand(unsigned int32 seed); 
....................  
.................... //--------------------------------------------------------------------------- 
.................... // Memory management functions 
.................... //--------------------------------------------------------------------------- 
....................  
.................... // Comming soon 
....................  
.................... //--------------------------------------------------------------------------- 
.................... // Communication with the environment 
.................... //--------------------------------------------------------------------------- 
....................  
.................... /* The function returns 0 always 
....................  */ 
.................... signed int8 system(char *string); 
....................  
.................... //--------------------------------------------------------------------------- 
.................... // Searching and sorting utilities 
.................... //--------------------------------------------------------------------------- 
....................  
.................... /* Performs a binary search of a sorted array.. 
....................  * 
....................  * Parameters: 
....................  *       [in] key: Object to search for 
....................  *       [in] base: Pointer to base of search data 
....................  *       [in] num: Number of elements 
....................  *       [in] width: Width of elements 
....................  *       [in] compare: Function that compares two elements 
....................  * 
....................  * Returns: 
....................  *       bsearch returns a pointer to an occurrence of key in the array pointed 
....................  *       to by base. If key is not found, the function returns NULL. If the 
....................  *       array is not in order or contains duplicate records with identical keys, 
....................  *       the result is unpredictable. 
....................  */ 
.................... //void *bsearch(const void *key, const void *base, size_t num, size_t width, 
.................... //              int (*compare)(const void *, const void *)); 
....................  
.................... /* Performs the shell-metzner sort (not the quick sort algorithm). The contents 
....................  * of the array are sorted into ascending order according to a comparison 
....................  * function pointed to by compar. 
....................  * 
....................  * Parameters: 
....................  *       [in] base: Pointer to base of search data 
....................  *       [in] num: Number of elements 
....................  *       [in] width: Width of elements 
....................  *       [in] compare: Function that compares two elements 
....................  * 
....................  * Returns: 
....................  *       (none) 
....................  */ 
.................... //void *qsort(const void *base, size_t num, size_t width, 
.................... //              int (*compare)(const void *, const void *)); 
....................  
.................... //--------------------------------------------------------------------------- 
.................... // Integer arithmetic functions 
.................... //--------------------------------------------------------------------------- 
....................  
.................... #define labs abs 
....................  
.................... div_t div(signed int numer, signed int denom); 
.................... ldiv_t ldiv(signed long numer, signed long denom); 
....................  
.................... //--------------------------------------------------------------------------- 
.................... // Multibyte character functions 
.................... //--------------------------------------------------------------------------- 
....................  
.................... // Not supported 
....................  
.................... //--------------------------------------------------------------------------- 
.................... // Multibyte string functions 
.................... //--------------------------------------------------------------------------- 
....................  
.................... // Not supported 
....................  
....................  
.................... //--------------------------------------------------------------------------- 
.................... // Internal implementation 
.................... //--------------------------------------------------------------------------- 
....................  
.................... #include <stddef.h> 
.................... /////////////////////////////////////////////////////////////////////////// 
.................... ////        (C) Copyright 1996,2003 Custom Computer Services           //// 
.................... //// This source code may only be used by licensed users of the CCS C  //// 
.................... //// compiler.  This source code may only be distributed to other      //// 
.................... //// licensed users of the CCS C compiler.  No other use, reproduction //// 
.................... //// or distribution is permitted without written permission.          //// 
.................... //// Derivative programs created using this software in object code    //// 
.................... //// form are not restricted in any way.                               //// 
.................... /////////////////////////////////////////////////////////////////////////// 
....................  
.................... #ifndef _STDDEF 
....................  
.................... #define _STDDEF 
....................  
.................... #if sizeof(unsigned int8 *)==1 
.................... #define ptrdiff_t unsigned int8 
.................... #else 
.................... #define ptrdiff_t unsigned int16 
.................... #endif 
....................  
.................... #define size_t unsigned int8 
.................... #define wchar_t char 
.................... #define NULL 0 
....................  
.................... #define offsetof(s,f) (offsetofbit(s,f)/8) 
....................  
.................... #endif 
....................  
.................... #include <string.h> 
.................... //////////////////////////////////////////////////////////////////////////// 
.................... ////        (C) Copyright 1996,2008 Custom Computer Services            //// 
.................... //// This source code may only be used by licensed users of the CCS C   //// 
.................... //// compiler.  This source code may only be distributed to other       //// 
.................... //// licensed users of the CCS C compiler.  No other use, reproduction  //// 
.................... //// or distribution is permitted without written permission.           //// 
.................... //// Derivative programs created using this software in object code     //// 
.................... //// form are not restricted in any way.                                //// 
.................... //////////////////////////////////////////////////////////////////////////// 
....................  
.................... #ifndef _STRING 
.................... #define _STRING 
.................... #include <stddef.h> 
.................... #include <ctype.h> 
....................  
....................  
....................  
.................... ////////////////////////////////////////////// 
.................... //// Uncomment the following define to    //// 
.................... //// allow some functions to use a        //// 
.................... //// quicker algorithm, but use more ROM  //// 
.................... ////                                      //// 
.................... //// #define FASTER_BUT_MORE_ROM          //// 
.................... ////////////////////////////////////////////// 
....................  
....................  
....................  
.................... /*Copying functions*/ 
.................... /* standard template: 
....................    void *memmove(void *s1, void *s2, size_t n). 
....................    Copies max of n characters safely (not following ending '\0') 
....................    from s2 in s1; if s2 has less than n characters, appends 0 */ 
....................  
.................... char *memmove(void *s1,char *s2,size_t n) 
.................... { 
....................    char *sc1; 
....................    char *sc2; 
....................    sc1=s1; 
....................    sc2=s2; 
....................    if(sc2<sc1 && sc1 <sc2 +n) 
....................       for(sc1+=n,sc2+=n;0<n;--n) 
....................          *--sc1=*--sc2; 
....................    else 
....................       for(;0<n;--n) 
....................          *sc1++=*sc2++; 
....................   return s1; 
....................   } 
....................  
.................... /* Standard template: char *strcpy(char *s1, const char *s2) 
....................    copies the string s2 including the null character to s1. 
....................    This is a compiler built in to handle the different address 
....................    spaces */ 
....................  
.................... #define strcopy strcpy 
....................  
.................... /* standard template: 
....................    char *strncpy(char *s1, const char *s2, size_t n). 
....................    Copies max of n characters (not following ending '\0') 
....................    from s2 in s1; if s2 has less than n characters, appends 0 */ 
....................  
.................... char *strncpy(char *s1, char *s2, size_t n) 
.................... { 
....................   char *s; 
....................  
....................   for (s = s1; n > 0 && *s2 != '\0'; n--) 
....................      *s++ = *s2++; 
....................   for (; n > 0; n--) 
....................      *s++ = '\0'; 
....................  
....................   return(s1); 
.................... } 
.................... /***********************************************************/ 
....................  
.................... /*concatenation functions*/ 
.................... /* standard template: char *strcat(char *s1, const char *s2) 
.................... appends s2 to s1*/ 
....................  
.................... char *strcat(char *s1, char *s2) 
.................... { 
....................    char *s; 
....................  
....................    for (s = s1; *s != '\0'; ++s); 
....................    while(*s2 != '\0') 
....................    { 
....................       *s = *s2; 
....................       ++s; 
....................       ++s2; 
....................    } 
....................  
....................    *s = '\0'; 
....................    return(s1); 
.................... } 
.................... /* standard template: char *strncat(char *s1, char *s2,size_t n) 
.................... appends not more than n characters from s2 to s1*/ 
....................  
.................... char *strncat(char *s1, char *s2, size_t n) 
.................... { 
....................    char *s; 
....................  
....................    for (s = s1; *s != '\0'; ++s); 
....................    while(*s2 != '\0' && 0<n) 
....................    { 
....................       *s = *s2; 
....................       ++s; 
....................       ++s2; 
....................       --n; 
....................    } 
....................  
....................    *s = '\0'; 
....................    return(s1); 
.................... } 
....................  
.................... /***********************************************************/ 
....................  
....................  
.................... /*comparison functions*/ 
.................... /* standard template: signed int memcmp(void *s1, void *s2). 
....................    Compares s1 & s2; returns -1 if s1<s2, 0 if s1=s2, 1 if s1>s2 */ 
....................  
.................... signed int8 memcmp(void * s1,char *s2,size_t n) 
.................... { 
.................... char *su1, *su2; 
.................... for(su1=s1, su2=s2; 0<n; ++su1, ++su2, --n) 
.................... { 
....................    if(*su1!=*su2) 
....................       return ((*su1<*su2)?-1:+1); 
.................... } 
.................... return 0; 
.................... } 
....................  
.................... /* standard template: int strcmp(const char *s1, const char *s2). 
....................    Compares s1 & s2; returns -1 if s1<s2, 0 if s1=s2, 1 if s1>s2 */ 
....................  
.................... signed int8 strcmp(char *s1, char *s2) 
.................... { 
....................    for (; *s1 == *s2; s1++, s2++) 
....................       if (*s1 == '\0') 
....................          return(0); 
....................    return((*s1 < *s2) ? -1: 1); 
.................... } 
.................... /* standard template: int strcoll(const char *s1, const char *s2). 
....................    Compares s1 & s2; returns -1 if s1<s2, 0 if s1=s2, 1 if s1>s2 */ 
....................  
.................... signed int8 strcoll(char *s1, char *s2) 
.................... { 
....................    for (; *s1 == *s2; s1++, s2++) 
....................       if (*s1 == '\0') 
....................          return(0); 
....................    return((*s1 < *s2) ? -1: 1); 
.................... } 
....................  
.................... /* standard template: 
....................    int strncmp(const char *s1, const char *s2, size_t n). 
....................    Compares max of n characters (not following 0) from s1 to s2; 
....................    returns same as strcmp */ 
....................  
.................... signed int8 strncmp(char *s1, char *s2, size_t n) 
.................... { 
....................    for (; n > 0; s1++, s2++, n--) 
....................       if (*s1 != *s2) 
....................          return((*s1 <*s2) ? -1: 1); 
....................       else if (*s1 == '\0') 
....................          return(0); 
....................    return(0); 
.................... } 
.................... /* standard template: 
....................    int strxfrm(const char *s1, const char *s2, size_t n). 
....................    transforms maximum of n characters from s2 and places them into s1*/ 
.................... size_t strxfrm(char *s1, char *s2, size_t n) 
.................... { 
....................   char *s; 
....................   unsigned int8 n1; 
....................   n1=n; 
....................   for (s = s1; n > 0 && *s2 != '\0'; n--) 
....................      *s++ = *s2++; 
....................   for (; n > 0; n--) 
....................      *s++ = '\0'; 
....................  
....................   return(n1); 
.................... } 
....................  
....................  
....................  
....................  
....................  
.................... /***********************************************************/ 
.................... /*Search functions*/ 
.................... /* standard template: void *memchr(const char *s, int c). 
....................    Finds first occurrence of c in n characters of s */ 
....................  
.................... char *memchr(void *s,unsigned int8 c,size_t n) 
.................... { 
....................    char uc; 
....................    char *su; 
....................    uc=c; 
....................    for(su=s;0<n;++su,--n) 
....................       if(*su==uc) 
....................       return su; 
....................    return NULL; 
.................... } 
....................  
.................... /* standard template: char *strchr(const char *s, int c). 
....................    Finds first occurrence of c in s */ 
....................  
.................... char *strchr(char *s, unsigned int8 c) 
.................... { 
....................    for (; *s != c; s++) 
....................       if (*s == '\0') 
....................          return(0); 
....................    return(s); 
.................... } 
.................... /* standard template: 
....................    size_t strcspn(const char *s1, const char *s2). 
....................    Computes length of max initial segment of s1 that 
....................    consists entirely of characters NOT from s2*/ 
....................  
.................... unsigned int8  strcspn(char *s1, char *s2) 
.................... { 
....................    char *sc1, *sc2; 
....................  
....................    for (sc1 = s1; *sc1 != 0; sc1++) 
....................       for (sc2 = s2; *sc2 != 0; sc2++) 
....................          if (*sc1 == *sc2) 
....................             return(sc1 - s1); 
....................    return(sc1 - s1); 
.................... } 
.................... /* standard template: 
....................    char *strpbrk(const char *s1, const char *s2). 
....................    Locates first occurence of any character from s2 in s1; 
....................    returns s1 if s2 is empty string */ 
....................  
.................... char *strpbrk(char *s1, char *s2) 
.................... { 
....................    char *sc1, *sc2; 
....................  
....................    for (sc1 = s1; *sc1 != 0; sc1++) 
....................       for (sc2 = s2; *sc2 != 0; sc2++) 
....................          if (*sc1 == *sc2) 
....................             return(sc1); 
....................    return(0); 
.................... } 
....................  
....................  
.................... /* standard template: char *strrchr(const char *s, int c). 
....................    Finds last occurrence of c in s */ 
....................  
.................... char *strrchr(char *s, unsigned int8 c) 
.................... { 
....................    char *p; 
....................  
....................    for (p = 0; ; s++) 
....................    { 
....................       if (*s == c) 
....................          p = s; 
....................       if (*s == '\0') 
....................          return(p); 
....................    } 
.................... } 
.................... /* computes length of max initial segment of s1 consisting 
....................    entirely of characters from s2 */ 
....................  
.................... unsigned int8  strspn(char *s1, char *s2) 
.................... { 
....................    char *sc1, *sc2; 
....................  
....................    for (sc1 = s1; *sc1 != 0; sc1++) 
....................       for (sc2 = s2; ; sc2++) 
....................     if (*sc2 == '\0') 
....................        return(sc1 - s1); 
....................          else if (*sc1 == *sc2) 
....................             break; 
....................    return(sc1 - s1); 
.................... } 
.................... /* standard template: 
....................    char *strstr(const char *s1, const char *s2); 
....................    Locates first occurence of character sequence s2 in s1; 
....................    returns 0 if s2 is empty string 
....................  
....................    Uncomment #define FASTER_BUT_MORE_ROM at the top of the 
....................    file to use the faster algorithm */ 
.................... char *strstr(char *s1, char *s2) 
.................... { 
....................    char *s, *t; 
....................  
....................    #ifdef FASTER_BUT_MORE_ROM 
....................    if (*s2 == '\0') 
....................          return(s1); 
....................    #endif 
....................  
....................    while (*s1) 
....................    { 
....................       for(s = s1, t = s2; *t && (*s == *t); ++s, ++t); 
....................  
....................       if (*t == '\0') 
....................          return s1; 
....................       ++s1; 
....................       #ifdef FASTER_BUT_MORE_ROM 
....................          while(*s1 != '\0' && *s1 != *s2) 
....................             ++s1; 
....................       #endif 
....................    } 
....................    return 0; 
.................... } 
....................  
.................... /* standard template: char *strtok(char *s1, const char *s2). 
....................  
....................    Finds next token in s1 delimited by a character from separator 
....................    string s2 (which can be different from call to call).  First call 
....................    starts at beginning of s1 searching for first character NOT 
....................    contained in s2; returns 0 if none is found. 
....................    If one is found, it is the start of first token (return value). 
....................    Function then searches from there for a character contained in s2. 
....................    If none is found, current token extends to end of s1, and subsequent 
....................    searches for a token will return 0.  If one is found, it is 
....................    overwritten by '\0', which terminates current token.  Function saves 
....................    pointer to following character from which next search will start. 
....................    Each subsequent call, with 0 as first argument, starts searching 
....................    from saved pointer */ 
....................  
.................... char *strtok(char *s1, char *s2) 
.................... { 
....................    char *beg, *end; 
....................    static char *save; 
....................  
....................    beg = (s1)? s1: save; 
....................    beg += strspn(beg, s2); 
....................    if (*beg == '\0') 
....................    { 
....................       *save = ' '; 
....................       return(0); 
....................    } 
....................    end = strpbrk(beg, s2); 
....................    if (*end != '\0') 
....................    { 
....................       *end = '\0'; 
....................       end++; 
....................    } 
....................    save = end; 
....................    return(beg); 
.................... } 
....................  
.................... /*****************************************************************/ 
.................... /*Miscellaneous functions*/ 
.................... /* standard template 
.................... maps error number in errnum to an error message string 
.................... Returns: Pointer to string 
.................... */ 
.................... #ifdef _ERRNO 
.................... char * strerror(unsigned int8 errnum) 
.................... { 
.................... char s[15]; 
.................... switch( errnum) 
.................... { 
.................... case 0: 
....................    strcpy(s,"no errors"); 
....................    return s; 
.................... case EDOM : 
....................    strcpy(s,"domain error"); 
....................    return s; 
.................... case ERANGE: 
....................    strcpy(s,"range error"); 
....................    return s; 
.................... } 
.................... } 
.................... #ENDIF 
.................... /* standard template: size_t strlen(const char *s). 
....................    Computes length of s1 (preceding terminating 0) */ 
....................  
.................... unsigned int8 strlen(char *s) 
.................... { 
....................    char *sc; 
....................  
....................    for (sc = s; *sc != 0; sc++); 
....................    return(sc - s); 
.................... } 
....................  
.................... /* standard template: size_t stricmp(const char *s1, const char *s2). 
....................    Compares s1 to s2 ignoring case (upper vs. lower) */ 
....................  
.................... signed int8 stricmp(char *s1, char *s2) 
.................... { 
....................  for(; *s1==*s2||(isalpha(*s1)&&isalpha(*s2)&&(*s1==*s2+32||*s2==*s1+32)); 
....................     s1++, s2++) 
....................     if (*s1 == '\0') 
....................        return(0); 
....................  return((*s1 < *s2) ? -1: 1); 
.................... } 
....................  
....................  
.................... /* standard template: char *strlwr(char *s). 
....................    Replaces uppercase letters by lowercase; 
....................    returns pointer to new string s */ 
....................  
.................... char *strlwr(char *s) 
.................... { 
....................    char *p; 
....................  
....................    for (p = s; *p != '\0'; p++) 
....................       if (*p >= 'A' && *p <='Z') 
....................          *p += 'a' - 'A'; 
....................    return(s); 
.................... } 
....................  
....................  
.................... /************************************************************/ 
....................  
....................  
.................... #endif 
....................  
....................  
.................... div_t div(signed int numer, signed int denom) 
.................... { 
....................    div_t val; 
....................    val.quot = numer / denom; 
....................    val.rem = numer - (denom * val.quot); 
....................    return (val); 
.................... } 
....................  
.................... ldiv_t ldiv(signed long numer, signed long denom) 
.................... { 
....................    ldiv_t val; 
....................  
....................    val.quot = numer / denom; 
....................    val.rem = numer - (denom * val.quot); 
....................    return (val); 
.................... } 
....................  
.................... #if defined(__PCD__) 
.................... float32 atoe(char * s) 
.................... { 
....................    float32 pow10 = 1.0; 
....................    float32 result = 0.0; 
....................    unsigned int8 sign = 0; 
....................    unsigned int8 expsign = 0; 
....................    char c; 
....................    unsigned int8 ptr = 0; 
....................    unsigned int8 i; 
....................    float32 exp = 1.0; 
....................    unsigned int8 expcnt = 0; 
....................  
....................    c = s[ptr++]; 
....................  
....................    if ((c>='0' && c<='9') || c=='+' || c=='-' || c=='.' || c=='E' || c=='e') { 
....................       if(c == '-') { 
....................          sign = 1; 
....................          c = s[ptr++]; 
....................       } 
....................       if(c == '+') 
....................          c = s[ptr++]; 
....................  
....................       while((c >= '0' && c <= '9')) { 
....................          result = 10*result + c - '0'; 
....................          c = s[ptr++]; 
....................       } 
....................  
....................       if (c == '.') { 
....................          c = s[ptr++]; 
....................          while((c >= '0' && c <= '9')) { 
....................              pow10 = pow10*10; 
....................              result += (c - '0')/pow10; 
....................              c = s[ptr++]; 
....................          } 
....................       } 
....................  
....................       // Handling the exponent 
....................       if (c=='e' || c=='E') { 
....................          c = s[ptr++]; 
....................  
....................          if(c == '-') { 
....................             expsign = 1; 
....................             c = s[ptr++]; 
....................          } 
....................          if(c == '+') 
....................             c = s[ptr++]; 
....................  
....................          while((c >= '0' && c <= '9')) { 
....................             expcnt = 10*expcnt + c - '0'; 
....................             c = s[ptr++]; 
....................          } 
....................  
....................          for(i=0;i<expcnt;i++) 
....................             exp*=10; 
....................  
....................          if(expsign==1) 
....................             result/=exp; 
....................          else 
....................             result*=exp; 
....................       } 
....................    } 
....................  
....................    if (sign == 1) 
....................       result = -1*result; 
....................    return(result); 
.................... } 
.................... #endif 
....................  
.................... #if !defined(__PCD__) 
.................... float atoe(char * s) 
.................... { 
....................    float pow10 = 1.0; 
....................    float result = 0.0; 
....................    unsigned int8 sign = 0; 
....................    unsigned int8 expsign = 0; 
....................    char c; 
....................    unsigned int8 ptr = 0; 
....................    unsigned int8 i; 
....................    float exp = 1.0; 
....................    unsigned int8 expcnt = 0; 
....................  
....................    c = s[ptr++]; 
....................  
....................    if ((c>='0' && c<='9') || c=='+' || c=='-' || c=='.' || c=='E' || c=='e') { 
....................       if(c == '-') { 
....................          sign = 1; 
....................          c = s[ptr++]; 
....................       } 
....................       if(c == '+') 
....................          c = s[ptr++]; 
....................  
....................       while((c >= '0' && c <= '9')) { 
....................          result = 10*result + c - '0'; 
....................          c = s[ptr++]; 
....................       } 
....................  
....................       if (c == '.') { 
....................          c = s[ptr++]; 
....................          while((c >= '0' && c <= '9')) { 
....................              pow10 = pow10*10; 
....................              result += (c - '0')/pow10; 
....................              c = s[ptr++]; 
....................          } 
....................       } 
....................  
....................       // Handling the exponent 
....................       if (c=='e' || c=='E') { 
....................          c = s[ptr++]; 
....................  
....................          if(c == '-') { 
....................             expsign = 1; 
....................             c = s[ptr++]; 
....................          } 
....................          if(c == '+') 
....................             c = s[ptr++]; 
....................  
....................          while((c >= '0' && c <= '9')) { 
....................             expcnt = 10*expcnt + c - '0'; 
....................             c = s[ptr++]; 
....................          } 
....................  
....................          for(i=0;i<expcnt;i++) 
....................             exp*=10; 
....................  
....................          if(expsign==1) 
....................             result/=exp; 
....................          else 
....................             result*=exp; 
....................       } 
....................    } 
....................  
....................    if (sign == 1) 
....................       result = -1*result; 
....................    return(result); 
.................... } 
.................... #endif 
....................  
.................... signed int atoi(char *s) 
.................... { 
....................    signed int result; 
....................    unsigned int sign, base, index; 
....................    char c; 
....................  
....................    index = 0; 
....................    sign = 0; 
....................    base = 10; 
....................    result = 0; 
....................  
....................    if (!s) 
....................       return 0; 
....................    // Omit all preceeding alpha characters 
....................    c = s[index++]; 
....................  
....................    // increase index if either positive or negative sign is detected 
....................    if (c == '-') 
....................    { 
....................       sign = 1;         // Set the sign to negative 
....................       c = s[index++]; 
....................    } 
....................    else if (c == '+') 
....................    { 
....................       c = s[index++]; 
....................    } 
....................  
....................    if (c >= '0' && c <= '9') 
....................    { 
....................  
....................       // Check for hexa number 
....................       if (c == '0' && (s[index] == 'x' || s[index] == 'X')) 
....................       { 
....................          base = 16; 
....................          index++; 
....................          c = s[index++]; 
....................       } 
....................  
....................       // The number is a decimal number 
....................       if (base == 10) 
....................       { 
....................          while (c >= '0' && c <= '9') 
....................          { 
....................             result = 10*result + (c - '0'); 
....................             c = s[index++]; 
....................          } 
....................       } 
....................       else if (base == 16)    // The number is a hexa number 
....................       { 
....................          c = toupper(c); 
....................          while ( (c >= '0' && c <= '9') || (c >= 'A' && c<='F')) 
....................          { 
....................             if (c >= '0' && c <= '9') 
....................                result = (result << 4) + (c - '0'); 
....................             else 
....................                result = (result << 4) + (c - 'A' + 10); 
....................  
....................             c = s[index++]; 
....................             c = toupper(c); 
....................          } 
....................       } 
....................    } 
....................  
....................    if (sign == 1 && base == 10) 
....................        result = -result; 
....................  
....................    return(result); 
.................... } 
....................  
.................... signed long atol(char *s) 
.................... { 
....................    signed long result; 
....................    unsigned int sign, base, index; 
....................    char c; 
....................  
....................    index = 0; 
....................    sign = 0; 
....................    base = 10; 
....................    result = 0; 
....................  
....................    if (!s) 
....................       return 0; 
....................    c = s[index++]; 
....................  
....................    // increase index if either positive or negative sign is detected 
....................    if (c == '-') 
....................    { 
....................       sign = 1;         // Set the sign to negative 
....................       c = s[index++]; 
....................    } 
....................    else if (c == '+') 
....................    { 
....................       c = s[index++]; 
....................    } 
....................  
....................    if (c >= '0' && c <= '9') 
....................    { 
....................       if (c == '0' && (s[index] == 'x' || s[index] == 'X')) 
....................       { 
....................          base = 16; 
....................          index++; 
....................          c = s[index++]; 
....................       } 
....................  
....................       // The number is a decimal number 
....................       if (base == 10) 
....................       { 
....................          while (c >= '0' && c <= '9') 
....................          { 
....................             result = 10*result + (c - '0'); 
....................             c = s[index++]; 
....................          } 
....................       } 
....................       else if (base == 16)    // The number is a hexa number 
....................       { 
....................          c = toupper(c); 
....................          while ( (c >= '0' && c <= '9') || (c >= 'A' && c <='F')) 
....................          { 
....................             if (c >= '0' && c <= '9') 
....................                result = (result << 4) + (c - '0'); 
....................             else 
....................                result = (result << 4) + (c - 'A' + 10); 
....................  
....................             c = s[index++];c = toupper(c); 
....................          } 
....................       } 
....................    } 
....................  
....................    if (base == 10 && sign == 1) 
....................       result = -result; 
....................  
....................    return(result); 
.................... } 
....................  
.................... /* A fast routine to multiply by 10 
....................  */ 
.................... signed int32 mult_with10(int32 num) 
.................... { 
....................    return ( (num << 1) + (num << 3) ); 
.................... } 
....................  
.................... #if sizeof(long)==2 
.................... signed int32 atoi32(char *s) 
.................... { 
....................    signed int32 result; 
....................    int8 sign, base, index; 
....................    char c; 
....................  
....................    index = 0; 
....................    sign = 0; 
....................    base = 10; 
....................    result = 0; 
....................  
....................    if (!s) 
....................       return 0; 
....................    c = s[index++]; 
....................  
....................    // increase index if either positive or negative sign is detected 
....................    if (c == '-') 
....................    { 
....................       sign = 1;         // Set the sign to negative 
....................       c = s[index++]; 
....................    } 
....................    else if (c == '+') 
....................    { 
....................       c = s[index++]; 
....................    } 
....................  
....................    if (c >= '0' && c <= '9') 
....................    { 
....................       if (c == '0' && (s[index] == 'x' || s[index] == 'X')) 
....................       { 
....................          base = 16; 
....................          index++; 
....................          c = s[index++]; 
....................       } 
....................  
....................       // The number is a decimal number 
....................       if (base == 10) 
....................       { 
....................          while (c >= '0' && c <= '9') { 
....................             result = (result << 1) + (result << 3);  // result *= 10; 
....................             result += (c - '0'); 
....................             c = s[index++]; 
....................          } 
....................       } 
....................       else if (base == 16)    // The number is a hexa number 
....................       { 
....................          c = toupper(c); 
....................          while ((c >= '0' && c <= '9') || (c >= 'A' && c <='F')) 
....................          { 
....................             if (c >= '0' && c <= '9') 
....................                result = (result << 4) + (c - '0'); 
....................             else 
....................                result = (result << 4) + (c - 'A' + 10); 
....................  
....................             c = s[index++];c = toupper(c); 
....................          } 
....................       } 
....................    } 
....................  
....................    if (base == 10 && sign == 1) 
....................       result = -result; 
....................  
....................    return(result); 
.................... } 
.................... #endif 
....................  
.................... #if defined(__PCD__) 
....................  
.................... signed int48 atoi48(char *s) 
.................... { 
....................    signed int48 result; 
....................    int8 sign, base, index; 
....................    char c; 
....................  
....................    index = 0; 
....................    sign = 0; 
....................    base = 10; 
....................    result = 0; 
....................  
....................    if (!s) 
....................       return 0; 
....................    c = s[index++]; 
....................  
....................    // increase index if either positive or negative sign is detected 
....................    if (c == '-') 
....................    { 
....................       sign = 1;         // Set the sign to negative 
....................       c = s[index++]; 
....................    } 
....................    else if (c == '+') 
....................    { 
....................       c = s[index++]; 
....................    } 
....................  
....................    if (c >= '0' && c <= '9') 
....................    { 
....................       if (c == '0' && (s[index] == 'x' || s[index] == 'X')) 
....................       { 
....................          base = 16; 
....................          index++; 
....................          c = s[index++]; 
....................       } 
....................  
....................       // The number is a decimal number 
....................       if (base == 10) 
....................       { 
....................          while (c >= '0' && c <= '9') { 
....................             result = (result << 1) + (result << 3);  // result *= 10; 
....................             result += (c - '0'); 
....................             c = s[index++]; 
....................          } 
....................       } 
....................       else if (base == 16)    // The number is a hexa number 
....................       { 
....................          c = toupper(c); 
....................          while ((c >= '0' && c <= '9') || (c >= 'A' && c <='F')) 
....................          { 
....................             if (c >= '0' && c <= '9') 
....................                result = (result << 4) + (c - '0'); 
....................             else 
....................                result = (result << 4) + (c - 'A' + 10); 
....................  
....................             c = s[index++];c = toupper(c); 
....................          } 
....................       } 
....................    } 
....................  
....................    if (base == 10 && sign == 1) 
....................       result = -result; 
....................  
....................    return(result); 
.................... } 
....................  
.................... signed int64 atoi64(char *s) 
.................... { 
....................    signed int64 result; 
....................    int8 sign, base, index; 
....................    char c; 
....................  
....................    index = 0; 
....................    sign = 0; 
....................    base = 10; 
....................    result = 0; 
....................  
....................    if (!s) 
....................       return 0; 
....................    c = s[index++]; 
....................  
....................    // increase index if either positive or negative sign is detected 
....................    if (c == '-') 
....................    { 
....................       sign = 1;         // Set the sign to negative 
....................       c = s[index++]; 
....................    } 
....................    else if (c == '+') 
....................    { 
....................       c = s[index++]; 
....................    } 
....................  
....................    if (c >= '0' && c <= '9') 
....................    { 
....................       if (c == '0' && (s[index] == 'x' || s[index] == 'X')) 
....................       { 
....................          base = 16; 
....................          index++; 
....................          c = s[index++]; 
....................       } 
....................  
....................       // The number is a decimal number 
....................       if (base == 10) 
....................       { 
....................          while (c >= '0' && c <= '9') { 
....................             result = (result << 1) + (result << 3);  // result *= 10; 
....................             result += (c - '0'); 
....................             c = s[index++]; 
....................          } 
....................       } 
....................       else if (base == 16)    // The number is a hexa number 
....................       { 
....................          c = toupper(c); 
....................          while ((c >= '0' && c <= '9') || (c >= 'A' && c <='F')) 
....................          { 
....................             if (c >= '0' && c <= '9') 
....................                result = (result << 4) + (c - '0'); 
....................             else 
....................                result = (result << 4) + (c - 'A' + 10); 
....................  
....................             c = s[index++];c = toupper(c); 
....................          } 
....................       } 
....................    } 
....................  
....................    if (base == 10 && sign == 1) 
....................       result = -result; 
....................  
....................    return(result); 
.................... } 
.................... #endif 
....................  
.................... char * itoa(signed int32 num, unsigned int base, char * s) 
.................... { 
....................      unsigned int32 temp=1; 
....................      unsigned int8 i,sign=0,cnt=0; 
....................      char c; 
....................  
....................      if(num<0) { 
....................          sign=1;        // Check for negative number 
....................          num*=-1; 
....................      } 
....................  
....................      while(temp>0) { 
....................          temp=(num/base); 
....................          s[cnt]=(num%base)+'0';    // Conversion 
....................  
....................          if(s[cnt]>0x39) 
....................             s[cnt]+=0x7; 
....................  
....................          cnt++; 
....................          num=temp; 
....................      } 
....................  
....................      if(sign==1) { 
....................          s[cnt]=0x2D;      // Negative sign 
....................          cnt++; 
....................      } 
....................  
....................      for(i = 0;i<(int8)(cnt/2);i++) { 
....................  
....................          c=s[i]; 
....................          s[i]=s[cnt-i-1];        // Reverse the number 
....................          s[cnt-i-1]=c; 
....................      } 
....................      s[cnt]='\0';     // End the string 
....................      return s; 
.................... } 
....................  
.................... float strtof(char *s, char *endptr) 
.................... { 
....................    float pow10 = 1.0; 
....................    float result = 0.0; 
....................    int1 skip = 1, sign = 0, point = 0; 
....................    char c; 
....................    unsigned int8 ptr = 0; 
....................  
....................    if (!s) 
....................       return 0; 
....................  
....................    for(c=s[ptr++]; c!=0; c=s[ptr++]) 
....................    { 
....................       if (skip && !isspace(c)) 
....................       { 
....................          skip = 0; 
....................          if (c == '+') 
....................          { 
....................             sign = 0; 
....................             continue; 
....................          }             
....................          else if (c == '-') 
....................          { 
....................             sign = 1; 
....................             continue; 
....................          } 
....................       } 
....................       if (!skip && (c == '.') && !point) 
....................          point = 1; 
....................       else if (!skip && isdigit(c)) 
....................       { 
....................          c -= '0'; 
....................          if (point) 
....................          { 
....................             pow10 = pow10 * 10.0; 
....................             result += (float)c / pow10;    
....................          } 
....................          else 
....................          { 
....................             result = 10.0 * result + (float)c; 
....................          } 
....................       } 
....................       else if (!skip) 
....................          break; 
....................    } 
....................  
....................    if (sign) 
....................       result = -1*result; 
....................        
....................    if(endptr) 
....................    { 
....................       if (ptr) { 
....................          ptr--; 
....................        #IF LONG_POINTERS  
....................          *((long *)endptr)= s+ptr;  
....................        #ELSE 
....................          *((char *)endptr)=s+ptr; 
....................        #ENDIF 
....................       } 
....................       else 
....................       { 
....................       #IF LONG_POINTERS 
....................       *((long *)endptr)= s;  
....................       #ELSE 
....................       *((char *)endptr)=s; 
....................       #ENDIF 
....................       } 
....................    } 
....................  
....................    return(result); 
.................... } 
....................  
.................... #if defined(__PCD__) 
.................... float48 strtof48(char *s, char *endptr) 
.................... { 
....................    float48 pow10 = 1.0; 
....................    float48 result = 0.0; 
....................    int1 skip = 1, sign = 0, point = 0; 
....................    char c; 
....................    unsigned int8 ptr = 0; 
....................  
....................    if (!s) 
....................       return 0; 
....................  
....................    for(c=s[ptr++]; c!=0; c=s[ptr++]) 
....................    { 
....................       if (skip && !isspace(c)) 
....................       { 
....................          skip = 0; 
....................          if (c == '+') 
....................          { 
....................             sign = 0; 
....................             continue; 
....................          }             
....................          else if (c == '-') 
....................          { 
....................             sign = 1; 
....................             continue; 
....................          } 
....................       } 
....................       if (!skip && (c == '.') && !point) 
....................          point = 1; 
....................       else if (!skip && isdigit(c)) 
....................       { 
....................          c -= '0'; 
....................          if (point) 
....................          { 
....................             pow10 = pow10 * 10.0; 
....................             result += (float48)c / pow10;    
....................          } 
....................          else 
....................          { 
....................             result = 10.0 * result + (float48)c; 
....................          } 
....................       } 
....................       else if (!skip) 
....................          break; 
....................    } 
....................  
....................    if (sign) 
....................       result = -1*result; 
....................        
....................    if(endptr) 
....................    { 
....................       if (ptr) { 
....................          ptr--; 
....................        #IF LONG_POINTERS  
....................          *((long *)endptr)= s+ptr;  
....................        #ELSE 
....................          *((char *)endptr)=s+ptr; 
....................        #ENDIF 
....................       } 
....................       else 
....................       { 
....................       #IF LONG_POINTERS 
....................       *((long *)endptr)= s;  
....................       #ELSE 
....................       *((char *)endptr)=s; 
....................       #ENDIF 
....................       } 
....................    } 
....................  
....................    return(result); 
.................... } 
....................  
.................... float64 strtod(char *s, char *endptr) 
.................... { 
....................    float64 pow10 = 1.0; 
....................    float64 result = 0.0; 
....................    int1 skip = 1, sign = 0, point = 0; 
....................    char c; 
....................    unsigned int8 ptr = 0; 
....................  
....................    if (!s) 
....................       return 0; 
....................  
....................    for(c=s[ptr++]; c!=0; c=s[ptr++]) 
....................    { 
....................       if (skip && !isspace(c)) 
....................       { 
....................          skip = 0; 
....................          if (c == '+') 
....................          { 
....................             sign = 0; 
....................             continue; 
....................          }             
....................          else if (c == '-') 
....................          { 
....................             sign = 1; 
....................             continue; 
....................          } 
....................       } 
....................       if (!skip && (c == '.') && !point) 
....................          point = 1; 
....................       else if (!skip && isdigit(c)) 
....................       { 
....................          c -= '0'; 
....................          if (point) 
....................          { 
....................             pow10 = pow10 * 10.0; 
....................             result += (float64)c / pow10;    
....................          } 
....................          else 
....................          { 
....................             result = 10.0 * result + (float64)c; 
....................          } 
....................       } 
....................       else if (!skip) 
....................          break; 
....................    } 
....................  
....................    if (sign) 
....................       result = -1*result; 
....................        
....................    if(endptr) 
....................    { 
....................       if (ptr) { 
....................          ptr--; 
....................        #IF LONG_POINTERS  
....................          *((long *)endptr)= s+ptr;  
....................        #ELSE 
....................          *((char *)endptr)=s+ptr; 
....................        #ENDIF 
....................       } 
....................       else 
....................       { 
....................       #IF LONG_POINTERS 
....................       *((long *)endptr)= s;  
....................       #ELSE 
....................       *((char *)endptr)=s; 
....................       #ENDIF 
....................       } 
....................    } 
....................  
....................    return(result); 
.................... } 
.................... #endif 
....................  
.................... unsigned long strtoul(char *s, char *endptr, signed int base) 
.................... { 
....................    char *sc,*s1,*sd; 
....................    unsigned long x=0; 
....................    char sign; 
....................    char digits[]="0123456789abcdefghijklmnopqstuvwxyz"; 
....................    for(sc=s;isspace(*sc);++sc); 
....................    sign=*sc=='-'||*sc=='+'?*sc++:'+'; 
....................    if(sign=='-' || base <0 || base ==1|| base >36) // invalid base 
....................    goto StrtoulGO; 
....................  
....................    else if (base) 
....................    { 
....................       if(base==16 && *sc =='0'&&(sc[1]=='x' || sc[1]=='X')) 
....................          sc+=2; 
....................       if(base==8 && *sc =='0') 
....................          sc+=1; 
....................       if(base==2 && *sc =='0'&&sc[1]=='b') 
....................          sc+=2; 
....................  
....................    } 
....................    else if(*sc!='0') // base is 0, find base 
....................       base=10; 
....................    else if (sc[1]=='x' || sc[1]=='X') 
....................       base =16,sc+=2; 
....................    else if(sc[1]=='b') 
....................       base=2,sc+=2; 
....................    else 
....................       base=8; 
....................    for (s1=sc;*sc=='0';++sc);// skip leading zeroes 
....................    sd=memchr(digits,tolower(*sc),base); 
....................    for(; sd!=0; ) 
....................    { 
....................       x=x*base+(int16)(sd-digits); 
....................       ++sc; 
....................       sd=memchr(digits,tolower(*sc),base); 
....................    } 
....................    if(s1==sc) 
....................    { 
....................    StrtoulGO: 
....................       if (endptr) 
....................       { 
....................          #IF LONG_POINTERS 
....................          *((long *)endptr)= s;  
....................          #ELSE 
....................          *((char *)endptr)=s; 
....................          #ENDIF 
....................          } 
....................    return 0; 
....................    } 
....................    if (endptr) 
....................    { 
....................          #IF LONG_POINTERS 
....................          *((long *)endptr)= sc;  
....................          #ELSE 
....................          *((char *)endptr)=sc;  
....................          #ENDIF 
....................    } 
....................    return x; 
.................... } 
....................  
....................  
.................... signed long strtol(char *s,char *endptr, signed int base) 
.................... { 
....................    char *sc,*s1,*sd; 
....................    signed long x=0; 
....................    char sign; 
....................    char digits[]="0123456789abcdefghijklmnopqstuvwxyz"; 
....................    for(sc=s;isspace(*sc);++sc); 
....................    sign=*sc=='-'||*sc=='+'?*sc++:'+'; 
....................    if (base <0 || base ==1|| base >36) // invalid base 
....................    goto StrtolGO; 
....................    else if (base) 
....................    { 
....................       if(base==16 && *sc =='0'&&(sc[1]=='x' || sc[1]=='X')) 
....................          sc+=2; 
....................       if(base==8 && *sc =='0') 
....................          sc+=1; 
....................       if(base==2 && *sc =='0'&&sc[1]=='b') 
....................          sc+=2; 
....................  
....................    } 
....................    else if(*sc!='0') // base is 0, find base 
....................       base=10; 
....................    else if (sc[1]=='x' || sc[1]=='X') 
....................       base =16,sc+=2; 
....................    else if(sc[1]=='b') 
....................       base=2,sc+=2; 
....................    else 
....................       base=8; 
....................    for (s1=sc;*sc=='0';++sc);// skip leading zeroes 
....................  
....................    sd=memchr(digits,tolower(*sc),base); 
....................    for(;sd!=0;) 
....................    { 
....................       x=x*base+(int16)(sd-digits); 
....................       ++sc; 
....................       sd=memchr(digits,tolower(*sc),base); 
....................    } 
....................    if(s1==sc) 
....................    { 
....................    StrtolGO: 
....................       if (endptr) 
....................       { 
....................          #IF LONG_POINTERS 
....................          *((long *)endptr)= s;  
....................          #ELSE 
....................          *((char *)endptr)=s; 
....................          #ENDIF 
....................       } 
....................    return 0; 
....................    } 
....................    if(sign=='-') 
....................       x  =-x; 
....................    if (endptr) 
....................    { 
....................         #IF LONG_POINTERS 
....................          *((long *)endptr)= sc;  
....................         #ELSE 
....................         *((char *)endptr)=sc; 
....................         #ENDIF 
....................    } 
....................    return x; 
.................... } 
....................  
.................... signed int8 system(char *string) 
.................... { 
....................    return 0; 
.................... } 
....................  
.................... int8 mblen(char *s,size_t n) 
.................... { 
....................    return strlen(s); 
.................... } 
....................  
.................... int8 mbtowc(wchar_t *pwc,char *s,size_t n) 
.................... { 
....................    *pwc=*s; 
....................    return 1; 
.................... } 
....................  
.................... int8 wctomb(char *s,wchar_t wchar) 
.................... { 
....................    *s=wchar; 
....................    return 1; 
.................... } 
....................  
.................... size_t mbstowcs(wchar_t *pwcs,char *s,size_t n) 
.................... { 
....................    strncpy(pwcs,s,n); 
....................    return strlen(pwcs); 
.................... } 
....................  
.................... size_t wcstombs(char *s,wchar_t *pwcs,size_t n) 
.................... { 
....................    strncpy(s,pwcs,n); 
....................    return strlen(s); 
.................... } 
....................  
.................... //--------------------------------------------------------------------------- 
.................... // The random number implementation 
.................... //--------------------------------------------------------------------------- 
....................  
.................... unsigned int32 _Randseed; 
....................  
.................... unsigned int16 rand(void) 
.................... { 
....................    _Randseed = _Randseed * 1103515245 + 12345; 
....................    return ((unsigned int16)(_Randseed >> 16) % RAND_MAX); 
.................... } 
....................  
.................... void srand(unsigned int32 seed) 
.................... { 
....................    _Randseed = seed; 
.................... } 
....................  
.................... //--------------------------------------------------------------------------- 
.................... // Searching and sorting utilities implementation 
.................... //--------------------------------------------------------------------------- 
....................  
.................... #if !defined(__PCD__) 
.................... typedef signed int8 (*_Cmpfun)(char * p1,char * p2);  
.................... #else  
.................... typedef signed int16 (*_Cmpfun)(char * p1,char * p2);  
.................... #endif 
....................  
....................  
....................  
.................... void qsort(char * qdata, unsigned int qitems, unsigned int qsize, _Cmpfun cmp) { 
....................    unsigned int m,j,i,l; 
....................    int1 done; 
....................    unsigned int8 t[16]; 
....................  
....................    m = qitems/2; 
....................    while( m > 0 ) { 
....................      for(j=0; j<(qitems-m); ++j) { 
....................         i = j; 
....................         do 
....................         { 
....................            done=1; 
....................            l = i+m; 
....................            if( (*cmp)(qdata+i*qsize, qdata+l*qsize) > 0 ) { 
....................               memcpy(t, qdata+i*qsize, qsize); 
....................               memcpy(qdata+i*qsize, qdata+l*qsize, qsize); 
....................               memcpy(qdata+l*qsize, t, qsize); 
....................               if(m <= i) 
....................                 i -= m; 
....................                 done = 0; 
....................            } 
....................         } while(!done); 
....................      } 
....................      m = m/2; 
....................    } 
.................... } 
....................  
....................  
.................... char *bsearch(char *key, char *base, size_t num, size_t width,_Cmpfun cmp) 
.................... { 
....................    char *p, *q; 
....................    size_t n; 
....................    size_t pivot; 
....................    signed int val; 
....................  
....................    p = base; 
....................    n = num; 
....................  
....................    while (n > 0) 
....................    { 
....................       pivot = n >> 1; 
....................       q = p + width * pivot; 
....................  
....................       val = (*cmp)(key, q); 
....................  
....................       if (val < 0) 
....................          n = pivot; 
....................       else if (val == 0) 
....................          return ((char *)q); 
....................       else { 
....................          p = q + width; 
....................          n -= pivot + 1; 
....................       } 
....................    } 
....................  
....................    return NULL;      // There's no match 
.................... } 
....................  
....................  
.................... #endif 
....................  
.................... #include <DS1302.c> 
.................... ////////////////////////////////////////////////////////////////////////// 
.................... ////                               DS1302.C                           //// 
.................... ////                     Driver for Real Time Clock                   //// 
.................... ////                                                                  //// 
.................... ////  rtc_init()                                   Call after power up//// 
.................... ////                                                                  //// 
.................... ////  rtc_set_datetime(day,mth,year,dow,hour,min)  Set the date/time  //// 
.................... ////                                                                  //// 
.................... ////  rtc_get_date(day,mth,year,dow)               Get the date       //// 
.................... ////                                                                  //// 
.................... ////  rtc_get_time(hr,min,sec)                     Get the time       //// 
.................... ////                                                                  //// 
.................... ////  rtc_write_nvr(address,data)                  Write to NVR       //// 
.................... ////                                                                  //// 
.................... ////  data = rtc_read_nvr(address)                 Read from NVR      //// 
.................... ////                                                                  //// 
.................... ////  get_bcd(data)                              Convert data to BCD  //// 
.................... ////                                                                  //// 
.................... ////  rm_bcd(data)                               Convert data to int  //// 
.................... ////                                                                  //// 
.................... ////////////////////////////////////////////////////////////////////////// 
.................... ////        (C) Copyright 1996,2003 Custom Computer Services          //// 
.................... //// This source code may only be used by licensed users of the CCS C //// 
.................... //// compiler.  This source code may only be distributed to other     //// 
.................... //// licensed users of the CCS C compiler.  No other use, reproduction//// 
.................... //// or distribution is permitted without written permission.         //// 
.................... //// Derivative programs created using this software in object code   //// 
.................... //// form are not restricted in any way.                              //// 
.................... ////////////////////////////////////////////////////////////////////////// 
....................  
.................... #ifndef RTC_SCLK 
....................  
.................... #define RTC_SCLK PIN_D4 
.................... #define RTC_IO   PIN_D5 
.................... #define RTC_RST  PIN_D6 
....................  
.................... #endif 
....................  
.................... void write_ds1302_byte(BYTE cmd) { 
....................    BYTE i; 
....................  
....................    for(i=0;i<=7;++i) { 
*
02DDC:  MOVLB  6
02DDE:  CLRF   xA0
02DE0:  MOVF   xA0,W
02DE2:  SUBLW  07
02DE4:  BNC   2E00
....................       output_bit(RTC_IO, shift_right(&cmd,1,0) ); 
02DE6:  BCF    FD8.0
02DE8:  RRCF   x9F,F
02DEA:  BC    2DF0
02DEC:  BCF    F8C.5
02DEE:  BRA    2DF2
02DF0:  BSF    F8C.5
02DF2:  BCF    F95.5
....................       output_high(RTC_SCLK); 
02DF4:  BCF    F95.4
02DF6:  BSF    F8C.4
....................       output_low(RTC_SCLK); 
02DF8:  BCF    F95.4
02DFA:  BCF    F8C.4
....................    } 
02DFC:  INCF   xA0,F
02DFE:  BRA    2DE0
.................... } 
02E00:  MOVLB  0
02E02:  RETLW  00
....................  
.................... void write_ds1302(BYTE cmd, BYTE data) { 
....................  
....................    output_high(RTC_RST); 
02E04:  BCF    F95.6
02E06:  BSF    F8C.6
....................    write_ds1302_byte(cmd); 
02E08:  MOVFF  69D,69F
02E0C:  RCALL  2DDC
....................    write_ds1302_byte(data); 
02E0E:  MOVFF  69E,69F
02E12:  RCALL  2DDC
....................    output_low(RTC_RST); 
02E14:  BCF    F95.6
02E16:  BCF    F8C.6
.................... } 
02E18:  RETLW  00
....................  
.................... BYTE read_ds1302(BYTE cmd) { 
....................    BYTE i,data; 
....................  
....................    output_high(RTC_RST); 
02E1A:  BCF    F95.6
02E1C:  BSF    F8C.6
....................    write_ds1302_byte(cmd); 
02E1E:  MOVFF  69C,69F
02E22:  RCALL  2DDC
....................     
....................    input(RTC_IO); 
02E24:  BSF    F95.5
....................    delay_us(1); 
02E26:  BRA    2E28
02E28:  BRA    2E2A
02E2A:  NOP   
....................           
....................    for(i=0;i<=7;++i) { 
02E2C:  MOVLB  6
02E2E:  CLRF   x9D
02E30:  MOVF   x9D,W
02E32:  SUBLW  07
02E34:  BNC   2E60
....................       shift_right(&data,1,input(RTC_IO)); 
02E36:  BSF    F95.5
02E38:  BTFSC  F83.5
02E3A:  BRA    2E40
02E3C:  BCF    FD8.0
02E3E:  BRA    2E42
02E40:  BSF    FD8.0
02E42:  RRCF   x9E,F
....................       output_high(RTC_SCLK); 
02E44:  BCF    F95.4
02E46:  BSF    F8C.4
....................       delay_us(2); 
02E48:  MOVLW  03
02E4A:  MOVWF  00
02E4C:  DECFSZ 00,F
02E4E:  BRA    2E4C
....................       output_low(RTC_SCLK); 
02E50:  BCF    F95.4
02E52:  BCF    F8C.4
....................       delay_us(2); 
02E54:  MOVLW  03
02E56:  MOVWF  00
02E58:  DECFSZ 00,F
02E5A:  BRA    2E58
....................    } 
02E5C:  INCF   x9D,F
02E5E:  BRA    2E30
....................    output_low(RTC_RST); 
02E60:  BCF    F95.6
02E62:  BCF    F8C.6
....................  
....................    return(data); 
02E64:  MOVFF  69E,01
.................... } 
02E68:  MOVLB  0
02E6A:  RETLW  00
....................  
.................... void rtc_init() { 
....................    BYTE x; 
....................    output_low(RTC_RST); 
02E6C:  BCF    F95.6
02E6E:  BCF    F8C.6
....................    delay_us(2); 
02E70:  MOVLW  03
02E72:  MOVWF  00
02E74:  DECFSZ 00,F
02E76:  BRA    2E74
....................    output_low(RTC_SCLK); 
02E78:  BCF    F95.4
02E7A:  BCF    F8C.4
....................    write_ds1302(0x8e,0); 
02E7C:  MOVLW  8E
02E7E:  MOVLB  6
02E80:  MOVWF  x9D
02E82:  CLRF   x9E
02E84:  MOVLB  0
02E86:  RCALL  2E04
....................    write_ds1302(0x90,0xa4); 
02E88:  MOVLW  90
02E8A:  MOVLB  6
02E8C:  MOVWF  x9D
02E8E:  MOVLW  A4
02E90:  MOVWF  x9E
02E92:  MOVLB  0
02E94:  RCALL  2E04
....................    x=read_ds1302(0x81); 
02E96:  MOVLW  81
02E98:  MOVLB  6
02E9A:  MOVWF  x9C
02E9C:  MOVLB  0
02E9E:  RCALL  2E1A
02EA0:  MOVFF  01,696
....................    if((x & 0x80)!=0) 
02EA4:  MOVLB  6
02EA6:  MOVF   x96,W
02EA8:  ANDLW  80
02EAA:  BZ    2EB8
....................      write_ds1302(0x80,0); 
02EAC:  MOVLW  80
02EAE:  MOVWF  x9D
02EB0:  CLRF   x9E
02EB2:  MOVLB  0
02EB4:  RCALL  2E04
02EB6:  MOVLB  6
.................... } 
02EB8:  MOVLB  0
02EBA:  GOTO   6C90 (RETURN)
....................  
.................... byte get_bcd(BYTE data) 
.................... { 
....................    byte nibh; 
....................    byte nibl; 
....................  
....................    nibh=data/10; 
*
05458:  MOVFF  69C,69F
0545C:  MOVLW  0A
0545E:  MOVLB  6
05460:  MOVWF  xA0
05462:  MOVLB  0
05464:  RCALL  4ED2
05466:  MOVFF  01,69D
....................    nibl=data-(nibh*10); 
0546A:  MOVLB  6
0546C:  MOVF   x9D,W
0546E:  MULLW  0A
05470:  MOVF   FF3,W
05472:  SUBWF  x9C,W
05474:  MOVWF  x9E
....................  
....................    return((nibh<<4)|nibl); 
05476:  SWAPF  x9D,W
05478:  MOVWF  00
0547A:  MOVLW  F0
0547C:  ANDWF  00,F
0547E:  MOVF   00,W
05480:  IORWF  x9E,W
05482:  MOVWF  01
.................... } 
05484:  MOVLB  0
05486:  RETLW  00
....................  
.................... byte rm_bcd(BYTE data) 
.................... { 
....................    byte i; 
....................  
....................    i=data; 
*
04ABE:  MOVFF  69D,69E
....................    data=(i>>4)*10; 
04AC2:  MOVLB  6
04AC4:  SWAPF  x9E,W
04AC6:  MOVWF  00
04AC8:  MOVLW  0F
04ACA:  ANDWF  00,F
04ACC:  MOVF   00,W
04ACE:  MULLW  0A
04AD0:  MOVFF  FF3,69D
....................    data=data+(i<<4>>4); 
04AD4:  SWAPF  x9E,W
04AD6:  MOVWF  00
04AD8:  MOVLW  F0
04ADA:  ANDWF  00,F
04ADC:  MOVF   00,W
04ADE:  SWAPF  00,F
04AE0:  MOVLW  0F
04AE2:  ANDWF  00,F
04AE4:  MOVF   00,W
04AE6:  ADDWF  x9D,F
....................  
....................    return data; 
04AE8:  MOVFF  69D,01
.................... } 
04AEC:  MOVLB  0
04AEE:  RETLW  00
....................  
.................... void rtc_set_datetime(BYTE day, BYTE mth, BYTE year, BYTE dow, BYTE hr, BYTE min) { 
....................  
....................    write_ds1302(0x86,get_bcd(day)); 
*
05488:  MOVFF  696,69C
0548C:  RCALL  5458
0548E:  MOVFF  01,69C
05492:  MOVLW  86
05494:  MOVLB  6
05496:  MOVWF  x9D
05498:  MOVFF  01,69E
0549C:  MOVLB  0
0549E:  CALL   2E04
....................    write_ds1302(0x88,get_bcd(mth)); 
054A2:  MOVFF  697,69C
054A6:  RCALL  5458
054A8:  MOVFF  01,69C
054AC:  MOVLW  88
054AE:  MOVLB  6
054B0:  MOVWF  x9D
054B2:  MOVFF  01,69E
054B6:  MOVLB  0
054B8:  CALL   2E04
....................    write_ds1302(0x8c,get_bcd(year)); 
054BC:  MOVFF  698,69C
054C0:  RCALL  5458
054C2:  MOVFF  01,69C
054C6:  MOVLW  8C
054C8:  MOVLB  6
054CA:  MOVWF  x9D
054CC:  MOVFF  01,69E
054D0:  MOVLB  0
054D2:  CALL   2E04
....................    write_ds1302(0x8a,get_bcd(dow)); 
054D6:  MOVFF  699,69C
054DA:  RCALL  5458
054DC:  MOVFF  01,69C
054E0:  MOVLW  8A
054E2:  MOVLB  6
054E4:  MOVWF  x9D
054E6:  MOVFF  01,69E
054EA:  MOVLB  0
054EC:  CALL   2E04
....................    write_ds1302(0x84,get_bcd(hr)); 
054F0:  MOVFF  69A,69C
054F4:  RCALL  5458
054F6:  MOVFF  01,69C
054FA:  MOVLW  84
054FC:  MOVLB  6
054FE:  MOVWF  x9D
05500:  MOVFF  01,69E
05504:  MOVLB  0
05506:  CALL   2E04
....................    write_ds1302(0x82,get_bcd(min)); 
0550A:  MOVFF  69B,69C
0550E:  RCALL  5458
05510:  MOVFF  01,69C
05514:  MOVLW  82
05516:  MOVLB  6
05518:  MOVWF  x9D
0551A:  MOVFF  01,69E
0551E:  MOVLB  0
05520:  CALL   2E04
....................    write_ds1302(0x80,get_bcd(0)); 
05524:  MOVLB  6
05526:  CLRF   x9C
05528:  MOVLB  0
0552A:  RCALL  5458
0552C:  MOVFF  01,69C
05530:  MOVLW  80
05532:  MOVLB  6
05534:  MOVWF  x9D
05536:  MOVFF  01,69E
0553A:  MOVLB  0
0553C:  CALL   2E04
.................... } 
05540:  GOTO   9702 (RETURN)
....................  
.................... void rtc_get_date(BYTE& day, BYTE& mth, BYTE& year, BYTE& dow) { 
....................    day = rm_bcd(read_ds1302(0x87)); 
*
04B90:  MOVLW  87
04B92:  MOVLB  6
04B94:  MOVWF  x9C
04B96:  MOVLB  0
04B98:  CALL   2E1A
04B9C:  MOVFF  01,698
04BA0:  MOVFF  01,69D
04BA4:  RCALL  4ABE
04BA6:  MOVFF  01,381
....................    mth = rm_bcd(read_ds1302(0x89)); 
04BAA:  MOVLW  89
04BAC:  MOVLB  6
04BAE:  MOVWF  x9C
04BB0:  MOVLB  0
04BB2:  CALL   2E1A
04BB6:  MOVFF  01,698
04BBA:  MOVFF  01,69D
04BBE:  RCALL  4ABE
04BC0:  MOVFF  01,380
....................    year = rm_bcd(read_ds1302(0x8d)); 
04BC4:  MOVLW  8D
04BC6:  MOVLB  6
04BC8:  MOVWF  x9C
04BCA:  MOVLB  0
04BCC:  CALL   2E1A
04BD0:  MOVFF  01,698
04BD4:  MOVFF  01,69D
04BD8:  RCALL  4ABE
04BDA:  MOVFF  01,37F
....................    dow = rm_bcd(read_ds1302(0x8b)); 
04BDE:  MOVLW  8B
04BE0:  MOVLB  6
04BE2:  MOVWF  x9C
04BE4:  MOVLB  0
04BE6:  CALL   2E1A
04BEA:  MOVFF  01,698
04BEE:  MOVFF  01,69D
04BF2:  RCALL  4ABE
04BF4:  MOVFF  01,385
.................... } 
....................  
.................... void rtc_get_time(BYTE& hr, BYTE& min, BYTE& sec) { 
....................    hr = rm_bcd(read_ds1302(0x85)); 
04BF8:  MOVLW  85
04BFA:  MOVLB  6
04BFC:  MOVWF  x9C
04BFE:  MOVLB  0
04C00:  CALL   2E1A
04C04:  MOVFF  01,698
04C08:  MOVFF  01,69D
04C0C:  RCALL  4ABE
04C0E:  MOVFF  01,382
....................    min = rm_bcd(read_ds1302(0x83)); 
04C12:  MOVLW  83
04C14:  MOVLB  6
04C16:  MOVWF  x9C
04C18:  MOVLB  0
04C1A:  CALL   2E1A
04C1E:  MOVFF  01,698
04C22:  MOVFF  01,69D
04C26:  RCALL  4ABE
04C28:  MOVFF  01,383
....................    sec = rm_bcd(read_ds1302(0x81)); 
04C2C:  MOVLW  81
04C2E:  MOVLB  6
04C30:  MOVWF  x9C
04C32:  MOVLB  0
04C34:  CALL   2E1A
04C38:  MOVFF  01,698
04C3C:  MOVFF  01,69D
04C40:  RCALL  4ABE
04C42:  MOVFF  01,384
.................... } 
....................  
.................... void rtc_write_nvr(BYTE address, BYTE data) { 
....................    write_ds1302(address|0xc0,data); 
.................... } 
....................  
.................... BYTE rtc_read_nvr(BYTE address) { 
....................     return(read_ds1302(address|0xc1)); 
.................... } 
....................  
.................... #include <24512.c> 
.................... /////////////////////////////////////////////////////////////////////////// 
.................... ////   Library for a 24LC512 serial EEPROM                             //// 
.................... ////                                                                   //// 
.................... ////   init_ext_eeprom();    Call before the other functions are used  //// 
.................... ////                                                                   //// 
.................... ////   write_ext_eeprom(a, d);  Write the byte d to the address a      //// 
.................... ////                                                                   //// 
.................... ////   d = read_ext_eeprom(a);   Read the byte d from the address a    //// 
.................... ////                                                                   //// 
.................... ////   The main program may define eeprom_sda                          //// 
.................... ////   and eeprom_scl to override the defaults below.                  //// 
.................... ////                                                                   //// 
.................... /////////////////////////////////////////////////////////////////////////// 
.................... ////        (C) Copyright 1996,2003 Custom Computer Services           //// 
.................... //// This source code may only be used by licensed users of the CCS C  //// 
.................... //// compiler.  This source code may only be distributed to other      //// 
.................... //// licensed users of the CCS C compiler.  No other use, reproduction //// 
.................... //// or distribution is permitted without written permission.          //// 
.................... //// Derivative programs created using this software in object code    //// 
.................... //// form are not restricted in any way.                               //// 
.................... /////////////////////////////////////////////////////////////////////////// 
....................  
.................... #ifndef EEPROM_SDA 
....................  
.................... #define EEPROM_SDA  PIN_C4 
.................... #define EEPROM_SCL  PIN_C3 
....................  
.................... #endif 
....................  
.................... //#use i2c(master, sda=EEPROM_SDA, scl=EEPROM_SCL) 
....................  
.................... #define EEPROM_ADDRESS long int 
.................... #define EEPROM_SIZE   65535 
....................  
.................... void init_ext_eeprom() 
.................... { 
....................    output_float(EEPROM_SCL); 
....................    output_float(EEPROM_SDA); 
....................  
.................... } 
....................  
.................... void write_ext_eeprom(long int address, BYTE data) 
.................... { 
....................    short int status; 
....................    i2c_start(); 
*
055D8:  BSF    F94.4
055DA:  MOVLW  05
055DC:  MOVWF  00
055DE:  DECFSZ 00,F
055E0:  BRA    55DE
055E2:  BSF    F94.3
055E4:  MOVLW  06
055E6:  MOVWF  00
055E8:  DECFSZ 00,F
055EA:  BRA    55E8
055EC:  BCF    F8B.4
055EE:  BCF    F94.4
055F0:  MOVLW  05
055F2:  MOVWF  00
055F4:  DECFSZ 00,F
055F6:  BRA    55F4
055F8:  BCF    F8B.3
055FA:  BCF    F94.3
....................    i2c_write(0xa0); 
055FC:  MOVLW  A0
055FE:  MOVLB  6
05600:  MOVWF  xAC
05602:  MOVLB  0
05604:  CALL   4588
....................    i2c_write(address>>8); 
05608:  MOVFF  69E,6A1
0560C:  MOVLB  6
0560E:  CLRF   xA2
05610:  MOVFF  69E,6AC
05614:  MOVLB  0
05616:  CALL   4588
....................    i2c_write(address); 
0561A:  MOVFF  69D,6AC
0561E:  CALL   4588
....................    i2c_write(data); 
05622:  MOVFF  69F,6AC
05626:  CALL   4588
....................    i2c_stop(); 
0562A:  BCF    F94.4
0562C:  NOP   
0562E:  BSF    F94.3
05630:  BTFSS  F82.3
05632:  BRA    5630
05634:  MOVLW  05
05636:  MOVWF  00
05638:  DECFSZ 00,F
0563A:  BRA    5638
0563C:  BRA    563E
0563E:  NOP   
05640:  BSF    F94.4
05642:  MOVLW  05
05644:  MOVWF  00
05646:  DECFSZ 00,F
05648:  BRA    5646
....................    i2c_start(); 
0564A:  BSF    F94.4
0564C:  MOVLW  05
0564E:  MOVWF  00
05650:  DECFSZ 00,F
05652:  BRA    5650
05654:  BSF    F94.3
05656:  MOVLW  06
05658:  MOVWF  00
0565A:  DECFSZ 00,F
0565C:  BRA    565A
0565E:  BCF    F8B.4
05660:  BCF    F94.4
05662:  MOVLW  05
05664:  MOVWF  00
05666:  DECFSZ 00,F
05668:  BRA    5666
0566A:  BCF    F8B.3
0566C:  BCF    F94.3
....................    status=i2c_write(0xa0); 
0566E:  MOVLW  A0
05670:  MOVLB  6
05672:  MOVWF  xAC
05674:  MOVLB  0
05676:  CALL   4588
0567A:  MOVF   01,W
0567C:  MOVLB  6
0567E:  BCF    xA0.0
05680:  BTFSC  01.0
05682:  BSF    xA0.0
....................    //while(status==1) 
....................    //{ 
....................       i2c_start(); 
05684:  BSF    F94.4
05686:  MOVLW  05
05688:  MOVWF  00
0568A:  DECFSZ 00,F
0568C:  BRA    568A
0568E:  BSF    F94.3
05690:  MOVLW  06
05692:  MOVWF  00
05694:  DECFSZ 00,F
05696:  BRA    5694
05698:  BTFSS  F82.3
0569A:  BRA    5698
0569C:  BCF    F8B.4
0569E:  BCF    F94.4
056A0:  MOVLW  05
056A2:  MOVWF  00
056A4:  DECFSZ 00,F
056A6:  BRA    56A4
056A8:  BCF    F8B.3
056AA:  BCF    F94.3
....................       status=i2c_write(0xa0); 
056AC:  MOVLW  A0
056AE:  MOVWF  xAC
056B0:  MOVLB  0
056B2:  CALL   4588
056B6:  MOVF   01,W
056B8:  MOVLB  6
056BA:  BCF    xA0.0
056BC:  BTFSC  01.0
056BE:  BSF    xA0.0
....................    //} 
....................    i2c_stop(); 
056C0:  BCF    F94.4
056C2:  NOP   
056C4:  BSF    F94.3
056C6:  BTFSS  F82.3
056C8:  BRA    56C6
056CA:  MOVLW  05
056CC:  MOVWF  00
056CE:  DECFSZ 00,F
056D0:  BRA    56CE
056D2:  BRA    56D4
056D4:  NOP   
056D6:  BSF    F94.4
056D8:  MOVLW  05
056DA:  MOVWF  00
056DC:  DECFSZ 00,F
056DE:  BRA    56DC
.................... } 
056E0:  MOVLB  0
056E2:  RETLW  00
....................  
.................... BYTE read_ext_eeprom(long int address) { 
....................    BYTE data; 
....................    i2c_start(); 
....................    i2c_write(0xa0); 
....................    i2c_write(address>>8); 
....................    i2c_write(address); 
....................    i2c_start(); 
....................    i2c_write(0xa1); 
....................    data=i2c_read(0); 
....................    i2c_stop(); 
....................    return(data); 
.................... } 
....................  
....................  
.................... #define   UP            !input(PIN_B0) 
.................... #define   DOWN          !input(PIN_B1) 
.................... #define   RIGHT         !input(PIN_B2) 
.................... #define   LEFT          !input(PIN_B3) 
....................  
.................... #define   TERM          !input(PIN_B4) 
.................... #define   STOP          !input(PIN_B5) 
.................... #define   DOOR          !input(PIN_B6) 
.................... #define   LRES          !input(PIN_B7) 
....................  
.................... //#define   LOW           //input(PIN_A2) 
.................... //#define   HIG           //input(PIN_A3) 
....................  
.................... #define   SSR_on           output_bit(PIN_E1,1) 
.................... #define   SSR_off          output_bit(PIN_E1,0) 
....................  
.................... #define   SSR2_on          output_bit(PIN_E2,1) 
.................... #define   SSR2_off         output_bit(PIN_E2,0) 
....................  
.................... #define   Buzzer_on        output_bit(PIN_D7,1) 
.................... #define   Buzzer_off       output_bit(PIN_D7,0) 
....................  
.................... #define   Paso_on          output_bit(PIN_C0,0) 
.................... #define   Paso_off         output_bit(PIN_C0,1) 
....................  
.................... #define   Desfogue_on      output_bit(PIN_C1,0) 
.................... #define   Desfogue_off     output_bit(PIN_C1,1) 
....................  
.................... #define   Vacio_on         output_bit(PIN_C2,0) 
.................... #define   Vacio_off        output_bit(PIN_C2,1) 
....................  
.................... #define   Aire_on          output_bit(PIN_D0,0) 
.................... #define   Aire_off         output_bit(PIN_D0,1) 
....................  
.................... #define   AireB_on         output_bit(PIN_D1,0) 
.................... #define   AireB_off        output_bit(PIN_D1,1) 
....................  
.................... #define   BombaVacio_on    output_bit(PIN_C5,0) 
.................... #define   BombaVacio_off   output_bit(PIN_C5,1) 
....................  
.................... #define   Agua_on          output_bit(PIN_D3,0) 
.................... #define   Agua_off         output_bit(PIN_D3,1) 
....................  
.................... #define   EV8_on           output_bit(PIN_D2,0) 
.................... #define   EV8_off          output_bit(PIN_D2,1) 
....................  
....................  
.................... #define OFF 0 
.................... #define ON  1 
.................... #define RX_BUFFER_SIZE  10 
.................... char Rx_Buffer[RX_BUFFER_SIZE+1]; 
.................... char Rx_Buffer2[RX_BUFFER_SIZE+1]; 
.................... char RX_Wr_Index=0; 
.................... char RX_Rd_Index=0; 
.................... char RX_Counter=0; 
....................  
.................... #define TX_BUFFER_SIZE  24 
.................... char Tx_Buffer[TX_BUFFER_SIZE+1]; 
.................... char TX_Wr_Index=0; 
.................... char TX_Counter=0; 
.................... //int1 RX_Buffer_Overflow=0; 
....................  
.................... //Comunicacion//------------------------ 
.................... byte SlaveA0Tx[0X20]; 
.................... byte dato=0;            //Contendr la informacin a enviar o recibir 
.................... byte direccion=0;       //Contendr la direccin del esclavo en el bus I2C 
.................... byte posicion=0;        //Contendr la posicin en el buffer de memoria del esclavo donde se almacenar o de donde se recuperar el dato 
....................  
.................... /* Tabla de Modulos, Primera Fila Ao Regular y el siguiente ao Bisiesto 
.................... E   F   M   A   M   J   J   A   S   O   N   D 
.................... 0   3   3   6   1   4   6   2   5   0   3   5 
.................... 0   3   4   0   2   5   0   3   6   1   4   6 
.................... */ 
.................... int8 Regular[12]={0,3,3,6,1,4,6,2,5,0,3,5}; 
.................... int8 Bisiesto[12]={0,3,4,0,2,5,0,3,6,1,4,6}; 
....................  
.................... //Alarmas//--------------------- 
.................... short AlarmaTiempoProlongado=OFF,AlarmaSobreTemperatura=OFF,AlarmaLlenado=OFF,AlarmaTermostato=OFF,AlarmaPuerta=OFF,AlarmaEmergencia=OFF,AlarmaBomba=OFF; 
.................... short AlarmaVacio=OFF; 
....................  
.................... //Banderas//-------------------- 
.................... short IniciaLlenado=OFF,CalderinLleno=OFF,IniciaCiclo=OFF,Esterilizando=OFF,Secando=OFF,SensadoNivel=OFF,Desfogando=OFF,DesfogueSuave=OFF; 
.................... short EstadoDesfogue=OFF,EstadoAgua=OFF,EstadoSSR=OFF,EstadoSSR2=OFF,PruebaEstados=OFF,Ciclo=OFF; 
.................... short Op=OFF,Op2=OFF,Minutos=OFF,Segundos=OFF,GuardaEEPROM=OFF,EstadoPaso=OFF,EstadoBuzzer=OFF,flagAlarma=OFF; 
.................... short flagBuzzer=OFF,flagSilencio=OFF,Finalizo=OFF,AlarmaPresion=OFF,Libre=OFF,purga=OFF,Fugas=OFF,disp_Guarda=OFF,guardaCiclo=OFF; 
.................... short PreCalentamiento=OFF,IniciaVacio=OFF,IniciaVacio2=OFF,Vacio=OFF,flag_vac=OFF,flag_vacio=OFF,flag_pulso=OFF,EstadoAireBomba=OFF; 
.................... short EstadoVacio=OFF,EstadoAire=OFF,EstadoBomba=OFF,EstadoAgua2=OFF,EstadoACierre=OFF,entro=OFF,LOW=OFF,HIG=OFF; 
.................... short SensadoNivelL=OFF,NivelBajo=OFF,onBomba=OFF,flagBombaAgua=OFF,flagBombaAguaOff=OFF,calientaSecado=OFF; 
....................  
.................... //Tiempos//--------------------- 
.................... int16 TiempoCiclo=0,TiempoLlenado=0,TiempoSensadoNivel=0,Tp=0,Tc=0,tBombaAgua=0,tBombaAguaOff=0,tTermostato=0,tStop=0; 
.................... int8 sEst=0,mEst=0,sSec=0,mSec=0,sEstp=0,mEstp=0,sSecp=0,mSecp=0;// Tiempo transcurrido 
....................  
.................... //Control//------------------------ 
.................... float promedio[80]={0.0,0.0,0.0,0.0,0.0,0.0,0.0,0.0,0.0,0.0,0.0,0.0,0.0,0.0,0.0,0.0,0.0,0.0,0.0,0.0,0.0,0.0,0.0,0.0,0.0,0.0,0.0,0.0,0.0,0.0,0.0,0.0,0.0,0.0,0.0,0.0,0.0,0.0,0.0,0.0,0.0,0.0,0.0,0.0,0.0,0.0,0.0,0.0,0.0,0.0,0.0,0.0,0.0,0.0,0.0,0.0,0.0,0.0,0.0,0.0,0.0,0.0,0.0,0.0}; 
.................... float PromPresion[20]={0.0,0.0,0.0,0.0,0.0,0.0,0.0,0.0,0.0,0.0,0.0,0.0,0.0,0.0,0.0,0.0,0.0,0.0,0.0,0.0}; 
.................... float PromPresionp[20]={0.0,0.0,0.0,0.0,0.0,0.0,0.0,0.0,0.0,0.0,0.0,0.0,0.0,0.0,0.0,0.0,0.0,0.0,0.0,0.0}; 
.................... float Gain=141.6,RPT100=0.5,Temporal=0.0; 
.................... float R10=6800; 
.................... float X[2]={0.0,0.0}; 
.................... float promediopresion=0.0,Aumento=0.0,promediopresionp=0.0; 
.................... int8 h=0,l=0,Ajuste=0,Ajusten=0,MediaMovil=20,PantallaPrincipal=0,TipoClave=0,Modulo=0,Digito=0,Tapertura=0; 
.................... float V0=0.0,Pt,Tciclo=10.0,Tpulso=0.0,error=0.0,Prom=0.0,Temperature=0.0,tmp=0.0,Ganancia=25.0,Ganancia2=20.0,desvio=1.0,tmp2=0.0; 
.................... float V1=0.0,Presion=0.0,V2=0.0,Presionp=0.0; 
.................... float Temperatura=0.0,Temperatura2=0.0,K=0.0012858; 
.................... float a=0.0011,b=2.3302,c=-244.0723; 
.................... int8 Integral=0,Derivativo=0,CicloLibre=0; 
....................  
.................... //Varios//-------------------------------- 
.................... int8 CantidadPulsos=4,NivelVacio=25,Pulsos=0,posicionDato=0,codigoAlarma=0,Atmosferica=0; 
.................... int16 TiempoVacio=0,tguarda=0,tNivelBajo=0; 
.................... short desfoguelento=0,Lectura=0,Grafica=0; 
.................... short disp_Stop=0,flagTC=0,flagImprime=0,flagImprimir=0; 
.................... int8 Control=0,tiemporecta=0,Controlando=0,ActivaImpresion=1,timpresion=2,CalculoImpresion=0,Inicio=1,Dato_Exitoso=0,Dato2=0,z=0; 
.................... int8 Menu=0, MenuAnt=0,MenuAntt=240,i=0,CiclosL=0,CiclosH=0,CicloSeleccionado=0; 
.................... int8 Setpoint=0,Opcion=1,Opcion2=1,tiempo_esterilizacion=0,tiempo_secado=0,tiempoImpresion=0,vacioTest=21,vacioCiclo=25,pulsosConfigurados=2; 
.................... int16 tiempos=0,tiempos2=0,tiempos3=0,tiempoctrl=0,Nivel=0,tinicio=0,PresionCamara=0,PresionPreCamara=0,Ciclos=0; 
.................... int16 tbomba=0,tvacio=0; 
.................... signed int  Contrasena[4]={0,0,0,0};      // Contrasena de 4 digitos 
.................... signed int  Password[4]={0,0,0,0};        // Contrasena Almacenada de 4 digitos 
.................... int8 r=0,t=0,r22=0,t2=0,TiempoControl=0; 
.................... int8 y=0,ConteoBuzzer=0,codigoAnt=0,PulsoPositivo=10,PulsosVacio=0; 
.................... int16 tbuzzer=0,tsilencio=0,tSecado=0; 
.................... int8 Year=18,Mes=9,Dia=13,Hora=0,Minuto=0,Segundo=0,dow=0; 
.................... int8 YearTx=0,MesTx=0,DiaTx=0,HoraTx=0,MinutoTx=0,dowTx=0,SetTime=0,Imprime=0; 
.................... signed int8 G1=0,G2=0,sg1=0,sg2=0; 
.................... //int8 iconoGrande[10]={25,16,22,24,23,28,20,46}; 
.................... //int8 iconoPeque[10]={34,36,18,33,32,38,19,17}; 
.................... int8 iconoGrande[10]={22,62,16,60,58,64,23,28,20,46}; 
.................... int8 iconoPeque[10]={18,61,36,59,57,63,32,38,19,17}; 
.................... char const texto[10][20]={"NO ENVUELTO","ENVUELTO","DEL. NO ENVUELTO","DEL. ENVUELTO","BOWIE & DICK","TEST VACIO","LIBRE","TEST COMP.","HORA Y FECHA","CLAVE"}; 
....................  
.................... typedef struct{ 
....................    int8 Temperatura; 
....................    int8 MinutoestH; 
....................    int8 MinutoestL; 
....................    int8 Segundoest; 
....................    int8 Minutosec; 
....................    int8 Segundosec; 
....................    int8 PulsosVacio; 
....................    int8 NivelVacio; 
....................    int8 NivelDesfogue; 
....................    int8 Minutoest; 
.................... }Personalizado; 
....................  
.................... typedef struct{ 
....................    float BN; 
....................    float AN; 
....................    float V0; 
....................    float Pt; 
....................    float RPT100; 
....................    int8 l; 
....................    int8 h; 
....................    float Prom; 
....................    float Temperature; 
....................    int8 Ajuste; 
....................    int8 Ajusten; 
....................    float promedio[80]; 
....................    float Gain; 
.................... }SensorPT100; 
....................  
.................... SensorPT100 Sensor[2]; 
....................  
.................... Personalizado CiclosPersonalizados[4]; 
....................  
.................... #include "Funciones.h" 
.................... void BorraBuffer(void){ 
.................... RX_Buffer[0]=0; 
*
04E14:  CLRF   30
.................... RX_Buffer[1]=0; 
04E16:  CLRF   31
.................... RX_Buffer[2]=0; 
04E18:  CLRF   32
.................... RX_Buffer[3]=0; 
04E1A:  CLRF   33
.................... RX_Buffer[4]=0; 
04E1C:  CLRF   34
.................... RX_Buffer[5]=0; 
04E1E:  CLRF   35
.................... RX_Buffer[6]=0; 
04E20:  CLRF   36
.................... RX_Buffer[7]=0; 
04E22:  CLRF   37
.................... RX_Buffer[8]=0; 
04E24:  CLRF   38
.................... RX_Buffer[9]=0; 
04E26:  CLRF   39
....................  
.................... RX_Buffer2[0]=0; 
04E28:  CLRF   3B
.................... RX_Buffer2[1]=0; 
04E2A:  CLRF   3C
.................... RX_Buffer2[2]=0; 
04E2C:  CLRF   3D
.................... RX_Buffer2[3]=0; 
04E2E:  CLRF   3E
.................... RX_Buffer2[4]=0; 
04E30:  CLRF   3F
.................... RX_Buffer2[5]=0; 
04E32:  CLRF   40
.................... RX_Buffer2[6]=0; 
04E34:  CLRF   41
.................... RX_Buffer2[7]=0; 
04E36:  CLRF   42
.................... RX_Buffer2[8]=0; 
04E38:  CLRF   43
.................... RX_Buffer2[9]=0; 
04E3A:  CLRF   44
....................  
.................... } 
04E3C:  GOTO   4E90 (RETURN)
....................  
.................... char bgetc(void){ 
....................    char c; 
....................    while(RX_Counter==0) 
....................       ; 
....................    c=Rx_Buffer2[RX_Rd_Index]; 
....................    if(++RX_Rd_Index>RX_BUFFER_SIZE) 
....................       RX_Rd_Index=0; 
....................    if(RX_Counter) 
....................       RX_Counter--; 
....................    return c; 
.................... } 
....................  
.................... void bputc(char c){ 
....................    char restart=0; 
....................    while(TX_Counter> (TX_BUFFER_SIZE-1)) 
....................       ; 
....................    if(TX_Counter==0) 
....................       restart=1; 
....................    TX_Buffer[TX_Wr_Index++]=c; 
....................    if(TX_Wr_Index>TX_BUFFER_SIZE) 
....................       TX_Wr_Index=0; 
....................     
....................    TX_Counter++; 
....................     
....................    if(restart==1) 
....................       enable_interrupts(int_tbe); 
.................... } 
....................  
.................... void SendDataDisplay(void){ 
.................... delay_us(10); 
*
037EC:  MOVLW  10
037EE:  MOVWF  00
037F0:  DECFSZ 00,F
037F2:  BRA    37F0
037F4:  NOP   
.................... putc(0xFF); 
037F6:  MOVLW  FF
037F8:  RCALL  37E4
.................... delay_us(10); 
037FA:  MOVLW  10
037FC:  MOVWF  00
037FE:  DECFSZ 00,F
03800:  BRA    37FE
03802:  NOP   
.................... putc(0xFF); 
03804:  MOVLW  FF
03806:  RCALL  37E4
.................... delay_us(10); 
03808:  MOVLW  10
0380A:  MOVWF  00
0380C:  DECFSZ 00,F
0380E:  BRA    380C
03810:  NOP   
.................... putc(0xFF); 
03812:  MOVLW  FF
03814:  RCALL  37E4
.................... delay_us(10); 
03816:  MOVLW  10
03818:  MOVWF  00
0381A:  DECFSZ 00,F
0381C:  BRA    381A
0381E:  NOP   
.................... } 
03820:  RETLW  00
....................  
.................... short esBisiesto(int8 year) { 
....................      return ((year % 4 == 0 && year % 100 != 0) || year % 400 == 0); 
*
05406:  MOVLB  6
05408:  MOVF   x96,W
0540A:  ANDLW  03
0540C:  BNZ   5420
0540E:  MOVFF  696,69F
05412:  MOVLW  64
05414:  MOVWF  xA0
05416:  MOVLB  0
05418:  RCALL  4ED2
0541A:  MOVF   00,F
0541C:  BNZ   544E
0541E:  MOVLB  6
05420:  CLRF   x9B
05422:  MOVFF  696,69A
05426:  MOVLW  01
05428:  MOVWF  x9D
0542A:  MOVLW  90
0542C:  MOVWF  x9C
0542E:  MOVLB  0
05430:  RCALL  53C0
05432:  MOVFF  00,697
05436:  MOVLB  6
05438:  MOVFF  03,698
0543C:  MOVF   x97,F
0543E:  BNZ   544A
05440:  MOVF   x98,F
05442:  BTFSS  FD8.2
05444:  BRA    544A
05446:  MOVLB  0
05448:  BRA    544E
0544A:  MOVLW  00
0544C:  BRA    5452
0544E:  MOVLW  01
05450:  MOVLB  6
05452:  MOVWF  01
.................... } 
05454:  MOVLB  0
05456:  RETLW  00
....................  
.................... void LimitaDia(){ 
....................    if(MesTx>12) 
*
05544:  MOVLB  3
05546:  MOVF   x87,W
05548:  SUBLW  0C
0554A:  BC    5550
....................       MesTx=10; 
0554C:  MOVLW  0A
0554E:  MOVWF  x87
....................    if(DiaTx>31) 
05550:  MOVF   x88,W
05552:  SUBLW  1F
05554:  BC    555A
....................       DiaTx=16; 
05556:  MOVLW  10
05558:  MOVWF  x88
....................    if(YearTx>99) 
0555A:  MOVF   x86,W
0555C:  SUBLW  63
0555E:  BC    5564
....................       YearTx=18;    
05560:  MOVLW  12
05562:  MOVWF  x86
....................    if(HoraTx>24) 
05564:  MOVF   x89,W
05566:  SUBLW  18
05568:  BC    556E
....................       HoraTx=11;       
0556A:  MOVLW  0B
0556C:  MOVWF  x89
....................    if(MinutoTx>59) 
0556E:  MOVF   x8A,W
05570:  SUBLW  3B
05572:  BC    5578
....................       MinutoTx=30;       
05574:  MOVLW  1E
05576:  MOVWF  x8A
....................     
....................       if(MesTx==2){ 
05578:  MOVF   x87,W
0557A:  SUBLW  02
0557C:  BNZ   55A8
....................          if(esBisiesto(YearTx)){ 
0557E:  MOVFF  386,696
05582:  MOVLB  0
05584:  RCALL  5406
05586:  MOVF   01,F
05588:  BZ    559A
....................             if(DiaTx>29){ 
0558A:  MOVLB  3
0558C:  MOVF   x88,W
0558E:  SUBLW  1D
05590:  BC    5596
....................                DiaTx=29; 
05592:  MOVLW  1D
05594:  MOVWF  x88
....................             } 
....................          }else{ 
05596:  BRA    55A6
05598:  MOVLB  0
....................             if(DiaTx>28){ 
0559A:  MOVLB  3
0559C:  MOVF   x88,W
0559E:  SUBLW  1C
055A0:  BC    55A6
....................                DiaTx=28; 
055A2:  MOVLW  1C
055A4:  MOVWF  x88
....................             } 
....................          } 
....................       }else{ 
055A6:  BRA    55D2
....................          if(MesTx<=7){ 
055A8:  MOVF   x87,W
055AA:  SUBLW  07
055AC:  BNC   55C0
....................             if(MesTx % 2 ==0){ 
055AE:  MOVF   x87,W
055B0:  ANDLW  01
055B2:  BNZ   55BE
....................                if(DiaTx>30){ 
055B4:  MOVF   x88,W
055B6:  SUBLW  1E
055B8:  BC    55BE
....................                   DiaTx=30;                    
055BA:  MOVLW  1E
055BC:  MOVWF  x88
....................                } 
....................             } 
....................          }else{ 
055BE:  BRA    55D2
....................             if(MesTx % 2 ==1){ 
055C0:  MOVF   x87,W
055C2:  ANDLW  01
055C4:  SUBLW  01
055C6:  BNZ   55D2
....................                if(DiaTx>30){ 
055C8:  MOVF   x88,W
055CA:  SUBLW  1E
055CC:  BC    55D2
....................                   DiaTx=30;  
055CE:  MOVLW  1E
055D0:  MOVWF  x88
....................                } 
....................             } 
....................          } 
....................       } 
.................... } 
055D2:  MOVLB  0
055D4:  GOTO   99A0 (RETURN)
....................  
.................... void ActualizaRecta(){ 
....................    X[y]=Temperature; 
*
05EC2:  MOVLB  3
05EC4:  MOVF   x74,W
05EC6:  MULLW  04
05EC8:  MOVF   FF3,W
05ECA:  CLRF   03
05ECC:  ADDLW  B1
05ECE:  MOVWF  FE9
05ED0:  MOVLW  02
05ED2:  ADDWFC 03,W
05ED4:  MOVWF  FEA
05ED6:  MOVFF  2E7,FEF
05EDA:  MOVFF  2E8,FEC
05EDE:  MOVFF  2E9,FEC
05EE2:  MOVFF  2EA,FEC
....................    y++; 
05EE6:  INCF   x74,F
....................    if(y>=2){ 
05EE8:  MOVF   x74,W
05EEA:  SUBLW  01
05EEC:  BC    5F2A
....................       y=0; 
05EEE:  CLRF   x74
....................       Aumento=X[1]-X[0]; 
05EF0:  BSF    FD8.1
05EF2:  MOVFF  2B8,6AB
05EF6:  MOVFF  2B7,6AA
05EFA:  MOVFF  2B6,6A9
05EFE:  MOVFF  2B5,6A8
05F02:  MOVFF  2B4,6AF
05F06:  MOVFF  2B3,6AE
05F0A:  MOVFF  2B2,6AD
05F0E:  MOVFF  2B1,6AC
05F12:  MOVLB  0
05F14:  CALL   1ED0
05F18:  MOVFF  03,2C0
05F1C:  MOVFF  02,2BF
05F20:  MOVFF  01,2BE
05F24:  MOVFF  00,2BD
05F28:  MOVLB  3
....................    } 
.................... } 
05F2A:  MOVLB  0
05F2C:  GOTO   5FA8 (RETURN)
....................  
.................... // Funcion para conversor analogo-digital 
.................... float sensores(int x){ 
.................... float y;set_adc_channel(x);delay_ms(1);y=read_adc();return (y); 
*
03874:  MOVLB  6
03876:  RLCF   x9C,W
03878:  MOVWF  00
0387A:  RLCF   00,F
0387C:  MOVLW  FC
0387E:  ANDWF  00,F
03880:  MOVFF  00,01
03884:  MOVF   FC2,W
03886:  ANDLW  C3
03888:  IORWF  00,W
0388A:  MOVWF  FC2
0388C:  MOVLW  01
0388E:  MOVWF  xA8
03890:  MOVLB  0
03892:  CALL   1D14
03896:  BSF    FC2.1
03898:  BTFSC  FC2.1
0389A:  BRA    3898
0389C:  MOVFF  FC4,6A9
038A0:  MOVFF  FC3,6A8
038A4:  MOVLB  0
038A6:  CALL   1D3C
038AA:  MOVFF  03,6A0
038AE:  MOVFF  02,69F
038B2:  MOVFF  01,69E
038B6:  MOVFF  00,69D
038BA:  MOVFF  69D,00
038BE:  MOVFF  69E,01
038C2:  MOVFF  69F,02
038C6:  MOVFF  6A0,03
.................... } 
038CA:  RETLW  00
....................  
.................... float LeerPT100(int8 canal,int media) 
.................... { 
....................    Prom=0.0;  
*
039C2:  MOVLB  2
039C4:  CLRF   xE6
039C6:  CLRF   xE5
039C8:  CLRF   xE4
039CA:  CLRF   xE3
....................    Sensor[canal].V0 = sensores(canal);   //Lectura de Divisor de Voltaje de PT100 con resistencia de 6.18k (+-2%) 
039CC:  MOVLB  6
039CE:  CLRF   xA1
039D0:  MOVFF  698,6A0
039D4:  MOVLW  01
039D6:  MOVWF  xA3
039D8:  MOVLW  64
039DA:  MOVWF  xA2
039DC:  MOVLB  0
039DE:  RCALL  3852
039E0:  MOVFF  01,69A
039E4:  MOVLW  08
039E6:  MOVLB  6
039E8:  ADDWF  01,W
039EA:  MOVWF  01
039EC:  MOVLW  00
039EE:  ADDWFC 02,W
039F0:  MOVWF  03
039F2:  MOVF   01,W
039F4:  ADDLW  A6
039F6:  MOVWF  01
039F8:  MOVLW  03
039FA:  ADDWFC 03,F
039FC:  MOVFF  01,69A
03A00:  MOVFF  03,69B
03A04:  MOVFF  698,69C
03A08:  MOVLB  0
03A0A:  RCALL  3874
03A0C:  MOVFF  69B,FEA
03A10:  MOVFF  69A,FE9
03A14:  MOVFF  00,FEF
03A18:  MOVFF  01,FEC
03A1C:  MOVFF  02,FEC
03A20:  MOVFF  03,FEC
....................    Sensor[canal].V0 = Sensor[canal].V0/Sensor[canal].Gain; // Se elimina la ganancia 
03A24:  MOVLB  6
03A26:  CLRF   xA1
03A28:  MOVFF  698,6A0
03A2C:  MOVLW  01
03A2E:  MOVWF  xA3
03A30:  MOVLW  64
03A32:  MOVWF  xA2
03A34:  MOVLB  0
03A36:  RCALL  3852
03A38:  MOVFF  01,69A
03A3C:  MOVLW  08
03A3E:  MOVLB  6
03A40:  ADDWF  01,W
03A42:  MOVWF  01
03A44:  MOVLW  00
03A46:  ADDWFC 02,W
03A48:  MOVWF  03
03A4A:  MOVF   01,W
03A4C:  ADDLW  A6
03A4E:  MOVWF  01
03A50:  MOVLW  03
03A52:  ADDWFC 03,F
03A54:  MOVFF  01,69A
03A58:  MOVFF  03,69B
03A5C:  CLRF   xA1
03A5E:  MOVFF  698,6A0
03A62:  MOVLW  01
03A64:  MOVWF  xA3
03A66:  MOVLW  64
03A68:  MOVWF  xA2
03A6A:  MOVLB  0
03A6C:  RCALL  3852
03A6E:  MOVFF  01,69C
03A72:  MOVLW  08
03A74:  MOVLB  6
03A76:  ADDWF  01,W
03A78:  MOVWF  01
03A7A:  MOVLW  00
03A7C:  ADDWFC 02,W
03A7E:  MOVWF  03
03A80:  MOVF   01,W
03A82:  ADDLW  A6
03A84:  MOVWF  FE9
03A86:  MOVLW  03
03A88:  ADDWFC 03,W
03A8A:  MOVWF  FEA
03A8C:  MOVFF  FEF,69C
03A90:  MOVFF  FEC,69D
03A94:  MOVFF  FEC,69E
03A98:  MOVFF  FEC,69F
03A9C:  CLRF   xA1
03A9E:  MOVFF  698,6A0
03AA2:  MOVLW  01
03AA4:  MOVWF  xA3
03AA6:  MOVLW  64
03AA8:  MOVWF  xA2
03AAA:  MOVLB  0
03AAC:  RCALL  3852
03AAE:  MOVFF  02,6A1
03AB2:  MOVFF  01,6A0
03AB6:  MOVLW  60
03AB8:  MOVLB  6
03ABA:  ADDWF  01,W
03ABC:  MOVWF  01
03ABE:  MOVLW  01
03AC0:  ADDWFC 02,W
03AC2:  MOVWF  03
03AC4:  MOVF   01,W
03AC6:  ADDLW  A6
03AC8:  MOVWF  FE9
03ACA:  MOVLW  03
03ACC:  ADDWFC 03,W
03ACE:  MOVWF  FEA
03AD0:  MOVFF  FEF,00
03AD4:  MOVFF  FEC,01
03AD8:  MOVFF  FEC,02
03ADC:  MOVFF  FEC,03
03AE0:  MOVFF  69F,6A5
03AE4:  MOVFF  69E,6A4
03AE8:  MOVFF  69D,6A3
03AEC:  MOVFF  69C,6A2
03AF0:  MOVFF  03,6A9
03AF4:  MOVFF  02,6A8
03AF8:  MOVFF  01,6A7
03AFC:  MOVFF  00,6A6
03B00:  MOVLB  0
03B02:  CALL   1D72
03B06:  MOVFF  69B,FEA
03B0A:  MOVFF  69A,FE9
03B0E:  MOVFF  00,FEF
03B12:  MOVFF  01,FEC
03B16:  MOVFF  02,FEC
03B1A:  MOVFF  03,FEC
....................    Sensor[canal].V0 = Sensor[canal].V0+7.36; // Se suma voltaje de divisor fijo 
03B1E:  MOVLB  6
03B20:  CLRF   xA1
03B22:  MOVFF  698,6A0
03B26:  MOVLW  01
03B28:  MOVWF  xA3
03B2A:  MOVLW  64
03B2C:  MOVWF  xA2
03B2E:  MOVLB  0
03B30:  RCALL  3852
03B32:  MOVFF  01,69A
03B36:  MOVLW  08
03B38:  MOVLB  6
03B3A:  ADDWF  01,W
03B3C:  MOVWF  01
03B3E:  MOVLW  00
03B40:  ADDWFC 02,W
03B42:  MOVWF  03
03B44:  MOVF   01,W
03B46:  ADDLW  A6
03B48:  MOVWF  01
03B4A:  MOVLW  03
03B4C:  ADDWFC 03,F
03B4E:  MOVFF  01,69A
03B52:  MOVFF  03,69B
03B56:  CLRF   xA1
03B58:  MOVFF  698,6A0
03B5C:  MOVLW  01
03B5E:  MOVWF  xA3
03B60:  MOVLW  64
03B62:  MOVWF  xA2
03B64:  MOVLB  0
03B66:  RCALL  3852
03B68:  MOVFF  01,69C
03B6C:  MOVLW  08
03B6E:  MOVLB  6
03B70:  ADDWF  01,W
03B72:  MOVWF  01
03B74:  MOVLW  00
03B76:  ADDWFC 02,W
03B78:  MOVWF  03
03B7A:  MOVF   01,W
03B7C:  ADDLW  A6
03B7E:  MOVWF  FE9
03B80:  MOVLW  03
03B82:  ADDWFC 03,W
03B84:  MOVWF  FEA
03B86:  MOVFF  FEF,69C
03B8A:  MOVFF  FEC,69D
03B8E:  MOVFF  FEC,69E
03B92:  MOVFF  FEC,69F
03B96:  MOVFF  FEA,6A1
03B9A:  MOVFF  FE9,6A0
03B9E:  BCF    FD8.1
03BA0:  MOVFF  69F,6AB
03BA4:  MOVFF  69E,6AA
03BA8:  MOVFF  69D,6A9
03BAC:  MOVFF  69C,6A8
03BB0:  MOVLW  1F
03BB2:  MOVWF  xAF
03BB4:  MOVLW  85
03BB6:  MOVWF  xAE
03BB8:  MOVLW  6B
03BBA:  MOVWF  xAD
03BBC:  MOVLW  81
03BBE:  MOVWF  xAC
03BC0:  MOVLB  0
03BC2:  CALL   1ED0
03BC6:  MOVFF  6A1,FEA
03BCA:  MOVFF  6A0,FE9
03BCE:  MOVFF  69B,FEA
03BD2:  MOVFF  69A,FE9
03BD6:  MOVFF  00,FEF
03BDA:  MOVFF  01,FEC
03BDE:  MOVFF  02,FEC
03BE2:  MOVFF  03,FEC
....................    //Sensor[canal].BN=(Sensor[canal].V0*(R8+R9))+(1023*R9); 
....................    Sensor[canal].Pt = R10/((503/Sensor[canal].V0)-1); 
03BE6:  MOVLB  6
03BE8:  CLRF   xA1
03BEA:  MOVFF  698,6A0
03BEE:  MOVLW  01
03BF0:  MOVWF  xA3
03BF2:  MOVLW  64
03BF4:  MOVWF  xA2
03BF6:  MOVLB  0
03BF8:  RCALL  3852
03BFA:  MOVFF  01,69A
03BFE:  MOVLW  0C
03C00:  MOVLB  6
03C02:  ADDWF  01,W
03C04:  MOVWF  01
03C06:  MOVLW  00
03C08:  ADDWFC 02,W
03C0A:  MOVWF  03
03C0C:  MOVF   01,W
03C0E:  ADDLW  A6
03C10:  MOVWF  01
03C12:  MOVLW  03
03C14:  ADDWFC 03,F
03C16:  MOVFF  01,69A
03C1A:  MOVFF  03,69B
03C1E:  CLRF   xA1
03C20:  MOVFF  698,6A0
03C24:  MOVLW  01
03C26:  MOVWF  xA3
03C28:  MOVLW  64
03C2A:  MOVWF  xA2
03C2C:  MOVLB  0
03C2E:  RCALL  3852
03C30:  MOVFF  02,69D
03C34:  MOVFF  01,69C
03C38:  MOVLW  08
03C3A:  MOVLB  6
03C3C:  ADDWF  01,W
03C3E:  MOVWF  01
03C40:  MOVLW  00
03C42:  ADDWFC 02,W
03C44:  MOVWF  03
03C46:  MOVF   01,W
03C48:  ADDLW  A6
03C4A:  MOVWF  FE9
03C4C:  MOVLW  03
03C4E:  ADDWFC 03,W
03C50:  MOVWF  FEA
03C52:  MOVFF  FEF,00
03C56:  MOVFF  FEC,01
03C5A:  MOVFF  FEC,02
03C5E:  MOVFF  FEC,03
03C62:  CLRF   xA5
03C64:  MOVLW  80
03C66:  MOVWF  xA4
03C68:  MOVLW  7B
03C6A:  MOVWF  xA3
03C6C:  MOVLW  87
03C6E:  MOVWF  xA2
03C70:  MOVFF  03,6A9
03C74:  MOVFF  02,6A8
03C78:  MOVFF  01,6A7
03C7C:  MOVFF  00,6A6
03C80:  MOVLB  0
03C82:  CALL   1D72
03C86:  MOVFF  00,69C
03C8A:  MOVFF  01,69D
03C8E:  MOVFF  02,69E
03C92:  MOVFF  03,69F
03C96:  MOVFF  FEA,6A1
03C9A:  MOVFF  FE9,6A0
03C9E:  BSF    FD8.1
03CA0:  MOVFF  03,6AB
03CA4:  MOVFF  02,6AA
03CA8:  MOVFF  01,6A9
03CAC:  MOVFF  00,6A8
03CB0:  MOVLB  6
03CB2:  CLRF   xAF
03CB4:  CLRF   xAE
03CB6:  CLRF   xAD
03CB8:  MOVLW  7F
03CBA:  MOVWF  xAC
03CBC:  MOVLB  0
03CBE:  CALL   1ED0
03CC2:  MOVFF  6A1,FEA
03CC6:  MOVFF  6A0,FE9
03CCA:  MOVFF  2B0,6A5
03CCE:  MOVFF  2AF,6A4
03CD2:  MOVFF  2AE,6A3
03CD6:  MOVFF  2AD,6A2
03CDA:  MOVFF  03,6A9
03CDE:  MOVFF  02,6A8
03CE2:  MOVFF  01,6A7
03CE6:  MOVFF  00,6A6
03CEA:  CALL   1D72
03CEE:  MOVFF  69B,FEA
03CF2:  MOVFF  69A,FE9
03CF6:  MOVFF  00,FEF
03CFA:  MOVFF  01,FEC
03CFE:  MOVFF  02,FEC
03D02:  MOVFF  03,FEC
....................    //Sensor[canal].Pt=Sensor[canal].Pt-Sensor[canal].RPT100; //Ajuste de impedancia de cableado de PT100    
....................              
....................    if(Sensor[canal].l>(media-1)) 
03D06:  MOVLB  6
03D08:  CLRF   xA1
03D0A:  MOVFF  698,6A0
03D0E:  MOVLW  01
03D10:  MOVWF  xA3
03D12:  MOVLW  64
03D14:  MOVWF  xA2
03D16:  MOVLB  0
03D18:  RCALL  3852
03D1A:  MOVFF  02,69B
03D1E:  MOVFF  01,69A
03D22:  MOVLW  14
03D24:  MOVLB  6
03D26:  ADDWF  01,W
03D28:  MOVWF  01
03D2A:  MOVLW  00
03D2C:  ADDWFC 02,W
03D2E:  MOVWF  03
03D30:  MOVF   01,W
03D32:  ADDLW  A6
03D34:  MOVWF  FE9
03D36:  MOVLW  03
03D38:  ADDWFC 03,W
03D3A:  MOVWF  FEA
03D3C:  MOVFF  FEF,69A
03D40:  MOVLW  01
03D42:  SUBWF  x99,W
03D44:  SUBWF  x9A,W
03D46:  BZ    3D7C
03D48:  BNC   3D7C
....................    {Sensor[canal].l=0;} 
03D4A:  CLRF   xA1
03D4C:  MOVFF  698,6A0
03D50:  MOVLW  01
03D52:  MOVWF  xA3
03D54:  MOVLW  64
03D56:  MOVWF  xA2
03D58:  MOVLB  0
03D5A:  RCALL  3852
03D5C:  MOVFF  01,69A
03D60:  MOVLW  14
03D62:  MOVLB  6
03D64:  ADDWF  01,W
03D66:  MOVWF  01
03D68:  MOVLW  00
03D6A:  ADDWFC 02,W
03D6C:  MOVWF  03
03D6E:  MOVF   01,W
03D70:  ADDLW  A6
03D72:  MOVWF  FE9
03D74:  MOVLW  03
03D76:  ADDWFC 03,W
03D78:  MOVWF  FEA
03D7A:  CLRF   FEF
....................     
....................    Sensor[canal].promedio[Sensor[canal].l]=Sensor[canal].Pt;Sensor[canal].l++; 
03D7C:  CLRF   xA1
03D7E:  MOVFF  698,6A0
03D82:  MOVLW  01
03D84:  MOVWF  xA3
03D86:  MOVLW  64
03D88:  MOVWF  xA2
03D8A:  MOVLB  0
03D8C:  RCALL  3852
03D8E:  MOVFF  02,69B
03D92:  MOVFF  01,69A
03D96:  MOVLW  20
03D98:  MOVLB  6
03D9A:  ADDWF  x9A,F
03D9C:  MOVLW  00
03D9E:  ADDWFC x9B,F
03DA0:  CLRF   xA1
03DA2:  MOVFF  698,6A0
03DA6:  MOVLW  01
03DA8:  MOVWF  xA3
03DAA:  MOVLW  64
03DAC:  MOVWF  xA2
03DAE:  MOVLB  0
03DB0:  RCALL  3852
03DB2:  MOVFF  02,69D
03DB6:  MOVFF  01,69C
03DBA:  MOVLW  14
03DBC:  MOVLB  6
03DBE:  ADDWF  01,W
03DC0:  MOVWF  01
03DC2:  MOVLW  00
03DC4:  ADDWFC 02,W
03DC6:  MOVWF  03
03DC8:  MOVF   01,W
03DCA:  ADDLW  A6
03DCC:  MOVWF  FE9
03DCE:  MOVLW  03
03DD0:  ADDWFC 03,W
03DD2:  MOVWF  FEA
03DD4:  CLRF   xA1
03DD6:  MOVFF  FEF,6A0
03DDA:  CLRF   xA3
03DDC:  MOVLW  04
03DDE:  MOVWF  xA2
03DE0:  MOVLB  0
03DE2:  RCALL  3852
03DE4:  MOVFF  02,03
03DE8:  MOVF   01,W
03DEA:  MOVLB  6
03DEC:  ADDWF  x9A,W
03DEE:  MOVWF  01
03DF0:  MOVF   x9B,W
03DF2:  ADDWFC 03,F
03DF4:  MOVF   01,W
03DF6:  ADDLW  A6
03DF8:  MOVWF  01
03DFA:  MOVLW  03
03DFC:  ADDWFC 03,F
03DFE:  MOVFF  01,69A
03E02:  MOVFF  03,69B
03E06:  CLRF   xA1
03E08:  MOVFF  698,6A0
03E0C:  MOVLW  01
03E0E:  MOVWF  xA3
03E10:  MOVLW  64
03E12:  MOVWF  xA2
03E14:  MOVLB  0
03E16:  RCALL  3852
03E18:  MOVFF  02,69D
03E1C:  MOVFF  01,69C
03E20:  MOVLW  0C
03E22:  MOVLB  6
03E24:  ADDWF  01,W
03E26:  MOVWF  01
03E28:  MOVLW  00
03E2A:  ADDWFC 02,W
03E2C:  MOVWF  03
03E2E:  MOVF   01,W
03E30:  ADDLW  A6
03E32:  MOVWF  FE9
03E34:  MOVLW  03
03E36:  ADDWFC 03,W
03E38:  MOVWF  FEA
03E3A:  MOVFF  FEF,00
03E3E:  MOVFF  FEC,01
03E42:  MOVFF  FEC,02
03E46:  MOVFF  FEC,03
03E4A:  MOVFF  69B,FEA
03E4E:  MOVFF  69A,FE9
03E52:  MOVFF  00,FEF
03E56:  MOVFF  01,FEC
03E5A:  MOVFF  02,FEC
03E5E:  MOVFF  03,FEC
03E62:  CLRF   xA1
03E64:  MOVFF  698,6A0
03E68:  MOVLW  01
03E6A:  MOVWF  xA3
03E6C:  MOVLW  64
03E6E:  MOVWF  xA2
03E70:  MOVLB  0
03E72:  RCALL  3852
03E74:  MOVFF  01,69A
03E78:  MOVLW  14
03E7A:  MOVLB  6
03E7C:  ADDWF  01,W
03E7E:  MOVWF  01
03E80:  MOVLW  00
03E82:  ADDWFC 02,W
03E84:  MOVWF  03
03E86:  MOVF   01,W
03E88:  ADDLW  A6
03E8A:  MOVWF  FE9
03E8C:  MOVLW  03
03E8E:  ADDWFC 03,W
03E90:  MOVWF  FEA
03E92:  INCF   FEF,F
....................           
....................    for(Sensor[canal].h=0;Sensor[canal].h<media;Sensor[canal].h++) 
03E94:  CLRF   xA1
03E96:  MOVFF  698,6A0
03E9A:  MOVLW  01
03E9C:  MOVWF  xA3
03E9E:  MOVLW  64
03EA0:  MOVWF  xA2
03EA2:  MOVLB  0
03EA4:  RCALL  3852
03EA6:  MOVFF  02,69B
03EAA:  MOVFF  01,69A
03EAE:  MOVLW  15
03EB0:  MOVLB  6
03EB2:  ADDWF  01,W
03EB4:  MOVWF  01
03EB6:  MOVLW  00
03EB8:  ADDWFC 02,W
03EBA:  MOVWF  03
03EBC:  MOVF   01,W
03EBE:  ADDLW  A6
03EC0:  MOVWF  FE9
03EC2:  MOVLW  03
03EC4:  ADDWFC 03,W
03EC6:  MOVWF  FEA
03EC8:  CLRF   FEF
03ECA:  CLRF   xA1
03ECC:  MOVFF  698,6A0
03ED0:  MOVLW  01
03ED2:  MOVWF  xA3
03ED4:  MOVLW  64
03ED6:  MOVWF  xA2
03ED8:  MOVLB  0
03EDA:  RCALL  3852
03EDC:  MOVFF  02,69B
03EE0:  MOVFF  01,69A
03EE4:  MOVLW  15
03EE6:  MOVLB  6
03EE8:  ADDWF  01,W
03EEA:  MOVWF  01
03EEC:  MOVLW  00
03EEE:  ADDWFC 02,W
03EF0:  MOVWF  03
03EF2:  MOVF   01,W
03EF4:  ADDLW  A6
03EF6:  MOVWF  FE9
03EF8:  MOVLW  03
03EFA:  ADDWFC 03,W
03EFC:  MOVWF  FEA
03EFE:  MOVF   x99,W
03F00:  SUBWF  FEF,W
03F02:  BTFSC  FD8.0
03F04:  BRA    401C
....................    { 
....................       Prom+=Sensor[canal].promedio[Sensor[canal].h]; 
03F06:  CLRF   xA1
03F08:  MOVFF  698,6A0
03F0C:  MOVLW  01
03F0E:  MOVWF  xA3
03F10:  MOVLW  64
03F12:  MOVWF  xA2
03F14:  MOVLB  0
03F16:  RCALL  3852
03F18:  MOVFF  02,69B
03F1C:  MOVFF  01,69A
03F20:  MOVLW  20
03F22:  MOVLB  6
03F24:  ADDWF  x9A,F
03F26:  MOVLW  00
03F28:  ADDWFC x9B,F
03F2A:  CLRF   xA1
03F2C:  MOVFF  698,6A0
03F30:  MOVLW  01
03F32:  MOVWF  xA3
03F34:  MOVLW  64
03F36:  MOVWF  xA2
03F38:  MOVLB  0
03F3A:  RCALL  3852
03F3C:  MOVFF  02,69D
03F40:  MOVFF  01,69C
03F44:  MOVLW  15
03F46:  MOVLB  6
03F48:  ADDWF  01,W
03F4A:  MOVWF  01
03F4C:  MOVLW  00
03F4E:  ADDWFC 02,W
03F50:  MOVWF  03
03F52:  MOVF   01,W
03F54:  ADDLW  A6
03F56:  MOVWF  FE9
03F58:  MOVLW  03
03F5A:  ADDWFC 03,W
03F5C:  MOVWF  FEA
03F5E:  CLRF   xA1
03F60:  MOVFF  FEF,6A0
03F64:  CLRF   xA3
03F66:  MOVLW  04
03F68:  MOVWF  xA2
03F6A:  MOVLB  0
03F6C:  RCALL  3852
03F6E:  MOVFF  02,03
03F72:  MOVF   01,W
03F74:  MOVLB  6
03F76:  ADDWF  x9A,W
03F78:  MOVWF  01
03F7A:  MOVF   x9B,W
03F7C:  ADDWFC 03,F
03F7E:  MOVF   01,W
03F80:  ADDLW  A6
03F82:  MOVWF  FE9
03F84:  MOVLW  03
03F86:  ADDWFC 03,W
03F88:  MOVWF  FEA
03F8A:  MOVFF  FEF,00
03F8E:  MOVFF  FEC,01
03F92:  MOVFF  FEC,02
03F96:  MOVFF  FEC,03
03F9A:  MOVFF  FEA,69B
03F9E:  MOVFF  FE9,69A
03FA2:  BCF    FD8.1
03FA4:  MOVFF  2E6,6AB
03FA8:  MOVFF  2E5,6AA
03FAC:  MOVFF  2E4,6A9
03FB0:  MOVFF  2E3,6A8
03FB4:  MOVFF  03,6AF
03FB8:  MOVFF  02,6AE
03FBC:  MOVFF  01,6AD
03FC0:  MOVFF  00,6AC
03FC4:  MOVLB  0
03FC6:  CALL   1ED0
03FCA:  MOVFF  69B,FEA
03FCE:  MOVFF  69A,FE9
03FD2:  MOVFF  03,2E6
03FD6:  MOVFF  02,2E5
03FDA:  MOVFF  01,2E4
03FDE:  MOVFF  00,2E3
....................    }  
03FE2:  MOVLB  6
03FE4:  CLRF   xA1
03FE6:  MOVFF  698,6A0
03FEA:  MOVLW  01
03FEC:  MOVWF  xA3
03FEE:  MOVLW  64
03FF0:  MOVWF  xA2
03FF2:  MOVLB  0
03FF4:  RCALL  3852
03FF6:  MOVFF  02,69B
03FFA:  MOVFF  01,69A
03FFE:  MOVLW  15
04000:  MOVLB  6
04002:  ADDWF  01,W
04004:  MOVWF  01
04006:  MOVLW  00
04008:  ADDWFC 02,W
0400A:  MOVWF  03
0400C:  MOVF   01,W
0400E:  ADDLW  A6
04010:  MOVWF  FE9
04012:  MOVLW  03
04014:  ADDWFC 03,W
04016:  MOVWF  FEA
04018:  INCF   FEF,F
0401A:  BRA    3ECA
....................    Prom=Prom/media;    
0401C:  CLRF   xA9
0401E:  MOVFF  699,6A8
04022:  MOVLB  0
04024:  CALL   1D3C
04028:  MOVFF  2E6,6A5
0402C:  MOVFF  2E5,6A4
04030:  MOVFF  2E4,6A3
04034:  MOVFF  2E3,6A2
04038:  MOVFF  03,6A9
0403C:  MOVFF  02,6A8
04040:  MOVFF  01,6A7
04044:  MOVFF  00,6A6
04048:  CALL   1D72
0404C:  MOVFF  03,2E6
04050:  MOVFF  02,2E5
04054:  MOVFF  01,2E4
04058:  MOVFF  00,2E3
....................    //Temperature=(Prom-100.0)/(0.385);  // Ecuacin determinada por linealizacin en Matlab. Revisar este polinomio.   
....................    Temperature=((Prom*Prom)*a)+(Prom*b)+c;  // Ecuacin determinada por linealizacin en Matlab. Revisar este polinomio. 
0405C:  MOVFF  2E6,6AF
04060:  MOVFF  2E5,6AE
04064:  MOVFF  2E4,6AD
04068:  MOVFF  2E3,6AC
0406C:  MOVFF  2E6,6B3
04070:  MOVFF  2E5,6B2
04074:  MOVFF  2E4,6B1
04078:  MOVFF  2E3,6B0
0407C:  RCALL  38CC
0407E:  MOVFF  00,69A
04082:  MOVFF  01,69B
04086:  MOVFF  02,69C
0408A:  MOVFF  03,69D
0408E:  MOVFF  03,6AF
04092:  MOVFF  02,6AE
04096:  MOVFF  01,6AD
0409A:  MOVFF  00,6AC
0409E:  MOVFF  31E,6B3
040A2:  MOVFF  31D,6B2
040A6:  MOVFF  31C,6B1
040AA:  MOVFF  31B,6B0
040AE:  RCALL  38CC
040B0:  MOVFF  00,69A
040B4:  MOVFF  01,69B
040B8:  MOVFF  02,69C
040BC:  MOVFF  03,69D
040C0:  MOVFF  2E6,6AF
040C4:  MOVFF  2E5,6AE
040C8:  MOVFF  2E4,6AD
040CC:  MOVFF  2E3,6AC
040D0:  MOVFF  322,6B3
040D4:  MOVFF  321,6B2
040D8:  MOVFF  320,6B1
040DC:  MOVFF  31F,6B0
040E0:  CALL   38CC
040E4:  BCF    FD8.1
040E6:  MOVFF  69D,6AB
040EA:  MOVFF  69C,6AA
040EE:  MOVFF  69B,6A9
040F2:  MOVFF  69A,6A8
040F6:  MOVFF  03,6AF
040FA:  MOVFF  02,6AE
040FE:  MOVFF  01,6AD
04102:  MOVFF  00,6AC
04106:  CALL   1ED0
0410A:  MOVFF  00,69A
0410E:  MOVFF  01,69B
04112:  MOVFF  02,69C
04116:  MOVFF  03,69D
0411A:  BCF    FD8.1
0411C:  MOVFF  03,6AB
04120:  MOVFF  02,6AA
04124:  MOVFF  01,6A9
04128:  MOVFF  00,6A8
0412C:  MOVFF  326,6AF
04130:  MOVFF  325,6AE
04134:  MOVFF  324,6AD
04138:  MOVFF  323,6AC
0413C:  CALL   1ED0
04140:  MOVFF  03,2EA
04144:  MOVFF  02,2E9
04148:  MOVFF  01,2E8
0414C:  MOVFF  00,2E7
....................    Temperature+=((float)Sensor[canal].Ajuste-(float)Sensor[canal].Ajusten); 
04150:  MOVLB  6
04152:  CLRF   xA1
04154:  MOVFF  698,6A0
04158:  MOVLW  01
0415A:  MOVWF  xA3
0415C:  MOVLW  64
0415E:  MOVWF  xA2
04160:  MOVLB  0
04162:  CALL   3852
04166:  MOVFF  02,69B
0416A:  MOVFF  01,69A
0416E:  MOVLW  1E
04170:  MOVLB  6
04172:  ADDWF  01,W
04174:  MOVWF  01
04176:  MOVLW  00
04178:  ADDWFC 02,W
0417A:  MOVWF  03
0417C:  MOVF   01,W
0417E:  ADDLW  A6
04180:  MOVWF  FE9
04182:  MOVLW  03
04184:  ADDWFC 03,W
04186:  MOVWF  FEA
04188:  MOVF   FEF,W
0418A:  CLRF   xA9
0418C:  MOVWF  xA8
0418E:  MOVLB  0
04190:  CALL   1D3C
04194:  MOVFF  00,69A
04198:  MOVFF  01,69B
0419C:  MOVFF  02,69C
041A0:  MOVFF  03,69D
041A4:  MOVLB  6
041A6:  CLRF   xA1
041A8:  MOVFF  698,6A0
041AC:  MOVLW  01
041AE:  MOVWF  xA3
041B0:  MOVLW  64
041B2:  MOVWF  xA2
041B4:  MOVLB  0
041B6:  CALL   3852
041BA:  MOVFF  02,69F
041BE:  MOVFF  01,69E
041C2:  MOVLW  1F
041C4:  MOVLB  6
041C6:  ADDWF  01,W
041C8:  MOVWF  01
041CA:  MOVLW  00
041CC:  ADDWFC 02,W
041CE:  MOVWF  03
041D0:  MOVF   01,W
041D2:  ADDLW  A6
041D4:  MOVWF  FE9
041D6:  MOVLW  03
041D8:  ADDWFC 03,W
041DA:  MOVWF  FEA
041DC:  MOVF   FEF,W
041DE:  CLRF   xA9
041E0:  MOVWF  xA8
041E2:  MOVLB  0
041E4:  CALL   1D3C
041E8:  MOVFF  FEA,69F
041EC:  MOVFF  FE9,69E
041F0:  BSF    FD8.1
041F2:  MOVFF  69D,6AB
041F6:  MOVFF  69C,6AA
041FA:  MOVFF  69B,6A9
041FE:  MOVFF  69A,6A8
04202:  MOVFF  03,6AF
04206:  MOVFF  02,6AE
0420A:  MOVFF  01,6AD
0420E:  MOVFF  00,6AC
04212:  CALL   1ED0
04216:  MOVFF  69F,FEA
0421A:  MOVFF  69E,FE9
0421E:  MOVFF  FEA,69B
04222:  MOVFF  FE9,69A
04226:  BCF    FD8.1
04228:  MOVFF  2EA,6AB
0422C:  MOVFF  2E9,6AA
04230:  MOVFF  2E8,6A9
04234:  MOVFF  2E7,6A8
04238:  MOVFF  03,6AF
0423C:  MOVFF  02,6AE
04240:  MOVFF  01,6AD
04244:  MOVFF  00,6AC
04248:  CALL   1ED0
0424C:  MOVFF  69B,FEA
04250:  MOVFF  69A,FE9
04254:  MOVFF  03,2EA
04258:  MOVFF  02,2E9
0425C:  MOVFF  01,2E8
04260:  MOVFF  00,2E7
....................     
....................    return Temperature; 
04264:  MOVFF  2E7,00
04268:  MOVFF  2E8,01
0426C:  MOVFF  2E9,02
04270:  MOVFF  2EA,03
.................... } 
04274:  RETLW  00
....................  
.................... float Leer_Sensor_Presion_Camara(int media){ 
....................    promediopresion=0.0; 
*
046BE:  MOVLB  2
046C0:  CLRF   xBC
046C2:  CLRF   xBB
046C4:  CLRF   xBA
046C6:  CLRF   xB9
....................    V1 = sensores(5);   //Lectura de Divisor de Voltaje de PT100 con resistencia de 1k (+-10%) 
046C8:  MOVLW  05
046CA:  MOVLB  6
046CC:  MOVWF  x9C
046CE:  MOVLB  0
046D0:  CALL   3874
046D4:  MOVFF  03,302
046D8:  MOVFF  02,301
046DC:  MOVFF  01,300
046E0:  MOVFF  00,2FF
....................    //V1 = V1*(5.0/1024.0); 
....................    //Presion=(V1-0.2)/(K); 
....................    Presion=(((V1)/1023)-0.04)/K; 
046E4:  MOVFF  302,6A5
046E8:  MOVFF  301,6A4
046EC:  MOVFF  300,6A3
046F0:  MOVFF  2FF,6A2
046F4:  MOVLB  6
046F6:  CLRF   xA9
046F8:  MOVLW  C0
046FA:  MOVWF  xA8
046FC:  MOVLW  7F
046FE:  MOVWF  xA7
04700:  MOVLW  88
04702:  MOVWF  xA6
04704:  MOVLB  0
04706:  CALL   1D72
0470A:  MOVFF  00,699
0470E:  MOVFF  01,69A
04712:  MOVFF  02,69B
04716:  MOVFF  03,69C
0471A:  BSF    FD8.1
0471C:  MOVFF  03,6AB
04720:  MOVFF  02,6AA
04724:  MOVFF  01,6A9
04728:  MOVFF  00,6A8
0472C:  MOVLW  0A
0472E:  MOVLB  6
04730:  MOVWF  xAF
04732:  MOVLW  D7
04734:  MOVWF  xAE
04736:  MOVLW  23
04738:  MOVWF  xAD
0473A:  MOVLW  7A
0473C:  MOVWF  xAC
0473E:  MOVLB  0
04740:  CALL   1ED0
04744:  MOVFF  00,699
04748:  MOVFF  01,69A
0474C:  MOVFF  02,69B
04750:  MOVFF  03,69C
04754:  MOVFF  03,6A5
04758:  MOVFF  02,6A4
0475C:  MOVFF  01,6A3
04760:  MOVFF  00,6A2
04764:  MOVFF  31A,6A9
04768:  MOVFF  319,6A8
0476C:  MOVFF  318,6A7
04770:  MOVFF  317,6A6
04774:  CALL   1D72
04778:  MOVFF  03,306
0477C:  MOVFF  02,305
04780:  MOVFF  01,304
04784:  MOVFF  00,303
....................     
....................    if(Presion<0.0) 
04788:  MOVFF  306,69F
0478C:  MOVFF  305,69E
04790:  MOVFF  304,69D
04794:  MOVFF  303,69C
04798:  MOVLB  6
0479A:  CLRF   xA3
0479C:  CLRF   xA2
0479E:  CLRF   xA1
047A0:  CLRF   xA0
047A2:  MOVLB  0
047A4:  CALL   2EBE
047A8:  BNC   47B4
....................       Presion=0.0; 
047AA:  MOVLB  3
047AC:  CLRF   x06
047AE:  CLRF   x05
047B0:  CLRF   x04
047B2:  CLRF   x03
....................     
....................    if(r>media-1) 
047B4:  MOVLW  01
047B6:  MOVLB  6
047B8:  SUBWF  x98,W
047BA:  MOVLB  3
047BC:  SUBWF  x6F,W
047BE:  BZ    47C4
047C0:  BNC   47C4
....................       r=0; 
047C2:  CLRF   x6F
....................    PromPresion[r]=Presion;r++; 
047C4:  MOVF   x6F,W
047C6:  MULLW  04
047C8:  MOVF   FF3,W
047CA:  CLRF   03
047CC:  ADDLW  01
047CE:  MOVWF  FE9
047D0:  MOVLW  02
047D2:  ADDWFC 03,W
047D4:  MOVWF  FEA
047D6:  MOVFF  303,FEF
047DA:  MOVFF  304,FEC
047DE:  MOVFF  305,FEC
047E2:  MOVFF  306,FEC
047E6:  INCF   x6F,F
....................           
....................    for(t=0;t<=(media-1);t++) 
047E8:  CLRF   x70
047EA:  MOVLW  01
047EC:  MOVLB  6
047EE:  SUBWF  x98,W
047F0:  MOVLB  3
047F2:  SUBWF  x70,W
047F4:  BZ    47F8
047F6:  BC    4868
....................       promediopresion+=PromPresion[t]; 
047F8:  MOVF   x70,W
047FA:  MULLW  04
047FC:  MOVF   FF3,W
047FE:  CLRF   03
04800:  ADDLW  01
04802:  MOVWF  FE9
04804:  MOVLW  02
04806:  ADDWFC 03,W
04808:  MOVWF  FEA
0480A:  MOVFF  FEF,00
0480E:  MOVFF  FEC,01
04812:  MOVFF  FEC,02
04816:  MOVFF  FEC,03
0481A:  MOVFF  FEA,69A
0481E:  MOVFF  FE9,699
04822:  BCF    FD8.1
04824:  MOVFF  2BC,6AB
04828:  MOVFF  2BB,6AA
0482C:  MOVFF  2BA,6A9
04830:  MOVFF  2B9,6A8
04834:  MOVFF  03,6AF
04838:  MOVFF  02,6AE
0483C:  MOVFF  01,6AD
04840:  MOVFF  00,6AC
04844:  MOVLB  0
04846:  CALL   1ED0
0484A:  MOVFF  69A,FEA
0484E:  MOVFF  699,FE9
04852:  MOVFF  03,2BC
04856:  MOVFF  02,2BB
0485A:  MOVFF  01,2BA
0485E:  MOVFF  00,2B9
04862:  MOVLB  3
04864:  INCF   x70,F
04866:  BRA    47EA
....................      
....................    promediopresion=promediopresion/media;    
04868:  MOVLB  6
0486A:  CLRF   xA9
0486C:  MOVFF  698,6A8
04870:  MOVLB  0
04872:  CALL   1D3C
04876:  MOVFF  2BC,6A5
0487A:  MOVFF  2BB,6A4
0487E:  MOVFF  2BA,6A3
04882:  MOVFF  2B9,6A2
04886:  MOVFF  03,6A9
0488A:  MOVFF  02,6A8
0488E:  MOVFF  01,6A7
04892:  MOVFF  00,6A6
04896:  CALL   1D72
0489A:  MOVFF  03,2BC
0489E:  MOVFF  02,2BB
048A2:  MOVFF  01,2BA
048A6:  MOVFF  00,2B9
....................     
....................    return promediopresion; 
048AA:  MOVFF  2B9,00
048AE:  MOVFF  2BA,01
048B2:  MOVFF  2BB,02
048B6:  MOVFF  2BC,03
.................... } 
048BA:  GOTO   4B52 (RETURN)
....................  
.................... float Leer_Sensor_Presion_PreCamara(int media){ 
....................    promediopresionp=0.0; 
048BE:  MOVLB  2
048C0:  CLRF   xC4
048C2:  CLRF   xC3
048C4:  CLRF   xC2
048C6:  CLRF   xC1
....................    V2 = sensores(4);   //Lectura de Divisor de Voltaje de PT100 con resistencia de 1k (+-10%) 
048C8:  MOVLW  04
048CA:  MOVLB  6
048CC:  MOVWF  x9C
048CE:  MOVLB  0
048D0:  CALL   3874
048D4:  MOVFF  03,30A
048D8:  MOVFF  02,309
048DC:  MOVFF  01,308
048E0:  MOVFF  00,307
....................    //V2 = V2*(5.0/1024.0); 
....................    //Presionp=(V2-0.2)/(K); 
....................    Presionp=(((V2)/1023)-0.04)/K; 
048E4:  MOVFF  30A,6A5
048E8:  MOVFF  309,6A4
048EC:  MOVFF  308,6A3
048F0:  MOVFF  307,6A2
048F4:  MOVLB  6
048F6:  CLRF   xA9
048F8:  MOVLW  C0
048FA:  MOVWF  xA8
048FC:  MOVLW  7F
048FE:  MOVWF  xA7
04900:  MOVLW  88
04902:  MOVWF  xA6
04904:  MOVLB  0
04906:  CALL   1D72
0490A:  MOVFF  00,699
0490E:  MOVFF  01,69A
04912:  MOVFF  02,69B
04916:  MOVFF  03,69C
0491A:  BSF    FD8.1
0491C:  MOVFF  03,6AB
04920:  MOVFF  02,6AA
04924:  MOVFF  01,6A9
04928:  MOVFF  00,6A8
0492C:  MOVLW  0A
0492E:  MOVLB  6
04930:  MOVWF  xAF
04932:  MOVLW  D7
04934:  MOVWF  xAE
04936:  MOVLW  23
04938:  MOVWF  xAD
0493A:  MOVLW  7A
0493C:  MOVWF  xAC
0493E:  MOVLB  0
04940:  CALL   1ED0
04944:  MOVFF  00,699
04948:  MOVFF  01,69A
0494C:  MOVFF  02,69B
04950:  MOVFF  03,69C
04954:  MOVFF  03,6A5
04958:  MOVFF  02,6A4
0495C:  MOVFF  01,6A3
04960:  MOVFF  00,6A2
04964:  MOVFF  31A,6A9
04968:  MOVFF  319,6A8
0496C:  MOVFF  318,6A7
04970:  MOVFF  317,6A6
04974:  CALL   1D72
04978:  MOVFF  03,30E
0497C:  MOVFF  02,30D
04980:  MOVFF  01,30C
04984:  MOVFF  00,30B
....................     
....................    if(Presionp<0.0) 
04988:  MOVFF  30E,69F
0498C:  MOVFF  30D,69E
04990:  MOVFF  30C,69D
04994:  MOVFF  30B,69C
04998:  MOVLB  6
0499A:  CLRF   xA3
0499C:  CLRF   xA2
0499E:  CLRF   xA1
049A0:  CLRF   xA0
049A2:  MOVLB  0
049A4:  CALL   2EBE
049A8:  BNC   49B4
....................       Presionp=0.0; 
049AA:  MOVLB  3
049AC:  CLRF   x0E
049AE:  CLRF   x0D
049B0:  CLRF   x0C
049B2:  CLRF   x0B
....................     
....................    if(r22>media-1) 
049B4:  MOVLW  01
049B6:  MOVLB  6
049B8:  SUBWF  x98,W
049BA:  MOVLB  3
049BC:  SUBWF  x71,W
049BE:  BZ    49C4
049C0:  BNC   49C4
....................       r22=0; 
049C2:  CLRF   x71
....................    PromPresionp[r22]=Presionp;r22++; 
049C4:  MOVF   x71,W
049C6:  MULLW  04
049C8:  MOVF   FF3,W
049CA:  CLRF   03
049CC:  ADDLW  51
049CE:  MOVWF  FE9
049D0:  MOVLW  02
049D2:  ADDWFC 03,W
049D4:  MOVWF  FEA
049D6:  MOVFF  30B,FEF
049DA:  MOVFF  30C,FEC
049DE:  MOVFF  30D,FEC
049E2:  MOVFF  30E,FEC
049E6:  INCF   x71,F
....................           
....................    for(t2=0;t2<=(media-1);t2++) 
049E8:  CLRF   x72
049EA:  MOVLW  01
049EC:  MOVLB  6
049EE:  SUBWF  x98,W
049F0:  MOVLB  3
049F2:  SUBWF  x72,W
049F4:  BZ    49F8
049F6:  BC    4A68
....................       promediopresionp+=PromPresionp[t2];  
049F8:  MOVF   x72,W
049FA:  MULLW  04
049FC:  MOVF   FF3,W
049FE:  CLRF   03
04A00:  ADDLW  51
04A02:  MOVWF  FE9
04A04:  MOVLW  02
04A06:  ADDWFC 03,W
04A08:  MOVWF  FEA
04A0A:  MOVFF  FEF,00
04A0E:  MOVFF  FEC,01
04A12:  MOVFF  FEC,02
04A16:  MOVFF  FEC,03
04A1A:  MOVFF  FEA,69A
04A1E:  MOVFF  FE9,699
04A22:  BCF    FD8.1
04A24:  MOVFF  2C4,6AB
04A28:  MOVFF  2C3,6AA
04A2C:  MOVFF  2C2,6A9
04A30:  MOVFF  2C1,6A8
04A34:  MOVFF  03,6AF
04A38:  MOVFF  02,6AE
04A3C:  MOVFF  01,6AD
04A40:  MOVFF  00,6AC
04A44:  MOVLB  0
04A46:  CALL   1ED0
04A4A:  MOVFF  69A,FEA
04A4E:  MOVFF  699,FE9
04A52:  MOVFF  03,2C4
04A56:  MOVFF  02,2C3
04A5A:  MOVFF  01,2C2
04A5E:  MOVFF  00,2C1
04A62:  MOVLB  3
04A64:  INCF   x72,F
04A66:  BRA    49EA
....................        
....................    promediopresionp=promediopresionp/media;    
04A68:  MOVLB  6
04A6A:  CLRF   xA9
04A6C:  MOVFF  698,6A8
04A70:  MOVLB  0
04A72:  CALL   1D3C
04A76:  MOVFF  2C4,6A5
04A7A:  MOVFF  2C3,6A4
04A7E:  MOVFF  2C2,6A3
04A82:  MOVFF  2C1,6A2
04A86:  MOVFF  03,6A9
04A8A:  MOVFF  02,6A8
04A8E:  MOVFF  01,6A7
04A92:  MOVFF  00,6A6
04A96:  CALL   1D72
04A9A:  MOVFF  03,2C4
04A9E:  MOVFF  02,2C3
04AA2:  MOVFF  01,2C2
04AA6:  MOVFF  00,2C1
....................     
....................    return promediopresionp; 
04AAA:  MOVFF  2C1,00
04AAE:  MOVFF  2C2,01
04AB2:  MOVFF  2C3,02
04AB6:  MOVFF  2C4,03
.................... } 
04ABA:  GOTO   4B76 (RETURN)
....................  
.................... void Controla(){ 
....................    if(tiemporecta>=Derivativo/2.0){ 
*
05F30:  MOVLB  6
05F32:  CLRF   xA9
05F34:  MOVFF  328,6A8
05F38:  MOVLB  0
05F3A:  CALL   1D3C
05F3E:  MOVFF  03,6A5
05F42:  MOVFF  02,6A4
05F46:  MOVFF  01,6A3
05F4A:  MOVFF  00,6A2
05F4E:  MOVLB  6
05F50:  CLRF   xA9
05F52:  CLRF   xA8
05F54:  CLRF   xA7
05F56:  MOVLW  80
05F58:  MOVWF  xA6
05F5A:  MOVLB  0
05F5C:  CALL   1D72
05F60:  MOVFF  00,696
05F64:  MOVFF  01,697
05F68:  MOVFF  02,698
05F6C:  MOVFF  03,699
05F70:  MOVLB  6
05F72:  CLRF   xA9
05F74:  MOVFF  338,6A8
05F78:  MOVLB  0
05F7A:  CALL   1D3C
05F7E:  MOVFF  699,69F
05F82:  MOVFF  698,69E
05F86:  MOVFF  697,69D
05F8A:  MOVFF  696,69C
05F8E:  MOVFF  03,6A3
05F92:  MOVFF  02,6A2
05F96:  MOVFF  01,6A1
05F9A:  MOVFF  00,6A0
05F9E:  CALL   2EBE
05FA2:  BC    5FA6
05FA4:  BNZ   5FAC
....................       ActualizaRecta(); 
05FA6:  BRA    5EC2
....................       tiemporecta=0; 
05FA8:  MOVLB  3
05FAA:  CLRF   x38
....................    }  
.................... //-------------------------------Control de Calentamiento------------------------------------------------------------//          
....................    error=desvio+Setpoint-Temperatura;      // Clculo del error ****** 
05FAC:  MOVLB  6
05FAE:  CLRF   xA9
05FB0:  MOVFF  348,6A8
05FB4:  MOVLB  0
05FB6:  CALL   1D3C
05FBA:  BCF    FD8.1
05FBC:  MOVFF  2FA,6AB
05FC0:  MOVFF  2F9,6AA
05FC4:  MOVFF  2F8,6A9
05FC8:  MOVFF  2F7,6A8
05FCC:  MOVFF  03,6AF
05FD0:  MOVFF  02,6AE
05FD4:  MOVFF  01,6AD
05FD8:  MOVFF  00,6AC
05FDC:  CALL   1ED0
05FE0:  MOVFF  00,696
05FE4:  MOVFF  01,697
05FE8:  MOVFF  02,698
05FEC:  MOVFF  03,699
05FF0:  BSF    FD8.1
05FF2:  MOVFF  03,6AB
05FF6:  MOVFF  02,6AA
05FFA:  MOVFF  01,6A9
05FFE:  MOVFF  00,6A8
06002:  MOVFF  312,6AF
06006:  MOVFF  311,6AE
0600A:  MOVFF  310,6AD
0600E:  MOVFF  30F,6AC
06012:  CALL   1ED0
06016:  MOVFF  03,2E2
0601A:  MOVFF  02,2E1
0601E:  MOVFF  01,2E0
06022:  MOVFF  00,2DF
....................     
....................    if(error>1.0 && error<15 && Aumento<0.3){ 
06026:  MOVLB  6
06028:  CLRF   x9F
0602A:  CLRF   x9E
0602C:  CLRF   x9D
0602E:  MOVLW  7F
06030:  MOVWF  x9C
06032:  MOVFF  2E2,6A3
06036:  MOVFF  2E1,6A2
0603A:  MOVFF  2E0,6A1
0603E:  MOVFF  2DF,6A0
06042:  MOVLB  0
06044:  CALL   2EBE
06048:  BTFSS  FD8.0
0604A:  BRA    6226
0604C:  MOVFF  2E2,69F
06050:  MOVFF  2E1,69E
06054:  MOVFF  2E0,69D
06058:  MOVFF  2DF,69C
0605C:  MOVLB  6
0605E:  CLRF   xA3
06060:  CLRF   xA2
06062:  MOVLW  70
06064:  MOVWF  xA1
06066:  MOVLW  82
06068:  MOVWF  xA0
0606A:  MOVLB  0
0606C:  CALL   2EBE
06070:  BTFSS  FD8.0
06072:  BRA    6226
06074:  MOVFF  2C0,69F
06078:  MOVFF  2BF,69E
0607C:  MOVFF  2BE,69D
06080:  MOVFF  2BD,69C
06084:  MOVLW  9A
06086:  MOVLB  6
06088:  MOVWF  xA3
0608A:  MOVLW  99
0608C:  MOVWF  xA2
0608E:  MOVLW  19
06090:  MOVWF  xA1
06092:  MOVLW  7D
06094:  MOVWF  xA0
06096:  MOVLB  0
06098:  CALL   2EBE
0609C:  BTFSS  FD8.0
0609E:  BRA    6226
....................       if(Tpulso<7.0){ 
060A0:  MOVFF  2DE,69F
060A4:  MOVFF  2DD,69E
060A8:  MOVFF  2DC,69D
060AC:  MOVFF  2DB,69C
060B0:  MOVLB  6
060B2:  CLRF   xA3
060B4:  CLRF   xA2
060B6:  MOVLW  60
060B8:  MOVWF  xA1
060BA:  MOVLW  81
060BC:  MOVWF  xA0
060BE:  MOVLB  0
060C0:  CALL   2EBE
060C4:  BTFSS  FD8.0
060C6:  BRA    6222
....................          flagTC=1; 
060C8:  MOVLB  3
060CA:  BSF    x36.1
....................          if(TiempoControl>=Derivativo){ 
060CC:  MOVF   x28,W
060CE:  SUBWF  x73,W
060D0:  BTFSS  FD8.0
060D2:  BRA    621E
....................             TiempoControl=0; 
060D4:  CLRF   x73
....................             if(Aumento<-0.5){ 
060D6:  MOVFF  2C0,69F
060DA:  MOVFF  2BF,69E
060DE:  MOVFF  2BE,69D
060E2:  MOVFF  2BD,69C
060E6:  MOVLB  6
060E8:  CLRF   xA3
060EA:  CLRF   xA2
060EC:  MOVLW  80
060EE:  MOVWF  xA1
060F0:  MOVLW  7E
060F2:  MOVWF  xA0
060F4:  MOVLB  0
060F6:  CALL   2EBE
060FA:  BNC   6146
....................                Ganancia+=Integral+1; 
060FC:  MOVLW  01
060FE:  MOVLB  3
06100:  ADDWF  x27,W
06102:  MOVLB  6
06104:  CLRF   xA9
06106:  MOVWF  xA8
06108:  MOVLB  0
0610A:  CALL   1D3C
0610E:  BCF    FD8.1
06110:  MOVFF  2F2,6AB
06114:  MOVFF  2F1,6AA
06118:  MOVFF  2F0,6A9
0611C:  MOVFF  2EF,6A8
06120:  MOVFF  03,6AF
06124:  MOVFF  02,6AE
06128:  MOVFF  01,6AD
0612C:  MOVFF  00,6AC
06130:  CALL   1ED0
06134:  MOVFF  03,2F2
06138:  MOVFF  02,2F1
0613C:  MOVFF  01,2F0
06140:  MOVFF  00,2EF
....................             }else{ 
06144:  BRA    621C
....................                if(Aumento<-0.1){ 
06146:  MOVFF  2C0,69F
0614A:  MOVFF  2BF,69E
0614E:  MOVFF  2BE,69D
06152:  MOVFF  2BD,69C
06156:  MOVLW  CD
06158:  MOVLB  6
0615A:  MOVWF  xA3
0615C:  MOVLW  CC
0615E:  MOVWF  xA2
06160:  MOVWF  xA1
06162:  MOVLW  7B
06164:  MOVWF  xA0
06166:  MOVLB  0
06168:  CALL   2EBE
0616C:  BNC   61D8
....................                   Ganancia+=Integral+0.5; 
0616E:  MOVLB  6
06170:  CLRF   xA9
06172:  MOVFF  327,6A8
06176:  MOVLB  0
06178:  CALL   1D3C
0617C:  BCF    FD8.1
0617E:  MOVFF  03,6AB
06182:  MOVFF  02,6AA
06186:  MOVFF  01,6A9
0618A:  MOVFF  00,6A8
0618E:  MOVLB  6
06190:  CLRF   xAF
06192:  CLRF   xAE
06194:  CLRF   xAD
06196:  MOVLW  7E
06198:  MOVWF  xAC
0619A:  MOVLB  0
0619C:  CALL   1ED0
061A0:  BCF    FD8.1
061A2:  MOVFF  2F2,6AB
061A6:  MOVFF  2F1,6AA
061AA:  MOVFF  2F0,6A9
061AE:  MOVFF  2EF,6A8
061B2:  MOVFF  03,6AF
061B6:  MOVFF  02,6AE
061BA:  MOVFF  01,6AD
061BE:  MOVFF  00,6AC
061C2:  CALL   1ED0
061C6:  MOVFF  03,2F2
061CA:  MOVFF  02,2F1
061CE:  MOVFF  01,2F0
061D2:  MOVFF  00,2EF
....................                }else{ 
061D6:  BRA    621C
....................                   Ganancia+=Integral; 
061D8:  MOVLB  6
061DA:  CLRF   xA9
061DC:  MOVFF  327,6A8
061E0:  MOVLB  0
061E2:  CALL   1D3C
061E6:  BCF    FD8.1
061E8:  MOVFF  2F2,6AB
061EC:  MOVFF  2F1,6AA
061F0:  MOVFF  2F0,6A9
061F4:  MOVFF  2EF,6A8
061F8:  MOVFF  03,6AF
061FC:  MOVFF  02,6AE
06200:  MOVFF  01,6AD
06204:  MOVFF  00,6AC
06208:  CALL   1ED0
0620C:  MOVFF  03,2F2
06210:  MOVFF  02,2F1
06214:  MOVFF  01,2F0
06218:  MOVFF  00,2EF
0621C:  MOVLB  3
....................                } 
....................             } 
....................          } 
....................       }else{ 
0621E:  BRA    6226
06220:  MOVLB  0
....................          flagTC=0; 
06222:  MOVLB  3
06224:  BCF    x36.1
....................       } 
....................    } 
....................     
....................    if(error<-0.3) 
06226:  MOVFF  2E2,69F
0622A:  MOVFF  2E1,69E
0622E:  MOVFF  2E0,69D
06232:  MOVFF  2DF,69C
06236:  MOVLW  9A
06238:  MOVLB  6
0623A:  MOVWF  xA3
0623C:  MOVLW  99
0623E:  MOVWF  xA2
06240:  MOVWF  xA1
06242:  MOVLW  7D
06244:  MOVWF  xA0
06246:  MOVLB  0
06248:  CALL   2EBE
0624C:  BNC   625E
....................       Ganancia=Ganancia2; 
0624E:  MOVFF  2F6,2F2
06252:  MOVFF  2F5,2F1
06256:  MOVFF  2F4,2F0
0625A:  MOVFF  2F3,2EF
....................     
....................    if(Ganancia<1) 
0625E:  MOVFF  2F2,69F
06262:  MOVFF  2F1,69E
06266:  MOVFF  2F0,69D
0626A:  MOVFF  2EF,69C
0626E:  MOVLB  6
06270:  CLRF   xA3
06272:  CLRF   xA2
06274:  CLRF   xA1
06276:  MOVLW  7F
06278:  MOVWF  xA0
0627A:  MOVLB  0
0627C:  CALL   2EBE
06280:  BNC   628E
....................       Ganancia=1; 
06282:  MOVLB  2
06284:  CLRF   xF2
06286:  CLRF   xF1
06288:  CLRF   xF0
0628A:  MOVLW  7F
0628C:  MOVWF  xEF
....................     
....................    if(error<0.0)     // Anti Wind_DOWN     
0628E:  MOVFF  2E2,69F
06292:  MOVFF  2E1,69E
06296:  MOVFF  2E0,69D
0629A:  MOVFF  2DF,69C
0629E:  MOVLB  6
062A0:  CLRF   xA3
062A2:  CLRF   xA2
062A4:  CLRF   xA1
062A6:  CLRF   xA0
062A8:  MOVLB  0
062AA:  CALL   2EBE
062AE:  BNC   62BC
....................       error=0.0; 
062B0:  MOVLB  2
062B2:  CLRF   xE2
062B4:  CLRF   xE1
062B6:  CLRF   xE0
062B8:  CLRF   xDF
062BA:  MOVLB  0
....................    //tmp=(Setpoint-Prom)*Ganancia;  // Control Proporcional. 
....................    tmp=error*Ganancia;  // Control Proporcional. 
062BC:  MOVFF  2E2,6AF
062C0:  MOVFF  2E1,6AE
062C4:  MOVFF  2E0,6AD
062C8:  MOVFF  2DF,6AC
062CC:  MOVFF  2F2,6B3
062D0:  MOVFF  2F1,6B2
062D4:  MOVFF  2F0,6B1
062D8:  MOVFF  2EF,6B0
062DC:  CALL   38CC
062E0:  MOVFF  03,2EE
062E4:  MOVFF  02,2ED
062E8:  MOVFF  01,2EC
062EC:  MOVFF  00,2EB
....................           
....................    if(tmp>Setpoint)   // Anti Wind-UP       
062F0:  MOVLB  6
062F2:  CLRF   xA9
062F4:  MOVFF  348,6A8
062F8:  MOVLB  0
062FA:  CALL   1D3C
062FE:  MOVFF  03,69F
06302:  MOVFF  02,69E
06306:  MOVFF  01,69D
0630A:  MOVFF  00,69C
0630E:  MOVFF  2EE,6A3
06312:  MOVFF  2ED,6A2
06316:  MOVFF  2EC,6A1
0631A:  MOVFF  2EB,6A0
0631E:  CALL   2EBE
06322:  BNC   6342
....................       tmp=Setpoint; 
06324:  MOVLB  6
06326:  CLRF   xA9
06328:  MOVFF  348,6A8
0632C:  MOVLB  0
0632E:  CALL   1D3C
06332:  MOVFF  03,2EE
06336:  MOVFF  02,2ED
0633A:  MOVFF  01,2EC
0633E:  MOVFF  00,2EB
....................                 
....................    if(tmp<0.0)     // Anti Wind_DOWN     
06342:  MOVFF  2EE,69F
06346:  MOVFF  2ED,69E
0634A:  MOVFF  2EC,69D
0634E:  MOVFF  2EB,69C
06352:  MOVLB  6
06354:  CLRF   xA3
06356:  CLRF   xA2
06358:  CLRF   xA1
0635A:  CLRF   xA0
0635C:  MOVLB  0
0635E:  CALL   2EBE
06362:  BNC   636E
....................       tmp=0.0; 
06364:  MOVLB  2
06366:  CLRF   xEE
06368:  CLRF   xED
0636A:  CLRF   xEC
0636C:  CLRF   xEB
....................     
....................    // Tpulso(t)= Tciclo*(y(t)-ymin)/(ymax - ymin); calculo de ciclo util para control de resistencia.ymax=140.ymin=0; 
....................    // Tpulso es float, hay que pasar ese ciclo a una salida de un puerto usando el TMR1. 
....................    tmp2=(tmp/Setpoint); 
0636E:  MOVLB  6
06370:  CLRF   xA9
06372:  MOVFF  348,6A8
06376:  MOVLB  0
06378:  CALL   1D3C
0637C:  MOVFF  2EE,6A5
06380:  MOVFF  2ED,6A4
06384:  MOVFF  2EC,6A3
06388:  MOVFF  2EB,6A2
0638C:  MOVFF  03,6A9
06390:  MOVFF  02,6A8
06394:  MOVFF  01,6A7
06398:  MOVFF  00,6A6
0639C:  CALL   1D72
063A0:  MOVFF  03,2FE
063A4:  MOVFF  02,2FD
063A8:  MOVFF  01,2FC
063AC:  MOVFF  00,2FB
....................    //if(tmp2>0.8) 
....................    //tmp2=0.8; 
....................    Tpulso=tmp2*Tciclo;   
063B0:  MOVFF  2FE,6AF
063B4:  MOVFF  2FD,6AE
063B8:  MOVFF  2FC,6AD
063BC:  MOVFF  2FB,6AC
063C0:  MOVFF  2DA,6B3
063C4:  MOVFF  2D9,6B2
063C8:  MOVFF  2D8,6B1
063CC:  MOVFF  2D7,6B0
063D0:  CALL   38CC
063D4:  MOVFF  03,2DE
063D8:  MOVFF  02,2DD
063DC:  MOVFF  01,2DC
063E0:  MOVFF  00,2DB
....................                                        
....................    Tp=(Tpulso/0.005); 
063E4:  MOVFF  2DE,6A5
063E8:  MOVFF  2DD,6A4
063EC:  MOVFF  2DC,6A3
063F0:  MOVFF  2DB,6A2
063F4:  MOVLW  0A
063F6:  MOVLB  6
063F8:  MOVWF  xA9
063FA:  MOVLW  D7
063FC:  MOVWF  xA8
063FE:  MOVLW  23
06400:  MOVWF  xA7
06402:  MOVLW  77
06404:  MOVWF  xA6
06406:  MOVLB  0
06408:  CALL   1D72
0640C:  MOVFF  03,6AB
06410:  MOVFF  02,6AA
06414:  MOVFF  01,6A9
06418:  MOVFF  00,6A8
0641C:  CALL   4406
06420:  MOVFF  02,AE
06424:  MOVFF  01,AD
....................    Tc=(Tciclo/0.005); 
06428:  MOVFF  2DA,6A5
0642C:  MOVFF  2D9,6A4
06430:  MOVFF  2D8,6A3
06434:  MOVFF  2D7,6A2
06438:  MOVLW  0A
0643A:  MOVLB  6
0643C:  MOVWF  xA9
0643E:  MOVLW  D7
06440:  MOVWF  xA8
06442:  MOVLW  23
06444:  MOVWF  xA7
06446:  MOVLW  77
06448:  MOVWF  xA6
0644A:  MOVLB  0
0644C:  CALL   1D72
06450:  MOVFF  03,6AB
06454:  MOVFF  02,6AA
06458:  MOVFF  01,6A9
0645C:  MOVFF  00,6A8
06460:  CALL   4406
06464:  MOVFF  02,B0
06468:  MOVFF  01,AF
....................    Controlando=1;    
0646C:  MOVLW  01
0646E:  MOVLB  3
06470:  MOVWF  x39
.................... //--------------------------------------------------------------------------------------------------------------------//    
.................... } 
06472:  MOVLB  0
06474:  RETLW  00
....................  
.................... void Envio_I2C(direccion, posicion, dato){ 
....................  
....................    i2c_start();            // Comienzo comunicacin 
*
045FE:  BSF    F94.4
04600:  MOVLW  05
04602:  MOVWF  00
04604:  DECFSZ 00,F
04606:  BRA    4604
04608:  BSF    F94.3
0460A:  MOVLW  06
0460C:  MOVWF  00
0460E:  DECFSZ 00,F
04610:  BRA    460E
04612:  BCF    F8B.4
04614:  BCF    F94.4
04616:  MOVLW  05
04618:  MOVWF  00
0461A:  DECFSZ 00,F
0461C:  BRA    461A
0461E:  BCF    F8B.3
04620:  BCF    F94.3
....................    i2c_write(direccion);   // Direccin del esclavo en el bus I2C 
04622:  MOVFF  6A9,6AC
04626:  RCALL  4588
....................    i2c_write(posicion);    // Posicin donde se guardara el dato transmitido 
04628:  MOVFF  6AA,6AC
0462C:  RCALL  4588
....................    i2c_write(dato);        // Dato a transmitir 
0462E:  MOVFF  6AB,6AC
04632:  RCALL  4588
....................    i2c_stop();             // Fin comunicacin 
04634:  BCF    F94.4
04636:  NOP   
04638:  BSF    F94.3
0463A:  BTFSS  F82.3
0463C:  BRA    463A
0463E:  MOVLW  05
04640:  MOVWF  00
04642:  DECFSZ 00,F
04644:  BRA    4642
04646:  BRA    4648
04648:  NOP   
0464A:  BSF    F94.4
0464C:  MOVLW  05
0464E:  MOVWF  00
04650:  DECFSZ 00,F
04652:  BRA    4650
....................  } 
04654:  GOTO   468E (RETURN)
....................  
.................... void Lectura_I2C (byte direccion, byte posicion, byte &dato) { 
....................  
....................    i2c_start();            // Comienzo de la comunicacin 
....................    i2c_write(direccion);   // Direccin del esclavo en el bus I2C 
....................    i2c_write(posicion);    // Posicin de donde se leer el dato en el esclavo 
....................    i2c_start();            // Reinicio 
....................    i2c_write(direccion+1); // Direccin del esclavo en modo lectura 
....................    dato=i2c_read(0);       // Lectura del dato 
....................    i2c_stop();             // Fin comunicacin 
.................... } 
....................  
.................... void Carga_Vector(void){ 
....................    SlaveA0Tx[0]=(int8)Temperatura; 
*
04442:  MOVFF  312,6AB
04446:  MOVFF  311,6AA
0444A:  MOVFF  310,6A9
0444E:  MOVFF  30F,6A8
04452:  RCALL  4406
04454:  MOVFF  01,64
....................    SlaveA0Tx[1]=(Temperatura-((int8)Temperatura))*10; 
04458:  MOVFF  312,6AB
0445C:  MOVFF  311,6AA
04460:  MOVFF  310,6A9
04464:  MOVFF  30F,6A8
04468:  RCALL  4406
0446A:  MOVLB  6
0446C:  CLRF   xA9
0446E:  MOVFF  01,6A8
04472:  MOVLB  0
04474:  CALL   1D3C
04478:  BSF    FD8.1
0447A:  MOVFF  312,6AB
0447E:  MOVFF  311,6AA
04482:  MOVFF  310,6A9
04486:  MOVFF  30F,6A8
0448A:  MOVFF  03,6AF
0448E:  MOVFF  02,6AE
04492:  MOVFF  01,6AD
04496:  MOVFF  00,6AC
0449A:  CALL   1ED0
0449E:  MOVFF  00,6A8
044A2:  MOVFF  01,6A9
044A6:  MOVFF  02,6AA
044AA:  MOVFF  03,6AB
044AE:  MOVFF  03,6AF
044B2:  MOVFF  02,6AE
044B6:  MOVFF  01,6AD
044BA:  MOVFF  00,6AC
044BE:  MOVLB  6
044C0:  CLRF   xB3
044C2:  CLRF   xB2
044C4:  MOVLW  20
044C6:  MOVWF  xB1
044C8:  MOVLW  82
044CA:  MOVWF  xB0
044CC:  MOVLB  0
044CE:  CALL   38CC
044D2:  MOVFF  03,6AB
044D6:  MOVFF  02,6AA
044DA:  MOVFF  01,6A9
044DE:  MOVFF  00,6A8
044E2:  RCALL  4406
044E4:  MOVFF  01,65
....................    SlaveA0Tx[2]=make8((int16)PresionCamara,0); 
044E8:  MOVFF  35D,66
044EC:  MOVLB  0
....................    SlaveA0Tx[3]=make8((int16)PresionCamara,1); 
044EE:  MOVFF  35E,67
044F2:  MOVLB  0
....................    SlaveA0Tx[4]=make8((int16)PresionPreCamara,0); 
044F4:  MOVFF  35F,68
044F8:  MOVLB  0
....................    SlaveA0Tx[5]=make8((int16)PresionPreCamara,1); 
044FA:  MOVFF  360,69
044FE:  MOVLB  0
....................    SlaveA0Tx[6]=(int8)Tpulso*10; 
04500:  MOVFF  2DE,6AB
04504:  MOVFF  2DD,6AA
04508:  MOVFF  2DC,6A9
0450C:  MOVFF  2DB,6A8
04510:  RCALL  4406
04512:  MOVF   01,W
04514:  MULLW  0A
04516:  MOVFF  FF3,6A
....................    SlaveA0Tx[7]=HIG; 
0451A:  CLRF   x6B
0451C:  BTFSC  xA5.6
0451E:  INCF   x6B,F
....................    SlaveA0Tx[8]=LOW; 
04520:  CLRF   x6C
04522:  BTFSC  xA5.5
04524:  INCF   x6C,F
....................    SlaveA0Tx[9]=TERM; 
04526:  BSF    F93.4
04528:  CLRF   x6D
0452A:  BTFSS  F81.4
0452C:  INCF   x6D,F
....................    SlaveA0Tx[10]=DOOR; 
0452E:  BSF    F93.6
04530:  CLRF   x6E
04532:  BTFSS  F81.6
04534:  INCF   x6E,F
....................    SlaveA0Tx[11]=STOP; 
04536:  BSF    F93.5
04538:  CLRF   x6F
0453A:  BTFSS  F81.5
0453C:  INCF   x6F,F
....................    SlaveA0Tx[12]=(int8)error; 
0453E:  MOVFF  2E2,6AB
04542:  MOVFF  2E1,6AA
04546:  MOVFF  2E0,6A9
0454A:  MOVFF  2DF,6A8
0454E:  RCALL  4406
04550:  MOVFF  01,70
....................    SlaveA0Tx[13]=CicloSeleccionado; 
04554:  MOVFF  347,71
....................    SlaveA0Tx[14]=SetTime; 
04558:  MOVFF  38C,72
....................    SlaveA0Tx[15]=Dia; 
0455C:  MOVFF  381,73
....................    SlaveA0Tx[16]=Mes; 
04560:  MOVFF  380,74
....................    SlaveA0Tx[17]=Year; 
04564:  MOVFF  37F,75
....................    SlaveA0Tx[18]=Hora; 
04568:  MOVFF  382,76
....................    SlaveA0Tx[19]=Minuto; 
0456C:  MOVFF  383,77
....................    SlaveA0Tx[20]=Segundo; 
04570:  MOVFF  384,78
....................    SlaveA0Tx[21]=Imprime; 
04574:  MOVFF  38D,79
....................    SlaveA0Tx[22]=make8(Ciclos,0); 
04578:  MOVFF  361,7A
0457C:  MOVLB  0
....................    SlaveA0Tx[23]=make8(Ciclos,1); 
0457E:  MOVFF  362,7B
04582:  MOVLB  0
.................... } 
04584:  GOTO   465A (RETURN)
....................  
.................... void Lee_Vector(void){ 
....................    /*Dia=txbuf[0]; 
....................    Mess=txbuf[1]; 
....................    Year=txbuf[2]; 
....................    Hora=txbuf[3]; 
....................    Minuto=txbuf[4]; 
....................    Segundo=txbuf[5]; 
....................    dow=txbuf[6];*/ 
.................... } 
....................  
.................... void Envio_Esclavos(void){ 
....................    Carga_Vector(); 
*
04658:  BRA    4442
....................    for(i=0;i<24;i++){ 
0465A:  MOVLB  3
0465C:  CLRF   x44
0465E:  MOVF   x44,W
04660:  SUBLW  17
04662:  BNC   4694
....................       direccion=0xB0; 
04664:  MOVLW  B0
04666:  MOVLB  0
04668:  MOVWF  x85
....................       Envio_I2C(direccion,i,SlaveA0Tx[i]); 
0466A:  CLRF   03
0466C:  MOVLB  3
0466E:  MOVF   x44,W
04670:  ADDLW  64
04672:  MOVWF  FE9
04674:  MOVLW  00
04676:  ADDWFC 03,W
04678:  MOVWF  FEA
0467A:  MOVFF  FEF,6A8
0467E:  MOVFF  85,6A9
04682:  MOVFF  344,6AA
04686:  MOVFF  6A8,6AB
0468A:  MOVLB  0
0468C:  BRA    45FE
....................    }  
0468E:  MOVLB  3
04690:  INCF   x44,F
04692:  BRA    465E
.................... } 
04694:  MOVLB  0
04696:  RETLW  00
.................... void Lectura_Esclavos(void){ 
....................    //for(i=0;i<7;i++) 
....................    //{ 
....................    //   direccion=0xA0;                        //Direccin en el bus I2c 
....................    //   posicion=i;                         //Posicin de memoria a leer 
....................    //   Lectura_I2C(direccion, posicion, dato);    //Lectura por I2C 
....................    //   txbuf[i]=(int8)dato; 
....................    //} 
....................    //Lee_Vector(); 
.................... } 
....................  
.................... int8 extraeDecimal(float data){ 
*
058D4:  MOVLB  6
058D6:  CLRF   xA3
058D8:  CLRF   xA2
058DA:  CLRF   xA1
058DC:  CLRF   xA0
058DE:  CLRF   xA7
058E0:  CLRF   xA6
058E2:  CLRF   xA5
058E4:  CLRF   xA4
....................    float entero=0; 
....................    float tmp=0.0; 
....................     
....................    entero=(int8)data; 
058E6:  MOVFF  69F,6AB
058EA:  MOVFF  69E,6AA
058EE:  MOVFF  69D,6A9
058F2:  MOVFF  69C,6A8
058F6:  MOVLB  0
058F8:  CALL   4406
058FC:  MOVLB  6
058FE:  CLRF   xA9
05900:  MOVFF  01,6A8
05904:  MOVLB  0
05906:  CALL   1D3C
0590A:  MOVFF  03,6A3
0590E:  MOVFF  02,6A2
05912:  MOVFF  01,6A1
05916:  MOVFF  00,6A0
....................    tmp=(data-entero)*10; 
0591A:  BSF    FD8.1
0591C:  MOVFF  69F,6AB
05920:  MOVFF  69E,6AA
05924:  MOVFF  69D,6A9
05928:  MOVFF  69C,6A8
0592C:  MOVFF  6A3,6AF
05930:  MOVFF  6A2,6AE
05934:  MOVFF  6A1,6AD
05938:  MOVFF  6A0,6AC
0593C:  CALL   1ED0
05940:  MOVFF  00,6A8
05944:  MOVFF  01,6A9
05948:  MOVFF  02,6AA
0594C:  MOVFF  03,6AB
05950:  MOVFF  03,6AF
05954:  MOVFF  02,6AE
05958:  MOVFF  01,6AD
0595C:  MOVFF  00,6AC
05960:  MOVLB  6
05962:  CLRF   xB3
05964:  CLRF   xB2
05966:  MOVLW  20
05968:  MOVWF  xB1
0596A:  MOVLW  82
0596C:  MOVWF  xB0
0596E:  MOVLB  0
05970:  CALL   38CC
05974:  MOVFF  03,6A7
05978:  MOVFF  02,6A6
0597C:  MOVFF  01,6A5
05980:  MOVFF  00,6A4
....................    return (int8)tmp; 
05984:  MOVFF  6A7,6AB
05988:  MOVFF  6A6,6AA
0598C:  MOVFF  6A5,6A9
05990:  MOVFF  6A4,6A8
05994:  CALL   4406
05998:  MOVF   01,W
.................... } 
0599A:  GOTO   5AAA (RETURN)
....................  
.................... float inttofloat(int8 decimal){ 
....................    float tmp; 
....................    tmp=decimal; 
....................    return tmp/10; 
.................... } 
....................  
.................... void LeeEEPROM(){ 
.................... //Lectura EEPROM//-------------------------- 
....................    Password[0]=read_eeprom(10); 
*
02148:  MOVFF  FF2,696
0214C:  BCF    FF2.6
0214E:  BCF    FF2.7
02150:  CLRF   FAA
02152:  MOVLW  0A
02154:  MOVWF  FA9
02156:  BCF    FA6.6
02158:  BCF    FA6.7
0215A:  BSF    FA6.0
0215C:  MOVF   FA8,W
0215E:  MOVLB  6
02160:  BTFSC  x96.6
02162:  BSF    FF2.6
02164:  BTFSC  x96.7
02166:  BSF    FF2.7
02168:  MOVLB  3
0216A:  MOVWF  x6B
....................    delay_ms(10); 
0216C:  MOVLW  0A
0216E:  MOVLB  6
02170:  MOVWF  xA8
02172:  MOVLB  0
02174:  RCALL  1D14
....................    Password[1]=read_eeprom(11); 
02176:  MOVFF  FF2,696
0217A:  BCF    FF2.6
0217C:  BCF    FF2.7
0217E:  CLRF   FAA
02180:  MOVLW  0B
02182:  MOVWF  FA9
02184:  BCF    FA6.6
02186:  BCF    FA6.7
02188:  BSF    FA6.0
0218A:  MOVF   FA8,W
0218C:  MOVLB  6
0218E:  BTFSC  x96.6
02190:  BSF    FF2.6
02192:  BTFSC  x96.7
02194:  BSF    FF2.7
02196:  MOVLB  3
02198:  MOVWF  x6C
....................    delay_ms(10); 
0219A:  MOVLW  0A
0219C:  MOVLB  6
0219E:  MOVWF  xA8
021A0:  MOVLB  0
021A2:  RCALL  1D14
....................    Password[2]=read_eeprom(12); 
021A4:  MOVFF  FF2,696
021A8:  BCF    FF2.6
021AA:  BCF    FF2.7
021AC:  CLRF   FAA
021AE:  MOVLW  0C
021B0:  MOVWF  FA9
021B2:  BCF    FA6.6
021B4:  BCF    FA6.7
021B6:  BSF    FA6.0
021B8:  MOVF   FA8,W
021BA:  MOVLB  6
021BC:  BTFSC  x96.6
021BE:  BSF    FF2.6
021C0:  BTFSC  x96.7
021C2:  BSF    FF2.7
021C4:  MOVLB  3
021C6:  MOVWF  x6D
....................    delay_ms(10); 
021C8:  MOVLW  0A
021CA:  MOVLB  6
021CC:  MOVWF  xA8
021CE:  MOVLB  0
021D0:  RCALL  1D14
....................    Password[3]=read_eeprom(13); 
021D2:  MOVFF  FF2,696
021D6:  BCF    FF2.6
021D8:  BCF    FF2.7
021DA:  CLRF   FAA
021DC:  MOVLW  0D
021DE:  MOVWF  FA9
021E0:  BCF    FA6.6
021E2:  BCF    FA6.7
021E4:  BSF    FA6.0
021E6:  MOVF   FA8,W
021E8:  MOVLB  6
021EA:  BTFSC  x96.6
021EC:  BSF    FF2.6
021EE:  BTFSC  x96.7
021F0:  BSF    FF2.7
021F2:  MOVLB  3
021F4:  MOVWF  x6E
....................    delay_ms(10); 
021F6:  MOVLW  0A
021F8:  MOVLB  6
021FA:  MOVWF  xA8
021FC:  MOVLB  0
021FE:  RCALL  1D14
....................    Integral=read_eeprom(18); 
02200:  MOVFF  FF2,696
02204:  BCF    FF2.6
02206:  BCF    FF2.7
02208:  CLRF   FAA
0220A:  MOVLW  12
0220C:  MOVWF  FA9
0220E:  BCF    FA6.6
02210:  BCF    FA6.7
02212:  BSF    FA6.0
02214:  MOVF   FA8,W
02216:  MOVLB  6
02218:  BTFSC  x96.6
0221A:  BSF    FF2.6
0221C:  BTFSC  x96.7
0221E:  BSF    FF2.7
02220:  MOVLB  3
02222:  MOVWF  x27
....................    delay_ms(10); 
02224:  MOVLW  0A
02226:  MOVLB  6
02228:  MOVWF  xA8
0222A:  MOVLB  0
0222C:  RCALL  1D14
....................    Derivativo=read_eeprom(19); 
0222E:  MOVFF  FF2,696
02232:  BCF    FF2.6
02234:  BCF    FF2.7
02236:  CLRF   FAA
02238:  MOVLW  13
0223A:  MOVWF  FA9
0223C:  BCF    FA6.6
0223E:  BCF    FA6.7
02240:  BSF    FA6.0
02242:  MOVF   FA8,W
02244:  MOVLB  6
02246:  BTFSC  x96.6
02248:  BSF    FF2.6
0224A:  BTFSC  x96.7
0224C:  BSF    FF2.7
0224E:  MOVLB  3
02250:  MOVWF  x28
....................    delay_ms(10); 
02252:  MOVLW  0A
02254:  MOVLB  6
02256:  MOVWF  xA8
02258:  MOVLB  0
0225A:  RCALL  1D14
....................    Ganancia=read_eeprom(20); 
0225C:  MOVFF  FF2,696
02260:  BCF    FF2.6
02262:  BCF    FF2.7
02264:  CLRF   FAA
02266:  MOVLW  14
02268:  MOVWF  FA9
0226A:  BCF    FA6.6
0226C:  BCF    FA6.7
0226E:  BSF    FA6.0
02270:  MOVF   FA8,W
02272:  MOVLB  6
02274:  BTFSC  x96.6
02276:  BSF    FF2.6
02278:  BTFSC  x96.7
0227A:  BSF    FF2.7
0227C:  CLRF   xA9
0227E:  MOVWF  xA8
02280:  MOVLB  0
02282:  RCALL  1D3C
02284:  MOVFF  03,2F2
02288:  MOVFF  02,2F1
0228C:  MOVFF  01,2F0
02290:  MOVFF  00,2EF
....................    delay_ms(10); 
02294:  MOVLW  0A
02296:  MOVLB  6
02298:  MOVWF  xA8
0229A:  MOVLB  0
0229C:  RCALL  1D14
....................    Sensor[0].Ajuste=read_eeprom(21); 
0229E:  MOVFF  FF2,696
022A2:  BCF    FF2.6
022A4:  BCF    FF2.7
022A6:  CLRF   FAA
022A8:  MOVLW  15
022AA:  MOVWF  FA9
022AC:  BCF    FA6.6
022AE:  BCF    FA6.7
022B0:  BSF    FA6.0
022B2:  MOVF   FA8,W
022B4:  MOVLB  6
022B6:  BTFSC  x96.6
022B8:  BSF    FF2.6
022BA:  BTFSC  x96.7
022BC:  BSF    FF2.7
022BE:  MOVLB  3
022C0:  MOVWF  xC4
....................    delay_ms(10); 
022C2:  MOVLW  0A
022C4:  MOVLB  6
022C6:  MOVWF  xA8
022C8:  MOVLB  0
022CA:  RCALL  1D14
....................    Sensor[0].Ajusten=read_eeprom(22); 
022CC:  MOVFF  FF2,696
022D0:  BCF    FF2.6
022D2:  BCF    FF2.7
022D4:  CLRF   FAA
022D6:  MOVLW  16
022D8:  MOVWF  FA9
022DA:  BCF    FA6.6
022DC:  BCF    FA6.7
022DE:  BSF    FA6.0
022E0:  MOVF   FA8,W
022E2:  MOVLB  6
022E4:  BTFSC  x96.6
022E6:  BSF    FF2.6
022E8:  BTFSC  x96.7
022EA:  BSF    FF2.7
022EC:  MOVLB  3
022EE:  MOVWF  xC5
....................    delay_ms(10); 
022F0:  MOVLW  0A
022F2:  MOVLB  6
022F4:  MOVWF  xA8
022F6:  MOVLB  0
022F8:  RCALL  1D14
....................    Sensor[1].Ajuste=read_eeprom(23); 
022FA:  MOVFF  FF2,696
022FE:  BCF    FF2.6
02300:  BCF    FF2.7
02302:  CLRF   FAA
02304:  MOVLW  17
02306:  MOVWF  FA9
02308:  BCF    FA6.6
0230A:  BCF    FA6.7
0230C:  BSF    FA6.0
0230E:  MOVF   FA8,W
02310:  MOVLB  6
02312:  BTFSC  x96.6
02314:  BSF    FF2.6
02316:  BTFSC  x96.7
02318:  BSF    FF2.7
0231A:  MOVLB  5
0231C:  MOVWF  x28
....................    delay_ms(10); 
0231E:  MOVLW  0A
02320:  MOVLB  6
02322:  MOVWF  xA8
02324:  MOVLB  0
02326:  RCALL  1D14
....................    Sensor[1].Ajusten=read_eeprom(24); 
02328:  MOVFF  FF2,696
0232C:  BCF    FF2.6
0232E:  BCF    FF2.7
02330:  CLRF   FAA
02332:  MOVLW  18
02334:  MOVWF  FA9
02336:  BCF    FA6.6
02338:  BCF    FA6.7
0233A:  BSF    FA6.0
0233C:  MOVF   FA8,W
0233E:  MOVLB  6
02340:  BTFSC  x96.6
02342:  BSF    FF2.6
02344:  BTFSC  x96.7
02346:  BSF    FF2.7
02348:  MOVLB  5
0234A:  MOVWF  x29
....................    delay_ms(10);    
0234C:  MOVLW  0A
0234E:  MOVLB  6
02350:  MOVWF  xA8
02352:  MOVLB  0
02354:  RCALL  1D14
....................    MediaMovil=read_eeprom(25); 
02356:  MOVFF  FF2,696
0235A:  BCF    FF2.6
0235C:  BCF    FF2.7
0235E:  CLRF   FAA
02360:  MOVLW  19
02362:  MOVWF  FA9
02364:  BCF    FA6.6
02366:  BCF    FA6.7
02368:  BSF    FA6.0
0236A:  MOVF   FA8,W
0236C:  MOVLB  6
0236E:  BTFSC  x96.6
02370:  BSF    FF2.6
02372:  BTFSC  x96.7
02374:  BSF    FF2.7
02376:  MOVLB  2
02378:  MOVWF  xC9
....................    delay_ms(10); 
0237A:  MOVLW  0A
0237C:  MOVLB  6
0237E:  MOVWF  xA8
02380:  MOVLB  0
02382:  RCALL  1D14
....................    Tciclo=read_eeprom(26); 
02384:  MOVFF  FF2,696
02388:  BCF    FF2.6
0238A:  BCF    FF2.7
0238C:  CLRF   FAA
0238E:  MOVLW  1A
02390:  MOVWF  FA9
02392:  BCF    FA6.6
02394:  BCF    FA6.7
02396:  BSF    FA6.0
02398:  MOVF   FA8,W
0239A:  MOVLB  6
0239C:  BTFSC  x96.6
0239E:  BSF    FF2.6
023A0:  BTFSC  x96.7
023A2:  BSF    FF2.7
023A4:  CLRF   xA9
023A6:  MOVWF  xA8
023A8:  MOVLB  0
023AA:  RCALL  1D3C
023AC:  MOVFF  03,2DA
023B0:  MOVFF  02,2D9
023B4:  MOVFF  01,2D8
023B8:  MOVFF  00,2D7
....................    delay_ms(10); 
023BC:  MOVLW  0A
023BE:  MOVLB  6
023C0:  MOVWF  xA8
023C2:  MOVLB  0
023C4:  RCALL  1D14
....................    Temporal=read_eeprom(27); 
023C6:  MOVFF  FF2,696
023CA:  BCF    FF2.6
023CC:  BCF    FF2.7
023CE:  CLRF   FAA
023D0:  MOVLW  1B
023D2:  MOVWF  FA9
023D4:  BCF    FA6.6
023D6:  BCF    FA6.7
023D8:  BSF    FA6.0
023DA:  MOVF   FA8,W
023DC:  MOVLB  6
023DE:  BTFSC  x96.6
023E0:  BSF    FF2.6
023E2:  BTFSC  x96.7
023E4:  BSF    FF2.7
023E6:  CLRF   xA9
023E8:  MOVWF  xA8
023EA:  MOVLB  0
023EC:  RCALL  1D3C
023EE:  MOVFF  03,2AC
023F2:  MOVFF  02,2AB
023F6:  MOVFF  01,2AA
023FA:  MOVFF  00,2A9
....................    Temporal=Temporal/10.0; 
023FE:  MOVFF  2AC,6A5
02402:  MOVFF  2AB,6A4
02406:  MOVFF  2AA,6A3
0240A:  MOVFF  2A9,6A2
0240E:  MOVLB  6
02410:  CLRF   xA9
02412:  CLRF   xA8
02414:  MOVLW  20
02416:  MOVWF  xA7
02418:  MOVLW  82
0241A:  MOVWF  xA6
0241C:  MOVLB  0
0241E:  RCALL  1D72
02420:  MOVFF  03,2AC
02424:  MOVFF  02,2AB
02428:  MOVFF  01,2AA
0242C:  MOVFF  00,2A9
....................    delay_ms(10); 
02430:  MOVLW  0A
02432:  MOVLB  6
02434:  MOVWF  xA8
02436:  MOVLB  0
02438:  RCALL  1D14
....................    Sensor[0].RPT100=read_eeprom(28)+Temporal; 
0243A:  MOVFF  FF2,696
0243E:  BCF    FF2.6
02440:  BCF    FF2.7
02442:  CLRF   FAA
02444:  MOVLW  1C
02446:  MOVWF  FA9
02448:  BCF    FA6.6
0244A:  BCF    FA6.7
0244C:  BSF    FA6.0
0244E:  MOVF   FA8,W
02450:  MOVLB  6
02452:  BTFSC  x96.6
02454:  BSF    FF2.6
02456:  BTFSC  x96.7
02458:  BSF    FF2.7
0245A:  CLRF   xA9
0245C:  MOVWF  xA8
0245E:  MOVLB  0
02460:  RCALL  1D3C
02462:  BCF    FD8.1
02464:  MOVFF  03,6AB
02468:  MOVFF  02,6AA
0246C:  MOVFF  01,6A9
02470:  MOVFF  00,6A8
02474:  MOVFF  2AC,6AF
02478:  MOVFF  2AB,6AE
0247C:  MOVFF  2AA,6AD
02480:  MOVFF  2A9,6AC
02484:  RCALL  1ED0
02486:  MOVFF  03,3B9
0248A:  MOVFF  02,3B8
0248E:  MOVFF  01,3B7
02492:  MOVFF  00,3B6
....................    delay_ms(10); 
02496:  MOVLW  0A
02498:  MOVLB  6
0249A:  MOVWF  xA8
0249C:  MOVLB  0
0249E:  RCALL  1D14
....................    Temporal=read_eeprom(29); 
024A0:  MOVFF  FF2,696
024A4:  BCF    FF2.6
024A6:  BCF    FF2.7
024A8:  CLRF   FAA
024AA:  MOVLW  1D
024AC:  MOVWF  FA9
024AE:  BCF    FA6.6
024B0:  BCF    FA6.7
024B2:  BSF    FA6.0
024B4:  MOVF   FA8,W
024B6:  MOVLB  6
024B8:  BTFSC  x96.6
024BA:  BSF    FF2.6
024BC:  BTFSC  x96.7
024BE:  BSF    FF2.7
024C0:  CLRF   xA9
024C2:  MOVWF  xA8
024C4:  MOVLB  0
024C6:  RCALL  1D3C
024C8:  MOVFF  03,2AC
024CC:  MOVFF  02,2AB
024D0:  MOVFF  01,2AA
024D4:  MOVFF  00,2A9
....................    Temporal=Temporal/10.0; 
024D8:  MOVFF  2AC,6A5
024DC:  MOVFF  2AB,6A4
024E0:  MOVFF  2AA,6A3
024E4:  MOVFF  2A9,6A2
024E8:  MOVLB  6
024EA:  CLRF   xA9
024EC:  CLRF   xA8
024EE:  MOVLW  20
024F0:  MOVWF  xA7
024F2:  MOVLW  82
024F4:  MOVWF  xA6
024F6:  MOVLB  0
024F8:  RCALL  1D72
024FA:  MOVFF  03,2AC
024FE:  MOVFF  02,2AB
02502:  MOVFF  01,2AA
02506:  MOVFF  00,2A9
....................    delay_ms(10); 
0250A:  MOVLW  0A
0250C:  MOVLB  6
0250E:  MOVWF  xA8
02510:  MOVLB  0
02512:  RCALL  1D14
....................    Sensor[1].RPT100=read_eeprom(30)+Temporal; 
02514:  MOVFF  FF2,696
02518:  BCF    FF2.6
0251A:  BCF    FF2.7
0251C:  CLRF   FAA
0251E:  MOVLW  1E
02520:  MOVWF  FA9
02522:  BCF    FA6.6
02524:  BCF    FA6.7
02526:  BSF    FA6.0
02528:  MOVF   FA8,W
0252A:  MOVLB  6
0252C:  BTFSC  x96.6
0252E:  BSF    FF2.6
02530:  BTFSC  x96.7
02532:  BSF    FF2.7
02534:  CLRF   xA9
02536:  MOVWF  xA8
02538:  MOVLB  0
0253A:  RCALL  1D3C
0253C:  BCF    FD8.1
0253E:  MOVFF  03,6AB
02542:  MOVFF  02,6AA
02546:  MOVFF  01,6A9
0254A:  MOVFF  00,6A8
0254E:  MOVFF  2AC,6AF
02552:  MOVFF  2AB,6AE
02556:  MOVFF  2AA,6AD
0255A:  MOVFF  2A9,6AC
0255E:  RCALL  1ED0
02560:  MOVFF  03,51D
02564:  MOVFF  02,51C
02568:  MOVFF  01,51B
0256C:  MOVFF  00,51A
....................    delay_ms(10); 
02570:  MOVLW  0A
02572:  MOVLB  6
02574:  MOVWF  xA8
02576:  MOVLB  0
02578:  CALL   1D14
....................    Atmosferica=read_eeprom(31); 
0257C:  MOVFF  FF2,696
02580:  BCF    FF2.6
02582:  BCF    FF2.7
02584:  CLRF   FAA
02586:  MOVLW  1F
02588:  MOVWF  FA9
0258A:  BCF    FA6.6
0258C:  BCF    FA6.7
0258E:  BSF    FA6.0
02590:  MOVF   FA8,W
02592:  MOVLB  6
02594:  BTFSC  x96.6
02596:  BSF    FF2.6
02598:  BTFSC  x96.7
0259A:  BSF    FF2.7
0259C:  MOVLB  3
0259E:  MOVWF  x2F
....................    delay_ms(10); 
025A0:  MOVLW  0A
025A2:  MOVLB  6
025A4:  MOVWF  xA8
025A6:  MOVLB  0
025A8:  CALL   1D14
....................    Tapertura=read_eeprom(32); 
025AC:  MOVFF  FF2,696
025B0:  BCF    FF2.6
025B2:  BCF    FF2.7
025B4:  CLRF   FAA
025B6:  MOVLW  20
025B8:  MOVWF  FA9
025BA:  BCF    FA6.6
025BC:  BCF    FA6.7
025BE:  BSF    FA6.0
025C0:  MOVF   FA8,W
025C2:  MOVLB  6
025C4:  BTFSC  x96.6
025C6:  BSF    FF2.6
025C8:  BTFSC  x96.7
025CA:  BSF    FF2.7
025CC:  MOVLB  2
025CE:  MOVWF  xCE
....................    delay_ms(10); 
025D0:  MOVLW  0A
025D2:  MOVLB  6
025D4:  MOVWF  xA8
025D6:  MOVLB  0
025D8:  CALL   1D14
....................    CiclosL=read_eeprom(37); 
025DC:  MOVFF  FF2,696
025E0:  BCF    FF2.6
025E2:  BCF    FF2.7
025E4:  CLRF   FAA
025E6:  MOVLW  25
025E8:  MOVWF  FA9
025EA:  BCF    FA6.6
025EC:  BCF    FA6.7
025EE:  BSF    FA6.0
025F0:  MOVF   FA8,W
025F2:  MOVLB  6
025F4:  BTFSC  x96.6
025F6:  BSF    FF2.6
025F8:  BTFSC  x96.7
025FA:  BSF    FF2.7
025FC:  MOVLB  3
025FE:  MOVWF  x45
....................    delay_ms(10); 
02600:  MOVLW  0A
02602:  MOVLB  6
02604:  MOVWF  xA8
02606:  MOVLB  0
02608:  CALL   1D14
....................    CiclosH=read_eeprom(38); 
0260C:  MOVFF  FF2,696
02610:  BCF    FF2.6
02612:  BCF    FF2.7
02614:  CLRF   FAA
02616:  MOVLW  26
02618:  MOVWF  FA9
0261A:  BCF    FA6.6
0261C:  BCF    FA6.7
0261E:  BSF    FA6.0
02620:  MOVF   FA8,W
02622:  MOVLB  6
02624:  BTFSC  x96.6
02626:  BSF    FF2.6
02628:  BTFSC  x96.7
0262A:  BSF    FF2.7
0262C:  MOVLB  3
0262E:  MOVWF  x46
....................    delay_ms(10); 
02630:  MOVLW  0A
02632:  MOVLB  6
02634:  MOVWF  xA8
02636:  MOVLB  0
02638:  CALL   1D14
....................    Ciclos=make16(CiclosH,CiclosL); 
0263C:  MOVFF  346,362
02640:  MOVFF  345,361
....................    delay_ms(10); 
02644:  MOVLW  0A
02646:  MOVLB  6
02648:  MOVWF  xA8
0264A:  MOVLB  0
0264C:  CALL   1D14
....................    ActivaImpresion=read_eeprom(40); 
02650:  MOVFF  FF2,696
02654:  BCF    FF2.6
02656:  BCF    FF2.7
02658:  CLRF   FAA
0265A:  MOVLW  28
0265C:  MOVWF  FA9
0265E:  BCF    FA6.6
02660:  BCF    FA6.7
02662:  BSF    FA6.0
02664:  MOVF   FA8,W
02666:  MOVLB  6
02668:  BTFSC  x96.6
0266A:  BSF    FF2.6
0266C:  BTFSC  x96.7
0266E:  BSF    FF2.7
02670:  MOVLB  3
02672:  MOVWF  x3A
....................    delay_ms(10); 
02674:  MOVLW  0A
02676:  MOVLB  6
02678:  MOVWF  xA8
0267A:  MOVLB  0
0267C:  CALL   1D14
....................    timpresion=read_eeprom(41); 
02680:  MOVFF  FF2,696
02684:  BCF    FF2.6
02686:  BCF    FF2.7
02688:  CLRF   FAA
0268A:  MOVLW  29
0268C:  MOVWF  FA9
0268E:  BCF    FA6.6
02690:  BCF    FA6.7
02692:  BSF    FA6.0
02694:  MOVF   FA8,W
02696:  MOVLB  6
02698:  BTFSC  x96.6
0269A:  BSF    FF2.6
0269C:  BTFSC  x96.7
0269E:  BSF    FF2.7
026A0:  MOVLB  3
026A2:  MOVWF  x3B
....................    delay_ms(10); 
026A4:  MOVLW  0A
026A6:  MOVLB  6
026A8:  MOVWF  xA8
026AA:  MOVLB  0
026AC:  CALL   1D14
....................    G1=read_eeprom(42); 
026B0:  MOVFF  FF2,696
026B4:  BCF    FF2.6
026B6:  BCF    FF2.7
026B8:  CLRF   FAA
026BA:  MOVLW  2A
026BC:  MOVWF  FA9
026BE:  BCF    FA6.6
026C0:  BCF    FA6.7
026C2:  BSF    FA6.0
026C4:  MOVF   FA8,W
026C6:  MOVLB  6
026C8:  BTFSC  x96.6
026CA:  BSF    FF2.6
026CC:  BTFSC  x96.7
026CE:  BSF    FF2.7
026D0:  MOVLB  3
026D2:  MOVWF  x8E
....................    delay_ms(10); 
026D4:  MOVLW  0A
026D6:  MOVLB  6
026D8:  MOVWF  xA8
026DA:  MOVLB  0
026DC:  CALL   1D14
....................    G2=read_eeprom(43); 
026E0:  MOVFF  FF2,696
026E4:  BCF    FF2.6
026E6:  BCF    FF2.7
026E8:  CLRF   FAA
026EA:  MOVLW  2B
026EC:  MOVWF  FA9
026EE:  BCF    FA6.6
026F0:  BCF    FA6.7
026F2:  BSF    FA6.0
026F4:  MOVF   FA8,W
026F6:  MOVLB  6
026F8:  BTFSC  x96.6
026FA:  BSF    FF2.6
026FC:  BTFSC  x96.7
026FE:  BSF    FF2.7
02700:  MOVLB  3
02702:  MOVWF  x8F
....................    delay_ms(10); 
02704:  MOVLW  0A
02706:  MOVLB  6
02708:  MOVWF  xA8
0270A:  MOVLB  0
0270C:  CALL   1D14
....................    if(G2>40) 
02710:  MOVLB  3
02712:  BTFSC  x8F.7
02714:  BRA    2720
02716:  MOVF   x8F,W
02718:  SUBLW  28
0271A:  BC    2720
....................       G2=40; 
0271C:  MOVLW  28
0271E:  MOVWF  x8F
....................    sg1=read_eeprom(44); 
02720:  MOVFF  FF2,696
02724:  BCF    FF2.6
02726:  BCF    FF2.7
02728:  CLRF   FAA
0272A:  MOVLW  2C
0272C:  MOVWF  FA9
0272E:  BCF    FA6.6
02730:  BCF    FA6.7
02732:  BSF    FA6.0
02734:  MOVF   FA8,W
02736:  MOVLB  6
02738:  BTFSC  x96.6
0273A:  BSF    FF2.6
0273C:  BTFSC  x96.7
0273E:  BSF    FF2.7
02740:  MOVLB  3
02742:  MOVWF  x90
....................    delay_ms(10); 
02744:  MOVLW  0A
02746:  MOVLB  6
02748:  MOVWF  xA8
0274A:  MOVLB  0
0274C:  CALL   1D14
....................    sg2=read_eeprom(45); 
02750:  MOVFF  FF2,696
02754:  BCF    FF2.6
02756:  BCF    FF2.7
02758:  CLRF   FAA
0275A:  MOVLW  2D
0275C:  MOVWF  FA9
0275E:  BCF    FA6.6
02760:  BCF    FA6.7
02762:  BSF    FA6.0
02764:  MOVF   FA8,W
02766:  MOVLB  6
02768:  BTFSC  x96.6
0276A:  BSF    FF2.6
0276C:  BTFSC  x96.7
0276E:  BSF    FF2.7
02770:  MOVLB  3
02772:  MOVWF  x91
....................    delay_ms(10); 
02774:  MOVLW  0A
02776:  MOVLB  6
02778:  MOVWF  xA8
0277A:  MOVLB  0
0277C:  CALL   1D14
....................    pulsosConfigurados=read_eeprom(47); 
02780:  MOVFF  FF2,696
02784:  BCF    FF2.6
02786:  BCF    FF2.7
02788:  CLRF   FAA
0278A:  MOVLW  2F
0278C:  MOVWF  FA9
0278E:  BCF    FA6.6
02790:  BCF    FA6.7
02792:  BSF    FA6.0
02794:  MOVF   FA8,W
02796:  MOVLB  6
02798:  BTFSC  x96.6
0279A:  BSF    FF2.6
0279C:  BTFSC  x96.7
0279E:  BSF    FF2.7
027A0:  MOVLB  3
027A2:  MOVWF  x50
....................    delay_ms(10); 
027A4:  MOVLW  0A
027A6:  MOVLB  6
027A8:  MOVWF  xA8
027AA:  MOVLB  0
027AC:  CALL   1D14
....................    vacioTest=read_eeprom(48); 
027B0:  MOVFF  FF2,696
027B4:  BCF    FF2.6
027B6:  BCF    FF2.7
027B8:  CLRF   FAA
027BA:  MOVLW  30
027BC:  MOVWF  FA9
027BE:  BCF    FA6.6
027C0:  BCF    FA6.7
027C2:  BSF    FA6.0
027C4:  MOVF   FA8,W
027C6:  MOVLB  6
027C8:  BTFSC  x96.6
027CA:  BSF    FF2.6
027CC:  BTFSC  x96.7
027CE:  BSF    FF2.7
027D0:  MOVLB  3
027D2:  MOVWF  x4E
....................    delay_ms(10); 
027D4:  MOVLW  0A
027D6:  MOVLB  6
027D8:  MOVWF  xA8
027DA:  MOVLB  0
027DC:  CALL   1D14
....................    vacioCiclo=read_eeprom(49); 
027E0:  MOVFF  FF2,696
027E4:  BCF    FF2.6
027E6:  BCF    FF2.7
027E8:  CLRF   FAA
027EA:  MOVLW  31
027EC:  MOVWF  FA9
027EE:  BCF    FA6.6
027F0:  BCF    FA6.7
027F2:  BSF    FA6.0
027F4:  MOVF   FA8,W
027F6:  MOVLB  6
027F8:  BTFSC  x96.6
027FA:  BSF    FF2.6
027FC:  BTFSC  x96.7
027FE:  BSF    FF2.7
02800:  MOVLB  3
02802:  MOVWF  x4F
....................     
....................    for(i=0;i<4;i++){//Lee valores almacenados de ciclos personalizados 
02804:  CLRF   x44
02806:  MOVF   x44,W
02808:  SUBLW  03
0280A:  BTFSS  FD8.0
0280C:  BRA    2DD6
....................       CiclosPersonalizados[i].Temperatura=read_eeprom(100+(i*8));  
0280E:  MOVF   x44,W
02810:  MULLW  0A
02812:  MOVF   FF3,W
02814:  MOVLB  6
02816:  CLRF   x97
02818:  MOVWF  x96
0281A:  MOVLW  6E
0281C:  ADDWF  x96,W
0281E:  MOVWF  FE9
02820:  MOVLW  06
02822:  ADDWFC x97,W
02824:  MOVWF  FEA
02826:  MOVLB  3
02828:  MOVF   x44,W
0282A:  MULLW  08
0282C:  MOVF   FF3,W
0282E:  ADDLW  64
02830:  MOVLB  6
02832:  MOVWF  x98
02834:  MOVFF  FF2,699
02838:  BCF    FF2.6
0283A:  BCF    FF2.7
0283C:  CLRF   FAA
0283E:  MOVFF  698,FA9
02842:  BCF    FA6.6
02844:  BCF    FA6.7
02846:  BSF    FA6.0
02848:  MOVF   FA8,W
0284A:  BTFSC  x99.6
0284C:  BSF    FF2.6
0284E:  BTFSC  x99.7
02850:  BSF    FF2.7
02852:  MOVWF  FEF
....................       CiclosPersonalizados[i].Minutoest=read_eeprom(101+(i*8));  
02854:  MOVLB  3
02856:  MOVF   x44,W
02858:  MULLW  0A
0285A:  MOVF   FF3,W
0285C:  MOVLB  6
0285E:  CLRF   x97
02860:  MOVWF  x96
02862:  MOVLW  09
02864:  ADDWF  x96,W
02866:  MOVWF  01
02868:  MOVLW  00
0286A:  ADDWFC x97,W
0286C:  MOVWF  03
0286E:  MOVF   01,W
02870:  ADDLW  6E
02872:  MOVWF  FE9
02874:  MOVLW  06
02876:  ADDWFC 03,W
02878:  MOVWF  FEA
0287A:  MOVLB  3
0287C:  MOVF   x44,W
0287E:  MULLW  08
02880:  MOVF   FF3,W
02882:  ADDLW  65
02884:  MOVLB  6
02886:  MOVWF  x98
02888:  MOVFF  FF2,699
0288C:  BCF    FF2.6
0288E:  BCF    FF2.7
02890:  CLRF   FAA
02892:  MOVFF  698,FA9
02896:  BCF    FA6.6
02898:  BCF    FA6.7
0289A:  BSF    FA6.0
0289C:  MOVF   FA8,W
0289E:  BTFSC  x99.6
028A0:  BSF    FF2.6
028A2:  BTFSC  x99.7
028A4:  BSF    FF2.7
028A6:  MOVWF  FEF
....................       CiclosPersonalizados[i].Segundoest=read_eeprom(102+(i*8));  
028A8:  MOVLB  3
028AA:  MOVF   x44,W
028AC:  MULLW  0A
028AE:  MOVF   FF3,W
028B0:  MOVLB  6
028B2:  CLRF   x97
028B4:  MOVWF  x96
028B6:  MOVLW  03
028B8:  ADDWF  x96,W
028BA:  MOVWF  01
028BC:  MOVLW  00
028BE:  ADDWFC x97,W
028C0:  MOVWF  03
028C2:  MOVF   01,W
028C4:  ADDLW  6E
028C6:  MOVWF  FE9
028C8:  MOVLW  06
028CA:  ADDWFC 03,W
028CC:  MOVWF  FEA
028CE:  MOVLB  3
028D0:  MOVF   x44,W
028D2:  MULLW  08
028D4:  MOVF   FF3,W
028D6:  ADDLW  66
028D8:  MOVLB  6
028DA:  MOVWF  x98
028DC:  MOVFF  FF2,699
028E0:  BCF    FF2.6
028E2:  BCF    FF2.7
028E4:  CLRF   FAA
028E6:  MOVFF  698,FA9
028EA:  BCF    FA6.6
028EC:  BCF    FA6.7
028EE:  BSF    FA6.0
028F0:  MOVF   FA8,W
028F2:  BTFSC  x99.6
028F4:  BSF    FF2.6
028F6:  BTFSC  x99.7
028F8:  BSF    FF2.7
028FA:  MOVWF  FEF
....................       CiclosPersonalizados[i].Minutosec=read_eeprom(103+(i*8));  
028FC:  MOVLB  3
028FE:  MOVF   x44,W
02900:  MULLW  0A
02902:  MOVF   FF3,W
02904:  MOVLB  6
02906:  CLRF   x97
02908:  MOVWF  x96
0290A:  MOVLW  04
0290C:  ADDWF  x96,W
0290E:  MOVWF  01
02910:  MOVLW  00
02912:  ADDWFC x97,W
02914:  MOVWF  03
02916:  MOVF   01,W
02918:  ADDLW  6E
0291A:  MOVWF  FE9
0291C:  MOVLW  06
0291E:  ADDWFC 03,W
02920:  MOVWF  FEA
02922:  MOVLB  3
02924:  MOVF   x44,W
02926:  MULLW  08
02928:  MOVF   FF3,W
0292A:  ADDLW  67
0292C:  MOVLB  6
0292E:  MOVWF  x98
02930:  MOVFF  FF2,699
02934:  BCF    FF2.6
02936:  BCF    FF2.7
02938:  CLRF   FAA
0293A:  MOVFF  698,FA9
0293E:  BCF    FA6.6
02940:  BCF    FA6.7
02942:  BSF    FA6.0
02944:  MOVF   FA8,W
02946:  BTFSC  x99.6
02948:  BSF    FF2.6
0294A:  BTFSC  x99.7
0294C:  BSF    FF2.7
0294E:  MOVWF  FEF
....................       CiclosPersonalizados[i].Segundosec=read_eeprom(104+(i*8));  
02950:  MOVLB  3
02952:  MOVF   x44,W
02954:  MULLW  0A
02956:  MOVF   FF3,W
02958:  MOVLB  6
0295A:  CLRF   x97
0295C:  MOVWF  x96
0295E:  MOVLW  05
02960:  ADDWF  x96,W
02962:  MOVWF  01
02964:  MOVLW  00
02966:  ADDWFC x97,W
02968:  MOVWF  03
0296A:  MOVF   01,W
0296C:  ADDLW  6E
0296E:  MOVWF  FE9
02970:  MOVLW  06
02972:  ADDWFC 03,W
02974:  MOVWF  FEA
02976:  MOVLB  3
02978:  MOVF   x44,W
0297A:  MULLW  08
0297C:  MOVF   FF3,W
0297E:  ADDLW  68
02980:  MOVLB  6
02982:  MOVWF  x98
02984:  MOVFF  FF2,699
02988:  BCF    FF2.6
0298A:  BCF    FF2.7
0298C:  CLRF   FAA
0298E:  MOVFF  698,FA9
02992:  BCF    FA6.6
02994:  BCF    FA6.7
02996:  BSF    FA6.0
02998:  MOVF   FA8,W
0299A:  BTFSC  x99.6
0299C:  BSF    FF2.6
0299E:  BTFSC  x99.7
029A0:  BSF    FF2.7
029A2:  MOVWF  FEF
....................       CiclosPersonalizados[i].PulsosVacio=read_eeprom(105+(i*8));  
029A4:  MOVLB  3
029A6:  MOVF   x44,W
029A8:  MULLW  0A
029AA:  MOVF   FF3,W
029AC:  MOVLB  6
029AE:  CLRF   x97
029B0:  MOVWF  x96
029B2:  MOVLW  06
029B4:  ADDWF  x96,W
029B6:  MOVWF  01
029B8:  MOVLW  00
029BA:  ADDWFC x97,W
029BC:  MOVWF  03
029BE:  MOVF   01,W
029C0:  ADDLW  6E
029C2:  MOVWF  FE9
029C4:  MOVLW  06
029C6:  ADDWFC 03,W
029C8:  MOVWF  FEA
029CA:  MOVLB  3
029CC:  MOVF   x44,W
029CE:  MULLW  08
029D0:  MOVF   FF3,W
029D2:  ADDLW  69
029D4:  MOVLB  6
029D6:  MOVWF  x98
029D8:  MOVFF  FF2,699
029DC:  BCF    FF2.6
029DE:  BCF    FF2.7
029E0:  CLRF   FAA
029E2:  MOVFF  698,FA9
029E6:  BCF    FA6.6
029E8:  BCF    FA6.7
029EA:  BSF    FA6.0
029EC:  MOVF   FA8,W
029EE:  BTFSC  x99.6
029F0:  BSF    FF2.6
029F2:  BTFSC  x99.7
029F4:  BSF    FF2.7
029F6:  MOVWF  FEF
....................       CiclosPersonalizados[i].NivelVacio=read_eeprom(106+(i*8));  
029F8:  MOVLB  3
029FA:  MOVF   x44,W
029FC:  MULLW  0A
029FE:  MOVF   FF3,W
02A00:  MOVLB  6
02A02:  CLRF   x97
02A04:  MOVWF  x96
02A06:  MOVLW  07
02A08:  ADDWF  x96,W
02A0A:  MOVWF  01
02A0C:  MOVLW  00
02A0E:  ADDWFC x97,W
02A10:  MOVWF  03
02A12:  MOVF   01,W
02A14:  ADDLW  6E
02A16:  MOVWF  FE9
02A18:  MOVLW  06
02A1A:  ADDWFC 03,W
02A1C:  MOVWF  FEA
02A1E:  MOVLB  3
02A20:  MOVF   x44,W
02A22:  MULLW  08
02A24:  MOVF   FF3,W
02A26:  ADDLW  6A
02A28:  MOVLB  6
02A2A:  MOVWF  x98
02A2C:  MOVFF  FF2,699
02A30:  BCF    FF2.6
02A32:  BCF    FF2.7
02A34:  CLRF   FAA
02A36:  MOVFF  698,FA9
02A3A:  BCF    FA6.6
02A3C:  BCF    FA6.7
02A3E:  BSF    FA6.0
02A40:  MOVF   FA8,W
02A42:  BTFSC  x99.6
02A44:  BSF    FF2.6
02A46:  BTFSC  x99.7
02A48:  BSF    FF2.7
02A4A:  MOVWF  FEF
....................       CiclosPersonalizados[i].NivelDesfogue=read_eeprom(107+(i*8));  
02A4C:  MOVLB  3
02A4E:  MOVF   x44,W
02A50:  MULLW  0A
02A52:  MOVF   FF3,W
02A54:  MOVLB  6
02A56:  CLRF   x97
02A58:  MOVWF  x96
02A5A:  MOVLW  08
02A5C:  ADDWF  x96,W
02A5E:  MOVWF  01
02A60:  MOVLW  00
02A62:  ADDWFC x97,W
02A64:  MOVWF  03
02A66:  MOVF   01,W
02A68:  ADDLW  6E
02A6A:  MOVWF  FE9
02A6C:  MOVLW  06
02A6E:  ADDWFC 03,W
02A70:  MOVWF  FEA
02A72:  MOVLB  3
02A74:  MOVF   x44,W
02A76:  MULLW  08
02A78:  MOVF   FF3,W
02A7A:  ADDLW  6B
02A7C:  MOVLB  6
02A7E:  MOVWF  x98
02A80:  MOVFF  FF2,699
02A84:  BCF    FF2.6
02A86:  BCF    FF2.7
02A88:  CLRF   FAA
02A8A:  MOVFF  698,FA9
02A8E:  BCF    FA6.6
02A90:  BCF    FA6.7
02A92:  BSF    FA6.0
02A94:  MOVF   FA8,W
02A96:  BTFSC  x99.6
02A98:  BSF    FF2.6
02A9A:  BTFSC  x99.7
02A9C:  BSF    FF2.7
02A9E:  MOVWF  FEF
....................        
....................       if(CiclosPersonalizados[i].Temperatura>134 || CiclosPersonalizados[i].Temperatura<105) 
02AA0:  MOVLB  3
02AA2:  MOVF   x44,W
02AA4:  MULLW  0A
02AA6:  MOVF   FF3,W
02AA8:  MOVLB  6
02AAA:  CLRF   x97
02AAC:  MOVWF  x96
02AAE:  MOVLW  6E
02AB0:  ADDWF  x96,W
02AB2:  MOVWF  FE9
02AB4:  MOVLW  06
02AB6:  ADDWFC x97,W
02AB8:  MOVWF  FEA
02ABA:  MOVF   FEF,W
02ABC:  SUBLW  86
02ABE:  BNC   2AE0
02AC0:  MOVLB  3
02AC2:  MOVF   x44,W
02AC4:  MULLW  0A
02AC6:  MOVF   FF3,W
02AC8:  MOVLB  6
02ACA:  CLRF   x97
02ACC:  MOVWF  x96
02ACE:  MOVLW  6E
02AD0:  ADDWF  x96,W
02AD2:  MOVWF  FE9
02AD4:  MOVLW  06
02AD6:  ADDWFC x97,W
02AD8:  MOVWF  FEA
02ADA:  MOVF   FEF,W
02ADC:  SUBLW  68
02ADE:  BNC   2AFE
....................          CiclosPersonalizados[i].Temperatura=121; 
02AE0:  MOVLB  3
02AE2:  MOVF   x44,W
02AE4:  MULLW  0A
02AE6:  MOVF   FF3,W
02AE8:  MOVLB  6
02AEA:  CLRF   x97
02AEC:  MOVWF  x96
02AEE:  MOVLW  6E
02AF0:  ADDWF  x96,W
02AF2:  MOVWF  FE9
02AF4:  MOVLW  06
02AF6:  ADDWFC x97,W
02AF8:  MOVWF  FEA
02AFA:  MOVLW  79
02AFC:  MOVWF  FEF
....................       if(CiclosPersonalizados[i].Minutoest>59) 
02AFE:  MOVLB  3
02B00:  MOVF   x44,W
02B02:  MULLW  0A
02B04:  MOVF   FF3,W
02B06:  MOVLB  6
02B08:  CLRF   x97
02B0A:  MOVWF  x96
02B0C:  MOVLW  09
02B0E:  ADDWF  x96,W
02B10:  MOVWF  01
02B12:  MOVLW  00
02B14:  ADDWFC x97,W
02B16:  MOVWF  03
02B18:  MOVF   01,W
02B1A:  ADDLW  6E
02B1C:  MOVWF  FE9
02B1E:  MOVLW  06
02B20:  ADDWFC 03,W
02B22:  MOVWF  FEA
02B24:  MOVF   FEF,W
02B26:  SUBLW  3B
02B28:  BC    2B52
....................          CiclosPersonalizados[i].Minutoest=0; 
02B2A:  MOVLB  3
02B2C:  MOVF   x44,W
02B2E:  MULLW  0A
02B30:  MOVF   FF3,W
02B32:  MOVLB  6
02B34:  CLRF   x97
02B36:  MOVWF  x96
02B38:  MOVLW  09
02B3A:  ADDWF  x96,W
02B3C:  MOVWF  01
02B3E:  MOVLW  00
02B40:  ADDWFC x97,W
02B42:  MOVWF  03
02B44:  MOVF   01,W
02B46:  ADDLW  6E
02B48:  MOVWF  FE9
02B4A:  MOVLW  06
02B4C:  ADDWFC 03,W
02B4E:  MOVWF  FEA
02B50:  CLRF   FEF
....................       if(CiclosPersonalizados[i].Segundoest>59) 
02B52:  MOVLB  3
02B54:  MOVF   x44,W
02B56:  MULLW  0A
02B58:  MOVF   FF3,W
02B5A:  MOVLB  6
02B5C:  CLRF   x97
02B5E:  MOVWF  x96
02B60:  MOVLW  03
02B62:  ADDWF  x96,W
02B64:  MOVWF  01
02B66:  MOVLW  00
02B68:  ADDWFC x97,W
02B6A:  MOVWF  03
02B6C:  MOVF   01,W
02B6E:  ADDLW  6E
02B70:  MOVWF  FE9
02B72:  MOVLW  06
02B74:  ADDWFC 03,W
02B76:  MOVWF  FEA
02B78:  MOVF   FEF,W
02B7A:  SUBLW  3B
02B7C:  BC    2BA6
....................          CiclosPersonalizados[i].Segundoest=0; 
02B7E:  MOVLB  3
02B80:  MOVF   x44,W
02B82:  MULLW  0A
02B84:  MOVF   FF3,W
02B86:  MOVLB  6
02B88:  CLRF   x97
02B8A:  MOVWF  x96
02B8C:  MOVLW  03
02B8E:  ADDWF  x96,W
02B90:  MOVWF  01
02B92:  MOVLW  00
02B94:  ADDWFC x97,W
02B96:  MOVWF  03
02B98:  MOVF   01,W
02B9A:  ADDLW  6E
02B9C:  MOVWF  FE9
02B9E:  MOVLW  06
02BA0:  ADDWFC 03,W
02BA2:  MOVWF  FEA
02BA4:  CLRF   FEF
....................       if(CiclosPersonalizados[i].Minutosec>59) 
02BA6:  MOVLB  3
02BA8:  MOVF   x44,W
02BAA:  MULLW  0A
02BAC:  MOVF   FF3,W
02BAE:  MOVLB  6
02BB0:  CLRF   x97
02BB2:  MOVWF  x96
02BB4:  MOVLW  04
02BB6:  ADDWF  x96,W
02BB8:  MOVWF  01
02BBA:  MOVLW  00
02BBC:  ADDWFC x97,W
02BBE:  MOVWF  03
02BC0:  MOVF   01,W
02BC2:  ADDLW  6E
02BC4:  MOVWF  FE9
02BC6:  MOVLW  06
02BC8:  ADDWFC 03,W
02BCA:  MOVWF  FEA
02BCC:  MOVF   FEF,W
02BCE:  SUBLW  3B
02BD0:  BC    2BFA
....................          CiclosPersonalizados[i].Minutosec=0;    
02BD2:  MOVLB  3
02BD4:  MOVF   x44,W
02BD6:  MULLW  0A
02BD8:  MOVF   FF3,W
02BDA:  MOVLB  6
02BDC:  CLRF   x97
02BDE:  MOVWF  x96
02BE0:  MOVLW  04
02BE2:  ADDWF  x96,W
02BE4:  MOVWF  01
02BE6:  MOVLW  00
02BE8:  ADDWFC x97,W
02BEA:  MOVWF  03
02BEC:  MOVF   01,W
02BEE:  ADDLW  6E
02BF0:  MOVWF  FE9
02BF2:  MOVLW  06
02BF4:  ADDWFC 03,W
02BF6:  MOVWF  FEA
02BF8:  CLRF   FEF
....................       if(CiclosPersonalizados[i].Segundoest>59) 
02BFA:  MOVLB  3
02BFC:  MOVF   x44,W
02BFE:  MULLW  0A
02C00:  MOVF   FF3,W
02C02:  MOVLB  6
02C04:  CLRF   x97
02C06:  MOVWF  x96
02C08:  MOVLW  03
02C0A:  ADDWF  x96,W
02C0C:  MOVWF  01
02C0E:  MOVLW  00
02C10:  ADDWFC x97,W
02C12:  MOVWF  03
02C14:  MOVF   01,W
02C16:  ADDLW  6E
02C18:  MOVWF  FE9
02C1A:  MOVLW  06
02C1C:  ADDWFC 03,W
02C1E:  MOVWF  FEA
02C20:  MOVF   FEF,W
02C22:  SUBLW  3B
02C24:  BC    2C4E
....................          CiclosPersonalizados[i].Segundoest=0; 
02C26:  MOVLB  3
02C28:  MOVF   x44,W
02C2A:  MULLW  0A
02C2C:  MOVF   FF3,W
02C2E:  MOVLB  6
02C30:  CLRF   x97
02C32:  MOVWF  x96
02C34:  MOVLW  03
02C36:  ADDWF  x96,W
02C38:  MOVWF  01
02C3A:  MOVLW  00
02C3C:  ADDWFC x97,W
02C3E:  MOVWF  03
02C40:  MOVF   01,W
02C42:  ADDLW  6E
02C44:  MOVWF  FE9
02C46:  MOVLW  06
02C48:  ADDWFC 03,W
02C4A:  MOVWF  FEA
02C4C:  CLRF   FEF
....................       if(CiclosPersonalizados[i].Segundosec>59) 
02C4E:  MOVLB  3
02C50:  MOVF   x44,W
02C52:  MULLW  0A
02C54:  MOVF   FF3,W
02C56:  MOVLB  6
02C58:  CLRF   x97
02C5A:  MOVWF  x96
02C5C:  MOVLW  05
02C5E:  ADDWF  x96,W
02C60:  MOVWF  01
02C62:  MOVLW  00
02C64:  ADDWFC x97,W
02C66:  MOVWF  03
02C68:  MOVF   01,W
02C6A:  ADDLW  6E
02C6C:  MOVWF  FE9
02C6E:  MOVLW  06
02C70:  ADDWFC 03,W
02C72:  MOVWF  FEA
02C74:  MOVF   FEF,W
02C76:  SUBLW  3B
02C78:  BC    2CA2
....................          CiclosPersonalizados[i].Segundosec=0;       
02C7A:  MOVLB  3
02C7C:  MOVF   x44,W
02C7E:  MULLW  0A
02C80:  MOVF   FF3,W
02C82:  MOVLB  6
02C84:  CLRF   x97
02C86:  MOVWF  x96
02C88:  MOVLW  05
02C8A:  ADDWF  x96,W
02C8C:  MOVWF  01
02C8E:  MOVLW  00
02C90:  ADDWFC x97,W
02C92:  MOVWF  03
02C94:  MOVF   01,W
02C96:  ADDLW  6E
02C98:  MOVWF  FE9
02C9A:  MOVLW  06
02C9C:  ADDWFC 03,W
02C9E:  MOVWF  FEA
02CA0:  CLRF   FEF
....................       if(CiclosPersonalizados[i].PulsosVacio>8) 
02CA2:  MOVLB  3
02CA4:  MOVF   x44,W
02CA6:  MULLW  0A
02CA8:  MOVF   FF3,W
02CAA:  MOVLB  6
02CAC:  CLRF   x97
02CAE:  MOVWF  x96
02CB0:  MOVLW  06
02CB2:  ADDWF  x96,W
02CB4:  MOVWF  01
02CB6:  MOVLW  00
02CB8:  ADDWFC x97,W
02CBA:  MOVWF  03
02CBC:  MOVF   01,W
02CBE:  ADDLW  6E
02CC0:  MOVWF  FE9
02CC2:  MOVLW  06
02CC4:  ADDWFC 03,W
02CC6:  MOVWF  FEA
02CC8:  MOVF   FEF,W
02CCA:  SUBLW  08
02CCC:  BC    2CF8
....................          CiclosPersonalizados[i].PulsosVacio=2; 
02CCE:  MOVLB  3
02CD0:  MOVF   x44,W
02CD2:  MULLW  0A
02CD4:  MOVF   FF3,W
02CD6:  MOVLB  6
02CD8:  CLRF   x97
02CDA:  MOVWF  x96
02CDC:  MOVLW  06
02CDE:  ADDWF  x96,W
02CE0:  MOVWF  01
02CE2:  MOVLW  00
02CE4:  ADDWFC x97,W
02CE6:  MOVWF  03
02CE8:  MOVF   01,W
02CEA:  ADDLW  6E
02CEC:  MOVWF  FE9
02CEE:  MOVLW  06
02CF0:  ADDWFC 03,W
02CF2:  MOVWF  FEA
02CF4:  MOVLW  02
02CF6:  MOVWF  FEF
....................       if(CiclosPersonalizados[i].NivelVacio>99 || CiclosPersonalizados[i].NivelVacio<10) 
02CF8:  MOVLB  3
02CFA:  MOVF   x44,W
02CFC:  MULLW  0A
02CFE:  MOVF   FF3,W
02D00:  MOVLB  6
02D02:  CLRF   x97
02D04:  MOVWF  x96
02D06:  MOVLW  07
02D08:  ADDWF  x96,W
02D0A:  MOVWF  01
02D0C:  MOVLW  00
02D0E:  ADDWFC x97,W
02D10:  MOVWF  03
02D12:  MOVF   01,W
02D14:  ADDLW  6E
02D16:  MOVWF  FE9
02D18:  MOVLW  06
02D1A:  ADDWFC 03,W
02D1C:  MOVWF  FEA
02D1E:  MOVF   FEF,W
02D20:  SUBLW  63
02D22:  BNC   2D50
02D24:  MOVLB  3
02D26:  MOVF   x44,W
02D28:  MULLW  0A
02D2A:  MOVF   FF3,W
02D2C:  MOVLB  6
02D2E:  CLRF   x97
02D30:  MOVWF  x96
02D32:  MOVLW  07
02D34:  ADDWF  x96,W
02D36:  MOVWF  01
02D38:  MOVLW  00
02D3A:  ADDWFC x97,W
02D3C:  MOVWF  03
02D3E:  MOVF   01,W
02D40:  ADDLW  6E
02D42:  MOVWF  FE9
02D44:  MOVLW  06
02D46:  ADDWFC 03,W
02D48:  MOVWF  FEA
02D4A:  MOVF   FEF,W
02D4C:  SUBLW  09
02D4E:  BNC   2D7A
....................          CiclosPersonalizados[i].NivelVacio=25;    
02D50:  MOVLB  3
02D52:  MOVF   x44,W
02D54:  MULLW  0A
02D56:  MOVF   FF3,W
02D58:  MOVLB  6
02D5A:  CLRF   x97
02D5C:  MOVWF  x96
02D5E:  MOVLW  07
02D60:  ADDWF  x96,W
02D62:  MOVWF  01
02D64:  MOVLW  00
02D66:  ADDWFC x97,W
02D68:  MOVWF  03
02D6A:  MOVF   01,W
02D6C:  ADDLW  6E
02D6E:  MOVWF  FE9
02D70:  MOVLW  06
02D72:  ADDWFC 03,W
02D74:  MOVWF  FEA
02D76:  MOVLW  19
02D78:  MOVWF  FEF
....................       if(CiclosPersonalizados[i].NivelDesfogue>6) 
02D7A:  MOVLB  3
02D7C:  MOVF   x44,W
02D7E:  MULLW  0A
02D80:  MOVF   FF3,W
02D82:  MOVLB  6
02D84:  CLRF   x97
02D86:  MOVWF  x96
02D88:  MOVLW  08
02D8A:  ADDWF  x96,W
02D8C:  MOVWF  01
02D8E:  MOVLW  00
02D90:  ADDWFC x97,W
02D92:  MOVWF  03
02D94:  MOVF   01,W
02D96:  ADDLW  6E
02D98:  MOVWF  FE9
02D9A:  MOVLW  06
02D9C:  ADDWFC 03,W
02D9E:  MOVWF  FEA
02DA0:  MOVF   FEF,W
02DA2:  SUBLW  06
02DA4:  BC    2DD0
....................          CiclosPersonalizados[i].NivelDesfogue=6; 
02DA6:  MOVLB  3
02DA8:  MOVF   x44,W
02DAA:  MULLW  0A
02DAC:  MOVF   FF3,W
02DAE:  MOVLB  6
02DB0:  CLRF   x97
02DB2:  MOVWF  x96
02DB4:  MOVLW  08
02DB6:  ADDWF  x96,W
02DB8:  MOVWF  01
02DBA:  MOVLW  00
02DBC:  ADDWFC x97,W
02DBE:  MOVWF  03
02DC0:  MOVF   01,W
02DC2:  ADDLW  6E
02DC4:  MOVWF  FE9
02DC6:  MOVLW  06
02DC8:  ADDWFC 03,W
02DCA:  MOVWF  FEA
02DCC:  MOVLW  06
02DCE:  MOVWF  FEF
....................    } 
02DD0:  MOVLB  3
02DD2:  INCF   x44,F
02DD4:  BRA    2806
.................... } 
02DD6:  MOVLB  0
02DD8:  GOTO   6C8C (RETURN)
....................  
.................... void LimitaValores(){ 
....................    if(Password[0]>9 || Password[0]<0){ 
*
02F86:  MOVLB  3
02F88:  BTFSC  x6B.7
02F8A:  BRA    2F92
02F8C:  MOVF   x6B,W
02F8E:  SUBLW  09
02F90:  BNC   2F98
02F92:  BTFSC  x6B.7
02F94:  BRA    2F98
02F96:  BRA    2FD4
....................       Password[0]=0; 
02F98:  CLRF   x6B
....................       write_eeprom(10,0); 
02F9A:  CLRF   FAA
02F9C:  MOVLW  0A
02F9E:  MOVWF  FA9
02FA0:  CLRF   FA8
02FA2:  BCF    FA6.6
02FA4:  BCF    FA6.7
02FA6:  BSF    FA6.2
02FA8:  MOVF   FF2,W
02FAA:  MOVWF  00
02FAC:  BCF    FF2.6
02FAE:  BCF    FF2.7
02FB0:  MOVLB  F
02FB2:  MOVLW  55
02FB4:  MOVWF  FA7
02FB6:  MOVLW  AA
02FB8:  MOVWF  FA7
02FBA:  BSF    FA6.1
02FBC:  BTFSC  FA6.1
02FBE:  BRA    2FBC
02FC0:  BCF    FA6.2
02FC2:  MOVF   00,W
02FC4:  IORWF  FF2,F
....................       delay_ms(10); 
02FC6:  MOVLW  0A
02FC8:  MOVLB  6
02FCA:  MOVWF  xA8
02FCC:  MOVLB  0
02FCE:  CALL   1D14
02FD2:  MOVLB  3
....................    } 
....................    if(Password[1]>9 || Password[1]<0){ 
02FD4:  BTFSC  x6C.7
02FD6:  BRA    2FDE
02FD8:  MOVF   x6C,W
02FDA:  SUBLW  09
02FDC:  BNC   2FE2
02FDE:  BTFSS  x6C.7
02FE0:  BRA    301E
....................       Password[1]=0; 
02FE2:  CLRF   x6C
....................       write_eeprom(11,0); 
02FE4:  CLRF   FAA
02FE6:  MOVLW  0B
02FE8:  MOVWF  FA9
02FEA:  CLRF   FA8
02FEC:  BCF    FA6.6
02FEE:  BCF    FA6.7
02FF0:  BSF    FA6.2
02FF2:  MOVF   FF2,W
02FF4:  MOVWF  00
02FF6:  BCF    FF2.6
02FF8:  BCF    FF2.7
02FFA:  MOVLB  F
02FFC:  MOVLW  55
02FFE:  MOVWF  FA7
03000:  MOVLW  AA
03002:  MOVWF  FA7
03004:  BSF    FA6.1
03006:  BTFSC  FA6.1
03008:  BRA    3006
0300A:  BCF    FA6.2
0300C:  MOVF   00,W
0300E:  IORWF  FF2,F
....................       delay_ms(10); 
03010:  MOVLW  0A
03012:  MOVLB  6
03014:  MOVWF  xA8
03016:  MOVLB  0
03018:  CALL   1D14
0301C:  MOVLB  3
....................    } 
....................    if(Password[2]>9 || Password[2]<0){ 
0301E:  BTFSC  x6D.7
03020:  BRA    3028
03022:  MOVF   x6D,W
03024:  SUBLW  09
03026:  BNC   302E
03028:  BTFSC  x6D.7
0302A:  BRA    302E
0302C:  BRA    306A
....................       Password[2]=0; 
0302E:  CLRF   x6D
....................       write_eeprom(12,0); 
03030:  CLRF   FAA
03032:  MOVLW  0C
03034:  MOVWF  FA9
03036:  CLRF   FA8
03038:  BCF    FA6.6
0303A:  BCF    FA6.7
0303C:  BSF    FA6.2
0303E:  MOVF   FF2,W
03040:  MOVWF  00
03042:  BCF    FF2.6
03044:  BCF    FF2.7
03046:  MOVLB  F
03048:  MOVLW  55
0304A:  MOVWF  FA7
0304C:  MOVLW  AA
0304E:  MOVWF  FA7
03050:  BSF    FA6.1
03052:  BTFSC  FA6.1
03054:  BRA    3052
03056:  BCF    FA6.2
03058:  MOVF   00,W
0305A:  IORWF  FF2,F
....................       delay_ms(10); 
0305C:  MOVLW  0A
0305E:  MOVLB  6
03060:  MOVWF  xA8
03062:  MOVLB  0
03064:  CALL   1D14
03068:  MOVLB  3
....................    } 
....................    if(Password[3]>9 || Password[3]<0){ 
0306A:  BTFSC  x6E.7
0306C:  BRA    3074
0306E:  MOVF   x6E,W
03070:  SUBLW  09
03072:  BNC   307A
03074:  BTFSC  x6E.7
03076:  BRA    307A
03078:  BRA    30B4
....................       Password[3]=0; 
0307A:  CLRF   x6E
....................       write_eeprom(13,0); 
0307C:  CLRF   FAA
0307E:  MOVLW  0D
03080:  MOVWF  FA9
03082:  CLRF   FA8
03084:  BCF    FA6.6
03086:  BCF    FA6.7
03088:  BSF    FA6.2
0308A:  MOVF   FF2,W
0308C:  MOVWF  00
0308E:  BCF    FF2.6
03090:  BCF    FF2.7
03092:  MOVLB  F
03094:  MOVLW  55
03096:  MOVWF  FA7
03098:  MOVLW  AA
0309A:  MOVWF  FA7
0309C:  BSF    FA6.1
0309E:  BTFSC  FA6.1
030A0:  BRA    309E
030A2:  BCF    FA6.2
030A4:  MOVF   00,W
030A6:  IORWF  FF2,F
....................       delay_ms(10); 
030A8:  MOVLW  0A
030AA:  MOVLB  6
030AC:  MOVWF  xA8
030AE:  MOVLB  0
030B0:  CALL   1D14
....................    } 
....................    if(Integral>4.0){ 
030B4:  MOVLB  6
030B6:  CLRF   xA9
030B8:  MOVFF  327,6A8
030BC:  MOVLB  0
030BE:  CALL   1D3C
030C2:  MOVLB  6
030C4:  CLRF   x9F
030C6:  CLRF   x9E
030C8:  CLRF   x9D
030CA:  MOVLW  81
030CC:  MOVWF  x9C
030CE:  MOVFF  03,6A3
030D2:  MOVFF  02,6A2
030D6:  MOVFF  01,6A1
030DA:  MOVFF  00,6A0
030DE:  MOVLB  0
030E0:  RCALL  2EBE
030E2:  BNC   3124
....................       Integral=1.0; 
030E4:  MOVLW  01
030E6:  MOVLB  3
030E8:  MOVWF  x27
....................       write_eeprom(18,1); 
030EA:  CLRF   FAA
030EC:  MOVLW  12
030EE:  MOVWF  FA9
030F0:  MOVLW  01
030F2:  MOVWF  FA8
030F4:  BCF    FA6.6
030F6:  BCF    FA6.7
030F8:  BSF    FA6.2
030FA:  MOVF   FF2,W
030FC:  MOVWF  00
030FE:  BCF    FF2.6
03100:  BCF    FF2.7
03102:  MOVLB  F
03104:  MOVLW  55
03106:  MOVWF  FA7
03108:  MOVLW  AA
0310A:  MOVWF  FA7
0310C:  BSF    FA6.1
0310E:  BTFSC  FA6.1
03110:  BRA    310E
03112:  BCF    FA6.2
03114:  MOVF   00,W
03116:  IORWF  FF2,F
....................       delay_ms(10); 
03118:  MOVLW  0A
0311A:  MOVLB  6
0311C:  MOVWF  xA8
0311E:  MOVLB  0
03120:  CALL   1D14
....................    } 
....................    if(Derivativo>40.0){ 
03124:  MOVLB  6
03126:  CLRF   xA9
03128:  MOVFF  328,6A8
0312C:  MOVLB  0
0312E:  CALL   1D3C
03132:  MOVLB  6
03134:  CLRF   x9F
03136:  CLRF   x9E
03138:  MOVLW  20
0313A:  MOVWF  x9D
0313C:  MOVLW  84
0313E:  MOVWF  x9C
03140:  MOVFF  03,6A3
03144:  MOVFF  02,6A2
03148:  MOVFF  01,6A1
0314C:  MOVFF  00,6A0
03150:  MOVLB  0
03152:  RCALL  2EBE
03154:  BNC   3196
....................       Derivativo=15.0; 
03156:  MOVLW  0F
03158:  MOVLB  3
0315A:  MOVWF  x28
....................       write_eeprom(19,15); 
0315C:  CLRF   FAA
0315E:  MOVLW  13
03160:  MOVWF  FA9
03162:  MOVLW  0F
03164:  MOVWF  FA8
03166:  BCF    FA6.6
03168:  BCF    FA6.7
0316A:  BSF    FA6.2
0316C:  MOVF   FF2,W
0316E:  MOVWF  00
03170:  BCF    FF2.6
03172:  BCF    FF2.7
03174:  MOVLB  F
03176:  MOVLW  55
03178:  MOVWF  FA7
0317A:  MOVLW  AA
0317C:  MOVWF  FA7
0317E:  BSF    FA6.1
03180:  BTFSC  FA6.1
03182:  BRA    3180
03184:  BCF    FA6.2
03186:  MOVF   00,W
03188:  IORWF  FF2,F
....................       delay_ms(10); 
0318A:  MOVLW  0A
0318C:  MOVLB  6
0318E:  MOVWF  xA8
03190:  MOVLB  0
03192:  CALL   1D14
....................    } 
....................    if(Ganancia>30.0){ 
03196:  MOVLB  6
03198:  CLRF   x9F
0319A:  CLRF   x9E
0319C:  MOVLW  70
0319E:  MOVWF  x9D
031A0:  MOVLW  83
031A2:  MOVWF  x9C
031A4:  MOVFF  2F2,6A3
031A8:  MOVFF  2F1,6A2
031AC:  MOVFF  2F0,6A1
031B0:  MOVFF  2EF,6A0
031B4:  MOVLB  0
031B6:  RCALL  2EBE
031B8:  BNC   3202
....................       Ganancia=30.0; 
031BA:  MOVLB  2
031BC:  CLRF   xF2
031BE:  CLRF   xF1
031C0:  MOVLW  70
031C2:  MOVWF  xF0
031C4:  MOVLW  83
031C6:  MOVWF  xEF
....................       write_eeprom(20,30); 
031C8:  CLRF   FAA
031CA:  MOVLW  14
031CC:  MOVWF  FA9
031CE:  MOVLW  1E
031D0:  MOVWF  FA8
031D2:  BCF    FA6.6
031D4:  BCF    FA6.7
031D6:  BSF    FA6.2
031D8:  MOVF   FF2,W
031DA:  MOVWF  00
031DC:  BCF    FF2.6
031DE:  BCF    FF2.7
031E0:  MOVLB  F
031E2:  MOVLW  55
031E4:  MOVWF  FA7
031E6:  MOVLW  AA
031E8:  MOVWF  FA7
031EA:  BSF    FA6.1
031EC:  BTFSC  FA6.1
031EE:  BRA    31EC
031F0:  BCF    FA6.2
031F2:  MOVF   00,W
031F4:  IORWF  FF2,F
....................       delay_ms(10); 
031F6:  MOVLW  0A
031F8:  MOVLB  6
031FA:  MOVWF  xA8
031FC:  MOVLB  0
031FE:  CALL   1D14
....................    } 
....................    if(Sensor[0].Ajuste>50){ 
03202:  MOVLB  3
03204:  MOVF   xC4,W
03206:  SUBLW  32
03208:  BC    3246
....................       Sensor[0].Ajuste=0; 
0320A:  CLRF   xC4
....................       write_eeprom(21,0); 
0320C:  CLRF   FAA
0320E:  MOVLW  15
03210:  MOVWF  FA9
03212:  CLRF   FA8
03214:  BCF    FA6.6
03216:  BCF    FA6.7
03218:  BSF    FA6.2
0321A:  MOVF   FF2,W
0321C:  MOVWF  00
0321E:  BCF    FF2.6
03220:  BCF    FF2.7
03222:  MOVLB  F
03224:  MOVLW  55
03226:  MOVWF  FA7
03228:  MOVLW  AA
0322A:  MOVWF  FA7
0322C:  BSF    FA6.1
0322E:  BTFSC  FA6.1
03230:  BRA    322E
03232:  BCF    FA6.2
03234:  MOVF   00,W
03236:  IORWF  FF2,F
....................       delay_ms(10); 
03238:  MOVLW  0A
0323A:  MOVLB  6
0323C:  MOVWF  xA8
0323E:  MOVLB  0
03240:  CALL   1D14
03244:  MOVLB  3
....................    } 
....................    if(Sensor[0].Ajusten>50){ 
03246:  MOVF   xC5,W
03248:  SUBLW  32
0324A:  BC    3286
....................       Sensor[0].Ajusten=0; 
0324C:  CLRF   xC5
....................       write_eeprom(22,0); 
0324E:  CLRF   FAA
03250:  MOVLW  16
03252:  MOVWF  FA9
03254:  CLRF   FA8
03256:  BCF    FA6.6
03258:  BCF    FA6.7
0325A:  BSF    FA6.2
0325C:  MOVF   FF2,W
0325E:  MOVWF  00
03260:  BCF    FF2.6
03262:  BCF    FF2.7
03264:  MOVLB  F
03266:  MOVLW  55
03268:  MOVWF  FA7
0326A:  MOVLW  AA
0326C:  MOVWF  FA7
0326E:  BSF    FA6.1
03270:  BTFSC  FA6.1
03272:  BRA    3270
03274:  BCF    FA6.2
03276:  MOVF   00,W
03278:  IORWF  FF2,F
....................       delay_ms(10); 
0327A:  MOVLW  0A
0327C:  MOVLB  6
0327E:  MOVWF  xA8
03280:  MOVLB  0
03282:  CALL   1D14
....................    } 
....................    if(Sensor[1].Ajuste>50){ 
03286:  MOVLB  5
03288:  MOVF   x28,W
0328A:  SUBLW  32
0328C:  BC    32CA
....................       Sensor[1].Ajuste=0; 
0328E:  CLRF   x28
....................       write_eeprom(23,0); 
03290:  CLRF   FAA
03292:  MOVLW  17
03294:  MOVWF  FA9
03296:  CLRF   FA8
03298:  BCF    FA6.6
0329A:  BCF    FA6.7
0329C:  BSF    FA6.2
0329E:  MOVF   FF2,W
032A0:  MOVWF  00
032A2:  BCF    FF2.6
032A4:  BCF    FF2.7
032A6:  MOVLB  F
032A8:  MOVLW  55
032AA:  MOVWF  FA7
032AC:  MOVLW  AA
032AE:  MOVWF  FA7
032B0:  BSF    FA6.1
032B2:  BTFSC  FA6.1
032B4:  BRA    32B2
032B6:  BCF    FA6.2
032B8:  MOVF   00,W
032BA:  IORWF  FF2,F
....................       delay_ms(10); 
032BC:  MOVLW  0A
032BE:  MOVLB  6
032C0:  MOVWF  xA8
032C2:  MOVLB  0
032C4:  CALL   1D14
032C8:  MOVLB  5
....................    } 
....................    if(Sensor[1].Ajusten>50){ 
032CA:  MOVF   x29,W
032CC:  SUBLW  32
032CE:  BC    330A
....................       Sensor[1].Ajusten=0; 
032D0:  CLRF   x29
....................       write_eeprom(24,0); 
032D2:  CLRF   FAA
032D4:  MOVLW  18
032D6:  MOVWF  FA9
032D8:  CLRF   FA8
032DA:  BCF    FA6.6
032DC:  BCF    FA6.7
032DE:  BSF    FA6.2
032E0:  MOVF   FF2,W
032E2:  MOVWF  00
032E4:  BCF    FF2.6
032E6:  BCF    FF2.7
032E8:  MOVLB  F
032EA:  MOVLW  55
032EC:  MOVWF  FA7
032EE:  MOVLW  AA
032F0:  MOVWF  FA7
032F2:  BSF    FA6.1
032F4:  BTFSC  FA6.1
032F6:  BRA    32F4
032F8:  BCF    FA6.2
032FA:  MOVF   00,W
032FC:  IORWF  FF2,F
....................       delay_ms(10); 
032FE:  MOVLW  0A
03300:  MOVLB  6
03302:  MOVWF  xA8
03304:  MOVLB  0
03306:  CALL   1D14
....................    } 
....................    if(MediaMovil>80){ 
0330A:  MOVLB  2
0330C:  MOVF   xC9,W
0330E:  SUBLW  50
03310:  BC    3350
....................       MediaMovil=40; 
03312:  MOVLW  28
03314:  MOVWF  xC9
....................       write_eeprom(25,40); 
03316:  CLRF   FAA
03318:  MOVLW  19
0331A:  MOVWF  FA9
0331C:  MOVLW  28
0331E:  MOVWF  FA8
03320:  BCF    FA6.6
03322:  BCF    FA6.7
03324:  BSF    FA6.2
03326:  MOVF   FF2,W
03328:  MOVWF  00
0332A:  BCF    FF2.6
0332C:  BCF    FF2.7
0332E:  MOVLB  F
03330:  MOVLW  55
03332:  MOVWF  FA7
03334:  MOVLW  AA
03336:  MOVWF  FA7
03338:  BSF    FA6.1
0333A:  BTFSC  FA6.1
0333C:  BRA    333A
0333E:  BCF    FA6.2
03340:  MOVF   00,W
03342:  IORWF  FF2,F
....................       delay_ms(10); 
03344:  MOVLW  0A
03346:  MOVLB  6
03348:  MOVWF  xA8
0334A:  MOVLB  0
0334C:  CALL   1D14
....................    } 
....................    if(Tciclo>10){ 
03350:  MOVLB  6
03352:  CLRF   x9F
03354:  CLRF   x9E
03356:  MOVLW  20
03358:  MOVWF  x9D
0335A:  MOVLW  82
0335C:  MOVWF  x9C
0335E:  MOVFF  2DA,6A3
03362:  MOVFF  2D9,6A2
03366:  MOVFF  2D8,6A1
0336A:  MOVFF  2D7,6A0
0336E:  MOVLB  0
03370:  RCALL  2EBE
03372:  BNC   33BC
....................       Tciclo=10; 
03374:  MOVLB  2
03376:  CLRF   xDA
03378:  CLRF   xD9
0337A:  MOVLW  20
0337C:  MOVWF  xD8
0337E:  MOVLW  82
03380:  MOVWF  xD7
....................       write_eeprom(26,10); 
03382:  CLRF   FAA
03384:  MOVLW  1A
03386:  MOVWF  FA9
03388:  MOVLW  0A
0338A:  MOVWF  FA8
0338C:  BCF    FA6.6
0338E:  BCF    FA6.7
03390:  BSF    FA6.2
03392:  MOVF   FF2,W
03394:  MOVWF  00
03396:  BCF    FF2.6
03398:  BCF    FF2.7
0339A:  MOVLB  F
0339C:  MOVLW  55
0339E:  MOVWF  FA7
033A0:  MOVLW  AA
033A2:  MOVWF  FA7
033A4:  BSF    FA6.1
033A6:  BTFSC  FA6.1
033A8:  BRA    33A6
033AA:  BCF    FA6.2
033AC:  MOVF   00,W
033AE:  IORWF  FF2,F
....................       delay_ms(10); 
033B0:  MOVLW  0A
033B2:  MOVLB  6
033B4:  MOVWF  xA8
033B6:  MOVLB  0
033B8:  CALL   1D14
....................    } 
....................    if(Sensor[0].RPT100>2.0){ 
033BC:  MOVLB  6
033BE:  CLRF   x9F
033C0:  CLRF   x9E
033C2:  CLRF   x9D
033C4:  MOVLW  80
033C6:  MOVWF  x9C
033C8:  MOVFF  3B9,6A3
033CC:  MOVFF  3B8,6A2
033D0:  MOVFF  3B7,6A1
033D4:  MOVFF  3B6,6A0
033D8:  MOVLB  0
033DA:  RCALL  2EBE
033DC:  BNC   345C
....................       Sensor[0].RPT100=0.5; 
033DE:  MOVLB  3
033E0:  CLRF   xB9
033E2:  CLRF   xB8
033E4:  CLRF   xB7
033E6:  MOVLW  7E
033E8:  MOVWF  xB6
....................       write_eeprom(28,0); 
033EA:  CLRF   FAA
033EC:  MOVLW  1C
033EE:  MOVWF  FA9
033F0:  CLRF   FA8
033F2:  BCF    FA6.6
033F4:  BCF    FA6.7
033F6:  BSF    FA6.2
033F8:  MOVF   FF2,W
033FA:  MOVWF  00
033FC:  BCF    FF2.6
033FE:  BCF    FF2.7
03400:  MOVLB  F
03402:  MOVLW  55
03404:  MOVWF  FA7
03406:  MOVLW  AA
03408:  MOVWF  FA7
0340A:  BSF    FA6.1
0340C:  BTFSC  FA6.1
0340E:  BRA    340C
03410:  BCF    FA6.2
03412:  MOVF   00,W
03414:  IORWF  FF2,F
....................       delay_ms(10); 
03416:  MOVLW  0A
03418:  MOVLB  6
0341A:  MOVWF  xA8
0341C:  MOVLB  0
0341E:  CALL   1D14
....................       write_eeprom(27,5); 
03422:  CLRF   FAA
03424:  MOVLW  1B
03426:  MOVWF  FA9
03428:  MOVLW  05
0342A:  MOVWF  FA8
0342C:  BCF    FA6.6
0342E:  BCF    FA6.7
03430:  BSF    FA6.2
03432:  MOVF   FF2,W
03434:  MOVWF  00
03436:  BCF    FF2.6
03438:  BCF    FF2.7
0343A:  MOVLB  F
0343C:  MOVLW  55
0343E:  MOVWF  FA7
03440:  MOVLW  AA
03442:  MOVWF  FA7
03444:  BSF    FA6.1
03446:  BTFSC  FA6.1
03448:  BRA    3446
0344A:  BCF    FA6.2
0344C:  MOVF   00,W
0344E:  IORWF  FF2,F
....................       delay_ms(10); 
03450:  MOVLW  0A
03452:  MOVLB  6
03454:  MOVWF  xA8
03456:  MOVLB  0
03458:  CALL   1D14
....................    } 
....................    if(Sensor[1].RPT100>2.0){ 
0345C:  MOVLB  6
0345E:  CLRF   x9F
03460:  CLRF   x9E
03462:  CLRF   x9D
03464:  MOVLW  80
03466:  MOVWF  x9C
03468:  MOVFF  51D,6A3
0346C:  MOVFF  51C,6A2
03470:  MOVFF  51B,6A1
03474:  MOVFF  51A,6A0
03478:  MOVLB  0
0347A:  RCALL  2EBE
0347C:  BNC   34FC
....................       Sensor[1].RPT100=0.5; 
0347E:  MOVLB  5
03480:  CLRF   x1D
03482:  CLRF   x1C
03484:  CLRF   x1B
03486:  MOVLW  7E
03488:  MOVWF  x1A
....................       write_eeprom(30,0); 
0348A:  CLRF   FAA
0348C:  MOVLW  1E
0348E:  MOVWF  FA9
03490:  CLRF   FA8
03492:  BCF    FA6.6
03494:  BCF    FA6.7
03496:  BSF    FA6.2
03498:  MOVF   FF2,W
0349A:  MOVWF  00
0349C:  BCF    FF2.6
0349E:  BCF    FF2.7
034A0:  MOVLB  F
034A2:  MOVLW  55
034A4:  MOVWF  FA7
034A6:  MOVLW  AA
034A8:  MOVWF  FA7
034AA:  BSF    FA6.1
034AC:  BTFSC  FA6.1
034AE:  BRA    34AC
034B0:  BCF    FA6.2
034B2:  MOVF   00,W
034B4:  IORWF  FF2,F
....................       delay_ms(10); 
034B6:  MOVLW  0A
034B8:  MOVLB  6
034BA:  MOVWF  xA8
034BC:  MOVLB  0
034BE:  CALL   1D14
....................       write_eeprom(29,5); 
034C2:  CLRF   FAA
034C4:  MOVLW  1D
034C6:  MOVWF  FA9
034C8:  MOVLW  05
034CA:  MOVWF  FA8
034CC:  BCF    FA6.6
034CE:  BCF    FA6.7
034D0:  BSF    FA6.2
034D2:  MOVF   FF2,W
034D4:  MOVWF  00
034D6:  BCF    FF2.6
034D8:  BCF    FF2.7
034DA:  MOVLB  F
034DC:  MOVLW  55
034DE:  MOVWF  FA7
034E0:  MOVLW  AA
034E2:  MOVWF  FA7
034E4:  BSF    FA6.1
034E6:  BTFSC  FA6.1
034E8:  BRA    34E6
034EA:  BCF    FA6.2
034EC:  MOVF   00,W
034EE:  IORWF  FF2,F
....................       delay_ms(10); 
034F0:  MOVLW  0A
034F2:  MOVLB  6
034F4:  MOVWF  xA8
034F6:  MOVLB  0
034F8:  CALL   1D14
....................    } 
....................    if(Atmosferica>100){ 
034FC:  MOVLB  3
034FE:  MOVF   x2F,W
03500:  SUBLW  64
03502:  BC    3542
....................       Atmosferica=69; 
03504:  MOVLW  45
03506:  MOVWF  x2F
....................       write_eeprom(31,69); 
03508:  CLRF   FAA
0350A:  MOVLW  1F
0350C:  MOVWF  FA9
0350E:  MOVLW  45
03510:  MOVWF  FA8
03512:  BCF    FA6.6
03514:  BCF    FA6.7
03516:  BSF    FA6.2
03518:  MOVF   FF2,W
0351A:  MOVWF  00
0351C:  BCF    FF2.6
0351E:  BCF    FF2.7
03520:  MOVLB  F
03522:  MOVLW  55
03524:  MOVWF  FA7
03526:  MOVLW  AA
03528:  MOVWF  FA7
0352A:  BSF    FA6.1
0352C:  BTFSC  FA6.1
0352E:  BRA    352C
03530:  BCF    FA6.2
03532:  MOVF   00,W
03534:  IORWF  FF2,F
....................       delay_ms(10); 
03536:  MOVLW  0A
03538:  MOVLB  6
0353A:  MOVWF  xA8
0353C:  MOVLB  0
0353E:  CALL   1D14
....................    } 
....................    if(Tapertura>100){ 
03542:  MOVLB  2
03544:  MOVF   xCE,W
03546:  SUBLW  64
03548:  BC    3588
....................       Tapertura=85; 
0354A:  MOVLW  55
0354C:  MOVWF  xCE
....................       write_eeprom(32,85); 
0354E:  CLRF   FAA
03550:  MOVLW  20
03552:  MOVWF  FA9
03554:  MOVLW  55
03556:  MOVWF  FA8
03558:  BCF    FA6.6
0355A:  BCF    FA6.7
0355C:  BSF    FA6.2
0355E:  MOVF   FF2,W
03560:  MOVWF  00
03562:  BCF    FF2.6
03564:  BCF    FF2.7
03566:  MOVLB  F
03568:  MOVLW  55
0356A:  MOVWF  FA7
0356C:  MOVLW  AA
0356E:  MOVWF  FA7
03570:  BSF    FA6.1
03572:  BTFSC  FA6.1
03574:  BRA    3572
03576:  BCF    FA6.2
03578:  MOVF   00,W
0357A:  IORWF  FF2,F
....................       delay_ms(10); 
0357C:  MOVLW  0A
0357E:  MOVLB  6
03580:  MOVWF  xA8
03582:  MOVLB  0
03584:  CALL   1D14
....................    } 
....................    if(Ciclos>60000){ 
03588:  MOVLB  3
0358A:  MOVF   x62,W
0358C:  SUBLW  E9
0358E:  BC    3610
03590:  XORLW  FF
03592:  BNZ   359A
03594:  MOVF   x61,W
03596:  SUBLW  60
03598:  BC    3610
....................       Ciclos=0; 
0359A:  CLRF   x62
0359C:  CLRF   x61
....................       write_eeprom(37,0); 
0359E:  CLRF   FAA
035A0:  MOVLW  25
035A2:  MOVWF  FA9
035A4:  CLRF   FA8
035A6:  BCF    FA6.6
035A8:  BCF    FA6.7
035AA:  BSF    FA6.2
035AC:  MOVF   FF2,W
035AE:  MOVWF  00
035B0:  BCF    FF2.6
035B2:  BCF    FF2.7
035B4:  MOVLB  F
035B6:  MOVLW  55
035B8:  MOVWF  FA7
035BA:  MOVLW  AA
035BC:  MOVWF  FA7
035BE:  BSF    FA6.1
035C0:  BTFSC  FA6.1
035C2:  BRA    35C0
035C4:  BCF    FA6.2
035C6:  MOVF   00,W
035C8:  IORWF  FF2,F
....................       delay_ms(10); 
035CA:  MOVLW  0A
035CC:  MOVLB  6
035CE:  MOVWF  xA8
035D0:  MOVLB  0
035D2:  CALL   1D14
....................       write_eeprom(38,0); 
035D6:  CLRF   FAA
035D8:  MOVLW  26
035DA:  MOVWF  FA9
035DC:  CLRF   FA8
035DE:  BCF    FA6.6
035E0:  BCF    FA6.7
035E2:  BSF    FA6.2
035E4:  MOVF   FF2,W
035E6:  MOVWF  00
035E8:  BCF    FF2.6
035EA:  BCF    FF2.7
035EC:  MOVLB  F
035EE:  MOVLW  55
035F0:  MOVWF  FA7
035F2:  MOVLW  AA
035F4:  MOVWF  FA7
035F6:  BSF    FA6.1
035F8:  BTFSC  FA6.1
035FA:  BRA    35F8
035FC:  BCF    FA6.2
035FE:  MOVF   00,W
03600:  IORWF  FF2,F
....................       delay_ms(10); 
03602:  MOVLW  0A
03604:  MOVLB  6
03606:  MOVWF  xA8
03608:  MOVLB  0
0360A:  CALL   1D14
0360E:  MOVLB  3
....................    } 
....................    if(sg1==10){ 
03610:  MOVF   x90,W
03612:  SUBLW  0A
03614:  BNZ   362A
....................       G1=G1*(-1); 
03616:  MOVFF  38E,696
0361A:  MOVLW  FF
0361C:  MOVLB  6
0361E:  MOVWF  x97
03620:  MOVLB  0
03622:  RCALL  2F38
03624:  MOVFF  01,38E
03628:  MOVLB  3
....................    } 
....................    if(sg2==10){ 
0362A:  MOVF   x91,W
0362C:  SUBLW  0A
0362E:  BNZ   3644
....................       G2=G2*(-1); 
03630:  MOVFF  38F,696
03634:  MOVLW  FF
03636:  MOVLB  6
03638:  MOVWF  x97
0363A:  MOVLB  0
0363C:  RCALL  2F38
0363E:  MOVFF  01,38F
03642:  MOVLB  3
....................    } 
....................    if(ActivaImpresion>1){ 
03644:  MOVF   x3A,W
03646:  SUBLW  01
03648:  BC    368A
....................       ActivaImpresion=1; 
0364A:  MOVLW  01
0364C:  MOVWF  x3A
....................       write_eeprom(40,1); 
0364E:  CLRF   FAA
03650:  MOVLW  28
03652:  MOVWF  FA9
03654:  MOVLW  01
03656:  MOVWF  FA8
03658:  BCF    FA6.6
0365A:  BCF    FA6.7
0365C:  BSF    FA6.2
0365E:  MOVF   FF2,W
03660:  MOVWF  00
03662:  BCF    FF2.6
03664:  BCF    FF2.7
03666:  MOVLB  F
03668:  MOVLW  55
0366A:  MOVWF  FA7
0366C:  MOVLW  AA
0366E:  MOVWF  FA7
03670:  BSF    FA6.1
03672:  BTFSC  FA6.1
03674:  BRA    3672
03676:  BCF    FA6.2
03678:  MOVF   00,W
0367A:  IORWF  FF2,F
....................       delay_ms(10); 
0367C:  MOVLW  0A
0367E:  MOVLB  6
03680:  MOVWF  xA8
03682:  MOVLB  0
03684:  CALL   1D14
03688:  MOVLB  3
....................    } 
....................    if(timpresion>30){ 
0368A:  MOVF   x3B,W
0368C:  SUBLW  1E
0368E:  BC    36D0
....................       timpresion=2; 
03690:  MOVLW  02
03692:  MOVWF  x3B
....................       write_eeprom(41,2); 
03694:  CLRF   FAA
03696:  MOVLW  29
03698:  MOVWF  FA9
0369A:  MOVLW  02
0369C:  MOVWF  FA8
0369E:  BCF    FA6.6
036A0:  BCF    FA6.7
036A2:  BSF    FA6.2
036A4:  MOVF   FF2,W
036A6:  MOVWF  00
036A8:  BCF    FF2.6
036AA:  BCF    FF2.7
036AC:  MOVLB  F
036AE:  MOVLW  55
036B0:  MOVWF  FA7
036B2:  MOVLW  AA
036B4:  MOVWF  FA7
036B6:  BSF    FA6.1
036B8:  BTFSC  FA6.1
036BA:  BRA    36B8
036BC:  BCF    FA6.2
036BE:  MOVF   00,W
036C0:  IORWF  FF2,F
....................       delay_ms(10); 
036C2:  MOVLW  0A
036C4:  MOVLB  6
036C6:  MOVWF  xA8
036C8:  MOVLB  0
036CA:  CALL   1D14
036CE:  MOVLB  3
....................    } 
....................    if(pulsosConfigurados>8 || pulsosConfigurados<2){ 
036D0:  MOVF   x50,W
036D2:  SUBLW  08
036D4:  BNC   36DC
036D6:  MOVF   x50,W
036D8:  SUBLW  01
036DA:  BNC   371C
....................       pulsosConfigurados=2; 
036DC:  MOVLW  02
036DE:  MOVWF  x50
....................       write_eeprom(47,2); 
036E0:  CLRF   FAA
036E2:  MOVLW  2F
036E4:  MOVWF  FA9
036E6:  MOVLW  02
036E8:  MOVWF  FA8
036EA:  BCF    FA6.6
036EC:  BCF    FA6.7
036EE:  BSF    FA6.2
036F0:  MOVF   FF2,W
036F2:  MOVWF  00
036F4:  BCF    FF2.6
036F6:  BCF    FF2.7
036F8:  MOVLB  F
036FA:  MOVLW  55
036FC:  MOVWF  FA7
036FE:  MOVLW  AA
03700:  MOVWF  FA7
03702:  BSF    FA6.1
03704:  BTFSC  FA6.1
03706:  BRA    3704
03708:  BCF    FA6.2
0370A:  MOVF   00,W
0370C:  IORWF  FF2,F
....................       delay_ms(10); 
0370E:  MOVLW  0A
03710:  MOVLB  6
03712:  MOVWF  xA8
03714:  MOVLB  0
03716:  CALL   1D14
0371A:  MOVLB  3
....................    } 
....................    if(vacioTest>30 || vacioTest<17){ 
0371C:  MOVF   x4E,W
0371E:  SUBLW  1E
03720:  BNC   3728
03722:  MOVF   x4E,W
03724:  SUBLW  10
03726:  BNC   3768
....................       vacioTest=21; 
03728:  MOVLW  15
0372A:  MOVWF  x4E
....................       write_eeprom(48,21); 
0372C:  CLRF   FAA
0372E:  MOVLW  30
03730:  MOVWF  FA9
03732:  MOVLW  15
03734:  MOVWF  FA8
03736:  BCF    FA6.6
03738:  BCF    FA6.7
0373A:  BSF    FA6.2
0373C:  MOVF   FF2,W
0373E:  MOVWF  00
03740:  BCF    FF2.6
03742:  BCF    FF2.7
03744:  MOVLB  F
03746:  MOVLW  55
03748:  MOVWF  FA7
0374A:  MOVLW  AA
0374C:  MOVWF  FA7
0374E:  BSF    FA6.1
03750:  BTFSC  FA6.1
03752:  BRA    3750
03754:  BCF    FA6.2
03756:  MOVF   00,W
03758:  IORWF  FF2,F
....................       delay_ms(10); 
0375A:  MOVLW  0A
0375C:  MOVLB  6
0375E:  MOVWF  xA8
03760:  MOVLB  0
03762:  CALL   1D14
03766:  MOVLB  3
....................    } 
....................    if(vacioCiclo>30 || vacioCiclo<17){ 
03768:  MOVF   x4F,W
0376A:  SUBLW  1E
0376C:  BNC   3774
0376E:  MOVF   x4F,W
03770:  SUBLW  10
03772:  BNC   37B4
....................       vacioCiclo=25; 
03774:  MOVLW  19
03776:  MOVWF  x4F
....................       write_eeprom(49,25); 
03778:  CLRF   FAA
0377A:  MOVLW  31
0377C:  MOVWF  FA9
0377E:  MOVLW  19
03780:  MOVWF  FA8
03782:  BCF    FA6.6
03784:  BCF    FA6.7
03786:  BSF    FA6.2
03788:  MOVF   FF2,W
0378A:  MOVWF  00
0378C:  BCF    FF2.6
0378E:  BCF    FF2.7
03790:  MOVLB  F
03792:  MOVLW  55
03794:  MOVWF  FA7
03796:  MOVLW  AA
03798:  MOVWF  FA7
0379A:  BSF    FA6.1
0379C:  BTFSC  FA6.1
0379E:  BRA    379C
037A0:  BCF    FA6.2
037A2:  MOVF   00,W
037A4:  IORWF  FF2,F
....................       delay_ms(10); 
037A6:  MOVLW  0A
037A8:  MOVLB  6
037AA:  MOVWF  xA8
037AC:  MOVLB  0
037AE:  CALL   1D14
037B2:  MOVLB  3
....................    }   
.................... } 
037B4:  MOVLB  0
037B6:  GOTO   6CA0 (RETURN)
....................  
.................... void LeeDisplay(void){ 
....................    if(Dato_Exitoso==5){ 
*
04276:  MOVLB  3
04278:  MOVF   x3E,W
0427A:  SUBLW  05
0427C:  BTFSS  FD8.2
0427E:  BRA    43F4
....................          RX_Buffer[0]=RX_Buffer2[0]; 
04280:  MOVFF  3B,30
....................          RX_Buffer[1]=RX_Buffer2[1]; 
04284:  MOVFF  3C,31
....................          RX_Buffer[2]=RX_Buffer2[2]; 
04288:  MOVFF  3D,32
....................          RX_Buffer[3]=RX_Buffer2[3]; 
0428C:  MOVFF  3E,33
....................          RX_Buffer[4]=RX_Buffer2[4]; 
04290:  MOVFF  3F,34
....................          RX_Buffer[5]=RX_Buffer2[5]; 
04294:  MOVFF  40,35
....................          RX_Buffer[6]=RX_Buffer2[6]; 
04298:  MOVFF  41,36
....................          RX_Buffer[7]=RX_Buffer2[7]; 
0429C:  MOVFF  42,37
....................          RX_Buffer[8]=RX_Buffer2[8]; 
042A0:  MOVFF  43,38
....................          RX_Buffer[9]=RX_Buffer2[9]; 
042A4:  MOVFF  44,39
....................           
....................       if(RX_Buffer[3]==0x01){// Pregunta por la pagina en la que esta el display,01 es Contrasea de Acceso 
042A8:  DECFSZ 33,W
042AA:  BRA    42BA
....................          Menu=0; 
042AC:  CLRF   x41
....................          if(MenuAntt!=Menu) 
042AE:  MOVF   x41,W
042B0:  SUBWF  x43,W
042B2:  BZ    42B8
....................             MenuAntt=Menu; 
042B4:  MOVFF  341,343
....................       }else if(RX_Buffer[3]==0x02){//02 es Menu Principal con PantallaPriincipal=0, y con PantallaPrincipal=1 es Ciclo Libre 
042B8:  BRA    43F2
042BA:  MOVF   33,W
042BC:  SUBLW  02
042BE:  BNZ   42D0
....................          Menu=1; 
042C0:  MOVLW  01
042C2:  MOVWF  x41
....................          if(MenuAntt!=Menu) 
042C4:  MOVF   x41,W
042C6:  SUBWF  x43,W
042C8:  BZ    42CE
....................             MenuAntt=Menu; 
042CA:  MOVFF  341,343
....................       }else if(RX_Buffer[3]==0x03){//03 es Tiempo Esterilizacion 
042CE:  BRA    43F2
042D0:  MOVF   33,W
042D2:  SUBLW  03
042D4:  BNZ   42E6
....................          Menu=2; 
042D6:  MOVLW  02
042D8:  MOVWF  x41
....................          if(MenuAntt!=Menu) 
042DA:  MOVF   x41,W
042DC:  SUBWF  x43,W
042DE:  BZ    42E4
....................             MenuAntt=Menu; 
042E0:  MOVFF  341,343
....................       }else if(RX_Buffer[3]==0x04){//04 es Tiempo de Secado 
042E4:  BRA    43F2
042E6:  MOVF   33,W
042E8:  SUBLW  04
042EA:  BNZ   42FC
....................          Menu=3; 
042EC:  MOVLW  03
042EE:  MOVWF  x41
....................          if(MenuAntt!=Menu) 
042F0:  MOVF   x41,W
042F2:  SUBWF  x43,W
042F4:  BZ    42FA
....................             MenuAntt=Menu; 
042F6:  MOVFF  341,343
....................       }else if(RX_Buffer[3]==0x05){//05 es Temperatura 
042FA:  BRA    43F2
042FC:  MOVF   33,W
042FE:  SUBLW  05
04300:  BNZ   4312
....................          Menu=4; 
04302:  MOVLW  04
04304:  MOVWF  x41
....................          if(MenuAntt!=Menu) 
04306:  MOVF   x41,W
04308:  SUBWF  x43,W
0430A:  BZ    4310
....................             MenuAntt=Menu; 
0430C:  MOVFF  341,343
....................       }else if(RX_Buffer[3]==0x06){//06 es Nivel 
04310:  BRA    43F2
04312:  MOVF   33,W
04314:  SUBLW  06
04316:  BNZ   4328
....................          Menu=5; 
04318:  MOVLW  05
0431A:  MOVWF  x41
....................          if(MenuAntt!=Menu) 
0431C:  MOVF   x41,W
0431E:  SUBWF  x43,W
04320:  BZ    4326
....................             MenuAntt=Menu; 
04322:  MOVFF  341,343
....................       }else if(RX_Buffer[3]==0x07){//07 es Test de Componentes 
04326:  BRA    43F2
04328:  MOVF   33,W
0432A:  SUBLW  07
0432C:  BNZ   433E
....................          Menu=6; 
0432E:  MOVLW  06
04330:  MOVWF  x41
....................          if(MenuAntt!=Menu) 
04332:  MOVF   x41,W
04334:  SUBWF  x43,W
04336:  BZ    433C
....................             MenuAntt=Menu; 
04338:  MOVFF  341,343
....................       }else if(RX_Buffer[3]==0x08){//08 es Fecha y hora 
0433C:  BRA    43F2
0433E:  MOVF   33,W
04340:  SUBLW  08
04342:  BNZ   4354
....................          Menu=7; 
04344:  MOVLW  07
04346:  MOVWF  x41
....................          if(MenuAntt!=Menu) 
04348:  MOVF   x41,W
0434A:  SUBWF  x43,W
0434C:  BZ    4352
....................             MenuAntt=Menu; 
0434E:  MOVFF  341,343
....................       }else if(RX_Buffer[3]==0x09){//09 es Ciclos Personalizados 
04352:  BRA    43F2
04354:  MOVF   33,W
04356:  SUBLW  09
04358:  BNZ   436A
....................          Menu=8; 
0435A:  MOVLW  08
0435C:  MOVWF  x41
....................          if(MenuAntt!=Menu) 
0435E:  MOVF   x41,W
04360:  SUBWF  x43,W
04362:  BZ    4368
....................             MenuAntt=Menu; 
04364:  MOVFF  341,343
....................       }else if(RX_Buffer[3]==0x0a){//0a es Pulsos de Vacio 
04368:  BRA    43F2
0436A:  MOVF   33,W
0436C:  SUBLW  0A
0436E:  BNZ   4380
....................          Menu=9; 
04370:  MOVLW  09
04372:  MOVWF  x41
....................          if(MenuAntt!=Menu) 
04374:  MOVF   x41,W
04376:  SUBWF  x43,W
04378:  BZ    437E
....................             MenuAntt=Menu; 
0437A:  MOVFF  341,343
....................       }else if(RX_Buffer[3]==0x0f){//0f es Recibe caracteres de contrasea desde display 
0437E:  BRA    43F2
04380:  MOVF   33,W
04382:  SUBLW  0F
04384:  BNZ   4388
....................           
....................       }else if(RX_Buffer[3]==0x1a){//1a es Menu de Funcionamiento 
04386:  BRA    43F2
04388:  MOVF   33,W
0438A:  SUBLW  1A
0438C:  BNZ   439E
....................          Menu=20; 
0438E:  MOVLW  14
04390:  MOVWF  x41
....................          if(MenuAntt!=Menu) 
04392:  MOVF   x41,W
04394:  SUBWF  x43,W
04396:  BZ    439C
....................             MenuAntt=Menu; 
04398:  MOVFF  341,343
....................       }else if(RX_Buffer[3]==0x1b){//1b es Menu de clave correcta 
0439C:  BRA    43F2
0439E:  MOVF   33,W
043A0:  SUBLW  1B
043A2:  BNZ   43B4
....................          Menu=15; 
043A4:  MOVLW  0F
043A6:  MOVWF  x41
....................          if(MenuAntt!=Menu) 
043A8:  MOVF   x41,W
043AA:  SUBWF  x43,W
043AC:  BZ    43B2
....................             MenuAntt=Menu; 
043AE:  MOVFF  341,343
....................       }else if(RX_Buffer[3]==0x1c){//1c es Menu de clave incorrecta 
043B2:  BRA    43F2
043B4:  MOVF   33,W
043B6:  SUBLW  1C
043B8:  BNZ   43CA
....................          Menu=16; 
043BA:  MOVLW  10
043BC:  MOVWF  x41
....................          if(MenuAntt!=Menu) 
043BE:  MOVF   x41,W
043C0:  SUBWF  x43,W
043C2:  BZ    43C8
....................             MenuAntt=Menu; 
043C4:  MOVFF  341,343
....................       }else if(RX_Buffer[3]==0x2c){//2c es Menu de Configuracion de Parametros 
043C8:  BRA    43F2
043CA:  MOVF   33,W
043CC:  SUBLW  2C
043CE:  BNZ   43E0
....................          Menu=100; 
043D0:  MOVLW  64
043D2:  MOVWF  x41
....................          if(MenuAntt!=Menu) 
043D4:  MOVF   x41,W
043D6:  SUBWF  x43,W
043D8:  BZ    43DE
....................             MenuAntt=Menu; 
043DA:  MOVFF  341,343
....................       }else if(RX_Buffer[3]==0xcc){//cc es Menu de Bienvenida 
043DE:  BRA    43F2
043E0:  MOVF   33,W
043E2:  SUBLW  CC
043E4:  BNZ   43F2
....................          Menu=240; 
043E6:  MOVLW  F0
043E8:  MOVWF  x41
....................          if(MenuAntt!=240) 
043EA:  MOVF   x43,W
043EC:  SUBLW  F0
043EE:  BZ    43F2
....................             reset_cpu(); 
043F0:  RESET
....................       } 
....................    }else{ 
043F2:  BRA    4400
....................       for(z=0;z<RX_BUFFER_SIZE;z++){ 
043F4:  CLRF   x40
043F6:  MOVF   x40,W
043F8:  SUBLW  09
043FA:  BNC   4400
....................             //Rx_Buffer[z]=0; 
....................             //Rx_Buffer2[z]=0; 
....................          } 
043FC:  INCF   x40,F
043FE:  BRA    43F6
....................    } 
.................... } 
04400:  MOVLB  0
04402:  GOTO   6E1E (RETURN)
....................  
.................... void ConfiguraCiclo(int8 segest,minest,segsec,minsec,liquidos,ciclo,temperatura,pulsos,nvacio,fug){ 
....................    sEstp=segest; 
*
04F7C:  MOVFF  69E,BD
....................    mEstp=minest; 
04F80:  MOVFF  69F,BE
....................    sSecp=segsec; 
04F84:  MOVFF  6A0,BF
....................    mSecp=minsec; 
04F88:  MOVFF  6A1,C0
....................    Setpoint=temperatura;                
04F8C:  MOVFF  6A4,348
....................    tiempo_secado=0; 
04F90:  MOVLB  3
04F92:  CLRF   x4C
....................    desfoguelento=liquidos; 
04F94:  MOVLB  0
04F96:  BCF    xA6.5
04F98:  MOVLB  6
04F9A:  BTFSS  xA2.0
04F9C:  BRA    4FA4
04F9E:  MOVLB  0
04FA0:  BSF    xA6.5
04FA2:  MOVLB  6
....................    CicloSeleccionado=ciclo; 
04FA4:  MOVFF  6A3,347
....................    sEst=sEstp; 
04FA8:  MOVFF  BD,B9
....................    mEst=mEstp; 
04FAC:  MOVFF  BE,BA
....................    sSec=sSecp; 
04FB0:  MOVFF  BF,BB
....................    mSec=mSecp; 
04FB4:  MOVFF  C0,BC
....................    CantidadPulsos=pulsos; 
04FB8:  MOVFF  6A5,32A
....................    NivelVacio=nvacio; 
04FBC:  MOVFF  6A6,32B
....................    Fugas=fug; 
04FC0:  MOVLB  0
04FC2:  BCF    xA3.4
04FC4:  MOVLB  6
04FC6:  BTFSS  xA7.0
04FC8:  BRA    4FD0
04FCA:  MOVLB  0
04FCC:  BSF    xA3.4
04FCE:  MOVLB  6
....................    //TiempoVacio=CantidadPulsos*180; 
....................    Imprime=15; 
04FD0:  MOVLW  0F
04FD2:  MOVLB  3
04FD4:  MOVWF  x8D
....................    Envio_Esclavos(); 
04FD6:  MOVLB  0
04FD8:  CALL   4658
....................    delay_ms(100); 
04FDC:  MOVLW  64
04FDE:  MOVLB  6
04FE0:  MOVWF  xA8
04FE2:  MOVLB  0
04FE4:  CALL   1D14
....................    Imprime=10; 
04FE8:  MOVLW  0A
04FEA:  MOVLB  3
04FEC:  MOVWF  x8D
.................... } 
04FEE:  MOVLB  0
04FF0:  RETLW  00
....................  
.................... void ActivaAlarma(int8 Tipo){ 
....................     
....................    if(tsilencio>12000){ 
*
04D3E:  MOVLB  3
04D40:  MOVF   x7C,W
04D42:  SUBLW  2D
04D44:  BC    4D58
04D46:  XORLW  FF
04D48:  BNZ   4D50
04D4A:  MOVF   x7B,W
04D4C:  SUBLW  E0
04D4E:  BC    4D58
....................       tsilencio=0; 
04D50:  CLRF   x7C
04D52:  CLRF   x7B
....................       flagSilencio=OFF; 
04D54:  MOVLB  0
04D56:  BCF    xA2.7
....................    } 
....................     
....................    if(Tipo==1){ // Alarma por Error 
04D58:  MOVLB  6
04D5A:  DECFSZ x96,W
04D5C:  BRA    4DB4
....................    if(UP || DOWN || RIGHT || LEFT) 
04D5E:  BSF    F93.0
04D60:  BTFSS  F81.0
04D62:  BRA    4D76
04D64:  BSF    F93.1
04D66:  BTFSS  F81.1
04D68:  BRA    4D76
04D6A:  BSF    F93.2
04D6C:  BTFSS  F81.2
04D6E:  BRA    4D76
04D70:  BSF    F93.3
04D72:  BTFSC  F81.3
04D74:  BRA    4D7A
....................       flagSilencio=ON; 
04D76:  MOVLB  0
04D78:  BSF    xA2.7
....................        
....................       if(!flagSilencio){ 
04D7A:  MOVLB  0
04D7C:  BTFSC  xA2.7
04D7E:  BRA    4DAA
....................          flagAlarma=1; 
04D80:  BSF    xA2.5
....................          if(tbuzzer>200){ 
04D82:  MOVLB  3
04D84:  MOVF   x7A,F
04D86:  BNZ   4D8E
04D88:  MOVF   x79,W
04D8A:  SUBLW  C8
04D8C:  BC    4DA6
....................             tbuzzer=0; 
04D8E:  CLRF   x7A
04D90:  CLRF   x79
....................             flagBuzzer=!flagBuzzer; 
04D92:  MOVLB  0
04D94:  BTG    xA2.6
....................             if(flagBuzzer) 
04D96:  BTFSS  xA2.6
04D98:  BRA    4DA0
....................                Buzzer_on; 
04D9A:  BSF    F8C.7
04D9C:  BCF    F95.7
....................             else 
04D9E:  BRA    4DA4
....................                Buzzer_off; 
04DA0:  BCF    F8C.7
04DA2:  BCF    F95.7
04DA4:  MOVLB  3
....................          } 
....................       }else{ 
04DA6:  BRA    4DB0
04DA8:  MOVLB  0
....................          Buzzer_off; 
04DAA:  BCF    F8C.7
04DAC:  BCF    F95.7
04DAE:  MOVLB  3
....................       } 
....................    }else if(Tipo==2){ 
04DB0:  BRA    4E0E
04DB2:  MOVLB  6
04DB4:  MOVF   x96,W
04DB6:  SUBLW  02
04DB8:  BNZ   4E10
....................    if(UP || DOWN || RIGHT || LEFT) 
04DBA:  BSF    F93.0
04DBC:  BTFSS  F81.0
04DBE:  BRA    4DD2
04DC0:  BSF    F93.1
04DC2:  BTFSS  F81.1
04DC4:  BRA    4DD2
04DC6:  BSF    F93.2
04DC8:  BTFSS  F81.2
04DCA:  BRA    4DD2
04DCC:  BSF    F93.3
04DCE:  BTFSC  F81.3
04DD0:  BRA    4DD8
....................       ConteoBuzzer=21; 
04DD2:  MOVLW  15
04DD4:  MOVLB  3
04DD6:  MOVWF  x75
....................        
....................       flagAlarma=1; 
04DD8:  MOVLB  0
04DDA:  BSF    xA2.5
....................       if(ConteoBuzzer<20){    
04DDC:  MOVLB  3
04DDE:  MOVF   x75,W
04DE0:  SUBLW  13
04DE2:  BNC   4E0A
....................          if(tbuzzer>100){ 
04DE4:  MOVF   x7A,F
04DE6:  BNZ   4DEE
04DE8:  MOVF   x79,W
04DEA:  SUBLW  64
04DEC:  BC    4E08
....................             tbuzzer=0; 
04DEE:  CLRF   x7A
04DF0:  CLRF   x79
....................             flagBuzzer=!flagBuzzer; 
04DF2:  MOVLB  0
04DF4:  BTG    xA2.6
....................             if(flagBuzzer) 
04DF6:  BTFSS  xA2.6
04DF8:  BRA    4E00
....................                Buzzer_on; 
04DFA:  BSF    F8C.7
04DFC:  BCF    F95.7
....................             else 
04DFE:  BRA    4E04
....................                Buzzer_off; 
04E00:  BCF    F8C.7
04E02:  BCF    F95.7
....................                 
....................             ConteoBuzzer++;    
04E04:  MOVLB  3
04E06:  INCF   x75,F
....................          } 
....................       }else{ 
04E08:  BRA    4E0E
....................          Buzzer_off; 
04E0A:  BCF    F8C.7
04E0C:  BCF    F95.7
04E0E:  MOVLB  6
....................       } 
....................    } 
.................... } 
04E10:  MOVLB  0
04E12:  RETLW  00
....................  
.................... void ControlaPresion(){ 
....................    if(PresionPreCamara<180){ 
*
05DCC:  MOVLB  3
05DCE:  MOVF   x60,F
05DD0:  BNZ   5DDE
05DD2:  MOVF   x5F,W
05DD4:  SUBLW  B3
05DD6:  BNC   5DDE
....................       SSR_on; 
05DD8:  BSF    F8D.1
05DDA:  BCF    F96.1
....................    }else if(PresionPreCamara>190){ 
05DDC:  BRA    5E16
05DDE:  MOVF   x60,F
05DE0:  BNZ   5DE8
05DE2:  MOVF   x5F,W
05DE4:  SUBLW  BE
05DE6:  BC    5E16
....................       SSR_off; 
05DE8:  BCF    F8D.1
05DEA:  BCF    F96.1
....................       if(!Precalentamiento){ 
05DEC:  MOVLB  0
05DEE:  BTFSC  xA3.7
05DF0:  BRA    5E14
....................          Precalentamiento=ON; 
05DF2:  BSF    xA3.7
....................          Paso_on; 
05DF4:  BCF    F8B.0
05DF6:  BCF    F94.0
....................          delay_ms(1500); 
05DF8:  MOVLW  06
05DFA:  MOVLB  6
05DFC:  MOVWF  x96
05DFE:  MOVLW  FA
05E00:  MOVWF  xA8
05E02:  MOVLB  0
05E04:  CALL   1D14
05E08:  MOVLB  6
05E0A:  DECFSZ x96,F
05E0C:  BRA    5DFE
....................          Paso_off; 
05E0E:  BSF    F8B.0
05E10:  BCF    F94.0
05E12:  MOVLB  0
05E14:  MOVLB  3
....................       } 
....................    } 
.................... } 
05E16:  MOVLB  0
05E18:  RETLW  00
....................  
.................... void ApagaSalidas(){ 
....................    Desfogue_off; 
*
03822:  BSF    F8B.1
03824:  BCF    F94.1
....................    Agua_off; 
03826:  BSF    F8C.3
03828:  BCF    F95.3
....................    Buzzer_off; 
0382A:  BCF    F8C.7
0382C:  BCF    F95.7
....................    SSR_off; 
0382E:  BCF    F8D.1
03830:  BCF    F96.1
....................    EV8_off; 
03832:  BSF    F8C.2
03834:  BCF    F95.2
....................    Agua_off; 
03836:  BSF    F8C.3
03838:  BCF    F95.3
....................    Paso_off; 
0383A:  BSF    F8B.0
0383C:  BCF    F94.0
....................    SSR2_off; 
0383E:  BCF    F8D.2
03840:  BCF    F96.2
....................    Aire_off; 
03842:  BSF    F8C.0
03844:  BCF    F95.0
....................    AireB_off; 
03846:  BSF    F8C.1
03848:  BCF    F95.1
....................    Controlando=0; 
0384A:  MOVLB  3
0384C:  CLRF   x39
.................... } 
0384E:  MOVLB  0
03850:  RETLW  00
....................  
.................... void purgaAire(){ 
....................    if(!purga){ 
....................       for(i=0;i<4;i++){ 
....................          Desfogue_on; 
....................          delay_ms(2000); 
....................          Desfogue_off; 
....................          delay_ms(1000); 
....................       } 
....................       purga=ON; 
....................    } 
.................... } 
....................  
.................... void GuardaDatoEstatico(){ 
*
056E4:  MOVLB  6
056E6:  CLRF   x97
056E8:  CLRF   x96
056EA:  CLRF   x99
056EC:  CLRF   x98
....................    int16 posCiclo=0,cicloMemoria=0; 
....................    posCiclo=Ciclos/200; 
056EE:  MOVFF  362,69B
056F2:  MOVFF  361,69A
056F6:  CLRF   x9D
056F8:  MOVLW  C8
056FA:  MOVWF  x9C
056FC:  MOVLB  0
056FE:  RCALL  53C0
05700:  MOVFF  02,697
05704:  MOVFF  01,696
....................    cicloMemoria=Ciclos-(posCiclo*200); 
05708:  MOVFF  697,6A1
0570C:  MOVFF  696,6A0
05710:  MOVLB  6
05712:  CLRF   xA3
05714:  MOVLW  C8
05716:  MOVWF  xA2
05718:  MOVLB  0
0571A:  CALL   3852
0571E:  MOVF   01,W
05720:  MOVLB  3
05722:  SUBWF  x61,W
05724:  MOVLB  6
05726:  MOVWF  x98
05728:  MOVF   02,W
0572A:  MOVLB  3
0572C:  SUBWFB x62,W
0572E:  MOVLB  6
05730:  MOVWF  x99
....................    if(!disp_Guarda){ 
05732:  MOVLB  0
05734:  BTFSC  xA3.5
05736:  BRA    58D0
....................       write_ext_eeprom(cicloMemoria*320,1); 
05738:  MOVFF  699,6A1
0573C:  MOVFF  698,6A0
05740:  MOVLW  01
05742:  MOVLB  6
05744:  MOVWF  xA3
05746:  MOVLW  40
05748:  MOVWF  xA2
0574A:  MOVLB  0
0574C:  CALL   3852
05750:  MOVFF  02,69B
05754:  MOVFF  01,69A
05758:  MOVFF  02,69E
0575C:  MOVFF  01,69D
05760:  MOVLW  01
05762:  MOVLB  6
05764:  MOVWF  x9F
05766:  MOVLB  0
05768:  RCALL  55D8
....................       delay_ms(10); 
0576A:  MOVLW  0A
0576C:  MOVLB  6
0576E:  MOVWF  xA8
05770:  MOVLB  0
05772:  CALL   1D14
....................       if(!Libre) 
05776:  BTFSC  xA3.2
05778:  BRA    57B4
....................          write_ext_eeprom(1+(cicloMemoria*320),CicloSeleccionado); 
0577A:  MOVFF  699,6A1
0577E:  MOVFF  698,6A0
05782:  MOVLW  01
05784:  MOVLB  6
05786:  MOVWF  xA3
05788:  MOVLW  40
0578A:  MOVWF  xA2
0578C:  MOVLB  0
0578E:  CALL   3852
05792:  MOVFF  02,03
05796:  MOVF   01,W
05798:  ADDLW  01
0579A:  MOVLB  6
0579C:  MOVWF  x9A
0579E:  MOVLW  00
057A0:  ADDWFC 02,W
057A2:  MOVWF  x9B
057A4:  MOVWF  x9E
057A6:  MOVFF  69A,69D
057AA:  MOVFF  347,69F
057AE:  MOVLB  0
057B0:  RCALL  55D8
....................       else 
057B2:  BRA    57F6
....................          write_ext_eeprom(1+(cicloMemoria*320),CicloLibre+10); 
057B4:  MOVFF  699,6A1
057B8:  MOVFF  698,6A0
057BC:  MOVLW  01
057BE:  MOVLB  6
057C0:  MOVWF  xA3
057C2:  MOVLW  40
057C4:  MOVWF  xA2
057C6:  MOVLB  0
057C8:  CALL   3852
057CC:  MOVFF  02,03
057D0:  MOVF   01,W
057D2:  ADDLW  01
057D4:  MOVLB  6
057D6:  MOVWF  x9A
057D8:  MOVLW  00
057DA:  ADDWFC 02,W
057DC:  MOVWF  x9B
057DE:  MOVLW  0A
057E0:  MOVLB  3
057E2:  ADDWF  x29,W
057E4:  MOVLB  6
057E6:  MOVWF  x9C
057E8:  MOVFF  69B,69E
057EC:  MOVFF  69A,69D
057F0:  MOVWF  x9F
057F2:  MOVLB  0
057F4:  RCALL  55D8
....................       delay_ms(10); 
057F6:  MOVLW  0A
057F8:  MOVLB  6
057FA:  MOVWF  xA8
057FC:  MOVLB  0
057FE:  CALL   1D14
....................       write_ext_eeprom(2+(cicloMemoria*320),Dia); 
05802:  MOVFF  699,6A1
05806:  MOVFF  698,6A0
0580A:  MOVLW  01
0580C:  MOVLB  6
0580E:  MOVWF  xA3
05810:  MOVLW  40
05812:  MOVWF  xA2
05814:  MOVLB  0
05816:  CALL   3852
0581A:  MOVFF  02,03
0581E:  MOVF   01,W
05820:  ADDLW  02
05822:  MOVLB  6
05824:  MOVWF  x9A
05826:  MOVLW  00
05828:  ADDWFC 02,W
0582A:  MOVWF  x9B
0582C:  MOVWF  x9E
0582E:  MOVFF  69A,69D
05832:  MOVFF  381,69F
05836:  MOVLB  0
05838:  RCALL  55D8
....................       delay_ms(10); 
0583A:  MOVLW  0A
0583C:  MOVLB  6
0583E:  MOVWF  xA8
05840:  MOVLB  0
05842:  CALL   1D14
....................       write_ext_eeprom(3+(cicloMemoria*320),Mes); 
05846:  MOVFF  699,6A1
0584A:  MOVFF  698,6A0
0584E:  MOVLW  01
05850:  MOVLB  6
05852:  MOVWF  xA3
05854:  MOVLW  40
05856:  MOVWF  xA2
05858:  MOVLB  0
0585A:  CALL   3852
0585E:  MOVFF  02,03
05862:  MOVF   01,W
05864:  ADDLW  03
05866:  MOVLB  6
05868:  MOVWF  x9A
0586A:  MOVLW  00
0586C:  ADDWFC 02,W
0586E:  MOVWF  x9B
05870:  MOVWF  x9E
05872:  MOVFF  69A,69D
05876:  MOVFF  380,69F
0587A:  MOVLB  0
0587C:  RCALL  55D8
....................       delay_ms(10); 
0587E:  MOVLW  0A
05880:  MOVLB  6
05882:  MOVWF  xA8
05884:  MOVLB  0
05886:  CALL   1D14
....................       write_ext_eeprom(4+(cicloMemoria*320),Year); 
0588A:  MOVFF  699,6A1
0588E:  MOVFF  698,6A0
05892:  MOVLW  01
05894:  MOVLB  6
05896:  MOVWF  xA3
05898:  MOVLW  40
0589A:  MOVWF  xA2
0589C:  MOVLB  0
0589E:  CALL   3852
058A2:  MOVFF  02,03
058A6:  MOVF   01,W
058A8:  ADDLW  04
058AA:  MOVLB  6
058AC:  MOVWF  x9A
058AE:  MOVLW  00
058B0:  ADDWFC 02,W
058B2:  MOVWF  x9B
058B4:  MOVWF  x9E
058B6:  MOVFF  69A,69D
058BA:  MOVFF  37F,69F
058BE:  MOVLB  0
058C0:  RCALL  55D8
....................       delay_ms(10);  
058C2:  MOVLW  0A
058C4:  MOVLB  6
058C6:  MOVWF  xA8
058C8:  MOVLB  0
058CA:  CALL   1D14
....................       disp_Guarda=1; 
058CE:  BSF    xA3.5
....................    }    
.................... } 
058D0:  GOTO   A628 (RETURN)
....................  
.................... void GuardaDatoCiclo(){ 
*
0599E:  MOVLB  6
059A0:  CLRF   x97
059A2:  CLRF   x96
059A4:  CLRF   x99
059A6:  CLRF   x98
....................    int16 posCiclo=0,cicloMemoria=0; 
....................    posCiclo=Ciclos/200; 
059A8:  MOVFF  362,69B
059AC:  MOVFF  361,69A
059B0:  CLRF   x9D
059B2:  MOVLW  C8
059B4:  MOVWF  x9C
059B6:  MOVLB  0
059B8:  RCALL  53C0
059BA:  MOVFF  02,697
059BE:  MOVFF  01,696
....................    if(!Ciclo){ 
059C2:  BTFSC  xA1.5
059C4:  BRA    5D3C
....................       cicloMemoria=Ciclos-(posCiclo*200); 
059C6:  MOVFF  697,6A1
059CA:  MOVFF  696,6A0
059CE:  MOVLB  6
059D0:  CLRF   xA3
059D2:  MOVLW  C8
059D4:  MOVWF  xA2
059D6:  MOVLB  0
059D8:  CALL   3852
059DC:  MOVF   01,W
059DE:  MOVLB  3
059E0:  SUBWF  x61,W
059E2:  MOVLB  6
059E4:  MOVWF  x98
059E6:  MOVF   02,W
059E8:  MOVLB  3
059EA:  SUBWFB x62,W
059EC:  MOVLB  6
059EE:  MOVWF  x99
....................       write_ext_eeprom(5+(cicloMemoria*320)+(posicionDato*9),(int8)Temperatura); 
059F0:  MOVFF  699,6A1
059F4:  MOVFF  698,6A0
059F8:  MOVLW  01
059FA:  MOVWF  xA3
059FC:  MOVLW  40
059FE:  MOVWF  xA2
05A00:  MOVLB  0
05A02:  CALL   3852
05A06:  MOVFF  02,03
05A0A:  MOVF   01,W
05A0C:  ADDLW  05
05A0E:  MOVLB  6
05A10:  MOVWF  x9A
05A12:  MOVLW  00
05A14:  ADDWFC 02,W
05A16:  MOVWF  x9B
05A18:  MOVLB  3
05A1A:  MOVF   x2D,W
05A1C:  MULLW  09
05A1E:  MOVF   FF3,W
05A20:  MOVLB  6
05A22:  ADDWF  x9A,F
05A24:  MOVLW  00
05A26:  ADDWFC x9B,F
05A28:  MOVFF  312,6AB
05A2C:  MOVFF  311,6AA
05A30:  MOVFF  310,6A9
05A34:  MOVFF  30F,6A8
05A38:  MOVLB  0
05A3A:  CALL   4406
05A3E:  MOVFF  01,69C
05A42:  MOVFF  69B,69E
05A46:  MOVFF  69A,69D
05A4A:  MOVFF  01,69F
05A4E:  RCALL  55D8
....................       delay_ms(10); 
05A50:  MOVLW  0A
05A52:  MOVLB  6
05A54:  MOVWF  xA8
05A56:  MOVLB  0
05A58:  CALL   1D14
....................       write_ext_eeprom(6+(cicloMemoria*320)+(posicionDato*9),extraeDecimal(Temperatura)); 
05A5C:  MOVFF  699,6A1
05A60:  MOVFF  698,6A0
05A64:  MOVLW  01
05A66:  MOVLB  6
05A68:  MOVWF  xA3
05A6A:  MOVLW  40
05A6C:  MOVWF  xA2
05A6E:  MOVLB  0
05A70:  CALL   3852
05A74:  MOVFF  02,03
05A78:  MOVF   01,W
05A7A:  ADDLW  06
05A7C:  MOVLB  6
05A7E:  MOVWF  x9A
05A80:  MOVLW  00
05A82:  ADDWFC 02,W
05A84:  MOVWF  x9B
05A86:  MOVLB  3
05A88:  MOVF   x2D,W
05A8A:  MULLW  09
05A8C:  MOVF   FF3,W
05A8E:  MOVLB  6
05A90:  ADDWF  x9A,F
05A92:  MOVLW  00
05A94:  ADDWFC x9B,F
05A96:  MOVFF  312,69F
05A9A:  MOVFF  311,69E
05A9E:  MOVFF  310,69D
05AA2:  MOVFF  30F,69C
05AA6:  MOVLB  0
05AA8:  BRA    58D4
05AAA:  MOVFF  01,69C
05AAE:  MOVFF  69B,69E
05AB2:  MOVFF  69A,69D
05AB6:  MOVFF  01,69F
05ABA:  RCALL  55D8
....................       delay_ms(10); 
05ABC:  MOVLW  0A
05ABE:  MOVLB  6
05AC0:  MOVWF  xA8
05AC2:  MOVLB  0
05AC4:  CALL   1D14
....................       write_ext_eeprom(7+(cicloMemoria*320)+(posicionDato*9),make8(PresionCamara,1)); 
05AC8:  MOVFF  699,6A1
05ACC:  MOVFF  698,6A0
05AD0:  MOVLW  01
05AD2:  MOVLB  6
05AD4:  MOVWF  xA3
05AD6:  MOVLW  40
05AD8:  MOVWF  xA2
05ADA:  MOVLB  0
05ADC:  CALL   3852
05AE0:  MOVFF  02,03
05AE4:  MOVF   01,W
05AE6:  ADDLW  07
05AE8:  MOVLB  6
05AEA:  MOVWF  x9A
05AEC:  MOVLW  00
05AEE:  ADDWFC 02,W
05AF0:  MOVWF  x9B
05AF2:  MOVLB  3
05AF4:  MOVF   x2D,W
05AF6:  MULLW  09
05AF8:  MOVF   FF3,W
05AFA:  MOVLB  6
05AFC:  ADDWF  x9A,F
05AFE:  MOVLW  00
05B00:  ADDWFC x9B,F
05B02:  MOVFF  35E,69C
05B06:  MOVFF  69B,69E
05B0A:  MOVFF  69A,69D
05B0E:  MOVFF  35E,69F
05B12:  MOVLB  0
05B14:  RCALL  55D8
....................       delay_ms(10); 
05B16:  MOVLW  0A
05B18:  MOVLB  6
05B1A:  MOVWF  xA8
05B1C:  MOVLB  0
05B1E:  CALL   1D14
....................       write_ext_eeprom(8+(cicloMemoria*320)+(posicionDato*9),make8(PresionCamara,0)); 
05B22:  MOVFF  699,6A1
05B26:  MOVFF  698,6A0
05B2A:  MOVLW  01
05B2C:  MOVLB  6
05B2E:  MOVWF  xA3
05B30:  MOVLW  40
05B32:  MOVWF  xA2
05B34:  MOVLB  0
05B36:  CALL   3852
05B3A:  MOVFF  02,03
05B3E:  MOVF   01,W
05B40:  ADDLW  08
05B42:  MOVLB  6
05B44:  MOVWF  x9A
05B46:  MOVLW  00
05B48:  ADDWFC 02,W
05B4A:  MOVWF  x9B
05B4C:  MOVLB  3
05B4E:  MOVF   x2D,W
05B50:  MULLW  09
05B52:  MOVF   FF3,W
05B54:  MOVLB  6
05B56:  ADDWF  x9A,F
05B58:  MOVLW  00
05B5A:  ADDWFC x9B,F
05B5C:  MOVFF  35D,69C
05B60:  MOVFF  69B,69E
05B64:  MOVFF  69A,69D
05B68:  MOVFF  35D,69F
05B6C:  MOVLB  0
05B6E:  RCALL  55D8
....................       delay_ms(10); 
05B70:  MOVLW  0A
05B72:  MOVLB  6
05B74:  MOVWF  xA8
05B76:  MOVLB  0
05B78:  CALL   1D14
....................       write_ext_eeprom(9+(cicloMemoria*320)+(posicionDato*9),make8(PresionPreCamara,1)); 
05B7C:  MOVFF  699,6A1
05B80:  MOVFF  698,6A0
05B84:  MOVLW  01
05B86:  MOVLB  6
05B88:  MOVWF  xA3
05B8A:  MOVLW  40
05B8C:  MOVWF  xA2
05B8E:  MOVLB  0
05B90:  CALL   3852
05B94:  MOVFF  02,03
05B98:  MOVF   01,W
05B9A:  ADDLW  09
05B9C:  MOVLB  6
05B9E:  MOVWF  x9A
05BA0:  MOVLW  00
05BA2:  ADDWFC 02,W
05BA4:  MOVWF  x9B
05BA6:  MOVLB  3
05BA8:  MOVF   x2D,W
05BAA:  MULLW  09
05BAC:  MOVF   FF3,W
05BAE:  MOVLB  6
05BB0:  ADDWF  x9A,F
05BB2:  MOVLW  00
05BB4:  ADDWFC x9B,F
05BB6:  MOVFF  360,69C
05BBA:  MOVFF  69B,69E
05BBE:  MOVFF  69A,69D
05BC2:  MOVFF  360,69F
05BC6:  MOVLB  0
05BC8:  RCALL  55D8
....................       delay_ms(10); 
05BCA:  MOVLW  0A
05BCC:  MOVLB  6
05BCE:  MOVWF  xA8
05BD0:  MOVLB  0
05BD2:  CALL   1D14
....................       write_ext_eeprom(10+(cicloMemoria*320)+(posicionDato*9),make8(PresionPreCamara,0)); 
05BD6:  MOVFF  699,6A1
05BDA:  MOVFF  698,6A0
05BDE:  MOVLW  01
05BE0:  MOVLB  6
05BE2:  MOVWF  xA3
05BE4:  MOVLW  40
05BE6:  MOVWF  xA2
05BE8:  MOVLB  0
05BEA:  CALL   3852
05BEE:  MOVFF  02,03
05BF2:  MOVF   01,W
05BF4:  ADDLW  0A
05BF6:  MOVLB  6
05BF8:  MOVWF  x9A
05BFA:  MOVLW  00
05BFC:  ADDWFC 02,W
05BFE:  MOVWF  x9B
05C00:  MOVLB  3
05C02:  MOVF   x2D,W
05C04:  MULLW  09
05C06:  MOVF   FF3,W
05C08:  MOVLB  6
05C0A:  ADDWF  x9A,F
05C0C:  MOVLW  00
05C0E:  ADDWFC x9B,F
05C10:  MOVFF  35F,69C
05C14:  MOVFF  69B,69E
05C18:  MOVFF  69A,69D
05C1C:  MOVFF  35F,69F
05C20:  MOVLB  0
05C22:  RCALL  55D8
....................       delay_ms(10); 
05C24:  MOVLW  0A
05C26:  MOVLB  6
05C28:  MOVWF  xA8
05C2A:  MOVLB  0
05C2C:  CALL   1D14
....................       write_ext_eeprom(11+(cicloMemoria*320)+(posicionDato*9),Hora); 
05C30:  MOVFF  699,6A1
05C34:  MOVFF  698,6A0
05C38:  MOVLW  01
05C3A:  MOVLB  6
05C3C:  MOVWF  xA3
05C3E:  MOVLW  40
05C40:  MOVWF  xA2
05C42:  MOVLB  0
05C44:  CALL   3852
05C48:  MOVFF  02,03
05C4C:  MOVF   01,W
05C4E:  ADDLW  0B
05C50:  MOVLB  6
05C52:  MOVWF  x9A
05C54:  MOVLW  00
05C56:  ADDWFC 02,W
05C58:  MOVWF  x9B
05C5A:  MOVLB  3
05C5C:  MOVF   x2D,W
05C5E:  MULLW  09
05C60:  MOVF   FF3,W
05C62:  MOVLB  6
05C64:  ADDWF  x9A,F
05C66:  MOVLW  00
05C68:  ADDWFC x9B,F
05C6A:  MOVFF  69B,69E
05C6E:  MOVFF  69A,69D
05C72:  MOVFF  382,69F
05C76:  MOVLB  0
05C78:  RCALL  55D8
....................       delay_ms(10); 
05C7A:  MOVLW  0A
05C7C:  MOVLB  6
05C7E:  MOVWF  xA8
05C80:  MOVLB  0
05C82:  CALL   1D14
....................       write_ext_eeprom(12+(cicloMemoria*320)+(posicionDato*9),Minuto); 
05C86:  MOVFF  699,6A1
05C8A:  MOVFF  698,6A0
05C8E:  MOVLW  01
05C90:  MOVLB  6
05C92:  MOVWF  xA3
05C94:  MOVLW  40
05C96:  MOVWF  xA2
05C98:  MOVLB  0
05C9A:  CALL   3852
05C9E:  MOVFF  02,03
05CA2:  MOVF   01,W
05CA4:  ADDLW  0C
05CA6:  MOVLB  6
05CA8:  MOVWF  x9A
05CAA:  MOVLW  00
05CAC:  ADDWFC 02,W
05CAE:  MOVWF  x9B
05CB0:  MOVLB  3
05CB2:  MOVF   x2D,W
05CB4:  MULLW  09
05CB6:  MOVF   FF3,W
05CB8:  MOVLB  6
05CBA:  ADDWF  x9A,F
05CBC:  MOVLW  00
05CBE:  ADDWFC x9B,F
05CC0:  MOVFF  69B,69E
05CC4:  MOVFF  69A,69D
05CC8:  MOVFF  383,69F
05CCC:  MOVLB  0
05CCE:  RCALL  55D8
....................       delay_ms(10); 
05CD0:  MOVLW  0A
05CD2:  MOVLB  6
05CD4:  MOVWF  xA8
05CD6:  MOVLB  0
05CD8:  CALL   1D14
....................       write_ext_eeprom(13+(cicloMemoria*320)+(posicionDato*9),codigoAlarma); 
05CDC:  MOVFF  699,6A1
05CE0:  MOVFF  698,6A0
05CE4:  MOVLW  01
05CE6:  MOVLB  6
05CE8:  MOVWF  xA3
05CEA:  MOVLW  40
05CEC:  MOVWF  xA2
05CEE:  MOVLB  0
05CF0:  CALL   3852
05CF4:  MOVFF  02,03
05CF8:  MOVF   01,W
05CFA:  ADDLW  0D
05CFC:  MOVLB  6
05CFE:  MOVWF  x9A
05D00:  MOVLW  00
05D02:  ADDWFC 02,W
05D04:  MOVWF  x9B
05D06:  MOVLB  3
05D08:  MOVF   x2D,W
05D0A:  MULLW  09
05D0C:  MOVF   FF3,W
05D0E:  MOVLB  6
05D10:  ADDWF  x9A,F
05D12:  MOVLW  00
05D14:  ADDWFC x9B,F
05D16:  MOVFF  69B,69E
05D1A:  MOVFF  69A,69D
05D1E:  MOVFF  32E,69F
05D22:  MOVLB  0
05D24:  RCALL  55D8
....................       delay_ms(10); 
05D26:  MOVLW  0A
05D28:  MOVLB  6
05D2A:  MOVWF  xA8
05D2C:  MOVLB  0
05D2E:  CALL   1D14
....................     
....................       if(posicionDato<35) 
05D32:  MOVLB  3
05D34:  MOVF   x2D,W
05D36:  SUBLW  22
05D38:  BNC   5D3C
....................          ++posicionDato; 
05D3A:  INCF   x2D,F
05D3C:  MOVLB  0
....................    } 
.................... } 
05D3E:  RETLW  00
....................  
.................... void incrementaCiclos(){ 
....................    if(!Ciclo){ 
05D40:  BTFSC  xA1.5
05D42:  BRA    5DCA
....................       Ciclo=ON; 
05D44:  BSF    xA1.5
....................       Ciclos++; 
05D46:  MOVLB  3
05D48:  INCF   x61,F
05D4A:  BTFSC  FD8.2
05D4C:  INCF   x62,F
....................       CiclosL=make8(Ciclos,0); 
05D4E:  MOVFF  361,345
....................       CiclosH=make8(Ciclos,1); 
05D52:  MOVFF  362,346
....................       write_eeprom(37,CiclosL); 
05D56:  CLRF   FAA
05D58:  MOVLW  25
05D5A:  MOVWF  FA9
05D5C:  MOVFF  345,FA8
05D60:  BCF    FA6.6
05D62:  BCF    FA6.7
05D64:  BSF    FA6.2
05D66:  MOVF   FF2,W
05D68:  MOVWF  00
05D6A:  BCF    FF2.6
05D6C:  BCF    FF2.7
05D6E:  MOVLB  F
05D70:  MOVLW  55
05D72:  MOVWF  FA7
05D74:  MOVLW  AA
05D76:  MOVWF  FA7
05D78:  BSF    FA6.1
05D7A:  BTFSC  FA6.1
05D7C:  BRA    5D7A
05D7E:  BCF    FA6.2
05D80:  MOVF   00,W
05D82:  IORWF  FF2,F
....................       delay_ms(20); 
05D84:  MOVLW  14
05D86:  MOVLB  6
05D88:  MOVWF  xA8
05D8A:  MOVLB  0
05D8C:  CALL   1D14
....................       write_eeprom(38,CiclosH); 
05D90:  CLRF   FAA
05D92:  MOVLW  26
05D94:  MOVWF  FA9
05D96:  MOVFF  346,FA8
05D9A:  BCF    FA6.6
05D9C:  BCF    FA6.7
05D9E:  BSF    FA6.2
05DA0:  MOVF   FF2,W
05DA2:  MOVWF  00
05DA4:  BCF    FF2.6
05DA6:  BCF    FF2.7
05DA8:  MOVLB  F
05DAA:  MOVLW  55
05DAC:  MOVWF  FA7
05DAE:  MOVLW  AA
05DB0:  MOVWF  FA7
05DB2:  BSF    FA6.1
05DB4:  BTFSC  FA6.1
05DB6:  BRA    5DB4
05DB8:  BCF    FA6.2
05DBA:  MOVF   00,W
05DBC:  IORWF  FF2,F
....................       delay_ms(20); 
05DBE:  MOVLW  14
05DC0:  MOVLB  6
05DC2:  MOVWF  xA8
05DC4:  MOVLB  0
05DC6:  CALL   1D14
....................    } 
.................... } 
05DCA:  RETLW  00
....................  
.................... void graficaCurva(int16 tGrafica){ 
....................    if(tiempos2>=tGrafica){ 
*
04698:  MOVLB  6
0469A:  MOVF   x97,W
0469C:  MOVLB  3
0469E:  SUBWF  x54,W
046A0:  BNC   46B8
046A2:  BNZ   46AE
046A4:  MOVLB  6
046A6:  MOVF   x96,W
046A8:  MOVLB  3
046AA:  SUBWF  x53,W
046AC:  BNC   46B8
....................       Grafica=1; 
046AE:  MOVLB  0
046B0:  BSF    xA6.7
....................       tiempos2=0; 
046B2:  MOVLB  3
046B4:  CLRF   x54
046B6:  CLRF   x53
....................    } 
.................... } 
046B8:  MOVLB  0
046BA:  GOTO   6E58 (RETURN)
....................  
.................... void muestreo(int16 tmuestreo){ 
....................    if(tiempos3>=tmuestreo){ 
*
04AF0:  MOVLB  6
04AF2:  MOVF   x97,W
04AF4:  MOVLB  3
04AF6:  SUBWF  x56,W
04AF8:  BTFSS  FD8.0
04AFA:  BRA    4CD8
04AFC:  BNZ   4B0A
04AFE:  MOVLB  6
04B00:  MOVF   x96,W
04B02:  MOVLB  3
04B04:  SUBWF  x55,W
04B06:  BTFSS  FD8.0
04B08:  BRA    4CD8
....................       Temperatura=LeerPt100(0,MediaMovil); 
04B0A:  MOVLB  6
04B0C:  CLRF   x98
04B0E:  MOVFF  2C9,699
04B12:  MOVLB  0
04B14:  CALL   39C2
04B18:  MOVFF  03,312
04B1C:  MOVFF  02,311
04B20:  MOVFF  01,310
04B24:  MOVFF  00,30F
....................       Temperatura2=LeerPt100(1,MediaMovil); 
04B28:  MOVLW  01
04B2A:  MOVLB  6
04B2C:  MOVWF  x98
04B2E:  MOVFF  2C9,699
04B32:  MOVLB  0
04B34:  CALL   39C2
04B38:  MOVFF  03,316
04B3C:  MOVFF  02,315
04B40:  MOVFF  01,314
04B44:  MOVFF  00,313
....................       PresionCamara=Leer_Sensor_Presion_Camara(5); 
04B48:  MOVLW  05
04B4A:  MOVLB  6
04B4C:  MOVWF  x98
04B4E:  MOVLB  0
04B50:  BRA    46BE
04B52:  MOVFF  03,6AB
04B56:  MOVFF  02,6AA
04B5A:  MOVFF  01,6A9
04B5E:  MOVFF  00,6A8
04B62:  RCALL  4406
04B64:  MOVFF  02,35E
04B68:  MOVFF  01,35D
....................       PresionPreCamara=Leer_Sensor_Presion_PreCamara(5); 
04B6C:  MOVLW  05
04B6E:  MOVLB  6
04B70:  MOVWF  x98
04B72:  MOVLB  0
04B74:  BRA    48BE
04B76:  MOVFF  03,6AB
04B7A:  MOVFF  02,6AA
04B7E:  MOVFF  01,6A9
04B82:  MOVFF  00,6A8
04B86:  RCALL  4406
04B88:  MOVFF  02,360
04B8C:  MOVFF  01,35F
....................       rtc_get_date(Dia,Mes,Year,dow); 
....................       rtc_get_time(Hora,Minuto,Segundo); 
....................       if(sensores(2)<512) 
*
04C46:  MOVLW  02
04C48:  MOVLB  6
04C4A:  MOVWF  x9C
04C4C:  MOVLB  0
04C4E:  CALL   3874
04C52:  MOVFF  00,698
04C56:  MOVFF  01,699
04C5A:  MOVFF  02,69A
04C5E:  MOVFF  03,69B
04C62:  MOVFF  03,69F
04C66:  MOVFF  02,69E
04C6A:  MOVFF  01,69D
04C6E:  MOVFF  00,69C
04C72:  MOVLB  6
04C74:  CLRF   xA3
04C76:  CLRF   xA2
04C78:  CLRF   xA1
04C7A:  MOVLW  88
04C7C:  MOVWF  xA0
04C7E:  MOVLB  0
04C80:  CALL   2EBE
04C84:  BNC   4C8A
....................          LOW=ON; 
04C86:  BSF    xA5.5
....................       else 
04C88:  BRA    4C8C
....................          LOW=OFF; 
04C8A:  BCF    xA5.5
....................        
....................       if(sensores(3)<512)//3 
04C8C:  MOVLW  03
04C8E:  MOVLB  6
04C90:  MOVWF  x9C
04C92:  MOVLB  0
04C94:  CALL   3874
04C98:  MOVFF  00,698
04C9C:  MOVFF  01,699
04CA0:  MOVFF  02,69A
04CA4:  MOVFF  03,69B
04CA8:  MOVFF  03,69F
04CAC:  MOVFF  02,69E
04CB0:  MOVFF  01,69D
04CB4:  MOVFF  00,69C
04CB8:  MOVLB  6
04CBA:  CLRF   xA3
04CBC:  CLRF   xA2
04CBE:  CLRF   xA1
04CC0:  MOVLW  88
04CC2:  MOVWF  xA0
04CC4:  MOVLB  0
04CC6:  CALL   2EBE
04CCA:  BNC   4CD0
....................          HIG=ON; 
04CCC:  BSF    xA5.6
....................       else 
04CCE:  BRA    4CD2
....................          HIG=OFF; 
04CD0:  BCF    xA5.6
....................       tiempos3=0; 
04CD2:  MOVLB  3
04CD4:  CLRF   x56
04CD6:  CLRF   x55
....................    } 
.................... } 
04CD8:  MOVLB  0
04CDA:  GOTO   6E66 (RETURN)
....................  
.................... void monitoreaAgua(){ 
....................    if(!LOW){//Si no sensa agua en el nivel alto y no se ha llenado el calderin          
04CDE:  BTFSC  xA5.5
04CE0:  BRA    4CEC
....................       SensadoNivelL=ON;  
04CE2:  BSF    xA5.7
....................       Controlando=0;    
04CE4:  MOVLB  3
04CE6:  CLRF   x39
....................    }else{ 
04CE8:  BRA    4CFA
04CEA:  MOVLB  0
....................       NivelBajo=ON; 
04CEC:  BSF    xA6.0
....................       tNivelBajo=0; 
04CEE:  MOVLB  3
04CF0:  CLRF   x35
04CF2:  CLRF   x34
....................       SensadoNivelL=OFF; 
04CF4:  MOVLB  0
04CF6:  BCF    xA5.7
04CF8:  MOVLB  3
....................    } 
....................    
....................    if(tNivelBajo>3){ 
04CFA:  MOVF   x35,F
04CFC:  BNZ   4D04
04CFE:  MOVF   x34,W
04D00:  SUBLW  03
04D02:  BC    4D16
....................       SensadoNivelL=OFF; 
04D04:  MOVLB  0
04D06:  BCF    xA5.7
....................       NivelBajo=OFF; 
04D08:  BCF    xA6.0
....................       TiempoSensadoNivel=0; 
04D0A:  CLRF   xAC
04D0C:  CLRF   xAB
....................       SensadoNivel=OFF; 
04D0E:  BCF    xA0.5
....................       if(!Esterilizando) 
04D10:  BTFSC  xA0.3
04D12:  BRA    4D16
....................          CalderinLleno=OFF; 
04D14:  BCF    xA0.1
....................    } 
....................    
....................    if(NivelBajo){ 
04D16:  MOVLB  0
04D18:  BTFSS  xA6.0
04D1A:  BRA    4D3A
....................       if(HIG){ 
04D1C:  BTFSS  xA5.6
04D1E:  BRA    4D34
....................          SensadoNivel=ON; 
04D20:  BSF    xA0.5
....................          if(TiempoSensadoNivel>2){ 
04D22:  MOVF   xAC,F
04D24:  BNZ   4D2C
04D26:  MOVF   xAB,W
04D28:  SUBLW  02
04D2A:  BC    4D32
....................             SensadoNivel=OFF; 
04D2C:  BCF    xA0.5
....................             CalderinLleno=ON; 
04D2E:  BSF    xA0.1
....................             IniciaLlenado=OFF;                   
04D30:  BCF    xA0.0
....................          } 
....................       }else{ 
04D32:  BRA    4D3A
....................          SensadoNivel=OFF; 
04D34:  BCF    xA0.5
....................          TiempoSensadoNivel=0; 
04D36:  CLRF   xAC
04D38:  CLRF   xAB
....................       } 
....................    }   
.................... } 
04D3A:  GOTO   6E6A (RETURN)
....................  
.................... void monitoreaStop(){ 
....................    if(!STOP && !IniciaCiclo && !PruebaEstados){ 
*
04E40:  BSF    F93.5
04E42:  BTFSS  F81.5
04E44:  BRA    4E92
04E46:  BTFSC  xA0.2
04E48:  BRA    4E92
04E4A:  BTFSC  xA1.4
04E4C:  BRA    4E92
....................       if(!disp_Stop){ 
04E4E:  MOVLB  3
04E50:  BTFSC  x36.0
04E52:  BRA    4E72
....................          disp_Stop=1;Menu=255; 
04E54:  BSF    x36.0
04E56:  MOVLW  FF
04E58:  MOVWF  x41
....................          printf("page Emergencia"); 
04E5A:  MOVLW  FE
04E5C:  MOVWF  FF6
04E5E:  MOVLW  01
04E60:  MOVWF  FF7
04E62:  MOVLW  00
04E64:  MOVWF  FF8
04E66:  MOVLB  0
04E68:  CALL   37BA
....................          SendDataDisplay(); 
04E6C:  CALL   37EC
04E70:  MOVLB  3
....................       } 
....................       Controlando=0; 
04E72:  CLRF   x39
....................       Desfogue_on; 
04E74:  BCF    F8B.1
04E76:  BCF    F94.1
....................       SSR_off; 
04E78:  BCF    F8D.1
04E7A:  BCF    F96.1
....................       Paso_off; 
04E7C:  BSF    F8B.0
04E7E:  BCF    F94.0
....................       DesfogueSuave=OFF; 
04E80:  MOVLB  0
04E82:  BCF    xA0.7
....................       ActivaAlarma(1); 
04E84:  MOVLW  01
04E86:  MOVLB  6
04E88:  MOVWF  x96
04E8A:  MOVLB  0
04E8C:  RCALL  4D3E
....................       BorraBuffer(); 
04E8E:  BRA    4E14
....................    }else{ 
04E90:  BRA    4E9A
....................       if(disp_Stop){ 
04E92:  MOVLB  3
04E94:  BTFSS  x36.0
04E96:  BRA    4E9A
....................          reset_cpu(); 
04E98:  RESET
04E9A:  MOVLB  0
....................       } 
....................    }            
.................... } 
04E9C:  GOTO   6E6E (RETURN)
....................  
.................... void chancleteaBomba(){ 
....................    for(i=0;i<10;i++){ 
*
0509C:  MOVLB  3
0509E:  CLRF   x44
050A0:  MOVF   x44,W
050A2:  SUBLW  09
050A4:  BNC   50CC
....................       BombaVacio_on; 
050A6:  BCF    F8B.5
050A8:  BCF    F94.5
....................       delay_ms(100); 
050AA:  MOVLW  64
050AC:  MOVLB  6
050AE:  MOVWF  xA8
050B0:  MOVLB  0
050B2:  CALL   1D14
....................       BombaVacio_off; 
050B6:  BSF    F8B.5
050B8:  BCF    F94.5
....................       delay_ms(100); 
050BA:  MOVLW  64
050BC:  MOVLB  6
050BE:  MOVWF  xA8
050C0:  MOVLB  0
050C2:  CALL   1D14
....................    } 
050C6:  MOVLB  3
050C8:  INCF   x44,F
050CA:  BRA    50A0
.................... } 
050CC:  MOVLB  0
050CE:  GOTO   50F8 (RETURN)
....................  
.................... void monitoreaNivelAlto(){ 
....................    if(LRES){ 
*
05E34:  BSF    F93.7
05E36:  BTFSC  F81.7
05E38:  BRA    5E7E
....................       printf("Funcionamiento.t4f.txt=\" Ninguna\""); 
05E3A:  MOVLW  0E
05E3C:  MOVWF  FF6
05E3E:  MOVLW  02
05E40:  MOVWF  FF7
05E42:  MOVLW  00
05E44:  MOVWF  FF8
05E46:  CALL   37BA
....................       SendDataDisplay(); 
05E4A:  CALL   37EC
....................       if(HIG){ 
05E4E:  BTFSS  xA5.6
05E50:  BRA    5E6E
....................          SensadoNivel=ON; 
05E52:  BSF    xA0.5
....................          if(TiempoSensadoNivel>2){ 
05E54:  MOVF   xAC,F
05E56:  BNZ   5E5E
05E58:  MOVF   xAB,W
05E5A:  SUBLW  02
05E5C:  BC    5E6C
....................             SensadoNivel=OFF; 
05E5E:  BCF    xA0.5
....................             CalderinLleno=ON; 
05E60:  BSF    xA0.1
....................             IniciaLlenado=OFF;                   
05E62:  BCF    xA0.0
....................             Agua_off; 
05E64:  BSF    F8C.3
05E66:  BCF    F95.3
....................             EV8_off; 
05E68:  BSF    F8C.2
05E6A:  BCF    F95.2
....................          } 
....................      }else{ 
05E6C:  BRA    5E7C
....................         SensadoNivel=OFF; 
05E6E:  BCF    xA0.5
....................         TiempoSensadoNivel=0; 
05E70:  CLRF   xAC
05E72:  CLRF   xAB
....................         Agua_on; 
05E74:  BCF    F8C.3
05E76:  BCF    F95.3
....................         EV8_on; 
05E78:  BCF    F8C.2
05E7A:  BCF    F95.2
....................      }   
....................   }else{ 
05E7C:  BRA    5E9A
....................       printf("Funcionamiento.t4f.txt=\" Reservorio Vacio\""); 
05E7E:  MOVLW  30
05E80:  MOVWF  FF6
05E82:  MOVLW  02
05E84:  MOVWF  FF7
05E86:  MOVLW  00
05E88:  MOVWF  FF8
05E8A:  CALL   37BA
....................       SendDataDisplay(); 
05E8E:  CALL   37EC
....................       Agua_off; 
05E92:  BSF    F8C.3
05E94:  BCF    F95.3
....................       EV8_off; 
05E96:  BSF    F8C.2
05E98:  BCF    F95.2
....................   } 
.................... } 
05E9A:  GOTO   AFCC (RETURN)
....................  
.................... void purgaBomba(){ 
....................    Vacio_off; 
*
050D2:  BSF    F8B.2
050D4:  BCF    F94.2
....................    Desfogue_off; 
050D6:  BSF    F8B.1
050D8:  BCF    F94.1
....................    Aire_off; 
050DA:  BSF    F8C.0
050DC:  BCF    F95.0
....................    AireB_on; 
050DE:  BCF    F8C.1
050E0:  BCF    F95.1
....................    Paso_off; 
050E2:  BSF    F8B.0
050E4:  BCF    F94.0
....................    Agua_off; 
050E6:  BSF    F8C.3
050E8:  BCF    F95.3
....................    delay_ms(70); 
050EA:  MOVLW  46
050EC:  MOVLB  6
050EE:  MOVWF  xA8
050F0:  MOVLB  0
050F2:  CALL   1D14
....................    chancleteaBomba(); 
050F6:  BRA    509C
....................    BombaVacio_on; 
050F8:  BCF    F8B.5
050FA:  BCF    F94.5
....................    delay_ms(7000); 
050FC:  MOVLW  1C
050FE:  MOVLB  6
05100:  MOVWF  x96
05102:  MOVLW  FA
05104:  MOVWF  xA8
05106:  MOVLB  0
05108:  CALL   1D14
0510C:  MOVLB  6
0510E:  DECFSZ x96,F
05110:  BRA    5102
.................... } 
05112:  MOVLB  0
05114:  RETLW  00
....................  
.................... void salidasPulsoNegativo(){ 
....................    Vacio_on; 
*
05E1A:  BCF    F8B.2
05E1C:  BCF    F94.2
....................    Desfogue_off; 
05E1E:  BSF    F8B.1
05E20:  BCF    F94.1
....................    Aire_off; 
05E22:  BSF    F8C.0
05E24:  BCF    F95.0
....................    AireB_off; 
05E26:  BSF    F8C.1
05E28:  BCF    F95.1
....................    Paso_off; 
05E2A:  BSF    F8B.0
05E2C:  BCF    F94.0
....................    BombaVacio_on; 
05E2E:  BCF    F8B.5
05E30:  BCF    F94.5
.................... } 
05E32:  RETLW  00
....................  
.................... void salidasPulsoPositivo(){ 
....................    Vacio_off; 
*
05E9E:  BSF    F8B.2
05EA0:  BCF    F94.2
....................    Desfogue_off; 
05EA2:  BSF    F8B.1
05EA4:  BCF    F94.1
....................    Aire_off; 
05EA6:  BSF    F8C.0
05EA8:  BCF    F95.0
....................    AireB_on; 
05EAA:  BCF    F8C.1
05EAC:  BCF    F95.1
....................    Paso_on; 
05EAE:  BCF    F8B.0
05EB0:  BCF    F94.0
....................    Agua_off; 
05EB2:  BSF    F8C.3
05EB4:  BCF    F95.3
....................    EV8_off; 
05EB6:  BSF    F8C.2
05EB8:  BCF    F95.2
....................    BombaVacio_on;  
05EBA:  BCF    F8B.5
05EBC:  BCF    F94.5
.................... } 
05EBE:  GOTO   B062 (RETURN)
....................  
.................... void enciendeBombaAgua(){ 
....................    if(tBombaAgua>120){ 
*
05116:  MOVF   xB2,F
05118:  BNZ   5120
0511A:  MOVF   xB1,W
0511C:  SUBLW  78
0511E:  BC    5138
....................       EV8_off; 
05120:  BSF    F8C.2
05122:  BCF    F95.2
....................       flagBombaAgua=OFF; 
05124:  BCF    xA6.2
....................       flagBombaAguaOff=ON; 
05126:  BSF    xA6.3
....................       if(tBombaAguaOff>=60){ 
05128:  MOVF   xB4,F
0512A:  BNZ   5132
0512C:  MOVF   xB3,W
0512E:  SUBLW  3B
05130:  BC    5136
....................          tBombaAgua=0; 
05132:  CLRF   xB2
05134:  CLRF   xB1
....................       } 
....................    }else{ 
05136:  BRA    5144
....................       EV8_on; 
05138:  BCF    F8C.2
0513A:  BCF    F95.2
....................       flagBombaAgua=ON; 
0513C:  BSF    xA6.2
....................       flagBombaAguaOff=OFF; 
0513E:  BCF    xA6.3
....................       tBombaAguaOff=0; 
05140:  CLRF   xB4
05142:  CLRF   xB3
....................    } 
.................... } 
05144:  RETLW  00
....................  
.................... void apagaBombaAgua(){ 
....................    EV8_off; 
05146:  BSF    F8C.2
05148:  BCF    F95.2
....................    flagBombaAgua=OFF; 
0514A:  BCF    xA6.2
....................    flagBombaAguaOff=OFF; 
0514C:  BCF    xA6.3
....................    tBombaAguaOff=0; 
0514E:  CLRF   xB4
05150:  CLRF   xB3
....................    tBombaAgua=0; 
05152:  CLRF   xB2
05154:  CLRF   xB1
.................... } 
05156:  RETLW  00
....................  
....................  
.................... #int_rda HIGH 
.................... void serial_rx_isr(){ 
....................    Dato2=fgetc(); 
*
0025C:  BTFSS  F9E.5
0025E:  BRA    025C
00260:  MOVFF  FAE,33F
00264:  MOVLB  3
....................    if(Dato2==0x65){//Inicio Comunicacion 
00266:  MOVF   x3F,W
00268:  SUBLW  65
0026A:  BNZ   0272
....................       Inicio=1; 
0026C:  MOVLW  01
0026E:  MOVWF  x3D
....................       RX_Wr_Index =0; 
00270:  CLRF   46
....................    } 
....................    if(Inicio==1){ 
00272:  DECFSZ x3D,W
00274:  BRA    028A
....................       Rx_Buffer2[RX_Wr_Index] = Dato2; 
00276:  CLRF   03
00278:  MOVF   46,W
0027A:  ADDLW  3B
0027C:  MOVWF  FE9
0027E:  MOVLW  00
00280:  ADDWFC 03,W
00282:  MOVWF  FEA
00284:  MOVFF  33F,FEF
....................       RX_Wr_Index++; 
00288:  INCF   46,F
....................    } 
....................    if(RX_Wr_Index >= RX_BUFFER_SIZE){ 
0028A:  MOVF   46,W
0028C:  SUBLW  09
0028E:  BC    0294
....................       RX_Wr_Index =0; 
00290:  CLRF   46
....................       Inicio=0; 
00292:  CLRF   x3D
....................    } 
....................    if(RX_Wr_Index==0){ 
00294:  MOVF   46,F
00296:  BNZ   02B8
....................       if(Rx_Buffer2[0]==0x65 && Rx_Buffer2[1]==0xff && Rx_Buffer2[2]==0xff && Rx_Buffer2[8]==0x00 && Rx_Buffer2[9]==0xff ) 
00298:  MOVF   3B,W
0029A:  SUBLW  65
0029C:  BNZ   02B4
0029E:  INCFSZ 3C,W
002A0:  BRA    02B4
002A2:  INCFSZ 3D,W
002A4:  BRA    02B4
002A6:  MOVF   43,F
002A8:  BNZ   02B4
002AA:  INCFSZ 44,W
002AC:  BRA    02B4
....................          Dato_Exitoso=5; 
002AE:  MOVLW  05
002B0:  MOVWF  x3E
....................       else 
002B2:  BRA    02B8
....................          Dato_Exitoso=10; 
002B4:  MOVLW  0A
002B6:  MOVWF  x3E
....................    } 
....................    if(Menu==20) 
002B8:  MOVF   x41,W
002BA:  SUBLW  14
002BC:  BNZ   02C2
....................      Buzzer_on; 
002BE:  BSF    F8C.7
002C0:  BCF    F95.7
.................... } 
....................  
002C2:  BCF    F9E.5
002C4:  MOVLB  0
002C6:  GOTO   00FE
.................... #int_TIMER1 
.................... void temp1s(void){ 
....................    set_timer1(40536); // Se repite cada 5ms 
002CA:  MOVLW  9E
002CC:  MOVWF  FCF
002CE:  MOVLW  58
002D0:  MOVWF  FCE
....................    tiempos++; 
002D2:  MOVLB  3
002D4:  INCF   x51,F
002D6:  BTFSC  FD8.2
002D8:  INCF   x52,F
....................    tiempos2++; 
002DA:  INCF   x53,F
002DC:  BTFSC  FD8.2
002DE:  INCF   x54,F
....................    tiempos3++; 
002E0:  INCF   x55,F
002E2:  BTFSC  FD8.2
002E4:  INCF   x56,F
....................    tiempoctrl++; 
002E6:  INCF   x57,F
002E8:  BTFSC  FD8.2
002EA:  INCF   x58,F
....................     
....................    if(!STOP){ 
002EC:  BSF    F93.5
002EE:  BTFSS  F81.5
002F0:  BRA    02FE
....................       tStop++; 
002F2:  MOVLB  0
002F4:  INCF   xB7,F
002F6:  BTFSC  FD8.2
002F8:  INCF   xB8,F
....................    }else{ 
002FA:  BRA    0304
002FC:  MOVLB  3
....................       tStop=0; 
002FE:  MOVLB  0
00300:  CLRF   xB8
00302:  CLRF   xB7
....................    } 
....................     
....................    if(!TERM){ 
00304:  BSF    F93.4
00306:  BTFSS  F81.4
00308:  BRA    0312
....................       tTermostato++; 
0030A:  INCF   xB5,F
0030C:  BTFSC  FD8.2
0030E:  INCF   xB6,F
....................    }else{ 
00310:  BRA    0316
....................       tTermostato=0; 
00312:  CLRF   xB6
00314:  CLRF   xB5
....................    } 
....................        
....................    if(flagAlarma) 
00316:  BTFSS  xA2.5
00318:  BRA    0324
....................       tbuzzer++; 
0031A:  MOVLB  3
0031C:  INCF   x79,F
0031E:  BTFSC  FD8.2
00320:  INCF   x7A,F
00322:  MOVLB  0
....................        
....................    if(flagSilencio)    
00324:  BTFSS  xA2.7
00326:  BRA    0330
....................       tsilencio++; 
00328:  MOVLB  3
0032A:  INCF   x7B,F
0032C:  BTFSC  FD8.2
0032E:  INCF   x7C,F
....................     
....................    if(Controlando==1){ 
00330:  MOVLB  3
00332:  DECFSZ x39,W
00334:  BRA    0372
....................       if(tiempoctrl<Tp) // Si el tiempo es menor o igual al tiempo de control se enciende la resistencia de lo contrario se apaga. 
00336:  MOVF   x58,W
00338:  MOVLB  0
0033A:  SUBWF  xAE,W
0033C:  BNC   0356
0033E:  BNZ   0350
00340:  MOVF   xAD,W
00342:  MOVLB  3
00344:  SUBWF  x57,W
00346:  BTFSS  FD8.0
00348:  BRA    034E
0034A:  MOVLB  0
0034C:  BRA    0356
0034E:  MOVLB  0
....................          SSR_on; 
00350:  BSF    F8D.1
00352:  BCF    F96.1
....................       else          
00354:  BRA    035A
....................          SSR_off; 
00356:  BCF    F8D.1
00358:  BCF    F96.1
....................              
....................       if(tiempoctrl>=Tc) // Si el tiempo de control es mayor al tiempo de ciclo se reinicia tiempo de control 
0035A:  MOVF   xB0,W
0035C:  MOVLB  3
0035E:  SUBWF  x58,W
00360:  BNC   0372
00362:  BNZ   036E
00364:  MOVLB  0
00366:  MOVF   xAF,W
00368:  MOVLB  3
0036A:  SUBWF  x57,W
0036C:  BNC   0372
....................          tiempoctrl=0;// tiempoctrl incrementa una unidad cada 5ms, por eso se dividen los tiempos por 0.005. 
0036E:  CLRF   x58
00370:  CLRF   x57
....................    } 
....................     
....................    if(tiempos>=200){  // 12000 para que incremente cada minuto, 200para que incremente cada segundo. 
00372:  MOVF   x52,F
00374:  BNZ   037E
00376:  MOVF   x51,W
00378:  SUBLW  C7
0037A:  BTFSC  FD8.0
0037C:  BRA    0462
....................       if(flagTC) 
0037E:  BTFSS  x36.1
00380:  BRA    0384
....................          TiempoControl++; 
00382:  INCF   x73,F
....................        
....................       tiemporecta++; 
00384:  INCF   x38,F
....................        
....................       if(calientaSecado) 
00386:  MOVLB  0
00388:  BTFSS  xA6.4
0038A:  BRA    0396
....................          tSecado++; 
0038C:  MOVLB  3
0038E:  INCF   x7D,F
00390:  BTFSC  FD8.2
00392:  INCF   x7E,F
00394:  MOVLB  0
....................        
....................       if(flagBombaAgua) 
00396:  BTFSS  xA6.2
00398:  BRA    03A0
....................          tBombaAgua++; 
0039A:  INCF   xB1,F
0039C:  BTFSC  FD8.2
0039E:  INCF   xB2,F
....................        
....................       if(flagBombaAguaOff) 
003A0:  BTFSS  xA6.3
003A2:  BRA    03AA
....................          tBombaAguaOff++; 
003A4:  INCF   xB3,F
003A6:  BTFSC  FD8.2
003A8:  INCF   xB4,F
....................        
....................       if(IniciaCiclo && tiempoImpresion<CalculoImpresion){ 
003AA:  BTFSS  xA0.2
003AC:  BRA    03C0
003AE:  MOVLB  3
003B0:  MOVF   x3C,W
003B2:  SUBWF  x4D,W
003B4:  BTFSS  FD8.0
003B6:  BRA    03BC
003B8:  MOVLB  0
003BA:  BRA    03C0
....................          tiempoImpresion++; 
003BC:  INCF   x4D,F
....................       }else if(tiempoImpresion>=CalculoImpresion){ 
003BE:  BRA    03CC
003C0:  MOVLB  3
003C2:  MOVF   x3C,W
003C4:  SUBWF  x4D,W
003C6:  BNC   03CC
....................          flagImprime=1; 
003C8:  BSF    x36.2
....................          tiempoImpresion=0; 
003CA:  CLRF   x4D
....................       } 
....................        
....................       if(IniciaCiclo && !Esterilizando) 
003CC:  MOVLB  0
003CE:  BTFSS  xA0.2
003D0:  BRA    03DC
003D2:  BTFSC  xA0.3
003D4:  BRA    03DC
....................          TiempoCiclo++; 
003D6:  INCF   xA7,F
003D8:  BTFSC  FD8.2
003DA:  INCF   xA8,F
....................        
....................       if(IniciaLlenado && !CalderinLleno) 
003DC:  BTFSS  xA0.0
003DE:  BRA    03EA
003E0:  BTFSC  xA0.1
003E2:  BRA    03EA
....................          TiempoLlenado++; 
003E4:  INCF   xA9,F
003E6:  BTFSC  FD8.2
003E8:  INCF   xAA,F
....................        
....................       if(SensadoNivel) 
003EA:  BTFSS  xA0.5
003EC:  BRA    03F4
....................          TiempoSensadoNivel++; 
003EE:  INCF   xAB,F
003F0:  BTFSC  FD8.2
003F2:  INCF   xAC,F
....................        
....................       if(SensadoNivelL) 
003F4:  BTFSS  xA5.7
003F6:  BRA    0402
....................          tNivelBajo++; 
003F8:  MOVLB  3
003FA:  INCF   x34,F
003FC:  BTFSC  FD8.2
003FE:  INCF   x35,F
00400:  MOVLB  0
....................           
....................       if(IniciaVacio) 
00402:  BTFSS  xA4.0
00404:  BRA    0410
....................          tvacio++;          
00406:  MOVLB  3
00408:  INCF   x65,F
0040A:  BTFSC  FD8.2
0040C:  INCF   x66,F
0040E:  MOVLB  0
....................        
....................       if(IniciaVacio2) 
00410:  BTFSS  xA4.1
00412:  BRA    041C
....................          tbomba++;    
00414:  MOVLB  3
00416:  INCF   x63,F
00418:  BTFSC  FD8.2
0041A:  INCF   x64,F
....................           
....................       tiempos=0;Lectura=1;tinicio++; 
0041C:  MOVLB  3
0041E:  CLRF   x52
00420:  CLRF   x51
00422:  MOVLB  0
00424:  BSF    xA6.6
00426:  MOVLB  3
00428:  INCF   x5B,F
0042A:  BTFSC  FD8.2
0042C:  INCF   x5C,F
....................     
....................       if(Esterilizando && !Desfogando){                
0042E:  MOVLB  0
00430:  BTFSS  xA0.3
00432:  BRA    044A
00434:  BTFSC  xA0.6
00436:  BRA    044A
....................          if(sEst>0){ 
00438:  MOVF   xB9,F
0043A:  BZ    0440
....................             sEst--; 
0043C:  DECF   xB9,F
....................          }else if(mEst>0){ 
0043E:  BRA    044A
00440:  MOVF   xBA,F
00442:  BZ    044A
....................             mEst--; 
00444:  DECF   xBA,F
....................             sEst=59; 
00446:  MOVLW  3B
00448:  MOVWF  xB9
....................          } 
....................       } 
....................       if(Secando){ 
0044A:  BTFSS  xA0.4
0044C:  BRA    0460
....................          if(sSec>0){ 
0044E:  MOVF   xBB,F
00450:  BZ    0456
....................             sSec--; 
00452:  DECF   xBB,F
....................          }else if(mSec>0){ 
00454:  BRA    0460
00456:  MOVF   xBC,F
00458:  BZ    0460
....................             mSec--; 
0045A:  DECF   xBC,F
....................             sSec=59; 
0045C:  MOVLW  3B
0045E:  MOVWF  xBB
00460:  MOVLB  3
....................          } 
....................       } 
....................    } 
.................... } 
....................  
00462:  BCF    F9E.0
00464:  MOVLB  0
00466:  GOTO   0068
.................... void main(){ 
*
0649E:  CLRF   FF8
064A0:  BCF    F9F.0
064A2:  BSF    F9F.5
064A4:  BSF    FD0.7
064A6:  BSF    07.7
064A8:  CLRF   FEA
064AA:  CLRF   FE9
064AC:  BSF    FB8.3
064AE:  MOVLW  08
064B0:  MOVWF  FAF
064B2:  MOVLW  02
064B4:  MOVWF  FB0
064B6:  MOVLW  A6
064B8:  MOVWF  FAC
064BA:  MOVLW  90
064BC:  MOVWF  FAB
064BE:  CLRF   46
064C0:  CLRF   47
064C2:  CLRF   48
064C4:  CLRF   x62
064C6:  CLRF   x63
064C8:  CLRF   x84
064CA:  CLRF   x85
064CC:  CLRF   x86
064CE:  BCF    x9F.0
064D0:  BCF    x9F.1
064D2:  BCF    x9F.2
064D4:  BCF    x9F.3
064D6:  BCF    x9F.4
064D8:  BCF    x9F.5
064DA:  BCF    x9F.6
064DC:  BCF    x9F.7
064DE:  BCF    xA0.0
064E0:  BCF    xA0.1
064E2:  BCF    xA0.2
064E4:  BCF    xA0.3
064E6:  BCF    xA0.4
064E8:  BCF    xA0.5
064EA:  BCF    xA0.6
064EC:  BCF    xA0.7
064EE:  BCF    xA1.0
064F0:  BCF    xA1.1
064F2:  BCF    xA1.2
064F4:  BCF    xA1.3
064F6:  BCF    xA1.4
064F8:  BCF    xA1.5
064FA:  BCF    xA1.6
064FC:  BCF    xA1.7
064FE:  BCF    xA2.0
06500:  BCF    xA2.1
06502:  BCF    xA2.2
06504:  BCF    xA2.3
06506:  BCF    xA2.4
06508:  BCF    xA2.5
0650A:  BCF    xA2.6
0650C:  BCF    xA2.7
0650E:  BCF    xA3.0
06510:  BCF    xA3.1
06512:  BCF    xA3.2
06514:  BCF    xA3.3
06516:  BCF    xA3.4
06518:  BCF    xA3.5
0651A:  BCF    xA3.6
0651C:  BCF    xA3.7
0651E:  BCF    xA4.0
06520:  BCF    xA4.1
06522:  BCF    xA4.2
06524:  BCF    xA4.3
06526:  BCF    xA4.4
06528:  BCF    xA4.5
0652A:  BCF    xA4.6
0652C:  BCF    xA4.7
0652E:  BCF    xA5.0
06530:  BCF    xA5.1
06532:  BCF    xA5.2
06534:  BCF    xA5.3
06536:  BCF    xA5.4
06538:  BCF    xA5.5
0653A:  BCF    xA5.6
0653C:  BCF    xA5.7
0653E:  BCF    xA6.0
06540:  BCF    xA6.1
06542:  BCF    xA6.2
06544:  BCF    xA6.3
06546:  BCF    xA6.4
06548:  CLRF   xA8
0654A:  CLRF   xA7
0654C:  CLRF   xAA
0654E:  CLRF   xA9
06550:  CLRF   xAC
06552:  CLRF   xAB
06554:  CLRF   xAE
06556:  CLRF   xAD
06558:  CLRF   xB0
0655A:  CLRF   xAF
0655C:  CLRF   xB2
0655E:  CLRF   xB1
06560:  CLRF   xB4
06562:  CLRF   xB3
06564:  CLRF   xB6
06566:  CLRF   xB5
06568:  CLRF   xB8
0656A:  CLRF   xB7
0656C:  CLRF   xB9
0656E:  CLRF   xBA
06570:  CLRF   xBB
06572:  CLRF   xBC
06574:  CLRF   xBD
06576:  CLRF   xBE
06578:  CLRF   xBF
0657A:  CLRF   xC0
0657C:  MOVLW  9A
0657E:  MOVLB  2
06580:  MOVWF  xA4
06582:  MOVLW  99
06584:  MOVWF  xA3
06586:  MOVLW  0D
06588:  MOVWF  xA2
0658A:  MOVLW  86
0658C:  MOVWF  xA1
0658E:  CLRF   xA8
06590:  CLRF   xA7
06592:  CLRF   xA6
06594:  MOVLW  7E
06596:  MOVWF  xA5
06598:  CLRF   xAC
0659A:  CLRF   xAB
0659C:  CLRF   xAA
0659E:  CLRF   xA9
065A0:  CLRF   xB0
065A2:  MOVLW  80
065A4:  MOVWF  xAF
065A6:  MOVLW  54
065A8:  MOVWF  xAE
065AA:  MOVLW  8B
065AC:  MOVWF  xAD
065AE:  CLRF   xBC
065B0:  CLRF   xBB
065B2:  CLRF   xBA
065B4:  CLRF   xB9
065B6:  CLRF   xC0
065B8:  CLRF   xBF
065BA:  CLRF   xBE
065BC:  CLRF   xBD
065BE:  CLRF   xC4
065C0:  CLRF   xC3
065C2:  CLRF   xC2
065C4:  CLRF   xC1
065C6:  CLRF   xC5
065C8:  CLRF   xC6
065CA:  CLRF   xC7
065CC:  CLRF   xC8
065CE:  MOVLW  14
065D0:  MOVWF  xC9
065D2:  CLRF   xCA
065D4:  CLRF   xCB
065D6:  CLRF   xCC
065D8:  CLRF   xCD
065DA:  CLRF   xCE
065DC:  CLRF   xD2
065DE:  CLRF   xD1
065E0:  CLRF   xD0
065E2:  CLRF   xCF
065E4:  CLRF   xDA
065E6:  CLRF   xD9
065E8:  MOVLW  20
065EA:  MOVWF  xD8
065EC:  MOVLW  82
065EE:  MOVWF  xD7
065F0:  CLRF   xDE
065F2:  CLRF   xDD
065F4:  CLRF   xDC
065F6:  CLRF   xDB
065F8:  CLRF   xE2
065FA:  CLRF   xE1
065FC:  CLRF   xE0
065FE:  CLRF   xDF
06600:  CLRF   xE6
06602:  CLRF   xE5
06604:  CLRF   xE4
06606:  CLRF   xE3
06608:  CLRF   xEA
0660A:  CLRF   xE9
0660C:  CLRF   xE8
0660E:  CLRF   xE7
06610:  CLRF   xEE
06612:  CLRF   xED
06614:  CLRF   xEC
06616:  CLRF   xEB
06618:  CLRF   xF2
0661A:  CLRF   xF1
0661C:  MOVLW  48
0661E:  MOVWF  xF0
06620:  MOVLW  83
06622:  MOVWF  xEF
06624:  CLRF   xF6
06626:  CLRF   xF5
06628:  MOVLW  20
0662A:  MOVWF  xF4
0662C:  MOVLW  83
0662E:  MOVWF  xF3
06630:  CLRF   xFA
06632:  CLRF   xF9
06634:  CLRF   xF8
06636:  MOVLW  7F
06638:  MOVWF  xF7
0663A:  CLRF   xFE
0663C:  CLRF   xFD
0663E:  CLRF   xFC
06640:  CLRF   xFB
06642:  MOVLB  3
06644:  CLRF   x02
06646:  CLRF   x01
06648:  CLRF   x00
0664A:  MOVLB  2
0664C:  CLRF   xFF
0664E:  MOVLB  3
06650:  CLRF   x06
06652:  CLRF   x05
06654:  CLRF   x04
06656:  CLRF   x03
06658:  CLRF   x0A
0665A:  CLRF   x09
0665C:  CLRF   x08
0665E:  CLRF   x07
06660:  CLRF   x0E
06662:  CLRF   x0D
06664:  CLRF   x0C
06666:  CLRF   x0B
06668:  CLRF   x12
0666A:  CLRF   x11
0666C:  CLRF   x10
0666E:  CLRF   x0F
06670:  CLRF   x16
06672:  CLRF   x15
06674:  CLRF   x14
06676:  CLRF   x13
06678:  MOVLW  4A
0667A:  MOVWF  x1A
0667C:  MOVLW  88
0667E:  MOVWF  x19
06680:  MOVLW  28
06682:  MOVWF  x18
06684:  MOVLW  75
06686:  MOVWF  x17
06688:  MOVLW  E0
0668A:  MOVWF  x1E
0668C:  MOVLW  2D
0668E:  MOVWF  x1D
06690:  MOVLW  10
06692:  MOVWF  x1C
06694:  MOVLW  75
06696:  MOVWF  x1B
06698:  MOVLW  FF
0669A:  MOVWF  x22
0669C:  MOVLW  21
0669E:  MOVWF  x21
066A0:  MOVLW  15
066A2:  MOVWF  x20
066A4:  MOVLW  80
066A6:  MOVWF  x1F
066A8:  MOVLW  82
066AA:  MOVWF  x26
066AC:  MOVLW  12
066AE:  MOVWF  x25
066B0:  MOVLW  F4
066B2:  MOVWF  x24
066B4:  MOVLW  86
066B6:  MOVWF  x23
066B8:  CLRF   x27
066BA:  CLRF   x28
066BC:  CLRF   x29
066BE:  MOVLW  04
066C0:  MOVWF  x2A
066C2:  MOVLW  19
066C4:  MOVWF  x2B
066C6:  CLRF   x2C
066C8:  CLRF   x2D
066CA:  CLRF   x2E
066CC:  CLRF   x2F
066CE:  CLRF   x31
066D0:  CLRF   x30
066D2:  CLRF   x33
066D4:  CLRF   x32
066D6:  CLRF   x35
066D8:  CLRF   x34
066DA:  MOVLB  0
066DC:  BCF    xA6.5
066DE:  BCF    xA6.6
066E0:  BCF    xA6.7
066E2:  MOVLB  3
066E4:  BCF    x36.0
066E6:  BCF    x36.1
066E8:  BCF    x36.2
066EA:  BCF    x36.3
066EC:  CLRF   x37
066EE:  CLRF   x38
066F0:  CLRF   x39
066F2:  MOVLW  01
066F4:  MOVWF  x3A
066F6:  MOVLW  02
066F8:  MOVWF  x3B
066FA:  CLRF   x3C
066FC:  MOVLW  01
066FE:  MOVWF  x3D
06700:  CLRF   x3E
06702:  CLRF   x3F
06704:  CLRF   x40
06706:  CLRF   x41
06708:  CLRF   x42
0670A:  MOVLW  F0
0670C:  MOVWF  x43
0670E:  CLRF   x44
06710:  CLRF   x45
06712:  CLRF   x46
06714:  CLRF   x47
06716:  CLRF   x48
06718:  MOVLW  01
0671A:  MOVWF  x49
0671C:  MOVWF  x4A
0671E:  CLRF   x4B
06720:  CLRF   x4C
06722:  CLRF   x4D
06724:  MOVLW  15
06726:  MOVWF  x4E
06728:  MOVLW  19
0672A:  MOVWF  x4F
0672C:  MOVLW  02
0672E:  MOVWF  x50
06730:  CLRF   x52
06732:  CLRF   x51
06734:  CLRF   x54
06736:  CLRF   x53
06738:  CLRF   x56
0673A:  CLRF   x55
0673C:  CLRF   x58
0673E:  CLRF   x57
06740:  CLRF   x5A
06742:  CLRF   x59
06744:  CLRF   x5C
06746:  CLRF   x5B
06748:  CLRF   x5E
0674A:  CLRF   x5D
0674C:  CLRF   x60
0674E:  CLRF   x5F
06750:  CLRF   x62
06752:  CLRF   x61
06754:  CLRF   x64
06756:  CLRF   x63
06758:  CLRF   x66
0675A:  CLRF   x65
0675C:  CLRF   x6F
0675E:  CLRF   x70
06760:  CLRF   x71
06762:  CLRF   x72
06764:  CLRF   x73
06766:  CLRF   x74
06768:  CLRF   x75
0676A:  CLRF   x76
0676C:  MOVLW  0A
0676E:  MOVWF  x77
06770:  CLRF   x78
06772:  CLRF   x7A
06774:  CLRF   x79
06776:  CLRF   x7C
06778:  CLRF   x7B
0677A:  CLRF   x7E
0677C:  CLRF   x7D
0677E:  MOVLW  12
06780:  MOVWF  x7F
06782:  MOVLW  09
06784:  MOVWF  x80
06786:  MOVLW  0D
06788:  MOVWF  x81
0678A:  CLRF   x82
0678C:  CLRF   x83
0678E:  CLRF   x84
06790:  CLRF   x85
06792:  CLRF   x86
06794:  CLRF   x87
06796:  CLRF   x88
06798:  CLRF   x89
0679A:  CLRF   x8A
0679C:  CLRF   x8B
0679E:  CLRF   x8C
067A0:  CLRF   x8D
067A2:  CLRF   x8E
067A4:  CLRF   x8F
067A6:  CLRF   x90
067A8:  CLRF   x91
067AA:  MOVF   FC1,W
067AC:  ANDLW  C0
067AE:  IORLW  0F
067B0:  MOVWF  FC1
067B2:  MOVLW  07
067B4:  MOVWF  FB4
067B6:  CLRF   2A
067B8:  CLRF   2B
067BA:  MOVLB  0
067BC:  CLRF   x87
067BE:  MOVLW  03
067C0:  MOVWF  x88
067C2:  MOVWF  x89
067C4:  MOVLW  06
067C6:  MOVWF  x8A
067C8:  MOVLW  01
067CA:  MOVWF  x8B
067CC:  MOVLW  04
067CE:  MOVWF  x8C
067D0:  MOVLW  06
067D2:  MOVWF  x8D
067D4:  MOVLW  02
067D6:  MOVWF  x8E
067D8:  MOVLW  05
067DA:  MOVWF  x8F
067DC:  CLRF   x90
067DE:  MOVLW  03
067E0:  MOVWF  x91
067E2:  MOVLW  05
067E4:  MOVWF  x92
067E6:  CLRF   x93
067E8:  MOVLW  03
067EA:  MOVWF  x94
067EC:  MOVLW  04
067EE:  MOVWF  x95
067F0:  CLRF   x96
067F2:  MOVLW  02
067F4:  MOVWF  x97
067F6:  MOVLW  05
067F8:  MOVWF  x98
067FA:  CLRF   x99
067FC:  MOVLW  03
067FE:  MOVWF  x9A
06800:  MOVLW  06
06802:  MOVWF  x9B
06804:  MOVLW  01
06806:  MOVWF  x9C
06808:  MOVLW  04
0680A:  MOVWF  x9D
0680C:  MOVLW  06
0680E:  MOVWF  x9E
06810:  CLRF   xC1
06812:  CLRF   xC2
06814:  CLRF   xC3
06816:  CLRF   xC4
06818:  CLRF   xC5
0681A:  CLRF   xC6
0681C:  CLRF   xC7
0681E:  CLRF   xC8
06820:  CLRF   xC9
06822:  CLRF   xCA
06824:  CLRF   xCB
06826:  CLRF   xCC
06828:  CLRF   xCD
0682A:  CLRF   xCE
0682C:  CLRF   xCF
0682E:  CLRF   xD0
06830:  CLRF   xD1
06832:  CLRF   xD2
06834:  CLRF   xD3
06836:  CLRF   xD4
06838:  CLRF   xD5
0683A:  CLRF   xD6
0683C:  CLRF   xD7
0683E:  CLRF   xD8
06840:  CLRF   xD9
06842:  CLRF   xDA
06844:  CLRF   xDB
06846:  CLRF   xDC
06848:  CLRF   xDD
0684A:  CLRF   xDE
0684C:  CLRF   xDF
0684E:  CLRF   xE0
06850:  CLRF   xE1
06852:  CLRF   xE2
06854:  CLRF   xE3
06856:  CLRF   xE4
06858:  CLRF   xE5
0685A:  CLRF   xE6
0685C:  CLRF   xE7
0685E:  CLRF   xE8
06860:  CLRF   xE9
06862:  CLRF   xEA
06864:  CLRF   xEB
06866:  CLRF   xEC
06868:  CLRF   xED
0686A:  CLRF   xEE
0686C:  CLRF   xEF
0686E:  CLRF   xF0
06870:  CLRF   xF1
06872:  CLRF   xF2
06874:  CLRF   xF3
06876:  CLRF   xF4
06878:  CLRF   xF5
0687A:  CLRF   xF6
0687C:  CLRF   xF7
0687E:  CLRF   xF8
06880:  CLRF   xF9
06882:  CLRF   xFA
06884:  CLRF   xFB
06886:  CLRF   xFC
06888:  CLRF   xFD
0688A:  CLRF   xFE
0688C:  CLRF   xFF
0688E:  MOVLB  1
06890:  CLRF   x00
06892:  CLRF   x01
06894:  CLRF   x02
06896:  CLRF   x03
06898:  CLRF   x04
0689A:  CLRF   x05
0689C:  CLRF   x06
0689E:  CLRF   x07
068A0:  CLRF   x08
068A2:  CLRF   x09
068A4:  CLRF   x0A
068A6:  CLRF   x0B
068A8:  CLRF   x0C
068AA:  CLRF   x0D
068AC:  CLRF   x0E
068AE:  CLRF   x0F
068B0:  CLRF   x10
068B2:  CLRF   x11
068B4:  CLRF   x12
068B6:  CLRF   x13
068B8:  CLRF   x14
068BA:  CLRF   x15
068BC:  CLRF   x16
068BE:  CLRF   x17
068C0:  CLRF   x18
068C2:  CLRF   x19
068C4:  CLRF   x1A
068C6:  CLRF   x1B
068C8:  CLRF   x1C
068CA:  CLRF   x1D
068CC:  CLRF   x1E
068CE:  CLRF   x1F
068D0:  CLRF   x20
068D2:  CLRF   x21
068D4:  CLRF   x22
068D6:  CLRF   x23
068D8:  CLRF   x24
068DA:  CLRF   x25
068DC:  CLRF   x26
068DE:  CLRF   x27
068E0:  CLRF   x28
068E2:  CLRF   x29
068E4:  CLRF   x2A
068E6:  CLRF   x2B
068E8:  CLRF   x2C
068EA:  CLRF   x2D
068EC:  CLRF   x2E
068EE:  CLRF   x2F
068F0:  CLRF   x30
068F2:  CLRF   x31
068F4:  CLRF   x32
068F6:  CLRF   x33
068F8:  CLRF   x34
068FA:  CLRF   x35
068FC:  CLRF   x36
068FE:  CLRF   x37
06900:  CLRF   x38
06902:  CLRF   x39
06904:  CLRF   x3A
06906:  CLRF   x3B
06908:  CLRF   x3C
0690A:  CLRF   x3D
0690C:  CLRF   x3E
0690E:  CLRF   x3F
06910:  CLRF   x40
06912:  CLRF   x41
06914:  CLRF   x42
06916:  CLRF   x43
06918:  CLRF   x44
0691A:  CLRF   x45
0691C:  CLRF   x46
0691E:  CLRF   x47
06920:  CLRF   x48
06922:  CLRF   x49
06924:  CLRF   x4A
06926:  CLRF   x4B
06928:  CLRF   x4C
0692A:  CLRF   x4D
0692C:  CLRF   x4E
0692E:  CLRF   x4F
06930:  CLRF   x50
06932:  CLRF   x51
06934:  CLRF   x52
06936:  CLRF   x53
06938:  CLRF   x54
0693A:  CLRF   x55
0693C:  CLRF   x56
0693E:  CLRF   x57
06940:  CLRF   x58
06942:  CLRF   x59
06944:  CLRF   x5A
06946:  CLRF   x5B
06948:  CLRF   x5C
0694A:  CLRF   x5D
0694C:  CLRF   x5E
0694E:  CLRF   x5F
06950:  CLRF   x60
06952:  CLRF   x61
06954:  CLRF   x62
06956:  CLRF   x63
06958:  CLRF   x64
0695A:  CLRF   x65
0695C:  CLRF   x66
0695E:  CLRF   x67
06960:  CLRF   x68
06962:  CLRF   x69
06964:  CLRF   x6A
06966:  CLRF   x6B
06968:  CLRF   x6C
0696A:  CLRF   x6D
0696C:  CLRF   x6E
0696E:  CLRF   x6F
06970:  CLRF   x70
06972:  CLRF   x71
06974:  CLRF   x72
06976:  CLRF   x73
06978:  CLRF   x74
0697A:  CLRF   x75
0697C:  CLRF   x76
0697E:  CLRF   x77
06980:  CLRF   x78
06982:  CLRF   x79
06984:  CLRF   x7A
06986:  CLRF   x7B
06988:  CLRF   x7C
0698A:  CLRF   x7D
0698C:  CLRF   x7E
0698E:  CLRF   x7F
06990:  CLRF   x80
06992:  CLRF   x81
06994:  CLRF   x82
06996:  CLRF   x83
06998:  CLRF   x84
0699A:  CLRF   x85
0699C:  CLRF   x86
0699E:  CLRF   x87
069A0:  CLRF   x88
069A2:  CLRF   x89
069A4:  CLRF   x8A
069A6:  CLRF   x8B
069A8:  CLRF   x8C
069AA:  CLRF   x8D
069AC:  CLRF   x8E
069AE:  CLRF   x8F
069B0:  CLRF   x90
069B2:  CLRF   x91
069B4:  CLRF   x92
069B6:  CLRF   x93
069B8:  CLRF   x94
069BA:  CLRF   x95
069BC:  CLRF   x96
069BE:  CLRF   x97
069C0:  CLRF   x98
069C2:  CLRF   x99
069C4:  CLRF   x9A
069C6:  CLRF   x9B
069C8:  CLRF   x9C
069CA:  CLRF   x9D
069CC:  CLRF   x9E
069CE:  CLRF   x9F
069D0:  CLRF   xA0
069D2:  CLRF   xA1
069D4:  CLRF   xA2
069D6:  CLRF   xA3
069D8:  CLRF   xA4
069DA:  CLRF   xA5
069DC:  CLRF   xA6
069DE:  CLRF   xA7
069E0:  CLRF   xA8
069E2:  CLRF   xA9
069E4:  CLRF   xAA
069E6:  CLRF   xAB
069E8:  CLRF   xAC
069EA:  CLRF   xAD
069EC:  CLRF   xAE
069EE:  CLRF   xAF
069F0:  CLRF   xB0
069F2:  CLRF   xB1
069F4:  CLRF   xB2
069F6:  CLRF   xB3
069F8:  CLRF   xB4
069FA:  CLRF   xB5
069FC:  CLRF   xB6
069FE:  CLRF   xB7
06A00:  CLRF   xB8
06A02:  CLRF   xB9
06A04:  CLRF   xBA
06A06:  CLRF   xBB
06A08:  CLRF   xBC
06A0A:  CLRF   xBD
06A0C:  CLRF   xBE
06A0E:  CLRF   xBF
06A10:  CLRF   xC0
06A12:  CLRF   xC1
06A14:  CLRF   xC2
06A16:  CLRF   xC3
06A18:  CLRF   xC4
06A1A:  CLRF   xC5
06A1C:  CLRF   xC6
06A1E:  CLRF   xC7
06A20:  CLRF   xC8
06A22:  CLRF   xC9
06A24:  CLRF   xCA
06A26:  CLRF   xCB
06A28:  CLRF   xCC
06A2A:  CLRF   xCD
06A2C:  CLRF   xCE
06A2E:  CLRF   xCF
06A30:  CLRF   xD0
06A32:  CLRF   xD1
06A34:  CLRF   xD2
06A36:  CLRF   xD3
06A38:  CLRF   xD4
06A3A:  CLRF   xD5
06A3C:  CLRF   xD6
06A3E:  CLRF   xD7
06A40:  CLRF   xD8
06A42:  CLRF   xD9
06A44:  CLRF   xDA
06A46:  CLRF   xDB
06A48:  CLRF   xDC
06A4A:  CLRF   xDD
06A4C:  CLRF   xDE
06A4E:  CLRF   xDF
06A50:  CLRF   xE0
06A52:  CLRF   xE1
06A54:  CLRF   xE2
06A56:  CLRF   xE3
06A58:  CLRF   xE4
06A5A:  CLRF   xE5
06A5C:  CLRF   xE6
06A5E:  CLRF   xE7
06A60:  CLRF   xE8
06A62:  CLRF   xE9
06A64:  CLRF   xEA
06A66:  CLRF   xEB
06A68:  CLRF   xEC
06A6A:  CLRF   xED
06A6C:  CLRF   xEE
06A6E:  CLRF   xEF
06A70:  CLRF   xF0
06A72:  CLRF   xF1
06A74:  CLRF   xF2
06A76:  CLRF   xF3
06A78:  CLRF   xF4
06A7A:  CLRF   xF5
06A7C:  CLRF   xF6
06A7E:  CLRF   xF7
06A80:  CLRF   xF8
06A82:  CLRF   xF9
06A84:  CLRF   xFA
06A86:  CLRF   xFB
06A88:  CLRF   xFC
06A8A:  CLRF   xFD
06A8C:  CLRF   xFE
06A8E:  CLRF   xFF
06A90:  MOVLB  2
06A92:  CLRF   x00
06A94:  CLRF   x01
06A96:  CLRF   x02
06A98:  CLRF   x03
06A9A:  CLRF   x04
06A9C:  CLRF   x05
06A9E:  CLRF   x06
06AA0:  CLRF   x07
06AA2:  CLRF   x08
06AA4:  CLRF   x09
06AA6:  CLRF   x0A
06AA8:  CLRF   x0B
06AAA:  CLRF   x0C
06AAC:  CLRF   x0D
06AAE:  CLRF   x0E
06AB0:  CLRF   x0F
06AB2:  CLRF   x10
06AB4:  CLRF   x11
06AB6:  CLRF   x12
06AB8:  CLRF   x13
06ABA:  CLRF   x14
06ABC:  CLRF   x15
06ABE:  CLRF   x16
06AC0:  CLRF   x17
06AC2:  CLRF   x18
06AC4:  CLRF   x19
06AC6:  CLRF   x1A
06AC8:  CLRF   x1B
06ACA:  CLRF   x1C
06ACC:  CLRF   x1D
06ACE:  CLRF   x1E
06AD0:  CLRF   x1F
06AD2:  CLRF   x20
06AD4:  CLRF   x21
06AD6:  CLRF   x22
06AD8:  CLRF   x23
06ADA:  CLRF   x24
06ADC:  CLRF   x25
06ADE:  CLRF   x26
06AE0:  CLRF   x27
06AE2:  CLRF   x28
06AE4:  CLRF   x29
06AE6:  CLRF   x2A
06AE8:  CLRF   x2B
06AEA:  CLRF   x2C
06AEC:  CLRF   x2D
06AEE:  CLRF   x2E
06AF0:  CLRF   x2F
06AF2:  CLRF   x30
06AF4:  CLRF   x31
06AF6:  CLRF   x32
06AF8:  CLRF   x33
06AFA:  CLRF   x34
06AFC:  CLRF   x35
06AFE:  CLRF   x36
06B00:  CLRF   x37
06B02:  CLRF   x38
06B04:  CLRF   x39
06B06:  CLRF   x3A
06B08:  CLRF   x3B
06B0A:  CLRF   x3C
06B0C:  CLRF   x3D
06B0E:  CLRF   x3E
06B10:  CLRF   x3F
06B12:  CLRF   x40
06B14:  CLRF   x41
06B16:  CLRF   x42
06B18:  CLRF   x43
06B1A:  CLRF   x44
06B1C:  CLRF   x45
06B1E:  CLRF   x46
06B20:  CLRF   x47
06B22:  CLRF   x48
06B24:  CLRF   x49
06B26:  CLRF   x4A
06B28:  CLRF   x4B
06B2A:  CLRF   x4C
06B2C:  CLRF   x4D
06B2E:  CLRF   x4E
06B30:  CLRF   x4F
06B32:  CLRF   x50
06B34:  CLRF   x51
06B36:  CLRF   x52
06B38:  CLRF   x53
06B3A:  CLRF   x54
06B3C:  CLRF   x55
06B3E:  CLRF   x56
06B40:  CLRF   x57
06B42:  CLRF   x58
06B44:  CLRF   x59
06B46:  CLRF   x5A
06B48:  CLRF   x5B
06B4A:  CLRF   x5C
06B4C:  CLRF   x5D
06B4E:  CLRF   x5E
06B50:  CLRF   x5F
06B52:  CLRF   x60
06B54:  CLRF   x61
06B56:  CLRF   x62
06B58:  CLRF   x63
06B5A:  CLRF   x64
06B5C:  CLRF   x65
06B5E:  CLRF   x66
06B60:  CLRF   x67
06B62:  CLRF   x68
06B64:  CLRF   x69
06B66:  CLRF   x6A
06B68:  CLRF   x6B
06B6A:  CLRF   x6C
06B6C:  CLRF   x6D
06B6E:  CLRF   x6E
06B70:  CLRF   x6F
06B72:  CLRF   x70
06B74:  CLRF   x71
06B76:  CLRF   x72
06B78:  CLRF   x73
06B7A:  CLRF   x74
06B7C:  CLRF   x75
06B7E:  CLRF   x76
06B80:  CLRF   x77
06B82:  CLRF   x78
06B84:  CLRF   x79
06B86:  CLRF   x7A
06B88:  CLRF   x7B
06B8A:  CLRF   x7C
06B8C:  CLRF   x7D
06B8E:  CLRF   x7E
06B90:  CLRF   x7F
06B92:  CLRF   x80
06B94:  CLRF   x81
06B96:  CLRF   x82
06B98:  CLRF   x83
06B9A:  CLRF   x84
06B9C:  CLRF   x85
06B9E:  CLRF   x86
06BA0:  CLRF   x87
06BA2:  CLRF   x88
06BA4:  CLRF   x89
06BA6:  CLRF   x8A
06BA8:  CLRF   x8B
06BAA:  CLRF   x8C
06BAC:  CLRF   x8D
06BAE:  CLRF   x8E
06BB0:  CLRF   x8F
06BB2:  CLRF   x90
06BB4:  CLRF   x91
06BB6:  CLRF   x92
06BB8:  CLRF   x93
06BBA:  CLRF   x94
06BBC:  CLRF   x95
06BBE:  CLRF   x96
06BC0:  CLRF   x97
06BC2:  CLRF   x98
06BC4:  CLRF   x99
06BC6:  CLRF   x9A
06BC8:  CLRF   x9B
06BCA:  CLRF   x9C
06BCC:  CLRF   x9D
06BCE:  CLRF   x9E
06BD0:  CLRF   x9F
06BD2:  CLRF   xA0
06BD4:  CLRF   xB1
06BD6:  CLRF   xB2
06BD8:  CLRF   xB3
06BDA:  CLRF   xB4
06BDC:  CLRF   xB5
06BDE:  CLRF   xB6
06BE0:  CLRF   xB7
06BE2:  CLRF   xB8
06BE4:  MOVLB  3
06BE6:  CLRF   x67
06BE8:  CLRF   x68
06BEA:  CLRF   x69
06BEC:  CLRF   x6A
06BEE:  CLRF   x6B
06BF0:  CLRF   x6C
06BF2:  CLRF   x6D
06BF4:  CLRF   x6E
06BF6:  MOVLW  16
06BF8:  MOVWF  x92
06BFA:  MOVLW  3E
06BFC:  MOVWF  x93
06BFE:  MOVLW  10
06C00:  MOVWF  x94
06C02:  MOVLW  3C
06C04:  MOVWF  x95
06C06:  MOVLW  3A
06C08:  MOVWF  x96
06C0A:  MOVLW  40
06C0C:  MOVWF  x97
06C0E:  MOVLW  17
06C10:  MOVWF  x98
06C12:  MOVLW  1C
06C14:  MOVWF  x99
06C16:  MOVLW  14
06C18:  MOVWF  x9A
06C1A:  MOVLW  2E
06C1C:  MOVWF  x9B
06C1E:  MOVLW  12
06C20:  MOVWF  x9C
06C22:  MOVLW  3D
06C24:  MOVWF  x9D
06C26:  MOVLW  24
06C28:  MOVWF  x9E
06C2A:  MOVLW  3B
06C2C:  MOVWF  x9F
06C2E:  MOVLW  39
06C30:  MOVWF  xA0
06C32:  MOVLW  3F
06C34:  MOVWF  xA1
06C36:  MOVLW  20
06C38:  MOVWF  xA2
06C3A:  MOVLW  26
06C3C:  MOVWF  xA3
06C3E:  MOVLW  13
06C40:  MOVWF  xA4
06C42:  MOVLW  11
06C44:  MOVWF  xA5
....................     
....................    for (posicion=0;posicion<0x10;posicion++){ 
06C46:  MOVLB  0
06C48:  CLRF   x86
06C4A:  MOVF   x86,W
06C4C:  SUBLW  0F
06C4E:  BNC   6C64
....................       SlaveA0Tx[posicion] = 0x00; 
06C50:  CLRF   03
06C52:  MOVF   x86,W
06C54:  ADDLW  64
06C56:  MOVWF  FE9
06C58:  MOVLW  00
06C5A:  ADDWFC 03,W
06C5C:  MOVWF  FEA
06C5E:  CLRF   FEF
....................    } 
06C60:  INCF   x86,F
06C62:  BRA    6C4A
....................    setup_timer_1(T1_INTERNAL|T1_DIV_BY_1); 
06C64:  MOVLW  85
06C66:  MOVWF  FCD
....................    enable_interrupts(INT_TIMER1); 
06C68:  BSF    F9D.0
....................    setup_adc_ports(AN0_TO_AN5); 
06C6A:  MOVF   FC1,W
06C6C:  ANDLW  C0
06C6E:  IORLW  09
06C70:  MOVWF  FC1
....................    setup_adc(ADC_CLOCK_DIV_64); 
06C72:  MOVF   FC0,W
06C74:  ANDLW  C0
06C76:  IORLW  06
06C78:  MOVWF  FC0
06C7A:  BSF    FC0.7
06C7C:  BSF    FC2.0
....................    port_b_pullups(true); 
06C7E:  BCF    FF1.7
....................    enable_interrupts(int_rda); 
06C80:  BSF    F9D.5
....................    setup_wdt(WDT_ON); 
06C82:  BSF    FD1.0
....................    enable_interrupts(global); 
06C84:  MOVLW  C0
06C86:  IORWF  FF2,F
....................    LeeEEPROM(); 
06C88:  GOTO   2148
....................    rtc_init(); 
06C8C:  GOTO   2E6C
....................    delay_ms(1); 
06C90:  MOVLW  01
06C92:  MOVLB  6
06C94:  MOVWF  xA8
06C96:  MOVLB  0
06C98:  CALL   1D14
....................    LimitaValores(); 
06C9C:  GOTO   2F86
....................    CalculoImpresion=timpresion*60; 
06CA0:  MOVLB  3
06CA2:  MOVF   x3B,W
06CA4:  MULLW  3C
06CA6:  MOVFF  FF3,33C
....................    ActivaImpresion=1; 
06CAA:  MOVLW  01
06CAC:  MOVWF  x3A
....................    printf("page Bienvenida"); 
06CAE:  MOVLW  6A
06CB0:  MOVWF  FF6
06CB2:  MOVLW  04
06CB4:  MOVWF  FF7
06CB6:  MOVLW  00
06CB8:  MOVWF  FF8
06CBA:  MOVLB  0
06CBC:  CALL   37BA
....................    SendDataDisplay(); 
06CC0:  CALL   37EC
....................    printf("bkcmd=0"); 
06CC4:  MOVLW  7A
06CC6:  MOVWF  FF6
06CC8:  MOVLW  04
06CCA:  MOVWF  FF7
06CCC:  MOVLW  00
06CCE:  MOVWF  FF8
06CD0:  CALL   37BA
....................    SendDataDisplay(); 
06CD4:  CALL   37EC
....................    delay_ms(1500); 
06CD8:  MOVLW  06
06CDA:  MOVLB  6
06CDC:  MOVWF  x96
06CDE:  MOVLW  FA
06CE0:  MOVWF  xA8
06CE2:  MOVLB  0
06CE4:  CALL   1D14
06CE8:  MOVLB  6
06CEA:  DECFSZ x96,F
06CEC:  BRA    6CDE
....................    printf("page Clave"); 
06CEE:  MOVLW  82
06CF0:  MOVWF  FF6
06CF2:  MOVLW  04
06CF4:  MOVWF  FF7
06CF6:  MOVLW  00
06CF8:  MOVWF  FF8
06CFA:  MOVLB  0
06CFC:  CALL   37BA
....................    SendDataDisplay(); 
06D00:  CALL   37EC
....................    ApagaSalidas(); 
06D04:  CALL   3822
....................    TiempoVacio=360;  
06D08:  MOVLW  01
06D0A:  MOVLB  3
06D0C:  MOVWF  x31
06D0E:  MOVLW  68
06D10:  MOVWF  x30
....................    Sensor[0].Gain=214.61; 
06D12:  MOVLW  29
06D14:  MOVLB  5
06D16:  MOVWF  x09
06D18:  MOVLW  9C
06D1A:  MOVWF  x08
06D1C:  MOVLW  56
06D1E:  MOVWF  x07
06D20:  MOVLW  86
06D22:  MOVWF  x06
....................    Sensor[1].Gain=214.61; 
06D24:  MOVLW  29
06D26:  MOVLB  6
06D28:  MOVWF  x6D
06D2A:  MOVLW  9C
06D2C:  MOVWF  x6C
06D2E:  MOVLW  56
06D30:  MOVWF  x6B
06D32:  MOVLW  86
06D34:  MOVWF  x6A
....................    Imprime=10; 
06D36:  MOVLW  0A
06D38:  MOVLB  3
06D3A:  MOVWF  x8D
....................     
....................    for(i=0;i<MediaMovil;i++){ 
06D3C:  CLRF   x44
06D3E:  MOVLB  2
06D40:  MOVF   xC9,W
06D42:  MOVLB  3
06D44:  SUBWF  x44,W
06D46:  BC    6D8C
....................       Temperatura=LeerPT100(0,MediaMovil); 
06D48:  MOVLB  6
06D4A:  CLRF   x98
06D4C:  MOVFF  2C9,699
06D50:  MOVLB  0
06D52:  CALL   39C2
06D56:  MOVFF  03,312
06D5A:  MOVFF  02,311
06D5E:  MOVFF  01,310
06D62:  MOVFF  00,30F
....................       Temperatura2=LeerPT100(1,MediaMovil); 
06D66:  MOVLW  01
06D68:  MOVLB  6
06D6A:  MOVWF  x98
06D6C:  MOVFF  2C9,699
06D70:  MOVLB  0
06D72:  CALL   39C2
06D76:  MOVFF  03,316
06D7A:  MOVFF  02,315
06D7E:  MOVFF  01,314
06D82:  MOVFF  00,313
....................    } 
06D86:  MOVLB  3
06D88:  INCF   x44,F
06D8A:  BRA    6D3E
....................     
....................    if(UP && DOWN && RIGHT && LEFT)//Si oprime boton de Toma. 
06D8C:  BSF    F93.0
06D8E:  BTFSC  F81.0
06D90:  BRA    6E18
06D92:  BSF    F93.1
06D94:  BTFSC  F81.1
06D96:  BRA    6E18
06D98:  BSF    F93.2
06D9A:  BTFSC  F81.2
06D9C:  BRA    6E18
06D9E:  BSF    F93.3
06DA0:  BTFSC  F81.3
06DA2:  BRA    6E18
....................    { 
....................       write_eeprom(37,0); 
06DA4:  CLRF   FAA
06DA6:  MOVLW  25
06DA8:  MOVWF  FA9
06DAA:  CLRF   FA8
06DAC:  BCF    FA6.6
06DAE:  BCF    FA6.7
06DB0:  BSF    FA6.2
06DB2:  MOVF   FF2,W
06DB4:  MOVWF  00
06DB6:  BCF    FF2.6
06DB8:  BCF    FF2.7
06DBA:  MOVLB  F
06DBC:  MOVLW  55
06DBE:  MOVWF  FA7
06DC0:  MOVLW  AA
06DC2:  MOVWF  FA7
06DC4:  BSF    FA6.1
06DC6:  BTFSC  FA6.1
06DC8:  BRA    6DC6
06DCA:  BCF    FA6.2
06DCC:  MOVF   00,W
06DCE:  IORWF  FF2,F
....................       delay_ms(20); 
06DD0:  MOVLW  14
06DD2:  MOVLB  6
06DD4:  MOVWF  xA8
06DD6:  MOVLB  0
06DD8:  CALL   1D14
....................       write_eeprom(38,0); 
06DDC:  CLRF   FAA
06DDE:  MOVLW  26
06DE0:  MOVWF  FA9
06DE2:  CLRF   FA8
06DE4:  BCF    FA6.6
06DE6:  BCF    FA6.7
06DE8:  BSF    FA6.2
06DEA:  MOVF   FF2,W
06DEC:  MOVWF  00
06DEE:  BCF    FF2.6
06DF0:  BCF    FF2.7
06DF2:  MOVLB  F
06DF4:  MOVLW  55
06DF6:  MOVWF  FA7
06DF8:  MOVLW  AA
06DFA:  MOVWF  FA7
06DFC:  BSF    FA6.1
06DFE:  BTFSC  FA6.1
06E00:  BRA    6DFE
06E02:  BCF    FA6.2
06E04:  MOVF   00,W
06E06:  IORWF  FF2,F
....................       delay_ms(20); 
06E08:  MOVLW  14
06E0A:  MOVLB  6
06E0C:  MOVWF  xA8
06E0E:  MOVLB  0
06E10:  CALL   1D14
....................       reset_cpu(); 
06E14:  RESET
06E16:  MOVLB  3
....................    } 
....................     
....................    while(true){ 
....................       LeeDisplay(); 
06E18:  MOVLB  0
06E1A:  GOTO   4276
....................       Envio_Esclavos(); 
06E1E:  CALL   4658
....................       delay_ms(1); 
06E22:  MOVLW  01
06E24:  MOVLB  6
06E26:  MOVWF  xA8
06E28:  MOVLB  0
06E2A:  CALL   1D14
....................       //Lectura_Esclavos(); 
....................       restart_wdt(); 
06E2E:  CLRWDT
....................       if(!Esterilizando || Desfogando){ 
06E30:  BTFSS  xA0.3
06E32:  BRA    6E38
06E34:  BTFSS  xA0.6
06E36:  BRA    6E42
....................          CalculoImpresion=180; 
06E38:  MOVLW  B4
06E3A:  MOVLB  3
06E3C:  MOVWF  x3C
....................       }else{ 
06E3E:  BRA    6E48
06E40:  MOVLB  0
....................          CalculoImpresion=60; 
06E42:  MOVLW  3C
06E44:  MOVLB  3
06E46:  MOVWF  x3C
....................       } 
....................       graficaCurva(6000); 
06E48:  MOVLW  17
06E4A:  MOVLB  6
06E4C:  MOVWF  x97
06E4E:  MOVLW  70
06E50:  MOVWF  x96
06E52:  MOVLB  0
06E54:  GOTO   4698
....................       muestreo(20); 
06E58:  MOVLB  6
06E5A:  CLRF   x97
06E5C:  MOVLW  14
06E5E:  MOVWF  x96
06E60:  MOVLB  0
06E62:  GOTO   4AF0
....................       monitoreaAgua(); 
06E66:  GOTO   4CDE
....................       monitoreaStop(); 
06E6A:  GOTO   4E40
....................             
.................... //_-------------------------------------------------------------------------------------------------------------------------------------------------------- 
....................    if(Menu==240){ //Menu de Bienvenida. 
06E6E:  MOVLB  3
06E70:  MOVF   x41,W
06E72:  SUBLW  F0
06E74:  BNZ   6EBE
....................       printf("bkcmd=0"); 
06E76:  MOVLW  8E
06E78:  MOVWF  FF6
06E7A:  MOVLW  04
06E7C:  MOVWF  FF7
06E7E:  MOVLW  00
06E80:  MOVWF  FF8
06E82:  MOVLB  0
06E84:  CALL   37BA
....................       SendDataDisplay(); 
06E88:  CALL   37EC
....................       delay_ms(1500); 
06E8C:  MOVLW  06
06E8E:  MOVLB  6
06E90:  MOVWF  x96
06E92:  MOVLW  FA
06E94:  MOVWF  xA8
06E96:  MOVLB  0
06E98:  CALL   1D14
06E9C:  MOVLB  6
06E9E:  DECFSZ x96,F
06EA0:  BRA    6E92
....................       printf("page Clave"); 
06EA2:  MOVLW  96
06EA4:  MOVWF  FF6
06EA6:  MOVLW  04
06EA8:  MOVWF  FF7
06EAA:  MOVLW  00
06EAC:  MOVWF  FF8
06EAE:  MOVLB  0
06EB0:  CALL   37BA
....................       SendDataDisplay(); 
06EB4:  CALL   37EC
....................       ApagaSalidas(); 
06EB8:  CALL   3822
06EBC:  MOVLB  3
....................    } 
.................... //_-------------------------------------------------------------------------------------------------------------------------------------------------------- 
....................  
.................... //_-------------------------------------------------------------------------------------------------------------------------------------------------------- 
....................     if(Menu==0){ //Menu de Contrasea de acceso. 
06EBE:  MOVF   x41,F
06EC0:  BTFSS  FD8.2
06EC2:  GOTO   7948
....................       ApagaSalidas(); 
06EC6:  MOVLB  0
06EC8:  CALL   3822
....................       entro=OFF; 
06ECC:  BCF    xA5.4
....................       if(Digito==1){ 
06ECE:  MOVLB  2
06ED0:  DECFSZ xCD,W
06ED2:  BRA    6F20
....................          printf("t0.txt=\"%u\"",Contrasena[0]); 
06ED4:  MOVLW  A2
06ED6:  MOVWF  FF6
06ED8:  MOVLW  04
06EDA:  MOVWF  FF7
06EDC:  MOVLW  00
06EDE:  MOVWF  FF8
06EE0:  MOVLW  08
06EE2:  MOVLB  6
06EE4:  MOVWF  x9A
06EE6:  MOVLB  0
06EE8:  CALL   4EA0
06EEC:  MOVFF  367,698
06EF0:  MOVLW  1B
06EF2:  MOVLB  6
06EF4:  MOVWF  x99
06EF6:  MOVLB  0
06EF8:  CALL   4EFE
06EFC:  MOVLW  22
06EFE:  BTFSS  F9E.4
06F00:  BRA    6EFE
06F02:  MOVWF  FAD
....................          SendDataDisplay(); 
06F04:  CALL   37EC
....................          printf("va0.val=1"); 
06F08:  MOVLW  AE
06F0A:  MOVWF  FF6
06F0C:  MOVLW  04
06F0E:  MOVWF  FF7
06F10:  MOVLW  00
06F12:  MOVWF  FF8
06F14:  CALL   37BA
....................          SendDataDisplay(); 
06F18:  CALL   37EC
....................       }else if(Digito==2){ 
06F1C:  BRA    7072
06F1E:  MOVLB  2
06F20:  MOVF   xCD,W
06F22:  SUBLW  02
06F24:  BNZ   6F82
....................          printf("t0.txt=\"%u%u\"",Contrasena[0],Contrasena[1]); 
06F26:  MOVLW  B8
06F28:  MOVWF  FF6
06F2A:  MOVLW  04
06F2C:  MOVWF  FF7
06F2E:  MOVLW  00
06F30:  MOVWF  FF8
06F32:  MOVLW  08
06F34:  MOVLB  6
06F36:  MOVWF  x9A
06F38:  MOVLB  0
06F3A:  CALL   4EA0
06F3E:  MOVFF  367,698
06F42:  MOVLW  1B
06F44:  MOVLB  6
06F46:  MOVWF  x99
06F48:  MOVLB  0
06F4A:  CALL   4EFE
06F4E:  MOVFF  368,698
06F52:  MOVLW  1B
06F54:  MOVLB  6
06F56:  MOVWF  x99
06F58:  MOVLB  0
06F5A:  CALL   4EFE
06F5E:  MOVLW  22
06F60:  BTFSS  F9E.4
06F62:  BRA    6F60
06F64:  MOVWF  FAD
....................          SendDataDisplay(); 
06F66:  CALL   37EC
....................          printf("va0.val=2"); 
06F6A:  MOVLW  C6
06F6C:  MOVWF  FF6
06F6E:  MOVLW  04
06F70:  MOVWF  FF7
06F72:  MOVLW  00
06F74:  MOVWF  FF8
06F76:  CALL   37BA
....................          SendDataDisplay(); 
06F7A:  CALL   37EC
....................       }else if(Digito==3){ 
06F7E:  BRA    7072
06F80:  MOVLB  2
06F82:  MOVF   xCD,W
06F84:  SUBLW  03
06F86:  BNZ   6FF4
....................          printf("t0.txt=\"%u%u%u\"",Contrasena[0],Contrasena[1],Contrasena[2]); 
06F88:  MOVLW  D0
06F8A:  MOVWF  FF6
06F8C:  MOVLW  04
06F8E:  MOVWF  FF7
06F90:  MOVLW  00
06F92:  MOVWF  FF8
06F94:  MOVLW  08
06F96:  MOVLB  6
06F98:  MOVWF  x9A
06F9A:  MOVLB  0
06F9C:  CALL   4EA0
06FA0:  MOVFF  367,698
06FA4:  MOVLW  1B
06FA6:  MOVLB  6
06FA8:  MOVWF  x99
06FAA:  MOVLB  0
06FAC:  CALL   4EFE
06FB0:  MOVFF  368,698
06FB4:  MOVLW  1B
06FB6:  MOVLB  6
06FB8:  MOVWF  x99
06FBA:  MOVLB  0
06FBC:  CALL   4EFE
06FC0:  MOVFF  369,698
06FC4:  MOVLW  1B
06FC6:  MOVLB  6
06FC8:  MOVWF  x99
06FCA:  MOVLB  0
06FCC:  CALL   4EFE
06FD0:  MOVLW  22
06FD2:  BTFSS  F9E.4
06FD4:  BRA    6FD2
06FD6:  MOVWF  FAD
....................          SendDataDisplay(); 
06FD8:  CALL   37EC
....................          printf("va0.val=3"); 
06FDC:  MOVLW  E0
06FDE:  MOVWF  FF6
06FE0:  MOVLW  04
06FE2:  MOVWF  FF7
06FE4:  MOVLW  00
06FE6:  MOVWF  FF8
06FE8:  CALL   37BA
....................          SendDataDisplay(); 
06FEC:  CALL   37EC
....................       }else if(Digito==4){ 
06FF0:  BRA    7072
06FF2:  MOVLB  2
06FF4:  MOVF   xCD,W
06FF6:  SUBLW  04
06FF8:  BNZ   7074
....................          printf("t0.txt=\"%u%u%u%u\"",Contrasena[0],Contrasena[1],Contrasena[2],Contrasena[3]); 
06FFA:  MOVLW  EA
06FFC:  MOVWF  FF6
06FFE:  MOVLW  04
07000:  MOVWF  FF7
07002:  MOVLW  00
07004:  MOVWF  FF8
07006:  MOVLW  08
07008:  MOVLB  6
0700A:  MOVWF  x9A
0700C:  MOVLB  0
0700E:  CALL   4EA0
07012:  MOVFF  367,698
07016:  MOVLW  1B
07018:  MOVLB  6
0701A:  MOVWF  x99
0701C:  MOVLB  0
0701E:  CALL   4EFE
07022:  MOVFF  368,698
07026:  MOVLW  1B
07028:  MOVLB  6
0702A:  MOVWF  x99
0702C:  MOVLB  0
0702E:  CALL   4EFE
07032:  MOVFF  369,698
07036:  MOVLW  1B
07038:  MOVLB  6
0703A:  MOVWF  x99
0703C:  MOVLB  0
0703E:  CALL   4EFE
07042:  MOVFF  36A,698
07046:  MOVLW  1B
07048:  MOVLB  6
0704A:  MOVWF  x99
0704C:  MOVLB  0
0704E:  CALL   4EFE
07052:  MOVLW  22
07054:  BTFSS  F9E.4
07056:  BRA    7054
07058:  MOVWF  FAD
....................          SendDataDisplay(); 
0705A:  CALL   37EC
....................          printf("va0.val=4"); 
0705E:  MOVLW  FC
07060:  MOVWF  FF6
07062:  MOVLW  04
07064:  MOVWF  FF7
07066:  MOVLW  00
07068:  MOVWF  FF8
0706A:  CALL   37BA
....................          SendDataDisplay(); 
0706E:  CALL   37EC
07072:  MOVLB  2
....................       } 
....................        
....................       if(UP){ 
07074:  BSF    F93.0
07076:  BTFSC  F81.0
07078:  BRA    70C2
....................          delay_ms(200); 
0707A:  MOVLW  C8
0707C:  MOVLB  6
0707E:  MOVWF  xA8
07080:  MOVLB  0
07082:  CALL   1D14
....................          if(UP){ 
07086:  BSF    F93.0
07088:  BTFSC  F81.0
0708A:  BRA    70C4
....................          if(Digito==0) 
0708C:  MOVLB  2
0708E:  MOVF   xCD,F
07090:  BNZ   7096
....................             Digito=1; 
07092:  MOVLW  01
07094:  MOVWF  xCD
....................             if(Contrasena[Digito-1]<9) 
07096:  MOVLW  01
07098:  SUBWF  xCD,W
0709A:  CLRF   03
0709C:  ADDLW  67
0709E:  MOVWF  FE9
070A0:  MOVLW  03
070A2:  ADDWFC 03,W
070A4:  MOVWF  FEA
070A6:  BTFSC  FEF.7
070A8:  BRA    70B0
070AA:  MOVF   FEF,W
070AC:  SUBLW  08
070AE:  BNC   70C2
....................                Contrasena[Digito-1]++; 
070B0:  MOVLW  01
070B2:  SUBWF  xCD,W
070B4:  CLRF   03
070B6:  ADDLW  67
070B8:  MOVWF  FE9
070BA:  MOVLW  03
070BC:  ADDWFC 03,W
070BE:  MOVWF  FEA
070C0:  INCF   FEF,F
070C2:  MOVLB  0
....................          } 
....................       } 
....................        
....................       if(DOWN){ 
070C4:  BSF    F93.1
070C6:  BTFSC  F81.1
070C8:  BRA    7114
....................          delay_ms(200); 
070CA:  MOVLW  C8
070CC:  MOVLB  6
070CE:  MOVWF  xA8
070D0:  MOVLB  0
070D2:  CALL   1D14
....................          if(Digito==0) 
070D6:  MOVLB  2
070D8:  MOVF   xCD,F
070DA:  BNZ   70E0
....................             Digito=1; 
070DC:  MOVLW  01
070DE:  MOVWF  xCD
....................          if(DOWN){ 
070E0:  BSF    F93.1
070E2:  BTFSC  F81.1
070E4:  BRA    7112
....................             if(Contrasena[Digito-1]>0) 
070E6:  MOVLW  01
070E8:  SUBWF  xCD,W
070EA:  CLRF   03
070EC:  ADDLW  67
070EE:  MOVWF  FE9
070F0:  MOVLW  03
070F2:  ADDWFC 03,W
070F4:  MOVWF  FEA
070F6:  BTFSC  FEF.7
070F8:  BRA    7112
070FA:  MOVF   FEF,W
070FC:  SUBLW  00
070FE:  BC    7112
....................                Contrasena[Digito-1]--; 
07100:  MOVLW  01
07102:  SUBWF  xCD,W
07104:  CLRF   03
07106:  ADDLW  67
07108:  MOVWF  FE9
0710A:  MOVLW  03
0710C:  ADDWFC 03,W
0710E:  MOVWF  FEA
07110:  DECF   FEF,F
07112:  MOVLB  0
....................          } 
....................       } 
....................        
....................       if(RIGHT){ 
07114:  BSF    F93.2
07116:  BTFSC  F81.2
07118:  BRA    7132
....................          delay_ms(200); 
0711A:  MOVLW  C8
0711C:  MOVLB  6
0711E:  MOVWF  xA8
07120:  MOVLB  0
07122:  CALL   1D14
....................          if(RIGHT){ 
07126:  BSF    F93.2
07128:  BTFSC  F81.2
0712A:  BRA    7132
....................             Digito++; 
0712C:  MOVLB  2
0712E:  INCF   xCD,F
07130:  MOVLB  0
....................          } 
....................       } 
....................        
....................       if(Digito>4){ 
07132:  MOVLB  2
07134:  MOVF   xCD,W
07136:  SUBLW  04
07138:  BTFSC  FD8.0
0713A:  BRA    748C
....................       Digito=0; 
0713C:  CLRF   xCD
....................       printf("t0.txt=\"\""); 
0713E:  MOVLW  06
07140:  MOVWF  FF6
07142:  MOVLW  05
07144:  MOVWF  FF7
07146:  MOVLW  00
07148:  MOVWF  FF8
0714A:  MOVLB  0
0714C:  CALL   37BA
....................       SendDataDisplay(); 
07150:  CALL   37EC
....................          if(TipoClave==0){ 
07154:  MOVLB  2
07156:  MOVF   xCB,F
07158:  BTFSS  FD8.2
0715A:  BRA    72AA
....................             if(Contrasena[0]==3&&Contrasena[1]==8&&Contrasena[2]==9&&Contrasena[3]==2){ // Si Ingresa clave para reset general del sistema. 
0715C:  MOVLB  3
0715E:  MOVF   x67,W
07160:  SUBLW  03
07162:  BTFSS  FD8.2
07164:  BRA    725E
07166:  MOVF   x68,W
07168:  SUBLW  08
0716A:  BTFSS  FD8.2
0716C:  BRA    725E
0716E:  MOVF   x69,W
07170:  SUBLW  09
07172:  BNZ   725E
07174:  MOVF   x6A,W
07176:  SUBLW  02
07178:  BNZ   725E
....................                write_eeprom(10,0);delay_ms(20);write_eeprom(11,0);delay_ms(20);// Reestablece a contrasea de Fabrica y reinicia Programa. 
0717A:  CLRF   FAA
0717C:  MOVLW  0A
0717E:  MOVWF  FA9
07180:  CLRF   FA8
07182:  BCF    FA6.6
07184:  BCF    FA6.7
07186:  BSF    FA6.2
07188:  MOVF   FF2,W
0718A:  MOVWF  00
0718C:  BCF    FF2.6
0718E:  BCF    FF2.7
07190:  MOVLB  F
07192:  MOVLW  55
07194:  MOVWF  FA7
07196:  MOVLW  AA
07198:  MOVWF  FA7
0719A:  BSF    FA6.1
0719C:  BTFSC  FA6.1
0719E:  BRA    719C
071A0:  BCF    FA6.2
071A2:  MOVF   00,W
071A4:  IORWF  FF2,F
071A6:  MOVLW  14
071A8:  MOVLB  6
071AA:  MOVWF  xA8
071AC:  MOVLB  0
071AE:  CALL   1D14
071B2:  CLRF   FAA
071B4:  MOVLW  0B
071B6:  MOVWF  FA9
071B8:  CLRF   FA8
071BA:  BCF    FA6.6
071BC:  BCF    FA6.7
071BE:  BSF    FA6.2
071C0:  MOVF   FF2,W
071C2:  MOVWF  00
071C4:  BCF    FF2.6
071C6:  BCF    FF2.7
071C8:  MOVLB  F
071CA:  MOVLW  55
071CC:  MOVWF  FA7
071CE:  MOVLW  AA
071D0:  MOVWF  FA7
071D2:  BSF    FA6.1
071D4:  BTFSC  FA6.1
071D6:  BRA    71D4
071D8:  BCF    FA6.2
071DA:  MOVF   00,W
071DC:  IORWF  FF2,F
071DE:  MOVLW  14
071E0:  MOVLB  6
071E2:  MOVWF  xA8
071E4:  MOVLB  0
071E6:  CALL   1D14
....................                write_eeprom(12,0);delay_ms(20);write_eeprom(13,0);delay_ms(20); 
071EA:  CLRF   FAA
071EC:  MOVLW  0C
071EE:  MOVWF  FA9
071F0:  CLRF   FA8
071F2:  BCF    FA6.6
071F4:  BCF    FA6.7
071F6:  BSF    FA6.2
071F8:  MOVF   FF2,W
071FA:  MOVWF  00
071FC:  BCF    FF2.6
071FE:  BCF    FF2.7
07200:  MOVLB  F
07202:  MOVLW  55
07204:  MOVWF  FA7
07206:  MOVLW  AA
07208:  MOVWF  FA7
0720A:  BSF    FA6.1
0720C:  BTFSC  FA6.1
0720E:  BRA    720C
07210:  BCF    FA6.2
07212:  MOVF   00,W
07214:  IORWF  FF2,F
07216:  MOVLW  14
07218:  MOVLB  6
0721A:  MOVWF  xA8
0721C:  MOVLB  0
0721E:  CALL   1D14
07222:  CLRF   FAA
07224:  MOVLW  0D
07226:  MOVWF  FA9
07228:  CLRF   FA8
0722A:  BCF    FA6.6
0722C:  BCF    FA6.7
0722E:  BSF    FA6.2
07230:  MOVF   FF2,W
07232:  MOVWF  00
07234:  BCF    FF2.6
07236:  BCF    FF2.7
07238:  MOVLB  F
0723A:  MOVLW  55
0723C:  MOVWF  FA7
0723E:  MOVLW  AA
07240:  MOVWF  FA7
07242:  BSF    FA6.1
07244:  BTFSC  FA6.1
07246:  BRA    7244
07248:  BCF    FA6.2
0724A:  MOVF   00,W
0724C:  IORWF  FF2,F
0724E:  MOVLW  14
07250:  MOVLB  6
07252:  MOVWF  xA8
07254:  MOVLB  0
07256:  CALL   1D14
....................                reset_cpu(); 
0725A:  RESET
0725C:  MOVLB  3
....................             } 
....................             if((Contrasena[0]==Password[0])&&(Contrasena[1]==Password[1])&&(Contrasena[2]==Password[2])&&(Contrasena[3]==Password[3])){ 
0725E:  MOVF   x6B,W
07260:  SUBWF  x67,W
07262:  BNZ   7290
07264:  MOVF   x6C,W
07266:  SUBWF  x68,W
07268:  BNZ   7290
0726A:  MOVF   x6D,W
0726C:  SUBWF  x69,W
0726E:  BNZ   7290
07270:  MOVF   x6E,W
07272:  SUBWF  x6A,W
07274:  BNZ   7290
....................                printf("page ClaveCorrecta"); 
07276:  MOVLW  10
07278:  MOVWF  FF6
0727A:  MOVLW  05
0727C:  MOVWF  FF7
0727E:  MOVLW  00
07280:  MOVWF  FF8
07282:  MOVLB  0
07284:  CALL   37BA
....................                SendDataDisplay(); 
07288:  CALL   37EC
....................             }else{ 
0728C:  BRA    72A6
0728E:  MOVLB  3
....................                printf("page ClaveBad"); 
07290:  MOVLW  24
07292:  MOVWF  FF6
07294:  MOVLW  05
07296:  MOVWF  FF7
07298:  MOVLW  00
0729A:  MOVWF  FF8
0729C:  MOVLB  0
0729E:  CALL   37BA
....................                SendDataDisplay(); 
072A2:  CALL   37EC
....................             }  
....................          }else if(TipoClave==1){ 
072A6:  BRA    748A
072A8:  MOVLB  2
072AA:  DECFSZ xCB,W
072AC:  BRA    72FC
....................             if(Contrasena[0]==4&&Contrasena[1]==4&&Contrasena[2]==4&&Contrasena[3]==4){ // Si Ingresa clave de Servicio Tecnico 
072AE:  MOVLB  3
072B0:  MOVF   x67,W
072B2:  SUBLW  04
072B4:  BNZ   72E2
072B6:  MOVF   x68,W
072B8:  SUBLW  04
072BA:  BNZ   72E2
072BC:  MOVF   x69,W
072BE:  SUBLW  04
072C0:  BNZ   72E2
072C2:  MOVF   x6A,W
072C4:  SUBLW  04
072C6:  BNZ   72E2
....................                printf("page Config"); 
072C8:  MOVLW  32
072CA:  MOVWF  FF6
072CC:  MOVLW  05
072CE:  MOVWF  FF7
072D0:  MOVLW  00
072D2:  MOVWF  FF8
072D4:  MOVLB  0
072D6:  CALL   37BA
....................                SendDataDisplay(); 
072DA:  CALL   37EC
....................             }else{ 
072DE:  BRA    72F8
072E0:  MOVLB  3
....................                printf("page MenuPrincipal"); 
072E2:  MOVLW  3E
072E4:  MOVWF  FF6
072E6:  MOVLW  05
072E8:  MOVWF  FF7
072EA:  MOVLW  00
072EC:  MOVWF  FF8
072EE:  MOVLB  0
072F0:  CALL   37BA
....................                SendDataDisplay(); 
072F4:  CALL   37EC
....................             } 
....................          }else if(TipoClave==2){ 
072F8:  BRA    748A
072FA:  MOVLB  2
072FC:  MOVF   xCB,W
072FE:  SUBLW  02
07300:  BNZ   736A
....................             if((Contrasena[0]==Password[0])&&(Contrasena[1]==Password[1])&&(Contrasena[2]==Password[2])&&(Contrasena[3]==Password[3])){ 
07302:  MOVLB  3
07304:  MOVF   x6B,W
07306:  SUBWF  x67,W
07308:  BNZ   7350
0730A:  MOVF   x6C,W
0730C:  SUBWF  x68,W
0730E:  BNZ   7350
07310:  MOVF   x6D,W
07312:  SUBWF  x69,W
07314:  BNZ   7350
07316:  MOVF   x6E,W
07318:  SUBWF  x6A,W
0731A:  BNZ   7350
....................                printf("page Clave"); 
0731C:  MOVLW  52
0731E:  MOVWF  FF6
07320:  MOVLW  05
07322:  MOVWF  FF7
07324:  MOVLW  00
07326:  MOVWF  FF8
07328:  MOVLB  0
0732A:  CALL   37BA
....................                SendDataDisplay(); 
0732E:  CALL   37EC
....................                printf("titulo.txt=\"Clave Nueva\""); 
07332:  MOVLW  5E
07334:  MOVWF  FF6
07336:  MOVLW  05
07338:  MOVWF  FF7
0733A:  MOVLW  00
0733C:  MOVWF  FF8
0733E:  CALL   37BA
....................                SendDataDisplay(); 
07342:  CALL   37EC
....................                TipoClave=3; 
07346:  MOVLW  03
07348:  MOVLB  2
0734A:  MOVWF  xCB
....................             }else{ 
0734C:  BRA    7368
0734E:  MOVLB  3
....................                printf("page MenuPrincipal"); 
07350:  MOVLW  78
07352:  MOVWF  FF6
07354:  MOVLW  05
07356:  MOVWF  FF7
07358:  MOVLW  00
0735A:  MOVWF  FF8
0735C:  MOVLB  0
0735E:  CALL   37BA
....................                SendDataDisplay(); 
07362:  CALL   37EC
07366:  MOVLB  2
....................             }  
....................          }else if(TipoClave==3){ 
07368:  BRA    748C
0736A:  MOVF   xCB,W
0736C:  SUBLW  03
0736E:  BTFSS  FD8.2
07370:  BRA    748C
....................             printf("titulo.txt=\"Clave Nueva\""); 
07372:  MOVLW  8C
07374:  MOVWF  FF6
07376:  MOVLW  05
07378:  MOVWF  FF7
0737A:  MOVLW  00
0737C:  MOVWF  FF8
0737E:  MOVLB  0
07380:  CALL   37BA
....................             SendDataDisplay(); 
07384:  CALL   37EC
....................             printf("page MenuPrincipal"); 
07388:  MOVLW  A6
0738A:  MOVWF  FF6
0738C:  MOVLW  05
0738E:  MOVWF  FF7
07390:  MOVLW  00
07392:  MOVWF  FF8
07394:  CALL   37BA
....................             SendDataDisplay(); 
07398:  CALL   37EC
....................             if(!GuardaEEPROM){ 
0739C:  BTFSC  xA2.2
0739E:  BRA    748A
....................                write_eeprom(10,Contrasena[0]);delay_ms(20);write_eeprom(11,Contrasena[1]);delay_ms(20); 
073A0:  CLRF   FAA
073A2:  MOVLW  0A
073A4:  MOVWF  FA9
073A6:  MOVFF  367,FA8
073AA:  BCF    FA6.6
073AC:  BCF    FA6.7
073AE:  BSF    FA6.2
073B0:  MOVF   FF2,W
073B2:  MOVWF  00
073B4:  BCF    FF2.6
073B6:  BCF    FF2.7
073B8:  MOVLB  F
073BA:  MOVLW  55
073BC:  MOVWF  FA7
073BE:  MOVLW  AA
073C0:  MOVWF  FA7
073C2:  BSF    FA6.1
073C4:  BTFSC  FA6.1
073C6:  BRA    73C4
073C8:  BCF    FA6.2
073CA:  MOVF   00,W
073CC:  IORWF  FF2,F
073CE:  MOVLW  14
073D0:  MOVLB  6
073D2:  MOVWF  xA8
073D4:  MOVLB  0
073D6:  CALL   1D14
073DA:  CLRF   FAA
073DC:  MOVLW  0B
073DE:  MOVWF  FA9
073E0:  MOVFF  368,FA8
073E4:  BCF    FA6.6
073E6:  BCF    FA6.7
073E8:  BSF    FA6.2
073EA:  MOVF   FF2,W
073EC:  MOVWF  00
073EE:  BCF    FF2.6
073F0:  BCF    FF2.7
073F2:  MOVLB  F
073F4:  MOVLW  55
073F6:  MOVWF  FA7
073F8:  MOVLW  AA
073FA:  MOVWF  FA7
073FC:  BSF    FA6.1
073FE:  BTFSC  FA6.1
07400:  BRA    73FE
07402:  BCF    FA6.2
07404:  MOVF   00,W
07406:  IORWF  FF2,F
07408:  MOVLW  14
0740A:  MOVLB  6
0740C:  MOVWF  xA8
0740E:  MOVLB  0
07410:  CALL   1D14
....................                write_eeprom(12,Contrasena[2]);delay_ms(20);write_eeprom(13,Contrasena[3]);delay_ms(20); 
07414:  CLRF   FAA
07416:  MOVLW  0C
07418:  MOVWF  FA9
0741A:  MOVFF  369,FA8
0741E:  BCF    FA6.6
07420:  BCF    FA6.7
07422:  BSF    FA6.2
07424:  MOVF   FF2,W
07426:  MOVWF  00
07428:  BCF    FF2.6
0742A:  BCF    FF2.7
0742C:  MOVLB  F
0742E:  MOVLW  55
07430:  MOVWF  FA7
07432:  MOVLW  AA
07434:  MOVWF  FA7
07436:  BSF    FA6.1
07438:  BTFSC  FA6.1
0743A:  BRA    7438
0743C:  BCF    FA6.2
0743E:  MOVF   00,W
07440:  IORWF  FF2,F
07442:  MOVLW  14
07444:  MOVLB  6
07446:  MOVWF  xA8
07448:  MOVLB  0
0744A:  CALL   1D14
0744E:  CLRF   FAA
07450:  MOVLW  0D
07452:  MOVWF  FA9
07454:  MOVFF  36A,FA8
07458:  BCF    FA6.6
0745A:  BCF    FA6.7
0745C:  BSF    FA6.2
0745E:  MOVF   FF2,W
07460:  MOVWF  00
07462:  BCF    FF2.6
07464:  BCF    FF2.7
07466:  MOVLB  F
07468:  MOVLW  55
0746A:  MOVWF  FA7
0746C:  MOVLW  AA
0746E:  MOVWF  FA7
07470:  BSF    FA6.1
07472:  BTFSC  FA6.1
07474:  BRA    7472
07476:  BCF    FA6.2
07478:  MOVF   00,W
0747A:  IORWF  FF2,F
0747C:  MOVLW  14
0747E:  MOVLB  6
07480:  MOVWF  xA8
07482:  MOVLB  0
07484:  CALL   1D14
....................                GuardaEEPROM=ON; 
07488:  BSF    xA2.2
0748A:  MOVLB  2
....................             } 
....................          } 
....................       } 
....................        
....................       if(RX_Buffer[4]==0x11){//11 
0748C:  MOVF   34,W
0748E:  SUBLW  11
07490:  BNZ   74B0
....................          if(TipoClave!=0){ 
07492:  MOVF   xCB,F
07494:  BZ    74B0
....................             printf("page MenuPrincipal"); 
07496:  MOVLW  BA
07498:  MOVWF  FF6
0749A:  MOVLW  05
0749C:  MOVWF  FF7
0749E:  MOVLW  00
074A0:  MOVWF  FF8
074A2:  MOVLB  0
074A4:  CALL   37BA
....................             SendDataDisplay(); 
074A8:  CALL   37EC
....................             PantallaPrincipal=0; 
074AC:  MOVLB  2
074AE:  CLRF   xCA
....................          } 
....................       } 
....................        
....................       if(TipoClave==3){ 
074B0:  MOVF   xCB,W
074B2:  SUBLW  03
074B4:  BNZ   74E4
....................          printf("titulo.txt=\"Clave Nueva\""); 
074B6:  MOVLW  CE
074B8:  MOVWF  FF6
074BA:  MOVLW  05
074BC:  MOVWF  FF7
074BE:  MOVLW  00
074C0:  MOVWF  FF8
074C2:  MOVLB  0
074C4:  CALL   37BA
....................          SendDataDisplay(); 
074C8:  CALL   37EC
....................          printf("doevents"); 
074CC:  MOVLW  E8
074CE:  MOVWF  FF6
074D0:  MOVLW  05
074D2:  MOVWF  FF7
074D4:  MOVLW  00
074D6:  MOVWF  FF8
074D8:  CALL   37BA
....................          SendDataDisplay(); 
074DC:  CALL   37EC
....................       }else if(TipoClave==2){ 
074E0:  BRA    7564
074E2:  MOVLB  2
074E4:  MOVF   xCB,W
074E6:  SUBLW  02
074E8:  BNZ   7518
....................          printf("titulo.txt=\"Clave Actual\""); 
074EA:  MOVLW  F2
074EC:  MOVWF  FF6
074EE:  MOVLW  05
074F0:  MOVWF  FF7
074F2:  MOVLW  00
074F4:  MOVWF  FF8
074F6:  MOVLB  0
074F8:  CALL   37BA
....................          SendDataDisplay(); 
074FC:  CALL   37EC
....................          printf("doevents"); 
07500:  MOVLW  0C
07502:  MOVWF  FF6
07504:  MOVLW  06
07506:  MOVWF  FF7
07508:  MOVLW  00
0750A:  MOVWF  FF8
0750C:  CALL   37BA
....................          SendDataDisplay(); 
07510:  CALL   37EC
....................       }else if(TipoClave==1){ 
07514:  BRA    7564
07516:  MOVLB  2
07518:  DECFSZ xCB,W
0751A:  BRA    754A
....................          printf("titulo.txt=\"Clave Tecnico\""); 
0751C:  MOVLW  16
0751E:  MOVWF  FF6
07520:  MOVLW  06
07522:  MOVWF  FF7
07524:  MOVLW  00
07526:  MOVWF  FF8
07528:  MOVLB  0
0752A:  CALL   37BA
....................          SendDataDisplay(); 
0752E:  CALL   37EC
....................          printf("doevents"); 
07532:  MOVLW  32
07534:  MOVWF  FF6
07536:  MOVLW  06
07538:  MOVWF  FF7
0753A:  MOVLW  00
0753C:  MOVWF  FF8
0753E:  CALL   37BA
....................          SendDataDisplay(); 
07542:  CALL   37EC
....................       }else if(TipoClave==0){ 
07546:  BRA    7564
07548:  MOVLB  2
0754A:  MOVF   xCB,F
0754C:  BNZ   7566
....................          printf("titulo.txt=\"Ingrese Contrasea\""); 
0754E:  MOVLW  3C
07550:  MOVWF  FF6
07552:  MOVLW  06
07554:  MOVWF  FF7
07556:  MOVLW  00
07558:  MOVWF  FF8
0755A:  MOVLB  0
0755C:  CALL   37BA
....................          SendDataDisplay(); 
07560:  CALL   37EC
07564:  MOVLB  2
....................       } 
....................        
....................       if(RX_Buffer[3]==0x0f){//0f, recibe caracteres ingresados desde el Display 
07566:  MOVF   33,W
07568:  SUBLW  0F
0756A:  BTFSS  FD8.2
0756C:  BRA    7946
....................          if(TipoClave==0){ 
0756E:  MOVF   xCB,F
07570:  BTFSS  FD8.2
07572:  BRA    7702
....................             if(RX_Buffer[4]==0x33&&RX_Buffer[5]==0x38&&RX_Buffer[6]==0x39&&RX_Buffer[7]==0x32){ // Si Ingresa clave para reset general del sistema. 
07574:  MOVF   34,W
07576:  SUBLW  33
07578:  BTFSS  FD8.2
0757A:  BRA    7674
0757C:  MOVF   35,W
0757E:  SUBLW  38
07580:  BTFSS  FD8.2
07582:  BRA    7674
07584:  MOVF   36,W
07586:  SUBLW  39
07588:  BNZ   7674
0758A:  MOVF   37,W
0758C:  SUBLW  32
0758E:  BNZ   7674
....................                write_eeprom(10,0);delay_ms(20);write_eeprom(11,0);delay_ms(20);// Reestablece a contrasea de Fabrica y reinicia Programa. 
07590:  CLRF   FAA
07592:  MOVLW  0A
07594:  MOVWF  FA9
07596:  CLRF   FA8
07598:  BCF    FA6.6
0759A:  BCF    FA6.7
0759C:  BSF    FA6.2
0759E:  MOVF   FF2,W
075A0:  MOVWF  00
075A2:  BCF    FF2.6
075A4:  BCF    FF2.7
075A6:  MOVLB  F
075A8:  MOVLW  55
075AA:  MOVWF  FA7
075AC:  MOVLW  AA
075AE:  MOVWF  FA7
075B0:  BSF    FA6.1
075B2:  BTFSC  FA6.1
075B4:  BRA    75B2
075B6:  BCF    FA6.2
075B8:  MOVF   00,W
075BA:  IORWF  FF2,F
075BC:  MOVLW  14
075BE:  MOVLB  6
075C0:  MOVWF  xA8
075C2:  MOVLB  0
075C4:  CALL   1D14
075C8:  CLRF   FAA
075CA:  MOVLW  0B
075CC:  MOVWF  FA9
075CE:  CLRF   FA8
075D0:  BCF    FA6.6
075D2:  BCF    FA6.7
075D4:  BSF    FA6.2
075D6:  MOVF   FF2,W
075D8:  MOVWF  00
075DA:  BCF    FF2.6
075DC:  BCF    FF2.7
075DE:  MOVLB  F
075E0:  MOVLW  55
075E2:  MOVWF  FA7
075E4:  MOVLW  AA
075E6:  MOVWF  FA7
075E8:  BSF    FA6.1
075EA:  BTFSC  FA6.1
075EC:  BRA    75EA
075EE:  BCF    FA6.2
075F0:  MOVF   00,W
075F2:  IORWF  FF2,F
075F4:  MOVLW  14
075F6:  MOVLB  6
075F8:  MOVWF  xA8
075FA:  MOVLB  0
075FC:  CALL   1D14
....................                write_eeprom(12,0);delay_ms(20);write_eeprom(13,0);delay_ms(20); 
07600:  CLRF   FAA
07602:  MOVLW  0C
07604:  MOVWF  FA9
07606:  CLRF   FA8
07608:  BCF    FA6.6
0760A:  BCF    FA6.7
0760C:  BSF    FA6.2
0760E:  MOVF   FF2,W
07610:  MOVWF  00
07612:  BCF    FF2.6
07614:  BCF    FF2.7
07616:  MOVLB  F
07618:  MOVLW  55
0761A:  MOVWF  FA7
0761C:  MOVLW  AA
0761E:  MOVWF  FA7
07620:  BSF    FA6.1
07622:  BTFSC  FA6.1
07624:  BRA    7622
07626:  BCF    FA6.2
07628:  MOVF   00,W
0762A:  IORWF  FF2,F
0762C:  MOVLW  14
0762E:  MOVLB  6
07630:  MOVWF  xA8
07632:  MOVLB  0
07634:  CALL   1D14
07638:  CLRF   FAA
0763A:  MOVLW  0D
0763C:  MOVWF  FA9
0763E:  CLRF   FA8
07640:  BCF    FA6.6
07642:  BCF    FA6.7
07644:  BSF    FA6.2
07646:  MOVF   FF2,W
07648:  MOVWF  00
0764A:  BCF    FF2.6
0764C:  BCF    FF2.7
0764E:  MOVLB  F
07650:  MOVLW  55
07652:  MOVWF  FA7
07654:  MOVLW  AA
07656:  MOVWF  FA7
07658:  BSF    FA6.1
0765A:  BTFSC  FA6.1
0765C:  BRA    765A
0765E:  BCF    FA6.2
07660:  MOVF   00,W
07662:  IORWF  FF2,F
07664:  MOVLW  14
07666:  MOVLB  6
07668:  MOVWF  xA8
0766A:  MOVLB  0
0766C:  CALL   1D14
....................                reset_cpu(); 
07670:  RESET
07672:  MOVLB  2
....................             } 
....................             if(RX_Buffer[4]>=0x30 && RX_Buffer[5]>=0x30 && RX_Buffer[6]>=0x30 && RX_Buffer[7]>=0x30 
....................             && RX_Buffer[4]<=0x39 && RX_Buffer[5]<=0x39 && RX_Buffer[6]<=0x39 && RX_Buffer[7]<=0x39){ 
07674:  MOVF   34,W
07676:  SUBLW  2F
07678:  BC    7700
0767A:  MOVF   35,W
0767C:  SUBLW  2F
0767E:  BC    7700
07680:  MOVF   36,W
07682:  SUBLW  2F
07684:  BC    7700
07686:  MOVF   37,W
07688:  SUBLW  2F
0768A:  BC    7700
0768C:  MOVF   34,W
0768E:  SUBLW  39
07690:  BNC   7700
07692:  MOVF   35,W
07694:  SUBLW  39
07696:  BNC   7700
07698:  MOVF   36,W
0769A:  SUBLW  39
0769C:  BNC   7700
0769E:  MOVF   37,W
076A0:  SUBLW  39
076A2:  BNC   7700
....................             if((RX_Buffer[4]==Password[0]+0x30)&&(RX_Buffer[5]==Password[1]+0x30)&&(RX_Buffer[6]==Password[2]+0x30)&&(RX_Buffer[7]==Password[3]+0x30)){ 
076A4:  MOVLW  30
076A6:  MOVLB  3
076A8:  ADDWF  x6B,W
076AA:  SUBWF  34,W
076AC:  BNZ   76E4
076AE:  MOVLW  30
076B0:  ADDWF  x6C,W
076B2:  SUBWF  35,W
076B4:  BNZ   76E4
076B6:  MOVLW  30
076B8:  ADDWF  x6D,W
076BA:  SUBWF  36,W
076BC:  BNZ   76E4
076BE:  MOVLW  30
076C0:  ADDWF  x6E,W
076C2:  SUBWF  37,W
076C4:  BNZ   76E4
....................                   printf("page ClaveCorrecta"); 
076C6:  MOVLW  5C
076C8:  MOVWF  FF6
076CA:  MOVLW  06
076CC:  MOVWF  FF7
076CE:  MOVLW  00
076D0:  MOVWF  FF8
076D2:  MOVLB  0
076D4:  CALL   37BA
....................                   SendDataDisplay(); 
076D8:  CALL   37EC
....................                   RX_Buffer[3]=0x00;RX_Buffer2[3]=0x00;   
076DC:  CLRF   33
076DE:  CLRF   3E
....................                }else{ 
076E0:  BRA    76FE
076E2:  MOVLB  3
....................                   printf("page ClaveBad"); 
076E4:  MOVLW  70
076E6:  MOVWF  FF6
076E8:  MOVLW  06
076EA:  MOVWF  FF7
076EC:  MOVLW  00
076EE:  MOVWF  FF8
076F0:  MOVLB  0
076F2:  CALL   37BA
....................                   SendDataDisplay(); 
076F6:  CALL   37EC
....................                   RX_Buffer[3]=0x00;RX_Buffer2[3]=0x00;   
076FA:  CLRF   33
076FC:  CLRF   3E
076FE:  MOVLB  2
....................                }  
....................             } 
....................          }else if(TipoClave==1){ 
07700:  BRA    7946
07702:  DECFSZ xCB,W
07704:  BRA    7752
....................             if(RX_Buffer[4]==0x34&&RX_Buffer[5]==0x34&&RX_Buffer[6]==0x34&&RX_Buffer[7]==0x34){ // Si Ingresa clave de Servicio Tecnico 
07706:  MOVF   34,W
07708:  SUBLW  34
0770A:  BNZ   7738
0770C:  MOVF   35,W
0770E:  SUBLW  34
07710:  BNZ   7738
07712:  MOVF   36,W
07714:  SUBLW  34
07716:  BNZ   7738
07718:  MOVF   37,W
0771A:  SUBLW  34
0771C:  BNZ   7738
....................                printf("page Config"); 
0771E:  MOVLW  7E
07720:  MOVWF  FF6
07722:  MOVLW  06
07724:  MOVWF  FF7
07726:  MOVLW  00
07728:  MOVWF  FF8
0772A:  MOVLB  0
0772C:  CALL   37BA
....................                SendDataDisplay(); 
07730:  CALL   37EC
....................             }else{ 
07734:  BRA    774E
07736:  MOVLB  2
....................                printf("page MenuPrincipal"); 
07738:  MOVLW  8A
0773A:  MOVWF  FF6
0773C:  MOVLW  06
0773E:  MOVWF  FF7
07740:  MOVLW  00
07742:  MOVWF  FF8
07744:  MOVLB  0
07746:  CALL   37BA
....................                SendDataDisplay(); 
0774A:  CALL   37EC
....................             } 
....................          }else if(TipoClave==2){ 
0774E:  BRA    7944
07750:  MOVLB  2
07752:  MOVF   xCB,W
07754:  SUBLW  02
07756:  BNZ   7800
....................             if(RX_Buffer[4]>=0x30 && RX_Buffer[5]>=0x30 && RX_Buffer[6]>=0x30 && RX_Buffer[7]>=0x30 
....................             && RX_Buffer[4]<=0x39 && RX_Buffer[5]<=0x39 && RX_Buffer[6]<=0x39 && RX_Buffer[7]<=0x39){ 
07758:  MOVF   34,W
0775A:  SUBLW  2F
0775C:  BC    77FE
0775E:  MOVF   35,W
07760:  SUBLW  2F
07762:  BC    77FE
07764:  MOVF   36,W
07766:  SUBLW  2F
07768:  BC    77FE
0776A:  MOVF   37,W
0776C:  SUBLW  2F
0776E:  BC    77FE
07770:  MOVF   34,W
07772:  SUBLW  39
07774:  BNC   77FE
07776:  MOVF   35,W
07778:  SUBLW  39
0777A:  BNC   77FE
0777C:  MOVF   36,W
0777E:  SUBLW  39
07780:  BNC   77FE
07782:  MOVF   37,W
07784:  SUBLW  39
07786:  BNC   77FE
....................             if((RX_Buffer[4]==Password[0]+0x30)&&(RX_Buffer[5]==Password[1]+0x30)&&(RX_Buffer[6]==Password[2]+0x30)&&(RX_Buffer[7]==Password[3]+0x30)){ 
07788:  MOVLW  30
0778A:  MOVLB  3
0778C:  ADDWF  x6B,W
0778E:  SUBWF  34,W
07790:  BNZ   77E2
07792:  MOVLW  30
07794:  ADDWF  x6C,W
07796:  SUBWF  35,W
07798:  BNZ   77E2
0779A:  MOVLW  30
0779C:  ADDWF  x6D,W
0779E:  SUBWF  36,W
077A0:  BNZ   77E2
077A2:  MOVLW  30
077A4:  ADDWF  x6E,W
077A6:  SUBWF  37,W
077A8:  BNZ   77E2
....................                printf("page Clave"); 
077AA:  MOVLW  9E
077AC:  MOVWF  FF6
077AE:  MOVLW  06
077B0:  MOVWF  FF7
077B2:  MOVLW  00
077B4:  MOVWF  FF8
077B6:  MOVLB  0
077B8:  CALL   37BA
....................                SendDataDisplay(); 
077BC:  CALL   37EC
....................                printf("titulo.txt=\"Clave Nueva\""); 
077C0:  MOVLW  AA
077C2:  MOVWF  FF6
077C4:  MOVLW  06
077C6:  MOVWF  FF7
077C8:  MOVLW  00
077CA:  MOVWF  FF8
077CC:  CALL   37BA
....................                SendDataDisplay(); 
077D0:  CALL   37EC
....................                TipoClave=3; 
077D4:  MOVLW  03
077D6:  MOVLB  2
077D8:  MOVWF  xCB
....................                RX_Buffer[3]=0x00; 
077DA:  CLRF   33
....................                RX_Buffer2[3]=0x00; 
077DC:  CLRF   3E
....................             }else{ 
077DE:  BRA    77FE
077E0:  MOVLB  3
....................                printf("page MenuPrincipal"); 
077E2:  MOVLW  C4
077E4:  MOVWF  FF6
077E6:  MOVLW  06
077E8:  MOVWF  FF7
077EA:  MOVLW  00
077EC:  MOVWF  FF8
077EE:  MOVLB  0
077F0:  CALL   37BA
....................                SendDataDisplay(); 
077F4:  CALL   37EC
....................                RX_Buffer[3]=0x00; 
077F8:  CLRF   33
....................                RX_Buffer2[3]=0x00; 
077FA:  CLRF   3E
077FC:  MOVLB  2
....................             }  
....................             } 
....................          }else if(TipoClave==3){ 
077FE:  BRA    7946
07800:  MOVF   xCB,W
07802:  SUBLW  03
07804:  BTFSS  FD8.2
07806:  BRA    7946
....................             printf("titulo.txt=\"Clave Nueva\""); 
07808:  MOVLW  D8
0780A:  MOVWF  FF6
0780C:  MOVLW  06
0780E:  MOVWF  FF7
07810:  MOVLW  00
07812:  MOVWF  FF8
07814:  MOVLB  0
07816:  CALL   37BA
....................             SendDataDisplay(); 
0781A:  CALL   37EC
....................             printf("page MenuPrincipal"); 
0781E:  MOVLW  F2
07820:  MOVWF  FF6
07822:  MOVLW  06
07824:  MOVWF  FF7
07826:  MOVLW  00
07828:  MOVWF  FF8
0782A:  CALL   37BA
....................             SendDataDisplay(); 
0782E:  CALL   37EC
....................             if(!GuardaEEPROM){ 
07832:  BTFSC  xA2.2
07834:  BRA    7940
....................                write_eeprom(10,RX_Buffer[4]-0x30);delay_ms(20);write_eeprom(11,RX_Buffer[5]-0x30);delay_ms(20); 
07836:  MOVLW  30
07838:  SUBWF  34,W
0783A:  MOVLB  6
0783C:  MOVWF  x96
0783E:  CLRF   FAA
07840:  MOVLW  0A
07842:  MOVWF  FA9
07844:  MOVFF  696,FA8
07848:  BCF    FA6.6
0784A:  BCF    FA6.7
0784C:  BSF    FA6.2
0784E:  MOVF   FF2,W
07850:  MOVWF  00
07852:  BCF    FF2.6
07854:  BCF    FF2.7
07856:  MOVLB  F
07858:  MOVLW  55
0785A:  MOVWF  FA7
0785C:  MOVLW  AA
0785E:  MOVWF  FA7
07860:  BSF    FA6.1
07862:  BTFSC  FA6.1
07864:  BRA    7862
07866:  BCF    FA6.2
07868:  MOVF   00,W
0786A:  IORWF  FF2,F
0786C:  MOVLW  14
0786E:  MOVLB  6
07870:  MOVWF  xA8
07872:  MOVLB  0
07874:  CALL   1D14
07878:  MOVLW  30
0787A:  SUBWF  35,W
0787C:  MOVLB  6
0787E:  MOVWF  x96
07880:  CLRF   FAA
07882:  MOVLW  0B
07884:  MOVWF  FA9
07886:  MOVFF  696,FA8
0788A:  BCF    FA6.6
0788C:  BCF    FA6.7
0788E:  BSF    FA6.2
07890:  MOVF   FF2,W
07892:  MOVWF  00
07894:  BCF    FF2.6
07896:  BCF    FF2.7
07898:  MOVLB  F
0789A:  MOVLW  55
0789C:  MOVWF  FA7
0789E:  MOVLW  AA
078A0:  MOVWF  FA7
078A2:  BSF    FA6.1
078A4:  BTFSC  FA6.1
078A6:  BRA    78A4
078A8:  BCF    FA6.2
078AA:  MOVF   00,W
078AC:  IORWF  FF2,F
078AE:  MOVLW  14
078B0:  MOVLB  6
078B2:  MOVWF  xA8
078B4:  MOVLB  0
078B6:  CALL   1D14
....................                write_eeprom(12,RX_Buffer[6]-0x30);delay_ms(20);write_eeprom(13,RX_Buffer[7]-0x30);delay_ms(20); 
078BA:  MOVLW  30
078BC:  SUBWF  36,W
078BE:  MOVLB  6
078C0:  MOVWF  x96
078C2:  CLRF   FAA
078C4:  MOVLW  0C
078C6:  MOVWF  FA9
078C8:  MOVFF  696,FA8
078CC:  BCF    FA6.6
078CE:  BCF    FA6.7
078D0:  BSF    FA6.2
078D2:  MOVF   FF2,W
078D4:  MOVWF  00
078D6:  BCF    FF2.6
078D8:  BCF    FF2.7
078DA:  MOVLB  F
078DC:  MOVLW  55
078DE:  MOVWF  FA7
078E0:  MOVLW  AA
078E2:  MOVWF  FA7
078E4:  BSF    FA6.1
078E6:  BTFSC  FA6.1
078E8:  BRA    78E6
078EA:  BCF    FA6.2
078EC:  MOVF   00,W
078EE:  IORWF  FF2,F
078F0:  MOVLW  14
078F2:  MOVLB  6
078F4:  MOVWF  xA8
078F6:  MOVLB  0
078F8:  CALL   1D14
078FC:  MOVLW  30
078FE:  SUBWF  37,W
07900:  MOVLB  6
07902:  MOVWF  x96
07904:  CLRF   FAA
07906:  MOVLW  0D
07908:  MOVWF  FA9
0790A:  MOVFF  696,FA8
0790E:  BCF    FA6.6
07910:  BCF    FA6.7
07912:  BSF    FA6.2
07914:  MOVF   FF2,W
07916:  MOVWF  00
07918:  BCF    FF2.6
0791A:  BCF    FF2.7
0791C:  MOVLB  F
0791E:  MOVLW  55
07920:  MOVWF  FA7
07922:  MOVLW  AA
07924:  MOVWF  FA7
07926:  BSF    FA6.1
07928:  BTFSC  FA6.1
0792A:  BRA    7928
0792C:  BCF    FA6.2
0792E:  MOVF   00,W
07930:  IORWF  FF2,F
07932:  MOVLW  14
07934:  MOVLB  6
07936:  MOVWF  xA8
07938:  MOVLB  0
0793A:  CALL   1D14
....................                GuardaEEPROM=ON; 
0793E:  BSF    xA2.2
....................             } 
....................             RX_Buffer[3]=0x00; 
07940:  CLRF   33
....................             RX_Buffer2[3]=0x00; 
07942:  CLRF   3E
07944:  MOVLB  2
07946:  MOVLB  3
....................          } 
....................       } 
....................     } 
.................... //_--------------------------------------------------------------------------------------------------------------------------------------------------------        
....................  
.................... //_-------------------------------------------------------------------------------------------------------------------------------------------------------- 
....................    if(Menu==1){ //Menu Principal. 
07948:  DECFSZ x41,W
0794A:  GOTO   82FE
....................       printf("fecha.txt=\"Fecha:%02u/%02u/20%02u    Hora: %02u:%02u:%02u\"",Dia,Mes,Year,Hora,Minuto,Segundo); 
0794E:  MOVLW  06
07950:  MOVWF  FF6
07952:  MOVLW  07
07954:  MOVWF  FF7
07956:  MOVLW  00
07958:  MOVWF  FF8
0795A:  MOVLW  11
0795C:  MOVLB  6
0795E:  MOVWF  x9A
07960:  MOVLB  0
07962:  CALL   4EA0
07966:  MOVFF  381,698
0796A:  MOVLW  01
0796C:  MOVLB  6
0796E:  MOVWF  x99
07970:  MOVLB  0
07972:  CALL   4EFE
07976:  MOVLW  2F
07978:  BTFSS  F9E.4
0797A:  BRA    7978
0797C:  MOVWF  FAD
0797E:  MOVFF  380,698
07982:  MOVLW  01
07984:  MOVLB  6
07986:  MOVWF  x99
07988:  MOVLB  0
0798A:  CALL   4EFE
0798E:  MOVLW  2F
07990:  BTFSS  F9E.4
07992:  BRA    7990
07994:  MOVWF  FAD
07996:  MOVLW  32
07998:  BTFSS  F9E.4
0799A:  BRA    7998
0799C:  MOVWF  FAD
0799E:  MOVLW  30
079A0:  BTFSS  F9E.4
079A2:  BRA    79A0
079A4:  MOVWF  FAD
079A6:  MOVFF  37F,698
079AA:  MOVLW  01
079AC:  MOVLB  6
079AE:  MOVWF  x99
079B0:  MOVLB  0
079B2:  CALL   4EFE
079B6:  MOVLW  27
079B8:  MOVWF  FF6
079BA:  MOVLW  07
079BC:  MOVWF  FF7
079BE:  MOVLW  00
079C0:  MOVWF  FF8
079C2:  MOVLW  0A
079C4:  MOVLB  6
079C6:  MOVWF  x9A
079C8:  MOVLB  0
079CA:  CALL   4EA0
079CE:  MOVFF  382,698
079D2:  MOVLW  01
079D4:  MOVLB  6
079D6:  MOVWF  x99
079D8:  MOVLB  0
079DA:  CALL   4EFE
079DE:  MOVLW  3A
079E0:  BTFSS  F9E.4
079E2:  BRA    79E0
079E4:  MOVWF  FAD
079E6:  MOVFF  383,698
079EA:  MOVLW  01
079EC:  MOVLB  6
079EE:  MOVWF  x99
079F0:  MOVLB  0
079F2:  CALL   4EFE
079F6:  MOVLW  3A
079F8:  BTFSS  F9E.4
079FA:  BRA    79F8
079FC:  MOVWF  FAD
079FE:  MOVFF  384,698
07A02:  MOVLW  01
07A04:  MOVLB  6
07A06:  MOVWF  x99
07A08:  MOVLB  0
07A0A:  CALL   4EFE
07A0E:  MOVLW  22
07A10:  BTFSS  F9E.4
07A12:  BRA    7A10
07A14:  MOVWF  FAD
....................       SendDataDisplay(); 
07A16:  CALL   37EC
....................       GuardaEEPROM=OFF; 
07A1A:  BCF    xA2.2
....................       if(RX_Buffer[3]==0x0f || UP){//0f, recibe caracteres ingresados desde el Display 
07A1C:  MOVF   33,W
07A1E:  SUBLW  0F
07A20:  BZ    7A28
07A22:  BSF    F93.0
07A24:  BTFSC  F81.0
07A26:  BRA    7CE2
....................          delay_ms(5); 
07A28:  MOVLW  05
07A2A:  MOVLB  6
07A2C:  MOVWF  xA8
07A2E:  MOVLB  0
07A30:  CALL   1D14
....................          if(RX_Buffer[3]==0x0f || UP){ 
07A34:  MOVF   33,W
07A36:  SUBLW  0F
07A38:  BZ    7A40
07A3A:  BSF    F93.0
07A3C:  BTFSC  F81.0
07A3E:  BRA    7CDC
....................             if(RX_Buffer[4]==0x37){//Ajustes y pasa a solicitud de password de tecnico 
07A40:  MOVF   34,W
07A42:  SUBLW  37
07A44:  BNZ   7A6C
....................                printf("page Clave"); 
07A46:  MOVLW  42
07A48:  MOVWF  FF6
07A4A:  MOVLW  07
07A4C:  MOVWF  FF7
07A4E:  MOVLW  00
07A50:  MOVWF  FF8
07A52:  CALL   37BA
....................                SendDataDisplay();  
07A56:  CALL   37EC
....................                MenuAnt=Menu; 
07A5A:  MOVFF  341,342
....................                TipoClave=1; 
07A5E:  MOVLW  01
07A60:  MOVLB  2
07A62:  MOVWF  xCB
....................                RX_Buffer[3]=0x00; 
07A64:  CLRF   33
....................                RX_Buffer2[3]=0x00; 
07A66:  CLRF   3E
....................                Opcion=0; 
07A68:  MOVLB  3
07A6A:  CLRF   x49
....................             }  
....................             if(Opcion==10){// Cambio de Clave 
07A6C:  MOVLB  3
07A6E:  MOVF   x49,W
07A70:  SUBLW  0A
07A72:  BNZ   7A9E
....................                printf("page Clave"); 
07A74:  MOVLW  4E
07A76:  MOVWF  FF6
07A78:  MOVLW  07
07A7A:  MOVWF  FF7
07A7C:  MOVLW  00
07A7E:  MOVWF  FF8
07A80:  MOVLB  0
07A82:  CALL   37BA
....................                SendDataDisplay();  
07A86:  CALL   37EC
....................                MenuAnt=Menu; 
07A8A:  MOVFF  341,342
....................                TipoClave=2; 
07A8E:  MOVLW  02
07A90:  MOVLB  2
07A92:  MOVWF  xCB
....................                RX_Buffer[3]=0x00; 
07A94:  CLRF   33
....................                RX_Buffer2[3]=0x00; 
07A96:  CLRF   3E
....................                Opcion=0; 
07A98:  MOVLB  3
07A9A:  CLRF   x49
....................             }else if(Opcion==9){//Hora y Fecha 
07A9C:  BRA    7CDE
07A9E:  MOVF   x49,W
07AA0:  SUBLW  09
07AA2:  BNZ   7AD6
....................                printf("page Fecha"); 
07AA4:  MOVLW  5A
07AA6:  MOVWF  FF6
07AA8:  MOVLW  07
07AAA:  MOVWF  FF7
07AAC:  MOVLW  00
07AAE:  MOVWF  FF8
07AB0:  MOVLB  0
07AB2:  CALL   37BA
....................                SendDataDisplay();      
07AB6:  CALL   37EC
....................                MenuAnt=Menu;                
07ABA:  MOVFF  341,342
....................                DiaTx=Dia; 
07ABE:  MOVFF  381,388
....................                MesTx=Mes; 
07AC2:  MOVFF  380,387
....................                YearTx=Year; 
07AC6:  MOVFF  37F,386
....................                HoraTx=Hora; 
07ACA:  MOVFF  382,389
....................                MinutoTx=Minuto; 
07ACE:  MOVFF  383,38A
....................             }else if(Opcion==8){//Test de Componentes 
07AD2:  BRA    7CDC
07AD4:  MOVLB  3
07AD6:  MOVF   x49,W
07AD8:  SUBLW  08
07ADA:  BNZ   7AFA
....................                printf("page Test"); 
07ADC:  MOVLW  66
07ADE:  MOVWF  FF6
07AE0:  MOVLW  07
07AE2:  MOVWF  FF7
07AE4:  MOVLW  00
07AE6:  MOVWF  FF8
07AE8:  MOVLB  0
07AEA:  CALL   37BA
....................                SendDataDisplay();      
07AEE:  CALL   37EC
....................                MenuAnt=Menu;                
07AF2:  MOVFF  341,342
....................             }else if(Opcion==7){//Ciclo Personalizado 
07AF6:  BRA    7CDC
07AF8:  MOVLB  3
07AFA:  MOVF   x49,W
07AFC:  SUBLW  07
07AFE:  BNZ   7B1E
....................                printf("page CicloPersona"); 
07B00:  MOVLW  70
07B02:  MOVWF  FF6
07B04:  MOVLW  07
07B06:  MOVWF  FF7
07B08:  MOVLW  00
07B0A:  MOVWF  FF8
07B0C:  MOVLB  0
07B0E:  CALL   37BA
....................                SendDataDisplay();  
07B12:  CALL   37EC
....................                MenuAnt=Menu; 
07B16:  MOVFF  341,342
....................             }else if(Opcion==5){//Test de Bowie & Dick 
07B1A:  BRA    7CDC
07B1C:  MOVLB  3
07B1E:  MOVF   x49,W
07B20:  SUBLW  05
07B22:  BNZ   7B6C
....................                printf("page Funcionamiento"); 
07B24:  MOVLW  82
07B26:  MOVWF  FF6
07B28:  MOVLW  07
07B2A:  MOVWF  FF7
07B2C:  MOVLW  00
07B2E:  MOVWF  FF8
07B30:  MOVLB  0
07B32:  CALL   37BA
....................                SendDataDisplay();        
07B36:  CALL   37EC
....................                ConfiguraCiclo(30,3,0,2,0,5,134,pulsosConfigurados,vacioCiclo,0); 
07B3A:  MOVLW  1E
07B3C:  MOVLB  6
07B3E:  MOVWF  x9E
07B40:  MOVLW  03
07B42:  MOVWF  x9F
07B44:  CLRF   xA0
07B46:  MOVLW  02
07B48:  MOVWF  xA1
07B4A:  CLRF   xA2
07B4C:  MOVLW  05
07B4E:  MOVWF  xA3
07B50:  MOVLW  86
07B52:  MOVWF  xA4
07B54:  MOVFF  350,6A5
07B58:  MOVFF  34F,6A6
07B5C:  CLRF   xA7
07B5E:  MOVLB  0
07B60:  CALL   4F7C
....................                MenuAnt=Menu;      
07B64:  MOVFF  341,342
....................             }else if(Opcion==6){//Test de Vacio 
07B68:  BRA    7CDC
07B6A:  MOVLB  3
07B6C:  MOVF   x49,W
07B6E:  SUBLW  06
07B70:  BNZ   7BB6
....................                printf("page Funcionamiento"); 
07B72:  MOVLW  96
07B74:  MOVWF  FF6
07B76:  MOVLW  07
07B78:  MOVWF  FF7
07B7A:  MOVLW  00
07B7C:  MOVWF  FF8
07B7E:  MOVLB  0
07B80:  CALL   37BA
....................                SendDataDisplay();        
07B84:  CALL   37EC
....................                ConfiguraCiclo(0,20,0,0,0,6,30,1,vacioTest,1); 
07B88:  MOVLB  6
07B8A:  CLRF   x9E
07B8C:  MOVLW  14
07B8E:  MOVWF  x9F
07B90:  CLRF   xA0
07B92:  CLRF   xA1
07B94:  CLRF   xA2
07B96:  MOVLW  06
07B98:  MOVWF  xA3
07B9A:  MOVLW  1E
07B9C:  MOVWF  xA4
07B9E:  MOVLW  01
07BA0:  MOVWF  xA5
07BA2:  MOVFF  34E,6A6
07BA6:  MOVWF  xA7
07BA8:  MOVLB  0
07BAA:  CALL   4F7C
....................                MenuAnt=Menu;      
07BAE:  MOVFF  341,342
....................             }else if(Opcion==4){//Delicado Envuelto 
07BB2:  BRA    7CDC
07BB4:  MOVLB  3
07BB6:  MOVF   x49,W
07BB8:  SUBLW  04
07BBA:  BNZ   7C00
....................                printf("page Funcionamiento"); 
07BBC:  MOVLW  AA
07BBE:  MOVWF  FF6
07BC0:  MOVLW  07
07BC2:  MOVWF  FF7
07BC4:  MOVLW  00
07BC6:  MOVWF  FF8
07BC8:  MOVLB  0
07BCA:  CALL   37BA
....................                SendDataDisplay();        
07BCE:  CALL   37EC
....................                ConfiguraCiclo(0,20,0,20,0,4,121,pulsosConfigurados,vacioCiclo,0); 
07BD2:  MOVLB  6
07BD4:  CLRF   x9E
07BD6:  MOVLW  14
07BD8:  MOVWF  x9F
07BDA:  CLRF   xA0
07BDC:  MOVWF  xA1
07BDE:  CLRF   xA2
07BE0:  MOVLW  04
07BE2:  MOVWF  xA3
07BE4:  MOVLW  79
07BE6:  MOVWF  xA4
07BE8:  MOVFF  350,6A5
07BEC:  MOVFF  34F,6A6
07BF0:  CLRF   xA7
07BF2:  MOVLB  0
07BF4:  CALL   4F7C
....................                MenuAnt=Menu;      
07BF8:  MOVFF  341,342
....................             }else if(Opcion==3){//Delicado no envuelto 
07BFC:  BRA    7CDC
07BFE:  MOVLB  3
07C00:  MOVF   x49,W
07C02:  SUBLW  03
07C04:  BNZ   7C4C
....................                printf("page Funcionamiento"); 
07C06:  MOVLW  BE
07C08:  MOVWF  FF6
07C0A:  MOVLW  07
07C0C:  MOVWF  FF7
07C0E:  MOVLW  00
07C10:  MOVWF  FF8
07C12:  MOVLB  0
07C14:  CALL   37BA
....................                SendDataDisplay();        
07C18:  CALL   37EC
....................                ConfiguraCiclo(0,20,0,1,0,3,121,pulsosConfigurados,vacioCiclo,0); 
07C1C:  MOVLB  6
07C1E:  CLRF   x9E
07C20:  MOVLW  14
07C22:  MOVWF  x9F
07C24:  CLRF   xA0
07C26:  MOVLW  01
07C28:  MOVWF  xA1
07C2A:  CLRF   xA2
07C2C:  MOVLW  03
07C2E:  MOVWF  xA3
07C30:  MOVLW  79
07C32:  MOVWF  xA4
07C34:  MOVFF  350,6A5
07C38:  MOVFF  34F,6A6
07C3C:  CLRF   xA7
07C3E:  MOVLB  0
07C40:  CALL   4F7C
....................                MenuAnt=Menu;      
07C44:  MOVFF  341,342
....................             }else if(Opcion==2){//Instrumental Envuelto 
07C48:  BRA    7CDC
07C4A:  MOVLB  3
07C4C:  MOVF   x49,W
07C4E:  SUBLW  02
07C50:  BNZ   7C98
....................                printf("page Funcionamiento"); 
07C52:  MOVLW  D2
07C54:  MOVWF  FF6
07C56:  MOVLW  07
07C58:  MOVWF  FF7
07C5A:  MOVLW  00
07C5C:  MOVWF  FF8
07C5E:  MOVLB  0
07C60:  CALL   37BA
....................                SendDataDisplay();        
07C64:  CALL   37EC
....................                ConfiguraCiclo(0,4,0,20,0,2,134,pulsosConfigurados,vacioCiclo,0); 
07C68:  MOVLB  6
07C6A:  CLRF   x9E
07C6C:  MOVLW  04
07C6E:  MOVWF  x9F
07C70:  CLRF   xA0
07C72:  MOVLW  14
07C74:  MOVWF  xA1
07C76:  CLRF   xA2
07C78:  MOVLW  02
07C7A:  MOVWF  xA3
07C7C:  MOVLW  86
07C7E:  MOVWF  xA4
07C80:  MOVFF  350,6A5
07C84:  MOVFF  34F,6A6
07C88:  CLRF   xA7
07C8A:  MOVLB  0
07C8C:  CALL   4F7C
....................                MenuAnt=Menu;                
07C90:  MOVFF  341,342
....................             }else if(Opcion==1){//Instrumental no Envuelto 
07C94:  BRA    7CDC
07C96:  MOVLB  3
07C98:  DECFSZ x49,W
07C9A:  BRA    7CDE
....................                printf("page Funcionamiento"); 
07C9C:  MOVLW  E6
07C9E:  MOVWF  FF6
07CA0:  MOVLW  07
07CA2:  MOVWF  FF7
07CA4:  MOVLW  00
07CA6:  MOVWF  FF8
07CA8:  MOVLB  0
07CAA:  CALL   37BA
....................                SendDataDisplay();        
07CAE:  CALL   37EC
....................                ConfiguraCiclo(0,4,0,1,0,1,134,pulsosConfigurados,vacioCiclo,0);                
07CB2:  MOVLB  6
07CB4:  CLRF   x9E
07CB6:  MOVLW  04
07CB8:  MOVWF  x9F
07CBA:  CLRF   xA0
07CBC:  MOVLW  01
07CBE:  MOVWF  xA1
07CC0:  CLRF   xA2
07CC2:  MOVWF  xA3
07CC4:  MOVLW  86
07CC6:  MOVWF  xA4
07CC8:  MOVFF  350,6A5
07CCC:  MOVFF  34F,6A6
07CD0:  CLRF   xA7
07CD2:  MOVLB  0
07CD4:  CALL   4F7C
....................                MenuAnt=Menu; 
07CD8:  MOVFF  341,342
07CDC:  MOVLB  3
....................             } 
....................          } 
....................       }else{ 
07CDE:  BRA    82AE
07CE0:  MOVLB  0
....................          if(Opcion>sizeof(iconoGrande)) 
07CE2:  MOVLB  3
07CE4:  MOVF   x49,W
07CE6:  SUBLW  0A
07CE8:  BC    7CEE
....................             Opcion=1; 
07CEA:  MOVLW  01
07CEC:  MOVWF  x49
....................              
....................          if(Opcion<1) 
07CEE:  MOVF   x49,F
07CF0:  BNZ   7CF6
....................             Opcion=sizeof(iconoGrande); 
07CF2:  MOVLW  0A
07CF4:  MOVWF  x49
....................           
....................          if(RIGHT){ 
07CF6:  BSF    F93.2
07CF8:  BTFSC  F81.2
07CFA:  BRA    7D12
....................             delay_ms(200); 
07CFC:  MOVLW  C8
07CFE:  MOVLB  6
07D00:  MOVWF  xA8
07D02:  MOVLB  0
07D04:  CALL   1D14
....................             if(RIGHT){ 
07D08:  BSF    F93.2
07D0A:  BTFSC  F81.2
07D0C:  BRA    7D14
....................                Opcion++; 
07D0E:  MOVLB  3
07D10:  INCF   x49,F
07D12:  MOVLB  0
....................             } 
....................          } 
....................           
....................          if(LEFT){ 
07D14:  BSF    F93.3
07D16:  BTFSC  F81.3
07D18:  BRA    7D32
....................             delay_ms(200); 
07D1A:  MOVLW  C8
07D1C:  MOVLB  6
07D1E:  MOVWF  xA8
07D20:  MOVLB  0
07D22:  CALL   1D14
....................             if(LEFT){ 
07D26:  BSF    F93.3
07D28:  BTFSC  F81.3
07D2A:  BRA    7D32
....................                Opcion--; 
07D2C:  MOVLB  3
07D2E:  DECF   x49,F
07D30:  MOVLB  0
....................             } 
....................          } 
....................           
....................          if(Opcion==1){ 
07D32:  MOVLB  3
07D34:  DECFSZ x49,W
07D36:  BRA    7EE4
....................             printf("bc.pic=%u",iconoGrande[Opcion-1]); 
07D38:  MOVLW  01
07D3A:  SUBWF  x49,W
07D3C:  CLRF   03
07D3E:  ADDLW  92
07D40:  MOVWF  FE9
07D42:  MOVLW  03
07D44:  ADDWFC 03,W
07D46:  MOVWF  FEA
07D48:  MOVFF  FEF,696
07D4C:  MOVLW  FA
07D4E:  MOVWF  FF6
07D50:  MOVLW  07
07D52:  MOVWF  FF7
07D54:  MOVLW  00
07D56:  MOVWF  FF8
07D58:  MOVLW  07
07D5A:  MOVLB  6
07D5C:  MOVWF  x9A
07D5E:  MOVLB  0
07D60:  CALL   4EA0
07D64:  MOVFF  696,698
07D68:  MOVLW  1B
07D6A:  MOVLB  6
07D6C:  MOVWF  x99
07D6E:  MOVLB  0
07D70:  CALL   4EFE
....................             SendDataDisplay(); 
07D74:  CALL   37EC
....................             printf("bd.pic=%u",iconoPeque[Opcion]); 
07D78:  CLRF   03
07D7A:  MOVLB  3
07D7C:  MOVF   x49,W
07D7E:  ADDLW  9C
07D80:  MOVWF  FE9
07D82:  MOVLW  03
07D84:  ADDWFC 03,W
07D86:  MOVWF  FEA
07D88:  MOVFF  FEF,696
07D8C:  MOVLW  04
07D8E:  MOVWF  FF6
07D90:  MOVLW  08
07D92:  MOVWF  FF7
07D94:  MOVLW  00
07D96:  MOVWF  FF8
07D98:  MOVLW  07
07D9A:  MOVLB  6
07D9C:  MOVWF  x9A
07D9E:  MOVLB  0
07DA0:  CALL   4EA0
07DA4:  MOVFF  696,698
07DA8:  MOVLW  1B
07DAA:  MOVLB  6
07DAC:  MOVWF  x99
07DAE:  MOVLB  0
07DB0:  CALL   4EFE
....................             SendDataDisplay(); 
07DB4:  CALL   37EC
....................             printf("bi.pic=%u",iconoPeque[sizeof(iconoGrande)-1]); 
07DB8:  MOVLW  0E
07DBA:  MOVWF  FF6
07DBC:  MOVLW  08
07DBE:  MOVWF  FF7
07DC0:  MOVLW  00
07DC2:  MOVWF  FF8
07DC4:  MOVLW  07
07DC6:  MOVLB  6
07DC8:  MOVWF  x9A
07DCA:  MOVLB  0
07DCC:  CALL   4EA0
07DD0:  MOVFF  3A5,698
07DD4:  MOVLW  1B
07DD6:  MOVLB  6
07DD8:  MOVWF  x99
07DDA:  MOVLB  0
07DDC:  CALL   4EFE
....................             SendDataDisplay(); 
07DE0:  CALL   37EC
....................             printf("bc.pic2=%u",iconoGrande[Opcion-1]); 
07DE4:  MOVLW  01
07DE6:  MOVLB  3
07DE8:  SUBWF  x49,W
07DEA:  CLRF   03
07DEC:  ADDLW  92
07DEE:  MOVWF  FE9
07DF0:  MOVLW  03
07DF2:  ADDWFC 03,W
07DF4:  MOVWF  FEA
07DF6:  MOVFF  FEF,696
07DFA:  MOVLW  18
07DFC:  MOVWF  FF6
07DFE:  MOVLW  08
07E00:  MOVWF  FF7
07E02:  MOVLW  00
07E04:  MOVWF  FF8
07E06:  MOVLW  08
07E08:  MOVLB  6
07E0A:  MOVWF  x9A
07E0C:  MOVLB  0
07E0E:  CALL   4EA0
07E12:  MOVFF  696,698
07E16:  MOVLW  1B
07E18:  MOVLB  6
07E1A:  MOVWF  x99
07E1C:  MOVLB  0
07E1E:  CALL   4EFE
....................             SendDataDisplay(); 
07E22:  CALL   37EC
....................             printf("bd.pic2=%u",iconoPeque[Opcion]); 
07E26:  CLRF   03
07E28:  MOVLB  3
07E2A:  MOVF   x49,W
07E2C:  ADDLW  9C
07E2E:  MOVWF  FE9
07E30:  MOVLW  03
07E32:  ADDWFC 03,W
07E34:  MOVWF  FEA
07E36:  MOVFF  FEF,696
07E3A:  MOVLW  24
07E3C:  MOVWF  FF6
07E3E:  MOVLW  08
07E40:  MOVWF  FF7
07E42:  MOVLW  00
07E44:  MOVWF  FF8
07E46:  MOVLW  08
07E48:  MOVLB  6
07E4A:  MOVWF  x9A
07E4C:  MOVLB  0
07E4E:  CALL   4EA0
07E52:  MOVFF  696,698
07E56:  MOVLW  1B
07E58:  MOVLB  6
07E5A:  MOVWF  x99
07E5C:  MOVLB  0
07E5E:  CALL   4EFE
....................             SendDataDisplay(); 
07E62:  CALL   37EC
....................             printf("bi.pic2=%u",iconoPeque[sizeof(iconoGrande)-1]); 
07E66:  MOVLW  30
07E68:  MOVWF  FF6
07E6A:  MOVLW  08
07E6C:  MOVWF  FF7
07E6E:  MOVLW  00
07E70:  MOVWF  FF8
07E72:  MOVLW  08
07E74:  MOVLB  6
07E76:  MOVWF  x9A
07E78:  MOVLB  0
07E7A:  CALL   4EA0
07E7E:  MOVFF  3A5,698
07E82:  MOVLW  1B
07E84:  MOVLB  6
07E86:  MOVWF  x99
07E88:  MOVLB  0
07E8A:  CALL   4EFE
....................             SendDataDisplay(); 
07E8E:  CALL   37EC
....................             printf("textop.txt=\"%s\"",texto[Opcion-1]); 
07E92:  MOVLW  01
07E94:  MOVLB  3
07E96:  SUBWF  x49,W
07E98:  MULLW  14
07E9A:  MOVF   FF3,W
07E9C:  CLRF   03
07E9E:  MOVLB  6
07EA0:  MOVWF  x96
07EA2:  MOVLW  3C
07EA4:  MOVWF  FF6
07EA6:  MOVLW  08
07EA8:  MOVWF  FF7
07EAA:  MOVLW  00
07EAC:  MOVWF  FF8
07EAE:  MOVLW  0C
07EB0:  MOVWF  x9A
07EB2:  MOVLB  0
07EB4:  CALL   4EA0
07EB8:  MOVLW  44
07EBA:  MOVWF  FF6
07EBC:  MOVLW  01
07EBE:  MOVWF  FF7
07EC0:  MOVLW  00
07EC2:  MOVWF  FF8
07EC4:  MOVLB  6
07EC6:  MOVF   x96,W
07EC8:  ADDWF  FF6,F
07ECA:  MOVLW  00
07ECC:  ADDWFC FF7,F
07ECE:  MOVLB  0
07ED0:  CALL   37BA
07ED4:  MOVLW  22
07ED6:  BTFSS  F9E.4
07ED8:  BRA    7ED6
07EDA:  MOVWF  FAD
....................             SendDataDisplay(); 
07EDC:  CALL   37EC
....................          }else if(Opcion==sizeof(iconoGrande)){ 
07EE0:  BRA    8270
07EE2:  MOVLB  3
07EE4:  MOVF   x49,W
07EE6:  SUBLW  0A
07EE8:  BTFSS  FD8.2
07EEA:  BRA    809C
....................             printf("bc.pic=%u",iconoGrande[Opcion-1]); 
07EEC:  MOVLW  01
07EEE:  SUBWF  x49,W
07EF0:  CLRF   03
07EF2:  ADDLW  92
07EF4:  MOVWF  FE9
07EF6:  MOVLW  03
07EF8:  ADDWFC 03,W
07EFA:  MOVWF  FEA
07EFC:  MOVFF  FEF,696
07F00:  MOVLW  4C
07F02:  MOVWF  FF6
07F04:  MOVLW  08
07F06:  MOVWF  FF7
07F08:  MOVLW  00
07F0A:  MOVWF  FF8
07F0C:  MOVLW  07
07F0E:  MOVLB  6
07F10:  MOVWF  x9A
07F12:  MOVLB  0
07F14:  CALL   4EA0
07F18:  MOVFF  696,698
07F1C:  MOVLW  1B
07F1E:  MOVLB  6
07F20:  MOVWF  x99
07F22:  MOVLB  0
07F24:  CALL   4EFE
....................             SendDataDisplay(); 
07F28:  CALL   37EC
....................             printf("bd.pic=%u",iconoPeque[0]); 
07F2C:  MOVLW  56
07F2E:  MOVWF  FF6
07F30:  MOVLW  08
07F32:  MOVWF  FF7
07F34:  MOVLW  00
07F36:  MOVWF  FF8
07F38:  MOVLW  07
07F3A:  MOVLB  6
07F3C:  MOVWF  x9A
07F3E:  MOVLB  0
07F40:  CALL   4EA0
07F44:  MOVFF  39C,698
07F48:  MOVLW  1B
07F4A:  MOVLB  6
07F4C:  MOVWF  x99
07F4E:  MOVLB  0
07F50:  CALL   4EFE
....................             SendDataDisplay(); 
07F54:  CALL   37EC
....................             printf("bi.pic=%u",iconoPeque[Opcion-2]); 
07F58:  MOVLW  02
07F5A:  MOVLB  3
07F5C:  SUBWF  x49,W
07F5E:  CLRF   03
07F60:  ADDLW  9C
07F62:  MOVWF  FE9
07F64:  MOVLW  03
07F66:  ADDWFC 03,W
07F68:  MOVWF  FEA
07F6A:  MOVFF  FEF,696
07F6E:  MOVLW  60
07F70:  MOVWF  FF6
07F72:  MOVLW  08
07F74:  MOVWF  FF7
07F76:  MOVLW  00
07F78:  MOVWF  FF8
07F7A:  MOVLW  07
07F7C:  MOVLB  6
07F7E:  MOVWF  x9A
07F80:  MOVLB  0
07F82:  CALL   4EA0
07F86:  MOVFF  696,698
07F8A:  MOVLW  1B
07F8C:  MOVLB  6
07F8E:  MOVWF  x99
07F90:  MOVLB  0
07F92:  CALL   4EFE
....................             SendDataDisplay(); 
07F96:  CALL   37EC
....................             printf("bc.pic2=%u",iconoGrande[Opcion-1]); 
07F9A:  MOVLW  01
07F9C:  MOVLB  3
07F9E:  SUBWF  x49,W
07FA0:  CLRF   03
07FA2:  ADDLW  92
07FA4:  MOVWF  FE9
07FA6:  MOVLW  03
07FA8:  ADDWFC 03,W
07FAA:  MOVWF  FEA
07FAC:  MOVFF  FEF,696
07FB0:  MOVLW  6A
07FB2:  MOVWF  FF6
07FB4:  MOVLW  08
07FB6:  MOVWF  FF7
07FB8:  MOVLW  00
07FBA:  MOVWF  FF8
07FBC:  MOVLW  08
07FBE:  MOVLB  6
07FC0:  MOVWF  x9A
07FC2:  MOVLB  0
07FC4:  CALL   4EA0
07FC8:  MOVFF  696,698
07FCC:  MOVLW  1B
07FCE:  MOVLB  6
07FD0:  MOVWF  x99
07FD2:  MOVLB  0
07FD4:  CALL   4EFE
....................             SendDataDisplay(); 
07FD8:  CALL   37EC
....................             printf("bd.pic2=%u",iconoPeque[0]); 
07FDC:  MOVLW  76
07FDE:  MOVWF  FF6
07FE0:  MOVLW  08
07FE2:  MOVWF  FF7
07FE4:  MOVLW  00
07FE6:  MOVWF  FF8
07FE8:  MOVLW  08
07FEA:  MOVLB  6
07FEC:  MOVWF  x9A
07FEE:  MOVLB  0
07FF0:  CALL   4EA0
07FF4:  MOVFF  39C,698
07FF8:  MOVLW  1B
07FFA:  MOVLB  6
07FFC:  MOVWF  x99
07FFE:  MOVLB  0
08000:  CALL   4EFE
....................             SendDataDisplay(); 
08004:  CALL   37EC
....................             printf("bi.pic2=%u",iconoPeque[Opcion-2]); 
08008:  MOVLW  02
0800A:  MOVLB  3
0800C:  SUBWF  x49,W
0800E:  CLRF   03
08010:  ADDLW  9C
08012:  MOVWF  FE9
08014:  MOVLW  03
08016:  ADDWFC 03,W
08018:  MOVWF  FEA
0801A:  MOVFF  FEF,696
0801E:  MOVLW  82
08020:  MOVWF  FF6
08022:  MOVLW  08
08024:  MOVWF  FF7
08026:  MOVLW  00
08028:  MOVWF  FF8
0802A:  MOVLW  08
0802C:  MOVLB  6
0802E:  MOVWF  x9A
08030:  MOVLB  0
08032:  CALL   4EA0
08036:  MOVFF  696,698
0803A:  MOVLW  1B
0803C:  MOVLB  6
0803E:  MOVWF  x99
08040:  MOVLB  0
08042:  CALL   4EFE
....................             SendDataDisplay(); 
08046:  CALL   37EC
....................             printf("textop.txt=\"%s\"",texto[Opcion-1]); 
0804A:  MOVLW  01
0804C:  MOVLB  3
0804E:  SUBWF  x49,W
08050:  MULLW  14
08052:  MOVF   FF3,W
08054:  CLRF   03
08056:  MOVLB  6
08058:  MOVWF  x96
0805A:  MOVLW  8E
0805C:  MOVWF  FF6
0805E:  MOVLW  08
08060:  MOVWF  FF7
08062:  MOVLW  00
08064:  MOVWF  FF8
08066:  MOVLW  0C
08068:  MOVWF  x9A
0806A:  MOVLB  0
0806C:  CALL   4EA0
08070:  MOVLW  44
08072:  MOVWF  FF6
08074:  MOVLW  01
08076:  MOVWF  FF7
08078:  MOVLW  00
0807A:  MOVWF  FF8
0807C:  MOVLB  6
0807E:  MOVF   x96,W
08080:  ADDWF  FF6,F
08082:  MOVLW  00
08084:  ADDWFC FF7,F
08086:  MOVLB  0
08088:  CALL   37BA
0808C:  MOVLW  22
0808E:  BTFSS  F9E.4
08090:  BRA    808E
08092:  MOVWF  FAD
....................             SendDataDisplay(); 
08094:  CALL   37EC
....................          }else{ 
08098:  BRA    8270
0809A:  MOVLB  3
....................             printf("bc.pic=%u",iconoGrande[Opcion-1]); 
0809C:  MOVLW  01
0809E:  SUBWF  x49,W
080A0:  CLRF   03
080A2:  ADDLW  92
080A4:  MOVWF  FE9
080A6:  MOVLW  03
080A8:  ADDWFC 03,W
080AA:  MOVWF  FEA
080AC:  MOVFF  FEF,696
080B0:  MOVLW  9E
080B2:  MOVWF  FF6
080B4:  MOVLW  08
080B6:  MOVWF  FF7
080B8:  MOVLW  00
080BA:  MOVWF  FF8
080BC:  MOVLW  07
080BE:  MOVLB  6
080C0:  MOVWF  x9A
080C2:  MOVLB  0
080C4:  CALL   4EA0
080C8:  MOVFF  696,698
080CC:  MOVLW  1B
080CE:  MOVLB  6
080D0:  MOVWF  x99
080D2:  MOVLB  0
080D4:  CALL   4EFE
....................             SendDataDisplay(); 
080D8:  CALL   37EC
....................             printf("bd.pic=%u",iconoPeque[Opcion]); 
080DC:  CLRF   03
080DE:  MOVLB  3
080E0:  MOVF   x49,W
080E2:  ADDLW  9C
080E4:  MOVWF  FE9
080E6:  MOVLW  03
080E8:  ADDWFC 03,W
080EA:  MOVWF  FEA
080EC:  MOVFF  FEF,696
080F0:  MOVLW  A8
080F2:  MOVWF  FF6
080F4:  MOVLW  08
080F6:  MOVWF  FF7
080F8:  MOVLW  00
080FA:  MOVWF  FF8
080FC:  MOVLW  07
080FE:  MOVLB  6
08100:  MOVWF  x9A
08102:  MOVLB  0
08104:  CALL   4EA0
08108:  MOVFF  696,698
0810C:  MOVLW  1B
0810E:  MOVLB  6
08110:  MOVWF  x99
08112:  MOVLB  0
08114:  CALL   4EFE
....................             SendDataDisplay(); 
08118:  CALL   37EC
....................             printf("bi.pic=%u",iconoPeque[Opcion-2]); 
0811C:  MOVLW  02
0811E:  MOVLB  3
08120:  SUBWF  x49,W
08122:  CLRF   03
08124:  ADDLW  9C
08126:  MOVWF  FE9
08128:  MOVLW  03
0812A:  ADDWFC 03,W
0812C:  MOVWF  FEA
0812E:  MOVFF  FEF,696
08132:  MOVLW  B2
08134:  MOVWF  FF6
08136:  MOVLW  08
08138:  MOVWF  FF7
0813A:  MOVLW  00
0813C:  MOVWF  FF8
0813E:  MOVLW  07
08140:  MOVLB  6
08142:  MOVWF  x9A
08144:  MOVLB  0
08146:  CALL   4EA0
0814A:  MOVFF  696,698
0814E:  MOVLW  1B
08150:  MOVLB  6
08152:  MOVWF  x99
08154:  MOVLB  0
08156:  CALL   4EFE
....................             SendDataDisplay(); 
0815A:  CALL   37EC
....................             printf("bc.pic2=%u",iconoGrande[Opcion-1]); 
0815E:  MOVLW  01
08160:  MOVLB  3
08162:  SUBWF  x49,W
08164:  CLRF   03
08166:  ADDLW  92
08168:  MOVWF  FE9
0816A:  MOVLW  03
0816C:  ADDWFC 03,W
0816E:  MOVWF  FEA
08170:  MOVFF  FEF,696
08174:  MOVLW  BC
08176:  MOVWF  FF6
08178:  MOVLW  08
0817A:  MOVWF  FF7
0817C:  MOVLW  00
0817E:  MOVWF  FF8
08180:  MOVLW  08
08182:  MOVLB  6
08184:  MOVWF  x9A
08186:  MOVLB  0
08188:  CALL   4EA0
0818C:  MOVFF  696,698
08190:  MOVLW  1B
08192:  MOVLB  6
08194:  MOVWF  x99
08196:  MOVLB  0
08198:  CALL   4EFE
....................             SendDataDisplay(); 
0819C:  CALL   37EC
....................             printf("bd.pic2=%u",iconoPeque[Opcion]); 
081A0:  CLRF   03
081A2:  MOVLB  3
081A4:  MOVF   x49,W
081A6:  ADDLW  9C
081A8:  MOVWF  FE9
081AA:  MOVLW  03
081AC:  ADDWFC 03,W
081AE:  MOVWF  FEA
081B0:  MOVFF  FEF,696
081B4:  MOVLW  C8
081B6:  MOVWF  FF6
081B8:  MOVLW  08
081BA:  MOVWF  FF7
081BC:  MOVLW  00
081BE:  MOVWF  FF8
081C0:  MOVLW  08
081C2:  MOVLB  6
081C4:  MOVWF  x9A
081C6:  MOVLB  0
081C8:  CALL   4EA0
081CC:  MOVFF  696,698
081D0:  MOVLW  1B
081D2:  MOVLB  6
081D4:  MOVWF  x99
081D6:  MOVLB  0
081D8:  CALL   4EFE
....................             SendDataDisplay(); 
081DC:  CALL   37EC
....................             printf("bi.pic2=%u",iconoPeque[Opcion-2]); 
081E0:  MOVLW  02
081E2:  MOVLB  3
081E4:  SUBWF  x49,W
081E6:  CLRF   03
081E8:  ADDLW  9C
081EA:  MOVWF  FE9
081EC:  MOVLW  03
081EE:  ADDWFC 03,W
081F0:  MOVWF  FEA
081F2:  MOVFF  FEF,696
081F6:  MOVLW  D4
081F8:  MOVWF  FF6
081FA:  MOVLW  08
081FC:  MOVWF  FF7
081FE:  MOVLW  00
08200:  MOVWF  FF8
08202:  MOVLW  08
08204:  MOVLB  6
08206:  MOVWF  x9A
08208:  MOVLB  0
0820A:  CALL   4EA0
0820E:  MOVFF  696,698
08212:  MOVLW  1B
08214:  MOVLB  6
08216:  MOVWF  x99
08218:  MOVLB  0
0821A:  CALL   4EFE
....................             SendDataDisplay(); 
0821E:  CALL   37EC
....................             printf("textop.txt=\"%s\"",texto[Opcion-1]); 
08222:  MOVLW  01
08224:  MOVLB  3
08226:  SUBWF  x49,W
08228:  MULLW  14
0822A:  MOVF   FF3,W
0822C:  CLRF   03
0822E:  MOVLB  6
08230:  MOVWF  x96
08232:  MOVLW  E0
08234:  MOVWF  FF6
08236:  MOVLW  08
08238:  MOVWF  FF7
0823A:  MOVLW  00
0823C:  MOVWF  FF8
0823E:  MOVLW  0C
08240:  MOVWF  x9A
08242:  MOVLB  0
08244:  CALL   4EA0
08248:  MOVLW  44
0824A:  MOVWF  FF6
0824C:  MOVLW  01
0824E:  MOVWF  FF7
08250:  MOVLW  00
08252:  MOVWF  FF8
08254:  MOVLB  6
08256:  MOVF   x96,W
08258:  ADDWF  FF6,F
0825A:  MOVLW  00
0825C:  ADDWFC FF7,F
0825E:  MOVLB  0
08260:  CALL   37BA
08264:  MOVLW  22
08266:  BTFSS  F9E.4
08268:  BRA    8266
0826A:  MOVWF  FAD
....................             SendDataDisplay(); 
0826C:  CALL   37EC
....................          } 
....................           
....................          printf("ttitulo.txt=\"SELECCIONE SU CICLO\""); 
08270:  MOVLW  F0
08272:  MOVWF  FF6
08274:  MOVLW  08
08276:  MOVWF  FF7
08278:  MOVLW  00
0827A:  MOVWF  FF8
0827C:  CALL   37BA
....................          SendDataDisplay(); 
08280:  CALL   37EC
....................              
....................          if(RX_Buffer[4]==0x0d || RX_Buffer[4]==0x0c){//Tecla Derecha Oprimida 
08284:  MOVF   34,W
08286:  SUBLW  0D
08288:  BZ    8290
0828A:  MOVF   34,W
0828C:  SUBLW  0C
0828E:  BNZ   829A
....................             Opcion++; 
08290:  MOVLB  3
08292:  INCF   x49,F
....................             RX_Buffer[4]=0x00;             
08294:  CLRF   34
....................             RX_Buffer2[4]=0x00; 
08296:  CLRF   3F
08298:  MOVLB  0
....................          } 
....................           
....................          if(RX_Buffer[4]==0x0e || RX_Buffer[4]==0x0f){//Tecla Izquierda Oprimida 
0829A:  MOVF   34,W
0829C:  SUBLW  0E
0829E:  BZ    82A6
082A0:  MOVF   34,W
082A2:  SUBLW  0F
082A4:  BNZ   82B0
....................             Opcion--; 
082A6:  MOVLB  3
082A8:  DECF   x49,F
....................             RX_Buffer[4]=0x00; 
082AA:  CLRF   34
....................             RX_Buffer2[4]=0x00; 
082AC:  CLRF   3F
082AE:  MOVLB  0
....................          } 
....................       } 
....................        
....................       if(RIGHT && LEFT){ 
082B0:  BSF    F93.2
082B2:  BTFSC  F81.2
082B4:  BRA    8300
082B6:  BSF    F93.3
082B8:  BTFSC  F81.3
082BA:  BRA    8300
....................          delay_ms(20); 
082BC:  MOVLW  14
082BE:  MOVLB  6
082C0:  MOVWF  xA8
082C2:  MOVLB  0
082C4:  CALL   1D14
....................          if(RIGHT && LEFT){ 
082C8:  BSF    F93.2
082CA:  BTFSC  F81.2
082CC:  BRA    8300
082CE:  BSF    F93.3
082D0:  BTFSC  F81.3
082D2:  BRA    8300
....................             printf("page Clave"); 
082D4:  MOVLW  12
082D6:  MOVWF  FF6
082D8:  MOVLW  09
082DA:  MOVWF  FF7
082DC:  MOVLW  00
082DE:  MOVWF  FF8
082E0:  CALL   37BA
....................             SendDataDisplay();  
082E4:  CALL   37EC
....................             Op=OFF; 
082E8:  BCF    xA1.6
....................             Op2=OFF; 
082EA:  BCF    xA1.7
....................             MenuAnt=Menu; 
082EC:  MOVFF  341,342
....................             TipoClave=1; 
082F0:  MOVLW  01
082F2:  MOVLB  2
082F4:  MOVWF  xCB
....................             RX_Buffer[3]=0x00; 
082F6:  CLRF   33
....................             RX_Buffer2[3]=0x00; 
082F8:  CLRF   3E
....................             Opcion=0; 
082FA:  MOVLB  3
082FC:  CLRF   x49
082FE:  MOVLB  0
....................          } 
....................       } 
....................    } 
.................... //_--------------------------------------------------------------------------------------------------------------------------------------------------------        
....................  
.................... //_-------------------------------------------------------------------------------------------------------------------------------------------------------- 
....................       if(Menu==2){ //Menu de Tiempo Esterilizacion      
08300:  MOVLB  3
08302:  MOVF   x41,W
08304:  SUBLW  02
08306:  BTFSS  FD8.2
08308:  BRA    86A6
....................          printf("fecha.txt=\"Fecha:%02u/%02u/20%02u    Hora: %02u:%02u:%02u\"",Dia,Mes,Year,Hora,Minuto,Segundo); 
0830A:  MOVLW  1E
0830C:  MOVWF  FF6
0830E:  MOVLW  09
08310:  MOVWF  FF7
08312:  MOVLW  00
08314:  MOVWF  FF8
08316:  MOVLW  11
08318:  MOVLB  6
0831A:  MOVWF  x9A
0831C:  MOVLB  0
0831E:  CALL   4EA0
08322:  MOVFF  381,698
08326:  MOVLW  01
08328:  MOVLB  6
0832A:  MOVWF  x99
0832C:  MOVLB  0
0832E:  CALL   4EFE
08332:  MOVLW  2F
08334:  BTFSS  F9E.4
08336:  BRA    8334
08338:  MOVWF  FAD
0833A:  MOVFF  380,698
0833E:  MOVLW  01
08340:  MOVLB  6
08342:  MOVWF  x99
08344:  MOVLB  0
08346:  CALL   4EFE
0834A:  MOVLW  2F
0834C:  BTFSS  F9E.4
0834E:  BRA    834C
08350:  MOVWF  FAD
08352:  MOVLW  32
08354:  BTFSS  F9E.4
08356:  BRA    8354
08358:  MOVWF  FAD
0835A:  MOVLW  30
0835C:  BTFSS  F9E.4
0835E:  BRA    835C
08360:  MOVWF  FAD
08362:  MOVFF  37F,698
08366:  MOVLW  01
08368:  MOVLB  6
0836A:  MOVWF  x99
0836C:  MOVLB  0
0836E:  CALL   4EFE
08372:  MOVLW  3F
08374:  MOVWF  FF6
08376:  MOVLW  09
08378:  MOVWF  FF7
0837A:  MOVLW  00
0837C:  MOVWF  FF8
0837E:  MOVLW  0A
08380:  MOVLB  6
08382:  MOVWF  x9A
08384:  MOVLB  0
08386:  CALL   4EA0
0838A:  MOVFF  382,698
0838E:  MOVLW  01
08390:  MOVLB  6
08392:  MOVWF  x99
08394:  MOVLB  0
08396:  CALL   4EFE
0839A:  MOVLW  3A
0839C:  BTFSS  F9E.4
0839E:  BRA    839C
083A0:  MOVWF  FAD
083A2:  MOVFF  383,698
083A6:  MOVLW  01
083A8:  MOVLB  6
083AA:  MOVWF  x99
083AC:  MOVLB  0
083AE:  CALL   4EFE
083B2:  MOVLW  3A
083B4:  BTFSS  F9E.4
083B6:  BRA    83B4
083B8:  MOVWF  FAD
083BA:  MOVFF  384,698
083BE:  MOVLW  01
083C0:  MOVLB  6
083C2:  MOVWF  x99
083C4:  MOVLB  0
083C6:  CALL   4EFE
083CA:  MOVLW  22
083CC:  BTFSS  F9E.4
083CE:  BRA    83CC
083D0:  MOVWF  FAD
....................          SendDataDisplay(); 
083D2:  CALL   37EC
....................          if(RX_Buffer[4]==0x0a){//Selecciono Minutos 
083D6:  MOVF   34,W
083D8:  SUBLW  0A
083DA:  BNZ   83E0
....................             Minutos=ON; 
083DC:  BSF    xA2.0
....................             Segundos=OFF; 
083DE:  BCF    xA2.1
....................          } 
....................           
....................          if(RX_Buffer[4]==0x0b){//Selecciono Segundos 
083E0:  MOVF   34,W
083E2:  SUBLW  0B
083E4:  BNZ   83EA
....................             Segundos=ON; 
083E6:  BSF    xA2.1
....................             Minutos=OFF; 
083E8:  BCF    xA2.0
....................          }            
....................           
....................          if(RX_Buffer[4]==0x11 || LEFT){//Selecciono Regresar 
083EA:  MOVF   34,W
083EC:  SUBLW  11
083EE:  BZ    83F6
083F0:  BSF    F93.3
083F2:  BTFSC  F81.3
083F4:  BRA    8520
....................             delay_ms(200); 
083F6:  MOVLW  C8
083F8:  MOVLB  6
083FA:  MOVWF  xA8
083FC:  MOVLB  0
083FE:  CALL   1D14
....................             if(RX_Buffer[4]==0x11 || LEFT){ 
08402:  MOVF   34,W
08404:  SUBLW  11
08406:  BZ    840E
08408:  BSF    F93.3
0840A:  BTFSC  F81.3
0840C:  BRA    8520
....................                Segundos=OFF; 
0840E:  BCF    xA2.1
....................                Minutos=OFF; 
08410:  BCF    xA2.0
....................                printf("page CicloPersona"); 
08412:  MOVLW  5A
08414:  MOVWF  FF6
08416:  MOVLW  09
08418:  MOVWF  FF7
0841A:  MOVLW  00
0841C:  MOVWF  FF8
0841E:  CALL   37BA
....................                SendDataDisplay();   
08422:  CALL   37EC
....................                if(!GuardaEEPROM){ 
08426:  BTFSC  xA2.2
08428:  BRA    8520
....................                   CiclosPersonalizados[CicloLibre-1].Minutoest=mEstp; 
0842A:  MOVLW  01
0842C:  MOVLB  3
0842E:  SUBWF  x29,W
08430:  MULLW  0A
08432:  MOVF   FF3,W
08434:  MOVLB  6
08436:  CLRF   x97
08438:  MOVWF  x96
0843A:  MOVLW  09
0843C:  ADDWF  x96,W
0843E:  MOVWF  01
08440:  MOVLW  00
08442:  ADDWFC x97,W
08444:  MOVWF  03
08446:  MOVF   01,W
08448:  ADDLW  6E
0844A:  MOVWF  FE9
0844C:  MOVLW  06
0844E:  ADDWFC 03,W
08450:  MOVWF  FEA
08452:  MOVFF  BE,FEF
....................                   CiclosPersonalizados[CicloLibre-1].Segundoest=sEstp; 
08456:  MOVLW  01
08458:  MOVLB  3
0845A:  SUBWF  x29,W
0845C:  MULLW  0A
0845E:  MOVF   FF3,W
08460:  MOVLB  6
08462:  CLRF   x97
08464:  MOVWF  x96
08466:  MOVLW  03
08468:  ADDWF  x96,W
0846A:  MOVWF  01
0846C:  MOVLW  00
0846E:  ADDWFC x97,W
08470:  MOVWF  03
08472:  MOVF   01,W
08474:  ADDLW  6E
08476:  MOVWF  FE9
08478:  MOVLW  06
0847A:  ADDWFC 03,W
0847C:  MOVWF  FEA
0847E:  MOVFF  BD,FEF
....................                   write_eeprom(101+((CicloLibre-1)*8),mEstp); 
08482:  MOVLW  01
08484:  MOVLB  3
08486:  SUBWF  x29,W
08488:  MULLW  08
0848A:  MOVF   FF3,W
0848C:  ADDLW  65
0848E:  MOVLB  6
08490:  MOVWF  x96
08492:  CLRF   FAA
08494:  MOVFF  696,FA9
08498:  MOVFF  BE,FA8
0849C:  BCF    FA6.6
0849E:  BCF    FA6.7
084A0:  BSF    FA6.2
084A2:  MOVF   FF2,W
084A4:  MOVWF  00
084A6:  BCF    FF2.6
084A8:  BCF    FF2.7
084AA:  MOVLB  F
084AC:  MOVLW  55
084AE:  MOVWF  FA7
084B0:  MOVLW  AA
084B2:  MOVWF  FA7
084B4:  BSF    FA6.1
084B6:  BTFSC  FA6.1
084B8:  BRA    84B6
084BA:  BCF    FA6.2
084BC:  MOVF   00,W
084BE:  IORWF  FF2,F
....................                   delay_ms(10); 
084C0:  MOVLW  0A
084C2:  MOVLB  6
084C4:  MOVWF  xA8
084C6:  MOVLB  0
084C8:  CALL   1D14
....................                   write_eeprom(102+((CicloLibre-1)*8),sEstp); 
084CC:  MOVLW  01
084CE:  MOVLB  3
084D0:  SUBWF  x29,W
084D2:  MULLW  08
084D4:  MOVF   FF3,W
084D6:  ADDLW  66
084D8:  MOVLB  6
084DA:  MOVWF  x96
084DC:  CLRF   FAA
084DE:  MOVFF  696,FA9
084E2:  MOVFF  BD,FA8
084E6:  BCF    FA6.6
084E8:  BCF    FA6.7
084EA:  BSF    FA6.2
084EC:  MOVF   FF2,W
084EE:  MOVWF  00
084F0:  BCF    FF2.6
084F2:  BCF    FF2.7
084F4:  MOVLB  F
084F6:  MOVLW  55
084F8:  MOVWF  FA7
084FA:  MOVLW  AA
084FC:  MOVWF  FA7
084FE:  BSF    FA6.1
08500:  BTFSC  FA6.1
08502:  BRA    8500
08504:  BCF    FA6.2
08506:  MOVF   00,W
08508:  IORWF  FF2,F
....................                   delay_ms(10); 
0850A:  MOVLW  0A
0850C:  MOVLB  6
0850E:  MOVWF  xA8
08510:  MOVLB  0
08512:  CALL   1D14
....................                   mEst=mEstp; 
08516:  MOVFF  BE,BA
....................                   sEst=sEstp; 
0851A:  MOVFF  BD,B9
....................                   GuardaEEPROM=ON; 
0851E:  BSF    xA2.2
....................                } 
....................             } 
....................          } 
....................           
....................          if(RIGHT){ 
08520:  BSF    F93.2
08522:  BTFSC  F81.2
08524:  BRA    859A
....................             delay_ms(200); 
08526:  MOVLW  C8
08528:  MOVLB  6
0852A:  MOVWF  xA8
0852C:  MOVLB  0
0852E:  CALL   1D14
....................             if(RIGHT){ 
08532:  BSF    F93.2
08534:  BTFSC  F81.2
08536:  BRA    859A
....................                if(!Segundos){ 
08538:  BTFSC  xA2.1
0853A:  BRA    856A
....................                   Segundos=ON; 
0853C:  BSF    xA2.1
....................                   Minutos=OFF; 
0853E:  BCF    xA2.0
....................                   printf("tsecest.pco=65535"); 
08540:  MOVLW  6C
08542:  MOVWF  FF6
08544:  MOVLW  09
08546:  MOVWF  FF7
08548:  MOVLW  00
0854A:  MOVWF  FF8
0854C:  CALL   37BA
....................                   SendDataDisplay();   
08550:  CALL   37EC
....................                   printf("tminest.pco=0"); 
08554:  MOVLW  7E
08556:  MOVWF  FF6
08558:  MOVLW  09
0855A:  MOVWF  FF7
0855C:  MOVLW  00
0855E:  MOVWF  FF8
08560:  CALL   37BA
....................                   SendDataDisplay();   
08564:  CALL   37EC
....................                }else if(!Minutos){ 
08568:  BRA    859A
0856A:  BTFSC  xA2.0
0856C:  BRA    859A
....................                   Segundos=OFF; 
0856E:  BCF    xA2.1
....................                   Minutos=ON; 
08570:  BSF    xA2.0
....................                   printf("tsecest.pco=0"); 
08572:  MOVLW  8C
08574:  MOVWF  FF6
08576:  MOVLW  09
08578:  MOVWF  FF7
0857A:  MOVLW  00
0857C:  MOVWF  FF8
0857E:  CALL   37BA
....................                   SendDataDisplay();   
08582:  CALL   37EC
....................                   printf("tminest.pco=65535"); 
08586:  MOVLW  9A
08588:  MOVWF  FF6
0858A:  MOVLW  09
0858C:  MOVWF  FF7
0858E:  MOVLW  00
08590:  MOVWF  FF8
08592:  CALL   37BA
....................                   SendDataDisplay();   
08596:  CALL   37EC
....................                } 
....................             } 
....................          } 
....................           
....................          if(UP){ 
0859A:  BSF    F93.0
0859C:  BTFSC  F81.0
0859E:  BRA    85BE
....................             delay_ms(200); 
085A0:  MOVLW  C8
085A2:  MOVLB  6
085A4:  MOVWF  xA8
085A6:  MOVLB  0
085A8:  CALL   1D14
....................             if(UP){ 
085AC:  BSF    F93.0
085AE:  BTFSC  F81.0
085B0:  BRA    85BE
....................                if(Segundos){ 
085B2:  BTFSS  xA2.1
085B4:  BRA    85B8
....................                   sEstp++; 
085B6:  INCF   xBD,F
....................                } 
....................                if(Minutos){ 
085B8:  BTFSS  xA2.0
085BA:  BRA    85BE
....................                   mEstp++; 
085BC:  INCF   xBE,F
....................                }     
....................             } 
....................          } 
....................           
....................          if(DOWN){ 
085BE:  BSF    F93.1
085C0:  BTFSC  F81.1
085C2:  BRA    85E6
....................             delay_ms(200); 
085C4:  MOVLW  C8
085C6:  MOVLB  6
085C8:  MOVWF  xA8
085CA:  MOVLB  0
085CC:  CALL   1D14
....................             if(DOWN){ 
085D0:  BSF    F93.1
085D2:  BTFSC  F81.1
085D4:  BRA    85E6
....................                if(Segundos && sEstp>0){ 
085D6:  BTFSS  xA2.1
085D8:  BRA    85E0
085DA:  MOVF   xBD,F
085DC:  BZ    85E0
....................                   sEstp--; 
085DE:  DECF   xBD,F
....................                } 
....................                if(Minutos){ 
085E0:  BTFSS  xA2.0
085E2:  BRA    85E6
....................                   mEstp--; 
085E4:  DECF   xBE,F
....................                }     
....................             } 
....................          } 
....................           
....................          if(RX_Buffer[4]==0x0c || RX_Buffer[4]==0x0d){//Tecla arriba Oprimida 
085E6:  MOVF   34,W
085E8:  SUBLW  0C
085EA:  BZ    85F2
085EC:  MOVF   34,W
085EE:  SUBLW  0D
085F0:  BNZ   8602
....................             if(Segundos){ 
085F2:  BTFSS  xA2.1
085F4:  BRA    85F8
....................                sEstp++; 
085F6:  INCF   xBD,F
....................             } 
....................             if(Minutos){ 
085F8:  BTFSS  xA2.0
085FA:  BRA    85FE
....................                mEstp++; 
085FC:  INCF   xBE,F
....................             }   
....................             RX_Buffer[4]=0x00;   
085FE:  CLRF   34
....................             RX_Buffer2[4]=0x00; 
08600:  CLRF   3F
....................          } 
....................           
....................          if(RX_Buffer[4]==0x0f || RX_Buffer[4]==0x0e){//Tecla abajo oprimida 
08602:  MOVF   34,W
08604:  SUBLW  0F
08606:  BZ    860E
08608:  MOVF   34,W
0860A:  SUBLW  0E
0860C:  BNZ   8622
....................             if(Segundos && sEstp>0){ 
0860E:  BTFSS  xA2.1
08610:  BRA    8618
08612:  MOVF   xBD,F
08614:  BZ    8618
....................                sEstp--; 
08616:  DECF   xBD,F
....................             } 
....................             if(Minutos){ 
08618:  BTFSS  xA2.0
0861A:  BRA    861E
....................                mEstp--; 
0861C:  DECF   xBE,F
....................             } 
....................             RX_Buffer[4]=0x00;   
0861E:  CLRF   34
....................             RX_Buffer2[4]=0x00; 
08620:  CLRF   3F
....................          } 
....................           
....................          if(mEstp<1)mEstp=99; 
08622:  MOVF   xBE,F
08624:  BNZ   862A
08626:  MOVLW  63
08628:  MOVWF  xBE
....................          if(mEstp>99)mEstp=1; 
0862A:  MOVF   xBE,W
0862C:  SUBLW  63
0862E:  BC    8634
08630:  MOVLW  01
08632:  MOVWF  xBE
....................          if(sEstp>59)sEstp=0; 
08634:  MOVF   xBD,W
08636:  SUBLW  3B
08638:  BTFSS  FD8.0
0863A:  CLRF   xBD
....................              
....................          printf("tminest.txt=\"%02u\"",mEstp); 
0863C:  MOVLW  AC
0863E:  MOVWF  FF6
08640:  MOVLW  09
08642:  MOVWF  FF7
08644:  MOVLW  00
08646:  MOVWF  FF8
08648:  MOVLW  0D
0864A:  MOVLB  6
0864C:  MOVWF  x9A
0864E:  MOVLB  0
08650:  CALL   4EA0
08654:  MOVFF  BE,698
08658:  MOVLW  01
0865A:  MOVLB  6
0865C:  MOVWF  x99
0865E:  MOVLB  0
08660:  CALL   4EFE
08664:  MOVLW  22
08666:  BTFSS  F9E.4
08668:  BRA    8666
0866A:  MOVWF  FAD
....................          SendDataDisplay(); 
0866C:  CALL   37EC
....................          printf("tsecest.txt=\"%02u\"",sEstp); 
08670:  MOVLW  C0
08672:  MOVWF  FF6
08674:  MOVLW  09
08676:  MOVWF  FF7
08678:  MOVLW  00
0867A:  MOVWF  FF8
0867C:  MOVLW  0D
0867E:  MOVLB  6
08680:  MOVWF  x9A
08682:  MOVLB  0
08684:  CALL   4EA0
08688:  MOVFF  BD,698
0868C:  MOVLW  01
0868E:  MOVLB  6
08690:  MOVWF  x99
08692:  MOVLB  0
08694:  CALL   4EFE
08698:  MOVLW  22
0869A:  BTFSS  F9E.4
0869C:  BRA    869A
0869E:  MOVWF  FAD
....................          SendDataDisplay(); 
086A0:  CALL   37EC
086A4:  MOVLB  3
....................     } 
.................... //_--------------------------------------------------------------------------------------------------------------------------------------------------------        
....................  
.................... //_-------------------------------------------------------------------------------------------------------------------------------------------------------- 
....................     if(Menu==3){ //Menu de Tiempo de Secado 
086A6:  MOVF   x41,W
086A8:  SUBLW  03
086AA:  BTFSS  FD8.2
086AC:  BRA    8A32
....................       printf("fecha.txt=\"Fecha:%02u/%02u/20%02u    Hora: %02u:%02u:%02u\"",Dia,Mes,Year,Hora,Minuto,Segundo); 
086AE:  MOVLW  D4
086B0:  MOVWF  FF6
086B2:  MOVLW  09
086B4:  MOVWF  FF7
086B6:  MOVLW  00
086B8:  MOVWF  FF8
086BA:  MOVLW  11
086BC:  MOVLB  6
086BE:  MOVWF  x9A
086C0:  MOVLB  0
086C2:  CALL   4EA0
086C6:  MOVFF  381,698
086CA:  MOVLW  01
086CC:  MOVLB  6
086CE:  MOVWF  x99
086D0:  MOVLB  0
086D2:  CALL   4EFE
086D6:  MOVLW  2F
086D8:  BTFSS  F9E.4
086DA:  BRA    86D8
086DC:  MOVWF  FAD
086DE:  MOVFF  380,698
086E2:  MOVLW  01
086E4:  MOVLB  6
086E6:  MOVWF  x99
086E8:  MOVLB  0
086EA:  CALL   4EFE
086EE:  MOVLW  2F
086F0:  BTFSS  F9E.4
086F2:  BRA    86F0
086F4:  MOVWF  FAD
086F6:  MOVLW  32
086F8:  BTFSS  F9E.4
086FA:  BRA    86F8
086FC:  MOVWF  FAD
086FE:  MOVLW  30
08700:  BTFSS  F9E.4
08702:  BRA    8700
08704:  MOVWF  FAD
08706:  MOVFF  37F,698
0870A:  MOVLW  01
0870C:  MOVLB  6
0870E:  MOVWF  x99
08710:  MOVLB  0
08712:  CALL   4EFE
08716:  MOVLW  F5
08718:  MOVWF  FF6
0871A:  MOVLW  09
0871C:  MOVWF  FF7
0871E:  MOVLW  00
08720:  MOVWF  FF8
08722:  MOVLW  0A
08724:  MOVLB  6
08726:  MOVWF  x9A
08728:  MOVLB  0
0872A:  CALL   4EA0
0872E:  MOVFF  382,698
08732:  MOVLW  01
08734:  MOVLB  6
08736:  MOVWF  x99
08738:  MOVLB  0
0873A:  CALL   4EFE
0873E:  MOVLW  3A
08740:  BTFSS  F9E.4
08742:  BRA    8740
08744:  MOVWF  FAD
08746:  MOVFF  383,698
0874A:  MOVLW  01
0874C:  MOVLB  6
0874E:  MOVWF  x99
08750:  MOVLB  0
08752:  CALL   4EFE
08756:  MOVLW  3A
08758:  BTFSS  F9E.4
0875A:  BRA    8758
0875C:  MOVWF  FAD
0875E:  MOVFF  384,698
08762:  MOVLW  01
08764:  MOVLB  6
08766:  MOVWF  x99
08768:  MOVLB  0
0876A:  CALL   4EFE
0876E:  MOVLW  22
08770:  BTFSS  F9E.4
08772:  BRA    8770
08774:  MOVWF  FAD
....................       SendDataDisplay();             
08776:  CALL   37EC
....................              
....................          if(RX_Buffer[4]==0x0a){//Selecciono Minutos 
0877A:  MOVF   34,W
0877C:  SUBLW  0A
0877E:  BNZ   8784
....................             Minutos=ON; 
08780:  BSF    xA2.0
....................             Segundos=OFF; 
08782:  BCF    xA2.1
....................          } 
....................           
....................          if(RX_Buffer[4]==0x0b){//Selecciono Segundos 
08784:  MOVF   34,W
08786:  SUBLW  0B
08788:  BNZ   878E
....................             Segundos=ON; 
0878A:  BSF    xA2.1
....................             Minutos=OFF; 
0878C:  BCF    xA2.0
....................          } 
....................           
....................          if(RX_Buffer[4]==0x11 || LEFT){//Selecciono Regresar 
0878E:  MOVF   34,W
08790:  SUBLW  11
08792:  BZ    879A
08794:  BSF    F93.3
08796:  BTFSC  F81.3
08798:  BRA    88AC
....................             Segundos=OFF; 
0879A:  BCF    xA2.1
....................             Minutos=OFF; 
0879C:  BCF    xA2.0
....................             printf("page CicloPersona"); 
0879E:  MOVLW  10
087A0:  MOVWF  FF6
087A2:  MOVLW  0A
087A4:  MOVWF  FF7
087A6:  MOVLW  00
087A8:  MOVWF  FF8
087AA:  CALL   37BA
....................             SendDataDisplay();   
087AE:  CALL   37EC
....................             if(!GuardaEEPROM){ 
087B2:  BTFSC  xA2.2
087B4:  BRA    88AC
....................                CiclosPersonalizados[CicloLibre-1].Minutosec=mSecp; 
087B6:  MOVLW  01
087B8:  MOVLB  3
087BA:  SUBWF  x29,W
087BC:  MULLW  0A
087BE:  MOVF   FF3,W
087C0:  MOVLB  6
087C2:  CLRF   x97
087C4:  MOVWF  x96
087C6:  MOVLW  04
087C8:  ADDWF  x96,W
087CA:  MOVWF  01
087CC:  MOVLW  00
087CE:  ADDWFC x97,W
087D0:  MOVWF  03
087D2:  MOVF   01,W
087D4:  ADDLW  6E
087D6:  MOVWF  FE9
087D8:  MOVLW  06
087DA:  ADDWFC 03,W
087DC:  MOVWF  FEA
087DE:  MOVFF  C0,FEF
....................                CiclosPersonalizados[CicloLibre-1].Segundosec=sSecp; 
087E2:  MOVLW  01
087E4:  MOVLB  3
087E6:  SUBWF  x29,W
087E8:  MULLW  0A
087EA:  MOVF   FF3,W
087EC:  MOVLB  6
087EE:  CLRF   x97
087F0:  MOVWF  x96
087F2:  MOVLW  05
087F4:  ADDWF  x96,W
087F6:  MOVWF  01
087F8:  MOVLW  00
087FA:  ADDWFC x97,W
087FC:  MOVWF  03
087FE:  MOVF   01,W
08800:  ADDLW  6E
08802:  MOVWF  FE9
08804:  MOVLW  06
08806:  ADDWFC 03,W
08808:  MOVWF  FEA
0880A:  MOVFF  BF,FEF
....................                write_eeprom(103+((CicloLibre-1)*8),mSecp); 
0880E:  MOVLW  01
08810:  MOVLB  3
08812:  SUBWF  x29,W
08814:  MULLW  08
08816:  MOVF   FF3,W
08818:  ADDLW  67
0881A:  MOVLB  6
0881C:  MOVWF  x96
0881E:  CLRF   FAA
08820:  MOVFF  696,FA9
08824:  MOVFF  C0,FA8
08828:  BCF    FA6.6
0882A:  BCF    FA6.7
0882C:  BSF    FA6.2
0882E:  MOVF   FF2,W
08830:  MOVWF  00
08832:  BCF    FF2.6
08834:  BCF    FF2.7
08836:  MOVLB  F
08838:  MOVLW  55
0883A:  MOVWF  FA7
0883C:  MOVLW  AA
0883E:  MOVWF  FA7
08840:  BSF    FA6.1
08842:  BTFSC  FA6.1
08844:  BRA    8842
08846:  BCF    FA6.2
08848:  MOVF   00,W
0884A:  IORWF  FF2,F
....................                delay_ms(10); 
0884C:  MOVLW  0A
0884E:  MOVLB  6
08850:  MOVWF  xA8
08852:  MOVLB  0
08854:  CALL   1D14
....................                write_eeprom(104+((CicloLibre-1)*8),sSecp); 
08858:  MOVLW  01
0885A:  MOVLB  3
0885C:  SUBWF  x29,W
0885E:  MULLW  08
08860:  MOVF   FF3,W
08862:  ADDLW  68
08864:  MOVLB  6
08866:  MOVWF  x96
08868:  CLRF   FAA
0886A:  MOVFF  696,FA9
0886E:  MOVFF  BF,FA8
08872:  BCF    FA6.6
08874:  BCF    FA6.7
08876:  BSF    FA6.2
08878:  MOVF   FF2,W
0887A:  MOVWF  00
0887C:  BCF    FF2.6
0887E:  BCF    FF2.7
08880:  MOVLB  F
08882:  MOVLW  55
08884:  MOVWF  FA7
08886:  MOVLW  AA
08888:  MOVWF  FA7
0888A:  BSF    FA6.1
0888C:  BTFSC  FA6.1
0888E:  BRA    888C
08890:  BCF    FA6.2
08892:  MOVF   00,W
08894:  IORWF  FF2,F
....................                delay_ms(10); 
08896:  MOVLW  0A
08898:  MOVLB  6
0889A:  MOVWF  xA8
0889C:  MOVLB  0
0889E:  CALL   1D14
....................                mSec=mSecp; 
088A2:  MOVFF  C0,BC
....................                sSec=sSecp; 
088A6:  MOVFF  BF,BB
....................                GuardaEEPROM=ON; 
088AA:  BSF    xA2.2
....................             } 
....................          } 
....................           
....................          if(RIGHT){ 
088AC:  BSF    F93.2
088AE:  BTFSC  F81.2
088B0:  BRA    8926
....................             delay_ms(200); 
088B2:  MOVLW  C8
088B4:  MOVLB  6
088B6:  MOVWF  xA8
088B8:  MOVLB  0
088BA:  CALL   1D14
....................             if(RIGHT){ 
088BE:  BSF    F93.2
088C0:  BTFSC  F81.2
088C2:  BRA    8926
....................                if(!Segundos){ 
088C4:  BTFSC  xA2.1
088C6:  BRA    88F6
....................                   Segundos=ON; 
088C8:  BSF    xA2.1
....................                   Minutos=OFF; 
088CA:  BCF    xA2.0
....................                   printf("tminsec.pco=0"); 
088CC:  MOVLW  22
088CE:  MOVWF  FF6
088D0:  MOVLW  0A
088D2:  MOVWF  FF7
088D4:  MOVLW  00
088D6:  MOVWF  FF8
088D8:  CALL   37BA
....................                   SendDataDisplay();                    
088DC:  CALL   37EC
....................                   printf("tsecsec.pco=65535"); 
088E0:  MOVLW  30
088E2:  MOVWF  FF6
088E4:  MOVLW  0A
088E6:  MOVWF  FF7
088E8:  MOVLW  00
088EA:  MOVWF  FF8
088EC:  CALL   37BA
....................                   SendDataDisplay();   
088F0:  CALL   37EC
....................                }else if(!Minutos){ 
088F4:  BRA    8926
088F6:  BTFSC  xA2.0
088F8:  BRA    8926
....................                   Segundos=OFF; 
088FA:  BCF    xA2.1
....................                   Minutos=ON; 
088FC:  BSF    xA2.0
....................                   printf("tminsec.pco=65535"); 
088FE:  MOVLW  42
08900:  MOVWF  FF6
08902:  MOVLW  0A
08904:  MOVWF  FF7
08906:  MOVLW  00
08908:  MOVWF  FF8
0890A:  CALL   37BA
....................                   SendDataDisplay();   
0890E:  CALL   37EC
....................                   printf("tsecsec.pco=0"); 
08912:  MOVLW  54
08914:  MOVWF  FF6
08916:  MOVLW  0A
08918:  MOVWF  FF7
0891A:  MOVLW  00
0891C:  MOVWF  FF8
0891E:  CALL   37BA
....................                   SendDataDisplay();   
08922:  CALL   37EC
....................                } 
....................             } 
....................          } 
....................           
....................          if(UP){ 
08926:  BSF    F93.0
08928:  BTFSC  F81.0
0892A:  BRA    894A
....................             delay_ms(200); 
0892C:  MOVLW  C8
0892E:  MOVLB  6
08930:  MOVWF  xA8
08932:  MOVLB  0
08934:  CALL   1D14
....................             if(UP){ 
08938:  BSF    F93.0
0893A:  BTFSC  F81.0
0893C:  BRA    894A
....................                if(Segundos){ 
0893E:  BTFSS  xA2.1
08940:  BRA    8944
....................                   sSecp++; 
08942:  INCF   xBF,F
....................                } 
....................                if(Minutos){ 
08944:  BTFSS  xA2.0
08946:  BRA    894A
....................                   mSecp++; 
08948:  INCF   xC0,F
....................                }   
....................             } 
....................          } 
....................           
....................          if(DOWN){ 
0894A:  BSF    F93.1
0894C:  BTFSC  F81.1
0894E:  BRA    8972
....................             delay_ms(200); 
08950:  MOVLW  C8
08952:  MOVLB  6
08954:  MOVWF  xA8
08956:  MOVLB  0
08958:  CALL   1D14
....................             if(DOWN){ 
0895C:  BSF    F93.1
0895E:  BTFSC  F81.1
08960:  BRA    8972
....................                if(Segundos && sSecp>0){ 
08962:  BTFSS  xA2.1
08964:  BRA    896C
08966:  MOVF   xBF,F
08968:  BZ    896C
....................                   sSecp--; 
0896A:  DECF   xBF,F
....................                } 
....................                if(Minutos){ 
0896C:  BTFSS  xA2.0
0896E:  BRA    8972
....................                   mSecp--; 
08970:  DECF   xC0,F
....................                }   
....................             } 
....................          } 
....................           
....................          if(RX_Buffer[4]==0x0c || RX_Buffer[4]==0x0d){//Tecla Derecha Oprimida 
08972:  MOVF   34,W
08974:  SUBLW  0C
08976:  BZ    897E
08978:  MOVF   34,W
0897A:  SUBLW  0D
0897C:  BNZ   898E
....................             if(Segundos){ 
0897E:  BTFSS  xA2.1
08980:  BRA    8984
....................                sSecp++; 
08982:  INCF   xBF,F
....................             } 
....................             if(Minutos){ 
08984:  BTFSS  xA2.0
08986:  BRA    898A
....................                mSecp++; 
08988:  INCF   xC0,F
....................             }   
....................             RX_Buffer[4]=0x00;   
0898A:  CLRF   34
....................             RX_Buffer2[4]=0x00;  
0898C:  CLRF   3F
....................          } 
....................           
....................          if(RX_Buffer[4]==0x0f || RX_Buffer[4]==0x0e){//Tecla Izquierda Oprimida 
0898E:  MOVF   34,W
08990:  SUBLW  0F
08992:  BZ    899A
08994:  MOVF   34,W
08996:  SUBLW  0E
08998:  BNZ   89AE
....................             if(Segundos && sSecp>0){ 
0899A:  BTFSS  xA2.1
0899C:  BRA    89A4
0899E:  MOVF   xBF,F
089A0:  BZ    89A4
....................                sSecp--; 
089A2:  DECF   xBF,F
....................             } 
....................             if(Minutos){ 
089A4:  BTFSS  xA2.0
089A6:  BRA    89AA
....................                mSecp--; 
089A8:  DECF   xC0,F
....................             }  
....................             RX_Buffer[4]=0x00;   
089AA:  CLRF   34
....................             RX_Buffer2[4]=0x00;             
089AC:  CLRF   3F
....................          } 
....................          if(mSecp<1)mSecp=99; 
089AE:  MOVF   xC0,F
089B0:  BNZ   89B6
089B2:  MOVLW  63
089B4:  MOVWF  xC0
....................          if(mSecp>99)mSecp=1; 
089B6:  MOVF   xC0,W
089B8:  SUBLW  63
089BA:  BC    89C0
089BC:  MOVLW  01
089BE:  MOVWF  xC0
....................          if(sSecp>59)mSecp=0; 
089C0:  MOVF   xBF,W
089C2:  SUBLW  3B
089C4:  BTFSS  FD8.0
089C6:  CLRF   xC0
....................              
....................       printf("tminsec.txt=\"%02u\"",mSecp); 
089C8:  MOVLW  62
089CA:  MOVWF  FF6
089CC:  MOVLW  0A
089CE:  MOVWF  FF7
089D0:  MOVLW  00
089D2:  MOVWF  FF8
089D4:  MOVLW  0D
089D6:  MOVLB  6
089D8:  MOVWF  x9A
089DA:  MOVLB  0
089DC:  CALL   4EA0
089E0:  MOVFF  C0,698
089E4:  MOVLW  01
089E6:  MOVLB  6
089E8:  MOVWF  x99
089EA:  MOVLB  0
089EC:  CALL   4EFE
089F0:  MOVLW  22
089F2:  BTFSS  F9E.4
089F4:  BRA    89F2
089F6:  MOVWF  FAD
....................       SendDataDisplay(); 
089F8:  CALL   37EC
....................       printf("tsecsec.txt=\"%02u\"",sSecp); 
089FC:  MOVLW  76
089FE:  MOVWF  FF6
08A00:  MOVLW  0A
08A02:  MOVWF  FF7
08A04:  MOVLW  00
08A06:  MOVWF  FF8
08A08:  MOVLW  0D
08A0A:  MOVLB  6
08A0C:  MOVWF  x9A
08A0E:  MOVLB  0
08A10:  CALL   4EA0
08A14:  MOVFF  BF,698
08A18:  MOVLW  01
08A1A:  MOVLB  6
08A1C:  MOVWF  x99
08A1E:  MOVLB  0
08A20:  CALL   4EFE
08A24:  MOVLW  22
08A26:  BTFSS  F9E.4
08A28:  BRA    8A26
08A2A:  MOVWF  FAD
....................       SendDataDisplay(); 
08A2C:  CALL   37EC
08A30:  MOVLB  3
....................     } 
.................... //_--------------------------------------------------------------------------------------------------------------------------------------------------------        
....................  
.................... //_-------------------------------------------------------------------------------------------------------------------------------------------------------- 
....................     if(Menu==4){ //Menu de Temperatura 
08A32:  MOVF   x41,W
08A34:  SUBLW  04
08A36:  BTFSS  FD8.2
08A38:  BRA    8C46
....................       printf("fecha.txt=\"Fecha:%02u/%02u/20%02u    Hora: %02u:%02u:%02u\"",Dia,Mes,Year,Hora,Minuto,Segundo); 
08A3A:  MOVLW  8A
08A3C:  MOVWF  FF6
08A3E:  MOVLW  0A
08A40:  MOVWF  FF7
08A42:  MOVLW  00
08A44:  MOVWF  FF8
08A46:  MOVLW  11
08A48:  MOVLB  6
08A4A:  MOVWF  x9A
08A4C:  MOVLB  0
08A4E:  CALL   4EA0
08A52:  MOVFF  381,698
08A56:  MOVLW  01
08A58:  MOVLB  6
08A5A:  MOVWF  x99
08A5C:  MOVLB  0
08A5E:  CALL   4EFE
08A62:  MOVLW  2F
08A64:  BTFSS  F9E.4
08A66:  BRA    8A64
08A68:  MOVWF  FAD
08A6A:  MOVFF  380,698
08A6E:  MOVLW  01
08A70:  MOVLB  6
08A72:  MOVWF  x99
08A74:  MOVLB  0
08A76:  CALL   4EFE
08A7A:  MOVLW  2F
08A7C:  BTFSS  F9E.4
08A7E:  BRA    8A7C
08A80:  MOVWF  FAD
08A82:  MOVLW  32
08A84:  BTFSS  F9E.4
08A86:  BRA    8A84
08A88:  MOVWF  FAD
08A8A:  MOVLW  30
08A8C:  BTFSS  F9E.4
08A8E:  BRA    8A8C
08A90:  MOVWF  FAD
08A92:  MOVFF  37F,698
08A96:  MOVLW  01
08A98:  MOVLB  6
08A9A:  MOVWF  x99
08A9C:  MOVLB  0
08A9E:  CALL   4EFE
08AA2:  MOVLW  AB
08AA4:  MOVWF  FF6
08AA6:  MOVLW  0A
08AA8:  MOVWF  FF7
08AAA:  MOVLW  00
08AAC:  MOVWF  FF8
08AAE:  MOVLW  0A
08AB0:  MOVLB  6
08AB2:  MOVWF  x9A
08AB4:  MOVLB  0
08AB6:  CALL   4EA0
08ABA:  MOVFF  382,698
08ABE:  MOVLW  01
08AC0:  MOVLB  6
08AC2:  MOVWF  x99
08AC4:  MOVLB  0
08AC6:  CALL   4EFE
08ACA:  MOVLW  3A
08ACC:  BTFSS  F9E.4
08ACE:  BRA    8ACC
08AD0:  MOVWF  FAD
08AD2:  MOVFF  383,698
08AD6:  MOVLW  01
08AD8:  MOVLB  6
08ADA:  MOVWF  x99
08ADC:  MOVLB  0
08ADE:  CALL   4EFE
08AE2:  MOVLW  3A
08AE4:  BTFSS  F9E.4
08AE6:  BRA    8AE4
08AE8:  MOVWF  FAD
08AEA:  MOVFF  384,698
08AEE:  MOVLW  01
08AF0:  MOVLB  6
08AF2:  MOVWF  x99
08AF4:  MOVLB  0
08AF6:  CALL   4EFE
08AFA:  MOVLW  22
08AFC:  BTFSS  F9E.4
08AFE:  BRA    8AFC
08B00:  MOVWF  FAD
....................       SendDataDisplay(); 
08B02:  CALL   37EC
....................          if(Setpoint<105) 
08B06:  MOVLB  3
08B08:  MOVF   x48,W
08B0A:  SUBLW  68
08B0C:  BNC   8B12
....................             Setpoint=134; 
08B0E:  MOVLW  86
08B10:  MOVWF  x48
....................          if(Setpoint>134) 
08B12:  MOVF   x48,W
08B14:  SUBLW  86
08B16:  BC    8B1C
....................             Setpoint=105; 
08B18:  MOVLW  69
08B1A:  MOVWF  x48
....................           
....................          if(RX_Buffer[4]==0x11 || LEFT){//Selecciono Regresar 
08B1C:  MOVF   34,W
08B1E:  SUBLW  11
08B20:  BZ    8B28
08B22:  BSF    F93.3
08B24:  BTFSC  F81.3
08B26:  BRA    8BB4
....................             Segundos=OFF; 
08B28:  MOVLB  0
08B2A:  BCF    xA2.1
....................             Minutos=OFF; 
08B2C:  BCF    xA2.0
....................             printf("page CicloPersona"); 
08B2E:  MOVLW  C6
08B30:  MOVWF  FF6
08B32:  MOVLW  0A
08B34:  MOVWF  FF7
08B36:  MOVLW  00
08B38:  MOVWF  FF8
08B3A:  CALL   37BA
....................             SendDataDisplay();   
08B3E:  CALL   37EC
....................             if(!GuardaEEPROM){ 
08B42:  BTFSC  xA2.2
08B44:  BRA    8BB2
....................                CiclosPersonalizados[CicloLibre-1].Temperatura=Setpoint; 
08B46:  MOVLW  01
08B48:  MOVLB  3
08B4A:  SUBWF  x29,W
08B4C:  MULLW  0A
08B4E:  MOVF   FF3,W
08B50:  MOVLB  6
08B52:  CLRF   x97
08B54:  MOVWF  x96
08B56:  MOVLW  6E
08B58:  ADDWF  x96,W
08B5A:  MOVWF  FE9
08B5C:  MOVLW  06
08B5E:  ADDWFC x97,W
08B60:  MOVWF  FEA
08B62:  MOVFF  348,FEF
....................                write_eeprom(100+((CicloLibre-1)*8),Setpoint); 
08B66:  MOVLW  01
08B68:  MOVLB  3
08B6A:  SUBWF  x29,W
08B6C:  MULLW  08
08B6E:  MOVF   FF3,W
08B70:  ADDLW  64
08B72:  MOVLB  6
08B74:  MOVWF  x96
08B76:  CLRF   FAA
08B78:  MOVFF  696,FA9
08B7C:  MOVFF  348,FA8
08B80:  BCF    FA6.6
08B82:  BCF    FA6.7
08B84:  BSF    FA6.2
08B86:  MOVF   FF2,W
08B88:  MOVWF  00
08B8A:  BCF    FF2.6
08B8C:  BCF    FF2.7
08B8E:  MOVLB  F
08B90:  MOVLW  55
08B92:  MOVWF  FA7
08B94:  MOVLW  AA
08B96:  MOVWF  FA7
08B98:  BSF    FA6.1
08B9A:  BTFSC  FA6.1
08B9C:  BRA    8B9A
08B9E:  BCF    FA6.2
08BA0:  MOVF   00,W
08BA2:  IORWF  FF2,F
....................                delay_ms(10); 
08BA4:  MOVLW  0A
08BA6:  MOVLB  6
08BA8:  MOVWF  xA8
08BAA:  MOVLB  0
08BAC:  CALL   1D14
....................                GuardaEEPROM=ON; 
08BB0:  BSF    xA2.2
08BB2:  MOVLB  3
....................             } 
....................          } 
....................           
....................          if(UP){ 
08BB4:  BSF    F93.0
08BB6:  BTFSC  F81.0
08BB8:  BRA    8BD0
....................             delay_ms(200); 
08BBA:  MOVLW  C8
08BBC:  MOVLB  6
08BBE:  MOVWF  xA8
08BC0:  MOVLB  0
08BC2:  CALL   1D14
....................             if(UP){ 
08BC6:  BSF    F93.0
08BC8:  BTFSC  F81.0
08BCA:  BRA    8BD2
....................                Setpoint++; 
08BCC:  MOVLB  3
08BCE:  INCF   x48,F
08BD0:  MOVLB  0
....................             } 
....................          } 
....................           
....................          if(DOWN){ 
08BD2:  BSF    F93.1
08BD4:  BTFSC  F81.1
08BD6:  BRA    8BF0
....................             delay_ms(200); 
08BD8:  MOVLW  C8
08BDA:  MOVLB  6
08BDC:  MOVWF  xA8
08BDE:  MOVLB  0
08BE0:  CALL   1D14
....................             if(DOWN){ 
08BE4:  BSF    F93.1
08BE6:  BTFSC  F81.1
08BE8:  BRA    8BF0
....................                Setpoint--; 
08BEA:  MOVLB  3
08BEC:  DECF   x48,F
08BEE:  MOVLB  0
....................             } 
....................          } 
....................           
....................          if(RX_Buffer[4]==0x0d){//Tecla Arriba Oprimida 
08BF0:  MOVF   34,W
08BF2:  SUBLW  0D
08BF4:  BNZ   8C00
....................             Setpoint++; 
08BF6:  MOVLB  3
08BF8:  INCF   x48,F
....................             RX_Buffer[4]=0x00;   
08BFA:  CLRF   34
....................             RX_Buffer2[4]=0x00;             
08BFC:  CLRF   3F
08BFE:  MOVLB  0
....................          } 
....................           
....................          if(RX_Buffer[4]==0x0c){//Tecla Abajo Oprimida 
08C00:  MOVF   34,W
08C02:  SUBLW  0C
08C04:  BNZ   8C10
....................             Setpoint--; 
08C06:  MOVLB  3
08C08:  DECF   x48,F
....................             RX_Buffer[4]=0x00; 
08C0A:  CLRF   34
....................             RX_Buffer2[4]=0x00;                         
08C0C:  CLRF   3F
08C0E:  MOVLB  0
....................          } 
....................       printf("tsettem.txt=\"%03u\"",Setpoint); 
08C10:  MOVLW  D8
08C12:  MOVWF  FF6
08C14:  MOVLW  0A
08C16:  MOVWF  FF7
08C18:  MOVLW  00
08C1A:  MOVWF  FF8
08C1C:  MOVLW  0D
08C1E:  MOVLB  6
08C20:  MOVWF  x9A
08C22:  MOVLB  0
08C24:  CALL   4EA0
08C28:  MOVFF  348,698
08C2C:  MOVLW  03
08C2E:  MOVLB  6
08C30:  MOVWF  x99
08C32:  MOVLB  0
08C34:  CALL   4EFE
08C38:  MOVLW  22
08C3A:  BTFSS  F9E.4
08C3C:  BRA    8C3A
08C3E:  MOVWF  FAD
....................       SendDataDisplay(); 
08C40:  CALL   37EC
08C44:  MOVLB  3
....................     } 
.................... //_--------------------------------------------------------------------------------------------------------------------------------------------------------        
....................  
.................... //_--------------------------------------------------------------------------------------------------------------------------------------------------------       
....................    if(Menu==5){//Menu de Nivel 
08C46:  MOVF   x41,W
08C48:  SUBLW  05
08C4A:  BTFSS  FD8.2
08C4C:  BRA    8E8C
....................       printf("fecha.txt=\"Fecha:%02u/%02u/20%02u    Hora: %02u:%02u:%02u\"",Dia,Mes,Year,Hora,Minuto,Segundo); 
08C4E:  MOVLW  EC
08C50:  MOVWF  FF6
08C52:  MOVLW  0A
08C54:  MOVWF  FF7
08C56:  MOVLW  00
08C58:  MOVWF  FF8
08C5A:  MOVLW  11
08C5C:  MOVLB  6
08C5E:  MOVWF  x9A
08C60:  MOVLB  0
08C62:  CALL   4EA0
08C66:  MOVFF  381,698
08C6A:  MOVLW  01
08C6C:  MOVLB  6
08C6E:  MOVWF  x99
08C70:  MOVLB  0
08C72:  CALL   4EFE
08C76:  MOVLW  2F
08C78:  BTFSS  F9E.4
08C7A:  BRA    8C78
08C7C:  MOVWF  FAD
08C7E:  MOVFF  380,698
08C82:  MOVLW  01
08C84:  MOVLB  6
08C86:  MOVWF  x99
08C88:  MOVLB  0
08C8A:  CALL   4EFE
08C8E:  MOVLW  2F
08C90:  BTFSS  F9E.4
08C92:  BRA    8C90
08C94:  MOVWF  FAD
08C96:  MOVLW  32
08C98:  BTFSS  F9E.4
08C9A:  BRA    8C98
08C9C:  MOVWF  FAD
08C9E:  MOVLW  30
08CA0:  BTFSS  F9E.4
08CA2:  BRA    8CA0
08CA4:  MOVWF  FAD
08CA6:  MOVFF  37F,698
08CAA:  MOVLW  01
08CAC:  MOVLB  6
08CAE:  MOVWF  x99
08CB0:  MOVLB  0
08CB2:  CALL   4EFE
08CB6:  MOVLW  0D
08CB8:  MOVWF  FF6
08CBA:  MOVLW  0B
08CBC:  MOVWF  FF7
08CBE:  MOVLW  00
08CC0:  MOVWF  FF8
08CC2:  MOVLW  0A
08CC4:  MOVLB  6
08CC6:  MOVWF  x9A
08CC8:  MOVLB  0
08CCA:  CALL   4EA0
08CCE:  MOVFF  382,698
08CD2:  MOVLW  01
08CD4:  MOVLB  6
08CD6:  MOVWF  x99
08CD8:  MOVLB  0
08CDA:  CALL   4EFE
08CDE:  MOVLW  3A
08CE0:  BTFSS  F9E.4
08CE2:  BRA    8CE0
08CE4:  MOVWF  FAD
08CE6:  MOVFF  383,698
08CEA:  MOVLW  01
08CEC:  MOVLB  6
08CEE:  MOVWF  x99
08CF0:  MOVLB  0
08CF2:  CALL   4EFE
08CF6:  MOVLW  3A
08CF8:  BTFSS  F9E.4
08CFA:  BRA    8CF8
08CFC:  MOVWF  FAD
08CFE:  MOVFF  384,698
08D02:  MOVLW  01
08D04:  MOVLB  6
08D06:  MOVWF  x99
08D08:  MOVLB  0
08D0A:  CALL   4EFE
08D0E:  MOVLW  22
08D10:  BTFSS  F9E.4
08D12:  BRA    8D10
08D14:  MOVWF  FAD
....................       SendDataDisplay(); 
08D16:  CALL   37EC
....................          if(Nivel<25) 
08D1A:  MOVLB  3
08D1C:  MOVF   x5A,F
08D1E:  BNZ   8D2C
08D20:  MOVF   x59,W
08D22:  SUBLW  18
08D24:  BNC   8D2C
....................             Nivel=Atmosferica; 
08D26:  CLRF   x5A
08D28:  MOVFF  32F,359
....................          if(Nivel>Atmosferica) 
08D2C:  MOVF   x5A,F
08D2E:  BNZ   8D36
08D30:  MOVF   x59,W
08D32:  SUBWF  x2F,W
08D34:  BC    8D3C
....................             Nivel=25; 
08D36:  CLRF   x5A
08D38:  MOVLW  19
08D3A:  MOVWF  x59
....................           
....................          if(RX_Buffer[4]==0x11 || LEFT){//Selecciono Regresar 
08D3C:  MOVF   34,W
08D3E:  SUBLW  11
08D40:  BZ    8D48
08D42:  BSF    F93.3
08D44:  BTFSC  F81.3
08D46:  BRA    8DE6
....................             Segundos=OFF; 
08D48:  MOVLB  0
08D4A:  BCF    xA2.1
....................             Minutos=OFF;             
08D4C:  BCF    xA2.0
....................             tiempo_secado=0; 
08D4E:  MOVLB  3
08D50:  CLRF   x4C
....................             printf("page CicloPersona"); 
08D52:  MOVLW  28
08D54:  MOVWF  FF6
08D56:  MOVLW  0B
08D58:  MOVWF  FF7
08D5A:  MOVLW  00
08D5C:  MOVWF  FF8
08D5E:  MOVLB  0
08D60:  CALL   37BA
....................             SendDataDisplay();  
08D64:  CALL   37EC
....................             if(!GuardaEEPROM){     
08D68:  BTFSC  xA2.2
08D6A:  BRA    8DE4
....................                CiclosPersonalizados[CicloLibre-1].NivelVacio=Nivel; 
08D6C:  MOVLW  01
08D6E:  MOVLB  3
08D70:  SUBWF  x29,W
08D72:  MULLW  0A
08D74:  MOVF   FF3,W
08D76:  MOVLB  6
08D78:  CLRF   x97
08D7A:  MOVWF  x96
08D7C:  MOVLW  07
08D7E:  ADDWF  x96,W
08D80:  MOVWF  01
08D82:  MOVLW  00
08D84:  ADDWFC x97,W
08D86:  MOVWF  03
08D88:  MOVF   01,W
08D8A:  ADDLW  6E
08D8C:  MOVWF  FE9
08D8E:  MOVLW  06
08D90:  ADDWFC 03,W
08D92:  MOVWF  FEA
08D94:  MOVFF  359,FEF
....................                write_eeprom(106+((CicloLibre-1)*8),Nivel); 
08D98:  MOVLW  01
08D9A:  MOVLB  3
08D9C:  SUBWF  x29,W
08D9E:  MULLW  08
08DA0:  MOVF   FF3,W
08DA2:  ADDLW  6A
08DA4:  MOVLB  6
08DA6:  MOVWF  x96
08DA8:  CLRF   FAA
08DAA:  MOVFF  696,FA9
08DAE:  MOVFF  359,FA8
08DB2:  BCF    FA6.6
08DB4:  BCF    FA6.7
08DB6:  BSF    FA6.2
08DB8:  MOVF   FF2,W
08DBA:  MOVWF  00
08DBC:  BCF    FF2.6
08DBE:  BCF    FF2.7
08DC0:  MOVLB  F
08DC2:  MOVLW  55
08DC4:  MOVWF  FA7
08DC6:  MOVLW  AA
08DC8:  MOVWF  FA7
08DCA:  BSF    FA6.1
08DCC:  BTFSC  FA6.1
08DCE:  BRA    8DCC
08DD0:  BCF    FA6.2
08DD2:  MOVF   00,W
08DD4:  IORWF  FF2,F
....................                delay_ms(20);             
08DD6:  MOVLW  14
08DD8:  MOVLB  6
08DDA:  MOVWF  xA8
08DDC:  MOVLB  0
08DDE:  CALL   1D14
....................                GuardaEEPROM=ON; 
08DE2:  BSF    xA2.2
08DE4:  MOVLB  3
....................             } 
....................          } 
....................           
....................          if(UP){ 
08DE6:  BSF    F93.0
08DE8:  BTFSC  F81.0
08DEA:  BRA    8E06
....................             delay_ms(200); 
08DEC:  MOVLW  C8
08DEE:  MOVLB  6
08DF0:  MOVWF  xA8
08DF2:  MOVLB  0
08DF4:  CALL   1D14
....................             if(UP){ 
08DF8:  BSF    F93.0
08DFA:  BTFSC  F81.0
08DFC:  BRA    8E08
....................                Nivel++; 
08DFE:  MOVLB  3
08E00:  INCF   x59,F
08E02:  BTFSC  FD8.2
08E04:  INCF   x5A,F
08E06:  MOVLB  0
....................             } 
....................          } 
....................           
....................          if(DOWN){ 
08E08:  BSF    F93.1
08E0A:  BTFSC  F81.1
08E0C:  BRA    8E2C
....................             delay_ms(200); 
08E0E:  MOVLW  C8
08E10:  MOVLB  6
08E12:  MOVWF  xA8
08E14:  MOVLB  0
08E16:  CALL   1D14
....................             if(DOWN){ 
08E1A:  BSF    F93.1
08E1C:  BTFSC  F81.1
08E1E:  BRA    8E2C
....................                Nivel--; 
08E20:  MOVLB  3
08E22:  MOVF   x59,W
08E24:  BTFSC  FD8.2
08E26:  DECF   x5A,F
08E28:  DECF   x59,F
08E2A:  MOVLB  0
....................             } 
....................          } 
....................           
....................          if(RX_Buffer[4]==0x0d){//Tecla Arriba Oprimida 
08E2C:  MOVF   34,W
08E2E:  SUBLW  0D
08E30:  BNZ   8E40
....................             Nivel++;             
08E32:  MOVLB  3
08E34:  INCF   x59,F
08E36:  BTFSC  FD8.2
08E38:  INCF   x5A,F
....................             RX_Buffer[4]=0x00;             
08E3A:  CLRF   34
....................             RX_Buffer2[4]=0x00;             
08E3C:  CLRF   3F
08E3E:  MOVLB  0
....................          } 
....................           
....................          if(RX_Buffer[4]==0x0c){//Tecla Abajo Oprimida 
08E40:  MOVF   34,W
08E42:  SUBLW  0C
08E44:  BNZ   8E56
....................             Nivel--; 
08E46:  MOVLB  3
08E48:  MOVF   x59,W
08E4A:  BTFSC  FD8.2
08E4C:  DECF   x5A,F
08E4E:  DECF   x59,F
....................             RX_Buffer[4]=0x00; 
08E50:  CLRF   34
....................             RX_Buffer2[4]=0x00;             
08E52:  CLRF   3F
08E54:  MOVLB  0
....................          } 
....................           
....................       printf("tnivel.txt=\"%02Lu\"",Nivel); 
08E56:  MOVLW  3A
08E58:  MOVWF  FF6
08E5A:  MOVLW  0B
08E5C:  MOVWF  FF7
08E5E:  MOVLW  00
08E60:  MOVWF  FF8
08E62:  MOVLW  0C
08E64:  MOVLB  6
08E66:  MOVWF  x9A
08E68:  MOVLB  0
08E6A:  CALL   4EA0
08E6E:  MOVLW  0B
08E70:  MOVWF  FE9
08E72:  MOVFF  35A,69B
08E76:  MOVFF  359,69A
08E7A:  CALL   4FF2
08E7E:  MOVLW  22
08E80:  BTFSS  F9E.4
08E82:  BRA    8E80
08E84:  MOVWF  FAD
....................       SendDataDisplay(); 
08E86:  CALL   37EC
08E8A:  MOVLB  3
....................    } 
.................... //_--------------------------------------------------------------------------------------------------------------------------------------------------------       
....................  
.................... //_--------------------------------------------------------------------------------------------------------------------------------------------------------       
....................       if(Menu==6){ // Menu de Prueba de Componentes 
08E8C:  MOVF   x41,W
08E8E:  SUBLW  06
08E90:  BTFSS  FD8.2
08E92:  BRA    9574
....................          PruebaEstados=ON; 
08E94:  MOVLB  0
08E96:  BSF    xA1.4
....................           
....................          if(RX_Buffer[4]==0x01)//Oprimio EV Paso 
08E98:  DECFSZ 34,W
08E9A:  BRA    8EA2
....................          { 
....................             EstadoPaso=!EstadoPaso; 
08E9C:  BTG    xA2.3
....................             RX_Buffer[4]=0x00; 
08E9E:  CLRF   34
....................             RX_Buffer2[4]=0x00; 
08EA0:  CLRF   3F
....................          } 
....................           
....................          if(EstadoPaso){ 
08EA2:  BTFSS  xA2.3
08EA4:  BRA    8EC0
....................             printf("b0.bco=2016"); 
08EA6:  MOVLW  4E
08EA8:  MOVWF  FF6
08EAA:  MOVLW  0B
08EAC:  MOVWF  FF7
08EAE:  MOVLW  00
08EB0:  MOVWF  FF8
08EB2:  CALL   37BA
....................             SendDataDisplay();  
08EB6:  CALL   37EC
....................             Paso_on; 
08EBA:  BCF    F8B.0
08EBC:  BCF    F94.0
....................          }else{ 
08EBE:  BRA    8ED8
....................             printf("b0.bco=63488"); 
08EC0:  MOVLW  5A
08EC2:  MOVWF  FF6
08EC4:  MOVLW  0B
08EC6:  MOVWF  FF7
08EC8:  MOVLW  00
08ECA:  MOVWF  FF8
08ECC:  CALL   37BA
....................             SendDataDisplay();  
08ED0:  CALL   37EC
....................             Paso_off; 
08ED4:  BSF    F8B.0
08ED6:  BCF    F94.0
....................          } 
....................           
....................          if(RX_Buffer[4]==0x02)//Oprimio EV Desfogue 
08ED8:  MOVF   34,W
08EDA:  SUBLW  02
08EDC:  BNZ   8EE4
....................          { 
....................             EstadoDesfogue=!EstadoDesfogue; 
08EDE:  BTG    xA1.0
....................             RX_Buffer[4]=0x00; 
08EE0:  CLRF   34
....................             RX_Buffer2[4]=0x00; 
08EE2:  CLRF   3F
....................          } 
....................           
....................          if(EstadoDesfogue){ 
08EE4:  BTFSS  xA1.0
08EE6:  BRA    8F02
....................             printf("b1.bco=2016"); 
08EE8:  MOVLW  68
08EEA:  MOVWF  FF6
08EEC:  MOVLW  0B
08EEE:  MOVWF  FF7
08EF0:  MOVLW  00
08EF2:  MOVWF  FF8
08EF4:  CALL   37BA
....................             SendDataDisplay();  
08EF8:  CALL   37EC
....................             Desfogue_on; 
08EFC:  BCF    F8B.1
08EFE:  BCF    F94.1
....................          }else{ 
08F00:  BRA    8F1A
....................             printf("b1.bco=63488"); 
08F02:  MOVLW  74
08F04:  MOVWF  FF6
08F06:  MOVLW  0B
08F08:  MOVWF  FF7
08F0A:  MOVLW  00
08F0C:  MOVWF  FF8
08F0E:  CALL   37BA
....................             SendDataDisplay();  
08F12:  CALL   37EC
....................             Desfogue_off; 
08F16:  BSF    F8B.1
08F18:  BCF    F94.1
....................          } 
....................           
....................          if(RX_Buffer[4]==0x03)//Oprimio EV Vacio 
08F1A:  MOVF   34,W
08F1C:  SUBLW  03
08F1E:  BNZ   8F26
....................          { 
....................             EstadoVacio=!EstadoVacio; 
08F20:  BTG    xA4.7
....................             RX_Buffer[4]=0x00; 
08F22:  CLRF   34
....................             RX_Buffer2[4]=0x00; 
08F24:  CLRF   3F
....................          } 
....................           
....................          if(EstadoVacio){ 
08F26:  BTFSS  xA4.7
08F28:  BRA    8F44
....................             printf("b2.bco=2016"); 
08F2A:  MOVLW  82
08F2C:  MOVWF  FF6
08F2E:  MOVLW  0B
08F30:  MOVWF  FF7
08F32:  MOVLW  00
08F34:  MOVWF  FF8
08F36:  CALL   37BA
....................             SendDataDisplay();  
08F3A:  CALL   37EC
....................             Vacio_on; 
08F3E:  BCF    F8B.2
08F40:  BCF    F94.2
....................          }else{ 
08F42:  BRA    8F5C
....................             printf("b2.bco=63488"); 
08F44:  MOVLW  8E
08F46:  MOVWF  FF6
08F48:  MOVLW  0B
08F4A:  MOVWF  FF7
08F4C:  MOVLW  00
08F4E:  MOVWF  FF8
08F50:  CALL   37BA
....................             SendDataDisplay();  
08F54:  CALL   37EC
....................             Vacio_off; 
08F58:  BSF    F8B.2
08F5A:  BCF    F94.2
....................          } 
....................          
....................          if(RX_Buffer[4]==0x04)//Oprimio EV Aire 
08F5C:  MOVF   34,W
08F5E:  SUBLW  04
08F60:  BNZ   8F68
....................          { 
....................             EstadoAire=!EstadoAire; 
08F62:  BTG    xA5.0
....................             RX_Buffer[4]=0x00; 
08F64:  CLRF   34
....................             RX_Buffer2[4]=0x00; 
08F66:  CLRF   3F
....................          } 
....................           
....................          if(EstadoAire){ 
08F68:  BTFSS  xA5.0
08F6A:  BRA    8F86
....................             printf("b3.bco=2016"); 
08F6C:  MOVLW  9C
08F6E:  MOVWF  FF6
08F70:  MOVLW  0B
08F72:  MOVWF  FF7
08F74:  MOVLW  00
08F76:  MOVWF  FF8
08F78:  CALL   37BA
....................             SendDataDisplay();  
08F7C:  CALL   37EC
....................             Aire_on; 
08F80:  BCF    F8C.0
08F82:  BCF    F95.0
....................          }else{ 
08F84:  BRA    8F9E
....................             printf("b3.bco=63488"); 
08F86:  MOVLW  A8
08F88:  MOVWF  FF6
08F8A:  MOVLW  0B
08F8C:  MOVWF  FF7
08F8E:  MOVLW  00
08F90:  MOVWF  FF8
08F92:  CALL   37BA
....................             SendDataDisplay();  
08F96:  CALL   37EC
....................             Aire_off; 
08F9A:  BSF    F8C.0
08F9C:  BCF    F95.0
....................          } 
....................           
....................          if(RX_Buffer[4]==0x05)//Oprimio EV Aire Bomba 
08F9E:  MOVF   34,W
08FA0:  SUBLW  05
08FA2:  BNZ   8FAA
....................          { 
....................             EstadoAireBomba=!EstadoAireBomba; 
08FA4:  BTG    xA4.6
....................             RX_Buffer[4]=0x00; 
08FA6:  CLRF   34
....................             RX_Buffer2[4]=0x00; 
08FA8:  CLRF   3F
....................          } 
....................           
....................          if(EstadoAireBomba){ 
08FAA:  BTFSS  xA4.6
08FAC:  BRA    8FC8
....................             printf("b4.bco=2016"); 
08FAE:  MOVLW  B6
08FB0:  MOVWF  FF6
08FB2:  MOVLW  0B
08FB4:  MOVWF  FF7
08FB6:  MOVLW  00
08FB8:  MOVWF  FF8
08FBA:  CALL   37BA
....................             SendDataDisplay();  
08FBE:  CALL   37EC
....................             AireB_on; 
08FC2:  BCF    F8C.1
08FC4:  BCF    F95.1
....................          }else{ 
08FC6:  BRA    8FE0
....................             printf("b4.bco=63488"); 
08FC8:  MOVLW  C2
08FCA:  MOVWF  FF6
08FCC:  MOVLW  0B
08FCE:  MOVWF  FF7
08FD0:  MOVLW  00
08FD2:  MOVWF  FF8
08FD4:  CALL   37BA
....................             SendDataDisplay();  
08FD8:  CALL   37EC
....................             AireB_off; 
08FDC:  BSF    F8C.1
08FDE:  BCF    F95.1
....................          } 
....................           
....................          if(RX_Buffer[4]==0x06)//Oprimio Bomba Vacio 
08FE0:  MOVF   34,W
08FE2:  SUBLW  06
08FE4:  BNZ   8FEC
....................          { 
....................             EstadoBomba=!EstadoBomba; 
08FE6:  BTG    xA5.1
....................             RX_Buffer[4]=0x00; 
08FE8:  CLRF   34
....................             RX_Buffer2[4]=0x00; 
08FEA:  CLRF   3F
....................          } 
....................           
....................          if(EstadoBomba){ 
08FEC:  BTFSS  xA5.1
08FEE:  BRA    9014
....................             printf("b5.bco=2016"); 
08FF0:  MOVLW  D0
08FF2:  MOVWF  FF6
08FF4:  MOVLW  0B
08FF6:  MOVWF  FF7
08FF8:  MOVLW  00
08FFA:  MOVWF  FF8
08FFC:  CALL   37BA
....................             SendDataDisplay();  
09000:  CALL   37EC
....................             if(!onBomba){ 
09004:  BTFSC  xA6.1
09006:  BRA    900E
....................                purgaBomba(); 
09008:  CALL   50D2
....................                onBomba=ON; 
0900C:  BSF    xA6.1
....................             } 
....................             BombaVacio_on; 
0900E:  BCF    F8B.5
09010:  BCF    F94.5
....................          }else{ 
09012:  BRA    902E
....................             printf("b5.bco=63488"); 
09014:  MOVLW  DC
09016:  MOVWF  FF6
09018:  MOVLW  0B
0901A:  MOVWF  FF7
0901C:  MOVLW  00
0901E:  MOVWF  FF8
09020:  CALL   37BA
....................             SendDataDisplay();  
09024:  CALL   37EC
....................             BombaVacio_off; 
09028:  BSF    F8B.5
0902A:  BCF    F94.5
....................             onBomba=OFF; 
0902C:  BCF    xA6.1
....................          } 
....................           
....................          if(RX_Buffer[4]==0x07)//Oprimio EV Agua 
0902E:  MOVF   34,W
09030:  SUBLW  07
09032:  BNZ   903A
....................          { 
....................             EstadoAgua=!EstadoAgua; 
09034:  BTG    xA1.1
....................             RX_Buffer[4]=0x00; 
09036:  CLRF   34
....................             RX_Buffer2[4]=0x00; 
09038:  CLRF   3F
....................          } 
....................           
....................          if(EstadoAgua){ 
0903A:  BTFSS  xA1.1
0903C:  BRA    9058
....................             printf("b6.bco=2016"); 
0903E:  MOVLW  EA
09040:  MOVWF  FF6
09042:  MOVLW  0B
09044:  MOVWF  FF7
09046:  MOVLW  00
09048:  MOVWF  FF8
0904A:  CALL   37BA
....................             SendDataDisplay();  
0904E:  CALL   37EC
....................             Agua_on; 
09052:  BCF    F8C.3
09054:  BCF    F95.3
....................          }else{ 
09056:  BRA    9070
....................             printf("b6.bco=63488"); 
09058:  MOVLW  F6
0905A:  MOVWF  FF6
0905C:  MOVLW  0B
0905E:  MOVWF  FF7
09060:  MOVLW  00
09062:  MOVWF  FF8
09064:  CALL   37BA
....................             SendDataDisplay();  
09068:  CALL   37EC
....................             Agua_off; 
0906C:  BSF    F8C.3
0906E:  BCF    F95.3
....................          } 
....................           
....................          if(RX_Buffer[4]==0x08)//Oprimio EV Agua2 
09070:  MOVF   34,W
09072:  SUBLW  08
09074:  BNZ   907C
....................          { 
....................             EstadoAgua2=!EstadoAgua2; 
09076:  BTG    xA5.2
....................             RX_Buffer[4]=0x00; 
09078:  CLRF   34
....................             RX_Buffer2[4]=0x00; 
0907A:  CLRF   3F
....................          } 
....................           
....................          if(EstadoAgua2){ 
0907C:  BTFSS  xA5.2
0907E:  BRA    909A
....................             printf("b7.bco=2016"); 
09080:  MOVLW  04
09082:  MOVWF  FF6
09084:  MOVLW  0C
09086:  MOVWF  FF7
09088:  MOVLW  00
0908A:  MOVWF  FF8
0908C:  CALL   37BA
....................             SendDataDisplay();  
09090:  CALL   37EC
....................             //EV8_on; 
....................             enciendeBombaAgua(); 
09094:  CALL   5116
....................          }else{ 
09098:  BRA    90B2
....................             printf("b7.bco=63488"); 
0909A:  MOVLW  10
0909C:  MOVWF  FF6
0909E:  MOVLW  0C
090A0:  MOVWF  FF7
090A2:  MOVLW  00
090A4:  MOVWF  FF8
090A6:  CALL   37BA
....................             SendDataDisplay();  
090AA:  CALL   37EC
....................             //EV8_off; 
....................             apagaBombaAgua(); 
090AE:  CALL   5146
....................          } 
....................           
....................          if(RX_Buffer[4]==0x21)//Oprimio SSR1 
090B2:  MOVF   34,W
090B4:  SUBLW  21
090B6:  BNZ   90BE
....................          { 
....................             EstadoSSR=!EstadoSSR; 
090B8:  BTG    xA1.2
....................             RX_Buffer[4]=0x00; 
090BA:  CLRF   34
....................             RX_Buffer2[4]=0x00; 
090BC:  CLRF   3F
....................          } 
....................           
....................          if(EstadoSSR){ 
090BE:  BTFSS  xA1.2
090C0:  BRA    90DC
....................             printf("b21.bco=2016"); 
090C2:  MOVLW  1E
090C4:  MOVWF  FF6
090C6:  MOVLW  0C
090C8:  MOVWF  FF7
090CA:  MOVLW  00
090CC:  MOVWF  FF8
090CE:  CALL   37BA
....................             SendDataDisplay();  
090D2:  CALL   37EC
....................             SSR_on; 
090D6:  BSF    F8D.1
090D8:  BCF    F96.1
....................          }else{ 
090DA:  BRA    90F4
....................             printf("b21.bco=63488"); 
090DC:  MOVLW  2C
090DE:  MOVWF  FF6
090E0:  MOVLW  0C
090E2:  MOVWF  FF7
090E4:  MOVLW  00
090E6:  MOVWF  FF8
090E8:  CALL   37BA
....................             SendDataDisplay();  
090EC:  CALL   37EC
....................             SSR_off; 
090F0:  BCF    F8D.1
090F2:  BCF    F96.1
....................          } 
....................           
....................          if(RX_Buffer[4]==0x22)//Oprimio SSR2 
090F4:  MOVF   34,W
090F6:  SUBLW  22
090F8:  BNZ   9100
....................          { 
....................             EstadoSSR2=!EstadoSSR2; 
090FA:  BTG    xA1.3
....................             RX_Buffer[4]=0x00; 
090FC:  CLRF   34
....................             RX_Buffer2[4]=0x00; 
090FE:  CLRF   3F
....................          } 
....................           
....................          if(EstadoSSR2){ 
09100:  BTFSS  xA1.3
09102:  BRA    911E
....................             printf("b22.bco=2016"); 
09104:  MOVLW  3A
09106:  MOVWF  FF6
09108:  MOVLW  0C
0910A:  MOVWF  FF7
0910C:  MOVLW  00
0910E:  MOVWF  FF8
09110:  CALL   37BA
....................             SendDataDisplay();  
09114:  CALL   37EC
....................             SSR2_on; 
09118:  BSF    F8D.2
0911A:  BCF    F96.2
....................          }else{ 
0911C:  BRA    9136
....................             printf("b22.bco=63488"); 
0911E:  MOVLW  48
09120:  MOVWF  FF6
09122:  MOVLW  0C
09124:  MOVWF  FF7
09126:  MOVLW  00
09128:  MOVWF  FF8
0912A:  CALL   37BA
....................             SendDataDisplay();  
0912E:  CALL   37EC
....................             SSR2_off; 
09132:  BCF    F8D.2
09134:  BCF    F96.2
....................          } 
....................           
....................          if(RX_Buffer[4]==0x17)//Oprimio Abrir Cierre 
09136:  MOVF   34,W
09138:  SUBLW  17
0913A:  BNZ   9142
....................          { 
....................             EstadoACierre=!EstadoACierre; 
0913C:  BTG    xA5.3
....................             RX_Buffer[4]=0x00; 
0913E:  CLRF   34
....................             RX_Buffer2[4]=0x00; 
09140:  CLRF   3F
....................          } 
....................           
....................          if(EstadoACierre){ 
09142:  BTFSS  xA5.3
09144:  BRA    915C
....................             printf("b16.bco=2016"); 
09146:  MOVLW  56
09148:  MOVWF  FF6
0914A:  MOVLW  0C
0914C:  MOVWF  FF7
0914E:  MOVLW  00
09150:  MOVWF  FF8
09152:  CALL   37BA
....................             SendDataDisplay();  
09156:  CALL   37EC
....................             //sistemaBloqueo(1); 
....................          } 
....................          else{ 
0915A:  BRA    9170
....................             printf("b16.bco=63488"); 
0915C:  MOVLW  64
0915E:  MOVWF  FF6
09160:  MOVLW  0C
09162:  MOVWF  FF7
09164:  MOVLW  00
09166:  MOVWF  FF8
09168:  CALL   37BA
....................             SendDataDisplay();  
0916C:  CALL   37EC
....................             //sistemaBloqueo(0); 
....................          } 
....................           
....................          if(DOOR){ 
09170:  BSF    F93.6
09172:  BTFSC  F81.6
09174:  BRA    918C
....................             printf("b8.bco=2016"); 
09176:  MOVLW  72
09178:  MOVWF  FF6
0917A:  MOVLW  0C
0917C:  MOVWF  FF7
0917E:  MOVLW  00
09180:  MOVWF  FF8
09182:  CALL   37BA
....................             SendDataDisplay();  
09186:  CALL   37EC
....................          }else{ 
0918A:  BRA    91A0
....................             printf("b8.bco=63488"); 
0918C:  MOVLW  7E
0918E:  MOVWF  FF6
09190:  MOVLW  0C
09192:  MOVWF  FF7
09194:  MOVLW  00
09196:  MOVWF  FF8
09198:  CALL   37BA
....................             SendDataDisplay();  
0919C:  CALL   37EC
....................          } 
....................           
....................          if(TERM){ 
091A0:  BSF    F93.4
091A2:  BTFSC  F81.4
091A4:  BRA    91BC
....................             printf("b9.bco=2016"); 
091A6:  MOVLW  8C
091A8:  MOVWF  FF6
091AA:  MOVLW  0C
091AC:  MOVWF  FF7
091AE:  MOVLW  00
091B0:  MOVWF  FF8
091B2:  CALL   37BA
....................             SendDataDisplay();  
091B6:  CALL   37EC
....................          }else{ 
091BA:  BRA    91D0
....................             printf("b9.bco=63488"); 
091BC:  MOVLW  98
091BE:  MOVWF  FF6
091C0:  MOVLW  0C
091C2:  MOVWF  FF7
091C4:  MOVLW  00
091C6:  MOVWF  FF8
091C8:  CALL   37BA
....................             SendDataDisplay();  
091CC:  CALL   37EC
....................          } 
....................           
....................          if(STOP){ 
091D0:  BSF    F93.5
091D2:  BTFSC  F81.5
091D4:  BRA    91EC
....................             printf("b10.bco=2016"); 
091D6:  MOVLW  A6
091D8:  MOVWF  FF6
091DA:  MOVLW  0C
091DC:  MOVWF  FF7
091DE:  MOVLW  00
091E0:  MOVWF  FF8
091E2:  CALL   37BA
....................             SendDataDisplay();  
091E6:  CALL   37EC
....................          }else{ 
091EA:  BRA    9200
....................             printf("b10.bco=63488"); 
091EC:  MOVLW  B4
091EE:  MOVWF  FF6
091F0:  MOVLW  0C
091F2:  MOVWF  FF7
091F4:  MOVLW  00
091F6:  MOVWF  FF8
091F8:  CALL   37BA
....................             SendDataDisplay();  
091FC:  CALL   37EC
....................          } 
....................          /* 
....................          if(PRES){ 
....................             printf("b11.bco=2016"); 
....................             SendDataDisplay();  
....................          }else{ 
....................             printf("b11.bco=63488"); 
....................             SendDataDisplay();  
....................          }*/ 
....................           
....................          if(RX_Buffer[4]==0x13)//Oprimio Buzzer 
09200:  MOVF   34,W
09202:  SUBLW  13
09204:  BNZ   920C
....................          { 
....................             EstadoBuzzer=!EstadoBuzzer; 
09206:  BTG    xA2.4
....................             RX_Buffer[4]=0x00; 
09208:  CLRF   34
....................             RX_Buffer2[4]=0x00; 
0920A:  CLRF   3F
....................          } 
....................           
....................          if(EstadoBuzzer){ 
0920C:  BTFSS  xA2.4
0920E:  BRA    922A
....................             printf("b12.bco=2016"); 
09210:  MOVLW  C2
09212:  MOVWF  FF6
09214:  MOVLW  0C
09216:  MOVWF  FF7
09218:  MOVLW  00
0921A:  MOVWF  FF8
0921C:  CALL   37BA
....................             SendDataDisplay();  
09220:  CALL   37EC
....................             Buzzer_on; 
09224:  BSF    F8C.7
09226:  BCF    F95.7
....................          } 
....................          else{ 
09228:  BRA    9242
....................             printf("b12.bco=63488"); 
0922A:  MOVLW  D0
0922C:  MOVWF  FF6
0922E:  MOVLW  0C
09230:  MOVWF  FF7
09232:  MOVLW  00
09234:  MOVWF  FF8
09236:  CALL   37BA
....................             SendDataDisplay();  
0923A:  CALL   37EC
....................             Buzzer_off; 
0923E:  BCF    F8C.7
09240:  BCF    F95.7
....................          } 
....................           
....................          if(LOW){ 
09242:  BTFSS  xA5.5
09244:  BRA    925C
....................             printf("b17.bco=2016"); 
09246:  MOVLW  DE
09248:  MOVWF  FF6
0924A:  MOVLW  0C
0924C:  MOVWF  FF7
0924E:  MOVLW  00
09250:  MOVWF  FF8
09252:  CALL   37BA
....................             SendDataDisplay();  
09256:  CALL   37EC
....................          }else{ 
0925A:  BRA    9270
....................             printf("b17.bco=63488"); 
0925C:  MOVLW  EC
0925E:  MOVWF  FF6
09260:  MOVLW  0C
09262:  MOVWF  FF7
09264:  MOVLW  00
09266:  MOVWF  FF8
09268:  CALL   37BA
....................             SendDataDisplay();  
0926C:  CALL   37EC
....................          } 
....................           
....................          if(HIG){ 
09270:  BTFSS  xA5.6
09272:  BRA    928A
....................             printf("b23.bco=2016"); 
09274:  MOVLW  FA
09276:  MOVWF  FF6
09278:  MOVLW  0C
0927A:  MOVWF  FF7
0927C:  MOVLW  00
0927E:  MOVWF  FF8
09280:  CALL   37BA
....................             SendDataDisplay();  
09284:  CALL   37EC
....................          }else{ 
09288:  BRA    929E
....................             printf("b23.bco=63488"); 
0928A:  MOVLW  08
0928C:  MOVWF  FF6
0928E:  MOVLW  0D
09290:  MOVWF  FF7
09292:  MOVLW  00
09294:  MOVWF  FF8
09296:  CALL   37BA
....................             SendDataDisplay();  
0929A:  CALL   37EC
....................          } 
....................           
....................          /*if(HRES){ 
....................             printf("b24.bco=2016"); 
....................             SendDataDisplay();  
....................          }else{ 
....................             printf("b24.bco=63488"); 
....................             SendDataDisplay();  
....................          }*/ 
....................           
....................          if(LRES){ 
0929E:  BSF    F93.7
092A0:  BTFSC  F81.7
092A2:  BRA    92BA
....................             printf("b25.bco=2016"); 
092A4:  MOVLW  16
092A6:  MOVWF  FF6
092A8:  MOVLW  0D
092AA:  MOVWF  FF7
092AC:  MOVLW  00
092AE:  MOVWF  FF8
092B0:  CALL   37BA
....................             SendDataDisplay();  
092B4:  CALL   37EC
....................          }else{ 
092B8:  BRA    92CE
....................             printf("b25.bco=63488"); 
092BA:  MOVLW  24
092BC:  MOVWF  FF6
092BE:  MOVLW  0D
092C0:  MOVWF  FF7
092C2:  MOVLW  00
092C4:  MOVWF  FF8
092C6:  CALL   37BA
....................             SendDataDisplay();  
092CA:  CALL   37EC
....................          } 
....................                    
....................          printf("b13.txt=\"ADC0:%3.0f\"",sensores(0));          
092CE:  MOVLB  6
092D0:  CLRF   x9C
092D2:  MOVLB  0
092D4:  CALL   3874
092D8:  MOVFF  00,696
092DC:  MOVFF  01,697
092E0:  MOVFF  02,698
092E4:  MOVFF  03,699
092E8:  MOVLW  32
092EA:  MOVWF  FF6
092EC:  MOVLW  0D
092EE:  MOVWF  FF7
092F0:  MOVLW  00
092F2:  MOVWF  FF8
092F4:  MOVLW  0E
092F6:  MOVLB  6
092F8:  MOVWF  x9A
092FA:  MOVLB  0
092FC:  CALL   4EA0
09300:  MOVLW  02
09302:  MOVWF  FE9
09304:  MOVFF  699,69D
09308:  MOVFF  698,69C
0930C:  MOVFF  697,69B
09310:  MOVFF  696,69A
09314:  MOVLB  6
09316:  CLRF   x9E
09318:  MOVLB  0
0931A:  CALL   521C
0931E:  MOVLW  22
09320:  BTFSS  F9E.4
09322:  BRA    9320
09324:  MOVWF  FAD
....................          SendDataDisplay(); 
09326:  CALL   37EC
....................          printf("b14.txt=\"ADC1:%3.0f\"",sensores(1));          
0932A:  MOVLW  01
0932C:  MOVLB  6
0932E:  MOVWF  x9C
09330:  MOVLB  0
09332:  CALL   3874
09336:  MOVFF  00,696
0933A:  MOVFF  01,697
0933E:  MOVFF  02,698
09342:  MOVFF  03,699
09346:  MOVLW  48
09348:  MOVWF  FF6
0934A:  MOVLW  0D
0934C:  MOVWF  FF7
0934E:  MOVLW  00
09350:  MOVWF  FF8
09352:  MOVLW  0E
09354:  MOVLB  6
09356:  MOVWF  x9A
09358:  MOVLB  0
0935A:  CALL   4EA0
0935E:  MOVLW  02
09360:  MOVWF  FE9
09362:  MOVFF  699,69D
09366:  MOVFF  698,69C
0936A:  MOVFF  697,69B
0936E:  MOVFF  696,69A
09372:  MOVLB  6
09374:  CLRF   x9E
09376:  MOVLB  0
09378:  CALL   521C
0937C:  MOVLW  22
0937E:  BTFSS  F9E.4
09380:  BRA    937E
09382:  MOVWF  FAD
....................          SendDataDisplay(); 
09384:  CALL   37EC
....................          printf("b15.txt=\"A5:%3.0f %03Lu\"",sensores(5),PresionCamara); 
09388:  MOVLW  05
0938A:  MOVLB  6
0938C:  MOVWF  x9C
0938E:  MOVLB  0
09390:  CALL   3874
09394:  MOVFF  00,696
09398:  MOVFF  01,697
0939C:  MOVFF  02,698
093A0:  MOVFF  03,699
093A4:  MOVLW  5E
093A6:  MOVWF  FF6
093A8:  MOVLW  0D
093AA:  MOVWF  FF7
093AC:  MOVLW  00
093AE:  MOVWF  FF8
093B0:  MOVLW  0C
093B2:  MOVLB  6
093B4:  MOVWF  x9A
093B6:  MOVLB  0
093B8:  CALL   4EA0
093BC:  MOVLW  02
093BE:  MOVWF  FE9
093C0:  MOVFF  699,69D
093C4:  MOVFF  698,69C
093C8:  MOVFF  697,69B
093CC:  MOVFF  696,69A
093D0:  MOVLB  6
093D2:  CLRF   x9E
093D4:  MOVLB  0
093D6:  CALL   521C
093DA:  MOVLW  20
093DC:  BTFSS  F9E.4
093DE:  BRA    93DC
093E0:  MOVWF  FAD
093E2:  MOVLW  0A
093E4:  MOVWF  FE9
093E6:  MOVFF  35E,69B
093EA:  MOVFF  35D,69A
093EE:  CALL   4FF2
093F2:  MOVLW  22
093F4:  BTFSS  F9E.4
093F6:  BRA    93F4
093F8:  MOVWF  FAD
....................          SendDataDisplay(); 
093FA:  CALL   37EC
....................          printf("b18.txt=\"A4:%3.0f %03Lu\"",sensores(4),PresionPreCamara); 
093FE:  MOVLW  04
09400:  MOVLB  6
09402:  MOVWF  x9C
09404:  MOVLB  0
09406:  CALL   3874
0940A:  MOVFF  00,696
0940E:  MOVFF  01,697
09412:  MOVFF  02,698
09416:  MOVFF  03,699
0941A:  MOVLW  78
0941C:  MOVWF  FF6
0941E:  MOVLW  0D
09420:  MOVWF  FF7
09422:  MOVLW  00
09424:  MOVWF  FF8
09426:  MOVLW  0C
09428:  MOVLB  6
0942A:  MOVWF  x9A
0942C:  MOVLB  0
0942E:  CALL   4EA0
09432:  MOVLW  02
09434:  MOVWF  FE9
09436:  MOVFF  699,69D
0943A:  MOVFF  698,69C
0943E:  MOVFF  697,69B
09442:  MOVFF  696,69A
09446:  MOVLB  6
09448:  CLRF   x9E
0944A:  MOVLB  0
0944C:  CALL   521C
09450:  MOVLW  20
09452:  BTFSS  F9E.4
09454:  BRA    9452
09456:  MOVWF  FAD
09458:  MOVLW  0A
0945A:  MOVWF  FE9
0945C:  MOVFF  360,69B
09460:  MOVFF  35F,69A
09464:  CALL   4FF2
09468:  MOVLW  22
0946A:  BTFSS  F9E.4
0946C:  BRA    946A
0946E:  MOVWF  FAD
....................          SendDataDisplay(); 
09470:  CALL   37EC
....................          printf("b19.txt=\"%3.1f %3.1f\"",Temperatura2,Sensor[1].Pt); 
09474:  MOVLW  92
09476:  MOVWF  FF6
09478:  MOVLW  0D
0947A:  MOVWF  FF7
0947C:  MOVLW  00
0947E:  MOVWF  FF8
09480:  MOVLW  09
09482:  MOVLB  6
09484:  MOVWF  x9A
09486:  MOVLB  0
09488:  CALL   4EA0
0948C:  MOVLW  02
0948E:  MOVWF  FE9
09490:  MOVFF  316,69D
09494:  MOVFF  315,69C
09498:  MOVFF  314,69B
0949C:  MOVFF  313,69A
094A0:  MOVLW  01
094A2:  MOVLB  6
094A4:  MOVWF  x9E
094A6:  MOVLB  0
094A8:  CALL   521C
094AC:  MOVLW  20
094AE:  BTFSS  F9E.4
094B0:  BRA    94AE
094B2:  MOVWF  FAD
094B4:  MOVLW  02
094B6:  MOVWF  FE9
094B8:  MOVFF  519,69D
094BC:  MOVFF  518,69C
094C0:  MOVFF  517,69B
094C4:  MOVFF  516,69A
094C8:  MOVLW  01
094CA:  MOVLB  6
094CC:  MOVWF  x9E
094CE:  MOVLB  0
094D0:  CALL   521C
094D4:  MOVLW  22
094D6:  BTFSS  F9E.4
094D8:  BRA    94D6
094DA:  MOVWF  FAD
....................          SendDataDisplay(); 
094DC:  CALL   37EC
....................          printf("b20.txt=\"%3.1f %3.1f\"",Temperatura,Sensor[0].Pt); 
094E0:  MOVLW  A8
094E2:  MOVWF  FF6
094E4:  MOVLW  0D
094E6:  MOVWF  FF7
094E8:  MOVLW  00
094EA:  MOVWF  FF8
094EC:  MOVLW  09
094EE:  MOVLB  6
094F0:  MOVWF  x9A
094F2:  MOVLB  0
094F4:  CALL   4EA0
094F8:  MOVLW  02
094FA:  MOVWF  FE9
094FC:  MOVFF  312,69D
09500:  MOVFF  311,69C
09504:  MOVFF  310,69B
09508:  MOVFF  30F,69A
0950C:  MOVLW  01
0950E:  MOVLB  6
09510:  MOVWF  x9E
09512:  MOVLB  0
09514:  CALL   521C
09518:  MOVLW  20
0951A:  BTFSS  F9E.4
0951C:  BRA    951A
0951E:  MOVWF  FAD
09520:  MOVLW  02
09522:  MOVWF  FE9
09524:  MOVFF  3B5,69D
09528:  MOVFF  3B4,69C
0952C:  MOVFF  3B3,69B
09530:  MOVFF  3B2,69A
09534:  MOVLW  01
09536:  MOVLB  6
09538:  MOVWF  x9E
0953A:  MOVLB  0
0953C:  CALL   521C
09540:  MOVLW  22
09542:  BTFSS  F9E.4
09544:  BRA    9542
09546:  MOVWF  FAD
....................          SendDataDisplay(); 
09548:  CALL   37EC
....................           
....................          if(RX_Buffer[4]==0x50){//Oprimio salir 
0954C:  MOVF   34,W
0954E:  SUBLW  50
09550:  BNZ   9572
....................             printf("page MenuPrincipal"); 
09552:  MOVLW  BE
09554:  MOVWF  FF6
09556:  MOVLW  0D
09558:  MOVWF  FF7
0955A:  MOVLW  00
0955C:  MOVWF  FF8
0955E:  CALL   37BA
....................             SendDataDisplay(); 
09562:  CALL   37EC
....................             PantallaPrincipal=0; 
09566:  MOVLB  2
09568:  CLRF   xCA
....................             PruebaEstados=OFF; 
0956A:  MOVLB  0
0956C:  BCF    xA1.4
....................             ApagaSalidas(); 
0956E:  CALL   3822
09572:  MOVLB  3
....................          } 
....................      } 
.................... //_--------------------------------------------------------------------------------------------------------------------------------------------------------     
....................  
.................... //_--------------------------------------------------------------------------------------------------------------------------------------------------------       
....................       if(Menu==7){ //Menu de Configuracin de Fecha y Hora 
09574:  MOVF   x41,W
09576:  SUBLW  07
09578:  BTFSS  FD8.2
0957A:  BRA    99A2
....................          if(RX_Buffer[4]==0x0a){//Selecciono Hora 
0957C:  MOVF   34,W
0957E:  SUBLW  0A
09580:  BNZ   9586
....................             Opcion=4; 
09582:  MOVLW  04
09584:  MOVWF  x49
....................          } 
....................           
....................          if(RX_Buffer[4]==0x0b){//Selecciono Minuto 
09586:  MOVF   34,W
09588:  SUBLW  0B
0958A:  BNZ   9590
....................             Opcion=5; 
0958C:  MOVLW  05
0958E:  MOVWF  x49
....................          } 
....................           
....................          if(RX_Buffer[4]==0x0c){//Selecciono Dia 
09590:  MOVF   34,W
09592:  SUBLW  0C
09594:  BNZ   959A
....................             Opcion=1; 
09596:  MOVLW  01
09598:  MOVWF  x49
....................          } 
....................           
....................          if(RX_Buffer[4]==0x0d){//Selecciono Hora 
0959A:  MOVF   34,W
0959C:  SUBLW  0D
0959E:  BNZ   95A4
....................             Opcion=2; 
095A0:  MOVLW  02
095A2:  MOVWF  x49
....................          } 
....................           
....................          if(RX_Buffer[4]==0x0e){//Selecciono Year 
095A4:  MOVF   34,W
095A6:  SUBLW  0E
095A8:  BNZ   95AE
....................             Opcion=3; 
095AA:  MOVLW  03
095AC:  MOVWF  x49
....................          } 
....................           
....................          if(RIGHT){ 
095AE:  BSF    F93.2
095B0:  BTFSC  F81.2
095B2:  BRA    95CA
....................             delay_ms(200); 
095B4:  MOVLW  C8
095B6:  MOVLB  6
095B8:  MOVWF  xA8
095BA:  MOVLB  0
095BC:  CALL   1D14
....................             if(RIGHT){ 
095C0:  BSF    F93.2
095C2:  BTFSC  F81.2
095C4:  BRA    95CC
....................                Opcion++; 
095C6:  MOVLB  3
095C8:  INCF   x49,F
095CA:  MOVLB  0
....................             } 
....................          } 
....................          if(Opcion>5) 
095CC:  MOVLB  3
095CE:  MOVF   x49,W
095D0:  SUBLW  05
095D2:  BC    95D8
....................             Opcion=1; 
095D4:  MOVLW  01
095D6:  MOVWF  x49
....................          if(Opcion<1) 
095D8:  MOVF   x49,F
095DA:  BNZ   95E0
....................             Opcion=5; 
095DC:  MOVLW  05
095DE:  MOVWF  x49
....................              
....................          if(RX_Buffer[4]==0x11 || LEFT){//Selecciono Regresar 
095E0:  MOVF   34,W
095E2:  SUBLW  11
095E4:  BZ    95EC
095E6:  BSF    F93.3
095E8:  BTFSC  F81.3
095EA:  BRA    9704
....................             printf("page MenuPrincipal"); 
095EC:  MOVLW  D2
095EE:  MOVWF  FF6
095F0:  MOVLW  0D
095F2:  MOVWF  FF7
095F4:  MOVLW  00
095F6:  MOVWF  FF8
095F8:  MOVLB  0
095FA:  CALL   37BA
....................             SendDataDisplay();   
095FE:  CALL   37EC
....................             PantallaPrincipal=0; 
09602:  MOVLB  2
09604:  CLRF   xCA
....................             Op=OFF; 
09606:  MOVLB  0
09608:  BCF    xA1.6
....................             Op2=OFF; 
0960A:  BCF    xA1.7
....................              
....................             if(esBisiesto(YearTx)) 
0960C:  MOVFF  386,696
09610:  CALL   5406
09614:  MOVF   01,F
09616:  BZ    9632
....................                Modulo=Bisiesto[MesTx]; 
09618:  CLRF   03
0961A:  MOVLB  3
0961C:  MOVF   x87,W
0961E:  ADDLW  93
09620:  MOVWF  FE9
09622:  MOVLW  00
09624:  ADDWFC 03,W
09626:  MOVWF  FEA
09628:  MOVFF  FEF,2CC
0962C:  MOVLB  2
....................             else 
0962E:  BRA    9648
09630:  MOVLB  0
....................                Modulo=Regular[MesTx]; 
09632:  CLRF   03
09634:  MOVLB  3
09636:  MOVF   x87,W
09638:  ADDLW  87
0963A:  MOVWF  FE9
0963C:  MOVLW  00
0963E:  ADDWFC 03,W
09640:  MOVWF  FEA
09642:  MOVFF  FEF,2CC
09646:  MOVLB  2
....................           
....................             dowTx=((YearTx-1)%7+((YearTx-1)/4-3*((YearTx-1)/100+1)/4)%7+Modulo+DiaTx%7)%7; 
09648:  MOVLW  01
0964A:  MOVLB  3
0964C:  SUBWF  x86,W
0964E:  MOVLB  6
09650:  MOVWF  x97
09652:  MOVWF  x9F
09654:  MOVLW  07
09656:  MOVWF  xA0
09658:  MOVLB  0
0965A:  CALL   4ED2
0965E:  MOVFF  00,696
09662:  MOVLW  01
09664:  MOVLB  3
09666:  SUBWF  x86,W
09668:  MOVWF  00
0966A:  RRCF   00,W
0966C:  MOVLB  6
0966E:  MOVWF  x97
09670:  RRCF   x97,F
09672:  MOVLW  3F
09674:  ANDWF  x97,F
09676:  MOVLW  01
09678:  MOVLB  3
0967A:  SUBWF  x86,W
0967C:  MOVLB  6
0967E:  MOVWF  x99
09680:  MOVWF  x9F
09682:  MOVLW  64
09684:  MOVWF  xA0
09686:  MOVLB  0
09688:  CALL   4ED2
0968C:  MOVLW  01
0968E:  ADDWF  01,W
09690:  MULLW  03
09692:  MOVFF  FF3,00
09696:  RRCF   00,F
09698:  RRCF   00,F
0969A:  MOVLW  3F
0969C:  ANDWF  00,F
0969E:  MOVF   00,W
096A0:  MOVLB  6
096A2:  SUBWF  x97,W
096A4:  MOVWF  x98
096A6:  MOVWF  x9F
096A8:  MOVLW  07
096AA:  MOVWF  xA0
096AC:  MOVLB  0
096AE:  CALL   4ED2
096B2:  MOVF   00,W
096B4:  MOVLB  6
096B6:  ADDWF  x96,W
096B8:  MOVLB  2
096BA:  ADDWF  xCC,W
096BC:  MOVLB  6
096BE:  MOVWF  x96
096C0:  MOVFF  388,69F
096C4:  MOVLW  07
096C6:  MOVWF  xA0
096C8:  MOVLB  0
096CA:  CALL   4ED2
096CE:  MOVF   00,W
096D0:  MOVLB  6
096D2:  ADDWF  x96,W
096D4:  MOVWF  x97
096D6:  MOVWF  x9F
096D8:  MOVLW  07
096DA:  MOVWF  xA0
096DC:  MOVLB  0
096DE:  CALL   4ED2
096E2:  MOVFF  00,38B
....................             rtc_set_datetime(DiaTx,MesTx,YearTx,dowTx,HoraTx,MinutoTx); 
096E6:  MOVFF  388,696
096EA:  MOVFF  387,697
096EE:  MOVFF  386,698
096F2:  MOVFF  38B,699
096F6:  MOVFF  389,69A
096FA:  MOVFF  38A,69B
096FE:  GOTO   5488
09702:  MOVLB  3
....................          } 
....................           
....................          if((RX_Buffer[4]==0x2a)|| UP){//Tecla Arriba Oprimida 
09704:  MOVF   34,W
09706:  SUBLW  2A
09708:  BZ    9710
0970A:  BSF    F93.0
0970C:  BTFSC  F81.0
0970E:  BRA    980E
....................             delay_ms(200); 
09710:  MOVLW  C8
09712:  MOVLB  6
09714:  MOVWF  xA8
09716:  MOVLB  0
09718:  CALL   1D14
....................             if((RX_Buffer[4]==0x2a)|| UP){    
0971C:  MOVF   34,W
0971E:  SUBLW  2A
09720:  BZ    9728
09722:  BSF    F93.0
09724:  BTFSC  F81.0
09726:  BRA    9810
....................                if(Opcion==1){ 
09728:  MOVLB  3
0972A:  DECFSZ x49,W
0972C:  BRA    97BA
....................                   if(MesTx==2){ 
0972E:  MOVF   x87,W
09730:  SUBLW  02
09732:  BNZ   9768
....................                      if(esBisiesto(YearTx)){ 
09734:  MOVFF  386,696
09738:  MOVLB  0
0973A:  CALL   5406
0973E:  MOVF   01,F
09740:  BZ    9756
....................                         if(DiaTx<29) 
09742:  MOVLB  3
09744:  MOVF   x88,W
09746:  SUBLW  1C
09748:  BNC   974E
....................                            DiaTx++; 
0974A:  INCF   x88,F
....................                         else 
0974C:  BRA    9752
....................                            DiaTx=1;    
0974E:  MOVLW  01
09750:  MOVWF  x88
....................                      }else{ 
09752:  BRA    9766
09754:  MOVLB  0
....................                         if(DiaTx<28) 
09756:  MOVLB  3
09758:  MOVF   x88,W
0975A:  SUBLW  1B
0975C:  BNC   9762
....................                            DiaTx++; 
0975E:  INCF   x88,F
....................                         else 
09760:  BRA    9766
....................                            DiaTx=1;    
09762:  MOVLW  01
09764:  MOVWF  x88
....................                      } 
....................                   }else{ 
09766:  BRA    97B8
....................                      if(MesTx<=7){ 
09768:  MOVF   x87,W
0976A:  SUBLW  07
0976C:  BNC   9794
....................                         if(MesTx % 2 ==0){ 
0976E:  MOVF   x87,W
09770:  ANDLW  01
09772:  BNZ   9784
....................                            if(DiaTx<30) 
09774:  MOVF   x88,W
09776:  SUBLW  1D
09778:  BNC   977E
....................                               DiaTx++;     
0977A:  INCF   x88,F
....................                            else 
0977C:  BRA    9782
....................                               DiaTx=1;    
0977E:  MOVLW  01
09780:  MOVWF  x88
....................                         }else{ 
09782:  BRA    9792
....................                            if(DiaTx<31) 
09784:  MOVF   x88,W
09786:  SUBLW  1E
09788:  BNC   978E
....................                               DiaTx++;     
0978A:  INCF   x88,F
....................                            else 
0978C:  BRA    9792
....................                               DiaTx=1;    
0978E:  MOVLW  01
09790:  MOVWF  x88
....................                         }     
....................                      }else{ 
09792:  BRA    97B8
....................                         if(MesTx % 2 ==0){ 
09794:  MOVF   x87,W
09796:  ANDLW  01
09798:  BNZ   97AA
....................                            if(DiaTx<31) 
0979A:  MOVF   x88,W
0979C:  SUBLW  1E
0979E:  BNC   97A4
....................                               DiaTx++;   
097A0:  INCF   x88,F
....................                            else 
097A2:  BRA    97A8
....................                               DiaTx=1; 
097A4:  MOVLW  01
097A6:  MOVWF  x88
....................                         }else{ 
097A8:  BRA    97B8
....................                            if(DiaTx<30) 
097AA:  MOVF   x88,W
097AC:  SUBLW  1D
097AE:  BNC   97B4
....................                               DiaTx++;     
097B0:  INCF   x88,F
....................                            else 
097B2:  BRA    97B8
....................                               DiaTx=1; 
097B4:  MOVLW  01
097B6:  MOVWF  x88
....................                         }     
....................                      } 
....................                   } 
....................                }else if(Opcion==2){ 
097B8:  BRA    980A
097BA:  MOVF   x49,W
097BC:  SUBLW  02
097BE:  BNZ   97D0
....................                   if(MesTx<12) 
097C0:  MOVF   x87,W
097C2:  SUBLW  0B
097C4:  BNC   97CA
....................                      MesTx++; 
097C6:  INCF   x87,F
....................                   else 
097C8:  BRA    97CE
....................                      MesTx=1; 
097CA:  MOVLW  01
097CC:  MOVWF  x87
....................                }else if(Opcion==3){ 
097CE:  BRA    980A
097D0:  MOVF   x49,W
097D2:  SUBLW  03
097D4:  BNZ   97E4
....................                   if(YearTx<99) 
097D6:  MOVF   x86,W
097D8:  SUBLW  62
097DA:  BNC   97E0
....................                      YearTx++; 
097DC:  INCF   x86,F
....................                   else  
097DE:  BRA    97E2
....................                      YearTx=0; 
097E0:  CLRF   x86
....................                }else if(Opcion==4){ 
097E2:  BRA    980A
097E4:  MOVF   x49,W
097E6:  SUBLW  04
097E8:  BNZ   97F8
....................                   if(HoraTx<24) 
097EA:  MOVF   x89,W
097EC:  SUBLW  17
097EE:  BNC   97F4
....................                      HoraTx++; 
097F0:  INCF   x89,F
....................                   else 
097F2:  BRA    97F6
....................                      HoraTx=0; 
097F4:  CLRF   x89
....................                }else if(Opcion==5){ 
097F6:  BRA    980A
097F8:  MOVF   x49,W
097FA:  SUBLW  05
097FC:  BNZ   980A
....................                   if(MinutoTx<59) 
097FE:  MOVF   x8A,W
09800:  SUBLW  3A
09802:  BNC   9808
....................                      MinutoTx++; 
09804:  INCF   x8A,F
....................                   else 
09806:  BRA    980A
....................                      MinutoTx=0; 
09808:  CLRF   x8A
....................                } 
....................                RX_Buffer[4]=0x00; 
0980A:  CLRF   34
....................                RX_Buffer2[4]=0x00; 
0980C:  CLRF   3F
0980E:  MOVLB  0
....................             } 
....................          } 
....................           
....................          if(RX_Buffer[4]==0x2b || DOWN){//Tecla Abajo Oprimida 
09810:  MOVF   34,W
09812:  SUBLW  2B
09814:  BZ    981C
09816:  BSF    F93.1
09818:  BTFSC  F81.1
0981A:  BRA    9898
....................             delay_ms(200); 
0981C:  MOVLW  C8
0981E:  MOVLB  6
09820:  MOVWF  xA8
09822:  MOVLB  0
09824:  CALL   1D14
....................             if(RX_Buffer[4]==0x2b || DOWN){    
09828:  MOVF   34,W
0982A:  SUBLW  2B
0982C:  BZ    9834
0982E:  BSF    F93.1
09830:  BTFSC  F81.1
09832:  BRA    9898
....................                if(Opcion==1){ 
09834:  MOVLB  3
09836:  DECFSZ x49,W
09838:  BRA    9842
....................                   if(DiaTx>0) 
0983A:  MOVF   x88,F
0983C:  BZ    9840
....................                      DiaTx--; 
0983E:  DECF   x88,F
....................                }else if(Opcion==2){ 
09840:  BRA    9892
09842:  MOVF   x49,W
09844:  SUBLW  02
09846:  BNZ   9858
....................                   if(MesTx>1) 
09848:  MOVF   x87,W
0984A:  SUBLW  01
0984C:  BC    9852
....................                      MesTx--; 
0984E:  DECF   x87,F
....................                   else 
09850:  BRA    9856
....................                      MesTx=12; 
09852:  MOVLW  0C
09854:  MOVWF  x87
....................                }else if(Opcion==3){ 
09856:  BRA    9892
09858:  MOVF   x49,W
0985A:  SUBLW  03
0985C:  BNZ   986C
....................                   if(YearTx>0) 
0985E:  MOVF   x86,F
09860:  BZ    9866
....................                      YearTx--; 
09862:  DECF   x86,F
....................                   else 
09864:  BRA    986A
....................                      YearTx=99; 
09866:  MOVLW  63
09868:  MOVWF  x86
....................                }else if(Opcion==4){ 
0986A:  BRA    9892
0986C:  MOVF   x49,W
0986E:  SUBLW  04
09870:  BNZ   9880
....................                   if(HoraTx>0) 
09872:  MOVF   x89,F
09874:  BZ    987A
....................                      HoraTx--; 
09876:  DECF   x89,F
....................                   else 
09878:  BRA    987E
....................                      HoraTx=23; 
0987A:  MOVLW  17
0987C:  MOVWF  x89
....................                }else if(Opcion==5){ 
0987E:  BRA    9892
09880:  MOVF   x49,W
09882:  SUBLW  05
09884:  BNZ   9892
....................                   if(MinutoTx>0) 
09886:  MOVF   x8A,F
09888:  BZ    988E
....................                      MinutoTx--; 
0988A:  DECF   x8A,F
....................                   else 
0988C:  BRA    9892
....................                      MinutoTx=59; 
0988E:  MOVLW  3B
09890:  MOVWF  x8A
....................                } 
....................                RX_Buffer[4]=0x00; 
09892:  CLRF   34
....................                RX_Buffer2[4]=0x00; 
09894:  CLRF   3F
09896:  MOVLB  0
....................             } 
....................          } 
....................        
....................       printf("thora.txt=\"%02u\"",HoraTx); 
09898:  MOVLW  E6
0989A:  MOVWF  FF6
0989C:  MOVLW  0D
0989E:  MOVWF  FF7
098A0:  MOVLW  00
098A2:  MOVWF  FF8
098A4:  MOVLW  0B
098A6:  MOVLB  6
098A8:  MOVWF  x9A
098AA:  MOVLB  0
098AC:  CALL   4EA0
098B0:  MOVFF  389,698
098B4:  MOVLW  01
098B6:  MOVLB  6
098B8:  MOVWF  x99
098BA:  MOVLB  0
098BC:  CALL   4EFE
098C0:  MOVLW  22
098C2:  BTFSS  F9E.4
098C4:  BRA    98C2
098C6:  MOVWF  FAD
....................       SendDataDisplay(); 
098C8:  CALL   37EC
....................       printf("tminutos.txt=\"%02u\"",MinutoTx); 
098CC:  MOVLW  F8
098CE:  MOVWF  FF6
098D0:  MOVLW  0D
098D2:  MOVWF  FF7
098D4:  MOVLW  00
098D6:  MOVWF  FF8
098D8:  MOVLW  0E
098DA:  MOVLB  6
098DC:  MOVWF  x9A
098DE:  MOVLB  0
098E0:  CALL   4EA0
098E4:  MOVFF  38A,698
098E8:  MOVLW  01
098EA:  MOVLB  6
098EC:  MOVWF  x99
098EE:  MOVLB  0
098F0:  CALL   4EFE
098F4:  MOVLW  22
098F6:  BTFSS  F9E.4
098F8:  BRA    98F6
098FA:  MOVWF  FAD
....................       SendDataDisplay(); 
098FC:  CALL   37EC
....................       printf("tdia.txt=\"%02u\"",DiaTx); 
09900:  MOVLW  0C
09902:  MOVWF  FF6
09904:  MOVLW  0E
09906:  MOVWF  FF7
09908:  MOVLW  00
0990A:  MOVWF  FF8
0990C:  MOVLW  0A
0990E:  MOVLB  6
09910:  MOVWF  x9A
09912:  MOVLB  0
09914:  CALL   4EA0
09918:  MOVFF  388,698
0991C:  MOVLW  01
0991E:  MOVLB  6
09920:  MOVWF  x99
09922:  MOVLB  0
09924:  CALL   4EFE
09928:  MOVLW  22
0992A:  BTFSS  F9E.4
0992C:  BRA    992A
0992E:  MOVWF  FAD
....................       SendDataDisplay(); 
09930:  CALL   37EC
....................       printf("tmes.txt=\"%02u\"",MesTx); 
09934:  MOVLW  1C
09936:  MOVWF  FF6
09938:  MOVLW  0E
0993A:  MOVWF  FF7
0993C:  MOVLW  00
0993E:  MOVWF  FF8
09940:  MOVLW  0A
09942:  MOVLB  6
09944:  MOVWF  x9A
09946:  MOVLB  0
09948:  CALL   4EA0
0994C:  MOVFF  387,698
09950:  MOVLW  01
09952:  MOVLB  6
09954:  MOVWF  x99
09956:  MOVLB  0
09958:  CALL   4EFE
0995C:  MOVLW  22
0995E:  BTFSS  F9E.4
09960:  BRA    995E
09962:  MOVWF  FAD
....................       SendDataDisplay(); 
09964:  CALL   37EC
....................       printf("tyear.txt=\"%02u\"",YearTx); 
09968:  MOVLW  2C
0996A:  MOVWF  FF6
0996C:  MOVLW  0E
0996E:  MOVWF  FF7
09970:  MOVLW  00
09972:  MOVWF  FF8
09974:  MOVLW  0B
09976:  MOVLB  6
09978:  MOVWF  x9A
0997A:  MOVLB  0
0997C:  CALL   4EA0
09980:  MOVFF  386,698
09984:  MOVLW  01
09986:  MOVLB  6
09988:  MOVWF  x99
0998A:  MOVLB  0
0998C:  CALL   4EFE
09990:  MOVLW  22
09992:  BTFSS  F9E.4
09994:  BRA    9992
09996:  MOVWF  FAD
....................       SendDataDisplay(); 
09998:  CALL   37EC
....................       LimitaDia();   
0999C:  GOTO   5544
099A0:  MOVLB  3
....................     } 
.................... //_--------------------------------------------------------------------------------------------------------------------------------------------------------        
....................  
.................... //_-------------------------------------------------------------------------------------------------------------------------------------------------------- 
....................    if(Menu==8){ //Menu Ciclos Personalizados 
099A2:  MOVF   x41,W
099A4:  SUBLW  08
099A6:  BTFSS  FD8.2
099A8:  GOTO   A3CA
....................       printf("fecha.txt=\"Fecha:%02u/%02u/20%02u Hora: %02u:%02u:%02u\"",Dia,Mes,Year,Hora,Minuto,Segundo); 
099AC:  MOVLW  3E
099AE:  MOVWF  FF6
099B0:  MOVLW  0E
099B2:  MOVWF  FF7
099B4:  MOVLW  00
099B6:  MOVWF  FF8
099B8:  MOVLW  11
099BA:  MOVLB  6
099BC:  MOVWF  x9A
099BE:  MOVLB  0
099C0:  CALL   4EA0
099C4:  MOVFF  381,698
099C8:  MOVLW  01
099CA:  MOVLB  6
099CC:  MOVWF  x99
099CE:  MOVLB  0
099D0:  CALL   4EFE
099D4:  MOVLW  2F
099D6:  BTFSS  F9E.4
099D8:  BRA    99D6
099DA:  MOVWF  FAD
099DC:  MOVFF  380,698
099E0:  MOVLW  01
099E2:  MOVLB  6
099E4:  MOVWF  x99
099E6:  MOVLB  0
099E8:  CALL   4EFE
099EC:  MOVLW  2F
099EE:  BTFSS  F9E.4
099F0:  BRA    99EE
099F2:  MOVWF  FAD
099F4:  MOVLW  32
099F6:  BTFSS  F9E.4
099F8:  BRA    99F6
099FA:  MOVWF  FAD
099FC:  MOVLW  30
099FE:  BTFSS  F9E.4
09A00:  BRA    99FE
09A02:  MOVWF  FAD
09A04:  MOVFF  37F,698
09A08:  MOVLW  01
09A0A:  MOVLB  6
09A0C:  MOVWF  x99
09A0E:  MOVLB  0
09A10:  CALL   4EFE
09A14:  MOVLW  5F
09A16:  MOVWF  FF6
09A18:  MOVLW  0E
09A1A:  MOVWF  FF7
09A1C:  MOVLW  00
09A1E:  MOVWF  FF8
09A20:  MOVLW  07
09A22:  MOVLB  6
09A24:  MOVWF  x9A
09A26:  MOVLB  0
09A28:  CALL   4EA0
09A2C:  MOVFF  382,698
09A30:  MOVLW  01
09A32:  MOVLB  6
09A34:  MOVWF  x99
09A36:  MOVLB  0
09A38:  CALL   4EFE
09A3C:  MOVLW  3A
09A3E:  BTFSS  F9E.4
09A40:  BRA    9A3E
09A42:  MOVWF  FAD
09A44:  MOVFF  383,698
09A48:  MOVLW  01
09A4A:  MOVLB  6
09A4C:  MOVWF  x99
09A4E:  MOVLB  0
09A50:  CALL   4EFE
09A54:  MOVLW  3A
09A56:  BTFSS  F9E.4
09A58:  BRA    9A56
09A5A:  MOVWF  FAD
09A5C:  MOVFF  384,698
09A60:  MOVLW  01
09A62:  MOVLB  6
09A64:  MOVWF  x99
09A66:  MOVLB  0
09A68:  CALL   4EFE
09A6C:  MOVLW  22
09A6E:  BTFSS  F9E.4
09A70:  BRA    9A6E
09A72:  MOVWF  FAD
....................       SendDataDisplay(); 
09A74:  CALL   37EC
....................       GuardaEEPROM=OFF; 
09A78:  BCF    xA2.2
....................        
....................       if(RX_Buffer[4]>0x00 && RX_Buffer[4]<0x04){//Personalizados 
09A7A:  MOVF   34,F
09A7C:  BTFSC  FD8.2
09A7E:  BRA    9D18
09A80:  MOVF   34,W
09A82:  SUBLW  03
09A84:  BTFSS  FD8.0
09A86:  BRA    9D18
....................          printf("ciclo.txt=\"CICLO P%02u\"",RX_Buffer[4]+0x06); 
09A88:  MOVLW  06
09A8A:  ADDWF  34,W
09A8C:  MOVLB  6
09A8E:  MOVWF  x96
09A90:  MOVLW  76
09A92:  MOVWF  FF6
09A94:  MOVLW  0E
09A96:  MOVWF  FF7
09A98:  MOVLW  00
09A9A:  MOVWF  FF8
09A9C:  MOVLW  12
09A9E:  MOVWF  x9A
09AA0:  MOVLB  0
09AA2:  CALL   4EA0
09AA6:  MOVFF  696,698
09AAA:  MOVLW  01
09AAC:  MOVLB  6
09AAE:  MOVWF  x99
09AB0:  MOVLB  0
09AB2:  CALL   4EFE
09AB6:  MOVLW  22
09AB8:  BTFSS  F9E.4
09ABA:  BRA    9AB8
09ABC:  MOVWF  FAD
....................          SendDataDisplay();           
09ABE:  CALL   37EC
....................          printf("temp.txt=\"%u\"",CiclosPersonalizados[RX_Buffer[4]-1].Temperatura); 
09AC2:  MOVLW  01
09AC4:  SUBWF  34,W
09AC6:  MULLW  0A
09AC8:  MOVF   FF3,W
09ACA:  MOVLB  6
09ACC:  CLRF   x97
09ACE:  MOVWF  x96
09AD0:  MOVLW  6E
09AD2:  ADDWF  x96,W
09AD4:  MOVWF  FE9
09AD6:  MOVLW  06
09AD8:  ADDWFC x97,W
09ADA:  MOVWF  FEA
09ADC:  MOVFF  FEF,696
09AE0:  MOVLW  8E
09AE2:  MOVWF  FF6
09AE4:  MOVLW  0E
09AE6:  MOVWF  FF7
09AE8:  MOVLW  00
09AEA:  MOVWF  FF8
09AEC:  MOVLW  0A
09AEE:  MOVWF  x9A
09AF0:  MOVLB  0
09AF2:  CALL   4EA0
09AF6:  MOVFF  696,698
09AFA:  MOVLW  1B
09AFC:  MOVLB  6
09AFE:  MOVWF  x99
09B00:  MOVLB  0
09B02:  CALL   4EFE
09B06:  MOVLW  22
09B08:  BTFSS  F9E.4
09B0A:  BRA    9B08
09B0C:  MOVWF  FAD
....................          SendDataDisplay(); 
09B0E:  CALL   37EC
....................          printf("test.txt=\"%02u:%02u\"",CiclosPersonalizados[RX_Buffer[4]-1].Minutoest,CiclosPersonalizados[RX_Buffer[4]-1].Segundoest); 
09B12:  MOVLW  01
09B14:  SUBWF  34,W
09B16:  MULLW  0A
09B18:  MOVF   FF3,W
09B1A:  MOVLB  6
09B1C:  CLRF   x97
09B1E:  MOVWF  x96
09B20:  MOVLW  09
09B22:  ADDWF  x96,W
09B24:  MOVWF  01
09B26:  MOVLW  00
09B28:  ADDWFC x97,W
09B2A:  MOVWF  03
09B2C:  MOVF   01,W
09B2E:  ADDLW  6E
09B30:  MOVWF  FE9
09B32:  MOVLW  06
09B34:  ADDWFC 03,W
09B36:  MOVWF  FEA
09B38:  MOVFF  FEF,696
09B3C:  MOVLW  01
09B3E:  SUBWF  34,W
09B40:  MULLW  0A
09B42:  MOVF   FF3,W
09B44:  CLRF   x98
09B46:  MOVWF  x97
09B48:  MOVLW  03
09B4A:  ADDWF  x97,W
09B4C:  MOVWF  01
09B4E:  MOVLW  00
09B50:  ADDWFC x98,W
09B52:  MOVWF  03
09B54:  MOVF   01,W
09B56:  ADDLW  6E
09B58:  MOVWF  FE9
09B5A:  MOVLW  06
09B5C:  ADDWFC 03,W
09B5E:  MOVWF  FEA
09B60:  MOVFF  FEF,697
09B64:  MOVLW  9C
09B66:  MOVWF  FF6
09B68:  MOVLW  0E
09B6A:  MOVWF  FF7
09B6C:  MOVLW  00
09B6E:  MOVWF  FF8
09B70:  MOVLW  0A
09B72:  MOVWF  x9A
09B74:  MOVLB  0
09B76:  CALL   4EA0
09B7A:  MOVFF  696,698
09B7E:  MOVLW  01
09B80:  MOVLB  6
09B82:  MOVWF  x99
09B84:  MOVLB  0
09B86:  CALL   4EFE
09B8A:  MOVLW  3A
09B8C:  BTFSS  F9E.4
09B8E:  BRA    9B8C
09B90:  MOVWF  FAD
09B92:  MOVFF  697,698
09B96:  MOVLW  01
09B98:  MOVLB  6
09B9A:  MOVWF  x99
09B9C:  MOVLB  0
09B9E:  CALL   4EFE
09BA2:  MOVLW  22
09BA4:  BTFSS  F9E.4
09BA6:  BRA    9BA4
09BA8:  MOVWF  FAD
....................          SendDataDisplay(); 
09BAA:  CALL   37EC
....................          printf("tsec.txt=\"%02u:%02u\"",CiclosPersonalizados[RX_Buffer[4]-1].Minutosec,CiclosPersonalizados[RX_Buffer[4]-1].Segundosec); 
09BAE:  MOVLW  01
09BB0:  SUBWF  34,W
09BB2:  MULLW  0A
09BB4:  MOVF   FF3,W
09BB6:  MOVLB  6
09BB8:  CLRF   x97
09BBA:  MOVWF  x96
09BBC:  MOVLW  04
09BBE:  ADDWF  x96,W
09BC0:  MOVWF  01
09BC2:  MOVLW  00
09BC4:  ADDWFC x97,W
09BC6:  MOVWF  03
09BC8:  MOVF   01,W
09BCA:  ADDLW  6E
09BCC:  MOVWF  FE9
09BCE:  MOVLW  06
09BD0:  ADDWFC 03,W
09BD2:  MOVWF  FEA
09BD4:  MOVFF  FEF,696
09BD8:  MOVLW  01
09BDA:  SUBWF  34,W
09BDC:  MULLW  0A
09BDE:  MOVF   FF3,W
09BE0:  CLRF   x98
09BE2:  MOVWF  x97
09BE4:  MOVLW  05
09BE6:  ADDWF  x97,W
09BE8:  MOVWF  01
09BEA:  MOVLW  00
09BEC:  ADDWFC x98,W
09BEE:  MOVWF  03
09BF0:  MOVF   01,W
09BF2:  ADDLW  6E
09BF4:  MOVWF  FE9
09BF6:  MOVLW  06
09BF8:  ADDWFC 03,W
09BFA:  MOVWF  FEA
09BFC:  MOVFF  FEF,697
09C00:  MOVLW  B2
09C02:  MOVWF  FF6
09C04:  MOVLW  0E
09C06:  MOVWF  FF7
09C08:  MOVLW  00
09C0A:  MOVWF  FF8
09C0C:  MOVLW  0A
09C0E:  MOVWF  x9A
09C10:  MOVLB  0
09C12:  CALL   4EA0
09C16:  MOVFF  696,698
09C1A:  MOVLW  01
09C1C:  MOVLB  6
09C1E:  MOVWF  x99
09C20:  MOVLB  0
09C22:  CALL   4EFE
09C26:  MOVLW  3A
09C28:  BTFSS  F9E.4
09C2A:  BRA    9C28
09C2C:  MOVWF  FAD
09C2E:  MOVFF  697,698
09C32:  MOVLW  01
09C34:  MOVLB  6
09C36:  MOVWF  x99
09C38:  MOVLB  0
09C3A:  CALL   4EFE
09C3E:  MOVLW  22
09C40:  BTFSS  F9E.4
09C42:  BRA    9C40
09C44:  MOVWF  FAD
....................          SendDataDisplay(); 
09C46:  CALL   37EC
....................          printf("pulsos.txt=\"%02u\"",CiclosPersonalizados[RX_Buffer[4]-1].PulsosVacio); 
09C4A:  MOVLW  01
09C4C:  SUBWF  34,W
09C4E:  MULLW  0A
09C50:  MOVF   FF3,W
09C52:  MOVLB  6
09C54:  CLRF   x97
09C56:  MOVWF  x96
09C58:  MOVLW  06
09C5A:  ADDWF  x96,W
09C5C:  MOVWF  01
09C5E:  MOVLW  00
09C60:  ADDWFC x97,W
09C62:  MOVWF  03
09C64:  MOVF   01,W
09C66:  ADDLW  6E
09C68:  MOVWF  FE9
09C6A:  MOVLW  06
09C6C:  ADDWFC 03,W
09C6E:  MOVWF  FEA
09C70:  MOVFF  FEF,696
09C74:  MOVLW  C8
09C76:  MOVWF  FF6
09C78:  MOVLW  0E
09C7A:  MOVWF  FF7
09C7C:  MOVLW  00
09C7E:  MOVWF  FF8
09C80:  MOVLW  0C
09C82:  MOVWF  x9A
09C84:  MOVLB  0
09C86:  CALL   4EA0
09C8A:  MOVFF  696,698
09C8E:  MOVLW  01
09C90:  MOVLB  6
09C92:  MOVWF  x99
09C94:  MOVLB  0
09C96:  CALL   4EFE
09C9A:  MOVLW  22
09C9C:  BTFSS  F9E.4
09C9E:  BRA    9C9C
09CA0:  MOVWF  FAD
....................          SendDataDisplay(); 
09CA2:  CALL   37EC
....................          printf("vacio.txt=\"%03u kPa\"",CiclosPersonalizados[RX_Buffer[4]-1].NivelVacio); 
09CA6:  MOVLW  01
09CA8:  SUBWF  34,W
09CAA:  MULLW  0A
09CAC:  MOVF   FF3,W
09CAE:  MOVLB  6
09CB0:  CLRF   x97
09CB2:  MOVWF  x96
09CB4:  MOVLW  07
09CB6:  ADDWF  x96,W
09CB8:  MOVWF  01
09CBA:  MOVLW  00
09CBC:  ADDWFC x97,W
09CBE:  MOVWF  03
09CC0:  MOVF   01,W
09CC2:  ADDLW  6E
09CC4:  MOVWF  FE9
09CC6:  MOVLW  06
09CC8:  ADDWFC 03,W
09CCA:  MOVWF  FEA
09CCC:  MOVFF  FEF,696
09CD0:  MOVLW  DA
09CD2:  MOVWF  FF6
09CD4:  MOVLW  0E
09CD6:  MOVWF  FF7
09CD8:  MOVLW  00
09CDA:  MOVWF  FF8
09CDC:  MOVLW  0B
09CDE:  MOVWF  x9A
09CE0:  MOVLB  0
09CE2:  CALL   4EA0
09CE6:  MOVFF  696,698
09CEA:  MOVLW  03
09CEC:  MOVLB  6
09CEE:  MOVWF  x99
09CF0:  MOVLB  0
09CF2:  CALL   4EFE
09CF6:  MOVLW  E9
09CF8:  MOVWF  FF6
09CFA:  MOVLW  0E
09CFC:  MOVWF  FF7
09CFE:  MOVLW  00
09D00:  MOVWF  FF8
09D02:  MOVLW  05
09D04:  MOVLB  6
09D06:  MOVWF  x9A
09D08:  MOVLB  0
09D0A:  CALL   4EA0
....................          SendDataDisplay(); 
09D0E:  CALL   37EC
....................          CicloLibre=RX_Buffer[4]; 
09D12:  MOVFF  34,329
....................       }else if(CicloLibre==0x00){ 
09D16:  BRA    A046
09D18:  MOVLB  3
09D1A:  MOVF   x29,F
09D1C:  BNZ   9D9C
....................          printf("ciclo.txt=\"CICLO P--\""); 
09D1E:  MOVLW  F0
09D20:  MOVWF  FF6
09D22:  MOVLW  0E
09D24:  MOVWF  FF7
09D26:  MOVLW  00
09D28:  MOVWF  FF8
09D2A:  MOVLB  0
09D2C:  CALL   37BA
....................          SendDataDisplay();           
09D30:  CALL   37EC
....................          printf("temp.txt=\"--\""); 
09D34:  MOVLW  06
09D36:  MOVWF  FF6
09D38:  MOVLW  0F
09D3A:  MOVWF  FF7
09D3C:  MOVLW  00
09D3E:  MOVWF  FF8
09D40:  CALL   37BA
....................          SendDataDisplay(); 
09D44:  CALL   37EC
....................          printf("test.txt=\"--:--\""); 
09D48:  MOVLW  14
09D4A:  MOVWF  FF6
09D4C:  MOVLW  0F
09D4E:  MOVWF  FF7
09D50:  MOVLW  00
09D52:  MOVWF  FF8
09D54:  CALL   37BA
....................          SendDataDisplay(); 
09D58:  CALL   37EC
....................          printf("tsec.txt=\"--:--\""); 
09D5C:  MOVLW  26
09D5E:  MOVWF  FF6
09D60:  MOVLW  0F
09D62:  MOVWF  FF7
09D64:  MOVLW  00
09D66:  MOVWF  FF8
09D68:  CALL   37BA
....................          SendDataDisplay(); 
09D6C:  CALL   37EC
....................          printf("pulsos.txt=\"---\""); 
09D70:  MOVLW  38
09D72:  MOVWF  FF6
09D74:  MOVLW  0F
09D76:  MOVWF  FF7
09D78:  MOVLW  00
09D7A:  MOVWF  FF8
09D7C:  CALL   37BA
....................          SendDataDisplay(); 
09D80:  CALL   37EC
....................          printf("vacio.txt=\"---\""); 
09D84:  MOVLW  4A
09D86:  MOVWF  FF6
09D88:  MOVLW  0F
09D8A:  MOVWF  FF7
09D8C:  MOVLW  00
09D8E:  MOVWF  FF8
09D90:  CALL   37BA
....................          SendDataDisplay(); 
09D94:  CALL   37EC
....................       }else if(CicloLibre>0 && CicloLibre<4){ 
09D98:  BRA    A046
09D9A:  MOVLB  3
09D9C:  MOVF   x29,F
09D9E:  BTFSC  FD8.2
09DA0:  BRA    A048
09DA2:  MOVF   x29,W
09DA4:  SUBLW  03
09DA6:  BTFSS  FD8.0
09DA8:  BRA    A048
....................          printf("ciclo.txt=\"CICLO P%02u\"",CicloLibre+0x06); 
09DAA:  MOVLW  06
09DAC:  ADDWF  x29,W
09DAE:  MOVLB  6
09DB0:  MOVWF  x96
09DB2:  MOVLW  5A
09DB4:  MOVWF  FF6
09DB6:  MOVLW  0F
09DB8:  MOVWF  FF7
09DBA:  MOVLW  00
09DBC:  MOVWF  FF8
09DBE:  MOVLW  12
09DC0:  MOVWF  x9A
09DC2:  MOVLB  0
09DC4:  CALL   4EA0
09DC8:  MOVFF  696,698
09DCC:  MOVLW  01
09DCE:  MOVLB  6
09DD0:  MOVWF  x99
09DD2:  MOVLB  0
09DD4:  CALL   4EFE
09DD8:  MOVLW  22
09DDA:  BTFSS  F9E.4
09DDC:  BRA    9DDA
09DDE:  MOVWF  FAD
....................          SendDataDisplay();           
09DE0:  CALL   37EC
....................          printf("temp.txt=\"%u\"",CiclosPersonalizados[CicloLibre-1].Temperatura); 
09DE4:  MOVLW  01
09DE6:  MOVLB  3
09DE8:  SUBWF  x29,W
09DEA:  MULLW  0A
09DEC:  MOVF   FF3,W
09DEE:  MOVLB  6
09DF0:  CLRF   x97
09DF2:  MOVWF  x96
09DF4:  MOVLW  6E
09DF6:  ADDWF  x96,W
09DF8:  MOVWF  FE9
09DFA:  MOVLW  06
09DFC:  ADDWFC x97,W
09DFE:  MOVWF  FEA
09E00:  MOVFF  FEF,696
09E04:  MOVLW  72
09E06:  MOVWF  FF6
09E08:  MOVLW  0F
09E0A:  MOVWF  FF7
09E0C:  MOVLW  00
09E0E:  MOVWF  FF8
09E10:  MOVLW  0A
09E12:  MOVWF  x9A
09E14:  MOVLB  0
09E16:  CALL   4EA0
09E1A:  MOVFF  696,698
09E1E:  MOVLW  1B
09E20:  MOVLB  6
09E22:  MOVWF  x99
09E24:  MOVLB  0
09E26:  CALL   4EFE
09E2A:  MOVLW  22
09E2C:  BTFSS  F9E.4
09E2E:  BRA    9E2C
09E30:  MOVWF  FAD
....................          SendDataDisplay(); 
09E32:  CALL   37EC
....................          printf("test.txt=\"%02u:%02u\"",CiclosPersonalizados[CicloLibre-1].Minutoest,CiclosPersonalizados[CicloLibre-1].Segundoest); 
09E36:  MOVLW  01
09E38:  MOVLB  3
09E3A:  SUBWF  x29,W
09E3C:  MULLW  0A
09E3E:  MOVF   FF3,W
09E40:  MOVLB  6
09E42:  CLRF   x97
09E44:  MOVWF  x96
09E46:  MOVLW  09
09E48:  ADDWF  x96,W
09E4A:  MOVWF  01
09E4C:  MOVLW  00
09E4E:  ADDWFC x97,W
09E50:  MOVWF  03
09E52:  MOVF   01,W
09E54:  ADDLW  6E
09E56:  MOVWF  FE9
09E58:  MOVLW  06
09E5A:  ADDWFC 03,W
09E5C:  MOVWF  FEA
09E5E:  MOVFF  FEF,696
09E62:  MOVLW  01
09E64:  MOVLB  3
09E66:  SUBWF  x29,W
09E68:  MULLW  0A
09E6A:  MOVF   FF3,W
09E6C:  MOVLB  6
09E6E:  CLRF   x98
09E70:  MOVWF  x97
09E72:  MOVLW  03
09E74:  ADDWF  x97,W
09E76:  MOVWF  01
09E78:  MOVLW  00
09E7A:  ADDWFC x98,W
09E7C:  MOVWF  03
09E7E:  MOVF   01,W
09E80:  ADDLW  6E
09E82:  MOVWF  FE9
09E84:  MOVLW  06
09E86:  ADDWFC 03,W
09E88:  MOVWF  FEA
09E8A:  MOVFF  FEF,697
09E8E:  MOVLW  80
09E90:  MOVWF  FF6
09E92:  MOVLW  0F
09E94:  MOVWF  FF7
09E96:  MOVLW  00
09E98:  MOVWF  FF8
09E9A:  MOVLW  0A
09E9C:  MOVWF  x9A
09E9E:  MOVLB  0
09EA0:  CALL   4EA0
09EA4:  MOVFF  696,698
09EA8:  MOVLW  01
09EAA:  MOVLB  6
09EAC:  MOVWF  x99
09EAE:  MOVLB  0
09EB0:  CALL   4EFE
09EB4:  MOVLW  3A
09EB6:  BTFSS  F9E.4
09EB8:  BRA    9EB6
09EBA:  MOVWF  FAD
09EBC:  MOVFF  697,698
09EC0:  MOVLW  01
09EC2:  MOVLB  6
09EC4:  MOVWF  x99
09EC6:  MOVLB  0
09EC8:  CALL   4EFE
09ECC:  MOVLW  22
09ECE:  BTFSS  F9E.4
09ED0:  BRA    9ECE
09ED2:  MOVWF  FAD
....................          SendDataDisplay(); 
09ED4:  CALL   37EC
....................          printf("tsec.txt=\"%02u:%02u\"",CiclosPersonalizados[CicloLibre-1].Minutosec,CiclosPersonalizados[CicloLibre-1].Segundosec); 
09ED8:  MOVLW  01
09EDA:  MOVLB  3
09EDC:  SUBWF  x29,W
09EDE:  MULLW  0A
09EE0:  MOVF   FF3,W
09EE2:  MOVLB  6
09EE4:  CLRF   x97
09EE6:  MOVWF  x96
09EE8:  MOVLW  04
09EEA:  ADDWF  x96,W
09EEC:  MOVWF  01
09EEE:  MOVLW  00
09EF0:  ADDWFC x97,W
09EF2:  MOVWF  03
09EF4:  MOVF   01,W
09EF6:  ADDLW  6E
09EF8:  MOVWF  FE9
09EFA:  MOVLW  06
09EFC:  ADDWFC 03,W
09EFE:  MOVWF  FEA
09F00:  MOVFF  FEF,696
09F04:  MOVLW  01
09F06:  MOVLB  3
09F08:  SUBWF  x29,W
09F0A:  MULLW  0A
09F0C:  MOVF   FF3,W
09F0E:  MOVLB  6
09F10:  CLRF   x98
09F12:  MOVWF  x97
09F14:  MOVLW  05
09F16:  ADDWF  x97,W
09F18:  MOVWF  01
09F1A:  MOVLW  00
09F1C:  ADDWFC x98,W
09F1E:  MOVWF  03
09F20:  MOVF   01,W
09F22:  ADDLW  6E
09F24:  MOVWF  FE9
09F26:  MOVLW  06
09F28:  ADDWFC 03,W
09F2A:  MOVWF  FEA
09F2C:  MOVFF  FEF,697
09F30:  MOVLW  96
09F32:  MOVWF  FF6
09F34:  MOVLW  0F
09F36:  MOVWF  FF7
09F38:  MOVLW  00
09F3A:  MOVWF  FF8
09F3C:  MOVLW  0A
09F3E:  MOVWF  x9A
09F40:  MOVLB  0
09F42:  CALL   4EA0
09F46:  MOVFF  696,698
09F4A:  MOVLW  01
09F4C:  MOVLB  6
09F4E:  MOVWF  x99
09F50:  MOVLB  0
09F52:  CALL   4EFE
09F56:  MOVLW  3A
09F58:  BTFSS  F9E.4
09F5A:  BRA    9F58
09F5C:  MOVWF  FAD
09F5E:  MOVFF  697,698
09F62:  MOVLW  01
09F64:  MOVLB  6
09F66:  MOVWF  x99
09F68:  MOVLB  0
09F6A:  CALL   4EFE
09F6E:  MOVLW  22
09F70:  BTFSS  F9E.4
09F72:  BRA    9F70
09F74:  MOVWF  FAD
....................          SendDataDisplay(); 
09F76:  CALL   37EC
....................          printf("pulsos.txt=\"%02u\"",CiclosPersonalizados[CicloLibre-1].PulsosVacio); 
09F7A:  MOVLW  01
09F7C:  MOVLB  3
09F7E:  SUBWF  x29,W
09F80:  MULLW  0A
09F82:  MOVF   FF3,W
09F84:  MOVLB  6
09F86:  CLRF   x97
09F88:  MOVWF  x96
09F8A:  MOVLW  06
09F8C:  ADDWF  x96,W
09F8E:  MOVWF  01
09F90:  MOVLW  00
09F92:  ADDWFC x97,W
09F94:  MOVWF  03
09F96:  MOVF   01,W
09F98:  ADDLW  6E
09F9A:  MOVWF  FE9
09F9C:  MOVLW  06
09F9E:  ADDWFC 03,W
09FA0:  MOVWF  FEA
09FA2:  MOVFF  FEF,696
09FA6:  MOVLW  AC
09FA8:  MOVWF  FF6
09FAA:  MOVLW  0F
09FAC:  MOVWF  FF7
09FAE:  MOVLW  00
09FB0:  MOVWF  FF8
09FB2:  MOVLW  0C
09FB4:  MOVWF  x9A
09FB6:  MOVLB  0
09FB8:  CALL   4EA0
09FBC:  MOVFF  696,698
09FC0:  MOVLW  01
09FC2:  MOVLB  6
09FC4:  MOVWF  x99
09FC6:  MOVLB  0
09FC8:  CALL   4EFE
09FCC:  MOVLW  22
09FCE:  BTFSS  F9E.4
09FD0:  BRA    9FCE
09FD2:  MOVWF  FAD
....................          SendDataDisplay(); 
09FD4:  CALL   37EC
....................          printf("vacio.txt=\"%03u kPa\"",CiclosPersonalizados[CicloLibre-1].NivelVacio); 
09FD8:  MOVLW  01
09FDA:  MOVLB  3
09FDC:  SUBWF  x29,W
09FDE:  MULLW  0A
09FE0:  MOVF   FF3,W
09FE2:  MOVLB  6
09FE4:  CLRF   x97
09FE6:  MOVWF  x96
09FE8:  MOVLW  07
09FEA:  ADDWF  x96,W
09FEC:  MOVWF  01
09FEE:  MOVLW  00
09FF0:  ADDWFC x97,W
09FF2:  MOVWF  03
09FF4:  MOVF   01,W
09FF6:  ADDLW  6E
09FF8:  MOVWF  FE9
09FFA:  MOVLW  06
09FFC:  ADDWFC 03,W
09FFE:  MOVWF  FEA
0A000:  MOVFF  FEF,696
0A004:  MOVLW  BE
0A006:  MOVWF  FF6
0A008:  MOVLW  0F
0A00A:  MOVWF  FF7
0A00C:  MOVLW  00
0A00E:  MOVWF  FF8
0A010:  MOVLW  0B
0A012:  MOVWF  x9A
0A014:  MOVLB  0
0A016:  CALL   4EA0
0A01A:  MOVFF  696,698
0A01E:  MOVLW  03
0A020:  MOVLB  6
0A022:  MOVWF  x99
0A024:  MOVLB  0
0A026:  CALL   4EFE
0A02A:  MOVLW  CD
0A02C:  MOVWF  FF6
0A02E:  MOVLW  0F
0A030:  MOVWF  FF7
0A032:  MOVLW  00
0A034:  MOVWF  FF8
0A036:  MOVLW  05
0A038:  MOVLB  6
0A03A:  MOVWF  x9A
0A03C:  MOVLB  0
0A03E:  CALL   4EA0
....................          SendDataDisplay(); 
0A042:  CALL   37EC
0A046:  MOVLB  3
....................       } 
....................        
....................       if(RX_Buffer[4]==0xa0){//a0, Menu Principal 
0A048:  MOVF   34,W
0A04A:  SUBLW  A0
0A04C:  BNZ   A066
....................          printf("page MenuPrincipal"); 
0A04E:  MOVLW  D4
0A050:  MOVWF  FF6
0A052:  MOVLW  0F
0A054:  MOVWF  FF7
0A056:  MOVLW  00
0A058:  MOVWF  FF8
0A05A:  MOVLB  0
0A05C:  CALL   37BA
....................          SendDataDisplay();               
0A060:  CALL   37EC
0A064:  MOVLB  3
....................       } 
....................        
....................       if(RX_Buffer[4]==0x20 && CicloLibre>0){//20, Temperatura 
0A066:  MOVF   34,W
0A068:  SUBLW  20
0A06A:  BNZ   A0A8
0A06C:  MOVF   x29,F
0A06E:  BZ    A0A8
....................          printf("page Temperatura"); 
0A070:  MOVLW  E8
0A072:  MOVWF  FF6
0A074:  MOVLW  0F
0A076:  MOVWF  FF7
0A078:  MOVLW  00
0A07A:  MOVWF  FF8
0A07C:  MOVLB  0
0A07E:  CALL   37BA
....................          SendDataDisplay();      
0A082:  CALL   37EC
....................          Setpoint=CiclosPersonalizados[CicloLibre-1].Temperatura; 
0A086:  MOVLW  01
0A088:  MOVLB  3
0A08A:  SUBWF  x29,W
0A08C:  MULLW  0A
0A08E:  MOVF   FF3,W
0A090:  MOVLB  6
0A092:  CLRF   x97
0A094:  MOVWF  x96
0A096:  MOVLW  6E
0A098:  ADDWF  x96,W
0A09A:  MOVWF  FE9
0A09C:  MOVLW  06
0A09E:  ADDWFC x97,W
0A0A0:  MOVWF  FEA
0A0A2:  MOVFF  FEF,348
0A0A6:  MOVLB  3
....................       } 
....................        
....................       if(RX_Buffer[4]==0x30 && CicloLibre>0){//30, Test 
0A0A8:  MOVF   34,W
0A0AA:  SUBLW  30
0A0AC:  BNZ   A126
0A0AE:  MOVF   x29,F
0A0B0:  BZ    A126
....................          printf("page TiempoEst"); 
0A0B2:  MOVLW  FA
0A0B4:  MOVWF  FF6
0A0B6:  MOVLW  0F
0A0B8:  MOVWF  FF7
0A0BA:  MOVLW  00
0A0BC:  MOVWF  FF8
0A0BE:  MOVLB  0
0A0C0:  CALL   37BA
....................          SendDataDisplay();      
0A0C4:  CALL   37EC
....................          mEstp=CiclosPersonalizados[CicloLibre-1].Minutoest; 
0A0C8:  MOVLW  01
0A0CA:  MOVLB  3
0A0CC:  SUBWF  x29,W
0A0CE:  MULLW  0A
0A0D0:  MOVF   FF3,W
0A0D2:  MOVLB  6
0A0D4:  CLRF   x97
0A0D6:  MOVWF  x96
0A0D8:  MOVLW  09
0A0DA:  ADDWF  x96,W
0A0DC:  MOVWF  01
0A0DE:  MOVLW  00
0A0E0:  ADDWFC x97,W
0A0E2:  MOVWF  03
0A0E4:  MOVF   01,W
0A0E6:  ADDLW  6E
0A0E8:  MOVWF  FE9
0A0EA:  MOVLW  06
0A0EC:  ADDWFC 03,W
0A0EE:  MOVWF  FEA
0A0F0:  MOVFF  FEF,BE
0A0F4:  MOVLB  0
....................          sEstp=CiclosPersonalizados[CicloLibre-1].Segundoest; 
0A0F6:  MOVLW  01
0A0F8:  MOVLB  3
0A0FA:  SUBWF  x29,W
0A0FC:  MULLW  0A
0A0FE:  MOVF   FF3,W
0A100:  MOVLB  6
0A102:  CLRF   x97
0A104:  MOVWF  x96
0A106:  MOVLW  03
0A108:  ADDWF  x96,W
0A10A:  MOVWF  01
0A10C:  MOVLW  00
0A10E:  ADDWFC x97,W
0A110:  MOVWF  03
0A112:  MOVF   01,W
0A114:  ADDLW  6E
0A116:  MOVWF  FE9
0A118:  MOVLW  06
0A11A:  ADDWFC 03,W
0A11C:  MOVWF  FEA
0A11E:  MOVFF  FEF,BD
0A122:  MOVLB  0
0A124:  MOVLB  3
....................       } 
....................        
....................       if(RX_Buffer[4]==0x40 && CicloLibre>0){//30, Test 
0A126:  MOVF   34,W
0A128:  SUBLW  40
0A12A:  BNZ   A1A4
0A12C:  MOVF   x29,F
0A12E:  BZ    A1A4
....................          printf("page TiempoSec"); 
0A130:  MOVLW  0A
0A132:  MOVWF  FF6
0A134:  MOVLW  10
0A136:  MOVWF  FF7
0A138:  MOVLW  00
0A13A:  MOVWF  FF8
0A13C:  MOVLB  0
0A13E:  CALL   37BA
....................          SendDataDisplay();      
0A142:  CALL   37EC
....................          mSecp=CiclosPersonalizados[CicloLibre-1].Minutosec; 
0A146:  MOVLW  01
0A148:  MOVLB  3
0A14A:  SUBWF  x29,W
0A14C:  MULLW  0A
0A14E:  MOVF   FF3,W
0A150:  MOVLB  6
0A152:  CLRF   x97
0A154:  MOVWF  x96
0A156:  MOVLW  04
0A158:  ADDWF  x96,W
0A15A:  MOVWF  01
0A15C:  MOVLW  00
0A15E:  ADDWFC x97,W
0A160:  MOVWF  03
0A162:  MOVF   01,W
0A164:  ADDLW  6E
0A166:  MOVWF  FE9
0A168:  MOVLW  06
0A16A:  ADDWFC 03,W
0A16C:  MOVWF  FEA
0A16E:  MOVFF  FEF,C0
0A172:  MOVLB  0
....................          sSecp=CiclosPersonalizados[CicloLibre-1].Segundosec; 
0A174:  MOVLW  01
0A176:  MOVLB  3
0A178:  SUBWF  x29,W
0A17A:  MULLW  0A
0A17C:  MOVF   FF3,W
0A17E:  MOVLB  6
0A180:  CLRF   x97
0A182:  MOVWF  x96
0A184:  MOVLW  05
0A186:  ADDWF  x96,W
0A188:  MOVWF  01
0A18A:  MOVLW  00
0A18C:  ADDWFC x97,W
0A18E:  MOVWF  03
0A190:  MOVF   01,W
0A192:  ADDLW  6E
0A194:  MOVWF  FE9
0A196:  MOVLW  06
0A198:  ADDWFC 03,W
0A19A:  MOVWF  FEA
0A19C:  MOVFF  FEF,BF
0A1A0:  MOVLB  0
0A1A2:  MOVLB  3
....................       } 
....................        
....................       if(RX_Buffer[4]==0x50 && CicloLibre>0){//50, PulsosVacio 
0A1A4:  MOVF   34,W
0A1A6:  SUBLW  50
0A1A8:  BNZ   A1F2
0A1AA:  MOVF   x29,F
0A1AC:  BZ    A1F2
....................          printf("page Pulsos"); 
0A1AE:  MOVLW  1A
0A1B0:  MOVWF  FF6
0A1B2:  MOVLW  10
0A1B4:  MOVWF  FF7
0A1B6:  MOVLW  00
0A1B8:  MOVWF  FF8
0A1BA:  MOVLB  0
0A1BC:  CALL   37BA
....................          SendDataDisplay();      
0A1C0:  CALL   37EC
....................          Pulsos=CiclosPersonalizados[CicloLibre-1].PulsosVacio; 
0A1C4:  MOVLW  01
0A1C6:  MOVLB  3
0A1C8:  SUBWF  x29,W
0A1CA:  MULLW  0A
0A1CC:  MOVF   FF3,W
0A1CE:  MOVLB  6
0A1D0:  CLRF   x97
0A1D2:  MOVWF  x96
0A1D4:  MOVLW  06
0A1D6:  ADDWF  x96,W
0A1D8:  MOVWF  01
0A1DA:  MOVLW  00
0A1DC:  ADDWFC x97,W
0A1DE:  MOVWF  03
0A1E0:  MOVF   01,W
0A1E2:  ADDLW  6E
0A1E4:  MOVWF  FE9
0A1E6:  MOVLW  06
0A1E8:  ADDWFC 03,W
0A1EA:  MOVWF  FEA
0A1EC:  MOVFF  FEF,32C
0A1F0:  MOVLB  3
....................       } 
....................        
....................       if(RX_Buffer[4]==0x80 && CicloLibre>0){//80, Nivel Vacio 
0A1F2:  MOVF   34,W
0A1F4:  SUBLW  80
0A1F6:  BNZ   A246
0A1F8:  MOVF   x29,F
0A1FA:  BZ    A246
....................          printf("page Nivel"); 
0A1FC:  MOVLW  26
0A1FE:  MOVWF  FF6
0A200:  MOVLW  10
0A202:  MOVWF  FF7
0A204:  MOVLW  00
0A206:  MOVWF  FF8
0A208:  MOVLB  0
0A20A:  CALL   37BA
....................          SendDataDisplay();      
0A20E:  CALL   37EC
....................          Nivel=CiclosPersonalizados[CicloLibre-1].NivelVacio;          
0A212:  MOVLW  01
0A214:  MOVLB  3
0A216:  SUBWF  x29,W
0A218:  MULLW  0A
0A21A:  MOVF   FF3,W
0A21C:  MOVLB  6
0A21E:  CLRF   x97
0A220:  MOVWF  x96
0A222:  MOVLW  07
0A224:  ADDWF  x96,W
0A226:  MOVWF  01
0A228:  MOVLW  00
0A22A:  ADDWFC x97,W
0A22C:  MOVWF  03
0A22E:  MOVF   01,W
0A230:  ADDLW  6E
0A232:  MOVWF  FE9
0A234:  MOVLW  06
0A236:  ADDWFC 03,W
0A238:  MOVWF  FEA
0A23A:  MOVF   FEF,W
0A23C:  CLRF   03
0A23E:  MOVLB  3
0A240:  MOVWF  x59
0A242:  MOVFF  03,35A
....................       } 
....................        
....................       if(RX_Buffer[4]==0x70 && CicloLibre>0){//70, Iniciar Ciclo          
0A246:  MOVF   34,W
0A248:  SUBLW  70
0A24A:  BTFSS  FD8.2
0A24C:  BRA    A3CA
0A24E:  MOVF   x29,F
0A250:  BTFSC  FD8.2
0A252:  BRA    A3CA
....................          printf("page Funcionamiento"); 
0A254:  MOVLW  32
0A256:  MOVWF  FF6
0A258:  MOVLW  10
0A25A:  MOVWF  FF7
0A25C:  MOVLW  00
0A25E:  MOVWF  FF8
0A260:  MOVLB  0
0A262:  CALL   37BA
....................          SendDataDisplay();        
0A266:  CALL   37EC
....................          Libre=ON; 
0A26A:  BSF    xA3.2
....................          ConfiguraCiclo(CiclosPersonalizados[CicloLibre-1].Segundoest,CiclosPersonalizados[CicloLibre-1].Minutoest, 
....................          CiclosPersonalizados[CicloLibre-1].Segundosec,CiclosPersonalizados[CicloLibre-1].MinutoSec,0,CicloLibre+6, 
....................          CiclosPersonalizados[CicloLibre-1].Temperatura,CiclosPersonalizados[CicloLibre-1].PulsosVacio,CiclosPersonalizados[CicloLibre-1].NivelVacio 
....................          ,0); 
0A26C:  MOVLW  01
0A26E:  MOVLB  3
0A270:  SUBWF  x29,W
0A272:  MULLW  0A
0A274:  MOVF   FF3,W
0A276:  MOVLB  6
0A278:  CLRF   x97
0A27A:  MOVWF  x96
0A27C:  MOVLW  03
0A27E:  ADDWF  x96,W
0A280:  MOVWF  01
0A282:  MOVLW  00
0A284:  ADDWFC x97,W
0A286:  MOVWF  03
0A288:  MOVF   01,W
0A28A:  ADDLW  6E
0A28C:  MOVWF  FE9
0A28E:  MOVLW  06
0A290:  ADDWFC 03,W
0A292:  MOVWF  FEA
0A294:  MOVFF  FEF,696
0A298:  MOVLW  01
0A29A:  MOVLB  3
0A29C:  SUBWF  x29,W
0A29E:  MULLW  0A
0A2A0:  MOVF   FF3,W
0A2A2:  MOVLB  6
0A2A4:  CLRF   x98
0A2A6:  MOVWF  x97
0A2A8:  MOVLW  09
0A2AA:  ADDWF  x97,W
0A2AC:  MOVWF  01
0A2AE:  MOVLW  00
0A2B0:  ADDWFC x98,W
0A2B2:  MOVWF  03
0A2B4:  MOVF   01,W
0A2B6:  ADDLW  6E
0A2B8:  MOVWF  FE9
0A2BA:  MOVLW  06
0A2BC:  ADDWFC 03,W
0A2BE:  MOVWF  FEA
0A2C0:  MOVFF  FEF,697
0A2C4:  MOVLW  01
0A2C6:  MOVLB  3
0A2C8:  SUBWF  x29,W
0A2CA:  MULLW  0A
0A2CC:  MOVF   FF3,W
0A2CE:  MOVLB  6
0A2D0:  CLRF   x99
0A2D2:  MOVWF  x98
0A2D4:  MOVLW  05
0A2D6:  ADDWF  x98,W
0A2D8:  MOVWF  01
0A2DA:  MOVLW  00
0A2DC:  ADDWFC x99,W
0A2DE:  MOVWF  03
0A2E0:  MOVF   01,W
0A2E2:  ADDLW  6E
0A2E4:  MOVWF  FE9
0A2E6:  MOVLW  06
0A2E8:  ADDWFC 03,W
0A2EA:  MOVWF  FEA
0A2EC:  MOVFF  FEF,698
0A2F0:  MOVLW  01
0A2F2:  MOVLB  3
0A2F4:  SUBWF  x29,W
0A2F6:  MULLW  0A
0A2F8:  MOVF   FF3,W
0A2FA:  MOVLB  6
0A2FC:  CLRF   x9A
0A2FE:  MOVWF  x99
0A300:  MOVLW  04
0A302:  ADDWF  x99,W
0A304:  MOVWF  01
0A306:  MOVLW  00
0A308:  ADDWFC x9A,W
0A30A:  MOVWF  03
0A30C:  MOVF   01,W
0A30E:  ADDLW  6E
0A310:  MOVWF  FE9
0A312:  MOVLW  06
0A314:  ADDWFC 03,W
0A316:  MOVWF  FEA
0A318:  MOVFF  FEF,699
0A31C:  MOVLW  06
0A31E:  MOVLB  3
0A320:  ADDWF  x29,W
0A322:  MOVLB  6
0A324:  MOVWF  x9A
0A326:  MOVLW  01
0A328:  MOVLB  3
0A32A:  SUBWF  x29,W
0A32C:  MULLW  0A
0A32E:  MOVF   FF3,W
0A330:  MOVLB  6
0A332:  CLRF   x9C
0A334:  MOVWF  x9B
0A336:  MOVLW  6E
0A338:  ADDWF  x9B,W
0A33A:  MOVWF  FE9
0A33C:  MOVLW  06
0A33E:  ADDWFC x9C,W
0A340:  MOVWF  FEA
0A342:  MOVFF  FEF,69B
0A346:  MOVLW  01
0A348:  MOVLB  3
0A34A:  SUBWF  x29,W
0A34C:  MULLW  0A
0A34E:  MOVF   FF3,W
0A350:  MOVLB  6
0A352:  CLRF   x9D
0A354:  MOVWF  x9C
0A356:  MOVLW  06
0A358:  ADDWF  x9C,W
0A35A:  MOVWF  01
0A35C:  MOVLW  00
0A35E:  ADDWFC x9D,W
0A360:  MOVWF  03
0A362:  MOVF   01,W
0A364:  ADDLW  6E
0A366:  MOVWF  FE9
0A368:  MOVLW  06
0A36A:  ADDWFC 03,W
0A36C:  MOVWF  FEA
0A36E:  MOVFF  FEF,69C
0A372:  MOVLW  01
0A374:  MOVLB  3
0A376:  SUBWF  x29,W
0A378:  MULLW  0A
0A37A:  MOVF   FF3,W
0A37C:  MOVLB  6
0A37E:  CLRF   x9E
0A380:  MOVWF  x9D
0A382:  MOVLW  07
0A384:  ADDWF  x9D,W
0A386:  MOVWF  01
0A388:  MOVLW  00
0A38A:  ADDWFC x9E,W
0A38C:  MOVWF  03
0A38E:  MOVF   01,W
0A390:  ADDLW  6E
0A392:  MOVWF  FE9
0A394:  MOVLW  06
0A396:  ADDWFC 03,W
0A398:  MOVWF  FEA
0A39A:  MOVFF  FEF,69D
0A39E:  MOVFF  696,69E
0A3A2:  MOVFF  697,69F
0A3A6:  MOVFF  698,6A0
0A3AA:  MOVFF  699,6A1
0A3AE:  CLRF   xA2
0A3B0:  MOVFF  69A,6A3
0A3B4:  MOVFF  69B,6A4
0A3B8:  MOVFF  69C,6A5
0A3BC:  MOVFF  69D,6A6
0A3C0:  CLRF   xA7
0A3C2:  MOVLB  0
0A3C4:  CALL   4F7C
0A3C8:  MOVLB  3
....................       } 
....................    } 
.................... //_--------------------------------------------------------------------------------------------------------------------------------------------------------        
....................  
.................... //_--------------------------------------------------------------------------------------------------------------------------------------------------------       
....................    if(Menu==9){//Menu de Pulsos de Vacio 
0A3CA:  MOVF   x41,W
0A3CC:  SUBLW  09
0A3CE:  BTFSS  FD8.2
0A3D0:  BRA    A5A0
....................       printf("fecha.txt=\"Fecha:%02u/%02u/20%02u    Hora: %02u:%02u:%02u\"",Dia,Mes,Year,Hora,Minuto,Segundo); 
0A3D2:  MOVLW  46
0A3D4:  MOVWF  FF6
0A3D6:  MOVLW  10
0A3D8:  MOVWF  FF7
0A3DA:  MOVLW  00
0A3DC:  MOVWF  FF8
0A3DE:  MOVLW  11
0A3E0:  MOVLB  6
0A3E2:  MOVWF  x9A
0A3E4:  MOVLB  0
0A3E6:  CALL   4EA0
0A3EA:  MOVFF  381,698
0A3EE:  MOVLW  01
0A3F0:  MOVLB  6
0A3F2:  MOVWF  x99
0A3F4:  MOVLB  0
0A3F6:  CALL   4EFE
0A3FA:  MOVLW  2F
0A3FC:  BTFSS  F9E.4
0A3FE:  BRA    A3FC
0A400:  MOVWF  FAD
0A402:  MOVFF  380,698
0A406:  MOVLW  01
0A408:  MOVLB  6
0A40A:  MOVWF  x99
0A40C:  MOVLB  0
0A40E:  CALL   4EFE
0A412:  MOVLW  2F
0A414:  BTFSS  F9E.4
0A416:  BRA    A414
0A418:  MOVWF  FAD
0A41A:  MOVLW  32
0A41C:  BTFSS  F9E.4
0A41E:  BRA    A41C
0A420:  MOVWF  FAD
0A422:  MOVLW  30
0A424:  BTFSS  F9E.4
0A426:  BRA    A424
0A428:  MOVWF  FAD
0A42A:  MOVFF  37F,698
0A42E:  MOVLW  01
0A430:  MOVLB  6
0A432:  MOVWF  x99
0A434:  MOVLB  0
0A436:  CALL   4EFE
0A43A:  MOVLW  67
0A43C:  MOVWF  FF6
0A43E:  MOVLW  10
0A440:  MOVWF  FF7
0A442:  MOVLW  00
0A444:  MOVWF  FF8
0A446:  MOVLW  0A
0A448:  MOVLB  6
0A44A:  MOVWF  x9A
0A44C:  MOVLB  0
0A44E:  CALL   4EA0
0A452:  MOVFF  382,698
0A456:  MOVLW  01
0A458:  MOVLB  6
0A45A:  MOVWF  x99
0A45C:  MOVLB  0
0A45E:  CALL   4EFE
0A462:  MOVLW  3A
0A464:  BTFSS  F9E.4
0A466:  BRA    A464
0A468:  MOVWF  FAD
0A46A:  MOVFF  383,698
0A46E:  MOVLW  01
0A470:  MOVLB  6
0A472:  MOVWF  x99
0A474:  MOVLB  0
0A476:  CALL   4EFE
0A47A:  MOVLW  3A
0A47C:  BTFSS  F9E.4
0A47E:  BRA    A47C
0A480:  MOVWF  FAD
0A482:  MOVFF  384,698
0A486:  MOVLW  01
0A488:  MOVLB  6
0A48A:  MOVWF  x99
0A48C:  MOVLB  0
0A48E:  CALL   4EFE
0A492:  MOVLW  22
0A494:  BTFSS  F9E.4
0A496:  BRA    A494
0A498:  MOVWF  FAD
....................       SendDataDisplay(); 
0A49A:  CALL   37EC
....................          if(Pulsos<2) 
0A49E:  MOVLB  3
0A4A0:  MOVF   x2C,W
0A4A2:  SUBLW  01
0A4A4:  BNC   A4AA
....................             Pulsos=8; 
0A4A6:  MOVLW  08
0A4A8:  MOVWF  x2C
....................          if(Pulsos>8) 
0A4AA:  MOVF   x2C,W
0A4AC:  SUBLW  08
0A4AE:  BC    A4B4
....................             Pulsos=2; 
0A4B0:  MOVLW  02
0A4B2:  MOVWF  x2C
....................           
....................          if(RX_Buffer[4]==0x11){//Selecciono Regresar 
0A4B4:  MOVF   34,W
0A4B6:  SUBLW  11
0A4B8:  BNZ   A552
....................             Segundos=OFF; 
0A4BA:  MOVLB  0
0A4BC:  BCF    xA2.1
....................             Minutos=OFF;             
0A4BE:  BCF    xA2.0
....................             printf("page CicloPersona"); 
0A4C0:  MOVLW  82
0A4C2:  MOVWF  FF6
0A4C4:  MOVLW  10
0A4C6:  MOVWF  FF7
0A4C8:  MOVLW  00
0A4CA:  MOVWF  FF8
0A4CC:  CALL   37BA
....................             SendDataDisplay();   
0A4D0:  CALL   37EC
....................             if(!GuardaEEPROM){     
0A4D4:  BTFSC  xA2.2
0A4D6:  BRA    A550
....................                CiclosPersonalizados[CicloLibre-1].PulsosVacio=Pulsos; 
0A4D8:  MOVLW  01
0A4DA:  MOVLB  3
0A4DC:  SUBWF  x29,W
0A4DE:  MULLW  0A
0A4E0:  MOVF   FF3,W
0A4E2:  MOVLB  6
0A4E4:  CLRF   x97
0A4E6:  MOVWF  x96
0A4E8:  MOVLW  06
0A4EA:  ADDWF  x96,W
0A4EC:  MOVWF  01
0A4EE:  MOVLW  00
0A4F0:  ADDWFC x97,W
0A4F2:  MOVWF  03
0A4F4:  MOVF   01,W
0A4F6:  ADDLW  6E
0A4F8:  MOVWF  FE9
0A4FA:  MOVLW  06
0A4FC:  ADDWFC 03,W
0A4FE:  MOVWF  FEA
0A500:  MOVFF  32C,FEF
....................                write_eeprom(105+((CicloLibre-1)*8),Pulsos); 
0A504:  MOVLW  01
0A506:  MOVLB  3
0A508:  SUBWF  x29,W
0A50A:  MULLW  08
0A50C:  MOVF   FF3,W
0A50E:  ADDLW  69
0A510:  MOVLB  6
0A512:  MOVWF  x96
0A514:  CLRF   FAA
0A516:  MOVFF  696,FA9
0A51A:  MOVFF  32C,FA8
0A51E:  BCF    FA6.6
0A520:  BCF    FA6.7
0A522:  BSF    FA6.2
0A524:  MOVF   FF2,W
0A526:  MOVWF  00
0A528:  BCF    FF2.6
0A52A:  BCF    FF2.7
0A52C:  MOVLB  F
0A52E:  MOVLW  55
0A530:  MOVWF  FA7
0A532:  MOVLW  AA
0A534:  MOVWF  FA7
0A536:  BSF    FA6.1
0A538:  BTFSC  FA6.1
0A53A:  BRA    A538
0A53C:  BCF    FA6.2
0A53E:  MOVF   00,W
0A540:  IORWF  FF2,F
....................                delay_ms(20);                            
0A542:  MOVLW  14
0A544:  MOVLB  6
0A546:  MOVWF  xA8
0A548:  MOVLB  0
0A54A:  CALL   1D14
....................                GuardaEEPROM=ON; 
0A54E:  BSF    xA2.2
0A550:  MOVLB  3
....................             } 
....................          } 
....................           
....................          if(RX_Buffer[4]==0x0d){//Tecla Arriba Oprimida 
0A552:  MOVF   34,W
0A554:  SUBLW  0D
0A556:  BNZ   A55E
....................             Pulsos++; 
0A558:  INCF   x2C,F
....................             RX_Buffer[4]=0x00;             
0A55A:  CLRF   34
....................             RX_Buffer2[4]=0x00;             
0A55C:  CLRF   3F
....................          } 
....................           
....................          if(RX_Buffer[4]==0x0c){//Tecla Abajo Oprimida 
0A55E:  MOVF   34,W
0A560:  SUBLW  0C
0A562:  BNZ   A56A
....................             Pulsos--; 
0A564:  DECF   x2C,F
....................             RX_Buffer[4]=0x00; 
0A566:  CLRF   34
....................             RX_Buffer2[4]=0x00;                         
0A568:  CLRF   3F
....................          } 
....................           
....................       printf("tpulsos.txt=\"%u\"",Pulsos); 
0A56A:  MOVLW  94
0A56C:  MOVWF  FF6
0A56E:  MOVLW  10
0A570:  MOVWF  FF7
0A572:  MOVLW  00
0A574:  MOVWF  FF8
0A576:  MOVLW  0D
0A578:  MOVLB  6
0A57A:  MOVWF  x9A
0A57C:  MOVLB  0
0A57E:  CALL   4EA0
0A582:  MOVFF  32C,698
0A586:  MOVLW  1B
0A588:  MOVLB  6
0A58A:  MOVWF  x99
0A58C:  MOVLB  0
0A58E:  CALL   4EFE
0A592:  MOVLW  22
0A594:  BTFSS  F9E.4
0A596:  BRA    A594
0A598:  MOVWF  FAD
....................       SendDataDisplay(); 
0A59A:  CALL   37EC
0A59E:  MOVLB  3
....................    } 
.................... //_--------------------------------------------------------------------------------------------------------------------------------------------------------       
....................  
.................... //_--------------------------------------------------------------------------------------------------------------------------------------------------------       
....................     if(Menu==15){//Menu de Clave Correcta 
0A5A0:  MOVF   x41,W
0A5A2:  SUBLW  0F
0A5A4:  BNZ   A5DC
....................       if(!entro){ 
0A5A6:  MOVLB  0
0A5A8:  BTFSC  xA5.4
0A5AA:  BRA    A5C6
....................          delay_ms(2000); 
0A5AC:  MOVLW  08
0A5AE:  MOVLB  6
0A5B0:  MOVWF  x96
0A5B2:  MOVLW  FA
0A5B4:  MOVWF  xA8
0A5B6:  MOVLB  0
0A5B8:  CALL   1D14
0A5BC:  MOVLB  6
0A5BE:  DECFSZ x96,F
0A5C0:  BRA    A5B2
....................          entro=ON; 
0A5C2:  MOVLB  0
0A5C4:  BSF    xA5.4
....................       } 
....................       printf("page MenuPrincipal"); 
0A5C6:  MOVLW  A6
0A5C8:  MOVWF  FF6
0A5CA:  MOVLW  10
0A5CC:  MOVWF  FF7
0A5CE:  MOVLW  00
0A5D0:  MOVWF  FF8
0A5D2:  CALL   37BA
....................       SendDataDisplay(); 
0A5D6:  CALL   37EC
0A5DA:  MOVLB  3
....................    } 
.................... //_--------------------------------------------------------------------------------------------------------------------------------------------------------       
....................  
.................... //_--------------------------------------------------------------------------------------------------------------------------------------------------------       
....................     if(Menu==16){//Menu de Clave InCorrecta 
0A5DC:  MOVF   x41,W
0A5DE:  SUBLW  10
0A5E0:  BNZ   A618
....................       if(!entro){ 
0A5E2:  MOVLB  0
0A5E4:  BTFSC  xA5.4
0A5E6:  BRA    A602
....................          delay_ms(2000); 
0A5E8:  MOVLW  08
0A5EA:  MOVLB  6
0A5EC:  MOVWF  x96
0A5EE:  MOVLW  FA
0A5F0:  MOVWF  xA8
0A5F2:  MOVLB  0
0A5F4:  CALL   1D14
0A5F8:  MOVLB  6
0A5FA:  DECFSZ x96,F
0A5FC:  BRA    A5EE
....................          entro=ON; 
0A5FE:  MOVLB  0
0A600:  BSF    xA5.4
....................       } 
....................       printf("page Clave"); 
0A602:  MOVLW  BA
0A604:  MOVWF  FF6
0A606:  MOVLW  10
0A608:  MOVWF  FF7
0A60A:  MOVLW  00
0A60C:  MOVWF  FF8
0A60E:  CALL   37BA
....................       SendDataDisplay(); 
0A612:  CALL   37EC
0A616:  MOVLB  3
....................    } 
.................... //_--------------------------------------------------------------------------------------------------------------------------------------------------------       
....................  
.................... //_--------------------------------------------------------------------------------------------------------------------------------------------------------     
....................    if(Menu==20){ // Este es el menu de cuando el proceso se inicio. 
0A618:  MOVF   x41,W
0A61A:  SUBLW  14
0A61C:  BTFSS  FD8.2
0A61E:  GOTO   BE3A
....................    GuardaDatoEstatico(); 
0A622:  MOVLB  0
0A624:  GOTO   56E4
....................    guardaCiclo=ON; 
0A628:  BSF    xA3.6
....................    if(!Libre){ 
0A62A:  BTFSC  xA3.2
0A62C:  BRA    A6B2
....................       printf("t2f.txt=\"%u\"",CicloSeleccionado); 
0A62E:  MOVLW  C6
0A630:  MOVWF  FF6
0A632:  MOVLW  10
0A634:  MOVWF  FF7
0A636:  MOVLW  00
0A638:  MOVWF  FF8
0A63A:  MOVLW  09
0A63C:  MOVLB  6
0A63E:  MOVWF  x9A
0A640:  MOVLB  0
0A642:  CALL   4EA0
0A646:  MOVFF  347,698
0A64A:  MOVLW  1B
0A64C:  MOVLB  6
0A64E:  MOVWF  x99
0A650:  MOVLB  0
0A652:  CALL   4EFE
0A656:  MOVLW  22
0A658:  BTFSS  F9E.4
0A65A:  BRA    A658
0A65C:  MOVWF  FAD
....................       SendDataDisplay(); 
0A65E:  CALL   37EC
....................       printf("t3f.txt=\"%s\"",Texto[CicloSeleccionado-1]); 
0A662:  MOVLW  01
0A664:  MOVLB  3
0A666:  SUBWF  x47,W
0A668:  MULLW  14
0A66A:  MOVF   FF3,W
0A66C:  CLRF   03
0A66E:  MOVLB  6
0A670:  MOVWF  x96
0A672:  MOVLW  D4
0A674:  MOVWF  FF6
0A676:  MOVLW  10
0A678:  MOVWF  FF7
0A67A:  MOVLW  00
0A67C:  MOVWF  FF8
0A67E:  MOVLW  09
0A680:  MOVWF  x9A
0A682:  MOVLB  0
0A684:  CALL   4EA0
0A688:  MOVLW  44
0A68A:  MOVWF  FF6
0A68C:  MOVLW  01
0A68E:  MOVWF  FF7
0A690:  MOVLW  00
0A692:  MOVWF  FF8
0A694:  MOVLB  6
0A696:  MOVF   x96,W
0A698:  ADDWF  FF6,F
0A69A:  MOVLW  00
0A69C:  ADDWFC FF7,F
0A69E:  MOVLB  0
0A6A0:  CALL   37BA
0A6A4:  MOVLW  22
0A6A6:  BTFSS  F9E.4
0A6A8:  BRA    A6A6
0A6AA:  MOVWF  FAD
....................       SendDataDisplay(); 
0A6AC:  CALL   37EC
....................    }else{ 
0A6B0:  BRA    A702
....................       printf("t2f.txt=\"%u\"",CicloLibre+6); 
0A6B2:  MOVLW  06
0A6B4:  MOVLB  3
0A6B6:  ADDWF  x29,W
0A6B8:  MOVLB  6
0A6BA:  MOVWF  x96
0A6BC:  MOVLW  E2
0A6BE:  MOVWF  FF6
0A6C0:  MOVLW  10
0A6C2:  MOVWF  FF7
0A6C4:  MOVLW  00
0A6C6:  MOVWF  FF8
0A6C8:  MOVLW  09
0A6CA:  MOVWF  x9A
0A6CC:  MOVLB  0
0A6CE:  CALL   4EA0
0A6D2:  MOVFF  696,698
0A6D6:  MOVLW  1B
0A6D8:  MOVLB  6
0A6DA:  MOVWF  x99
0A6DC:  MOVLB  0
0A6DE:  CALL   4EFE
0A6E2:  MOVLW  22
0A6E4:  BTFSS  F9E.4
0A6E6:  BRA    A6E4
0A6E8:  MOVWF  FAD
....................       SendDataDisplay(); 
0A6EA:  CALL   37EC
....................       printf("t3f.txt=\"Personalizado\""); 
0A6EE:  MOVLW  F0
0A6F0:  MOVWF  FF6
0A6F2:  MOVLW  10
0A6F4:  MOVWF  FF7
0A6F6:  MOVLW  00
0A6F8:  MOVWF  FF8
0A6FA:  CALL   37BA
....................       SendDataDisplay(); 
0A6FE:  CALL   37EC
....................    } 
....................        
....................    if(PresionPreCamara>280 || PresionCamara>350){ 
0A702:  MOVLB  3
0A704:  MOVF   x60,W
0A706:  SUBLW  00
0A708:  BC    A714
0A70A:  XORLW  FF
0A70C:  BNZ   A724
0A70E:  MOVF   x5F,W
0A710:  SUBLW  18
0A712:  BNC   A724
0A714:  MOVF   x5E,W
0A716:  SUBLW  00
0A718:  BC    A728
0A71A:  XORLW  FF
0A71C:  BNZ   A724
0A71E:  MOVF   x5D,W
0A720:  SUBLW  5E
0A722:  BC    A728
....................       AlarmaPresion=ON; 
0A724:  MOVLB  0
0A726:  BSF    xA3.1
....................    } 
....................     
....................    if(TiempoCiclo>1800 && !Fugas){//ANALIZAR BIEN ESTA ALARMA 
0A728:  MOVLB  0
0A72A:  MOVF   xA8,W
0A72C:  SUBLW  06
0A72E:  BC    A766
0A730:  XORLW  FF
0A732:  BNZ   A73A
0A734:  MOVF   xA7,W
0A736:  SUBLW  08
0A738:  BC    A766
0A73A:  BTFSC  xA3.4
0A73C:  BRA    A766
....................       if(TiempoCiclo>3600){ 
0A73E:  MOVF   xA8,W
0A740:  SUBLW  0D
0A742:  BC    A750
0A744:  XORLW  FF
0A746:  BNZ   A74E
0A748:  MOVF   xA7,W
0A74A:  SUBLW  10
0A74C:  BC    A750
....................          AlarmaTiempoProlongado=ON; 
0A74E:  BSF    x9F.0
....................       } 
....................       if(PresionPrecamara<10){ 
0A750:  MOVLB  3
0A752:  MOVF   x60,F
0A754:  BNZ   A762
0A756:  MOVF   x5F,W
0A758:  SUBLW  09
0A75A:  BNC   A762
....................          AlarmaTiempoProlongado=ON; 
0A75C:  MOVLB  0
0A75E:  BSF    x9F.0
0A760:  MOVLB  3
....................       } 
....................    }else{ 
0A762:  BRA    A768
0A764:  MOVLB  0
....................       AlarmaTiempoProlongado=OFF; 
0A766:  BCF    x9F.0
....................    } 
....................     
....................    if(Temperatura>Setpoint+4.0 && !Fugas){ 
0A768:  MOVLB  6
0A76A:  CLRF   xA9
0A76C:  MOVFF  348,6A8
0A770:  MOVLB  0
0A772:  CALL   1D3C
0A776:  BCF    FD8.1
0A778:  MOVFF  03,6AB
0A77C:  MOVFF  02,6AA
0A780:  MOVFF  01,6A9
0A784:  MOVFF  00,6A8
0A788:  MOVLB  6
0A78A:  CLRF   xAF
0A78C:  CLRF   xAE
0A78E:  CLRF   xAD
0A790:  MOVLW  81
0A792:  MOVWF  xAC
0A794:  MOVLB  0
0A796:  CALL   1ED0
0A79A:  MOVFF  03,69F
0A79E:  MOVFF  02,69E
0A7A2:  MOVFF  01,69D
0A7A6:  MOVFF  00,69C
0A7AA:  MOVFF  312,6A3
0A7AE:  MOVFF  311,6A2
0A7B2:  MOVFF  310,6A1
0A7B6:  MOVFF  30F,6A0
0A7BA:  CALL   2EBE
0A7BE:  BNC   A7C6
0A7C0:  BTFSC  xA3.4
0A7C2:  BRA    A7C6
....................       AlarmaSobreTemperatura=ON; 
0A7C4:  BSF    x9F.1
....................    } 
....................     
....................    if(tTermostato>=600){ 
0A7C6:  MOVF   xB6,W
0A7C8:  SUBLW  01
0A7CA:  BC    A7D8
0A7CC:  XORLW  FF
0A7CE:  BNZ   A7D6
0A7D0:  MOVF   xB5,W
0A7D2:  SUBLW  57
0A7D4:  BC    A7D8
....................       AlarmaTermostato=ON; 
0A7D6:  BSF    x9F.3
....................    } 
....................     
....................    if(TiempoLlenado>600){ 
0A7D8:  MOVF   xAA,W
0A7DA:  SUBLW  01
0A7DC:  BC    A7EC
0A7DE:  XORLW  FF
0A7E0:  BNZ   A7E8
0A7E2:  MOVF   xA9,W
0A7E4:  SUBLW  58
0A7E6:  BC    A7EC
....................       AlarmaLlenado=ON; 
0A7E8:  BSF    x9F.2
....................    }else{ 
0A7EA:  BRA    A7EE
....................       AlarmaLlenado=OFF; 
0A7EC:  BCF    x9F.2
....................    } 
....................     
....................    if(!DOOR){ 
0A7EE:  BSF    F93.6
0A7F0:  BTFSS  F81.6
0A7F2:  BRA    A808
....................       Paso_off; 
0A7F4:  BSF    F8B.0
0A7F6:  BCF    F94.0
....................       if(!Secando && !Finalizo && !Desfogando){ 
0A7F8:  BTFSC  xA0.4
0A7FA:  BRA    A806
0A7FC:  BTFSC  xA3.0
0A7FE:  BRA    A806
0A800:  BTFSC  xA0.6
0A802:  BRA    A806
....................          AlarmaPuerta=ON; 
0A804:  BSF    x9F.4
....................       } 
....................    }else{ 
0A806:  BRA    A80A
....................       AlarmaPuerta=OFF; 
0A808:  BCF    x9F.4
....................    } 
....................  
....................    if(tStop>=300){ 
0A80A:  MOVF   xB8,W
0A80C:  SUBLW  00
0A80E:  BC    A81C
0A810:  XORLW  FF
0A812:  BNZ   A81A
0A814:  MOVF   xB7,W
0A816:  SUBLW  2B
0A818:  BC    A81C
....................       AlarmaEmergencia=ON;          
0A81A:  BSF    x9F.5
....................    } 
....................     
....................    if(AlarmaPuerta || AlarmaTermostato || AlarmaSobreTemperatura || AlarmaTiempoProlongado || AlarmaEmergencia || AlarmaPresion || AlarmaBomba  
....................          || AlarmaVacio || AlarmaLlenado){ 
0A81C:  BTFSC  x9F.4
0A81E:  BRA    A840
0A820:  BTFSC  x9F.3
0A822:  BRA    A840
0A824:  BTFSC  x9F.1
0A826:  BRA    A840
0A828:  BTFSC  x9F.0
0A82A:  BRA    A840
0A82C:  BTFSC  x9F.5
0A82E:  BRA    A840
0A830:  BTFSC  xA3.1
0A832:  BRA    A840
0A834:  BTFSC  x9F.6
0A836:  BRA    A840
0A838:  BTFSC  x9F.7
0A83A:  BRA    A840
0A83C:  BTFSS  x9F.2
0A83E:  BRA    ADD4
....................       ActivaAlarma(1); 
0A840:  MOVLW  01
0A842:  MOVLB  6
0A844:  MOVWF  x96
0A846:  MOVLB  0
0A848:  CALL   4D3E
....................       if(AlarmaEmergencia){ 
0A84C:  BTFSS  x9F.5
0A84E:  BRA    A904
....................          codigoAlarma=1; 
0A850:  MOVLW  01
0A852:  MOVLB  3
0A854:  MOVWF  x2E
....................          printf("Funcionamiento.t4f.txt=\" Parada de Emergencia\""); 
0A856:  MOVLW  08
0A858:  MOVWF  FF6
0A85A:  MOVLW  11
0A85C:  MOVWF  FF7
0A85E:  MOVLW  00
0A860:  MOVWF  FF8
0A862:  MOVLB  0
0A864:  CALL   37BA
....................          SendDataDisplay(); 
0A868:  CALL   37EC
....................          printf("Funcionamiento.t5f.txt=\" Cancelado\""); 
0A86C:  MOVLW  38
0A86E:  MOVWF  FF6
0A870:  MOVLW  11
0A872:  MOVWF  FF7
0A874:  MOVLW  00
0A876:  MOVWF  FF8
0A878:  CALL   37BA
....................          SendDataDisplay(); 
0A87C:  CALL   37EC
....................          Desfogue_on; 
0A880:  BCF    F8B.1
0A882:  BCF    F94.1
....................          Paso_off; 
0A884:  BSF    F8B.0
0A886:  BCF    F94.0
....................          BombaVacio_off; 
0A888:  BSF    F8B.5
0A88A:  BCF    F94.5
....................          Agua_off; 
0A88C:  BSF    F8C.3
0A88E:  BCF    F95.3
....................          //EV8_off; 
....................          apagaBombaAgua(); 
0A890:  CALL   5146
....................          Vacio_off; 
0A894:  BSF    F8B.2
0A896:  BCF    F94.2
....................          SSR_off; 
0A898:  BCF    F8D.1
0A89A:  BCF    F96.1
....................          SSR2_off; 
0A89C:  BCF    F8D.2
0A89E:  BCF    F96.2
....................          if(PresionCamara<Atmosferica) 
0A8A0:  MOVLB  3
0A8A2:  MOVF   x5E,F
0A8A4:  BNZ   A8B2
0A8A6:  MOVF   x2F,W
0A8A8:  SUBWF  x5D,W
0A8AA:  BC    A8B2
....................             Aire_on; 
0A8AC:  BCF    F8C.0
0A8AE:  BCF    F95.0
....................          else 
0A8B0:  BRA    A8B6
....................             Aire_off; 
0A8B2:  BSF    F8C.0
0A8B4:  BCF    F95.0
....................          AireB_off; 
0A8B6:  BSF    F8C.1
0A8B8:  BCF    F95.1
....................          Esterilizando=OFF; 
0A8BA:  MOVLB  0
0A8BC:  BCF    xA0.3
....................          Desfogando=OFF; 
0A8BE:  BCF    xA0.6
....................          DesfogueSuave=OFF; 
0A8C0:  BCF    xA0.7
....................          IniciaCiclo=OFF; 
0A8C2:  BCF    xA0.2
....................          Controlando=0; 
0A8C4:  MOVLB  3
0A8C6:  CLRF   x39
....................          if(codigoAnt!=codigoAlarma){ 
0A8C8:  MOVF   x2E,W
0A8CA:  SUBWF  x76,W
0A8CC:  BZ    A8DE
....................             codigoAnt=codigoAlarma; 
0A8CE:  MOVFF  32E,376
....................             GuardaDatoCiclo(); 
0A8D2:  MOVLB  0
0A8D4:  CALL   599E
....................             incrementaCiclos(); 
0A8D8:  CALL   5D40
0A8DC:  MOVLB  3
....................          } 
....................          if(!flagImprimir){ 
0A8DE:  BTFSC  x36.3
0A8E0:  BRA    A900
....................             Imprime=20; 
0A8E2:  MOVLW  14
0A8E4:  MOVWF  x8D
....................             Envio_Esclavos(); 
0A8E6:  MOVLB  0
0A8E8:  CALL   4658
....................             delay_ms(100); 
0A8EC:  MOVLW  64
0A8EE:  MOVLB  6
0A8F0:  MOVWF  xA8
0A8F2:  MOVLB  0
0A8F4:  CALL   1D14
....................             Imprime=10; 
0A8F8:  MOVLW  0A
0A8FA:  MOVLB  3
0A8FC:  MOVWF  x8D
....................             flagImprimir=1; 
0A8FE:  BSF    x36.3
....................          } 
....................       }else if(AlarmaPuerta){ 
0A900:  BRA    ADCE
0A902:  MOVLB  0
0A904:  BTFSS  x9F.4
0A906:  BRA    A97E
....................          codigoAlarma=2; 
0A908:  MOVLW  02
0A90A:  MOVLB  3
0A90C:  MOVWF  x2E
....................          printf("Funcionamiento.t4f.txt=\" Puerta Abierta\""); 
0A90E:  MOVLW  5C
0A910:  MOVWF  FF6
0A912:  MOVLW  11
0A914:  MOVWF  FF7
0A916:  MOVLW  00
0A918:  MOVWF  FF8
0A91A:  MOVLB  0
0A91C:  CALL   37BA
....................          SendDataDisplay(); 
0A920:  CALL   37EC
....................          printf("Funcionamiento.t5f.txt=\" Pausado\""); 
0A924:  MOVLW  86
0A926:  MOVWF  FF6
0A928:  MOVLW  11
0A92A:  MOVWF  FF7
0A92C:  MOVLW  00
0A92E:  MOVWF  FF8
0A930:  CALL   37BA
....................          SendDataDisplay(); 
0A934:  CALL   37EC
....................          Aire_off; 
0A938:  BSF    F8C.0
0A93A:  BCF    F95.0
....................          AireB_off; 
0A93C:  BSF    F8C.1
0A93E:  BCF    F95.1
....................          Desfogue_off; 
0A940:  BSF    F8B.1
0A942:  BCF    F94.1
....................          Paso_off; 
0A944:  BSF    F8B.0
0A946:  BCF    F94.0
....................          BombaVacio_off; 
0A948:  BSF    F8B.5
0A94A:  BCF    F94.5
....................          Agua_off; 
0A94C:  BSF    F8C.3
0A94E:  BCF    F95.3
....................          apagaBombaAgua(); 
0A950:  CALL   5146
....................          //EV8_off; 
....................          Vacio_off; 
0A954:  BSF    F8B.2
0A956:  BCF    F94.2
....................          SSR_off; 
0A958:  BCF    F8D.1
0A95A:  BCF    F96.1
....................          SSR2_off; 
0A95C:  BCF    F8D.2
0A95E:  BCF    F96.2
....................          IniciaLlenado=OFF; 
0A960:  BCF    xA0.0
....................          IniciaCiclo=OFF; 
0A962:  BCF    xA0.2
....................          Controlando=0; 
0A964:  MOVLB  3
0A966:  CLRF   x39
....................          if(codigoAnt!=codigoAlarma){ 
0A968:  MOVF   x2E,W
0A96A:  SUBWF  x76,W
0A96C:  BZ    A97A
....................             codigoAnt=codigoAlarma; 
0A96E:  MOVFF  32E,376
....................             GuardaDatoCiclo(); 
0A972:  MOVLB  0
0A974:  CALL   599E
0A978:  MOVLB  3
....................          } 
....................          /*if(!flagImprimir && ActivaImpresion==1){ 
....................             Imprime=20; 
....................             Envio_Esclavos(); 
....................             delay_ms(100); 
....................             Imprime=10; 
....................             flagImprimir=1; 
....................          }*/ 
....................       }else if(AlarmaLlenado){ 
0A97A:  BRA    ADCE
0A97C:  MOVLB  0
0A97E:  BTFSS  x9F.2
0A980:  BRA    AA02
....................             printf("Funcionamiento.t4f.txt=\" Tiempo Llenado\""); 
0A982:  MOVLW  A8
0A984:  MOVWF  FF6
0A986:  MOVLW  11
0A988:  MOVWF  FF7
0A98A:  MOVLW  00
0A98C:  MOVWF  FF8
0A98E:  CALL   37BA
....................             SendDataDisplay(); 
0A992:  CALL   37EC
....................             printf("Funcionamiento.t5f.txt=\" Cancelado\""); 
0A996:  MOVLW  D2
0A998:  MOVWF  FF6
0A99A:  MOVLW  11
0A99C:  MOVWF  FF7
0A99E:  MOVLW  00
0A9A0:  MOVWF  FF8
0A9A2:  CALL   37BA
....................             SendDataDisplay(); 
0A9A6:  CALL   37EC
....................             Aire_off; 
0A9AA:  BSF    F8C.0
0A9AC:  BCF    F95.0
....................             AireB_off; 
0A9AE:  BSF    F8C.1
0A9B0:  BCF    F95.1
....................             Desfogue_off; 
0A9B2:  BSF    F8B.1
0A9B4:  BCF    F94.1
....................             Paso_off; 
0A9B6:  BSF    F8B.0
0A9B8:  BCF    F94.0
....................             BombaVacio_off; 
0A9BA:  BSF    F8B.5
0A9BC:  BCF    F94.5
....................             Agua_off; 
0A9BE:  BSF    F8C.3
0A9C0:  BCF    F95.3
....................             //EV8_off; 
....................             apagaBombaAgua(); 
0A9C2:  CALL   5146
....................             Vacio_off; 
0A9C6:  BSF    F8B.2
0A9C8:  BCF    F94.2
....................             SSR_off; 
0A9CA:  BCF    F8D.1
0A9CC:  BCF    F96.1
....................             SSR2_off; 
0A9CE:  BCF    F8D.2
0A9D0:  BCF    F96.2
....................             IniciaLlenado=OFF; 
0A9D2:  BCF    xA0.0
....................             IniciaCiclo=OFF; 
0A9D4:  BCF    xA0.2
....................             Esterilizando=OFF; 
0A9D6:  BCF    xA0.3
....................             Controlando=0; 
0A9D8:  MOVLB  3
0A9DA:  CLRF   x39
....................             if(!flagImprimir){ 
0A9DC:  BTFSC  x36.3
0A9DE:  BRA    A9FE
....................                Imprime=21; 
0A9E0:  MOVLW  15
0A9E2:  MOVWF  x8D
....................                Envio_Esclavos(); 
0A9E4:  MOVLB  0
0A9E6:  CALL   4658
....................                delay_ms(100); 
0A9EA:  MOVLW  64
0A9EC:  MOVLB  6
0A9EE:  MOVWF  xA8
0A9F0:  MOVLB  0
0A9F2:  CALL   1D14
....................                Imprime=10; 
0A9F6:  MOVLW  0A
0A9F8:  MOVLB  3
0A9FA:  MOVWF  x8D
....................                flagImprimir=1; 
0A9FC:  BSF    x36.3
....................             } 
....................       }else if(AlarmaTermostato){ 
0A9FE:  BRA    ADCE
0AA00:  MOVLB  0
0AA02:  BTFSS  x9F.3
0AA04:  BRA    AAA8
....................          codigoAlarma=3; 
0AA06:  MOVLW  03
0AA08:  MOVLB  3
0AA0A:  MOVWF  x2E
....................          tiempo_esterilizacion=0;tiempo_secado=0;          
0AA0C:  CLRF   x4B
0AA0E:  CLRF   x4C
....................          printf("Funcionamiento.t4f.txt=\" Termostato\""); 
0AA10:  MOVLW  F6
0AA12:  MOVWF  FF6
0AA14:  MOVLW  11
0AA16:  MOVWF  FF7
0AA18:  MOVLW  00
0AA1A:  MOVWF  FF8
0AA1C:  MOVLB  0
0AA1E:  CALL   37BA
....................          SendDataDisplay(); 
0AA22:  CALL   37EC
....................          printf("Funcionamiento.t5f.txt=\" Cancelado\""); 
0AA26:  MOVLW  1C
0AA28:  MOVWF  FF6
0AA2A:  MOVLW  12
0AA2C:  MOVWF  FF7
0AA2E:  MOVLW  00
0AA30:  MOVWF  FF8
0AA32:  CALL   37BA
....................          SendDataDisplay(); 
0AA36:  CALL   37EC
....................          Aire_off; 
0AA3A:  BSF    F8C.0
0AA3C:  BCF    F95.0
....................          AireB_off; 
0AA3E:  BSF    F8C.1
0AA40:  BCF    F95.1
....................          Desfogue_on; 
0AA42:  BCF    F8B.1
0AA44:  BCF    F94.1
....................          Paso_off; 
0AA46:  BSF    F8B.0
0AA48:  BCF    F94.0
....................          BombaVacio_off; 
0AA4A:  BSF    F8B.5
0AA4C:  BCF    F94.5
....................          Agua_off; 
0AA4E:  BSF    F8C.3
0AA50:  BCF    F95.3
....................          //EV8_off; 
....................          apagaBombaAgua(); 
0AA52:  CALL   5146
....................          Vacio_off; 
0AA56:  BSF    F8B.2
0AA58:  BCF    F94.2
....................          SSR_off; 
0AA5A:  BCF    F8D.1
0AA5C:  BCF    F96.1
....................          SSR2_off; 
0AA5E:  BCF    F8D.2
0AA60:  BCF    F96.2
....................          Esterilizando=OFF; 
0AA62:  BCF    xA0.3
....................          Desfogando=OFF; 
0AA64:  BCF    xA0.6
....................          IniciaCiclo=OFF; 
0AA66:  BCF    xA0.2
....................          Controlando=0; 
0AA68:  MOVLB  3
0AA6A:  CLRF   x39
....................          if(codigoAnt!=codigoAlarma){ 
0AA6C:  MOVF   x2E,W
0AA6E:  SUBWF  x76,W
0AA70:  BZ    AA82
....................             codigoAnt=codigoAlarma; 
0AA72:  MOVFF  32E,376
....................             GuardaDatoCiclo(); 
0AA76:  MOVLB  0
0AA78:  CALL   599E
....................             incrementaCiclos(); 
0AA7C:  CALL   5D40
0AA80:  MOVLB  3
....................          } 
....................          if(!flagImprimir){ 
0AA82:  BTFSC  x36.3
0AA84:  BRA    AAA4
....................             Imprime=22; 
0AA86:  MOVLW  16
0AA88:  MOVWF  x8D
....................             Envio_Esclavos(); 
0AA8A:  MOVLB  0
0AA8C:  CALL   4658
....................             delay_ms(100); 
0AA90:  MOVLW  64
0AA92:  MOVLB  6
0AA94:  MOVWF  xA8
0AA96:  MOVLB  0
0AA98:  CALL   1D14
....................             Imprime=10; 
0AA9C:  MOVLW  0A
0AA9E:  MOVLB  3
0AAA0:  MOVWF  x8D
....................             flagImprimir=1; 
0AAA2:  BSF    x36.3
....................          } 
....................       }else if(AlarmaSobreTemperatura){                   
0AAA4:  BRA    ADCE
0AAA6:  MOVLB  0
0AAA8:  BTFSS  x9F.1
0AAAA:  BRA    AB48
....................          codigoAlarma=4; 
0AAAC:  MOVLW  04
0AAAE:  MOVLB  3
0AAB0:  MOVWF  x2E
....................          tiempo_esterilizacion=0;tiempo_secado=0;          
0AAB2:  CLRF   x4B
0AAB4:  CLRF   x4C
....................          printf("Funcionamiento.t4f.txt=\" Sobretemperatura\""); 
0AAB6:  MOVLW  40
0AAB8:  MOVWF  FF6
0AABA:  MOVLW  12
0AABC:  MOVWF  FF7
0AABE:  MOVLW  00
0AAC0:  MOVWF  FF8
0AAC2:  MOVLB  0
0AAC4:  CALL   37BA
....................          SendDataDisplay(); 
0AAC8:  CALL   37EC
....................          printf("Funcionamiento.t5f.txt=\" Cancelado\""); 
0AACC:  MOVLW  6C
0AACE:  MOVWF  FF6
0AAD0:  MOVLW  12
0AAD2:  MOVWF  FF7
0AAD4:  MOVLW  00
0AAD6:  MOVWF  FF8
0AAD8:  CALL   37BA
....................          SendDataDisplay();   
0AADC:  CALL   37EC
....................          Aire_off; 
0AAE0:  BSF    F8C.0
0AAE2:  BCF    F95.0
....................          AireB_off; 
0AAE4:  BSF    F8C.1
0AAE6:  BCF    F95.1
....................          Desfogue_on; 
0AAE8:  BCF    F8B.1
0AAEA:  BCF    F94.1
....................          Paso_off; 
0AAEC:  BSF    F8B.0
0AAEE:  BCF    F94.0
....................          BombaVacio_off; 
0AAF0:  BSF    F8B.5
0AAF2:  BCF    F94.5
....................          Agua_off; 
0AAF4:  BSF    F8C.3
0AAF6:  BCF    F95.3
....................          //EV8_off; 
....................          apagaBombaAgua(); 
0AAF8:  CALL   5146
....................          Vacio_off; 
0AAFC:  BSF    F8B.2
0AAFE:  BCF    F94.2
....................          SSR_off; 
0AB00:  BCF    F8D.1
0AB02:  BCF    F96.1
....................          SSR2_off; 
0AB04:  BCF    F8D.2
0AB06:  BCF    F96.2
....................          Controlando=0; 
0AB08:  MOVLB  3
0AB0A:  CLRF   x39
....................          if(codigoAnt!=codigoAlarma){ 
0AB0C:  MOVF   x2E,W
0AB0E:  SUBWF  x76,W
0AB10:  BZ    AB22
....................             codigoAnt=codigoAlarma; 
0AB12:  MOVFF  32E,376
....................             GuardaDatoCiclo(); 
0AB16:  MOVLB  0
0AB18:  CALL   599E
....................             incrementaCiclos(); 
0AB1C:  CALL   5D40
0AB20:  MOVLB  3
....................          } 
....................          if(!flagImprimir){ 
0AB22:  BTFSC  x36.3
0AB24:  BRA    AB44
....................             Imprime=23; 
0AB26:  MOVLW  17
0AB28:  MOVWF  x8D
....................             Envio_Esclavos(); 
0AB2A:  MOVLB  0
0AB2C:  CALL   4658
....................             delay_ms(100); 
0AB30:  MOVLW  64
0AB32:  MOVLB  6
0AB34:  MOVWF  xA8
0AB36:  MOVLB  0
0AB38:  CALL   1D14
....................             Imprime=10; 
0AB3C:  MOVLW  0A
0AB3E:  MOVLB  3
0AB40:  MOVWF  x8D
....................             flagImprimir=1; 
0AB42:  BSF    x36.3
....................          } 
....................       }else if(AlarmaTiempoProlongado){ 
0AB44:  BRA    ADCE
0AB46:  MOVLB  0
0AB48:  BTFSS  x9F.0
0AB4A:  BRA    ABE4
....................          codigoAlarma=5; 
0AB4C:  MOVLW  05
0AB4E:  MOVLB  3
0AB50:  MOVWF  x2E
....................          printf("Funcionamiento.t4f.txt=\" Tiempo Prolongado\""); 
0AB52:  MOVLW  90
0AB54:  MOVWF  FF6
0AB56:  MOVLW  12
0AB58:  MOVWF  FF7
0AB5A:  MOVLW  00
0AB5C:  MOVWF  FF8
0AB5E:  MOVLB  0
0AB60:  CALL   37BA
....................          SendDataDisplay(); 
0AB64:  CALL   37EC
....................          printf("Funcionamiento.t5f.txt=\" Cancelado\""); 
0AB68:  MOVLW  BC
0AB6A:  MOVWF  FF6
0AB6C:  MOVLW  12
0AB6E:  MOVWF  FF7
0AB70:  MOVLW  00
0AB72:  MOVWF  FF8
0AB74:  CALL   37BA
....................          SendDataDisplay(); 
0AB78:  CALL   37EC
....................          Aire_off; 
0AB7C:  BSF    F8C.0
0AB7E:  BCF    F95.0
....................          AireB_off; 
0AB80:  BSF    F8C.1
0AB82:  BCF    F95.1
....................          Desfogue_on; 
0AB84:  BCF    F8B.1
0AB86:  BCF    F94.1
....................          Paso_off; 
0AB88:  BSF    F8B.0
0AB8A:  BCF    F94.0
....................          BombaVacio_off; 
0AB8C:  BSF    F8B.5
0AB8E:  BCF    F94.5
....................          Agua_off; 
0AB90:  BSF    F8C.3
0AB92:  BCF    F95.3
....................          //EV8_off; 
....................          apagaBombaAgua(); 
0AB94:  CALL   5146
....................          Vacio_off; 
0AB98:  BSF    F8B.2
0AB9A:  BCF    F94.2
....................          SSR_off; 
0AB9C:  BCF    F8D.1
0AB9E:  BCF    F96.1
....................          SSR2_off; 
0ABA0:  BCF    F8D.2
0ABA2:  BCF    F96.2
....................          Controlando=0; 
0ABA4:  MOVLB  3
0ABA6:  CLRF   x39
....................          if(codigoAnt!=codigoAlarma){ 
0ABA8:  MOVF   x2E,W
0ABAA:  SUBWF  x76,W
0ABAC:  BZ    ABBE
....................             codigoAnt=codigoAlarma; 
0ABAE:  MOVFF  32E,376
....................             GuardaDatoCiclo(); 
0ABB2:  MOVLB  0
0ABB4:  CALL   599E
....................             incrementaCiclos(); 
0ABB8:  CALL   5D40
0ABBC:  MOVLB  3
....................          } 
....................          if(!flagImprimir){ 
0ABBE:  BTFSC  x36.3
0ABC0:  BRA    ABE0
....................             Imprime=24; 
0ABC2:  MOVLW  18
0ABC4:  MOVWF  x8D
....................             Envio_Esclavos(); 
0ABC6:  MOVLB  0
0ABC8:  CALL   4658
....................             delay_ms(100); 
0ABCC:  MOVLW  64
0ABCE:  MOVLB  6
0ABD0:  MOVWF  xA8
0ABD2:  MOVLB  0
0ABD4:  CALL   1D14
....................             Imprime=10; 
0ABD8:  MOVLW  0A
0ABDA:  MOVLB  3
0ABDC:  MOVWF  x8D
....................             flagImprimir=1; 
0ABDE:  BSF    x36.3
....................          } 
....................       }else if(AlarmaPresion){ // Alarma de Error de SobrePresion: Error por exceso de Presion. 
0ABE0:  BRA    ADCE
0ABE2:  MOVLB  0
0ABE4:  BTFSS  xA3.1
0ABE6:  BRA    AC9A
....................          codigoAlarma=6; 
0ABE8:  MOVLW  06
0ABEA:  MOVLB  3
0ABEC:  MOVWF  x2E
....................          printf("Funcionamiento.t4f.txt=\" SobrePresion\""); 
0ABEE:  MOVLW  E0
0ABF0:  MOVWF  FF6
0ABF2:  MOVLW  12
0ABF4:  MOVWF  FF7
0ABF6:  MOVLW  00
0ABF8:  MOVWF  FF8
0ABFA:  MOVLB  0
0ABFC:  CALL   37BA
....................          SendDataDisplay(); 
0AC00:  CALL   37EC
....................          printf("Funcionamiento.t5f.txt=\" Cancelado\""); 
0AC04:  MOVLW  08
0AC06:  MOVWF  FF6
0AC08:  MOVLW  13
0AC0A:  MOVWF  FF7
0AC0C:  MOVLW  00
0AC0E:  MOVWF  FF8
0AC10:  CALL   37BA
....................          SendDataDisplay(); 
0AC14:  CALL   37EC
....................          Aire_off; 
0AC18:  BSF    F8C.0
0AC1A:  BCF    F95.0
....................          AireB_off; 
0AC1C:  BSF    F8C.1
0AC1E:  BCF    F95.1
....................          Desfogue_on; 
0AC20:  BCF    F8B.1
0AC22:  BCF    F94.1
....................          BombaVacio_off; 
0AC24:  BSF    F8B.5
0AC26:  BCF    F94.5
....................          Agua_off; 
0AC28:  BSF    F8C.3
0AC2A:  BCF    F95.3
....................          //EV8_off; 
....................          apagaBombaAgua(); 
0AC2C:  CALL   5146
....................          Vacio_off; 
0AC30:  BSF    F8B.2
0AC32:  BCF    F94.2
....................          SSR_off; 
0AC34:  BCF    F8D.1
0AC36:  BCF    F96.1
....................          SSR2_off; 
0AC38:  BCF    F8D.2
0AC3A:  BCF    F96.2
....................          if(PresionCamara>(Atmosferica+4) && DOOR) 
0AC3C:  MOVLW  04
0AC3E:  MOVLB  3
0AC40:  ADDWF  x2F,W
0AC42:  MOVF   x5E,F
0AC44:  BNZ   AC4C
0AC46:  SUBWF  x5D,W
0AC48:  BZ    AC58
0AC4A:  BNC   AC58
0AC4C:  BSF    F93.6
0AC4E:  BTFSC  F81.6
0AC50:  BRA    AC58
....................             Paso_on; 
0AC52:  BCF    F8B.0
0AC54:  BCF    F94.0
....................          else 
0AC56:  BRA    AC5C
....................             Paso_off; 
0AC58:  BSF    F8B.0
0AC5A:  BCF    F94.0
....................          Controlando=0; 
0AC5C:  CLRF   x39
....................          if(codigoAnt!=codigoAlarma){ 
0AC5E:  MOVF   x2E,W
0AC60:  SUBWF  x76,W
0AC62:  BZ    AC74
....................             codigoAnt=codigoAlarma; 
0AC64:  MOVFF  32E,376
....................             GuardaDatoCiclo(); 
0AC68:  MOVLB  0
0AC6A:  CALL   599E
....................             incrementaCiclos(); 
0AC6E:  CALL   5D40
0AC72:  MOVLB  3
....................          } 
....................          if(!flagImprimir){ 
0AC74:  BTFSC  x36.3
0AC76:  BRA    AC96
....................             Imprime=25; 
0AC78:  MOVLW  19
0AC7A:  MOVWF  x8D
....................             Envio_Esclavos(); 
0AC7C:  MOVLB  0
0AC7E:  CALL   4658
....................             delay_ms(100); 
0AC82:  MOVLW  64
0AC84:  MOVLB  6
0AC86:  MOVWF  xA8
0AC88:  MOVLB  0
0AC8A:  CALL   1D14
....................             Imprime=10; 
0AC8E:  MOVLW  0A
0AC90:  MOVLB  3
0AC92:  MOVWF  x8D
....................             flagImprimir=1; 
0AC94:  BSF    x36.3
....................          } 
....................       }else if(AlarmaBomba){ // Alarma de Error de que bomba no ha arrancado. 
0AC96:  BRA    ADCE
0AC98:  MOVLB  0
0AC9A:  BTFSS  x9F.6
0AC9C:  BRA    AD36
....................          codigoAlarma=7; 
0AC9E:  MOVLW  07
0ACA0:  MOVLB  3
0ACA2:  MOVWF  x2E
....................          printf("Funcionamiento.t4f.txt=\" Error Bomba\""); 
0ACA4:  MOVLW  2C
0ACA6:  MOVWF  FF6
0ACA8:  MOVLW  13
0ACAA:  MOVWF  FF7
0ACAC:  MOVLW  00
0ACAE:  MOVWF  FF8
0ACB0:  MOVLB  0
0ACB2:  CALL   37BA
....................          SendDataDisplay(); 
0ACB6:  CALL   37EC
....................          printf("Funcionamiento.t5f.txt=\" Cancelado\""); 
0ACBA:  MOVLW  52
0ACBC:  MOVWF  FF6
0ACBE:  MOVLW  13
0ACC0:  MOVWF  FF7
0ACC2:  MOVLW  00
0ACC4:  MOVWF  FF8
0ACC6:  CALL   37BA
....................          SendDataDisplay(); 
0ACCA:  CALL   37EC
....................          Aire_off; 
0ACCE:  BSF    F8C.0
0ACD0:  BCF    F95.0
....................          AireB_off; 
0ACD2:  BSF    F8C.1
0ACD4:  BCF    F95.1
....................          Desfogue_off; 
0ACD6:  BSF    F8B.1
0ACD8:  BCF    F94.1
....................          Paso_off; 
0ACDA:  BSF    F8B.0
0ACDC:  BCF    F94.0
....................          BombaVacio_off; 
0ACDE:  BSF    F8B.5
0ACE0:  BCF    F94.5
....................          Agua_off; 
0ACE2:  BSF    F8C.3
0ACE4:  BCF    F95.3
....................          //EV8_off; 
....................          apagaBombaAgua(); 
0ACE6:  CALL   5146
....................          Vacio_off; 
0ACEA:  BSF    F8B.2
0ACEC:  BCF    F94.2
....................          SSR_off; 
0ACEE:  BCF    F8D.1
0ACF0:  BCF    F96.1
....................          SSR2_off; 
0ACF2:  BCF    F8D.2
0ACF4:  BCF    F96.2
....................          Controlando=0; 
0ACF6:  MOVLB  3
0ACF8:  CLRF   x39
....................          if(codigoAnt!=codigoAlarma){ 
0ACFA:  MOVF   x2E,W
0ACFC:  SUBWF  x76,W
0ACFE:  BZ    AD10
....................             codigoAnt=codigoAlarma; 
0AD00:  MOVFF  32E,376
....................             GuardaDatoCiclo(); 
0AD04:  MOVLB  0
0AD06:  CALL   599E
....................             incrementaCiclos(); 
0AD0A:  CALL   5D40
0AD0E:  MOVLB  3
....................          } 
....................          if(!flagImprimir){ 
0AD10:  BTFSC  x36.3
0AD12:  BRA    AD32
....................             Imprime=26; 
0AD14:  MOVLW  1A
0AD16:  MOVWF  x8D
....................             Envio_Esclavos(); 
0AD18:  MOVLB  0
0AD1A:  CALL   4658
....................             delay_ms(100); 
0AD1E:  MOVLW  64
0AD20:  MOVLB  6
0AD22:  MOVWF  xA8
0AD24:  MOVLB  0
0AD26:  CALL   1D14
....................             Imprime=10; 
0AD2A:  MOVLW  0A
0AD2C:  MOVLB  3
0AD2E:  MOVWF  x8D
....................             flagImprimir=1; 
0AD30:  BSF    x36.3
....................          } 
....................       }else if(AlarmaVacio){ // Alarma de Error de que genera el Vacio en el tiempo estipulado. 
0AD32:  BRA    ADCE
0AD34:  MOVLB  0
0AD36:  BTFSS  x9F.7
0AD38:  BRA    ADD0
....................          codigoAlarma=8; 
0AD3A:  MOVLW  08
0AD3C:  MOVLB  3
0AD3E:  MOVWF  x2E
....................          printf("Funcionamiento.t4f.txt=\" Error Vacio\""); 
0AD40:  MOVLW  76
0AD42:  MOVWF  FF6
0AD44:  MOVLW  13
0AD46:  MOVWF  FF7
0AD48:  MOVLW  00
0AD4A:  MOVWF  FF8
0AD4C:  MOVLB  0
0AD4E:  CALL   37BA
....................          SendDataDisplay(); 
0AD52:  CALL   37EC
....................          printf("Funcionamiento.t5f.txt=\" Cancelado\""); 
0AD56:  MOVLW  9C
0AD58:  MOVWF  FF6
0AD5A:  MOVLW  13
0AD5C:  MOVWF  FF7
0AD5E:  MOVLW  00
0AD60:  MOVWF  FF8
0AD62:  CALL   37BA
....................          SendDataDisplay(); 
0AD66:  CALL   37EC
....................          Aire_off; 
0AD6A:  BSF    F8C.0
0AD6C:  BCF    F95.0
....................          AireB_off; 
0AD6E:  BSF    F8C.1
0AD70:  BCF    F95.1
....................          Desfogue_off; 
0AD72:  BSF    F8B.1
0AD74:  BCF    F94.1
....................          Paso_off; 
0AD76:  BSF    F8B.0
0AD78:  BCF    F94.0
....................          BombaVacio_off; 
0AD7A:  BSF    F8B.5
0AD7C:  BCF    F94.5
....................          Agua_off; 
0AD7E:  BSF    F8C.3
0AD80:  BCF    F95.3
....................          //EV8_off; 
....................          apagaBombaAgua(); 
0AD82:  CALL   5146
....................          Vacio_off; 
0AD86:  BSF    F8B.2
0AD88:  BCF    F94.2
....................          SSR_off; 
0AD8A:  BCF    F8D.1
0AD8C:  BCF    F96.1
....................          SSR2_off; 
0AD8E:  BCF    F8D.2
0AD90:  BCF    F96.2
....................          Controlando=0; 
0AD92:  MOVLB  3
0AD94:  CLRF   x39
....................          if(codigoAnt!=codigoAlarma){ 
0AD96:  MOVF   x2E,W
0AD98:  SUBWF  x76,W
0AD9A:  BZ    ADAC
....................             codigoAnt=codigoAlarma; 
0AD9C:  MOVFF  32E,376
....................             GuardaDatoCiclo(); 
0ADA0:  MOVLB  0
0ADA2:  CALL   599E
....................             incrementaCiclos(); 
0ADA6:  CALL   5D40
0ADAA:  MOVLB  3
....................          } 
....................          if(!flagImprimir){ 
0ADAC:  BTFSC  x36.3
0ADAE:  BRA    ADCE
....................             Imprime=27; 
0ADB0:  MOVLW  1B
0ADB2:  MOVWF  x8D
....................             Envio_Esclavos(); 
0ADB4:  MOVLB  0
0ADB6:  CALL   4658
....................             delay_ms(100); 
0ADBA:  MOVLW  64
0ADBC:  MOVLB  6
0ADBE:  MOVWF  xA8
0ADC0:  MOVLB  0
0ADC2:  CALL   1D14
....................             Imprime=10; 
0ADC6:  MOVLW  0A
0ADC8:  MOVLB  3
0ADCA:  MOVWF  x8D
....................             flagImprimir=1; 
0ADCC:  BSF    x36.3
0ADCE:  MOVLB  0
....................          } 
....................       } 
....................    }else{ 
0ADD0:  GOTO   B9D4
....................       if(!Fugas){//Si selecciono un ciclo diferente al test de fugas 
0ADD4:  BTFSC  xA3.4
0ADD6:  GOTO   B64A
....................          Buzzer_off; 
0ADDA:  BCF    F8C.7
0ADDC:  BCF    F95.7
....................          IniciaCiclo=ON; 
0ADDE:  BSF    xA0.2
....................        
....................       if(flagImprime){ 
0ADE0:  MOVLB  3
0ADE2:  BTFSS  x36.2
0ADE4:  BRA    AE04
....................          Imprime=5; 
0ADE6:  MOVLW  05
0ADE8:  MOVWF  x8D
....................          Envio_Esclavos(); 
0ADEA:  MOVLB  0
0ADEC:  CALL   4658
....................          delay_ms(100); 
0ADF0:  MOVLW  64
0ADF2:  MOVLB  6
0ADF4:  MOVWF  xA8
0ADF6:  MOVLB  0
0ADF8:  CALL   1D14
....................          Imprime=10; 
0ADFC:  MOVLW  0A
0ADFE:  MOVLB  3
0AE00:  MOVWF  x8D
....................          flagImprime=0; 
0AE02:  BCF    x36.2
....................       } 
....................         
....................       if(!CalderinLleno){ 
0AE04:  MOVLB  0
0AE06:  BTFSC  xA0.1
0AE08:  BRA    AE98
....................          if(LRES){ 
0AE0A:  BSF    F93.7
0AE0C:  BTFSC  F81.7
0AE0E:  BRA    AE42
....................             printf("Funcionamiento.t4f.txt=\" Ninguna\""); 
0AE10:  MOVLW  C0
0AE12:  MOVWF  FF6
0AE14:  MOVLW  13
0AE16:  MOVWF  FF7
0AE18:  MOVLW  00
0AE1A:  MOVWF  FF8
0AE1C:  CALL   37BA
....................             SendDataDisplay(); 
0AE20:  CALL   37EC
....................             printf("Funcionamiento.t5f.txt=\" Llenado Generador\""); 
0AE24:  MOVLW  E2
0AE26:  MOVWF  FF6
0AE28:  MOVLW  13
0AE2A:  MOVWF  FF7
0AE2C:  MOVLW  00
0AE2E:  MOVWF  FF8
0AE30:  CALL   37BA
....................             SendDataDisplay(); 
0AE34:  CALL   37EC
....................             Agua_on; 
0AE38:  BCF    F8C.3
0AE3A:  BCF    F95.3
....................             //EV8_on; 
....................             enciendeBombaAgua(); 
0AE3C:  CALL   5116
....................          }else{ 
0AE40:  BRA    AE72
....................             printf("Funcionamiento.t4f.txt=\" Reservorio Vacio\""); 
0AE42:  MOVLW  0E
0AE44:  MOVWF  FF6
0AE46:  MOVLW  14
0AE48:  MOVWF  FF7
0AE4A:  MOVLW  00
0AE4C:  MOVWF  FF8
0AE4E:  CALL   37BA
....................             SendDataDisplay(); 
0AE52:  CALL   37EC
....................             printf("Funcionamiento.t5f.txt=\" Llenado Generador\""); 
0AE56:  MOVLW  3A
0AE58:  MOVWF  FF6
0AE5A:  MOVLW  14
0AE5C:  MOVWF  FF7
0AE5E:  MOVLW  00
0AE60:  MOVWF  FF8
0AE62:  CALL   37BA
....................             SendDataDisplay(); 
0AE66:  CALL   37EC
....................             Agua_off; 
0AE6A:  BSF    F8C.3
0AE6C:  BCF    F95.3
....................             //EV8_off; 
....................             apagaBombaAgua(); 
0AE6E:  CALL   5146
....................          } 
....................          Control=0; 
0AE72:  MOVLB  3
0AE74:  CLRF   x37
....................          IniciaLlenado=ON; 
0AE76:  MOVLB  0
0AE78:  BSF    xA0.0
....................          Controlando=0; 
0AE7A:  MOVLB  3
0AE7C:  CLRF   x39
....................          Desfogue_on; 
0AE7E:  BCF    F8B.1
0AE80:  BCF    F94.1
....................          Paso_on; 
0AE82:  BCF    F8B.0
0AE84:  BCF    F94.0
....................          Aire_off; 
0AE86:  BSF    F8C.0
0AE88:  BCF    F95.0
....................          AireB_off;  
0AE8A:  BSF    F8C.1
0AE8C:  BCF    F95.1
....................          SSR2_on; 
0AE8E:  BSF    F8D.2
0AE90:  BCF    F96.2
....................       }else if(!Precalentamiento){ 
0AE92:  GOTO   B646
0AE96:  MOVLB  0
0AE98:  BTFSC  xA3.7
0AE9A:  BRA    AF10
....................          printf("Funcionamiento.t4f.txt=\" Ninguna\""); 
0AE9C:  MOVLW  66
0AE9E:  MOVWF  FF6
0AEA0:  MOVLW  14
0AEA2:  MOVWF  FF7
0AEA4:  MOVLW  00
0AEA6:  MOVWF  FF8
0AEA8:  CALL   37BA
....................          SendDataDisplay(); 
0AEAC:  CALL   37EC
....................          printf("Funcionamiento.t5f.txt=\" PreCalentando\""); 
0AEB0:  MOVLW  88
0AEB2:  MOVWF  FF6
0AEB4:  MOVLW  14
0AEB6:  MOVWF  FF7
0AEB8:  MOVLW  00
0AEBA:  MOVWF  FF8
0AEBC:  CALL   37BA
....................          SendDataDisplay(); 
0AEC0:  CALL   37EC
....................          ControlaPresion();  
0AEC4:  CALL   5DCC
....................          Control=0; 
0AEC8:  MOVLB  3
0AECA:  CLRF   x37
....................          IniciaVacio=OFF; 
0AECC:  MOVLB  0
0AECE:  BCF    xA4.0
....................          IniciaVacio2=OFF; 
0AED0:  BCF    xA4.1
....................          codigoAlarma=10; 
0AED2:  MOVLW  0A
0AED4:  MOVLB  3
0AED6:  MOVWF  x2E
....................          if(codigoAnt!=codigoAlarma){ 
0AED8:  MOVF   x2E,W
0AEDA:  SUBWF  x76,W
0AEDC:  BZ    AEEA
....................             codigoAnt=codigoAlarma; 
0AEDE:  MOVFF  32E,376
....................             GuardaDatoCiclo(); 
0AEE2:  MOVLB  0
0AEE4:  CALL   599E
0AEE8:  MOVLB  3
....................          } 
....................          Desfogue_off; 
0AEEA:  BSF    F8B.1
0AEEC:  BCF    F94.1
....................          Agua_off; 
0AEEE:  BSF    F8C.3
0AEF0:  BCF    F95.3
....................          //EV8_off; 
....................          apagaBombaAgua(); 
0AEF2:  MOVLB  0
0AEF4:  CALL   5146
....................          Paso_off; 
0AEF8:  BSF    F8B.0
0AEFA:  BCF    F94.0
....................          SSR2_on; 
0AEFC:  BSF    F8D.2
0AEFE:  BCF    F96.2
....................          Desfogue_off; 
0AF00:  BSF    F8B.1
0AF02:  BCF    F94.1
....................          Aire_off; 
0AF04:  BSF    F8C.0
0AF06:  BCF    F95.0
....................          AireB_off;               
0AF08:  BSF    F8C.1
0AF0A:  BCF    F95.1
....................       }else{ 
0AF0C:  GOTO   B644
....................          if(!Vacio){ //Si no ha realizado los pulsos de vacio  
0AF10:  BTFSC  xA4.2
0AF12:  BRA    B0BC
....................             codigoAlarma=11; 
0AF14:  MOVLW  0B
0AF16:  MOVLB  3
0AF18:  MOVWF  x2E
....................             ControlaPresion(); 
0AF1A:  MOVLB  0
0AF1C:  CALL   5DCC
....................             IniciaVacio=ON; 
0AF20:  BSF    xA4.0
....................              
....................             if(codigoAnt!=codigoAlarma){ 
0AF22:  MOVLB  3
0AF24:  MOVF   x2E,W
0AF26:  SUBWF  x76,W
0AF28:  BZ    AF34
....................                codigoAnt=codigoAlarma; 
0AF2A:  MOVFF  32E,376
....................                GuardaDatoCiclo();                
0AF2E:  MOVLB  0
0AF30:  CALL   599E
....................             } 
....................             if(!flag_vac){//Ciclo inicial para purga de Bomba 
0AF34:  MOVLB  0
0AF36:  BTFSC  xA4.3
0AF38:  BRA    AF48
....................                flag_vac=ON; 
0AF3A:  BSF    xA4.3
....................                purgaBomba(); 
0AF3C:  CALL   50D2
....................                IniciaVacio2=ON; 
0AF40:  BSF    xA4.1
....................                PulsoPositivo=10; //Prueba para ver rendimiento de bomba de vacio************ 
0AF42:  MOVLW  0A
0AF44:  MOVLB  3
0AF46:  MOVWF  x77
....................             } 
....................                 
....................             if(PresionCamara>NivelVacio && PulsoPositivo==10){//Pulso Negativo 
0AF48:  MOVLB  3
0AF4A:  MOVF   x5E,F
0AF4C:  BNZ   AF54
0AF4E:  MOVF   x5D,W
0AF50:  SUBWF  x2B,W
0AF52:  BC    AFD0
0AF54:  MOVF   x77,W
0AF56:  SUBLW  0A
0AF58:  BNZ   AFD0
....................                flag_vacio=1; 
0AF5A:  MOVLB  0
0AF5C:  BSF    xA4.4
....................                if(flag_pulso==0){ 
0AF5E:  BTFSC  xA4.5
0AF60:  BRA    AF90
....................                   PulsosVacio++; 
0AF62:  MOVLB  3
0AF64:  INCF   x78,F
....................                   flag_pulso=1; 
0AF66:  MOVLB  0
0AF68:  BSF    xA4.5
....................                   Desfogue_on; 
0AF6A:  BCF    F8B.1
0AF6C:  BCF    F94.1
....................                   delay_ms(12000); 
0AF6E:  MOVLW  30
0AF70:  MOVLB  6
0AF72:  MOVWF  x96
0AF74:  MOVLW  FA
0AF76:  MOVWF  xA8
0AF78:  MOVLB  0
0AF7A:  CALL   1D14
0AF7E:  MOVLB  6
0AF80:  DECFSZ x96,F
0AF82:  BRA    AF74
....................                   Desfogue_off; 
0AF84:  BSF    F8B.1
0AF86:  BCF    F94.1
....................                   tvacio=0; 
0AF88:  MOVLB  3
0AF8A:  CLRF   x66
0AF8C:  CLRF   x65
0AF8E:  MOVLB  0
....................                } 
....................                printf("Funcionamiento.t5f.txt=\" Pulso de Vacio %u\"",PulsosVacio); 
0AF90:  MOVLW  B0
0AF92:  MOVWF  FF6
0AF94:  MOVLW  14
0AF96:  MOVWF  FF7
0AF98:  MOVLW  00
0AF9A:  MOVWF  FF8
0AF9C:  MOVLW  28
0AF9E:  MOVLB  6
0AFA0:  MOVWF  x9A
0AFA2:  MOVLB  0
0AFA4:  CALL   4EA0
0AFA8:  MOVFF  378,698
0AFAC:  MOVLW  1B
0AFAE:  MOVLB  6
0AFB0:  MOVWF  x99
0AFB2:  MOVLB  0
0AFB4:  CALL   4EFE
0AFB8:  MOVLW  22
0AFBA:  BTFSS  F9E.4
0AFBC:  BRA    AFBA
0AFBE:  MOVWF  FAD
....................                SendDataDisplay(); 
0AFC0:  CALL   37EC
....................                salidasPulsoNegativo(); 
0AFC4:  CALL   5E1A
....................                monitoreaNivelAlto();  
0AFC8:  GOTO   5E34
....................             }else{ 
0AFCC:  BRA    AFD8
0AFCE:  MOVLB  3
....................                PulsoPositivo=5; 
0AFD0:  MOVLW  05
0AFD2:  MOVWF  x77
....................                tvacio=0; 
0AFD4:  CLRF   x66
0AFD6:  CLRF   x65
....................             } 
....................              
....................             if(PulsosVacio>=CantidadPulsos && PulsoPositivo==5){//Si realiza los pulsos de vacio, continua con el proceso de calentamiento 
0AFD8:  MOVLB  3
0AFDA:  MOVF   x2A,W
0AFDC:  SUBWF  x78,W
0AFDE:  BNC   B01C
0AFE0:  MOVF   x77,W
0AFE2:  SUBLW  05
0AFE4:  BNZ   B01C
....................                Vacio=ON; 
0AFE6:  MOVLB  0
0AFE8:  BSF    xA4.2
....................                Vacio_off; 
0AFEA:  BSF    F8B.2
0AFEC:  BCF    F94.2
....................                Desfogue_off; 
0AFEE:  BSF    F8B.1
0AFF0:  BCF    F94.1
....................                Aire_off; 
0AFF2:  BSF    F8C.0
0AFF4:  BCF    F95.0
....................                AireB_off; 
0AFF6:  BSF    F8C.1
0AFF8:  BCF    F95.1
....................                Paso_on; 
0AFFA:  BCF    F8B.0
0AFFC:  BCF    F94.0
....................                Agua_off; 
0AFFE:  BSF    F8C.3
0B000:  BCF    F95.3
....................                //EV8_off; 
....................                apagaBombaAgua(); 
0B002:  CALL   5146
....................                BombaVacio_off;  
0B006:  BSF    F8B.5
0B008:  BCF    F94.5
....................                SSR2_off; 
0B00A:  BCF    F8D.2
0B00C:  BCF    F96.2
....................                IniciaVacio=OFF; 
0B00E:  BCF    xA4.0
....................                PulsoPositivo=10; 
0B010:  MOVLW  0A
0B012:  MOVLB  3
0B014:  MOVWF  x77
....................                flag_vac=0; 
0B016:  MOVLB  0
0B018:  BCF    xA4.3
0B01A:  MOVLB  3
....................             } 
....................                
....................             if(PulsoPositivo==5){//Pulso Positivo 
0B01C:  MOVF   x77,W
0B01E:  SUBLW  05
0B020:  BNZ   B078
....................                tvacio=0; 
0B022:  CLRF   x66
0B024:  CLRF   x65
....................                flag_pulso=0; 
0B026:  MOVLB  0
0B028:  BCF    xA4.5
....................                printf("Funcionamiento.t5f.txt=\" Pulso Positivo %u\"",PulsosVacio); 
0B02A:  MOVLW  DC
0B02C:  MOVWF  FF6
0B02E:  MOVLW  14
0B030:  MOVWF  FF7
0B032:  MOVLW  00
0B034:  MOVWF  FF8
0B036:  MOVLW  28
0B038:  MOVLB  6
0B03A:  MOVWF  x9A
0B03C:  MOVLB  0
0B03E:  CALL   4EA0
0B042:  MOVFF  378,698
0B046:  MOVLW  1B
0B048:  MOVLB  6
0B04A:  MOVWF  x99
0B04C:  MOVLB  0
0B04E:  CALL   4EFE
0B052:  MOVLW  22
0B054:  BTFSS  F9E.4
0B056:  BRA    B054
0B058:  MOVWF  FAD
....................                SendDataDisplay(); 
0B05A:  CALL   37EC
....................                salidasPulsoPositivo(); 
0B05E:  GOTO   5E9E
....................                if(PresionCamara>=Atmosferica+25){ 
0B062:  MOVLW  19
0B064:  MOVLB  3
0B066:  ADDWF  x2F,W
0B068:  MOVF   x5E,F
0B06A:  BNZ   B070
0B06C:  SUBWF  x5D,W
0B06E:  BNC   B078
....................                   Paso_off; 
0B070:  BSF    F8B.0
0B072:  BCF    F94.0
....................                   PulsoPositivo=10; 
0B074:  MOVLW  0A
0B076:  MOVWF  x77
....................                }   
....................             } 
....................                 
....................             if(tbomba>=120 && PulsosVacio==0){//Si no se ha generado ningun pulso de vacio despues de 120 segundos se genera alarma 
0B078:  MOVF   x64,F
0B07A:  BNZ   B082
0B07C:  MOVF   x63,W
0B07E:  SUBLW  77
0B080:  BC    B0A2
0B082:  MOVF   x78,F
0B084:  BNZ   B0A2
....................                if(PresionCamara>Atmosferica){ 
0B086:  MOVF   x5E,F
0B088:  BNZ   B090
0B08A:  MOVF   x5D,W
0B08C:  SUBWF  x2F,W
0B08E:  BC    B098
....................                   AlarmaBomba=ON; 
0B090:  MOVLB  0
0B092:  BSF    x9F.6
....................                }else{ 
0B094:  BRA    B0A0
0B096:  MOVLB  3
....................                   tbomba=0; 
0B098:  CLRF   x64
0B09A:  CLRF   x63
....................                   IniciaVacio2=OFF; 
0B09C:  MOVLB  0
0B09E:  BCF    xA4.1
0B0A0:  MOVLB  3
....................                } 
....................              } 
....................                 
....................             if(tvacio>420)//Si excede el tiempo maximo para generar los pulsos de vacio genera alarma             
0B0A2:  MOVF   x66,W
0B0A4:  SUBLW  00
0B0A6:  BC    B0B8
0B0A8:  XORLW  FF
0B0AA:  BNZ   B0B2
0B0AC:  MOVF   x65,W
0B0AE:  SUBLW  A4
0B0B0:  BC    B0B8
....................                AlarmaVacio=ON;             
0B0B2:  MOVLB  0
0B0B4:  BSF    x9F.7
0B0B6:  MOVLB  3
....................          }else{ 
0B0B8:  BRA    B646
0B0BA:  MOVLB  0
....................             IniciaVacio=OFF;           
0B0BC:  BCF    xA4.0
....................             if(!Esterilizando){ 
0B0BE:  BTFSC  xA0.3
0B0C0:  BRA    B1A4
....................                if(Temperatura>=((float)Setpoint-0.3)){ 
0B0C2:  MOVLB  6
0B0C4:  CLRF   xA9
0B0C6:  MOVFF  348,6A8
0B0CA:  MOVLB  0
0B0CC:  CALL   1D3C
0B0D0:  MOVFF  00,696
0B0D4:  MOVFF  01,697
0B0D8:  MOVFF  02,698
0B0DC:  MOVFF  03,699
0B0E0:  BSF    FD8.1
0B0E2:  MOVFF  03,6AB
0B0E6:  MOVFF  02,6AA
0B0EA:  MOVFF  01,6A9
0B0EE:  MOVFF  00,6A8
0B0F2:  MOVLW  9A
0B0F4:  MOVLB  6
0B0F6:  MOVWF  xAF
0B0F8:  MOVLW  99
0B0FA:  MOVWF  xAE
0B0FC:  MOVLW  19
0B0FE:  MOVWF  xAD
0B100:  MOVLW  7D
0B102:  MOVWF  xAC
0B104:  MOVLB  0
0B106:  CALL   1ED0
0B10A:  MOVFF  03,69F
0B10E:  MOVFF  02,69E
0B112:  MOVFF  01,69D
0B116:  MOVFF  00,69C
0B11A:  MOVFF  312,6A3
0B11E:  MOVFF  311,6A2
0B122:  MOVFF  310,6A1
0B126:  MOVFF  30F,6A0
0B12A:  CALL   2EBE
0B12E:  BC    B132
0B130:  BNZ   B134
....................                   Esterilizando=ON; 
0B132:  BSF    xA0.3
....................                } 
....................                codigoAlarma=12; 
0B134:  MOVLW  0C
0B136:  MOVLB  3
0B138:  MOVWF  x2E
....................                if(codigoAnt!=codigoAlarma){ 
0B13A:  MOVF   x2E,W
0B13C:  SUBWF  x76,W
0B13E:  BZ    B14A
....................                   codigoAnt=codigoAlarma; 
0B140:  MOVFF  32E,376
....................                   GuardaDatoCiclo();                   
0B144:  MOVLB  0
0B146:  CALL   599E
....................                } 
....................                flag_vac=OFF; 
0B14A:  MOVLB  0
0B14C:  BCF    xA4.3
....................                printf("Funcionamiento.t4f.txt=\" Ninguna\""); 
0B14E:  MOVLW  08
0B150:  MOVWF  FF6
0B152:  MOVLW  15
0B154:  MOVWF  FF7
0B156:  MOVLW  00
0B158:  MOVWF  FF8
0B15A:  CALL   37BA
....................                SendDataDisplay(); 
0B15E:  CALL   37EC
....................                printf("Funcionamiento.t5f.txt=\" Calentando\""); 
0B162:  MOVLW  2A
0B164:  MOVWF  FF6
0B166:  MOVLW  15
0B168:  MOVWF  FF7
0B16A:  MOVLW  00
0B16C:  MOVWF  FF8
0B16E:  CALL   37BA
....................                SendDataDisplay(); 
0B172:  CALL   37EC
....................                Control=1; 
0B176:  MOVLW  01
0B178:  MOVLB  3
0B17A:  MOVWF  x37
....................                Controla(); 
0B17C:  MOVLB  0
0B17E:  CALL   5F30
....................                Paso_on; 
0B182:  BCF    F8B.0
0B184:  BCF    F94.0
....................                BombaVacio_off; 
0B186:  BSF    F8B.5
0B188:  BCF    F94.5
....................                Vacio_off; 
0B18A:  BSF    F8B.2
0B18C:  BCF    F94.2
....................                Aire_off; 
0B18E:  BSF    F8C.0
0B190:  BCF    F95.0
....................                AireB_off; 
0B192:  BSF    F8C.1
0B194:  BCF    F95.1
....................                Desfogue_off; 
0B196:  BSF    F8B.1
0B198:  BCF    F94.1
....................                Agua_off; 
0B19A:  BSF    F8C.3
0B19C:  BCF    F95.3
....................                //EV8_off; 
....................                apagaBombaAgua(); 
0B19E:  CALL   5146
....................             }else{ 
0B1A2:  BRA    B644
....................                TiempoCiclo=0; 
0B1A4:  CLRF   xA8
0B1A6:  CLRF   xA7
....................                if(mEst==0 && sEst==0){  
0B1A8:  MOVF   xBA,F
0B1AA:  BTFSS  FD8.2
0B1AC:  BRA    B56A
0B1AE:  MOVF   xB9,F
0B1B0:  BTFSS  FD8.2
0B1B2:  BRA    B56A
....................                   if(desfoguelento){ 
0B1B4:  BTFSS  xA6.5
0B1B6:  BRA    B316
....................                      Controlando=0; 
0B1B8:  MOVLB  3
0B1BA:  CLRF   x39
....................                      if(PresionCamara<(Atmosferica+4)){ 
0B1BC:  MOVLW  04
0B1BE:  ADDWF  x2F,W
0B1C0:  MOVF   x5E,F
0B1C2:  BNZ   B29E
0B1C4:  SUBWF  x5D,W
0B1C6:  BC    B29E
....................                         Secando=OFF; 
0B1C8:  MOVLB  0
0B1CA:  BCF    xA0.4
....................                         DesfogueSuave=OFF; 
0B1CC:  BCF    xA0.7
....................                         BombaVacio_off; 
0B1CE:  BSF    F8B.5
0B1D0:  BCF    F94.5
....................                         Vacio_off; 
0B1D2:  BSF    F8B.2
0B1D4:  BCF    F94.2
....................                         Aire_off; 
0B1D6:  BSF    F8C.0
0B1D8:  BCF    F95.0
....................                         Desfogue_on; 
0B1DA:  BCF    F8B.1
0B1DC:  BCF    F94.1
....................                         Paso_off;                         
0B1DE:  BSF    F8B.0
0B1E0:  BCF    F94.0
....................                         Agua_off; 
0B1E2:  BSF    F8C.3
0B1E4:  BCF    F95.3
....................                         SSR2_off; 
0B1E6:  BCF    F8D.2
0B1E8:  BCF    F96.2
....................                         SSR_off; 
0B1EA:  BCF    F8D.1
0B1EC:  BCF    F96.1
....................                         if(Temperatura<=Tapertura){ 
0B1EE:  MOVLB  6
0B1F0:  CLRF   xA9
0B1F2:  MOVFF  2CE,6A8
0B1F6:  MOVLB  0
0B1F8:  CALL   1D3C
0B1FC:  MOVFF  312,69F
0B200:  MOVFF  311,69E
0B204:  MOVFF  310,69D
0B208:  MOVFF  30F,69C
0B20C:  MOVFF  03,6A3
0B210:  MOVFF  02,6A2
0B214:  MOVFF  01,6A1
0B218:  MOVFF  00,6A0
0B21C:  CALL   2EBE
0B220:  BC    B224
0B222:  BNZ   B296
....................                            ActivaAlarma(2); 
0B224:  MOVLW  02
0B226:  MOVLB  6
0B228:  MOVWF  x96
0B22A:  MOVLB  0
0B22C:  CALL   4D3E
....................                            printf("Funcionamiento.t4f.txt=\" Ninguna\""); 
0B230:  MOVLW  50
0B232:  MOVWF  FF6
0B234:  MOVLW  15
0B236:  MOVWF  FF7
0B238:  MOVLW  00
0B23A:  MOVWF  FF8
0B23C:  CALL   37BA
....................                            SendDataDisplay(); 
0B240:  CALL   37EC
....................                            printf("Funcionamiento.t5f.txt=\" Finalizado\""); 
0B244:  MOVLW  72
0B246:  MOVWF  FF6
0B248:  MOVLW  15
0B24A:  MOVWF  FF7
0B24C:  MOVLW  00
0B24E:  MOVWF  FF8
0B250:  CALL   37BA
....................                            SendDataDisplay(); 
0B254:  CALL   37EC
....................                            Finalizo=ON; 
0B258:  BSF    xA3.0
....................                            codigoAlarma=14; 
0B25A:  MOVLW  0E
0B25C:  MOVLB  3
0B25E:  MOVWF  x2E
....................                               if(codigoAnt!=codigoAlarma){ 
0B260:  MOVF   x2E,W
0B262:  SUBWF  x76,W
0B264:  BZ    B272
....................                                  codigoAnt=codigoAlarma; 
0B266:  MOVFF  32E,376
....................                                  GuardaDatoCiclo();                   
0B26A:  MOVLB  0
0B26C:  CALL   599E
0B270:  MOVLB  3
....................                               }  
....................                               if(!flagImprimir){ 
0B272:  BTFSC  x36.3
0B274:  BRA    B294
....................                                  Imprime=28; 
0B276:  MOVLW  1C
0B278:  MOVWF  x8D
....................                                  Envio_Esclavos(); 
0B27A:  MOVLB  0
0B27C:  CALL   4658
....................                                  delay_ms(100); 
0B280:  MOVLW  64
0B282:  MOVLB  6
0B284:  MOVWF  xA8
0B286:  MOVLB  0
0B288:  CALL   1D14
....................                                  Imprime=10; 
0B28C:  MOVLW  0A
0B28E:  MOVLB  3
0B290:  MOVWF  x8D
....................                                  flagImprimir=1; 
0B292:  BSF    x36.3
0B294:  MOVLB  0
....................                               } 
....................                         } 
....................                         incrementaCiclos(); 
0B296:  CALL   5D40
....................                      }else if(PresionCamara>(Atmosferica+10)){ 
0B29A:  BRA    B314
0B29C:  MOVLB  3
0B29E:  MOVLW  0A
0B2A0:  ADDWF  x2F,W
0B2A2:  MOVF   x5E,F
0B2A4:  BNZ   B2AC
0B2A6:  SUBWF  x5D,W
0B2A8:  BZ    B312
0B2AA:  BNC   B312
....................                         codigoAlarma=13; 
0B2AC:  MOVLW  0D
0B2AE:  MOVWF  x2E
....................                         if(codigoAnt!=codigoAlarma){ 
0B2B0:  MOVF   x2E,W
0B2B2:  SUBWF  x76,W
0B2B4:  BZ    B2C0
....................                            codigoAnt=codigoAlarma; 
0B2B6:  MOVFF  32E,376
....................                            GuardaDatoCiclo();                   
0B2BA:  MOVLB  0
0B2BC:  CALL   599E
....................                         } 
....................                         Desfogando=ON; 
0B2C0:  MOVLB  0
0B2C2:  BSF    xA0.6
....................                         DesfogueSuave=ON; 
0B2C4:  BSF    xA0.7
....................                         printf("Funcionamiento.t4f.txt=\" Ninguna\""); 
0B2C6:  MOVLW  98
0B2C8:  MOVWF  FF6
0B2CA:  MOVLW  15
0B2CC:  MOVWF  FF7
0B2CE:  MOVLW  00
0B2D0:  MOVWF  FF8
0B2D2:  CALL   37BA
....................                         SendDataDisplay(); 
0B2D6:  CALL   37EC
....................                         printf("Funcionamiento.t5f.txt=\" Despresurizando\""); 
0B2DA:  MOVLW  BA
0B2DC:  MOVWF  FF6
0B2DE:  MOVLW  15
0B2E0:  MOVWF  FF7
0B2E2:  MOVLW  00
0B2E4:  MOVWF  FF8
0B2E6:  CALL   37BA
....................                         SendDataDisplay(); 
0B2EA:  CALL   37EC
....................                         Control=0; 
0B2EE:  MOVLB  3
0B2F0:  CLRF   x37
....................                         Desfogue_on; 
0B2F2:  BCF    F8B.1
0B2F4:  BCF    F94.1
....................                         Paso_on; 
0B2F6:  BCF    F8B.0
0B2F8:  BCF    F94.0
....................                         BombaVacio_off; 
0B2FA:  BSF    F8B.5
0B2FC:  BCF    F94.5
....................                         Agua_off; 
0B2FE:  BSF    F8C.3
0B300:  BCF    F95.3
....................                         Vacio_off; 
0B302:  BSF    F8B.2
0B304:  BCF    F94.2
....................                         Aire_off;  
0B306:  BSF    F8C.0
0B308:  BCF    F95.0
....................                         SSR2_off; 
0B30A:  BCF    F8D.2
0B30C:  BCF    F96.2
....................                         SSR_off; 
0B30E:  BCF    F8D.1
0B310:  BCF    F96.1
0B312:  MOVLB  0
....................                      } 
....................                   }else{                      
0B314:  BRA    B564
....................                      Paso_off; 
0B316:  BSF    F8B.0
0B318:  BCF    F94.0
....................                      Controlando=0; 
0B31A:  MOVLB  3
0B31C:  CLRF   x39
....................                      Control=0; 
0B31E:  CLRF   x37
....................                      if(PresionCamara<=(Atmosferica+10)){   
0B320:  MOVLW  0A
0B322:  ADDWF  x2F,W
0B324:  MOVF   x5E,F
0B326:  BTFSS  FD8.2
0B328:  BRA    B4EA
0B32A:  SUBWF  x5D,W
0B32C:  BZ    B332
0B32E:  BTFSC  FD8.0
0B330:  BRA    B4EA
....................                         if(sSec==0 && mSec==0){                           
0B332:  MOVLB  0
0B334:  MOVF   xBB,F
0B336:  BNZ   B40E
0B338:  MOVF   xBC,F
0B33A:  BNZ   B40E
....................                            codigoAlarma=15; 
0B33C:  MOVLW  0F
0B33E:  MOVLB  3
0B340:  MOVWF  x2E
....................                            if(codigoAnt!=codigoAlarma){ 
0B342:  MOVF   x2E,W
0B344:  SUBWF  x76,W
0B346:  BZ    B354
....................                               codigoAnt=codigoAlarma; 
0B348:  MOVFF  32E,376
....................                               GuardaDatoCiclo();                   
0B34C:  MOVLB  0
0B34E:  CALL   599E
0B352:  MOVLB  3
....................                            } 
....................                            BombaVacio_off; 
0B354:  BSF    F8B.5
0B356:  BCF    F94.5
....................                            Agua_off; 
0B358:  BSF    F8C.3
0B35A:  BCF    F95.3
....................                            Vacio_off; 
0B35C:  BSF    F8B.2
0B35E:  BCF    F94.2
....................                            Aire_on; 
0B360:  BCF    F8C.0
0B362:  BCF    F95.0
....................                            Desfogue_on; 
0B364:  BCF    F8B.1
0B366:  BCF    F94.1
....................                            Paso_off; 
0B368:  BSF    F8B.0
0B36A:  BCF    F94.0
....................                            SSR_off; 
0B36C:  BCF    F8D.1
0B36E:  BCF    F96.1
....................                            Secando=OFF; 
0B370:  MOVLB  0
0B372:  BCF    xA0.4
....................                            SSR2_off; 
0B374:  BCF    F8D.2
0B376:  BCF    F96.2
....................                             
....................                            if(PresionCamara>Atmosferica-10 && PresionCamara<Atmosferica+6){ 
0B378:  MOVLW  0A
0B37A:  MOVLB  3
0B37C:  SUBWF  x2F,W
0B37E:  MOVF   x5E,F
0B380:  BNZ   B388
0B382:  SUBWF  x5D,W
0B384:  BZ    B404
0B386:  BNC   B404
0B388:  MOVLW  06
0B38A:  ADDWF  x2F,W
0B38C:  MOVF   x5E,F
0B38E:  BNZ   B404
0B390:  SUBWF  x5D,W
0B392:  BC    B404
....................                               ActivaAlarma(2); 
0B394:  MOVLW  02
0B396:  MOVLB  6
0B398:  MOVWF  x96
0B39A:  MOVLB  0
0B39C:  CALL   4D3E
....................                               printf("Funcionamiento.t4f.txt=\" Ninguna\""); 
0B3A0:  MOVLW  E4
0B3A2:  MOVWF  FF6
0B3A4:  MOVLW  15
0B3A6:  MOVWF  FF7
0B3A8:  MOVLW  00
0B3AA:  MOVWF  FF8
0B3AC:  CALL   37BA
....................                               SendDataDisplay(); 
0B3B0:  CALL   37EC
....................                               printf("Funcionamiento.t5f.txt=\" Finalizado\""); 
0B3B4:  MOVLW  06
0B3B6:  MOVWF  FF6
0B3B8:  MOVLW  16
0B3BA:  MOVWF  FF7
0B3BC:  MOVLW  00
0B3BE:  MOVWF  FF8
0B3C0:  CALL   37BA
....................                               SendDataDisplay(); 
0B3C4:  CALL   37EC
....................                               Finalizo=ON; 
0B3C8:  BSF    xA3.0
....................                               codigoAlarma=14; 
0B3CA:  MOVLW  0E
0B3CC:  MOVLB  3
0B3CE:  MOVWF  x2E
....................                               if(codigoAnt!=codigoAlarma){ 
0B3D0:  MOVF   x2E,W
0B3D2:  SUBWF  x76,W
0B3D4:  BZ    B3E2
....................                                  codigoAnt=codigoAlarma; 
0B3D6:  MOVFF  32E,376
....................                                  GuardaDatoCiclo();                   
0B3DA:  MOVLB  0
0B3DC:  CALL   599E
0B3E0:  MOVLB  3
....................                               } 
....................                               if(!flagImprimir){ 
0B3E2:  BTFSC  x36.3
0B3E4:  BRA    B404
....................                                  Imprime=28; 
0B3E6:  MOVLW  1C
0B3E8:  MOVWF  x8D
....................                                  Envio_Esclavos(); 
0B3EA:  MOVLB  0
0B3EC:  CALL   4658
....................                                  delay_ms(100); 
0B3F0:  MOVLW  64
0B3F2:  MOVLB  6
0B3F4:  MOVWF  xA8
0B3F6:  MOVLB  0
0B3F8:  CALL   1D14
....................                                  Imprime=10; 
0B3FC:  MOVLW  0A
0B3FE:  MOVLB  3
0B400:  MOVWF  x8D
....................                                  flagImprimir=1; 
0B402:  BSF    x36.3
....................                               } 
....................                            } 
....................                            incrementaCiclos(); 
0B404:  MOVLB  0
0B406:  CALL   5D40
....................                            Secando=OFF; 
0B40A:  BCF    xA0.4
....................                         }else{ 
0B40C:  BRA    B4E6
....................                            if(Secando){ 
0B40E:  BTFSS  xA0.4
0B410:  BRA    B43A
....................                               printf("Funcionamiento.t4f.txt=\" Ninguna\""); 
0B412:  MOVLW  2C
0B414:  MOVWF  FF6
0B416:  MOVLW  16
0B418:  MOVWF  FF7
0B41A:  MOVLW  00
0B41C:  MOVWF  FF8
0B41E:  CALL   37BA
....................                               SendDataDisplay(); 
0B422:  CALL   37EC
....................                               printf("Funcionamiento.t5f.txt=\" Secando\""); 
0B426:  MOVLW  4E
0B428:  MOVWF  FF6
0B42A:  MOVLW  16
0B42C:  MOVWF  FF7
0B42E:  MOVLW  00
0B430:  MOVWF  FF8
0B432:  CALL   37BA
....................                               SendDataDisplay(); 
0B436:  CALL   37EC
....................                            } 
....................                            if(Temperatura<110){ 
0B43A:  MOVFF  312,69F
0B43E:  MOVFF  311,69E
0B442:  MOVFF  310,69D
0B446:  MOVFF  30F,69C
0B44A:  MOVLB  6
0B44C:  CLRF   xA3
0B44E:  CLRF   xA2
0B450:  MOVLW  5C
0B452:  MOVWF  xA1
0B454:  MOVLW  85
0B456:  MOVWF  xA0
0B458:  MOVLB  0
0B45A:  CALL   2EBE
0B45E:  BNC   B466
....................                               SSR2_on; 
0B460:  BSF    F8D.2
0B462:  BCF    F96.2
....................                            }else{ 
0B464:  BRA    B46A
....................                               SSR2_off; 
0B466:  BCF    F8D.2
0B468:  BCF    F96.2
....................                            } 
....................                            Paso_off; 
0B46A:  BSF    F8B.0
0B46C:  BCF    F94.0
....................                            if(!flag_vac){//Ciclo inicial para purga de Bomba 
0B46E:  BTFSC  xA4.3
0B470:  BRA    B478
....................                               flag_vac=ON; 
0B472:  BSF    xA4.3
....................                               purgaBomba(); 
0B474:  CALL   50D2
....................                            } 
....................                             
....................                            if(PresionCamara<=Atmosferica){//Si alcanzo el nivel de vacio requerido 
0B478:  MOVLB  3
0B47A:  MOVF   x5E,F
0B47C:  BNZ   B48A
0B47E:  MOVF   x5D,W
0B480:  SUBWF  x2F,W
0B482:  BNC   B48A
....................                               Secando=ON; 
0B484:  MOVLB  0
0B486:  BSF    xA0.4
0B488:  MOVLB  3
....................                            } 
....................                             
....................                            if(PresionCamara>NivelVacio){//Si la presin de la camara es mayor al nivel de vacio 
0B48A:  MOVF   x5E,F
0B48C:  BNZ   B494
0B48E:  MOVF   x5D,W
0B490:  SUBWF  x2B,W
0B492:  BC    B4A4
....................                               salidasPulsoNegativo();  
0B494:  MOVLB  0
0B496:  CALL   5E1A
....................                               Agua_off;   
0B49A:  BSF    F8C.3
0B49C:  BCF    F95.3
....................                               //EV8_off; 
....................                               apagaBombaAgua(); 
0B49E:  CALL   5146
0B4A2:  MOVLB  3
....................                            } 
....................        
....................                            if(PresionCamara<=(NivelVacio-5)){//Si alcanzo el nivel de vacio requerido 
0B4A4:  MOVLW  05
0B4A6:  SUBWF  x2B,W
0B4A8:  MOVF   x5E,F
0B4AA:  BNZ   B4E4
0B4AC:  SUBWF  x5D,W
0B4AE:  BZ    B4B2
0B4B0:  BC    B4E4
....................                               codigoAlarma=15; 
0B4B2:  MOVLW  0F
0B4B4:  MOVWF  x2E
....................                               if(codigoAnt!=codigoAlarma){ 
0B4B6:  MOVF   x2E,W
0B4B8:  SUBWF  x76,W
0B4BA:  BZ    B4C8
....................                                  codigoAnt=codigoAlarma; 
0B4BC:  MOVFF  32E,376
....................                                  GuardaDatoCiclo();                   
0B4C0:  MOVLB  0
0B4C2:  CALL   599E
0B4C6:  MOVLB  3
....................                               } 
....................                               Vacio_off; 
0B4C8:  BSF    F8B.2
0B4CA:  BCF    F94.2
....................                               Desfogue_off; 
0B4CC:  BSF    F8B.1
0B4CE:  BCF    F94.1
....................                               Aire_on; 
0B4D0:  BCF    F8C.0
0B4D2:  BCF    F95.0
....................                               AireB_on; 
0B4D4:  BCF    F8C.1
0B4D6:  BCF    F95.1
....................                               Paso_off; 
0B4D8:  BSF    F8B.0
0B4DA:  BCF    F94.0
....................                               Agua_off; 
0B4DC:  BSF    F8C.3
0B4DE:  BCF    F95.3
....................                               BombaVacio_on;  
0B4E0:  BCF    F8B.5
0B4E2:  BCF    F94.5
0B4E4:  MOVLB  0
....................                            } 
....................                         } 
....................                      }else if(PresionCamara>(Atmosferica+15)){ 
0B4E6:  BRA    B564
0B4E8:  MOVLB  3
0B4EA:  MOVLW  0F
0B4EC:  ADDWF  x2F,W
0B4EE:  MOVF   x5E,F
0B4F0:  BNZ   B4F8
0B4F2:  SUBWF  x5D,W
0B4F4:  BZ    B566
0B4F6:  BNC   B566
....................                         codigoAlarma=13; 
0B4F8:  MOVLW  0D
0B4FA:  MOVWF  x2E
....................                         if(codigoAnt!=codigoAlarma){ 
0B4FC:  MOVF   x2E,W
0B4FE:  SUBWF  x76,W
0B500:  BZ    B50C
....................                            codigoAnt=codigoAlarma; 
0B502:  MOVFF  32E,376
....................                            GuardaDatoCiclo();                   
0B506:  MOVLB  0
0B508:  CALL   599E
....................                         } 
....................                         Desfogando=ON; 
0B50C:  MOVLB  0
0B50E:  BSF    xA0.6
....................                         printf("Funcionamiento.t4f.txt=\" Ninguna\""); 
0B510:  MOVLW  70
0B512:  MOVWF  FF6
0B514:  MOVLW  16
0B516:  MOVWF  FF7
0B518:  MOVLW  00
0B51A:  MOVWF  FF8
0B51C:  CALL   37BA
....................                         SendDataDisplay(); 
0B520:  CALL   37EC
....................                         printf("Funcionamiento.t5f.txt=\" Despresurizando\""); 
0B524:  MOVLW  92
0B526:  MOVWF  FF6
0B528:  MOVLW  16
0B52A:  MOVWF  FF7
0B52C:  MOVLW  00
0B52E:  MOVWF  FF8
0B530:  CALL   37BA
....................                         SendDataDisplay(); 
0B534:  CALL   37EC
....................                         Control=0; 
0B538:  MOVLB  3
0B53A:  CLRF   x37
....................                         Controlando=0; 
0B53C:  CLRF   x39
....................                         Desfogue_on; 
0B53E:  BCF    F8B.1
0B540:  BCF    F94.1
....................                         Paso_off; 
0B542:  BSF    F8B.0
0B544:  BCF    F94.0
....................                         BombaVacio_off; 
0B546:  BSF    F8B.5
0B548:  BCF    F94.5
....................                         Agua_off; 
0B54A:  BSF    F8C.3
0B54C:  BCF    F95.3
....................                         Vacio_off; 
0B54E:  BSF    F8B.2
0B550:  BCF    F94.2
....................                         Aire_off;  
0B552:  BSF    F8C.0
0B554:  BCF    F95.0
....................                         SSR2_on; 
0B556:  BSF    F8D.2
0B558:  BCF    F96.2
....................                         SSR_off;    
0B55A:  BCF    F8D.1
0B55C:  BCF    F96.1
....................                         //EV8_off; 
....................                         apagaBombaAgua(); 
0B55E:  MOVLB  0
0B560:  CALL   5146
0B564:  MOVLB  3
....................                      } 
....................                   } 
....................                }else{ 
0B566:  BRA    B646
0B568:  MOVLB  0
....................                   if(Temperatura<((float)Setpoint-0.9) && !Desfogando){ 
0B56A:  MOVLB  6
0B56C:  CLRF   xA9
0B56E:  MOVFF  348,6A8
0B572:  MOVLB  0
0B574:  CALL   1D3C
0B578:  MOVFF  00,696
0B57C:  MOVFF  01,697
0B580:  MOVFF  02,698
0B584:  MOVFF  03,699
0B588:  BSF    FD8.1
0B58A:  MOVFF  03,6AB
0B58E:  MOVFF  02,6AA
0B592:  MOVFF  01,6A9
0B596:  MOVFF  00,6A8
0B59A:  MOVLW  66
0B59C:  MOVLB  6
0B59E:  MOVWF  xAF
0B5A0:  MOVWF  xAE
0B5A2:  MOVWF  xAD
0B5A4:  MOVLW  7E
0B5A6:  MOVWF  xAC
0B5A8:  MOVLB  0
0B5AA:  CALL   1ED0
0B5AE:  MOVFF  312,69F
0B5B2:  MOVFF  311,69E
0B5B6:  MOVFF  310,69D
0B5BA:  MOVFF  30F,69C
0B5BE:  MOVFF  03,6A3
0B5C2:  MOVFF  02,6A2
0B5C6:  MOVFF  01,6A1
0B5CA:  MOVFF  00,6A0
0B5CE:  CALL   2EBE
0B5D2:  BNC   B5DA
0B5D4:  BTFSC  xA0.6
0B5D6:  BRA    B5DA
....................                      Esterilizando=OFF; 
0B5D8:  BCF    xA0.3
....................                   } 
....................                   codigoAlarma=16; 
0B5DA:  MOVLW  10
0B5DC:  MOVLB  3
0B5DE:  MOVWF  x2E
....................                   if(codigoAnt!=codigoAlarma){ 
0B5E0:  MOVF   x2E,W
0B5E2:  SUBWF  x76,W
0B5E4:  BZ    B5F2
....................                      codigoAnt=codigoAlarma; 
0B5E6:  MOVFF  32E,376
....................                      GuardaDatoCiclo();                   
0B5EA:  MOVLB  0
0B5EC:  CALL   599E
0B5F0:  MOVLB  3
....................                   } 
....................                   printf("Funcionamiento.t4f.txt=\" Ninguna\""); 
0B5F2:  MOVLW  BC
0B5F4:  MOVWF  FF6
0B5F6:  MOVLW  16
0B5F8:  MOVWF  FF7
0B5FA:  MOVLW  00
0B5FC:  MOVWF  FF8
0B5FE:  MOVLB  0
0B600:  CALL   37BA
....................                   SendDataDisplay(); 
0B604:  CALL   37EC
....................                   printf("Funcionamiento.t5f.txt=\" Esterilizando\""); 
0B608:  MOVLW  DE
0B60A:  MOVWF  FF6
0B60C:  MOVLW  16
0B60E:  MOVWF  FF7
0B610:  MOVLW  00
0B612:  MOVWF  FF8
0B614:  CALL   37BA
....................                   SendDataDisplay(); 
0B618:  CALL   37EC
....................                   Paso_on; 
0B61C:  BCF    F8B.0
0B61E:  BCF    F94.0
....................                   Desfogue_off; 
0B620:  BSF    F8B.1
0B622:  BCF    F94.1
....................                   BombaVacio_off; 
0B624:  BSF    F8B.5
0B626:  BCF    F94.5
....................                   Agua_off; 
0B628:  BSF    F8C.3
0B62A:  BCF    F95.3
....................                   Vacio_off; 
0B62C:  BSF    F8B.2
0B62E:  BCF    F94.2
....................                   Aire_off;  
0B630:  BSF    F8C.0
0B632:  BCF    F95.0
....................                   //if(mEst<=2) 
....................                   //   SSR2_on; 
....................                   //else 
....................                   //   SSR2_off; 
....................                   //EV8_off; 
....................                   apagaBombaAgua(); 
0B634:  CALL   5146
....................                   Control=1; 
0B638:  MOVLW  01
0B63A:  MOVLB  3
0B63C:  MOVWF  x37
....................                   Controla(); 
0B63E:  MOVLB  0
0B640:  CALL   5F30
0B644:  MOVLB  3
....................                } 
....................             } 
....................          } 
....................       }  
....................       }else{ 
0B646:  BRA    B9D6
0B648:  MOVLB  0
....................          if(flagImprime){ 
0B64A:  MOVLB  3
0B64C:  BTFSS  x36.2
0B64E:  BRA    B66E
....................             Imprime=5; 
0B650:  MOVLW  05
0B652:  MOVWF  x8D
....................             Envio_Esclavos(); 
0B654:  MOVLB  0
0B656:  CALL   4658
....................             delay_ms(100); 
0B65A:  MOVLW  64
0B65C:  MOVLB  6
0B65E:  MOVWF  xA8
0B660:  MOVLB  0
0B662:  CALL   1D14
....................             Imprime=10; 
0B666:  MOVLW  0A
0B668:  MOVLB  3
0B66A:  MOVWF  x8D
....................             flagImprime=0; 
0B66C:  BCF    x36.2
....................          } 
....................          SSR_off; 
0B66E:  BCF    F8D.1
0B670:  BCF    F96.1
....................          SSR2_off; 
0B672:  BCF    F8D.2
0B674:  BCF    F96.2
....................          Buzzer_off; 
0B676:  BCF    F8C.7
0B678:  BCF    F95.7
....................          IniciaCiclo=ON; 
0B67A:  MOVLB  0
0B67C:  BSF    xA0.2
....................          if(!flag_vac){ 
0B67E:  BTFSC  xA4.3
0B680:  BRA    B708
....................             codigoAlarma=11; 
0B682:  MOVLW  0B
0B684:  MOVLB  3
0B686:  MOVWF  x2E
....................             if(codigoAnt!=codigoAlarma){ 
0B688:  MOVF   x2E,W
0B68A:  SUBWF  x76,W
0B68C:  BZ    B698
....................                codigoAnt=codigoAlarma; 
0B68E:  MOVFF  32E,376
....................                GuardaDatoCiclo();                
0B692:  MOVLB  0
0B694:  CALL   599E
....................             } 
....................             flag_vac=ON; 
0B698:  MOVLB  0
0B69A:  BSF    xA4.3
....................             Vacio_off; 
0B69C:  BSF    F8B.2
0B69E:  BCF    F94.2
....................             Desfogue_off; 
0B6A0:  BSF    F8B.1
0B6A2:  BCF    F94.1
....................             Aire_off; 
0B6A4:  BSF    F8C.0
0B6A6:  BCF    F95.0
....................             AireB_on; 
0B6A8:  BCF    F8C.1
0B6AA:  BCF    F95.1
....................             Paso_off; 
0B6AC:  BSF    F8B.0
0B6AE:  BCF    F94.0
....................             Agua_off; 
0B6B0:  BSF    F8C.3
0B6B2:  BCF    F95.3
....................             for(i=0;i<10;i++){ 
0B6B4:  MOVLB  3
0B6B6:  CLRF   x44
0B6B8:  MOVF   x44,W
0B6BA:  SUBLW  09
0B6BC:  BNC   B6E4
....................                BombaVacio_on; 
0B6BE:  BCF    F8B.5
0B6C0:  BCF    F94.5
....................                delay_ms(100); 
0B6C2:  MOVLW  64
0B6C4:  MOVLB  6
0B6C6:  MOVWF  xA8
0B6C8:  MOVLB  0
0B6CA:  CALL   1D14
....................                BombaVacio_off; 
0B6CE:  BSF    F8B.5
0B6D0:  BCF    F94.5
....................                delay_ms(100); 
0B6D2:  MOVLW  64
0B6D4:  MOVLB  6
0B6D6:  MOVWF  xA8
0B6D8:  MOVLB  0
0B6DA:  CALL   1D14
....................             } 
0B6DE:  MOVLB  3
0B6E0:  INCF   x44,F
0B6E2:  BRA    B6B8
....................             BombaVacio_on; 
0B6E4:  BCF    F8B.5
0B6E6:  BCF    F94.5
....................             delay_ms(7000); 
0B6E8:  MOVLW  1C
0B6EA:  MOVLB  6
0B6EC:  MOVWF  x96
0B6EE:  MOVLW  FA
0B6F0:  MOVWF  xA8
0B6F2:  MOVLB  0
0B6F4:  CALL   1D14
0B6F8:  MOVLB  6
0B6FA:  DECFSZ x96,F
0B6FC:  BRA    B6EE
....................             IniciaVacio2=ON; 
0B6FE:  MOVLB  0
0B700:  BSF    xA4.1
....................             IniciaVacio=ON; 
0B702:  BSF    xA4.0
....................             Vacio_on; 
0B704:  BCF    F8B.2
0B706:  BCF    F94.2
....................          } 
....................           
....................          if(tbomba>=120){ 
0B708:  MOVLB  3
0B70A:  MOVF   x64,F
0B70C:  BNZ   B714
0B70E:  MOVF   x63,W
0B710:  SUBLW  77
0B712:  BC    B730
....................             if(PresionCamara>Atmosferica){ 
0B714:  MOVF   x5E,F
0B716:  BNZ   B71E
0B718:  MOVF   x5D,W
0B71A:  SUBWF  x2F,W
0B71C:  BC    B726
....................                AlarmaBomba=ON; 
0B71E:  MOVLB  0
0B720:  BSF    x9F.6
....................             }else{ 
0B722:  BRA    B72E
0B724:  MOVLB  3
....................                tbomba=0; 
0B726:  CLRF   x64
0B728:  CLRF   x63
....................                IniciaVacio2=OFF; 
0B72A:  MOVLB  0
0B72C:  BCF    xA4.1
0B72E:  MOVLB  3
....................             } 
....................          } 
....................           
....................          if(tvacio>700){//Si excede el tiempo maximo para generar los pulsos de vacio genera alarma             
0B730:  MOVF   x66,W
0B732:  SUBLW  01
0B734:  BC    B746
0B736:  XORLW  FF
0B738:  BNZ   B740
0B73A:  MOVF   x65,W
0B73C:  SUBLW  BC
0B73E:  BC    B746
....................             AlarmaVacio=ON; 
0B740:  MOVLB  0
0B742:  BSF    x9F.7
0B744:  MOVLB  3
....................          } 
....................           
....................          if(PresionCamara<=vacioTest){ 
0B746:  MOVF   x5E,F
0B748:  BNZ   B778
0B74A:  MOVF   x5D,W
0B74C:  SUBWF  x4E,W
0B74E:  BNC   B778
....................             Vacio_off; 
0B750:  BSF    F8B.2
0B752:  BCF    F94.2
....................             Desfogue_off; 
0B754:  BSF    F8B.1
0B756:  BCF    F94.1
....................             Aire_off; 
0B758:  BSF    F8C.0
0B75A:  BCF    F95.0
....................             AireB_off; 
0B75C:  BSF    F8C.1
0B75E:  BCF    F95.1
....................             Paso_off; 
0B760:  BSF    F8B.0
0B762:  BCF    F94.0
....................             Agua_off; 
0B764:  BSF    F8C.3
0B766:  BCF    F95.3
....................             BombaVacio_off; 
0B768:  BSF    F8B.5
0B76A:  BCF    F94.5
....................             Esterilizando=ON; 
0B76C:  MOVLB  0
0B76E:  BSF    xA0.3
....................             IniciaVacio=OFF; 
0B770:  BCF    xA4.0
....................             tbomba=0; 
0B772:  MOVLB  3
0B774:  CLRF   x64
0B776:  CLRF   x63
....................          }  
....................           
....................          if(!Finalizo){ 
0B778:  MOVLB  0
0B77A:  BTFSC  xA3.0
0B77C:  BRA    B8B8
....................             if(!Esterilizando){ 
0B77E:  BTFSC  xA0.3
0B780:  BRA    B7E2
....................                if(codigoAlarma==8){ 
0B782:  MOVLB  3
0B784:  MOVF   x2E,W
0B786:  SUBLW  08
0B788:  BNZ   B79A
....................                   ActivaAlarma(2); 
0B78A:  MOVLW  02
0B78C:  MOVLB  6
0B78E:  MOVWF  x96
0B790:  MOVLB  0
0B792:  CALL   4D3E
....................                }else{ 
0B796:  BRA    B7E0
0B798:  MOVLB  3
....................                   Vacio_on; 
0B79A:  BCF    F8B.2
0B79C:  BCF    F94.2
....................                   Desfogue_off; 
0B79E:  BSF    F8B.1
0B7A0:  BCF    F94.1
....................                   Aire_off; 
0B7A2:  BSF    F8C.0
0B7A4:  BCF    F95.0
....................                   AireB_off; 
0B7A6:  BSF    F8C.1
0B7A8:  BCF    F95.1
....................                   Paso_off; 
0B7AA:  BSF    F8B.0
0B7AC:  BCF    F94.0
....................                   Agua_off; 
0B7AE:  BSF    F8C.3
0B7B0:  BCF    F95.3
....................                   BombaVacio_on; 
0B7B2:  BCF    F8B.5
0B7B4:  BCF    F94.5
....................                   printf("Funcionamiento.t4f.txt=\" Ninguna\""); 
0B7B6:  MOVLW  06
0B7B8:  MOVWF  FF6
0B7BA:  MOVLW  17
0B7BC:  MOVWF  FF7
0B7BE:  MOVLW  00
0B7C0:  MOVWF  FF8
0B7C2:  MOVLB  0
0B7C4:  CALL   37BA
....................                   SendDataDisplay(); 
0B7C8:  CALL   37EC
....................                   printf("Funcionamiento.t5f.txt=\" Vacio\""); 
0B7CC:  MOVLW  28
0B7CE:  MOVWF  FF6
0B7D0:  MOVLW  17
0B7D2:  MOVWF  FF7
0B7D4:  MOVLW  00
0B7D6:  MOVWF  FF8
0B7D8:  CALL   37BA
....................                   SendDataDisplay(); 
0B7DC:  CALL   37EC
....................                } 
....................             }else{ 
0B7E0:  BRA    B8B8
....................                if(PresionCamara>50){ 
0B7E2:  MOVLB  3
0B7E4:  MOVF   x5E,F
0B7E6:  BNZ   B7EE
0B7E8:  MOVF   x5D,W
0B7EA:  SUBLW  32
0B7EC:  BC    B88E
....................                   printf("Funcionamiento.t4f.txt=\" Error Ciclo\""); 
0B7EE:  MOVLW  48
0B7F0:  MOVWF  FF6
0B7F2:  MOVLW  17
0B7F4:  MOVWF  FF7
0B7F6:  MOVLW  00
0B7F8:  MOVWF  FF8
0B7FA:  MOVLB  0
0B7FC:  CALL   37BA
....................                   SendDataDisplay(); 
0B800:  CALL   37EC
....................                   printf("Funcionamiento.t5f.txt=\" Finalizado\""); 
0B804:  MOVLW  6E
0B806:  MOVWF  FF6
0B808:  MOVLW  17
0B80A:  MOVWF  FF7
0B80C:  MOVLW  00
0B80E:  MOVWF  FF8
0B810:  CALL   37BA
....................                   SendDataDisplay(); 
0B814:  CALL   37EC
....................                   codigoAlarma=8; 
0B818:  MOVLW  08
0B81A:  MOVLB  3
0B81C:  MOVWF  x2E
....................                   if(codigoAnt!=codigoAlarma){ 
0B81E:  MOVF   x2E,W
0B820:  SUBWF  x76,W
0B822:  BZ    B830
....................                      codigoAnt=codigoAlarma; 
0B824:  MOVFF  32E,376
....................                      GuardaDatoCiclo();                   
0B828:  MOVLB  0
0B82A:  CALL   599E
0B82E:  MOVLB  3
....................                   } 
....................                   if(!flagImprimir){//Imprime Ciclo Finalizado 
0B830:  BTFSC  x36.3
0B832:  BRA    B852
....................                      Imprime=26; 
0B834:  MOVLW  1A
0B836:  MOVWF  x8D
....................                      Envio_Esclavos(); 
0B838:  MOVLB  0
0B83A:  CALL   4658
....................                      delay_ms(100); 
0B83E:  MOVLW  64
0B840:  MOVLB  6
0B842:  MOVWF  xA8
0B844:  MOVLB  0
0B846:  CALL   1D14
....................                      Imprime=10; 
0B84A:  MOVLW  0A
0B84C:  MOVLB  3
0B84E:  MOVWF  x8D
....................                      flagImprimir=1; 
0B850:  BSF    x36.3
....................                   } 
....................                   IniciaVacio=OFF; 
0B852:  MOVLB  0
0B854:  BCF    xA4.0
....................                   tbomba=0; 
0B856:  MOVLB  3
0B858:  CLRF   x64
0B85A:  CLRF   x63
....................                   Vacio_off; 
0B85C:  BSF    F8B.2
0B85E:  BCF    F94.2
....................                   Desfogue_off; 
0B860:  BSF    F8B.1
0B862:  BCF    F94.1
....................                   Aire_on; 
0B864:  BCF    F8C.0
0B866:  BCF    F95.0
....................                   AireB_off; 
0B868:  BSF    F8C.1
0B86A:  BCF    F95.1
....................                   Paso_off; 
0B86C:  BSF    F8B.0
0B86E:  BCF    F94.0
....................                   Agua_off; 
0B870:  BSF    F8C.3
0B872:  BCF    F95.3
....................                   BombaVacio_off; 
0B874:  BSF    F8B.5
0B876:  BCF    F94.5
....................                   ActivaAlarma(2); 
0B878:  MOVLW  02
0B87A:  MOVLB  6
0B87C:  MOVWF  x96
0B87E:  MOVLB  0
0B880:  CALL   4D3E
....................                   incrementaCiclos(); 
0B884:  CALL   5D40
....................                   Esterilizando=OFF; 
0B888:  BCF    xA0.3
....................                }else{ 
0B88A:  BRA    B8B8
0B88C:  MOVLB  3
....................                   printf("Funcionamiento.t4f.txt=\" Ninguna\""); 
0B88E:  MOVLW  94
0B890:  MOVWF  FF6
0B892:  MOVLW  17
0B894:  MOVWF  FF7
0B896:  MOVLW  00
0B898:  MOVWF  FF8
0B89A:  MOVLB  0
0B89C:  CALL   37BA
....................                   SendDataDisplay(); 
0B8A0:  CALL   37EC
....................                   printf("Funcionamiento.t5f.txt=\" Manteniendo Vacio\""); 
0B8A4:  MOVLW  B6
0B8A6:  MOVWF  FF6
0B8A8:  MOVLW  17
0B8AA:  MOVWF  FF7
0B8AC:  MOVLW  00
0B8AE:  MOVWF  FF8
0B8B0:  CALL   37BA
....................                   SendDataDisplay(); 
0B8B4:  CALL   37EC
....................                } 
....................             } 
....................          } 
....................           
....................          if(mEst==0 && sEst==0){                 
0B8B8:  MOVF   xBA,F
0B8BA:  BTFSS  FD8.2
0B8BC:  BRA    B9D4
0B8BE:  MOVF   xB9,F
0B8C0:  BTFSS  FD8.2
0B8C2:  BRA    B9D4
....................             IniciaVacio=OFF; 
0B8C4:  BCF    xA4.0
....................             tbomba=0; 
0B8C6:  MOVLB  3
0B8C8:  CLRF   x64
0B8CA:  CLRF   x63
....................             BombaVacio_off; 
0B8CC:  BSF    F8B.5
0B8CE:  BCF    F94.5
....................             Vacio_off; 
0B8D0:  BSF    F8B.2
0B8D2:  BCF    F94.2
....................             Desfogue_off; 
0B8D4:  BSF    F8B.1
0B8D6:  BCF    F94.1
....................             Aire_on; 
0B8D8:  BCF    F8C.0
0B8DA:  BCF    F95.0
....................             Paso_off; 
0B8DC:  BSF    F8B.0
0B8DE:  BCF    F94.0
....................             Agua_off; 
0B8E0:  BSF    F8C.3
0B8E2:  BCF    F95.3
....................             ActivaAlarma(2); 
0B8E4:  MOVLW  02
0B8E6:  MOVLB  6
0B8E8:  MOVWF  x96
0B8EA:  MOVLB  0
0B8EC:  CALL   4D3E
....................             if(!Finalizo){ 
0B8F0:  BTFSC  xA3.0
0B8F2:  BRA    B9CE
....................                Finalizo=ON; 
0B8F4:  BSF    xA3.0
....................                if(PresionCamara<=50){ 
0B8F6:  MOVLB  3
0B8F8:  MOVF   x5E,F
0B8FA:  BNZ   B968
0B8FC:  MOVF   x5D,W
0B8FE:  SUBLW  32
0B900:  BNC   B968
....................                   printf("Funcionamiento.t4f.txt=\" Ninguna\""); 
0B902:  MOVLW  E2
0B904:  MOVWF  FF6
0B906:  MOVLW  17
0B908:  MOVWF  FF7
0B90A:  MOVLW  00
0B90C:  MOVWF  FF8
0B90E:  MOVLB  0
0B910:  CALL   37BA
....................                   SendDataDisplay(); 
0B914:  CALL   37EC
....................                   printf("Funcionamiento.t5f.txt=\" Finalizado\""); 
0B918:  MOVLW  04
0B91A:  MOVWF  FF6
0B91C:  MOVLW  18
0B91E:  MOVWF  FF7
0B920:  MOVLW  00
0B922:  MOVWF  FF8
0B924:  CALL   37BA
....................                   SendDataDisplay(); 
0B928:  CALL   37EC
....................                   codigoAlarma=14; 
0B92C:  MOVLW  0E
0B92E:  MOVLB  3
0B930:  MOVWF  x2E
....................                   if(codigoAnt!=codigoAlarma){ 
0B932:  MOVF   x2E,W
0B934:  SUBWF  x76,W
0B936:  BZ    B944
....................                      codigoAnt=codigoAlarma; 
0B938:  MOVFF  32E,376
....................                      GuardaDatoCiclo();                   
0B93C:  MOVLB  0
0B93E:  CALL   599E
0B942:  MOVLB  3
....................                   } 
....................                   if(!flagImprimir){ 
0B944:  BTFSC  x36.3
0B946:  BRA    B966
....................                      Imprime=28; 
0B948:  MOVLW  1C
0B94A:  MOVWF  x8D
....................                      Envio_Esclavos(); 
0B94C:  MOVLB  0
0B94E:  CALL   4658
....................                      delay_ms(100); 
0B952:  MOVLW  64
0B954:  MOVLB  6
0B956:  MOVWF  xA8
0B958:  MOVLB  0
0B95A:  CALL   1D14
....................                      Imprime=10; 
0B95E:  MOVLW  0A
0B960:  MOVLB  3
0B962:  MOVWF  x8D
....................                      flagImprimir=1; 
0B964:  BSF    x36.3
....................                   } 
....................                }else{ 
0B966:  BRA    B9CC
....................                   printf("Funcionamiento.t4f.txt=\" Error Ciclo\""); 
0B968:  MOVLW  2A
0B96A:  MOVWF  FF6
0B96C:  MOVLW  18
0B96E:  MOVWF  FF7
0B970:  MOVLW  00
0B972:  MOVWF  FF8
0B974:  MOVLB  0
0B976:  CALL   37BA
....................                   SendDataDisplay(); 
0B97A:  CALL   37EC
....................                   printf("Funcionamiento.t5f.txt=\" Finalizado\""); 
0B97E:  MOVLW  50
0B980:  MOVWF  FF6
0B982:  MOVLW  18
0B984:  MOVWF  FF7
0B986:  MOVLW  00
0B988:  MOVWF  FF8
0B98A:  CALL   37BA
....................                   SendDataDisplay(); 
0B98E:  CALL   37EC
....................                   codigoAlarma=8; 
0B992:  MOVLW  08
0B994:  MOVLB  3
0B996:  MOVWF  x2E
....................                   if(codigoAnt!=codigoAlarma){ 
0B998:  MOVF   x2E,W
0B99A:  SUBWF  x76,W
0B99C:  BZ    B9AA
....................                      codigoAnt=codigoAlarma; 
0B99E:  MOVFF  32E,376
....................                      GuardaDatoCiclo();                   
0B9A2:  MOVLB  0
0B9A4:  CALL   599E
0B9A8:  MOVLB  3
....................                   } 
....................                   if(!flagImprimir){ 
0B9AA:  BTFSC  x36.3
0B9AC:  BRA    B9CC
....................                      Imprime=27; 
0B9AE:  MOVLW  1B
0B9B0:  MOVWF  x8D
....................                      Envio_Esclavos(); 
0B9B2:  MOVLB  0
0B9B4:  CALL   4658
....................                      delay_ms(100); 
0B9B8:  MOVLW  64
0B9BA:  MOVLB  6
0B9BC:  MOVWF  xA8
0B9BE:  MOVLB  0
0B9C0:  CALL   1D14
....................                      Imprime=10; 
0B9C4:  MOVLW  0A
0B9C6:  MOVLB  3
0B9C8:  MOVWF  x8D
....................                      flagImprimir=1; 
0B9CA:  BSF    x36.3
0B9CC:  MOVLB  0
....................                   } 
....................                } 
....................             } 
....................             incrementaCiclos(); 
0B9CE:  CALL   5D40
....................             Esterilizando=OFF; 
0B9D2:  BCF    xA0.3
0B9D4:  MOVLB  3
....................          } 
....................       } 
....................    } 
....................  
....................    if(tguarda>=180){ 
0B9D6:  MOVF   x33,F
0B9D8:  BNZ   B9E0
0B9DA:  MOVF   x32,W
0B9DC:  SUBLW  B3
0B9DE:  BC    B9F0
....................       if(!Ciclo) 
0B9E0:  MOVLB  0
0B9E2:  BTFSC  xA1.5
0B9E4:  BRA    B9EA
....................          GuardaDatoCiclo(); 
0B9E6:  CALL   599E
....................       tguarda=0; 
0B9EA:  MOVLB  3
0B9EC:  CLRF   x33
0B9EE:  CLRF   x32
....................    } 
....................  
....................    if(Grafica==1){ 
0B9F0:  MOVLB  0
0B9F2:  BTFSS  xA6.7
0B9F4:  BRA    BB54
....................       printf("add 14,0,%1.0f",Temperatura*0.5); 
0B9F6:  MOVFF  312,6AF
0B9FA:  MOVFF  311,6AE
0B9FE:  MOVFF  310,6AD
0BA02:  MOVFF  30F,6AC
0BA06:  MOVLB  6
0BA08:  CLRF   xB3
0BA0A:  CLRF   xB2
0BA0C:  CLRF   xB1
0BA0E:  MOVLW  7E
0BA10:  MOVWF  xB0
0BA12:  MOVLB  0
0BA14:  CALL   38CC
0BA18:  MOVFF  00,696
0BA1C:  MOVFF  01,697
0BA20:  MOVFF  02,698
0BA24:  MOVFF  03,699
0BA28:  MOVLW  76
0BA2A:  MOVWF  FF6
0BA2C:  MOVLW  18
0BA2E:  MOVWF  FF7
0BA30:  MOVLW  00
0BA32:  MOVWF  FF8
0BA34:  MOVLW  09
0BA36:  MOVLB  6
0BA38:  MOVWF  x9A
0BA3A:  MOVLB  0
0BA3C:  CALL   4EA0
0BA40:  MOVLW  00
0BA42:  MOVWF  FE9
0BA44:  MOVFF  699,69D
0BA48:  MOVFF  698,69C
0BA4C:  MOVFF  697,69B
0BA50:  MOVFF  696,69A
0BA54:  MOVLB  6
0BA56:  CLRF   x9E
0BA58:  MOVLB  0
0BA5A:  CALL   521C
....................       SendDataDisplay(); 
0BA5E:  CALL   37EC
....................       printf("add 14,1,%1.0f",PresionCamara*0.5); 
0BA62:  MOVFF  35E,6A9
0BA66:  MOVFF  35D,6A8
0BA6A:  CALL   1D3C
0BA6E:  MOVFF  03,6AF
0BA72:  MOVFF  02,6AE
0BA76:  MOVFF  01,6AD
0BA7A:  MOVFF  00,6AC
0BA7E:  MOVLB  6
0BA80:  CLRF   xB3
0BA82:  CLRF   xB2
0BA84:  CLRF   xB1
0BA86:  MOVLW  7E
0BA88:  MOVWF  xB0
0BA8A:  MOVLB  0
0BA8C:  CALL   38CC
0BA90:  MOVFF  00,696
0BA94:  MOVFF  01,697
0BA98:  MOVFF  02,698
0BA9C:  MOVFF  03,699
0BAA0:  MOVLW  86
0BAA2:  MOVWF  FF6
0BAA4:  MOVLW  18
0BAA6:  MOVWF  FF7
0BAA8:  MOVLW  00
0BAAA:  MOVWF  FF8
0BAAC:  MOVLW  09
0BAAE:  MOVLB  6
0BAB0:  MOVWF  x9A
0BAB2:  MOVLB  0
0BAB4:  CALL   4EA0
0BAB8:  MOVLW  00
0BABA:  MOVWF  FE9
0BABC:  MOVFF  699,69D
0BAC0:  MOVFF  698,69C
0BAC4:  MOVFF  697,69B
0BAC8:  MOVFF  696,69A
0BACC:  MOVLB  6
0BACE:  CLRF   x9E
0BAD0:  MOVLB  0
0BAD2:  CALL   521C
....................       SendDataDisplay(); 
0BAD6:  CALL   37EC
....................       printf("add 14,2,%1.0f",PresionPreCamara*0.5); 
0BADA:  MOVFF  360,6A9
0BADE:  MOVFF  35F,6A8
0BAE2:  CALL   1D3C
0BAE6:  MOVFF  03,6AF
0BAEA:  MOVFF  02,6AE
0BAEE:  MOVFF  01,6AD
0BAF2:  MOVFF  00,6AC
0BAF6:  MOVLB  6
0BAF8:  CLRF   xB3
0BAFA:  CLRF   xB2
0BAFC:  CLRF   xB1
0BAFE:  MOVLW  7E
0BB00:  MOVWF  xB0
0BB02:  MOVLB  0
0BB04:  CALL   38CC
0BB08:  MOVFF  00,696
0BB0C:  MOVFF  01,697
0BB10:  MOVFF  02,698
0BB14:  MOVFF  03,699
0BB18:  MOVLW  96
0BB1A:  MOVWF  FF6
0BB1C:  MOVLW  18
0BB1E:  MOVWF  FF7
0BB20:  MOVLW  00
0BB22:  MOVWF  FF8
0BB24:  MOVLW  09
0BB26:  MOVLB  6
0BB28:  MOVWF  x9A
0BB2A:  MOVLB  0
0BB2C:  CALL   4EA0
0BB30:  MOVLW  00
0BB32:  MOVWF  FE9
0BB34:  MOVFF  699,69D
0BB38:  MOVFF  698,69C
0BB3C:  MOVFF  697,69B
0BB40:  MOVFF  696,69A
0BB44:  MOVLB  6
0BB46:  CLRF   x9E
0BB48:  MOVLB  0
0BB4A:  CALL   521C
....................       SendDataDisplay(); 
0BB4E:  CALL   37EC
....................       Grafica=0; 
0BB52:  BCF    xA6.7
....................    } 
....................    if(Lectura==1)// Utilizado para visualizar la lectura de la temperatura 
0BB54:  BTFSS  xA6.6
0BB56:  BRA    BE38
....................    {                       
....................       Lectura=0; 
0BB58:  BCF    xA6.6
....................       printf("tuser.txt=\"%s\"",1); 
0BB5A:  MOVLW  A6
0BB5C:  MOVWF  FF6
0BB5E:  MOVLW  18
0BB60:  MOVWF  FF7
0BB62:  MOVLW  00
0BB64:  MOVWF  FF8
0BB66:  MOVLW  0B
0BB68:  MOVLB  6
0BB6A:  MOVWF  x9A
0BB6C:  MOVLB  0
0BB6E:  CALL   4EA0
0BB72:  CLRF   FEA
0BB74:  MOVLW  01
0BB76:  MOVWF  FE9
0BB78:  GOTO   6476
0BB7C:  MOVLW  22
0BB7E:  BTFSS  F9E.4
0BB80:  BRA    BB7E
0BB82:  MOVWF  FAD
....................       SendDataDisplay(); 
0BB84:  CALL   37EC
....................       printf("t6f.txt=\"%3.1f\"",Temperatura); 
0BB88:  MOVLW  B6
0BB8A:  MOVWF  FF6
0BB8C:  MOVLW  18
0BB8E:  MOVWF  FF7
0BB90:  MOVLW  00
0BB92:  MOVWF  FF8
0BB94:  MOVLW  09
0BB96:  MOVLB  6
0BB98:  MOVWF  x9A
0BB9A:  MOVLB  0
0BB9C:  CALL   4EA0
0BBA0:  MOVLW  02
0BBA2:  MOVWF  FE9
0BBA4:  MOVFF  312,69D
0BBA8:  MOVFF  311,69C
0BBAC:  MOVFF  310,69B
0BBB0:  MOVFF  30F,69A
0BBB4:  MOVLW  01
0BBB6:  MOVLB  6
0BBB8:  MOVWF  x9E
0BBBA:  MOVLB  0
0BBBC:  CALL   521C
0BBC0:  MOVLW  22
0BBC2:  BTFSS  F9E.4
0BBC4:  BRA    BBC2
0BBC6:  MOVWF  FAD
....................       SendDataDisplay(); 
0BBC8:  CALL   37EC
....................       printf("Funcionamiento.t7f.txt=\"%03LukPa\"",PresionCamara); 
0BBCC:  MOVLW  C6
0BBCE:  MOVWF  FF6
0BBD0:  MOVLW  18
0BBD2:  MOVWF  FF7
0BBD4:  MOVLW  00
0BBD6:  MOVWF  FF8
0BBD8:  MOVLW  18
0BBDA:  MOVLB  6
0BBDC:  MOVWF  x9A
0BBDE:  MOVLB  0
0BBE0:  CALL   4EA0
0BBE4:  MOVLW  0A
0BBE6:  MOVWF  FE9
0BBE8:  MOVFF  35E,69B
0BBEC:  MOVFF  35D,69A
0BBF0:  CALL   4FF2
0BBF4:  MOVLW  E3
0BBF6:  MOVWF  FF6
0BBF8:  MOVLW  18
0BBFA:  MOVWF  FF7
0BBFC:  MOVLW  00
0BBFE:  MOVWF  FF8
0BC00:  MOVLW  04
0BC02:  MOVLB  6
0BC04:  MOVWF  x9A
0BC06:  MOVLB  0
0BC08:  CALL   4EA0
....................       SendDataDisplay(); 
0BC0C:  CALL   37EC
....................       printf("Funcionamiento.t12f.txt=\"%03LukPa\"",PresionPreCamara); 
0BC10:  MOVLW  E8
0BC12:  MOVWF  FF6
0BC14:  MOVLW  18
0BC16:  MOVWF  FF7
0BC18:  MOVLW  00
0BC1A:  MOVWF  FF8
0BC1C:  MOVLW  19
0BC1E:  MOVLB  6
0BC20:  MOVWF  x9A
0BC22:  MOVLB  0
0BC24:  CALL   4EA0
0BC28:  MOVLW  0A
0BC2A:  MOVWF  FE9
0BC2C:  MOVFF  360,69B
0BC30:  MOVFF  35F,69A
0BC34:  CALL   4FF2
0BC38:  MOVLW  06
0BC3A:  MOVWF  FF6
0BC3C:  MOVLW  19
0BC3E:  MOVWF  FF7
0BC40:  MOVLW  00
0BC42:  MOVWF  FF8
0BC44:  MOVLW  04
0BC46:  MOVLB  6
0BC48:  MOVWF  x9A
0BC4A:  MOVLB  0
0BC4C:  CALL   4EA0
....................       SendDataDisplay(); 
0BC50:  CALL   37EC
....................       printf("Funcionamiento.t9f.txt=\"%03u\"",Setpoint); 
0BC54:  MOVLW  0C
0BC56:  MOVWF  FF6
0BC58:  MOVLW  19
0BC5A:  MOVWF  FF7
0BC5C:  MOVLW  00
0BC5E:  MOVWF  FF8
0BC60:  MOVLW  18
0BC62:  MOVLB  6
0BC64:  MOVWF  x9A
0BC66:  MOVLB  0
0BC68:  CALL   4EA0
0BC6C:  MOVFF  348,698
0BC70:  MOVLW  03
0BC72:  MOVLB  6
0BC74:  MOVWF  x99
0BC76:  MOVLB  0
0BC78:  CALL   4EFE
0BC7C:  MOVLW  22
0BC7E:  BTFSS  F9E.4
0BC80:  BRA    BC7E
0BC82:  MOVWF  FAD
....................       SendDataDisplay();       
0BC84:  CALL   37EC
....................       printf("Funcionamiento.t10f.txt=\"%02u\"",mEst); 
0BC88:  MOVLW  2A
0BC8A:  MOVWF  FF6
0BC8C:  MOVLW  19
0BC8E:  MOVWF  FF7
0BC90:  MOVLW  00
0BC92:  MOVWF  FF8
0BC94:  MOVLW  19
0BC96:  MOVLB  6
0BC98:  MOVWF  x9A
0BC9A:  MOVLB  0
0BC9C:  CALL   4EA0
0BCA0:  MOVFF  BA,698
0BCA4:  MOVLW  01
0BCA6:  MOVLB  6
0BCA8:  MOVWF  x99
0BCAA:  MOVLB  0
0BCAC:  CALL   4EFE
0BCB0:  MOVLW  22
0BCB2:  BTFSS  F9E.4
0BCB4:  BRA    BCB2
0BCB6:  MOVWF  FAD
....................       SendDataDisplay();       
0BCB8:  CALL   37EC
....................       printf("Funcionamiento.t13f.txt=\"%02u\"",sEst); 
0BCBC:  MOVLW  4A
0BCBE:  MOVWF  FF6
0BCC0:  MOVLW  19
0BCC2:  MOVWF  FF7
0BCC4:  MOVLW  00
0BCC6:  MOVWF  FF8
0BCC8:  MOVLW  19
0BCCA:  MOVLB  6
0BCCC:  MOVWF  x9A
0BCCE:  MOVLB  0
0BCD0:  CALL   4EA0
0BCD4:  MOVFF  B9,698
0BCD8:  MOVLW  01
0BCDA:  MOVLB  6
0BCDC:  MOVWF  x99
0BCDE:  MOVLB  0
0BCE0:  CALL   4EFE
0BCE4:  MOVLW  22
0BCE6:  BTFSS  F9E.4
0BCE8:  BRA    BCE6
0BCEA:  MOVWF  FAD
....................       SendDataDisplay();       
0BCEC:  CALL   37EC
....................       printf("Funcionamiento.t11f.txt=\"%02u\"",mSec); 
0BCF0:  MOVLW  6A
0BCF2:  MOVWF  FF6
0BCF4:  MOVLW  19
0BCF6:  MOVWF  FF7
0BCF8:  MOVLW  00
0BCFA:  MOVWF  FF8
0BCFC:  MOVLW  19
0BCFE:  MOVLB  6
0BD00:  MOVWF  x9A
0BD02:  MOVLB  0
0BD04:  CALL   4EA0
0BD08:  MOVFF  BC,698
0BD0C:  MOVLW  01
0BD0E:  MOVLB  6
0BD10:  MOVWF  x99
0BD12:  MOVLB  0
0BD14:  CALL   4EFE
0BD18:  MOVLW  22
0BD1A:  BTFSS  F9E.4
0BD1C:  BRA    BD1A
0BD1E:  MOVWF  FAD
....................       SendDataDisplay();       
0BD20:  CALL   37EC
....................       printf("Funcionamiento.t16f.txt=\"%02u\"",sSec); 
0BD24:  MOVLW  8A
0BD26:  MOVWF  FF6
0BD28:  MOVLW  19
0BD2A:  MOVWF  FF7
0BD2C:  MOVLW  00
0BD2E:  MOVWF  FF8
0BD30:  MOVLW  19
0BD32:  MOVLB  6
0BD34:  MOVWF  x9A
0BD36:  MOVLB  0
0BD38:  CALL   4EA0
0BD3C:  MOVFF  BB,698
0BD40:  MOVLW  01
0BD42:  MOVLB  6
0BD44:  MOVWF  x99
0BD46:  MOVLB  0
0BD48:  CALL   4EFE
0BD4C:  MOVLW  22
0BD4E:  BTFSS  F9E.4
0BD50:  BRA    BD4E
0BD52:  MOVWF  FAD
....................       SendDataDisplay();       
0BD54:  CALL   37EC
....................        
....................       printf("fecha.txt=\"Fecha:%02u/%02u/20%02u    Hora: %02u:%02u:%02u\"",Dia,Mes,Year,Hora,Minuto,Segundo); 
0BD58:  MOVLW  AA
0BD5A:  MOVWF  FF6
0BD5C:  MOVLW  19
0BD5E:  MOVWF  FF7
0BD60:  MOVLW  00
0BD62:  MOVWF  FF8
0BD64:  MOVLW  11
0BD66:  MOVLB  6
0BD68:  MOVWF  x9A
0BD6A:  MOVLB  0
0BD6C:  CALL   4EA0
0BD70:  MOVFF  381,698
0BD74:  MOVLW  01
0BD76:  MOVLB  6
0BD78:  MOVWF  x99
0BD7A:  MOVLB  0
0BD7C:  CALL   4EFE
0BD80:  MOVLW  2F
0BD82:  BTFSS  F9E.4
0BD84:  BRA    BD82
0BD86:  MOVWF  FAD
0BD88:  MOVFF  380,698
0BD8C:  MOVLW  01
0BD8E:  MOVLB  6
0BD90:  MOVWF  x99
0BD92:  MOVLB  0
0BD94:  CALL   4EFE
0BD98:  MOVLW  2F
0BD9A:  BTFSS  F9E.4
0BD9C:  BRA    BD9A
0BD9E:  MOVWF  FAD
0BDA0:  MOVLW  32
0BDA2:  BTFSS  F9E.4
0BDA4:  BRA    BDA2
0BDA6:  MOVWF  FAD
0BDA8:  MOVLW  30
0BDAA:  BTFSS  F9E.4
0BDAC:  BRA    BDAA
0BDAE:  MOVWF  FAD
0BDB0:  MOVFF  37F,698
0BDB4:  MOVLW  01
0BDB6:  MOVLB  6
0BDB8:  MOVWF  x99
0BDBA:  MOVLB  0
0BDBC:  CALL   4EFE
0BDC0:  MOVLW  CB
0BDC2:  MOVWF  FF6
0BDC4:  MOVLW  19
0BDC6:  MOVWF  FF7
0BDC8:  MOVLW  00
0BDCA:  MOVWF  FF8
0BDCC:  MOVLW  0A
0BDCE:  MOVLB  6
0BDD0:  MOVWF  x9A
0BDD2:  MOVLB  0
0BDD4:  CALL   4EA0
0BDD8:  MOVFF  382,698
0BDDC:  MOVLW  01
0BDDE:  MOVLB  6
0BDE0:  MOVWF  x99
0BDE2:  MOVLB  0
0BDE4:  CALL   4EFE
0BDE8:  MOVLW  3A
0BDEA:  BTFSS  F9E.4
0BDEC:  BRA    BDEA
0BDEE:  MOVWF  FAD
0BDF0:  MOVFF  383,698
0BDF4:  MOVLW  01
0BDF6:  MOVLB  6
0BDF8:  MOVWF  x99
0BDFA:  MOVLB  0
0BDFC:  CALL   4EFE
0BE00:  MOVLW  3A
0BE02:  BTFSS  F9E.4
0BE04:  BRA    BE02
0BE06:  MOVWF  FAD
0BE08:  MOVFF  384,698
0BE0C:  MOVLW  01
0BE0E:  MOVLB  6
0BE10:  MOVWF  x99
0BE12:  MOVLB  0
0BE14:  CALL   4EFE
0BE18:  MOVLW  22
0BE1A:  BTFSS  F9E.4
0BE1C:  BRA    BE1A
0BE1E:  MOVWF  FAD
....................       SendDataDisplay(); 
0BE20:  CALL   37EC
....................       printf("fecha.font=2"); 
0BE24:  MOVLW  E6
0BE26:  MOVWF  FF6
0BE28:  MOVLW  19
0BE2A:  MOVWF  FF7
0BE2C:  MOVLW  00
0BE2E:  MOVWF  FF8
0BE30:  CALL   37BA
....................       SendDataDisplay(); 
0BE34:  CALL   37EC
0BE38:  MOVLB  3
....................    } 
.................... } 
.................... //_-------------------------------------------------------------------------------------------------------------------------------------------------------- 
....................  
.................... //_-------------------------------------------------------------------------------------------------------------------------------------------------------- 
....................       if(Menu==100){ //Menu de Configuracin de Parametros de Control 
0BE3A:  MOVF   x41,W
0BE3C:  SUBLW  64
0BE3E:  BTFSS  FD8.2
0BE40:  GOTO   D4A0
....................       
....................       if(Opcion2>17) 
0BE44:  MOVF   x4A,W
0BE46:  SUBLW  11
0BE48:  BC    BE4E
....................          Opcion2=1; 
0BE4A:  MOVLW  01
0BE4C:  MOVWF  x4A
....................       if(Opcion2<1) 
0BE4E:  MOVF   x4A,F
0BE50:  BNZ   BE56
....................          Opcion2=17; 
0BE52:  MOVLW  11
0BE54:  MOVWF  x4A
....................        
....................       if(Opcion2==1){ 
0BE56:  DECFSZ x4A,W
0BE58:  BRA    BFD6
....................          printf("Config.t2c.txt=\"Proporcional\""); 
0BE5A:  MOVLW  F4
0BE5C:  MOVWF  FF6
0BE5E:  MOVLW  19
0BE60:  MOVWF  FF7
0BE62:  MOVLW  00
0BE64:  MOVWF  FF8
0BE66:  MOVLB  0
0BE68:  CALL   37BA
....................          SendDataDisplay();       
0BE6C:  CALL   37EC
....................          printf("t3c.txt=\"%2.0f\"",Ganancia); 
0BE70:  MOVLW  12
0BE72:  MOVWF  FF6
0BE74:  MOVLW  1A
0BE76:  MOVWF  FF7
0BE78:  MOVLW  00
0BE7A:  MOVWF  FF8
0BE7C:  MOVLW  09
0BE7E:  MOVLB  6
0BE80:  MOVWF  x9A
0BE82:  MOVLB  0
0BE84:  CALL   4EA0
0BE88:  MOVLW  01
0BE8A:  MOVWF  FE9
0BE8C:  MOVFF  2F2,69D
0BE90:  MOVFF  2F1,69C
0BE94:  MOVFF  2F0,69B
0BE98:  MOVFF  2EF,69A
0BE9C:  MOVLB  6
0BE9E:  CLRF   x9E
0BEA0:  MOVLB  0
0BEA2:  CALL   521C
0BEA6:  MOVLW  22
0BEA8:  BTFSS  F9E.4
0BEAA:  BRA    BEA8
0BEAC:  MOVWF  FAD
....................          SendDataDisplay(); 
0BEAE:  CALL   37EC
....................          if(RX_Buffer[4]==0x0a || UP){//Tecla Arriba Oprimida 
0BEB2:  MOVF   34,W
0BEB4:  SUBLW  0A
0BEB6:  BZ    BEBE
0BEB8:  BSF    F93.0
0BEBA:  BTFSC  F81.0
0BEBC:  BRA    BF0E
....................             delay_ms(20); 
0BEBE:  MOVLW  14
0BEC0:  MOVLB  6
0BEC2:  MOVWF  xA8
0BEC4:  MOVLB  0
0BEC6:  CALL   1D14
....................             if(RX_Buffer[4]==0x0a || UP){ 
0BECA:  MOVF   34,W
0BECC:  SUBLW  0A
0BECE:  BZ    BED6
0BED0:  BSF    F93.0
0BED2:  BTFSC  F81.0
0BED4:  BRA    BF0E
....................                Ganancia+=1.0; 
0BED6:  BCF    FD8.1
0BED8:  MOVFF  2F2,6AB
0BEDC:  MOVFF  2F1,6AA
0BEE0:  MOVFF  2F0,6A9
0BEE4:  MOVFF  2EF,6A8
0BEE8:  MOVLB  6
0BEEA:  CLRF   xAF
0BEEC:  CLRF   xAE
0BEEE:  CLRF   xAD
0BEF0:  MOVLW  7F
0BEF2:  MOVWF  xAC
0BEF4:  MOVLB  0
0BEF6:  CALL   1ED0
0BEFA:  MOVFF  03,2F2
0BEFE:  MOVFF  02,2F1
0BF02:  MOVFF  01,2F0
0BF06:  MOVFF  00,2EF
....................                RX_Buffer[4]=0x00;   
0BF0A:  CLRF   34
....................                RX_Buffer2[4]=0x00;             
0BF0C:  CLRF   3F
....................             } 
....................          } 
....................              
....................          if(RX_Buffer[4]==0x0b || DOWN){//Tecla Abajo Oprimida 
0BF0E:  MOVF   34,W
0BF10:  SUBLW  0B
0BF12:  BZ    BF1A
0BF14:  BSF    F93.1
0BF16:  BTFSC  F81.1
0BF18:  BRA    BF6A
....................             delay_ms(20); 
0BF1A:  MOVLW  14
0BF1C:  MOVLB  6
0BF1E:  MOVWF  xA8
0BF20:  MOVLB  0
0BF22:  CALL   1D14
....................             if(RX_Buffer[4]==0x0b || DOWN){ 
0BF26:  MOVF   34,W
0BF28:  SUBLW  0B
0BF2A:  BZ    BF32
0BF2C:  BSF    F93.1
0BF2E:  BTFSC  F81.1
0BF30:  BRA    BF6A
....................                Ganancia-=1.0; 
0BF32:  BSF    FD8.1
0BF34:  MOVFF  2F2,6AB
0BF38:  MOVFF  2F1,6AA
0BF3C:  MOVFF  2F0,6A9
0BF40:  MOVFF  2EF,6A8
0BF44:  MOVLB  6
0BF46:  CLRF   xAF
0BF48:  CLRF   xAE
0BF4A:  CLRF   xAD
0BF4C:  MOVLW  7F
0BF4E:  MOVWF  xAC
0BF50:  MOVLB  0
0BF52:  CALL   1ED0
0BF56:  MOVFF  03,2F2
0BF5A:  MOVFF  02,2F1
0BF5E:  MOVFF  01,2F0
0BF62:  MOVFF  00,2EF
....................                RX_Buffer[4]=0x00; 
0BF66:  CLRF   34
....................                RX_Buffer2[4]=0x00;             
0BF68:  CLRF   3F
....................             } 
....................          } 
....................           
....................          if(Ganancia>40) 
0BF6A:  MOVLB  6
0BF6C:  CLRF   x9F
0BF6E:  CLRF   x9E
0BF70:  MOVLW  20
0BF72:  MOVWF  x9D
0BF74:  MOVLW  84
0BF76:  MOVWF  x9C
0BF78:  MOVFF  2F2,6A3
0BF7C:  MOVFF  2F1,6A2
0BF80:  MOVFF  2F0,6A1
0BF84:  MOVFF  2EF,6A0
0BF88:  MOVLB  0
0BF8A:  CALL   2EBE
0BF8E:  BNC   BF9C
....................             Ganancia=1; 
0BF90:  MOVLB  2
0BF92:  CLRF   xF2
0BF94:  CLRF   xF1
0BF96:  CLRF   xF0
0BF98:  MOVLW  7F
0BF9A:  MOVWF  xEF
....................          if(Ganancia<1) 
0BF9C:  MOVFF  2F2,69F
0BFA0:  MOVFF  2F1,69E
0BFA4:  MOVFF  2F0,69D
0BFA8:  MOVFF  2EF,69C
0BFAC:  MOVLB  6
0BFAE:  CLRF   xA3
0BFB0:  CLRF   xA2
0BFB2:  CLRF   xA1
0BFB4:  MOVLW  7F
0BFB6:  MOVWF  xA0
0BFB8:  MOVLB  0
0BFBA:  CALL   2EBE
0BFBE:  BNC   BFD0
....................             Ganancia=40; 
0BFC0:  MOVLB  2
0BFC2:  CLRF   xF2
0BFC4:  CLRF   xF1
0BFC6:  MOVLW  20
0BFC8:  MOVWF  xF0
0BFCA:  MOVLW  84
0BFCC:  MOVWF  xEF
0BFCE:  MOVLB  0
....................       }else if(Opcion2==2){ 
0BFD0:  GOTO   CD88
0BFD4:  MOVLB  3
0BFD6:  MOVF   x4A,W
0BFD8:  SUBLW  02
0BFDA:  BNZ   C09A
....................          printf("Config.t2c.txt=\"Derivativo\""); 
0BFDC:  MOVLW  22
0BFDE:  MOVWF  FF6
0BFE0:  MOVLW  1A
0BFE2:  MOVWF  FF7
0BFE4:  MOVLW  00
0BFE6:  MOVWF  FF8
0BFE8:  MOVLB  0
0BFEA:  CALL   37BA
....................          SendDataDisplay();       
0BFEE:  CALL   37EC
....................          printf("t3c.txt=\"%u\"",Derivativo); 
0BFF2:  MOVLW  3E
0BFF4:  MOVWF  FF6
0BFF6:  MOVLW  1A
0BFF8:  MOVWF  FF7
0BFFA:  MOVLW  00
0BFFC:  MOVWF  FF8
0BFFE:  MOVLW  09
0C000:  MOVLB  6
0C002:  MOVWF  x9A
0C004:  MOVLB  0
0C006:  CALL   4EA0
0C00A:  MOVFF  328,698
0C00E:  MOVLW  1B
0C010:  MOVLB  6
0C012:  MOVWF  x99
0C014:  MOVLB  0
0C016:  CALL   4EFE
0C01A:  MOVLW  22
0C01C:  BTFSS  F9E.4
0C01E:  BRA    C01C
0C020:  MOVWF  FAD
....................          SendDataDisplay(); 
0C022:  CALL   37EC
....................          if(RX_Buffer[4]==0x0a || UP){//Tecla Arriba Oprimida 
0C026:  MOVF   34,W
0C028:  SUBLW  0A
0C02A:  BZ    C032
0C02C:  BSF    F93.0
0C02E:  BTFSC  F81.0
0C030:  BRA    C054
....................             delay_ms(20); 
0C032:  MOVLW  14
0C034:  MOVLB  6
0C036:  MOVWF  xA8
0C038:  MOVLB  0
0C03A:  CALL   1D14
....................             if(RX_Buffer[4]==0x0a || UP){ 
0C03E:  MOVF   34,W
0C040:  SUBLW  0A
0C042:  BZ    C04A
0C044:  BSF    F93.0
0C046:  BTFSC  F81.0
0C048:  BRA    C054
....................                Derivativo++; 
0C04A:  MOVLB  3
0C04C:  INCF   x28,F
....................                RX_Buffer[4]=0x00;   
0C04E:  CLRF   34
....................                RX_Buffer2[4]=0x00;                            
0C050:  CLRF   3F
0C052:  MOVLB  0
....................             } 
....................          } 
....................              
....................          if(RX_Buffer[4]==0x0b || DOWN){//Tecla Abajo Oprimida 
0C054:  MOVF   34,W
0C056:  SUBLW  0B
0C058:  BZ    C060
0C05A:  BSF    F93.1
0C05C:  BTFSC  F81.1
0C05E:  BRA    C082
....................             delay_ms(20); 
0C060:  MOVLW  14
0C062:  MOVLB  6
0C064:  MOVWF  xA8
0C066:  MOVLB  0
0C068:  CALL   1D14
....................             if(RX_Buffer[4]==0x0b || DOWN){ 
0C06C:  MOVF   34,W
0C06E:  SUBLW  0B
0C070:  BZ    C078
0C072:  BSF    F93.1
0C074:  BTFSC  F81.1
0C076:  BRA    C082
....................                Derivativo--; 
0C078:  MOVLB  3
0C07A:  DECF   x28,F
....................                RX_Buffer[4]=0x00; 
0C07C:  CLRF   34
....................                RX_Buffer2[4]=0x00;                            
0C07E:  CLRF   3F
0C080:  MOVLB  0
....................             } 
....................          } 
....................           
....................          if(Derivativo>40) 
0C082:  MOVLB  3
0C084:  MOVF   x28,W
0C086:  SUBLW  28
0C088:  BC    C08E
....................             Derivativo=1; 
0C08A:  MOVLW  01
0C08C:  MOVWF  x28
....................          if(Derivativo<1) 
0C08E:  MOVF   x28,F
0C090:  BNZ   C096
....................             Derivativo=40; 
0C092:  MOVLW  28
0C094:  MOVWF  x28
....................       }else if(Opcion2==3){ 
0C096:  GOTO   CD86
0C09A:  MOVF   x4A,W
0C09C:  SUBLW  03
0C09E:  BNZ   C15E
....................          printf("Config.t2c.txt=\"Integral\""); 
0C0A0:  MOVLW  4C
0C0A2:  MOVWF  FF6
0C0A4:  MOVLW  1A
0C0A6:  MOVWF  FF7
0C0A8:  MOVLW  00
0C0AA:  MOVWF  FF8
0C0AC:  MOVLB  0
0C0AE:  CALL   37BA
....................          SendDataDisplay();       
0C0B2:  CALL   37EC
....................          printf("t3c.txt=\"%u\"",Integral); 
0C0B6:  MOVLW  66
0C0B8:  MOVWF  FF6
0C0BA:  MOVLW  1A
0C0BC:  MOVWF  FF7
0C0BE:  MOVLW  00
0C0C0:  MOVWF  FF8
0C0C2:  MOVLW  09
0C0C4:  MOVLB  6
0C0C6:  MOVWF  x9A
0C0C8:  MOVLB  0
0C0CA:  CALL   4EA0
0C0CE:  MOVFF  327,698
0C0D2:  MOVLW  1B
0C0D4:  MOVLB  6
0C0D6:  MOVWF  x99
0C0D8:  MOVLB  0
0C0DA:  CALL   4EFE
0C0DE:  MOVLW  22
0C0E0:  BTFSS  F9E.4
0C0E2:  BRA    C0E0
0C0E4:  MOVWF  FAD
....................          SendDataDisplay(); 
0C0E6:  CALL   37EC
....................          if(RX_Buffer[4]==0x0a || UP){//Tecla Arriba Oprimida 
0C0EA:  MOVF   34,W
0C0EC:  SUBLW  0A
0C0EE:  BZ    C0F6
0C0F0:  BSF    F93.0
0C0F2:  BTFSC  F81.0
0C0F4:  BRA    C118
....................             delay_ms(20); 
0C0F6:  MOVLW  14
0C0F8:  MOVLB  6
0C0FA:  MOVWF  xA8
0C0FC:  MOVLB  0
0C0FE:  CALL   1D14
....................             if(RX_Buffer[4]==0x0a || UP){ 
0C102:  MOVF   34,W
0C104:  SUBLW  0A
0C106:  BZ    C10E
0C108:  BSF    F93.0
0C10A:  BTFSC  F81.0
0C10C:  BRA    C118
....................                Integral++; 
0C10E:  MOVLB  3
0C110:  INCF   x27,F
....................                RX_Buffer[4]=0x00;   
0C112:  CLRF   34
....................                RX_Buffer2[4]=0x00;             
0C114:  CLRF   3F
0C116:  MOVLB  0
....................             } 
....................          } 
....................              
....................          if(RX_Buffer[4]==0x0b || DOWN){//Tecla Abajo Oprimida 
0C118:  MOVF   34,W
0C11A:  SUBLW  0B
0C11C:  BZ    C124
0C11E:  BSF    F93.1
0C120:  BTFSC  F81.1
0C122:  BRA    C146
....................             delay_ms(20); 
0C124:  MOVLW  14
0C126:  MOVLB  6
0C128:  MOVWF  xA8
0C12A:  MOVLB  0
0C12C:  CALL   1D14
....................             if(RX_Buffer[4]==0x0b || DOWN){ 
0C130:  MOVF   34,W
0C132:  SUBLW  0B
0C134:  BZ    C13C
0C136:  BSF    F93.1
0C138:  BTFSC  F81.1
0C13A:  BRA    C146
....................                Integral--; 
0C13C:  MOVLB  3
0C13E:  DECF   x27,F
....................                RX_Buffer[4]=0x00; 
0C140:  CLRF   34
....................                RX_Buffer2[4]=0x00;                            
0C142:  CLRF   3F
0C144:  MOVLB  0
....................             } 
....................          } 
....................           
....................          if(Integral>4) 
0C146:  MOVLB  3
0C148:  MOVF   x27,W
0C14A:  SUBLW  04
0C14C:  BC    C152
....................             Integral=1; 
0C14E:  MOVLW  01
0C150:  MOVWF  x27
....................          if(Integral<1) 
0C152:  MOVF   x27,F
0C154:  BNZ   C15A
....................             Integral=4; 
0C156:  MOVLW  04
0C158:  MOVWF  x27
....................       }else if(Opcion2==4){ 
0C15A:  GOTO   CD86
0C15E:  MOVF   x4A,W
0C160:  SUBLW  04
0C162:  BTFSS  FD8.2
0C164:  BRA    C2E6
....................          printf("Config.t2c.txt=\"Tciclo\""); 
0C166:  MOVLW  74
0C168:  MOVWF  FF6
0C16A:  MOVLW  1A
0C16C:  MOVWF  FF7
0C16E:  MOVLW  00
0C170:  MOVWF  FF8
0C172:  MOVLB  0
0C174:  CALL   37BA
....................          SendDataDisplay();       
0C178:  CALL   37EC
....................          printf("t3c.txt=\"%2.0f\"",Tciclo); 
0C17C:  MOVLW  8C
0C17E:  MOVWF  FF6
0C180:  MOVLW  1A
0C182:  MOVWF  FF7
0C184:  MOVLW  00
0C186:  MOVWF  FF8
0C188:  MOVLW  09
0C18A:  MOVLB  6
0C18C:  MOVWF  x9A
0C18E:  MOVLB  0
0C190:  CALL   4EA0
0C194:  MOVLW  01
0C196:  MOVWF  FE9
0C198:  MOVFF  2DA,69D
0C19C:  MOVFF  2D9,69C
0C1A0:  MOVFF  2D8,69B
0C1A4:  MOVFF  2D7,69A
0C1A8:  MOVLB  6
0C1AA:  CLRF   x9E
0C1AC:  MOVLB  0
0C1AE:  CALL   521C
0C1B2:  MOVLW  22
0C1B4:  BTFSS  F9E.4
0C1B6:  BRA    C1B4
0C1B8:  MOVWF  FAD
....................          SendDataDisplay(); 
0C1BA:  CALL   37EC
....................          if(RX_Buffer[4]==0x0a || UP){//Tecla Arriba Oprimida 
0C1BE:  MOVF   34,W
0C1C0:  SUBLW  0A
0C1C2:  BZ    C1CA
0C1C4:  BSF    F93.0
0C1C6:  BTFSC  F81.0
0C1C8:  BRA    C21A
....................             delay_ms(20); 
0C1CA:  MOVLW  14
0C1CC:  MOVLB  6
0C1CE:  MOVWF  xA8
0C1D0:  MOVLB  0
0C1D2:  CALL   1D14
....................             if(RX_Buffer[4]==0x0a || UP){ 
0C1D6:  MOVF   34,W
0C1D8:  SUBLW  0A
0C1DA:  BZ    C1E2
0C1DC:  BSF    F93.0
0C1DE:  BTFSC  F81.0
0C1E0:  BRA    C21A
....................                Tciclo+=1.0; 
0C1E2:  BCF    FD8.1
0C1E4:  MOVFF  2DA,6AB
0C1E8:  MOVFF  2D9,6AA
0C1EC:  MOVFF  2D8,6A9
0C1F0:  MOVFF  2D7,6A8
0C1F4:  MOVLB  6
0C1F6:  CLRF   xAF
0C1F8:  CLRF   xAE
0C1FA:  CLRF   xAD
0C1FC:  MOVLW  7F
0C1FE:  MOVWF  xAC
0C200:  MOVLB  0
0C202:  CALL   1ED0
0C206:  MOVFF  03,2DA
0C20A:  MOVFF  02,2D9
0C20E:  MOVFF  01,2D8
0C212:  MOVFF  00,2D7
....................                RX_Buffer[4]=0x00;   
0C216:  CLRF   34
....................                RX_Buffer2[4]=0x00;             
0C218:  CLRF   3F
....................             } 
....................          } 
....................              
....................          if(RX_Buffer[4]==0x0b || DOWN){//Tecla Abajo Oprimida 
0C21A:  MOVF   34,W
0C21C:  SUBLW  0B
0C21E:  BZ    C226
0C220:  BSF    F93.1
0C222:  BTFSC  F81.1
0C224:  BRA    C276
....................             delay_ms(20); 
0C226:  MOVLW  14
0C228:  MOVLB  6
0C22A:  MOVWF  xA8
0C22C:  MOVLB  0
0C22E:  CALL   1D14
....................             if(RX_Buffer[4]==0x0b || DOWN){ 
0C232:  MOVF   34,W
0C234:  SUBLW  0B
0C236:  BZ    C23E
0C238:  BSF    F93.1
0C23A:  BTFSC  F81.1
0C23C:  BRA    C276
....................                Tciclo-=1.0; 
0C23E:  BSF    FD8.1
0C240:  MOVFF  2DA,6AB
0C244:  MOVFF  2D9,6AA
0C248:  MOVFF  2D8,6A9
0C24C:  MOVFF  2D7,6A8
0C250:  MOVLB  6
0C252:  CLRF   xAF
0C254:  CLRF   xAE
0C256:  CLRF   xAD
0C258:  MOVLW  7F
0C25A:  MOVWF  xAC
0C25C:  MOVLB  0
0C25E:  CALL   1ED0
0C262:  MOVFF  03,2DA
0C266:  MOVFF  02,2D9
0C26A:  MOVFF  01,2D8
0C26E:  MOVFF  00,2D7
....................                RX_Buffer[4]=0x00; 
0C272:  CLRF   34
....................                RX_Buffer2[4]=0x00;             
0C274:  CLRF   3F
....................             } 
....................          } 
....................           
....................          if(Tciclo>20) 
0C276:  MOVLB  6
0C278:  CLRF   x9F
0C27A:  CLRF   x9E
0C27C:  MOVLW  20
0C27E:  MOVWF  x9D
0C280:  MOVLW  83
0C282:  MOVWF  x9C
0C284:  MOVFF  2DA,6A3
0C288:  MOVFF  2D9,6A2
0C28C:  MOVFF  2D8,6A1
0C290:  MOVFF  2D7,6A0
0C294:  MOVLB  0
0C296:  CALL   2EBE
0C29A:  BNC   C2AA
....................             Tciclo=5; 
0C29C:  MOVLB  2
0C29E:  CLRF   xDA
0C2A0:  CLRF   xD9
0C2A2:  MOVLW  20
0C2A4:  MOVWF  xD8
0C2A6:  MOVLW  81
0C2A8:  MOVWF  xD7
....................          if(Tciclo<5) 
0C2AA:  MOVFF  2DA,69F
0C2AE:  MOVFF  2D9,69E
0C2B2:  MOVFF  2D8,69D
0C2B6:  MOVFF  2D7,69C
0C2BA:  MOVLB  6
0C2BC:  CLRF   xA3
0C2BE:  CLRF   xA2
0C2C0:  MOVLW  20
0C2C2:  MOVWF  xA1
0C2C4:  MOVLW  81
0C2C6:  MOVWF  xA0
0C2C8:  MOVLB  0
0C2CA:  CALL   2EBE
0C2CE:  BNC   C2E0
....................             Tciclo=20; 
0C2D0:  MOVLB  2
0C2D2:  CLRF   xDA
0C2D4:  CLRF   xD9
0C2D6:  MOVLW  20
0C2D8:  MOVWF  xD8
0C2DA:  MOVLW  83
0C2DC:  MOVWF  xD7
0C2DE:  MOVLB  0
....................       }else if(Opcion2==5){ 
0C2E0:  GOTO   CD88
0C2E4:  MOVLB  3
0C2E6:  MOVF   x4A,W
0C2E8:  SUBLW  05
0C2EA:  BNZ   C3A2
....................          printf("Config.t2c.txt=\"Ajuste +\""); 
0C2EC:  MOVLW  9C
0C2EE:  MOVWF  FF6
0C2F0:  MOVLW  1A
0C2F2:  MOVWF  FF7
0C2F4:  MOVLW  00
0C2F6:  MOVWF  FF8
0C2F8:  MOVLB  0
0C2FA:  CALL   37BA
....................          SendDataDisplay();       
0C2FE:  CALL   37EC
....................          printf("t3c.txt=\"%u\"",Sensor[0].Ajuste); 
0C302:  MOVLW  B6
0C304:  MOVWF  FF6
0C306:  MOVLW  1A
0C308:  MOVWF  FF7
0C30A:  MOVLW  00
0C30C:  MOVWF  FF8
0C30E:  MOVLW  09
0C310:  MOVLB  6
0C312:  MOVWF  x9A
0C314:  MOVLB  0
0C316:  CALL   4EA0
0C31A:  MOVFF  3C4,698
0C31E:  MOVLW  1B
0C320:  MOVLB  6
0C322:  MOVWF  x99
0C324:  MOVLB  0
0C326:  CALL   4EFE
0C32A:  MOVLW  22
0C32C:  BTFSS  F9E.4
0C32E:  BRA    C32C
0C330:  MOVWF  FAD
....................          SendDataDisplay(); 
0C332:  CALL   37EC
....................          if(RX_Buffer[4]==0x0a || UP){//Tecla Arriba Oprimida 
0C336:  MOVF   34,W
0C338:  SUBLW  0A
0C33A:  BZ    C342
0C33C:  BSF    F93.0
0C33E:  BTFSC  F81.0
0C340:  BRA    C36A
....................             delay_ms(20); 
0C342:  MOVLW  14
0C344:  MOVLB  6
0C346:  MOVWF  xA8
0C348:  MOVLB  0
0C34A:  CALL   1D14
....................             if(RX_Buffer[4]==0x0a || UP){ 
0C34E:  MOVF   34,W
0C350:  SUBLW  0A
0C352:  BZ    C35A
0C354:  BSF    F93.0
0C356:  BTFSC  F81.0
0C358:  BRA    C36A
....................                if(Sensor[0].Ajuste<40) 
0C35A:  MOVLB  3
0C35C:  MOVF   xC4,W
0C35E:  SUBLW  27
0C360:  BNC   C364
....................                   Sensor[0].Ajuste++; 
0C362:  INCF   xC4,F
....................                RX_Buffer[4]=0x00;   
0C364:  CLRF   34
....................                RX_Buffer2[4]=0x00;             
0C366:  CLRF   3F
0C368:  MOVLB  0
....................             } 
....................          } 
....................              
....................          if(RX_Buffer[4]==0x0b || DOWN){//Tecla Abajo Oprimida 
0C36A:  MOVF   34,W
0C36C:  SUBLW  0B
0C36E:  BZ    C376
0C370:  BSF    F93.1
0C372:  BTFSC  F81.1
0C374:  BRA    C39C
....................             delay_ms(20); 
0C376:  MOVLW  14
0C378:  MOVLB  6
0C37A:  MOVWF  xA8
0C37C:  MOVLB  0
0C37E:  CALL   1D14
....................             if(RX_Buffer[4]==0x0b || DOWN){ 
0C382:  MOVF   34,W
0C384:  SUBLW  0B
0C386:  BZ    C38E
0C388:  BSF    F93.1
0C38A:  BTFSC  F81.1
0C38C:  BRA    C39C
....................                if(Sensor[0].Ajuste>0) 
0C38E:  MOVLB  3
0C390:  MOVF   xC4,F
0C392:  BZ    C396
....................                   Sensor[0].Ajuste--; 
0C394:  DECF   xC4,F
....................                RX_Buffer[4]=0x00; 
0C396:  CLRF   34
....................                RX_Buffer2[4]=0x00;             
0C398:  CLRF   3F
0C39A:  MOVLB  0
....................             } 
....................          } 
....................       }else if(Opcion2==6){ 
0C39C:  GOTO   CD88
0C3A0:  MOVLB  3
0C3A2:  MOVF   x4A,W
0C3A4:  SUBLW  06
0C3A6:  BNZ   C45E
....................          printf("Config.t2c.txt=\"Ajuste -\""); 
0C3A8:  MOVLW  C4
0C3AA:  MOVWF  FF6
0C3AC:  MOVLW  1A
0C3AE:  MOVWF  FF7
0C3B0:  MOVLW  00
0C3B2:  MOVWF  FF8
0C3B4:  MOVLB  0
0C3B6:  CALL   37BA
....................          SendDataDisplay();       
0C3BA:  CALL   37EC
....................          printf("t3c.txt=\"%u\"",Sensor[0].Ajusten); 
0C3BE:  MOVLW  DE
0C3C0:  MOVWF  FF6
0C3C2:  MOVLW  1A
0C3C4:  MOVWF  FF7
0C3C6:  MOVLW  00
0C3C8:  MOVWF  FF8
0C3CA:  MOVLW  09
0C3CC:  MOVLB  6
0C3CE:  MOVWF  x9A
0C3D0:  MOVLB  0
0C3D2:  CALL   4EA0
0C3D6:  MOVFF  3C5,698
0C3DA:  MOVLW  1B
0C3DC:  MOVLB  6
0C3DE:  MOVWF  x99
0C3E0:  MOVLB  0
0C3E2:  CALL   4EFE
0C3E6:  MOVLW  22
0C3E8:  BTFSS  F9E.4
0C3EA:  BRA    C3E8
0C3EC:  MOVWF  FAD
....................          SendDataDisplay(); 
0C3EE:  CALL   37EC
....................          if(RX_Buffer[4]==0x0a || UP){//Tecla Arriba Oprimida 
0C3F2:  MOVF   34,W
0C3F4:  SUBLW  0A
0C3F6:  BZ    C3FE
0C3F8:  BSF    F93.0
0C3FA:  BTFSC  F81.0
0C3FC:  BRA    C426
....................             delay_ms(20); 
0C3FE:  MOVLW  14
0C400:  MOVLB  6
0C402:  MOVWF  xA8
0C404:  MOVLB  0
0C406:  CALL   1D14
....................             if(RX_Buffer[4]==0x0a || UP){ 
0C40A:  MOVF   34,W
0C40C:  SUBLW  0A
0C40E:  BZ    C416
0C410:  BSF    F93.0
0C412:  BTFSC  F81.0
0C414:  BRA    C426
....................                if(Sensor[0].Ajusten<40) 
0C416:  MOVLB  3
0C418:  MOVF   xC5,W
0C41A:  SUBLW  27
0C41C:  BNC   C420
....................                   Sensor[0].Ajusten++; 
0C41E:  INCF   xC5,F
....................                RX_Buffer[4]=0x00;   
0C420:  CLRF   34
....................                RX_Buffer2[4]=0x00;             
0C422:  CLRF   3F
0C424:  MOVLB  0
....................             }          
....................          } 
....................              
....................          if(RX_Buffer[4]==0x0b || DOWN){//Tecla Abajo Oprimida 
0C426:  MOVF   34,W
0C428:  SUBLW  0B
0C42A:  BZ    C432
0C42C:  BSF    F93.1
0C42E:  BTFSC  F81.1
0C430:  BRA    C458
....................             delay_ms(20); 
0C432:  MOVLW  14
0C434:  MOVLB  6
0C436:  MOVWF  xA8
0C438:  MOVLB  0
0C43A:  CALL   1D14
....................             if(RX_Buffer[4]==0x0b || DOWN){ 
0C43E:  MOVF   34,W
0C440:  SUBLW  0B
0C442:  BZ    C44A
0C444:  BSF    F93.1
0C446:  BTFSC  F81.1
0C448:  BRA    C458
....................                if(Sensor[0].Ajusten>0) 
0C44A:  MOVLB  3
0C44C:  MOVF   xC5,F
0C44E:  BZ    C452
....................                   Sensor[0].Ajusten--; 
0C450:  DECF   xC5,F
....................                RX_Buffer[4]=0x00; 
0C452:  CLRF   34
....................                RX_Buffer2[4]=0x00;             
0C454:  CLRF   3F
0C456:  MOVLB  0
....................             } 
....................          } 
....................       }else if(Opcion2==7){ 
0C458:  GOTO   CD88
0C45C:  MOVLB  3
0C45E:  MOVF   x4A,W
0C460:  SUBLW  07
0C462:  BNZ   C51A
....................          printf("Config.t2c.txt=\"Ajuste2 +\""); 
0C464:  MOVLW  EC
0C466:  MOVWF  FF6
0C468:  MOVLW  1A
0C46A:  MOVWF  FF7
0C46C:  MOVLW  00
0C46E:  MOVWF  FF8
0C470:  MOVLB  0
0C472:  CALL   37BA
....................          SendDataDisplay();       
0C476:  CALL   37EC
....................          printf("t3c.txt=\"%u\"",Sensor[1].Ajuste); 
0C47A:  MOVLW  08
0C47C:  MOVWF  FF6
0C47E:  MOVLW  1B
0C480:  MOVWF  FF7
0C482:  MOVLW  00
0C484:  MOVWF  FF8
0C486:  MOVLW  09
0C488:  MOVLB  6
0C48A:  MOVWF  x9A
0C48C:  MOVLB  0
0C48E:  CALL   4EA0
0C492:  MOVFF  528,698
0C496:  MOVLW  1B
0C498:  MOVLB  6
0C49A:  MOVWF  x99
0C49C:  MOVLB  0
0C49E:  CALL   4EFE
0C4A2:  MOVLW  22
0C4A4:  BTFSS  F9E.4
0C4A6:  BRA    C4A4
0C4A8:  MOVWF  FAD
....................          SendDataDisplay(); 
0C4AA:  CALL   37EC
....................          if(RX_Buffer[4]==0x0a || UP){//Tecla Arriba Oprimida 
0C4AE:  MOVF   34,W
0C4B0:  SUBLW  0A
0C4B2:  BZ    C4BA
0C4B4:  BSF    F93.0
0C4B6:  BTFSC  F81.0
0C4B8:  BRA    C4E2
....................             delay_ms(20); 
0C4BA:  MOVLW  14
0C4BC:  MOVLB  6
0C4BE:  MOVWF  xA8
0C4C0:  MOVLB  0
0C4C2:  CALL   1D14
....................             if(RX_Buffer[4]==0x0a || UP){ 
0C4C6:  MOVF   34,W
0C4C8:  SUBLW  0A
0C4CA:  BZ    C4D2
0C4CC:  BSF    F93.0
0C4CE:  BTFSC  F81.0
0C4D0:  BRA    C4E2
....................                if(Sensor[1].Ajuste<40) 
0C4D2:  MOVLB  5
0C4D4:  MOVF   x28,W
0C4D6:  SUBLW  27
0C4D8:  BNC   C4DC
....................                   Sensor[1].Ajuste++; 
0C4DA:  INCF   x28,F
....................                RX_Buffer[4]=0x00;   
0C4DC:  CLRF   34
....................                RX_Buffer2[4]=0x00;             
0C4DE:  CLRF   3F
0C4E0:  MOVLB  0
....................             } 
....................          } 
....................              
....................          if(RX_Buffer[4]==0x0b || DOWN){//Tecla Abajo Oprimida 
0C4E2:  MOVF   34,W
0C4E4:  SUBLW  0B
0C4E6:  BZ    C4EE
0C4E8:  BSF    F93.1
0C4EA:  BTFSC  F81.1
0C4EC:  BRA    C514
....................             delay_ms(20); 
0C4EE:  MOVLW  14
0C4F0:  MOVLB  6
0C4F2:  MOVWF  xA8
0C4F4:  MOVLB  0
0C4F6:  CALL   1D14
....................             if(RX_Buffer[4]==0x0b || DOWN){ 
0C4FA:  MOVF   34,W
0C4FC:  SUBLW  0B
0C4FE:  BZ    C506
0C500:  BSF    F93.1
0C502:  BTFSC  F81.1
0C504:  BRA    C514
....................                if(Sensor[1].Ajuste>0) 
0C506:  MOVLB  5
0C508:  MOVF   x28,F
0C50A:  BZ    C50E
....................                   Sensor[1].Ajuste--; 
0C50C:  DECF   x28,F
....................                RX_Buffer[4]=0x00; 
0C50E:  CLRF   34
....................                RX_Buffer2[4]=0x00;             
0C510:  CLRF   3F
0C512:  MOVLB  0
....................             }            
....................          } 
....................       }else if(Opcion2==8){ 
0C514:  GOTO   CD88
0C518:  MOVLB  3
0C51A:  MOVF   x4A,W
0C51C:  SUBLW  08
0C51E:  BNZ   C5D6
....................          printf("Config.t2c.txt=\"Ajuste2 -\""); 
0C520:  MOVLW  16
0C522:  MOVWF  FF6
0C524:  MOVLW  1B
0C526:  MOVWF  FF7
0C528:  MOVLW  00
0C52A:  MOVWF  FF8
0C52C:  MOVLB  0
0C52E:  CALL   37BA
....................          SendDataDisplay();       
0C532:  CALL   37EC
....................          printf("t3c.txt=\"%u\"",Sensor[1].Ajusten); 
0C536:  MOVLW  32
0C538:  MOVWF  FF6
0C53A:  MOVLW  1B
0C53C:  MOVWF  FF7
0C53E:  MOVLW  00
0C540:  MOVWF  FF8
0C542:  MOVLW  09
0C544:  MOVLB  6
0C546:  MOVWF  x9A
0C548:  MOVLB  0
0C54A:  CALL   4EA0
0C54E:  MOVFF  529,698
0C552:  MOVLW  1B
0C554:  MOVLB  6
0C556:  MOVWF  x99
0C558:  MOVLB  0
0C55A:  CALL   4EFE
0C55E:  MOVLW  22
0C560:  BTFSS  F9E.4
0C562:  BRA    C560
0C564:  MOVWF  FAD
....................          SendDataDisplay(); 
0C566:  CALL   37EC
....................          if(RX_Buffer[4]==0x0a || UP){//Tecla Arriba Oprimida 
0C56A:  MOVF   34,W
0C56C:  SUBLW  0A
0C56E:  BZ    C576
0C570:  BSF    F93.0
0C572:  BTFSC  F81.0
0C574:  BRA    C59E
....................             delay_ms(20); 
0C576:  MOVLW  14
0C578:  MOVLB  6
0C57A:  MOVWF  xA8
0C57C:  MOVLB  0
0C57E:  CALL   1D14
....................             if(RX_Buffer[4]==0x0a || UP){ 
0C582:  MOVF   34,W
0C584:  SUBLW  0A
0C586:  BZ    C58E
0C588:  BSF    F93.0
0C58A:  BTFSC  F81.0
0C58C:  BRA    C59E
....................                if(Sensor[1].Ajusten<40) 
0C58E:  MOVLB  5
0C590:  MOVF   x29,W
0C592:  SUBLW  27
0C594:  BNC   C598
....................                   Sensor[1].Ajusten++; 
0C596:  INCF   x29,F
....................                RX_Buffer[4]=0x00;   
0C598:  CLRF   34
....................                RX_Buffer2[4]=0x00;             
0C59A:  CLRF   3F
0C59C:  MOVLB  0
....................             } 
....................          } 
....................              
....................          if(RX_Buffer[4]==0x0b || DOWN){//Tecla Abajo Oprimida 
0C59E:  MOVF   34,W
0C5A0:  SUBLW  0B
0C5A2:  BZ    C5AA
0C5A4:  BSF    F93.1
0C5A6:  BTFSC  F81.1
0C5A8:  BRA    C5D0
....................             delay_ms(20); 
0C5AA:  MOVLW  14
0C5AC:  MOVLB  6
0C5AE:  MOVWF  xA8
0C5B0:  MOVLB  0
0C5B2:  CALL   1D14
....................             if(RX_Buffer[4]==0x0b || DOWN){ 
0C5B6:  MOVF   34,W
0C5B8:  SUBLW  0B
0C5BA:  BZ    C5C2
0C5BC:  BSF    F93.1
0C5BE:  BTFSC  F81.1
0C5C0:  BRA    C5D0
....................                if(Sensor[1].Ajusten>0) 
0C5C2:  MOVLB  5
0C5C4:  MOVF   x29,F
0C5C6:  BZ    C5CA
....................                   Sensor[1].Ajusten--; 
0C5C8:  DECF   x29,F
....................                RX_Buffer[4]=0x00; 
0C5CA:  CLRF   34
....................                RX_Buffer2[4]=0x00;             
0C5CC:  CLRF   3F
0C5CE:  MOVLB  0
....................             } 
....................          } 
....................       }else if(Opcion2==9){ 
0C5D0:  GOTO   CD88
0C5D4:  MOVLB  3
0C5D6:  MOVF   x4A,W
0C5D8:  SUBLW  09
0C5DA:  BNZ   C694
....................          printf("Config.t2c.txt=\"Media\""); 
0C5DC:  MOVLW  40
0C5DE:  MOVWF  FF6
0C5E0:  MOVLW  1B
0C5E2:  MOVWF  FF7
0C5E4:  MOVLW  00
0C5E6:  MOVWF  FF8
0C5E8:  MOVLB  0
0C5EA:  CALL   37BA
....................          SendDataDisplay();       
0C5EE:  CALL   37EC
....................          printf("t3c.txt=\"%u\"",MediaMovil); 
0C5F2:  MOVLW  58
0C5F4:  MOVWF  FF6
0C5F6:  MOVLW  1B
0C5F8:  MOVWF  FF7
0C5FA:  MOVLW  00
0C5FC:  MOVWF  FF8
0C5FE:  MOVLW  09
0C600:  MOVLB  6
0C602:  MOVWF  x9A
0C604:  MOVLB  0
0C606:  CALL   4EA0
0C60A:  MOVFF  2C9,698
0C60E:  MOVLW  1B
0C610:  MOVLB  6
0C612:  MOVWF  x99
0C614:  MOVLB  0
0C616:  CALL   4EFE
0C61A:  MOVLW  22
0C61C:  BTFSS  F9E.4
0C61E:  BRA    C61C
0C620:  MOVWF  FAD
....................          SendDataDisplay(); 
0C622:  CALL   37EC
....................          if(RX_Buffer[4]==0x0a || UP){//Tecla Arriba Oprimida 
0C626:  MOVF   34,W
0C628:  SUBLW  0A
0C62A:  BZ    C632
0C62C:  BSF    F93.0
0C62E:  BTFSC  F81.0
0C630:  BRA    C65A
....................             delay_ms(20); 
0C632:  MOVLW  14
0C634:  MOVLB  6
0C636:  MOVWF  xA8
0C638:  MOVLB  0
0C63A:  CALL   1D14
....................             if(RX_Buffer[4]==0x0a || UP){ 
0C63E:  MOVF   34,W
0C640:  SUBLW  0A
0C642:  BZ    C64A
0C644:  BSF    F93.0
0C646:  BTFSC  F81.0
0C648:  BRA    C65A
....................                if(MediaMovil<80) 
0C64A:  MOVLB  2
0C64C:  MOVF   xC9,W
0C64E:  SUBLW  4F
0C650:  BNC   C654
....................                   MediaMovil++; 
0C652:  INCF   xC9,F
....................                RX_Buffer[4]=0x00;   
0C654:  CLRF   34
....................                RX_Buffer2[4]=0x00;             
0C656:  CLRF   3F
0C658:  MOVLB  0
....................             } 
....................          } 
....................              
....................          if(RX_Buffer[4]==0x0b || DOWN){//Tecla Abajo Oprimida 
0C65A:  MOVF   34,W
0C65C:  SUBLW  0B
0C65E:  BZ    C666
0C660:  BSF    F93.1
0C662:  BTFSC  F81.1
0C664:  BRA    C68E
....................             delay_ms(20); 
0C666:  MOVLW  14
0C668:  MOVLB  6
0C66A:  MOVWF  xA8
0C66C:  MOVLB  0
0C66E:  CALL   1D14
....................             if(RX_Buffer[4]==0x0b || DOWN){ 
0C672:  MOVF   34,W
0C674:  SUBLW  0B
0C676:  BZ    C67E
0C678:  BSF    F93.1
0C67A:  BTFSC  F81.1
0C67C:  BRA    C68E
....................                if(MediaMovil>10) 
0C67E:  MOVLB  2
0C680:  MOVF   xC9,W
0C682:  SUBLW  0A
0C684:  BC    C688
....................                   MediaMovil--; 
0C686:  DECF   xC9,F
....................                RX_Buffer[4]=0x00; 
0C688:  CLRF   34
....................                RX_Buffer2[4]=0x00;             
0C68A:  CLRF   3F
0C68C:  MOVLB  0
....................             }             
....................          } 
....................       }else if(Opcion2==10){ 
0C68E:  GOTO   CD88
0C692:  MOVLB  3
0C694:  MOVF   x4A,W
0C696:  SUBLW  0A
0C698:  BTFSS  FD8.2
0C69A:  BRA    C802
....................          printf("Config.t2c.txt=\"RPT100B\""); 
0C69C:  MOVLW  66
0C69E:  MOVWF  FF6
0C6A0:  MOVLW  1B
0C6A2:  MOVWF  FF7
0C6A4:  MOVLW  00
0C6A6:  MOVWF  FF8
0C6A8:  MOVLB  0
0C6AA:  CALL   37BA
....................          SendDataDisplay();       
0C6AE:  CALL   37EC
....................          printf("t3c.txt=\"%2.1f\"",Sensor[0].RPT100); 
0C6B2:  MOVLW  80
0C6B4:  MOVWF  FF6
0C6B6:  MOVLW  1B
0C6B8:  MOVWF  FF7
0C6BA:  MOVLW  00
0C6BC:  MOVWF  FF8
0C6BE:  MOVLW  09
0C6C0:  MOVLB  6
0C6C2:  MOVWF  x9A
0C6C4:  MOVLB  0
0C6C6:  CALL   4EA0
0C6CA:  MOVLW  01
0C6CC:  MOVWF  FE9
0C6CE:  MOVFF  3B9,69D
0C6D2:  MOVFF  3B8,69C
0C6D6:  MOVFF  3B7,69B
0C6DA:  MOVFF  3B6,69A
0C6DE:  MOVLB  6
0C6E0:  MOVWF  x9E
0C6E2:  MOVLB  0
0C6E4:  CALL   521C
0C6E8:  MOVLW  22
0C6EA:  BTFSS  F9E.4
0C6EC:  BRA    C6EA
0C6EE:  MOVWF  FAD
....................          SendDataDisplay(); 
0C6F0:  CALL   37EC
....................          if(RX_Buffer[4]==0x0a || UP){//Tecla Arriba Oprimida 
0C6F4:  MOVF   34,W
0C6F6:  SUBLW  0A
0C6F8:  BZ    C700
0C6FA:  BSF    F93.0
0C6FC:  BTFSC  F81.0
0C6FE:  BRA    C77A
....................             delay_ms(20); 
0C700:  MOVLW  14
0C702:  MOVLB  6
0C704:  MOVWF  xA8
0C706:  MOVLB  0
0C708:  CALL   1D14
....................             if(RX_Buffer[4]==0x0a || UP){ 
0C70C:  MOVF   34,W
0C70E:  SUBLW  0A
0C710:  BZ    C718
0C712:  BSF    F93.0
0C714:  BTFSC  F81.0
0C716:  BRA    C77A
....................                if(Sensor[0].RPT100<2.0) 
0C718:  MOVFF  3B9,69F
0C71C:  MOVFF  3B8,69E
0C720:  MOVFF  3B7,69D
0C724:  MOVFF  3B6,69C
0C728:  MOVLB  6
0C72A:  CLRF   xA3
0C72C:  CLRF   xA2
0C72E:  CLRF   xA1
0C730:  MOVLW  80
0C732:  MOVWF  xA0
0C734:  MOVLB  0
0C736:  CALL   2EBE
0C73A:  BNC   C776
....................                   Sensor[0].RPT100+=0.1; 
0C73C:  BCF    FD8.1
0C73E:  MOVFF  3B9,6AB
0C742:  MOVFF  3B8,6AA
0C746:  MOVFF  3B7,6A9
0C74A:  MOVFF  3B6,6A8
0C74E:  MOVLW  CD
0C750:  MOVLB  6
0C752:  MOVWF  xAF
0C754:  MOVLW  CC
0C756:  MOVWF  xAE
0C758:  MOVLW  4C
0C75A:  MOVWF  xAD
0C75C:  MOVLW  7B
0C75E:  MOVWF  xAC
0C760:  MOVLB  0
0C762:  CALL   1ED0
0C766:  MOVFF  03,3B9
0C76A:  MOVFF  02,3B8
0C76E:  MOVFF  01,3B7
0C772:  MOVFF  00,3B6
....................                RX_Buffer[4]=0x00;   
0C776:  CLRF   34
....................                RX_Buffer2[4]=0x00;             
0C778:  CLRF   3F
....................             } 
....................          } 
....................              
....................          if(RX_Buffer[4]==0x0b || DOWN){//Tecla Abajo Oprimida 
0C77A:  MOVF   34,W
0C77C:  SUBLW  0B
0C77E:  BZ    C786
0C780:  BSF    F93.1
0C782:  BTFSC  F81.1
0C784:  BRA    C7FE
....................             delay_ms(20); 
0C786:  MOVLW  14
0C788:  MOVLB  6
0C78A:  MOVWF  xA8
0C78C:  MOVLB  0
0C78E:  CALL   1D14
....................             if(RX_Buffer[4]==0x0b || DOWN){ 
0C792:  MOVF   34,W
0C794:  SUBLW  0B
0C796:  BZ    C79E
0C798:  BSF    F93.1
0C79A:  BTFSC  F81.1
0C79C:  BRA    C7FE
....................                if(Sensor[0].RPT100>0.0) 
0C79E:  MOVLB  6
0C7A0:  CLRF   x9F
0C7A2:  CLRF   x9E
0C7A4:  CLRF   x9D
0C7A6:  CLRF   x9C
0C7A8:  MOVFF  3B9,6A3
0C7AC:  MOVFF  3B8,6A2
0C7B0:  MOVFF  3B7,6A1
0C7B4:  MOVFF  3B6,6A0
0C7B8:  MOVLB  0
0C7BA:  CALL   2EBE
0C7BE:  BNC   C7FA
....................                   Sensor[0].RPT100-=0.1; 
0C7C0:  BSF    FD8.1
0C7C2:  MOVFF  3B9,6AB
0C7C6:  MOVFF  3B8,6AA
0C7CA:  MOVFF  3B7,6A9
0C7CE:  MOVFF  3B6,6A8
0C7D2:  MOVLW  CD
0C7D4:  MOVLB  6
0C7D6:  MOVWF  xAF
0C7D8:  MOVLW  CC
0C7DA:  MOVWF  xAE
0C7DC:  MOVLW  4C
0C7DE:  MOVWF  xAD
0C7E0:  MOVLW  7B
0C7E2:  MOVWF  xAC
0C7E4:  MOVLB  0
0C7E6:  CALL   1ED0
0C7EA:  MOVFF  03,3B9
0C7EE:  MOVFF  02,3B8
0C7F2:  MOVFF  01,3B7
0C7F6:  MOVFF  00,3B6
....................                RX_Buffer[4]=0x00; 
0C7FA:  CLRF   34
....................                RX_Buffer2[4]=0x00;             
0C7FC:  CLRF   3F
....................             } 
....................          } 
....................       }else if(Opcion2==11){ 
0C7FE:  BRA    CD88
0C800:  MOVLB  3
0C802:  MOVF   x4A,W
0C804:  SUBLW  0B
0C806:  BTFSS  FD8.2
0C808:  BRA    C970
....................          printf("Config.t2c.txt=\"RPT100B 2\""); 
0C80A:  MOVLW  90
0C80C:  MOVWF  FF6
0C80E:  MOVLW  1B
0C810:  MOVWF  FF7
0C812:  MOVLW  00
0C814:  MOVWF  FF8
0C816:  MOVLB  0
0C818:  CALL   37BA
....................          SendDataDisplay();       
0C81C:  CALL   37EC
....................          printf("t3c.txt=\"%2.1f\"",Sensor[1].RPT100); 
0C820:  MOVLW  AC
0C822:  MOVWF  FF6
0C824:  MOVLW  1B
0C826:  MOVWF  FF7
0C828:  MOVLW  00
0C82A:  MOVWF  FF8
0C82C:  MOVLW  09
0C82E:  MOVLB  6
0C830:  MOVWF  x9A
0C832:  MOVLB  0
0C834:  CALL   4EA0
0C838:  MOVLW  01
0C83A:  MOVWF  FE9
0C83C:  MOVFF  51D,69D
0C840:  MOVFF  51C,69C
0C844:  MOVFF  51B,69B
0C848:  MOVFF  51A,69A
0C84C:  MOVLB  6
0C84E:  MOVWF  x9E
0C850:  MOVLB  0
0C852:  CALL   521C
0C856:  MOVLW  22
0C858:  BTFSS  F9E.4
0C85A:  BRA    C858
0C85C:  MOVWF  FAD
....................          SendDataDisplay(); 
0C85E:  CALL   37EC
....................          if(RX_Buffer[4]==0x0a || UP){//Tecla Arriba Oprimida 
0C862:  MOVF   34,W
0C864:  SUBLW  0A
0C866:  BZ    C86E
0C868:  BSF    F93.0
0C86A:  BTFSC  F81.0
0C86C:  BRA    C8E8
....................             delay_ms(20); 
0C86E:  MOVLW  14
0C870:  MOVLB  6
0C872:  MOVWF  xA8
0C874:  MOVLB  0
0C876:  CALL   1D14
....................             if(RX_Buffer[4]==0x0a || UP){ 
0C87A:  MOVF   34,W
0C87C:  SUBLW  0A
0C87E:  BZ    C886
0C880:  BSF    F93.0
0C882:  BTFSC  F81.0
0C884:  BRA    C8E8
....................                if(Sensor[1].RPT100<2.0) 
0C886:  MOVFF  51D,69F
0C88A:  MOVFF  51C,69E
0C88E:  MOVFF  51B,69D
0C892:  MOVFF  51A,69C
0C896:  MOVLB  6
0C898:  CLRF   xA3
0C89A:  CLRF   xA2
0C89C:  CLRF   xA1
0C89E:  MOVLW  80
0C8A0:  MOVWF  xA0
0C8A2:  MOVLB  0
0C8A4:  CALL   2EBE
0C8A8:  BNC   C8E4
....................                   Sensor[1].RPT100+=0.1; 
0C8AA:  BCF    FD8.1
0C8AC:  MOVFF  51D,6AB
0C8B0:  MOVFF  51C,6AA
0C8B4:  MOVFF  51B,6A9
0C8B8:  MOVFF  51A,6A8
0C8BC:  MOVLW  CD
0C8BE:  MOVLB  6
0C8C0:  MOVWF  xAF
0C8C2:  MOVLW  CC
0C8C4:  MOVWF  xAE
0C8C6:  MOVLW  4C
0C8C8:  MOVWF  xAD
0C8CA:  MOVLW  7B
0C8CC:  MOVWF  xAC
0C8CE:  MOVLB  0
0C8D0:  CALL   1ED0
0C8D4:  MOVFF  03,51D
0C8D8:  MOVFF  02,51C
0C8DC:  MOVFF  01,51B
0C8E0:  MOVFF  00,51A
....................                RX_Buffer[4]=0x00;   
0C8E4:  CLRF   34
....................                RX_Buffer2[4]=0x00;             
0C8E6:  CLRF   3F
....................             } 
....................          } 
....................              
....................          if(RX_Buffer[4]==0x0b || DOWN){//Tecla Abajo Oprimida 
0C8E8:  MOVF   34,W
0C8EA:  SUBLW  0B
0C8EC:  BZ    C8F4
0C8EE:  BSF    F93.1
0C8F0:  BTFSC  F81.1
0C8F2:  BRA    C96C
....................             delay_ms(20); 
0C8F4:  MOVLW  14
0C8F6:  MOVLB  6
0C8F8:  MOVWF  xA8
0C8FA:  MOVLB  0
0C8FC:  CALL   1D14
....................             if(RX_Buffer[4]==0x0b || DOWN){ 
0C900:  MOVF   34,W
0C902:  SUBLW  0B
0C904:  BZ    C90C
0C906:  BSF    F93.1
0C908:  BTFSC  F81.1
0C90A:  BRA    C96C
....................                if(Sensor[1].RPT100>0.0) 
0C90C:  MOVLB  6
0C90E:  CLRF   x9F
0C910:  CLRF   x9E
0C912:  CLRF   x9D
0C914:  CLRF   x9C
0C916:  MOVFF  51D,6A3
0C91A:  MOVFF  51C,6A2
0C91E:  MOVFF  51B,6A1
0C922:  MOVFF  51A,6A0
0C926:  MOVLB  0
0C928:  CALL   2EBE
0C92C:  BNC   C968
....................                   Sensor[1].RPT100-=0.1; 
0C92E:  BSF    FD8.1
0C930:  MOVFF  51D,6AB
0C934:  MOVFF  51C,6AA
0C938:  MOVFF  51B,6A9
0C93C:  MOVFF  51A,6A8
0C940:  MOVLW  CD
0C942:  MOVLB  6
0C944:  MOVWF  xAF
0C946:  MOVLW  CC
0C948:  MOVWF  xAE
0C94A:  MOVLW  4C
0C94C:  MOVWF  xAD
0C94E:  MOVLW  7B
0C950:  MOVWF  xAC
0C952:  MOVLB  0
0C954:  CALL   1ED0
0C958:  MOVFF  03,51D
0C95C:  MOVFF  02,51C
0C960:  MOVFF  01,51B
0C964:  MOVFF  00,51A
....................                RX_Buffer[4]=0x00; 
0C968:  CLRF   34
....................                RX_Buffer2[4]=0x00;             
0C96A:  CLRF   3F
....................             } 
....................          } 
....................       }else if(Opcion2==12){ 
0C96C:  BRA    CD88
0C96E:  MOVLB  3
0C970:  MOVF   x4A,W
0C972:  SUBLW  0C
0C974:  BNZ   C9C4
....................          printf("Config.t2c.txt=\"Ciclos\""); 
0C976:  MOVLW  BC
0C978:  MOVWF  FF6
0C97A:  MOVLW  1B
0C97C:  MOVWF  FF7
0C97E:  MOVLW  00
0C980:  MOVWF  FF8
0C982:  MOVLB  0
0C984:  CALL   37BA
....................          SendDataDisplay();       
0C988:  CALL   37EC
....................          printf("t3c.txt=\"%05Lu\"",Ciclos); 
0C98C:  MOVLW  D4
0C98E:  MOVWF  FF6
0C990:  MOVLW  1B
0C992:  MOVWF  FF7
0C994:  MOVLW  00
0C996:  MOVWF  FF8
0C998:  MOVLW  09
0C99A:  MOVLB  6
0C99C:  MOVWF  x9A
0C99E:  MOVLB  0
0C9A0:  CALL   4EA0
0C9A4:  MOVLW  08
0C9A6:  MOVWF  FE9
0C9A8:  MOVFF  362,69B
0C9AC:  MOVFF  361,69A
0C9B0:  CALL   4FF2
0C9B4:  MOVLW  22
0C9B6:  BTFSS  F9E.4
0C9B8:  BRA    C9B6
0C9BA:  MOVWF  FAD
....................          SendDataDisplay(); 
0C9BC:  CALL   37EC
....................       }else if(Opcion2==13){ 
0C9C0:  BRA    CD88
0C9C2:  MOVLB  3
0C9C4:  MOVF   x4A,W
0C9C6:  SUBLW  0D
0C9C8:  BNZ   CA80
....................          printf("Config.t2c.txt=\"Atmosferica\""); 
0C9CA:  MOVLW  E4
0C9CC:  MOVWF  FF6
0C9CE:  MOVLW  1B
0C9D0:  MOVWF  FF7
0C9D2:  MOVLW  00
0C9D4:  MOVWF  FF8
0C9D6:  MOVLB  0
0C9D8:  CALL   37BA
....................          SendDataDisplay();       
0C9DC:  CALL   37EC
....................          printf("t3c.txt=\"%03u\"",Atmosferica); 
0C9E0:  MOVLW  02
0C9E2:  MOVWF  FF6
0C9E4:  MOVLW  1C
0C9E6:  MOVWF  FF7
0C9E8:  MOVLW  00
0C9EA:  MOVWF  FF8
0C9EC:  MOVLW  09
0C9EE:  MOVLB  6
0C9F0:  MOVWF  x9A
0C9F2:  MOVLB  0
0C9F4:  CALL   4EA0
0C9F8:  MOVFF  32F,698
0C9FC:  MOVLW  03
0C9FE:  MOVLB  6
0CA00:  MOVWF  x99
0CA02:  MOVLB  0
0CA04:  CALL   4EFE
0CA08:  MOVLW  22
0CA0A:  BTFSS  F9E.4
0CA0C:  BRA    CA0A
0CA0E:  MOVWF  FAD
....................          SendDataDisplay(); 
0CA10:  CALL   37EC
....................          if(RX_Buffer[4]==0x0a || UP){//Tecla Arriba Oprimida 
0CA14:  MOVF   34,W
0CA16:  SUBLW  0A
0CA18:  BZ    CA20
0CA1A:  BSF    F93.0
0CA1C:  BTFSC  F81.0
0CA1E:  BRA    CA48
....................             delay_ms(20); 
0CA20:  MOVLW  14
0CA22:  MOVLB  6
0CA24:  MOVWF  xA8
0CA26:  MOVLB  0
0CA28:  CALL   1D14
....................             if(RX_Buffer[4]==0x0a || UP){ 
0CA2C:  MOVF   34,W
0CA2E:  SUBLW  0A
0CA30:  BZ    CA38
0CA32:  BSF    F93.0
0CA34:  BTFSC  F81.0
0CA36:  BRA    CA48
....................                if(Atmosferica<100) 
0CA38:  MOVLB  3
0CA3A:  MOVF   x2F,W
0CA3C:  SUBLW  63
0CA3E:  BNC   CA42
....................                   ++Atmosferica; 
0CA40:  INCF   x2F,F
....................                RX_Buffer[4]=0x00;   
0CA42:  CLRF   34
....................                RX_Buffer2[4]=0x00;             
0CA44:  CLRF   3F
0CA46:  MOVLB  0
....................             } 
....................          } 
....................              
....................          if(RX_Buffer[4]==0x0b || DOWN){//Tecla Abajo Oprimida 
0CA48:  MOVF   34,W
0CA4A:  SUBLW  0B
0CA4C:  BZ    CA54
0CA4E:  BSF    F93.1
0CA50:  BTFSC  F81.1
0CA52:  BRA    CA7C
....................             delay_ms(20); 
0CA54:  MOVLW  14
0CA56:  MOVLB  6
0CA58:  MOVWF  xA8
0CA5A:  MOVLB  0
0CA5C:  CALL   1D14
....................             if(RX_Buffer[4]==0x0b || DOWN){ 
0CA60:  MOVF   34,W
0CA62:  SUBLW  0B
0CA64:  BZ    CA6C
0CA66:  BSF    F93.1
0CA68:  BTFSC  F81.1
0CA6A:  BRA    CA7C
....................                if(Atmosferica>50) 
0CA6C:  MOVLB  3
0CA6E:  MOVF   x2F,W
0CA70:  SUBLW  32
0CA72:  BC    CA76
....................                   --Atmosferica; 
0CA74:  DECF   x2F,F
....................                RX_Buffer[4]=0x00; 
0CA76:  CLRF   34
....................                RX_Buffer2[4]=0x00;             
0CA78:  CLRF   3F
0CA7A:  MOVLB  0
....................             } 
....................          } 
....................       }else if(Opcion2==14){ 
0CA7C:  BRA    CD88
0CA7E:  MOVLB  3
0CA80:  MOVF   x4A,W
0CA82:  SUBLW  0E
0CA84:  BNZ   CB3C
....................          printf("Config.t2c.txt=\"T. Apertura\""); 
0CA86:  MOVLW  12
0CA88:  MOVWF  FF6
0CA8A:  MOVLW  1C
0CA8C:  MOVWF  FF7
0CA8E:  MOVLW  00
0CA90:  MOVWF  FF8
0CA92:  MOVLB  0
0CA94:  CALL   37BA
....................          SendDataDisplay();       
0CA98:  CALL   37EC
....................          printf("t3c.txt=\"%03u\"",Tapertura); 
0CA9C:  MOVLW  30
0CA9E:  MOVWF  FF6
0CAA0:  MOVLW  1C
0CAA2:  MOVWF  FF7
0CAA4:  MOVLW  00
0CAA6:  MOVWF  FF8
0CAA8:  MOVLW  09
0CAAA:  MOVLB  6
0CAAC:  MOVWF  x9A
0CAAE:  MOVLB  0
0CAB0:  CALL   4EA0
0CAB4:  MOVFF  2CE,698
0CAB8:  MOVLW  03
0CABA:  MOVLB  6
0CABC:  MOVWF  x99
0CABE:  MOVLB  0
0CAC0:  CALL   4EFE
0CAC4:  MOVLW  22
0CAC6:  BTFSS  F9E.4
0CAC8:  BRA    CAC6
0CACA:  MOVWF  FAD
....................          SendDataDisplay(); 
0CACC:  CALL   37EC
....................          if(RX_Buffer[4]==0x0a || UP){//Tecla Arriba Oprimida 
0CAD0:  MOVF   34,W
0CAD2:  SUBLW  0A
0CAD4:  BZ    CADC
0CAD6:  BSF    F93.0
0CAD8:  BTFSC  F81.0
0CADA:  BRA    CB04
....................             delay_ms(20); 
0CADC:  MOVLW  14
0CADE:  MOVLB  6
0CAE0:  MOVWF  xA8
0CAE2:  MOVLB  0
0CAE4:  CALL   1D14
....................             if(RX_Buffer[4]==0x0a || UP){ 
0CAE8:  MOVF   34,W
0CAEA:  SUBLW  0A
0CAEC:  BZ    CAF4
0CAEE:  BSF    F93.0
0CAF0:  BTFSC  F81.0
0CAF2:  BRA    CB04
....................                if(Tapertura<100) 
0CAF4:  MOVLB  2
0CAF6:  MOVF   xCE,W
0CAF8:  SUBLW  63
0CAFA:  BNC   CAFE
....................                   ++Tapertura; 
0CAFC:  INCF   xCE,F
....................                RX_Buffer[4]=0x00;   
0CAFE:  CLRF   34
....................                RX_Buffer2[4]=0x00;             
0CB00:  CLRF   3F
0CB02:  MOVLB  0
....................             } 
....................          } 
....................              
....................          if(RX_Buffer[4]==0x0b || DOWN){//Tecla Abajo Oprimida 
0CB04:  MOVF   34,W
0CB06:  SUBLW  0B
0CB08:  BZ    CB10
0CB0A:  BSF    F93.1
0CB0C:  BTFSC  F81.1
0CB0E:  BRA    CB38
....................             delay_ms(20); 
0CB10:  MOVLW  14
0CB12:  MOVLB  6
0CB14:  MOVWF  xA8
0CB16:  MOVLB  0
0CB18:  CALL   1D14
....................             if(RX_Buffer[4]==0x0b || DOWN){ 
0CB1C:  MOVF   34,W
0CB1E:  SUBLW  0B
0CB20:  BZ    CB28
0CB22:  BSF    F93.1
0CB24:  BTFSC  F81.1
0CB26:  BRA    CB38
....................                if(Tapertura>50) 
0CB28:  MOVLB  2
0CB2A:  MOVF   xCE,W
0CB2C:  SUBLW  32
0CB2E:  BC    CB32
....................                   --Tapertura; 
0CB30:  DECF   xCE,F
....................                RX_Buffer[4]=0x00; 
0CB32:  CLRF   34
....................                RX_Buffer2[4]=0x00;             
0CB34:  CLRF   3F
0CB36:  MOVLB  0
....................             } 
....................          } 
....................       }else if(Opcion2==15){ 
0CB38:  BRA    CD88
0CB3A:  MOVLB  3
0CB3C:  MOVF   x4A,W
0CB3E:  SUBLW  0F
0CB40:  BNZ   CC00
....................          printf("Config.t2c.txt=\"Pulsos Config\""); 
0CB42:  MOVLW  40
0CB44:  MOVWF  FF6
0CB46:  MOVLW  1C
0CB48:  MOVWF  FF7
0CB4A:  MOVLW  00
0CB4C:  MOVWF  FF8
0CB4E:  MOVLB  0
0CB50:  CALL   37BA
....................          SendDataDisplay();       
0CB54:  CALL   37EC
....................          printf("t3c.txt=\"%02u\"",pulsosConfigurados); 
0CB58:  MOVLW  60
0CB5A:  MOVWF  FF6
0CB5C:  MOVLW  1C
0CB5E:  MOVWF  FF7
0CB60:  MOVLW  00
0CB62:  MOVWF  FF8
0CB64:  MOVLW  09
0CB66:  MOVLB  6
0CB68:  MOVWF  x9A
0CB6A:  MOVLB  0
0CB6C:  CALL   4EA0
0CB70:  MOVFF  350,698
0CB74:  MOVLW  01
0CB76:  MOVLB  6
0CB78:  MOVWF  x99
0CB7A:  MOVLB  0
0CB7C:  CALL   4EFE
0CB80:  MOVLW  22
0CB82:  BTFSS  F9E.4
0CB84:  BRA    CB82
0CB86:  MOVWF  FAD
....................          SendDataDisplay(); 
0CB88:  CALL   37EC
....................          if(RX_Buffer[4]==0x0a || UP){//Tecla Arriba Oprimida 
0CB8C:  MOVF   34,W
0CB8E:  SUBLW  0A
0CB90:  BZ    CB98
0CB92:  BSF    F93.0
0CB94:  BTFSC  F81.0
0CB96:  BRA    CBBA
....................             delay_ms(20); 
0CB98:  MOVLW  14
0CB9A:  MOVLB  6
0CB9C:  MOVWF  xA8
0CB9E:  MOVLB  0
0CBA0:  CALL   1D14
....................             if(RX_Buffer[4]==0x0a || UP){ 
0CBA4:  MOVF   34,W
0CBA6:  SUBLW  0A
0CBA8:  BZ    CBB0
0CBAA:  BSF    F93.0
0CBAC:  BTFSC  F81.0
0CBAE:  BRA    CBBA
....................                   ++pulsosConfigurados; 
0CBB0:  MOVLB  3
0CBB2:  INCF   x50,F
....................                RX_Buffer[4]=0x00;   
0CBB4:  CLRF   34
....................                RX_Buffer2[4]=0x00;             
0CBB6:  CLRF   3F
0CBB8:  MOVLB  0
....................             } 
....................          } 
....................              
....................          if(RX_Buffer[4]==0x0b || DOWN){//Tecla Abajo Oprimida 
0CBBA:  MOVF   34,W
0CBBC:  SUBLW  0B
0CBBE:  BZ    CBC6
0CBC0:  BSF    F93.1
0CBC2:  BTFSC  F81.1
0CBC4:  BRA    CBE8
....................             delay_ms(20); 
0CBC6:  MOVLW  14
0CBC8:  MOVLB  6
0CBCA:  MOVWF  xA8
0CBCC:  MOVLB  0
0CBCE:  CALL   1D14
....................             if(RX_Buffer[4]==0x0b || DOWN){ 
0CBD2:  MOVF   34,W
0CBD4:  SUBLW  0B
0CBD6:  BZ    CBDE
0CBD8:  BSF    F93.1
0CBDA:  BTFSC  F81.1
0CBDC:  BRA    CBE8
....................                   --pulsosConfigurados; 
0CBDE:  MOVLB  3
0CBE0:  DECF   x50,F
....................                RX_Buffer[4]=0x00; 
0CBE2:  CLRF   34
....................                RX_Buffer2[4]=0x00;             
0CBE4:  CLRF   3F
0CBE6:  MOVLB  0
....................             } 
....................          } 
....................          if(pulsosConfigurados>8) 
0CBE8:  MOVLB  3
0CBEA:  MOVF   x50,W
0CBEC:  SUBLW  08
0CBEE:  BC    CBF4
....................             pulsosConfigurados=2; 
0CBF0:  MOVLW  02
0CBF2:  MOVWF  x50
....................          if(pulsosConfigurados<2) 
0CBF4:  MOVF   x50,W
0CBF6:  SUBLW  01
0CBF8:  BNC   CBFE
....................             pulsosConfigurados=8; 
0CBFA:  MOVLW  08
0CBFC:  MOVWF  x50
....................       }else if(Opcion2==16){ 
0CBFE:  BRA    CD86
0CC00:  MOVF   x4A,W
0CC02:  SUBLW  10
0CC04:  BNZ   CCC4
....................          printf("Config.t2c.txt=\"Vacio Test\""); 
0CC06:  MOVLW  70
0CC08:  MOVWF  FF6
0CC0A:  MOVLW  1C
0CC0C:  MOVWF  FF7
0CC0E:  MOVLW  00
0CC10:  MOVWF  FF8
0CC12:  MOVLB  0
0CC14:  CALL   37BA
....................          SendDataDisplay();       
0CC18:  CALL   37EC
....................          printf("t3c.txt=\"%02u\"",vacioTest); 
0CC1C:  MOVLW  8C
0CC1E:  MOVWF  FF6
0CC20:  MOVLW  1C
0CC22:  MOVWF  FF7
0CC24:  MOVLW  00
0CC26:  MOVWF  FF8
0CC28:  MOVLW  09
0CC2A:  MOVLB  6
0CC2C:  MOVWF  x9A
0CC2E:  MOVLB  0
0CC30:  CALL   4EA0
0CC34:  MOVFF  34E,698
0CC38:  MOVLW  01
0CC3A:  MOVLB  6
0CC3C:  MOVWF  x99
0CC3E:  MOVLB  0
0CC40:  CALL   4EFE
0CC44:  MOVLW  22
0CC46:  BTFSS  F9E.4
0CC48:  BRA    CC46
0CC4A:  MOVWF  FAD
....................          SendDataDisplay(); 
0CC4C:  CALL   37EC
....................          if(RX_Buffer[4]==0x0a || UP){//Tecla Arriba Oprimida 
0CC50:  MOVF   34,W
0CC52:  SUBLW  0A
0CC54:  BZ    CC5C
0CC56:  BSF    F93.0
0CC58:  BTFSC  F81.0
0CC5A:  BRA    CC7E
....................             delay_ms(20); 
0CC5C:  MOVLW  14
0CC5E:  MOVLB  6
0CC60:  MOVWF  xA8
0CC62:  MOVLB  0
0CC64:  CALL   1D14
....................             if(RX_Buffer[4]==0x0a || UP){ 
0CC68:  MOVF   34,W
0CC6A:  SUBLW  0A
0CC6C:  BZ    CC74
0CC6E:  BSF    F93.0
0CC70:  BTFSC  F81.0
0CC72:  BRA    CC7E
....................                   ++vacioTest; 
0CC74:  MOVLB  3
0CC76:  INCF   x4E,F
....................                RX_Buffer[4]=0x00;   
0CC78:  CLRF   34
....................                RX_Buffer2[4]=0x00;             
0CC7A:  CLRF   3F
0CC7C:  MOVLB  0
....................             } 
....................          } 
....................              
....................          if(RX_Buffer[4]==0x0b || DOWN){//Tecla Abajo Oprimida 
0CC7E:  MOVF   34,W
0CC80:  SUBLW  0B
0CC82:  BZ    CC8A
0CC84:  BSF    F93.1
0CC86:  BTFSC  F81.1
0CC88:  BRA    CCAC
....................             delay_ms(20); 
0CC8A:  MOVLW  14
0CC8C:  MOVLB  6
0CC8E:  MOVWF  xA8
0CC90:  MOVLB  0
0CC92:  CALL   1D14
....................             if(RX_Buffer[4]==0x0b || DOWN){ 
0CC96:  MOVF   34,W
0CC98:  SUBLW  0B
0CC9A:  BZ    CCA2
0CC9C:  BSF    F93.1
0CC9E:  BTFSC  F81.1
0CCA0:  BRA    CCAC
....................                   --vacioTest; 
0CCA2:  MOVLB  3
0CCA4:  DECF   x4E,F
....................                RX_Buffer[4]=0x00; 
0CCA6:  CLRF   34
....................                RX_Buffer2[4]=0x00;             
0CCA8:  CLRF   3F
0CCAA:  MOVLB  0
....................             } 
....................          } 
....................          if(vacioTest>30) 
0CCAC:  MOVLB  3
0CCAE:  MOVF   x4E,W
0CCB0:  SUBLW  1E
0CCB2:  BC    CCB8
....................             vacioTest=17; 
0CCB4:  MOVLW  11
0CCB6:  MOVWF  x4E
....................          if(vacioTest<17) 
0CCB8:  MOVF   x4E,W
0CCBA:  SUBLW  10
0CCBC:  BNC   CCC2
....................             vacioTest=30; 
0CCBE:  MOVLW  1E
0CCC0:  MOVWF  x4E
....................       }else if(Opcion2==17){ 
0CCC2:  BRA    CD86
0CCC4:  MOVF   x4A,W
0CCC6:  SUBLW  11
0CCC8:  BNZ   CD86
....................          printf("Config.t2c.txt=\"Vacio Ciclo\""); 
0CCCA:  MOVLW  9C
0CCCC:  MOVWF  FF6
0CCCE:  MOVLW  1C
0CCD0:  MOVWF  FF7
0CCD2:  MOVLW  00
0CCD4:  MOVWF  FF8
0CCD6:  MOVLB  0
0CCD8:  CALL   37BA
....................          SendDataDisplay();       
0CCDC:  CALL   37EC
....................          printf("t3c.txt=\"%02u\"",vacioCiclo); 
0CCE0:  MOVLW  BA
0CCE2:  MOVWF  FF6
0CCE4:  MOVLW  1C
0CCE6:  MOVWF  FF7
0CCE8:  MOVLW  00
0CCEA:  MOVWF  FF8
0CCEC:  MOVLW  09
0CCEE:  MOVLB  6
0CCF0:  MOVWF  x9A
0CCF2:  MOVLB  0
0CCF4:  CALL   4EA0
0CCF8:  MOVFF  34F,698
0CCFC:  MOVLW  01
0CCFE:  MOVLB  6
0CD00:  MOVWF  x99
0CD02:  MOVLB  0
0CD04:  CALL   4EFE
0CD08:  MOVLW  22
0CD0A:  BTFSS  F9E.4
0CD0C:  BRA    CD0A
0CD0E:  MOVWF  FAD
....................          SendDataDisplay(); 
0CD10:  CALL   37EC
....................          if(RX_Buffer[4]==0x0a || UP){//Tecla Arriba Oprimida 
0CD14:  MOVF   34,W
0CD16:  SUBLW  0A
0CD18:  BZ    CD20
0CD1A:  BSF    F93.0
0CD1C:  BTFSC  F81.0
0CD1E:  BRA    CD42
....................             delay_ms(20); 
0CD20:  MOVLW  14
0CD22:  MOVLB  6
0CD24:  MOVWF  xA8
0CD26:  MOVLB  0
0CD28:  CALL   1D14
....................             if(RX_Buffer[4]==0x0a || UP){ 
0CD2C:  MOVF   34,W
0CD2E:  SUBLW  0A
0CD30:  BZ    CD38
0CD32:  BSF    F93.0
0CD34:  BTFSC  F81.0
0CD36:  BRA    CD42
....................                   ++vacioCiclo; 
0CD38:  MOVLB  3
0CD3A:  INCF   x4F,F
....................                RX_Buffer[4]=0x00;   
0CD3C:  CLRF   34
....................                RX_Buffer2[4]=0x00;             
0CD3E:  CLRF   3F
0CD40:  MOVLB  0
....................             } 
....................          } 
....................              
....................          if(RX_Buffer[4]==0x0b || DOWN){//Tecla Abajo Oprimida 
0CD42:  MOVF   34,W
0CD44:  SUBLW  0B
0CD46:  BZ    CD4E
0CD48:  BSF    F93.1
0CD4A:  BTFSC  F81.1
0CD4C:  BRA    CD70
....................             delay_ms(20); 
0CD4E:  MOVLW  14
0CD50:  MOVLB  6
0CD52:  MOVWF  xA8
0CD54:  MOVLB  0
0CD56:  CALL   1D14
....................             if(RX_Buffer[4]==0x0b || DOWN){ 
0CD5A:  MOVF   34,W
0CD5C:  SUBLW  0B
0CD5E:  BZ    CD66
0CD60:  BSF    F93.1
0CD62:  BTFSC  F81.1
0CD64:  BRA    CD70
....................                   --vacioCiclo; 
0CD66:  MOVLB  3
0CD68:  DECF   x4F,F
....................                RX_Buffer[4]=0x00; 
0CD6A:  CLRF   34
....................                RX_Buffer2[4]=0x00;             
0CD6C:  CLRF   3F
0CD6E:  MOVLB  0
....................             } 
....................          } 
....................          if(vacioCiclo>30) 
0CD70:  MOVLB  3
0CD72:  MOVF   x4F,W
0CD74:  SUBLW  1E
0CD76:  BC    CD7C
....................             vacioCiclo=17; 
0CD78:  MOVLW  11
0CD7A:  MOVWF  x4F
....................          if(vacioCiclo<17) 
0CD7C:  MOVF   x4F,W
0CD7E:  SUBLW  10
0CD80:  BNC   CD86
....................             vacioCiclo=30; 
0CD82:  MOVLW  1E
0CD84:  MOVWF  x4F
0CD86:  MOVLB  0
....................       } 
....................        
....................       if(RX_Buffer[4]==0x0c || LEFT){//Tecla Izquierda Oprimida 
0CD88:  MOVF   34,W
0CD8A:  SUBLW  0C
0CD8C:  BZ    CD94
0CD8E:  BSF    F93.3
0CD90:  BTFSC  F81.3
0CD92:  BRA    CDB6
....................          delay_ms(20); 
0CD94:  MOVLW  14
0CD96:  MOVLB  6
0CD98:  MOVWF  xA8
0CD9A:  MOVLB  0
0CD9C:  CALL   1D14
....................          if(RX_Buffer[4]==0x0c || LEFT){ 
0CDA0:  MOVF   34,W
0CDA2:  SUBLW  0C
0CDA4:  BZ    CDAC
0CDA6:  BSF    F93.3
0CDA8:  BTFSC  F81.3
0CDAA:  BRA    CDB6
....................             Opcion2++; 
0CDAC:  MOVLB  3
0CDAE:  INCF   x4A,F
....................             RX_Buffer[4]=0x00;   
0CDB0:  CLRF   34
....................             RX_Buffer2[4]=0x00;             
0CDB2:  CLRF   3F
0CDB4:  MOVLB  0
....................          } 
....................       } 
....................           
....................       if(RX_Buffer[4]==0x0d || RIGHT){//Tecla Derecha Oprimida 
0CDB6:  MOVF   34,W
0CDB8:  SUBLW  0D
0CDBA:  BZ    CDC2
0CDBC:  BSF    F93.2
0CDBE:  BTFSC  F81.2
0CDC0:  BRA    CDE4
....................          delay_ms(20); 
0CDC2:  MOVLW  14
0CDC4:  MOVLB  6
0CDC6:  MOVWF  xA8
0CDC8:  MOVLB  0
0CDCA:  CALL   1D14
....................          if(RX_Buffer[4]==0x0d || RIGHT){ 
0CDCE:  MOVF   34,W
0CDD0:  SUBLW  0D
0CDD2:  BZ    CDDA
0CDD4:  BSF    F93.2
0CDD6:  BTFSC  F81.2
0CDD8:  BRA    CDE4
....................             Opcion2--; 
0CDDA:  MOVLB  3
0CDDC:  DECF   x4A,F
....................             RX_Buffer[4]=0x00; 
0CDDE:  CLRF   34
....................             RX_Buffer2[4]=0x00;             
0CDE0:  CLRF   3F
0CDE2:  MOVLB  0
....................          } 
....................       } 
....................        
....................       if(RX_Buffer[4]==0x11 || (RIGHT && LEFT)){//Tecla Regresar 
0CDE4:  MOVF   34,W
0CDE6:  SUBLW  11
0CDE8:  BZ    CDF6
0CDEA:  BSF    F93.2
0CDEC:  BTFSC  F81.2
0CDEE:  BRA    D3EA
0CDF0:  BSF    F93.3
0CDF2:  BTFSC  F81.3
0CDF4:  BRA    D3EA
....................          delay_ms(20); 
0CDF6:  MOVLW  14
0CDF8:  MOVLB  6
0CDFA:  MOVWF  xA8
0CDFC:  MOVLB  0
0CDFE:  CALL   1D14
....................          if(RX_Buffer[4]==0x11 || (RIGHT && LEFT)){ 
0CE02:  MOVF   34,W
0CE04:  SUBLW  11
0CE06:  BZ    CE14
0CE08:  BSF    F93.2
0CE0A:  BTFSC  F81.2
0CE0C:  BRA    D3EA
0CE0E:  BSF    F93.3
0CE10:  BTFSC  F81.3
0CE12:  BRA    D3EA
....................             if(!GuardaEEPROM){ 
0CE14:  BTFSC  xA2.2
0CE16:  BRA    D3D6
....................                write_eeprom(18,(int8)Integral); 
0CE18:  CLRF   FAA
0CE1A:  MOVLW  12
0CE1C:  MOVWF  FA9
0CE1E:  MOVFF  327,FA8
0CE22:  BCF    FA6.6
0CE24:  BCF    FA6.7
0CE26:  BSF    FA6.2
0CE28:  MOVF   FF2,W
0CE2A:  MOVWF  00
0CE2C:  BCF    FF2.6
0CE2E:  BCF    FF2.7
0CE30:  MOVLB  F
0CE32:  MOVLW  55
0CE34:  MOVWF  FA7
0CE36:  MOVLW  AA
0CE38:  MOVWF  FA7
0CE3A:  BSF    FA6.1
0CE3C:  BTFSC  FA6.1
0CE3E:  BRA    CE3C
0CE40:  BCF    FA6.2
0CE42:  MOVF   00,W
0CE44:  IORWF  FF2,F
....................                delay_ms(10); 
0CE46:  MOVLW  0A
0CE48:  MOVLB  6
0CE4A:  MOVWF  xA8
0CE4C:  MOVLB  0
0CE4E:  CALL   1D14
....................                write_eeprom(19,(int8)Derivativo); 
0CE52:  CLRF   FAA
0CE54:  MOVLW  13
0CE56:  MOVWF  FA9
0CE58:  MOVFF  328,FA8
0CE5C:  BCF    FA6.6
0CE5E:  BCF    FA6.7
0CE60:  BSF    FA6.2
0CE62:  MOVF   FF2,W
0CE64:  MOVWF  00
0CE66:  BCF    FF2.6
0CE68:  BCF    FF2.7
0CE6A:  MOVLB  F
0CE6C:  MOVLW  55
0CE6E:  MOVWF  FA7
0CE70:  MOVLW  AA
0CE72:  MOVWF  FA7
0CE74:  BSF    FA6.1
0CE76:  BTFSC  FA6.1
0CE78:  BRA    CE76
0CE7A:  BCF    FA6.2
0CE7C:  MOVF   00,W
0CE7E:  IORWF  FF2,F
....................                delay_ms(10); 
0CE80:  MOVLW  0A
0CE82:  MOVLB  6
0CE84:  MOVWF  xA8
0CE86:  MOVLB  0
0CE88:  CALL   1D14
....................                write_eeprom(20,(int8)Ganancia); 
0CE8C:  MOVFF  2F2,6AB
0CE90:  MOVFF  2F1,6AA
0CE94:  MOVFF  2F0,6A9
0CE98:  MOVFF  2EF,6A8
0CE9C:  CALL   4406
0CEA0:  MOVFF  01,696
0CEA4:  CLRF   FAA
0CEA6:  MOVLW  14
0CEA8:  MOVWF  FA9
0CEAA:  MOVFF  696,FA8
0CEAE:  BCF    FA6.6
0CEB0:  BCF    FA6.7
0CEB2:  BSF    FA6.2
0CEB4:  MOVF   FF2,W
0CEB6:  MOVWF  00
0CEB8:  BCF    FF2.6
0CEBA:  BCF    FF2.7
0CEBC:  MOVLB  F
0CEBE:  MOVLW  55
0CEC0:  MOVWF  FA7
0CEC2:  MOVLW  AA
0CEC4:  MOVWF  FA7
0CEC6:  BSF    FA6.1
0CEC8:  BTFSC  FA6.1
0CECA:  BRA    CEC8
0CECC:  BCF    FA6.2
0CECE:  MOVF   00,W
0CED0:  IORWF  FF2,F
....................                delay_ms(10); 
0CED2:  MOVLW  0A
0CED4:  MOVLB  6
0CED6:  MOVWF  xA8
0CED8:  MOVLB  0
0CEDA:  CALL   1D14
....................                write_eeprom(21,Sensor[0].Ajuste); 
0CEDE:  CLRF   FAA
0CEE0:  MOVLW  15
0CEE2:  MOVWF  FA9
0CEE4:  MOVFF  3C4,FA8
0CEE8:  BCF    FA6.6
0CEEA:  BCF    FA6.7
0CEEC:  BSF    FA6.2
0CEEE:  MOVF   FF2,W
0CEF0:  MOVWF  00
0CEF2:  BCF    FF2.6
0CEF4:  BCF    FF2.7
0CEF6:  MOVLB  F
0CEF8:  MOVLW  55
0CEFA:  MOVWF  FA7
0CEFC:  MOVLW  AA
0CEFE:  MOVWF  FA7
0CF00:  BSF    FA6.1
0CF02:  BTFSC  FA6.1
0CF04:  BRA    CF02
0CF06:  BCF    FA6.2
0CF08:  MOVF   00,W
0CF0A:  IORWF  FF2,F
....................                delay_ms(10); 
0CF0C:  MOVLW  0A
0CF0E:  MOVLB  6
0CF10:  MOVWF  xA8
0CF12:  MOVLB  0
0CF14:  CALL   1D14
....................                write_eeprom(22,Sensor[0].Ajusten); 
0CF18:  CLRF   FAA
0CF1A:  MOVLW  16
0CF1C:  MOVWF  FA9
0CF1E:  MOVFF  3C5,FA8
0CF22:  BCF    FA6.6
0CF24:  BCF    FA6.7
0CF26:  BSF    FA6.2
0CF28:  MOVF   FF2,W
0CF2A:  MOVWF  00
0CF2C:  BCF    FF2.6
0CF2E:  BCF    FF2.7
0CF30:  MOVLB  F
0CF32:  MOVLW  55
0CF34:  MOVWF  FA7
0CF36:  MOVLW  AA
0CF38:  MOVWF  FA7
0CF3A:  BSF    FA6.1
0CF3C:  BTFSC  FA6.1
0CF3E:  BRA    CF3C
0CF40:  BCF    FA6.2
0CF42:  MOVF   00,W
0CF44:  IORWF  FF2,F
....................                delay_ms(10); 
0CF46:  MOVLW  0A
0CF48:  MOVLB  6
0CF4A:  MOVWF  xA8
0CF4C:  MOVLB  0
0CF4E:  CALL   1D14
....................                write_eeprom(23,Sensor[1].Ajuste); 
0CF52:  CLRF   FAA
0CF54:  MOVLW  17
0CF56:  MOVWF  FA9
0CF58:  MOVFF  528,FA8
0CF5C:  BCF    FA6.6
0CF5E:  BCF    FA6.7
0CF60:  BSF    FA6.2
0CF62:  MOVF   FF2,W
0CF64:  MOVWF  00
0CF66:  BCF    FF2.6
0CF68:  BCF    FF2.7
0CF6A:  MOVLB  F
0CF6C:  MOVLW  55
0CF6E:  MOVWF  FA7
0CF70:  MOVLW  AA
0CF72:  MOVWF  FA7
0CF74:  BSF    FA6.1
0CF76:  BTFSC  FA6.1
0CF78:  BRA    CF76
0CF7A:  BCF    FA6.2
0CF7C:  MOVF   00,W
0CF7E:  IORWF  FF2,F
....................                delay_ms(10); 
0CF80:  MOVLW  0A
0CF82:  MOVLB  6
0CF84:  MOVWF  xA8
0CF86:  MOVLB  0
0CF88:  CALL   1D14
....................                write_eeprom(24,Sensor[1].Ajusten); 
0CF8C:  CLRF   FAA
0CF8E:  MOVLW  18
0CF90:  MOVWF  FA9
0CF92:  MOVFF  529,FA8
0CF96:  BCF    FA6.6
0CF98:  BCF    FA6.7
0CF9A:  BSF    FA6.2
0CF9C:  MOVF   FF2,W
0CF9E:  MOVWF  00
0CFA0:  BCF    FF2.6
0CFA2:  BCF    FF2.7
0CFA4:  MOVLB  F
0CFA6:  MOVLW  55
0CFA8:  MOVWF  FA7
0CFAA:  MOVLW  AA
0CFAC:  MOVWF  FA7
0CFAE:  BSF    FA6.1
0CFB0:  BTFSC  FA6.1
0CFB2:  BRA    CFB0
0CFB4:  BCF    FA6.2
0CFB6:  MOVF   00,W
0CFB8:  IORWF  FF2,F
....................                delay_ms(10); 
0CFBA:  MOVLW  0A
0CFBC:  MOVLB  6
0CFBE:  MOVWF  xA8
0CFC0:  MOVLB  0
0CFC2:  CALL   1D14
....................                write_eeprom(25,(int8)MediaMovil); 
0CFC6:  CLRF   FAA
0CFC8:  MOVLW  19
0CFCA:  MOVWF  FA9
0CFCC:  MOVFF  2C9,FA8
0CFD0:  BCF    FA6.6
0CFD2:  BCF    FA6.7
0CFD4:  BSF    FA6.2
0CFD6:  MOVF   FF2,W
0CFD8:  MOVWF  00
0CFDA:  BCF    FF2.6
0CFDC:  BCF    FF2.7
0CFDE:  MOVLB  F
0CFE0:  MOVLW  55
0CFE2:  MOVWF  FA7
0CFE4:  MOVLW  AA
0CFE6:  MOVWF  FA7
0CFE8:  BSF    FA6.1
0CFEA:  BTFSC  FA6.1
0CFEC:  BRA    CFEA
0CFEE:  BCF    FA6.2
0CFF0:  MOVF   00,W
0CFF2:  IORWF  FF2,F
....................                delay_ms(10); 
0CFF4:  MOVLW  0A
0CFF6:  MOVLB  6
0CFF8:  MOVWF  xA8
0CFFA:  MOVLB  0
0CFFC:  CALL   1D14
....................                write_eeprom(26,(int8)Tciclo); 
0D000:  MOVFF  2DA,6AB
0D004:  MOVFF  2D9,6AA
0D008:  MOVFF  2D8,6A9
0D00C:  MOVFF  2D7,6A8
0D010:  CALL   4406
0D014:  MOVFF  01,696
0D018:  CLRF   FAA
0D01A:  MOVLW  1A
0D01C:  MOVWF  FA9
0D01E:  MOVFF  696,FA8
0D022:  BCF    FA6.6
0D024:  BCF    FA6.7
0D026:  BSF    FA6.2
0D028:  MOVF   FF2,W
0D02A:  MOVWF  00
0D02C:  BCF    FF2.6
0D02E:  BCF    FF2.7
0D030:  MOVLB  F
0D032:  MOVLW  55
0D034:  MOVWF  FA7
0D036:  MOVLW  AA
0D038:  MOVWF  FA7
0D03A:  BSF    FA6.1
0D03C:  BTFSC  FA6.1
0D03E:  BRA    D03C
0D040:  BCF    FA6.2
0D042:  MOVF   00,W
0D044:  IORWF  FF2,F
....................                delay_ms(10); 
0D046:  MOVLW  0A
0D048:  MOVLB  6
0D04A:  MOVWF  xA8
0D04C:  MOVLB  0
0D04E:  CALL   1D14
....................                write_eeprom(28,(int8)Sensor[0].RPT100); 
0D052:  MOVFF  3B9,6AB
0D056:  MOVFF  3B8,6AA
0D05A:  MOVFF  3B7,6A9
0D05E:  MOVFF  3B6,6A8
0D062:  CALL   4406
0D066:  MOVFF  01,696
0D06A:  CLRF   FAA
0D06C:  MOVLW  1C
0D06E:  MOVWF  FA9
0D070:  MOVFF  696,FA8
0D074:  BCF    FA6.6
0D076:  BCF    FA6.7
0D078:  BSF    FA6.2
0D07A:  MOVF   FF2,W
0D07C:  MOVWF  00
0D07E:  BCF    FF2.6
0D080:  BCF    FF2.7
0D082:  MOVLB  F
0D084:  MOVLW  55
0D086:  MOVWF  FA7
0D088:  MOVLW  AA
0D08A:  MOVWF  FA7
0D08C:  BSF    FA6.1
0D08E:  BTFSC  FA6.1
0D090:  BRA    D08E
0D092:  BCF    FA6.2
0D094:  MOVF   00,W
0D096:  IORWF  FF2,F
....................                delay_ms(10); 
0D098:  MOVLW  0A
0D09A:  MOVLB  6
0D09C:  MOVWF  xA8
0D09E:  MOVLB  0
0D0A0:  CALL   1D14
....................                Temporal=Sensor[0].RPT100-((int8)Sensor[0].RPT100); 
0D0A4:  MOVFF  3B9,6AB
0D0A8:  MOVFF  3B8,6AA
0D0AC:  MOVFF  3B7,6A9
0D0B0:  MOVFF  3B6,6A8
0D0B4:  CALL   4406
0D0B8:  MOVLB  6
0D0BA:  CLRF   xA9
0D0BC:  MOVFF  01,6A8
0D0C0:  MOVLB  0
0D0C2:  CALL   1D3C
0D0C6:  BSF    FD8.1
0D0C8:  MOVFF  3B9,6AB
0D0CC:  MOVFF  3B8,6AA
0D0D0:  MOVFF  3B7,6A9
0D0D4:  MOVFF  3B6,6A8
0D0D8:  MOVFF  03,6AF
0D0DC:  MOVFF  02,6AE
0D0E0:  MOVFF  01,6AD
0D0E4:  MOVFF  00,6AC
0D0E8:  CALL   1ED0
0D0EC:  MOVFF  03,2AC
0D0F0:  MOVFF  02,2AB
0D0F4:  MOVFF  01,2AA
0D0F8:  MOVFF  00,2A9
....................                Temporal=Temporal*10; 
0D0FC:  MOVFF  2AC,6AF
0D100:  MOVFF  2AB,6AE
0D104:  MOVFF  2AA,6AD
0D108:  MOVFF  2A9,6AC
0D10C:  MOVLB  6
0D10E:  CLRF   xB3
0D110:  CLRF   xB2
0D112:  MOVLW  20
0D114:  MOVWF  xB1
0D116:  MOVLW  82
0D118:  MOVWF  xB0
0D11A:  MOVLB  0
0D11C:  CALL   38CC
0D120:  MOVFF  03,2AC
0D124:  MOVFF  02,2AB
0D128:  MOVFF  01,2AA
0D12C:  MOVFF  00,2A9
....................                write_eeprom(27,(int8)Temporal); 
0D130:  MOVFF  2AC,6AB
0D134:  MOVFF  2AB,6AA
0D138:  MOVFF  2AA,6A9
0D13C:  MOVFF  2A9,6A8
0D140:  CALL   4406
0D144:  MOVFF  01,696
0D148:  CLRF   FAA
0D14A:  MOVLW  1B
0D14C:  MOVWF  FA9
0D14E:  MOVFF  696,FA8
0D152:  BCF    FA6.6
0D154:  BCF    FA6.7
0D156:  BSF    FA6.2
0D158:  MOVF   FF2,W
0D15A:  MOVWF  00
0D15C:  BCF    FF2.6
0D15E:  BCF    FF2.7
0D160:  MOVLB  F
0D162:  MOVLW  55
0D164:  MOVWF  FA7
0D166:  MOVLW  AA
0D168:  MOVWF  FA7
0D16A:  BSF    FA6.1
0D16C:  BTFSC  FA6.1
0D16E:  BRA    D16C
0D170:  BCF    FA6.2
0D172:  MOVF   00,W
0D174:  IORWF  FF2,F
....................                delay_ms(10); 
0D176:  MOVLW  0A
0D178:  MOVLB  6
0D17A:  MOVWF  xA8
0D17C:  MOVLB  0
0D17E:  CALL   1D14
....................                write_eeprom(30,(int8)Sensor[1].RPT100); 
0D182:  MOVFF  51D,6AB
0D186:  MOVFF  51C,6AA
0D18A:  MOVFF  51B,6A9
0D18E:  MOVFF  51A,6A8
0D192:  CALL   4406
0D196:  MOVFF  01,696
0D19A:  CLRF   FAA
0D19C:  MOVLW  1E
0D19E:  MOVWF  FA9
0D1A0:  MOVFF  696,FA8
0D1A4:  BCF    FA6.6
0D1A6:  BCF    FA6.7
0D1A8:  BSF    FA6.2
0D1AA:  MOVF   FF2,W
0D1AC:  MOVWF  00
0D1AE:  BCF    FF2.6
0D1B0:  BCF    FF2.7
0D1B2:  MOVLB  F
0D1B4:  MOVLW  55
0D1B6:  MOVWF  FA7
0D1B8:  MOVLW  AA
0D1BA:  MOVWF  FA7
0D1BC:  BSF    FA6.1
0D1BE:  BTFSC  FA6.1
0D1C0:  BRA    D1BE
0D1C2:  BCF    FA6.2
0D1C4:  MOVF   00,W
0D1C6:  IORWF  FF2,F
....................                delay_ms(10); 
0D1C8:  MOVLW  0A
0D1CA:  MOVLB  6
0D1CC:  MOVWF  xA8
0D1CE:  MOVLB  0
0D1D0:  CALL   1D14
....................                Temporal=Sensor[1].RPT100-((int8)Sensor[1].RPT100); 
0D1D4:  MOVFF  51D,6AB
0D1D8:  MOVFF  51C,6AA
0D1DC:  MOVFF  51B,6A9
0D1E0:  MOVFF  51A,6A8
0D1E4:  CALL   4406
0D1E8:  MOVLB  6
0D1EA:  CLRF   xA9
0D1EC:  MOVFF  01,6A8
0D1F0:  MOVLB  0
0D1F2:  CALL   1D3C
0D1F6:  BSF    FD8.1
0D1F8:  MOVFF  51D,6AB
0D1FC:  MOVFF  51C,6AA
0D200:  MOVFF  51B,6A9
0D204:  MOVFF  51A,6A8
0D208:  MOVFF  03,6AF
0D20C:  MOVFF  02,6AE
0D210:  MOVFF  01,6AD
0D214:  MOVFF  00,6AC
0D218:  CALL   1ED0
0D21C:  MOVFF  03,2AC
0D220:  MOVFF  02,2AB
0D224:  MOVFF  01,2AA
0D228:  MOVFF  00,2A9
....................                Temporal=Temporal*10; 
0D22C:  MOVFF  2AC,6AF
0D230:  MOVFF  2AB,6AE
0D234:  MOVFF  2AA,6AD
0D238:  MOVFF  2A9,6AC
0D23C:  MOVLB  6
0D23E:  CLRF   xB3
0D240:  CLRF   xB2
0D242:  MOVLW  20
0D244:  MOVWF  xB1
0D246:  MOVLW  82
0D248:  MOVWF  xB0
0D24A:  MOVLB  0
0D24C:  CALL   38CC
0D250:  MOVFF  03,2AC
0D254:  MOVFF  02,2AB
0D258:  MOVFF  01,2AA
0D25C:  MOVFF  00,2A9
....................                write_eeprom(29,(int8)Temporal); 
0D260:  MOVFF  2AC,6AB
0D264:  MOVFF  2AB,6AA
0D268:  MOVFF  2AA,6A9
0D26C:  MOVFF  2A9,6A8
0D270:  CALL   4406
0D274:  MOVFF  01,696
0D278:  CLRF   FAA
0D27A:  MOVLW  1D
0D27C:  MOVWF  FA9
0D27E:  MOVFF  696,FA8
0D282:  BCF    FA6.6
0D284:  BCF    FA6.7
0D286:  BSF    FA6.2
0D288:  MOVF   FF2,W
0D28A:  MOVWF  00
0D28C:  BCF    FF2.6
0D28E:  BCF    FF2.7
0D290:  MOVLB  F
0D292:  MOVLW  55
0D294:  MOVWF  FA7
0D296:  MOVLW  AA
0D298:  MOVWF  FA7
0D29A:  BSF    FA6.1
0D29C:  BTFSC  FA6.1
0D29E:  BRA    D29C
0D2A0:  BCF    FA6.2
0D2A2:  MOVF   00,W
0D2A4:  IORWF  FF2,F
....................                delay_ms(10); 
0D2A6:  MOVLW  0A
0D2A8:  MOVLB  6
0D2AA:  MOVWF  xA8
0D2AC:  MOVLB  0
0D2AE:  CALL   1D14
....................                write_eeprom(31,Atmosferica); 
0D2B2:  CLRF   FAA
0D2B4:  MOVLW  1F
0D2B6:  MOVWF  FA9
0D2B8:  MOVFF  32F,FA8
0D2BC:  BCF    FA6.6
0D2BE:  BCF    FA6.7
0D2C0:  BSF    FA6.2
0D2C2:  MOVF   FF2,W
0D2C4:  MOVWF  00
0D2C6:  BCF    FF2.6
0D2C8:  BCF    FF2.7
0D2CA:  MOVLB  F
0D2CC:  MOVLW  55
0D2CE:  MOVWF  FA7
0D2D0:  MOVLW  AA
0D2D2:  MOVWF  FA7
0D2D4:  BSF    FA6.1
0D2D6:  BTFSC  FA6.1
0D2D8:  BRA    D2D6
0D2DA:  BCF    FA6.2
0D2DC:  MOVF   00,W
0D2DE:  IORWF  FF2,F
....................                delay_ms(10); 
0D2E0:  MOVLW  0A
0D2E2:  MOVLB  6
0D2E4:  MOVWF  xA8
0D2E6:  MOVLB  0
0D2E8:  CALL   1D14
....................                write_eeprom(32,Tapertura); 
0D2EC:  CLRF   FAA
0D2EE:  MOVLW  20
0D2F0:  MOVWF  FA9
0D2F2:  MOVFF  2CE,FA8
0D2F6:  BCF    FA6.6
0D2F8:  BCF    FA6.7
0D2FA:  BSF    FA6.2
0D2FC:  MOVF   FF2,W
0D2FE:  MOVWF  00
0D300:  BCF    FF2.6
0D302:  BCF    FF2.7
0D304:  MOVLB  F
0D306:  MOVLW  55
0D308:  MOVWF  FA7
0D30A:  MOVLW  AA
0D30C:  MOVWF  FA7
0D30E:  BSF    FA6.1
0D310:  BTFSC  FA6.1
0D312:  BRA    D310
0D314:  BCF    FA6.2
0D316:  MOVF   00,W
0D318:  IORWF  FF2,F
....................                delay_ms(10); 
0D31A:  MOVLW  0A
0D31C:  MOVLB  6
0D31E:  MOVWF  xA8
0D320:  MOVLB  0
0D322:  CALL   1D14
....................                write_eeprom(47,pulsosConfigurados); 
0D326:  CLRF   FAA
0D328:  MOVLW  2F
0D32A:  MOVWF  FA9
0D32C:  MOVFF  350,FA8
0D330:  BCF    FA6.6
0D332:  BCF    FA6.7
0D334:  BSF    FA6.2
0D336:  MOVF   FF2,W
0D338:  MOVWF  00
0D33A:  BCF    FF2.6
0D33C:  BCF    FF2.7
0D33E:  MOVLB  F
0D340:  MOVLW  55
0D342:  MOVWF  FA7
0D344:  MOVLW  AA
0D346:  MOVWF  FA7
0D348:  BSF    FA6.1
0D34A:  BTFSC  FA6.1
0D34C:  BRA    D34A
0D34E:  BCF    FA6.2
0D350:  MOVF   00,W
0D352:  IORWF  FF2,F
....................                delay_ms(10); 
0D354:  MOVLW  0A
0D356:  MOVLB  6
0D358:  MOVWF  xA8
0D35A:  MOVLB  0
0D35C:  CALL   1D14
....................                write_eeprom(48,vacioTest); 
0D360:  CLRF   FAA
0D362:  MOVLW  30
0D364:  MOVWF  FA9
0D366:  MOVFF  34E,FA8
0D36A:  BCF    FA6.6
0D36C:  BCF    FA6.7
0D36E:  BSF    FA6.2
0D370:  MOVF   FF2,W
0D372:  MOVWF  00
0D374:  BCF    FF2.6
0D376:  BCF    FF2.7
0D378:  MOVLB  F
0D37A:  MOVLW  55
0D37C:  MOVWF  FA7
0D37E:  MOVLW  AA
0D380:  MOVWF  FA7
0D382:  BSF    FA6.1
0D384:  BTFSC  FA6.1
0D386:  BRA    D384
0D388:  BCF    FA6.2
0D38A:  MOVF   00,W
0D38C:  IORWF  FF2,F
....................                delay_ms(10); 
0D38E:  MOVLW  0A
0D390:  MOVLB  6
0D392:  MOVWF  xA8
0D394:  MOVLB  0
0D396:  CALL   1D14
....................                write_eeprom(49,vacioCiclo); 
0D39A:  CLRF   FAA
0D39C:  MOVLW  31
0D39E:  MOVWF  FA9
0D3A0:  MOVFF  34F,FA8
0D3A4:  BCF    FA6.6
0D3A6:  BCF    FA6.7
0D3A8:  BSF    FA6.2
0D3AA:  MOVF   FF2,W
0D3AC:  MOVWF  00
0D3AE:  BCF    FF2.6
0D3B0:  BCF    FF2.7
0D3B2:  MOVLB  F
0D3B4:  MOVLW  55
0D3B6:  MOVWF  FA7
0D3B8:  MOVLW  AA
0D3BA:  MOVWF  FA7
0D3BC:  BSF    FA6.1
0D3BE:  BTFSC  FA6.1
0D3C0:  BRA    D3BE
0D3C2:  BCF    FA6.2
0D3C4:  MOVF   00,W
0D3C6:  IORWF  FF2,F
....................                delay_ms(10); 
0D3C8:  MOVLW  0A
0D3CA:  MOVLB  6
0D3CC:  MOVWF  xA8
0D3CE:  MOVLB  0
0D3D0:  CALL   1D14
....................                GuardaEEPROM=ON; 
0D3D4:  BSF    xA2.2
....................             } 
....................             printf("page MenuPrincipal"); 
0D3D6:  MOVLW  CA
0D3D8:  MOVWF  FF6
0D3DA:  MOVLW  1C
0D3DC:  MOVWF  FF7
0D3DE:  MOVLW  00
0D3E0:  MOVWF  FF8
0D3E2:  CALL   37BA
....................             SendDataDisplay(); 
0D3E6:  CALL   37EC
....................          } 
....................       } 
....................       printf("fecha.txt=\"Fecha:%02u/%02u/20%02u    Hora: %02u:%02u\"",Dia,Mes,Year,Hora,Minuto); 
0D3EA:  MOVLW  DE
0D3EC:  MOVWF  FF6
0D3EE:  MOVLW  1C
0D3F0:  MOVWF  FF7
0D3F2:  MOVLW  00
0D3F4:  MOVWF  FF8
0D3F6:  MOVLW  11
0D3F8:  MOVLB  6
0D3FA:  MOVWF  x9A
0D3FC:  MOVLB  0
0D3FE:  CALL   4EA0
0D402:  MOVFF  381,698
0D406:  MOVLW  01
0D408:  MOVLB  6
0D40A:  MOVWF  x99
0D40C:  MOVLB  0
0D40E:  CALL   4EFE
0D412:  MOVLW  2F
0D414:  BTFSS  F9E.4
0D416:  BRA    D414
0D418:  MOVWF  FAD
0D41A:  MOVFF  380,698
0D41E:  MOVLW  01
0D420:  MOVLB  6
0D422:  MOVWF  x99
0D424:  MOVLB  0
0D426:  CALL   4EFE
0D42A:  MOVLW  2F
0D42C:  BTFSS  F9E.4
0D42E:  BRA    D42C
0D430:  MOVWF  FAD
0D432:  MOVLW  32
0D434:  BTFSS  F9E.4
0D436:  BRA    D434
0D438:  MOVWF  FAD
0D43A:  MOVLW  30
0D43C:  BTFSS  F9E.4
0D43E:  BRA    D43C
0D440:  MOVWF  FAD
0D442:  MOVFF  37F,698
0D446:  MOVLW  01
0D448:  MOVLB  6
0D44A:  MOVWF  x99
0D44C:  MOVLB  0
0D44E:  CALL   4EFE
0D452:  MOVLW  FF
0D454:  MOVWF  FF6
0D456:  MOVLW  1C
0D458:  MOVWF  FF7
0D45A:  MOVLW  00
0D45C:  MOVWF  FF8
0D45E:  MOVLW  0A
0D460:  MOVLB  6
0D462:  MOVWF  x9A
0D464:  MOVLB  0
0D466:  CALL   4EA0
0D46A:  MOVFF  382,698
0D46E:  MOVLW  01
0D470:  MOVLB  6
0D472:  MOVWF  x99
0D474:  MOVLB  0
0D476:  CALL   4EFE
0D47A:  MOVLW  3A
0D47C:  BTFSS  F9E.4
0D47E:  BRA    D47C
0D480:  MOVWF  FAD
0D482:  MOVFF  383,698
0D486:  MOVLW  01
0D488:  MOVLB  6
0D48A:  MOVWF  x99
0D48C:  MOVLB  0
0D48E:  CALL   4EFE
0D492:  MOVLW  22
0D494:  BTFSS  F9E.4
0D496:  BRA    D494
0D498:  MOVWF  FAD
....................       SendDataDisplay();  
0D49A:  CALL   37EC
0D49E:  MOVLB  3
....................     } 
.................... //_--------------------------------------------------------------------------------------------------------------------------------------------------------        
....................    } 
0D4A0:  GOTO   6E18
.................... } 
0D4A4:  SLEEP 

Configuration Fuses:
   Word  1: 0200   HS NOIESO NOFCMEN
   Word  2: 1B1F   BROWNOUT WDT BORV20 NOPUT WDT8192
   Word  3: 0000   NOPBADEN NOLPT1OSC NOMCLR
   Word  4: 00B0   NOSTVREN NODEBUG NOLVP NOXINST BBSIZ4K
   Word  5: C03F   NOPROTECT NOCPD NOCPB
   Word  6: E03F   NOWRT NOWRTD NOWRTC NOWRTB
   Word  7: 403F   NOEBTR NOEBTRB
