CCS PCH C Compiler, Version 4.104, 5967               04-ene.-21 11:38

               Filename: D:\Laboratorio\Autoclave\Autoclave Horizontal\Sin Precamara\2020\Autoclave 23L con Vacio Health Import #004588445-46-47-48 OP2020363-364-365-366\Firmware V4.0.4 Vacio-AumentoAlarmas-PurgaAgua\004588448\GLCD_Controller\GLCD_Controller.lst

               ROM used: 69412 bytes (71%)
                         Largest free fragment is 28452
               RAM used: 1809 (54%) at main() level
                         1836 (55%) worst case
               Stack:    5 worst case (4 in main + 1 for interrupts)

*
00000:  GOTO   10000
*
00008:  GOTO   00BA
0000C:  NOP   
0000E:  NOP   
00010:  NOP   
00012:  NOP   
00014:  NOP   
00016:  NOP   
00018:  MOVWF  04
0001A:  MOVFF  FD8,05
0001E:  MOVFF  FE0,06
00022:  MOVLB  0
00024:  MOVFF  FE9,0C
00028:  MOVFF  FEA,07
0002C:  MOVFF  FE1,08
00030:  MOVFF  FE2,09
00034:  MOVFF  FD9,0A
00038:  MOVFF  FDA,0B
0003C:  MOVFF  FF3,12
00040:  MOVFF  FF4,13
00044:  MOVFF  FFA,14
00048:  MOVFF  FFB,15
0004C:  MOVFF  00,0E
00050:  MOVFF  01,0F
00054:  MOVFF  02,10
00058:  MOVFF  03,11
0005C:  BTFSS  FF2.5
0005E:  GOTO   0068
00062:  BTFSC  FF2.2
00064:  GOTO   0634
00068:  BTFSS  F9D.0
0006A:  GOTO   0074
0006E:  BTFSC  F9E.0
00070:  GOTO   068C
00074:  MOVFF  0E,00
00078:  MOVFF  0F,01
0007C:  MOVFF  10,02
00080:  MOVFF  11,03
00084:  MOVFF  0C,FE9
00088:  MOVFF  07,FEA
0008C:  BSF    07.7
0008E:  MOVFF  08,FE1
00092:  MOVFF  09,FE2
00096:  MOVFF  0A,FD9
0009A:  MOVFF  0B,FDA
0009E:  MOVFF  12,FF3
000A2:  MOVFF  13,FF4
000A6:  MOVFF  14,FFA
000AA:  MOVFF  15,FFB
000AE:  MOVF   04,W
000B0:  MOVFF  06,FE0
000B4:  MOVFF  05,FD8
000B8:  RETFIE 0
000BA:  MOVWF  17
000BC:  MOVFF  FD8,18
000C0:  MOVFF  FE0,19
000C4:  MOVLB  0
000C6:  MOVFF  FE9,1F
000CA:  MOVFF  FEA,1A
000CE:  MOVFF  FE1,1B
000D2:  MOVFF  FE2,1C
000D6:  MOVFF  FD9,1D
000DA:  MOVFF  FDA,1E
000DE:  MOVFF  FF3,25
000E2:  MOVFF  FF4,26
000E6:  MOVFF  FFA,27
000EA:  MOVFF  FFB,28
000EE:  MOVFF  00,21
000F2:  MOVFF  01,22
000F6:  MOVFF  02,23
000FA:  MOVFF  03,24
000FE:  BTFSS  F9D.5
00100:  GOTO   010A
00104:  BTFSC  F9E.5
00106:  GOTO   05D0
0010A:  MOVFF  21,00
0010E:  MOVFF  22,01
00112:  MOVFF  23,02
00116:  MOVFF  24,03
0011A:  MOVFF  1F,FE9
0011E:  MOVFF  1A,FEA
00122:  BSF    1A.7
00124:  MOVFF  1B,FE1
00128:  MOVFF  1C,FE2
0012C:  MOVFF  1D,FD9
00130:  MOVFF  1E,FDA
00134:  MOVFF  25,FF3
00138:  MOVFF  26,FF4
0013C:  MOVFF  27,FFA
00140:  MOVFF  28,FFB
00144:  MOVF   17,W
00146:  MOVFF  19,FE0
0014A:  MOVFF  18,FD8
0014E:  RETFIE 0
.................... //Falta crear menu de ajuste de variables y de norma CFR21 
....................  
.................... #include <18F4685.h> 
.................... //////// Standard Header file for the PIC18F4685 device //////////////// 
.................... #device PIC18F4685 
.................... #list 
....................  
.................... #device adc=10 
.................... #device HIGH_INTS=TRUE //Activamos niveles de prioridad 
.................... #fuses HS,WDT8192,NOPROTECT,NOLVP,NODEBUG,NOSTVREN,NOPUT,NOCPD,NOWRT,NOIESO,NOFCMEN,NOPBADEN,NOWRTC,NOWRTB,NOEBTR,NOEBTRB,NOCPB,NOXINST,NOLPT1OSC,NOMCLR,NOBROWNOUT 
.................... #use delay(clock=20000000) 
*
02060:  MOVLW  07
02062:  MOVWF  FEA
02064:  MOVLW  1E
02066:  MOVWF  FE9
02068:  MOVF   FEF,W
0206A:  BZ    2086
0206C:  MOVLW  06
0206E:  MOVWF  01
02070:  CLRF   00
02072:  DECFSZ 00,F
02074:  BRA    2072
02076:  DECFSZ 01,F
02078:  BRA    2070
0207A:  MOVLW  7B
0207C:  MOVWF  00
0207E:  DECFSZ 00,F
02080:  BRA    207E
02082:  DECFSZ FEF,F
02084:  BRA    206C
02086:  RETLW  00
.................... #use i2c(Master,slow,sda=PIN_C4,scl=PIN_C3) 
*
024B6:  MOVLW  08
024B8:  MOVWF  01
024BA:  MOVLW  05
024BC:  MOVWF  00
024BE:  DECFSZ 00,F
024C0:  BRA    24BE
024C2:  BCF    F8B.3
024C4:  BCF    F94.3
024C6:  MOVLW  06
024C8:  MOVWF  00
024CA:  DECFSZ 00,F
024CC:  BRA    24CA
024CE:  MOVLB  7
024D0:  RLCF   x26,F
024D2:  BCF    F8B.4
024D4:  BTFSC  FD8.0
024D6:  BSF    F94.4
024D8:  BTFSS  FD8.0
024DA:  BCF    F94.4
024DC:  BSF    F94.3
024DE:  BTFSS  F82.3
024E0:  BRA    24DE
024E2:  DECFSZ 01,F
024E4:  BRA    24E8
024E6:  BRA    24EC
024E8:  MOVLB  0
024EA:  BRA    24BA
024EC:  MOVLW  05
024EE:  MOVWF  00
024F0:  DECFSZ 00,F
024F2:  BRA    24F0
024F4:  BCF    F8B.3
024F6:  BCF    F94.3
024F8:  NOP   
024FA:  BSF    F94.4
024FC:  MOVLW  06
024FE:  MOVWF  00
02500:  DECFSZ 00,F
02502:  BRA    2500
02504:  MOVLW  06
02506:  MOVWF  00
02508:  DECFSZ 00,F
0250A:  BRA    2508
0250C:  BSF    F94.3
0250E:  BTFSS  F82.3
02510:  BRA    250E
02512:  CLRF   01
02514:  MOVLW  06
02516:  MOVWF  00
02518:  DECFSZ 00,F
0251A:  BRA    2518
0251C:  BTFSC  F82.4
0251E:  BSF    01.0
02520:  BCF    F8B.3
02522:  BCF    F94.3
02524:  BCF    F8B.4
02526:  BCF    F94.4
02528:  MOVLB  0
0252A:  RETLW  00
0252C:  MOVLW  08
0252E:  MOVLB  7
02530:  MOVWF  x11
02532:  MOVFF  00,712
02536:  BSF    F94.4
02538:  MOVLW  06
0253A:  MOVWF  00
0253C:  DECFSZ 00,F
0253E:  BRA    253C
02540:  BSF    F94.3
02542:  BTFSS  F82.3
02544:  BRA    2542
02546:  BTFSC  F82.4
02548:  BSF    FD8.0
0254A:  BTFSS  F82.4
0254C:  BCF    FD8.0
0254E:  RLCF   01,F
02550:  MOVLW  05
02552:  MOVWF  00
02554:  DECFSZ 00,F
02556:  BRA    2554
02558:  BCF    F94.3
0255A:  BCF    F8B.3
0255C:  DECFSZ x11,F
0255E:  BRA    2536
02560:  BSF    F94.4
02562:  MOVLW  06
02564:  MOVWF  00
02566:  DECFSZ 00,F
02568:  BRA    2566
0256A:  BCF    F8B.4
0256C:  MOVF   x12,W
0256E:  BTFSS  FD8.2
02570:  BCF    F94.4
02572:  NOP   
02574:  BSF    F94.3
02576:  BTFSS  F82.3
02578:  BRA    2576
0257A:  MOVLW  05
0257C:  MOVWF  00
0257E:  DECFSZ 00,F
02580:  BRA    257E
02582:  BCF    F8B.3
02584:  BCF    F94.3
02586:  MOVLW  06
02588:  MOVWF  00
0258A:  DECFSZ 00,F
0258C:  BRA    258A
0258E:  BCF    F8B.4
02590:  BCF    F94.4
02592:  MOVLB  0
02594:  GOTO   2612 (RETURN)
.................... #use rs232(baud=9600, xmit=PIN_C6, rcv=PIN_C7, bits=8, parity=N) 
*
04562:  BTFSS  F9E.4
04564:  BRA    4562
04566:  MOVWF  FAD
04568:  RETLW  00
....................  
.................... #include <stdio.h> 
.................... /////////////////////////////////////////////////////////////////////////// 
.................... ////        (C) Copyright 1996,2003 Custom Computer Services           //// 
.................... //// This source code may only be used by licensed users of the CCS C  //// 
.................... //// compiler.  This source code may only be distributed to other      //// 
.................... //// licensed users of the CCS C compiler.  No other use, reproduction //// 
.................... //// or distribution is permitted without written permission.          //// 
.................... //// Derivative programs created using this software in object code    //// 
.................... //// form are not restricted in any way.                               //// 
.................... /////////////////////////////////////////////////////////////////////////// 
....................  
.................... #ifndef _STDIO 
.................... #define _STDIO 
.................... #include <string.h> 
.................... //////////////////////////////////////////////////////////////////////////// 
.................... ////        (C) Copyright 1996,2008 Custom Computer Services            //// 
.................... //// This source code may only be used by licensed users of the CCS C   //// 
.................... //// compiler.  This source code may only be distributed to other       //// 
.................... //// licensed users of the CCS C compiler.  No other use, reproduction  //// 
.................... //// or distribution is permitted without written permission.           //// 
.................... //// Derivative programs created using this software in object code     //// 
.................... //// form are not restricted in any way.                                //// 
.................... //////////////////////////////////////////////////////////////////////////// 
....................  
.................... #ifndef _STRING 
.................... #define _STRING 
.................... #include <stddef.h> 
.................... /////////////////////////////////////////////////////////////////////////// 
.................... ////        (C) Copyright 1996,2003 Custom Computer Services           //// 
.................... //// This source code may only be used by licensed users of the CCS C  //// 
.................... //// compiler.  This source code may only be distributed to other      //// 
.................... //// licensed users of the CCS C compiler.  No other use, reproduction //// 
.................... //// or distribution is permitted without written permission.          //// 
.................... //// Derivative programs created using this software in object code    //// 
.................... //// form are not restricted in any way.                               //// 
.................... /////////////////////////////////////////////////////////////////////////// 
....................  
.................... #ifndef _STDDEF 
....................  
.................... #define _STDDEF 
....................  
.................... #if sizeof(unsigned int8 *)==1 
.................... #define ptrdiff_t unsigned int8 
.................... #else 
.................... #define ptrdiff_t unsigned int16 
.................... #endif 
....................  
.................... #define size_t unsigned int8 
.................... #define wchar_t char 
.................... #define NULL 0 
....................  
.................... #define offsetof(s,f) (offsetofbit(s,f)/8) 
....................  
.................... #endif 
....................  
.................... #include <ctype.h> 
.................... //////////////////////////////////////////////////////////////////////////// 
.................... ////        (C) Copyright 1996,2003 Custom Computer Services            //// 
.................... //// This source code may only be used by licensed users of the CCS C   //// 
.................... //// compiler.  This source code may only be distributed to other       //// 
.................... //// licensed users of the CCS C compiler.  No other use, reproduction  //// 
.................... //// or distribution is permitted without written permission.           //// 
.................... //// Derivative programs created using this software in object code     //// 
.................... //// form are not restricted in any way.                                //// 
.................... //////////////////////////////////////////////////////////////////////////// 
....................  
.................... #ifndef _CTYPE 
.................... #define _CTYPE 
....................  
.................... #define islower(x)  isamong(x,"abcdefghijklmnopqrstuvwxyz") 
.................... #define isupper(x)  isamong(x,"ABCDEFGHIJKLMNOPQRSTUVWXYZ") 
.................... #define isalnum(x)  isamong(x,"0123456789ABCDEFGHIJKLMNOPQRSTUVWXYZabcdefghijklmnopqrstuvwxyz") 
.................... #define isalpha(x)  isamong(x,"ABCDEFGHIJKLMNOPQRSTUVWXYZabcdefghijklmnopqrstuvwxyz") 
.................... #define isdigit(x)  isamong(x,"0123456789") 
.................... #define isspace(x)  ((x)==' ') 
.................... #define isxdigit(x) isamong(x,"0123456789ABCDEFabcdef") 
.................... #define iscntrl(x)  ((x)<' ') 
.................... #define isprint(x)  ((x)>=' ') 
.................... #define isgraph(x)  ((x)>' ') 
.................... #define ispunct(x)  (((x)>' ')&&!isalnum(x)) 
....................  
.................... #endif 
....................  
....................  
....................  
....................  
....................  
.................... ////////////////////////////////////////////// 
.................... //// Uncomment the following define to    //// 
.................... //// allow some functions to use a        //// 
.................... //// quicker algorithm, but use more ROM  //// 
.................... ////                                      //// 
.................... //// #define FASTER_BUT_MORE_ROM          //// 
.................... ////////////////////////////////////////////// 
....................  
....................  
....................  
.................... /*Copying functions*/ 
.................... /* standard template: 
....................    void *memmove(void *s1, void *s2, size_t n). 
....................    Copies max of n characters safely (not following ending '\0') 
....................    from s2 in s1; if s2 has less than n characters, appends 0 */ 
....................  
.................... char *memmove(void *s1,char *s2,size_t n) 
.................... { 
....................    char *sc1; 
....................    char *sc2; 
....................    sc1=s1; 
....................    sc2=s2; 
....................    if(sc2<sc1 && sc1 <sc2 +n) 
....................       for(sc1+=n,sc2+=n;0<n;--n) 
....................          *--sc1=*--sc2; 
....................    else 
....................       for(;0<n;--n) 
....................          *sc1++=*sc2++; 
....................   return s1; 
....................   } 
....................  
.................... /* Standard template: char *strcpy(char *s1, const char *s2) 
....................    copies the string s2 including the null character to s1. 
....................    This is a compiler built in to handle the different address 
....................    spaces */ 
....................  
.................... #define strcopy strcpy 
....................  
.................... /* standard template: 
....................    char *strncpy(char *s1, const char *s2, size_t n). 
....................    Copies max of n characters (not following ending '\0') 
....................    from s2 in s1; if s2 has less than n characters, appends 0 */ 
....................  
.................... char *strncpy(char *s1, char *s2, size_t n) 
.................... { 
....................   char *s; 
....................  
....................   for (s = s1; n > 0 && *s2 != '\0'; n--) 
....................      *s++ = *s2++; 
....................   for (; n > 0; n--) 
....................      *s++ = '\0'; 
....................  
....................   return(s1); 
.................... } 
.................... /***********************************************************/ 
....................  
.................... /*concatenation functions*/ 
.................... /* standard template: char *strcat(char *s1, const char *s2) 
.................... appends s2 to s1*/ 
....................  
.................... char *strcat(char *s1, char *s2) 
.................... { 
....................    char *s; 
....................  
....................    for (s = s1; *s != '\0'; ++s); 
....................    while(*s2 != '\0') 
....................    { 
....................       *s = *s2; 
....................       ++s; 
....................       ++s2; 
....................    } 
....................  
....................    *s = '\0'; 
....................    return(s1); 
.................... } 
.................... /* standard template: char *strncat(char *s1, char *s2,size_t n) 
.................... appends not more than n characters from s2 to s1*/ 
....................  
.................... char *strncat(char *s1, char *s2, size_t n) 
.................... { 
....................    char *s; 
....................  
....................    for (s = s1; *s != '\0'; ++s); 
....................    while(*s2 != '\0' && 0<n) 
....................    { 
....................       *s = *s2; 
....................       ++s; 
....................       ++s2; 
....................       --n; 
....................    } 
....................  
....................    *s = '\0'; 
....................    return(s1); 
.................... } 
....................  
.................... /***********************************************************/ 
....................  
....................  
.................... /*comparison functions*/ 
.................... /* standard template: signed int memcmp(void *s1, void *s2). 
....................    Compares s1 & s2; returns -1 if s1<s2, 0 if s1=s2, 1 if s1>s2 */ 
....................  
.................... signed int8 memcmp(void * s1,char *s2,size_t n) 
.................... { 
.................... char *su1, *su2; 
.................... for(su1=s1, su2=s2; 0<n; ++su1, ++su2, --n) 
.................... { 
....................    if(*su1!=*su2) 
....................       return ((*su1<*su2)?-1:+1); 
.................... } 
.................... return 0; 
.................... } 
....................  
.................... /* standard template: int strcmp(const char *s1, const char *s2). 
....................    Compares s1 & s2; returns -1 if s1<s2, 0 if s1=s2, 1 if s1>s2 */ 
....................  
.................... signed int8 strcmp(char *s1, char *s2) 
.................... { 
....................    for (; *s1 == *s2; s1++, s2++) 
....................       if (*s1 == '\0') 
....................          return(0); 
....................    return((*s1 < *s2) ? -1: 1); 
.................... } 
.................... /* standard template: int strcoll(const char *s1, const char *s2). 
....................    Compares s1 & s2; returns -1 if s1<s2, 0 if s1=s2, 1 if s1>s2 */ 
....................  
.................... signed int8 strcoll(char *s1, char *s2) 
.................... { 
....................    for (; *s1 == *s2; s1++, s2++) 
....................       if (*s1 == '\0') 
....................          return(0); 
....................    return((*s1 < *s2) ? -1: 1); 
.................... } 
....................  
.................... /* standard template: 
....................    int strncmp(const char *s1, const char *s2, size_t n). 
....................    Compares max of n characters (not following 0) from s1 to s2; 
....................    returns same as strcmp */ 
....................  
.................... signed int8 strncmp(char *s1, char *s2, size_t n) 
.................... { 
....................    for (; n > 0; s1++, s2++, n--) 
....................       if (*s1 != *s2) 
....................          return((*s1 <*s2) ? -1: 1); 
....................       else if (*s1 == '\0') 
....................          return(0); 
....................    return(0); 
.................... } 
.................... /* standard template: 
....................    int strxfrm(const char *s1, const char *s2, size_t n). 
....................    transforms maximum of n characters from s2 and places them into s1*/ 
.................... size_t strxfrm(char *s1, char *s2, size_t n) 
.................... { 
....................   char *s; 
....................   unsigned int8 n1; 
....................   n1=n; 
....................   for (s = s1; n > 0 && *s2 != '\0'; n--) 
....................      *s++ = *s2++; 
....................   for (; n > 0; n--) 
....................      *s++ = '\0'; 
....................  
....................   return(n1); 
.................... } 
....................  
....................  
....................  
....................  
....................  
.................... /***********************************************************/ 
.................... /*Search functions*/ 
.................... /* standard template: void *memchr(const char *s, int c). 
....................    Finds first occurrence of c in n characters of s */ 
....................  
.................... char *memchr(void *s,unsigned int8 c,size_t n) 
.................... { 
....................    char uc; 
....................    char *su; 
....................    uc=c; 
....................    for(su=s;0<n;++su,--n) 
....................       if(*su==uc) 
....................       return su; 
....................    return NULL; 
.................... } 
....................  
.................... /* standard template: char *strchr(const char *s, int c). 
....................    Finds first occurrence of c in s */ 
....................  
.................... char *strchr(char *s, unsigned int8 c) 
.................... { 
....................    for (; *s != c; s++) 
....................       if (*s == '\0') 
....................          return(0); 
....................    return(s); 
.................... } 
.................... /* standard template: 
....................    size_t strcspn(const char *s1, const char *s2). 
....................    Computes length of max initial segment of s1 that 
....................    consists entirely of characters NOT from s2*/ 
....................  
.................... unsigned int8  strcspn(char *s1, char *s2) 
.................... { 
....................    char *sc1, *sc2; 
....................  
....................    for (sc1 = s1; *sc1 != 0; sc1++) 
....................       for (sc2 = s2; *sc2 != 0; sc2++) 
....................          if (*sc1 == *sc2) 
....................             return(sc1 - s1); 
....................    return(sc1 - s1); 
.................... } 
.................... /* standard template: 
....................    char *strpbrk(const char *s1, const char *s2). 
....................    Locates first occurence of any character from s2 in s1; 
....................    returns s1 if s2 is empty string */ 
....................  
.................... char *strpbrk(char *s1, char *s2) 
.................... { 
....................    char *sc1, *sc2; 
....................  
....................    for (sc1 = s1; *sc1 != 0; sc1++) 
....................       for (sc2 = s2; *sc2 != 0; sc2++) 
....................          if (*sc1 == *sc2) 
....................             return(sc1); 
....................    return(0); 
.................... } 
....................  
....................  
.................... /* standard template: char *strrchr(const char *s, int c). 
....................    Finds last occurrence of c in s */ 
....................  
.................... char *strrchr(char *s, unsigned int8 c) 
.................... { 
....................    char *p; 
....................  
....................    for (p = 0; ; s++) 
....................    { 
....................       if (*s == c) 
....................          p = s; 
....................       if (*s == '\0') 
....................          return(p); 
....................    } 
.................... } 
.................... /* computes length of max initial segment of s1 consisting 
....................    entirely of characters from s2 */ 
....................  
.................... unsigned int8  strspn(char *s1, char *s2) 
.................... { 
....................    char *sc1, *sc2; 
....................  
....................    for (sc1 = s1; *sc1 != 0; sc1++) 
....................       for (sc2 = s2; ; sc2++) 
....................     if (*sc2 == '\0') 
....................        return(sc1 - s1); 
....................          else if (*sc1 == *sc2) 
....................             break; 
....................    return(sc1 - s1); 
.................... } 
.................... /* standard template: 
....................    char *strstr(const char *s1, const char *s2); 
....................    Locates first occurence of character sequence s2 in s1; 
....................    returns 0 if s2 is empty string 
....................  
....................    Uncomment #define FASTER_BUT_MORE_ROM at the top of the 
....................    file to use the faster algorithm */ 
.................... char *strstr(char *s1, char *s2) 
.................... { 
....................    char *s, *t; 
....................  
....................    #ifdef FASTER_BUT_MORE_ROM 
....................    if (*s2 == '\0') 
....................          return(s1); 
....................    #endif 
....................  
....................    while (*s1) 
....................    { 
....................       for(s = s1, t = s2; *t && (*s == *t); ++s, ++t); 
....................  
....................       if (*t == '\0') 
....................          return s1; 
....................       ++s1; 
....................       #ifdef FASTER_BUT_MORE_ROM 
....................          while(*s1 != '\0' && *s1 != *s2) 
....................             ++s1; 
....................       #endif 
....................    } 
....................    return 0; 
.................... } 
....................  
.................... /* standard template: char *strtok(char *s1, const char *s2). 
....................  
....................    Finds next token in s1 delimited by a character from separator 
....................    string s2 (which can be different from call to call).  First call 
....................    starts at beginning of s1 searching for first character NOT 
....................    contained in s2; returns 0 if none is found. 
....................    If one is found, it is the start of first token (return value). 
....................    Function then searches from there for a character contained in s2. 
....................    If none is found, current token extends to end of s1, and subsequent 
....................    searches for a token will return 0.  If one is found, it is 
....................    overwritten by '\0', which terminates current token.  Function saves 
....................    pointer to following character from which next search will start. 
....................    Each subsequent call, with 0 as first argument, starts searching 
....................    from saved pointer */ 
....................  
.................... char *strtok(char *s1, char *s2) 
.................... { 
....................    char *beg, *end; 
....................    static char *save; 
....................  
....................    beg = (s1)? s1: save; 
....................    beg += strspn(beg, s2); 
....................    if (*beg == '\0') 
....................    { 
....................       *save = ' '; 
....................       return(0); 
....................    } 
....................    end = strpbrk(beg, s2); 
....................    if (*end != '\0') 
....................    { 
....................       *end = '\0'; 
....................       end++; 
....................    } 
....................    save = end; 
....................    return(beg); 
.................... } 
....................  
.................... /*****************************************************************/ 
.................... /*Miscellaneous functions*/ 
.................... /* standard template 
.................... maps error number in errnum to an error message string 
.................... Returns: Pointer to string 
.................... */ 
.................... #ifdef _ERRNO 
.................... char * strerror(unsigned int8 errnum) 
.................... { 
.................... char s[15]; 
.................... switch( errnum) 
.................... { 
.................... case 0: 
....................    strcpy(s,"no errors"); 
....................    return s; 
.................... case EDOM : 
....................    strcpy(s,"domain error"); 
....................    return s; 
.................... case ERANGE: 
....................    strcpy(s,"range error"); 
....................    return s; 
.................... } 
.................... } 
.................... #ENDIF 
.................... /* standard template: size_t strlen(const char *s). 
....................    Computes length of s1 (preceding terminating 0) */ 
....................  
.................... unsigned int8 strlen(char *s) 
.................... { 
....................    char *sc; 
....................  
....................    for (sc = s; *sc != 0; sc++); 
....................    return(sc - s); 
.................... } 
....................  
.................... /* standard template: size_t stricmp(const char *s1, const char *s2). 
....................    Compares s1 to s2 ignoring case (upper vs. lower) */ 
....................  
.................... signed int8 stricmp(char *s1, char *s2) 
.................... { 
....................  for(; *s1==*s2||(isalpha(*s1)&&isalpha(*s2)&&(*s1==*s2+32||*s2==*s1+32)); 
....................     s1++, s2++) 
....................     if (*s1 == '\0') 
....................        return(0); 
....................  return((*s1 < *s2) ? -1: 1); 
.................... } 
....................  
....................  
.................... /* standard template: char *strlwr(char *s). 
....................    Replaces uppercase letters by lowercase; 
....................    returns pointer to new string s */ 
....................  
.................... char *strlwr(char *s) 
.................... { 
....................    char *p; 
....................  
....................    for (p = s; *p != '\0'; p++) 
....................       if (*p >= 'A' && *p <='Z') 
....................          *p += 'a' - 'A'; 
....................    return(s); 
.................... } 
....................  
....................  
.................... /************************************************************/ 
....................  
....................  
.................... #endif 
....................  
.................... #ifndef getc 
.................... #define getc getch 
.................... #define getchar getch 
.................... #define puts(s) {printf(s); putchar(13); putchar(10);} 
.................... #define putc putchar 
.................... #endif 
.................... /* maps error number to an error message. Writes a sequence of characters to 
.................... stderr stream thus: if s is not null then string pointed to by s follwed by 
.................... a colon (:) and a space and the appropriate error message returned by strerror 
.................... function with argument errno 
....................  
.................... Returns: no value 
.................... */ 
....................  
.................... #ifdef _ERRNO 
.................... void perror(char *s) 
.................... { 
....................   if(s) 
....................   fprintf(STDERR,"%s: ",s); 
....................   fprintf(STDERR,"%s\r\n",strerror(errno)); 
.................... } 
.................... #endif 
.................... #endif 
....................  
.................... #include <string.h> 
.................... //////////////////////////////////////////////////////////////////////////// 
.................... ////        (C) Copyright 1996,2008 Custom Computer Services            //// 
.................... //// This source code may only be used by licensed users of the CCS C   //// 
.................... //// compiler.  This source code may only be distributed to other       //// 
.................... //// licensed users of the CCS C compiler.  No other use, reproduction  //// 
.................... //// or distribution is permitted without written permission.           //// 
.................... //// Derivative programs created using this software in object code     //// 
.................... //// form are not restricted in any way.                                //// 
.................... //////////////////////////////////////////////////////////////////////////// 
....................  
.................... #ifndef _STRING 
.................... #define _STRING 
.................... #include <stddef.h> 
.................... #include <ctype.h> 
....................  
....................  
....................  
.................... ////////////////////////////////////////////// 
.................... //// Uncomment the following define to    //// 
.................... //// allow some functions to use a        //// 
.................... //// quicker algorithm, but use more ROM  //// 
.................... ////                                      //// 
.................... //// #define FASTER_BUT_MORE_ROM          //// 
.................... ////////////////////////////////////////////// 
....................  
....................  
....................  
.................... /*Copying functions*/ 
.................... /* standard template: 
....................    void *memmove(void *s1, void *s2, size_t n). 
....................    Copies max of n characters safely (not following ending '\0') 
....................    from s2 in s1; if s2 has less than n characters, appends 0 */ 
....................  
.................... char *memmove(void *s1,char *s2,size_t n) 
.................... { 
....................    char *sc1; 
....................    char *sc2; 
....................    sc1=s1; 
....................    sc2=s2; 
....................    if(sc2<sc1 && sc1 <sc2 +n) 
....................       for(sc1+=n,sc2+=n;0<n;--n) 
....................          *--sc1=*--sc2; 
....................    else 
....................       for(;0<n;--n) 
....................          *sc1++=*sc2++; 
....................   return s1; 
....................   } 
....................  
.................... /* Standard template: char *strcpy(char *s1, const char *s2) 
....................    copies the string s2 including the null character to s1. 
....................    This is a compiler built in to handle the different address 
....................    spaces */ 
....................  
.................... #define strcopy strcpy 
....................  
.................... /* standard template: 
....................    char *strncpy(char *s1, const char *s2, size_t n). 
....................    Copies max of n characters (not following ending '\0') 
....................    from s2 in s1; if s2 has less than n characters, appends 0 */ 
....................  
.................... char *strncpy(char *s1, char *s2, size_t n) 
.................... { 
....................   char *s; 
....................  
....................   for (s = s1; n > 0 && *s2 != '\0'; n--) 
....................      *s++ = *s2++; 
....................   for (; n > 0; n--) 
....................      *s++ = '\0'; 
....................  
....................   return(s1); 
.................... } 
.................... /***********************************************************/ 
....................  
.................... /*concatenation functions*/ 
.................... /* standard template: char *strcat(char *s1, const char *s2) 
.................... appends s2 to s1*/ 
....................  
.................... char *strcat(char *s1, char *s2) 
.................... { 
....................    char *s; 
....................  
....................    for (s = s1; *s != '\0'; ++s); 
....................    while(*s2 != '\0') 
....................    { 
....................       *s = *s2; 
....................       ++s; 
....................       ++s2; 
....................    } 
....................  
....................    *s = '\0'; 
....................    return(s1); 
.................... } 
.................... /* standard template: char *strncat(char *s1, char *s2,size_t n) 
.................... appends not more than n characters from s2 to s1*/ 
....................  
.................... char *strncat(char *s1, char *s2, size_t n) 
.................... { 
....................    char *s; 
....................  
....................    for (s = s1; *s != '\0'; ++s); 
....................    while(*s2 != '\0' && 0<n) 
....................    { 
....................       *s = *s2; 
....................       ++s; 
....................       ++s2; 
....................       --n; 
....................    } 
....................  
....................    *s = '\0'; 
....................    return(s1); 
.................... } 
....................  
.................... /***********************************************************/ 
....................  
....................  
.................... /*comparison functions*/ 
.................... /* standard template: signed int memcmp(void *s1, void *s2). 
....................    Compares s1 & s2; returns -1 if s1<s2, 0 if s1=s2, 1 if s1>s2 */ 
....................  
.................... signed int8 memcmp(void * s1,char *s2,size_t n) 
.................... { 
.................... char *su1, *su2; 
.................... for(su1=s1, su2=s2; 0<n; ++su1, ++su2, --n) 
.................... { 
....................    if(*su1!=*su2) 
....................       return ((*su1<*su2)?-1:+1); 
.................... } 
.................... return 0; 
.................... } 
....................  
.................... /* standard template: int strcmp(const char *s1, const char *s2). 
....................    Compares s1 & s2; returns -1 if s1<s2, 0 if s1=s2, 1 if s1>s2 */ 
....................  
.................... signed int8 strcmp(char *s1, char *s2) 
.................... { 
....................    for (; *s1 == *s2; s1++, s2++) 
....................       if (*s1 == '\0') 
....................          return(0); 
....................    return((*s1 < *s2) ? -1: 1); 
.................... } 
.................... /* standard template: int strcoll(const char *s1, const char *s2). 
....................    Compares s1 & s2; returns -1 if s1<s2, 0 if s1=s2, 1 if s1>s2 */ 
....................  
.................... signed int8 strcoll(char *s1, char *s2) 
.................... { 
....................    for (; *s1 == *s2; s1++, s2++) 
....................       if (*s1 == '\0') 
....................          return(0); 
....................    return((*s1 < *s2) ? -1: 1); 
.................... } 
....................  
.................... /* standard template: 
....................    int strncmp(const char *s1, const char *s2, size_t n). 
....................    Compares max of n characters (not following 0) from s1 to s2; 
....................    returns same as strcmp */ 
....................  
.................... signed int8 strncmp(char *s1, char *s2, size_t n) 
.................... { 
....................    for (; n > 0; s1++, s2++, n--) 
....................       if (*s1 != *s2) 
....................          return((*s1 <*s2) ? -1: 1); 
....................       else if (*s1 == '\0') 
....................          return(0); 
....................    return(0); 
.................... } 
.................... /* standard template: 
....................    int strxfrm(const char *s1, const char *s2, size_t n). 
....................    transforms maximum of n characters from s2 and places them into s1*/ 
.................... size_t strxfrm(char *s1, char *s2, size_t n) 
.................... { 
....................   char *s; 
....................   unsigned int8 n1; 
....................   n1=n; 
....................   for (s = s1; n > 0 && *s2 != '\0'; n--) 
....................      *s++ = *s2++; 
....................   for (; n > 0; n--) 
....................      *s++ = '\0'; 
....................  
....................   return(n1); 
.................... } 
....................  
....................  
....................  
....................  
....................  
.................... /***********************************************************/ 
.................... /*Search functions*/ 
.................... /* standard template: void *memchr(const char *s, int c). 
....................    Finds first occurrence of c in n characters of s */ 
....................  
.................... char *memchr(void *s,unsigned int8 c,size_t n) 
.................... { 
....................    char uc; 
....................    char *su; 
....................    uc=c; 
....................    for(su=s;0<n;++su,--n) 
....................       if(*su==uc) 
....................       return su; 
....................    return NULL; 
.................... } 
....................  
.................... /* standard template: char *strchr(const char *s, int c). 
....................    Finds first occurrence of c in s */ 
....................  
.................... char *strchr(char *s, unsigned int8 c) 
.................... { 
....................    for (; *s != c; s++) 
....................       if (*s == '\0') 
....................          return(0); 
....................    return(s); 
.................... } 
.................... /* standard template: 
....................    size_t strcspn(const char *s1, const char *s2). 
....................    Computes length of max initial segment of s1 that 
....................    consists entirely of characters NOT from s2*/ 
....................  
.................... unsigned int8  strcspn(char *s1, char *s2) 
.................... { 
....................    char *sc1, *sc2; 
....................  
....................    for (sc1 = s1; *sc1 != 0; sc1++) 
....................       for (sc2 = s2; *sc2 != 0; sc2++) 
....................          if (*sc1 == *sc2) 
....................             return(sc1 - s1); 
....................    return(sc1 - s1); 
.................... } 
.................... /* standard template: 
....................    char *strpbrk(const char *s1, const char *s2). 
....................    Locates first occurence of any character from s2 in s1; 
....................    returns s1 if s2 is empty string */ 
....................  
.................... char *strpbrk(char *s1, char *s2) 
.................... { 
....................    char *sc1, *sc2; 
....................  
....................    for (sc1 = s1; *sc1 != 0; sc1++) 
....................       for (sc2 = s2; *sc2 != 0; sc2++) 
....................          if (*sc1 == *sc2) 
....................             return(sc1); 
....................    return(0); 
.................... } 
....................  
....................  
.................... /* standard template: char *strrchr(const char *s, int c). 
....................    Finds last occurrence of c in s */ 
....................  
.................... char *strrchr(char *s, unsigned int8 c) 
.................... { 
....................    char *p; 
....................  
....................    for (p = 0; ; s++) 
....................    { 
....................       if (*s == c) 
....................          p = s; 
....................       if (*s == '\0') 
....................          return(p); 
....................    } 
.................... } 
.................... /* computes length of max initial segment of s1 consisting 
....................    entirely of characters from s2 */ 
....................  
.................... unsigned int8  strspn(char *s1, char *s2) 
.................... { 
....................    char *sc1, *sc2; 
....................  
....................    for (sc1 = s1; *sc1 != 0; sc1++) 
....................       for (sc2 = s2; ; sc2++) 
....................     if (*sc2 == '\0') 
....................        return(sc1 - s1); 
....................          else if (*sc1 == *sc2) 
....................             break; 
....................    return(sc1 - s1); 
.................... } 
.................... /* standard template: 
....................    char *strstr(const char *s1, const char *s2); 
....................    Locates first occurence of character sequence s2 in s1; 
....................    returns 0 if s2 is empty string 
....................  
....................    Uncomment #define FASTER_BUT_MORE_ROM at the top of the 
....................    file to use the faster algorithm */ 
.................... char *strstr(char *s1, char *s2) 
.................... { 
....................    char *s, *t; 
....................  
....................    #ifdef FASTER_BUT_MORE_ROM 
....................    if (*s2 == '\0') 
....................          return(s1); 
....................    #endif 
....................  
....................    while (*s1) 
....................    { 
....................       for(s = s1, t = s2; *t && (*s == *t); ++s, ++t); 
....................  
....................       if (*t == '\0') 
....................          return s1; 
....................       ++s1; 
....................       #ifdef FASTER_BUT_MORE_ROM 
....................          while(*s1 != '\0' && *s1 != *s2) 
....................             ++s1; 
....................       #endif 
....................    } 
....................    return 0; 
.................... } 
....................  
.................... /* standard template: char *strtok(char *s1, const char *s2). 
....................  
....................    Finds next token in s1 delimited by a character from separator 
....................    string s2 (which can be different from call to call).  First call 
....................    starts at beginning of s1 searching for first character NOT 
....................    contained in s2; returns 0 if none is found. 
....................    If one is found, it is the start of first token (return value). 
....................    Function then searches from there for a character contained in s2. 
....................    If none is found, current token extends to end of s1, and subsequent 
....................    searches for a token will return 0.  If one is found, it is 
....................    overwritten by '\0', which terminates current token.  Function saves 
....................    pointer to following character from which next search will start. 
....................    Each subsequent call, with 0 as first argument, starts searching 
....................    from saved pointer */ 
....................  
.................... char *strtok(char *s1, char *s2) 
.................... { 
....................    char *beg, *end; 
....................    static char *save; 
....................  
....................    beg = (s1)? s1: save; 
....................    beg += strspn(beg, s2); 
....................    if (*beg == '\0') 
....................    { 
....................       *save = ' '; 
....................       return(0); 
....................    } 
....................    end = strpbrk(beg, s2); 
....................    if (*end != '\0') 
....................    { 
....................       *end = '\0'; 
....................       end++; 
....................    } 
....................    save = end; 
....................    return(beg); 
.................... } 
....................  
.................... /*****************************************************************/ 
.................... /*Miscellaneous functions*/ 
.................... /* standard template 
.................... maps error number in errnum to an error message string 
.................... Returns: Pointer to string 
.................... */ 
.................... #ifdef _ERRNO 
.................... char * strerror(unsigned int8 errnum) 
.................... { 
.................... char s[15]; 
.................... switch( errnum) 
.................... { 
.................... case 0: 
....................    strcpy(s,"no errors"); 
....................    return s; 
.................... case EDOM : 
....................    strcpy(s,"domain error"); 
....................    return s; 
.................... case ERANGE: 
....................    strcpy(s,"range error"); 
....................    return s; 
.................... } 
.................... } 
.................... #ENDIF 
.................... /* standard template: size_t strlen(const char *s). 
....................    Computes length of s1 (preceding terminating 0) */ 
....................  
.................... unsigned int8 strlen(char *s) 
.................... { 
....................    char *sc; 
....................  
....................    for (sc = s; *sc != 0; sc++); 
....................    return(sc - s); 
.................... } 
....................  
.................... /* standard template: size_t stricmp(const char *s1, const char *s2). 
....................    Compares s1 to s2 ignoring case (upper vs. lower) */ 
....................  
.................... signed int8 stricmp(char *s1, char *s2) 
.................... { 
....................  for(; *s1==*s2||(isalpha(*s1)&&isalpha(*s2)&&(*s1==*s2+32||*s2==*s1+32)); 
....................     s1++, s2++) 
....................     if (*s1 == '\0') 
....................        return(0); 
....................  return((*s1 < *s2) ? -1: 1); 
.................... } 
....................  
....................  
.................... /* standard template: char *strlwr(char *s). 
....................    Replaces uppercase letters by lowercase; 
....................    returns pointer to new string s */ 
....................  
.................... char *strlwr(char *s) 
.................... { 
....................    char *p; 
....................  
....................    for (p = s; *p != '\0'; p++) 
....................       if (*p >= 'A' && *p <='Z') 
....................          *p += 'a' - 'A'; 
....................    return(s); 
.................... } 
....................  
....................  
.................... /************************************************************/ 
....................  
....................  
.................... #endif 
....................  
.................... #include <stdlib.h> 
.................... /////////////////////////////////////////////////////////////////////////// 
.................... ////        (C) Copyright 1996,2007 Custom Computer Services           //// 
.................... //// This source code may only be used by licensed users of the CCS C  //// 
.................... //// compiler.  This source code may only be distributed to other      //// 
.................... //// licensed users of the CCS C compiler.  No other use, reproduction //// 
.................... //// or distribution is permitted without written permission.          //// 
.................... //// Derivative programs created using this software in object code    //// 
.................... //// form are not restricted in any way.                               //// 
.................... /////////////////////////////////////////////////////////////////////////// 
....................  
.................... #ifndef _STDLIB 
.................... #define _STDLIB 
....................  
.................... //--------------------------------------------------------------------------- 
.................... // Definitions and types 
.................... //--------------------------------------------------------------------------- 
....................  
.................... #ifndef RAND_MAX 
.................... #define RAND_MAX  32767    // The value of which is the maximum value 
....................                            // ... returned by the rand function 
.................... #endif 
....................  
....................  
.................... #IF (sizeof(int16*)>1) 
.................... #DEFINE LONG_POINTERS 1 
.................... #ELSE  
.................... #DEFINE LONG_POINTERS 0 
.................... #ENDIF 
....................  
.................... typedef struct { 
....................    signed int quot; 
....................    signed int rem; 
.................... } div_t; 
....................  
.................... typedef struct { 
....................    signed long quot; 
....................    signed long rem; 
.................... } ldiv_t; 
....................  
.................... #include <stddef.h> 
.................... /////////////////////////////////////////////////////////////////////////// 
.................... ////        (C) Copyright 1996,2003 Custom Computer Services           //// 
.................... //// This source code may only be used by licensed users of the CCS C  //// 
.................... //// compiler.  This source code may only be distributed to other      //// 
.................... //// licensed users of the CCS C compiler.  No other use, reproduction //// 
.................... //// or distribution is permitted without written permission.          //// 
.................... //// Derivative programs created using this software in object code    //// 
.................... //// form are not restricted in any way.                               //// 
.................... /////////////////////////////////////////////////////////////////////////// 
....................  
.................... #ifndef _STDDEF 
....................  
.................... #define _STDDEF 
....................  
.................... #if sizeof(unsigned int8 *)==1 
.................... #define ptrdiff_t unsigned int8 
.................... #else 
.................... #define ptrdiff_t unsigned int16 
.................... #endif 
....................  
.................... #define size_t unsigned int8 
.................... #define wchar_t char 
.................... #define NULL 0 
....................  
.................... #define offsetof(s,f) (offsetofbit(s,f)/8) 
....................  
.................... #endif 
....................  
....................  
.................... //--------------------------------------------------------------------------- 
.................... // String conversion functions 
.................... //--------------------------------------------------------------------------- 
....................  
.................... /* Standard template: signed int  atoi(char * s) 
....................  * converts the initial portion of the string s to a signed int 
....................  * returns the converted value if any, 0 otherwise 
....................  */ 
.................... signed int atoi(char *s); 
....................  
.................... /* Syntax: signed int32  atoi32(char * s) 
....................    converts the initial portion of the string s to a signed int32 
....................    returns the converted value if any, 0 otherwise*/ 
.................... #if (sizeof(long)==4) 
....................  #define atoi32(s) atol(s) 
.................... #else  
....................  signed int32 atoi32(char *s); 
.................... #endif 
....................  
.................... #if defined(__PCD__) 
.................... // The following functions only work on the 24 bit compiler 
.................... // for the 30F, 33F, 24F and 24H parts 
.................... /* Syntax: signed int48  atoi48(char * s) 
....................    converts the initial portion of the string s to a signed int48 
....................    returns the converted value if any, 0 otherwise*/ 
....................     
.................... signed int48 atoi48(char *s); 
....................  
.................... /* Syntax: signed int64  atoi64(char * s) 
....................    converts the initial portion of the string s to a signed int64 
....................    returns the converted value if any, 0 otherwise*/ 
.................... signed int64 atoi64(char *s); 
.................... #endif 
....................  
.................... /* Syntax: char *  itoa(signed int32 num, int8 base, char * s) 
....................    converts the signed int32 to a string and 
....................    returns the converted value if any, 0 otherwise*/ 
.................... char * itoa(signed int32 num, unsigned int base, char * s); 
....................  
.................... /* Standard template: signed int16  atol(char * s) 
....................  * converts the initial portion of the string s to a signed int16 
....................  * returns the converted value if any, 0 otherwise 
....................  */ 
.................... signed long atol(char *s); 
....................  
.................... /* Standard template: int16 strtoul(char * s,char *endptr,signed int base) 
....................  * converts the initial portion of the string s, represented as an 
....................  * integral value of radix base  to a signed long. 
....................  * Returns the converted value if any, 0 otherwise 
....................  * the final string is returned in the endptr, if endptr is not null 
....................  */ 
.................... signed long strtol(char *s,char *endptr, signed int base); 
....................  
.................... /* Standard template: int16 strtoul(char * s,char *endptr,signed int base) 
....................  * converts the initial portion of the string s, represented as an 
....................  * integral value of radix base to a unsigned long. 
....................  * returns the converted value if any, 0 otherwise 
....................  * the final string is returned in the endptr, if endptr is not null 
....................  */ 
.................... unsigned long strtoul(char *s,char *endptr, signed int base); 
....................  
.................... /* Standart template: float strtof(char * s,char *endptr) 
....................                       float48 strtof48(char *s,char *endptr); 
....................                       float64 strtod(char *s,char *endptr); 
....................  * converts the initial portion of the string s to a float32, float48 or float64, 
....................  * returns the converted value if any, 0 otherwise 
....................  * the final string is returned in the endptr, if endptr is not null                    
.................... */ 
.................... float strtof(char *s,char *endptr); 
.................... #if defined(__PCD__) 
.................... float48 strtof48(char *s,char *endptr); 
.................... float64 strtod(char *s,char *endptr); 
.................... #else 
.................... //provided for compatibility 
.................... #define strtof48(s, e) strtof(s, e) 
.................... #define strtod(s, e) strtof(s, e) 
.................... #endif 
....................  
.................... /* Standard template: float32 atof(char * s) 
....................  * converts the initial portion of the string s to a float. 
....................  * returns the converted value if any, 0 otherwise 
....................  */ 
.................... #define atof(s)   strtof(s, 0) 
....................  
.................... #if defined(__PCD__) 
.................... // The following functions only work on the 24 bit compiler 
.................... // for the 30F, 33F, 24F and 24H parts 
....................  
.................... /* Standard template: float48 atof48(char * s) 
....................  * converts the initial portion of the string s to a float. 
....................  * returns the converted value if any, 0 otherwise 
....................  */ 
.................... #define atof48(s) strtof48(s, 0) 
....................  
.................... /* Standard template: float64 atof64(char * s) 
....................  * converts the initial portion of the string s to a float. 
....................  * returns the converted value if any, 0 otherwise 
....................  */ 
.................... #define atof64(s) strtod(s, 0) 
.................... #endif 
....................  
.................... /* Standard template: float32 atoe(char * s) 
....................  * converts the initial portion of the string s to a float. 
....................  * returns the converted value if any, 0 otherwise 
....................  * also handles E format numbers 
....................  */ 
.................... #if !defined(__PCD__) 
.................... float atoe(char * s); 
.................... #endif 
....................  
.................... #if defined(__PCD__) 
.................... float32 atoe(char * s); 
.................... #endif 
....................  
.................... //--------------------------------------------------------------------------- 
.................... // Pseudo-random sequence generation functions 
.................... //--------------------------------------------------------------------------- 
....................  
.................... /* The rand function computes a sequence of pseudo-random integers in 
....................  * the range 0 to RAND_MAX 
....................  * 
....................  * Parameters: 
....................  *       (none) 
....................  * 
....................  * Returns: 
....................  *       The pseudo-random integer 
....................  */ 
.................... unsigned int16 rand(void); 
....................  
.................... /* The srand function uses the argument as a seed for a new sequence of 
....................  * pseudo-random numbers to be returned by subsequent calls to rand. 
....................  * 
....................  * Parameters: 
....................  *       [in] seed: The seed value to start from. You might need to pass 
....................  * 
....................  * Returns: 
....................  *       (none) 
....................  * 
....................  * Remarks 
....................  *          The srand function sets the starting point for generating 
....................  *       a series of pseudorandom integers. To reinitialize the 
....................  *       generator, use 1 as the seed argument. Any other value for 
....................  *       seed sets the generator to a random starting point. rand 
....................  *       retrieves the pseudorandom numbers that are generated. 
....................  *       Calling rand before any call to srand generates the same 
....................  *       sequence as calling srand with seed passed as 1. 
....................  *          Usually, you need to pass a time here from outer source 
....................  *       so that the numbers will be different every time you run. 
....................  */ 
.................... void srand(unsigned int32 seed); 
....................  
.................... //--------------------------------------------------------------------------- 
.................... // Memory management functions 
.................... //--------------------------------------------------------------------------- 
....................  
.................... // Comming soon 
....................  
.................... //--------------------------------------------------------------------------- 
.................... // Communication with the environment 
.................... //--------------------------------------------------------------------------- 
....................  
.................... /* The function returns 0 always 
....................  */ 
.................... signed int8 system(char *string); 
....................  
.................... //--------------------------------------------------------------------------- 
.................... // Searching and sorting utilities 
.................... //--------------------------------------------------------------------------- 
....................  
.................... /* Performs a binary search of a sorted array.. 
....................  * 
....................  * Parameters: 
....................  *       [in] key: Object to search for 
....................  *       [in] base: Pointer to base of search data 
....................  *       [in] num: Number of elements 
....................  *       [in] width: Width of elements 
....................  *       [in] compare: Function that compares two elements 
....................  * 
....................  * Returns: 
....................  *       bsearch returns a pointer to an occurrence of key in the array pointed 
....................  *       to by base. If key is not found, the function returns NULL. If the 
....................  *       array is not in order or contains duplicate records with identical keys, 
....................  *       the result is unpredictable. 
....................  */ 
.................... //void *bsearch(const void *key, const void *base, size_t num, size_t width, 
.................... //              int (*compare)(const void *, const void *)); 
....................  
.................... /* Performs the shell-metzner sort (not the quick sort algorithm). The contents 
....................  * of the array are sorted into ascending order according to a comparison 
....................  * function pointed to by compar. 
....................  * 
....................  * Parameters: 
....................  *       [in] base: Pointer to base of search data 
....................  *       [in] num: Number of elements 
....................  *       [in] width: Width of elements 
....................  *       [in] compare: Function that compares two elements 
....................  * 
....................  * Returns: 
....................  *       (none) 
....................  */ 
.................... //void *qsort(const void *base, size_t num, size_t width, 
.................... //              int (*compare)(const void *, const void *)); 
....................  
.................... //--------------------------------------------------------------------------- 
.................... // Integer arithmetic functions 
.................... //--------------------------------------------------------------------------- 
....................  
.................... #define labs abs 
....................  
.................... div_t div(signed int numer, signed int denom); 
.................... ldiv_t ldiv(signed long numer, signed long denom); 
....................  
.................... //--------------------------------------------------------------------------- 
.................... // Multibyte character functions 
.................... //--------------------------------------------------------------------------- 
....................  
.................... // Not supported 
....................  
.................... //--------------------------------------------------------------------------- 
.................... // Multibyte string functions 
.................... //--------------------------------------------------------------------------- 
....................  
.................... // Not supported 
....................  
....................  
.................... //--------------------------------------------------------------------------- 
.................... // Internal implementation 
.................... //--------------------------------------------------------------------------- 
....................  
.................... #include <stddef.h> 
.................... /////////////////////////////////////////////////////////////////////////// 
.................... ////        (C) Copyright 1996,2003 Custom Computer Services           //// 
.................... //// This source code may only be used by licensed users of the CCS C  //// 
.................... //// compiler.  This source code may only be distributed to other      //// 
.................... //// licensed users of the CCS C compiler.  No other use, reproduction //// 
.................... //// or distribution is permitted without written permission.          //// 
.................... //// Derivative programs created using this software in object code    //// 
.................... //// form are not restricted in any way.                               //// 
.................... /////////////////////////////////////////////////////////////////////////// 
....................  
.................... #ifndef _STDDEF 
....................  
.................... #define _STDDEF 
....................  
.................... #if sizeof(unsigned int8 *)==1 
.................... #define ptrdiff_t unsigned int8 
.................... #else 
.................... #define ptrdiff_t unsigned int16 
.................... #endif 
....................  
.................... #define size_t unsigned int8 
.................... #define wchar_t char 
.................... #define NULL 0 
....................  
.................... #define offsetof(s,f) (offsetofbit(s,f)/8) 
....................  
.................... #endif 
....................  
.................... #include <string.h> 
.................... //////////////////////////////////////////////////////////////////////////// 
.................... ////        (C) Copyright 1996,2008 Custom Computer Services            //// 
.................... //// This source code may only be used by licensed users of the CCS C   //// 
.................... //// compiler.  This source code may only be distributed to other       //// 
.................... //// licensed users of the CCS C compiler.  No other use, reproduction  //// 
.................... //// or distribution is permitted without written permission.           //// 
.................... //// Derivative programs created using this software in object code     //// 
.................... //// form are not restricted in any way.                                //// 
.................... //////////////////////////////////////////////////////////////////////////// 
....................  
.................... #ifndef _STRING 
.................... #define _STRING 
.................... #include <stddef.h> 
.................... #include <ctype.h> 
....................  
....................  
....................  
.................... ////////////////////////////////////////////// 
.................... //// Uncomment the following define to    //// 
.................... //// allow some functions to use a        //// 
.................... //// quicker algorithm, but use more ROM  //// 
.................... ////                                      //// 
.................... //// #define FASTER_BUT_MORE_ROM          //// 
.................... ////////////////////////////////////////////// 
....................  
....................  
....................  
.................... /*Copying functions*/ 
.................... /* standard template: 
....................    void *memmove(void *s1, void *s2, size_t n). 
....................    Copies max of n characters safely (not following ending '\0') 
....................    from s2 in s1; if s2 has less than n characters, appends 0 */ 
....................  
.................... char *memmove(void *s1,char *s2,size_t n) 
.................... { 
....................    char *sc1; 
....................    char *sc2; 
....................    sc1=s1; 
....................    sc2=s2; 
....................    if(sc2<sc1 && sc1 <sc2 +n) 
....................       for(sc1+=n,sc2+=n;0<n;--n) 
....................          *--sc1=*--sc2; 
....................    else 
....................       for(;0<n;--n) 
....................          *sc1++=*sc2++; 
....................   return s1; 
....................   } 
....................  
.................... /* Standard template: char *strcpy(char *s1, const char *s2) 
....................    copies the string s2 including the null character to s1. 
....................    This is a compiler built in to handle the different address 
....................    spaces */ 
....................  
.................... #define strcopy strcpy 
....................  
.................... /* standard template: 
....................    char *strncpy(char *s1, const char *s2, size_t n). 
....................    Copies max of n characters (not following ending '\0') 
....................    from s2 in s1; if s2 has less than n characters, appends 0 */ 
....................  
.................... char *strncpy(char *s1, char *s2, size_t n) 
.................... { 
....................   char *s; 
....................  
....................   for (s = s1; n > 0 && *s2 != '\0'; n--) 
....................      *s++ = *s2++; 
....................   for (; n > 0; n--) 
....................      *s++ = '\0'; 
....................  
....................   return(s1); 
.................... } 
.................... /***********************************************************/ 
....................  
.................... /*concatenation functions*/ 
.................... /* standard template: char *strcat(char *s1, const char *s2) 
.................... appends s2 to s1*/ 
....................  
.................... char *strcat(char *s1, char *s2) 
.................... { 
....................    char *s; 
....................  
....................    for (s = s1; *s != '\0'; ++s); 
....................    while(*s2 != '\0') 
....................    { 
....................       *s = *s2; 
....................       ++s; 
....................       ++s2; 
....................    } 
....................  
....................    *s = '\0'; 
....................    return(s1); 
.................... } 
.................... /* standard template: char *strncat(char *s1, char *s2,size_t n) 
.................... appends not more than n characters from s2 to s1*/ 
....................  
.................... char *strncat(char *s1, char *s2, size_t n) 
.................... { 
....................    char *s; 
....................  
....................    for (s = s1; *s != '\0'; ++s); 
....................    while(*s2 != '\0' && 0<n) 
....................    { 
....................       *s = *s2; 
....................       ++s; 
....................       ++s2; 
....................       --n; 
....................    } 
....................  
....................    *s = '\0'; 
....................    return(s1); 
.................... } 
....................  
.................... /***********************************************************/ 
....................  
....................  
.................... /*comparison functions*/ 
.................... /* standard template: signed int memcmp(void *s1, void *s2). 
....................    Compares s1 & s2; returns -1 if s1<s2, 0 if s1=s2, 1 if s1>s2 */ 
....................  
.................... signed int8 memcmp(void * s1,char *s2,size_t n) 
.................... { 
.................... char *su1, *su2; 
.................... for(su1=s1, su2=s2; 0<n; ++su1, ++su2, --n) 
.................... { 
....................    if(*su1!=*su2) 
....................       return ((*su1<*su2)?-1:+1); 
.................... } 
.................... return 0; 
.................... } 
....................  
.................... /* standard template: int strcmp(const char *s1, const char *s2). 
....................    Compares s1 & s2; returns -1 if s1<s2, 0 if s1=s2, 1 if s1>s2 */ 
....................  
.................... signed int8 strcmp(char *s1, char *s2) 
.................... { 
....................    for (; *s1 == *s2; s1++, s2++) 
....................       if (*s1 == '\0') 
....................          return(0); 
....................    return((*s1 < *s2) ? -1: 1); 
.................... } 
.................... /* standard template: int strcoll(const char *s1, const char *s2). 
....................    Compares s1 & s2; returns -1 if s1<s2, 0 if s1=s2, 1 if s1>s2 */ 
....................  
.................... signed int8 strcoll(char *s1, char *s2) 
.................... { 
....................    for (; *s1 == *s2; s1++, s2++) 
....................       if (*s1 == '\0') 
....................          return(0); 
....................    return((*s1 < *s2) ? -1: 1); 
.................... } 
....................  
.................... /* standard template: 
....................    int strncmp(const char *s1, const char *s2, size_t n). 
....................    Compares max of n characters (not following 0) from s1 to s2; 
....................    returns same as strcmp */ 
....................  
.................... signed int8 strncmp(char *s1, char *s2, size_t n) 
.................... { 
....................    for (; n > 0; s1++, s2++, n--) 
....................       if (*s1 != *s2) 
....................          return((*s1 <*s2) ? -1: 1); 
....................       else if (*s1 == '\0') 
....................          return(0); 
....................    return(0); 
.................... } 
.................... /* standard template: 
....................    int strxfrm(const char *s1, const char *s2, size_t n). 
....................    transforms maximum of n characters from s2 and places them into s1*/ 
.................... size_t strxfrm(char *s1, char *s2, size_t n) 
.................... { 
....................   char *s; 
....................   unsigned int8 n1; 
....................   n1=n; 
....................   for (s = s1; n > 0 && *s2 != '\0'; n--) 
....................      *s++ = *s2++; 
....................   for (; n > 0; n--) 
....................      *s++ = '\0'; 
....................  
....................   return(n1); 
.................... } 
....................  
....................  
....................  
....................  
....................  
.................... /***********************************************************/ 
.................... /*Search functions*/ 
.................... /* standard template: void *memchr(const char *s, int c). 
....................    Finds first occurrence of c in n characters of s */ 
....................  
.................... char *memchr(void *s,unsigned int8 c,size_t n) 
.................... { 
....................    char uc; 
....................    char *su; 
....................    uc=c; 
....................    for(su=s;0<n;++su,--n) 
....................       if(*su==uc) 
....................       return su; 
....................    return NULL; 
.................... } 
....................  
.................... /* standard template: char *strchr(const char *s, int c). 
....................    Finds first occurrence of c in s */ 
....................  
.................... char *strchr(char *s, unsigned int8 c) 
.................... { 
....................    for (; *s != c; s++) 
....................       if (*s == '\0') 
....................          return(0); 
....................    return(s); 
.................... } 
.................... /* standard template: 
....................    size_t strcspn(const char *s1, const char *s2). 
....................    Computes length of max initial segment of s1 that 
....................    consists entirely of characters NOT from s2*/ 
....................  
.................... unsigned int8  strcspn(char *s1, char *s2) 
.................... { 
....................    char *sc1, *sc2; 
....................  
....................    for (sc1 = s1; *sc1 != 0; sc1++) 
....................       for (sc2 = s2; *sc2 != 0; sc2++) 
....................          if (*sc1 == *sc2) 
....................             return(sc1 - s1); 
....................    return(sc1 - s1); 
.................... } 
.................... /* standard template: 
....................    char *strpbrk(const char *s1, const char *s2). 
....................    Locates first occurence of any character from s2 in s1; 
....................    returns s1 if s2 is empty string */ 
....................  
.................... char *strpbrk(char *s1, char *s2) 
.................... { 
....................    char *sc1, *sc2; 
....................  
....................    for (sc1 = s1; *sc1 != 0; sc1++) 
....................       for (sc2 = s2; *sc2 != 0; sc2++) 
....................          if (*sc1 == *sc2) 
....................             return(sc1); 
....................    return(0); 
.................... } 
....................  
....................  
.................... /* standard template: char *strrchr(const char *s, int c). 
....................    Finds last occurrence of c in s */ 
....................  
.................... char *strrchr(char *s, unsigned int8 c) 
.................... { 
....................    char *p; 
....................  
....................    for (p = 0; ; s++) 
....................    { 
....................       if (*s == c) 
....................          p = s; 
....................       if (*s == '\0') 
....................          return(p); 
....................    } 
.................... } 
.................... /* computes length of max initial segment of s1 consisting 
....................    entirely of characters from s2 */ 
....................  
.................... unsigned int8  strspn(char *s1, char *s2) 
.................... { 
....................    char *sc1, *sc2; 
....................  
....................    for (sc1 = s1; *sc1 != 0; sc1++) 
....................       for (sc2 = s2; ; sc2++) 
....................     if (*sc2 == '\0') 
....................        return(sc1 - s1); 
....................          else if (*sc1 == *sc2) 
....................             break; 
....................    return(sc1 - s1); 
.................... } 
.................... /* standard template: 
....................    char *strstr(const char *s1, const char *s2); 
....................    Locates first occurence of character sequence s2 in s1; 
....................    returns 0 if s2 is empty string 
....................  
....................    Uncomment #define FASTER_BUT_MORE_ROM at the top of the 
....................    file to use the faster algorithm */ 
.................... char *strstr(char *s1, char *s2) 
.................... { 
....................    char *s, *t; 
....................  
....................    #ifdef FASTER_BUT_MORE_ROM 
....................    if (*s2 == '\0') 
....................          return(s1); 
....................    #endif 
....................  
....................    while (*s1) 
....................    { 
....................       for(s = s1, t = s2; *t && (*s == *t); ++s, ++t); 
....................  
....................       if (*t == '\0') 
....................          return s1; 
....................       ++s1; 
....................       #ifdef FASTER_BUT_MORE_ROM 
....................          while(*s1 != '\0' && *s1 != *s2) 
....................             ++s1; 
....................       #endif 
....................    } 
....................    return 0; 
.................... } 
....................  
.................... /* standard template: char *strtok(char *s1, const char *s2). 
....................  
....................    Finds next token in s1 delimited by a character from separator 
....................    string s2 (which can be different from call to call).  First call 
....................    starts at beginning of s1 searching for first character NOT 
....................    contained in s2; returns 0 if none is found. 
....................    If one is found, it is the start of first token (return value). 
....................    Function then searches from there for a character contained in s2. 
....................    If none is found, current token extends to end of s1, and subsequent 
....................    searches for a token will return 0.  If one is found, it is 
....................    overwritten by '\0', which terminates current token.  Function saves 
....................    pointer to following character from which next search will start. 
....................    Each subsequent call, with 0 as first argument, starts searching 
....................    from saved pointer */ 
....................  
.................... char *strtok(char *s1, char *s2) 
.................... { 
....................    char *beg, *end; 
....................    static char *save; 
....................  
....................    beg = (s1)? s1: save; 
....................    beg += strspn(beg, s2); 
....................    if (*beg == '\0') 
....................    { 
....................       *save = ' '; 
....................       return(0); 
....................    } 
....................    end = strpbrk(beg, s2); 
....................    if (*end != '\0') 
....................    { 
....................       *end = '\0'; 
....................       end++; 
....................    } 
....................    save = end; 
....................    return(beg); 
.................... } 
....................  
.................... /*****************************************************************/ 
.................... /*Miscellaneous functions*/ 
.................... /* standard template 
.................... maps error number in errnum to an error message string 
.................... Returns: Pointer to string 
.................... */ 
.................... #ifdef _ERRNO 
.................... char * strerror(unsigned int8 errnum) 
.................... { 
.................... char s[15]; 
.................... switch( errnum) 
.................... { 
.................... case 0: 
....................    strcpy(s,"no errors"); 
....................    return s; 
.................... case EDOM : 
....................    strcpy(s,"domain error"); 
....................    return s; 
.................... case ERANGE: 
....................    strcpy(s,"range error"); 
....................    return s; 
.................... } 
.................... } 
.................... #ENDIF 
.................... /* standard template: size_t strlen(const char *s). 
....................    Computes length of s1 (preceding terminating 0) */ 
....................  
.................... unsigned int8 strlen(char *s) 
.................... { 
....................    char *sc; 
....................  
....................    for (sc = s; *sc != 0; sc++); 
....................    return(sc - s); 
.................... } 
....................  
.................... /* standard template: size_t stricmp(const char *s1, const char *s2). 
....................    Compares s1 to s2 ignoring case (upper vs. lower) */ 
....................  
.................... signed int8 stricmp(char *s1, char *s2) 
.................... { 
....................  for(; *s1==*s2||(isalpha(*s1)&&isalpha(*s2)&&(*s1==*s2+32||*s2==*s1+32)); 
....................     s1++, s2++) 
....................     if (*s1 == '\0') 
....................        return(0); 
....................  return((*s1 < *s2) ? -1: 1); 
.................... } 
....................  
....................  
.................... /* standard template: char *strlwr(char *s). 
....................    Replaces uppercase letters by lowercase; 
....................    returns pointer to new string s */ 
....................  
.................... char *strlwr(char *s) 
.................... { 
....................    char *p; 
....................  
....................    for (p = s; *p != '\0'; p++) 
....................       if (*p >= 'A' && *p <='Z') 
....................          *p += 'a' - 'A'; 
....................    return(s); 
.................... } 
....................  
....................  
.................... /************************************************************/ 
....................  
....................  
.................... #endif 
....................  
....................  
.................... div_t div(signed int numer, signed int denom) 
.................... { 
....................    div_t val; 
....................    val.quot = numer / denom; 
....................    val.rem = numer - (denom * val.quot); 
....................    return (val); 
.................... } 
....................  
.................... ldiv_t ldiv(signed long numer, signed long denom) 
.................... { 
....................    ldiv_t val; 
....................  
....................    val.quot = numer / denom; 
....................    val.rem = numer - (denom * val.quot); 
....................    return (val); 
.................... } 
....................  
.................... #if defined(__PCD__) 
.................... float32 atoe(char * s) 
.................... { 
....................    float32 pow10 = 1.0; 
....................    float32 result = 0.0; 
....................    unsigned int8 sign = 0; 
....................    unsigned int8 expsign = 0; 
....................    char c; 
....................    unsigned int8 ptr = 0; 
....................    unsigned int8 i; 
....................    float32 exp = 1.0; 
....................    unsigned int8 expcnt = 0; 
....................  
....................    c = s[ptr++]; 
....................  
....................    if ((c>='0' && c<='9') || c=='+' || c=='-' || c=='.' || c=='E' || c=='e') { 
....................       if(c == '-') { 
....................          sign = 1; 
....................          c = s[ptr++]; 
....................       } 
....................       if(c == '+') 
....................          c = s[ptr++]; 
....................  
....................       while((c >= '0' && c <= '9')) { 
....................          result = 10*result + c - '0'; 
....................          c = s[ptr++]; 
....................       } 
....................  
....................       if (c == '.') { 
....................          c = s[ptr++]; 
....................          while((c >= '0' && c <= '9')) { 
....................              pow10 = pow10*10; 
....................              result += (c - '0')/pow10; 
....................              c = s[ptr++]; 
....................          } 
....................       } 
....................  
....................       // Handling the exponent 
....................       if (c=='e' || c=='E') { 
....................          c = s[ptr++]; 
....................  
....................          if(c == '-') { 
....................             expsign = 1; 
....................             c = s[ptr++]; 
....................          } 
....................          if(c == '+') 
....................             c = s[ptr++]; 
....................  
....................          while((c >= '0' && c <= '9')) { 
....................             expcnt = 10*expcnt + c - '0'; 
....................             c = s[ptr++]; 
....................          } 
....................  
....................          for(i=0;i<expcnt;i++) 
....................             exp*=10; 
....................  
....................          if(expsign==1) 
....................             result/=exp; 
....................          else 
....................             result*=exp; 
....................       } 
....................    } 
....................  
....................    if (sign == 1) 
....................       result = -1*result; 
....................    return(result); 
.................... } 
.................... #endif 
....................  
.................... #if !defined(__PCD__) 
.................... float atoe(char * s) 
.................... { 
....................    float pow10 = 1.0; 
....................    float result = 0.0; 
....................    unsigned int8 sign = 0; 
....................    unsigned int8 expsign = 0; 
....................    char c; 
....................    unsigned int8 ptr = 0; 
....................    unsigned int8 i; 
....................    float exp = 1.0; 
....................    unsigned int8 expcnt = 0; 
....................  
....................    c = s[ptr++]; 
....................  
....................    if ((c>='0' && c<='9') || c=='+' || c=='-' || c=='.' || c=='E' || c=='e') { 
....................       if(c == '-') { 
....................          sign = 1; 
....................          c = s[ptr++]; 
....................       } 
....................       if(c == '+') 
....................          c = s[ptr++]; 
....................  
....................       while((c >= '0' && c <= '9')) { 
....................          result = 10*result + c - '0'; 
....................          c = s[ptr++]; 
....................       } 
....................  
....................       if (c == '.') { 
....................          c = s[ptr++]; 
....................          while((c >= '0' && c <= '9')) { 
....................              pow10 = pow10*10; 
....................              result += (c - '0')/pow10; 
....................              c = s[ptr++]; 
....................          } 
....................       } 
....................  
....................       // Handling the exponent 
....................       if (c=='e' || c=='E') { 
....................          c = s[ptr++]; 
....................  
....................          if(c == '-') { 
....................             expsign = 1; 
....................             c = s[ptr++]; 
....................          } 
....................          if(c == '+') 
....................             c = s[ptr++]; 
....................  
....................          while((c >= '0' && c <= '9')) { 
....................             expcnt = 10*expcnt + c - '0'; 
....................             c = s[ptr++]; 
....................          } 
....................  
....................          for(i=0;i<expcnt;i++) 
....................             exp*=10; 
....................  
....................          if(expsign==1) 
....................             result/=exp; 
....................          else 
....................             result*=exp; 
....................       } 
....................    } 
....................  
....................    if (sign == 1) 
....................       result = -1*result; 
....................    return(result); 
.................... } 
.................... #endif 
....................  
.................... signed int atoi(char *s) 
.................... { 
....................    signed int result; 
....................    unsigned int sign, base, index; 
....................    char c; 
....................  
....................    index = 0; 
....................    sign = 0; 
....................    base = 10; 
....................    result = 0; 
....................  
....................    if (!s) 
....................       return 0; 
....................    // Omit all preceeding alpha characters 
....................    c = s[index++]; 
....................  
....................    // increase index if either positive or negative sign is detected 
....................    if (c == '-') 
....................    { 
....................       sign = 1;         // Set the sign to negative 
....................       c = s[index++]; 
....................    } 
....................    else if (c == '+') 
....................    { 
....................       c = s[index++]; 
....................    } 
....................  
....................    if (c >= '0' && c <= '9') 
....................    { 
....................  
....................       // Check for hexa number 
....................       if (c == '0' && (s[index] == 'x' || s[index] == 'X')) 
....................       { 
....................          base = 16; 
....................          index++; 
....................          c = s[index++]; 
....................       } 
....................  
....................       // The number is a decimal number 
....................       if (base == 10) 
....................       { 
....................          while (c >= '0' && c <= '9') 
....................          { 
....................             result = 10*result + (c - '0'); 
....................             c = s[index++]; 
....................          } 
....................       } 
....................       else if (base == 16)    // The number is a hexa number 
....................       { 
....................          c = toupper(c); 
....................          while ( (c >= '0' && c <= '9') || (c >= 'A' && c<='F')) 
....................          { 
....................             if (c >= '0' && c <= '9') 
....................                result = (result << 4) + (c - '0'); 
....................             else 
....................                result = (result << 4) + (c - 'A' + 10); 
....................  
....................             c = s[index++]; 
....................             c = toupper(c); 
....................          } 
....................       } 
....................    } 
....................  
....................    if (sign == 1 && base == 10) 
....................        result = -result; 
....................  
....................    return(result); 
.................... } 
....................  
.................... signed long atol(char *s) 
.................... { 
....................    signed long result; 
....................    unsigned int sign, base, index; 
....................    char c; 
....................  
....................    index = 0; 
....................    sign = 0; 
....................    base = 10; 
....................    result = 0; 
....................  
....................    if (!s) 
....................       return 0; 
....................    c = s[index++]; 
....................  
....................    // increase index if either positive or negative sign is detected 
....................    if (c == '-') 
....................    { 
....................       sign = 1;         // Set the sign to negative 
....................       c = s[index++]; 
....................    } 
....................    else if (c == '+') 
....................    { 
....................       c = s[index++]; 
....................    } 
....................  
....................    if (c >= '0' && c <= '9') 
....................    { 
....................       if (c == '0' && (s[index] == 'x' || s[index] == 'X')) 
....................       { 
....................          base = 16; 
....................          index++; 
....................          c = s[index++]; 
....................       } 
....................  
....................       // The number is a decimal number 
....................       if (base == 10) 
....................       { 
....................          while (c >= '0' && c <= '9') 
....................          { 
....................             result = 10*result + (c - '0'); 
....................             c = s[index++]; 
....................          } 
....................       } 
....................       else if (base == 16)    // The number is a hexa number 
....................       { 
....................          c = toupper(c); 
....................          while ( (c >= '0' && c <= '9') || (c >= 'A' && c <='F')) 
....................          { 
....................             if (c >= '0' && c <= '9') 
....................                result = (result << 4) + (c - '0'); 
....................             else 
....................                result = (result << 4) + (c - 'A' + 10); 
....................  
....................             c = s[index++];c = toupper(c); 
....................          } 
....................       } 
....................    } 
....................  
....................    if (base == 10 && sign == 1) 
....................       result = -result; 
....................  
....................    return(result); 
.................... } 
....................  
.................... /* A fast routine to multiply by 10 
....................  */ 
.................... signed int32 mult_with10(int32 num) 
.................... { 
....................    return ( (num << 1) + (num << 3) ); 
.................... } 
....................  
.................... #if sizeof(long)==2 
.................... signed int32 atoi32(char *s) 
.................... { 
....................    signed int32 result; 
....................    int8 sign, base, index; 
....................    char c; 
....................  
....................    index = 0; 
....................    sign = 0; 
....................    base = 10; 
....................    result = 0; 
....................  
....................    if (!s) 
....................       return 0; 
....................    c = s[index++]; 
....................  
....................    // increase index if either positive or negative sign is detected 
....................    if (c == '-') 
....................    { 
....................       sign = 1;         // Set the sign to negative 
....................       c = s[index++]; 
....................    } 
....................    else if (c == '+') 
....................    { 
....................       c = s[index++]; 
....................    } 
....................  
....................    if (c >= '0' && c <= '9') 
....................    { 
....................       if (c == '0' && (s[index] == 'x' || s[index] == 'X')) 
....................       { 
....................          base = 16; 
....................          index++; 
....................          c = s[index++]; 
....................       } 
....................  
....................       // The number is a decimal number 
....................       if (base == 10) 
....................       { 
....................          while (c >= '0' && c <= '9') { 
....................             result = (result << 1) + (result << 3);  // result *= 10; 
....................             result += (c - '0'); 
....................             c = s[index++]; 
....................          } 
....................       } 
....................       else if (base == 16)    // The number is a hexa number 
....................       { 
....................          c = toupper(c); 
....................          while ((c >= '0' && c <= '9') || (c >= 'A' && c <='F')) 
....................          { 
....................             if (c >= '0' && c <= '9') 
....................                result = (result << 4) + (c - '0'); 
....................             else 
....................                result = (result << 4) + (c - 'A' + 10); 
....................  
....................             c = s[index++];c = toupper(c); 
....................          } 
....................       } 
....................    } 
....................  
....................    if (base == 10 && sign == 1) 
....................       result = -result; 
....................  
....................    return(result); 
.................... } 
.................... #endif 
....................  
.................... #if defined(__PCD__) 
....................  
.................... signed int48 atoi48(char *s) 
.................... { 
....................    signed int48 result; 
....................    int8 sign, base, index; 
....................    char c; 
....................  
....................    index = 0; 
....................    sign = 0; 
....................    base = 10; 
....................    result = 0; 
....................  
....................    if (!s) 
....................       return 0; 
....................    c = s[index++]; 
....................  
....................    // increase index if either positive or negative sign is detected 
....................    if (c == '-') 
....................    { 
....................       sign = 1;         // Set the sign to negative 
....................       c = s[index++]; 
....................    } 
....................    else if (c == '+') 
....................    { 
....................       c = s[index++]; 
....................    } 
....................  
....................    if (c >= '0' && c <= '9') 
....................    { 
....................       if (c == '0' && (s[index] == 'x' || s[index] == 'X')) 
....................       { 
....................          base = 16; 
....................          index++; 
....................          c = s[index++]; 
....................       } 
....................  
....................       // The number is a decimal number 
....................       if (base == 10) 
....................       { 
....................          while (c >= '0' && c <= '9') { 
....................             result = (result << 1) + (result << 3);  // result *= 10; 
....................             result += (c - '0'); 
....................             c = s[index++]; 
....................          } 
....................       } 
....................       else if (base == 16)    // The number is a hexa number 
....................       { 
....................          c = toupper(c); 
....................          while ((c >= '0' && c <= '9') || (c >= 'A' && c <='F')) 
....................          { 
....................             if (c >= '0' && c <= '9') 
....................                result = (result << 4) + (c - '0'); 
....................             else 
....................                result = (result << 4) + (c - 'A' + 10); 
....................  
....................             c = s[index++];c = toupper(c); 
....................          } 
....................       } 
....................    } 
....................  
....................    if (base == 10 && sign == 1) 
....................       result = -result; 
....................  
....................    return(result); 
.................... } 
....................  
.................... signed int64 atoi64(char *s) 
.................... { 
....................    signed int64 result; 
....................    int8 sign, base, index; 
....................    char c; 
....................  
....................    index = 0; 
....................    sign = 0; 
....................    base = 10; 
....................    result = 0; 
....................  
....................    if (!s) 
....................       return 0; 
....................    c = s[index++]; 
....................  
....................    // increase index if either positive or negative sign is detected 
....................    if (c == '-') 
....................    { 
....................       sign = 1;         // Set the sign to negative 
....................       c = s[index++]; 
....................    } 
....................    else if (c == '+') 
....................    { 
....................       c = s[index++]; 
....................    } 
....................  
....................    if (c >= '0' && c <= '9') 
....................    { 
....................       if (c == '0' && (s[index] == 'x' || s[index] == 'X')) 
....................       { 
....................          base = 16; 
....................          index++; 
....................          c = s[index++]; 
....................       } 
....................  
....................       // The number is a decimal number 
....................       if (base == 10) 
....................       { 
....................          while (c >= '0' && c <= '9') { 
....................             result = (result << 1) + (result << 3);  // result *= 10; 
....................             result += (c - '0'); 
....................             c = s[index++]; 
....................          } 
....................       } 
....................       else if (base == 16)    // The number is a hexa number 
....................       { 
....................          c = toupper(c); 
....................          while ((c >= '0' && c <= '9') || (c >= 'A' && c <='F')) 
....................          { 
....................             if (c >= '0' && c <= '9') 
....................                result = (result << 4) + (c - '0'); 
....................             else 
....................                result = (result << 4) + (c - 'A' + 10); 
....................  
....................             c = s[index++];c = toupper(c); 
....................          } 
....................       } 
....................    } 
....................  
....................    if (base == 10 && sign == 1) 
....................       result = -result; 
....................  
....................    return(result); 
.................... } 
.................... #endif 
....................  
.................... char * itoa(signed int32 num, unsigned int base, char * s) 
.................... { 
....................      unsigned int32 temp=1; 
....................      unsigned int8 i,sign=0,cnt=0; 
....................      char c; 
....................  
....................      if(num<0) { 
....................          sign=1;        // Check for negative number 
....................          num*=-1; 
....................      } 
....................  
....................      while(temp>0) { 
....................          temp=(num/base); 
....................          s[cnt]=(num%base)+'0';    // Conversion 
....................  
....................          if(s[cnt]>0x39) 
....................             s[cnt]+=0x7; 
....................  
....................          cnt++; 
....................          num=temp; 
....................      } 
....................  
....................      if(sign==1) { 
....................          s[cnt]=0x2D;      // Negative sign 
....................          cnt++; 
....................      } 
....................  
....................      for(i = 0;i<(int8)(cnt/2);i++) { 
....................  
....................          c=s[i]; 
....................          s[i]=s[cnt-i-1];        // Reverse the number 
....................          s[cnt-i-1]=c; 
....................      } 
....................      s[cnt]='\0';     // End the string 
....................      return s; 
.................... } 
....................  
.................... float strtof(char *s, char *endptr) 
.................... { 
....................    float pow10 = 1.0; 
....................    float result = 0.0; 
....................    int1 skip = 1, sign = 0, point = 0; 
....................    char c; 
....................    unsigned int8 ptr = 0; 
....................  
....................    if (!s) 
....................       return 0; 
....................  
....................    for(c=s[ptr++]; c!=0; c=s[ptr++]) 
....................    { 
....................       if (skip && !isspace(c)) 
....................       { 
....................          skip = 0; 
....................          if (c == '+') 
....................          { 
....................             sign = 0; 
....................             continue; 
....................          }             
....................          else if (c == '-') 
....................          { 
....................             sign = 1; 
....................             continue; 
....................          } 
....................       } 
....................       if (!skip && (c == '.') && !point) 
....................          point = 1; 
....................       else if (!skip && isdigit(c)) 
....................       { 
....................          c -= '0'; 
....................          if (point) 
....................          { 
....................             pow10 = pow10 * 10.0; 
....................             result += (float)c / pow10;    
....................          } 
....................          else 
....................          { 
....................             result = 10.0 * result + (float)c; 
....................          } 
....................       } 
....................       else if (!skip) 
....................          break; 
....................    } 
....................  
....................    if (sign) 
....................       result = -1*result; 
....................        
....................    if(endptr) 
....................    { 
....................       if (ptr) { 
....................          ptr--; 
....................        #IF LONG_POINTERS  
....................          *((long *)endptr)= s+ptr;  
....................        #ELSE 
....................          *((char *)endptr)=s+ptr; 
....................        #ENDIF 
....................       } 
....................       else 
....................       { 
....................       #IF LONG_POINTERS 
....................       *((long *)endptr)= s;  
....................       #ELSE 
....................       *((char *)endptr)=s; 
....................       #ENDIF 
....................       } 
....................    } 
....................  
....................    return(result); 
.................... } 
....................  
.................... #if defined(__PCD__) 
.................... float48 strtof48(char *s, char *endptr) 
.................... { 
....................    float48 pow10 = 1.0; 
....................    float48 result = 0.0; 
....................    int1 skip = 1, sign = 0, point = 0; 
....................    char c; 
....................    unsigned int8 ptr = 0; 
....................  
....................    if (!s) 
....................       return 0; 
....................  
....................    for(c=s[ptr++]; c!=0; c=s[ptr++]) 
....................    { 
....................       if (skip && !isspace(c)) 
....................       { 
....................          skip = 0; 
....................          if (c == '+') 
....................          { 
....................             sign = 0; 
....................             continue; 
....................          }             
....................          else if (c == '-') 
....................          { 
....................             sign = 1; 
....................             continue; 
....................          } 
....................       } 
....................       if (!skip && (c == '.') && !point) 
....................          point = 1; 
....................       else if (!skip && isdigit(c)) 
....................       { 
....................          c -= '0'; 
....................          if (point) 
....................          { 
....................             pow10 = pow10 * 10.0; 
....................             result += (float48)c / pow10;    
....................          } 
....................          else 
....................          { 
....................             result = 10.0 * result + (float48)c; 
....................          } 
....................       } 
....................       else if (!skip) 
....................          break; 
....................    } 
....................  
....................    if (sign) 
....................       result = -1*result; 
....................        
....................    if(endptr) 
....................    { 
....................       if (ptr) { 
....................          ptr--; 
....................        #IF LONG_POINTERS  
....................          *((long *)endptr)= s+ptr;  
....................        #ELSE 
....................          *((char *)endptr)=s+ptr; 
....................        #ENDIF 
....................       } 
....................       else 
....................       { 
....................       #IF LONG_POINTERS 
....................       *((long *)endptr)= s;  
....................       #ELSE 
....................       *((char *)endptr)=s; 
....................       #ENDIF 
....................       } 
....................    } 
....................  
....................    return(result); 
.................... } 
....................  
.................... float64 strtod(char *s, char *endptr) 
.................... { 
....................    float64 pow10 = 1.0; 
....................    float64 result = 0.0; 
....................    int1 skip = 1, sign = 0, point = 0; 
....................    char c; 
....................    unsigned int8 ptr = 0; 
....................  
....................    if (!s) 
....................       return 0; 
....................  
....................    for(c=s[ptr++]; c!=0; c=s[ptr++]) 
....................    { 
....................       if (skip && !isspace(c)) 
....................       { 
....................          skip = 0; 
....................          if (c == '+') 
....................          { 
....................             sign = 0; 
....................             continue; 
....................          }             
....................          else if (c == '-') 
....................          { 
....................             sign = 1; 
....................             continue; 
....................          } 
....................       } 
....................       if (!skip && (c == '.') && !point) 
....................          point = 1; 
....................       else if (!skip && isdigit(c)) 
....................       { 
....................          c -= '0'; 
....................          if (point) 
....................          { 
....................             pow10 = pow10 * 10.0; 
....................             result += (float64)c / pow10;    
....................          } 
....................          else 
....................          { 
....................             result = 10.0 * result + (float64)c; 
....................          } 
....................       } 
....................       else if (!skip) 
....................          break; 
....................    } 
....................  
....................    if (sign) 
....................       result = -1*result; 
....................        
....................    if(endptr) 
....................    { 
....................       if (ptr) { 
....................          ptr--; 
....................        #IF LONG_POINTERS  
....................          *((long *)endptr)= s+ptr;  
....................        #ELSE 
....................          *((char *)endptr)=s+ptr; 
....................        #ENDIF 
....................       } 
....................       else 
....................       { 
....................       #IF LONG_POINTERS 
....................       *((long *)endptr)= s;  
....................       #ELSE 
....................       *((char *)endptr)=s; 
....................       #ENDIF 
....................       } 
....................    } 
....................  
....................    return(result); 
.................... } 
.................... #endif 
....................  
.................... unsigned long strtoul(char *s, char *endptr, signed int base) 
.................... { 
....................    char *sc,*s1,*sd; 
....................    unsigned long x=0; 
....................    char sign; 
....................    char digits[]="0123456789abcdefghijklmnopqstuvwxyz"; 
....................    for(sc=s;isspace(*sc);++sc); 
....................    sign=*sc=='-'||*sc=='+'?*sc++:'+'; 
....................    if(sign=='-' || base <0 || base ==1|| base >36) // invalid base 
....................    goto StrtoulGO; 
....................  
....................    else if (base) 
....................    { 
....................       if(base==16 && *sc =='0'&&(sc[1]=='x' || sc[1]=='X')) 
....................          sc+=2; 
....................       if(base==8 && *sc =='0') 
....................          sc+=1; 
....................       if(base==2 && *sc =='0'&&sc[1]=='b') 
....................          sc+=2; 
....................  
....................    } 
....................    else if(*sc!='0') // base is 0, find base 
....................       base=10; 
....................    else if (sc[1]=='x' || sc[1]=='X') 
....................       base =16,sc+=2; 
....................    else if(sc[1]=='b') 
....................       base=2,sc+=2; 
....................    else 
....................       base=8; 
....................    for (s1=sc;*sc=='0';++sc);// skip leading zeroes 
....................    sd=memchr(digits,tolower(*sc),base); 
....................    for(; sd!=0; ) 
....................    { 
....................       x=x*base+(int16)(sd-digits); 
....................       ++sc; 
....................       sd=memchr(digits,tolower(*sc),base); 
....................    } 
....................    if(s1==sc) 
....................    { 
....................    StrtoulGO: 
....................       if (endptr) 
....................       { 
....................          #IF LONG_POINTERS 
....................          *((long *)endptr)= s;  
....................          #ELSE 
....................          *((char *)endptr)=s; 
....................          #ENDIF 
....................          } 
....................    return 0; 
....................    } 
....................    if (endptr) 
....................    { 
....................          #IF LONG_POINTERS 
....................          *((long *)endptr)= sc;  
....................          #ELSE 
....................          *((char *)endptr)=sc;  
....................          #ENDIF 
....................    } 
....................    return x; 
.................... } 
....................  
....................  
.................... signed long strtol(char *s,char *endptr, signed int base) 
.................... { 
....................    char *sc,*s1,*sd; 
....................    signed long x=0; 
....................    char sign; 
....................    char digits[]="0123456789abcdefghijklmnopqstuvwxyz"; 
....................    for(sc=s;isspace(*sc);++sc); 
....................    sign=*sc=='-'||*sc=='+'?*sc++:'+'; 
....................    if (base <0 || base ==1|| base >36) // invalid base 
....................    goto StrtolGO; 
....................    else if (base) 
....................    { 
....................       if(base==16 && *sc =='0'&&(sc[1]=='x' || sc[1]=='X')) 
....................          sc+=2; 
....................       if(base==8 && *sc =='0') 
....................          sc+=1; 
....................       if(base==2 && *sc =='0'&&sc[1]=='b') 
....................          sc+=2; 
....................  
....................    } 
....................    else if(*sc!='0') // base is 0, find base 
....................       base=10; 
....................    else if (sc[1]=='x' || sc[1]=='X') 
....................       base =16,sc+=2; 
....................    else if(sc[1]=='b') 
....................       base=2,sc+=2; 
....................    else 
....................       base=8; 
....................    for (s1=sc;*sc=='0';++sc);// skip leading zeroes 
....................  
....................    sd=memchr(digits,tolower(*sc),base); 
....................    for(;sd!=0;) 
....................    { 
....................       x=x*base+(int16)(sd-digits); 
....................       ++sc; 
....................       sd=memchr(digits,tolower(*sc),base); 
....................    } 
....................    if(s1==sc) 
....................    { 
....................    StrtolGO: 
....................       if (endptr) 
....................       { 
....................          #IF LONG_POINTERS 
....................          *((long *)endptr)= s;  
....................          #ELSE 
....................          *((char *)endptr)=s; 
....................          #ENDIF 
....................       } 
....................    return 0; 
....................    } 
....................    if(sign=='-') 
....................       x  =-x; 
....................    if (endptr) 
....................    { 
....................         #IF LONG_POINTERS 
....................          *((long *)endptr)= sc;  
....................         #ELSE 
....................         *((char *)endptr)=sc; 
....................         #ENDIF 
....................    } 
....................    return x; 
.................... } 
....................  
.................... signed int8 system(char *string) 
.................... { 
....................    return 0; 
.................... } 
....................  
.................... int8 mblen(char *s,size_t n) 
.................... { 
....................    return strlen(s); 
.................... } 
....................  
.................... int8 mbtowc(wchar_t *pwc,char *s,size_t n) 
.................... { 
....................    *pwc=*s; 
....................    return 1; 
.................... } 
....................  
.................... int8 wctomb(char *s,wchar_t wchar) 
.................... { 
....................    *s=wchar; 
....................    return 1; 
.................... } 
....................  
.................... size_t mbstowcs(wchar_t *pwcs,char *s,size_t n) 
.................... { 
....................    strncpy(pwcs,s,n); 
....................    return strlen(pwcs); 
.................... } 
....................  
.................... size_t wcstombs(char *s,wchar_t *pwcs,size_t n) 
.................... { 
....................    strncpy(s,pwcs,n); 
....................    return strlen(s); 
.................... } 
....................  
.................... //--------------------------------------------------------------------------- 
.................... // The random number implementation 
.................... //--------------------------------------------------------------------------- 
....................  
.................... unsigned int32 _Randseed; 
....................  
.................... unsigned int16 rand(void) 
.................... { 
....................    _Randseed = _Randseed * 1103515245 + 12345; 
....................    return ((unsigned int16)(_Randseed >> 16) % RAND_MAX); 
.................... } 
....................  
.................... void srand(unsigned int32 seed) 
.................... { 
....................    _Randseed = seed; 
.................... } 
....................  
.................... //--------------------------------------------------------------------------- 
.................... // Searching and sorting utilities implementation 
.................... //--------------------------------------------------------------------------- 
....................  
.................... #if !defined(__PCD__) 
.................... typedef signed int8 (*_Cmpfun)(char * p1,char * p2);  
.................... #else  
.................... typedef signed int16 (*_Cmpfun)(char * p1,char * p2);  
.................... #endif 
....................  
....................  
....................  
.................... void qsort(char * qdata, unsigned int qitems, unsigned int qsize, _Cmpfun cmp) { 
....................    unsigned int m,j,i,l; 
....................    int1 done; 
....................    unsigned int8 t[16]; 
....................  
....................    m = qitems/2; 
....................    while( m > 0 ) { 
....................      for(j=0; j<(qitems-m); ++j) { 
....................         i = j; 
....................         do 
....................         { 
....................            done=1; 
....................            l = i+m; 
....................            if( (*cmp)(qdata+i*qsize, qdata+l*qsize) > 0 ) { 
....................               memcpy(t, qdata+i*qsize, qsize); 
....................               memcpy(qdata+i*qsize, qdata+l*qsize, qsize); 
....................               memcpy(qdata+l*qsize, t, qsize); 
....................               if(m <= i) 
....................                 i -= m; 
....................                 done = 0; 
....................            } 
....................         } while(!done); 
....................      } 
....................      m = m/2; 
....................    } 
.................... } 
....................  
....................  
.................... char *bsearch(char *key, char *base, size_t num, size_t width,_Cmpfun cmp) 
.................... { 
....................    char *p, *q; 
....................    size_t n; 
....................    size_t pivot; 
....................    signed int val; 
....................  
....................    p = base; 
....................    n = num; 
....................  
....................    while (n > 0) 
....................    { 
....................       pivot = n >> 1; 
....................       q = p + width * pivot; 
....................  
....................       val = (*cmp)(key, q); 
....................  
....................       if (val < 0) 
....................          n = pivot; 
....................       else if (val == 0) 
....................          return ((char *)q); 
....................       else { 
....................          p = q + width; 
....................          n -= pivot + 1; 
....................       } 
....................    } 
....................  
....................    return NULL;      // There's no match 
.................... } 
....................  
....................  
.................... #endif 
....................  
.................... #include <DS1302.c> 
.................... ////////////////////////////////////////////////////////////////////////// 
.................... ////                               DS1302.C                           //// 
.................... ////                     Driver for Real Time Clock                   //// 
.................... ////                                                                  //// 
.................... ////  rtc_init()                                   Call after power up//// 
.................... ////                                                                  //// 
.................... ////  rtc_set_datetime(day,mth,year,dow,hour,min)  Set the date/time  //// 
.................... ////                                                                  //// 
.................... ////  rtc_get_date(day,mth,year,dow)               Get the date       //// 
.................... ////                                                                  //// 
.................... ////  rtc_get_time(hr,min,sec)                     Get the time       //// 
.................... ////                                                                  //// 
.................... ////  rtc_write_nvr(address,data)                  Write to NVR       //// 
.................... ////                                                                  //// 
.................... ////  data = rtc_read_nvr(address)                 Read from NVR      //// 
.................... ////                                                                  //// 
.................... ////  get_bcd(data)                              Convert data to BCD  //// 
.................... ////                                                                  //// 
.................... ////  rm_bcd(data)                               Convert data to int  //// 
.................... ////                                                                  //// 
.................... ////////////////////////////////////////////////////////////////////////// 
.................... ////        (C) Copyright 1996,2003 Custom Computer Services          //// 
.................... //// This source code may only be used by licensed users of the CCS C //// 
.................... //// compiler.  This source code may only be distributed to other     //// 
.................... //// licensed users of the CCS C compiler.  No other use, reproduction//// 
.................... //// or distribution is permitted without written permission.         //// 
.................... //// Derivative programs created using this software in object code   //// 
.................... //// form are not restricted in any way.                              //// 
.................... ////////////////////////////////////////////////////////////////////////// 
....................  
.................... //#ifndef RTC_SCLK 
....................  
.................... #define RTC_SCLK PIN_D4 
.................... #define RTC_IO   PIN_D5 
.................... #define RTC_RST  PIN_D6 
....................  
.................... //#endif 
....................  
.................... void write_ds1302_byte(BYTE cmd) { 
....................    BYTE i; 
....................  
....................    for(i=0;i<=7;++i) { 
*
03AB8:  MOVLB  7
03ABA:  CLRF   x12
03ABC:  MOVF   x12,W
03ABE:  SUBLW  07
03AC0:  BNC   3ADC
....................       output_bit(RTC_IO, shift_right(&cmd,1,0) ); 
03AC2:  BCF    FD8.0
03AC4:  RRCF   x11,F
03AC6:  BC    3ACC
03AC8:  BCF    F8C.5
03ACA:  BRA    3ACE
03ACC:  BSF    F8C.5
03ACE:  BCF    F95.5
....................       output_high(RTC_SCLK); 
03AD0:  BCF    F95.4
03AD2:  BSF    F8C.4
....................       output_low(RTC_SCLK); 
03AD4:  BCF    F95.4
03AD6:  BCF    F8C.4
....................    } 
03AD8:  INCF   x12,F
03ADA:  BRA    3ABC
.................... } 
03ADC:  MOVLB  0
03ADE:  RETLW  00
....................  
.................... void write_ds1302(BYTE cmd, BYTE data) { 
....................  
....................    output_high(RTC_RST); 
03AE0:  BCF    F95.6
03AE2:  BSF    F8C.6
....................    write_ds1302_byte(cmd); 
03AE4:  MOVFF  70F,711
03AE8:  RCALL  3AB8
....................    write_ds1302_byte(data); 
03AEA:  MOVFF  710,711
03AEE:  RCALL  3AB8
....................    output_low(RTC_RST); 
03AF0:  BCF    F95.6
03AF2:  BCF    F8C.6
.................... } 
03AF4:  RETLW  00
....................  
.................... BYTE read_ds1302(BYTE cmd) { 
....................    BYTE i,data; 
....................  
....................    output_high(RTC_RST); 
03AF6:  BCF    F95.6
03AF8:  BSF    F8C.6
....................    write_ds1302_byte(cmd); 
03AFA:  MOVFF  70E,711
03AFE:  RCALL  3AB8
....................     
....................    input(RTC_IO); 
03B00:  BSF    F95.5
....................    delay_us(10); 
03B02:  MOVLW  10
03B04:  MOVWF  00
03B06:  DECFSZ 00,F
03B08:  BRA    3B06
03B0A:  NOP   
....................           
....................    for(i=0;i<=7;++i) { 
03B0C:  MOVLB  7
03B0E:  CLRF   x0F
03B10:  MOVF   x0F,W
03B12:  SUBLW  07
03B14:  BNC   3B40
....................       shift_right(&data,1,input(RTC_IO)); 
03B16:  BSF    F95.5
03B18:  BTFSC  F83.5
03B1A:  BRA    3B20
03B1C:  BCF    FD8.0
03B1E:  BRA    3B22
03B20:  BSF    FD8.0
03B22:  RRCF   x10,F
....................       output_high(RTC_SCLK); 
03B24:  BCF    F95.4
03B26:  BSF    F8C.4
....................       delay_us(20); 
03B28:  MOVLW  21
03B2A:  MOVWF  00
03B2C:  DECFSZ 00,F
03B2E:  BRA    3B2C
....................       output_low(RTC_SCLK); 
03B30:  BCF    F95.4
03B32:  BCF    F8C.4
....................       delay_us(20); 
03B34:  MOVLW  21
03B36:  MOVWF  00
03B38:  DECFSZ 00,F
03B3A:  BRA    3B38
....................    } 
03B3C:  INCF   x0F,F
03B3E:  BRA    3B10
....................    output_low(RTC_RST); 
03B40:  BCF    F95.6
03B42:  BCF    F8C.6
....................  
....................    return(data); 
03B44:  MOVFF  710,01
.................... } 
03B48:  MOVLB  0
03B4A:  RETLW  00
....................  
.................... void rtc_init() { 
....................    BYTE x; 
....................    output_low(RTC_RST); 
03B4C:  BCF    F95.6
03B4E:  BCF    F8C.6
....................    delay_us(20); 
03B50:  MOVLW  21
03B52:  MOVWF  00
03B54:  DECFSZ 00,F
03B56:  BRA    3B54
....................    output_low(RTC_SCLK); 
03B58:  BCF    F95.4
03B5A:  BCF    F8C.4
....................    write_ds1302(0x8e,0); 
03B5C:  MOVLW  8E
03B5E:  MOVLB  7
03B60:  MOVWF  x0F
03B62:  CLRF   x10
03B64:  MOVLB  0
03B66:  RCALL  3AE0
....................    write_ds1302(0x90,0xa4); 
03B68:  MOVLW  90
03B6A:  MOVLB  7
03B6C:  MOVWF  x0F
03B6E:  MOVLW  A4
03B70:  MOVWF  x10
03B72:  MOVLB  0
03B74:  RCALL  3AE0
....................    x=read_ds1302(0x81); 
03B76:  MOVLW  81
03B78:  MOVLB  7
03B7A:  MOVWF  x0E
03B7C:  MOVLB  0
03B7E:  RCALL  3AF6
03B80:  MOVFF  01,708
....................    if((x & 0x80)!=0) 
03B84:  MOVLB  7
03B86:  MOVF   x08,W
03B88:  ANDLW  80
03B8A:  BZ    3B98
....................      write_ds1302(0x80,0); 
03B8C:  MOVLW  80
03B8E:  MOVWF  x0F
03B90:  CLRF   x10
03B92:  MOVLB  0
03B94:  RCALL  3AE0
03B96:  MOVLB  7
.................... } 
03B98:  MOVLB  0
03B9A:  GOTO   10838 (RETURN)
....................  
.................... byte get_bcd(BYTE data) 
.................... { 
....................    byte nibh; 
....................    byte nibl; 
....................  
....................    nibh=data/10; 
*
07032:  MOVFF  70E,711
07036:  MOVLW  0A
07038:  MOVLB  7
0703A:  MOVWF  x12
0703C:  MOVLB  0
0703E:  CALL   62FE
07042:  MOVFF  01,70F
....................    nibl=data-(nibh*10); 
07046:  MOVLB  7
07048:  MOVF   x0F,W
0704A:  MULLW  0A
0704C:  MOVF   FF3,W
0704E:  SUBWF  x0E,W
07050:  MOVWF  x10
....................  
....................    return((nibh<<4)|nibl); 
07052:  SWAPF  x0F,W
07054:  MOVWF  00
07056:  MOVLW  F0
07058:  ANDWF  00,F
0705A:  MOVF   00,W
0705C:  IORWF  x10,W
0705E:  MOVWF  01
.................... } 
07060:  MOVLB  0
07062:  RETLW  00
....................  
.................... byte rm_bcd(BYTE data) 
.................... { 
....................    byte i; 
....................  
....................    i=data; 
*
05960:  MOVFF  70F,710
....................    data=(i>>4)*10; 
05964:  MOVLB  7
05966:  SWAPF  x10,W
05968:  MOVWF  00
0596A:  MOVLW  0F
0596C:  ANDWF  00,F
0596E:  MOVF   00,W
05970:  MULLW  0A
05972:  MOVFF  FF3,70F
....................    data=data+(i<<4>>4); 
05976:  SWAPF  x10,W
05978:  MOVWF  00
0597A:  MOVLW  F0
0597C:  ANDWF  00,F
0597E:  MOVF   00,W
05980:  SWAPF  00,F
05982:  MOVLW  0F
05984:  ANDWF  00,F
05986:  MOVF   00,W
05988:  ADDWF  x0F,F
....................  
....................    return data; 
0598A:  MOVFF  70F,01
.................... } 
0598E:  MOVLB  0
05990:  RETLW  00
....................  
.................... void rtc_set_datetime(BYTE day, BYTE mth, BYTE year, BYTE dow, BYTE hr, BYTE min) { 
....................  
....................    write_ds1302(0x86,get_bcd(day)); 
*
07064:  MOVFF  708,70E
07068:  RCALL  7032
0706A:  MOVFF  01,70E
0706E:  MOVLW  86
07070:  MOVLB  7
07072:  MOVWF  x0F
07074:  MOVFF  01,710
07078:  MOVLB  0
0707A:  CALL   3AE0
....................    write_ds1302(0x88,get_bcd(mth)); 
0707E:  MOVFF  709,70E
07082:  RCALL  7032
07084:  MOVFF  01,70E
07088:  MOVLW  88
0708A:  MOVLB  7
0708C:  MOVWF  x0F
0708E:  MOVFF  01,710
07092:  MOVLB  0
07094:  CALL   3AE0
....................    write_ds1302(0x8c,get_bcd(year)); 
07098:  MOVFF  70A,70E
0709C:  RCALL  7032
0709E:  MOVFF  01,70E
070A2:  MOVLW  8C
070A4:  MOVLB  7
070A6:  MOVWF  x0F
070A8:  MOVFF  01,710
070AC:  MOVLB  0
070AE:  CALL   3AE0
....................    write_ds1302(0x8a,get_bcd(dow)); 
070B2:  MOVFF  70B,70E
070B6:  RCALL  7032
070B8:  MOVFF  01,70E
070BC:  MOVLW  8A
070BE:  MOVLB  7
070C0:  MOVWF  x0F
070C2:  MOVFF  01,710
070C6:  MOVLB  0
070C8:  CALL   3AE0
....................    write_ds1302(0x84,get_bcd(hr)); 
070CC:  MOVFF  70C,70E
070D0:  RCALL  7032
070D2:  MOVFF  01,70E
070D6:  MOVLW  84
070D8:  MOVLB  7
070DA:  MOVWF  x0F
070DC:  MOVFF  01,710
070E0:  MOVLB  0
070E2:  CALL   3AE0
....................    write_ds1302(0x82,get_bcd(min)); 
070E6:  MOVFF  70D,70E
070EA:  RCALL  7032
070EC:  MOVFF  01,70E
070F0:  MOVLW  82
070F2:  MOVLB  7
070F4:  MOVWF  x0F
070F6:  MOVFF  01,710
070FA:  MOVLB  0
070FC:  CALL   3AE0
....................    write_ds1302(0x80,get_bcd(0)); 
07100:  MOVLB  7
07102:  CLRF   x0E
07104:  MOVLB  0
07106:  RCALL  7032
07108:  MOVFF  01,70E
0710C:  MOVLW  80
0710E:  MOVLB  7
07110:  MOVWF  x0F
07112:  MOVFF  01,710
07116:  MOVLB  0
07118:  CALL   3AE0
.................... } 
0711C:  GOTO   134DE (RETURN)
....................  
.................... void rtc_get_date(BYTE& day, BYTE& mth, BYTE& year, BYTE& dow) { 
....................    day = rm_bcd(read_ds1302(0x87)); 
*
05A34:  MOVLW  87
05A36:  MOVLB  7
05A38:  MOVWF  x0E
05A3A:  MOVLB  0
05A3C:  CALL   3AF6
05A40:  MOVFF  01,70A
05A44:  MOVFF  01,70F
05A48:  RCALL  5960
05A4A:  MOVFF  01,38D
....................    mth = rm_bcd(read_ds1302(0x89)); 
05A4E:  MOVLW  89
05A50:  MOVLB  7
05A52:  MOVWF  x0E
05A54:  MOVLB  0
05A56:  CALL   3AF6
05A5A:  MOVFF  01,70A
05A5E:  MOVFF  01,70F
05A62:  RCALL  5960
05A64:  MOVFF  01,38C
....................    year = rm_bcd(read_ds1302(0x8d)); 
05A68:  MOVLW  8D
05A6A:  MOVLB  7
05A6C:  MOVWF  x0E
05A6E:  MOVLB  0
05A70:  CALL   3AF6
05A74:  MOVFF  01,70A
05A78:  MOVFF  01,70F
05A7C:  RCALL  5960
05A7E:  MOVFF  01,38B
....................    dow = rm_bcd(read_ds1302(0x8b)); 
05A82:  MOVLW  8B
05A84:  MOVLB  7
05A86:  MOVWF  x0E
05A88:  MOVLB  0
05A8A:  CALL   3AF6
05A8E:  MOVFF  01,70A
05A92:  MOVFF  01,70F
05A96:  RCALL  5960
05A98:  MOVFF  01,391
.................... } 
....................  
.................... void rtc_get_time(BYTE& hr, BYTE& min, BYTE& sec) { 
....................    hr = rm_bcd(read_ds1302(0x85)); 
05A9C:  MOVLW  85
05A9E:  MOVLB  7
05AA0:  MOVWF  x0E
05AA2:  MOVLB  0
05AA4:  CALL   3AF6
05AA8:  MOVFF  01,70A
05AAC:  MOVFF  01,70F
05AB0:  RCALL  5960
05AB2:  MOVFF  01,38E
....................    min = rm_bcd(read_ds1302(0x83)); 
05AB6:  MOVLW  83
05AB8:  MOVLB  7
05ABA:  MOVWF  x0E
05ABC:  MOVLB  0
05ABE:  CALL   3AF6
05AC2:  MOVFF  01,70A
05AC6:  MOVFF  01,70F
05ACA:  RCALL  5960
05ACC:  MOVFF  01,38F
....................    sec = rm_bcd(read_ds1302(0x81)); 
05AD0:  MOVLW  81
05AD2:  MOVLB  7
05AD4:  MOVWF  x0E
05AD6:  MOVLB  0
05AD8:  CALL   3AF6
05ADC:  MOVFF  01,70A
05AE0:  MOVFF  01,70F
05AE4:  RCALL  5960
05AE6:  MOVFF  01,390
.................... } 
....................  
.................... void rtc_write_nvr(BYTE address, BYTE data) { 
....................    write_ds1302(address|0xc0,data); 
.................... } 
....................  
.................... BYTE rtc_read_nvr(BYTE address) { 
....................     return(read_ds1302(address|0xc1)); 
.................... } 
....................  
.................... #include <24512.c> 
.................... /////////////////////////////////////////////////////////////////////////// 
.................... ////   Library for a 24LC512 serial EEPROM                             //// 
.................... ////                                                                   //// 
.................... ////   init_ext_eeprom();    Call before the other functions are used  //// 
.................... ////                                                                   //// 
.................... ////   write_ext_eeprom(a, d);  Write the byte d to the address a      //// 
.................... ////                                                                   //// 
.................... ////   d = read_ext_eeprom(a);   Read the byte d from the address a    //// 
.................... ////                                                                   //// 
.................... ////   The main program may define eeprom_sda                          //// 
.................... ////   and eeprom_scl to override the defaults below.                  //// 
.................... ////                                                                   //// 
.................... /////////////////////////////////////////////////////////////////////////// 
.................... ////        (C) Copyright 1996,2003 Custom Computer Services           //// 
.................... //// This source code may only be used by licensed users of the CCS C  //// 
.................... //// compiler.  This source code may only be distributed to other      //// 
.................... //// licensed users of the CCS C compiler.  No other use, reproduction //// 
.................... //// or distribution is permitted without written permission.          //// 
.................... //// Derivative programs created using this software in object code    //// 
.................... //// form are not restricted in any way.                               //// 
.................... /////////////////////////////////////////////////////////////////////////// 
....................  
.................... #ifndef EEPROM_SDA 
....................  
.................... #define EEPROM_SDA  PIN_C4 
.................... #define EEPROM_SCL  PIN_C3 
....................  
.................... #endif 
....................  
.................... //#use i2c(master, sda=EEPROM_SDA, scl=EEPROM_SCL) 
....................  
.................... #define EEPROM_ADDRESS long int 
.................... #define EEPROM_SIZE   65535 
....................  
.................... void init_ext_eeprom() 
.................... { 
....................    output_float(EEPROM_SCL); 
....................    output_float(EEPROM_SDA); 
....................  
.................... } 
....................  
.................... void write_ext_eeprom(long int address, BYTE data) 
.................... { 
....................    short int status; 
....................    i2c_start(); 
*
0693C:  BSF    F94.4
0693E:  MOVLW  05
06940:  MOVWF  00
06942:  DECFSZ 00,F
06944:  BRA    6942
06946:  BSF    F94.3
06948:  MOVLW  06
0694A:  MOVWF  00
0694C:  DECFSZ 00,F
0694E:  BRA    694C
06950:  BCF    F8B.4
06952:  BCF    F94.4
06954:  MOVLW  05
06956:  MOVWF  00
06958:  DECFSZ 00,F
0695A:  BRA    6958
0695C:  BCF    F8B.3
0695E:  BCF    F94.3
....................    i2c_write(0xa0); 
06960:  MOVLW  A0
06962:  MOVLB  7
06964:  MOVWF  x26
06966:  MOVLB  0
06968:  CALL   24B6
....................    i2c_write(address>>8); 
0696C:  MOVFF  721,724
06970:  MOVLB  7
06972:  CLRF   x25
06974:  MOVFF  721,726
06978:  MOVLB  0
0697A:  CALL   24B6
....................    i2c_write(address); 
0697E:  MOVFF  720,726
06982:  CALL   24B6
....................    i2c_write(data); 
06986:  MOVFF  722,726
0698A:  CALL   24B6
....................    i2c_stop(); 
0698E:  BCF    F94.4
06990:  NOP   
06992:  BSF    F94.3
06994:  BTFSS  F82.3
06996:  BRA    6994
06998:  MOVLW  05
0699A:  MOVWF  00
0699C:  DECFSZ 00,F
0699E:  BRA    699C
069A0:  BRA    69A2
069A2:  NOP   
069A4:  BSF    F94.4
069A6:  MOVLW  05
069A8:  MOVWF  00
069AA:  DECFSZ 00,F
069AC:  BRA    69AA
....................    i2c_start(); 
069AE:  BSF    F94.4
069B0:  MOVLW  05
069B2:  MOVWF  00
069B4:  DECFSZ 00,F
069B6:  BRA    69B4
069B8:  BSF    F94.3
069BA:  MOVLW  06
069BC:  MOVWF  00
069BE:  DECFSZ 00,F
069C0:  BRA    69BE
069C2:  BCF    F8B.4
069C4:  BCF    F94.4
069C6:  MOVLW  05
069C8:  MOVWF  00
069CA:  DECFSZ 00,F
069CC:  BRA    69CA
069CE:  BCF    F8B.3
069D0:  BCF    F94.3
....................    status=i2c_write(0xa0); 
069D2:  MOVLW  A0
069D4:  MOVLB  7
069D6:  MOVWF  x26
069D8:  MOVLB  0
069DA:  CALL   24B6
069DE:  MOVF   01,W
069E0:  MOVLB  7
069E2:  BCF    x23.0
069E4:  BTFSC  01.0
069E6:  BSF    x23.0
....................    //while(status==1) 
....................    //{ 
....................       i2c_start(); 
069E8:  BSF    F94.4
069EA:  MOVLW  05
069EC:  MOVWF  00
069EE:  DECFSZ 00,F
069F0:  BRA    69EE
069F2:  BSF    F94.3
069F4:  MOVLW  06
069F6:  MOVWF  00
069F8:  DECFSZ 00,F
069FA:  BRA    69F8
069FC:  BTFSS  F82.3
069FE:  BRA    69FC
06A00:  BCF    F8B.4
06A02:  BCF    F94.4
06A04:  MOVLW  05
06A06:  MOVWF  00
06A08:  DECFSZ 00,F
06A0A:  BRA    6A08
06A0C:  BCF    F8B.3
06A0E:  BCF    F94.3
....................       status=i2c_write(0xa0); 
06A10:  MOVLW  A0
06A12:  MOVWF  x26
06A14:  MOVLB  0
06A16:  CALL   24B6
06A1A:  MOVF   01,W
06A1C:  MOVLB  7
06A1E:  BCF    x23.0
06A20:  BTFSC  01.0
06A22:  BSF    x23.0
....................    //} 
....................    i2c_stop(); 
06A24:  BCF    F94.4
06A26:  NOP   
06A28:  BSF    F94.3
06A2A:  BTFSS  F82.3
06A2C:  BRA    6A2A
06A2E:  MOVLW  05
06A30:  MOVWF  00
06A32:  DECFSZ 00,F
06A34:  BRA    6A32
06A36:  BRA    6A38
06A38:  NOP   
06A3A:  BSF    F94.4
06A3C:  MOVLW  05
06A3E:  MOVWF  00
06A40:  DECFSZ 00,F
06A42:  BRA    6A40
.................... } 
06A44:  MOVLB  0
06A46:  RETLW  00
....................  
.................... BYTE read_ext_eeprom(long int address) { 
....................    BYTE data; 
....................    i2c_start(); 
*
02598:  BSF    F94.4
0259A:  MOVLW  05
0259C:  MOVWF  00
0259E:  DECFSZ 00,F
025A0:  BRA    259E
025A2:  BSF    F94.3
025A4:  MOVLW  06
025A6:  MOVWF  00
025A8:  DECFSZ 00,F
025AA:  BRA    25A8
025AC:  BCF    F8B.4
025AE:  BCF    F94.4
025B0:  MOVLW  05
025B2:  MOVWF  00
025B4:  DECFSZ 00,F
025B6:  BRA    25B4
025B8:  BCF    F8B.3
025BA:  BCF    F94.3
....................    i2c_write(0xa0); 
025BC:  MOVLW  A0
025BE:  MOVLB  7
025C0:  MOVWF  x26
025C2:  MOVLB  0
025C4:  RCALL  24B6
....................    i2c_write(address>>8); 
025C6:  MOVFF  70E,710
025CA:  MOVLB  7
025CC:  CLRF   x11
025CE:  MOVFF  70E,726
025D2:  MOVLB  0
025D4:  RCALL  24B6
....................    i2c_write(address); 
025D6:  MOVFF  70D,726
025DA:  RCALL  24B6
....................    i2c_start(); 
025DC:  BSF    F94.4
025DE:  MOVLW  05
025E0:  MOVWF  00
025E2:  DECFSZ 00,F
025E4:  BRA    25E2
025E6:  BSF    F94.3
025E8:  MOVLW  06
025EA:  MOVWF  00
025EC:  DECFSZ 00,F
025EE:  BRA    25EC
025F0:  BTFSS  F82.3
025F2:  BRA    25F0
025F4:  BCF    F8B.4
025F6:  BCF    F94.4
025F8:  MOVLW  05
025FA:  MOVWF  00
025FC:  DECFSZ 00,F
025FE:  BRA    25FC
02600:  BCF    F8B.3
02602:  BCF    F94.3
....................    i2c_write(0xa1); 
02604:  MOVLW  A1
02606:  MOVLB  7
02608:  MOVWF  x26
0260A:  MOVLB  0
0260C:  RCALL  24B6
....................    data=i2c_read(0); 
0260E:  CLRF   00
02610:  BRA    252C
02612:  MOVFF  01,70F
....................    i2c_stop(); 
02616:  BCF    F94.4
02618:  NOP   
0261A:  BSF    F94.3
0261C:  BTFSS  F82.3
0261E:  BRA    261C
02620:  MOVLW  05
02622:  MOVWF  00
02624:  DECFSZ 00,F
02626:  BRA    2624
02628:  BRA    262A
0262A:  NOP   
0262C:  BSF    F94.4
0262E:  MOVLW  05
02630:  MOVWF  00
02632:  DECFSZ 00,F
02634:  BRA    2632
....................    return(data); 
02636:  MOVLB  7
02638:  MOVFF  70F,01
.................... } 
0263C:  MOVLB  0
0263E:  RETLW  00
....................  
....................  
.................... #define   UP            !input(PIN_B0) 
.................... #define   DOWN          !input(PIN_B1) 
.................... #define   RIGHT         !input(PIN_B2) 
.................... #define   LEFT          !input(PIN_B3) 
....................  
.................... #define   TERM          !input(PIN_B4) 
.................... #define   STOP          !input(PIN_B5) 
.................... #define   DOOR          !input(PIN_B6) 
.................... #define   LRES          !input(PIN_B7) 
....................  
.................... //#define   LOW           //input(PIN_A2) 
.................... //#define   HIG           //input(PIN_A3) 
....................  
.................... #define   SSR_on           output_bit(PIN_E1,1) 
.................... #define   SSR_off          output_bit(PIN_E1,0) 
....................  
.................... #define   SSR2_on          output_bit(PIN_E2,1) 
.................... #define   SSR2_off         output_bit(PIN_E2,0) 
....................  
.................... #define   Buzzer_on        output_bit(PIN_D7,1) 
.................... #define   Buzzer_off       output_bit(PIN_D7,0) 
....................  
.................... #define   Paso_on          output_bit(PIN_C0,0)//EV1 
.................... #define   Paso_off         output_bit(PIN_C0,1) 
....................  
.................... #define   Desfogue_on      output_bit(PIN_C1,0)//EV2 
.................... #define   Desfogue_off     output_bit(PIN_C1,1) 
....................  
.................... #define   Vacio_on         output_bit(PIN_C2,0)//EV3 
.................... #define   Vacio_off        output_bit(PIN_C2,1) 
....................  
.................... #define   Aire_on          output_bit(PIN_D0,0)//EV4 
.................... #define   Aire_off         output_bit(PIN_D0,1) 
....................  
.................... #define   AireB_on         output_bit(PIN_D1,0)//EV5 
.................... #define   AireB_off        output_bit(PIN_D1,1) 
....................  
.................... #define   BombaVacio_on    output_bit(PIN_C5,0)//EV6 
.................... #define   BombaVacio_off   output_bit(PIN_C5,1) 
....................  
.................... #define   Agua_on          output_bit(PIN_D3,0)//EV7 
.................... #define   Agua_off         output_bit(PIN_D3,1) 
....................  
.................... #define   EV8_on           output_bit(PIN_D2,0)//EV8 
.................... #define   EV8_off          output_bit(PIN_D2,1) 
....................  
....................  
.................... #define OFF 0 
.................... #define ON  1 
.................... #define RX_BUFFER_SIZE  10 
.................... char Rx_Buffer[RX_BUFFER_SIZE+1]; 
.................... char Rx_Buffer2[RX_BUFFER_SIZE+1]; 
.................... char RX_Wr_Index=0; 
.................... char RX_Rd_Index=0; 
.................... char RX_Counter=0; 
....................  
.................... #define TX_BUFFER_SIZE  24 
.................... char Tx_Buffer[TX_BUFFER_SIZE+1]; 
.................... char TX_Wr_Index=0; 
.................... char TX_Counter=0; 
.................... //int1 RX_Buffer_Overflow=0; 
....................  
.................... //Comunicacion//------------------------ 
.................... byte SlaveA0Tx[0X20]; 
.................... byte dato=0;            //Contendr la informacin a enviar o recibir 
.................... byte direccion=0;       //Contendr la direccin del esclavo en el bus I2C 
.................... byte posicion=0;        //Contendr la posicin en el buffer de memoria del esclavo donde se almacenar o de donde se recuperar el dato 
....................  
.................... /* Tabla de Modulos, Primera Fila Ao Regular y el siguiente ao Bisiesto 
.................... E   F   M   A   M   J   J   A   S   O   N   D 
.................... 0   3   3   6   1   4   6   2   5   0   3   5 
.................... 0   3   4   0   2   5   0   3   6   1   4   6 
.................... */ 
.................... int8 Regular[12]={0,3,3,6,1,4,6,2,5,0,3,5}; 
.................... int8 Bisiesto[12]={0,3,4,0,2,5,0,3,6,1,4,6}; 
....................  
.................... //Alarmas//--------------------- 
.................... short AlarmaTiempoProlongado=OFF,AlarmaSobreTemperatura=OFF,AlarmaLlenado=OFF,AlarmaTermostato=OFF,AlarmaPuerta=OFF,AlarmaEmergencia=OFF,AlarmaBomba=OFF; 
.................... short AlarmaVacio=OFF; 
....................  
.................... //Banderas//-------------------- 
.................... short IniciaLlenado=OFF,CalderinLleno=OFF,IniciaCiclo=OFF,Esterilizando=OFF,Secando=OFF,SensadoNivel=OFF,Desfogando=OFF,DesfogueSuave=OFF; 
.................... short EstadoDesfogue=OFF,EstadoAgua=OFF,EstadoSSR=OFF,EstadoSSR2=OFF,PruebaEstados=OFF,Ciclo=OFF; 
.................... short Op=OFF,Op2=OFF,Minutos=OFF,Segundos=OFF,GuardaEEPROM=OFF,EstadoPaso=OFF,EstadoBuzzer=OFF,flagAlarma=OFF; 
.................... short flagBuzzer=OFF,flagSilencio=OFF,Finalizo=OFF,AlarmaPresion=OFF,Libre=OFF,purga=OFF,Fugas=OFF,disp_Guarda=OFF,guardaCiclo=OFF; 
.................... short PreCalentamiento=OFF,IniciaVacio=OFF,IniciaVacio2=OFF,Vacio=OFF,flag_vac=OFF,flag_vacio=OFF,flag_pulso=OFF,EstadoAireBomba=OFF; 
.................... short EstadoVacio=OFF,EstadoAire=OFF,EstadoBomba=OFF,EstadoAgua2=OFF,EstadoACierre=OFF,entro=OFF,LOW=OFF,HIG=OFF; 
.................... short SensadoNivelL=OFF,NivelBajo=OFF,onBomba=OFF,flagBombaAgua=OFF,flagBombaAguaOff=OFF,borra=OFF,purgaAgua=OFF,purgo=OFF; 
....................  
.................... //Tiempos//--------------------- 
.................... int16 TiempoCiclo=0,TiempoLlenado=0,TiempoSensadoNivel=0,Tp=0,Tc=0,tBombaAgua=0,tBombaAguaOff=0,tTermostato=0,tStop=0,tPurgaAgua=0; 
.................... int8 sEst=0,mEst=0,sSec=0,mSec=0,sEstp=0,mEstp=0,sSecp=0,mSecp=0,conteoPresion=0;// Tiempo transcurrido 
....................  
.................... //Control//------------------------ 
.................... float promedio[80]={0.0,0.0,0.0,0.0,0.0,0.0,0.0,0.0,0.0,0.0,0.0,0.0,0.0,0.0,0.0,0.0,0.0,0.0,0.0,0.0,0.0,0.0,0.0,0.0,0.0,0.0,0.0,0.0,0.0,0.0,0.0,0.0,0.0,0.0,0.0,0.0,0.0,0.0,0.0,0.0,0.0,0.0,0.0,0.0,0.0,0.0,0.0,0.0,0.0,0.0,0.0,0.0,0.0,0.0,0.0,0.0,0.0,0.0,0.0,0.0,0.0,0.0,0.0,0.0}; 
.................... float PromPresion[20]={0.0,0.0,0.0,0.0,0.0,0.0,0.0,0.0,0.0,0.0,0.0,0.0,0.0,0.0,0.0,0.0,0.0,0.0,0.0,0.0}; 
.................... float PromPresionp[20]={0.0,0.0,0.0,0.0,0.0,0.0,0.0,0.0,0.0,0.0,0.0,0.0,0.0,0.0,0.0,0.0,0.0,0.0,0.0,0.0}; 
.................... float Gain=141.6,RPT100=0.5,Temporal=0.0; 
.................... float R10=6800; 
.................... float X[2]={0.0,0.0}; 
.................... float promediopresion=0.0,Aumento=0.0,promediopresionp=0.0; 
.................... int8 h=0,l=0,Ajuste=0,Ajusten=0,MediaMovil=20,PantallaPrincipal=0,TipoClave=0,Modulo=0,Digito=0,Tapertura=0,pulsosConfigurados=3; 
.................... float V0=0.0,Pt,Tciclo=10.0,Tpulso=0.0,error=0.0,Prom=0.0,Temperature=0.0,tmp=0.0,Ganancia=25.0,Ganancia2=20.0,desvio=1.0,tmp2=0.0; 
.................... float V1=0.0,Presion=0.0,V2=0.0,Presionp=0.0; 
.................... float Temperatura=0.0,Temperatura2=0.0,K=0.0012858; 
.................... float a=0.0011,b=2.3302,c=-244.0723; 
.................... int8 Integral=0,Derivativo=0,CicloLibre=0,TTrampa=85; 
....................  
.................... //Varios//-------------------------------- 
.................... int8 CantidadPulsos=4,NivelVacio=25,Pulsos=0,posicionDato=0,codigoAlarma=0; 
.................... int16 TiempoVacio=0,tguarda=0,tNivelBajo=0,Atmosferica=0; 
.................... short desfoguelento=0,Lectura=0,Grafica=0; 
.................... short disp_Stop=0,flagTC=0,flagImprime=0,flagImprimir=0; 
.................... int8 Control=0,tiemporecta=0,Controlando=0,ActivaImpresion=1,timpresion=2,CalculoImpresion=0,Inicio=1,Dato_Exitoso=0,Dato2=0,z=0; 
.................... int8 Menu=0, MenuAnt=0,MenuAntt=240,i=0,CiclosL=0,CiclosH=0,CicloSeleccionado=0; 
.................... int8 Setpoint=0,Opcion=1,Opcion2=1,tiempo_esterilizacion=0,tiempo_secado=0,tiempoImpresion=0,cicloVisto=0,cicloVisualizado=0,j=0,vacioTest=17,vacioCiclo=25; 
.................... int16 tiempos=0,tiempos2=0,tiempos3=0,tiempoctrl=0,Nivel=0,tinicio=0,PresionCamara=0,PresionPreCamara=0,Ciclos=0,NivelDesfogue=1; 
.................... int16 tbomba=0,tvacio=0; 
.................... signed int  Contrasena[4]={0,0,0,0};      // Contrasena de 4 digitos 
.................... signed int  Password[4]={0,0,0,0};        // Contrasena Almacenada de 4 digitos 
.................... int8 r=0,t=0,r22=0,t2=0,TiempoControl=0; 
.................... int8 y=0,ConteoBuzzer=0,codigoAnt=0,PulsoPositivo=10,PulsosVacio=0; 
.................... int16 tbuzzer=0,tsilencio=0,t_exhaust=0,NivelSeleccionado=0; 
.................... int8 Year=18,Mes=9,Dia=13,Hora=0,Minuto=0,Segundo=0,dow=0; 
.................... int8 YearTx=0,MesTx=0,DiaTx=0,HoraTx=0,MinutoTx=0,dowTx=0,SetTime=0,Imprime=0; 
.................... signed int8 G1=0,G2=0,sg1=0,sg2=0; 
.................... signed int16 presionManometrica=0; 
.................... //int8 iconoGrande[10]={25,16,22,24,23,28,20,46}; 
.................... //int8 iconoPeque[10]={34,36,18,33,32,38,19,17}; 
.................... int8 iconoGrande[11]={22,62,16,60,58,64,23,28,20,46,79}; 
.................... int8 iconoPeque[11]={18,61,36,59,57,63,32,38,19,17,78}; 
.................... //char const texto[11][20]={"NO ENVUELTO","ENVUELTO","LIQUIDOS A","LIQUIDOS B","BOWIE & DICK","TEST VACIO","LIBRE","TEST COMP.","HORA Y FECHA","CLAVE","DATOS"}; 
.................... char const texto[11][20]={"NO ENVUELTO","ENVUELTO","DEL. NO ENVUELTO","DEL. ENVUELTO","BOWIE & DICK","TEST VACIO","LIBRE","TEST COMP.","HORA Y FECHA","CLAVE","DATOS"}; 
.................... float TCiclos[7]; 
.................... int16 PcCiclos[7]; 
.................... int16 PpcCiclos[7]; 
.................... int8 horaCiclos[7]; 
.................... int8 minutoCiclos[7]; 
.................... int8 ACiclos[7]; 
.................... int8 diaCiclos=0,mesCiclos=0,yearCiclos=0,usuarioCiclos=0,cicloCiclos=0; 
....................  
.................... typedef struct{ 
....................    int8 Temperatura; 
....................    int8 MinutoestH; 
....................    int8 MinutoestL; 
....................    int8 Segundoest; 
....................    int8 Minutosec; 
....................    int8 Segundosec; 
....................    int8 PulsosVacio; 
....................    int8 NivelVacio; 
....................    int8 NivelDesfogue; 
....................    int8 Minutoest; 
.................... }Personalizado; 
....................  
.................... typedef struct{ 
....................    float BN; 
....................    float AN; 
....................    float V0; 
....................    float Pt; 
....................    float RPT100; 
....................    int8 l; 
....................    int8 h; 
....................    float Prom; 
....................    float Temperature; 
....................    int8 Ajuste; 
....................    int8 Ajusten; 
....................    float ajp,ajn; 
....................    float promedio[80]; 
....................    float Gain; 
.................... }SensorPT100; 
....................  
.................... SensorPT100 Sensor[2]; 
....................  
.................... Personalizado CiclosPersonalizados[4]; 
....................  
.................... #include "Funciones.h" 
.................... void BorraBuffer(void){ 
.................... RX_Buffer[0]=0; 
*
061BE:  CLRF   30
.................... RX_Buffer[1]=0; 
061C0:  CLRF   31
.................... RX_Buffer[2]=0; 
061C2:  CLRF   32
.................... RX_Buffer[3]=0; 
061C4:  CLRF   33
.................... RX_Buffer[4]=0; 
061C6:  CLRF   34
.................... RX_Buffer[5]=0; 
061C8:  CLRF   35
.................... RX_Buffer[6]=0; 
061CA:  CLRF   36
.................... RX_Buffer[7]=0; 
061CC:  CLRF   37
.................... RX_Buffer[8]=0; 
061CE:  CLRF   38
.................... RX_Buffer[9]=0; 
061D0:  CLRF   39
....................  
.................... RX_Buffer2[0]=0; 
061D2:  CLRF   3B
.................... RX_Buffer2[1]=0; 
061D4:  CLRF   3C
.................... RX_Buffer2[2]=0; 
061D6:  CLRF   3D
.................... RX_Buffer2[3]=0; 
061D8:  CLRF   3E
.................... RX_Buffer2[4]=0; 
061DA:  CLRF   3F
.................... RX_Buffer2[5]=0; 
061DC:  CLRF   40
.................... RX_Buffer2[6]=0; 
061DE:  CLRF   41
.................... RX_Buffer2[7]=0; 
061E0:  CLRF   42
.................... RX_Buffer2[8]=0; 
061E2:  CLRF   43
.................... RX_Buffer2[9]=0; 
061E4:  CLRF   44
....................  
.................... } 
061E6:  GOTO   62F6 (RETURN)
....................  
.................... char bgetc(void){ 
....................    char c; 
....................    while(RX_Counter==0) 
....................       ; 
....................    c=Rx_Buffer2[RX_Rd_Index]; 
....................    if(++RX_Rd_Index>RX_BUFFER_SIZE) 
....................       RX_Rd_Index=0; 
....................    if(RX_Counter) 
....................       RX_Counter--; 
....................    return c; 
.................... } 
....................  
.................... void bputc(char c){ 
....................    char restart=0; 
....................    while(TX_Counter> (TX_BUFFER_SIZE-1)) 
....................       ; 
....................    if(TX_Counter==0) 
....................       restart=1; 
....................    TX_Buffer[TX_Wr_Index++]=c; 
....................    if(TX_Wr_Index>TX_BUFFER_SIZE) 
....................       TX_Wr_Index=0; 
....................     
....................    TX_Counter++; 
....................     
....................    if(restart==1) 
....................       enable_interrupts(int_tbe); 
.................... } 
....................  
.................... void SendDataDisplay(void){ 
.................... delay_us(10); 
*
0456A:  MOVLW  10
0456C:  MOVWF  00
0456E:  DECFSZ 00,F
04570:  BRA    456E
04572:  NOP   
.................... putc(0xFF); 
04574:  MOVLW  FF
04576:  RCALL  4562
.................... delay_us(10); 
04578:  MOVLW  10
0457A:  MOVWF  00
0457C:  DECFSZ 00,F
0457E:  BRA    457C
04580:  NOP   
.................... putc(0xFF); 
04582:  MOVLW  FF
04584:  RCALL  4562
.................... delay_us(10); 
04586:  MOVLW  10
04588:  MOVWF  00
0458A:  DECFSZ 00,F
0458C:  BRA    458A
0458E:  NOP   
.................... putc(0xFF); 
04590:  MOVLW  FF
04592:  RCALL  4562
.................... delay_us(10); 
04594:  MOVLW  10
04596:  MOVWF  00
04598:  DECFSZ 00,F
0459A:  BRA    4598
0459C:  NOP   
.................... } 
0459E:  RETLW  00
....................  
.................... short esBisiesto(int8 year) { 
....................      return ((year % 4 == 0 && year % 100 != 0) || year % 400 == 0); 
*
06FDE:  MOVLB  7
06FE0:  MOVF   x08,W
06FE2:  ANDLW  03
06FE4:  BNZ   6FFA
06FE6:  MOVFF  708,711
06FEA:  MOVLW  64
06FEC:  MOVWF  x12
06FEE:  MOVLB  0
06FF0:  CALL   62FE
06FF4:  MOVF   00,F
06FF6:  BNZ   7028
06FF8:  MOVLB  7
06FFA:  CLRF   x1F
06FFC:  MOVFF  708,71E
07000:  MOVLW  01
07002:  MOVWF  x21
07004:  MOVLW  90
07006:  MOVWF  x20
07008:  MOVLB  0
0700A:  RCALL  68F6
0700C:  MOVFF  00,709
07010:  MOVLB  7
07012:  MOVFF  03,70A
07016:  MOVF   x09,F
07018:  BNZ   7024
0701A:  MOVF   x0A,F
0701C:  BTFSS  FD8.2
0701E:  BRA    7024
07020:  MOVLB  0
07022:  BRA    7028
07024:  MOVLW  00
07026:  BRA    702C
07028:  MOVLW  01
0702A:  MOVLB  7
0702C:  MOVWF  01
.................... } 
0702E:  MOVLB  0
07030:  RETLW  00
....................  
.................... void LimitaDia(){ 
....................    if(MesTx>12) 
*
07120:  MOVLB  3
07122:  MOVF   x93,W
07124:  SUBLW  0C
07126:  BC    712C
....................       MesTx=10; 
07128:  MOVLW  0A
0712A:  MOVWF  x93
....................    if(DiaTx>31) 
0712C:  MOVF   x94,W
0712E:  SUBLW  1F
07130:  BC    7136
....................       DiaTx=16; 
07132:  MOVLW  10
07134:  MOVWF  x94
....................    if(YearTx>99) 
07136:  MOVF   x92,W
07138:  SUBLW  63
0713A:  BC    7140
....................       YearTx=18;    
0713C:  MOVLW  12
0713E:  MOVWF  x92
....................    if(HoraTx>24) 
07140:  MOVF   x95,W
07142:  SUBLW  18
07144:  BC    714A
....................       HoraTx=11;       
07146:  MOVLW  0B
07148:  MOVWF  x95
....................    if(MinutoTx>59) 
0714A:  MOVF   x96,W
0714C:  SUBLW  3B
0714E:  BC    7154
....................       MinutoTx=30;       
07150:  MOVLW  1E
07152:  MOVWF  x96
....................     
....................       if(MesTx==2){ 
07154:  MOVF   x93,W
07156:  SUBLW  02
07158:  BNZ   7184
....................          if(esBisiesto(YearTx)){ 
0715A:  MOVFF  392,708
0715E:  MOVLB  0
07160:  RCALL  6FDE
07162:  MOVF   01,F
07164:  BZ    7176
....................             if(DiaTx>29){ 
07166:  MOVLB  3
07168:  MOVF   x94,W
0716A:  SUBLW  1D
0716C:  BC    7172
....................                DiaTx=29; 
0716E:  MOVLW  1D
07170:  MOVWF  x94
....................             } 
....................          }else{ 
07172:  BRA    7182
07174:  MOVLB  0
....................             if(DiaTx>28){ 
07176:  MOVLB  3
07178:  MOVF   x94,W
0717A:  SUBLW  1C
0717C:  BC    7182
....................                DiaTx=28; 
0717E:  MOVLW  1C
07180:  MOVWF  x94
....................             } 
....................          } 
....................       }else{ 
07182:  BRA    71AE
....................          if(MesTx<=7){ 
07184:  MOVF   x93,W
07186:  SUBLW  07
07188:  BNC   719C
....................             if(MesTx % 2 ==0){ 
0718A:  MOVF   x93,W
0718C:  ANDLW  01
0718E:  BNZ   719A
....................                if(DiaTx>30){ 
07190:  MOVF   x94,W
07192:  SUBLW  1E
07194:  BC    719A
....................                   DiaTx=30;                    
07196:  MOVLW  1E
07198:  MOVWF  x94
....................                } 
....................             } 
....................          }else{ 
0719A:  BRA    71AE
....................             if(MesTx % 2 ==1){ 
0719C:  MOVF   x93,W
0719E:  ANDLW  01
071A0:  SUBLW  01
071A2:  BNZ   71AE
....................                if(DiaTx>30){ 
071A4:  MOVF   x94,W
071A6:  SUBLW  1E
071A8:  BC    71AE
....................                   DiaTx=30;  
071AA:  MOVLW  1E
071AC:  MOVWF  x94
....................                } 
....................             } 
....................          } 
....................       } 
.................... } 
071AE:  MOVLB  0
071B0:  GOTO   13848 (RETURN)
....................  
.................... void ActualizaRecta(){ 
....................    X[y]=Temperature; 
*
08908:  MOVLB  3
0890A:  MOVF   x7E,W
0890C:  MULLW  04
0890E:  MOVF   FF3,W
08910:  CLRF   03
08912:  ADDLW  B4
08914:  MOVWF  FE9
08916:  MOVLW  02
08918:  ADDWFC 03,W
0891A:  MOVWF  FEA
0891C:  MOVFF  2EB,FEF
08920:  MOVFF  2EC,FEC
08924:  MOVFF  2ED,FEC
08928:  MOVFF  2EE,FEC
....................    y++; 
0892C:  INCF   x7E,F
....................    if(y>=2){ 
0892E:  MOVF   x7E,W
08930:  SUBLW  01
08932:  BC    8970
....................       y=0; 
08934:  CLRF   x7E
....................       Aumento=X[1]-X[0]; 
08936:  BSF    FD8.1
08938:  MOVFF  2BB,71D
0893C:  MOVFF  2BA,71C
08940:  MOVFF  2B9,71B
08944:  MOVFF  2B8,71A
08948:  MOVFF  2B7,721
0894C:  MOVFF  2B6,720
08950:  MOVFF  2B5,71F
08954:  MOVFF  2B4,71E
08958:  MOVLB  0
0895A:  CALL   221C
0895E:  MOVFF  03,2C3
08962:  MOVFF  02,2C2
08966:  MOVFF  01,2C1
0896A:  MOVFF  00,2C0
0896E:  MOVLB  3
....................    } 
.................... } 
08970:  MOVLB  0
08972:  GOTO   89EE (RETURN)
....................  
.................... // Funcion para conversor analogo-digital 
.................... float sensores(int x){ 
.................... float y;set_adc_channel(x);delay_ms(1);y=read_adc();return (y); 
*
045D0:  MOVLB  7
045D2:  RLCF   x0E,W
045D4:  MOVWF  00
045D6:  RLCF   00,F
045D8:  MOVLW  FC
045DA:  ANDWF  00,F
045DC:  MOVFF  00,01
045E0:  MOVF   FC2,W
045E2:  ANDLW  C3
045E4:  IORWF  00,W
045E6:  MOVWF  FC2
045E8:  MOVLW  01
045EA:  MOVWF  x1E
045EC:  MOVLB  0
045EE:  CALL   2060
045F2:  BSF    FC2.1
045F4:  BTFSC  FC2.1
045F6:  BRA    45F4
045F8:  MOVFF  FC4,71B
045FC:  MOVFF  FC3,71A
04600:  MOVLB  0
04602:  CALL   2088
04606:  MOVFF  03,712
0460A:  MOVFF  02,711
0460E:  MOVFF  01,710
04612:  MOVFF  00,70F
04616:  MOVFF  70F,00
0461A:  MOVFF  710,01
0461E:  MOVFF  711,02
04622:  MOVFF  712,03
.................... } 
04626:  RETLW  00
....................  
.................... float LeerPT100(int8 canal,int media) 
.................... { 
....................    Prom=0.0;  
*
0471E:  MOVLB  2
04720:  CLRF   xEA
04722:  CLRF   xE9
04724:  CLRF   xE8
04726:  CLRF   xE7
....................    Sensor[canal].V0 = sensores(canal);   //Lectura de Divisor de Voltaje de PT100 con resistencia de 6.18k (+-2%) 
04728:  MOVLB  7
0472A:  CLRF   x1F
0472C:  MOVFF  70A,71E
04730:  MOVLW  01
04732:  MOVWF  x21
04734:  MOVLW  6C
04736:  MOVWF  x20
04738:  MOVLB  0
0473A:  CALL   2494
0473E:  MOVFF  01,70C
04742:  MOVLW  08
04744:  MOVLB  7
04746:  ADDWF  01,W
04748:  MOVWF  01
0474A:  MOVLW  00
0474C:  ADDWFC 02,W
0474E:  MOVWF  03
04750:  MOVF   01,W
04752:  ADDLW  08
04754:  MOVWF  01
04756:  MOVLW  04
04758:  ADDWFC 03,F
0475A:  MOVFF  01,70C
0475E:  MOVFF  03,70D
04762:  MOVFF  70A,70E
04766:  MOVLB  0
04768:  RCALL  45D0
0476A:  MOVFF  70D,FEA
0476E:  MOVFF  70C,FE9
04772:  MOVFF  00,FEF
04776:  MOVFF  01,FEC
0477A:  MOVFF  02,FEC
0477E:  MOVFF  03,FEC
....................    Sensor[canal].V0 = Sensor[canal].V0/Sensor[canal].Gain; // Se elimina la ganancia 
04782:  MOVLB  7
04784:  CLRF   x1F
04786:  MOVFF  70A,71E
0478A:  MOVLW  01
0478C:  MOVWF  x21
0478E:  MOVLW  6C
04790:  MOVWF  x20
04792:  MOVLB  0
04794:  CALL   2494
04798:  MOVFF  01,70C
0479C:  MOVLW  08
0479E:  MOVLB  7
047A0:  ADDWF  01,W
047A2:  MOVWF  01
047A4:  MOVLW  00
047A6:  ADDWFC 02,W
047A8:  MOVWF  03
047AA:  MOVF   01,W
047AC:  ADDLW  08
047AE:  MOVWF  01
047B0:  MOVLW  04
047B2:  ADDWFC 03,F
047B4:  MOVFF  01,70C
047B8:  MOVFF  03,70D
047BC:  CLRF   x1F
047BE:  MOVFF  70A,71E
047C2:  MOVLW  01
047C4:  MOVWF  x21
047C6:  MOVLW  6C
047C8:  MOVWF  x20
047CA:  MOVLB  0
047CC:  CALL   2494
047D0:  MOVFF  01,70E
047D4:  MOVLW  08
047D6:  MOVLB  7
047D8:  ADDWF  01,W
047DA:  MOVWF  01
047DC:  MOVLW  00
047DE:  ADDWFC 02,W
047E0:  MOVWF  03
047E2:  MOVF   01,W
047E4:  ADDLW  08
047E6:  MOVWF  FE9
047E8:  MOVLW  04
047EA:  ADDWFC 03,W
047EC:  MOVWF  FEA
047EE:  MOVFF  FEF,70E
047F2:  MOVFF  FEC,70F
047F6:  MOVFF  FEC,710
047FA:  MOVFF  FEC,711
047FE:  CLRF   x1F
04800:  MOVFF  70A,71E
04804:  MOVLW  01
04806:  MOVWF  x21
04808:  MOVLW  6C
0480A:  MOVWF  x20
0480C:  MOVLB  0
0480E:  CALL   2494
04812:  MOVFF  02,713
04816:  MOVFF  01,712
0481A:  MOVLW  68
0481C:  MOVLB  7
0481E:  ADDWF  01,W
04820:  MOVWF  01
04822:  MOVLW  01
04824:  ADDWFC 02,W
04826:  MOVWF  03
04828:  MOVF   01,W
0482A:  ADDLW  08
0482C:  MOVWF  FE9
0482E:  MOVLW  04
04830:  ADDWFC 03,W
04832:  MOVWF  FEA
04834:  MOVFF  FEF,00
04838:  MOVFF  FEC,01
0483C:  MOVFF  FEC,02
04840:  MOVFF  FEC,03
04844:  MOVFF  711,717
04848:  MOVFF  710,716
0484C:  MOVFF  70F,715
04850:  MOVFF  70E,714
04854:  MOVFF  03,71B
04858:  MOVFF  02,71A
0485C:  MOVFF  01,719
04860:  MOVFF  00,718
04864:  MOVLB  0
04866:  CALL   20BE
0486A:  MOVFF  70D,FEA
0486E:  MOVFF  70C,FE9
04872:  MOVFF  00,FEF
04876:  MOVFF  01,FEC
0487A:  MOVFF  02,FEC
0487E:  MOVFF  03,FEC
....................    Sensor[canal].V0 = Sensor[canal].V0+14.78; // Se suma voltaje de divisor fijo 
04882:  MOVLB  7
04884:  CLRF   x1F
04886:  MOVFF  70A,71E
0488A:  MOVLW  01
0488C:  MOVWF  x21
0488E:  MOVLW  6C
04890:  MOVWF  x20
04892:  MOVLB  0
04894:  CALL   2494
04898:  MOVFF  01,70C
0489C:  MOVLW  08
0489E:  MOVLB  7
048A0:  ADDWF  01,W
048A2:  MOVWF  01
048A4:  MOVLW  00
048A6:  ADDWFC 02,W
048A8:  MOVWF  03
048AA:  MOVF   01,W
048AC:  ADDLW  08
048AE:  MOVWF  01
048B0:  MOVLW  04
048B2:  ADDWFC 03,F
048B4:  MOVFF  01,70C
048B8:  MOVFF  03,70D
048BC:  CLRF   x1F
048BE:  MOVFF  70A,71E
048C2:  MOVLW  01
048C4:  MOVWF  x21
048C6:  MOVLW  6C
048C8:  MOVWF  x20
048CA:  MOVLB  0
048CC:  CALL   2494
048D0:  MOVFF  01,70E
048D4:  MOVLW  08
048D6:  MOVLB  7
048D8:  ADDWF  01,W
048DA:  MOVWF  01
048DC:  MOVLW  00
048DE:  ADDWFC 02,W
048E0:  MOVWF  03
048E2:  MOVF   01,W
048E4:  ADDLW  08
048E6:  MOVWF  FE9
048E8:  MOVLW  04
048EA:  ADDWFC 03,W
048EC:  MOVWF  FEA
048EE:  MOVFF  FEF,70E
048F2:  MOVFF  FEC,70F
048F6:  MOVFF  FEC,710
048FA:  MOVFF  FEC,711
048FE:  MOVFF  FEA,713
04902:  MOVFF  FE9,712
04906:  BCF    FD8.1
04908:  MOVFF  711,71D
0490C:  MOVFF  710,71C
04910:  MOVFF  70F,71B
04914:  MOVFF  70E,71A
04918:  MOVLW  E1
0491A:  MOVWF  x21
0491C:  MOVLW  7A
0491E:  MOVWF  x20
04920:  MOVLW  6C
04922:  MOVWF  x1F
04924:  MOVLW  82
04926:  MOVWF  x1E
04928:  MOVLB  0
0492A:  CALL   221C
0492E:  MOVFF  713,FEA
04932:  MOVFF  712,FE9
04936:  MOVFF  70D,FEA
0493A:  MOVFF  70C,FE9
0493E:  MOVFF  00,FEF
04942:  MOVFF  01,FEC
04946:  MOVFF  02,FEC
0494A:  MOVFF  03,FEC
....................    //Sensor[canal].BN=(Sensor[canal].V0*(R8+R9))+(1023*R9); 
....................    Sensor[canal].Pt = R10/((1023/Sensor[canal].V0)-1); 
0494E:  MOVLB  7
04950:  CLRF   x1F
04952:  MOVFF  70A,71E
04956:  MOVLW  01
04958:  MOVWF  x21
0495A:  MOVLW  6C
0495C:  MOVWF  x20
0495E:  MOVLB  0
04960:  CALL   2494
04964:  MOVFF  01,70C
04968:  MOVLW  0C
0496A:  MOVLB  7
0496C:  ADDWF  01,W
0496E:  MOVWF  01
04970:  MOVLW  00
04972:  ADDWFC 02,W
04974:  MOVWF  03
04976:  MOVF   01,W
04978:  ADDLW  08
0497A:  MOVWF  01
0497C:  MOVLW  04
0497E:  ADDWFC 03,F
04980:  MOVFF  01,70C
04984:  MOVFF  03,70D
04988:  CLRF   x1F
0498A:  MOVFF  70A,71E
0498E:  MOVLW  01
04990:  MOVWF  x21
04992:  MOVLW  6C
04994:  MOVWF  x20
04996:  MOVLB  0
04998:  CALL   2494
0499C:  MOVFF  02,70F
049A0:  MOVFF  01,70E
049A4:  MOVLW  08
049A6:  MOVLB  7
049A8:  ADDWF  01,W
049AA:  MOVWF  01
049AC:  MOVLW  00
049AE:  ADDWFC 02,W
049B0:  MOVWF  03
049B2:  MOVF   01,W
049B4:  ADDLW  08
049B6:  MOVWF  FE9
049B8:  MOVLW  04
049BA:  ADDWFC 03,W
049BC:  MOVWF  FEA
049BE:  MOVFF  FEF,00
049C2:  MOVFF  FEC,01
049C6:  MOVFF  FEC,02
049CA:  MOVFF  FEC,03
049CE:  CLRF   x17
049D0:  MOVLW  C0
049D2:  MOVWF  x16
049D4:  MOVLW  7F
049D6:  MOVWF  x15
049D8:  MOVLW  88
049DA:  MOVWF  x14
049DC:  MOVFF  03,71B
049E0:  MOVFF  02,71A
049E4:  MOVFF  01,719
049E8:  MOVFF  00,718
049EC:  MOVLB  0
049EE:  CALL   20BE
049F2:  MOVFF  00,70E
049F6:  MOVFF  01,70F
049FA:  MOVFF  02,710
049FE:  MOVFF  03,711
04A02:  MOVFF  FEA,713
04A06:  MOVFF  FE9,712
04A0A:  BSF    FD8.1
04A0C:  MOVFF  03,71D
04A10:  MOVFF  02,71C
04A14:  MOVFF  01,71B
04A18:  MOVFF  00,71A
04A1C:  MOVLB  7
04A1E:  CLRF   x21
04A20:  CLRF   x20
04A22:  CLRF   x1F
04A24:  MOVLW  7F
04A26:  MOVWF  x1E
04A28:  MOVLB  0
04A2A:  CALL   221C
04A2E:  MOVFF  713,FEA
04A32:  MOVFF  712,FE9
04A36:  MOVFF  2B3,717
04A3A:  MOVFF  2B2,716
04A3E:  MOVFF  2B1,715
04A42:  MOVFF  2B0,714
04A46:  MOVFF  03,71B
04A4A:  MOVFF  02,71A
04A4E:  MOVFF  01,719
04A52:  MOVFF  00,718
04A56:  CALL   20BE
04A5A:  MOVFF  70D,FEA
04A5E:  MOVFF  70C,FE9
04A62:  MOVFF  00,FEF
04A66:  MOVFF  01,FEC
04A6A:  MOVFF  02,FEC
04A6E:  MOVFF  03,FEC
....................    //Sensor[canal].Pt=Sensor[canal].Pt-Sensor[canal].RPT100; //Ajuste de impedancia de cableado de PT100    
....................              
....................    if(Sensor[canal].l>(media-1)) 
04A72:  MOVLB  7
04A74:  CLRF   x1F
04A76:  MOVFF  70A,71E
04A7A:  MOVLW  01
04A7C:  MOVWF  x21
04A7E:  MOVLW  6C
04A80:  MOVWF  x20
04A82:  MOVLB  0
04A84:  CALL   2494
04A88:  MOVFF  02,70D
04A8C:  MOVFF  01,70C
04A90:  MOVLW  14
04A92:  MOVLB  7
04A94:  ADDWF  01,W
04A96:  MOVWF  01
04A98:  MOVLW  00
04A9A:  ADDWFC 02,W
04A9C:  MOVWF  03
04A9E:  MOVF   01,W
04AA0:  ADDLW  08
04AA2:  MOVWF  FE9
04AA4:  MOVLW  04
04AA6:  ADDWFC 03,W
04AA8:  MOVWF  FEA
04AAA:  MOVFF  FEF,70C
04AAE:  MOVLW  01
04AB0:  SUBWF  x0B,W
04AB2:  SUBWF  x0C,W
04AB4:  BZ    4AEC
04AB6:  BNC   4AEC
....................    {Sensor[canal].l=0;} 
04AB8:  CLRF   x1F
04ABA:  MOVFF  70A,71E
04ABE:  MOVLW  01
04AC0:  MOVWF  x21
04AC2:  MOVLW  6C
04AC4:  MOVWF  x20
04AC6:  MOVLB  0
04AC8:  CALL   2494
04ACC:  MOVFF  01,70C
04AD0:  MOVLW  14
04AD2:  MOVLB  7
04AD4:  ADDWF  01,W
04AD6:  MOVWF  01
04AD8:  MOVLW  00
04ADA:  ADDWFC 02,W
04ADC:  MOVWF  03
04ADE:  MOVF   01,W
04AE0:  ADDLW  08
04AE2:  MOVWF  FE9
04AE4:  MOVLW  04
04AE6:  ADDWFC 03,W
04AE8:  MOVWF  FEA
04AEA:  CLRF   FEF
....................     
....................    Sensor[canal].promedio[Sensor[canal].l]=Sensor[canal].Pt;Sensor[canal].l++; 
04AEC:  CLRF   x1F
04AEE:  MOVFF  70A,71E
04AF2:  MOVLW  01
04AF4:  MOVWF  x21
04AF6:  MOVLW  6C
04AF8:  MOVWF  x20
04AFA:  MOVLB  0
04AFC:  CALL   2494
04B00:  MOVFF  02,70D
04B04:  MOVFF  01,70C
04B08:  MOVLW  28
04B0A:  MOVLB  7
04B0C:  ADDWF  x0C,F
04B0E:  MOVLW  00
04B10:  ADDWFC x0D,F
04B12:  CLRF   x1F
04B14:  MOVFF  70A,71E
04B18:  MOVLW  01
04B1A:  MOVWF  x21
04B1C:  MOVLW  6C
04B1E:  MOVWF  x20
04B20:  MOVLB  0
04B22:  CALL   2494
04B26:  MOVFF  02,70F
04B2A:  MOVFF  01,70E
04B2E:  MOVLW  14
04B30:  MOVLB  7
04B32:  ADDWF  01,W
04B34:  MOVWF  01
04B36:  MOVLW  00
04B38:  ADDWFC 02,W
04B3A:  MOVWF  03
04B3C:  MOVF   01,W
04B3E:  ADDLW  08
04B40:  MOVWF  FE9
04B42:  MOVLW  04
04B44:  ADDWFC 03,W
04B46:  MOVWF  FEA
04B48:  CLRF   x1F
04B4A:  MOVFF  FEF,71E
04B4E:  CLRF   x21
04B50:  MOVLW  04
04B52:  MOVWF  x20
04B54:  MOVLB  0
04B56:  CALL   2494
04B5A:  MOVFF  02,03
04B5E:  MOVF   01,W
04B60:  MOVLB  7
04B62:  ADDWF  x0C,W
04B64:  MOVWF  01
04B66:  MOVF   x0D,W
04B68:  ADDWFC 03,F
04B6A:  MOVF   01,W
04B6C:  ADDLW  08
04B6E:  MOVWF  01
04B70:  MOVLW  04
04B72:  ADDWFC 03,F
04B74:  MOVFF  01,70C
04B78:  MOVFF  03,70D
04B7C:  CLRF   x1F
04B7E:  MOVFF  70A,71E
04B82:  MOVLW  01
04B84:  MOVWF  x21
04B86:  MOVLW  6C
04B88:  MOVWF  x20
04B8A:  MOVLB  0
04B8C:  CALL   2494
04B90:  MOVFF  02,70F
04B94:  MOVFF  01,70E
04B98:  MOVLW  0C
04B9A:  MOVLB  7
04B9C:  ADDWF  01,W
04B9E:  MOVWF  01
04BA0:  MOVLW  00
04BA2:  ADDWFC 02,W
04BA4:  MOVWF  03
04BA6:  MOVF   01,W
04BA8:  ADDLW  08
04BAA:  MOVWF  FE9
04BAC:  MOVLW  04
04BAE:  ADDWFC 03,W
04BB0:  MOVWF  FEA
04BB2:  MOVFF  FEF,00
04BB6:  MOVFF  FEC,01
04BBA:  MOVFF  FEC,02
04BBE:  MOVFF  FEC,03
04BC2:  MOVFF  70D,FEA
04BC6:  MOVFF  70C,FE9
04BCA:  MOVFF  00,FEF
04BCE:  MOVFF  01,FEC
04BD2:  MOVFF  02,FEC
04BD6:  MOVFF  03,FEC
04BDA:  CLRF   x1F
04BDC:  MOVFF  70A,71E
04BE0:  MOVLW  01
04BE2:  MOVWF  x21
04BE4:  MOVLW  6C
04BE6:  MOVWF  x20
04BE8:  MOVLB  0
04BEA:  CALL   2494
04BEE:  MOVFF  01,70C
04BF2:  MOVLW  14
04BF4:  MOVLB  7
04BF6:  ADDWF  01,W
04BF8:  MOVWF  01
04BFA:  MOVLW  00
04BFC:  ADDWFC 02,W
04BFE:  MOVWF  03
04C00:  MOVF   01,W
04C02:  ADDLW  08
04C04:  MOVWF  FE9
04C06:  MOVLW  04
04C08:  ADDWFC 03,W
04C0A:  MOVWF  FEA
04C0C:  INCF   FEF,F
....................           
....................    for(Sensor[canal].h=0;Sensor[canal].h<media;Sensor[canal].h++) 
04C0E:  CLRF   x1F
04C10:  MOVFF  70A,71E
04C14:  MOVLW  01
04C16:  MOVWF  x21
04C18:  MOVLW  6C
04C1A:  MOVWF  x20
04C1C:  MOVLB  0
04C1E:  CALL   2494
04C22:  MOVFF  02,70D
04C26:  MOVFF  01,70C
04C2A:  MOVLW  15
04C2C:  MOVLB  7
04C2E:  ADDWF  01,W
04C30:  MOVWF  01
04C32:  MOVLW  00
04C34:  ADDWFC 02,W
04C36:  MOVWF  03
04C38:  MOVF   01,W
04C3A:  ADDLW  08
04C3C:  MOVWF  FE9
04C3E:  MOVLW  04
04C40:  ADDWFC 03,W
04C42:  MOVWF  FEA
04C44:  CLRF   FEF
04C46:  CLRF   x1F
04C48:  MOVFF  70A,71E
04C4C:  MOVLW  01
04C4E:  MOVWF  x21
04C50:  MOVLW  6C
04C52:  MOVWF  x20
04C54:  MOVLB  0
04C56:  CALL   2494
04C5A:  MOVFF  02,70D
04C5E:  MOVFF  01,70C
04C62:  MOVLW  15
04C64:  MOVLB  7
04C66:  ADDWF  01,W
04C68:  MOVWF  01
04C6A:  MOVLW  00
04C6C:  ADDWFC 02,W
04C6E:  MOVWF  03
04C70:  MOVF   01,W
04C72:  ADDLW  08
04C74:  MOVWF  FE9
04C76:  MOVLW  04
04C78:  ADDWFC 03,W
04C7A:  MOVWF  FEA
04C7C:  MOVF   x0B,W
04C7E:  SUBWF  FEF,W
04C80:  BTFSC  FD8.0
04C82:  BRA    4DA2
....................    { 
....................       Prom+=Sensor[canal].promedio[Sensor[canal].h]; 
04C84:  CLRF   x1F
04C86:  MOVFF  70A,71E
04C8A:  MOVLW  01
04C8C:  MOVWF  x21
04C8E:  MOVLW  6C
04C90:  MOVWF  x20
04C92:  MOVLB  0
04C94:  CALL   2494
04C98:  MOVFF  02,70D
04C9C:  MOVFF  01,70C
04CA0:  MOVLW  28
04CA2:  MOVLB  7
04CA4:  ADDWF  x0C,F
04CA6:  MOVLW  00
04CA8:  ADDWFC x0D,F
04CAA:  CLRF   x1F
04CAC:  MOVFF  70A,71E
04CB0:  MOVLW  01
04CB2:  MOVWF  x21
04CB4:  MOVLW  6C
04CB6:  MOVWF  x20
04CB8:  MOVLB  0
04CBA:  CALL   2494
04CBE:  MOVFF  02,70F
04CC2:  MOVFF  01,70E
04CC6:  MOVLW  15
04CC8:  MOVLB  7
04CCA:  ADDWF  01,W
04CCC:  MOVWF  01
04CCE:  MOVLW  00
04CD0:  ADDWFC 02,W
04CD2:  MOVWF  03
04CD4:  MOVF   01,W
04CD6:  ADDLW  08
04CD8:  MOVWF  FE9
04CDA:  MOVLW  04
04CDC:  ADDWFC 03,W
04CDE:  MOVWF  FEA
04CE0:  CLRF   x1F
04CE2:  MOVFF  FEF,71E
04CE6:  CLRF   x21
04CE8:  MOVLW  04
04CEA:  MOVWF  x20
04CEC:  MOVLB  0
04CEE:  CALL   2494
04CF2:  MOVFF  02,03
04CF6:  MOVF   01,W
04CF8:  MOVLB  7
04CFA:  ADDWF  x0C,W
04CFC:  MOVWF  01
04CFE:  MOVF   x0D,W
04D00:  ADDWFC 03,F
04D02:  MOVF   01,W
04D04:  ADDLW  08
04D06:  MOVWF  FE9
04D08:  MOVLW  04
04D0A:  ADDWFC 03,W
04D0C:  MOVWF  FEA
04D0E:  MOVFF  FEF,00
04D12:  MOVFF  FEC,01
04D16:  MOVFF  FEC,02
04D1A:  MOVFF  FEC,03
04D1E:  MOVFF  FEA,70D
04D22:  MOVFF  FE9,70C
04D26:  BCF    FD8.1
04D28:  MOVFF  2EA,71D
04D2C:  MOVFF  2E9,71C
04D30:  MOVFF  2E8,71B
04D34:  MOVFF  2E7,71A
04D38:  MOVFF  03,721
04D3C:  MOVFF  02,720
04D40:  MOVFF  01,71F
04D44:  MOVFF  00,71E
04D48:  MOVLB  0
04D4A:  CALL   221C
04D4E:  MOVFF  70D,FEA
04D52:  MOVFF  70C,FE9
04D56:  MOVFF  03,2EA
04D5A:  MOVFF  02,2E9
04D5E:  MOVFF  01,2E8
04D62:  MOVFF  00,2E7
....................    }  
04D66:  MOVLB  7
04D68:  CLRF   x1F
04D6A:  MOVFF  70A,71E
04D6E:  MOVLW  01
04D70:  MOVWF  x21
04D72:  MOVLW  6C
04D74:  MOVWF  x20
04D76:  MOVLB  0
04D78:  CALL   2494
04D7C:  MOVFF  02,70D
04D80:  MOVFF  01,70C
04D84:  MOVLW  15
04D86:  MOVLB  7
04D88:  ADDWF  01,W
04D8A:  MOVWF  01
04D8C:  MOVLW  00
04D8E:  ADDWFC 02,W
04D90:  MOVWF  03
04D92:  MOVF   01,W
04D94:  ADDLW  08
04D96:  MOVWF  FE9
04D98:  MOVLW  04
04D9A:  ADDWFC 03,W
04D9C:  MOVWF  FEA
04D9E:  INCF   FEF,F
04DA0:  BRA    4C46
....................    Prom=Prom/media;    
04DA2:  CLRF   x1B
04DA4:  MOVFF  70B,71A
04DA8:  MOVLB  0
04DAA:  CALL   2088
04DAE:  MOVFF  2EA,717
04DB2:  MOVFF  2E9,716
04DB6:  MOVFF  2E8,715
04DBA:  MOVFF  2E7,714
04DBE:  MOVFF  03,71B
04DC2:  MOVFF  02,71A
04DC6:  MOVFF  01,719
04DCA:  MOVFF  00,718
04DCE:  CALL   20BE
04DD2:  MOVFF  03,2EA
04DD6:  MOVFF  02,2E9
04DDA:  MOVFF  01,2E8
04DDE:  MOVFF  00,2E7
....................    //Temperature=(Prom-100.0)/(0.385);  // Ecuacin determinada por linealizacin en Matlab. Revisar este polinomio.   
....................    Temperature=((Prom*Prom)*a)+(Prom*b)+c;  // Ecuacin determinada por linealizacin en Matlab. Revisar este polinomio. 
04DE2:  MOVFF  2EA,721
04DE6:  MOVFF  2E9,720
04DEA:  MOVFF  2E8,71F
04DEE:  MOVFF  2E7,71E
04DF2:  MOVFF  2EA,725
04DF6:  MOVFF  2E9,724
04DFA:  MOVFF  2E8,723
04DFE:  MOVFF  2E7,722
04E02:  RCALL  4628
04E04:  MOVFF  00,70C
04E08:  MOVFF  01,70D
04E0C:  MOVFF  02,70E
04E10:  MOVFF  03,70F
04E14:  MOVFF  03,721
04E18:  MOVFF  02,720
04E1C:  MOVFF  01,71F
04E20:  MOVFF  00,71E
04E24:  MOVFF  322,725
04E28:  MOVFF  321,724
04E2C:  MOVFF  320,723
04E30:  MOVFF  31F,722
04E34:  CALL   4628
04E38:  MOVFF  00,70C
04E3C:  MOVFF  01,70D
04E40:  MOVFF  02,70E
04E44:  MOVFF  03,70F
04E48:  MOVFF  2EA,721
04E4C:  MOVFF  2E9,720
04E50:  MOVFF  2E8,71F
04E54:  MOVFF  2E7,71E
04E58:  MOVFF  326,725
04E5C:  MOVFF  325,724
04E60:  MOVFF  324,723
04E64:  MOVFF  323,722
04E68:  CALL   4628
04E6C:  BCF    FD8.1
04E6E:  MOVFF  70F,71D
04E72:  MOVFF  70E,71C
04E76:  MOVFF  70D,71B
04E7A:  MOVFF  70C,71A
04E7E:  MOVFF  03,721
04E82:  MOVFF  02,720
04E86:  MOVFF  01,71F
04E8A:  MOVFF  00,71E
04E8E:  CALL   221C
04E92:  MOVFF  00,70C
04E96:  MOVFF  01,70D
04E9A:  MOVFF  02,70E
04E9E:  MOVFF  03,70F
04EA2:  BCF    FD8.1
04EA4:  MOVFF  03,71D
04EA8:  MOVFF  02,71C
04EAC:  MOVFF  01,71B
04EB0:  MOVFF  00,71A
04EB4:  MOVFF  32A,721
04EB8:  MOVFF  329,720
04EBC:  MOVFF  328,71F
04EC0:  MOVFF  327,71E
04EC4:  CALL   221C
04EC8:  MOVFF  03,2EE
04ECC:  MOVFF  02,2ED
04ED0:  MOVFF  01,2EC
04ED4:  MOVFF  00,2EB
....................    Sensor[canal].ajp=(float)Sensor[canal].Ajuste/10.0; 
04ED8:  MOVLB  7
04EDA:  CLRF   x1F
04EDC:  MOVFF  70A,71E
04EE0:  MOVLW  01
04EE2:  MOVWF  x21
04EE4:  MOVLW  6C
04EE6:  MOVWF  x20
04EE8:  MOVLB  0
04EEA:  CALL   2494
04EEE:  MOVFF  01,70C
04EF2:  MOVLW  20
04EF4:  MOVLB  7
04EF6:  ADDWF  01,W
04EF8:  MOVWF  01
04EFA:  MOVLW  00
04EFC:  ADDWFC 02,W
04EFE:  MOVWF  03
04F00:  MOVF   01,W
04F02:  ADDLW  08
04F04:  MOVWF  01
04F06:  MOVLW  04
04F08:  ADDWFC 03,F
04F0A:  MOVFF  01,70C
04F0E:  MOVFF  03,70D
04F12:  CLRF   x1F
04F14:  MOVFF  70A,71E
04F18:  MOVLW  01
04F1A:  MOVWF  x21
04F1C:  MOVLW  6C
04F1E:  MOVWF  x20
04F20:  MOVLB  0
04F22:  CALL   2494
04F26:  MOVFF  02,70F
04F2A:  MOVFF  01,70E
04F2E:  MOVLW  1E
04F30:  MOVLB  7
04F32:  ADDWF  01,W
04F34:  MOVWF  01
04F36:  MOVLW  00
04F38:  ADDWFC 02,W
04F3A:  MOVWF  03
04F3C:  MOVF   01,W
04F3E:  ADDLW  08
04F40:  MOVWF  FE9
04F42:  MOVLW  04
04F44:  ADDWFC 03,W
04F46:  MOVWF  FEA
04F48:  MOVF   FEF,W
04F4A:  CLRF   x1B
04F4C:  MOVWF  x1A
04F4E:  MOVLB  0
04F50:  CALL   2088
04F54:  MOVFF  00,70E
04F58:  MOVFF  01,70F
04F5C:  MOVFF  02,710
04F60:  MOVFF  03,711
04F64:  MOVFF  03,717
04F68:  MOVFF  02,716
04F6C:  MOVFF  01,715
04F70:  MOVFF  00,714
04F74:  MOVLB  7
04F76:  CLRF   x1B
04F78:  CLRF   x1A
04F7A:  MOVLW  20
04F7C:  MOVWF  x19
04F7E:  MOVLW  82
04F80:  MOVWF  x18
04F82:  MOVLB  0
04F84:  CALL   20BE
04F88:  MOVFF  70D,FEA
04F8C:  MOVFF  70C,FE9
04F90:  MOVFF  00,FEF
04F94:  MOVFF  01,FEC
04F98:  MOVFF  02,FEC
04F9C:  MOVFF  03,FEC
....................    Sensor[canal].ajn=(float)Sensor[canal].Ajusten/10.0; 
04FA0:  MOVLB  7
04FA2:  CLRF   x1F
04FA4:  MOVFF  70A,71E
04FA8:  MOVLW  01
04FAA:  MOVWF  x21
04FAC:  MOVLW  6C
04FAE:  MOVWF  x20
04FB0:  MOVLB  0
04FB2:  CALL   2494
04FB6:  MOVFF  01,70C
04FBA:  MOVLW  24
04FBC:  MOVLB  7
04FBE:  ADDWF  01,W
04FC0:  MOVWF  01
04FC2:  MOVLW  00
04FC4:  ADDWFC 02,W
04FC6:  MOVWF  03
04FC8:  MOVF   01,W
04FCA:  ADDLW  08
04FCC:  MOVWF  01
04FCE:  MOVLW  04
04FD0:  ADDWFC 03,F
04FD2:  MOVFF  01,70C
04FD6:  MOVFF  03,70D
04FDA:  CLRF   x1F
04FDC:  MOVFF  70A,71E
04FE0:  MOVLW  01
04FE2:  MOVWF  x21
04FE4:  MOVLW  6C
04FE6:  MOVWF  x20
04FE8:  MOVLB  0
04FEA:  CALL   2494
04FEE:  MOVFF  02,70F
04FF2:  MOVFF  01,70E
04FF6:  MOVLW  1F
04FF8:  MOVLB  7
04FFA:  ADDWF  01,W
04FFC:  MOVWF  01
04FFE:  MOVLW  00
05000:  ADDWFC 02,W
05002:  MOVWF  03
05004:  MOVF   01,W
05006:  ADDLW  08
05008:  MOVWF  FE9
0500A:  MOVLW  04
0500C:  ADDWFC 03,W
0500E:  MOVWF  FEA
05010:  MOVF   FEF,W
05012:  CLRF   x1B
05014:  MOVWF  x1A
05016:  MOVLB  0
05018:  CALL   2088
0501C:  MOVFF  00,70E
05020:  MOVFF  01,70F
05024:  MOVFF  02,710
05028:  MOVFF  03,711
0502C:  MOVFF  03,717
05030:  MOVFF  02,716
05034:  MOVFF  01,715
05038:  MOVFF  00,714
0503C:  MOVLB  7
0503E:  CLRF   x1B
05040:  CLRF   x1A
05042:  MOVLW  20
05044:  MOVWF  x19
05046:  MOVLW  82
05048:  MOVWF  x18
0504A:  MOVLB  0
0504C:  CALL   20BE
05050:  MOVFF  70D,FEA
05054:  MOVFF  70C,FE9
05058:  MOVFF  00,FEF
0505C:  MOVFF  01,FEC
05060:  MOVFF  02,FEC
05064:  MOVFF  03,FEC
....................    Temperature+=(Sensor[canal].ajp-Sensor[canal].ajn); 
05068:  MOVLB  7
0506A:  CLRF   x1F
0506C:  MOVFF  70A,71E
05070:  MOVLW  01
05072:  MOVWF  x21
05074:  MOVLW  6C
05076:  MOVWF  x20
05078:  MOVLB  0
0507A:  CALL   2494
0507E:  MOVFF  01,70C
05082:  MOVLW  20
05084:  MOVLB  7
05086:  ADDWF  01,W
05088:  MOVWF  01
0508A:  MOVLW  00
0508C:  ADDWFC 02,W
0508E:  MOVWF  03
05090:  MOVF   01,W
05092:  ADDLW  08
05094:  MOVWF  FE9
05096:  MOVLW  04
05098:  ADDWFC 03,W
0509A:  MOVWF  FEA
0509C:  MOVFF  FEF,70C
050A0:  MOVFF  FEC,70D
050A4:  MOVFF  FEC,70E
050A8:  MOVFF  FEC,70F
050AC:  CLRF   x1F
050AE:  MOVFF  70A,71E
050B2:  MOVLW  01
050B4:  MOVWF  x21
050B6:  MOVLW  6C
050B8:  MOVWF  x20
050BA:  MOVLB  0
050BC:  CALL   2494
050C0:  MOVFF  02,711
050C4:  MOVFF  01,710
050C8:  MOVLW  24
050CA:  MOVLB  7
050CC:  ADDWF  01,W
050CE:  MOVWF  01
050D0:  MOVLW  00
050D2:  ADDWFC 02,W
050D4:  MOVWF  03
050D6:  MOVF   01,W
050D8:  ADDLW  08
050DA:  MOVWF  FE9
050DC:  MOVLW  04
050DE:  ADDWFC 03,W
050E0:  MOVWF  FEA
050E2:  MOVFF  FEF,00
050E6:  MOVFF  FEC,01
050EA:  MOVFF  FEC,02
050EE:  MOVFF  FEC,03
050F2:  MOVFF  FEA,711
050F6:  MOVFF  FE9,710
050FA:  BSF    FD8.1
050FC:  MOVFF  70F,71D
05100:  MOVFF  70E,71C
05104:  MOVFF  70D,71B
05108:  MOVFF  70C,71A
0510C:  MOVFF  03,721
05110:  MOVFF  02,720
05114:  MOVFF  01,71F
05118:  MOVFF  00,71E
0511C:  MOVLB  0
0511E:  CALL   221C
05122:  MOVFF  711,FEA
05126:  MOVFF  710,FE9
0512A:  MOVFF  FEA,70D
0512E:  MOVFF  FE9,70C
05132:  BCF    FD8.1
05134:  MOVFF  2EE,71D
05138:  MOVFF  2ED,71C
0513C:  MOVFF  2EC,71B
05140:  MOVFF  2EB,71A
05144:  MOVFF  03,721
05148:  MOVFF  02,720
0514C:  MOVFF  01,71F
05150:  MOVFF  00,71E
05154:  CALL   221C
05158:  MOVFF  70D,FEA
0515C:  MOVFF  70C,FE9
05160:  MOVFF  03,2EE
05164:  MOVFF  02,2ED
05168:  MOVFF  01,2EC
0516C:  MOVFF  00,2EB
....................     
....................    return Temperature; 
05170:  MOVFF  2EB,00
05174:  MOVFF  2EC,01
05178:  MOVFF  2ED,02
0517C:  MOVFF  2EE,03
.................... } 
05180:  RETLW  00
....................  
.................... float Leer_Sensor_Presion_Camara(int media){ 
....................    promediopresion=0.0; 
05182:  MOVLB  2
05184:  CLRF   xBF
05186:  CLRF   xBE
05188:  CLRF   xBD
0518A:  CLRF   xBC
....................    V1 = sensores(5);   //Lectura de Divisor de Voltaje de PT100 con resistencia de 1k (+-10%) 
0518C:  MOVLW  05
0518E:  MOVLB  7
05190:  MOVWF  x0E
05192:  MOVLB  0
05194:  CALL   45D0
05198:  MOVFF  03,306
0519C:  MOVFF  02,305
051A0:  MOVFF  01,304
051A4:  MOVFF  00,303
....................    //V1 = V1*(5.0/1024.0); 
....................    //Presion=(V1-0.2)/(K); 
....................    Presion=(((V1)/1023)-0.04)/K; 
051A8:  MOVFF  306,717
051AC:  MOVFF  305,716
051B0:  MOVFF  304,715
051B4:  MOVFF  303,714
051B8:  MOVLB  7
051BA:  CLRF   x1B
051BC:  MOVLW  C0
051BE:  MOVWF  x1A
051C0:  MOVLW  7F
051C2:  MOVWF  x19
051C4:  MOVLW  88
051C6:  MOVWF  x18
051C8:  MOVLB  0
051CA:  CALL   20BE
051CE:  MOVFF  00,70B
051D2:  MOVFF  01,70C
051D6:  MOVFF  02,70D
051DA:  MOVFF  03,70E
051DE:  BSF    FD8.1
051E0:  MOVFF  03,71D
051E4:  MOVFF  02,71C
051E8:  MOVFF  01,71B
051EC:  MOVFF  00,71A
051F0:  MOVLW  0A
051F2:  MOVLB  7
051F4:  MOVWF  x21
051F6:  MOVLW  D7
051F8:  MOVWF  x20
051FA:  MOVLW  23
051FC:  MOVWF  x1F
051FE:  MOVLW  7A
05200:  MOVWF  x1E
05202:  MOVLB  0
05204:  CALL   221C
05208:  MOVFF  00,70B
0520C:  MOVFF  01,70C
05210:  MOVFF  02,70D
05214:  MOVFF  03,70E
05218:  MOVFF  03,717
0521C:  MOVFF  02,716
05220:  MOVFF  01,715
05224:  MOVFF  00,714
05228:  MOVFF  31E,71B
0522C:  MOVFF  31D,71A
05230:  MOVFF  31C,719
05234:  MOVFF  31B,718
05238:  CALL   20BE
0523C:  MOVFF  03,30A
05240:  MOVFF  02,309
05244:  MOVFF  01,308
05248:  MOVFF  00,307
....................     
....................    if(Presion<0.0) 
0524C:  MOVFF  30A,711
05250:  MOVFF  309,710
05254:  MOVFF  308,70F
05258:  MOVFF  307,70E
0525C:  MOVLB  7
0525E:  CLRF   x15
05260:  CLRF   x14
05262:  CLRF   x13
05264:  CLRF   x12
05266:  MOVLB  0
05268:  CALL   2680
0526C:  BNC   5278
....................       Presion=0.0; 
0526E:  MOVLB  3
05270:  CLRF   x0A
05272:  CLRF   x09
05274:  CLRF   x08
05276:  CLRF   x07
....................     
....................    if(r>media-1) 
05278:  MOVLW  01
0527A:  MOVLB  7
0527C:  SUBWF  x0A,W
0527E:  MOVLB  3
05280:  SUBWF  x79,W
05282:  BZ    5288
05284:  BNC   5288
....................       r=0; 
05286:  CLRF   x79
....................    PromPresion[r]=Presion;r++; 
05288:  MOVF   x79,W
0528A:  MULLW  04
0528C:  MOVF   FF3,W
0528E:  CLRF   03
05290:  ADDLW  04
05292:  MOVWF  FE9
05294:  MOVLW  02
05296:  ADDWFC 03,W
05298:  MOVWF  FEA
0529A:  MOVFF  307,FEF
0529E:  MOVFF  308,FEC
052A2:  MOVFF  309,FEC
052A6:  MOVFF  30A,FEC
052AA:  INCF   x79,F
....................           
....................    for(t=0;t<=(media-1);t++) 
052AC:  CLRF   x7A
052AE:  MOVLW  01
052B0:  MOVLB  7
052B2:  SUBWF  x0A,W
052B4:  MOVLB  3
052B6:  SUBWF  x7A,W
052B8:  BZ    52BC
052BA:  BC    532C
....................       promediopresion+=PromPresion[t]; 
052BC:  MOVF   x7A,W
052BE:  MULLW  04
052C0:  MOVF   FF3,W
052C2:  CLRF   03
052C4:  ADDLW  04
052C6:  MOVWF  FE9
052C8:  MOVLW  02
052CA:  ADDWFC 03,W
052CC:  MOVWF  FEA
052CE:  MOVFF  FEF,00
052D2:  MOVFF  FEC,01
052D6:  MOVFF  FEC,02
052DA:  MOVFF  FEC,03
052DE:  MOVFF  FEA,70C
052E2:  MOVFF  FE9,70B
052E6:  BCF    FD8.1
052E8:  MOVFF  2BF,71D
052EC:  MOVFF  2BE,71C
052F0:  MOVFF  2BD,71B
052F4:  MOVFF  2BC,71A
052F8:  MOVFF  03,721
052FC:  MOVFF  02,720
05300:  MOVFF  01,71F
05304:  MOVFF  00,71E
05308:  MOVLB  0
0530A:  CALL   221C
0530E:  MOVFF  70C,FEA
05312:  MOVFF  70B,FE9
05316:  MOVFF  03,2BF
0531A:  MOVFF  02,2BE
0531E:  MOVFF  01,2BD
05322:  MOVFF  00,2BC
05326:  MOVLB  3
05328:  INCF   x7A,F
0532A:  BRA    52AE
....................      
....................    promediopresion=promediopresion/media;    
0532C:  MOVLB  7
0532E:  CLRF   x1B
05330:  MOVFF  70A,71A
05334:  MOVLB  0
05336:  CALL   2088
0533A:  MOVFF  2BF,717
0533E:  MOVFF  2BE,716
05342:  MOVFF  2BD,715
05346:  MOVFF  2BC,714
0534A:  MOVFF  03,71B
0534E:  MOVFF  02,71A
05352:  MOVFF  01,719
05356:  MOVFF  00,718
0535A:  CALL   20BE
0535E:  MOVFF  03,2BF
05362:  MOVFF  02,2BE
05366:  MOVFF  01,2BD
0536A:  MOVFF  00,2BC
....................     
....................    return promediopresion; 
0536E:  MOVFF  2BC,00
05372:  MOVFF  2BD,01
05376:  MOVFF  2BE,02
0537A:  MOVFF  2BF,03
.................... } 
0537E:  RETLW  00
....................  
.................... float Leer_Sensor_Presion_PreCamara(int media){ 
....................    promediopresionp=0.0; 
*
053BC:  MOVLB  2
053BE:  CLRF   xC7
053C0:  CLRF   xC6
053C2:  CLRF   xC5
053C4:  CLRF   xC4
....................    V2 = sensores(4);   //Lectura de Divisor de Voltaje de PT100 con resistencia de 1k (+-10%) 
053C6:  MOVLW  04
053C8:  MOVLB  7
053CA:  MOVWF  x0E
053CC:  MOVLB  0
053CE:  CALL   45D0
053D2:  MOVFF  03,30E
053D6:  MOVFF  02,30D
053DA:  MOVFF  01,30C
053DE:  MOVFF  00,30B
....................    //V2 = V2*(5.0/1024.0); 
....................    //Presionp=(V2-0.2)/(K); 
....................    Presionp=(((V2)/1023)-0.04)/K; 
053E2:  MOVFF  30E,717
053E6:  MOVFF  30D,716
053EA:  MOVFF  30C,715
053EE:  MOVFF  30B,714
053F2:  MOVLB  7
053F4:  CLRF   x1B
053F6:  MOVLW  C0
053F8:  MOVWF  x1A
053FA:  MOVLW  7F
053FC:  MOVWF  x19
053FE:  MOVLW  88
05400:  MOVWF  x18
05402:  MOVLB  0
05404:  CALL   20BE
05408:  MOVFF  00,70B
0540C:  MOVFF  01,70C
05410:  MOVFF  02,70D
05414:  MOVFF  03,70E
05418:  BSF    FD8.1
0541A:  MOVFF  03,71D
0541E:  MOVFF  02,71C
05422:  MOVFF  01,71B
05426:  MOVFF  00,71A
0542A:  MOVLW  0A
0542C:  MOVLB  7
0542E:  MOVWF  x21
05430:  MOVLW  D7
05432:  MOVWF  x20
05434:  MOVLW  23
05436:  MOVWF  x1F
05438:  MOVLW  7A
0543A:  MOVWF  x1E
0543C:  MOVLB  0
0543E:  CALL   221C
05442:  MOVFF  00,70B
05446:  MOVFF  01,70C
0544A:  MOVFF  02,70D
0544E:  MOVFF  03,70E
05452:  MOVFF  03,717
05456:  MOVFF  02,716
0545A:  MOVFF  01,715
0545E:  MOVFF  00,714
05462:  MOVFF  31E,71B
05466:  MOVFF  31D,71A
0546A:  MOVFF  31C,719
0546E:  MOVFF  31B,718
05472:  CALL   20BE
05476:  MOVFF  03,312
0547A:  MOVFF  02,311
0547E:  MOVFF  01,310
05482:  MOVFF  00,30F
....................     
....................    if(Presionp<0.0) 
05486:  MOVFF  312,711
0548A:  MOVFF  311,710
0548E:  MOVFF  310,70F
05492:  MOVFF  30F,70E
05496:  MOVLB  7
05498:  CLRF   x15
0549A:  CLRF   x14
0549C:  CLRF   x13
0549E:  CLRF   x12
054A0:  MOVLB  0
054A2:  CALL   2680
054A6:  BNC   54B2
....................       Presionp=0.0; 
054A8:  MOVLB  3
054AA:  CLRF   x12
054AC:  CLRF   x11
054AE:  CLRF   x10
054B0:  CLRF   x0F
....................     
....................    if(r22>media-1) 
054B2:  MOVLW  01
054B4:  MOVLB  7
054B6:  SUBWF  x0A,W
054B8:  MOVLB  3
054BA:  SUBWF  x7B,W
054BC:  BZ    54C2
054BE:  BNC   54C2
....................       r22=0; 
054C0:  CLRF   x7B
....................    PromPresionp[r22]=Presionp;r22++; 
054C2:  MOVF   x7B,W
054C4:  MULLW  04
054C6:  MOVF   FF3,W
054C8:  CLRF   03
054CA:  ADDLW  54
054CC:  MOVWF  FE9
054CE:  MOVLW  02
054D0:  ADDWFC 03,W
054D2:  MOVWF  FEA
054D4:  MOVFF  30F,FEF
054D8:  MOVFF  310,FEC
054DC:  MOVFF  311,FEC
054E0:  MOVFF  312,FEC
054E4:  INCF   x7B,F
....................           
....................    for(t2=0;t2<=(media-1);t2++) 
054E6:  CLRF   x7C
054E8:  MOVLW  01
054EA:  MOVLB  7
054EC:  SUBWF  x0A,W
054EE:  MOVLB  3
054F0:  SUBWF  x7C,W
054F2:  BZ    54F6
054F4:  BC    5566
....................       promediopresionp+=PromPresionp[t2];  
054F6:  MOVF   x7C,W
054F8:  MULLW  04
054FA:  MOVF   FF3,W
054FC:  CLRF   03
054FE:  ADDLW  54
05500:  MOVWF  FE9
05502:  MOVLW  02
05504:  ADDWFC 03,W
05506:  MOVWF  FEA
05508:  MOVFF  FEF,00
0550C:  MOVFF  FEC,01
05510:  MOVFF  FEC,02
05514:  MOVFF  FEC,03
05518:  MOVFF  FEA,70C
0551C:  MOVFF  FE9,70B
05520:  BCF    FD8.1
05522:  MOVFF  2C7,71D
05526:  MOVFF  2C6,71C
0552A:  MOVFF  2C5,71B
0552E:  MOVFF  2C4,71A
05532:  MOVFF  03,721
05536:  MOVFF  02,720
0553A:  MOVFF  01,71F
0553E:  MOVFF  00,71E
05542:  MOVLB  0
05544:  CALL   221C
05548:  MOVFF  70C,FEA
0554C:  MOVFF  70B,FE9
05550:  MOVFF  03,2C7
05554:  MOVFF  02,2C6
05558:  MOVFF  01,2C5
0555C:  MOVFF  00,2C4
05560:  MOVLB  3
05562:  INCF   x7C,F
05564:  BRA    54E8
....................        
....................    promediopresionp=promediopresionp/media;    
05566:  MOVLB  7
05568:  CLRF   x1B
0556A:  MOVFF  70A,71A
0556E:  MOVLB  0
05570:  CALL   2088
05574:  MOVFF  2C7,717
05578:  MOVFF  2C6,716
0557C:  MOVFF  2C5,715
05580:  MOVFF  2C4,714
05584:  MOVFF  03,71B
05588:  MOVFF  02,71A
0558C:  MOVFF  01,719
05590:  MOVFF  00,718
05594:  CALL   20BE
05598:  MOVFF  03,2C7
0559C:  MOVFF  02,2C6
055A0:  MOVFF  01,2C5
055A4:  MOVFF  00,2C4
....................     
....................    return promediopresionp; 
055A8:  MOVFF  2C4,00
055AC:  MOVFF  2C5,01
055B0:  MOVFF  2C6,02
055B4:  MOVFF  2C7,03
.................... } 
055B8:  RETLW  00
....................  
.................... void Controla(){ 
....................    if(tiemporecta>=Derivativo/2.0){ 
*
08976:  MOVLB  7
08978:  CLRF   x1B
0897A:  MOVFF  32C,71A
0897E:  MOVLB  0
08980:  CALL   2088
08984:  MOVFF  03,717
08988:  MOVFF  02,716
0898C:  MOVFF  01,715
08990:  MOVFF  00,714
08994:  MOVLB  7
08996:  CLRF   x1B
08998:  CLRF   x1A
0899A:  CLRF   x19
0899C:  MOVLW  80
0899E:  MOVWF  x18
089A0:  MOVLB  0
089A2:  CALL   20BE
089A6:  MOVFF  00,708
089AA:  MOVFF  01,709
089AE:  MOVFF  02,70A
089B2:  MOVFF  03,70B
089B6:  MOVLB  7
089B8:  CLRF   x1B
089BA:  MOVFF  33E,71A
089BE:  MOVLB  0
089C0:  CALL   2088
089C4:  MOVFF  70B,711
089C8:  MOVFF  70A,710
089CC:  MOVFF  709,70F
089D0:  MOVFF  708,70E
089D4:  MOVFF  03,715
089D8:  MOVFF  02,714
089DC:  MOVFF  01,713
089E0:  MOVFF  00,712
089E4:  CALL   2680
089E8:  BC    89EC
089EA:  BNZ   89F2
....................       ActualizaRecta(); 
089EC:  BRA    8908
....................       tiemporecta=0; 
089EE:  MOVLB  3
089F0:  CLRF   x3E
....................    }  
.................... //-------------------------------Control de Calentamiento------------------------------------------------------------//          
....................    error=desvio+Setpoint-Temperatura;      // Clculo del error ****** 
089F2:  MOVLB  7
089F4:  CLRF   x1B
089F6:  MOVFF  34E,71A
089FA:  MOVLB  0
089FC:  CALL   2088
08A00:  BCF    FD8.1
08A02:  MOVFF  2FE,71D
08A06:  MOVFF  2FD,71C
08A0A:  MOVFF  2FC,71B
08A0E:  MOVFF  2FB,71A
08A12:  MOVFF  03,721
08A16:  MOVFF  02,720
08A1A:  MOVFF  01,71F
08A1E:  MOVFF  00,71E
08A22:  CALL   221C
08A26:  MOVFF  00,708
08A2A:  MOVFF  01,709
08A2E:  MOVFF  02,70A
08A32:  MOVFF  03,70B
08A36:  BSF    FD8.1
08A38:  MOVFF  03,71D
08A3C:  MOVFF  02,71C
08A40:  MOVFF  01,71B
08A44:  MOVFF  00,71A
08A48:  MOVFF  316,721
08A4C:  MOVFF  315,720
08A50:  MOVFF  314,71F
08A54:  MOVFF  313,71E
08A58:  CALL   221C
08A5C:  MOVFF  03,2E6
08A60:  MOVFF  02,2E5
08A64:  MOVFF  01,2E4
08A68:  MOVFF  00,2E3
....................     
....................    if(error>1.0 && error<25 && Aumento<0.3){ 
08A6C:  MOVLB  7
08A6E:  CLRF   x11
08A70:  CLRF   x10
08A72:  CLRF   x0F
08A74:  MOVLW  7F
08A76:  MOVWF  x0E
08A78:  MOVFF  2E6,715
08A7C:  MOVFF  2E5,714
08A80:  MOVFF  2E4,713
08A84:  MOVFF  2E3,712
08A88:  MOVLB  0
08A8A:  CALL   2680
08A8E:  BTFSS  FD8.0
08A90:  BRA    8C6C
08A92:  MOVFF  2E6,711
08A96:  MOVFF  2E5,710
08A9A:  MOVFF  2E4,70F
08A9E:  MOVFF  2E3,70E
08AA2:  MOVLB  7
08AA4:  CLRF   x15
08AA6:  CLRF   x14
08AA8:  MOVLW  48
08AAA:  MOVWF  x13
08AAC:  MOVLW  83
08AAE:  MOVWF  x12
08AB0:  MOVLB  0
08AB2:  CALL   2680
08AB6:  BTFSS  FD8.0
08AB8:  BRA    8C6C
08ABA:  MOVFF  2C3,711
08ABE:  MOVFF  2C2,710
08AC2:  MOVFF  2C1,70F
08AC6:  MOVFF  2C0,70E
08ACA:  MOVLW  9A
08ACC:  MOVLB  7
08ACE:  MOVWF  x15
08AD0:  MOVLW  99
08AD2:  MOVWF  x14
08AD4:  MOVLW  19
08AD6:  MOVWF  x13
08AD8:  MOVLW  7D
08ADA:  MOVWF  x12
08ADC:  MOVLB  0
08ADE:  CALL   2680
08AE2:  BTFSS  FD8.0
08AE4:  BRA    8C6C
....................       if(Tpulso<7.0){ 
08AE6:  MOVFF  2E2,711
08AEA:  MOVFF  2E1,710
08AEE:  MOVFF  2E0,70F
08AF2:  MOVFF  2DF,70E
08AF6:  MOVLB  7
08AF8:  CLRF   x15
08AFA:  CLRF   x14
08AFC:  MOVLW  60
08AFE:  MOVWF  x13
08B00:  MOVLW  81
08B02:  MOVWF  x12
08B04:  MOVLB  0
08B06:  CALL   2680
08B0A:  BTFSS  FD8.0
08B0C:  BRA    8C68
....................          flagTC=1; 
08B0E:  MOVLB  3
08B10:  BSF    x3C.3
....................          if(TiempoControl>=Derivativo){ 
08B12:  MOVF   x2C,W
08B14:  SUBWF  x7D,W
08B16:  BTFSS  FD8.0
08B18:  BRA    8C64
....................             TiempoControl=0; 
08B1A:  CLRF   x7D
....................             if(Aumento<-0.5){ 
08B1C:  MOVFF  2C3,711
08B20:  MOVFF  2C2,710
08B24:  MOVFF  2C1,70F
08B28:  MOVFF  2C0,70E
08B2C:  MOVLB  7
08B2E:  CLRF   x15
08B30:  CLRF   x14
08B32:  MOVLW  80
08B34:  MOVWF  x13
08B36:  MOVLW  7E
08B38:  MOVWF  x12
08B3A:  MOVLB  0
08B3C:  CALL   2680
08B40:  BNC   8B8C
....................                Ganancia+=Integral+1; 
08B42:  MOVLW  01
08B44:  MOVLB  3
08B46:  ADDWF  x2B,W
08B48:  MOVLB  7
08B4A:  CLRF   x1B
08B4C:  MOVWF  x1A
08B4E:  MOVLB  0
08B50:  CALL   2088
08B54:  BCF    FD8.1
08B56:  MOVFF  2F6,71D
08B5A:  MOVFF  2F5,71C
08B5E:  MOVFF  2F4,71B
08B62:  MOVFF  2F3,71A
08B66:  MOVFF  03,721
08B6A:  MOVFF  02,720
08B6E:  MOVFF  01,71F
08B72:  MOVFF  00,71E
08B76:  CALL   221C
08B7A:  MOVFF  03,2F6
08B7E:  MOVFF  02,2F5
08B82:  MOVFF  01,2F4
08B86:  MOVFF  00,2F3
....................             }else{ 
08B8A:  BRA    8C62
....................                if(Aumento<-0.1){ 
08B8C:  MOVFF  2C3,711
08B90:  MOVFF  2C2,710
08B94:  MOVFF  2C1,70F
08B98:  MOVFF  2C0,70E
08B9C:  MOVLW  CD
08B9E:  MOVLB  7
08BA0:  MOVWF  x15
08BA2:  MOVLW  CC
08BA4:  MOVWF  x14
08BA6:  MOVWF  x13
08BA8:  MOVLW  7B
08BAA:  MOVWF  x12
08BAC:  MOVLB  0
08BAE:  CALL   2680
08BB2:  BNC   8C1E
....................                   Ganancia+=Integral+0.5; 
08BB4:  MOVLB  7
08BB6:  CLRF   x1B
08BB8:  MOVFF  32B,71A
08BBC:  MOVLB  0
08BBE:  CALL   2088
08BC2:  BCF    FD8.1
08BC4:  MOVFF  03,71D
08BC8:  MOVFF  02,71C
08BCC:  MOVFF  01,71B
08BD0:  MOVFF  00,71A
08BD4:  MOVLB  7
08BD6:  CLRF   x21
08BD8:  CLRF   x20
08BDA:  CLRF   x1F
08BDC:  MOVLW  7E
08BDE:  MOVWF  x1E
08BE0:  MOVLB  0
08BE2:  CALL   221C
08BE6:  BCF    FD8.1
08BE8:  MOVFF  2F6,71D
08BEC:  MOVFF  2F5,71C
08BF0:  MOVFF  2F4,71B
08BF4:  MOVFF  2F3,71A
08BF8:  MOVFF  03,721
08BFC:  MOVFF  02,720
08C00:  MOVFF  01,71F
08C04:  MOVFF  00,71E
08C08:  CALL   221C
08C0C:  MOVFF  03,2F6
08C10:  MOVFF  02,2F5
08C14:  MOVFF  01,2F4
08C18:  MOVFF  00,2F3
....................                }else{ 
08C1C:  BRA    8C62
....................                   Ganancia+=Integral; 
08C1E:  MOVLB  7
08C20:  CLRF   x1B
08C22:  MOVFF  32B,71A
08C26:  MOVLB  0
08C28:  CALL   2088
08C2C:  BCF    FD8.1
08C2E:  MOVFF  2F6,71D
08C32:  MOVFF  2F5,71C
08C36:  MOVFF  2F4,71B
08C3A:  MOVFF  2F3,71A
08C3E:  MOVFF  03,721
08C42:  MOVFF  02,720
08C46:  MOVFF  01,71F
08C4A:  MOVFF  00,71E
08C4E:  CALL   221C
08C52:  MOVFF  03,2F6
08C56:  MOVFF  02,2F5
08C5A:  MOVFF  01,2F4
08C5E:  MOVFF  00,2F3
08C62:  MOVLB  3
....................                } 
....................             } 
....................          } 
....................       }else{ 
08C64:  BRA    8C6C
08C66:  MOVLB  0
....................          flagTC=0; 
08C68:  MOVLB  3
08C6A:  BCF    x3C.3
....................       } 
....................    } 
....................     
....................    if(error<-0.3) 
08C6C:  MOVFF  2E6,711
08C70:  MOVFF  2E5,710
08C74:  MOVFF  2E4,70F
08C78:  MOVFF  2E3,70E
08C7C:  MOVLW  9A
08C7E:  MOVLB  7
08C80:  MOVWF  x15
08C82:  MOVLW  99
08C84:  MOVWF  x14
08C86:  MOVWF  x13
08C88:  MOVLW  7D
08C8A:  MOVWF  x12
08C8C:  MOVLB  0
08C8E:  CALL   2680
08C92:  BNC   8CA4
....................       Ganancia=Ganancia2; 
08C94:  MOVFF  2FA,2F6
08C98:  MOVFF  2F9,2F5
08C9C:  MOVFF  2F8,2F4
08CA0:  MOVFF  2F7,2F3
....................     
....................    if(Ganancia<1) 
08CA4:  MOVFF  2F6,711
08CA8:  MOVFF  2F5,710
08CAC:  MOVFF  2F4,70F
08CB0:  MOVFF  2F3,70E
08CB4:  MOVLB  7
08CB6:  CLRF   x15
08CB8:  CLRF   x14
08CBA:  CLRF   x13
08CBC:  MOVLW  7F
08CBE:  MOVWF  x12
08CC0:  MOVLB  0
08CC2:  CALL   2680
08CC6:  BNC   8CD4
....................       Ganancia=1; 
08CC8:  MOVLB  2
08CCA:  CLRF   xF6
08CCC:  CLRF   xF5
08CCE:  CLRF   xF4
08CD0:  MOVLW  7F
08CD2:  MOVWF  xF3
....................     
....................    if(error<0.0)     // Anti Wind_DOWN     
08CD4:  MOVFF  2E6,711
08CD8:  MOVFF  2E5,710
08CDC:  MOVFF  2E4,70F
08CE0:  MOVFF  2E3,70E
08CE4:  MOVLB  7
08CE6:  CLRF   x15
08CE8:  CLRF   x14
08CEA:  CLRF   x13
08CEC:  CLRF   x12
08CEE:  MOVLB  0
08CF0:  CALL   2680
08CF4:  BNC   8D02
....................       error=0.0; 
08CF6:  MOVLB  2
08CF8:  CLRF   xE6
08CFA:  CLRF   xE5
08CFC:  CLRF   xE4
08CFE:  CLRF   xE3
08D00:  MOVLB  0
....................    //tmp=(Setpoint-Prom)*Ganancia;  // Control Proporcional. 
....................    tmp=error*Ganancia;  // Control Proporcional. 
08D02:  MOVFF  2E6,721
08D06:  MOVFF  2E5,720
08D0A:  MOVFF  2E4,71F
08D0E:  MOVFF  2E3,71E
08D12:  MOVFF  2F6,725
08D16:  MOVFF  2F5,724
08D1A:  MOVFF  2F4,723
08D1E:  MOVFF  2F3,722
08D22:  CALL   4628
08D26:  MOVFF  03,2F2
08D2A:  MOVFF  02,2F1
08D2E:  MOVFF  01,2F0
08D32:  MOVFF  00,2EF
....................           
....................    if(tmp>Setpoint)   // Anti Wind-UP       
08D36:  MOVLB  7
08D38:  CLRF   x1B
08D3A:  MOVFF  34E,71A
08D3E:  MOVLB  0
08D40:  CALL   2088
08D44:  MOVFF  03,711
08D48:  MOVFF  02,710
08D4C:  MOVFF  01,70F
08D50:  MOVFF  00,70E
08D54:  MOVFF  2F2,715
08D58:  MOVFF  2F1,714
08D5C:  MOVFF  2F0,713
08D60:  MOVFF  2EF,712
08D64:  CALL   2680
08D68:  BNC   8D88
....................       tmp=Setpoint; 
08D6A:  MOVLB  7
08D6C:  CLRF   x1B
08D6E:  MOVFF  34E,71A
08D72:  MOVLB  0
08D74:  CALL   2088
08D78:  MOVFF  03,2F2
08D7C:  MOVFF  02,2F1
08D80:  MOVFF  01,2F0
08D84:  MOVFF  00,2EF
....................                 
....................    if(tmp<0.0)     // Anti Wind_DOWN     
08D88:  MOVFF  2F2,711
08D8C:  MOVFF  2F1,710
08D90:  MOVFF  2F0,70F
08D94:  MOVFF  2EF,70E
08D98:  MOVLB  7
08D9A:  CLRF   x15
08D9C:  CLRF   x14
08D9E:  CLRF   x13
08DA0:  CLRF   x12
08DA2:  MOVLB  0
08DA4:  CALL   2680
08DA8:  BNC   8DB4
....................       tmp=0.0; 
08DAA:  MOVLB  2
08DAC:  CLRF   xF2
08DAE:  CLRF   xF1
08DB0:  CLRF   xF0
08DB2:  CLRF   xEF
....................     
....................    // Tpulso(t)= Tciclo*(y(t)-ymin)/(ymax - ymin); calculo de ciclo util para control de resistencia.ymax=140.ymin=0; 
....................    // Tpulso es float, hay que pasar ese ciclo a una salida de un puerto usando el TMR1. 
....................    tmp2=(tmp/Setpoint); 
08DB4:  MOVLB  7
08DB6:  CLRF   x1B
08DB8:  MOVFF  34E,71A
08DBC:  MOVLB  0
08DBE:  CALL   2088
08DC2:  MOVFF  2F2,717
08DC6:  MOVFF  2F1,716
08DCA:  MOVFF  2F0,715
08DCE:  MOVFF  2EF,714
08DD2:  MOVFF  03,71B
08DD6:  MOVFF  02,71A
08DDA:  MOVFF  01,719
08DDE:  MOVFF  00,718
08DE2:  CALL   20BE
08DE6:  MOVFF  03,302
08DEA:  MOVFF  02,301
08DEE:  MOVFF  01,300
08DF2:  MOVFF  00,2FF
....................    //if(tmp2>0.8) 
....................    //tmp2=0.8; 
....................    Tpulso=tmp2*Tciclo;   
08DF6:  MOVFF  302,721
08DFA:  MOVFF  301,720
08DFE:  MOVFF  300,71F
08E02:  MOVFF  2FF,71E
08E06:  MOVFF  2DE,725
08E0A:  MOVFF  2DD,724
08E0E:  MOVFF  2DC,723
08E12:  MOVFF  2DB,722
08E16:  CALL   4628
08E1A:  MOVFF  03,2E2
08E1E:  MOVFF  02,2E1
08E22:  MOVFF  01,2E0
08E26:  MOVFF  00,2DF
....................                                        
....................    Tp=(Tpulso/0.005); 
08E2A:  MOVFF  2E2,717
08E2E:  MOVFF  2E1,716
08E32:  MOVFF  2E0,715
08E36:  MOVFF  2DF,714
08E3A:  MOVLW  0A
08E3C:  MOVLB  7
08E3E:  MOVWF  x1B
08E40:  MOVLW  D7
08E42:  MOVWF  x1A
08E44:  MOVLW  23
08E46:  MOVWF  x19
08E48:  MOVLW  77
08E4A:  MOVWF  x18
08E4C:  MOVLB  0
08E4E:  CALL   20BE
08E52:  MOVFF  03,71D
08E56:  MOVFF  02,71C
08E5A:  MOVFF  01,71B
08E5E:  MOVFF  00,71A
08E62:  CALL   5380
08E66:  MOVFF  02,AE
08E6A:  MOVFF  01,AD
....................    Tc=(Tciclo/0.005); 
08E6E:  MOVFF  2DE,717
08E72:  MOVFF  2DD,716
08E76:  MOVFF  2DC,715
08E7A:  MOVFF  2DB,714
08E7E:  MOVLW  0A
08E80:  MOVLB  7
08E82:  MOVWF  x1B
08E84:  MOVLW  D7
08E86:  MOVWF  x1A
08E88:  MOVLW  23
08E8A:  MOVWF  x19
08E8C:  MOVLW  77
08E8E:  MOVWF  x18
08E90:  MOVLB  0
08E92:  CALL   20BE
08E96:  MOVFF  03,71D
08E9A:  MOVFF  02,71C
08E9E:  MOVFF  01,71B
08EA2:  MOVFF  00,71A
08EA6:  CALL   5380
08EAA:  MOVFF  02,B0
08EAE:  MOVFF  01,AF
....................    Controlando=1;    
08EB2:  MOVLW  01
08EB4:  MOVLB  3
08EB6:  MOVWF  x3F
.................... //--------------------------------------------------------------------------------------------------------------------//    
.................... } 
08EB8:  MOVLB  0
08EBA:  RETLW  00
....................  
.................... void Envio_I2C(direccion, posicion, dato){ 
....................  
....................    i2c_start();            // Comienzo comunicacin 
....................    i2c_write(direccion);   // Direccin del esclavo en el bus I2C 
....................    i2c_write(posicion);    // Posicin donde se guardara el dato transmitido 
....................    i2c_write(dato);        // Dato a transmitir 
....................    i2c_stop();             // Fin comunicacin 
....................  } 
....................  
.................... void Lectura_I2C (byte direccion, byte posicion, byte &dato) { 
....................  
....................    i2c_start();            // Comienzo de la comunicacin 
....................    i2c_write(direccion);   // Direccin del esclavo en el bus I2C 
....................    i2c_write(posicion);    // Posicin de donde se leer el dato en el esclavo 
....................    i2c_start();            // Reinicio 
....................    i2c_write(direccion+1); // Direccin del esclavo en modo lectura 
....................    dato=i2c_read(0);       // Lectura del dato 
....................    i2c_stop();             // Fin comunicacin 
.................... } 
....................  
.................... void Carga_Vector(void){ 
....................    SlaveA0Tx[0]=(int8)Temperatura; 
*
05760:  MOVFF  316,71D
05764:  MOVFF  315,71C
05768:  MOVFF  314,71B
0576C:  MOVFF  313,71A
05770:  RCALL  5380
05772:  MOVFF  01,64
....................    SlaveA0Tx[1]=(Temperatura-((int8)Temperatura))*10; 
05776:  MOVFF  316,71D
0577A:  MOVFF  315,71C
0577E:  MOVFF  314,71B
05782:  MOVFF  313,71A
05786:  RCALL  5380
05788:  MOVLB  7
0578A:  CLRF   x1B
0578C:  MOVFF  01,71A
05790:  MOVLB  0
05792:  CALL   2088
05796:  BSF    FD8.1
05798:  MOVFF  316,71D
0579C:  MOVFF  315,71C
057A0:  MOVFF  314,71B
057A4:  MOVFF  313,71A
057A8:  MOVFF  03,721
057AC:  MOVFF  02,720
057B0:  MOVFF  01,71F
057B4:  MOVFF  00,71E
057B8:  CALL   221C
057BC:  MOVFF  00,71A
057C0:  MOVFF  01,71B
057C4:  MOVFF  02,71C
057C8:  MOVFF  03,71D
057CC:  MOVFF  03,721
057D0:  MOVFF  02,720
057D4:  MOVFF  01,71F
057D8:  MOVFF  00,71E
057DC:  MOVLB  7
057DE:  CLRF   x25
057E0:  CLRF   x24
057E2:  MOVLW  20
057E4:  MOVWF  x23
057E6:  MOVLW  82
057E8:  MOVWF  x22
057EA:  MOVLB  0
057EC:  CALL   4628
057F0:  MOVFF  03,71D
057F4:  MOVFF  02,71C
057F8:  MOVFF  01,71B
057FC:  MOVFF  00,71A
05800:  RCALL  5380
05802:  MOVFF  01,65
....................    SlaveA0Tx[2]=make8((int16)PresionCamara,0); 
05806:  MOVFF  365,66
0580A:  MOVLB  0
....................    SlaveA0Tx[3]=make8((int16)PresionCamara,1); 
0580C:  MOVFF  366,67
05810:  MOVLB  0
....................    SlaveA0Tx[4]=make8((int16)PresionPreCamara,0); 
05812:  MOVFF  367,68
05816:  MOVLB  0
....................    SlaveA0Tx[5]=make8((int16)PresionPreCamara,1); 
05818:  MOVFF  368,69
0581C:  MOVLB  0
....................    SlaveA0Tx[6]=(int8)Tpulso*10; 
0581E:  MOVFF  2E2,71D
05822:  MOVFF  2E1,71C
05826:  MOVFF  2E0,71B
0582A:  MOVFF  2DF,71A
0582E:  RCALL  5380
05830:  MOVF   01,W
05832:  MULLW  0A
05834:  MOVFF  FF3,6A
....................    SlaveA0Tx[7]=HIG; 
05838:  CLRF   x6B
0583A:  BTFSC  xA5.6
0583C:  INCF   x6B,F
....................    SlaveA0Tx[8]=LOW; 
0583E:  CLRF   x6C
05840:  BTFSC  xA5.5
05842:  INCF   x6C,F
....................    SlaveA0Tx[9]=TERM; 
05844:  BSF    F93.4
05846:  CLRF   x6D
05848:  BTFSS  F81.4
0584A:  INCF   x6D,F
....................    SlaveA0Tx[10]=DOOR; 
0584C:  BSF    F93.6
0584E:  CLRF   x6E
05850:  BTFSS  F81.6
05852:  INCF   x6E,F
....................    SlaveA0Tx[11]=STOP; 
05854:  BSF    F93.5
05856:  CLRF   x6F
05858:  BTFSS  F81.5
0585A:  INCF   x6F,F
....................    SlaveA0Tx[12]=(int8)error; 
0585C:  MOVFF  2E6,71D
05860:  MOVFF  2E5,71C
05864:  MOVFF  2E4,71B
05868:  MOVFF  2E3,71A
0586C:  RCALL  5380
0586E:  MOVFF  01,70
....................    SlaveA0Tx[13]=CicloSeleccionado; 
05872:  MOVFF  34D,71
....................    SlaveA0Tx[14]=SetTime; 
05876:  MOVFF  398,72
....................    SlaveA0Tx[15]=Dia; 
0587A:  MOVFF  38D,73
....................    SlaveA0Tx[16]=Mes; 
0587E:  MOVFF  38C,74
....................    SlaveA0Tx[17]=Year; 
05882:  MOVFF  38B,75
....................    SlaveA0Tx[18]=Hora; 
05886:  MOVFF  38E,76
....................    SlaveA0Tx[19]=Minuto; 
0588A:  MOVFF  38F,77
....................    SlaveA0Tx[20]=Segundo; 
0588E:  MOVFF  390,78
....................    SlaveA0Tx[21]=Imprime; 
05892:  MOVFF  399,79
....................    SlaveA0Tx[22]=make8(Ciclos,0); 
05896:  MOVFF  369,7A
0589A:  MOVLB  0
....................    SlaveA0Tx[23]=make8(Ciclos,1); 
0589C:  MOVFF  36A,7B
058A0:  MOVLB  0
.................... } 
058A2:  GOTO   58A8 (RETURN)
....................  
.................... void Lee_Vector(void){ 
....................    /*Dia=txbuf[0]; 
....................    Mess=txbuf[1]; 
....................    Year=txbuf[2]; 
....................    Hora=txbuf[3]; 
....................    Minuto=txbuf[4]; 
....................    Segundo=txbuf[5]; 
....................    dow=txbuf[6];*/ 
.................... } 
....................  
.................... void Envio_Esclavos(void){ 
....................    Carga_Vector(); 
058A6:  BRA    5760
....................    for(i=0;i<24;i++){ 
058A8:  MOVLB  3
058AA:  CLRF   x4A
058AC:  MOVF   x4A,W
058AE:  SUBLW  17
058B0:  BNC   593A
....................       direccion=0xB0; 
058B2:  MOVLW  B0
058B4:  MOVLB  0
058B6:  MOVWF  x85
....................       i2c_start();            // Comienzo comunicacin 
058B8:  BSF    F94.4
058BA:  MOVLW  05
058BC:  MOVWF  00
058BE:  DECFSZ 00,F
058C0:  BRA    58BE
058C2:  BSF    F94.3
058C4:  MOVLW  06
058C6:  MOVWF  00
058C8:  DECFSZ 00,F
058CA:  BRA    58C8
058CC:  BCF    F8B.4
058CE:  BCF    F94.4
058D0:  MOVLW  05
058D2:  MOVWF  00
058D4:  DECFSZ 00,F
058D6:  BRA    58D4
058D8:  BCF    F8B.3
058DA:  BCF    F94.3
....................       i2c_write(direccion);   // Direccin del esclavo en el bus I2C 
058DC:  MOVFF  85,726
058E0:  CALL   24B6
....................       i2c_write(i);   // Direccin del esclavo en el bus I2C 
058E4:  MOVFF  34A,726
058E8:  CALL   24B6
....................       i2c_write(0);    // Posicin donde se guardara el dato transmitido 
058EC:  MOVLB  7
058EE:  CLRF   x26
058F0:  MOVLB  0
058F2:  CALL   24B6
....................       i2c_write(SlaveA0Tx[i]); // Dato a transmitir 
058F6:  CLRF   03
058F8:  MOVLB  3
058FA:  MOVF   x4A,W
058FC:  ADDLW  64
058FE:  MOVWF  FE9
05900:  MOVLW  00
05902:  ADDWFC 03,W
05904:  MOVWF  FEA
05906:  MOVFF  FEF,71A
0590A:  MOVFF  71A,726
0590E:  MOVLB  0
05910:  CALL   24B6
....................       i2c_stop();  
05914:  BCF    F94.4
05916:  NOP   
05918:  BSF    F94.3
0591A:  BTFSS  F82.3
0591C:  BRA    591A
0591E:  MOVLW  05
05920:  MOVWF  00
05922:  DECFSZ 00,F
05924:  BRA    5922
05926:  BRA    5928
05928:  NOP   
0592A:  BSF    F94.4
0592C:  MOVLW  05
0592E:  MOVWF  00
05930:  DECFSZ 00,F
05932:  BRA    5930
....................       //Envio_I2C(direccion,i,SlaveB0Tx[i]); 
....................    }  
05934:  MOVLB  3
05936:  INCF   x4A,F
05938:  BRA    58AC
.................... } 
0593A:  MOVLB  0
0593C:  RETLW  00
.................... void Lectura_Esclavos(void){ 
....................    //for(i=0;i<7;i++) 
....................    //{ 
....................    //   direccion=0xA0;                        //Direccin en el bus I2c 
....................    //   posicion=i;                         //Posicin de memoria a leer 
....................    //   Lectura_I2C(direccion, posicion, dato);    //Lectura por I2C 
....................    //   txbuf[i]=(int8)dato; 
....................    //} 
....................    //Lee_Vector(); 
.................... } 
....................  
.................... int8 extraeDecimal(float data){ 
*
083BE:  MOVLB  7
083C0:  CLRF   x15
083C2:  CLRF   x14
083C4:  CLRF   x13
083C6:  CLRF   x12
083C8:  CLRF   x19
083CA:  CLRF   x18
083CC:  CLRF   x17
083CE:  CLRF   x16
....................    float entero=0; 
....................    float tmp=0.0; 
....................     
....................    entero=(int8)data; 
083D0:  MOVFF  711,71D
083D4:  MOVFF  710,71C
083D8:  MOVFF  70F,71B
083DC:  MOVFF  70E,71A
083E0:  MOVLB  0
083E2:  CALL   5380
083E6:  MOVLB  7
083E8:  CLRF   x1B
083EA:  MOVFF  01,71A
083EE:  MOVLB  0
083F0:  CALL   2088
083F4:  MOVFF  03,715
083F8:  MOVFF  02,714
083FC:  MOVFF  01,713
08400:  MOVFF  00,712
....................    tmp=(data-entero)*10; 
08404:  BSF    FD8.1
08406:  MOVFF  711,71D
0840A:  MOVFF  710,71C
0840E:  MOVFF  70F,71B
08412:  MOVFF  70E,71A
08416:  MOVFF  715,721
0841A:  MOVFF  714,720
0841E:  MOVFF  713,71F
08422:  MOVFF  712,71E
08426:  CALL   221C
0842A:  MOVFF  00,71A
0842E:  MOVFF  01,71B
08432:  MOVFF  02,71C
08436:  MOVFF  03,71D
0843A:  MOVFF  03,721
0843E:  MOVFF  02,720
08442:  MOVFF  01,71F
08446:  MOVFF  00,71E
0844A:  MOVLB  7
0844C:  CLRF   x25
0844E:  CLRF   x24
08450:  MOVLW  20
08452:  MOVWF  x23
08454:  MOVLW  82
08456:  MOVWF  x22
08458:  MOVLB  0
0845A:  CALL   4628
0845E:  MOVFF  03,719
08462:  MOVFF  02,718
08466:  MOVFF  01,717
0846A:  MOVFF  00,716
....................    return (int8)tmp; 
0846E:  MOVFF  719,71D
08472:  MOVFF  718,71C
08476:  MOVFF  717,71B
0847A:  MOVFF  716,71A
0847E:  CALL   5380
08482:  MOVF   01,W
.................... } 
08484:  GOTO   8598 (RETURN)
....................  
.................... float inttofloat(int8 decimal){ 
....................    float tmp; 
....................    tmp=decimal; 
*
02640:  MOVLB  7
02642:  CLRF   x1B
02644:  MOVFF  70C,71A
02648:  MOVLB  0
0264A:  RCALL  2088
0264C:  MOVFF  03,710
02650:  MOVFF  02,70F
02654:  MOVFF  01,70E
02658:  MOVFF  00,70D
....................    return tmp/10; 
0265C:  MOVFF  710,717
02660:  MOVFF  70F,716
02664:  MOVFF  70E,715
02668:  MOVFF  70D,714
0266C:  MOVLB  7
0266E:  CLRF   x1B
02670:  CLRF   x1A
02672:  MOVLW  20
02674:  MOVWF  x19
02676:  MOVLW  82
02678:  MOVWF  x18
0267A:  MOVLB  0
0267C:  RCALL  20BE
.................... } 
0267E:  RETLW  00
....................  
.................... void LeeEEPROM(){ 
.................... //Lectura EEPROM//-------------------------- 
....................    Password[0]=read_eeprom(10); 
*
026FA:  MOVFF  FF2,708
026FE:  BCF    FF2.6
02700:  BCF    FF2.7
02702:  CLRF   FAA
02704:  MOVLW  0A
02706:  MOVWF  FA9
02708:  BCF    FA6.6
0270A:  BCF    FA6.7
0270C:  BSF    FA6.0
0270E:  MOVF   FA8,W
02710:  MOVLB  7
02712:  BTFSC  x08.6
02714:  BSF    FF2.6
02716:  BTFSC  x08.7
02718:  BSF    FF2.7
0271A:  MOVLB  3
0271C:  MOVWF  x75
....................    delay_ms(10); 
0271E:  MOVLW  0A
02720:  MOVLB  7
02722:  MOVWF  x1E
02724:  MOVLB  0
02726:  RCALL  2060
....................    Password[1]=read_eeprom(11); 
02728:  MOVFF  FF2,708
0272C:  BCF    FF2.6
0272E:  BCF    FF2.7
02730:  CLRF   FAA
02732:  MOVLW  0B
02734:  MOVWF  FA9
02736:  BCF    FA6.6
02738:  BCF    FA6.7
0273A:  BSF    FA6.0
0273C:  MOVF   FA8,W
0273E:  MOVLB  7
02740:  BTFSC  x08.6
02742:  BSF    FF2.6
02744:  BTFSC  x08.7
02746:  BSF    FF2.7
02748:  MOVLB  3
0274A:  MOVWF  x76
....................    delay_ms(10); 
0274C:  MOVLW  0A
0274E:  MOVLB  7
02750:  MOVWF  x1E
02752:  MOVLB  0
02754:  RCALL  2060
....................    Password[2]=read_eeprom(12); 
02756:  MOVFF  FF2,708
0275A:  BCF    FF2.6
0275C:  BCF    FF2.7
0275E:  CLRF   FAA
02760:  MOVLW  0C
02762:  MOVWF  FA9
02764:  BCF    FA6.6
02766:  BCF    FA6.7
02768:  BSF    FA6.0
0276A:  MOVF   FA8,W
0276C:  MOVLB  7
0276E:  BTFSC  x08.6
02770:  BSF    FF2.6
02772:  BTFSC  x08.7
02774:  BSF    FF2.7
02776:  MOVLB  3
02778:  MOVWF  x77
....................    delay_ms(10); 
0277A:  MOVLW  0A
0277C:  MOVLB  7
0277E:  MOVWF  x1E
02780:  MOVLB  0
02782:  RCALL  2060
....................    Password[3]=read_eeprom(13); 
02784:  MOVFF  FF2,708
02788:  BCF    FF2.6
0278A:  BCF    FF2.7
0278C:  CLRF   FAA
0278E:  MOVLW  0D
02790:  MOVWF  FA9
02792:  BCF    FA6.6
02794:  BCF    FA6.7
02796:  BSF    FA6.0
02798:  MOVF   FA8,W
0279A:  MOVLB  7
0279C:  BTFSC  x08.6
0279E:  BSF    FF2.6
027A0:  BTFSC  x08.7
027A2:  BSF    FF2.7
027A4:  MOVLB  3
027A6:  MOVWF  x78
....................    delay_ms(10); 
027A8:  MOVLW  0A
027AA:  MOVLB  7
027AC:  MOVWF  x1E
027AE:  MOVLB  0
027B0:  RCALL  2060
....................    Integral=read_eeprom(18); 
027B2:  MOVFF  FF2,708
027B6:  BCF    FF2.6
027B8:  BCF    FF2.7
027BA:  CLRF   FAA
027BC:  MOVLW  12
027BE:  MOVWF  FA9
027C0:  BCF    FA6.6
027C2:  BCF    FA6.7
027C4:  BSF    FA6.0
027C6:  MOVF   FA8,W
027C8:  MOVLB  7
027CA:  BTFSC  x08.6
027CC:  BSF    FF2.6
027CE:  BTFSC  x08.7
027D0:  BSF    FF2.7
027D2:  MOVLB  3
027D4:  MOVWF  x2B
....................    delay_ms(10); 
027D6:  MOVLW  0A
027D8:  MOVLB  7
027DA:  MOVWF  x1E
027DC:  MOVLB  0
027DE:  RCALL  2060
....................    Derivativo=read_eeprom(19); 
027E0:  MOVFF  FF2,708
027E4:  BCF    FF2.6
027E6:  BCF    FF2.7
027E8:  CLRF   FAA
027EA:  MOVLW  13
027EC:  MOVWF  FA9
027EE:  BCF    FA6.6
027F0:  BCF    FA6.7
027F2:  BSF    FA6.0
027F4:  MOVF   FA8,W
027F6:  MOVLB  7
027F8:  BTFSC  x08.6
027FA:  BSF    FF2.6
027FC:  BTFSC  x08.7
027FE:  BSF    FF2.7
02800:  MOVLB  3
02802:  MOVWF  x2C
....................    delay_ms(10); 
02804:  MOVLW  0A
02806:  MOVLB  7
02808:  MOVWF  x1E
0280A:  MOVLB  0
0280C:  RCALL  2060
....................    Ganancia=read_eeprom(20); 
0280E:  MOVFF  FF2,708
02812:  BCF    FF2.6
02814:  BCF    FF2.7
02816:  CLRF   FAA
02818:  MOVLW  14
0281A:  MOVWF  FA9
0281C:  BCF    FA6.6
0281E:  BCF    FA6.7
02820:  BSF    FA6.0
02822:  MOVF   FA8,W
02824:  MOVLB  7
02826:  BTFSC  x08.6
02828:  BSF    FF2.6
0282A:  BTFSC  x08.7
0282C:  BSF    FF2.7
0282E:  CLRF   x1B
02830:  MOVWF  x1A
02832:  MOVLB  0
02834:  RCALL  2088
02836:  MOVFF  03,2F6
0283A:  MOVFF  02,2F5
0283E:  MOVFF  01,2F4
02842:  MOVFF  00,2F3
....................    delay_ms(10); 
02846:  MOVLW  0A
02848:  MOVLB  7
0284A:  MOVWF  x1E
0284C:  MOVLB  0
0284E:  RCALL  2060
....................    Sensor[0].Ajuste=read_eeprom(21); 
02850:  MOVFF  FF2,708
02854:  BCF    FF2.6
02856:  BCF    FF2.7
02858:  CLRF   FAA
0285A:  MOVLW  15
0285C:  MOVWF  FA9
0285E:  BCF    FA6.6
02860:  BCF    FA6.7
02862:  BSF    FA6.0
02864:  MOVF   FA8,W
02866:  MOVLB  7
02868:  BTFSC  x08.6
0286A:  BSF    FF2.6
0286C:  BTFSC  x08.7
0286E:  BSF    FF2.7
02870:  MOVLB  4
02872:  MOVWF  x26
....................    delay_ms(10); 
02874:  MOVLW  0A
02876:  MOVLB  7
02878:  MOVWF  x1E
0287A:  MOVLB  0
0287C:  CALL   2060
....................    Sensor[0].Ajusten=read_eeprom(22); 
02880:  MOVFF  FF2,708
02884:  BCF    FF2.6
02886:  BCF    FF2.7
02888:  CLRF   FAA
0288A:  MOVLW  16
0288C:  MOVWF  FA9
0288E:  BCF    FA6.6
02890:  BCF    FA6.7
02892:  BSF    FA6.0
02894:  MOVF   FA8,W
02896:  MOVLB  7
02898:  BTFSC  x08.6
0289A:  BSF    FF2.6
0289C:  BTFSC  x08.7
0289E:  BSF    FF2.7
028A0:  MOVLB  4
028A2:  MOVWF  x27
....................    delay_ms(10); 
028A4:  MOVLW  0A
028A6:  MOVLB  7
028A8:  MOVWF  x1E
028AA:  MOVLB  0
028AC:  CALL   2060
....................    Sensor[1].Ajuste=read_eeprom(23); 
028B0:  MOVFF  FF2,708
028B4:  BCF    FF2.6
028B6:  BCF    FF2.7
028B8:  CLRF   FAA
028BA:  MOVLW  17
028BC:  MOVWF  FA9
028BE:  BCF    FA6.6
028C0:  BCF    FA6.7
028C2:  BSF    FA6.0
028C4:  MOVF   FA8,W
028C6:  MOVLB  7
028C8:  BTFSC  x08.6
028CA:  BSF    FF2.6
028CC:  BTFSC  x08.7
028CE:  BSF    FF2.7
028D0:  MOVLB  5
028D2:  MOVWF  x92
....................    delay_ms(10); 
028D4:  MOVLW  0A
028D6:  MOVLB  7
028D8:  MOVWF  x1E
028DA:  MOVLB  0
028DC:  CALL   2060
....................    Sensor[1].Ajusten=read_eeprom(24); 
028E0:  MOVFF  FF2,708
028E4:  BCF    FF2.6
028E6:  BCF    FF2.7
028E8:  CLRF   FAA
028EA:  MOVLW  18
028EC:  MOVWF  FA9
028EE:  BCF    FA6.6
028F0:  BCF    FA6.7
028F2:  BSF    FA6.0
028F4:  MOVF   FA8,W
028F6:  MOVLB  7
028F8:  BTFSC  x08.6
028FA:  BSF    FF2.6
028FC:  BTFSC  x08.7
028FE:  BSF    FF2.7
02900:  MOVLB  5
02902:  MOVWF  x93
....................    delay_ms(10);    
02904:  MOVLW  0A
02906:  MOVLB  7
02908:  MOVWF  x1E
0290A:  MOVLB  0
0290C:  CALL   2060
....................    MediaMovil=read_eeprom(25); 
02910:  MOVFF  FF2,708
02914:  BCF    FF2.6
02916:  BCF    FF2.7
02918:  CLRF   FAA
0291A:  MOVLW  19
0291C:  MOVWF  FA9
0291E:  BCF    FA6.6
02920:  BCF    FA6.7
02922:  BSF    FA6.0
02924:  MOVF   FA8,W
02926:  MOVLB  7
02928:  BTFSC  x08.6
0292A:  BSF    FF2.6
0292C:  BTFSC  x08.7
0292E:  BSF    FF2.7
02930:  MOVLB  2
02932:  MOVWF  xCC
....................    delay_ms(10); 
02934:  MOVLW  0A
02936:  MOVLB  7
02938:  MOVWF  x1E
0293A:  MOVLB  0
0293C:  CALL   2060
....................    Tciclo=read_eeprom(26); 
02940:  MOVFF  FF2,708
02944:  BCF    FF2.6
02946:  BCF    FF2.7
02948:  CLRF   FAA
0294A:  MOVLW  1A
0294C:  MOVWF  FA9
0294E:  BCF    FA6.6
02950:  BCF    FA6.7
02952:  BSF    FA6.0
02954:  MOVF   FA8,W
02956:  MOVLB  7
02958:  BTFSC  x08.6
0295A:  BSF    FF2.6
0295C:  BTFSC  x08.7
0295E:  BSF    FF2.7
02960:  CLRF   x1B
02962:  MOVWF  x1A
02964:  MOVLB  0
02966:  CALL   2088
0296A:  MOVFF  03,2DE
0296E:  MOVFF  02,2DD
02972:  MOVFF  01,2DC
02976:  MOVFF  00,2DB
....................    delay_ms(10); 
0297A:  MOVLW  0A
0297C:  MOVLB  7
0297E:  MOVWF  x1E
02980:  MOVLB  0
02982:  CALL   2060
....................    Temporal=read_eeprom(27); 
02986:  MOVFF  FF2,708
0298A:  BCF    FF2.6
0298C:  BCF    FF2.7
0298E:  CLRF   FAA
02990:  MOVLW  1B
02992:  MOVWF  FA9
02994:  BCF    FA6.6
02996:  BCF    FA6.7
02998:  BSF    FA6.0
0299A:  MOVF   FA8,W
0299C:  MOVLB  7
0299E:  BTFSC  x08.6
029A0:  BSF    FF2.6
029A2:  BTFSC  x08.7
029A4:  BSF    FF2.7
029A6:  CLRF   x1B
029A8:  MOVWF  x1A
029AA:  MOVLB  0
029AC:  CALL   2088
029B0:  MOVFF  03,2AF
029B4:  MOVFF  02,2AE
029B8:  MOVFF  01,2AD
029BC:  MOVFF  00,2AC
....................    Temporal=Temporal/10.0; 
029C0:  MOVFF  2AF,717
029C4:  MOVFF  2AE,716
029C8:  MOVFF  2AD,715
029CC:  MOVFF  2AC,714
029D0:  MOVLB  7
029D2:  CLRF   x1B
029D4:  CLRF   x1A
029D6:  MOVLW  20
029D8:  MOVWF  x19
029DA:  MOVLW  82
029DC:  MOVWF  x18
029DE:  MOVLB  0
029E0:  CALL   20BE
029E4:  MOVFF  03,2AF
029E8:  MOVFF  02,2AE
029EC:  MOVFF  01,2AD
029F0:  MOVFF  00,2AC
....................    delay_ms(10); 
029F4:  MOVLW  0A
029F6:  MOVLB  7
029F8:  MOVWF  x1E
029FA:  MOVLB  0
029FC:  CALL   2060
....................    Sensor[0].RPT100=read_eeprom(28)+Temporal; 
02A00:  MOVFF  FF2,708
02A04:  BCF    FF2.6
02A06:  BCF    FF2.7
02A08:  CLRF   FAA
02A0A:  MOVLW  1C
02A0C:  MOVWF  FA9
02A0E:  BCF    FA6.6
02A10:  BCF    FA6.7
02A12:  BSF    FA6.0
02A14:  MOVF   FA8,W
02A16:  MOVLB  7
02A18:  BTFSC  x08.6
02A1A:  BSF    FF2.6
02A1C:  BTFSC  x08.7
02A1E:  BSF    FF2.7
02A20:  CLRF   x1B
02A22:  MOVWF  x1A
02A24:  MOVLB  0
02A26:  CALL   2088
02A2A:  BCF    FD8.1
02A2C:  MOVFF  03,71D
02A30:  MOVFF  02,71C
02A34:  MOVFF  01,71B
02A38:  MOVFF  00,71A
02A3C:  MOVFF  2AF,721
02A40:  MOVFF  2AE,720
02A44:  MOVFF  2AD,71F
02A48:  MOVFF  2AC,71E
02A4C:  CALL   221C
02A50:  MOVFF  03,41B
02A54:  MOVFF  02,41A
02A58:  MOVFF  01,419
02A5C:  MOVFF  00,418
....................    delay_ms(10); 
02A60:  MOVLW  0A
02A62:  MOVLB  7
02A64:  MOVWF  x1E
02A66:  MOVLB  0
02A68:  CALL   2060
....................    Temporal=read_eeprom(29); 
02A6C:  MOVFF  FF2,708
02A70:  BCF    FF2.6
02A72:  BCF    FF2.7
02A74:  CLRF   FAA
02A76:  MOVLW  1D
02A78:  MOVWF  FA9
02A7A:  BCF    FA6.6
02A7C:  BCF    FA6.7
02A7E:  BSF    FA6.0
02A80:  MOVF   FA8,W
02A82:  MOVLB  7
02A84:  BTFSC  x08.6
02A86:  BSF    FF2.6
02A88:  BTFSC  x08.7
02A8A:  BSF    FF2.7
02A8C:  CLRF   x1B
02A8E:  MOVWF  x1A
02A90:  MOVLB  0
02A92:  CALL   2088
02A96:  MOVFF  03,2AF
02A9A:  MOVFF  02,2AE
02A9E:  MOVFF  01,2AD
02AA2:  MOVFF  00,2AC
....................    Temporal=Temporal/10.0; 
02AA6:  MOVFF  2AF,717
02AAA:  MOVFF  2AE,716
02AAE:  MOVFF  2AD,715
02AB2:  MOVFF  2AC,714
02AB6:  MOVLB  7
02AB8:  CLRF   x1B
02ABA:  CLRF   x1A
02ABC:  MOVLW  20
02ABE:  MOVWF  x19
02AC0:  MOVLW  82
02AC2:  MOVWF  x18
02AC4:  MOVLB  0
02AC6:  CALL   20BE
02ACA:  MOVFF  03,2AF
02ACE:  MOVFF  02,2AE
02AD2:  MOVFF  01,2AD
02AD6:  MOVFF  00,2AC
....................    delay_ms(10); 
02ADA:  MOVLW  0A
02ADC:  MOVLB  7
02ADE:  MOVWF  x1E
02AE0:  MOVLB  0
02AE2:  CALL   2060
....................    Sensor[1].RPT100=read_eeprom(30)+Temporal; 
02AE6:  MOVFF  FF2,708
02AEA:  BCF    FF2.6
02AEC:  BCF    FF2.7
02AEE:  CLRF   FAA
02AF0:  MOVLW  1E
02AF2:  MOVWF  FA9
02AF4:  BCF    FA6.6
02AF6:  BCF    FA6.7
02AF8:  BSF    FA6.0
02AFA:  MOVF   FA8,W
02AFC:  MOVLB  7
02AFE:  BTFSC  x08.6
02B00:  BSF    FF2.6
02B02:  BTFSC  x08.7
02B04:  BSF    FF2.7
02B06:  CLRF   x1B
02B08:  MOVWF  x1A
02B0A:  MOVLB  0
02B0C:  CALL   2088
02B10:  BCF    FD8.1
02B12:  MOVFF  03,71D
02B16:  MOVFF  02,71C
02B1A:  MOVFF  01,71B
02B1E:  MOVFF  00,71A
02B22:  MOVFF  2AF,721
02B26:  MOVFF  2AE,720
02B2A:  MOVFF  2AD,71F
02B2E:  MOVFF  2AC,71E
02B32:  CALL   221C
02B36:  MOVFF  03,587
02B3A:  MOVFF  02,586
02B3E:  MOVFF  01,585
02B42:  MOVFF  00,584
....................    delay_ms(10); 
02B46:  MOVLW  0A
02B48:  MOVLB  7
02B4A:  MOVWF  x1E
02B4C:  MOVLB  0
02B4E:  CALL   2060
....................    Atmosferica=read_eeprom(31); 
02B52:  MOVFF  FF2,708
02B56:  BCF    FF2.6
02B58:  BCF    FF2.7
02B5A:  CLRF   FAA
02B5C:  MOVLW  1F
02B5E:  MOVWF  FA9
02B60:  BCF    FA6.6
02B62:  BCF    FA6.7
02B64:  BSF    FA6.0
02B66:  MOVF   FA8,W
02B68:  MOVLB  7
02B6A:  BTFSC  x08.6
02B6C:  BSF    FF2.6
02B6E:  BTFSC  x08.7
02B70:  BSF    FF2.7
02B72:  MOVLB  3
02B74:  CLRF   x3B
02B76:  MOVWF  x3A
....................    delay_ms(10); 
02B78:  MOVLW  0A
02B7A:  MOVLB  7
02B7C:  MOVWF  x1E
02B7E:  MOVLB  0
02B80:  CALL   2060
....................    Tapertura=read_eeprom(32); 
02B84:  MOVFF  FF2,708
02B88:  BCF    FF2.6
02B8A:  BCF    FF2.7
02B8C:  CLRF   FAA
02B8E:  MOVLW  20
02B90:  MOVWF  FA9
02B92:  BCF    FA6.6
02B94:  BCF    FA6.7
02B96:  BSF    FA6.0
02B98:  MOVF   FA8,W
02B9A:  MOVLB  7
02B9C:  BTFSC  x08.6
02B9E:  BSF    FF2.6
02BA0:  BTFSC  x08.7
02BA2:  BSF    FF2.7
02BA4:  MOVLB  2
02BA6:  MOVWF  xD1
....................    delay_ms(10); 
02BA8:  MOVLW  0A
02BAA:  MOVLB  7
02BAC:  MOVWF  x1E
02BAE:  MOVLB  0
02BB0:  CALL   2060
....................    CiclosL=read_eeprom(37); 
02BB4:  MOVFF  FF2,708
02BB8:  BCF    FF2.6
02BBA:  BCF    FF2.7
02BBC:  CLRF   FAA
02BBE:  MOVLW  25
02BC0:  MOVWF  FA9
02BC2:  BCF    FA6.6
02BC4:  BCF    FA6.7
02BC6:  BSF    FA6.0
02BC8:  MOVF   FA8,W
02BCA:  MOVLB  7
02BCC:  BTFSC  x08.6
02BCE:  BSF    FF2.6
02BD0:  BTFSC  x08.7
02BD2:  BSF    FF2.7
02BD4:  MOVLB  3
02BD6:  MOVWF  x4B
....................    delay_ms(10); 
02BD8:  MOVLW  0A
02BDA:  MOVLB  7
02BDC:  MOVWF  x1E
02BDE:  MOVLB  0
02BE0:  CALL   2060
....................    CiclosH=read_eeprom(38); 
02BE4:  MOVFF  FF2,708
02BE8:  BCF    FF2.6
02BEA:  BCF    FF2.7
02BEC:  CLRF   FAA
02BEE:  MOVLW  26
02BF0:  MOVWF  FA9
02BF2:  BCF    FA6.6
02BF4:  BCF    FA6.7
02BF6:  BSF    FA6.0
02BF8:  MOVF   FA8,W
02BFA:  MOVLB  7
02BFC:  BTFSC  x08.6
02BFE:  BSF    FF2.6
02C00:  BTFSC  x08.7
02C02:  BSF    FF2.7
02C04:  MOVLB  3
02C06:  MOVWF  x4C
....................    delay_ms(10); 
02C08:  MOVLW  0A
02C0A:  MOVLB  7
02C0C:  MOVWF  x1E
02C0E:  MOVLB  0
02C10:  CALL   2060
....................    Ciclos=make16(CiclosH,CiclosL); 
02C14:  MOVFF  34C,36A
02C18:  MOVFF  34B,369
....................    delay_ms(10); 
02C1C:  MOVLW  0A
02C1E:  MOVLB  7
02C20:  MOVWF  x1E
02C22:  MOVLB  0
02C24:  CALL   2060
....................    TTrampa=read_eeprom(39); 
02C28:  MOVFF  FF2,708
02C2C:  BCF    FF2.6
02C2E:  BCF    FF2.7
02C30:  CLRF   FAA
02C32:  MOVLW  27
02C34:  MOVWF  FA9
02C36:  BCF    FA6.6
02C38:  BCF    FA6.7
02C3A:  BSF    FA6.0
02C3C:  MOVF   FA8,W
02C3E:  MOVLB  7
02C40:  BTFSC  x08.6
02C42:  BSF    FF2.6
02C44:  BTFSC  x08.7
02C46:  BSF    FF2.7
02C48:  MOVLB  3
02C4A:  MOVWF  x2E
....................    delay_ms(10); 
02C4C:  MOVLW  0A
02C4E:  MOVLB  7
02C50:  MOVWF  x1E
02C52:  MOVLB  0
02C54:  CALL   2060
....................    ActivaImpresion=read_eeprom(40); 
02C58:  MOVFF  FF2,708
02C5C:  BCF    FF2.6
02C5E:  BCF    FF2.7
02C60:  CLRF   FAA
02C62:  MOVLW  28
02C64:  MOVWF  FA9
02C66:  BCF    FA6.6
02C68:  BCF    FA6.7
02C6A:  BSF    FA6.0
02C6C:  MOVF   FA8,W
02C6E:  MOVLB  7
02C70:  BTFSC  x08.6
02C72:  BSF    FF2.6
02C74:  BTFSC  x08.7
02C76:  BSF    FF2.7
02C78:  MOVLB  3
02C7A:  MOVWF  x40
....................    delay_ms(10); 
02C7C:  MOVLW  0A
02C7E:  MOVLB  7
02C80:  MOVWF  x1E
02C82:  MOVLB  0
02C84:  CALL   2060
....................    timpresion=read_eeprom(41); 
02C88:  MOVFF  FF2,708
02C8C:  BCF    FF2.6
02C8E:  BCF    FF2.7
02C90:  CLRF   FAA
02C92:  MOVLW  29
02C94:  MOVWF  FA9
02C96:  BCF    FA6.6
02C98:  BCF    FA6.7
02C9A:  BSF    FA6.0
02C9C:  MOVF   FA8,W
02C9E:  MOVLB  7
02CA0:  BTFSC  x08.6
02CA2:  BSF    FF2.6
02CA4:  BTFSC  x08.7
02CA6:  BSF    FF2.7
02CA8:  MOVLB  3
02CAA:  MOVWF  x41
....................    delay_ms(10); 
02CAC:  MOVLW  0A
02CAE:  MOVLB  7
02CB0:  MOVWF  x1E
02CB2:  MOVLB  0
02CB4:  CALL   2060
....................    G1=read_eeprom(42); 
02CB8:  MOVFF  FF2,708
02CBC:  BCF    FF2.6
02CBE:  BCF    FF2.7
02CC0:  CLRF   FAA
02CC2:  MOVLW  2A
02CC4:  MOVWF  FA9
02CC6:  BCF    FA6.6
02CC8:  BCF    FA6.7
02CCA:  BSF    FA6.0
02CCC:  MOVF   FA8,W
02CCE:  MOVLB  7
02CD0:  BTFSC  x08.6
02CD2:  BSF    FF2.6
02CD4:  BTFSC  x08.7
02CD6:  BSF    FF2.7
02CD8:  MOVLB  3
02CDA:  MOVWF  x9A
....................    delay_ms(10); 
02CDC:  MOVLW  0A
02CDE:  MOVLB  7
02CE0:  MOVWF  x1E
02CE2:  MOVLB  0
02CE4:  CALL   2060
....................    G2=read_eeprom(43); 
02CE8:  MOVFF  FF2,708
02CEC:  BCF    FF2.6
02CEE:  BCF    FF2.7
02CF0:  CLRF   FAA
02CF2:  MOVLW  2B
02CF4:  MOVWF  FA9
02CF6:  BCF    FA6.6
02CF8:  BCF    FA6.7
02CFA:  BSF    FA6.0
02CFC:  MOVF   FA8,W
02CFE:  MOVLB  7
02D00:  BTFSC  x08.6
02D02:  BSF    FF2.6
02D04:  BTFSC  x08.7
02D06:  BSF    FF2.7
02D08:  MOVLB  3
02D0A:  MOVWF  x9B
....................    delay_ms(10); 
02D0C:  MOVLW  0A
02D0E:  MOVLB  7
02D10:  MOVWF  x1E
02D12:  MOVLB  0
02D14:  CALL   2060
....................    if(G2>40) 
02D18:  MOVLB  3
02D1A:  BTFSC  x9B.7
02D1C:  BRA    2D28
02D1E:  MOVF   x9B,W
02D20:  SUBLW  28
02D22:  BC    2D28
....................       G2=40; 
02D24:  MOVLW  28
02D26:  MOVWF  x9B
....................    sg1=read_eeprom(44); 
02D28:  MOVFF  FF2,708
02D2C:  BCF    FF2.6
02D2E:  BCF    FF2.7
02D30:  CLRF   FAA
02D32:  MOVLW  2C
02D34:  MOVWF  FA9
02D36:  BCF    FA6.6
02D38:  BCF    FA6.7
02D3A:  BSF    FA6.0
02D3C:  MOVF   FA8,W
02D3E:  MOVLB  7
02D40:  BTFSC  x08.6
02D42:  BSF    FF2.6
02D44:  BTFSC  x08.7
02D46:  BSF    FF2.7
02D48:  MOVLB  3
02D4A:  MOVWF  x9C
....................    delay_ms(10); 
02D4C:  MOVLW  0A
02D4E:  MOVLB  7
02D50:  MOVWF  x1E
02D52:  MOVLB  0
02D54:  CALL   2060
....................    sg2=read_eeprom(45); 
02D58:  MOVFF  FF2,708
02D5C:  BCF    FF2.6
02D5E:  BCF    FF2.7
02D60:  CLRF   FAA
02D62:  MOVLW  2D
02D64:  MOVWF  FA9
02D66:  BCF    FA6.6
02D68:  BCF    FA6.7
02D6A:  BSF    FA6.0
02D6C:  MOVF   FA8,W
02D6E:  MOVLB  7
02D70:  BTFSC  x08.6
02D72:  BSF    FF2.6
02D74:  BTFSC  x08.7
02D76:  BSF    FF2.7
02D78:  MOVLB  3
02D7A:  MOVWF  x9D
....................    delay_ms(10); 
02D7C:  MOVLW  0A
02D7E:  MOVLB  7
02D80:  MOVWF  x1E
02D82:  MOVLB  0
02D84:  CALL   2060
....................    NivelDesfogue=read_eeprom(46); 
02D88:  MOVFF  FF2,708
02D8C:  BCF    FF2.6
02D8E:  BCF    FF2.7
02D90:  CLRF   FAA
02D92:  MOVLW  2E
02D94:  MOVWF  FA9
02D96:  BCF    FA6.6
02D98:  BCF    FA6.7
02D9A:  BSF    FA6.0
02D9C:  MOVF   FA8,W
02D9E:  MOVLB  7
02DA0:  BTFSC  x08.6
02DA2:  BSF    FF2.6
02DA4:  BTFSC  x08.7
02DA6:  BSF    FF2.7
02DA8:  MOVLB  3
02DAA:  CLRF   x6C
02DAC:  MOVWF  x6B
....................    delay_ms(10); 
02DAE:  MOVLW  0A
02DB0:  MOVLB  7
02DB2:  MOVWF  x1E
02DB4:  MOVLB  0
02DB6:  CALL   2060
....................    pulsosConfigurados=read_eeprom(47); 
02DBA:  MOVFF  FF2,708
02DBE:  BCF    FF2.6
02DC0:  BCF    FF2.7
02DC2:  CLRF   FAA
02DC4:  MOVLW  2F
02DC6:  MOVWF  FA9
02DC8:  BCF    FA6.6
02DCA:  BCF    FA6.7
02DCC:  BSF    FA6.0
02DCE:  MOVF   FA8,W
02DD0:  MOVLB  7
02DD2:  BTFSC  x08.6
02DD4:  BSF    FF2.6
02DD6:  BTFSC  x08.7
02DD8:  BSF    FF2.7
02DDA:  MOVLB  2
02DDC:  MOVWF  xD2
....................    delay_ms(10); 
02DDE:  MOVLW  0A
02DE0:  MOVLB  7
02DE2:  MOVWF  x1E
02DE4:  MOVLB  0
02DE6:  CALL   2060
....................    vacioTest=read_eeprom(48); 
02DEA:  MOVFF  FF2,708
02DEE:  BCF    FF2.6
02DF0:  BCF    FF2.7
02DF2:  CLRF   FAA
02DF4:  MOVLW  30
02DF6:  MOVWF  FA9
02DF8:  BCF    FA6.6
02DFA:  BCF    FA6.7
02DFC:  BSF    FA6.0
02DFE:  MOVF   FA8,W
02E00:  MOVLB  7
02E02:  BTFSC  x08.6
02E04:  BSF    FF2.6
02E06:  BTFSC  x08.7
02E08:  BSF    FF2.7
02E0A:  MOVLB  3
02E0C:  MOVWF  x57
....................    delay_ms(10); 
02E0E:  MOVLW  0A
02E10:  MOVLB  7
02E12:  MOVWF  x1E
02E14:  MOVLB  0
02E16:  CALL   2060
....................    vacioCiclo=read_eeprom(49); 
02E1A:  MOVFF  FF2,708
02E1E:  BCF    FF2.6
02E20:  BCF    FF2.7
02E22:  CLRF   FAA
02E24:  MOVLW  31
02E26:  MOVWF  FA9
02E28:  BCF    FA6.6
02E2A:  BCF    FA6.7
02E2C:  BSF    FA6.0
02E2E:  MOVF   FA8,W
02E30:  MOVLB  7
02E32:  BTFSC  x08.6
02E34:  BSF    FF2.6
02E36:  BTFSC  x08.7
02E38:  BSF    FF2.7
02E3A:  MOVLB  3
02E3C:  MOVWF  x58
....................     
....................    for(i=0;i<4;i++){//Lee valores almacenados de ciclos personalizados 
02E3E:  CLRF   x4A
02E40:  MOVF   x4A,W
02E42:  SUBLW  03
02E44:  BTFSS  FD8.0
02E46:  BRA    3414
....................       CiclosPersonalizados[i].Temperatura=read_eeprom(100+(i*8));  
02E48:  MOVF   x4A,W
02E4A:  MULLW  0A
02E4C:  MOVF   FF3,W
02E4E:  MOVLB  7
02E50:  CLRF   x09
02E52:  MOVWF  x08
02E54:  MOVLW  E0
02E56:  ADDWF  x08,W
02E58:  MOVWF  FE9
02E5A:  MOVLW  06
02E5C:  ADDWFC x09,W
02E5E:  MOVWF  FEA
02E60:  MOVLB  3
02E62:  MOVF   x4A,W
02E64:  MULLW  08
02E66:  MOVF   FF3,W
02E68:  ADDLW  64
02E6A:  MOVLB  7
02E6C:  MOVWF  x0A
02E6E:  MOVFF  FF2,70B
02E72:  BCF    FF2.6
02E74:  BCF    FF2.7
02E76:  CLRF   FAA
02E78:  MOVFF  70A,FA9
02E7C:  BCF    FA6.6
02E7E:  BCF    FA6.7
02E80:  BSF    FA6.0
02E82:  MOVF   FA8,W
02E84:  BTFSC  x0B.6
02E86:  BSF    FF2.6
02E88:  BTFSC  x0B.7
02E8A:  BSF    FF2.7
02E8C:  MOVWF  FEF
....................       CiclosPersonalizados[i].Minutoest=read_eeprom(101+(i*8));  
02E8E:  MOVLB  3
02E90:  MOVF   x4A,W
02E92:  MULLW  0A
02E94:  MOVF   FF3,W
02E96:  MOVLB  7
02E98:  CLRF   x09
02E9A:  MOVWF  x08
02E9C:  MOVLW  09
02E9E:  ADDWF  x08,W
02EA0:  MOVWF  01
02EA2:  MOVLW  00
02EA4:  ADDWFC x09,W
02EA6:  MOVWF  03
02EA8:  MOVF   01,W
02EAA:  ADDLW  E0
02EAC:  MOVWF  FE9
02EAE:  MOVLW  06
02EB0:  ADDWFC 03,W
02EB2:  MOVWF  FEA
02EB4:  MOVLB  3
02EB6:  MOVF   x4A,W
02EB8:  MULLW  08
02EBA:  MOVF   FF3,W
02EBC:  ADDLW  65
02EBE:  MOVLB  7
02EC0:  MOVWF  x0A
02EC2:  MOVFF  FF2,70B
02EC6:  BCF    FF2.6
02EC8:  BCF    FF2.7
02ECA:  CLRF   FAA
02ECC:  MOVFF  70A,FA9
02ED0:  BCF    FA6.6
02ED2:  BCF    FA6.7
02ED4:  BSF    FA6.0
02ED6:  MOVF   FA8,W
02ED8:  BTFSC  x0B.6
02EDA:  BSF    FF2.6
02EDC:  BTFSC  x0B.7
02EDE:  BSF    FF2.7
02EE0:  MOVWF  FEF
....................       CiclosPersonalizados[i].Segundoest=read_eeprom(102+(i*8));  
02EE2:  MOVLB  3
02EE4:  MOVF   x4A,W
02EE6:  MULLW  0A
02EE8:  MOVF   FF3,W
02EEA:  MOVLB  7
02EEC:  CLRF   x09
02EEE:  MOVWF  x08
02EF0:  MOVLW  03
02EF2:  ADDWF  x08,W
02EF4:  MOVWF  01
02EF6:  MOVLW  00
02EF8:  ADDWFC x09,W
02EFA:  MOVWF  03
02EFC:  MOVF   01,W
02EFE:  ADDLW  E0
02F00:  MOVWF  FE9
02F02:  MOVLW  06
02F04:  ADDWFC 03,W
02F06:  MOVWF  FEA
02F08:  MOVLB  3
02F0A:  MOVF   x4A,W
02F0C:  MULLW  08
02F0E:  MOVF   FF3,W
02F10:  ADDLW  66
02F12:  MOVLB  7
02F14:  MOVWF  x0A
02F16:  MOVFF  FF2,70B
02F1A:  BCF    FF2.6
02F1C:  BCF    FF2.7
02F1E:  CLRF   FAA
02F20:  MOVFF  70A,FA9
02F24:  BCF    FA6.6
02F26:  BCF    FA6.7
02F28:  BSF    FA6.0
02F2A:  MOVF   FA8,W
02F2C:  BTFSC  x0B.6
02F2E:  BSF    FF2.6
02F30:  BTFSC  x0B.7
02F32:  BSF    FF2.7
02F34:  MOVWF  FEF
....................       CiclosPersonalizados[i].Minutosec=read_eeprom(103+(i*8));  
02F36:  MOVLB  3
02F38:  MOVF   x4A,W
02F3A:  MULLW  0A
02F3C:  MOVF   FF3,W
02F3E:  MOVLB  7
02F40:  CLRF   x09
02F42:  MOVWF  x08
02F44:  MOVLW  04
02F46:  ADDWF  x08,W
02F48:  MOVWF  01
02F4A:  MOVLW  00
02F4C:  ADDWFC x09,W
02F4E:  MOVWF  03
02F50:  MOVF   01,W
02F52:  ADDLW  E0
02F54:  MOVWF  FE9
02F56:  MOVLW  06
02F58:  ADDWFC 03,W
02F5A:  MOVWF  FEA
02F5C:  MOVLB  3
02F5E:  MOVF   x4A,W
02F60:  MULLW  08
02F62:  MOVF   FF3,W
02F64:  ADDLW  67
02F66:  MOVLB  7
02F68:  MOVWF  x0A
02F6A:  MOVFF  FF2,70B
02F6E:  BCF    FF2.6
02F70:  BCF    FF2.7
02F72:  CLRF   FAA
02F74:  MOVFF  70A,FA9
02F78:  BCF    FA6.6
02F7A:  BCF    FA6.7
02F7C:  BSF    FA6.0
02F7E:  MOVF   FA8,W
02F80:  BTFSC  x0B.6
02F82:  BSF    FF2.6
02F84:  BTFSC  x0B.7
02F86:  BSF    FF2.7
02F88:  MOVWF  FEF
....................       CiclosPersonalizados[i].Segundosec=read_eeprom(104+(i*8));  
02F8A:  MOVLB  3
02F8C:  MOVF   x4A,W
02F8E:  MULLW  0A
02F90:  MOVF   FF3,W
02F92:  MOVLB  7
02F94:  CLRF   x09
02F96:  MOVWF  x08
02F98:  MOVLW  05
02F9A:  ADDWF  x08,W
02F9C:  MOVWF  01
02F9E:  MOVLW  00
02FA0:  ADDWFC x09,W
02FA2:  MOVWF  03
02FA4:  MOVF   01,W
02FA6:  ADDLW  E0
02FA8:  MOVWF  FE9
02FAA:  MOVLW  06
02FAC:  ADDWFC 03,W
02FAE:  MOVWF  FEA
02FB0:  MOVLB  3
02FB2:  MOVF   x4A,W
02FB4:  MULLW  08
02FB6:  MOVF   FF3,W
02FB8:  ADDLW  68
02FBA:  MOVLB  7
02FBC:  MOVWF  x0A
02FBE:  MOVFF  FF2,70B
02FC2:  BCF    FF2.6
02FC4:  BCF    FF2.7
02FC6:  CLRF   FAA
02FC8:  MOVFF  70A,FA9
02FCC:  BCF    FA6.6
02FCE:  BCF    FA6.7
02FD0:  BSF    FA6.0
02FD2:  MOVF   FA8,W
02FD4:  BTFSC  x0B.6
02FD6:  BSF    FF2.6
02FD8:  BTFSC  x0B.7
02FDA:  BSF    FF2.7
02FDC:  MOVWF  FEF
....................       CiclosPersonalizados[i].PulsosVacio=read_eeprom(105+(i*8));  
02FDE:  MOVLB  3
02FE0:  MOVF   x4A,W
02FE2:  MULLW  0A
02FE4:  MOVF   FF3,W
02FE6:  MOVLB  7
02FE8:  CLRF   x09
02FEA:  MOVWF  x08
02FEC:  MOVLW  06
02FEE:  ADDWF  x08,W
02FF0:  MOVWF  01
02FF2:  MOVLW  00
02FF4:  ADDWFC x09,W
02FF6:  MOVWF  03
02FF8:  MOVF   01,W
02FFA:  ADDLW  E0
02FFC:  MOVWF  FE9
02FFE:  MOVLW  06
03000:  ADDWFC 03,W
03002:  MOVWF  FEA
03004:  MOVLB  3
03006:  MOVF   x4A,W
03008:  MULLW  08
0300A:  MOVF   FF3,W
0300C:  ADDLW  69
0300E:  MOVLB  7
03010:  MOVWF  x0A
03012:  MOVFF  FF2,70B
03016:  BCF    FF2.6
03018:  BCF    FF2.7
0301A:  CLRF   FAA
0301C:  MOVFF  70A,FA9
03020:  BCF    FA6.6
03022:  BCF    FA6.7
03024:  BSF    FA6.0
03026:  MOVF   FA8,W
03028:  BTFSC  x0B.6
0302A:  BSF    FF2.6
0302C:  BTFSC  x0B.7
0302E:  BSF    FF2.7
03030:  MOVWF  FEF
....................       CiclosPersonalizados[i].NivelVacio=read_eeprom(106+(i*8));  
03032:  MOVLB  3
03034:  MOVF   x4A,W
03036:  MULLW  0A
03038:  MOVF   FF3,W
0303A:  MOVLB  7
0303C:  CLRF   x09
0303E:  MOVWF  x08
03040:  MOVLW  07
03042:  ADDWF  x08,W
03044:  MOVWF  01
03046:  MOVLW  00
03048:  ADDWFC x09,W
0304A:  MOVWF  03
0304C:  MOVF   01,W
0304E:  ADDLW  E0
03050:  MOVWF  FE9
03052:  MOVLW  06
03054:  ADDWFC 03,W
03056:  MOVWF  FEA
03058:  MOVLB  3
0305A:  MOVF   x4A,W
0305C:  MULLW  08
0305E:  MOVF   FF3,W
03060:  ADDLW  6A
03062:  MOVLB  7
03064:  MOVWF  x0A
03066:  MOVFF  FF2,70B
0306A:  BCF    FF2.6
0306C:  BCF    FF2.7
0306E:  CLRF   FAA
03070:  MOVFF  70A,FA9
03074:  BCF    FA6.6
03076:  BCF    FA6.7
03078:  BSF    FA6.0
0307A:  MOVF   FA8,W
0307C:  BTFSC  x0B.6
0307E:  BSF    FF2.6
03080:  BTFSC  x0B.7
03082:  BSF    FF2.7
03084:  MOVWF  FEF
....................       CiclosPersonalizados[i].NivelDesfogue=read_eeprom(107+(i*8));  
03086:  MOVLB  3
03088:  MOVF   x4A,W
0308A:  MULLW  0A
0308C:  MOVF   FF3,W
0308E:  MOVLB  7
03090:  CLRF   x09
03092:  MOVWF  x08
03094:  MOVLW  08
03096:  ADDWF  x08,W
03098:  MOVWF  01
0309A:  MOVLW  00
0309C:  ADDWFC x09,W
0309E:  MOVWF  03
030A0:  MOVF   01,W
030A2:  ADDLW  E0
030A4:  MOVWF  FE9
030A6:  MOVLW  06
030A8:  ADDWFC 03,W
030AA:  MOVWF  FEA
030AC:  MOVLB  3
030AE:  MOVF   x4A,W
030B0:  MULLW  08
030B2:  MOVF   FF3,W
030B4:  ADDLW  6B
030B6:  MOVLB  7
030B8:  MOVWF  x0A
030BA:  MOVFF  FF2,70B
030BE:  BCF    FF2.6
030C0:  BCF    FF2.7
030C2:  CLRF   FAA
030C4:  MOVFF  70A,FA9
030C8:  BCF    FA6.6
030CA:  BCF    FA6.7
030CC:  BSF    FA6.0
030CE:  MOVF   FA8,W
030D0:  BTFSC  x0B.6
030D2:  BSF    FF2.6
030D4:  BTFSC  x0B.7
030D6:  BSF    FF2.7
030D8:  MOVWF  FEF
....................        
....................       if(CiclosPersonalizados[i].Temperatura>134 || CiclosPersonalizados[i].Temperatura<105) 
030DA:  MOVLB  3
030DC:  MOVF   x4A,W
030DE:  MULLW  0A
030E0:  MOVF   FF3,W
030E2:  MOVLB  7
030E4:  CLRF   x09
030E6:  MOVWF  x08
030E8:  MOVLW  E0
030EA:  ADDWF  x08,W
030EC:  MOVWF  FE9
030EE:  MOVLW  06
030F0:  ADDWFC x09,W
030F2:  MOVWF  FEA
030F4:  MOVF   FEF,W
030F6:  SUBLW  86
030F8:  BNC   311A
030FA:  MOVLB  3
030FC:  MOVF   x4A,W
030FE:  MULLW  0A
03100:  MOVF   FF3,W
03102:  MOVLB  7
03104:  CLRF   x09
03106:  MOVWF  x08
03108:  MOVLW  E0
0310A:  ADDWF  x08,W
0310C:  MOVWF  FE9
0310E:  MOVLW  06
03110:  ADDWFC x09,W
03112:  MOVWF  FEA
03114:  MOVF   FEF,W
03116:  SUBLW  68
03118:  BNC   3138
....................          CiclosPersonalizados[i].Temperatura=121; 
0311A:  MOVLB  3
0311C:  MOVF   x4A,W
0311E:  MULLW  0A
03120:  MOVF   FF3,W
03122:  MOVLB  7
03124:  CLRF   x09
03126:  MOVWF  x08
03128:  MOVLW  E0
0312A:  ADDWF  x08,W
0312C:  MOVWF  FE9
0312E:  MOVLW  06
03130:  ADDWFC x09,W
03132:  MOVWF  FEA
03134:  MOVLW  79
03136:  MOVWF  FEF
....................       if(CiclosPersonalizados[i].Minutoest>59) 
03138:  MOVLB  3
0313A:  MOVF   x4A,W
0313C:  MULLW  0A
0313E:  MOVF   FF3,W
03140:  MOVLB  7
03142:  CLRF   x09
03144:  MOVWF  x08
03146:  MOVLW  09
03148:  ADDWF  x08,W
0314A:  MOVWF  01
0314C:  MOVLW  00
0314E:  ADDWFC x09,W
03150:  MOVWF  03
03152:  MOVF   01,W
03154:  ADDLW  E0
03156:  MOVWF  FE9
03158:  MOVLW  06
0315A:  ADDWFC 03,W
0315C:  MOVWF  FEA
0315E:  MOVF   FEF,W
03160:  SUBLW  3B
03162:  BC    318E
....................          CiclosPersonalizados[i].Minutoest=1; 
03164:  MOVLB  3
03166:  MOVF   x4A,W
03168:  MULLW  0A
0316A:  MOVF   FF3,W
0316C:  MOVLB  7
0316E:  CLRF   x09
03170:  MOVWF  x08
03172:  MOVLW  09
03174:  ADDWF  x08,W
03176:  MOVWF  01
03178:  MOVLW  00
0317A:  ADDWFC x09,W
0317C:  MOVWF  03
0317E:  MOVF   01,W
03180:  ADDLW  E0
03182:  MOVWF  FE9
03184:  MOVLW  06
03186:  ADDWFC 03,W
03188:  MOVWF  FEA
0318A:  MOVLW  01
0318C:  MOVWF  FEF
....................       if(CiclosPersonalizados[i].Segundoest>59) 
0318E:  MOVLB  3
03190:  MOVF   x4A,W
03192:  MULLW  0A
03194:  MOVF   FF3,W
03196:  MOVLB  7
03198:  CLRF   x09
0319A:  MOVWF  x08
0319C:  MOVLW  03
0319E:  ADDWF  x08,W
031A0:  MOVWF  01
031A2:  MOVLW  00
031A4:  ADDWFC x09,W
031A6:  MOVWF  03
031A8:  MOVF   01,W
031AA:  ADDLW  E0
031AC:  MOVWF  FE9
031AE:  MOVLW  06
031B0:  ADDWFC 03,W
031B2:  MOVWF  FEA
031B4:  MOVF   FEF,W
031B6:  SUBLW  3B
031B8:  BC    31E2
....................          CiclosPersonalizados[i].Segundoest=0; 
031BA:  MOVLB  3
031BC:  MOVF   x4A,W
031BE:  MULLW  0A
031C0:  MOVF   FF3,W
031C2:  MOVLB  7
031C4:  CLRF   x09
031C6:  MOVWF  x08
031C8:  MOVLW  03
031CA:  ADDWF  x08,W
031CC:  MOVWF  01
031CE:  MOVLW  00
031D0:  ADDWFC x09,W
031D2:  MOVWF  03
031D4:  MOVF   01,W
031D6:  ADDLW  E0
031D8:  MOVWF  FE9
031DA:  MOVLW  06
031DC:  ADDWFC 03,W
031DE:  MOVWF  FEA
031E0:  CLRF   FEF
....................       if(CiclosPersonalizados[i].Minutosec>59) 
031E2:  MOVLB  3
031E4:  MOVF   x4A,W
031E6:  MULLW  0A
031E8:  MOVF   FF3,W
031EA:  MOVLB  7
031EC:  CLRF   x09
031EE:  MOVWF  x08
031F0:  MOVLW  04
031F2:  ADDWF  x08,W
031F4:  MOVWF  01
031F6:  MOVLW  00
031F8:  ADDWFC x09,W
031FA:  MOVWF  03
031FC:  MOVF   01,W
031FE:  ADDLW  E0
03200:  MOVWF  FE9
03202:  MOVLW  06
03204:  ADDWFC 03,W
03206:  MOVWF  FEA
03208:  MOVF   FEF,W
0320A:  SUBLW  3B
0320C:  BC    3238
....................          CiclosPersonalizados[i].Minutosec=1;    
0320E:  MOVLB  3
03210:  MOVF   x4A,W
03212:  MULLW  0A
03214:  MOVF   FF3,W
03216:  MOVLB  7
03218:  CLRF   x09
0321A:  MOVWF  x08
0321C:  MOVLW  04
0321E:  ADDWF  x08,W
03220:  MOVWF  01
03222:  MOVLW  00
03224:  ADDWFC x09,W
03226:  MOVWF  03
03228:  MOVF   01,W
0322A:  ADDLW  E0
0322C:  MOVWF  FE9
0322E:  MOVLW  06
03230:  ADDWFC 03,W
03232:  MOVWF  FEA
03234:  MOVLW  01
03236:  MOVWF  FEF
....................       if(CiclosPersonalizados[i].Segundoest>59) 
03238:  MOVLB  3
0323A:  MOVF   x4A,W
0323C:  MULLW  0A
0323E:  MOVF   FF3,W
03240:  MOVLB  7
03242:  CLRF   x09
03244:  MOVWF  x08
03246:  MOVLW  03
03248:  ADDWF  x08,W
0324A:  MOVWF  01
0324C:  MOVLW  00
0324E:  ADDWFC x09,W
03250:  MOVWF  03
03252:  MOVF   01,W
03254:  ADDLW  E0
03256:  MOVWF  FE9
03258:  MOVLW  06
0325A:  ADDWFC 03,W
0325C:  MOVWF  FEA
0325E:  MOVF   FEF,W
03260:  SUBLW  3B
03262:  BC    328C
....................          CiclosPersonalizados[i].Segundoest=0; 
03264:  MOVLB  3
03266:  MOVF   x4A,W
03268:  MULLW  0A
0326A:  MOVF   FF3,W
0326C:  MOVLB  7
0326E:  CLRF   x09
03270:  MOVWF  x08
03272:  MOVLW  03
03274:  ADDWF  x08,W
03276:  MOVWF  01
03278:  MOVLW  00
0327A:  ADDWFC x09,W
0327C:  MOVWF  03
0327E:  MOVF   01,W
03280:  ADDLW  E0
03282:  MOVWF  FE9
03284:  MOVLW  06
03286:  ADDWFC 03,W
03288:  MOVWF  FEA
0328A:  CLRF   FEF
....................       if(CiclosPersonalizados[i].Segundosec>59) 
0328C:  MOVLB  3
0328E:  MOVF   x4A,W
03290:  MULLW  0A
03292:  MOVF   FF3,W
03294:  MOVLB  7
03296:  CLRF   x09
03298:  MOVWF  x08
0329A:  MOVLW  05
0329C:  ADDWF  x08,W
0329E:  MOVWF  01
032A0:  MOVLW  00
032A2:  ADDWFC x09,W
032A4:  MOVWF  03
032A6:  MOVF   01,W
032A8:  ADDLW  E0
032AA:  MOVWF  FE9
032AC:  MOVLW  06
032AE:  ADDWFC 03,W
032B0:  MOVWF  FEA
032B2:  MOVF   FEF,W
032B4:  SUBLW  3B
032B6:  BC    32E0
....................          CiclosPersonalizados[i].Segundosec=0;       
032B8:  MOVLB  3
032BA:  MOVF   x4A,W
032BC:  MULLW  0A
032BE:  MOVF   FF3,W
032C0:  MOVLB  7
032C2:  CLRF   x09
032C4:  MOVWF  x08
032C6:  MOVLW  05
032C8:  ADDWF  x08,W
032CA:  MOVWF  01
032CC:  MOVLW  00
032CE:  ADDWFC x09,W
032D0:  MOVWF  03
032D2:  MOVF   01,W
032D4:  ADDLW  E0
032D6:  MOVWF  FE9
032D8:  MOVLW  06
032DA:  ADDWFC 03,W
032DC:  MOVWF  FEA
032DE:  CLRF   FEF
....................       if(CiclosPersonalizados[i].PulsosVacio>8) 
032E0:  MOVLB  3
032E2:  MOVF   x4A,W
032E4:  MULLW  0A
032E6:  MOVF   FF3,W
032E8:  MOVLB  7
032EA:  CLRF   x09
032EC:  MOVWF  x08
032EE:  MOVLW  06
032F0:  ADDWF  x08,W
032F2:  MOVWF  01
032F4:  MOVLW  00
032F6:  ADDWFC x09,W
032F8:  MOVWF  03
032FA:  MOVF   01,W
032FC:  ADDLW  E0
032FE:  MOVWF  FE9
03300:  MOVLW  06
03302:  ADDWFC 03,W
03304:  MOVWF  FEA
03306:  MOVF   FEF,W
03308:  SUBLW  08
0330A:  BC    3336
....................          CiclosPersonalizados[i].PulsosVacio=2; 
0330C:  MOVLB  3
0330E:  MOVF   x4A,W
03310:  MULLW  0A
03312:  MOVF   FF3,W
03314:  MOVLB  7
03316:  CLRF   x09
03318:  MOVWF  x08
0331A:  MOVLW  06
0331C:  ADDWF  x08,W
0331E:  MOVWF  01
03320:  MOVLW  00
03322:  ADDWFC x09,W
03324:  MOVWF  03
03326:  MOVF   01,W
03328:  ADDLW  E0
0332A:  MOVWF  FE9
0332C:  MOVLW  06
0332E:  ADDWFC 03,W
03330:  MOVWF  FEA
03332:  MOVLW  02
03334:  MOVWF  FEF
....................       if(CiclosPersonalizados[i].NivelVacio>99 || CiclosPersonalizados[i].NivelVacio<10) 
03336:  MOVLB  3
03338:  MOVF   x4A,W
0333A:  MULLW  0A
0333C:  MOVF   FF3,W
0333E:  MOVLB  7
03340:  CLRF   x09
03342:  MOVWF  x08
03344:  MOVLW  07
03346:  ADDWF  x08,W
03348:  MOVWF  01
0334A:  MOVLW  00
0334C:  ADDWFC x09,W
0334E:  MOVWF  03
03350:  MOVF   01,W
03352:  ADDLW  E0
03354:  MOVWF  FE9
03356:  MOVLW  06
03358:  ADDWFC 03,W
0335A:  MOVWF  FEA
0335C:  MOVF   FEF,W
0335E:  SUBLW  63
03360:  BNC   338E
03362:  MOVLB  3
03364:  MOVF   x4A,W
03366:  MULLW  0A
03368:  MOVF   FF3,W
0336A:  MOVLB  7
0336C:  CLRF   x09
0336E:  MOVWF  x08
03370:  MOVLW  07
03372:  ADDWF  x08,W
03374:  MOVWF  01
03376:  MOVLW  00
03378:  ADDWFC x09,W
0337A:  MOVWF  03
0337C:  MOVF   01,W
0337E:  ADDLW  E0
03380:  MOVWF  FE9
03382:  MOVLW  06
03384:  ADDWFC 03,W
03386:  MOVWF  FEA
03388:  MOVF   FEF,W
0338A:  SUBLW  09
0338C:  BNC   33B8
....................          CiclosPersonalizados[i].NivelVacio=25;    
0338E:  MOVLB  3
03390:  MOVF   x4A,W
03392:  MULLW  0A
03394:  MOVF   FF3,W
03396:  MOVLB  7
03398:  CLRF   x09
0339A:  MOVWF  x08
0339C:  MOVLW  07
0339E:  ADDWF  x08,W
033A0:  MOVWF  01
033A2:  MOVLW  00
033A4:  ADDWFC x09,W
033A6:  MOVWF  03
033A8:  MOVF   01,W
033AA:  ADDLW  E0
033AC:  MOVWF  FE9
033AE:  MOVLW  06
033B0:  ADDWFC 03,W
033B2:  MOVWF  FEA
033B4:  MOVLW  19
033B6:  MOVWF  FEF
....................       if(CiclosPersonalizados[i].NivelDesfogue>6) 
033B8:  MOVLB  3
033BA:  MOVF   x4A,W
033BC:  MULLW  0A
033BE:  MOVF   FF3,W
033C0:  MOVLB  7
033C2:  CLRF   x09
033C4:  MOVWF  x08
033C6:  MOVLW  08
033C8:  ADDWF  x08,W
033CA:  MOVWF  01
033CC:  MOVLW  00
033CE:  ADDWFC x09,W
033D0:  MOVWF  03
033D2:  MOVF   01,W
033D4:  ADDLW  E0
033D6:  MOVWF  FE9
033D8:  MOVLW  06
033DA:  ADDWFC 03,W
033DC:  MOVWF  FEA
033DE:  MOVF   FEF,W
033E0:  SUBLW  06
033E2:  BC    340E
....................          CiclosPersonalizados[i].NivelDesfogue=6; 
033E4:  MOVLB  3
033E6:  MOVF   x4A,W
033E8:  MULLW  0A
033EA:  MOVF   FF3,W
033EC:  MOVLB  7
033EE:  CLRF   x09
033F0:  MOVWF  x08
033F2:  MOVLW  08
033F4:  ADDWF  x08,W
033F6:  MOVWF  01
033F8:  MOVLW  00
033FA:  ADDWFC x09,W
033FC:  MOVWF  03
033FE:  MOVF   01,W
03400:  ADDLW  E0
03402:  MOVWF  FE9
03404:  MOVLW  06
03406:  ADDWFC 03,W
03408:  MOVWF  FEA
0340A:  MOVLW  06
0340C:  MOVWF  FEF
....................    } 
0340E:  MOVLB  3
03410:  INCF   x4A,F
03412:  BRA    2E40
....................     
....................    diaCiclos=read_ext_eeprom(2+(cicloVisto*320)); 
03414:  MOVLB  7
03416:  CLRF   x1F
03418:  MOVFF  354,71E
0341C:  MOVLW  01
0341E:  MOVWF  x21
03420:  MOVLW  40
03422:  MOVWF  x20
03424:  MOVLB  0
03426:  CALL   2494
0342A:  MOVFF  02,03
0342E:  MOVF   01,W
03430:  ADDLW  02
03432:  MOVLB  7
03434:  MOVWF  x08
03436:  MOVLW  00
03438:  ADDWFC 02,W
0343A:  MOVWF  x09
0343C:  MOVWF  x0E
0343E:  MOVFF  708,70D
03442:  MOVLB  0
03444:  CALL   2598
03448:  MOVFF  01,403
....................    if(diaCiclos>31) 
0344C:  MOVLB  4
0344E:  MOVF   x03,W
03450:  SUBLW  1F
03452:  BC    3458
....................       diaCiclos=1; 
03454:  MOVLW  01
03456:  MOVWF  x03
....................    mesCiclos=read_ext_eeprom(3+(cicloVisto*320)); 
03458:  MOVLB  7
0345A:  CLRF   x1F
0345C:  MOVFF  354,71E
03460:  MOVLW  01
03462:  MOVWF  x21
03464:  MOVLW  40
03466:  MOVWF  x20
03468:  MOVLB  0
0346A:  CALL   2494
0346E:  MOVFF  02,03
03472:  MOVF   01,W
03474:  ADDLW  03
03476:  MOVLB  7
03478:  MOVWF  x08
0347A:  MOVLW  00
0347C:  ADDWFC 02,W
0347E:  MOVWF  x09
03480:  MOVWF  x0E
03482:  MOVFF  708,70D
03486:  MOVLB  0
03488:  CALL   2598
0348C:  MOVFF  01,404
....................    if(mesCiclos>12) 
03490:  MOVLB  4
03492:  MOVF   x04,W
03494:  SUBLW  0C
03496:  BC    349C
....................       mesCiclos=1; 
03498:  MOVLW  01
0349A:  MOVWF  x04
....................    yearCiclos=read_ext_eeprom(4+(cicloVisto*320)); 
0349C:  MOVLB  7
0349E:  CLRF   x1F
034A0:  MOVFF  354,71E
034A4:  MOVLW  01
034A6:  MOVWF  x21
034A8:  MOVLW  40
034AA:  MOVWF  x20
034AC:  MOVLB  0
034AE:  CALL   2494
034B2:  MOVFF  02,03
034B6:  MOVF   01,W
034B8:  ADDLW  04
034BA:  MOVLB  7
034BC:  MOVWF  x08
034BE:  MOVLW  00
034C0:  ADDWFC 02,W
034C2:  MOVWF  x09
034C4:  MOVWF  x0E
034C6:  MOVFF  708,70D
034CA:  MOVLB  0
034CC:  CALL   2598
034D0:  MOVFF  01,405
....................    if(yearCiclos>99) 
034D4:  MOVLB  4
034D6:  MOVF   x05,W
034D8:  SUBLW  63
034DA:  BC    34E0
....................       yearCiclos=19; 
034DC:  MOVLW  13
034DE:  MOVWF  x05
....................    cicloCiclos=read_ext_eeprom(1+(cicloVisto*320)); 
034E0:  MOVLB  7
034E2:  CLRF   x1F
034E4:  MOVFF  354,71E
034E8:  MOVLW  01
034EA:  MOVWF  x21
034EC:  MOVLW  40
034EE:  MOVWF  x20
034F0:  MOVLB  0
034F2:  CALL   2494
034F6:  MOVFF  02,03
034FA:  MOVF   01,W
034FC:  ADDLW  01
034FE:  MOVLB  7
03500:  MOVWF  x08
03502:  MOVLW  00
03504:  ADDWFC 02,W
03506:  MOVWF  x09
03508:  MOVWF  x0E
0350A:  MOVFF  708,70D
0350E:  MOVLB  0
03510:  CALL   2598
03514:  MOVFF  01,407
....................    if(cicloCiclos>20) 
03518:  MOVLB  4
0351A:  MOVF   x07,W
0351C:  SUBLW  14
0351E:  BC    3524
....................       cicloCiclos=1; 
03520:  MOVLW  01
03522:  MOVWF  x07
....................    usuarioCiclos=read_ext_eeprom((cicloVisto*320)); 
03524:  MOVLB  7
03526:  CLRF   x1F
03528:  MOVFF  354,71E
0352C:  MOVLW  01
0352E:  MOVWF  x21
03530:  MOVLW  40
03532:  MOVWF  x20
03534:  MOVLB  0
03536:  CALL   2494
0353A:  MOVFF  02,709
0353E:  MOVFF  01,708
03542:  MOVFF  02,70E
03546:  MOVFF  01,70D
0354A:  CALL   2598
0354E:  MOVFF  01,406
....................    if(usuarioCiclos>10) 
03552:  MOVLB  4
03554:  MOVF   x06,W
03556:  SUBLW  0A
03558:  BC    355E
....................       usuarioCiclos=1; 
0355A:  MOVLW  01
0355C:  MOVWF  x06
....................    for(i=0;i<7;i++){//Lee Valores para completar la Tabla 
0355E:  MOVLB  3
03560:  CLRF   x4A
03562:  MOVF   x4A,W
03564:  SUBLW  06
03566:  BTFSS  FD8.0
03568:  BRA    3AB2
....................       horaCiclos[i]=read_ext_eeprom((cicloVisto*320)+11+((cicloVisualizado+i)*9)); 
0356A:  CLRF   03
0356C:  MOVF   x4A,W
0356E:  ADDLW  EE
03570:  MOVWF  01
03572:  MOVLW  03
03574:  ADDWFC 03,F
03576:  MOVFF  01,708
0357A:  MOVLB  7
0357C:  MOVFF  03,709
03580:  CLRF   x1F
03582:  MOVFF  354,71E
03586:  MOVLW  01
03588:  MOVWF  x21
0358A:  MOVLW  40
0358C:  MOVWF  x20
0358E:  MOVLB  0
03590:  CALL   2494
03594:  MOVFF  02,70B
03598:  MOVFF  01,70A
0359C:  MOVLW  0B
0359E:  MOVLB  7
035A0:  ADDWF  x0A,F
035A2:  MOVLW  00
035A4:  ADDWFC x0B,F
035A6:  MOVLB  3
035A8:  MOVF   x4A,W
035AA:  ADDWF  x55,W
035AC:  MULLW  09
035AE:  MOVF   FF3,W
035B0:  MOVLB  7
035B2:  ADDWF  x0A,F
035B4:  MOVLW  00
035B6:  ADDWFC x0B,F
035B8:  MOVFF  70B,70E
035BC:  MOVFF  70A,70D
035C0:  MOVLB  0
035C2:  CALL   2598
035C6:  MOVFF  709,FEA
035CA:  MOVFF  708,FE9
035CE:  MOVFF  01,FEF
....................       if(horaCiclos[i]>24) 
035D2:  CLRF   03
035D4:  MOVLB  3
035D6:  MOVF   x4A,W
035D8:  ADDLW  EE
035DA:  MOVWF  FE9
035DC:  MOVLW  03
035DE:  ADDWFC 03,W
035E0:  MOVWF  FEA
035E2:  MOVF   FEF,W
035E4:  SUBLW  18
035E6:  BC    35F8
....................          horaCiclos[i]=0; 
035E8:  CLRF   03
035EA:  MOVF   x4A,W
035EC:  ADDLW  EE
035EE:  MOVWF  FE9
035F0:  MOVLW  03
035F2:  ADDWFC 03,W
035F4:  MOVWF  FEA
035F6:  CLRF   FEF
....................       minutoCiclos[i]=read_ext_eeprom((cicloVisto*320)+12+((cicloVisualizado+i)*9)); 
035F8:  CLRF   03
035FA:  MOVF   x4A,W
035FC:  ADDLW  F5
035FE:  MOVWF  01
03600:  MOVLW  03
03602:  ADDWFC 03,F
03604:  MOVFF  01,708
03608:  MOVLB  7
0360A:  MOVFF  03,709
0360E:  CLRF   x1F
03610:  MOVFF  354,71E
03614:  MOVLW  01
03616:  MOVWF  x21
03618:  MOVLW  40
0361A:  MOVWF  x20
0361C:  MOVLB  0
0361E:  CALL   2494
03622:  MOVFF  02,70B
03626:  MOVFF  01,70A
0362A:  MOVLW  0C
0362C:  MOVLB  7
0362E:  ADDWF  x0A,F
03630:  MOVLW  00
03632:  ADDWFC x0B,F
03634:  MOVLB  3
03636:  MOVF   x4A,W
03638:  ADDWF  x55,W
0363A:  MULLW  09
0363C:  MOVF   FF3,W
0363E:  MOVLB  7
03640:  ADDWF  x0A,F
03642:  MOVLW  00
03644:  ADDWFC x0B,F
03646:  MOVFF  70B,70E
0364A:  MOVFF  70A,70D
0364E:  MOVLB  0
03650:  CALL   2598
03654:  MOVFF  709,FEA
03658:  MOVFF  708,FE9
0365C:  MOVFF  01,FEF
....................       if(minutoCiclos[i]>59) 
03660:  CLRF   03
03662:  MOVLB  3
03664:  MOVF   x4A,W
03666:  ADDLW  F5
03668:  MOVWF  FE9
0366A:  MOVLW  03
0366C:  ADDWFC 03,W
0366E:  MOVWF  FEA
03670:  MOVF   FEF,W
03672:  SUBLW  3B
03674:  BC    3686
....................          minutoCiclos[i]=0; 
03676:  CLRF   03
03678:  MOVF   x4A,W
0367A:  ADDLW  F5
0367C:  MOVWF  FE9
0367E:  MOVLW  03
03680:  ADDWFC 03,W
03682:  MOVWF  FEA
03684:  CLRF   FEF
....................       TCiclos[i]=read_ext_eeprom((cicloVisto*320)+5+((cicloVisualizado+i)*9))+inttofloat(read_ext_eeprom((cicloVisto*320)+6+((cicloVisualizado+i)*9))); 
03686:  MOVF   x4A,W
03688:  MULLW  04
0368A:  MOVF   FF3,W
0368C:  CLRF   03
0368E:  ADDLW  B6
03690:  MOVWF  01
03692:  MOVLW  03
03694:  ADDWFC 03,F
03696:  MOVFF  01,708
0369A:  MOVLB  7
0369C:  MOVFF  03,709
036A0:  CLRF   x1F
036A2:  MOVFF  354,71E
036A6:  MOVLW  01
036A8:  MOVWF  x21
036AA:  MOVLW  40
036AC:  MOVWF  x20
036AE:  MOVLB  0
036B0:  CALL   2494
036B4:  MOVFF  02,70B
036B8:  MOVFF  01,70A
036BC:  MOVLW  05
036BE:  MOVLB  7
036C0:  ADDWF  x0A,F
036C2:  MOVLW  00
036C4:  ADDWFC x0B,F
036C6:  MOVLB  3
036C8:  MOVF   x4A,W
036CA:  ADDWF  x55,W
036CC:  MULLW  09
036CE:  MOVF   FF3,W
036D0:  MOVLB  7
036D2:  ADDWF  x0A,F
036D4:  MOVLW  00
036D6:  ADDWFC x0B,F
036D8:  MOVFF  70B,70E
036DC:  MOVFF  70A,70D
036E0:  MOVLB  0
036E2:  CALL   2598
036E6:  MOVFF  01,70A
036EA:  MOVLB  7
036EC:  CLRF   x1F
036EE:  MOVFF  354,71E
036F2:  MOVLW  01
036F4:  MOVWF  x21
036F6:  MOVLW  40
036F8:  MOVWF  x20
036FA:  MOVLB  0
036FC:  CALL   2494
03700:  MOVFF  02,70C
03704:  MOVFF  01,70B
03708:  MOVLW  06
0370A:  MOVLB  7
0370C:  ADDWF  x0B,F
0370E:  MOVLW  00
03710:  ADDWFC x0C,F
03712:  MOVLB  3
03714:  MOVF   x4A,W
03716:  ADDWF  x55,W
03718:  MULLW  09
0371A:  MOVF   FF3,W
0371C:  MOVLB  7
0371E:  ADDWF  x0B,F
03720:  MOVLW  00
03722:  ADDWFC x0C,F
03724:  MOVFF  70C,70E
03728:  MOVFF  70B,70D
0372C:  MOVLB  0
0372E:  CALL   2598
03732:  MOVFF  01,70B
03736:  MOVFF  01,70C
0373A:  CALL   2640
0373E:  MOVFF  00,70B
03742:  MOVFF  01,70C
03746:  MOVFF  02,70D
0374A:  MOVFF  03,70E
0374E:  MOVLB  7
03750:  CLRF   x1B
03752:  MOVFF  70A,71A
03756:  MOVLB  0
03758:  CALL   2088
0375C:  MOVFF  FEA,710
03760:  MOVFF  FE9,70F
03764:  BCF    FD8.1
03766:  MOVFF  03,71D
0376A:  MOVFF  02,71C
0376E:  MOVFF  01,71B
03772:  MOVFF  00,71A
03776:  MOVFF  70E,721
0377A:  MOVFF  70D,720
0377E:  MOVFF  70C,71F
03782:  MOVFF  70B,71E
03786:  CALL   221C
0378A:  MOVFF  710,FEA
0378E:  MOVFF  70F,FE9
03792:  MOVFF  709,FEA
03796:  MOVFF  708,FE9
0379A:  MOVFF  00,FEF
0379E:  MOVFF  01,FEC
037A2:  MOVFF  02,FEC
037A6:  MOVFF  03,FEC
....................       if(TCiclos[i]>200) 
037AA:  MOVLB  3
037AC:  MOVF   x4A,W
037AE:  MULLW  04
037B0:  MOVF   FF3,W
037B2:  CLRF   03
037B4:  ADDLW  B6
037B6:  MOVWF  FE9
037B8:  MOVLW  03
037BA:  ADDWFC 03,W
037BC:  MOVWF  FEA
037BE:  MOVFF  FEF,708
037C2:  MOVFF  FEC,709
037C6:  MOVFF  FEC,70A
037CA:  MOVFF  FEC,70B
037CE:  MOVLB  7
037D0:  CLRF   x11
037D2:  CLRF   x10
037D4:  MOVLW  48
037D6:  MOVWF  x0F
037D8:  MOVLW  86
037DA:  MOVWF  x0E
037DC:  MOVFF  70B,715
037E0:  MOVFF  70A,714
037E4:  MOVFF  709,713
037E8:  MOVFF  708,712
037EC:  MOVLB  0
037EE:  CALL   2680
037F2:  BNC   3812
....................          TCiclos[i]=0; 
037F4:  MOVLB  3
037F6:  MOVF   x4A,W
037F8:  MULLW  04
037FA:  MOVF   FF3,W
037FC:  CLRF   03
037FE:  ADDLW  B6
03800:  MOVWF  FE9
03802:  MOVLW  03
03804:  ADDWFC 03,W
03806:  MOVWF  FEA
03808:  CLRF   FEF
0380A:  CLRF   FEC
0380C:  CLRF   FEC
0380E:  CLRF   FEC
03810:  MOVLB  0
....................       PcCiclos[i]=make16(read_ext_eeprom((cicloVisto*320)+7+((cicloVisualizado+i)*9)),read_ext_eeprom((cicloVisto*320)+8+((cicloVisualizado+i)*9))); 
03812:  BCF    FD8.0
03814:  MOVLB  3
03816:  RLCF   x4A,W
03818:  CLRF   03
0381A:  ADDLW  D2
0381C:  MOVWF  01
0381E:  MOVLW  03
03820:  ADDWFC 03,F
03822:  MOVFF  01,708
03826:  MOVLB  7
03828:  MOVFF  03,709
0382C:  CLRF   x1F
0382E:  MOVFF  354,71E
03832:  MOVLW  01
03834:  MOVWF  x21
03836:  MOVLW  40
03838:  MOVWF  x20
0383A:  MOVLB  0
0383C:  CALL   2494
03840:  MOVFF  02,70B
03844:  MOVFF  01,70A
03848:  MOVLW  07
0384A:  MOVLB  7
0384C:  ADDWF  x0A,F
0384E:  MOVLW  00
03850:  ADDWFC x0B,F
03852:  MOVLB  3
03854:  MOVF   x4A,W
03856:  ADDWF  x55,W
03858:  MULLW  09
0385A:  MOVF   FF3,W
0385C:  MOVLB  7
0385E:  ADDWF  x0A,F
03860:  MOVLW  00
03862:  ADDWFC x0B,F
03864:  MOVFF  70B,70E
03868:  MOVFF  70A,70D
0386C:  MOVLB  0
0386E:  CALL   2598
03872:  MOVFF  01,70A
03876:  MOVLB  7
03878:  CLRF   x1F
0387A:  MOVFF  354,71E
0387E:  MOVLW  01
03880:  MOVWF  x21
03882:  MOVLW  40
03884:  MOVWF  x20
03886:  MOVLB  0
03888:  CALL   2494
0388C:  MOVFF  02,70C
03890:  MOVFF  01,70B
03894:  MOVLW  08
03896:  MOVLB  7
03898:  ADDWF  x0B,F
0389A:  MOVLW  00
0389C:  ADDWFC x0C,F
0389E:  MOVLB  3
038A0:  MOVF   x4A,W
038A2:  ADDWF  x55,W
038A4:  MULLW  09
038A6:  MOVF   FF3,W
038A8:  MOVLB  7
038AA:  ADDWF  x0B,F
038AC:  MOVLW  00
038AE:  ADDWFC x0C,F
038B0:  MOVFF  70C,70E
038B4:  MOVFF  70B,70D
038B8:  MOVLB  0
038BA:  CALL   2598
038BE:  MOVFF  709,FEA
038C2:  MOVFF  708,FE9
038C6:  MOVFF  70A,FEC
038CA:  MOVF   FED,F
038CC:  MOVFF  01,FEF
....................       if(PcCiclos[i]>500) 
038D0:  BCF    FD8.0
038D2:  MOVLB  3
038D4:  RLCF   x4A,W
038D6:  CLRF   03
038D8:  ADDLW  D2
038DA:  MOVWF  FE9
038DC:  MOVLW  03
038DE:  ADDWFC 03,W
038E0:  MOVWF  FEA
038E2:  MOVFF  FEC,709
038E6:  MOVF   FED,F
038E8:  MOVFF  FEF,708
038EC:  MOVLB  7
038EE:  MOVF   x09,W
038F0:  SUBLW  00
038F2:  BC    3918
038F4:  XORLW  FF
038F6:  BNZ   38FE
038F8:  MOVF   x08,W
038FA:  SUBLW  F4
038FC:  BC    3918
....................          PcCiclos[i]=0; 
038FE:  BCF    FD8.0
03900:  MOVLB  3
03902:  RLCF   x4A,W
03904:  CLRF   03
03906:  ADDLW  D2
03908:  MOVWF  FE9
0390A:  MOVLW  03
0390C:  ADDWFC 03,W
0390E:  MOVWF  FEA
03910:  CLRF   FEC
03912:  MOVF   FED,F
03914:  CLRF   FEF
03916:  MOVLB  7
....................       PpcCiclos[i]=make16(read_ext_eeprom((cicloVisto*320)+9+((cicloVisualizado+i)*9)),read_ext_eeprom((cicloVisto*320)+10+((cicloVisualizado+i)*9))); 
03918:  BCF    FD8.0
0391A:  MOVLB  3
0391C:  RLCF   x4A,W
0391E:  CLRF   03
03920:  ADDLW  E0
03922:  MOVWF  01
03924:  MOVLW  03
03926:  ADDWFC 03,F
03928:  MOVFF  01,708
0392C:  MOVLB  7
0392E:  MOVFF  03,709
03932:  CLRF   x1F
03934:  MOVFF  354,71E
03938:  MOVLW  01
0393A:  MOVWF  x21
0393C:  MOVLW  40
0393E:  MOVWF  x20
03940:  MOVLB  0
03942:  CALL   2494
03946:  MOVFF  02,70B
0394A:  MOVFF  01,70A
0394E:  MOVLW  09
03950:  MOVLB  7
03952:  ADDWF  x0A,F
03954:  MOVLW  00
03956:  ADDWFC x0B,F
03958:  MOVLB  3
0395A:  MOVF   x4A,W
0395C:  ADDWF  x55,W
0395E:  MULLW  09
03960:  MOVF   FF3,W
03962:  MOVLB  7
03964:  ADDWF  x0A,F
03966:  MOVLW  00
03968:  ADDWFC x0B,F
0396A:  MOVFF  70B,70E
0396E:  MOVFF  70A,70D
03972:  MOVLB  0
03974:  CALL   2598
03978:  MOVFF  01,70A
0397C:  MOVLB  7
0397E:  CLRF   x1F
03980:  MOVFF  354,71E
03984:  MOVLW  01
03986:  MOVWF  x21
03988:  MOVLW  40
0398A:  MOVWF  x20
0398C:  MOVLB  0
0398E:  CALL   2494
03992:  MOVFF  02,70C
03996:  MOVFF  01,70B
0399A:  MOVLW  0A
0399C:  MOVLB  7
0399E:  ADDWF  x0B,F
039A0:  MOVLW  00
039A2:  ADDWFC x0C,F
039A4:  MOVLB  3
039A6:  MOVF   x4A,W
039A8:  ADDWF  x55,W
039AA:  MULLW  09
039AC:  MOVF   FF3,W
039AE:  MOVLB  7
039B0:  ADDWF  x0B,F
039B2:  MOVLW  00
039B4:  ADDWFC x0C,F
039B6:  MOVFF  70C,70E
039BA:  MOVFF  70B,70D
039BE:  MOVLB  0
039C0:  CALL   2598
039C4:  MOVFF  709,FEA
039C8:  MOVFF  708,FE9
039CC:  MOVFF  70A,FEC
039D0:  MOVF   FED,F
039D2:  MOVFF  01,FEF
....................       if(PpcCiclos[i]>500) 
039D6:  BCF    FD8.0
039D8:  MOVLB  3
039DA:  RLCF   x4A,W
039DC:  CLRF   03
039DE:  ADDLW  E0
039E0:  MOVWF  FE9
039E2:  MOVLW  03
039E4:  ADDWFC 03,W
039E6:  MOVWF  FEA
039E8:  MOVFF  FEC,709
039EC:  MOVF   FED,F
039EE:  MOVFF  FEF,708
039F2:  MOVLB  7
039F4:  MOVF   x09,W
039F6:  SUBLW  00
039F8:  BC    3A1E
039FA:  XORLW  FF
039FC:  BNZ   3A04
039FE:  MOVF   x08,W
03A00:  SUBLW  F4
03A02:  BC    3A1E
....................          PpcCiclos[i]=0; 
03A04:  BCF    FD8.0
03A06:  MOVLB  3
03A08:  RLCF   x4A,W
03A0A:  CLRF   03
03A0C:  ADDLW  E0
03A0E:  MOVWF  FE9
03A10:  MOVLW  03
03A12:  ADDWFC 03,W
03A14:  MOVWF  FEA
03A16:  CLRF   FEC
03A18:  MOVF   FED,F
03A1A:  CLRF   FEF
03A1C:  MOVLB  7
....................       ACiclos[i]=read_ext_eeprom((cicloVisto*320)+13+((cicloVisualizado+i)*9)); 
03A1E:  CLRF   03
03A20:  MOVLB  3
03A22:  MOVF   x4A,W
03A24:  ADDLW  FC
03A26:  MOVWF  01
03A28:  MOVLW  03
03A2A:  ADDWFC 03,F
03A2C:  MOVFF  01,708
03A30:  MOVLB  7
03A32:  MOVFF  03,709
03A36:  CLRF   x1F
03A38:  MOVFF  354,71E
03A3C:  MOVLW  01
03A3E:  MOVWF  x21
03A40:  MOVLW  40
03A42:  MOVWF  x20
03A44:  MOVLB  0
03A46:  CALL   2494
03A4A:  MOVFF  02,70B
03A4E:  MOVFF  01,70A
03A52:  MOVLW  0D
03A54:  MOVLB  7
03A56:  ADDWF  x0A,F
03A58:  MOVLW  00
03A5A:  ADDWFC x0B,F
03A5C:  MOVLB  3
03A5E:  MOVF   x4A,W
03A60:  ADDWF  x55,W
03A62:  MULLW  09
03A64:  MOVF   FF3,W
03A66:  MOVLB  7
03A68:  ADDWF  x0A,F
03A6A:  MOVLW  00
03A6C:  ADDWFC x0B,F
03A6E:  MOVFF  70B,70E
03A72:  MOVFF  70A,70D
03A76:  MOVLB  0
03A78:  CALL   2598
03A7C:  MOVFF  709,FEA
03A80:  MOVFF  708,FE9
03A84:  MOVFF  01,FEF
....................       if(ACiclos[i]>30) 
03A88:  CLRF   03
03A8A:  MOVLB  3
03A8C:  MOVF   x4A,W
03A8E:  ADDLW  FC
03A90:  MOVWF  FE9
03A92:  MOVLW  03
03A94:  ADDWFC 03,W
03A96:  MOVWF  FEA
03A98:  MOVF   FEF,W
03A9A:  SUBLW  1E
03A9C:  BC    3AAE
....................          ACiclos[i]=0; 
03A9E:  CLRF   03
03AA0:  MOVF   x4A,W
03AA2:  ADDLW  FC
03AA4:  MOVWF  FE9
03AA6:  MOVLW  03
03AA8:  ADDWFC 03,W
03AAA:  MOVWF  FEA
03AAC:  CLRF   FEF
....................    } 
03AAE:  INCF   x4A,F
03AB0:  BRA    3562
.................... } 
03AB2:  MOVLB  0
03AB4:  GOTO   10834 (RETURN)
....................  
.................... void LimitaValores(){ 
....................    if(Password[0]>9 || Password[0]<0){ 
*
03BEC:  MOVLB  3
03BEE:  BTFSC  x75.7
03BF0:  BRA    3BF8
03BF2:  MOVF   x75,W
03BF4:  SUBLW  09
03BF6:  BNC   3BFE
03BF8:  BTFSC  x75.7
03BFA:  BRA    3BFE
03BFC:  BRA    3C3A
....................       Password[0]=0; 
03BFE:  CLRF   x75
....................       write_eeprom(10,0); 
03C00:  CLRF   FAA
03C02:  MOVLW  0A
03C04:  MOVWF  FA9
03C06:  CLRF   FA8
03C08:  BCF    FA6.6
03C0A:  BCF    FA6.7
03C0C:  BSF    FA6.2
03C0E:  MOVF   FF2,W
03C10:  MOVWF  00
03C12:  BCF    FF2.6
03C14:  BCF    FF2.7
03C16:  MOVLB  F
03C18:  MOVLW  55
03C1A:  MOVWF  FA7
03C1C:  MOVLW  AA
03C1E:  MOVWF  FA7
03C20:  BSF    FA6.1
03C22:  BTFSC  FA6.1
03C24:  BRA    3C22
03C26:  BCF    FA6.2
03C28:  MOVF   00,W
03C2A:  IORWF  FF2,F
....................       delay_ms(10); 
03C2C:  MOVLW  0A
03C2E:  MOVLB  7
03C30:  MOVWF  x1E
03C32:  MOVLB  0
03C34:  CALL   2060
03C38:  MOVLB  3
....................    } 
....................    if(Password[1]>9 || Password[1]<0){ 
03C3A:  BTFSC  x76.7
03C3C:  BRA    3C44
03C3E:  MOVF   x76,W
03C40:  SUBLW  09
03C42:  BNC   3C4A
03C44:  BTFSC  x76.7
03C46:  BRA    3C4A
03C48:  BRA    3C86
....................       Password[1]=0; 
03C4A:  CLRF   x76
....................       write_eeprom(11,0); 
03C4C:  CLRF   FAA
03C4E:  MOVLW  0B
03C50:  MOVWF  FA9
03C52:  CLRF   FA8
03C54:  BCF    FA6.6
03C56:  BCF    FA6.7
03C58:  BSF    FA6.2
03C5A:  MOVF   FF2,W
03C5C:  MOVWF  00
03C5E:  BCF    FF2.6
03C60:  BCF    FF2.7
03C62:  MOVLB  F
03C64:  MOVLW  55
03C66:  MOVWF  FA7
03C68:  MOVLW  AA
03C6A:  MOVWF  FA7
03C6C:  BSF    FA6.1
03C6E:  BTFSC  FA6.1
03C70:  BRA    3C6E
03C72:  BCF    FA6.2
03C74:  MOVF   00,W
03C76:  IORWF  FF2,F
....................       delay_ms(10); 
03C78:  MOVLW  0A
03C7A:  MOVLB  7
03C7C:  MOVWF  x1E
03C7E:  MOVLB  0
03C80:  CALL   2060
03C84:  MOVLB  3
....................    } 
....................    if(Password[2]>9 || Password[2]<0){ 
03C86:  BTFSC  x77.7
03C88:  BRA    3C90
03C8A:  MOVF   x77,W
03C8C:  SUBLW  09
03C8E:  BNC   3C96
03C90:  BTFSC  x77.7
03C92:  BRA    3C96
03C94:  BRA    3CD2
....................       Password[2]=0; 
03C96:  CLRF   x77
....................       write_eeprom(12,0); 
03C98:  CLRF   FAA
03C9A:  MOVLW  0C
03C9C:  MOVWF  FA9
03C9E:  CLRF   FA8
03CA0:  BCF    FA6.6
03CA2:  BCF    FA6.7
03CA4:  BSF    FA6.2
03CA6:  MOVF   FF2,W
03CA8:  MOVWF  00
03CAA:  BCF    FF2.6
03CAC:  BCF    FF2.7
03CAE:  MOVLB  F
03CB0:  MOVLW  55
03CB2:  MOVWF  FA7
03CB4:  MOVLW  AA
03CB6:  MOVWF  FA7
03CB8:  BSF    FA6.1
03CBA:  BTFSC  FA6.1
03CBC:  BRA    3CBA
03CBE:  BCF    FA6.2
03CC0:  MOVF   00,W
03CC2:  IORWF  FF2,F
....................       delay_ms(10); 
03CC4:  MOVLW  0A
03CC6:  MOVLB  7
03CC8:  MOVWF  x1E
03CCA:  MOVLB  0
03CCC:  CALL   2060
03CD0:  MOVLB  3
....................    } 
....................    if(Password[3]>9 || Password[3]<0){ 
03CD2:  BTFSC  x78.7
03CD4:  BRA    3CDC
03CD6:  MOVF   x78,W
03CD8:  SUBLW  09
03CDA:  BNC   3CE2
03CDC:  BTFSC  x78.7
03CDE:  BRA    3CE2
03CE0:  BRA    3D1C
....................       Password[3]=0; 
03CE2:  CLRF   x78
....................       write_eeprom(13,0); 
03CE4:  CLRF   FAA
03CE6:  MOVLW  0D
03CE8:  MOVWF  FA9
03CEA:  CLRF   FA8
03CEC:  BCF    FA6.6
03CEE:  BCF    FA6.7
03CF0:  BSF    FA6.2
03CF2:  MOVF   FF2,W
03CF4:  MOVWF  00
03CF6:  BCF    FF2.6
03CF8:  BCF    FF2.7
03CFA:  MOVLB  F
03CFC:  MOVLW  55
03CFE:  MOVWF  FA7
03D00:  MOVLW  AA
03D02:  MOVWF  FA7
03D04:  BSF    FA6.1
03D06:  BTFSC  FA6.1
03D08:  BRA    3D06
03D0A:  BCF    FA6.2
03D0C:  MOVF   00,W
03D0E:  IORWF  FF2,F
....................       delay_ms(10); 
03D10:  MOVLW  0A
03D12:  MOVLB  7
03D14:  MOVWF  x1E
03D16:  MOVLB  0
03D18:  CALL   2060
....................    } 
....................    if(Integral>4.0 || Integral<1){ 
03D1C:  MOVLB  7
03D1E:  CLRF   x1B
03D20:  MOVFF  32B,71A
03D24:  MOVLB  0
03D26:  CALL   2088
03D2A:  MOVLB  7
03D2C:  CLRF   x11
03D2E:  CLRF   x10
03D30:  CLRF   x0F
03D32:  MOVLW  81
03D34:  MOVWF  x0E
03D36:  MOVFF  03,715
03D3A:  MOVFF  02,714
03D3E:  MOVFF  01,713
03D42:  MOVFF  00,712
03D46:  MOVLB  0
03D48:  CALL   2680
03D4C:  BC    3D56
03D4E:  MOVLB  3
03D50:  MOVF   x2B,F
03D52:  BNZ   3D96
03D54:  MOVLB  0
....................       Integral=1.0; 
03D56:  MOVLW  01
03D58:  MOVLB  3
03D5A:  MOVWF  x2B
....................       write_eeprom(18,1); 
03D5C:  CLRF   FAA
03D5E:  MOVLW  12
03D60:  MOVWF  FA9
03D62:  MOVLW  01
03D64:  MOVWF  FA8
03D66:  BCF    FA6.6
03D68:  BCF    FA6.7
03D6A:  BSF    FA6.2
03D6C:  MOVF   FF2,W
03D6E:  MOVWF  00
03D70:  BCF    FF2.6
03D72:  BCF    FF2.7
03D74:  MOVLB  F
03D76:  MOVLW  55
03D78:  MOVWF  FA7
03D7A:  MOVLW  AA
03D7C:  MOVWF  FA7
03D7E:  BSF    FA6.1
03D80:  BTFSC  FA6.1
03D82:  BRA    3D80
03D84:  BCF    FA6.2
03D86:  MOVF   00,W
03D88:  IORWF  FF2,F
....................       delay_ms(10); 
03D8A:  MOVLW  0A
03D8C:  MOVLB  7
03D8E:  MOVWF  x1E
03D90:  MOVLB  0
03D92:  CALL   2060
....................    } 
....................    if(Derivativo>40.0 || Derivativo<5){ 
03D96:  MOVLB  7
03D98:  CLRF   x1B
03D9A:  MOVFF  32C,71A
03D9E:  MOVLB  0
03DA0:  CALL   2088
03DA4:  MOVLB  7
03DA6:  CLRF   x11
03DA8:  CLRF   x10
03DAA:  MOVLW  20
03DAC:  MOVWF  x0F
03DAE:  MOVLW  84
03DB0:  MOVWF  x0E
03DB2:  MOVFF  03,715
03DB6:  MOVFF  02,714
03DBA:  MOVFF  01,713
03DBE:  MOVFF  00,712
03DC2:  MOVLB  0
03DC4:  CALL   2680
03DC8:  BC    3DD4
03DCA:  MOVLB  3
03DCC:  MOVF   x2C,W
03DCE:  SUBLW  04
03DD0:  BNC   3E14
03DD2:  MOVLB  0
....................       Derivativo=15.0; 
03DD4:  MOVLW  0F
03DD6:  MOVLB  3
03DD8:  MOVWF  x2C
....................       write_eeprom(19,15); 
03DDA:  CLRF   FAA
03DDC:  MOVLW  13
03DDE:  MOVWF  FA9
03DE0:  MOVLW  0F
03DE2:  MOVWF  FA8
03DE4:  BCF    FA6.6
03DE6:  BCF    FA6.7
03DE8:  BSF    FA6.2
03DEA:  MOVF   FF2,W
03DEC:  MOVWF  00
03DEE:  BCF    FF2.6
03DF0:  BCF    FF2.7
03DF2:  MOVLB  F
03DF4:  MOVLW  55
03DF6:  MOVWF  FA7
03DF8:  MOVLW  AA
03DFA:  MOVWF  FA7
03DFC:  BSF    FA6.1
03DFE:  BTFSC  FA6.1
03E00:  BRA    3DFE
03E02:  BCF    FA6.2
03E04:  MOVF   00,W
03E06:  IORWF  FF2,F
....................       delay_ms(10); 
03E08:  MOVLW  0A
03E0A:  MOVLB  7
03E0C:  MOVWF  x1E
03E0E:  MOVLB  0
03E10:  CALL   2060
....................    } 
....................    if(Ganancia>30.0 || Ganancia<1){ 
03E14:  MOVLB  7
03E16:  CLRF   x11
03E18:  CLRF   x10
03E1A:  MOVLW  70
03E1C:  MOVWF  x0F
03E1E:  MOVLW  83
03E20:  MOVWF  x0E
03E22:  MOVFF  2F6,715
03E26:  MOVFF  2F5,714
03E2A:  MOVFF  2F4,713
03E2E:  MOVFF  2F3,712
03E32:  MOVLB  0
03E34:  CALL   2680
03E38:  BC    3E5E
03E3A:  MOVFF  2F6,711
03E3E:  MOVFF  2F5,710
03E42:  MOVFF  2F4,70F
03E46:  MOVFF  2F3,70E
03E4A:  MOVLB  7
03E4C:  CLRF   x15
03E4E:  CLRF   x14
03E50:  CLRF   x13
03E52:  MOVLW  7F
03E54:  MOVWF  x12
03E56:  MOVLB  0
03E58:  CALL   2680
03E5C:  BNC   3EA6
....................       Ganancia=30.0; 
03E5E:  MOVLB  2
03E60:  CLRF   xF6
03E62:  CLRF   xF5
03E64:  MOVLW  70
03E66:  MOVWF  xF4
03E68:  MOVLW  83
03E6A:  MOVWF  xF3
....................       write_eeprom(20,30); 
03E6C:  CLRF   FAA
03E6E:  MOVLW  14
03E70:  MOVWF  FA9
03E72:  MOVLW  1E
03E74:  MOVWF  FA8
03E76:  BCF    FA6.6
03E78:  BCF    FA6.7
03E7A:  BSF    FA6.2
03E7C:  MOVF   FF2,W
03E7E:  MOVWF  00
03E80:  BCF    FF2.6
03E82:  BCF    FF2.7
03E84:  MOVLB  F
03E86:  MOVLW  55
03E88:  MOVWF  FA7
03E8A:  MOVLW  AA
03E8C:  MOVWF  FA7
03E8E:  BSF    FA6.1
03E90:  BTFSC  FA6.1
03E92:  BRA    3E90
03E94:  BCF    FA6.2
03E96:  MOVF   00,W
03E98:  IORWF  FF2,F
....................       delay_ms(10); 
03E9A:  MOVLW  0A
03E9C:  MOVLB  7
03E9E:  MOVWF  x1E
03EA0:  MOVLB  0
03EA2:  CALL   2060
....................    } 
....................    if(Sensor[0].Ajuste>100){ 
03EA6:  MOVLB  4
03EA8:  MOVF   x26,W
03EAA:  SUBLW  64
03EAC:  BC    3EEA
....................       Sensor[0].Ajuste=0; 
03EAE:  CLRF   x26
....................       write_eeprom(21,0); 
03EB0:  CLRF   FAA
03EB2:  MOVLW  15
03EB4:  MOVWF  FA9
03EB6:  CLRF   FA8
03EB8:  BCF    FA6.6
03EBA:  BCF    FA6.7
03EBC:  BSF    FA6.2
03EBE:  MOVF   FF2,W
03EC0:  MOVWF  00
03EC2:  BCF    FF2.6
03EC4:  BCF    FF2.7
03EC6:  MOVLB  F
03EC8:  MOVLW  55
03ECA:  MOVWF  FA7
03ECC:  MOVLW  AA
03ECE:  MOVWF  FA7
03ED0:  BSF    FA6.1
03ED2:  BTFSC  FA6.1
03ED4:  BRA    3ED2
03ED6:  BCF    FA6.2
03ED8:  MOVF   00,W
03EDA:  IORWF  FF2,F
....................       delay_ms(10); 
03EDC:  MOVLW  0A
03EDE:  MOVLB  7
03EE0:  MOVWF  x1E
03EE2:  MOVLB  0
03EE4:  CALL   2060
03EE8:  MOVLB  4
....................    } 
....................    if(Sensor[0].Ajusten>100){ 
03EEA:  MOVF   x27,W
03EEC:  SUBLW  64
03EEE:  BC    3F2A
....................       Sensor[0].Ajusten=0; 
03EF0:  CLRF   x27
....................       write_eeprom(22,0); 
03EF2:  CLRF   FAA
03EF4:  MOVLW  16
03EF6:  MOVWF  FA9
03EF8:  CLRF   FA8
03EFA:  BCF    FA6.6
03EFC:  BCF    FA6.7
03EFE:  BSF    FA6.2
03F00:  MOVF   FF2,W
03F02:  MOVWF  00
03F04:  BCF    FF2.6
03F06:  BCF    FF2.7
03F08:  MOVLB  F
03F0A:  MOVLW  55
03F0C:  MOVWF  FA7
03F0E:  MOVLW  AA
03F10:  MOVWF  FA7
03F12:  BSF    FA6.1
03F14:  BTFSC  FA6.1
03F16:  BRA    3F14
03F18:  BCF    FA6.2
03F1A:  MOVF   00,W
03F1C:  IORWF  FF2,F
....................       delay_ms(10); 
03F1E:  MOVLW  0A
03F20:  MOVLB  7
03F22:  MOVWF  x1E
03F24:  MOVLB  0
03F26:  CALL   2060
....................    } 
....................    if(Sensor[1].Ajuste>100){ 
03F2A:  MOVLB  5
03F2C:  MOVF   x92,W
03F2E:  SUBLW  64
03F30:  BC    3F6E
....................       Sensor[1].Ajuste=0; 
03F32:  CLRF   x92
....................       write_eeprom(23,0); 
03F34:  CLRF   FAA
03F36:  MOVLW  17
03F38:  MOVWF  FA9
03F3A:  CLRF   FA8
03F3C:  BCF    FA6.6
03F3E:  BCF    FA6.7
03F40:  BSF    FA6.2
03F42:  MOVF   FF2,W
03F44:  MOVWF  00
03F46:  BCF    FF2.6
03F48:  BCF    FF2.7
03F4A:  MOVLB  F
03F4C:  MOVLW  55
03F4E:  MOVWF  FA7
03F50:  MOVLW  AA
03F52:  MOVWF  FA7
03F54:  BSF    FA6.1
03F56:  BTFSC  FA6.1
03F58:  BRA    3F56
03F5A:  BCF    FA6.2
03F5C:  MOVF   00,W
03F5E:  IORWF  FF2,F
....................       delay_ms(10); 
03F60:  MOVLW  0A
03F62:  MOVLB  7
03F64:  MOVWF  x1E
03F66:  MOVLB  0
03F68:  CALL   2060
03F6C:  MOVLB  5
....................    } 
....................    if(Sensor[1].Ajusten>100){ 
03F6E:  MOVF   x93,W
03F70:  SUBLW  64
03F72:  BC    3FAE
....................       Sensor[1].Ajusten=0; 
03F74:  CLRF   x93
....................       write_eeprom(24,0); 
03F76:  CLRF   FAA
03F78:  MOVLW  18
03F7A:  MOVWF  FA9
03F7C:  CLRF   FA8
03F7E:  BCF    FA6.6
03F80:  BCF    FA6.7
03F82:  BSF    FA6.2
03F84:  MOVF   FF2,W
03F86:  MOVWF  00
03F88:  BCF    FF2.6
03F8A:  BCF    FF2.7
03F8C:  MOVLB  F
03F8E:  MOVLW  55
03F90:  MOVWF  FA7
03F92:  MOVLW  AA
03F94:  MOVWF  FA7
03F96:  BSF    FA6.1
03F98:  BTFSC  FA6.1
03F9A:  BRA    3F98
03F9C:  BCF    FA6.2
03F9E:  MOVF   00,W
03FA0:  IORWF  FF2,F
....................       delay_ms(10); 
03FA2:  MOVLW  0A
03FA4:  MOVLB  7
03FA6:  MOVWF  x1E
03FA8:  MOVLB  0
03FAA:  CALL   2060
....................    } 
....................    if(MediaMovil>80 || MediaMovil<10){ 
03FAE:  MOVLB  2
03FB0:  MOVF   xCC,W
03FB2:  SUBLW  50
03FB4:  BNC   3FBC
03FB6:  MOVF   xCC,W
03FB8:  SUBLW  09
03FBA:  BNC   3FFA
....................       MediaMovil=40; 
03FBC:  MOVLW  28
03FBE:  MOVWF  xCC
....................       write_eeprom(25,40); 
03FC0:  CLRF   FAA
03FC2:  MOVLW  19
03FC4:  MOVWF  FA9
03FC6:  MOVLW  28
03FC8:  MOVWF  FA8
03FCA:  BCF    FA6.6
03FCC:  BCF    FA6.7
03FCE:  BSF    FA6.2
03FD0:  MOVF   FF2,W
03FD2:  MOVWF  00
03FD4:  BCF    FF2.6
03FD6:  BCF    FF2.7
03FD8:  MOVLB  F
03FDA:  MOVLW  55
03FDC:  MOVWF  FA7
03FDE:  MOVLW  AA
03FE0:  MOVWF  FA7
03FE2:  BSF    FA6.1
03FE4:  BTFSC  FA6.1
03FE6:  BRA    3FE4
03FE8:  BCF    FA6.2
03FEA:  MOVF   00,W
03FEC:  IORWF  FF2,F
....................       delay_ms(10); 
03FEE:  MOVLW  0A
03FF0:  MOVLB  7
03FF2:  MOVWF  x1E
03FF4:  MOVLB  0
03FF6:  CALL   2060
....................    } 
....................    if(Tciclo>10 || Tciclo<5){ 
03FFA:  MOVLB  7
03FFC:  CLRF   x11
03FFE:  CLRF   x10
04000:  MOVLW  20
04002:  MOVWF  x0F
04004:  MOVLW  82
04006:  MOVWF  x0E
04008:  MOVFF  2DE,715
0400C:  MOVFF  2DD,714
04010:  MOVFF  2DC,713
04014:  MOVFF  2DB,712
04018:  MOVLB  0
0401A:  CALL   2680
0401E:  BC    4046
04020:  MOVFF  2DE,711
04024:  MOVFF  2DD,710
04028:  MOVFF  2DC,70F
0402C:  MOVFF  2DB,70E
04030:  MOVLB  7
04032:  CLRF   x15
04034:  CLRF   x14
04036:  MOVLW  20
04038:  MOVWF  x13
0403A:  MOVLW  81
0403C:  MOVWF  x12
0403E:  MOVLB  0
04040:  CALL   2680
04044:  BNC   408E
....................       Tciclo=10; 
04046:  MOVLB  2
04048:  CLRF   xDE
0404A:  CLRF   xDD
0404C:  MOVLW  20
0404E:  MOVWF  xDC
04050:  MOVLW  82
04052:  MOVWF  xDB
....................       write_eeprom(26,10); 
04054:  CLRF   FAA
04056:  MOVLW  1A
04058:  MOVWF  FA9
0405A:  MOVLW  0A
0405C:  MOVWF  FA8
0405E:  BCF    FA6.6
04060:  BCF    FA6.7
04062:  BSF    FA6.2
04064:  MOVF   FF2,W
04066:  MOVWF  00
04068:  BCF    FF2.6
0406A:  BCF    FF2.7
0406C:  MOVLB  F
0406E:  MOVLW  55
04070:  MOVWF  FA7
04072:  MOVLW  AA
04074:  MOVWF  FA7
04076:  BSF    FA6.1
04078:  BTFSC  FA6.1
0407A:  BRA    4078
0407C:  BCF    FA6.2
0407E:  MOVF   00,W
04080:  IORWF  FF2,F
....................       delay_ms(10); 
04082:  MOVLW  0A
04084:  MOVLB  7
04086:  MOVWF  x1E
04088:  MOVLB  0
0408A:  CALL   2060
....................    } 
....................    if(Sensor[0].RPT100>2.0){ 
0408E:  MOVLB  7
04090:  CLRF   x11
04092:  CLRF   x10
04094:  CLRF   x0F
04096:  MOVLW  80
04098:  MOVWF  x0E
0409A:  MOVFF  41B,715
0409E:  MOVFF  41A,714
040A2:  MOVFF  419,713
040A6:  MOVFF  418,712
040AA:  MOVLB  0
040AC:  CALL   2680
040B0:  BNC   4130
....................       Sensor[0].RPT100=0.5; 
040B2:  MOVLB  4
040B4:  CLRF   x1B
040B6:  CLRF   x1A
040B8:  CLRF   x19
040BA:  MOVLW  7E
040BC:  MOVWF  x18
....................       write_eeprom(28,0); 
040BE:  CLRF   FAA
040C0:  MOVLW  1C
040C2:  MOVWF  FA9
040C4:  CLRF   FA8
040C6:  BCF    FA6.6
040C8:  BCF    FA6.7
040CA:  BSF    FA6.2
040CC:  MOVF   FF2,W
040CE:  MOVWF  00
040D0:  BCF    FF2.6
040D2:  BCF    FF2.7
040D4:  MOVLB  F
040D6:  MOVLW  55
040D8:  MOVWF  FA7
040DA:  MOVLW  AA
040DC:  MOVWF  FA7
040DE:  BSF    FA6.1
040E0:  BTFSC  FA6.1
040E2:  BRA    40E0
040E4:  BCF    FA6.2
040E6:  MOVF   00,W
040E8:  IORWF  FF2,F
....................       delay_ms(10); 
040EA:  MOVLW  0A
040EC:  MOVLB  7
040EE:  MOVWF  x1E
040F0:  MOVLB  0
040F2:  CALL   2060
....................       write_eeprom(27,5); 
040F6:  CLRF   FAA
040F8:  MOVLW  1B
040FA:  MOVWF  FA9
040FC:  MOVLW  05
040FE:  MOVWF  FA8
04100:  BCF    FA6.6
04102:  BCF    FA6.7
04104:  BSF    FA6.2
04106:  MOVF   FF2,W
04108:  MOVWF  00
0410A:  BCF    FF2.6
0410C:  BCF    FF2.7
0410E:  MOVLB  F
04110:  MOVLW  55
04112:  MOVWF  FA7
04114:  MOVLW  AA
04116:  MOVWF  FA7
04118:  BSF    FA6.1
0411A:  BTFSC  FA6.1
0411C:  BRA    411A
0411E:  BCF    FA6.2
04120:  MOVF   00,W
04122:  IORWF  FF2,F
....................       delay_ms(10); 
04124:  MOVLW  0A
04126:  MOVLB  7
04128:  MOVWF  x1E
0412A:  MOVLB  0
0412C:  CALL   2060
....................    } 
....................    if(Sensor[1].RPT100>2.0){ 
04130:  MOVLB  7
04132:  CLRF   x11
04134:  CLRF   x10
04136:  CLRF   x0F
04138:  MOVLW  80
0413A:  MOVWF  x0E
0413C:  MOVFF  587,715
04140:  MOVFF  586,714
04144:  MOVFF  585,713
04148:  MOVFF  584,712
0414C:  MOVLB  0
0414E:  CALL   2680
04152:  BNC   41D2
....................       Sensor[1].RPT100=0.5; 
04154:  MOVLB  5
04156:  CLRF   x87
04158:  CLRF   x86
0415A:  CLRF   x85
0415C:  MOVLW  7E
0415E:  MOVWF  x84
....................       write_eeprom(30,0); 
04160:  CLRF   FAA
04162:  MOVLW  1E
04164:  MOVWF  FA9
04166:  CLRF   FA8
04168:  BCF    FA6.6
0416A:  BCF    FA6.7
0416C:  BSF    FA6.2
0416E:  MOVF   FF2,W
04170:  MOVWF  00
04172:  BCF    FF2.6
04174:  BCF    FF2.7
04176:  MOVLB  F
04178:  MOVLW  55
0417A:  MOVWF  FA7
0417C:  MOVLW  AA
0417E:  MOVWF  FA7
04180:  BSF    FA6.1
04182:  BTFSC  FA6.1
04184:  BRA    4182
04186:  BCF    FA6.2
04188:  MOVF   00,W
0418A:  IORWF  FF2,F
....................       delay_ms(10); 
0418C:  MOVLW  0A
0418E:  MOVLB  7
04190:  MOVWF  x1E
04192:  MOVLB  0
04194:  CALL   2060
....................       write_eeprom(29,5); 
04198:  CLRF   FAA
0419A:  MOVLW  1D
0419C:  MOVWF  FA9
0419E:  MOVLW  05
041A0:  MOVWF  FA8
041A2:  BCF    FA6.6
041A4:  BCF    FA6.7
041A6:  BSF    FA6.2
041A8:  MOVF   FF2,W
041AA:  MOVWF  00
041AC:  BCF    FF2.6
041AE:  BCF    FF2.7
041B0:  MOVLB  F
041B2:  MOVLW  55
041B4:  MOVWF  FA7
041B6:  MOVLW  AA
041B8:  MOVWF  FA7
041BA:  BSF    FA6.1
041BC:  BTFSC  FA6.1
041BE:  BRA    41BC
041C0:  BCF    FA6.2
041C2:  MOVF   00,W
041C4:  IORWF  FF2,F
....................       delay_ms(10); 
041C6:  MOVLW  0A
041C8:  MOVLB  7
041CA:  MOVWF  x1E
041CC:  MOVLB  0
041CE:  CALL   2060
....................    } 
....................    if(Atmosferica>100 || Atmosferica<60){ 
041D2:  MOVLB  3
041D4:  MOVF   x3B,F
041D6:  BNZ   41E8
041D8:  MOVF   x3A,W
041DA:  SUBLW  64
041DC:  BNC   41E8
041DE:  MOVF   x3B,F
041E0:  BNZ   4228
041E2:  MOVF   x3A,W
041E4:  SUBLW  3B
041E6:  BNC   4228
....................       Atmosferica=75; 
041E8:  CLRF   x3B
041EA:  MOVLW  4B
041EC:  MOVWF  x3A
....................       write_eeprom(31,69); 
041EE:  CLRF   FAA
041F0:  MOVLW  1F
041F2:  MOVWF  FA9
041F4:  MOVLW  45
041F6:  MOVWF  FA8
041F8:  BCF    FA6.6
041FA:  BCF    FA6.7
041FC:  BSF    FA6.2
041FE:  MOVF   FF2,W
04200:  MOVWF  00
04202:  BCF    FF2.6
04204:  BCF    FF2.7
04206:  MOVLB  F
04208:  MOVLW  55
0420A:  MOVWF  FA7
0420C:  MOVLW  AA
0420E:  MOVWF  FA7
04210:  BSF    FA6.1
04212:  BTFSC  FA6.1
04214:  BRA    4212
04216:  BCF    FA6.2
04218:  MOVF   00,W
0421A:  IORWF  FF2,F
....................       delay_ms(10); 
0421C:  MOVLW  0A
0421E:  MOVLB  7
04220:  MOVWF  x1E
04222:  MOVLB  0
04224:  CALL   2060
....................    } 
....................    if(Tapertura>100 || Tapertura<70){ 
04228:  MOVLB  2
0422A:  MOVF   xD1,W
0422C:  SUBLW  64
0422E:  BNC   4236
04230:  MOVF   xD1,W
04232:  SUBLW  45
04234:  BNC   4274
....................       Tapertura=85; 
04236:  MOVLW  55
04238:  MOVWF  xD1
....................       write_eeprom(32,85); 
0423A:  CLRF   FAA
0423C:  MOVLW  20
0423E:  MOVWF  FA9
04240:  MOVLW  55
04242:  MOVWF  FA8
04244:  BCF    FA6.6
04246:  BCF    FA6.7
04248:  BSF    FA6.2
0424A:  MOVF   FF2,W
0424C:  MOVWF  00
0424E:  BCF    FF2.6
04250:  BCF    FF2.7
04252:  MOVLB  F
04254:  MOVLW  55
04256:  MOVWF  FA7
04258:  MOVLW  AA
0425A:  MOVWF  FA7
0425C:  BSF    FA6.1
0425E:  BTFSC  FA6.1
04260:  BRA    425E
04262:  BCF    FA6.2
04264:  MOVF   00,W
04266:  IORWF  FF2,F
....................       delay_ms(10); 
04268:  MOVLW  0A
0426A:  MOVLB  7
0426C:  MOVWF  x1E
0426E:  MOVLB  0
04270:  CALL   2060
....................    } 
....................    if(Ciclos>60000){ 
04274:  MOVLB  3
04276:  MOVF   x6A,W
04278:  SUBLW  E9
0427A:  BC    42FC
0427C:  XORLW  FF
0427E:  BNZ   4286
04280:  MOVF   x69,W
04282:  SUBLW  60
04284:  BC    42FC
....................       Ciclos=0; 
04286:  CLRF   x6A
04288:  CLRF   x69
....................       write_eeprom(37,0); 
0428A:  CLRF   FAA
0428C:  MOVLW  25
0428E:  MOVWF  FA9
04290:  CLRF   FA8
04292:  BCF    FA6.6
04294:  BCF    FA6.7
04296:  BSF    FA6.2
04298:  MOVF   FF2,W
0429A:  MOVWF  00
0429C:  BCF    FF2.6
0429E:  BCF    FF2.7
042A0:  MOVLB  F
042A2:  MOVLW  55
042A4:  MOVWF  FA7
042A6:  MOVLW  AA
042A8:  MOVWF  FA7
042AA:  BSF    FA6.1
042AC:  BTFSC  FA6.1
042AE:  BRA    42AC
042B0:  BCF    FA6.2
042B2:  MOVF   00,W
042B4:  IORWF  FF2,F
....................       delay_ms(10); 
042B6:  MOVLW  0A
042B8:  MOVLB  7
042BA:  MOVWF  x1E
042BC:  MOVLB  0
042BE:  CALL   2060
....................       write_eeprom(38,0); 
042C2:  CLRF   FAA
042C4:  MOVLW  26
042C6:  MOVWF  FA9
042C8:  CLRF   FA8
042CA:  BCF    FA6.6
042CC:  BCF    FA6.7
042CE:  BSF    FA6.2
042D0:  MOVF   FF2,W
042D2:  MOVWF  00
042D4:  BCF    FF2.6
042D6:  BCF    FF2.7
042D8:  MOVLB  F
042DA:  MOVLW  55
042DC:  MOVWF  FA7
042DE:  MOVLW  AA
042E0:  MOVWF  FA7
042E2:  BSF    FA6.1
042E4:  BTFSC  FA6.1
042E6:  BRA    42E4
042E8:  BCF    FA6.2
042EA:  MOVF   00,W
042EC:  IORWF  FF2,F
....................       delay_ms(10); 
042EE:  MOVLW  0A
042F0:  MOVLB  7
042F2:  MOVWF  x1E
042F4:  MOVLB  0
042F6:  CALL   2060
042FA:  MOVLB  3
....................    } 
....................    if(sg1==10){ 
042FC:  MOVF   x9C,W
042FE:  SUBLW  0A
04300:  BNZ   4316
....................       G1=G1*(-1); 
04302:  MOVFF  39A,708
04306:  MOVLW  FF
04308:  MOVLB  7
0430A:  MOVWF  x09
0430C:  MOVLB  0
0430E:  RCALL  3B9E
04310:  MOVFF  01,39A
04314:  MOVLB  3
....................    } 
....................    if(sg2==10){ 
04316:  MOVF   x9D,W
04318:  SUBLW  0A
0431A:  BNZ   4330
....................       G2=G2*(-1); 
0431C:  MOVFF  39B,708
04320:  MOVLW  FF
04322:  MOVLB  7
04324:  MOVWF  x09
04326:  MOVLB  0
04328:  RCALL  3B9E
0432A:  MOVFF  01,39B
0432E:  MOVLB  3
....................    } 
....................    if(TTrampa>100){ 
04330:  MOVF   x2E,W
04332:  SUBLW  64
04334:  BC    4376
....................       TTrampa=90; 
04336:  MOVLW  5A
04338:  MOVWF  x2E
....................       write_eeprom(39,90); 
0433A:  CLRF   FAA
0433C:  MOVLW  27
0433E:  MOVWF  FA9
04340:  MOVLW  5A
04342:  MOVWF  FA8
04344:  BCF    FA6.6
04346:  BCF    FA6.7
04348:  BSF    FA6.2
0434A:  MOVF   FF2,W
0434C:  MOVWF  00
0434E:  BCF    FF2.6
04350:  BCF    FF2.7
04352:  MOVLB  F
04354:  MOVLW  55
04356:  MOVWF  FA7
04358:  MOVLW  AA
0435A:  MOVWF  FA7
0435C:  BSF    FA6.1
0435E:  BTFSC  FA6.1
04360:  BRA    435E
04362:  BCF    FA6.2
04364:  MOVF   00,W
04366:  IORWF  FF2,F
....................       delay_ms(10); 
04368:  MOVLW  0A
0436A:  MOVLB  7
0436C:  MOVWF  x1E
0436E:  MOVLB  0
04370:  CALL   2060
04374:  MOVLB  3
....................    } 
....................    if(NivelDesfogue>6){ 
04376:  MOVF   x6C,F
04378:  BNZ   4380
0437A:  MOVF   x6B,W
0437C:  SUBLW  06
0437E:  BC    43C2
....................       NivelDesfogue=3; 
04380:  CLRF   x6C
04382:  MOVLW  03
04384:  MOVWF  x6B
....................       write_eeprom(46,3); 
04386:  CLRF   FAA
04388:  MOVLW  2E
0438A:  MOVWF  FA9
0438C:  MOVLW  03
0438E:  MOVWF  FA8
04390:  BCF    FA6.6
04392:  BCF    FA6.7
04394:  BSF    FA6.2
04396:  MOVF   FF2,W
04398:  MOVWF  00
0439A:  BCF    FF2.6
0439C:  BCF    FF2.7
0439E:  MOVLB  F
043A0:  MOVLW  55
043A2:  MOVWF  FA7
043A4:  MOVLW  AA
043A6:  MOVWF  FA7
043A8:  BSF    FA6.1
043AA:  BTFSC  FA6.1
043AC:  BRA    43AA
043AE:  BCF    FA6.2
043B0:  MOVF   00,W
043B2:  IORWF  FF2,F
....................       delay_ms(10); 
043B4:  MOVLW  0A
043B6:  MOVLB  7
043B8:  MOVWF  x1E
043BA:  MOVLB  0
043BC:  CALL   2060
043C0:  MOVLB  3
....................    } 
....................    if(ActivaImpresion>1){ 
043C2:  MOVF   x40,W
043C4:  SUBLW  01
043C6:  BC    4408
....................       ActivaImpresion=1; 
043C8:  MOVLW  01
043CA:  MOVWF  x40
....................       write_eeprom(40,1); 
043CC:  CLRF   FAA
043CE:  MOVLW  28
043D0:  MOVWF  FA9
043D2:  MOVLW  01
043D4:  MOVWF  FA8
043D6:  BCF    FA6.6
043D8:  BCF    FA6.7
043DA:  BSF    FA6.2
043DC:  MOVF   FF2,W
043DE:  MOVWF  00
043E0:  BCF    FF2.6
043E2:  BCF    FF2.7
043E4:  MOVLB  F
043E6:  MOVLW  55
043E8:  MOVWF  FA7
043EA:  MOVLW  AA
043EC:  MOVWF  FA7
043EE:  BSF    FA6.1
043F0:  BTFSC  FA6.1
043F2:  BRA    43F0
043F4:  BCF    FA6.2
043F6:  MOVF   00,W
043F8:  IORWF  FF2,F
....................       delay_ms(10); 
043FA:  MOVLW  0A
043FC:  MOVLB  7
043FE:  MOVWF  x1E
04400:  MOVLB  0
04402:  CALL   2060
04406:  MOVLB  3
....................    } 
....................    if(timpresion>30){ 
04408:  MOVF   x41,W
0440A:  SUBLW  1E
0440C:  BC    444C
....................       timpresion=2; 
0440E:  MOVLW  02
04410:  MOVWF  x41
....................       write_eeprom(41,2); 
04412:  CLRF   FAA
04414:  MOVLW  29
04416:  MOVWF  FA9
04418:  MOVLW  02
0441A:  MOVWF  FA8
0441C:  BCF    FA6.6
0441E:  BCF    FA6.7
04420:  BSF    FA6.2
04422:  MOVF   FF2,W
04424:  MOVWF  00
04426:  BCF    FF2.6
04428:  BCF    FF2.7
0442A:  MOVLB  F
0442C:  MOVLW  55
0442E:  MOVWF  FA7
04430:  MOVLW  AA
04432:  MOVWF  FA7
04434:  BSF    FA6.1
04436:  BTFSC  FA6.1
04438:  BRA    4436
0443A:  BCF    FA6.2
0443C:  MOVF   00,W
0443E:  IORWF  FF2,F
....................       delay_ms(10); 
04440:  MOVLW  0A
04442:  MOVLB  7
04444:  MOVWF  x1E
04446:  MOVLB  0
04448:  CALL   2060
....................    } 
....................    if(pulsosConfigurados>8 || pulsosConfigurados<2){ 
0444C:  MOVLB  2
0444E:  MOVF   xD2,W
04450:  SUBLW  08
04452:  BNC   445A
04454:  MOVF   xD2,W
04456:  SUBLW  01
04458:  BNC   4498
....................       pulsosConfigurados=3; 
0445A:  MOVLW  03
0445C:  MOVWF  xD2
....................       write_eeprom(47,3); 
0445E:  CLRF   FAA
04460:  MOVLW  2F
04462:  MOVWF  FA9
04464:  MOVLW  03
04466:  MOVWF  FA8
04468:  BCF    FA6.6
0446A:  BCF    FA6.7
0446C:  BSF    FA6.2
0446E:  MOVF   FF2,W
04470:  MOVWF  00
04472:  BCF    FF2.6
04474:  BCF    FF2.7
04476:  MOVLB  F
04478:  MOVLW  55
0447A:  MOVWF  FA7
0447C:  MOVLW  AA
0447E:  MOVWF  FA7
04480:  BSF    FA6.1
04482:  BTFSC  FA6.1
04484:  BRA    4482
04486:  BCF    FA6.2
04488:  MOVF   00,W
0448A:  IORWF  FF2,F
....................       delay_ms(10); 
0448C:  MOVLW  0A
0448E:  MOVLB  7
04490:  MOVWF  x1E
04492:  MOVLB  0
04494:  CALL   2060
....................    } 
....................    if(vacioTest>30 || vacioTest<17){ 
04498:  MOVLB  3
0449A:  MOVF   x57,W
0449C:  SUBLW  1E
0449E:  BNC   44A6
044A0:  MOVF   x57,W
044A2:  SUBLW  10
044A4:  BNC   44E6
....................       vacioTest=18; 
044A6:  MOVLW  12
044A8:  MOVWF  x57
....................       write_eeprom(48,18); 
044AA:  CLRF   FAA
044AC:  MOVLW  30
044AE:  MOVWF  FA9
044B0:  MOVLW  12
044B2:  MOVWF  FA8
044B4:  BCF    FA6.6
044B6:  BCF    FA6.7
044B8:  BSF    FA6.2
044BA:  MOVF   FF2,W
044BC:  MOVWF  00
044BE:  BCF    FF2.6
044C0:  BCF    FF2.7
044C2:  MOVLB  F
044C4:  MOVLW  55
044C6:  MOVWF  FA7
044C8:  MOVLW  AA
044CA:  MOVWF  FA7
044CC:  BSF    FA6.1
044CE:  BTFSC  FA6.1
044D0:  BRA    44CE
044D2:  BCF    FA6.2
044D4:  MOVF   00,W
044D6:  IORWF  FF2,F
....................       delay_ms(10); 
044D8:  MOVLW  0A
044DA:  MOVLB  7
044DC:  MOVWF  x1E
044DE:  MOVLB  0
044E0:  CALL   2060
044E4:  MOVLB  3
....................    } 
....................    if(vacioCiclo>30 || vacioCiclo<17){ 
044E6:  MOVF   x58,W
044E8:  SUBLW  1E
044EA:  BNC   44F2
044EC:  MOVF   x58,W
044EE:  SUBLW  10
044F0:  BNC   4532
....................       vacioCiclo=25; 
044F2:  MOVLW  19
044F4:  MOVWF  x58
....................       write_eeprom(49,25); 
044F6:  CLRF   FAA
044F8:  MOVLW  31
044FA:  MOVWF  FA9
044FC:  MOVLW  19
044FE:  MOVWF  FA8
04500:  BCF    FA6.6
04502:  BCF    FA6.7
04504:  BSF    FA6.2
04506:  MOVF   FF2,W
04508:  MOVWF  00
0450A:  BCF    FF2.6
0450C:  BCF    FF2.7
0450E:  MOVLB  F
04510:  MOVLW  55
04512:  MOVWF  FA7
04514:  MOVLW  AA
04516:  MOVWF  FA7
04518:  BSF    FA6.1
0451A:  BTFSC  FA6.1
0451C:  BRA    451A
0451E:  BCF    FA6.2
04520:  MOVF   00,W
04522:  IORWF  FF2,F
....................       delay_ms(10); 
04524:  MOVLW  0A
04526:  MOVLB  7
04528:  MOVWF  x1E
0452A:  MOVLB  0
0452C:  CALL   2060
04530:  MOVLB  3
....................    }    
.................... } 
04532:  MOVLB  0
04534:  GOTO   10848 (RETURN)
....................  
.................... void LeeDisplay(void){ 
....................    if(Dato_Exitoso==5){ 
*
055BA:  MOVLB  3
055BC:  MOVF   x44,W
055BE:  SUBLW  05
055C0:  BTFSS  FD8.2
055C2:  BRA    574E
....................          RX_Buffer[0]=RX_Buffer2[0]; 
055C4:  MOVFF  3B,30
....................          RX_Buffer[1]=RX_Buffer2[1]; 
055C8:  MOVFF  3C,31
....................          RX_Buffer[2]=RX_Buffer2[2]; 
055CC:  MOVFF  3D,32
....................          RX_Buffer[3]=RX_Buffer2[3]; 
055D0:  MOVFF  3E,33
....................          RX_Buffer[4]=RX_Buffer2[4]; 
055D4:  MOVFF  3F,34
....................          RX_Buffer[5]=RX_Buffer2[5]; 
055D8:  MOVFF  40,35
....................          RX_Buffer[6]=RX_Buffer2[6]; 
055DC:  MOVFF  41,36
....................          RX_Buffer[7]=RX_Buffer2[7]; 
055E0:  MOVFF  42,37
....................          RX_Buffer[8]=RX_Buffer2[8]; 
055E4:  MOVFF  43,38
....................          RX_Buffer[9]=RX_Buffer2[9]; 
055E8:  MOVFF  44,39
....................           
....................       if(RX_Buffer[3]==0x01){// Pregunta por la pagina en la que esta el display,01 es Contrasea de Acceso 
055EC:  DECFSZ 33,W
055EE:  BRA    55FE
....................          Menu=0; 
055F0:  CLRF   x47
....................          if(MenuAntt!=Menu) 
055F2:  MOVF   x47,W
055F4:  SUBWF  x49,W
055F6:  BZ    55FC
....................             MenuAntt=Menu; 
055F8:  MOVFF  347,349
....................       }else if(RX_Buffer[3]==0x02){//02 es Menu Principal con PantallaPriincipal=0, y con PantallaPrincipal=1 es Ciclo Libre 
055FC:  BRA    574C
055FE:  MOVF   33,W
05600:  SUBLW  02
05602:  BNZ   5614
....................          Menu=1; 
05604:  MOVLW  01
05606:  MOVWF  x47
....................          if(MenuAntt!=Menu) 
05608:  MOVF   x47,W
0560A:  SUBWF  x49,W
0560C:  BZ    5612
....................             MenuAntt=Menu; 
0560E:  MOVFF  347,349
....................       }else if(RX_Buffer[3]==0x03){//03 es Tiempo Esterilizacion 
05612:  BRA    574C
05614:  MOVF   33,W
05616:  SUBLW  03
05618:  BNZ   562A
....................          Menu=2; 
0561A:  MOVLW  02
0561C:  MOVWF  x47
....................          if(MenuAntt!=Menu) 
0561E:  MOVF   x47,W
05620:  SUBWF  x49,W
05622:  BZ    5628
....................             MenuAntt=Menu; 
05624:  MOVFF  347,349
....................       }else if(RX_Buffer[3]==0x04){//04 es Tiempo de Secado 
05628:  BRA    574C
0562A:  MOVF   33,W
0562C:  SUBLW  04
0562E:  BNZ   5640
....................          Menu=3; 
05630:  MOVLW  03
05632:  MOVWF  x47
....................          if(MenuAntt!=Menu) 
05634:  MOVF   x47,W
05636:  SUBWF  x49,W
05638:  BZ    563E
....................             MenuAntt=Menu; 
0563A:  MOVFF  347,349
....................       }else if(RX_Buffer[3]==0x05){//05 es Temperatura 
0563E:  BRA    574C
05640:  MOVF   33,W
05642:  SUBLW  05
05644:  BNZ   5656
....................          Menu=4; 
05646:  MOVLW  04
05648:  MOVWF  x47
....................          if(MenuAntt!=Menu) 
0564A:  MOVF   x47,W
0564C:  SUBWF  x49,W
0564E:  BZ    5654
....................             MenuAntt=Menu; 
05650:  MOVFF  347,349
....................       }else if(RX_Buffer[3]==0x06){//06 es Nivel 
05654:  BRA    574C
05656:  MOVF   33,W
05658:  SUBLW  06
0565A:  BNZ   566C
....................          Menu=5; 
0565C:  MOVLW  05
0565E:  MOVWF  x47
....................          if(MenuAntt!=Menu) 
05660:  MOVF   x47,W
05662:  SUBWF  x49,W
05664:  BZ    566A
....................             MenuAntt=Menu; 
05666:  MOVFF  347,349
....................       }else if(RX_Buffer[3]==0x07){//07 es Test de Componentes 
0566A:  BRA    574C
0566C:  MOVF   33,W
0566E:  SUBLW  07
05670:  BNZ   5682
....................          Menu=6; 
05672:  MOVLW  06
05674:  MOVWF  x47
....................          if(MenuAntt!=Menu) 
05676:  MOVF   x47,W
05678:  SUBWF  x49,W
0567A:  BZ    5680
....................             MenuAntt=Menu; 
0567C:  MOVFF  347,349
....................       }else if(RX_Buffer[3]==0x08){//08 es Fecha y hora 
05680:  BRA    574C
05682:  MOVF   33,W
05684:  SUBLW  08
05686:  BNZ   5698
....................          Menu=7; 
05688:  MOVLW  07
0568A:  MOVWF  x47
....................          if(MenuAntt!=Menu) 
0568C:  MOVF   x47,W
0568E:  SUBWF  x49,W
05690:  BZ    5696
....................             MenuAntt=Menu; 
05692:  MOVFF  347,349
....................       }else if(RX_Buffer[3]==0x09){//09 es Ciclos Personalizados 
05696:  BRA    574C
05698:  MOVF   33,W
0569A:  SUBLW  09
0569C:  BNZ   56AE
....................          Menu=8; 
0569E:  MOVLW  08
056A0:  MOVWF  x47
....................          if(MenuAntt!=Menu) 
056A2:  MOVF   x47,W
056A4:  SUBWF  x49,W
056A6:  BZ    56AC
....................             MenuAntt=Menu; 
056A8:  MOVFF  347,349
....................       }else if(RX_Buffer[3]==0x0a){//0a es Pulsos de Vacio 
056AC:  BRA    574C
056AE:  MOVF   33,W
056B0:  SUBLW  0A
056B2:  BNZ   56C4
....................          Menu=9; 
056B4:  MOVLW  09
056B6:  MOVWF  x47
....................          if(MenuAntt!=Menu) 
056B8:  MOVF   x47,W
056BA:  SUBWF  x49,W
056BC:  BZ    56C2
....................             MenuAntt=Menu; 
056BE:  MOVFF  347,349
....................       }else if(RX_Buffer[3]==0x0d){//0d es Ciclos 
056C2:  BRA    574C
056C4:  MOVF   33,W
056C6:  SUBLW  0D
056C8:  BNZ   56DA
....................          Menu=12; 
056CA:  MOVLW  0C
056CC:  MOVWF  x47
....................          if(MenuAntt!=Menu) 
056CE:  MOVF   x47,W
056D0:  SUBWF  x49,W
056D2:  BZ    56D8
....................             MenuAntt=Menu; 
056D4:  MOVFF  347,349
....................       }else if(RX_Buffer[3]==0x0f){//0f es Recibe caracteres de contrasea desde display 
056D8:  BRA    574C
056DA:  MOVF   33,W
056DC:  SUBLW  0F
056DE:  BNZ   56E2
....................           
....................       }else if(RX_Buffer[3]==0x1a){//1a es Menu de Funcionamiento 
056E0:  BRA    574C
056E2:  MOVF   33,W
056E4:  SUBLW  1A
056E6:  BNZ   56F8
....................          Menu=20; 
056E8:  MOVLW  14
056EA:  MOVWF  x47
....................          if(MenuAntt!=Menu) 
056EC:  MOVF   x47,W
056EE:  SUBWF  x49,W
056F0:  BZ    56F6
....................             MenuAntt=Menu; 
056F2:  MOVFF  347,349
....................       }else if(RX_Buffer[3]==0x1b){//1b es Menu de clave correcta 
056F6:  BRA    574C
056F8:  MOVF   33,W
056FA:  SUBLW  1B
056FC:  BNZ   570E
....................          Menu=15; 
056FE:  MOVLW  0F
05700:  MOVWF  x47
....................          if(MenuAntt!=Menu) 
05702:  MOVF   x47,W
05704:  SUBWF  x49,W
05706:  BZ    570C
....................             MenuAntt=Menu; 
05708:  MOVFF  347,349
....................       }else if(RX_Buffer[3]==0x1c){//1c es Menu de clave incorrecta 
0570C:  BRA    574C
0570E:  MOVF   33,W
05710:  SUBLW  1C
05712:  BNZ   5724
....................          Menu=16; 
05714:  MOVLW  10
05716:  MOVWF  x47
....................          if(MenuAntt!=Menu) 
05718:  MOVF   x47,W
0571A:  SUBWF  x49,W
0571C:  BZ    5722
....................             MenuAntt=Menu; 
0571E:  MOVFF  347,349
....................       }else if(RX_Buffer[3]==0x2c){//2c es Menu de Configuracion de Parametros 
05722:  BRA    574C
05724:  MOVF   33,W
05726:  SUBLW  2C
05728:  BNZ   573A
....................          Menu=100; 
0572A:  MOVLW  64
0572C:  MOVWF  x47
....................          if(MenuAntt!=Menu) 
0572E:  MOVF   x47,W
05730:  SUBWF  x49,W
05732:  BZ    5738
....................             MenuAntt=Menu; 
05734:  MOVFF  347,349
....................       }else if(RX_Buffer[3]==0xcc){//cc es Menu de Bienvenida 
05738:  BRA    574C
0573A:  MOVF   33,W
0573C:  SUBLW  CC
0573E:  BNZ   574C
....................          Menu=240; 
05740:  MOVLW  F0
05742:  MOVWF  x47
....................          if(MenuAntt!=240) 
05744:  MOVF   x49,W
05746:  SUBLW  F0
05748:  BZ    574C
....................             reset_cpu(); 
0574A:  RESET
....................       } 
....................    }else{ 
0574C:  BRA    575A
....................       for(z=0;z<RX_BUFFER_SIZE;z++){ 
0574E:  CLRF   x46
05750:  MOVF   x46,W
05752:  SUBLW  09
05754:  BNC   575A
....................             //Rx_Buffer[z]=0; 
....................             //Rx_Buffer2[z]=0; 
....................          } 
05756:  INCF   x46,F
05758:  BRA    5750
....................    } 
.................... } 
0575A:  MOVLB  0
0575C:  GOTO   10BAE (RETURN)
....................  
.................... void ActivaAlarma(int8 Tipo){ 
....................     
....................    if(tsilencio>12000){ 
*
0608A:  MOVLB  3
0608C:  MOVF   x86,W
0608E:  SUBLW  2D
06090:  BC    60A4
06092:  XORLW  FF
06094:  BNZ   609C
06096:  MOVF   x85,W
06098:  SUBLW  E0
0609A:  BC    60A4
....................       tsilencio=0; 
0609C:  CLRF   x86
0609E:  CLRF   x85
....................       flagSilencio=OFF; 
060A0:  MOVLB  0
060A2:  BCF    xA2.7
....................    } 
....................     
....................    if(Tipo==1){ // Alarma por Error 
060A4:  MOVLB  7
060A6:  DECFSZ x08,W
060A8:  BRA    60FE
....................    if(UP || DOWN || RIGHT || LEFT) 
060AA:  BSF    F93.0
060AC:  BTFSS  F81.0
060AE:  BRA    60C2
060B0:  BSF    F93.1
060B2:  BTFSS  F81.1
060B4:  BRA    60C2
060B6:  BSF    F93.2
060B8:  BTFSS  F81.2
060BA:  BRA    60C2
060BC:  BSF    F93.3
060BE:  BTFSC  F81.3
060C0:  BRA    60C6
....................       flagSilencio=ON; 
060C2:  MOVLB  0
060C4:  BSF    xA2.7
....................        
....................       if(!flagSilencio){ 
060C6:  MOVLB  0
060C8:  BTFSC  xA2.7
060CA:  BRA    60F4
....................          flagAlarma=1; 
060CC:  BSF    xA2.5
....................          if(tbuzzer>200){ 
060CE:  MOVLB  3
060D0:  MOVF   x84,F
060D2:  BNZ   60DA
060D4:  MOVF   x83,W
060D6:  SUBLW  C8
060D8:  BC    60F0
....................             tbuzzer=0; 
060DA:  CLRF   x84
060DC:  CLRF   x83
....................             if(flagBuzzer) 
060DE:  MOVLB  0
060E0:  BTFSS  xA2.6
060E2:  BRA    60EA
....................                Buzzer_on; 
060E4:  BSF    F8C.7
060E6:  BCF    F95.7
....................             else 
060E8:  BRA    60EE
....................                Buzzer_off; 
060EA:  BCF    F8C.7
060EC:  BCF    F95.7
060EE:  MOVLB  3
....................          } 
....................       }else{ 
060F0:  BRA    60FA
060F2:  MOVLB  0
....................          Buzzer_off; 
060F4:  BCF    F8C.7
060F6:  BCF    F95.7
060F8:  MOVLB  3
....................       } 
....................    }else if(Tipo==2){ 
060FA:  BRA    61B8
060FC:  MOVLB  7
060FE:  MOVF   x08,W
06100:  SUBLW  02
06102:  BNZ   615C
....................    if(UP || DOWN || RIGHT || LEFT) 
06104:  BSF    F93.0
06106:  BTFSS  F81.0
06108:  BRA    611C
0610A:  BSF    F93.1
0610C:  BTFSS  F81.1
0610E:  BRA    611C
06110:  BSF    F93.2
06112:  BTFSS  F81.2
06114:  BRA    611C
06116:  BSF    F93.3
06118:  BTFSC  F81.3
0611A:  BRA    6122
....................       ConteoBuzzer=21; 
0611C:  MOVLW  15
0611E:  MOVLB  3
06120:  MOVWF  x7F
....................        
....................       flagAlarma=1; 
06122:  MOVLB  0
06124:  BSF    xA2.5
....................       if(ConteoBuzzer<20){    
06126:  MOVLB  3
06128:  MOVF   x7F,W
0612A:  SUBLW  13
0612C:  BNC   6154
....................          if(tbuzzer>100){ 
0612E:  MOVF   x84,F
06130:  BNZ   6138
06132:  MOVF   x83,W
06134:  SUBLW  64
06136:  BC    6152
....................             tbuzzer=0; 
06138:  CLRF   x84
0613A:  CLRF   x83
....................             flagBuzzer=!flagBuzzer; 
0613C:  MOVLB  0
0613E:  BTG    xA2.6
....................             if(flagBuzzer) 
06140:  BTFSS  xA2.6
06142:  BRA    614A
....................                Buzzer_on; 
06144:  BSF    F8C.7
06146:  BCF    F95.7
....................             else 
06148:  BRA    614E
....................                Buzzer_off; 
0614A:  BCF    F8C.7
0614C:  BCF    F95.7
....................                 
....................             ConteoBuzzer++;    
0614E:  MOVLB  3
06150:  INCF   x7F,F
....................          } 
....................       }else{ 
06152:  BRA    6158
....................          Buzzer_off; 
06154:  BCF    F8C.7
06156:  BCF    F95.7
....................       } 
....................    }else if(Tipo==3){ 
06158:  BRA    61B8
0615A:  MOVLB  7
0615C:  MOVF   x08,W
0615E:  SUBLW  03
06160:  BNZ   61BA
....................       flagAlarma=1; 
06162:  MOVLB  0
06164:  BSF    xA2.5
....................       if(tbuzzer<400){    
06166:  MOVLB  3
06168:  MOVF   x84,W
0616A:  SUBLW  01
0616C:  BNC   617C
0616E:  BNZ   6176
06170:  MOVF   x83,W
06172:  SUBLW  8F
06174:  BNC   617C
....................          Buzzer_on; 
06176:  BSF    F8C.7
06178:  BCF    F95.7
....................       }else if(tbuzzer>400 && tbuzzer<2000){ 
0617A:  BRA    61B8
0617C:  MOVF   x84,W
0617E:  SUBLW  00
06180:  BC    61A0
06182:  XORLW  FF
06184:  BNZ   618C
06186:  MOVF   x83,W
06188:  SUBLW  90
0618A:  BC    61A0
0618C:  MOVF   x84,W
0618E:  SUBLW  07
06190:  BNC   61A0
06192:  BNZ   619A
06194:  MOVF   x83,W
06196:  SUBLW  CF
06198:  BNC   61A0
....................          Buzzer_off; 
0619A:  BCF    F8C.7
0619C:  BCF    F95.7
....................       }else if(tbuzzer>2000){ 
0619E:  BRA    61B8
061A0:  MOVF   x84,W
061A2:  SUBLW  06
061A4:  BC    61B8
061A6:  XORLW  FF
061A8:  BNZ   61B0
061AA:  MOVF   x83,W
061AC:  SUBLW  D0
061AE:  BC    61B8
....................          Buzzer_off; 
061B0:  BCF    F8C.7
061B2:  BCF    F95.7
....................          tbuzzer=0; 
061B4:  CLRF   x84
061B6:  CLRF   x83
061B8:  MOVLB  7
....................       } 
....................    } 
.................... } 
061BA:  MOVLB  0
061BC:  RETLW  00
....................  
.................... void ControlaPresion(){ 
....................    if(Setpoint<125){ 
*
05B82:  MOVLB  3
05B84:  MOVF   x4E,W
05B86:  SUBLW  7C
05B88:  BNC   5BDE
....................       if(PresionPreCamara<180){ 
05B8A:  MOVF   x68,F
05B8C:  BNZ   5B9A
05B8E:  MOVF   x67,W
05B90:  SUBLW  B3
05B92:  BNC   5B9A
....................          SSR_on; 
05B94:  BSF    F8D.1
05B96:  BCF    F96.1
....................       }else if(PresionPreCamara>205){ 
05B98:  BRA    5BDC
05B9A:  MOVF   x68,F
05B9C:  BNZ   5BA4
05B9E:  MOVF   x67,W
05BA0:  SUBLW  CD
05BA2:  BC    5BDC
....................          SSR_off; 
05BA4:  BCF    F8D.1
05BA6:  BCF    F96.1
....................          if(!Precalentamiento && guardaCiclo){ 
05BA8:  MOVLB  0
05BAA:  BTFSC  xA3.7
05BAC:  BRA    5BDA
05BAE:  BTFSS  xA3.6
05BB0:  BRA    5BDA
....................             Precalentamiento=ON; 
05BB2:  BSF    xA3.7
....................             if(DOOR){ 
05BB4:  BSF    F93.6
05BB6:  BTFSC  F81.6
05BB8:  BRA    5BDA
....................                Paso_on; 
05BBA:  BCF    F8B.0
05BBC:  BCF    F94.0
....................                delay_ms(1500); 
05BBE:  MOVLW  06
05BC0:  MOVLB  7
05BC2:  MOVWF  x08
05BC4:  MOVLW  FA
05BC6:  MOVWF  x1E
05BC8:  MOVLB  0
05BCA:  CALL   2060
05BCE:  MOVLB  7
05BD0:  DECFSZ x08,F
05BD2:  BRA    5BC4
....................                Paso_off; 
05BD4:  BSF    F8B.0
05BD6:  BCF    F94.0
05BD8:  MOVLB  0
05BDA:  MOVLB  3
....................             } 
....................          } 
....................       } 
....................    }else{ 
05BDC:  BRA    5C3A
....................       if(PresionPreCamara<280){ 
05BDE:  MOVF   x68,W
05BE0:  SUBLW  01
05BE2:  BNC   5BF2
05BE4:  BNZ   5BEC
05BE6:  MOVF   x67,W
05BE8:  SUBLW  17
05BEA:  BNC   5BF2
....................          SSR_on; 
05BEC:  BSF    F8D.1
05BEE:  BCF    F96.1
....................       }else if(PresionPreCamara>300){ 
05BF0:  BRA    5C3A
05BF2:  MOVF   x68,W
05BF4:  SUBLW  00
05BF6:  BC    5C3A
05BF8:  XORLW  FF
05BFA:  BNZ   5C02
05BFC:  MOVF   x67,W
05BFE:  SUBLW  2C
05C00:  BC    5C3A
....................          SSR_off; 
05C02:  BCF    F8D.1
05C04:  BCF    F96.1
....................          if(!Precalentamiento && guardaCiclo){ 
05C06:  MOVLB  0
05C08:  BTFSC  xA3.7
05C0A:  BRA    5C38
05C0C:  BTFSS  xA3.6
05C0E:  BRA    5C38
....................             Precalentamiento=ON; 
05C10:  BSF    xA3.7
....................             if(DOOR){ 
05C12:  BSF    F93.6
05C14:  BTFSC  F81.6
05C16:  BRA    5C38
....................                Paso_on; 
05C18:  BCF    F8B.0
05C1A:  BCF    F94.0
....................                delay_ms(1500); 
05C1C:  MOVLW  06
05C1E:  MOVLB  7
05C20:  MOVWF  x08
05C22:  MOVLW  FA
05C24:  MOVWF  x1E
05C26:  MOVLB  0
05C28:  CALL   2060
05C2C:  MOVLB  7
05C2E:  DECFSZ x08,F
05C30:  BRA    5C22
....................                Paso_off; 
05C32:  BSF    F8B.0
05C34:  BCF    F94.0
05C36:  MOVLB  0
05C38:  MOVLB  3
....................             } 
....................          } 
....................       } 
....................    } 
.................... } 
05C3A:  MOVLB  0
05C3C:  RETLW  00
....................  
.................... void ApagaSalidas(){ 
....................    Desfogue_off; 
*
045A0:  BSF    F8B.1
045A2:  BCF    F94.1
....................    Agua_off; 
045A4:  BSF    F8C.3
045A6:  BCF    F95.3
....................    Buzzer_off; 
045A8:  BCF    F8C.7
045AA:  BCF    F95.7
....................    SSR_off; 
045AC:  BCF    F8D.1
045AE:  BCF    F96.1
....................    EV8_off; 
045B0:  BSF    F8C.2
045B2:  BCF    F95.2
....................    Agua_off; 
045B4:  BSF    F8C.3
045B6:  BCF    F95.3
....................    Paso_off; 
045B8:  BSF    F8B.0
045BA:  BCF    F94.0
....................    SSR2_off; 
045BC:  BCF    F8D.2
045BE:  BCF    F96.2
....................    Aire_off; 
045C0:  BSF    F8C.0
045C2:  BCF    F95.0
....................    AireB_off; 
045C4:  BSF    F8C.1
045C6:  BCF    F95.1
....................    Controlando=0; 
045C8:  MOVLB  3
045CA:  CLRF   x3F
.................... } 
045CC:  MOVLB  0
045CE:  RETLW  00
....................  
.................... void purgaAire(){ 
....................    if(!purga){ 
....................       for(i=0;i<4;i++){ 
....................          Desfogue_on; 
....................          delay_ms(2000); 
....................          Desfogue_off; 
....................          delay_ms(1000); 
....................       } 
....................       purga=ON; 
....................    } 
.................... } 
....................  
.................... void GuardaDatoEstatico(){ 
*
081C0:  MOVLB  7
081C2:  CLRF   x09
081C4:  CLRF   x08
081C6:  CLRF   x0B
081C8:  CLRF   x0A
....................    int16 posCiclo=0,cicloMemoria=0; 
....................    posCiclo=Ciclos/200; 
081CA:  MOVFF  36A,71F
081CE:  MOVFF  369,71E
081D2:  CLRF   x21
081D4:  MOVLW  C8
081D6:  MOVWF  x20
081D8:  MOVLB  0
081DA:  CALL   68F6
081DE:  MOVFF  02,709
081E2:  MOVFF  01,708
....................    cicloMemoria=Ciclos-(posCiclo*200); 
081E6:  MOVFF  709,71F
081EA:  MOVFF  708,71E
081EE:  MOVLB  7
081F0:  CLRF   x21
081F2:  MOVLW  C8
081F4:  MOVWF  x20
081F6:  MOVLB  0
081F8:  CALL   2494
081FC:  MOVF   01,W
081FE:  MOVLB  3
08200:  SUBWF  x69,W
08202:  MOVLB  7
08204:  MOVWF  x0A
08206:  MOVF   02,W
08208:  MOVLB  3
0820A:  SUBWFB x6A,W
0820C:  MOVLB  7
0820E:  MOVWF  x0B
....................    if(!disp_Guarda){ 
08210:  MOVLB  0
08212:  BTFSC  xA3.5
08214:  BRA    83BA
....................       write_ext_eeprom(cicloMemoria*320,1); 
08216:  MOVFF  70B,71F
0821A:  MOVFF  70A,71E
0821E:  MOVLW  01
08220:  MOVLB  7
08222:  MOVWF  x21
08224:  MOVLW  40
08226:  MOVWF  x20
08228:  MOVLB  0
0822A:  CALL   2494
0822E:  MOVFF  02,70D
08232:  MOVFF  01,70C
08236:  MOVFF  02,721
0823A:  MOVFF  01,720
0823E:  MOVLW  01
08240:  MOVLB  7
08242:  MOVWF  x22
08244:  MOVLB  0
08246:  CALL   693C
....................       delay_ms(10); 
0824A:  MOVLW  0A
0824C:  MOVLB  7
0824E:  MOVWF  x1E
08250:  MOVLB  0
08252:  CALL   2060
....................       if(!Libre) 
08256:  BTFSC  xA3.2
08258:  BRA    8296
....................          write_ext_eeprom(1+(cicloMemoria*320),CicloSeleccionado); 
0825A:  MOVFF  70B,71F
0825E:  MOVFF  70A,71E
08262:  MOVLW  01
08264:  MOVLB  7
08266:  MOVWF  x21
08268:  MOVLW  40
0826A:  MOVWF  x20
0826C:  MOVLB  0
0826E:  CALL   2494
08272:  MOVFF  02,03
08276:  MOVF   01,W
08278:  ADDLW  01
0827A:  MOVLB  7
0827C:  MOVWF  x0C
0827E:  MOVLW  00
08280:  ADDWFC 02,W
08282:  MOVWF  x0D
08284:  MOVWF  x21
08286:  MOVFF  70C,720
0828A:  MOVFF  34D,722
0828E:  MOVLB  0
08290:  CALL   693C
....................       else 
08294:  BRA    82DA
....................          write_ext_eeprom(1+(cicloMemoria*320),CicloLibre+6); 
08296:  MOVFF  70B,71F
0829A:  MOVFF  70A,71E
0829E:  MOVLW  01
082A0:  MOVLB  7
082A2:  MOVWF  x21
082A4:  MOVLW  40
082A6:  MOVWF  x20
082A8:  MOVLB  0
082AA:  CALL   2494
082AE:  MOVFF  02,03
082B2:  MOVF   01,W
082B4:  ADDLW  01
082B6:  MOVLB  7
082B8:  MOVWF  x0C
082BA:  MOVLW  00
082BC:  ADDWFC 02,W
082BE:  MOVWF  x0D
082C0:  MOVLW  06
082C2:  MOVLB  3
082C4:  ADDWF  x2D,W
082C6:  MOVLB  7
082C8:  MOVWF  x0E
082CA:  MOVFF  70D,721
082CE:  MOVFF  70C,720
082D2:  MOVWF  x22
082D4:  MOVLB  0
082D6:  CALL   693C
....................       delay_ms(10); 
082DA:  MOVLW  0A
082DC:  MOVLB  7
082DE:  MOVWF  x1E
082E0:  MOVLB  0
082E2:  CALL   2060
....................       write_ext_eeprom(2+(cicloMemoria*320),Dia); 
082E6:  MOVFF  70B,71F
082EA:  MOVFF  70A,71E
082EE:  MOVLW  01
082F0:  MOVLB  7
082F2:  MOVWF  x21
082F4:  MOVLW  40
082F6:  MOVWF  x20
082F8:  MOVLB  0
082FA:  CALL   2494
082FE:  MOVFF  02,03
08302:  MOVF   01,W
08304:  ADDLW  02
08306:  MOVLB  7
08308:  MOVWF  x0C
0830A:  MOVLW  00
0830C:  ADDWFC 02,W
0830E:  MOVWF  x0D
08310:  MOVWF  x21
08312:  MOVFF  70C,720
08316:  MOVFF  38D,722
0831A:  MOVLB  0
0831C:  CALL   693C
....................       delay_ms(10); 
08320:  MOVLW  0A
08322:  MOVLB  7
08324:  MOVWF  x1E
08326:  MOVLB  0
08328:  CALL   2060
....................       write_ext_eeprom(3+(cicloMemoria*320),Mes); 
0832C:  MOVFF  70B,71F
08330:  MOVFF  70A,71E
08334:  MOVLW  01
08336:  MOVLB  7
08338:  MOVWF  x21
0833A:  MOVLW  40
0833C:  MOVWF  x20
0833E:  MOVLB  0
08340:  CALL   2494
08344:  MOVFF  02,03
08348:  MOVF   01,W
0834A:  ADDLW  03
0834C:  MOVLB  7
0834E:  MOVWF  x0C
08350:  MOVLW  00
08352:  ADDWFC 02,W
08354:  MOVWF  x0D
08356:  MOVWF  x21
08358:  MOVFF  70C,720
0835C:  MOVFF  38C,722
08360:  MOVLB  0
08362:  CALL   693C
....................       delay_ms(10); 
08366:  MOVLW  0A
08368:  MOVLB  7
0836A:  MOVWF  x1E
0836C:  MOVLB  0
0836E:  CALL   2060
....................       write_ext_eeprom(4+(cicloMemoria*320),Year); 
08372:  MOVFF  70B,71F
08376:  MOVFF  70A,71E
0837A:  MOVLW  01
0837C:  MOVLB  7
0837E:  MOVWF  x21
08380:  MOVLW  40
08382:  MOVWF  x20
08384:  MOVLB  0
08386:  CALL   2494
0838A:  MOVFF  02,03
0838E:  MOVF   01,W
08390:  ADDLW  04
08392:  MOVLB  7
08394:  MOVWF  x0C
08396:  MOVLW  00
08398:  ADDWFC 02,W
0839A:  MOVWF  x0D
0839C:  MOVWF  x21
0839E:  MOVFF  70C,720
083A2:  MOVFF  38B,722
083A6:  MOVLB  0
083A8:  CALL   693C
....................       delay_ms(10);  
083AC:  MOVLW  0A
083AE:  MOVLB  7
083B0:  MOVWF  x1E
083B2:  MOVLB  0
083B4:  CALL   2060
....................       disp_Guarda=1; 
083B8:  BSF    xA3.5
....................    }    
.................... } 
083BA:  GOTO   1493E (RETURN)
....................  
.................... void GuardaDatoCiclo(){ 
*
08488:  MOVLB  7
0848A:  CLRF   x09
0848C:  CLRF   x08
0848E:  CLRF   x0B
08490:  CLRF   x0A
....................    int16 posCiclo=0,cicloMemoria=0; 
....................    posCiclo=Ciclos/200; 
08492:  MOVFF  36A,71F
08496:  MOVFF  369,71E
0849A:  CLRF   x21
0849C:  MOVLW  C8
0849E:  MOVWF  x20
084A0:  MOVLB  0
084A2:  CALL   68F6
084A6:  MOVFF  02,709
084AA:  MOVFF  01,708
....................    if(!Ciclo){ 
084AE:  BTFSC  xA1.5
084B0:  BRA    883A
....................       cicloMemoria=Ciclos-(posCiclo*200); 
084B2:  MOVFF  709,71F
084B6:  MOVFF  708,71E
084BA:  MOVLB  7
084BC:  CLRF   x21
084BE:  MOVLW  C8
084C0:  MOVWF  x20
084C2:  MOVLB  0
084C4:  CALL   2494
084C8:  MOVF   01,W
084CA:  MOVLB  3
084CC:  SUBWF  x69,W
084CE:  MOVLB  7
084D0:  MOVWF  x0A
084D2:  MOVF   02,W
084D4:  MOVLB  3
084D6:  SUBWFB x6A,W
084D8:  MOVLB  7
084DA:  MOVWF  x0B
....................       write_ext_eeprom(5+(cicloMemoria*320)+(posicionDato*9),(int8)Temperatura); 
084DC:  MOVFF  70B,71F
084E0:  MOVFF  70A,71E
084E4:  MOVLW  01
084E6:  MOVWF  x21
084E8:  MOVLW  40
084EA:  MOVWF  x20
084EC:  MOVLB  0
084EE:  CALL   2494
084F2:  MOVFF  02,03
084F6:  MOVF   01,W
084F8:  ADDLW  05
084FA:  MOVLB  7
084FC:  MOVWF  x0C
084FE:  MOVLW  00
08500:  ADDWFC 02,W
08502:  MOVWF  x0D
08504:  MOVLB  3
08506:  MOVF   x32,W
08508:  MULLW  09
0850A:  MOVF   FF3,W
0850C:  MOVLB  7
0850E:  ADDWF  x0C,F
08510:  MOVLW  00
08512:  ADDWFC x0D,F
08514:  MOVFF  316,71D
08518:  MOVFF  315,71C
0851C:  MOVFF  314,71B
08520:  MOVFF  313,71A
08524:  MOVLB  0
08526:  CALL   5380
0852A:  MOVFF  01,70E
0852E:  MOVFF  70D,721
08532:  MOVFF  70C,720
08536:  MOVFF  01,722
0853A:  CALL   693C
....................       delay_ms(10); 
0853E:  MOVLW  0A
08540:  MOVLB  7
08542:  MOVWF  x1E
08544:  MOVLB  0
08546:  CALL   2060
....................       write_ext_eeprom(6+(cicloMemoria*320)+(posicionDato*9),extraeDecimal(Temperatura)); 
0854A:  MOVFF  70B,71F
0854E:  MOVFF  70A,71E
08552:  MOVLW  01
08554:  MOVLB  7
08556:  MOVWF  x21
08558:  MOVLW  40
0855A:  MOVWF  x20
0855C:  MOVLB  0
0855E:  CALL   2494
08562:  MOVFF  02,03
08566:  MOVF   01,W
08568:  ADDLW  06
0856A:  MOVLB  7
0856C:  MOVWF  x0C
0856E:  MOVLW  00
08570:  ADDWFC 02,W
08572:  MOVWF  x0D
08574:  MOVLB  3
08576:  MOVF   x32,W
08578:  MULLW  09
0857A:  MOVF   FF3,W
0857C:  MOVLB  7
0857E:  ADDWF  x0C,F
08580:  MOVLW  00
08582:  ADDWFC x0D,F
08584:  MOVFF  316,711
08588:  MOVFF  315,710
0858C:  MOVFF  314,70F
08590:  MOVFF  313,70E
08594:  MOVLB  0
08596:  BRA    83BE
08598:  MOVFF  01,70E
0859C:  MOVFF  70D,721
085A0:  MOVFF  70C,720
085A4:  MOVFF  01,722
085A8:  CALL   693C
....................       delay_ms(10); 
085AC:  MOVLW  0A
085AE:  MOVLB  7
085B0:  MOVWF  x1E
085B2:  MOVLB  0
085B4:  CALL   2060
....................       write_ext_eeprom(7+(cicloMemoria*320)+(posicionDato*9),make8(PresionCamara,1)); 
085B8:  MOVFF  70B,71F
085BC:  MOVFF  70A,71E
085C0:  MOVLW  01
085C2:  MOVLB  7
085C4:  MOVWF  x21
085C6:  MOVLW  40
085C8:  MOVWF  x20
085CA:  MOVLB  0
085CC:  CALL   2494
085D0:  MOVFF  02,03
085D4:  MOVF   01,W
085D6:  ADDLW  07
085D8:  MOVLB  7
085DA:  MOVWF  x0C
085DC:  MOVLW  00
085DE:  ADDWFC 02,W
085E0:  MOVWF  x0D
085E2:  MOVLB  3
085E4:  MOVF   x32,W
085E6:  MULLW  09
085E8:  MOVF   FF3,W
085EA:  MOVLB  7
085EC:  ADDWF  x0C,F
085EE:  MOVLW  00
085F0:  ADDWFC x0D,F
085F2:  MOVFF  366,70E
085F6:  MOVFF  70D,721
085FA:  MOVFF  70C,720
085FE:  MOVFF  366,722
08602:  MOVLB  0
08604:  CALL   693C
....................       delay_ms(10); 
08608:  MOVLW  0A
0860A:  MOVLB  7
0860C:  MOVWF  x1E
0860E:  MOVLB  0
08610:  CALL   2060
....................       write_ext_eeprom(8+(cicloMemoria*320)+(posicionDato*9),make8(PresionCamara,0)); 
08614:  MOVFF  70B,71F
08618:  MOVFF  70A,71E
0861C:  MOVLW  01
0861E:  MOVLB  7
08620:  MOVWF  x21
08622:  MOVLW  40
08624:  MOVWF  x20
08626:  MOVLB  0
08628:  CALL   2494
0862C:  MOVFF  02,03
08630:  MOVF   01,W
08632:  ADDLW  08
08634:  MOVLB  7
08636:  MOVWF  x0C
08638:  MOVLW  00
0863A:  ADDWFC 02,W
0863C:  MOVWF  x0D
0863E:  MOVLB  3
08640:  MOVF   x32,W
08642:  MULLW  09
08644:  MOVF   FF3,W
08646:  MOVLB  7
08648:  ADDWF  x0C,F
0864A:  MOVLW  00
0864C:  ADDWFC x0D,F
0864E:  MOVFF  365,70E
08652:  MOVFF  70D,721
08656:  MOVFF  70C,720
0865A:  MOVFF  365,722
0865E:  MOVLB  0
08660:  CALL   693C
....................       delay_ms(10); 
08664:  MOVLW  0A
08666:  MOVLB  7
08668:  MOVWF  x1E
0866A:  MOVLB  0
0866C:  CALL   2060
....................       write_ext_eeprom(9+(cicloMemoria*320)+(posicionDato*9),make8(PresionPreCamara,1)); 
08670:  MOVFF  70B,71F
08674:  MOVFF  70A,71E
08678:  MOVLW  01
0867A:  MOVLB  7
0867C:  MOVWF  x21
0867E:  MOVLW  40
08680:  MOVWF  x20
08682:  MOVLB  0
08684:  CALL   2494
08688:  MOVFF  02,03
0868C:  MOVF   01,W
0868E:  ADDLW  09
08690:  MOVLB  7
08692:  MOVWF  x0C
08694:  MOVLW  00
08696:  ADDWFC 02,W
08698:  MOVWF  x0D
0869A:  MOVLB  3
0869C:  MOVF   x32,W
0869E:  MULLW  09
086A0:  MOVF   FF3,W
086A2:  MOVLB  7
086A4:  ADDWF  x0C,F
086A6:  MOVLW  00
086A8:  ADDWFC x0D,F
086AA:  MOVFF  368,70E
086AE:  MOVFF  70D,721
086B2:  MOVFF  70C,720
086B6:  MOVFF  368,722
086BA:  MOVLB  0
086BC:  CALL   693C
....................       delay_ms(10); 
086C0:  MOVLW  0A
086C2:  MOVLB  7
086C4:  MOVWF  x1E
086C6:  MOVLB  0
086C8:  CALL   2060
....................       write_ext_eeprom(10+(cicloMemoria*320)+(posicionDato*9),make8(PresionPreCamara,0)); 
086CC:  MOVFF  70B,71F
086D0:  MOVFF  70A,71E
086D4:  MOVLW  01
086D6:  MOVLB  7
086D8:  MOVWF  x21
086DA:  MOVLW  40
086DC:  MOVWF  x20
086DE:  MOVLB  0
086E0:  CALL   2494
086E4:  MOVFF  02,03
086E8:  MOVF   01,W
086EA:  ADDLW  0A
086EC:  MOVLB  7
086EE:  MOVWF  x0C
086F0:  MOVLW  00
086F2:  ADDWFC 02,W
086F4:  MOVWF  x0D
086F6:  MOVLB  3
086F8:  MOVF   x32,W
086FA:  MULLW  09
086FC:  MOVF   FF3,W
086FE:  MOVLB  7
08700:  ADDWF  x0C,F
08702:  MOVLW  00
08704:  ADDWFC x0D,F
08706:  MOVFF  367,70E
0870A:  MOVFF  70D,721
0870E:  MOVFF  70C,720
08712:  MOVFF  367,722
08716:  MOVLB  0
08718:  CALL   693C
....................       delay_ms(10); 
0871C:  MOVLW  0A
0871E:  MOVLB  7
08720:  MOVWF  x1E
08722:  MOVLB  0
08724:  CALL   2060
....................       write_ext_eeprom(11+(cicloMemoria*320)+(posicionDato*9),Hora); 
08728:  MOVFF  70B,71F
0872C:  MOVFF  70A,71E
08730:  MOVLW  01
08732:  MOVLB  7
08734:  MOVWF  x21
08736:  MOVLW  40
08738:  MOVWF  x20
0873A:  MOVLB  0
0873C:  CALL   2494
08740:  MOVFF  02,03
08744:  MOVF   01,W
08746:  ADDLW  0B
08748:  MOVLB  7
0874A:  MOVWF  x0C
0874C:  MOVLW  00
0874E:  ADDWFC 02,W
08750:  MOVWF  x0D
08752:  MOVLB  3
08754:  MOVF   x32,W
08756:  MULLW  09
08758:  MOVF   FF3,W
0875A:  MOVLB  7
0875C:  ADDWF  x0C,F
0875E:  MOVLW  00
08760:  ADDWFC x0D,F
08762:  MOVFF  70D,721
08766:  MOVFF  70C,720
0876A:  MOVFF  38E,722
0876E:  MOVLB  0
08770:  CALL   693C
....................       delay_ms(10); 
08774:  MOVLW  0A
08776:  MOVLB  7
08778:  MOVWF  x1E
0877A:  MOVLB  0
0877C:  CALL   2060
....................       write_ext_eeprom(12+(cicloMemoria*320)+(posicionDato*9),Minuto); 
08780:  MOVFF  70B,71F
08784:  MOVFF  70A,71E
08788:  MOVLW  01
0878A:  MOVLB  7
0878C:  MOVWF  x21
0878E:  MOVLW  40
08790:  MOVWF  x20
08792:  MOVLB  0
08794:  CALL   2494
08798:  MOVFF  02,03
0879C:  MOVF   01,W
0879E:  ADDLW  0C
087A0:  MOVLB  7
087A2:  MOVWF  x0C
087A4:  MOVLW  00
087A6:  ADDWFC 02,W
087A8:  MOVWF  x0D
087AA:  MOVLB  3
087AC:  MOVF   x32,W
087AE:  MULLW  09
087B0:  MOVF   FF3,W
087B2:  MOVLB  7
087B4:  ADDWF  x0C,F
087B6:  MOVLW  00
087B8:  ADDWFC x0D,F
087BA:  MOVFF  70D,721
087BE:  MOVFF  70C,720
087C2:  MOVFF  38F,722
087C6:  MOVLB  0
087C8:  CALL   693C
....................       delay_ms(10); 
087CC:  MOVLW  0A
087CE:  MOVLB  7
087D0:  MOVWF  x1E
087D2:  MOVLB  0
087D4:  CALL   2060
....................       write_ext_eeprom(13+(cicloMemoria*320)+(posicionDato*9),codigoAlarma); 
087D8:  MOVFF  70B,71F
087DC:  MOVFF  70A,71E
087E0:  MOVLW  01
087E2:  MOVLB  7
087E4:  MOVWF  x21
087E6:  MOVLW  40
087E8:  MOVWF  x20
087EA:  MOVLB  0
087EC:  CALL   2494
087F0:  MOVFF  02,03
087F4:  MOVF   01,W
087F6:  ADDLW  0D
087F8:  MOVLB  7
087FA:  MOVWF  x0C
087FC:  MOVLW  00
087FE:  ADDWFC 02,W
08800:  MOVWF  x0D
08802:  MOVLB  3
08804:  MOVF   x32,W
08806:  MULLW  09
08808:  MOVF   FF3,W
0880A:  MOVLB  7
0880C:  ADDWF  x0C,F
0880E:  MOVLW  00
08810:  ADDWFC x0D,F
08812:  MOVFF  70D,721
08816:  MOVFF  70C,720
0881A:  MOVFF  333,722
0881E:  MOVLB  0
08820:  CALL   693C
....................       delay_ms(10); 
08824:  MOVLW  0A
08826:  MOVLB  7
08828:  MOVWF  x1E
0882A:  MOVLB  0
0882C:  CALL   2060
....................     
....................       if(posicionDato<35) 
08830:  MOVLB  3
08832:  MOVF   x32,W
08834:  SUBLW  22
08836:  BNC   883A
....................          ++posicionDato; 
08838:  INCF   x32,F
0883A:  MOVLB  0
....................    } 
.................... } 
0883C:  RETLW  00
....................  
.................... void borraDatoCiclo(){ 
*
06A48:  MOVLB  7
06A4A:  CLRF   x1B
06A4C:  CLRF   x1A
06A4E:  CLRF   x1D
06A50:  CLRF   x1C
....................    int16 posCiclo=0,cicloMemoria=0; 
....................    posCiclo=Ciclos/200; 
06A52:  MOVFF  36A,71F
06A56:  MOVFF  369,71E
06A5A:  CLRF   x21
06A5C:  MOVLW  C8
06A5E:  MOVWF  x20
06A60:  MOVLB  0
06A62:  RCALL  68F6
06A64:  MOVFF  02,71B
06A68:  MOVFF  01,71A
....................    cicloMemoria=Ciclos-(posCiclo*200); 
06A6C:  MOVFF  71B,71F
06A70:  MOVFF  71A,71E
06A74:  MOVLB  7
06A76:  CLRF   x21
06A78:  MOVLW  C8
06A7A:  MOVWF  x20
06A7C:  MOVLB  0
06A7E:  CALL   2494
06A82:  MOVF   01,W
06A84:  MOVLB  3
06A86:  SUBWF  x69,W
06A88:  MOVLB  7
06A8A:  MOVWF  x1C
06A8C:  MOVF   02,W
06A8E:  MOVLB  3
06A90:  SUBWFB x6A,W
06A92:  MOVLB  7
06A94:  MOVWF  x1D
....................    write_ext_eeprom(cicloMemoria*320,1); 
06A96:  MOVFF  71D,71F
06A9A:  MOVFF  71C,71E
06A9E:  MOVLW  01
06AA0:  MOVWF  x21
06AA2:  MOVLW  40
06AA4:  MOVWF  x20
06AA6:  MOVLB  0
06AA8:  CALL   2494
06AAC:  MOVFF  02,71F
06AB0:  MOVFF  01,71E
06AB4:  MOVFF  02,721
06AB8:  MOVFF  01,720
06ABC:  MOVLW  01
06ABE:  MOVLB  7
06AC0:  MOVWF  x22
06AC2:  MOVLB  0
06AC4:  RCALL  693C
....................    delay_ms(1); 
06AC6:  MOVLW  01
06AC8:  MOVLB  7
06ACA:  MOVWF  x1E
06ACC:  MOVLB  0
06ACE:  CALL   2060
....................    write_ext_eeprom(1+(cicloMemoria*320),0); 
06AD2:  MOVFF  71D,71F
06AD6:  MOVFF  71C,71E
06ADA:  MOVLW  01
06ADC:  MOVLB  7
06ADE:  MOVWF  x21
06AE0:  MOVLW  40
06AE2:  MOVWF  x20
06AE4:  MOVLB  0
06AE6:  CALL   2494
06AEA:  MOVFF  02,03
06AEE:  MOVF   01,W
06AF0:  ADDLW  01
06AF2:  MOVLB  7
06AF4:  MOVWF  x1E
06AF6:  MOVLW  00
06AF8:  ADDWFC 02,W
06AFA:  MOVWF  x1F
06AFC:  MOVWF  x21
06AFE:  MOVFF  71E,720
06B02:  CLRF   x22
06B04:  MOVLB  0
06B06:  RCALL  693C
....................    delay_ms(1); 
06B08:  MOVLW  01
06B0A:  MOVLB  7
06B0C:  MOVWF  x1E
06B0E:  MOVLB  0
06B10:  CALL   2060
....................    write_ext_eeprom(2+(cicloMemoria*320),0); 
06B14:  MOVFF  71D,71F
06B18:  MOVFF  71C,71E
06B1C:  MOVLW  01
06B1E:  MOVLB  7
06B20:  MOVWF  x21
06B22:  MOVLW  40
06B24:  MOVWF  x20
06B26:  MOVLB  0
06B28:  CALL   2494
06B2C:  MOVFF  02,03
06B30:  MOVF   01,W
06B32:  ADDLW  02
06B34:  MOVLB  7
06B36:  MOVWF  x1E
06B38:  MOVLW  00
06B3A:  ADDWFC 02,W
06B3C:  MOVWF  x1F
06B3E:  MOVWF  x21
06B40:  MOVFF  71E,720
06B44:  CLRF   x22
06B46:  MOVLB  0
06B48:  RCALL  693C
....................    delay_ms(1); 
06B4A:  MOVLW  01
06B4C:  MOVLB  7
06B4E:  MOVWF  x1E
06B50:  MOVLB  0
06B52:  CALL   2060
....................    write_ext_eeprom(3+(cicloMemoria*320),0); 
06B56:  MOVFF  71D,71F
06B5A:  MOVFF  71C,71E
06B5E:  MOVLW  01
06B60:  MOVLB  7
06B62:  MOVWF  x21
06B64:  MOVLW  40
06B66:  MOVWF  x20
06B68:  MOVLB  0
06B6A:  CALL   2494
06B6E:  MOVFF  02,03
06B72:  MOVF   01,W
06B74:  ADDLW  03
06B76:  MOVLB  7
06B78:  MOVWF  x1E
06B7A:  MOVLW  00
06B7C:  ADDWFC 02,W
06B7E:  MOVWF  x1F
06B80:  MOVWF  x21
06B82:  MOVFF  71E,720
06B86:  CLRF   x22
06B88:  MOVLB  0
06B8A:  RCALL  693C
....................    delay_ms(1); 
06B8C:  MOVLW  01
06B8E:  MOVLB  7
06B90:  MOVWF  x1E
06B92:  MOVLB  0
06B94:  CALL   2060
....................    write_ext_eeprom(4+(cicloMemoria*320),0); 
06B98:  MOVFF  71D,71F
06B9C:  MOVFF  71C,71E
06BA0:  MOVLW  01
06BA2:  MOVLB  7
06BA4:  MOVWF  x21
06BA6:  MOVLW  40
06BA8:  MOVWF  x20
06BAA:  MOVLB  0
06BAC:  CALL   2494
06BB0:  MOVFF  02,03
06BB4:  MOVF   01,W
06BB6:  ADDLW  04
06BB8:  MOVLB  7
06BBA:  MOVWF  x1E
06BBC:  MOVLW  00
06BBE:  ADDWFC 02,W
06BC0:  MOVWF  x1F
06BC2:  MOVWF  x21
06BC4:  MOVFF  71E,720
06BC8:  CLRF   x22
06BCA:  MOVLB  0
06BCC:  RCALL  693C
....................    delay_ms(1);  
06BCE:  MOVLW  01
06BD0:  MOVLB  7
06BD2:  MOVWF  x1E
06BD4:  MOVLB  0
06BD6:  CALL   2060
....................    for(posicionDato=0;posicionDato<35;posicionDato++){ 
06BDA:  MOVLB  3
06BDC:  CLRF   x32
06BDE:  MOVF   x32,W
06BE0:  SUBLW  22
06BE2:  BTFSS  FD8.0
06BE4:  BRA    6EE0
....................       write_ext_eeprom(5+(cicloMemoria*320)+(posicionDato*9),0); 
06BE6:  MOVFF  71D,71F
06BEA:  MOVFF  71C,71E
06BEE:  MOVLW  01
06BF0:  MOVLB  7
06BF2:  MOVWF  x21
06BF4:  MOVLW  40
06BF6:  MOVWF  x20
06BF8:  MOVLB  0
06BFA:  CALL   2494
06BFE:  MOVFF  02,03
06C02:  MOVF   01,W
06C04:  ADDLW  05
06C06:  MOVLB  7
06C08:  MOVWF  x1E
06C0A:  MOVLW  00
06C0C:  ADDWFC 02,W
06C0E:  MOVWF  x1F
06C10:  MOVLB  3
06C12:  MOVF   x32,W
06C14:  MULLW  09
06C16:  MOVF   FF3,W
06C18:  MOVLB  7
06C1A:  ADDWF  x1E,F
06C1C:  MOVLW  00
06C1E:  ADDWFC x1F,F
06C20:  MOVFF  71F,721
06C24:  MOVFF  71E,720
06C28:  CLRF   x22
06C2A:  MOVLB  0
06C2C:  RCALL  693C
....................       delay_ms(1); 
06C2E:  MOVLW  01
06C30:  MOVLB  7
06C32:  MOVWF  x1E
06C34:  MOVLB  0
06C36:  CALL   2060
....................       write_ext_eeprom(6+(cicloMemoria*320)+(posicionDato*9),0); 
06C3A:  MOVFF  71D,71F
06C3E:  MOVFF  71C,71E
06C42:  MOVLW  01
06C44:  MOVLB  7
06C46:  MOVWF  x21
06C48:  MOVLW  40
06C4A:  MOVWF  x20
06C4C:  MOVLB  0
06C4E:  CALL   2494
06C52:  MOVFF  02,03
06C56:  MOVF   01,W
06C58:  ADDLW  06
06C5A:  MOVLB  7
06C5C:  MOVWF  x1E
06C5E:  MOVLW  00
06C60:  ADDWFC 02,W
06C62:  MOVWF  x1F
06C64:  MOVLB  3
06C66:  MOVF   x32,W
06C68:  MULLW  09
06C6A:  MOVF   FF3,W
06C6C:  MOVLB  7
06C6E:  ADDWF  x1E,F
06C70:  MOVLW  00
06C72:  ADDWFC x1F,F
06C74:  MOVFF  71F,721
06C78:  MOVFF  71E,720
06C7C:  CLRF   x22
06C7E:  MOVLB  0
06C80:  RCALL  693C
....................       delay_ms(1); 
06C82:  MOVLW  01
06C84:  MOVLB  7
06C86:  MOVWF  x1E
06C88:  MOVLB  0
06C8A:  CALL   2060
....................       write_ext_eeprom(7+(cicloMemoria*320)+(posicionDato*9),0); 
06C8E:  MOVFF  71D,71F
06C92:  MOVFF  71C,71E
06C96:  MOVLW  01
06C98:  MOVLB  7
06C9A:  MOVWF  x21
06C9C:  MOVLW  40
06C9E:  MOVWF  x20
06CA0:  MOVLB  0
06CA2:  CALL   2494
06CA6:  MOVFF  02,03
06CAA:  MOVF   01,W
06CAC:  ADDLW  07
06CAE:  MOVLB  7
06CB0:  MOVWF  x1E
06CB2:  MOVLW  00
06CB4:  ADDWFC 02,W
06CB6:  MOVWF  x1F
06CB8:  MOVLB  3
06CBA:  MOVF   x32,W
06CBC:  MULLW  09
06CBE:  MOVF   FF3,W
06CC0:  MOVLB  7
06CC2:  ADDWF  x1E,F
06CC4:  MOVLW  00
06CC6:  ADDWFC x1F,F
06CC8:  MOVFF  71F,721
06CCC:  MOVFF  71E,720
06CD0:  CLRF   x22
06CD2:  MOVLB  0
06CD4:  RCALL  693C
....................       delay_ms(1); 
06CD6:  MOVLW  01
06CD8:  MOVLB  7
06CDA:  MOVWF  x1E
06CDC:  MOVLB  0
06CDE:  CALL   2060
....................       write_ext_eeprom(8+(cicloMemoria*320)+(posicionDato*9),0); 
06CE2:  MOVFF  71D,71F
06CE6:  MOVFF  71C,71E
06CEA:  MOVLW  01
06CEC:  MOVLB  7
06CEE:  MOVWF  x21
06CF0:  MOVLW  40
06CF2:  MOVWF  x20
06CF4:  MOVLB  0
06CF6:  CALL   2494
06CFA:  MOVFF  02,03
06CFE:  MOVF   01,W
06D00:  ADDLW  08
06D02:  MOVLB  7
06D04:  MOVWF  x1E
06D06:  MOVLW  00
06D08:  ADDWFC 02,W
06D0A:  MOVWF  x1F
06D0C:  MOVLB  3
06D0E:  MOVF   x32,W
06D10:  MULLW  09
06D12:  MOVF   FF3,W
06D14:  MOVLB  7
06D16:  ADDWF  x1E,F
06D18:  MOVLW  00
06D1A:  ADDWFC x1F,F
06D1C:  MOVFF  71F,721
06D20:  MOVFF  71E,720
06D24:  CLRF   x22
06D26:  MOVLB  0
06D28:  RCALL  693C
....................       delay_ms(1); 
06D2A:  MOVLW  01
06D2C:  MOVLB  7
06D2E:  MOVWF  x1E
06D30:  MOVLB  0
06D32:  CALL   2060
....................       write_ext_eeprom(9+(cicloMemoria*320)+(posicionDato*9),0); 
06D36:  MOVFF  71D,71F
06D3A:  MOVFF  71C,71E
06D3E:  MOVLW  01
06D40:  MOVLB  7
06D42:  MOVWF  x21
06D44:  MOVLW  40
06D46:  MOVWF  x20
06D48:  MOVLB  0
06D4A:  CALL   2494
06D4E:  MOVFF  02,03
06D52:  MOVF   01,W
06D54:  ADDLW  09
06D56:  MOVLB  7
06D58:  MOVWF  x1E
06D5A:  MOVLW  00
06D5C:  ADDWFC 02,W
06D5E:  MOVWF  x1F
06D60:  MOVLB  3
06D62:  MOVF   x32,W
06D64:  MULLW  09
06D66:  MOVF   FF3,W
06D68:  MOVLB  7
06D6A:  ADDWF  x1E,F
06D6C:  MOVLW  00
06D6E:  ADDWFC x1F,F
06D70:  MOVFF  71F,721
06D74:  MOVFF  71E,720
06D78:  CLRF   x22
06D7A:  MOVLB  0
06D7C:  RCALL  693C
....................       delay_ms(1); 
06D7E:  MOVLW  01
06D80:  MOVLB  7
06D82:  MOVWF  x1E
06D84:  MOVLB  0
06D86:  CALL   2060
....................       write_ext_eeprom(10+(cicloMemoria*320)+(posicionDato*9),0); 
06D8A:  MOVFF  71D,71F
06D8E:  MOVFF  71C,71E
06D92:  MOVLW  01
06D94:  MOVLB  7
06D96:  MOVWF  x21
06D98:  MOVLW  40
06D9A:  MOVWF  x20
06D9C:  MOVLB  0
06D9E:  CALL   2494
06DA2:  MOVFF  02,03
06DA6:  MOVF   01,W
06DA8:  ADDLW  0A
06DAA:  MOVLB  7
06DAC:  MOVWF  x1E
06DAE:  MOVLW  00
06DB0:  ADDWFC 02,W
06DB2:  MOVWF  x1F
06DB4:  MOVLB  3
06DB6:  MOVF   x32,W
06DB8:  MULLW  09
06DBA:  MOVF   FF3,W
06DBC:  MOVLB  7
06DBE:  ADDWF  x1E,F
06DC0:  MOVLW  00
06DC2:  ADDWFC x1F,F
06DC4:  MOVFF  71F,721
06DC8:  MOVFF  71E,720
06DCC:  CLRF   x22
06DCE:  MOVLB  0
06DD0:  RCALL  693C
....................       delay_ms(1); 
06DD2:  MOVLW  01
06DD4:  MOVLB  7
06DD6:  MOVWF  x1E
06DD8:  MOVLB  0
06DDA:  CALL   2060
....................       write_ext_eeprom(11+(cicloMemoria*320)+(posicionDato*9),0); 
06DDE:  MOVFF  71D,71F
06DE2:  MOVFF  71C,71E
06DE6:  MOVLW  01
06DE8:  MOVLB  7
06DEA:  MOVWF  x21
06DEC:  MOVLW  40
06DEE:  MOVWF  x20
06DF0:  MOVLB  0
06DF2:  CALL   2494
06DF6:  MOVFF  02,03
06DFA:  MOVF   01,W
06DFC:  ADDLW  0B
06DFE:  MOVLB  7
06E00:  MOVWF  x1E
06E02:  MOVLW  00
06E04:  ADDWFC 02,W
06E06:  MOVWF  x1F
06E08:  MOVLB  3
06E0A:  MOVF   x32,W
06E0C:  MULLW  09
06E0E:  MOVF   FF3,W
06E10:  MOVLB  7
06E12:  ADDWF  x1E,F
06E14:  MOVLW  00
06E16:  ADDWFC x1F,F
06E18:  MOVFF  71F,721
06E1C:  MOVFF  71E,720
06E20:  CLRF   x22
06E22:  MOVLB  0
06E24:  RCALL  693C
....................       delay_ms(1); 
06E26:  MOVLW  01
06E28:  MOVLB  7
06E2A:  MOVWF  x1E
06E2C:  MOVLB  0
06E2E:  CALL   2060
....................       write_ext_eeprom(12+(cicloMemoria*320)+(posicionDato*9),0); 
06E32:  MOVFF  71D,71F
06E36:  MOVFF  71C,71E
06E3A:  MOVLW  01
06E3C:  MOVLB  7
06E3E:  MOVWF  x21
06E40:  MOVLW  40
06E42:  MOVWF  x20
06E44:  MOVLB  0
06E46:  CALL   2494
06E4A:  MOVFF  02,03
06E4E:  MOVF   01,W
06E50:  ADDLW  0C
06E52:  MOVLB  7
06E54:  MOVWF  x1E
06E56:  MOVLW  00
06E58:  ADDWFC 02,W
06E5A:  MOVWF  x1F
06E5C:  MOVLB  3
06E5E:  MOVF   x32,W
06E60:  MULLW  09
06E62:  MOVF   FF3,W
06E64:  MOVLB  7
06E66:  ADDWF  x1E,F
06E68:  MOVLW  00
06E6A:  ADDWFC x1F,F
06E6C:  MOVFF  71F,721
06E70:  MOVFF  71E,720
06E74:  CLRF   x22
06E76:  MOVLB  0
06E78:  RCALL  693C
....................       delay_ms(1); 
06E7A:  MOVLW  01
06E7C:  MOVLB  7
06E7E:  MOVWF  x1E
06E80:  MOVLB  0
06E82:  CALL   2060
....................       write_ext_eeprom(13+(cicloMemoria*320)+(posicionDato*9),0); 
06E86:  MOVFF  71D,71F
06E8A:  MOVFF  71C,71E
06E8E:  MOVLW  01
06E90:  MOVLB  7
06E92:  MOVWF  x21
06E94:  MOVLW  40
06E96:  MOVWF  x20
06E98:  MOVLB  0
06E9A:  CALL   2494
06E9E:  MOVFF  02,03
06EA2:  MOVF   01,W
06EA4:  ADDLW  0D
06EA6:  MOVLB  7
06EA8:  MOVWF  x1E
06EAA:  MOVLW  00
06EAC:  ADDWFC 02,W
06EAE:  MOVWF  x1F
06EB0:  MOVLB  3
06EB2:  MOVF   x32,W
06EB4:  MULLW  09
06EB6:  MOVF   FF3,W
06EB8:  MOVLB  7
06EBA:  ADDWF  x1E,F
06EBC:  MOVLW  00
06EBE:  ADDWFC x1F,F
06EC0:  MOVFF  71F,721
06EC4:  MOVFF  71E,720
06EC8:  CLRF   x22
06ECA:  MOVLB  0
06ECC:  RCALL  693C
....................       delay_ms(1); 
06ECE:  MOVLW  01
06ED0:  MOVLB  7
06ED2:  MOVWF  x1E
06ED4:  MOVLB  0
06ED6:  CALL   2060
....................    } 
06EDA:  MOVLB  3
06EDC:  INCF   x32,F
06EDE:  BRA    6BDE
....................    posicionDato=0; 
06EE0:  CLRF   x32
.................... } 
06EE2:  MOVLB  0
06EE4:  GOTO   6F44 (RETURN)
....................  
.................... void incrementaCiclos(){ 
....................    if(!Ciclo){ 
*
0883E:  BTFSC  xA1.5
08840:  BRA    88C8
....................       Ciclo=ON; 
08842:  BSF    xA1.5
....................       Ciclos++; 
08844:  MOVLB  3
08846:  INCF   x69,F
08848:  BTFSC  FD8.2
0884A:  INCF   x6A,F
....................       CiclosL=make8(Ciclos,0); 
0884C:  MOVFF  369,34B
....................       CiclosH=make8(Ciclos,1); 
08850:  MOVFF  36A,34C
....................       write_eeprom(37,CiclosL); 
08854:  CLRF   FAA
08856:  MOVLW  25
08858:  MOVWF  FA9
0885A:  MOVFF  34B,FA8
0885E:  BCF    FA6.6
08860:  BCF    FA6.7
08862:  BSF    FA6.2
08864:  MOVF   FF2,W
08866:  MOVWF  00
08868:  BCF    FF2.6
0886A:  BCF    FF2.7
0886C:  MOVLB  F
0886E:  MOVLW  55
08870:  MOVWF  FA7
08872:  MOVLW  AA
08874:  MOVWF  FA7
08876:  BSF    FA6.1
08878:  BTFSC  FA6.1
0887A:  BRA    8878
0887C:  BCF    FA6.2
0887E:  MOVF   00,W
08880:  IORWF  FF2,F
....................       delay_ms(20); 
08882:  MOVLW  14
08884:  MOVLB  7
08886:  MOVWF  x1E
08888:  MOVLB  0
0888A:  CALL   2060
....................       write_eeprom(38,CiclosH); 
0888E:  CLRF   FAA
08890:  MOVLW  26
08892:  MOVWF  FA9
08894:  MOVFF  34C,FA8
08898:  BCF    FA6.6
0889A:  BCF    FA6.7
0889C:  BSF    FA6.2
0889E:  MOVF   FF2,W
088A0:  MOVWF  00
088A2:  BCF    FF2.6
088A4:  BCF    FF2.7
088A6:  MOVLB  F
088A8:  MOVLW  55
088AA:  MOVWF  FA7
088AC:  MOVLW  AA
088AE:  MOVWF  FA7
088B0:  BSF    FA6.1
088B2:  BTFSC  FA6.1
088B4:  BRA    88B2
088B6:  BCF    FA6.2
088B8:  MOVF   00,W
088BA:  IORWF  FF2,F
....................       delay_ms(20); 
088BC:  MOVLW  14
088BE:  MOVLB  7
088C0:  MOVWF  x1E
088C2:  MOVLB  0
088C4:  CALL   2060
....................    } 
.................... } 
088C8:  RETLW  00
....................  
.................... void exportarData(){ 
*
07856:  MOVLB  7
07858:  CLRF   x09
0785A:  CLRF   x08
0785C:  CLRF   x0A
.................... int16 posicion=0; 
.................... int8 tmp=0; 
.................... posicion=40; 
0785E:  CLRF   x09
07860:  MOVLW  28
07862:  MOVWF  x08
.................... direccion=0xB0; 
07864:  MOVLW  B0
07866:  MOVLB  0
07868:  MOVWF  x85
.................... //Buzzer_on; 
.................... //Inicio de Transmision 
.................... i2c_start();            // Comienzo comunicacin 
0786A:  BSF    F94.4
0786C:  MOVLW  05
0786E:  MOVWF  00
07870:  DECFSZ 00,F
07872:  BRA    7870
07874:  BSF    F94.3
07876:  MOVLW  06
07878:  MOVWF  00
0787A:  DECFSZ 00,F
0787C:  BRA    787A
0787E:  BCF    F8B.4
07880:  BCF    F94.4
07882:  MOVLW  05
07884:  MOVWF  00
07886:  DECFSZ 00,F
07888:  BRA    7886
0788A:  BCF    F8B.3
0788C:  BCF    F94.3
.................... i2c_write(direccion);   // Direccin del esclavo en el bus I2C 
0788E:  MOVFF  85,726
07892:  CALL   24B6
.................... i2c_write(make8(posicion,0));    // Posicin donde se guardara el dato transmitido 
07896:  MOVFF  708,70B
0789A:  MOVFF  708,726
0789E:  CALL   24B6
.................... i2c_write(make8(posicion,1));    // Posicin donde se guardara el dato transmitido 
078A2:  MOVFF  709,70B
078A6:  MOVFF  709,726
078AA:  CALL   24B6
.................... i2c_write(0xff);        // Dato a transmitir 
078AE:  MOVLW  FF
078B0:  MOVLB  7
078B2:  MOVWF  x26
078B4:  MOVLB  0
078B6:  CALL   24B6
.................... i2c_stop(); 
078BA:  BCF    F94.4
078BC:  NOP   
078BE:  BSF    F94.3
078C0:  BTFSS  F82.3
078C2:  BRA    78C0
078C4:  MOVLW  05
078C6:  MOVWF  00
078C8:  DECFSZ 00,F
078CA:  BRA    78C8
078CC:  BRA    78CE
078CE:  NOP   
078D0:  BSF    F94.4
078D2:  MOVLW  05
078D4:  MOVWF  00
078D6:  DECFSZ 00,F
078D8:  BRA    78D6
.................... ++posicion; 
078DA:  MOVLB  7
078DC:  INCF   x08,F
078DE:  BTFSC  FD8.2
078E0:  INCF   x09,F
.................... i2c_start();            // Comienzo comunicacin 
078E2:  BSF    F94.4
078E4:  MOVLW  05
078E6:  MOVWF  00
078E8:  DECFSZ 00,F
078EA:  BRA    78E8
078EC:  BSF    F94.3
078EE:  MOVLW  06
078F0:  MOVWF  00
078F2:  DECFSZ 00,F
078F4:  BRA    78F2
078F6:  BCF    F8B.4
078F8:  BCF    F94.4
078FA:  MOVLW  05
078FC:  MOVWF  00
078FE:  DECFSZ 00,F
07900:  BRA    78FE
07902:  BCF    F8B.3
07904:  BCF    F94.3
.................... i2c_write(direccion);   // Direccin del esclavo en el bus I2C 
07906:  MOVFF  85,726
0790A:  MOVLB  0
0790C:  CALL   24B6
.................... i2c_write(make8(posicion,0));    // Posicin donde se guardara el dato transmitido 
07910:  MOVFF  708,70B
07914:  MOVFF  708,726
07918:  CALL   24B6
.................... i2c_write(make8(posicion,1));    // Posicin donde se guardara el dato transmitido 
0791C:  MOVFF  709,70B
07920:  MOVFF  709,726
07924:  CALL   24B6
.................... i2c_write(0xff);        // Dato a transmitir 
07928:  MOVLW  FF
0792A:  MOVLB  7
0792C:  MOVWF  x26
0792E:  MOVLB  0
07930:  CALL   24B6
.................... i2c_stop(); 
07934:  BCF    F94.4
07936:  NOP   
07938:  BSF    F94.3
0793A:  BTFSS  F82.3
0793C:  BRA    793A
0793E:  MOVLW  05
07940:  MOVWF  00
07942:  DECFSZ 00,F
07944:  BRA    7942
07946:  BRA    7948
07948:  NOP   
0794A:  BSF    F94.4
0794C:  MOVLW  05
0794E:  MOVWF  00
07950:  DECFSZ 00,F
07952:  BRA    7950
.................... ++posicion; 
07954:  MOVLB  7
07956:  INCF   x08,F
07958:  BTFSC  FD8.2
0795A:  INCF   x09,F
.................... //Se envian 2 veces ff para indicar que se inicia la transmision. 
....................  
....................    for(i=0;i<5;i++){ 
0795C:  MOVLB  3
0795E:  CLRF   x4A
07960:  MOVF   x4A,W
07962:  SUBLW  04
07964:  BNC   7A1C
....................       tmp=read_ext_eeprom((cicloVisto*320)+i); 
07966:  MOVLB  7
07968:  CLRF   x1F
0796A:  MOVFF  354,71E
0796E:  MOVLW  01
07970:  MOVWF  x21
07972:  MOVLW  40
07974:  MOVWF  x20
07976:  MOVLB  0
07978:  CALL   2494
0797C:  MOVFF  02,70C
07980:  MOVFF  01,70B
07984:  MOVLB  3
07986:  MOVF   x4A,W
07988:  MOVLB  7
0798A:  ADDWF  x0B,F
0798C:  MOVLW  00
0798E:  ADDWFC x0C,F
07990:  MOVFF  70C,70E
07994:  MOVFF  70B,70D
07998:  MOVLB  0
0799A:  CALL   2598
0799E:  MOVFF  01,70A
....................       //if(tmp>250) 
....................       //   tmp=20; 
....................       i2c_start();            // Comienzo comunicacin 
079A2:  BSF    F94.4
079A4:  MOVLW  05
079A6:  MOVWF  00
079A8:  DECFSZ 00,F
079AA:  BRA    79A8
079AC:  BSF    F94.3
079AE:  MOVLW  06
079B0:  MOVWF  00
079B2:  DECFSZ 00,F
079B4:  BRA    79B2
079B6:  BCF    F8B.4
079B8:  BCF    F94.4
079BA:  MOVLW  05
079BC:  MOVWF  00
079BE:  DECFSZ 00,F
079C0:  BRA    79BE
079C2:  BCF    F8B.3
079C4:  BCF    F94.3
....................       i2c_write(direccion);   // Direccin del esclavo en el bus I2C 
079C6:  MOVFF  85,726
079CA:  CALL   24B6
....................       i2c_write(make8(posicion,0));    // Posicin donde se guardara el dato transmitido 
079CE:  MOVFF  708,70B
079D2:  MOVFF  708,726
079D6:  CALL   24B6
....................       i2c_write(make8(posicion,1));    // Posicin donde se guardara el dato transmitido 
079DA:  MOVFF  709,70B
079DE:  MOVFF  709,726
079E2:  CALL   24B6
....................       i2c_write(tmp);        // Dato a transmitir 
079E6:  MOVFF  70A,726
079EA:  CALL   24B6
....................       i2c_stop();  
079EE:  BCF    F94.4
079F0:  NOP   
079F2:  BSF    F94.3
079F4:  BTFSS  F82.3
079F6:  BRA    79F4
079F8:  MOVLW  05
079FA:  MOVWF  00
079FC:  DECFSZ 00,F
079FE:  BRA    79FC
07A00:  BRA    7A02
07A02:  NOP   
07A04:  BSF    F94.4
07A06:  MOVLW  05
07A08:  MOVWF  00
07A0A:  DECFSZ 00,F
07A0C:  BRA    7A0A
....................       ++posicion; 
07A0E:  MOVLB  7
07A10:  INCF   x08,F
07A12:  BTFSC  FD8.2
07A14:  INCF   x09,F
....................    } 
07A16:  MOVLB  3
07A18:  INCF   x4A,F
07A1A:  BRA    7960
....................    for(i=0;i<35;i++){//Lee Valores para completar la Tabla 
07A1C:  CLRF   x4A
07A1E:  MOVF   x4A,W
07A20:  SUBLW  22
07A22:  BNC   7AF8
....................       for(j=5;j<14;j++){//Lee Valores para completar la Tabla 
07A24:  MOVLW  05
07A26:  MOVWF  x56
07A28:  MOVF   x56,W
07A2A:  SUBLW  0D
07A2C:  BNC   7AF4
....................          tmp=read_ext_eeprom((cicloVisto*320)+j+(i*9)); 
07A2E:  MOVLB  7
07A30:  CLRF   x1F
07A32:  MOVFF  354,71E
07A36:  MOVLW  01
07A38:  MOVWF  x21
07A3A:  MOVLW  40
07A3C:  MOVWF  x20
07A3E:  MOVLB  0
07A40:  CALL   2494
07A44:  MOVFF  02,70C
07A48:  MOVFF  01,70B
07A4C:  MOVLB  3
07A4E:  MOVF   x56,W
07A50:  MOVLB  7
07A52:  ADDWF  x0B,F
07A54:  MOVLW  00
07A56:  ADDWFC x0C,F
07A58:  MOVLB  3
07A5A:  MOVF   x4A,W
07A5C:  MULLW  09
07A5E:  MOVF   FF3,W
07A60:  MOVLB  7
07A62:  ADDWF  x0B,F
07A64:  MOVLW  00
07A66:  ADDWFC x0C,F
07A68:  MOVFF  70C,70E
07A6C:  MOVFF  70B,70D
07A70:  MOVLB  0
07A72:  CALL   2598
07A76:  MOVFF  01,70A
....................          //if(tmp>250) 
....................          //   tmp=20; 
....................          i2c_start();            // Comienzo comunicacin 
07A7A:  BSF    F94.4
07A7C:  MOVLW  05
07A7E:  MOVWF  00
07A80:  DECFSZ 00,F
07A82:  BRA    7A80
07A84:  BSF    F94.3
07A86:  MOVLW  06
07A88:  MOVWF  00
07A8A:  DECFSZ 00,F
07A8C:  BRA    7A8A
07A8E:  BCF    F8B.4
07A90:  BCF    F94.4
07A92:  MOVLW  05
07A94:  MOVWF  00
07A96:  DECFSZ 00,F
07A98:  BRA    7A96
07A9A:  BCF    F8B.3
07A9C:  BCF    F94.3
....................          i2c_write(direccion);   // Direccin del esclavo en el bus I2C 
07A9E:  MOVFF  85,726
07AA2:  CALL   24B6
....................          i2c_write(make8(posicion,0));    // Posicin donde se guardara el dato transmitido 
07AA6:  MOVFF  708,70B
07AAA:  MOVFF  708,726
07AAE:  CALL   24B6
....................          i2c_write(make8(posicion,1));    // Posicin donde se guardara el dato transmitido 
07AB2:  MOVFF  709,70B
07AB6:  MOVFF  709,726
07ABA:  CALL   24B6
....................          i2c_write(tmp);        // Dato a transmitir 
07ABE:  MOVFF  70A,726
07AC2:  CALL   24B6
....................          i2c_stop();  
07AC6:  BCF    F94.4
07AC8:  NOP   
07ACA:  BSF    F94.3
07ACC:  BTFSS  F82.3
07ACE:  BRA    7ACC
07AD0:  MOVLW  05
07AD2:  MOVWF  00
07AD4:  DECFSZ 00,F
07AD6:  BRA    7AD4
07AD8:  BRA    7ADA
07ADA:  NOP   
07ADC:  BSF    F94.4
07ADE:  MOVLW  05
07AE0:  MOVWF  00
07AE2:  DECFSZ 00,F
07AE4:  BRA    7AE2
....................          ++posicion; 
07AE6:  MOVLB  7
07AE8:  INCF   x08,F
07AEA:  BTFSC  FD8.2
07AEC:  INCF   x09,F
....................       } 
07AEE:  MOVLB  3
07AF0:  INCF   x56,F
07AF2:  BRA    7A28
....................    } 
07AF4:  INCF   x4A,F
07AF6:  BRA    7A1E
....................  
.................... //Fin de Transmision 
.................... i2c_start();            // Comienzo comunicacin 
07AF8:  BSF    F94.4
07AFA:  MOVLW  05
07AFC:  MOVWF  00
07AFE:  DECFSZ 00,F
07B00:  BRA    7AFE
07B02:  BSF    F94.3
07B04:  MOVLW  06
07B06:  MOVWF  00
07B08:  DECFSZ 00,F
07B0A:  BRA    7B08
07B0C:  BCF    F8B.4
07B0E:  BCF    F94.4
07B10:  MOVLW  05
07B12:  MOVWF  00
07B14:  DECFSZ 00,F
07B16:  BRA    7B14
07B18:  BCF    F8B.3
07B1A:  BCF    F94.3
.................... i2c_write(direccion);   // Direccin del esclavo en el bus I2C 
07B1C:  MOVFF  85,726
07B20:  MOVLB  0
07B22:  CALL   24B6
.................... i2c_write(make8(posicion,0));    // Posicin donde se guardara el dato transmitido 
07B26:  MOVFF  708,70B
07B2A:  MOVFF  708,726
07B2E:  CALL   24B6
.................... i2c_write(make8(posicion,1));    // Posicin donde se guardara el dato transmitido 
07B32:  MOVFF  709,70B
07B36:  MOVFF  709,726
07B3A:  CALL   24B6
.................... i2c_write(0x1f);        // Dato a transmitir 
07B3E:  MOVLW  1F
07B40:  MOVLB  7
07B42:  MOVWF  x26
07B44:  MOVLB  0
07B46:  CALL   24B6
.................... i2c_stop(); 
07B4A:  BCF    F94.4
07B4C:  NOP   
07B4E:  BSF    F94.3
07B50:  BTFSS  F82.3
07B52:  BRA    7B50
07B54:  MOVLW  05
07B56:  MOVWF  00
07B58:  DECFSZ 00,F
07B5A:  BRA    7B58
07B5C:  BRA    7B5E
07B5E:  NOP   
07B60:  BSF    F94.4
07B62:  MOVLW  05
07B64:  MOVWF  00
07B66:  DECFSZ 00,F
07B68:  BRA    7B66
.................... ++posicion; 
07B6A:  MOVLB  7
07B6C:  INCF   x08,F
07B6E:  BTFSC  FD8.2
07B70:  INCF   x09,F
.................... i2c_start();            // Comienzo comunicacin 
07B72:  BSF    F94.4
07B74:  MOVLW  05
07B76:  MOVWF  00
07B78:  DECFSZ 00,F
07B7A:  BRA    7B78
07B7C:  BSF    F94.3
07B7E:  MOVLW  06
07B80:  MOVWF  00
07B82:  DECFSZ 00,F
07B84:  BRA    7B82
07B86:  BCF    F8B.4
07B88:  BCF    F94.4
07B8A:  MOVLW  05
07B8C:  MOVWF  00
07B8E:  DECFSZ 00,F
07B90:  BRA    7B8E
07B92:  BCF    F8B.3
07B94:  BCF    F94.3
.................... i2c_write(direccion);   // Direccin del esclavo en el bus I2C 
07B96:  MOVFF  85,726
07B9A:  MOVLB  0
07B9C:  CALL   24B6
.................... i2c_write(make8(posicion,0));    // Posicin donde se guardara el dato transmitido 
07BA0:  MOVFF  708,70B
07BA4:  MOVFF  708,726
07BA8:  CALL   24B6
.................... i2c_write(make8(posicion,1));    // Posicin donde se guardara el dato transmitido 
07BAC:  MOVFF  709,70B
07BB0:  MOVFF  709,726
07BB4:  CALL   24B6
.................... i2c_write(0x1f);        // Dato a transmitir 
07BB8:  MOVLW  1F
07BBA:  MOVLB  7
07BBC:  MOVWF  x26
07BBE:  MOVLB  0
07BC0:  CALL   24B6
.................... i2c_stop(); 
07BC4:  BCF    F94.4
07BC6:  NOP   
07BC8:  BSF    F94.3
07BCA:  BTFSS  F82.3
07BCC:  BRA    7BCA
07BCE:  MOVLW  05
07BD0:  MOVWF  00
07BD2:  DECFSZ 00,F
07BD4:  BRA    7BD2
07BD6:  BRA    7BD8
07BD8:  NOP   
07BDA:  BSF    F94.4
07BDC:  MOVLW  05
07BDE:  MOVWF  00
07BE0:  DECFSZ 00,F
07BE2:  BRA    7BE0
.................... ++posicion; 
07BE4:  MOVLB  7
07BE6:  INCF   x08,F
07BE8:  BTFSC  FD8.2
07BEA:  INCF   x09,F
.................... //Se envian 2 veces 1f para indicar que se inicia la transmision. 
.................... delay_ms(200); 
07BEC:  MOVLW  C8
07BEE:  MOVWF  x1E
07BF0:  MOVLB  0
07BF2:  CALL   2060
.................... //Buzzer_off; 
.................... } 
07BF6:  GOTO   144CA (RETURN)
....................  
.................... void codificaAlarma(){ 
....................    if(ACiclos[i]==0){ 
07BFA:  CLRF   03
07BFC:  MOVLB  3
07BFE:  MOVF   x4A,W
07C00:  ADDLW  FC
07C02:  MOVWF  FE9
07C04:  MOVLW  03
07C06:  ADDWFC 03,W
07C08:  MOVWF  FEA
07C0A:  MOVF   FEF,F
07C0C:  BNZ   7C4C
....................       printf("A%u.txt=\"----\"",i+1); 
07C0E:  MOVLW  01
07C10:  ADDWF  x4A,W
07C12:  MOVLB  7
07C14:  MOVWF  x08
07C16:  MOVLW  41
07C18:  BTFSS  F9E.4
07C1A:  BRA    7C18
07C1C:  MOVWF  FAD
07C1E:  MOVFF  708,70D
07C22:  MOVLW  1B
07C24:  MOVWF  x0E
07C26:  MOVLB  0
07C28:  CALL   632A
07C2C:  MOVLW  21
07C2E:  MOVWF  FF6
07C30:  MOVLW  02
07C32:  MOVWF  FF7
07C34:  MOVLW  00
07C36:  MOVWF  FF8
07C38:  MOVLW  0B
07C3A:  MOVLB  7
07C3C:  MOVWF  x0D
07C3E:  MOVLB  0
07C40:  CALL   5D0E
....................       SendDataDisplay(); 
07C44:  CALL   456A
....................    }else if(ACiclos[i]==1){ 
07C48:  BRA    81B8
07C4A:  MOVLB  3
07C4C:  CLRF   03
07C4E:  MOVF   x4A,W
07C50:  ADDLW  FC
07C52:  MOVWF  FE9
07C54:  MOVLW  03
07C56:  ADDWFC 03,W
07C58:  MOVWF  FEA
07C5A:  DECFSZ FEF,W
07C5C:  BRA    7C9C
....................       printf("A%u.txt=\"Parada\"",i+1); 
07C5E:  MOVLW  01
07C60:  ADDWF  x4A,W
07C62:  MOVLB  7
07C64:  MOVWF  x08
07C66:  MOVLW  41
07C68:  BTFSS  F9E.4
07C6A:  BRA    7C68
07C6C:  MOVWF  FAD
07C6E:  MOVFF  708,70D
07C72:  MOVLW  1B
07C74:  MOVWF  x0E
07C76:  MOVLB  0
07C78:  CALL   632A
07C7C:  MOVLW  31
07C7E:  MOVWF  FF6
07C80:  MOVLW  02
07C82:  MOVWF  FF7
07C84:  MOVLW  00
07C86:  MOVWF  FF8
07C88:  MOVLW  0D
07C8A:  MOVLB  7
07C8C:  MOVWF  x0D
07C8E:  MOVLB  0
07C90:  CALL   5D0E
....................       SendDataDisplay(); 
07C94:  CALL   456A
....................    }else if(ACiclos[i]==2){ 
07C98:  BRA    81B8
07C9A:  MOVLB  3
07C9C:  CLRF   03
07C9E:  MOVF   x4A,W
07CA0:  ADDLW  FC
07CA2:  MOVWF  FE9
07CA4:  MOVLW  03
07CA6:  ADDWFC 03,W
07CA8:  MOVWF  FEA
07CAA:  MOVF   FEF,W
07CAC:  SUBLW  02
07CAE:  BNZ   7CEE
....................       printf("A%u.txt=\"Puerta\"",i+1); 
07CB0:  MOVLW  01
07CB2:  ADDWF  x4A,W
07CB4:  MOVLB  7
07CB6:  MOVWF  x08
07CB8:  MOVLW  41
07CBA:  BTFSS  F9E.4
07CBC:  BRA    7CBA
07CBE:  MOVWF  FAD
07CC0:  MOVFF  708,70D
07CC4:  MOVLW  1B
07CC6:  MOVWF  x0E
07CC8:  MOVLB  0
07CCA:  CALL   632A
07CCE:  MOVLW  43
07CD0:  MOVWF  FF6
07CD2:  MOVLW  02
07CD4:  MOVWF  FF7
07CD6:  MOVLW  00
07CD8:  MOVWF  FF8
07CDA:  MOVLW  0D
07CDC:  MOVLB  7
07CDE:  MOVWF  x0D
07CE0:  MOVLB  0
07CE2:  CALL   5D0E
....................       SendDataDisplay(); 
07CE6:  CALL   456A
....................    }else if(ACiclos[i]==3){ 
07CEA:  BRA    81B8
07CEC:  MOVLB  3
07CEE:  CLRF   03
07CF0:  MOVF   x4A,W
07CF2:  ADDLW  FC
07CF4:  MOVWF  FE9
07CF6:  MOVLW  03
07CF8:  ADDWFC 03,W
07CFA:  MOVWF  FEA
07CFC:  MOVF   FEF,W
07CFE:  SUBLW  03
07D00:  BNZ   7D40
....................       printf("A%u.txt=\"Termostato\"",i+1); 
07D02:  MOVLW  01
07D04:  ADDWF  x4A,W
07D06:  MOVLB  7
07D08:  MOVWF  x08
07D0A:  MOVLW  41
07D0C:  BTFSS  F9E.4
07D0E:  BRA    7D0C
07D10:  MOVWF  FAD
07D12:  MOVFF  708,70D
07D16:  MOVLW  1B
07D18:  MOVWF  x0E
07D1A:  MOVLB  0
07D1C:  CALL   632A
07D20:  MOVLW  55
07D22:  MOVWF  FF6
07D24:  MOVLW  02
07D26:  MOVWF  FF7
07D28:  MOVLW  00
07D2A:  MOVWF  FF8
07D2C:  MOVLW  11
07D2E:  MOVLB  7
07D30:  MOVWF  x0D
07D32:  MOVLB  0
07D34:  CALL   5D0E
....................       SendDataDisplay(); 
07D38:  CALL   456A
....................    }else if(ACiclos[i]==4){ 
07D3C:  BRA    81B8
07D3E:  MOVLB  3
07D40:  CLRF   03
07D42:  MOVF   x4A,W
07D44:  ADDLW  FC
07D46:  MOVWF  FE9
07D48:  MOVLW  03
07D4A:  ADDWFC 03,W
07D4C:  MOVWF  FEA
07D4E:  MOVF   FEF,W
07D50:  SUBLW  04
07D52:  BNZ   7D92
....................       printf("A%u.txt=\"SobreT\"",i+1); 
07D54:  MOVLW  01
07D56:  ADDWF  x4A,W
07D58:  MOVLB  7
07D5A:  MOVWF  x08
07D5C:  MOVLW  41
07D5E:  BTFSS  F9E.4
07D60:  BRA    7D5E
07D62:  MOVWF  FAD
07D64:  MOVFF  708,70D
07D68:  MOVLW  1B
07D6A:  MOVWF  x0E
07D6C:  MOVLB  0
07D6E:  CALL   632A
07D72:  MOVLW  6B
07D74:  MOVWF  FF6
07D76:  MOVLW  02
07D78:  MOVWF  FF7
07D7A:  MOVLW  00
07D7C:  MOVWF  FF8
07D7E:  MOVLW  0D
07D80:  MOVLB  7
07D82:  MOVWF  x0D
07D84:  MOVLB  0
07D86:  CALL   5D0E
....................       SendDataDisplay(); 
07D8A:  CALL   456A
....................    }else if(ACiclos[i]==5){ 
07D8E:  BRA    81B8
07D90:  MOVLB  3
07D92:  CLRF   03
07D94:  MOVF   x4A,W
07D96:  ADDLW  FC
07D98:  MOVWF  FE9
07D9A:  MOVLW  03
07D9C:  ADDWFC 03,W
07D9E:  MOVWF  FEA
07DA0:  MOVF   FEF,W
07DA2:  SUBLW  05
07DA4:  BNZ   7DE4
....................       printf("A%u.txt=\"Tiempo\"",i+1); 
07DA6:  MOVLW  01
07DA8:  ADDWF  x4A,W
07DAA:  MOVLB  7
07DAC:  MOVWF  x08
07DAE:  MOVLW  41
07DB0:  BTFSS  F9E.4
07DB2:  BRA    7DB0
07DB4:  MOVWF  FAD
07DB6:  MOVFF  708,70D
07DBA:  MOVLW  1B
07DBC:  MOVWF  x0E
07DBE:  MOVLB  0
07DC0:  CALL   632A
07DC4:  MOVLW  7D
07DC6:  MOVWF  FF6
07DC8:  MOVLW  02
07DCA:  MOVWF  FF7
07DCC:  MOVLW  00
07DCE:  MOVWF  FF8
07DD0:  MOVLW  0D
07DD2:  MOVLB  7
07DD4:  MOVWF  x0D
07DD6:  MOVLB  0
07DD8:  CALL   5D0E
....................       SendDataDisplay(); 
07DDC:  CALL   456A
....................    }else if(ACiclos[i]==6){ 
07DE0:  BRA    81B8
07DE2:  MOVLB  3
07DE4:  CLRF   03
07DE6:  MOVF   x4A,W
07DE8:  ADDLW  FC
07DEA:  MOVWF  FE9
07DEC:  MOVLW  03
07DEE:  ADDWFC 03,W
07DF0:  MOVWF  FEA
07DF2:  MOVF   FEF,W
07DF4:  SUBLW  06
07DF6:  BNZ   7E36
....................       printf("A%u.txt=\"Presion\"",i+1); 
07DF8:  MOVLW  01
07DFA:  ADDWF  x4A,W
07DFC:  MOVLB  7
07DFE:  MOVWF  x08
07E00:  MOVLW  41
07E02:  BTFSS  F9E.4
07E04:  BRA    7E02
07E06:  MOVWF  FAD
07E08:  MOVFF  708,70D
07E0C:  MOVLW  1B
07E0E:  MOVWF  x0E
07E10:  MOVLB  0
07E12:  CALL   632A
07E16:  MOVLW  8F
07E18:  MOVWF  FF6
07E1A:  MOVLW  02
07E1C:  MOVWF  FF7
07E1E:  MOVLW  00
07E20:  MOVWF  FF8
07E22:  MOVLW  0E
07E24:  MOVLB  7
07E26:  MOVWF  x0D
07E28:  MOVLB  0
07E2A:  CALL   5D0E
....................       SendDataDisplay(); 
07E2E:  CALL   456A
....................    }else if(ACiclos[i]==7){ 
07E32:  BRA    81B8
07E34:  MOVLB  3
07E36:  CLRF   03
07E38:  MOVF   x4A,W
07E3A:  ADDLW  FC
07E3C:  MOVWF  FE9
07E3E:  MOVLW  03
07E40:  ADDWFC 03,W
07E42:  MOVWF  FEA
07E44:  MOVF   FEF,W
07E46:  SUBLW  07
07E48:  BNZ   7E88
....................       printf("A%u.txt=\"Bomba\"",i+1); 
07E4A:  MOVLW  01
07E4C:  ADDWF  x4A,W
07E4E:  MOVLB  7
07E50:  MOVWF  x08
07E52:  MOVLW  41
07E54:  BTFSS  F9E.4
07E56:  BRA    7E54
07E58:  MOVWF  FAD
07E5A:  MOVFF  708,70D
07E5E:  MOVLW  1B
07E60:  MOVWF  x0E
07E62:  MOVLB  0
07E64:  CALL   632A
07E68:  MOVLW  A1
07E6A:  MOVWF  FF6
07E6C:  MOVLW  02
07E6E:  MOVWF  FF7
07E70:  MOVLW  00
07E72:  MOVWF  FF8
07E74:  MOVLW  0C
07E76:  MOVLB  7
07E78:  MOVWF  x0D
07E7A:  MOVLB  0
07E7C:  CALL   5D0E
....................       SendDataDisplay(); 
07E80:  CALL   456A
....................    }else if(ACiclos[i]==8){ 
07E84:  BRA    81B8
07E86:  MOVLB  3
07E88:  CLRF   03
07E8A:  MOVF   x4A,W
07E8C:  ADDLW  FC
07E8E:  MOVWF  FE9
07E90:  MOVLW  03
07E92:  ADDWFC 03,W
07E94:  MOVWF  FEA
07E96:  MOVF   FEF,W
07E98:  SUBLW  08
07E9A:  BNZ   7EDA
....................       printf("A%u.txt=\"Err. Vacio\"",i+1); 
07E9C:  MOVLW  01
07E9E:  ADDWF  x4A,W
07EA0:  MOVLB  7
07EA2:  MOVWF  x08
07EA4:  MOVLW  41
07EA6:  BTFSS  F9E.4
07EA8:  BRA    7EA6
07EAA:  MOVWF  FAD
07EAC:  MOVFF  708,70D
07EB0:  MOVLW  1B
07EB2:  MOVWF  x0E
07EB4:  MOVLB  0
07EB6:  CALL   632A
07EBA:  MOVLW  B1
07EBC:  MOVWF  FF6
07EBE:  MOVLW  02
07EC0:  MOVWF  FF7
07EC2:  MOVLW  00
07EC4:  MOVWF  FF8
07EC6:  MOVLW  11
07EC8:  MOVLB  7
07ECA:  MOVWF  x0D
07ECC:  MOVLB  0
07ECE:  CALL   5D0E
....................       SendDataDisplay(); 
07ED2:  CALL   456A
....................    }else if(ACiclos[i]==9){ 
07ED6:  BRA    81B8
07ED8:  MOVLB  3
07EDA:  CLRF   03
07EDC:  MOVF   x4A,W
07EDE:  ADDLW  FC
07EE0:  MOVWF  FE9
07EE2:  MOVLW  03
07EE4:  ADDWFC 03,W
07EE6:  MOVWF  FEA
07EE8:  MOVF   FEF,W
07EEA:  SUBLW  09
07EEC:  BNZ   7F2C
....................       printf("A%u.txt=\"Llenado\"",i+1); 
07EEE:  MOVLW  01
07EF0:  ADDWF  x4A,W
07EF2:  MOVLB  7
07EF4:  MOVWF  x08
07EF6:  MOVLW  41
07EF8:  BTFSS  F9E.4
07EFA:  BRA    7EF8
07EFC:  MOVWF  FAD
07EFE:  MOVFF  708,70D
07F02:  MOVLW  1B
07F04:  MOVWF  x0E
07F06:  MOVLB  0
07F08:  CALL   632A
07F0C:  MOVLW  C7
07F0E:  MOVWF  FF6
07F10:  MOVLW  02
07F12:  MOVWF  FF7
07F14:  MOVLW  00
07F16:  MOVWF  FF8
07F18:  MOVLW  0E
07F1A:  MOVLB  7
07F1C:  MOVWF  x0D
07F1E:  MOVLB  0
07F20:  CALL   5D0E
....................       SendDataDisplay(); 
07F24:  CALL   456A
....................    }else if(ACiclos[i]==10){ 
07F28:  BRA    81B8
07F2A:  MOVLB  3
07F2C:  CLRF   03
07F2E:  MOVF   x4A,W
07F30:  ADDLW  FC
07F32:  MOVWF  FE9
07F34:  MOVLW  03
07F36:  ADDWFC 03,W
07F38:  MOVWF  FEA
07F3A:  MOVF   FEF,W
07F3C:  SUBLW  0A
07F3E:  BNZ   7F7E
....................       printf("A%u.txt=\"Llenando\"",i+1); 
07F40:  MOVLW  01
07F42:  ADDWF  x4A,W
07F44:  MOVLB  7
07F46:  MOVWF  x08
07F48:  MOVLW  41
07F4A:  BTFSS  F9E.4
07F4C:  BRA    7F4A
07F4E:  MOVWF  FAD
07F50:  MOVFF  708,70D
07F54:  MOVLW  1B
07F56:  MOVWF  x0E
07F58:  MOVLB  0
07F5A:  CALL   632A
07F5E:  MOVLW  D9
07F60:  MOVWF  FF6
07F62:  MOVLW  02
07F64:  MOVWF  FF7
07F66:  MOVLW  00
07F68:  MOVWF  FF8
07F6A:  MOVLW  0F
07F6C:  MOVLB  7
07F6E:  MOVWF  x0D
07F70:  MOVLB  0
07F72:  CALL   5D0E
....................       SendDataDisplay(); 
07F76:  CALL   456A
....................    }else if(ACiclos[i]==11){ 
07F7A:  BRA    81B8
07F7C:  MOVLB  3
07F7E:  CLRF   03
07F80:  MOVF   x4A,W
07F82:  ADDLW  FC
07F84:  MOVWF  FE9
07F86:  MOVLW  03
07F88:  ADDWFC 03,W
07F8A:  MOVWF  FEA
07F8C:  MOVF   FEF,W
07F8E:  SUBLW  0B
07F90:  BNZ   7FD0
....................       printf("A%u.txt=\"Vacio\"",i+1); 
07F92:  MOVLW  01
07F94:  ADDWF  x4A,W
07F96:  MOVLB  7
07F98:  MOVWF  x08
07F9A:  MOVLW  41
07F9C:  BTFSS  F9E.4
07F9E:  BRA    7F9C
07FA0:  MOVWF  FAD
07FA2:  MOVFF  708,70D
07FA6:  MOVLW  1B
07FA8:  MOVWF  x0E
07FAA:  MOVLB  0
07FAC:  CALL   632A
07FB0:  MOVLW  ED
07FB2:  MOVWF  FF6
07FB4:  MOVLW  02
07FB6:  MOVWF  FF7
07FB8:  MOVLW  00
07FBA:  MOVWF  FF8
07FBC:  MOVLW  0C
07FBE:  MOVLB  7
07FC0:  MOVWF  x0D
07FC2:  MOVLB  0
07FC4:  CALL   5D0E
....................       SendDataDisplay(); 
07FC8:  CALL   456A
....................    }else if(ACiclos[i]==12){ 
07FCC:  BRA    81B8
07FCE:  MOVLB  3
07FD0:  CLRF   03
07FD2:  MOVF   x4A,W
07FD4:  ADDLW  FC
07FD6:  MOVWF  FE9
07FD8:  MOVLW  03
07FDA:  ADDWFC 03,W
07FDC:  MOVWF  FEA
07FDE:  MOVF   FEF,W
07FE0:  SUBLW  0C
07FE2:  BNZ   8022
....................       printf("A%u.txt=\"Calen\"",i+1); 
07FE4:  MOVLW  01
07FE6:  ADDWF  x4A,W
07FE8:  MOVLB  7
07FEA:  MOVWF  x08
07FEC:  MOVLW  41
07FEE:  BTFSS  F9E.4
07FF0:  BRA    7FEE
07FF2:  MOVWF  FAD
07FF4:  MOVFF  708,70D
07FF8:  MOVLW  1B
07FFA:  MOVWF  x0E
07FFC:  MOVLB  0
07FFE:  CALL   632A
08002:  MOVLW  FD
08004:  MOVWF  FF6
08006:  MOVLW  02
08008:  MOVWF  FF7
0800A:  MOVLW  00
0800C:  MOVWF  FF8
0800E:  MOVLW  0C
08010:  MOVLB  7
08012:  MOVWF  x0D
08014:  MOVLB  0
08016:  CALL   5D0E
....................       SendDataDisplay(); 
0801A:  CALL   456A
....................    }else if(ACiclos[i]==13){ 
0801E:  BRA    81B8
08020:  MOVLB  3
08022:  CLRF   03
08024:  MOVF   x4A,W
08026:  ADDLW  FC
08028:  MOVWF  FE9
0802A:  MOVLW  03
0802C:  ADDWFC 03,W
0802E:  MOVWF  FEA
08030:  MOVF   FEF,W
08032:  SUBLW  0D
08034:  BNZ   8074
....................       printf("A%u.txt=\"Desfoga\"",i+1); 
08036:  MOVLW  01
08038:  ADDWF  x4A,W
0803A:  MOVLB  7
0803C:  MOVWF  x08
0803E:  MOVLW  41
08040:  BTFSS  F9E.4
08042:  BRA    8040
08044:  MOVWF  FAD
08046:  MOVFF  708,70D
0804A:  MOVLW  1B
0804C:  MOVWF  x0E
0804E:  MOVLB  0
08050:  CALL   632A
08054:  MOVLW  0D
08056:  MOVWF  FF6
08058:  MOVLW  03
0805A:  MOVWF  FF7
0805C:  MOVLW  00
0805E:  MOVWF  FF8
08060:  MOVLW  0E
08062:  MOVLB  7
08064:  MOVWF  x0D
08066:  MOVLB  0
08068:  CALL   5D0E
....................       SendDataDisplay(); 
0806C:  CALL   456A
....................    }else if(ACiclos[i]==14){ 
08070:  BRA    81B8
08072:  MOVLB  3
08074:  CLRF   03
08076:  MOVF   x4A,W
08078:  ADDLW  FC
0807A:  MOVWF  FE9
0807C:  MOVLW  03
0807E:  ADDWFC 03,W
08080:  MOVWF  FEA
08082:  MOVF   FEF,W
08084:  SUBLW  0E
08086:  BNZ   80C6
....................       printf("A%u.txt=\"Finalizado\"",i+1); 
08088:  MOVLW  01
0808A:  ADDWF  x4A,W
0808C:  MOVLB  7
0808E:  MOVWF  x08
08090:  MOVLW  41
08092:  BTFSS  F9E.4
08094:  BRA    8092
08096:  MOVWF  FAD
08098:  MOVFF  708,70D
0809C:  MOVLW  1B
0809E:  MOVWF  x0E
080A0:  MOVLB  0
080A2:  CALL   632A
080A6:  MOVLW  1F
080A8:  MOVWF  FF6
080AA:  MOVLW  03
080AC:  MOVWF  FF7
080AE:  MOVLW  00
080B0:  MOVWF  FF8
080B2:  MOVLW  11
080B4:  MOVLB  7
080B6:  MOVWF  x0D
080B8:  MOVLB  0
080BA:  CALL   5D0E
....................       SendDataDisplay(); 
080BE:  CALL   456A
....................    }else if(ACiclos[i]==15){ 
080C2:  BRA    81B8
080C4:  MOVLB  3
080C6:  CLRF   03
080C8:  MOVF   x4A,W
080CA:  ADDLW  FC
080CC:  MOVWF  FE9
080CE:  MOVLW  03
080D0:  ADDWFC 03,W
080D2:  MOVWF  FEA
080D4:  MOVF   FEF,W
080D6:  SUBLW  0F
080D8:  BNZ   8118
....................       printf("A%u.txt=\"Secando\"",i+1); 
080DA:  MOVLW  01
080DC:  ADDWF  x4A,W
080DE:  MOVLB  7
080E0:  MOVWF  x08
080E2:  MOVLW  41
080E4:  BTFSS  F9E.4
080E6:  BRA    80E4
080E8:  MOVWF  FAD
080EA:  MOVFF  708,70D
080EE:  MOVLW  1B
080F0:  MOVWF  x0E
080F2:  MOVLB  0
080F4:  CALL   632A
080F8:  MOVLW  35
080FA:  MOVWF  FF6
080FC:  MOVLW  03
080FE:  MOVWF  FF7
08100:  MOVLW  00
08102:  MOVWF  FF8
08104:  MOVLW  0E
08106:  MOVLB  7
08108:  MOVWF  x0D
0810A:  MOVLB  0
0810C:  CALL   5D0E
....................       SendDataDisplay(); 
08110:  CALL   456A
....................    }else if(ACiclos[i]==16){ 
08114:  BRA    81B8
08116:  MOVLB  3
08118:  CLRF   03
0811A:  MOVF   x4A,W
0811C:  ADDLW  FC
0811E:  MOVWF  FE9
08120:  MOVLW  03
08122:  ADDWFC 03,W
08124:  MOVWF  FEA
08126:  MOVF   FEF,W
08128:  SUBLW  10
0812A:  BNZ   816A
....................       printf("A%u.txt=\"Esterilizando\"",i+1); 
0812C:  MOVLW  01
0812E:  ADDWF  x4A,W
08130:  MOVLB  7
08132:  MOVWF  x08
08134:  MOVLW  41
08136:  BTFSS  F9E.4
08138:  BRA    8136
0813A:  MOVWF  FAD
0813C:  MOVFF  708,70D
08140:  MOVLW  1B
08142:  MOVWF  x0E
08144:  MOVLB  0
08146:  CALL   632A
0814A:  MOVLW  47
0814C:  MOVWF  FF6
0814E:  MOVLW  03
08150:  MOVWF  FF7
08152:  MOVLW  00
08154:  MOVWF  FF8
08156:  MOVLW  14
08158:  MOVLB  7
0815A:  MOVWF  x0D
0815C:  MOVLB  0
0815E:  CALL   5D0E
....................       SendDataDisplay(); 
08162:  CALL   456A
....................    }else if(ACiclos[i]==17){ 
08166:  BRA    81B8
08168:  MOVLB  3
0816A:  CLRF   03
0816C:  MOVF   x4A,W
0816E:  ADDLW  FC
08170:  MOVWF  FE9
08172:  MOVLW  03
08174:  ADDWFC 03,W
08176:  MOVWF  FEA
08178:  MOVF   FEF,W
0817A:  SUBLW  11
0817C:  BNZ   81BA
....................       printf("A%u.txt=\"Enfriando\"",i+1); 
0817E:  MOVLW  01
08180:  ADDWF  x4A,W
08182:  MOVLB  7
08184:  MOVWF  x08
08186:  MOVLW  41
08188:  BTFSS  F9E.4
0818A:  BRA    8188
0818C:  MOVWF  FAD
0818E:  MOVFF  708,70D
08192:  MOVLW  1B
08194:  MOVWF  x0E
08196:  MOVLB  0
08198:  CALL   632A
0819C:  MOVLW  5F
0819E:  MOVWF  FF6
081A0:  MOVLW  03
081A2:  MOVWF  FF7
081A4:  MOVLW  00
081A6:  MOVWF  FF8
081A8:  MOVLW  10
081AA:  MOVLB  7
081AC:  MOVWF  x0D
081AE:  MOVLB  0
081B0:  CALL   5D0E
....................       SendDataDisplay(); 
081B4:  CALL   456A
081B8:  MOVLB  3
....................    } 
.................... } 
081BA:  MOVLB  0
081BC:  GOTO   1489A (RETURN)
....................  
.................... void graficaCurva(int16 tGrafica){ 
....................    if(tiempos2>=tGrafica){ 
*
0593E:  MOVLB  7
05940:  MOVF   x09,W
05942:  MOVLB  3
05944:  SUBWF  x5C,W
05946:  BNC   595A
05948:  BNZ   5954
0594A:  MOVLB  7
0594C:  MOVF   x08,W
0594E:  MOVLB  3
05950:  SUBWF  x5B,W
05952:  BNC   595A
....................       Grafica=1; 
05954:  BSF    x3C.1
....................       tiempos2=0; 
05956:  CLRF   x5C
05958:  CLRF   x5B
....................    } 
.................... } 
0595A:  MOVLB  0
0595C:  GOTO   10C02 (RETURN)
....................  
.................... void muestreo(int16 tmuestreo){ 
....................    if(tiempos3>=tmuestreo){ 
*
05992:  MOVLB  7
05994:  MOVF   x09,W
05996:  MOVLB  3
05998:  SUBWF  x5E,W
0599A:  BTFSS  FD8.0
0599C:  BRA    5B7C
0599E:  BNZ   59AC
059A0:  MOVLB  7
059A2:  MOVF   x08,W
059A4:  MOVLB  3
059A6:  SUBWF  x5D,W
059A8:  BTFSS  FD8.0
059AA:  BRA    5B7C
....................       Temperatura=LeerPt100(0,MediaMovil); 
059AC:  MOVLB  7
059AE:  CLRF   x0A
059B0:  MOVFF  2CC,70B
059B4:  MOVLB  0
059B6:  CALL   471E
059BA:  MOVFF  03,316
059BE:  MOVFF  02,315
059C2:  MOVFF  01,314
059C6:  MOVFF  00,313
....................       Temperatura2=LeerPt100(1,MediaMovil); 
059CA:  MOVLW  01
059CC:  MOVLB  7
059CE:  MOVWF  x0A
059D0:  MOVFF  2CC,70B
059D4:  MOVLB  0
059D6:  CALL   471E
059DA:  MOVFF  03,31A
059DE:  MOVFF  02,319
059E2:  MOVFF  01,318
059E6:  MOVFF  00,317
....................       PresionCamara=Leer_Sensor_Presion_Camara(10); 
059EA:  MOVLW  0A
059EC:  MOVLB  7
059EE:  MOVWF  x0A
059F0:  MOVLB  0
059F2:  CALL   5182
059F6:  MOVFF  03,71D
059FA:  MOVFF  02,71C
059FE:  MOVFF  01,71B
05A02:  MOVFF  00,71A
05A06:  RCALL  5380
05A08:  MOVFF  02,366
05A0C:  MOVFF  01,365
....................       PresionPreCamara=Leer_Sensor_Presion_PreCamara(5); 
05A10:  MOVLW  05
05A12:  MOVLB  7
05A14:  MOVWF  x0A
05A16:  MOVLB  0
05A18:  RCALL  53BC
05A1A:  MOVFF  03,71D
05A1E:  MOVFF  02,71C
05A22:  MOVFF  01,71B
05A26:  MOVFF  00,71A
05A2A:  RCALL  5380
05A2C:  MOVFF  02,368
05A30:  MOVFF  01,367
....................       rtc_get_date(Dia,Mes,Year,dow); 
....................       rtc_get_time(Hora,Minuto,Segundo); 
....................       if(sensores(3)<512) 
*
05AEA:  MOVLW  03
05AEC:  MOVLB  7
05AEE:  MOVWF  x0E
05AF0:  MOVLB  0
05AF2:  CALL   45D0
05AF6:  MOVFF  00,70A
05AFA:  MOVFF  01,70B
05AFE:  MOVFF  02,70C
05B02:  MOVFF  03,70D
05B06:  MOVFF  03,711
05B0A:  MOVFF  02,710
05B0E:  MOVFF  01,70F
05B12:  MOVFF  00,70E
05B16:  MOVLB  7
05B18:  CLRF   x15
05B1A:  CLRF   x14
05B1C:  CLRF   x13
05B1E:  MOVLW  88
05B20:  MOVWF  x12
05B22:  MOVLB  0
05B24:  CALL   2680
05B28:  BNC   5B2E
....................          LOW=ON; 
05B2A:  BSF    xA5.5
....................       else 
05B2C:  BRA    5B30
....................          LOW=OFF; 
05B2E:  BCF    xA5.5
....................        
....................       if(sensores(2)<512)//3 
05B30:  MOVLW  02
05B32:  MOVLB  7
05B34:  MOVWF  x0E
05B36:  MOVLB  0
05B38:  CALL   45D0
05B3C:  MOVFF  00,70A
05B40:  MOVFF  01,70B
05B44:  MOVFF  02,70C
05B48:  MOVFF  03,70D
05B4C:  MOVFF  03,711
05B50:  MOVFF  02,710
05B54:  MOVFF  01,70F
05B58:  MOVFF  00,70E
05B5C:  MOVLB  7
05B5E:  CLRF   x15
05B60:  CLRF   x14
05B62:  CLRF   x13
05B64:  MOVLW  88
05B66:  MOVWF  x12
05B68:  MOVLB  0
05B6A:  CALL   2680
05B6E:  BNC   5B74
....................          HIG=ON; 
05B70:  BSF    xA5.6
....................       else 
05B72:  BRA    5B76
....................          HIG=OFF; 
05B74:  BCF    xA5.6
....................       tiempos3=0; 
05B76:  MOVLB  3
05B78:  CLRF   x5E
05B7A:  CLRF   x5D
....................    } 
.................... } 
05B7C:  MOVLB  0
05B7E:  GOTO   10C10 (RETURN)
....................  
.................... void monitoreaStop(){ 
....................    if(Menu==255){ 
*
061EA:  MOVLB  3
061EC:  INCFSZ x47,W
061EE:  BRA    626E
....................       printf("t2.txt=\"Activada P:%03LdkPa T:%2.1fC\"",presionManometrica,Temperatura); 
061F0:  MOVLW  70
061F2:  MOVWF  FF6
061F4:  MOVLW  03
061F6:  MOVWF  FF7
061F8:  MOVLW  00
061FA:  MOVWF  FF8
061FC:  MOVLW  13
061FE:  MOVLB  7
06200:  MOVWF  x0D
06202:  MOVLB  0
06204:  RCALL  5D0E
06206:  MOVLW  0B
06208:  MOVWF  FE9
0620A:  MOVFF  39F,709
0620E:  MOVFF  39E,708
06212:  RCALL  5D40
06214:  MOVLW  88
06216:  MOVWF  FF6
06218:  MOVLW  03
0621A:  MOVWF  FF7
0621C:  MOVLW  00
0621E:  MOVWF  FF8
06220:  MOVLW  06
06222:  MOVLB  7
06224:  MOVWF  x0D
06226:  MOVLB  0
06228:  RCALL  5D0E
0622A:  MOVLW  01
0622C:  MOVWF  FE9
0622E:  MOVFF  316,710
06232:  MOVFF  315,70F
06236:  MOVFF  314,70E
0623A:  MOVFF  313,70D
0623E:  MOVLB  7
06240:  MOVWF  x11
06242:  MOVLB  0
06244:  RCALL  5EE6
06246:  MOVLW  B0
06248:  BTFSS  F9E.4
0624A:  BRA    6248
0624C:  MOVWF  FAD
0624E:  MOVLW  43
06250:  BTFSS  F9E.4
06252:  BRA    6250
06254:  MOVWF  FAD
06256:  MOVLW  22
06258:  BTFSS  F9E.4
0625A:  BRA    6258
0625C:  MOVWF  FAD
....................       SendDataDisplay(); 
0625E:  CALL   456A
....................       ActivaAlarma(1); 
06262:  MOVLW  01
06264:  MOVLB  7
06266:  MOVWF  x08
06268:  MOVLB  0
0626A:  RCALL  608A
0626C:  MOVLB  3
....................    } 
....................     
....................    if(STOP && Menu!=20 && !PruebaEstados){ 
0626E:  BSF    F93.5
06270:  BTFSC  F81.5
06272:  BRA    62F8
06274:  MOVF   x47,W
06276:  SUBLW  14
06278:  BZ    62F8
0627A:  MOVLB  0
0627C:  BTFSS  xA1.4
0627E:  BRA    6284
06280:  MOVLB  3
06282:  BRA    62F8
....................       delay_ms(200); 
06284:  MOVLW  C8
06286:  MOVLB  7
06288:  MOVWF  x1E
0628A:  MOVLB  0
0628C:  CALL   2060
....................       if(STOP){ 
06290:  BSF    F93.5
06292:  BTFSC  F81.5
06294:  BRA    62F6
....................          if(!disp_Stop){ 
06296:  MOVLB  3
06298:  BTFSC  x3C.2
0629A:  BRA    62BA
....................             disp_Stop=1;Menu=255; 
0629C:  BSF    x3C.2
0629E:  MOVLW  FF
062A0:  MOVWF  x47
....................             printf("page Emergencia"); 
062A2:  MOVLW  98
062A4:  MOVWF  FF6
062A6:  MOVLW  03
062A8:  MOVWF  FF7
062AA:  MOVLW  00
062AC:  MOVWF  FF8
062AE:  MOVLB  0
062B0:  CALL   4538
....................             SendDataDisplay(); 
062B4:  CALL   456A
062B8:  MOVLB  3
....................          } 
....................          Controlando=0; 
062BA:  CLRF   x3F
....................          Desfogue_on; 
062BC:  BCF    F8B.1
062BE:  BCF    F94.1
....................          SSR_off; 
062C0:  BCF    F8D.1
062C2:  BCF    F96.1
....................          SSR2_off; 
062C4:  BCF    F8D.2
062C6:  BCF    F96.2
....................          Paso_off; 
062C8:  BSF    F8B.0
062CA:  BCF    F94.0
....................          BombaVacio_off; 
062CC:  BSF    F8B.5
062CE:  BCF    F94.5
....................          Vacio_off; 
062D0:  BSF    F8B.2
062D2:  BCF    F94.2
....................          if(PresionCamara<Atmosferica) 
062D4:  MOVF   x66,W
062D6:  SUBWF  x3B,W
062D8:  BNC   62E8
062DA:  BNZ   62E2
062DC:  MOVF   x3A,W
062DE:  SUBWF  x65,W
062E0:  BC    62E8
....................             Aire_on; 
062E2:  BCF    F8C.0
062E4:  BCF    F95.0
....................          else 
062E6:  BRA    62EC
....................             Aire_off; 
062E8:  BSF    F8C.0
062EA:  BCF    F95.0
....................          AireB_off; 
062EC:  BSF    F8C.1
062EE:  BCF    F95.1
....................          //Agua_off; 
....................          //EV8_off; 
....................          DesfogueSuave=OFF; 
062F0:  MOVLB  0
062F2:  BCF    xA0.7
....................          //ActivaAlarma(1); 
....................          BorraBuffer(); 
062F4:  BRA    61BE
062F6:  MOVLB  3
....................       } 
....................    } 
....................    /* 
....................    else{ 
....................       if(disp_Stop){ 
....................          reset_cpu(); 
....................       } 
....................    }  
....................    */ 
.................... } 
062F8:  MOVLB  0
062FA:  GOTO   10C1E (RETURN)
....................  
.................... void chancleteaBomba(){ 
....................    for(i=0;i<10;i++){ 
*
06F68:  MOVLB  3
06F6A:  CLRF   x4A
06F6C:  MOVF   x4A,W
06F6E:  SUBLW  09
06F70:  BNC   6F98
....................       BombaVacio_on; 
06F72:  BCF    F8B.5
06F74:  BCF    F94.5
....................       delay_ms(100); 
06F76:  MOVLW  64
06F78:  MOVLB  7
06F7A:  MOVWF  x1E
06F7C:  MOVLB  0
06F7E:  CALL   2060
....................       BombaVacio_off; 
06F82:  BSF    F8B.5
06F84:  BCF    F94.5
....................       delay_ms(100); 
06F86:  MOVLW  64
06F88:  MOVLB  7
06F8A:  MOVWF  x1E
06F8C:  MOVLB  0
06F8E:  CALL   2060
....................    } 
06F92:  MOVLB  3
06F94:  INCF   x4A,F
06F96:  BRA    6F6C
.................... } 
06F98:  MOVLB  0
06F9A:  GOTO   6FC0 (RETURN)
....................  
.................... void purgaBomba(){ 
....................    Vacio_off; 
06F9E:  BSF    F8B.2
06FA0:  BCF    F94.2
....................    Desfogue_off; 
06FA2:  BSF    F8B.1
06FA4:  BCF    F94.1
....................    Aire_off; 
06FA6:  BSF    F8C.0
06FA8:  BCF    F95.0
....................    AireB_on; 
06FAA:  BCF    F8C.1
06FAC:  BCF    F95.1
....................    Paso_off; 
06FAE:  BSF    F8B.0
06FB0:  BCF    F94.0
....................    //Agua_off; 
....................    delay_ms(70); 
06FB2:  MOVLW  46
06FB4:  MOVLB  7
06FB6:  MOVWF  x1E
06FB8:  MOVLB  0
06FBA:  CALL   2060
....................    chancleteaBomba(); 
06FBE:  BRA    6F68
....................    BombaVacio_on; 
06FC0:  BCF    F8B.5
06FC2:  BCF    F94.5
....................    delay_ms(7000); 
06FC4:  MOVLW  1C
06FC6:  MOVLB  7
06FC8:  MOVWF  x08
06FCA:  MOVLW  FA
06FCC:  MOVWF  x1E
06FCE:  MOVLB  0
06FD0:  CALL   2060
06FD4:  MOVLB  7
06FD6:  DECFSZ x08,F
06FD8:  BRA    6FCA
.................... } 
06FDA:  MOVLB  0
06FDC:  RETLW  00
....................  
.................... void salidasPulsoNegativo(){ 
....................    Vacio_on; 
*
088CA:  BCF    F8B.2
088CC:  BCF    F94.2
....................    Desfogue_off; 
088CE:  BSF    F8B.1
088D0:  BCF    F94.1
....................    Aire_off; 
088D2:  BSF    F8C.0
088D4:  BCF    F95.0
....................    AireB_off; 
088D6:  BSF    F8C.1
088D8:  BCF    F95.1
....................    Paso_off; 
088DA:  BSF    F8B.0
088DC:  BCF    F94.0
....................    BombaVacio_on; 
088DE:  BCF    F8B.5
088E0:  BCF    F94.5
.................... } 
088E2:  RETLW  00
....................  
.................... void salidasPulsoPositivo(){ 
....................    Vacio_off; 
088E4:  BSF    F8B.2
088E6:  BCF    F94.2
....................    Desfogue_off; 
088E8:  BSF    F8B.1
088EA:  BCF    F94.1
....................    Aire_off; 
088EC:  BSF    F8C.0
088EE:  BCF    F95.0
....................    AireB_on; 
088F0:  BCF    F8C.1
088F2:  BCF    F95.1
....................    Paso_on; 
088F4:  BCF    F8B.0
088F6:  BCF    F94.0
....................    Agua_off; 
088F8:  BSF    F8C.3
088FA:  BCF    F95.3
....................    EV8_off; 
088FC:  BSF    F8C.2
088FE:  BCF    F95.2
....................    BombaVacio_on;  
08900:  BCF    F8B.5
08902:  BCF    F94.5
.................... } 
08904:  GOTO   1553C (RETURN)
....................  
.................... void enciendeBombaAgua(){ 
....................    if(tBombaAgua>120){ 
*
05C50:  MOVF   xB2,F
05C52:  BNZ   5C5A
05C54:  MOVF   xB1,W
05C56:  SUBLW  78
05C58:  BC    5C72
....................       EV8_off; 
05C5A:  BSF    F8C.2
05C5C:  BCF    F95.2
....................       flagBombaAgua=OFF; 
05C5E:  BCF    xA6.2
....................       flagBombaAguaOff=ON; 
05C60:  BSF    xA6.3
....................       if(tBombaAguaOff>=60){ 
05C62:  MOVF   xB4,F
05C64:  BNZ   5C6C
05C66:  MOVF   xB3,W
05C68:  SUBLW  3B
05C6A:  BC    5C70
....................          tBombaAgua=0; 
05C6C:  CLRF   xB2
05C6E:  CLRF   xB1
....................       } 
....................    }else{ 
05C70:  BRA    5C7E
....................       EV8_on; 
05C72:  BCF    F8C.2
05C74:  BCF    F95.2
....................       flagBombaAgua=ON; 
05C76:  BSF    xA6.2
....................       flagBombaAguaOff=OFF; 
05C78:  BCF    xA6.3
....................       tBombaAguaOff=0; 
05C7A:  CLRF   xB4
05C7C:  CLRF   xB3
....................    } 
.................... } 
05C7E:  RETLW  00
....................  
.................... void apagaBombaAgua(){ 
....................    EV8_off; 
*
05C3E:  BSF    F8C.2
05C40:  BCF    F95.2
....................    flagBombaAgua=OFF; 
05C42:  BCF    xA6.2
....................    flagBombaAguaOff=OFF; 
05C44:  BCF    xA6.3
....................    tBombaAguaOff=0; 
05C46:  CLRF   xB4
05C48:  CLRF   xB3
....................    tBombaAgua=0; 
05C4A:  CLRF   xB2
05C4C:  CLRF   xB1
.................... } 
05C4E:  RETLW  00
....................  
.................... void actualizaTabla(){ 
....................    diaCiclos=read_ext_eeprom(2+(cicloVisto*320)); 
*
071B4:  MOVLB  7
071B6:  CLRF   x1F
071B8:  MOVFF  354,71E
071BC:  MOVLW  01
071BE:  MOVWF  x21
071C0:  MOVLW  40
071C2:  MOVWF  x20
071C4:  MOVLB  0
071C6:  CALL   2494
071CA:  MOVFF  02,03
071CE:  MOVF   01,W
071D0:  ADDLW  02
071D2:  MOVLB  7
071D4:  MOVWF  x08
071D6:  MOVLW  00
071D8:  ADDWFC 02,W
071DA:  MOVWF  x09
071DC:  MOVWF  x0E
071DE:  MOVFF  708,70D
071E2:  MOVLB  0
071E4:  CALL   2598
071E8:  MOVFF  01,403
....................          if(diaCiclos>31) 
071EC:  MOVLB  4
071EE:  MOVF   x03,W
071F0:  SUBLW  1F
071F2:  BC    71F8
....................             diaCiclos=1; 
071F4:  MOVLW  01
071F6:  MOVWF  x03
....................          mesCiclos=read_ext_eeprom(3+(cicloVisto*320)); 
071F8:  MOVLB  7
071FA:  CLRF   x1F
071FC:  MOVFF  354,71E
07200:  MOVLW  01
07202:  MOVWF  x21
07204:  MOVLW  40
07206:  MOVWF  x20
07208:  MOVLB  0
0720A:  CALL   2494
0720E:  MOVFF  02,03
07212:  MOVF   01,W
07214:  ADDLW  03
07216:  MOVLB  7
07218:  MOVWF  x08
0721A:  MOVLW  00
0721C:  ADDWFC 02,W
0721E:  MOVWF  x09
07220:  MOVWF  x0E
07222:  MOVFF  708,70D
07226:  MOVLB  0
07228:  CALL   2598
0722C:  MOVFF  01,404
....................          if(mesCiclos>12) 
07230:  MOVLB  4
07232:  MOVF   x04,W
07234:  SUBLW  0C
07236:  BC    723C
....................             mesCiclos=1; 
07238:  MOVLW  01
0723A:  MOVWF  x04
....................          yearCiclos=read_ext_eeprom(4+(cicloVisto*320)); 
0723C:  MOVLB  7
0723E:  CLRF   x1F
07240:  MOVFF  354,71E
07244:  MOVLW  01
07246:  MOVWF  x21
07248:  MOVLW  40
0724A:  MOVWF  x20
0724C:  MOVLB  0
0724E:  CALL   2494
07252:  MOVFF  02,03
07256:  MOVF   01,W
07258:  ADDLW  04
0725A:  MOVLB  7
0725C:  MOVWF  x08
0725E:  MOVLW  00
07260:  ADDWFC 02,W
07262:  MOVWF  x09
07264:  MOVWF  x0E
07266:  MOVFF  708,70D
0726A:  MOVLB  0
0726C:  CALL   2598
07270:  MOVFF  01,405
....................          if(yearCiclos>99) 
07274:  MOVLB  4
07276:  MOVF   x05,W
07278:  SUBLW  63
0727A:  BC    7280
....................             yearCiclos=19; 
0727C:  MOVLW  13
0727E:  MOVWF  x05
....................          cicloCiclos=read_ext_eeprom(1+(cicloVisto*320)); 
07280:  MOVLB  7
07282:  CLRF   x1F
07284:  MOVFF  354,71E
07288:  MOVLW  01
0728A:  MOVWF  x21
0728C:  MOVLW  40
0728E:  MOVWF  x20
07290:  MOVLB  0
07292:  CALL   2494
07296:  MOVFF  02,03
0729A:  MOVF   01,W
0729C:  ADDLW  01
0729E:  MOVLB  7
072A0:  MOVWF  x08
072A2:  MOVLW  00
072A4:  ADDWFC 02,W
072A6:  MOVWF  x09
072A8:  MOVWF  x0E
072AA:  MOVFF  708,70D
072AE:  MOVLB  0
072B0:  CALL   2598
072B4:  MOVFF  01,407
....................          if(cicloCiclos>20) 
072B8:  MOVLB  4
072BA:  MOVF   x07,W
072BC:  SUBLW  14
072BE:  BC    72C4
....................             cicloCiclos=1; 
072C0:  MOVLW  01
072C2:  MOVWF  x07
....................          usuarioCiclos=read_ext_eeprom((cicloVisto*320)); 
072C4:  MOVLB  7
072C6:  CLRF   x1F
072C8:  MOVFF  354,71E
072CC:  MOVLW  01
072CE:  MOVWF  x21
072D0:  MOVLW  40
072D2:  MOVWF  x20
072D4:  MOVLB  0
072D6:  CALL   2494
072DA:  MOVFF  02,709
072DE:  MOVFF  01,708
072E2:  MOVFF  02,70E
072E6:  MOVFF  01,70D
072EA:  CALL   2598
072EE:  MOVFF  01,406
....................          if(usuarioCiclos>10) 
072F2:  MOVLB  4
072F4:  MOVF   x06,W
072F6:  SUBLW  0A
072F8:  BC    72FE
....................             usuarioCiclos=1; 
072FA:  MOVLW  01
072FC:  MOVWF  x06
....................          for(i=0;i<7;i++){//Lee Valores para completar la Tabla 
072FE:  MOVLB  3
07300:  CLRF   x4A
07302:  MOVF   x4A,W
07304:  SUBLW  06
07306:  BTFSS  FD8.0
07308:  BRA    7852
....................             horaCiclos[i]=read_ext_eeprom((cicloVisto*320)+11+((cicloVisualizado+i)*9)); 
0730A:  CLRF   03
0730C:  MOVF   x4A,W
0730E:  ADDLW  EE
07310:  MOVWF  01
07312:  MOVLW  03
07314:  ADDWFC 03,F
07316:  MOVFF  01,708
0731A:  MOVLB  7
0731C:  MOVFF  03,709
07320:  CLRF   x1F
07322:  MOVFF  354,71E
07326:  MOVLW  01
07328:  MOVWF  x21
0732A:  MOVLW  40
0732C:  MOVWF  x20
0732E:  MOVLB  0
07330:  CALL   2494
07334:  MOVFF  02,70B
07338:  MOVFF  01,70A
0733C:  MOVLW  0B
0733E:  MOVLB  7
07340:  ADDWF  x0A,F
07342:  MOVLW  00
07344:  ADDWFC x0B,F
07346:  MOVLB  3
07348:  MOVF   x4A,W
0734A:  ADDWF  x55,W
0734C:  MULLW  09
0734E:  MOVF   FF3,W
07350:  MOVLB  7
07352:  ADDWF  x0A,F
07354:  MOVLW  00
07356:  ADDWFC x0B,F
07358:  MOVFF  70B,70E
0735C:  MOVFF  70A,70D
07360:  MOVLB  0
07362:  CALL   2598
07366:  MOVFF  709,FEA
0736A:  MOVFF  708,FE9
0736E:  MOVFF  01,FEF
....................             if(horaCiclos[i]>24) 
07372:  CLRF   03
07374:  MOVLB  3
07376:  MOVF   x4A,W
07378:  ADDLW  EE
0737A:  MOVWF  FE9
0737C:  MOVLW  03
0737E:  ADDWFC 03,W
07380:  MOVWF  FEA
07382:  MOVF   FEF,W
07384:  SUBLW  18
07386:  BC    7398
....................                horaCiclos[i]=0; 
07388:  CLRF   03
0738A:  MOVF   x4A,W
0738C:  ADDLW  EE
0738E:  MOVWF  FE9
07390:  MOVLW  03
07392:  ADDWFC 03,W
07394:  MOVWF  FEA
07396:  CLRF   FEF
....................             minutoCiclos[i]=read_ext_eeprom((cicloVisto*320)+12+((cicloVisualizado+i)*9)); 
07398:  CLRF   03
0739A:  MOVF   x4A,W
0739C:  ADDLW  F5
0739E:  MOVWF  01
073A0:  MOVLW  03
073A2:  ADDWFC 03,F
073A4:  MOVFF  01,708
073A8:  MOVLB  7
073AA:  MOVFF  03,709
073AE:  CLRF   x1F
073B0:  MOVFF  354,71E
073B4:  MOVLW  01
073B6:  MOVWF  x21
073B8:  MOVLW  40
073BA:  MOVWF  x20
073BC:  MOVLB  0
073BE:  CALL   2494
073C2:  MOVFF  02,70B
073C6:  MOVFF  01,70A
073CA:  MOVLW  0C
073CC:  MOVLB  7
073CE:  ADDWF  x0A,F
073D0:  MOVLW  00
073D2:  ADDWFC x0B,F
073D4:  MOVLB  3
073D6:  MOVF   x4A,W
073D8:  ADDWF  x55,W
073DA:  MULLW  09
073DC:  MOVF   FF3,W
073DE:  MOVLB  7
073E0:  ADDWF  x0A,F
073E2:  MOVLW  00
073E4:  ADDWFC x0B,F
073E6:  MOVFF  70B,70E
073EA:  MOVFF  70A,70D
073EE:  MOVLB  0
073F0:  CALL   2598
073F4:  MOVFF  709,FEA
073F8:  MOVFF  708,FE9
073FC:  MOVFF  01,FEF
....................             if(minutoCiclos[i]>59) 
07400:  CLRF   03
07402:  MOVLB  3
07404:  MOVF   x4A,W
07406:  ADDLW  F5
07408:  MOVWF  FE9
0740A:  MOVLW  03
0740C:  ADDWFC 03,W
0740E:  MOVWF  FEA
07410:  MOVF   FEF,W
07412:  SUBLW  3B
07414:  BC    7426
....................                minutoCiclos[i]=0; 
07416:  CLRF   03
07418:  MOVF   x4A,W
0741A:  ADDLW  F5
0741C:  MOVWF  FE9
0741E:  MOVLW  03
07420:  ADDWFC 03,W
07422:  MOVWF  FEA
07424:  CLRF   FEF
....................             TCiclos[i]=read_ext_eeprom((cicloVisto*320)+5+((cicloVisualizado+i)*9))+inttofloat(read_ext_eeprom((cicloVisto*320)+6+((cicloVisualizado+i)*9))); 
07426:  MOVF   x4A,W
07428:  MULLW  04
0742A:  MOVF   FF3,W
0742C:  CLRF   03
0742E:  ADDLW  B6
07430:  MOVWF  01
07432:  MOVLW  03
07434:  ADDWFC 03,F
07436:  MOVFF  01,708
0743A:  MOVLB  7
0743C:  MOVFF  03,709
07440:  CLRF   x1F
07442:  MOVFF  354,71E
07446:  MOVLW  01
07448:  MOVWF  x21
0744A:  MOVLW  40
0744C:  MOVWF  x20
0744E:  MOVLB  0
07450:  CALL   2494
07454:  MOVFF  02,70B
07458:  MOVFF  01,70A
0745C:  MOVLW  05
0745E:  MOVLB  7
07460:  ADDWF  x0A,F
07462:  MOVLW  00
07464:  ADDWFC x0B,F
07466:  MOVLB  3
07468:  MOVF   x4A,W
0746A:  ADDWF  x55,W
0746C:  MULLW  09
0746E:  MOVF   FF3,W
07470:  MOVLB  7
07472:  ADDWF  x0A,F
07474:  MOVLW  00
07476:  ADDWFC x0B,F
07478:  MOVFF  70B,70E
0747C:  MOVFF  70A,70D
07480:  MOVLB  0
07482:  CALL   2598
07486:  MOVFF  01,70A
0748A:  MOVLB  7
0748C:  CLRF   x1F
0748E:  MOVFF  354,71E
07492:  MOVLW  01
07494:  MOVWF  x21
07496:  MOVLW  40
07498:  MOVWF  x20
0749A:  MOVLB  0
0749C:  CALL   2494
074A0:  MOVFF  02,70C
074A4:  MOVFF  01,70B
074A8:  MOVLW  06
074AA:  MOVLB  7
074AC:  ADDWF  x0B,F
074AE:  MOVLW  00
074B0:  ADDWFC x0C,F
074B2:  MOVLB  3
074B4:  MOVF   x4A,W
074B6:  ADDWF  x55,W
074B8:  MULLW  09
074BA:  MOVF   FF3,W
074BC:  MOVLB  7
074BE:  ADDWF  x0B,F
074C0:  MOVLW  00
074C2:  ADDWFC x0C,F
074C4:  MOVFF  70C,70E
074C8:  MOVFF  70B,70D
074CC:  MOVLB  0
074CE:  CALL   2598
074D2:  MOVFF  01,70B
074D6:  MOVFF  01,70C
074DA:  CALL   2640
074DE:  MOVFF  00,70B
074E2:  MOVFF  01,70C
074E6:  MOVFF  02,70D
074EA:  MOVFF  03,70E
074EE:  MOVLB  7
074F0:  CLRF   x1B
074F2:  MOVFF  70A,71A
074F6:  MOVLB  0
074F8:  CALL   2088
074FC:  MOVFF  FEA,710
07500:  MOVFF  FE9,70F
07504:  BCF    FD8.1
07506:  MOVFF  03,71D
0750A:  MOVFF  02,71C
0750E:  MOVFF  01,71B
07512:  MOVFF  00,71A
07516:  MOVFF  70E,721
0751A:  MOVFF  70D,720
0751E:  MOVFF  70C,71F
07522:  MOVFF  70B,71E
07526:  CALL   221C
0752A:  MOVFF  710,FEA
0752E:  MOVFF  70F,FE9
07532:  MOVFF  709,FEA
07536:  MOVFF  708,FE9
0753A:  MOVFF  00,FEF
0753E:  MOVFF  01,FEC
07542:  MOVFF  02,FEC
07546:  MOVFF  03,FEC
....................             if(TCiclos[i]>150) 
0754A:  MOVLB  3
0754C:  MOVF   x4A,W
0754E:  MULLW  04
07550:  MOVF   FF3,W
07552:  CLRF   03
07554:  ADDLW  B6
07556:  MOVWF  FE9
07558:  MOVLW  03
0755A:  ADDWFC 03,W
0755C:  MOVWF  FEA
0755E:  MOVFF  FEF,708
07562:  MOVFF  FEC,709
07566:  MOVFF  FEC,70A
0756A:  MOVFF  FEC,70B
0756E:  MOVLB  7
07570:  CLRF   x11
07572:  CLRF   x10
07574:  MOVLW  16
07576:  MOVWF  x0F
07578:  MOVLW  86
0757A:  MOVWF  x0E
0757C:  MOVFF  70B,715
07580:  MOVFF  70A,714
07584:  MOVFF  709,713
07588:  MOVFF  708,712
0758C:  MOVLB  0
0758E:  CALL   2680
07592:  BNC   75B2
....................                TCiclos[i]=0; 
07594:  MOVLB  3
07596:  MOVF   x4A,W
07598:  MULLW  04
0759A:  MOVF   FF3,W
0759C:  CLRF   03
0759E:  ADDLW  B6
075A0:  MOVWF  FE9
075A2:  MOVLW  03
075A4:  ADDWFC 03,W
075A6:  MOVWF  FEA
075A8:  CLRF   FEF
075AA:  CLRF   FEC
075AC:  CLRF   FEC
075AE:  CLRF   FEC
075B0:  MOVLB  0
....................             PcCiclos[i]=make16(read_ext_eeprom((cicloVisto*320)+7+((cicloVisualizado+i)*9)),read_ext_eeprom((cicloVisto*320)+8+((cicloVisualizado+i)*9))); 
075B2:  BCF    FD8.0
075B4:  MOVLB  3
075B6:  RLCF   x4A,W
075B8:  CLRF   03
075BA:  ADDLW  D2
075BC:  MOVWF  01
075BE:  MOVLW  03
075C0:  ADDWFC 03,F
075C2:  MOVFF  01,708
075C6:  MOVLB  7
075C8:  MOVFF  03,709
075CC:  CLRF   x1F
075CE:  MOVFF  354,71E
075D2:  MOVLW  01
075D4:  MOVWF  x21
075D6:  MOVLW  40
075D8:  MOVWF  x20
075DA:  MOVLB  0
075DC:  CALL   2494
075E0:  MOVFF  02,70B
075E4:  MOVFF  01,70A
075E8:  MOVLW  07
075EA:  MOVLB  7
075EC:  ADDWF  x0A,F
075EE:  MOVLW  00
075F0:  ADDWFC x0B,F
075F2:  MOVLB  3
075F4:  MOVF   x4A,W
075F6:  ADDWF  x55,W
075F8:  MULLW  09
075FA:  MOVF   FF3,W
075FC:  MOVLB  7
075FE:  ADDWF  x0A,F
07600:  MOVLW  00
07602:  ADDWFC x0B,F
07604:  MOVFF  70B,70E
07608:  MOVFF  70A,70D
0760C:  MOVLB  0
0760E:  CALL   2598
07612:  MOVFF  01,70A
07616:  MOVLB  7
07618:  CLRF   x1F
0761A:  MOVFF  354,71E
0761E:  MOVLW  01
07620:  MOVWF  x21
07622:  MOVLW  40
07624:  MOVWF  x20
07626:  MOVLB  0
07628:  CALL   2494
0762C:  MOVFF  02,70C
07630:  MOVFF  01,70B
07634:  MOVLW  08
07636:  MOVLB  7
07638:  ADDWF  x0B,F
0763A:  MOVLW  00
0763C:  ADDWFC x0C,F
0763E:  MOVLB  3
07640:  MOVF   x4A,W
07642:  ADDWF  x55,W
07644:  MULLW  09
07646:  MOVF   FF3,W
07648:  MOVLB  7
0764A:  ADDWF  x0B,F
0764C:  MOVLW  00
0764E:  ADDWFC x0C,F
07650:  MOVFF  70C,70E
07654:  MOVFF  70B,70D
07658:  MOVLB  0
0765A:  CALL   2598
0765E:  MOVFF  709,FEA
07662:  MOVFF  708,FE9
07666:  MOVFF  70A,FEC
0766A:  MOVF   FED,F
0766C:  MOVFF  01,FEF
....................             if(PcCiclos[i]>400) 
07670:  BCF    FD8.0
07672:  MOVLB  3
07674:  RLCF   x4A,W
07676:  CLRF   03
07678:  ADDLW  D2
0767A:  MOVWF  FE9
0767C:  MOVLW  03
0767E:  ADDWFC 03,W
07680:  MOVWF  FEA
07682:  MOVFF  FEC,709
07686:  MOVF   FED,F
07688:  MOVFF  FEF,708
0768C:  MOVLB  7
0768E:  MOVF   x09,W
07690:  SUBLW  00
07692:  BC    76B8
07694:  XORLW  FF
07696:  BNZ   769E
07698:  MOVF   x08,W
0769A:  SUBLW  90
0769C:  BC    76B8
....................                PcCiclos[i]=0; 
0769E:  BCF    FD8.0
076A0:  MOVLB  3
076A2:  RLCF   x4A,W
076A4:  CLRF   03
076A6:  ADDLW  D2
076A8:  MOVWF  FE9
076AA:  MOVLW  03
076AC:  ADDWFC 03,W
076AE:  MOVWF  FEA
076B0:  CLRF   FEC
076B2:  MOVF   FED,F
076B4:  CLRF   FEF
076B6:  MOVLB  7
....................             PpcCiclos[i]=make16(read_ext_eeprom((cicloVisto*320)+9+((cicloVisualizado+i)*9)),read_ext_eeprom((cicloVisto*320)+10+((cicloVisualizado+i)*9))); 
076B8:  BCF    FD8.0
076BA:  MOVLB  3
076BC:  RLCF   x4A,W
076BE:  CLRF   03
076C0:  ADDLW  E0
076C2:  MOVWF  01
076C4:  MOVLW  03
076C6:  ADDWFC 03,F
076C8:  MOVFF  01,708
076CC:  MOVLB  7
076CE:  MOVFF  03,709
076D2:  CLRF   x1F
076D4:  MOVFF  354,71E
076D8:  MOVLW  01
076DA:  MOVWF  x21
076DC:  MOVLW  40
076DE:  MOVWF  x20
076E0:  MOVLB  0
076E2:  CALL   2494
076E6:  MOVFF  02,70B
076EA:  MOVFF  01,70A
076EE:  MOVLW  09
076F0:  MOVLB  7
076F2:  ADDWF  x0A,F
076F4:  MOVLW  00
076F6:  ADDWFC x0B,F
076F8:  MOVLB  3
076FA:  MOVF   x4A,W
076FC:  ADDWF  x55,W
076FE:  MULLW  09
07700:  MOVF   FF3,W
07702:  MOVLB  7
07704:  ADDWF  x0A,F
07706:  MOVLW  00
07708:  ADDWFC x0B,F
0770A:  MOVFF  70B,70E
0770E:  MOVFF  70A,70D
07712:  MOVLB  0
07714:  CALL   2598
07718:  MOVFF  01,70A
0771C:  MOVLB  7
0771E:  CLRF   x1F
07720:  MOVFF  354,71E
07724:  MOVLW  01
07726:  MOVWF  x21
07728:  MOVLW  40
0772A:  MOVWF  x20
0772C:  MOVLB  0
0772E:  CALL   2494
07732:  MOVFF  02,70C
07736:  MOVFF  01,70B
0773A:  MOVLW  0A
0773C:  MOVLB  7
0773E:  ADDWF  x0B,F
07740:  MOVLW  00
07742:  ADDWFC x0C,F
07744:  MOVLB  3
07746:  MOVF   x4A,W
07748:  ADDWF  x55,W
0774A:  MULLW  09
0774C:  MOVF   FF3,W
0774E:  MOVLB  7
07750:  ADDWF  x0B,F
07752:  MOVLW  00
07754:  ADDWFC x0C,F
07756:  MOVFF  70C,70E
0775A:  MOVFF  70B,70D
0775E:  MOVLB  0
07760:  CALL   2598
07764:  MOVFF  709,FEA
07768:  MOVFF  708,FE9
0776C:  MOVFF  70A,FEC
07770:  MOVF   FED,F
07772:  MOVFF  01,FEF
....................             if(PpcCiclos[i]>400) 
07776:  BCF    FD8.0
07778:  MOVLB  3
0777A:  RLCF   x4A,W
0777C:  CLRF   03
0777E:  ADDLW  E0
07780:  MOVWF  FE9
07782:  MOVLW  03
07784:  ADDWFC 03,W
07786:  MOVWF  FEA
07788:  MOVFF  FEC,709
0778C:  MOVF   FED,F
0778E:  MOVFF  FEF,708
07792:  MOVLB  7
07794:  MOVF   x09,W
07796:  SUBLW  00
07798:  BC    77BE
0779A:  XORLW  FF
0779C:  BNZ   77A4
0779E:  MOVF   x08,W
077A0:  SUBLW  90
077A2:  BC    77BE
....................                PpcCiclos[i]=0; 
077A4:  BCF    FD8.0
077A6:  MOVLB  3
077A8:  RLCF   x4A,W
077AA:  CLRF   03
077AC:  ADDLW  E0
077AE:  MOVWF  FE9
077B0:  MOVLW  03
077B2:  ADDWFC 03,W
077B4:  MOVWF  FEA
077B6:  CLRF   FEC
077B8:  MOVF   FED,F
077BA:  CLRF   FEF
077BC:  MOVLB  7
....................             ACiclos[i]=read_ext_eeprom((cicloVisto*320)+13+((cicloVisualizado+i)*9)); 
077BE:  CLRF   03
077C0:  MOVLB  3
077C2:  MOVF   x4A,W
077C4:  ADDLW  FC
077C6:  MOVWF  01
077C8:  MOVLW  03
077CA:  ADDWFC 03,F
077CC:  MOVFF  01,708
077D0:  MOVLB  7
077D2:  MOVFF  03,709
077D6:  CLRF   x1F
077D8:  MOVFF  354,71E
077DC:  MOVLW  01
077DE:  MOVWF  x21
077E0:  MOVLW  40
077E2:  MOVWF  x20
077E4:  MOVLB  0
077E6:  CALL   2494
077EA:  MOVFF  02,70B
077EE:  MOVFF  01,70A
077F2:  MOVLW  0D
077F4:  MOVLB  7
077F6:  ADDWF  x0A,F
077F8:  MOVLW  00
077FA:  ADDWFC x0B,F
077FC:  MOVLB  3
077FE:  MOVF   x4A,W
07800:  ADDWF  x55,W
07802:  MULLW  09
07804:  MOVF   FF3,W
07806:  MOVLB  7
07808:  ADDWF  x0A,F
0780A:  MOVLW  00
0780C:  ADDWFC x0B,F
0780E:  MOVFF  70B,70E
07812:  MOVFF  70A,70D
07816:  MOVLB  0
07818:  CALL   2598
0781C:  MOVFF  709,FEA
07820:  MOVFF  708,FE9
07824:  MOVFF  01,FEF
....................             if(ACiclos[i]>30) 
07828:  CLRF   03
0782A:  MOVLB  3
0782C:  MOVF   x4A,W
0782E:  ADDLW  FC
07830:  MOVWF  FE9
07832:  MOVLW  03
07834:  ADDWFC 03,W
07836:  MOVWF  FEA
07838:  MOVF   FEF,W
0783A:  SUBLW  1E
0783C:  BC    784E
....................                ACiclos[i]=0; 
0783E:  CLRF   03
07840:  MOVF   x4A,W
07842:  ADDLW  FC
07844:  MOVWF  FE9
07846:  MOVLW  03
07848:  ADDWFC 03,W
0784A:  MOVWF  FEA
0784C:  CLRF   FEF
....................          } 
0784E:  INCF   x4A,F
07850:  BRA    7302
.................... } 
07852:  MOVLB  0
07854:  RETLW  00
....................  
.................... void monitoreaNivelAlto(){ 
....................    if(LRES){ 
*
08FCA:  BSF    F93.7
08FCC:  BTFSC  F81.7
08FCE:  BRA    9014
....................       printf("Funcionamiento.t4f.txt=\" Ninguna\""); 
08FD0:  MOVLW  A8
08FD2:  MOVWF  FF6
08FD4:  MOVLW  03
08FD6:  MOVWF  FF7
08FD8:  MOVLW  00
08FDA:  MOVWF  FF8
08FDC:  CALL   4538
....................       SendDataDisplay(); 
08FE0:  CALL   456A
....................       if(HIG){ 
08FE4:  BTFSS  xA5.6
08FE6:  BRA    9004
....................          SensadoNivel=ON; 
08FE8:  BSF    xA0.5
....................          if(TiempoSensadoNivel>=3){ 
08FEA:  MOVF   xAC,F
08FEC:  BNZ   8FF4
08FEE:  MOVF   xAB,W
08FF0:  SUBLW  02
08FF2:  BC    9002
....................             SensadoNivel=OFF; 
08FF4:  BCF    xA0.5
....................             CalderinLleno=ON; 
08FF6:  BSF    xA0.1
....................             IniciaLlenado=OFF;                   
08FF8:  BCF    xA0.0
....................             Agua_off; 
08FFA:  BSF    F8C.3
08FFC:  BCF    F95.3
....................             //EV8_off; 
....................             apagaBombaAgua(); 
08FFE:  CALL   5C3E
....................          } 
....................      }else{ 
09002:  BRA    9012
....................         SensadoNivel=OFF; 
09004:  BCF    xA0.5
....................         TiempoSensadoNivel=0; 
09006:  CLRF   xAC
09008:  CLRF   xAB
....................         Agua_on; 
0900A:  BCF    F8C.3
0900C:  BCF    F95.3
....................         //EV8_on; 
....................         enciendeBombaAgua(); 
0900E:  CALL   5C50
....................      }   
....................   }else{ 
09012:  BRA    9030
....................       printf("Funcionamiento.t4f.txt=\" Reservorio Vacio\""); 
09014:  MOVLW  CA
09016:  MOVWF  FF6
09018:  MOVLW  03
0901A:  MOVWF  FF7
0901C:  MOVLW  00
0901E:  MOVWF  FF8
09020:  CALL   4538
....................       SendDataDisplay(); 
09024:  CALL   456A
....................       Agua_off; 
09028:  BSF    F8C.3
0902A:  BCF    F95.3
....................       //EV8_off; 
....................       apagaBombaAgua(); 
0902C:  CALL   5C3E
....................   } 
.................... } 
09030:  RETLW  00
....................  
.................... void borraVariables(){ 
....................    guardaCiclo=OFF; 
*
0905A:  BCF    xA3.6
....................    CalderinLleno=OFF; 
0905C:  BCF    xA0.1
....................    Ciclo=OFF; 
0905E:  BCF    xA1.5
....................    flag_pulso=0; 
09060:  BCF    xA4.5
....................    codigoAlarma=0; 
09062:  MOVLB  3
09064:  CLRF   x33
....................    Controlando=0; 
09066:  CLRF   x3F
....................    EstadoBuzzer=OFF; 
09068:  MOVLB  0
0906A:  BCF    xA2.4
....................    Precalentamiento=OFF; 
0906C:  BCF    xA3.7
....................    IniciaVacio=OFF; 
0906E:  BCF    xA4.0
....................    IniciaVacio2=OFF; 
09070:  BCF    xA4.1
....................    Vacio=OFF; 
09072:  BCF    xA4.2
....................    flag_vac=OFF; 
09074:  BCF    xA4.3
....................    PulsoPositivo=10; 
09076:  MOVLW  0A
09078:  MOVLB  3
0907A:  MOVWF  x81
....................    PulsosVacio=0; 
0907C:  CLRF   x82
....................    tvacio=0; 
0907E:  CLRF   x70
09080:  CLRF   x6F
....................    Esterilizando=OFF; 
09082:  MOVLB  0
09084:  BCF    xA0.3
....................    Desfogando=OFF; 
09086:  BCF    xA0.6
....................    mEst=0; 
09088:  CLRF   xBC
....................    sEst=0; 
0908A:  CLRF   xBB
....................    Secando=OFF; 
0908C:  BCF    xA0.4
....................    DesfogueSuave=OFF; 
0908E:  BCF    xA0.7
....................    Secando=OFF; 
09090:  BCF    xA0.4
....................    mSec=0; 
09092:  CLRF   xBE
....................    sSec=0; 
09094:  CLRF   xBD
....................    Control=0; 
09096:  MOVLB  3
09098:  CLRF   x3D
....................    Finalizo=OFF; 
0909A:  MOVLB  0
0909C:  BCF    xA3.0
....................    AlarmaLlenado=OFF; 
0909E:  BCF    x9F.2
....................    AlarmaSobreTemperatura=OFF; 
090A0:  BCF    x9F.1
....................    AlarmaTiempoProlongado=OFF; 
090A2:  BCF    x9F.0
....................    AlarmaPresion=OFF; 
090A4:  BCF    xA3.1
....................    AlarmaEmergencia=OFF; 
090A6:  BCF    x9F.5
....................    AlarmaVacio=OFF; 
090A8:  BCF    x9F.7
....................    AlarmaBomba=OFF; 
090AA:  BCF    x9F.6
....................    AlarmaTermostato=OFF; 
090AC:  BCF    x9F.3
....................    TiempoLlenado=0; 
090AE:  CLRF   xAA
090B0:  CLRF   xA9
....................    TiempoCiclo=0;       
090B2:  CLRF   xA8
090B4:  CLRF   xA7
....................    tBomba=0; 
090B6:  MOVLB  3
090B8:  CLRF   x6E
090BA:  CLRF   x6D
....................    tvacio=0; 
090BC:  CLRF   x70
090BE:  CLRF   x6F
....................    IniciaCiclo=OFF; 
090C0:  MOVLB  0
090C2:  BCF    xA0.2
....................    flagImprimir=0; 
090C4:  MOVLB  3
090C6:  BCF    x3C.5
....................    flagImprime=0; 
090C8:  BCF    x3C.4
....................    tiempoImpresion=0; 
090CA:  CLRF   x53
....................    ConteoBuzzer=0; 
090CC:  CLRF   x7F
....................    tbuzzer=0; 
090CE:  CLRF   x84
090D0:  CLRF   x83
....................    EstadoAgua2=OFF; 
090D2:  MOVLB  0
090D4:  BCF    xA5.2
....................    entro=OFF; 
090D6:  BCF    xA5.4
.................... } 
090D8:  GOTO   16676 (RETURN)
....................  
.................... void monitoreaAgua(){  
....................    if(!guardaCiclo && CalderinLleno){ 
*
05C80:  BTFSC  xA3.6
05C82:  BRA    5C92
05C84:  BTFSS  xA0.1
05C86:  BRA    5C92
....................       ControlaPresion(); 
05C88:  RCALL  5B82
....................       Agua_off; 
05C8A:  BSF    F8C.3
05C8C:  BCF    F95.3
....................       apagaBombaAgua(); 
05C8E:  RCALL  5C3E
....................    }else if(!guardaCiclo && !CalderinLleno){ 
05C90:  BRA    5CAE
05C92:  BTFSC  xA3.6
05C94:  BRA    5CAE
05C96:  BTFSC  xA0.1
05C98:  BRA    5CAE
....................       if(LRES){ 
05C9A:  BSF    F93.7
05C9C:  BTFSC  F81.7
05C9E:  BRA    5CA8
....................          Agua_on; 
05CA0:  BCF    F8C.3
05CA2:  BCF    F95.3
....................          enciendeBombaAgua(); 
05CA4:  RCALL  5C50
....................       }else{ 
05CA6:  BRA    5CAE
....................          Agua_off; 
05CA8:  BSF    F8C.3
05CAA:  BCF    F95.3
....................          apagaBombaAgua(); 
05CAC:  RCALL  5C3E
....................       } 
....................    } 
....................     
....................    if(!LOW){//Si no sensa agua en el nivel alto y no se ha llenado el calderin          
05CAE:  BTFSC  xA5.5
05CB0:  BRA    5CBC
....................       SensadoNivelL=ON;  
05CB2:  BSF    xA5.7
....................       Controlando=0;    
05CB4:  MOVLB  3
05CB6:  CLRF   x3F
....................    }else{ 
05CB8:  BRA    5CCA
05CBA:  MOVLB  0
....................       NivelBajo=ON; 
05CBC:  BSF    xA6.0
....................       tNivelBajo=0; 
05CBE:  MOVLB  3
05CC0:  CLRF   x39
05CC2:  CLRF   x38
....................       SensadoNivelL=OFF; 
05CC4:  MOVLB  0
05CC6:  BCF    xA5.7
05CC8:  MOVLB  3
....................    } 
....................    
....................    if(tNivelBajo>3){ 
05CCA:  MOVF   x39,F
05CCC:  BNZ   5CD4
05CCE:  MOVF   x38,W
05CD0:  SUBLW  03
05CD2:  BC    5CE6
....................       SensadoNivelL=OFF; 
05CD4:  MOVLB  0
05CD6:  BCF    xA5.7
....................       NivelBajo=OFF; 
05CD8:  BCF    xA6.0
....................       TiempoSensadoNivel=0; 
05CDA:  CLRF   xAC
05CDC:  CLRF   xAB
....................       SensadoNivel=OFF; 
05CDE:  BCF    xA0.5
....................       if(!Esterilizando) 
05CE0:  BTFSC  xA0.3
05CE2:  BRA    5CE6
....................          CalderinLleno=OFF; 
05CE4:  BCF    xA0.1
....................    } 
....................    
....................    if(NivelBajo){ 
05CE6:  MOVLB  0
05CE8:  BTFSS  xA6.0
05CEA:  BRA    5D0A
....................       if(HIG){ 
05CEC:  BTFSS  xA5.6
05CEE:  BRA    5D04
....................          SensadoNivel=ON; 
05CF0:  BSF    xA0.5
....................          if(TiempoSensadoNivel>=3){ 
05CF2:  MOVF   xAC,F
05CF4:  BNZ   5CFC
05CF6:  MOVF   xAB,W
05CF8:  SUBLW  02
05CFA:  BC    5D02
....................             SensadoNivel=OFF; 
05CFC:  BCF    xA0.5
....................             CalderinLleno=ON; 
05CFE:  BSF    xA0.1
....................             IniciaLlenado=OFF;                   
05D00:  BCF    xA0.0
....................          } 
....................       }else{ 
05D02:  BRA    5D0A
....................          SensadoNivel=OFF; 
05D04:  BCF    xA0.5
....................          TiempoSensadoNivel=0; 
05D06:  CLRF   xAC
05D08:  CLRF   xAB
....................       } 
....................    }   
.................... } 
05D0A:  GOTO   10C1A (RETURN)
....................  
.................... void revisePresion(){ 
....................    if(DOOR){ 
*
06452:  BSF    F93.6
06454:  BTFSC  F81.6
06456:  BRA    67EA
....................          if(PresionCamara>=Atmosferica+22){ 
06458:  MOVLW  16
0645A:  MOVLB  3
0645C:  ADDWF  x3A,W
0645E:  MOVWF  01
06460:  MOVLW  00
06462:  ADDWFC x3B,W
06464:  MOVWF  03
06466:  MOVF   03,W
06468:  SUBWF  x66,W
0646A:  BTFSS  FD8.0
0646C:  BRA    6578
0646E:  BNZ   6478
06470:  MOVF   01,W
06472:  SUBWF  x65,W
06474:  BTFSS  FD8.0
06476:  BRA    6578
....................             ActivaAlarma(3); 
06478:  MOVLW  03
0647A:  MOVLB  7
0647C:  MOVWF  x08
0647E:  MOVLB  0
06480:  RCALL  608A
....................             if(flagBuzzer){ 
06482:  BTFSS  xA2.6
06484:  BRA    6560
....................                printf("fecha.txt=\"Pc:%03Ld kPa Pp:%03Lu kPa T:%2.1fC Hora:%02u:%02u:%02u\"",presionManometrica,PresionPrecamara,Temperatura,Hora,Minuto,Segundo); 
06486:  MOVLW  F6
06488:  MOVWF  FF6
0648A:  MOVLW  03
0648C:  MOVWF  FF7
0648E:  MOVLW  00
06490:  MOVWF  FF8
06492:  MOVLW  0E
06494:  MOVLB  7
06496:  MOVWF  x0D
06498:  MOVLB  0
0649A:  RCALL  5D0E
0649C:  MOVLW  0B
0649E:  MOVWF  FE9
064A0:  MOVFF  39F,709
064A4:  MOVFF  39E,708
064A8:  RCALL  5D40
064AA:  MOVLW  09
064AC:  MOVWF  FF6
064AE:  MOVLW  04
064B0:  MOVWF  FF7
064B2:  MOVLW  00
064B4:  MOVWF  FF8
064B6:  MOVLW  08
064B8:  MOVLB  7
064BA:  MOVWF  x0D
064BC:  MOVLB  0
064BE:  RCALL  5D0E
064C0:  MOVLW  0A
064C2:  MOVWF  FE9
064C4:  MOVFF  368,70D
064C8:  MOVFF  367,70C
064CC:  RCALL  63A8
064CE:  MOVLW  16
064D0:  MOVWF  FF6
064D2:  MOVLW  04
064D4:  MOVWF  FF7
064D6:  MOVLW  00
064D8:  MOVWF  FF8
064DA:  MOVLW  07
064DC:  MOVLB  7
064DE:  MOVWF  x0D
064E0:  MOVLB  0
064E2:  RCALL  5D0E
064E4:  MOVLW  01
064E6:  MOVWF  FE9
064E8:  MOVFF  316,710
064EC:  MOVFF  315,70F
064F0:  MOVFF  314,70E
064F4:  MOVFF  313,70D
064F8:  MOVLB  7
064FA:  MOVWF  x11
064FC:  MOVLB  0
064FE:  RCALL  5EE6
06500:  MOVLW  22
06502:  MOVWF  FF6
06504:  MOVLW  04
06506:  MOVWF  FF7
06508:  MOVLW  00
0650A:  MOVWF  FF8
0650C:  MOVLW  08
0650E:  MOVLB  7
06510:  MOVWF  x0D
06512:  MOVLB  0
06514:  CALL   5D0E
06518:  MOVFF  38E,70D
0651C:  MOVLW  01
0651E:  MOVLB  7
06520:  MOVWF  x0E
06522:  MOVLB  0
06524:  RCALL  632A
06526:  MOVLW  3A
06528:  BTFSS  F9E.4
0652A:  BRA    6528
0652C:  MOVWF  FAD
0652E:  MOVFF  38F,70D
06532:  MOVLW  01
06534:  MOVLB  7
06536:  MOVWF  x0E
06538:  MOVLB  0
0653A:  RCALL  632A
0653C:  MOVLW  3A
0653E:  BTFSS  F9E.4
06540:  BRA    653E
06542:  MOVWF  FAD
06544:  MOVFF  390,70D
06548:  MOVLW  01
0654A:  MOVLB  7
0654C:  MOVWF  x0E
0654E:  MOVLB  0
06550:  RCALL  632A
06552:  MOVLW  22
06554:  BTFSS  F9E.4
06556:  BRA    6554
06558:  MOVWF  FAD
....................                SendDataDisplay(); 
0655A:  CALL   456A
....................             }else{ 
0655E:  BRA    6574
....................                printf("fecha.txt=\"!AUTOCLAVE PRESURIZADA, NO ABRA LA PUERTA!\""); 
06560:  MOVLW  3A
06562:  MOVWF  FF6
06564:  MOVLW  04
06566:  MOVWF  FF7
06568:  MOVLW  00
0656A:  MOVWF  FF8
0656C:  CALL   4538
....................                SendDataDisplay(); 
06570:  CALL   456A
....................             } 
....................          }else if(PresionCamara>Atmosferica+3 && PresionCamara<Atmosferica+22){ 
06574:  BRA    67E4
06576:  MOVLB  3
06578:  MOVLW  03
0657A:  ADDWF  x3A,W
0657C:  MOVWF  01
0657E:  MOVLW  00
06580:  ADDWFC x3B,W
06582:  MOVWF  03
06584:  MOVF   03,W
06586:  SUBWF  x66,W
06588:  BTFSS  FD8.0
0658A:  BRA    66BC
0658C:  BNZ   6596
0658E:  MOVF   x65,W
06590:  SUBWF  01,W
06592:  BTFSC  FD8.0
06594:  BRA    66BC
06596:  MOVLW  16
06598:  ADDWF  x3A,W
0659A:  MOVWF  01
0659C:  MOVLW  00
0659E:  ADDWFC x3B,W
065A0:  MOVWF  03
065A2:  MOVF   x66,W
065A4:  SUBWF  03,W
065A6:  BTFSS  FD8.0
065A8:  BRA    66BC
065AA:  BNZ   65B4
065AC:  MOVF   01,W
065AE:  SUBWF  x65,W
065B0:  BTFSC  FD8.0
065B2:  BRA    66BC
....................             ActivaAlarma(3); 
065B4:  MOVLW  03
065B6:  MOVLB  7
065B8:  MOVWF  x08
065BA:  MOVLB  0
065BC:  RCALL  608A
....................             if(flagBuzzer){ 
065BE:  BTFSS  xA2.6
065C0:  BRA    66A4
....................                printf("fecha.txt=\"Pc:%03Ld kPa Pp:%03Lu kPa T:%2.1fC Hora:%02u:%02u:%02u\"",presionManometrica,PresionPrecamara,Temperatura,Hora,Minuto,Segundo); 
065C2:  MOVLW  72
065C4:  MOVWF  FF6
065C6:  MOVLW  04
065C8:  MOVWF  FF7
065CA:  MOVLW  00
065CC:  MOVWF  FF8
065CE:  MOVLW  0E
065D0:  MOVLB  7
065D2:  MOVWF  x0D
065D4:  MOVLB  0
065D6:  CALL   5D0E
065DA:  MOVLW  0B
065DC:  MOVWF  FE9
065DE:  MOVFF  39F,709
065E2:  MOVFF  39E,708
065E6:  CALL   5D40
065EA:  MOVLW  85
065EC:  MOVWF  FF6
065EE:  MOVLW  04
065F0:  MOVWF  FF7
065F2:  MOVLW  00
065F4:  MOVWF  FF8
065F6:  MOVLW  08
065F8:  MOVLB  7
065FA:  MOVWF  x0D
065FC:  MOVLB  0
065FE:  CALL   5D0E
06602:  MOVLW  0A
06604:  MOVWF  FE9
06606:  MOVFF  368,70D
0660A:  MOVFF  367,70C
0660E:  RCALL  63A8
06610:  MOVLW  92
06612:  MOVWF  FF6
06614:  MOVLW  04
06616:  MOVWF  FF7
06618:  MOVLW  00
0661A:  MOVWF  FF8
0661C:  MOVLW  07
0661E:  MOVLB  7
06620:  MOVWF  x0D
06622:  MOVLB  0
06624:  CALL   5D0E
06628:  MOVLW  01
0662A:  MOVWF  FE9
0662C:  MOVFF  316,710
06630:  MOVFF  315,70F
06634:  MOVFF  314,70E
06638:  MOVFF  313,70D
0663C:  MOVLB  7
0663E:  MOVWF  x11
06640:  MOVLB  0
06642:  RCALL  5EE6
06644:  MOVLW  9E
06646:  MOVWF  FF6
06648:  MOVLW  04
0664A:  MOVWF  FF7
0664C:  MOVLW  00
0664E:  MOVWF  FF8
06650:  MOVLW  08
06652:  MOVLB  7
06654:  MOVWF  x0D
06656:  MOVLB  0
06658:  CALL   5D0E
0665C:  MOVFF  38E,70D
06660:  MOVLW  01
06662:  MOVLB  7
06664:  MOVWF  x0E
06666:  MOVLB  0
06668:  RCALL  632A
0666A:  MOVLW  3A
0666C:  BTFSS  F9E.4
0666E:  BRA    666C
06670:  MOVWF  FAD
06672:  MOVFF  38F,70D
06676:  MOVLW  01
06678:  MOVLB  7
0667A:  MOVWF  x0E
0667C:  MOVLB  0
0667E:  RCALL  632A
06680:  MOVLW  3A
06682:  BTFSS  F9E.4
06684:  BRA    6682
06686:  MOVWF  FAD
06688:  MOVFF  390,70D
0668C:  MOVLW  01
0668E:  MOVLB  7
06690:  MOVWF  x0E
06692:  MOVLB  0
06694:  RCALL  632A
06696:  MOVLW  22
06698:  BTFSS  F9E.4
0669A:  BRA    6698
0669C:  MOVWF  FAD
....................                SendDataDisplay(); 
0669E:  CALL   456A
....................             }else{ 
066A2:  BRA    66B8
....................                printf("fecha.txt=\"!AUTOCLAVE PRESURIZADA, ABRA CON PRECAUCION!\""); 
066A4:  MOVLW  B6
066A6:  MOVWF  FF6
066A8:  MOVLW  04
066AA:  MOVWF  FF7
066AC:  MOVLW  00
066AE:  MOVWF  FF8
066B0:  CALL   4538
....................                SendDataDisplay(); 
066B4:  CALL   456A
....................             } 
....................          }else if(PresionCamara<= Atmosferica+3){    
066B8:  BRA    67E4
066BA:  MOVLB  3
066BC:  MOVLW  03
066BE:  ADDWF  x3A,W
066C0:  MOVWF  01
066C2:  MOVLW  00
066C4:  ADDWFC x3B,W
066C6:  MOVWF  03
066C8:  MOVF   x66,W
066CA:  SUBWF  03,W
066CC:  BTFSS  FD8.0
066CE:  BRA    67E6
066D0:  BNZ   66DA
066D2:  MOVF   x65,W
066D4:  SUBWF  01,W
066D6:  BTFSS  FD8.0
066D8:  BRA    67E6
....................             if(LRES){ 
066DA:  BSF    F93.7
066DC:  BTFSC  F81.7
066DE:  BRA    67CA
....................                printf("fecha.txt=\"Pc:%03Ld kPa Pp:%03Lu kPa T:%2.1fC Hora:%02u:%02u:%02u\"",presionManometrica,PresionPrecamara,Temperatura,Hora,Minuto,Segundo); 
066E0:  MOVLW  F0
066E2:  MOVWF  FF6
066E4:  MOVLW  04
066E6:  MOVWF  FF7
066E8:  MOVLW  00
066EA:  MOVWF  FF8
066EC:  MOVLW  0E
066EE:  MOVLB  7
066F0:  MOVWF  x0D
066F2:  MOVLB  0
066F4:  CALL   5D0E
066F8:  MOVLW  0B
066FA:  MOVWF  FE9
066FC:  MOVFF  39F,709
06700:  MOVFF  39E,708
06704:  CALL   5D40
06708:  MOVLW  03
0670A:  MOVWF  FF6
0670C:  MOVLW  05
0670E:  MOVWF  FF7
06710:  MOVLW  00
06712:  MOVWF  FF8
06714:  MOVLW  08
06716:  MOVLB  7
06718:  MOVWF  x0D
0671A:  MOVLB  0
0671C:  CALL   5D0E
06720:  MOVLW  0A
06722:  MOVWF  FE9
06724:  MOVFF  368,70D
06728:  MOVFF  367,70C
0672C:  RCALL  63A8
0672E:  MOVLW  10
06730:  MOVWF  FF6
06732:  MOVLW  05
06734:  MOVWF  FF7
06736:  MOVLW  00
06738:  MOVWF  FF8
0673A:  MOVLW  07
0673C:  MOVLB  7
0673E:  MOVWF  x0D
06740:  MOVLB  0
06742:  CALL   5D0E
06746:  MOVLW  01
06748:  MOVWF  FE9
0674A:  MOVFF  316,710
0674E:  MOVFF  315,70F
06752:  MOVFF  314,70E
06756:  MOVFF  313,70D
0675A:  MOVLB  7
0675C:  MOVWF  x11
0675E:  MOVLB  0
06760:  CALL   5EE6
06764:  MOVLW  1C
06766:  MOVWF  FF6
06768:  MOVLW  05
0676A:  MOVWF  FF7
0676C:  MOVLW  00
0676E:  MOVWF  FF8
06770:  MOVLW  08
06772:  MOVLB  7
06774:  MOVWF  x0D
06776:  MOVLB  0
06778:  CALL   5D0E
0677C:  MOVFF  38E,70D
06780:  MOVLW  01
06782:  MOVLB  7
06784:  MOVWF  x0E
06786:  MOVLB  0
06788:  RCALL  632A
0678A:  MOVLW  3A
0678C:  BTFSS  F9E.4
0678E:  BRA    678C
06790:  MOVWF  FAD
06792:  MOVFF  38F,70D
06796:  MOVLW  01
06798:  MOVLB  7
0679A:  MOVWF  x0E
0679C:  MOVLB  0
0679E:  RCALL  632A
067A0:  MOVLW  3A
067A2:  BTFSS  F9E.4
067A4:  BRA    67A2
067A6:  MOVWF  FAD
067A8:  MOVFF  390,70D
067AC:  MOVLW  01
067AE:  MOVLB  7
067B0:  MOVWF  x0E
067B2:  MOVLB  0
067B4:  RCALL  632A
067B6:  MOVLW  22
067B8:  BTFSS  F9E.4
067BA:  BRA    67B8
067BC:  MOVWF  FAD
....................                SendDataDisplay(); 
067BE:  CALL   456A
....................                Buzzer_off; 
067C2:  BCF    F8C.7
067C4:  BCF    F95.7
....................             }else{ 
067C6:  BRA    67E4
067C8:  MOVLB  3
....................                printf("fecha.txt=\"!Aplique agua en el reservorio!\""); 
067CA:  MOVLW  34
067CC:  MOVWF  FF6
067CE:  MOVLW  05
067D0:  MOVWF  FF7
067D2:  MOVLW  00
067D4:  MOVWF  FF8
067D6:  MOVLB  0
067D8:  CALL   4538
....................                SendDataDisplay(); 
067DC:  CALL   456A
....................                Buzzer_off; 
067E0:  BCF    F8C.7
067E2:  BCF    F95.7
067E4:  MOVLB  3
....................             } 
....................          } 
....................       }else{ 
067E6:  BRA    68F2
067E8:  MOVLB  0
....................          if(LRES){ 
067EA:  BSF    F93.7
067EC:  BTFSC  F81.7
067EE:  BRA    68D8
....................             printf("fecha.txt=\"Pc:%03Ld kPa Pp:%03Lu kPa T:%2.1fC Hora:%02u:%02u:%02u\"",presionManometrica,PresionPrecamara,Temperatura,Hora,Minuto,Segundo); 
067F0:  MOVLW  60
067F2:  MOVWF  FF6
067F4:  MOVLW  05
067F6:  MOVWF  FF7
067F8:  MOVLW  00
067FA:  MOVWF  FF8
067FC:  MOVLW  0E
067FE:  MOVLB  7
06800:  MOVWF  x0D
06802:  MOVLB  0
06804:  CALL   5D0E
06808:  MOVLW  0B
0680A:  MOVWF  FE9
0680C:  MOVFF  39F,709
06810:  MOVFF  39E,708
06814:  CALL   5D40
06818:  MOVLW  73
0681A:  MOVWF  FF6
0681C:  MOVLW  05
0681E:  MOVWF  FF7
06820:  MOVLW  00
06822:  MOVWF  FF8
06824:  MOVLW  08
06826:  MOVLB  7
06828:  MOVWF  x0D
0682A:  MOVLB  0
0682C:  CALL   5D0E
06830:  MOVLW  0A
06832:  MOVWF  FE9
06834:  MOVFF  368,70D
06838:  MOVFF  367,70C
0683C:  RCALL  63A8
0683E:  MOVLW  80
06840:  MOVWF  FF6
06842:  MOVLW  05
06844:  MOVWF  FF7
06846:  MOVLW  00
06848:  MOVWF  FF8
0684A:  MOVLW  07
0684C:  MOVLB  7
0684E:  MOVWF  x0D
06850:  MOVLB  0
06852:  CALL   5D0E
06856:  MOVLW  01
06858:  MOVWF  FE9
0685A:  MOVFF  316,710
0685E:  MOVFF  315,70F
06862:  MOVFF  314,70E
06866:  MOVFF  313,70D
0686A:  MOVLB  7
0686C:  MOVWF  x11
0686E:  MOVLB  0
06870:  CALL   5EE6
06874:  MOVLW  8C
06876:  MOVWF  FF6
06878:  MOVLW  05
0687A:  MOVWF  FF7
0687C:  MOVLW  00
0687E:  MOVWF  FF8
06880:  MOVLW  08
06882:  MOVLB  7
06884:  MOVWF  x0D
06886:  MOVLB  0
06888:  CALL   5D0E
0688C:  MOVFF  38E,70D
06890:  MOVLW  01
06892:  MOVLB  7
06894:  MOVWF  x0E
06896:  MOVLB  0
06898:  RCALL  632A
0689A:  MOVLW  3A
0689C:  BTFSS  F9E.4
0689E:  BRA    689C
068A0:  MOVWF  FAD
068A2:  MOVFF  38F,70D
068A6:  MOVLW  01
068A8:  MOVLB  7
068AA:  MOVWF  x0E
068AC:  MOVLB  0
068AE:  RCALL  632A
068B0:  MOVLW  3A
068B2:  BTFSS  F9E.4
068B4:  BRA    68B2
068B6:  MOVWF  FAD
068B8:  MOVFF  390,70D
068BC:  MOVLW  01
068BE:  MOVLB  7
068C0:  MOVWF  x0E
068C2:  MOVLB  0
068C4:  RCALL  632A
068C6:  MOVLW  22
068C8:  BTFSS  F9E.4
068CA:  BRA    68C8
068CC:  MOVWF  FAD
....................             SendDataDisplay(); 
068CE:  CALL   456A
....................             Buzzer_off; 
068D2:  BCF    F8C.7
068D4:  BCF    F95.7
....................          }else{ 
068D6:  BRA    68F0
....................             printf("fecha.txt=\"!Aplique agua en el reservorio!\""); 
068D8:  MOVLW  A4
068DA:  MOVWF  FF6
068DC:  MOVLW  05
068DE:  MOVWF  FF7
068E0:  MOVLW  00
068E2:  MOVWF  FF8
068E4:  CALL   4538
....................             SendDataDisplay(); 
068E8:  CALL   456A
....................             Buzzer_off; 
068EC:  BCF    F8C.7
068EE:  BCF    F95.7
068F0:  MOVLB  3
....................          } 
....................       } 
.................... } 
068F2:  MOVLB  0
068F4:  RETLW  00
....................  
.................... void ConfiguraCiclo(int8 segest,minest,segsec,minsec,liquidos,ciclo,temperatura,pulsos,nvacio,fug){ 
....................    sEstp=segest; 
*
06EE8:  MOVFF  710,BF
....................    mEstp=minest; 
06EEC:  MOVFF  711,C0
....................    sSecp=segsec; 
06EF0:  MOVFF  712,C1
....................    mSecp=minsec; 
06EF4:  MOVFF  713,C2
....................    Setpoint=temperatura;                
06EF8:  MOVFF  716,34E
....................    tiempo_secado=0; 
06EFC:  MOVLB  3
06EFE:  CLRF   x52
....................    desfoguelento=liquidos; 
06F00:  MOVLB  0
06F02:  BCF    xA6.7
06F04:  MOVLB  7
06F06:  BTFSS  x14.0
06F08:  BRA    6F10
06F0A:  MOVLB  0
06F0C:  BSF    xA6.7
06F0E:  MOVLB  7
....................    CicloSeleccionado=ciclo; 
06F10:  MOVFF  715,34D
....................    sEst=sEstp; 
06F14:  MOVFF  BF,BB
....................    mEst=mEstp; 
06F18:  MOVFF  C0,BC
....................    sSec=sSecp; 
06F1C:  MOVFF  C1,BD
....................    mSec=mSecp; 
06F20:  MOVFF  C2,BE
....................    CantidadPulsos=pulsos; 
06F24:  MOVFF  717,32F
....................    NivelVacio=nvacio; 
06F28:  MOVFF  718,330
....................    Fugas=fug; 
06F2C:  MOVLB  0
06F2E:  BCF    xA3.4
06F30:  MOVLB  7
06F32:  BTFSS  x19.0
06F34:  BRA    6F3C
06F36:  MOVLB  0
06F38:  BSF    xA3.4
06F3A:  MOVLB  7
....................    if(!borra){ 
06F3C:  MOVLB  0
06F3E:  BTFSC  xA6.4
06F40:  BRA    6F46
....................       borraDatoCiclo(); 
06F42:  BRA    6A48
....................       borra=ON; 
06F44:  BSF    xA6.4
....................    } 
....................    //TiempoVacio=CantidadPulsos*180; 
....................    Imprime=15; 
06F46:  MOVLW  0F
06F48:  MOVLB  3
06F4A:  MOVWF  x99
....................    Envio_Esclavos(); 
06F4C:  MOVLB  0
06F4E:  CALL   58A6
....................    delay_ms(100); 
06F52:  MOVLW  64
06F54:  MOVLB  7
06F56:  MOVWF  x1E
06F58:  MOVLB  0
06F5A:  CALL   2060
....................    Imprime=10; 
06F5E:  MOVLW  0A
06F60:  MOVLB  3
06F62:  MOVWF  x99
....................    //Ganancia=Ganancia*(Setpoint/134); 
.................... } 
06F64:  MOVLB  0
06F66:  RETLW  00
....................  
.................... void purgaAguaTanque(){ 
....................    if(PresionCamara>Atmosferica+30 && !purgo){ 
*
08EBC:  MOVLW  1E
08EBE:  MOVLB  3
08EC0:  ADDWF  x3A,W
08EC2:  MOVWF  01
08EC4:  MOVLW  00
08EC6:  ADDWFC x3B,W
08EC8:  MOVWF  03
08ECA:  MOVF   03,W
08ECC:  SUBWF  x66,W
08ECE:  BNC   8EE8
08ED0:  BNZ   8ED8
08ED2:  MOVF   x65,W
08ED4:  SUBWF  01,W
08ED6:  BC    8EE8
08ED8:  MOVLB  0
08EDA:  BTFSS  xA6.6
08EDC:  BRA    8EE2
08EDE:  MOVLB  3
08EE0:  BRA    8EE8
....................       purgaAgua=ON; 
08EE2:  BSF    xA6.5
....................    }else{ 
08EE4:  BRA    8EF0
08EE6:  MOVLB  3
....................       purgaAgua=OFF; 
08EE8:  MOVLB  0
08EEA:  BCF    xA6.5
....................       Desfogue_off; 
08EEC:  BSF    F8B.1
08EEE:  BCF    F94.1
....................    } 
....................     
....................    if(purgaAgua){ 
08EF0:  BTFSS  xA6.5
08EF2:  BRA    8FC6
....................       if(tPurgaAgua>0 && tPurgaAgua<11){ 
08EF4:  MOVF   xB9,F
08EF6:  BNZ   8EFC
08EF8:  MOVF   xBA,F
08EFA:  BZ    8F0C
08EFC:  MOVF   xBA,F
08EFE:  BNZ   8F0C
08F00:  MOVF   xB9,W
08F02:  SUBLW  0A
08F04:  BNC   8F0C
....................          Desfogue_on; 
08F06:  BCF    F8B.1
08F08:  BCF    F94.1
....................       }else if(tPurgaAgua>=11 && tPurgaAgua<131){ 
08F0A:  BRA    8FC6
08F0C:  MOVF   xBA,F
08F0E:  BNZ   8F16
08F10:  MOVF   xB9,W
08F12:  SUBLW  0A
08F14:  BC    8F26
08F16:  MOVF   xBA,F
08F18:  BNZ   8F26
08F1A:  MOVF   xB9,W
08F1C:  SUBLW  82
08F1E:  BNC   8F26
....................          Desfogue_off; 
08F20:  BSF    F8B.1
08F22:  BCF    F94.1
....................       }else if(tPurgaAgua>=131 && tPurgaAgua<141){ 
08F24:  BRA    8FC6
08F26:  MOVF   xBA,F
08F28:  BNZ   8F30
08F2A:  MOVF   xB9,W
08F2C:  SUBLW  82
08F2E:  BC    8F40
08F30:  MOVF   xBA,F
08F32:  BNZ   8F40
08F34:  MOVF   xB9,W
08F36:  SUBLW  8C
08F38:  BNC   8F40
....................          Desfogue_on; 
08F3A:  BCF    F8B.1
08F3C:  BCF    F94.1
....................       }else if(tPurgaAgua>=141 && tPurgaAgua<201){ 
08F3E:  BRA    8FC6
08F40:  MOVF   xBA,F
08F42:  BNZ   8F4A
08F44:  MOVF   xB9,W
08F46:  SUBLW  8C
08F48:  BC    8F5A
08F4A:  MOVF   xBA,F
08F4C:  BNZ   8F5A
08F4E:  MOVF   xB9,W
08F50:  SUBLW  C8
08F52:  BNC   8F5A
....................          Desfogue_off; 
08F54:  BSF    F8B.1
08F56:  BCF    F94.1
....................       }else if(tPurgaAgua>=201 && tPurgaAgua<211){ 
08F58:  BRA    8FC6
08F5A:  MOVF   xBA,F
08F5C:  BNZ   8F64
08F5E:  MOVF   xB9,W
08F60:  SUBLW  C8
08F62:  BC    8F74
08F64:  MOVF   xBA,F
08F66:  BNZ   8F74
08F68:  MOVF   xB9,W
08F6A:  SUBLW  D2
08F6C:  BNC   8F74
....................          Desfogue_on; 
08F6E:  BCF    F8B.1
08F70:  BCF    F94.1
....................       }else if(tPurgaAgua>=211 && tPurgaAgua<271){ 
08F72:  BRA    8FC6
08F74:  MOVF   xBA,F
08F76:  BNZ   8F7E
08F78:  MOVF   xB9,W
08F7A:  SUBLW  D2
08F7C:  BC    8F92
08F7E:  MOVF   xBA,W
08F80:  SUBLW  01
08F82:  BNC   8F92
08F84:  BNZ   8F8C
08F86:  MOVF   xB9,W
08F88:  SUBLW  0E
08F8A:  BNC   8F92
....................          Desfogue_off; 
08F8C:  BSF    F8B.1
08F8E:  BCF    F94.1
....................       }else if(tPurgaAgua>=271 && tPurgaAgua<281){ 
08F90:  BRA    8FC6
08F92:  MOVF   xBA,W
08F94:  SUBLW  00
08F96:  BC    8FB6
08F98:  XORLW  FF
08F9A:  BNZ   8FA2
08F9C:  MOVF   xB9,W
08F9E:  SUBLW  0E
08FA0:  BC    8FB6
08FA2:  MOVF   xBA,W
08FA4:  SUBLW  01
08FA6:  BNC   8FB6
08FA8:  BNZ   8FB0
08FAA:  MOVF   xB9,W
08FAC:  SUBLW  18
08FAE:  BNC   8FB6
....................          Desfogue_on; 
08FB0:  BCF    F8B.1
08FB2:  BCF    F94.1
....................       }else if(tPurgaAgua>0){ 
08FB4:  BRA    8FC6
08FB6:  MOVF   xB9,F
08FB8:  BNZ   8FBE
08FBA:  MOVF   xBA,F
08FBC:  BZ    8FC6
....................          Desfogue_off; 
08FBE:  BSF    F8B.1
08FC0:  BCF    F94.1
....................          purgaAgua=OFF; 
08FC2:  BCF    xA6.5
....................          purgo=ON; 
08FC4:  BSF    xA6.6
....................       } 
....................    } 
....................  
.................... } 
08FC6:  GOTO   15710 (RETURN)
....................  
....................  
.................... #int_rda HIGH 
.................... void serial_rx_isr(){ 
....................    Dato2=fgetc(); 
*
005D0:  BTFSS  F9E.5
005D2:  BRA    05D0
005D4:  MOVFF  FAE,345
005D8:  MOVLB  3
....................    if(Dato2==0x65){//Inicio Comunicacion 
005DA:  MOVF   x45,W
005DC:  SUBLW  65
005DE:  BNZ   05E6
....................       Inicio=1; 
005E0:  MOVLW  01
005E2:  MOVWF  x43
....................       RX_Wr_Index =0; 
005E4:  CLRF   46
....................    } 
....................    if(Inicio==1){ 
005E6:  DECFSZ x43,W
005E8:  BRA    05FE
....................       Rx_Buffer2[RX_Wr_Index] = Dato2; 
005EA:  CLRF   03
005EC:  MOVF   46,W
005EE:  ADDLW  3B
005F0:  MOVWF  FE9
005F2:  MOVLW  00
005F4:  ADDWFC 03,W
005F6:  MOVWF  FEA
005F8:  MOVFF  345,FEF
....................       RX_Wr_Index++; 
005FC:  INCF   46,F
....................    } 
....................    if(RX_Wr_Index >= RX_BUFFER_SIZE){ 
005FE:  MOVF   46,W
00600:  SUBLW  09
00602:  BC    0608
....................       RX_Wr_Index =0; 
00604:  CLRF   46
....................       Inicio=0; 
00606:  CLRF   x43
....................    } 
....................    if(RX_Wr_Index==0){ 
00608:  MOVF   46,F
0060A:  BNZ   062C
....................       if(Rx_Buffer2[0]==0x65 && Rx_Buffer2[1]==0xff && Rx_Buffer2[2]==0xff && Rx_Buffer2[8]==0x00 && Rx_Buffer2[9]==0xff ) 
0060C:  MOVF   3B,W
0060E:  SUBLW  65
00610:  BNZ   0628
00612:  INCFSZ 3C,W
00614:  BRA    0628
00616:  INCFSZ 3D,W
00618:  BRA    0628
0061A:  MOVF   43,F
0061C:  BNZ   0628
0061E:  INCFSZ 44,W
00620:  BRA    0628
....................          Dato_Exitoso=5; 
00622:  MOVLW  05
00624:  MOVWF  x44
....................       else 
00626:  BRA    062C
....................          Dato_Exitoso=10; 
00628:  MOVLW  0A
0062A:  MOVWF  x44
....................    } 
....................    //if(Menu==20) 
....................      //Buzzer_on; 
.................... } 
....................  
0062C:  BCF    F9E.5
0062E:  MOVLB  0
00630:  GOTO   010A
.................... #int_TIMER0 
.................... void temp0s(void){ 
....................    set_timer0(0); 
00634:  CLRF   FD7
00636:  CLRF   FD6
....................    t_exhaust++; 
00638:  MOVLB  3
0063A:  INCF   x87,F
0063C:  BTFSC  FD8.2
0063E:  INCF   x88,F
....................    if(DesfogueSuave){ 
00640:  MOVLB  0
00642:  BTFSS  xA0.7
00644:  BRA    0686
....................       if(NivelDesfogue<6){ 
00646:  MOVLB  3
00648:  MOVF   x6C,F
0064A:  BNZ   0680
0064C:  MOVF   x6B,W
0064E:  SUBLW  05
00650:  BNC   0680
....................          if(t_exhaust<=NivelSeleccionado){ // Si el tiempo es menor o igual al tiempo de control se enciende la resistencia de lo contrario se apaga. 
00652:  MOVF   x88,W
00654:  SUBWF  x8A,W
00656:  BNC   0666
00658:  BNZ   0660
0065A:  MOVF   x87,W
0065C:  SUBWF  x89,W
0065E:  BNC   0666
....................             Desfogue_on; 
00660:  BCF    F8B.1
00662:  BCF    F94.1
....................          }else{             
00664:  BRA    066A
....................             Desfogue_off; 
00666:  BSF    F8B.1
00668:  BCF    F94.1
....................          }    
....................        
....................          if(t_exhaust>=60000){ // Si el tiempo de control es mayor al tiempo de ciclo se reinicia tiempo de control 
0066A:  MOVF   x88,W
0066C:  SUBLW  E9
0066E:  BC    067E
00670:  XORLW  FF
00672:  BNZ   067A
00674:  MOVF   x87,W
00676:  SUBLW  5F
00678:  BC    067E
....................             t_exhaust=0; 
0067A:  CLRF   x88
0067C:  CLRF   x87
....................          } // tiempoctrl incrementa una unidad cada Xms, por eso se dividen los tiempos por 0.005. 
....................       }else{ 
0067E:  BRA    0684
....................          Desfogue_on; 
00680:  BCF    F8B.1
00682:  BCF    F94.1
00684:  MOVLB  0
....................       } 
....................    }   
.................... } 
....................  
00686:  BCF    FF2.2
00688:  GOTO   0074
.................... #int_TIMER1 
.................... void temp1s(void){ 
....................    set_timer1(40536); // Se repite cada 5ms 
0068C:  MOVLW  9E
0068E:  MOVWF  FCF
00690:  MOVLW  58
00692:  MOVWF  FCE
....................    tiempos++; 
00694:  MOVLB  3
00696:  INCF   x59,F
00698:  BTFSC  FD8.2
0069A:  INCF   x5A,F
....................    tiempos2++; 
0069C:  INCF   x5B,F
0069E:  BTFSC  FD8.2
006A0:  INCF   x5C,F
....................    tiempos3++; 
006A2:  INCF   x5D,F
006A4:  BTFSC  FD8.2
006A6:  INCF   x5E,F
....................    tiempoctrl++; 
006A8:  INCF   x5F,F
006AA:  BTFSC  FD8.2
006AC:  INCF   x60,F
....................     
....................    if(STOP){ 
006AE:  BSF    F93.5
006B0:  BTFSC  F81.5
006B2:  BRA    06C0
....................       tStop++; 
006B4:  MOVLB  0
006B6:  INCF   xB7,F
006B8:  BTFSC  FD8.2
006BA:  INCF   xB8,F
....................    }else{ 
006BC:  BRA    06C6
006BE:  MOVLB  3
....................       tStop=0; 
006C0:  MOVLB  0
006C2:  CLRF   xB8
006C4:  CLRF   xB7
....................    } 
....................     
....................    if(!TERM){ 
006C6:  BSF    F93.4
006C8:  BTFSS  F81.4
006CA:  BRA    06D4
....................       tTermostato++; 
006CC:  INCF   xB5,F
006CE:  BTFSC  FD8.2
006D0:  INCF   xB6,F
....................    }else{ 
006D2:  BRA    06D8
....................       tTermostato=0; 
006D4:  CLRF   xB6
006D6:  CLRF   xB5
....................    } 
....................        
....................    if(flagAlarma) 
006D8:  BTFSS  xA2.5
006DA:  BRA    06E6
....................       tbuzzer++; 
006DC:  MOVLB  3
006DE:  INCF   x83,F
006E0:  BTFSC  FD8.2
006E2:  INCF   x84,F
006E4:  MOVLB  0
....................        
....................    if(flagSilencio)    
006E6:  BTFSS  xA2.7
006E8:  BRA    06F2
....................       tsilencio++; 
006EA:  MOVLB  3
006EC:  INCF   x85,F
006EE:  BTFSC  FD8.2
006F0:  INCF   x86,F
....................     
....................    if(Controlando==1){ 
006F2:  MOVLB  3
006F4:  DECFSZ x3F,W
006F6:  BRA    0734
....................       if(tiempoctrl<Tp) // Si el tiempo es menor o igual al tiempo de control se enciende la resistencia de lo contrario se apaga. 
006F8:  MOVF   x60,W
006FA:  MOVLB  0
006FC:  SUBWF  xAE,W
006FE:  BNC   0718
00700:  BNZ   0712
00702:  MOVF   xAD,W
00704:  MOVLB  3
00706:  SUBWF  x5F,W
00708:  BTFSS  FD8.0
0070A:  BRA    0710
0070C:  MOVLB  0
0070E:  BRA    0718
00710:  MOVLB  0
....................          SSR_on; 
00712:  BSF    F8D.1
00714:  BCF    F96.1
....................       else          
00716:  BRA    071C
....................          SSR_off; 
00718:  BCF    F8D.1
0071A:  BCF    F96.1
....................              
....................       if(tiempoctrl>=Tc) // Si el tiempo de control es mayor al tiempo de ciclo se reinicia tiempo de control 
0071C:  MOVF   xB0,W
0071E:  MOVLB  3
00720:  SUBWF  x60,W
00722:  BNC   0734
00724:  BNZ   0730
00726:  MOVLB  0
00728:  MOVF   xAF,W
0072A:  MOVLB  3
0072C:  SUBWF  x5F,W
0072E:  BNC   0734
....................          tiempoctrl=0;// tiempoctrl incrementa una unidad cada 5ms, por eso se dividen los tiempos por 0.005. 
00730:  CLRF   x60
00732:  CLRF   x5F
....................    } 
....................     
....................    if(tiempos>=200){  // 12000 para que incremente cada minuto, 200para que incremente cada segundo. 
00734:  MOVF   x5A,F
00736:  BNZ   0740
00738:  MOVF   x59,W
0073A:  SUBLW  C7
0073C:  BTFSC  FD8.0
0073E:  BRA    0834
....................       if(flagTC) 
00740:  BTFSS  x3C.3
00742:  BRA    0746
....................          TiempoControl++; 
00744:  INCF   x7D,F
....................        
....................       if(purgaAgua) 
00746:  MOVLB  0
00748:  BTFSS  xA6.5
0074A:  BRA    0752
....................          tPurgaAgua++; 
0074C:  INCF   xB9,F
0074E:  BTFSC  FD8.2
00750:  INCF   xBA,F
....................        
....................       if(flagAlarma) 
00752:  BTFSS  xA2.5
00754:  BRA    0758
....................          flagBuzzer=!flagBuzzer; 
00756:  BTG    xA2.6
....................           
....................       tiemporecta++; 
00758:  MOVLB  3
0075A:  INCF   x3E,F
....................        
....................       if(flagBombaAgua) 
0075C:  MOVLB  0
0075E:  BTFSS  xA6.2
00760:  BRA    0768
....................          tBombaAgua++; 
00762:  INCF   xB1,F
00764:  BTFSC  FD8.2
00766:  INCF   xB2,F
....................        
....................       if(flagBombaAguaOff) 
00768:  BTFSS  xA6.3
0076A:  BRA    0772
....................          tBombaAguaOff++; 
0076C:  INCF   xB3,F
0076E:  BTFSC  FD8.2
00770:  INCF   xB4,F
....................        
....................       if(IniciaCiclo && tiempoImpresion<CalculoImpresion){ 
00772:  BTFSS  xA0.2
00774:  BRA    0788
00776:  MOVLB  3
00778:  MOVF   x42,W
0077A:  SUBWF  x53,W
0077C:  BTFSS  FD8.0
0077E:  BRA    0784
00780:  MOVLB  0
00782:  BRA    0788
....................          tiempoImpresion++; 
00784:  INCF   x53,F
....................       }else if(tiempoImpresion>=CalculoImpresion){ 
00786:  BRA    0794
00788:  MOVLB  3
0078A:  MOVF   x42,W
0078C:  SUBWF  x53,W
0078E:  BNC   0794
....................          flagImprime=1; 
00790:  BSF    x3C.4
....................          tiempoImpresion=0; 
00792:  CLRF   x53
....................       } 
....................        
....................       if(IniciaCiclo && !Esterilizando) 
00794:  MOVLB  0
00796:  BTFSS  xA0.2
00798:  BRA    07A4
0079A:  BTFSC  xA0.3
0079C:  BRA    07A4
....................          TiempoCiclo++; 
0079E:  INCF   xA7,F
007A0:  BTFSC  FD8.2
007A2:  INCF   xA8,F
....................        
....................       if(IniciaLlenado && !CalderinLleno) 
007A4:  BTFSS  xA0.0
007A6:  BRA    07B2
007A8:  BTFSC  xA0.1
007AA:  BRA    07B2
....................          TiempoLlenado++; 
007AC:  INCF   xA9,F
007AE:  BTFSC  FD8.2
007B0:  INCF   xAA,F
....................        
....................       if(SensadoNivel) 
007B2:  BTFSS  xA0.5
007B4:  BRA    07BC
....................          TiempoSensadoNivel++; 
007B6:  INCF   xAB,F
007B8:  BTFSC  FD8.2
007BA:  INCF   xAC,F
....................        
....................       if(SensadoNivelL) 
007BC:  BTFSS  xA5.7
007BE:  BRA    07CA
....................          tNivelBajo++; 
007C0:  MOVLB  3
007C2:  INCF   x38,F
007C4:  BTFSC  FD8.2
007C6:  INCF   x39,F
007C8:  MOVLB  0
....................           
....................       if(IniciaVacio) 
007CA:  BTFSS  xA4.0
007CC:  BRA    07D8
....................          tvacio++;          
007CE:  MOVLB  3
007D0:  INCF   x6F,F
007D2:  BTFSC  FD8.2
007D4:  INCF   x70,F
007D6:  MOVLB  0
....................        
....................       if(IniciaVacio2) 
007D8:  BTFSS  xA4.1
007DA:  BRA    07E6
....................          tbomba++;    
007DC:  MOVLB  3
007DE:  INCF   x6D,F
007E0:  BTFSC  FD8.2
007E2:  INCF   x6E,F
007E4:  MOVLB  0
....................           
....................       if(guardaCiclo) 
007E6:  BTFSS  xA3.6
007E8:  BRA    07F2
....................          tguarda++;     
007EA:  MOVLB  3
007EC:  INCF   x36,F
007EE:  BTFSC  FD8.2
007F0:  INCF   x37,F
....................           
....................       tiempos=0;Lectura=1;tinicio++; 
007F2:  MOVLB  3
007F4:  CLRF   x5A
007F6:  CLRF   x59
007F8:  BSF    x3C.0
007FA:  INCF   x63,F
007FC:  BTFSC  FD8.2
007FE:  INCF   x64,F
....................     
....................       if(Esterilizando && !Desfogando){                
00800:  MOVLB  0
00802:  BTFSS  xA0.3
00804:  BRA    081C
00806:  BTFSC  xA0.6
00808:  BRA    081C
....................          if(sEst>0){ 
0080A:  MOVF   xBB,F
0080C:  BZ    0812
....................             sEst--; 
0080E:  DECF   xBB,F
....................          }else if(mEst>0){ 
00810:  BRA    081C
00812:  MOVF   xBC,F
00814:  BZ    081C
....................             mEst--; 
00816:  DECF   xBC,F
....................             sEst=59; 
00818:  MOVLW  3B
0081A:  MOVWF  xBB
....................          } 
....................       } 
....................       if(Secando){ 
0081C:  BTFSS  xA0.4
0081E:  BRA    0832
....................          if(sSec>0){ 
00820:  MOVF   xBD,F
00822:  BZ    0828
....................             sSec--; 
00824:  DECF   xBD,F
....................          }else if(mSec>0){ 
00826:  BRA    0832
00828:  MOVF   xBE,F
0082A:  BZ    0832
....................             mSec--; 
0082C:  DECF   xBE,F
....................             sSec=59; 
0082E:  MOVLW  3B
00830:  MOVWF  xBD
00832:  MOVLB  3
....................          } 
....................       } 
....................    } 
.................... } 
....................  
00834:  BCF    F9E.0
00836:  MOVLB  0
00838:  GOTO   0074
.................... void main(){ 
*
10000:  CLRF   FF8
10002:  BCF    FF1.2
10004:  BCF    F9F.0
10006:  BSF    F9F.5
10008:  BSF    FD0.7
1000A:  BSF    07.7
1000C:  CLRF   FEA
1000E:  CLRF   FE9
10010:  BSF    FB8.3
10012:  MOVLW  08
10014:  MOVWF  FAF
10016:  MOVLW  02
10018:  MOVWF  FB0
1001A:  MOVLW  A6
1001C:  MOVWF  FAC
1001E:  MOVLW  90
10020:  MOVWF  FAB
10022:  CLRF   46
10024:  CLRF   47
10026:  CLRF   48
10028:  CLRF   x62
1002A:  CLRF   x63
1002C:  CLRF   x84
1002E:  CLRF   x85
10030:  CLRF   x86
10032:  BCF    x9F.0
10034:  BCF    x9F.1
10036:  BCF    x9F.2
10038:  BCF    x9F.3
1003A:  BCF    x9F.4
1003C:  BCF    x9F.5
1003E:  BCF    x9F.6
10040:  BCF    x9F.7
10042:  BCF    xA0.0
10044:  BCF    xA0.1
10046:  BCF    xA0.2
10048:  BCF    xA0.3
1004A:  BCF    xA0.4
1004C:  BCF    xA0.5
1004E:  BCF    xA0.6
10050:  BCF    xA0.7
10052:  BCF    xA1.0
10054:  BCF    xA1.1
10056:  BCF    xA1.2
10058:  BCF    xA1.3
1005A:  BCF    xA1.4
1005C:  BCF    xA1.5
1005E:  BCF    xA1.6
10060:  BCF    xA1.7
10062:  BCF    xA2.0
10064:  BCF    xA2.1
10066:  BCF    xA2.2
10068:  BCF    xA2.3
1006A:  BCF    xA2.4
1006C:  BCF    xA2.5
1006E:  BCF    xA2.6
10070:  BCF    xA2.7
10072:  BCF    xA3.0
10074:  BCF    xA3.1
10076:  BCF    xA3.2
10078:  BCF    xA3.3
1007A:  BCF    xA3.4
1007C:  BCF    xA3.5
1007E:  BCF    xA3.6
10080:  BCF    xA3.7
10082:  BCF    xA4.0
10084:  BCF    xA4.1
10086:  BCF    xA4.2
10088:  BCF    xA4.3
1008A:  BCF    xA4.4
1008C:  BCF    xA4.5
1008E:  BCF    xA4.6
10090:  BCF    xA4.7
10092:  BCF    xA5.0
10094:  BCF    xA5.1
10096:  BCF    xA5.2
10098:  BCF    xA5.3
1009A:  BCF    xA5.4
1009C:  BCF    xA5.5
1009E:  BCF    xA5.6
100A0:  BCF    xA5.7
100A2:  BCF    xA6.0
100A4:  BCF    xA6.1
100A6:  BCF    xA6.2
100A8:  BCF    xA6.3
100AA:  BCF    xA6.4
100AC:  BCF    xA6.5
100AE:  BCF    xA6.6
100B0:  CLRF   xA8
100B2:  CLRF   xA7
100B4:  CLRF   xAA
100B6:  CLRF   xA9
100B8:  CLRF   xAC
100BA:  CLRF   xAB
100BC:  CLRF   xAE
100BE:  CLRF   xAD
100C0:  CLRF   xB0
100C2:  CLRF   xAF
100C4:  CLRF   xB2
100C6:  CLRF   xB1
100C8:  CLRF   xB4
100CA:  CLRF   xB3
100CC:  CLRF   xB6
100CE:  CLRF   xB5
100D0:  CLRF   xB8
100D2:  CLRF   xB7
100D4:  CLRF   xBA
100D6:  CLRF   xB9
100D8:  CLRF   xBB
100DA:  CLRF   xBC
100DC:  CLRF   xBD
100DE:  CLRF   xBE
100E0:  CLRF   xBF
100E2:  CLRF   xC0
100E4:  CLRF   xC1
100E6:  CLRF   xC2
100E8:  CLRF   xC3
100EA:  MOVLW  9A
100EC:  MOVLB  2
100EE:  MOVWF  xA7
100F0:  MOVLW  99
100F2:  MOVWF  xA6
100F4:  MOVLW  0D
100F6:  MOVWF  xA5
100F8:  MOVLW  86
100FA:  MOVWF  xA4
100FC:  CLRF   xAB
100FE:  CLRF   xAA
10100:  CLRF   xA9
10102:  MOVLW  7E
10104:  MOVWF  xA8
10106:  CLRF   xAF
10108:  CLRF   xAE
1010A:  CLRF   xAD
1010C:  CLRF   xAC
1010E:  CLRF   xB3
10110:  MOVLW  80
10112:  MOVWF  xB2
10114:  MOVLW  54
10116:  MOVWF  xB1
10118:  MOVLW  8B
1011A:  MOVWF  xB0
1011C:  CLRF   xBF
1011E:  CLRF   xBE
10120:  CLRF   xBD
10122:  CLRF   xBC
10124:  CLRF   xC3
10126:  CLRF   xC2
10128:  CLRF   xC1
1012A:  CLRF   xC0
1012C:  CLRF   xC7
1012E:  CLRF   xC6
10130:  CLRF   xC5
10132:  CLRF   xC4
10134:  CLRF   xC8
10136:  CLRF   xC9
10138:  CLRF   xCA
1013A:  CLRF   xCB
1013C:  MOVLW  14
1013E:  MOVWF  xCC
10140:  CLRF   xCD
10142:  CLRF   xCE
10144:  CLRF   xCF
10146:  CLRF   xD0
10148:  CLRF   xD1
1014A:  MOVLW  03
1014C:  MOVWF  xD2
1014E:  CLRF   xD6
10150:  CLRF   xD5
10152:  CLRF   xD4
10154:  CLRF   xD3
10156:  CLRF   xDE
10158:  CLRF   xDD
1015A:  MOVLW  20
1015C:  MOVWF  xDC
1015E:  MOVLW  82
10160:  MOVWF  xDB
10162:  CLRF   xE2
10164:  CLRF   xE1
10166:  CLRF   xE0
10168:  CLRF   xDF
1016A:  CLRF   xE6
1016C:  CLRF   xE5
1016E:  CLRF   xE4
10170:  CLRF   xE3
10172:  CLRF   xEA
10174:  CLRF   xE9
10176:  CLRF   xE8
10178:  CLRF   xE7
1017A:  CLRF   xEE
1017C:  CLRF   xED
1017E:  CLRF   xEC
10180:  CLRF   xEB
10182:  CLRF   xF2
10184:  CLRF   xF1
10186:  CLRF   xF0
10188:  CLRF   xEF
1018A:  CLRF   xF6
1018C:  CLRF   xF5
1018E:  MOVLW  48
10190:  MOVWF  xF4
10192:  MOVLW  83
10194:  MOVWF  xF3
10196:  CLRF   xFA
10198:  CLRF   xF9
1019A:  MOVLW  20
1019C:  MOVWF  xF8
1019E:  MOVLW  83
101A0:  MOVWF  xF7
101A2:  CLRF   xFE
101A4:  CLRF   xFD
101A6:  CLRF   xFC
101A8:  MOVLW  7F
101AA:  MOVWF  xFB
101AC:  MOVLB  3
101AE:  CLRF   x02
101B0:  CLRF   x01
101B2:  CLRF   x00
101B4:  MOVLB  2
101B6:  CLRF   xFF
101B8:  MOVLB  3
101BA:  CLRF   x06
101BC:  CLRF   x05
101BE:  CLRF   x04
101C0:  CLRF   x03
101C2:  CLRF   x0A
101C4:  CLRF   x09
101C6:  CLRF   x08
101C8:  CLRF   x07
101CA:  CLRF   x0E
101CC:  CLRF   x0D
101CE:  CLRF   x0C
101D0:  CLRF   x0B
101D2:  CLRF   x12
101D4:  CLRF   x11
101D6:  CLRF   x10
101D8:  CLRF   x0F
101DA:  CLRF   x16
101DC:  CLRF   x15
101DE:  CLRF   x14
101E0:  CLRF   x13
101E2:  CLRF   x1A
101E4:  CLRF   x19
101E6:  CLRF   x18
101E8:  CLRF   x17
101EA:  MOVLW  4A
101EC:  MOVWF  x1E
101EE:  MOVLW  88
101F0:  MOVWF  x1D
101F2:  MOVLW  28
101F4:  MOVWF  x1C
101F6:  MOVLW  75
101F8:  MOVWF  x1B
101FA:  MOVLW  E0
101FC:  MOVWF  x22
101FE:  MOVLW  2D
10200:  MOVWF  x21
10202:  MOVLW  10
10204:  MOVWF  x20
10206:  MOVLW  75
10208:  MOVWF  x1F
1020A:  MOVLW  FF
1020C:  MOVWF  x26
1020E:  MOVLW  21
10210:  MOVWF  x25
10212:  MOVLW  15
10214:  MOVWF  x24
10216:  MOVLW  80
10218:  MOVWF  x23
1021A:  MOVLW  82
1021C:  MOVWF  x2A
1021E:  MOVLW  12
10220:  MOVWF  x29
10222:  MOVLW  F4
10224:  MOVWF  x28
10226:  MOVLW  86
10228:  MOVWF  x27
1022A:  CLRF   x2B
1022C:  CLRF   x2C
1022E:  CLRF   x2D
10230:  MOVLW  55
10232:  MOVWF  x2E
10234:  MOVLW  04
10236:  MOVWF  x2F
10238:  MOVLW  19
1023A:  MOVWF  x30
1023C:  CLRF   x31
1023E:  CLRF   x32
10240:  CLRF   x33
10242:  CLRF   x35
10244:  CLRF   x34
10246:  CLRF   x37
10248:  CLRF   x36
1024A:  CLRF   x39
1024C:  CLRF   x38
1024E:  CLRF   x3B
10250:  CLRF   x3A
10252:  MOVLB  0
10254:  BCF    xA6.7
10256:  MOVLB  3
10258:  BCF    x3C.0
1025A:  BCF    x3C.1
1025C:  BCF    x3C.2
1025E:  BCF    x3C.3
10260:  BCF    x3C.4
10262:  BCF    x3C.5
10264:  CLRF   x3D
10266:  CLRF   x3E
10268:  CLRF   x3F
1026A:  MOVLW  01
1026C:  MOVWF  x40
1026E:  MOVLW  02
10270:  MOVWF  x41
10272:  CLRF   x42
10274:  MOVLW  01
10276:  MOVWF  x43
10278:  CLRF   x44
1027A:  CLRF   x45
1027C:  CLRF   x46
1027E:  CLRF   x47
10280:  CLRF   x48
10282:  MOVLW  F0
10284:  MOVWF  x49
10286:  CLRF   x4A
10288:  CLRF   x4B
1028A:  CLRF   x4C
1028C:  CLRF   x4D
1028E:  CLRF   x4E
10290:  MOVLW  01
10292:  MOVWF  x4F
10294:  MOVWF  x50
10296:  CLRF   x51
10298:  CLRF   x52
1029A:  CLRF   x53
1029C:  CLRF   x54
1029E:  CLRF   x55
102A0:  CLRF   x56
102A2:  MOVLW  11
102A4:  MOVWF  x57
102A6:  MOVLW  19
102A8:  MOVWF  x58
102AA:  CLRF   x5A
102AC:  CLRF   x59
102AE:  CLRF   x5C
102B0:  CLRF   x5B
102B2:  CLRF   x5E
102B4:  CLRF   x5D
102B6:  CLRF   x60
102B8:  CLRF   x5F
102BA:  CLRF   x62
102BC:  CLRF   x61
102BE:  CLRF   x64
102C0:  CLRF   x63
102C2:  CLRF   x66
102C4:  CLRF   x65
102C6:  CLRF   x68
102C8:  CLRF   x67
102CA:  CLRF   x6A
102CC:  CLRF   x69
102CE:  CLRF   x6C
102D0:  MOVLW  01
102D2:  MOVWF  x6B
102D4:  CLRF   x6E
102D6:  CLRF   x6D
102D8:  CLRF   x70
102DA:  CLRF   x6F
102DC:  CLRF   x79
102DE:  CLRF   x7A
102E0:  CLRF   x7B
102E2:  CLRF   x7C
102E4:  CLRF   x7D
102E6:  CLRF   x7E
102E8:  CLRF   x7F
102EA:  CLRF   x80
102EC:  MOVLW  0A
102EE:  MOVWF  x81
102F0:  CLRF   x82
102F2:  CLRF   x84
102F4:  CLRF   x83
102F6:  CLRF   x86
102F8:  CLRF   x85
102FA:  CLRF   x88
102FC:  CLRF   x87
102FE:  CLRF   x8A
10300:  CLRF   x89
10302:  MOVLW  12
10304:  MOVWF  x8B
10306:  MOVLW  09
10308:  MOVWF  x8C
1030A:  MOVLW  0D
1030C:  MOVWF  x8D
1030E:  CLRF   x8E
10310:  CLRF   x8F
10312:  CLRF   x90
10314:  CLRF   x91
10316:  CLRF   x92
10318:  CLRF   x93
1031A:  CLRF   x94
1031C:  CLRF   x95
1031E:  CLRF   x96
10320:  CLRF   x97
10322:  CLRF   x98
10324:  CLRF   x99
10326:  CLRF   x9A
10328:  CLRF   x9B
1032A:  CLRF   x9C
1032C:  CLRF   x9D
1032E:  CLRF   x9F
10330:  CLRF   x9E
10332:  MOVLB  4
10334:  CLRF   x03
10336:  CLRF   x04
10338:  CLRF   x05
1033A:  CLRF   x06
1033C:  CLRF   x07
1033E:  MOVF   FC1,W
10340:  ANDLW  C0
10342:  IORLW  0F
10344:  MOVWF  FC1
10346:  MOVLW  07
10348:  MOVWF  FB4
1034A:  CLRF   2A
1034C:  CLRF   2B
1034E:  MOVLB  0
10350:  CLRF   x87
10352:  MOVLW  03
10354:  MOVWF  x88
10356:  MOVWF  x89
10358:  MOVLW  06
1035A:  MOVWF  x8A
1035C:  MOVLW  01
1035E:  MOVWF  x8B
10360:  MOVLW  04
10362:  MOVWF  x8C
10364:  MOVLW  06
10366:  MOVWF  x8D
10368:  MOVLW  02
1036A:  MOVWF  x8E
1036C:  MOVLW  05
1036E:  MOVWF  x8F
10370:  CLRF   x90
10372:  MOVLW  03
10374:  MOVWF  x91
10376:  MOVLW  05
10378:  MOVWF  x92
1037A:  CLRF   x93
1037C:  MOVLW  03
1037E:  MOVWF  x94
10380:  MOVLW  04
10382:  MOVWF  x95
10384:  CLRF   x96
10386:  MOVLW  02
10388:  MOVWF  x97
1038A:  MOVLW  05
1038C:  MOVWF  x98
1038E:  CLRF   x99
10390:  MOVLW  03
10392:  MOVWF  x9A
10394:  MOVLW  06
10396:  MOVWF  x9B
10398:  MOVLW  01
1039A:  MOVWF  x9C
1039C:  MOVLW  04
1039E:  MOVWF  x9D
103A0:  MOVLW  06
103A2:  MOVWF  x9E
103A4:  CLRF   xC4
103A6:  CLRF   xC5
103A8:  CLRF   xC6
103AA:  CLRF   xC7
103AC:  CLRF   xC8
103AE:  CLRF   xC9
103B0:  CLRF   xCA
103B2:  CLRF   xCB
103B4:  CLRF   xCC
103B6:  CLRF   xCD
103B8:  CLRF   xCE
103BA:  CLRF   xCF
103BC:  CLRF   xD0
103BE:  CLRF   xD1
103C0:  CLRF   xD2
103C2:  CLRF   xD3
103C4:  CLRF   xD4
103C6:  CLRF   xD5
103C8:  CLRF   xD6
103CA:  CLRF   xD7
103CC:  CLRF   xD8
103CE:  CLRF   xD9
103D0:  CLRF   xDA
103D2:  CLRF   xDB
103D4:  CLRF   xDC
103D6:  CLRF   xDD
103D8:  CLRF   xDE
103DA:  CLRF   xDF
103DC:  CLRF   xE0
103DE:  CLRF   xE1
103E0:  CLRF   xE2
103E2:  CLRF   xE3
103E4:  CLRF   xE4
103E6:  CLRF   xE5
103E8:  CLRF   xE6
103EA:  CLRF   xE7
103EC:  CLRF   xE8
103EE:  CLRF   xE9
103F0:  CLRF   xEA
103F2:  CLRF   xEB
103F4:  CLRF   xEC
103F6:  CLRF   xED
103F8:  CLRF   xEE
103FA:  CLRF   xEF
103FC:  CLRF   xF0
103FE:  CLRF   xF1
10400:  CLRF   xF2
10402:  CLRF   xF3
10404:  CLRF   xF4
10406:  CLRF   xF5
10408:  CLRF   xF6
1040A:  CLRF   xF7
1040C:  CLRF   xF8
1040E:  CLRF   xF9
10410:  CLRF   xFA
10412:  CLRF   xFB
10414:  CLRF   xFC
10416:  CLRF   xFD
10418:  CLRF   xFE
1041A:  CLRF   xFF
1041C:  MOVLB  1
1041E:  CLRF   x00
10420:  CLRF   x01
10422:  CLRF   x02
10424:  CLRF   x03
10426:  CLRF   x04
10428:  CLRF   x05
1042A:  CLRF   x06
1042C:  CLRF   x07
1042E:  CLRF   x08
10430:  CLRF   x09
10432:  CLRF   x0A
10434:  CLRF   x0B
10436:  CLRF   x0C
10438:  CLRF   x0D
1043A:  CLRF   x0E
1043C:  CLRF   x0F
1043E:  CLRF   x10
10440:  CLRF   x11
10442:  CLRF   x12
10444:  CLRF   x13
10446:  CLRF   x14
10448:  CLRF   x15
1044A:  CLRF   x16
1044C:  CLRF   x17
1044E:  CLRF   x18
10450:  CLRF   x19
10452:  CLRF   x1A
10454:  CLRF   x1B
10456:  CLRF   x1C
10458:  CLRF   x1D
1045A:  CLRF   x1E
1045C:  CLRF   x1F
1045E:  CLRF   x20
10460:  CLRF   x21
10462:  CLRF   x22
10464:  CLRF   x23
10466:  CLRF   x24
10468:  CLRF   x25
1046A:  CLRF   x26
1046C:  CLRF   x27
1046E:  CLRF   x28
10470:  CLRF   x29
10472:  CLRF   x2A
10474:  CLRF   x2B
10476:  CLRF   x2C
10478:  CLRF   x2D
1047A:  CLRF   x2E
1047C:  CLRF   x2F
1047E:  CLRF   x30
10480:  CLRF   x31
10482:  CLRF   x32
10484:  CLRF   x33
10486:  CLRF   x34
10488:  CLRF   x35
1048A:  CLRF   x36
1048C:  CLRF   x37
1048E:  CLRF   x38
10490:  CLRF   x39
10492:  CLRF   x3A
10494:  CLRF   x3B
10496:  CLRF   x3C
10498:  CLRF   x3D
1049A:  CLRF   x3E
1049C:  CLRF   x3F
1049E:  CLRF   x40
104A0:  CLRF   x41
104A2:  CLRF   x42
104A4:  CLRF   x43
104A6:  CLRF   x44
104A8:  CLRF   x45
104AA:  CLRF   x46
104AC:  CLRF   x47
104AE:  CLRF   x48
104B0:  CLRF   x49
104B2:  CLRF   x4A
104B4:  CLRF   x4B
104B6:  CLRF   x4C
104B8:  CLRF   x4D
104BA:  CLRF   x4E
104BC:  CLRF   x4F
104BE:  CLRF   x50
104C0:  CLRF   x51
104C2:  CLRF   x52
104C4:  CLRF   x53
104C6:  CLRF   x54
104C8:  CLRF   x55
104CA:  CLRF   x56
104CC:  CLRF   x57
104CE:  CLRF   x58
104D0:  CLRF   x59
104D2:  CLRF   x5A
104D4:  CLRF   x5B
104D6:  CLRF   x5C
104D8:  CLRF   x5D
104DA:  CLRF   x5E
104DC:  CLRF   x5F
104DE:  CLRF   x60
104E0:  CLRF   x61
104E2:  CLRF   x62
104E4:  CLRF   x63
104E6:  CLRF   x64
104E8:  CLRF   x65
104EA:  CLRF   x66
104EC:  CLRF   x67
104EE:  CLRF   x68
104F0:  CLRF   x69
104F2:  CLRF   x6A
104F4:  CLRF   x6B
104F6:  CLRF   x6C
104F8:  CLRF   x6D
104FA:  CLRF   x6E
104FC:  CLRF   x6F
104FE:  CLRF   x70
10500:  CLRF   x71
10502:  CLRF   x72
10504:  CLRF   x73
10506:  CLRF   x74
10508:  CLRF   x75
1050A:  CLRF   x76
1050C:  CLRF   x77
1050E:  CLRF   x78
10510:  CLRF   x79
10512:  CLRF   x7A
10514:  CLRF   x7B
10516:  CLRF   x7C
10518:  CLRF   x7D
1051A:  CLRF   x7E
1051C:  CLRF   x7F
1051E:  CLRF   x80
10520:  CLRF   x81
10522:  CLRF   x82
10524:  CLRF   x83
10526:  CLRF   x84
10528:  CLRF   x85
1052A:  CLRF   x86
1052C:  CLRF   x87
1052E:  CLRF   x88
10530:  CLRF   x89
10532:  CLRF   x8A
10534:  CLRF   x8B
10536:  CLRF   x8C
10538:  CLRF   x8D
1053A:  CLRF   x8E
1053C:  CLRF   x8F
1053E:  CLRF   x90
10540:  CLRF   x91
10542:  CLRF   x92
10544:  CLRF   x93
10546:  CLRF   x94
10548:  CLRF   x95
1054A:  CLRF   x96
1054C:  CLRF   x97
1054E:  CLRF   x98
10550:  CLRF   x99
10552:  CLRF   x9A
10554:  CLRF   x9B
10556:  CLRF   x9C
10558:  CLRF   x9D
1055A:  CLRF   x9E
1055C:  CLRF   x9F
1055E:  CLRF   xA0
10560:  CLRF   xA1
10562:  CLRF   xA2
10564:  CLRF   xA3
10566:  CLRF   xA4
10568:  CLRF   xA5
1056A:  CLRF   xA6
1056C:  CLRF   xA7
1056E:  CLRF   xA8
10570:  CLRF   xA9
10572:  CLRF   xAA
10574:  CLRF   xAB
10576:  CLRF   xAC
10578:  CLRF   xAD
1057A:  CLRF   xAE
1057C:  CLRF   xAF
1057E:  CLRF   xB0
10580:  CLRF   xB1
10582:  CLRF   xB2
10584:  CLRF   xB3
10586:  CLRF   xB4
10588:  CLRF   xB5
1058A:  CLRF   xB6
1058C:  CLRF   xB7
1058E:  CLRF   xB8
10590:  CLRF   xB9
10592:  CLRF   xBA
10594:  CLRF   xBB
10596:  CLRF   xBC
10598:  CLRF   xBD
1059A:  CLRF   xBE
1059C:  CLRF   xBF
1059E:  CLRF   xC0
105A0:  CLRF   xC1
105A2:  CLRF   xC2
105A4:  CLRF   xC3
105A6:  CLRF   xC4
105A8:  CLRF   xC5
105AA:  CLRF   xC6
105AC:  CLRF   xC7
105AE:  CLRF   xC8
105B0:  CLRF   xC9
105B2:  CLRF   xCA
105B4:  CLRF   xCB
105B6:  CLRF   xCC
105B8:  CLRF   xCD
105BA:  CLRF   xCE
105BC:  CLRF   xCF
105BE:  CLRF   xD0
105C0:  CLRF   xD1
105C2:  CLRF   xD2
105C4:  CLRF   xD3
105C6:  CLRF   xD4
105C8:  CLRF   xD5
105CA:  CLRF   xD6
105CC:  CLRF   xD7
105CE:  CLRF   xD8
105D0:  CLRF   xD9
105D2:  CLRF   xDA
105D4:  CLRF   xDB
105D6:  CLRF   xDC
105D8:  CLRF   xDD
105DA:  CLRF   xDE
105DC:  CLRF   xDF
105DE:  CLRF   xE0
105E0:  CLRF   xE1
105E2:  CLRF   xE2
105E4:  CLRF   xE3
105E6:  CLRF   xE4
105E8:  CLRF   xE5
105EA:  CLRF   xE6
105EC:  CLRF   xE7
105EE:  CLRF   xE8
105F0:  CLRF   xE9
105F2:  CLRF   xEA
105F4:  CLRF   xEB
105F6:  CLRF   xEC
105F8:  CLRF   xED
105FA:  CLRF   xEE
105FC:  CLRF   xEF
105FE:  CLRF   xF0
10600:  CLRF   xF1
10602:  CLRF   xF2
10604:  CLRF   xF3
10606:  CLRF   xF4
10608:  CLRF   xF5
1060A:  CLRF   xF6
1060C:  CLRF   xF7
1060E:  CLRF   xF8
10610:  CLRF   xF9
10612:  CLRF   xFA
10614:  CLRF   xFB
10616:  CLRF   xFC
10618:  CLRF   xFD
1061A:  CLRF   xFE
1061C:  CLRF   xFF
1061E:  MOVLB  2
10620:  CLRF   x00
10622:  CLRF   x01
10624:  CLRF   x02
10626:  CLRF   x03
10628:  CLRF   x04
1062A:  CLRF   x05
1062C:  CLRF   x06
1062E:  CLRF   x07
10630:  CLRF   x08
10632:  CLRF   x09
10634:  CLRF   x0A
10636:  CLRF   x0B
10638:  CLRF   x0C
1063A:  CLRF   x0D
1063C:  CLRF   x0E
1063E:  CLRF   x0F
10640:  CLRF   x10
10642:  CLRF   x11
10644:  CLRF   x12
10646:  CLRF   x13
10648:  CLRF   x14
1064A:  CLRF   x15
1064C:  CLRF   x16
1064E:  CLRF   x17
10650:  CLRF   x18
10652:  CLRF   x19
10654:  CLRF   x1A
10656:  CLRF   x1B
10658:  CLRF   x1C
1065A:  CLRF   x1D
1065C:  CLRF   x1E
1065E:  CLRF   x1F
10660:  CLRF   x20
10662:  CLRF   x21
10664:  CLRF   x22
10666:  CLRF   x23
10668:  CLRF   x24
1066A:  CLRF   x25
1066C:  CLRF   x26
1066E:  CLRF   x27
10670:  CLRF   x28
10672:  CLRF   x29
10674:  CLRF   x2A
10676:  CLRF   x2B
10678:  CLRF   x2C
1067A:  CLRF   x2D
1067C:  CLRF   x2E
1067E:  CLRF   x2F
10680:  CLRF   x30
10682:  CLRF   x31
10684:  CLRF   x32
10686:  CLRF   x33
10688:  CLRF   x34
1068A:  CLRF   x35
1068C:  CLRF   x36
1068E:  CLRF   x37
10690:  CLRF   x38
10692:  CLRF   x39
10694:  CLRF   x3A
10696:  CLRF   x3B
10698:  CLRF   x3C
1069A:  CLRF   x3D
1069C:  CLRF   x3E
1069E:  CLRF   x3F
106A0:  CLRF   x40
106A2:  CLRF   x41
106A4:  CLRF   x42
106A6:  CLRF   x43
106A8:  CLRF   x44
106AA:  CLRF   x45
106AC:  CLRF   x46
106AE:  CLRF   x47
106B0:  CLRF   x48
106B2:  CLRF   x49
106B4:  CLRF   x4A
106B6:  CLRF   x4B
106B8:  CLRF   x4C
106BA:  CLRF   x4D
106BC:  CLRF   x4E
106BE:  CLRF   x4F
106C0:  CLRF   x50
106C2:  CLRF   x51
106C4:  CLRF   x52
106C6:  CLRF   x53
106C8:  CLRF   x54
106CA:  CLRF   x55
106CC:  CLRF   x56
106CE:  CLRF   x57
106D0:  CLRF   x58
106D2:  CLRF   x59
106D4:  CLRF   x5A
106D6:  CLRF   x5B
106D8:  CLRF   x5C
106DA:  CLRF   x5D
106DC:  CLRF   x5E
106DE:  CLRF   x5F
106E0:  CLRF   x60
106E2:  CLRF   x61
106E4:  CLRF   x62
106E6:  CLRF   x63
106E8:  CLRF   x64
106EA:  CLRF   x65
106EC:  CLRF   x66
106EE:  CLRF   x67
106F0:  CLRF   x68
106F2:  CLRF   x69
106F4:  CLRF   x6A
106F6:  CLRF   x6B
106F8:  CLRF   x6C
106FA:  CLRF   x6D
106FC:  CLRF   x6E
106FE:  CLRF   x6F
10700:  CLRF   x70
10702:  CLRF   x71
10704:  CLRF   x72
10706:  CLRF   x73
10708:  CLRF   x74
1070A:  CLRF   x75
1070C:  CLRF   x76
1070E:  CLRF   x77
10710:  CLRF   x78
10712:  CLRF   x79
10714:  CLRF   x7A
10716:  CLRF   x7B
10718:  CLRF   x7C
1071A:  CLRF   x7D
1071C:  CLRF   x7E
1071E:  CLRF   x7F
10720:  CLRF   x80
10722:  CLRF   x81
10724:  CLRF   x82
10726:  CLRF   x83
10728:  CLRF   x84
1072A:  CLRF   x85
1072C:  CLRF   x86
1072E:  CLRF   x87
10730:  CLRF   x88
10732:  CLRF   x89
10734:  CLRF   x8A
10736:  CLRF   x8B
10738:  CLRF   x8C
1073A:  CLRF   x8D
1073C:  CLRF   x8E
1073E:  CLRF   x8F
10740:  CLRF   x90
10742:  CLRF   x91
10744:  CLRF   x92
10746:  CLRF   x93
10748:  CLRF   x94
1074A:  CLRF   x95
1074C:  CLRF   x96
1074E:  CLRF   x97
10750:  CLRF   x98
10752:  CLRF   x99
10754:  CLRF   x9A
10756:  CLRF   x9B
10758:  CLRF   x9C
1075A:  CLRF   x9D
1075C:  CLRF   x9E
1075E:  CLRF   x9F
10760:  CLRF   xA0
10762:  CLRF   xA1
10764:  CLRF   xA2
10766:  CLRF   xA3
10768:  CLRF   xB4
1076A:  CLRF   xB5
1076C:  CLRF   xB6
1076E:  CLRF   xB7
10770:  CLRF   xB8
10772:  CLRF   xB9
10774:  CLRF   xBA
10776:  CLRF   xBB
10778:  MOVLB  3
1077A:  CLRF   x71
1077C:  CLRF   x72
1077E:  CLRF   x73
10780:  CLRF   x74
10782:  CLRF   x75
10784:  CLRF   x76
10786:  CLRF   x77
10788:  CLRF   x78
1078A:  MOVLW  16
1078C:  MOVWF  xA0
1078E:  MOVLW  3E
10790:  MOVWF  xA1
10792:  MOVLW  10
10794:  MOVWF  xA2
10796:  MOVLW  3C
10798:  MOVWF  xA3
1079A:  MOVLW  3A
1079C:  MOVWF  xA4
1079E:  MOVLW  40
107A0:  MOVWF  xA5
107A2:  MOVLW  17
107A4:  MOVWF  xA6
107A6:  MOVLW  1C
107A8:  MOVWF  xA7
107AA:  MOVLW  14
107AC:  MOVWF  xA8
107AE:  MOVLW  2E
107B0:  MOVWF  xA9
107B2:  MOVLW  4F
107B4:  MOVWF  xAA
107B6:  MOVLW  12
107B8:  MOVWF  xAB
107BA:  MOVLW  3D
107BC:  MOVWF  xAC
107BE:  MOVLW  24
107C0:  MOVWF  xAD
107C2:  MOVLW  3B
107C4:  MOVWF  xAE
107C6:  MOVLW  39
107C8:  MOVWF  xAF
107CA:  MOVLW  3F
107CC:  MOVWF  xB0
107CE:  MOVLW  20
107D0:  MOVWF  xB1
107D2:  MOVLW  26
107D4:  MOVWF  xB2
107D6:  MOVLW  13
107D8:  MOVWF  xB3
107DA:  MOVLW  11
107DC:  MOVWF  xB4
107DE:  MOVLW  4E
107E0:  MOVWF  xB5
....................     
....................    for (posicion=0;posicion<0x10;posicion++){ 
107E2:  MOVLB  0
107E4:  CLRF   x86
107E6:  MOVF   x86,W
107E8:  SUBLW  0F
107EA:  BTFSS  FD8.0
107EC:  GOTO   10806
....................       SlaveA0Tx[posicion] = 0x00; 
107F0:  CLRF   03
107F2:  MOVF   x86,W
107F4:  ADDLW  64
107F6:  MOVWF  FE9
107F8:  MOVLW  00
107FA:  ADDWFC 03,W
107FC:  MOVWF  FEA
107FE:  CLRF   FEF
....................    } 
10800:  INCF   x86,F
10802:  GOTO   107E6
....................    setup_timer_0(RTCC_8_BIT|RTCC_DIV_1); 
10806:  MOVLW  C8
10808:  MOVWF  FD5
....................    enable_interrupts(INT_TIMER0); 
1080A:  BSF    FF2.5
....................    setup_timer_1(T1_INTERNAL|T1_DIV_BY_1); 
1080C:  MOVLW  85
1080E:  MOVWF  FCD
....................    enable_interrupts(INT_TIMER1); 
10810:  BSF    F9D.0
....................    setup_adc_ports(AN0_TO_AN5); 
10812:  MOVF   FC1,W
10814:  ANDLW  C0
10816:  IORLW  09
10818:  MOVWF  FC1
....................    setup_adc(ADC_CLOCK_DIV_64); 
1081A:  MOVF   FC0,W
1081C:  ANDLW  C0
1081E:  IORLW  06
10820:  MOVWF  FC0
10822:  BSF    FC0.7
10824:  BSF    FC2.0
....................    port_b_pullups(true); 
10826:  BCF    FF1.7
....................    enable_interrupts(int_rda); 
10828:  BSF    F9D.5
....................    setup_wdt(WDT_ON); 
1082A:  BSF    FD1.0
....................    enable_interrupts(global); 
1082C:  MOVLW  C0
1082E:  IORWF  FF2,F
....................    LeeEEPROM(); 
10830:  GOTO   26FA
....................    rtc_init(); 
10834:  GOTO   3B4C
....................    delay_ms(1); 
10838:  MOVLW  01
1083A:  MOVLB  7
1083C:  MOVWF  x1E
1083E:  MOVLB  0
10840:  CALL   2060
....................    LimitaValores(); 
10844:  GOTO   3BEC
....................    CalculoImpresion=timpresion*60; 
10848:  MOVLB  3
1084A:  MOVF   x41,W
1084C:  MULLW  3C
1084E:  MOVFF  FF3,342
....................    ActivaImpresion=1; 
10852:  MOVLW  01
10854:  MOVWF  x40
....................    printf("page Bienvenida"); 
10856:  MOVLW  3C
10858:  MOVWF  FF6
1085A:  MOVLW  08
1085C:  MOVWF  FF7
1085E:  MOVLW  00
10860:  MOVWF  FF8
10862:  MOVLB  0
10864:  CALL   4538
....................    SendDataDisplay(); 
10868:  CALL   456A
....................    printf("bkcmd=0"); 
1086C:  MOVLW  4C
1086E:  MOVWF  FF6
10870:  MOVLW  08
10872:  MOVWF  FF7
10874:  MOVLW  00
10876:  MOVWF  FF8
10878:  CALL   4538
....................    SendDataDisplay(); 
1087C:  CALL   456A
....................    delay_ms(1500); 
10880:  MOVLW  06
10882:  MOVLB  7
10884:  MOVWF  x08
10886:  MOVLW  FA
10888:  MOVWF  x1E
1088A:  MOVLB  0
1088C:  CALL   2060
10890:  MOVLB  7
10892:  DECFSZ x08,F
10894:  BRA    10886
....................    printf("page Clave"); 
10896:  MOVLW  54
10898:  MOVWF  FF6
1089A:  MOVLW  08
1089C:  MOVWF  FF7
1089E:  MOVLW  00
108A0:  MOVWF  FF8
108A2:  MOVLB  0
108A4:  CALL   4538
....................    SendDataDisplay(); 
108A8:  CALL   456A
....................    ApagaSalidas(); 
108AC:  CALL   45A0
....................    TiempoVacio=360;  
108B0:  MOVLW  01
108B2:  MOVLB  3
108B4:  MOVWF  x35
108B6:  MOVLW  68
108B8:  MOVWF  x34
....................    Sensor[0].Gain=106.34; 
108BA:  MOVLW  14
108BC:  MOVLB  5
108BE:  MOVWF  x73
108C0:  MOVLW  AE
108C2:  MOVWF  x72
108C4:  MOVLW  54
108C6:  MOVWF  x71
108C8:  MOVLW  85
108CA:  MOVWF  x70
....................    Sensor[1].Gain=106.34; 
108CC:  MOVLW  14
108CE:  MOVLB  6
108D0:  MOVWF  xDF
108D2:  MOVLW  AE
108D4:  MOVWF  xDE
108D6:  MOVLW  54
108D8:  MOVWF  xDD
108DA:  MOVLW  85
108DC:  MOVWF  xDC
....................    Imprime=10; 
108DE:  MOVLW  0A
108E0:  MOVLB  3
108E2:  MOVWF  x99
....................    NivelSeleccionado=4995*NivelDesfogue; 
108E4:  MOVLW  13
108E6:  MOVLB  7
108E8:  MOVWF  x1F
108EA:  MOVLW  83
108EC:  MOVWF  x1E
108EE:  MOVFF  36C,721
108F2:  MOVFF  36B,720
108F6:  MOVLB  0
108F8:  CALL   2494
108FC:  MOVFF  02,38A
10900:  MOVFF  01,389
....................     
....................    for(i=0;i<MediaMovil;i++){ 
10904:  MOVLB  3
10906:  CLRF   x4A
10908:  MOVLB  2
1090A:  MOVF   xCC,W
1090C:  MOVLB  3
1090E:  SUBWF  x4A,W
10910:  BTFSC  FD8.0
10912:  GOTO   109AC
....................       Temperatura=LeerPT100(0,MediaMovil); 
10916:  MOVLB  7
10918:  CLRF   x0A
1091A:  MOVFF  2CC,70B
1091E:  MOVLB  0
10920:  CALL   471E
10924:  MOVFF  03,316
10928:  MOVFF  02,315
1092C:  MOVFF  01,314
10930:  MOVFF  00,313
....................       Temperatura2=LeerPT100(1,MediaMovil); 
10934:  MOVLW  01
10936:  MOVLB  7
10938:  MOVWF  x0A
1093A:  MOVFF  2CC,70B
1093E:  MOVLB  0
10940:  CALL   471E
10944:  MOVFF  03,31A
10948:  MOVFF  02,319
1094C:  MOVFF  01,318
10950:  MOVFF  00,317
....................       PresionCamara=Leer_Sensor_Presion_Camara(5); 
10954:  MOVLW  05
10956:  MOVLB  7
10958:  MOVWF  x0A
1095A:  MOVLB  0
1095C:  CALL   5182
10960:  MOVFF  03,71D
10964:  MOVFF  02,71C
10968:  MOVFF  01,71B
1096C:  MOVFF  00,71A
10970:  CALL   5380
10974:  MOVFF  02,366
10978:  MOVFF  01,365
....................       PresionPreCamara=Leer_Sensor_Presion_PreCamara(5); 
1097C:  MOVLW  05
1097E:  MOVLB  7
10980:  MOVWF  x0A
10982:  MOVLB  0
10984:  CALL   53BC
10988:  MOVFF  03,71D
1098C:  MOVFF  02,71C
10990:  MOVFF  01,71B
10994:  MOVFF  00,71A
10998:  CALL   5380
1099C:  MOVFF  02,368
109A0:  MOVFF  01,367
....................    } 
109A4:  MOVLB  3
109A6:  INCF   x4A,F
109A8:  GOTO   10908
....................     
....................    if(!DOOR){ 
109AC:  BSF    F93.6
109AE:  BTFSS  F81.6
109B0:  GOTO   10AE8
....................       if(abs((float)PresionCamara-(float)Atmosferica)>=3 && PresionCamara<102){//Funcion de Auto Ajuste de Presion Atmosferica 
109B4:  MOVFF  366,71B
109B8:  MOVFF  365,71A
109BC:  MOVLB  0
109BE:  CALL   2088
109C2:  MOVFF  00,708
109C6:  MOVFF  01,709
109CA:  MOVFF  02,70A
109CE:  MOVFF  03,70B
109D2:  MOVFF  33B,71B
109D6:  MOVFF  33A,71A
109DA:  CALL   2088
109DE:  BSF    FD8.1
109E0:  MOVFF  70B,71D
109E4:  MOVFF  70A,71C
109E8:  MOVFF  709,71B
109EC:  MOVFF  708,71A
109F0:  MOVFF  03,721
109F4:  MOVFF  02,720
109F8:  MOVFF  01,71F
109FC:  MOVFF  00,71E
10A00:  CALL   221C
10A04:  MOVFF  00,708
10A08:  MOVFF  01,709
10A0C:  MOVFF  02,70A
10A10:  MOVFF  03,70B
10A14:  MOVFF  708,00
10A18:  MOVFF  709,01
10A1C:  MOVFF  70A,02
10A20:  MOVFF  70B,03
10A24:  BCF    01.7
10A26:  MOVFF  708,708
10A2A:  MOVFF  01,709
10A2E:  MOVFF  70A,70A
10A32:  MOVFF  70B,70B
10A36:  MOVLB  7
10A38:  CLRF   x11
10A3A:  CLRF   x10
10A3C:  MOVLW  40
10A3E:  MOVWF  x0F
10A40:  MOVLW  80
10A42:  MOVWF  x0E
10A44:  MOVFF  70B,715
10A48:  MOVFF  70A,714
10A4C:  MOVFF  709,713
10A50:  MOVFF  708,712
10A54:  MOVLB  0
10A56:  CALL   2680
10A5A:  BTFSC  FD8.0
10A5C:  GOTO   10A66
10A60:  BTFSS  FD8.2
10A62:  GOTO   10AE6
10A66:  MOVLB  3
10A68:  MOVF   x66,F
10A6A:  BTFSC  FD8.2
10A6C:  BRA    10A74
10A6E:  MOVLB  0
10A70:  GOTO   10AE6
10A74:  MOVF   x65,W
10A76:  SUBLW  65
10A78:  BTFSC  FD8.0
10A7A:  BRA    10A82
10A7C:  MOVLB  0
10A7E:  GOTO   10AE6
....................          Atmosferica=PresionCamara; 
10A82:  MOVFF  366,33B
10A86:  MOVFF  365,33A
....................          write_eeprom(31,Atmosferica); 
10A8A:  CLRF   FAA
10A8C:  MOVLW  1F
10A8E:  MOVWF  FA9
10A90:  MOVFF  33A,FA8
10A94:  BCF    FA6.6
10A96:  BCF    FA6.7
10A98:  BSF    FA6.2
10A9A:  MOVF   FF2,W
10A9C:  MOVWF  00
10A9E:  BCF    FF2.6
10AA0:  BCF    FF2.7
10AA2:  MOVLB  F
10AA4:  MOVLW  55
10AA6:  MOVWF  FA7
10AA8:  MOVLW  AA
10AAA:  MOVWF  FA7
10AAC:  BSF    FA6.1
10AAE:  BTFSC  FA6.1
10AB0:  GOTO   10AAE
10AB4:  BCF    FA6.2
10AB6:  MOVF   00,W
10AB8:  IORWF  FF2,F
....................          delay_ms(10); 
10ABA:  MOVLW  0A
10ABC:  MOVLB  7
10ABE:  MOVWF  x1E
10AC0:  MOVLB  0
10AC2:  CALL   2060
....................          Buzzer_on; 
10AC6:  BSF    F8C.7
10AC8:  BCF    F95.7
....................          delay_ms(1000); 
10ACA:  MOVLW  04
10ACC:  MOVLB  7
10ACE:  MOVWF  x08
10AD0:  MOVLW  FA
10AD2:  MOVWF  x1E
10AD4:  MOVLB  0
10AD6:  CALL   2060
10ADA:  MOVLB  7
10ADC:  DECFSZ x08,F
10ADE:  BRA    10AD0
....................          Buzzer_off; 
10AE0:  BCF    F8C.7
10AE2:  BCF    F95.7
10AE4:  MOVLB  0
10AE6:  MOVLB  3
....................       } 
....................    } 
....................     
....................    while(STOP)//Si oprime boton de Toma. 
....................    { 
10AE8:  BSF    F93.5
10AEA:  BTFSC  F81.5
10AEC:  GOTO   10BA8
....................       if(tStop>=600){ 
10AF0:  MOVLB  0
10AF2:  MOVF   xB8,W
10AF4:  SUBLW  01
10AF6:  BTFSC  FD8.0
10AF8:  GOTO   10BA2
10AFC:  XORLW  FF
10AFE:  BTFSS  FD8.2
10B00:  GOTO   10B0E
10B04:  MOVF   xB7,W
10B06:  SUBLW  57
10B08:  BTFSC  FD8.0
10B0A:  GOTO   10BA2
....................          write_eeprom(37,0); 
10B0E:  CLRF   FAA
10B10:  MOVLW  25
10B12:  MOVWF  FA9
10B14:  CLRF   FA8
10B16:  BCF    FA6.6
10B18:  BCF    FA6.7
10B1A:  BSF    FA6.2
10B1C:  MOVF   FF2,W
10B1E:  MOVWF  00
10B20:  BCF    FF2.6
10B22:  BCF    FF2.7
10B24:  MOVLB  F
10B26:  MOVLW  55
10B28:  MOVWF  FA7
10B2A:  MOVLW  AA
10B2C:  MOVWF  FA7
10B2E:  BSF    FA6.1
10B30:  BTFSC  FA6.1
10B32:  GOTO   10B30
10B36:  BCF    FA6.2
10B38:  MOVF   00,W
10B3A:  IORWF  FF2,F
....................          delay_ms(20); 
10B3C:  MOVLW  14
10B3E:  MOVLB  7
10B40:  MOVWF  x1E
10B42:  MOVLB  0
10B44:  CALL   2060
....................          write_eeprom(38,0); 
10B48:  CLRF   FAA
10B4A:  MOVLW  26
10B4C:  MOVWF  FA9
10B4E:  CLRF   FA8
10B50:  BCF    FA6.6
10B52:  BCF    FA6.7
10B54:  BSF    FA6.2
10B56:  MOVF   FF2,W
10B58:  MOVWF  00
10B5A:  BCF    FF2.6
10B5C:  BCF    FF2.7
10B5E:  MOVLB  F
10B60:  MOVLW  55
10B62:  MOVWF  FA7
10B64:  MOVLW  AA
10B66:  MOVWF  FA7
10B68:  BSF    FA6.1
10B6A:  BTFSC  FA6.1
10B6C:  GOTO   10B6A
10B70:  BCF    FA6.2
10B72:  MOVF   00,W
10B74:  IORWF  FF2,F
....................          delay_ms(20); 
10B76:  MOVLW  14
10B78:  MOVLB  7
10B7A:  MOVWF  x1E
10B7C:  MOVLB  0
10B7E:  CALL   2060
....................          reset_cpu(); 
10B82:  RESET
....................          Buzzer_on; 
10B84:  BSF    F8C.7
10B86:  BCF    F95.7
....................          delay_ms(1000); 
10B88:  MOVLW  04
10B8A:  MOVLB  7
10B8C:  MOVWF  x08
10B8E:  MOVLW  FA
10B90:  MOVWF  x1E
10B92:  MOVLB  0
10B94:  CALL   2060
10B98:  MOVLB  7
10B9A:  DECFSZ x08,F
10B9C:  BRA    10B8E
....................          Buzzer_off; 
10B9E:  BCF    F8C.7
10BA0:  BCF    F95.7
....................       } 
....................    } 
10BA2:  MOVLB  3
10BA4:  GOTO   10AE8
....................     
....................    while(true){ 
....................       LeeDisplay(); 
10BA8:  MOVLB  0
10BAA:  GOTO   55BA
....................       Envio_Esclavos(); 
10BAE:  CALL   58A6
....................       delay_ms(1); 
10BB2:  MOVLW  01
10BB4:  MOVLB  7
10BB6:  MOVWF  x1E
10BB8:  MOVLB  0
10BBA:  CALL   2060
....................       //Lectura_Esclavos(); 
....................       restart_wdt(); 
10BBE:  CLRWDT
....................       presionManometrica=PresionCamara-Atmosferica; 
10BC0:  MOVLB  3
10BC2:  MOVF   x3A,W
10BC4:  SUBWF  x65,W
10BC6:  MOVWF  00
10BC8:  MOVF   x3B,W
10BCA:  SUBWFB x66,W
10BCC:  MOVFF  00,39E
10BD0:  MOVWF  x9F
....................       if(!Esterilizando || Desfogando){ 
10BD2:  MOVLB  0
10BD4:  BTFSS  xA0.3
10BD6:  GOTO   10BE0
10BDA:  BTFSS  xA0.6
10BDC:  GOTO   10BEC
....................          CalculoImpresion=180; 
10BE0:  MOVLW  B4
10BE2:  MOVLB  3
10BE4:  MOVWF  x42
....................       }else{ 
10BE6:  GOTO   10BF2
10BEA:  MOVLB  0
....................          CalculoImpresion=60; 
10BEC:  MOVLW  3C
10BEE:  MOVLB  3
10BF0:  MOVWF  x42
....................       } 
....................       graficaCurva(6000); 
10BF2:  MOVLW  17
10BF4:  MOVLB  7
10BF6:  MOVWF  x09
10BF8:  MOVLW  70
10BFA:  MOVWF  x08
10BFC:  MOVLB  0
10BFE:  GOTO   593E
....................       muestreo(20); 
10C02:  MOVLB  7
10C04:  CLRF   x09
10C06:  MOVLW  14
10C08:  MOVWF  x08
10C0A:  MOVLB  0
10C0C:  GOTO   5992
....................       if(!PruebaEstados){ 
10C10:  BTFSC  xA1.4
10C12:  GOTO   10C1E
....................          monitoreaAgua(); 
10C16:  GOTO   5C80
....................          monitoreaStop(); 
10C1A:  GOTO   61EA
....................       } 
....................             
.................... //_-------------------------------------------------------------------------------------------------------------------------------------------------------- 
....................    if(Menu==240){ //Menu de Bienvenida. 
10C1E:  MOVLB  3
10C20:  MOVF   x47,W
10C22:  SUBLW  F0
10C24:  BTFSS  FD8.2
10C26:  GOTO   10C72
....................       printf("bkcmd=0"); 
10C2A:  MOVLW  60
10C2C:  MOVWF  FF6
10C2E:  MOVLW  08
10C30:  MOVWF  FF7
10C32:  MOVLW  00
10C34:  MOVWF  FF8
10C36:  MOVLB  0
10C38:  CALL   4538
....................       SendDataDisplay(); 
10C3C:  CALL   456A
....................       delay_ms(1500); 
10C40:  MOVLW  06
10C42:  MOVLB  7
10C44:  MOVWF  x08
10C46:  MOVLW  FA
10C48:  MOVWF  x1E
10C4A:  MOVLB  0
10C4C:  CALL   2060
10C50:  MOVLB  7
10C52:  DECFSZ x08,F
10C54:  BRA    10C46
....................       printf("page Clave"); 
10C56:  MOVLW  68
10C58:  MOVWF  FF6
10C5A:  MOVLW  08
10C5C:  MOVWF  FF7
10C5E:  MOVLW  00
10C60:  MOVWF  FF8
10C62:  MOVLB  0
10C64:  CALL   4538
....................       SendDataDisplay(); 
10C68:  CALL   456A
....................       ApagaSalidas(); 
10C6C:  CALL   45A0
10C70:  MOVLB  3
....................    } 
.................... //_-------------------------------------------------------------------------------------------------------------------------------------------------------- 
....................  
.................... //_-------------------------------------------------------------------------------------------------------------------------------------------------------- 
....................     if(Menu==0){ //Menu de Contrasea de acceso. 
10C72:  MOVF   x47,F
10C74:  BTFSS  FD8.2
10C76:  GOTO   11864
....................       //ApagaSalidas(); 
....................       entro=OFF; 
10C7A:  MOVLB  0
10C7C:  BCF    xA5.4
....................       SSR_off; 
10C7E:  BCF    F8D.1
10C80:  BCF    F96.1
....................       SSR2_off; 
10C82:  BCF    F8D.2
10C84:  BCF    F96.2
....................       if(Digito==1){ 
10C86:  MOVLB  2
10C88:  DECFSZ xD0,W
10C8A:  GOTO   10CDE
....................          printf("t0.txt=\"%u\"",Contrasena[0]); 
10C8E:  MOVLW  74
10C90:  MOVWF  FF6
10C92:  MOVLW  08
10C94:  MOVWF  FF7
10C96:  MOVLW  00
10C98:  MOVWF  FF8
10C9A:  MOVLW  08
10C9C:  MOVLB  7
10C9E:  MOVWF  x0D
10CA0:  MOVLB  0
10CA2:  CALL   5D0E
10CA6:  MOVFF  371,70D
10CAA:  MOVLW  1B
10CAC:  MOVLB  7
10CAE:  MOVWF  x0E
10CB0:  MOVLB  0
10CB2:  CALL   632A
10CB6:  MOVLW  22
10CB8:  BTFSS  F9E.4
10CBA:  GOTO   10CB8
10CBE:  MOVWF  FAD
....................          SendDataDisplay(); 
10CC0:  CALL   456A
....................          printf("va0.val=1"); 
10CC4:  MOVLW  80
10CC6:  MOVWF  FF6
10CC8:  MOVLW  08
10CCA:  MOVWF  FF7
10CCC:  MOVLW  00
10CCE:  MOVWF  FF8
10CD0:  CALL   4538
....................          SendDataDisplay(); 
10CD4:  CALL   456A
....................       }else if(Digito==2){ 
10CD8:  GOTO   10E46
10CDC:  MOVLB  2
10CDE:  MOVF   xD0,W
10CE0:  SUBLW  02
10CE2:  BTFSS  FD8.2
10CE4:  GOTO   10D48
....................          printf("t0.txt=\"%u%u\"",Contrasena[0],Contrasena[1]); 
10CE8:  MOVLW  8A
10CEA:  MOVWF  FF6
10CEC:  MOVLW  08
10CEE:  MOVWF  FF7
10CF0:  MOVLW  00
10CF2:  MOVWF  FF8
10CF4:  MOVLW  08
10CF6:  MOVLB  7
10CF8:  MOVWF  x0D
10CFA:  MOVLB  0
10CFC:  CALL   5D0E
10D00:  MOVFF  371,70D
10D04:  MOVLW  1B
10D06:  MOVLB  7
10D08:  MOVWF  x0E
10D0A:  MOVLB  0
10D0C:  CALL   632A
10D10:  MOVFF  372,70D
10D14:  MOVLW  1B
10D16:  MOVLB  7
10D18:  MOVWF  x0E
10D1A:  MOVLB  0
10D1C:  CALL   632A
10D20:  MOVLW  22
10D22:  BTFSS  F9E.4
10D24:  GOTO   10D22
10D28:  MOVWF  FAD
....................          SendDataDisplay(); 
10D2A:  CALL   456A
....................          printf("va0.val=2"); 
10D2E:  MOVLW  98
10D30:  MOVWF  FF6
10D32:  MOVLW  08
10D34:  MOVWF  FF7
10D36:  MOVLW  00
10D38:  MOVWF  FF8
10D3A:  CALL   4538
....................          SendDataDisplay(); 
10D3E:  CALL   456A
....................       }else if(Digito==3){ 
10D42:  GOTO   10E46
10D46:  MOVLB  2
10D48:  MOVF   xD0,W
10D4A:  SUBLW  03
10D4C:  BTFSS  FD8.2
10D4E:  GOTO   10DC2
....................          printf("t0.txt=\"%u%u%u\"",Contrasena[0],Contrasena[1],Contrasena[2]); 
10D52:  MOVLW  A2
10D54:  MOVWF  FF6
10D56:  MOVLW  08
10D58:  MOVWF  FF7
10D5A:  MOVLW  00
10D5C:  MOVWF  FF8
10D5E:  MOVLW  08
10D60:  MOVLB  7
10D62:  MOVWF  x0D
10D64:  MOVLB  0
10D66:  CALL   5D0E
10D6A:  MOVFF  371,70D
10D6E:  MOVLW  1B
10D70:  MOVLB  7
10D72:  MOVWF  x0E
10D74:  MOVLB  0
10D76:  CALL   632A
10D7A:  MOVFF  372,70D
10D7E:  MOVLW  1B
10D80:  MOVLB  7
10D82:  MOVWF  x0E
10D84:  MOVLB  0
10D86:  CALL   632A
10D8A:  MOVFF  373,70D
10D8E:  MOVLW  1B
10D90:  MOVLB  7
10D92:  MOVWF  x0E
10D94:  MOVLB  0
10D96:  CALL   632A
10D9A:  MOVLW  22
10D9C:  BTFSS  F9E.4
10D9E:  GOTO   10D9C
10DA2:  MOVWF  FAD
....................          SendDataDisplay(); 
10DA4:  CALL   456A
....................          printf("va0.val=3"); 
10DA8:  MOVLW  B2
10DAA:  MOVWF  FF6
10DAC:  MOVLW  08
10DAE:  MOVWF  FF7
10DB0:  MOVLW  00
10DB2:  MOVWF  FF8
10DB4:  CALL   4538
....................          SendDataDisplay(); 
10DB8:  CALL   456A
....................       }else if(Digito==4){ 
10DBC:  GOTO   10E46
10DC0:  MOVLB  2
10DC2:  MOVF   xD0,W
10DC4:  SUBLW  04
10DC6:  BTFSS  FD8.2
10DC8:  GOTO   10E48
....................          printf("t0.txt=\"%u%u%u%u\"",Contrasena[0],Contrasena[1],Contrasena[2],Contrasena[3]); 
10DCC:  MOVLW  BC
10DCE:  MOVWF  FF6
10DD0:  MOVLW  08
10DD2:  MOVWF  FF7
10DD4:  MOVLW  00
10DD6:  MOVWF  FF8
10DD8:  MOVLW  08
10DDA:  MOVLB  7
10DDC:  MOVWF  x0D
10DDE:  MOVLB  0
10DE0:  CALL   5D0E
10DE4:  MOVFF  371,70D
10DE8:  MOVLW  1B
10DEA:  MOVLB  7
10DEC:  MOVWF  x0E
10DEE:  MOVLB  0
10DF0:  CALL   632A
10DF4:  MOVFF  372,70D
10DF8:  MOVLW  1B
10DFA:  MOVLB  7
10DFC:  MOVWF  x0E
10DFE:  MOVLB  0
10E00:  CALL   632A
10E04:  MOVFF  373,70D
10E08:  MOVLW  1B
10E0A:  MOVLB  7
10E0C:  MOVWF  x0E
10E0E:  MOVLB  0
10E10:  CALL   632A
10E14:  MOVFF  374,70D
10E18:  MOVLW  1B
10E1A:  MOVLB  7
10E1C:  MOVWF  x0E
10E1E:  MOVLB  0
10E20:  CALL   632A
10E24:  MOVLW  22
10E26:  BTFSS  F9E.4
10E28:  GOTO   10E26
10E2C:  MOVWF  FAD
....................          SendDataDisplay(); 
10E2E:  CALL   456A
....................          printf("va0.val=4"); 
10E32:  MOVLW  CE
10E34:  MOVWF  FF6
10E36:  MOVLW  08
10E38:  MOVWF  FF7
10E3A:  MOVLW  00
10E3C:  MOVWF  FF8
10E3E:  CALL   4538
....................          SendDataDisplay(); 
10E42:  CALL   456A
10E46:  MOVLB  2
....................       } 
....................        
....................       if(UP){ 
10E48:  BSF    F93.0
10E4A:  BTFSC  F81.0
10E4C:  GOTO   10EA4
....................          delay_ms(200); 
10E50:  MOVLW  C8
10E52:  MOVLB  7
10E54:  MOVWF  x1E
10E56:  MOVLB  0
10E58:  CALL   2060
....................          if(UP){ 
10E5C:  BSF    F93.0
10E5E:  BTFSC  F81.0
10E60:  GOTO   10EA6
....................          if(Digito==0) 
10E64:  MOVLB  2
10E66:  MOVF   xD0,F
10E68:  BTFSS  FD8.2
10E6A:  GOTO   10E72
....................             Digito=1; 
10E6E:  MOVLW  01
10E70:  MOVWF  xD0
....................             if(Contrasena[Digito-1]<9) 
10E72:  MOVLW  01
10E74:  SUBWF  xD0,W
10E76:  CLRF   03
10E78:  ADDLW  71
10E7A:  MOVWF  FE9
10E7C:  MOVLW  03
10E7E:  ADDWFC 03,W
10E80:  MOVWF  FEA
10E82:  BTFSC  FEF.7
10E84:  GOTO   10E92
10E88:  MOVF   FEF,W
10E8A:  SUBLW  08
10E8C:  BTFSS  FD8.0
10E8E:  GOTO   10EA4
....................                Contrasena[Digito-1]++; 
10E92:  MOVLW  01
10E94:  SUBWF  xD0,W
10E96:  CLRF   03
10E98:  ADDLW  71
10E9A:  MOVWF  FE9
10E9C:  MOVLW  03
10E9E:  ADDWFC 03,W
10EA0:  MOVWF  FEA
10EA2:  INCF   FEF,F
10EA4:  MOVLB  0
....................          } 
....................       } 
....................        
....................       if(DOWN){ 
10EA6:  BSF    F93.1
10EA8:  BTFSC  F81.1
10EAA:  GOTO   10F04
....................          delay_ms(200); 
10EAE:  MOVLW  C8
10EB0:  MOVLB  7
10EB2:  MOVWF  x1E
10EB4:  MOVLB  0
10EB6:  CALL   2060
....................          if(Digito==0) 
10EBA:  MOVLB  2
10EBC:  MOVF   xD0,F
10EBE:  BTFSS  FD8.2
10EC0:  GOTO   10EC8
....................             Digito=1; 
10EC4:  MOVLW  01
10EC6:  MOVWF  xD0
....................          if(DOWN){ 
10EC8:  BSF    F93.1
10ECA:  BTFSC  F81.1
10ECC:  GOTO   10F02
....................             if(Contrasena[Digito-1]>0) 
10ED0:  MOVLW  01
10ED2:  SUBWF  xD0,W
10ED4:  CLRF   03
10ED6:  ADDLW  71
10ED8:  MOVWF  FE9
10EDA:  MOVLW  03
10EDC:  ADDWFC 03,W
10EDE:  MOVWF  FEA
10EE0:  BTFSC  FEF.7
10EE2:  GOTO   10F02
10EE6:  MOVF   FEF,W
10EE8:  SUBLW  00
10EEA:  BTFSC  FD8.0
10EEC:  GOTO   10F02
....................                Contrasena[Digito-1]--; 
10EF0:  MOVLW  01
10EF2:  SUBWF  xD0,W
10EF4:  CLRF   03
10EF6:  ADDLW  71
10EF8:  MOVWF  FE9
10EFA:  MOVLW  03
10EFC:  ADDWFC 03,W
10EFE:  MOVWF  FEA
10F00:  DECF   FEF,F
10F02:  MOVLB  0
....................          } 
....................       } 
....................        
....................       if(RIGHT){ 
10F04:  BSF    F93.2
10F06:  BTFSC  F81.2
10F08:  GOTO   10F26
....................          delay_ms(200); 
10F0C:  MOVLW  C8
10F0E:  MOVLB  7
10F10:  MOVWF  x1E
10F12:  MOVLB  0
10F14:  CALL   2060
....................          if(RIGHT){ 
10F18:  BSF    F93.2
10F1A:  BTFSC  F81.2
10F1C:  GOTO   10F26
....................             Digito++; 
10F20:  MOVLB  2
10F22:  INCF   xD0,F
10F24:  MOVLB  0
....................          } 
....................       } 
....................        
....................       if(Digito>4){ 
10F26:  MOVLB  2
10F28:  MOVF   xD0,W
10F2A:  SUBLW  04
10F2C:  BTFSC  FD8.0
10F2E:  GOTO   112E6
....................       Digito=0; 
10F32:  CLRF   xD0
....................       printf("t0.txt=\"\""); 
10F34:  MOVLW  D8
10F36:  MOVWF  FF6
10F38:  MOVLW  08
10F3A:  MOVWF  FF7
10F3C:  MOVLW  00
10F3E:  MOVWF  FF8
10F40:  MOVLB  0
10F42:  CALL   4538
....................       SendDataDisplay(); 
10F46:  CALL   456A
....................          if(TipoClave==0){ 
10F4A:  MOVLB  2
10F4C:  MOVF   xCE,F
10F4E:  BTFSS  FD8.2
10F50:  GOTO   110CA
....................             if(Contrasena[0]==3&&Contrasena[1]==8&&Contrasena[2]==9&&Contrasena[3]==2){ // Si Ingresa clave para reset general del sistema. 
10F54:  MOVLB  3
10F56:  MOVF   x71,W
10F58:  SUBLW  03
10F5A:  BTFSS  FD8.2
10F5C:  GOTO   1106A
10F60:  MOVF   x72,W
10F62:  SUBLW  08
10F64:  BTFSS  FD8.2
10F66:  GOTO   1106A
10F6A:  MOVF   x73,W
10F6C:  SUBLW  09
10F6E:  BTFSS  FD8.2
10F70:  GOTO   1106A
10F74:  MOVF   x74,W
10F76:  SUBLW  02
10F78:  BTFSS  FD8.2
10F7A:  GOTO   1106A
....................                write_eeprom(10,0);delay_ms(20);write_eeprom(11,0);delay_ms(20);// Reestablece a contrasea de Fabrica y reinicia Programa. 
10F7E:  CLRF   FAA
10F80:  MOVLW  0A
10F82:  MOVWF  FA9
10F84:  CLRF   FA8
10F86:  BCF    FA6.6
10F88:  BCF    FA6.7
10F8A:  BSF    FA6.2
10F8C:  MOVF   FF2,W
10F8E:  MOVWF  00
10F90:  BCF    FF2.6
10F92:  BCF    FF2.7
10F94:  MOVLB  F
10F96:  MOVLW  55
10F98:  MOVWF  FA7
10F9A:  MOVLW  AA
10F9C:  MOVWF  FA7
10F9E:  BSF    FA6.1
10FA0:  BTFSC  FA6.1
10FA2:  GOTO   10FA0
10FA6:  BCF    FA6.2
10FA8:  MOVF   00,W
10FAA:  IORWF  FF2,F
10FAC:  MOVLW  14
10FAE:  MOVLB  7
10FB0:  MOVWF  x1E
10FB2:  MOVLB  0
10FB4:  CALL   2060
10FB8:  CLRF   FAA
10FBA:  MOVLW  0B
10FBC:  MOVWF  FA9
10FBE:  CLRF   FA8
10FC0:  BCF    FA6.6
10FC2:  BCF    FA6.7
10FC4:  BSF    FA6.2
10FC6:  MOVF   FF2,W
10FC8:  MOVWF  00
10FCA:  BCF    FF2.6
10FCC:  BCF    FF2.7
10FCE:  MOVLB  F
10FD0:  MOVLW  55
10FD2:  MOVWF  FA7
10FD4:  MOVLW  AA
10FD6:  MOVWF  FA7
10FD8:  BSF    FA6.1
10FDA:  BTFSC  FA6.1
10FDC:  GOTO   10FDA
10FE0:  BCF    FA6.2
10FE2:  MOVF   00,W
10FE4:  IORWF  FF2,F
10FE6:  MOVLW  14
10FE8:  MOVLB  7
10FEA:  MOVWF  x1E
10FEC:  MOVLB  0
10FEE:  CALL   2060
....................                write_eeprom(12,0);delay_ms(20);write_eeprom(13,0);delay_ms(20); 
10FF2:  CLRF   FAA
10FF4:  MOVLW  0C
10FF6:  MOVWF  FA9
10FF8:  CLRF   FA8
10FFA:  BCF    FA6.6
10FFC:  BCF    FA6.7
10FFE:  BSF    FA6.2
11000:  MOVF   FF2,W
11002:  MOVWF  00
11004:  BCF    FF2.6
11006:  BCF    FF2.7
11008:  MOVLB  F
1100A:  MOVLW  55
1100C:  MOVWF  FA7
1100E:  MOVLW  AA
11010:  MOVWF  FA7
11012:  BSF    FA6.1
11014:  BTFSC  FA6.1
11016:  GOTO   11014
1101A:  BCF    FA6.2
1101C:  MOVF   00,W
1101E:  IORWF  FF2,F
11020:  MOVLW  14
11022:  MOVLB  7
11024:  MOVWF  x1E
11026:  MOVLB  0
11028:  CALL   2060
1102C:  CLRF   FAA
1102E:  MOVLW  0D
11030:  MOVWF  FA9
11032:  CLRF   FA8
11034:  BCF    FA6.6
11036:  BCF    FA6.7
11038:  BSF    FA6.2
1103A:  MOVF   FF2,W
1103C:  MOVWF  00
1103E:  BCF    FF2.6
11040:  BCF    FF2.7
11042:  MOVLB  F
11044:  MOVLW  55
11046:  MOVWF  FA7
11048:  MOVLW  AA
1104A:  MOVWF  FA7
1104C:  BSF    FA6.1
1104E:  BTFSC  FA6.1
11050:  GOTO   1104E
11054:  BCF    FA6.2
11056:  MOVF   00,W
11058:  IORWF  FF2,F
1105A:  MOVLW  14
1105C:  MOVLB  7
1105E:  MOVWF  x1E
11060:  MOVLB  0
11062:  CALL   2060
....................                reset_cpu(); 
11066:  RESET
11068:  MOVLB  3
....................             } 
....................             if((Contrasena[0]==Password[0])&&(Contrasena[1]==Password[1])&&(Contrasena[2]==Password[2])&&(Contrasena[3]==Password[3])){ 
1106A:  MOVF   x75,W
1106C:  SUBWF  x71,W
1106E:  BTFSS  FD8.2
11070:  GOTO   110AE
11074:  MOVF   x76,W
11076:  SUBWF  x72,W
11078:  BTFSS  FD8.2
1107A:  GOTO   110AE
1107E:  MOVF   x77,W
11080:  SUBWF  x73,W
11082:  BTFSS  FD8.2
11084:  GOTO   110AE
11088:  MOVF   x78,W
1108A:  SUBWF  x74,W
1108C:  BTFSS  FD8.2
1108E:  GOTO   110AE
....................                printf("page ClaveCorrecta"); 
11092:  MOVLW  E2
11094:  MOVWF  FF6
11096:  MOVLW  08
11098:  MOVWF  FF7
1109A:  MOVLW  00
1109C:  MOVWF  FF8
1109E:  MOVLB  0
110A0:  CALL   4538
....................                SendDataDisplay(); 
110A4:  CALL   456A
....................             }else{ 
110A8:  GOTO   110C4
110AC:  MOVLB  3
....................                printf("page ClaveBad"); 
110AE:  MOVLW  F6
110B0:  MOVWF  FF6
110B2:  MOVLW  08
110B4:  MOVWF  FF7
110B6:  MOVLW  00
110B8:  MOVWF  FF8
110BA:  MOVLB  0
110BC:  CALL   4538
....................                SendDataDisplay(); 
110C0:  CALL   456A
....................             }  
....................          }else if(TipoClave==1){ 
110C4:  GOTO   112E4
110C8:  MOVLB  2
110CA:  DECFSZ xCE,W
110CC:  GOTO   11132
....................             if(Contrasena[0]==4&&Contrasena[1]==4&&Contrasena[2]==4&&Contrasena[3]==4){ // Si Ingresa clave de Servicio Tecnico 
110D0:  MOVLB  3
110D2:  MOVF   x71,W
110D4:  SUBLW  04
110D6:  BTFSS  FD8.2
110D8:  GOTO   11116
110DC:  MOVF   x72,W
110DE:  SUBLW  04
110E0:  BTFSS  FD8.2
110E2:  GOTO   11116
110E6:  MOVF   x73,W
110E8:  SUBLW  04
110EA:  BTFSS  FD8.2
110EC:  GOTO   11116
110F0:  MOVF   x74,W
110F2:  SUBLW  04
110F4:  BTFSS  FD8.2
110F6:  GOTO   11116
....................                printf("page Config"); 
110FA:  MOVLW  04
110FC:  MOVWF  FF6
110FE:  MOVLW  09
11100:  MOVWF  FF7
11102:  MOVLW  00
11104:  MOVWF  FF8
11106:  MOVLB  0
11108:  CALL   4538
....................                SendDataDisplay(); 
1110C:  CALL   456A
....................             }else{ 
11110:  GOTO   1112C
11114:  MOVLB  3
....................                printf("page MenuPrincipal"); 
11116:  MOVLW  10
11118:  MOVWF  FF6
1111A:  MOVLW  09
1111C:  MOVWF  FF7
1111E:  MOVLW  00
11120:  MOVWF  FF8
11122:  MOVLB  0
11124:  CALL   4538
....................                SendDataDisplay(); 
11128:  CALL   456A
....................             } 
....................          }else if(TipoClave==2){ 
1112C:  GOTO   112E4
11130:  MOVLB  2
11132:  MOVF   xCE,W
11134:  SUBLW  02
11136:  BTFSS  FD8.2
11138:  GOTO   111B8
....................             if((Contrasena[0]==Password[0])&&(Contrasena[1]==Password[1])&&(Contrasena[2]==Password[2])&&(Contrasena[3]==Password[3])){ 
1113C:  MOVLB  3
1113E:  MOVF   x75,W
11140:  SUBWF  x71,W
11142:  BTFSS  FD8.2
11144:  GOTO   1119C
11148:  MOVF   x76,W
1114A:  SUBWF  x72,W
1114C:  BTFSS  FD8.2
1114E:  GOTO   1119C
11152:  MOVF   x77,W
11154:  SUBWF  x73,W
11156:  BTFSS  FD8.2
11158:  GOTO   1119C
1115C:  MOVF   x78,W
1115E:  SUBWF  x74,W
11160:  BTFSS  FD8.2
11162:  GOTO   1119C
....................                printf("page Clave"); 
11166:  MOVLW  24
11168:  MOVWF  FF6
1116A:  MOVLW  09
1116C:  MOVWF  FF7
1116E:  MOVLW  00
11170:  MOVWF  FF8
11172:  MOVLB  0
11174:  CALL   4538
....................                SendDataDisplay(); 
11178:  CALL   456A
....................                printf("titulo.txt=\"Clave Nueva\""); 
1117C:  MOVLW  30
1117E:  MOVWF  FF6
11180:  MOVLW  09
11182:  MOVWF  FF7
11184:  MOVLW  00
11186:  MOVWF  FF8
11188:  CALL   4538
....................                SendDataDisplay(); 
1118C:  CALL   456A
....................                TipoClave=3; 
11190:  MOVLW  03
11192:  MOVLB  2
11194:  MOVWF  xCE
....................             }else{ 
11196:  GOTO   111B4
1119A:  MOVLB  3
....................                printf("page MenuPrincipal"); 
1119C:  MOVLW  4A
1119E:  MOVWF  FF6
111A0:  MOVLW  09
111A2:  MOVWF  FF7
111A4:  MOVLW  00
111A6:  MOVWF  FF8
111A8:  MOVLB  0
111AA:  CALL   4538
....................                SendDataDisplay(); 
111AE:  CALL   456A
111B2:  MOVLB  2
....................             }  
....................          }else if(TipoClave==3){ 
111B4:  GOTO   112E6
111B8:  MOVF   xCE,W
111BA:  SUBLW  03
111BC:  BTFSS  FD8.2
111BE:  GOTO   112E6
....................             printf("titulo.txt=\"Clave Nueva\""); 
111C2:  MOVLW  5E
111C4:  MOVWF  FF6
111C6:  MOVLW  09
111C8:  MOVWF  FF7
111CA:  MOVLW  00
111CC:  MOVWF  FF8
111CE:  MOVLB  0
111D0:  CALL   4538
....................             SendDataDisplay(); 
111D4:  CALL   456A
....................             printf("page MenuPrincipal"); 
111D8:  MOVLW  78
111DA:  MOVWF  FF6
111DC:  MOVLW  09
111DE:  MOVWF  FF7
111E0:  MOVLW  00
111E2:  MOVWF  FF8
111E4:  CALL   4538
....................             SendDataDisplay(); 
111E8:  CALL   456A
....................             if(!GuardaEEPROM){ 
111EC:  BTFSC  xA2.2
111EE:  GOTO   112E4
....................                write_eeprom(10,Contrasena[0]);delay_ms(20);write_eeprom(11,Contrasena[1]);delay_ms(20); 
111F2:  CLRF   FAA
111F4:  MOVLW  0A
111F6:  MOVWF  FA9
111F8:  MOVFF  371,FA8
111FC:  BCF    FA6.6
111FE:  BCF    FA6.7
11200:  BSF    FA6.2
11202:  MOVF   FF2,W
11204:  MOVWF  00
11206:  BCF    FF2.6
11208:  BCF    FF2.7
1120A:  MOVLB  F
1120C:  MOVLW  55
1120E:  MOVWF  FA7
11210:  MOVLW  AA
11212:  MOVWF  FA7
11214:  BSF    FA6.1
11216:  BTFSC  FA6.1
11218:  GOTO   11216
1121C:  BCF    FA6.2
1121E:  MOVF   00,W
11220:  IORWF  FF2,F
11222:  MOVLW  14
11224:  MOVLB  7
11226:  MOVWF  x1E
11228:  MOVLB  0
1122A:  CALL   2060
1122E:  CLRF   FAA
11230:  MOVLW  0B
11232:  MOVWF  FA9
11234:  MOVFF  372,FA8
11238:  BCF    FA6.6
1123A:  BCF    FA6.7
1123C:  BSF    FA6.2
1123E:  MOVF   FF2,W
11240:  MOVWF  00
11242:  BCF    FF2.6
11244:  BCF    FF2.7
11246:  MOVLB  F
11248:  MOVLW  55
1124A:  MOVWF  FA7
1124C:  MOVLW  AA
1124E:  MOVWF  FA7
11250:  BSF    FA6.1
11252:  BTFSC  FA6.1
11254:  GOTO   11252
11258:  BCF    FA6.2
1125A:  MOVF   00,W
1125C:  IORWF  FF2,F
1125E:  MOVLW  14
11260:  MOVLB  7
11262:  MOVWF  x1E
11264:  MOVLB  0
11266:  CALL   2060
....................                write_eeprom(12,Contrasena[2]);delay_ms(20);write_eeprom(13,Contrasena[3]);delay_ms(20); 
1126A:  CLRF   FAA
1126C:  MOVLW  0C
1126E:  MOVWF  FA9
11270:  MOVFF  373,FA8
11274:  BCF    FA6.6
11276:  BCF    FA6.7
11278:  BSF    FA6.2
1127A:  MOVF   FF2,W
1127C:  MOVWF  00
1127E:  BCF    FF2.6
11280:  BCF    FF2.7
11282:  MOVLB  F
11284:  MOVLW  55
11286:  MOVWF  FA7
11288:  MOVLW  AA
1128A:  MOVWF  FA7
1128C:  BSF    FA6.1
1128E:  BTFSC  FA6.1
11290:  GOTO   1128E
11294:  BCF    FA6.2
11296:  MOVF   00,W
11298:  IORWF  FF2,F
1129A:  MOVLW  14
1129C:  MOVLB  7
1129E:  MOVWF  x1E
112A0:  MOVLB  0
112A2:  CALL   2060
112A6:  CLRF   FAA
112A8:  MOVLW  0D
112AA:  MOVWF  FA9
112AC:  MOVFF  374,FA8
112B0:  BCF    FA6.6
112B2:  BCF    FA6.7
112B4:  BSF    FA6.2
112B6:  MOVF   FF2,W
112B8:  MOVWF  00
112BA:  BCF    FF2.6
112BC:  BCF    FF2.7
112BE:  MOVLB  F
112C0:  MOVLW  55
112C2:  MOVWF  FA7
112C4:  MOVLW  AA
112C6:  MOVWF  FA7
112C8:  BSF    FA6.1
112CA:  BTFSC  FA6.1
112CC:  GOTO   112CA
112D0:  BCF    FA6.2
112D2:  MOVF   00,W
112D4:  IORWF  FF2,F
112D6:  MOVLW  14
112D8:  MOVLB  7
112DA:  MOVWF  x1E
112DC:  MOVLB  0
112DE:  CALL   2060
....................                GuardaEEPROM=ON; 
112E2:  BSF    xA2.2
112E4:  MOVLB  2
....................             } 
....................          } 
....................       } 
....................        
....................       if(RX_Buffer[4]==0x11){//11 
112E6:  MOVF   34,W
112E8:  SUBLW  11
112EA:  BTFSS  FD8.2
112EC:  GOTO   11312
....................          if(TipoClave!=0){ 
112F0:  MOVF   xCE,F
112F2:  BTFSC  FD8.2
112F4:  GOTO   11312
....................             printf("page MenuPrincipal"); 
112F8:  MOVLW  8C
112FA:  MOVWF  FF6
112FC:  MOVLW  09
112FE:  MOVWF  FF7
11300:  MOVLW  00
11302:  MOVWF  FF8
11304:  MOVLB  0
11306:  CALL   4538
....................             SendDataDisplay(); 
1130A:  CALL   456A
....................             PantallaPrincipal=0; 
1130E:  MOVLB  2
11310:  CLRF   xCD
....................          } 
....................       } 
....................        
....................       if(TipoClave==3){ 
11312:  MOVF   xCE,W
11314:  SUBLW  03
11316:  BTFSS  FD8.2
11318:  GOTO   1134C
....................          printf("titulo.txt=\"Clave Nueva\""); 
1131C:  MOVLW  A0
1131E:  MOVWF  FF6
11320:  MOVLW  09
11322:  MOVWF  FF7
11324:  MOVLW  00
11326:  MOVWF  FF8
11328:  MOVLB  0
1132A:  CALL   4538
....................          SendDataDisplay(); 
1132E:  CALL   456A
....................          printf("doevents"); 
11332:  MOVLW  BA
11334:  MOVWF  FF6
11336:  MOVLW  09
11338:  MOVWF  FF7
1133A:  MOVLW  00
1133C:  MOVWF  FF8
1133E:  CALL   4538
....................          SendDataDisplay(); 
11342:  CALL   456A
....................       }else if(TipoClave==2){ 
11346:  GOTO   113DA
1134A:  MOVLB  2
1134C:  MOVF   xCE,W
1134E:  SUBLW  02
11350:  BTFSS  FD8.2
11352:  GOTO   11386
....................          printf("titulo.txt=\"Clave Actual\""); 
11356:  MOVLW  C4
11358:  MOVWF  FF6
1135A:  MOVLW  09
1135C:  MOVWF  FF7
1135E:  MOVLW  00
11360:  MOVWF  FF8
11362:  MOVLB  0
11364:  CALL   4538
....................          SendDataDisplay(); 
11368:  CALL   456A
....................          printf("doevents"); 
1136C:  MOVLW  DE
1136E:  MOVWF  FF6
11370:  MOVLW  09
11372:  MOVWF  FF7
11374:  MOVLW  00
11376:  MOVWF  FF8
11378:  CALL   4538
....................          SendDataDisplay(); 
1137C:  CALL   456A
....................       }else if(TipoClave==1){ 
11380:  GOTO   113DA
11384:  MOVLB  2
11386:  DECFSZ xCE,W
11388:  GOTO   113BC
....................          printf("titulo.txt=\"Clave Tecnico\""); 
1138C:  MOVLW  E8
1138E:  MOVWF  FF6
11390:  MOVLW  09
11392:  MOVWF  FF7
11394:  MOVLW  00
11396:  MOVWF  FF8
11398:  MOVLB  0
1139A:  CALL   4538
....................          SendDataDisplay(); 
1139E:  CALL   456A
....................          printf("doevents"); 
113A2:  MOVLW  04
113A4:  MOVWF  FF6
113A6:  MOVLW  0A
113A8:  MOVWF  FF7
113AA:  MOVLW  00
113AC:  MOVWF  FF8
113AE:  CALL   4538
....................          SendDataDisplay(); 
113B2:  CALL   456A
....................       }else if(TipoClave==0){ 
113B6:  GOTO   113DA
113BA:  MOVLB  2
113BC:  MOVF   xCE,F
113BE:  BTFSS  FD8.2
113C0:  GOTO   113DC
....................          printf("titulo.txt=\"Ingrese Contrasea\""); 
113C4:  MOVLW  0E
113C6:  MOVWF  FF6
113C8:  MOVLW  0A
113CA:  MOVWF  FF7
113CC:  MOVLW  00
113CE:  MOVWF  FF8
113D0:  MOVLB  0
113D2:  CALL   4538
....................          SendDataDisplay(); 
113D6:  CALL   456A
113DA:  MOVLB  2
....................       } 
....................        
....................       if(RX_Buffer[3]==0x0f){//0f, recibe caracteres ingresados desde el Display 
113DC:  MOVF   33,W
113DE:  SUBLW  0F
113E0:  BTFSS  FD8.2
113E2:  GOTO   11862
....................          if(TipoClave==0){ 
113E6:  MOVF   xCE,F
113E8:  BTFSS  FD8.2
113EA:  GOTO   115C4
....................             if(RX_Buffer[4]==0x33&&RX_Buffer[5]==0x38&&RX_Buffer[6]==0x39&&RX_Buffer[7]==0x32){ // Si Ingresa clave para reset general del sistema. 
113EE:  MOVF   34,W
113F0:  SUBLW  33
113F2:  BTFSS  FD8.2
113F4:  GOTO   11502
113F8:  MOVF   35,W
113FA:  SUBLW  38
113FC:  BTFSS  FD8.2
113FE:  GOTO   11502
11402:  MOVF   36,W
11404:  SUBLW  39
11406:  BTFSS  FD8.2
11408:  GOTO   11502
1140C:  MOVF   37,W
1140E:  SUBLW  32
11410:  BTFSS  FD8.2
11412:  GOTO   11502
....................                write_eeprom(10,0);delay_ms(20);write_eeprom(11,0);delay_ms(20);// Reestablece a contrasea de Fabrica y reinicia Programa. 
11416:  CLRF   FAA
11418:  MOVLW  0A
1141A:  MOVWF  FA9
1141C:  CLRF   FA8
1141E:  BCF    FA6.6
11420:  BCF    FA6.7
11422:  BSF    FA6.2
11424:  MOVF   FF2,W
11426:  MOVWF  00
11428:  BCF    FF2.6
1142A:  BCF    FF2.7
1142C:  MOVLB  F
1142E:  MOVLW  55
11430:  MOVWF  FA7
11432:  MOVLW  AA
11434:  MOVWF  FA7
11436:  BSF    FA6.1
11438:  BTFSC  FA6.1
1143A:  GOTO   11438
1143E:  BCF    FA6.2
11440:  MOVF   00,W
11442:  IORWF  FF2,F
11444:  MOVLW  14
11446:  MOVLB  7
11448:  MOVWF  x1E
1144A:  MOVLB  0
1144C:  CALL   2060
11450:  CLRF   FAA
11452:  MOVLW  0B
11454:  MOVWF  FA9
11456:  CLRF   FA8
11458:  BCF    FA6.6
1145A:  BCF    FA6.7
1145C:  BSF    FA6.2
1145E:  MOVF   FF2,W
11460:  MOVWF  00
11462:  BCF    FF2.6
11464:  BCF    FF2.7
11466:  MOVLB  F
11468:  MOVLW  55
1146A:  MOVWF  FA7
1146C:  MOVLW  AA
1146E:  MOVWF  FA7
11470:  BSF    FA6.1
11472:  BTFSC  FA6.1
11474:  GOTO   11472
11478:  BCF    FA6.2
1147A:  MOVF   00,W
1147C:  IORWF  FF2,F
1147E:  MOVLW  14
11480:  MOVLB  7
11482:  MOVWF  x1E
11484:  MOVLB  0
11486:  CALL   2060
....................                write_eeprom(12,0);delay_ms(20);write_eeprom(13,0);delay_ms(20); 
1148A:  CLRF   FAA
1148C:  MOVLW  0C
1148E:  MOVWF  FA9
11490:  CLRF   FA8
11492:  BCF    FA6.6
11494:  BCF    FA6.7
11496:  BSF    FA6.2
11498:  MOVF   FF2,W
1149A:  MOVWF  00
1149C:  BCF    FF2.6
1149E:  BCF    FF2.7
114A0:  MOVLB  F
114A2:  MOVLW  55
114A4:  MOVWF  FA7
114A6:  MOVLW  AA
114A8:  MOVWF  FA7
114AA:  BSF    FA6.1
114AC:  BTFSC  FA6.1
114AE:  GOTO   114AC
114B2:  BCF    FA6.2
114B4:  MOVF   00,W
114B6:  IORWF  FF2,F
114B8:  MOVLW  14
114BA:  MOVLB  7
114BC:  MOVWF  x1E
114BE:  MOVLB  0
114C0:  CALL   2060
114C4:  CLRF   FAA
114C6:  MOVLW  0D
114C8:  MOVWF  FA9
114CA:  CLRF   FA8
114CC:  BCF    FA6.6
114CE:  BCF    FA6.7
114D0:  BSF    FA6.2
114D2:  MOVF   FF2,W
114D4:  MOVWF  00
114D6:  BCF    FF2.6
114D8:  BCF    FF2.7
114DA:  MOVLB  F
114DC:  MOVLW  55
114DE:  MOVWF  FA7
114E0:  MOVLW  AA
114E2:  MOVWF  FA7
114E4:  BSF    FA6.1
114E6:  BTFSC  FA6.1
114E8:  GOTO   114E6
114EC:  BCF    FA6.2
114EE:  MOVF   00,W
114F0:  IORWF  FF2,F
114F2:  MOVLW  14
114F4:  MOVLB  7
114F6:  MOVWF  x1E
114F8:  MOVLB  0
114FA:  CALL   2060
....................                reset_cpu(); 
114FE:  RESET
11500:  MOVLB  2
....................             } 
....................             if(RX_Buffer[4]>=0x30 && RX_Buffer[5]>=0x30 && RX_Buffer[6]>=0x30 && RX_Buffer[7]>=0x30 
....................             && RX_Buffer[4]<=0x39 && RX_Buffer[5]<=0x39 && RX_Buffer[6]<=0x39 && RX_Buffer[7]<=0x39){ 
11502:  MOVF   34,W
11504:  SUBLW  2F
11506:  BTFSC  FD8.0
11508:  GOTO   115C0
1150C:  MOVF   35,W
1150E:  SUBLW  2F
11510:  BTFSC  FD8.0
11512:  GOTO   115C0
11516:  MOVF   36,W
11518:  SUBLW  2F
1151A:  BTFSC  FD8.0
1151C:  GOTO   115C0
11520:  MOVF   37,W
11522:  SUBLW  2F
11524:  BTFSC  FD8.0
11526:  GOTO   115C0
1152A:  MOVF   34,W
1152C:  SUBLW  39
1152E:  BTFSS  FD8.0
11530:  GOTO   115C0
11534:  MOVF   35,W
11536:  SUBLW  39
11538:  BTFSS  FD8.0
1153A:  GOTO   115C0
1153E:  MOVF   36,W
11540:  SUBLW  39
11542:  BTFSS  FD8.0
11544:  GOTO   115C0
11548:  MOVF   37,W
1154A:  SUBLW  39
1154C:  BTFSS  FD8.0
1154E:  GOTO   115C0
....................             if((RX_Buffer[4]==Password[0]+0x30)&&(RX_Buffer[5]==Password[1]+0x30)&&(RX_Buffer[6]==Password[2]+0x30)&&(RX_Buffer[7]==Password[3]+0x30)){ 
11552:  MOVLW  30
11554:  MOVLB  3
11556:  ADDWF  x75,W
11558:  SUBWF  34,W
1155A:  BTFSS  FD8.2
1155C:  GOTO   115A4
11560:  MOVLW  30
11562:  ADDWF  x76,W
11564:  SUBWF  35,W
11566:  BTFSS  FD8.2
11568:  GOTO   115A4
1156C:  MOVLW  30
1156E:  ADDWF  x77,W
11570:  SUBWF  36,W
11572:  BTFSS  FD8.2
11574:  GOTO   115A4
11578:  MOVLW  30
1157A:  ADDWF  x78,W
1157C:  SUBWF  37,W
1157E:  BTFSS  FD8.2
11580:  GOTO   115A4
....................                   printf("page ClaveCorrecta"); 
11584:  MOVLW  2E
11586:  MOVWF  FF6
11588:  MOVLW  0A
1158A:  MOVWF  FF7
1158C:  MOVLW  00
1158E:  MOVWF  FF8
11590:  MOVLB  0
11592:  CALL   4538
....................                   SendDataDisplay(); 
11596:  CALL   456A
....................                   RX_Buffer[3]=0x00;RX_Buffer2[3]=0x00;   
1159A:  CLRF   33
1159C:  CLRF   3E
....................                }else{ 
1159E:  GOTO   115BE
115A2:  MOVLB  3
....................                   printf("page ClaveBad"); 
115A4:  MOVLW  42
115A6:  MOVWF  FF6
115A8:  MOVLW  0A
115AA:  MOVWF  FF7
115AC:  MOVLW  00
115AE:  MOVWF  FF8
115B0:  MOVLB  0
115B2:  CALL   4538
....................                   SendDataDisplay(); 
115B6:  CALL   456A
....................                   RX_Buffer[3]=0x00;RX_Buffer2[3]=0x00;   
115BA:  CLRF   33
115BC:  CLRF   3E
115BE:  MOVLB  2
....................                }  
....................             } 
....................          }else if(TipoClave==1){ 
115C0:  GOTO   11862
115C4:  DECFSZ xCE,W
115C6:  GOTO   1162A
....................             if(RX_Buffer[4]==0x34&&RX_Buffer[5]==0x34&&RX_Buffer[6]==0x34&&RX_Buffer[7]==0x34){ // Si Ingresa clave de Servicio Tecnico 
115CA:  MOVF   34,W
115CC:  SUBLW  34
115CE:  BTFSS  FD8.2
115D0:  GOTO   1160E
115D4:  MOVF   35,W
115D6:  SUBLW  34
115D8:  BTFSS  FD8.2
115DA:  GOTO   1160E
115DE:  MOVF   36,W
115E0:  SUBLW  34
115E2:  BTFSS  FD8.2
115E4:  GOTO   1160E
115E8:  MOVF   37,W
115EA:  SUBLW  34
115EC:  BTFSS  FD8.2
115EE:  GOTO   1160E
....................                printf("page Config"); 
115F2:  MOVLW  50
115F4:  MOVWF  FF6
115F6:  MOVLW  0A
115F8:  MOVWF  FF7
115FA:  MOVLW  00
115FC:  MOVWF  FF8
115FE:  MOVLB  0
11600:  CALL   4538
....................                SendDataDisplay(); 
11604:  CALL   456A
....................             }else{ 
11608:  GOTO   11624
1160C:  MOVLB  2
....................                printf("page MenuPrincipal"); 
1160E:  MOVLW  5C
11610:  MOVWF  FF6
11612:  MOVLW  0A
11614:  MOVWF  FF7
11616:  MOVLW  00
11618:  MOVWF  FF8
1161A:  MOVLB  0
1161C:  CALL   4538
....................                SendDataDisplay(); 
11620:  CALL   456A
....................             } 
....................          }else if(TipoClave==2){ 
11624:  GOTO   11860
11628:  MOVLB  2
1162A:  MOVF   xCE,W
1162C:  SUBLW  02
1162E:  BTFSS  FD8.2
11630:  GOTO   11710
....................             if(RX_Buffer[4]>=0x30 && RX_Buffer[5]>=0x30 && RX_Buffer[6]>=0x30 && RX_Buffer[7]>=0x30 
....................             && RX_Buffer[4]<=0x39 && RX_Buffer[5]<=0x39 && RX_Buffer[6]<=0x39 && RX_Buffer[7]<=0x39){ 
11634:  MOVF   34,W
11636:  SUBLW  2F
11638:  BTFSC  FD8.0
1163A:  GOTO   1170C
1163E:  MOVF   35,W
11640:  SUBLW  2F
11642:  BTFSC  FD8.0
11644:  GOTO   1170C
11648:  MOVF   36,W
1164A:  SUBLW  2F
1164C:  BTFSC  FD8.0
1164E:  GOTO   1170C
11652:  MOVF   37,W
11654:  SUBLW  2F
11656:  BTFSC  FD8.0
11658:  GOTO   1170C
1165C:  MOVF   34,W
1165E:  SUBLW  39
11660:  BTFSS  FD8.0
11662:  GOTO   1170C
11666:  MOVF   35,W
11668:  SUBLW  39
1166A:  BTFSS  FD8.0
1166C:  GOTO   1170C
11670:  MOVF   36,W
11672:  SUBLW  39
11674:  BTFSS  FD8.0
11676:  GOTO   1170C
1167A:  MOVF   37,W
1167C:  SUBLW  39
1167E:  BTFSS  FD8.0
11680:  GOTO   1170C
....................             if((RX_Buffer[4]==Password[0]+0x30)&&(RX_Buffer[5]==Password[1]+0x30)&&(RX_Buffer[6]==Password[2]+0x30)&&(RX_Buffer[7]==Password[3]+0x30)){ 
11684:  MOVLW  30
11686:  MOVLB  3
11688:  ADDWF  x75,W
1168A:  SUBWF  34,W
1168C:  BTFSS  FD8.2
1168E:  GOTO   116F0
11692:  MOVLW  30
11694:  ADDWF  x76,W
11696:  SUBWF  35,W
11698:  BTFSS  FD8.2
1169A:  GOTO   116F0
1169E:  MOVLW  30
116A0:  ADDWF  x77,W
116A2:  SUBWF  36,W
116A4:  BTFSS  FD8.2
116A6:  GOTO   116F0
116AA:  MOVLW  30
116AC:  ADDWF  x78,W
116AE:  SUBWF  37,W
116B0:  BTFSS  FD8.2
116B2:  GOTO   116F0
....................                printf("page Clave"); 
116B6:  MOVLW  70
116B8:  MOVWF  FF6
116BA:  MOVLW  0A
116BC:  MOVWF  FF7
116BE:  MOVLW  00
116C0:  MOVWF  FF8
116C2:  MOVLB  0
116C4:  CALL   4538
....................                SendDataDisplay(); 
116C8:  CALL   456A
....................                printf("titulo.txt=\"Clave Nueva\""); 
116CC:  MOVLW  7C
116CE:  MOVWF  FF6
116D0:  MOVLW  0A
116D2:  MOVWF  FF7
116D4:  MOVLW  00
116D6:  MOVWF  FF8
116D8:  CALL   4538
....................                SendDataDisplay(); 
116DC:  CALL   456A
....................                TipoClave=3; 
116E0:  MOVLW  03
116E2:  MOVLB  2
116E4:  MOVWF  xCE
....................                RX_Buffer[3]=0x00; 
116E6:  CLRF   33
....................                RX_Buffer2[3]=0x00; 
116E8:  CLRF   3E
....................             }else{ 
116EA:  GOTO   1170C
116EE:  MOVLB  3
....................                printf("page MenuPrincipal"); 
116F0:  MOVLW  96
116F2:  MOVWF  FF6
116F4:  MOVLW  0A
116F6:  MOVWF  FF7
116F8:  MOVLW  00
116FA:  MOVWF  FF8
116FC:  MOVLB  0
116FE:  CALL   4538
....................                SendDataDisplay(); 
11702:  CALL   456A
....................                RX_Buffer[3]=0x00; 
11706:  CLRF   33
....................                RX_Buffer2[3]=0x00; 
11708:  CLRF   3E
1170A:  MOVLB  2
....................             }  
....................             } 
....................          }else if(TipoClave==3){ 
1170C:  GOTO   11862
11710:  MOVF   xCE,W
11712:  SUBLW  03
11714:  BTFSS  FD8.2
11716:  GOTO   11862
....................             printf("titulo.txt=\"Clave Nueva\""); 
1171A:  MOVLW  AA
1171C:  MOVWF  FF6
1171E:  MOVLW  0A
11720:  MOVWF  FF7
11722:  MOVLW  00
11724:  MOVWF  FF8
11726:  MOVLB  0
11728:  CALL   4538
....................             SendDataDisplay(); 
1172C:  CALL   456A
....................             printf("page MenuPrincipal"); 
11730:  MOVLW  C4
11732:  MOVWF  FF6
11734:  MOVLW  0A
11736:  MOVWF  FF7
11738:  MOVLW  00
1173A:  MOVWF  FF8
1173C:  CALL   4538
....................             SendDataDisplay(); 
11740:  CALL   456A
....................             if(!GuardaEEPROM){ 
11744:  BTFSC  xA2.2
11746:  GOTO   1185C
....................                write_eeprom(10,RX_Buffer[4]-0x30);delay_ms(20);write_eeprom(11,RX_Buffer[5]-0x30);delay_ms(20); 
1174A:  MOVLW  30
1174C:  SUBWF  34,W
1174E:  MOVLB  7
11750:  MOVWF  x08
11752:  CLRF   FAA
11754:  MOVLW  0A
11756:  MOVWF  FA9
11758:  MOVFF  708,FA8
1175C:  BCF    FA6.6
1175E:  BCF    FA6.7
11760:  BSF    FA6.2
11762:  MOVF   FF2,W
11764:  MOVWF  00
11766:  BCF    FF2.6
11768:  BCF    FF2.7
1176A:  MOVLB  F
1176C:  MOVLW  55
1176E:  MOVWF  FA7
11770:  MOVLW  AA
11772:  MOVWF  FA7
11774:  BSF    FA6.1
11776:  BTFSC  FA6.1
11778:  GOTO   11776
1177C:  BCF    FA6.2
1177E:  MOVF   00,W
11780:  IORWF  FF2,F
11782:  MOVLW  14
11784:  MOVLB  7
11786:  MOVWF  x1E
11788:  MOVLB  0
1178A:  CALL   2060
1178E:  MOVLW  30
11790:  SUBWF  35,W
11792:  MOVLB  7
11794:  MOVWF  x08
11796:  CLRF   FAA
11798:  MOVLW  0B
1179A:  MOVWF  FA9
1179C:  MOVFF  708,FA8
117A0:  BCF    FA6.6
117A2:  BCF    FA6.7
117A4:  BSF    FA6.2
117A6:  MOVF   FF2,W
117A8:  MOVWF  00
117AA:  BCF    FF2.6
117AC:  BCF    FF2.7
117AE:  MOVLB  F
117B0:  MOVLW  55
117B2:  MOVWF  FA7
117B4:  MOVLW  AA
117B6:  MOVWF  FA7
117B8:  BSF    FA6.1
117BA:  BTFSC  FA6.1
117BC:  GOTO   117BA
117C0:  BCF    FA6.2
117C2:  MOVF   00,W
117C4:  IORWF  FF2,F
117C6:  MOVLW  14
117C8:  MOVLB  7
117CA:  MOVWF  x1E
117CC:  MOVLB  0
117CE:  CALL   2060
....................                write_eeprom(12,RX_Buffer[6]-0x30);delay_ms(20);write_eeprom(13,RX_Buffer[7]-0x30);delay_ms(20); 
117D2:  MOVLW  30
117D4:  SUBWF  36,W
117D6:  MOVLB  7
117D8:  MOVWF  x08
117DA:  CLRF   FAA
117DC:  MOVLW  0C
117DE:  MOVWF  FA9
117E0:  MOVFF  708,FA8
117E4:  BCF    FA6.6
117E6:  BCF    FA6.7
117E8:  BSF    FA6.2
117EA:  MOVF   FF2,W
117EC:  MOVWF  00
117EE:  BCF    FF2.6
117F0:  BCF    FF2.7
117F2:  MOVLB  F
117F4:  MOVLW  55
117F6:  MOVWF  FA7
117F8:  MOVLW  AA
117FA:  MOVWF  FA7
117FC:  BSF    FA6.1
117FE:  BTFSC  FA6.1
11800:  GOTO   117FE
11804:  BCF    FA6.2
11806:  MOVF   00,W
11808:  IORWF  FF2,F
1180A:  MOVLW  14
1180C:  MOVLB  7
1180E:  MOVWF  x1E
11810:  MOVLB  0
11812:  CALL   2060
11816:  MOVLW  30
11818:  SUBWF  37,W
1181A:  MOVLB  7
1181C:  MOVWF  x08
1181E:  CLRF   FAA
11820:  MOVLW  0D
11822:  MOVWF  FA9
11824:  MOVFF  708,FA8
11828:  BCF    FA6.6
1182A:  BCF    FA6.7
1182C:  BSF    FA6.2
1182E:  MOVF   FF2,W
11830:  MOVWF  00
11832:  BCF    FF2.6
11834:  BCF    FF2.7
11836:  MOVLB  F
11838:  MOVLW  55
1183A:  MOVWF  FA7
1183C:  MOVLW  AA
1183E:  MOVWF  FA7
11840:  BSF    FA6.1
11842:  BTFSC  FA6.1
11844:  GOTO   11842
11848:  BCF    FA6.2
1184A:  MOVF   00,W
1184C:  IORWF  FF2,F
1184E:  MOVLW  14
11850:  MOVLB  7
11852:  MOVWF  x1E
11854:  MOVLB  0
11856:  CALL   2060
....................                GuardaEEPROM=ON; 
1185A:  BSF    xA2.2
....................             } 
....................             RX_Buffer[3]=0x00; 
1185C:  CLRF   33
....................             RX_Buffer2[3]=0x00; 
1185E:  CLRF   3E
11860:  MOVLB  2
11862:  MOVLB  3
....................          } 
....................       } 
....................     } 
.................... //_--------------------------------------------------------------------------------------------------------------------------------------------------------        
....................  
.................... //_-------------------------------------------------------------------------------------------------------------------------------------------------------- 
....................    if(Menu==1){ //Menu Principal. 
11864:  DECFSZ x47,W
11866:  GOTO   12206
....................       revisePresion(); 
1186A:  MOVLB  0
1186C:  CALL   6452
....................       GuardaEEPROM=OFF; 
11870:  BCF    xA2.2
....................       PruebaEstados=OFF; 
11872:  BCF    xA1.4
....................       if(RX_Buffer[3]==0x0f || UP){//0f, recibe caracteres ingresados desde el Display 
11874:  MOVF   33,W
11876:  SUBLW  0F
11878:  BTFSC  FD8.2
1187A:  GOTO   11886
1187E:  BSF    F93.0
11880:  BTFSC  F81.0
11882:  GOTO   11BB4
....................          delay_ms(5); 
11886:  MOVLW  05
11888:  MOVLB  7
1188A:  MOVWF  x1E
1188C:  MOVLB  0
1188E:  CALL   2060
....................          if(RX_Buffer[3]==0x0f || UP){ 
11892:  MOVF   33,W
11894:  SUBLW  0F
11896:  BTFSC  FD8.2
11898:  GOTO   118A4
1189C:  BSF    F93.0
1189E:  BTFSC  F81.0
118A0:  GOTO   11BAC
....................             if(RX_Buffer[4]==0x37){//Ajustes y pasa a solicitud de password de tecnico 
118A4:  MOVF   34,W
118A6:  SUBLW  37
118A8:  BTFSS  FD8.2
118AA:  GOTO   118D4
....................                printf("page Clave"); 
118AE:  MOVLW  D8
118B0:  MOVWF  FF6
118B2:  MOVLW  0A
118B4:  MOVWF  FF7
118B6:  MOVLW  00
118B8:  MOVWF  FF8
118BA:  CALL   4538
....................                SendDataDisplay();  
118BE:  CALL   456A
....................                MenuAnt=Menu; 
118C2:  MOVFF  347,348
....................                TipoClave=1; 
118C6:  MOVLW  01
118C8:  MOVLB  2
118CA:  MOVWF  xCE
....................                RX_Buffer[3]=0x00; 
118CC:  CLRF   33
....................                RX_Buffer2[3]=0x00; 
118CE:  CLRF   3E
....................                Opcion=0; 
118D0:  MOVLB  3
118D2:  CLRF   x4F
....................             }  
....................             if(Opcion==11){// Datos 
118D4:  MOVLB  3
118D6:  MOVF   x4F,W
118D8:  SUBLW  0B
118DA:  BTFSS  FD8.2
118DC:  GOTO   11906
....................                printf("page Ciclos"); 
118E0:  MOVLW  E4
118E2:  MOVWF  FF6
118E4:  MOVLW  0A
118E6:  MOVWF  FF7
118E8:  MOVLW  00
118EA:  MOVWF  FF8
118EC:  MOVLB  0
118EE:  CALL   4538
....................                SendDataDisplay();  
118F2:  CALL   456A
....................                MenuAnt=Menu; 
118F6:  MOVFF  347,348
....................                RX_Buffer[3]=0x00; 
118FA:  CLRF   33
....................                RX_Buffer2[3]=0x00; 
118FC:  CLRF   3E
....................                Opcion=0; 
118FE:  MOVLB  3
11900:  CLRF   x4F
....................             }else if(Opcion==10){// Cambio de Clave 
11902:  GOTO   11BAE
11906:  MOVF   x4F,W
11908:  SUBLW  0A
1190A:  BTFSS  FD8.2
1190C:  GOTO   1193C
....................                printf("page Clave"); 
11910:  MOVLW  F0
11912:  MOVWF  FF6
11914:  MOVLW  0A
11916:  MOVWF  FF7
11918:  MOVLW  00
1191A:  MOVWF  FF8
1191C:  MOVLB  0
1191E:  CALL   4538
....................                SendDataDisplay();  
11922:  CALL   456A
....................                MenuAnt=Menu; 
11926:  MOVFF  347,348
....................                TipoClave=2; 
1192A:  MOVLW  02
1192C:  MOVLB  2
1192E:  MOVWF  xCE
....................                RX_Buffer[3]=0x00; 
11930:  CLRF   33
....................                RX_Buffer2[3]=0x00; 
11932:  CLRF   3E
....................                Opcion=0; 
11934:  MOVLB  3
11936:  CLRF   x4F
....................             }else if(Opcion==9){//Hora y Fecha 
11938:  GOTO   11BAE
1193C:  MOVF   x4F,W
1193E:  SUBLW  09
11940:  BTFSS  FD8.2
11942:  GOTO   1197A
....................                printf("page Fecha"); 
11946:  MOVLW  FC
11948:  MOVWF  FF6
1194A:  MOVLW  0A
1194C:  MOVWF  FF7
1194E:  MOVLW  00
11950:  MOVWF  FF8
11952:  MOVLB  0
11954:  CALL   4538
....................                SendDataDisplay();      
11958:  CALL   456A
....................                MenuAnt=Menu;                
1195C:  MOVFF  347,348
....................                DiaTx=Dia; 
11960:  MOVFF  38D,394
....................                MesTx=Mes; 
11964:  MOVFF  38C,393
....................                YearTx=Year; 
11968:  MOVFF  38B,392
....................                HoraTx=Hora; 
1196C:  MOVFF  38E,395
....................                MinutoTx=Minuto; 
11970:  MOVFF  38F,396
....................             }else if(Opcion==8){//Test de Componentes 
11974:  GOTO   11BAC
11978:  MOVLB  3
1197A:  MOVF   x4F,W
1197C:  SUBLW  08
1197E:  BTFSS  FD8.2
11980:  GOTO   119A4
....................                printf("page Test"); 
11984:  MOVLW  08
11986:  MOVWF  FF6
11988:  MOVLW  0B
1198A:  MOVWF  FF7
1198C:  MOVLW  00
1198E:  MOVWF  FF8
11990:  MOVLB  0
11992:  CALL   4538
....................                SendDataDisplay();      
11996:  CALL   456A
....................                MenuAnt=Menu;                
1199A:  MOVFF  347,348
....................             }else if(Opcion==7){//Ciclo Personalizado 
1199E:  GOTO   11BAC
119A2:  MOVLB  3
119A4:  MOVF   x4F,W
119A6:  SUBLW  07
119A8:  BTFSS  FD8.2
119AA:  GOTO   119CE
....................                printf("page CicloPersona"); 
119AE:  MOVLW  12
119B0:  MOVWF  FF6
119B2:  MOVLW  0B
119B4:  MOVWF  FF7
119B6:  MOVLW  00
119B8:  MOVWF  FF8
119BA:  MOVLB  0
119BC:  CALL   4538
....................                SendDataDisplay();  
119C0:  CALL   456A
....................                MenuAnt=Menu; 
119C4:  MOVFF  347,348
....................             }else if(Opcion==5){//Test de Bowie & Dick 
119C8:  GOTO   11BAC
119CC:  MOVLB  3
119CE:  MOVF   x4F,W
119D0:  SUBLW  05
119D2:  BTFSS  FD8.2
119D4:  GOTO   11A22
....................                printf("page Funcionamiento"); 
119D8:  MOVLW  24
119DA:  MOVWF  FF6
119DC:  MOVLW  0B
119DE:  MOVWF  FF7
119E0:  MOVLW  00
119E2:  MOVWF  FF8
119E4:  MOVLB  0
119E6:  CALL   4538
....................                SendDataDisplay();        
119EA:  CALL   456A
....................                ConfiguraCiclo(30,3,0,2,0,5,134,pulsosConfigurados,vacioCiclo,0); 
119EE:  MOVLW  1E
119F0:  MOVLB  7
119F2:  MOVWF  x10
119F4:  MOVLW  03
119F6:  MOVWF  x11
119F8:  CLRF   x12
119FA:  MOVLW  02
119FC:  MOVWF  x13
119FE:  CLRF   x14
11A00:  MOVLW  05
11A02:  MOVWF  x15
11A04:  MOVLW  86
11A06:  MOVWF  x16
11A08:  MOVFF  2D2,717
11A0C:  MOVFF  358,718
11A10:  CLRF   x19
11A12:  MOVLB  0
11A14:  CALL   6EE8
....................                MenuAnt=Menu;      
11A18:  MOVFF  347,348
....................             }else if(Opcion==6){//Test de Vacio 
11A1C:  GOTO   11BAC
11A20:  MOVLB  3
11A22:  MOVF   x4F,W
11A24:  SUBLW  06
11A26:  BTFSS  FD8.2
11A28:  GOTO   11A72
....................                printf("page Funcionamiento"); 
11A2C:  MOVLW  38
11A2E:  MOVWF  FF6
11A30:  MOVLW  0B
11A32:  MOVWF  FF7
11A34:  MOVLW  00
11A36:  MOVWF  FF8
11A38:  MOVLB  0
11A3A:  CALL   4538
....................                SendDataDisplay();        
11A3E:  CALL   456A
....................                ConfiguraCiclo(0,15,0,0,0,6,30,1,vacioTest,1); 
11A42:  MOVLB  7
11A44:  CLRF   x10
11A46:  MOVLW  0F
11A48:  MOVWF  x11
11A4A:  CLRF   x12
11A4C:  CLRF   x13
11A4E:  CLRF   x14
11A50:  MOVLW  06
11A52:  MOVWF  x15
11A54:  MOVLW  1E
11A56:  MOVWF  x16
11A58:  MOVLW  01
11A5A:  MOVWF  x17
11A5C:  MOVFF  357,718
11A60:  MOVWF  x19
11A62:  MOVLB  0
11A64:  CALL   6EE8
....................                MenuAnt=Menu;      
11A68:  MOVFF  347,348
....................             }else if(Opcion==4){//Delicado Envuelto 
11A6C:  GOTO   11BAC
11A70:  MOVLB  3
11A72:  MOVF   x4F,W
11A74:  SUBLW  04
11A76:  BTFSS  FD8.2
11A78:  GOTO   11AC2
....................                printf("page Funcionamiento"); 
11A7C:  MOVLW  4C
11A7E:  MOVWF  FF6
11A80:  MOVLW  0B
11A82:  MOVWF  FF7
11A84:  MOVLW  00
11A86:  MOVWF  FF8
11A88:  MOVLB  0
11A8A:  CALL   4538
....................                SendDataDisplay();        
11A8E:  CALL   456A
....................                ConfiguraCiclo(0,20,0,20,0,4,121,pulsosConfigurados,vacioCiclo,0); 
11A92:  MOVLB  7
11A94:  CLRF   x10
11A96:  MOVLW  14
11A98:  MOVWF  x11
11A9A:  CLRF   x12
11A9C:  MOVWF  x13
11A9E:  CLRF   x14
11AA0:  MOVLW  04
11AA2:  MOVWF  x15
11AA4:  MOVLW  79
11AA6:  MOVWF  x16
11AA8:  MOVFF  2D2,717
11AAC:  MOVFF  358,718
11AB0:  CLRF   x19
11AB2:  MOVLB  0
11AB4:  CALL   6EE8
....................                MenuAnt=Menu;      
11AB8:  MOVFF  347,348
....................             }else if(Opcion==3){//Delicado no envuelto 
11ABC:  GOTO   11BAC
11AC0:  MOVLB  3
11AC2:  MOVF   x4F,W
11AC4:  SUBLW  03
11AC6:  BTFSS  FD8.2
11AC8:  GOTO   11B14
....................                printf("page Funcionamiento"); 
11ACC:  MOVLW  60
11ACE:  MOVWF  FF6
11AD0:  MOVLW  0B
11AD2:  MOVWF  FF7
11AD4:  MOVLW  00
11AD6:  MOVWF  FF8
11AD8:  MOVLB  0
11ADA:  CALL   4538
....................                SendDataDisplay();        
11ADE:  CALL   456A
....................                ConfiguraCiclo(0,20,0,1,0,3,121,pulsosConfigurados,vacioCiclo,0); 
11AE2:  MOVLB  7
11AE4:  CLRF   x10
11AE6:  MOVLW  14
11AE8:  MOVWF  x11
11AEA:  CLRF   x12
11AEC:  MOVLW  01
11AEE:  MOVWF  x13
11AF0:  CLRF   x14
11AF2:  MOVLW  03
11AF4:  MOVWF  x15
11AF6:  MOVLW  79
11AF8:  MOVWF  x16
11AFA:  MOVFF  2D2,717
11AFE:  MOVFF  358,718
11B02:  CLRF   x19
11B04:  MOVLB  0
11B06:  CALL   6EE8
....................                MenuAnt=Menu;      
11B0A:  MOVFF  347,348
....................             }else if(Opcion==2){//Instrumental Envuelto 
11B0E:  GOTO   11BAC
11B12:  MOVLB  3
11B14:  MOVF   x4F,W
11B16:  SUBLW  02
11B18:  BTFSS  FD8.2
11B1A:  GOTO   11B66
....................                printf("page Funcionamiento"); 
11B1E:  MOVLW  74
11B20:  MOVWF  FF6
11B22:  MOVLW  0B
11B24:  MOVWF  FF7
11B26:  MOVLW  00
11B28:  MOVWF  FF8
11B2A:  MOVLB  0
11B2C:  CALL   4538
....................                SendDataDisplay();        
11B30:  CALL   456A
....................                ConfiguraCiclo(0,4,0,20,0,2,134,pulsosConfigurados,vacioCiclo,0); 
11B34:  MOVLB  7
11B36:  CLRF   x10
11B38:  MOVLW  04
11B3A:  MOVWF  x11
11B3C:  CLRF   x12
11B3E:  MOVLW  14
11B40:  MOVWF  x13
11B42:  CLRF   x14
11B44:  MOVLW  02
11B46:  MOVWF  x15
11B48:  MOVLW  86
11B4A:  MOVWF  x16
11B4C:  MOVFF  2D2,717
11B50:  MOVFF  358,718
11B54:  CLRF   x19
11B56:  MOVLB  0
11B58:  CALL   6EE8
....................                MenuAnt=Menu;                
11B5C:  MOVFF  347,348
....................             }else if(Opcion==1){//Instrumental no Envuelto 
11B60:  GOTO   11BAC
11B64:  MOVLB  3
11B66:  DECFSZ x4F,W
11B68:  GOTO   11BAE
....................                printf("page Funcionamiento"); 
11B6C:  MOVLW  88
11B6E:  MOVWF  FF6
11B70:  MOVLW  0B
11B72:  MOVWF  FF7
11B74:  MOVLW  00
11B76:  MOVWF  FF8
11B78:  MOVLB  0
11B7A:  CALL   4538
....................                SendDataDisplay();        
11B7E:  CALL   456A
....................                ConfiguraCiclo(0,4,0,1,0,1,134,pulsosConfigurados,vacioCiclo,0);                
11B82:  MOVLB  7
11B84:  CLRF   x10
11B86:  MOVLW  04
11B88:  MOVWF  x11
11B8A:  CLRF   x12
11B8C:  MOVLW  01
11B8E:  MOVWF  x13
11B90:  CLRF   x14
11B92:  MOVWF  x15
11B94:  MOVLW  86
11B96:  MOVWF  x16
11B98:  MOVFF  2D2,717
11B9C:  MOVFF  358,718
11BA0:  CLRF   x19
11BA2:  MOVLB  0
11BA4:  CALL   6EE8
....................                MenuAnt=Menu; 
11BA8:  MOVFF  347,348
11BAC:  MOVLB  3
....................             } 
....................          } 
....................       }else{ 
11BAE:  GOTO   121AE
11BB2:  MOVLB  0
....................          if(Opcion>sizeof(iconoGrande)) 
11BB4:  MOVLB  3
11BB6:  MOVF   x4F,W
11BB8:  SUBLW  0B
11BBA:  BTFSC  FD8.0
11BBC:  GOTO   11BC4
....................             Opcion=1; 
11BC0:  MOVLW  01
11BC2:  MOVWF  x4F
....................              
....................          if(Opcion<1) 
11BC4:  MOVF   x4F,F
11BC6:  BTFSS  FD8.2
11BC8:  GOTO   11BD0
....................             Opcion=sizeof(iconoGrande); 
11BCC:  MOVLW  0B
11BCE:  MOVWF  x4F
....................           
....................          if(RIGHT){ 
11BD0:  BSF    F93.2
11BD2:  BTFSC  F81.2
11BD4:  GOTO   11BF0
....................             delay_ms(200); 
11BD8:  MOVLW  C8
11BDA:  MOVLB  7
11BDC:  MOVWF  x1E
11BDE:  MOVLB  0
11BE0:  CALL   2060
....................             if(RIGHT){ 
11BE4:  BSF    F93.2
11BE6:  BTFSC  F81.2
11BE8:  GOTO   11BF2
....................                Opcion++; 
11BEC:  MOVLB  3
11BEE:  INCF   x4F,F
11BF0:  MOVLB  0
....................             } 
....................          } 
....................           
....................          if(LEFT){ 
11BF2:  BSF    F93.3
11BF4:  BTFSC  F81.3
11BF6:  GOTO   11C14
....................             delay_ms(200); 
11BFA:  MOVLW  C8
11BFC:  MOVLB  7
11BFE:  MOVWF  x1E
11C00:  MOVLB  0
11C02:  CALL   2060
....................             if(LEFT){ 
11C06:  BSF    F93.3
11C08:  BTFSC  F81.3
11C0A:  GOTO   11C14
....................                Opcion--; 
11C0E:  MOVLB  3
11C10:  DECF   x4F,F
11C12:  MOVLB  0
....................             } 
....................          } 
....................           
....................          if(Opcion==1){ 
11C14:  MOVLB  3
11C16:  DECFSZ x4F,W
11C18:  GOTO   11DCC
....................             printf("bc.pic=%u",iconoGrande[Opcion-1]); 
11C1C:  MOVLW  01
11C1E:  SUBWF  x4F,W
11C20:  CLRF   03
11C22:  ADDLW  A0
11C24:  MOVWF  FE9
11C26:  MOVLW  03
11C28:  ADDWFC 03,W
11C2A:  MOVWF  FEA
11C2C:  MOVFF  FEF,708
11C30:  MOVLW  9C
11C32:  MOVWF  FF6
11C34:  MOVLW  0B
11C36:  MOVWF  FF7
11C38:  MOVLW  00
11C3A:  MOVWF  FF8
11C3C:  MOVLW  07
11C3E:  MOVLB  7
11C40:  MOVWF  x0D
11C42:  MOVLB  0
11C44:  CALL   5D0E
11C48:  MOVFF  708,70D
11C4C:  MOVLW  1B
11C4E:  MOVLB  7
11C50:  MOVWF  x0E
11C52:  MOVLB  0
11C54:  CALL   632A
....................             SendDataDisplay(); 
11C58:  CALL   456A
....................             printf("bd.pic=%u",iconoPeque[Opcion]); 
11C5C:  CLRF   03
11C5E:  MOVLB  3
11C60:  MOVF   x4F,W
11C62:  ADDLW  AB
11C64:  MOVWF  FE9
11C66:  MOVLW  03
11C68:  ADDWFC 03,W
11C6A:  MOVWF  FEA
11C6C:  MOVFF  FEF,708
11C70:  MOVLW  A6
11C72:  MOVWF  FF6
11C74:  MOVLW  0B
11C76:  MOVWF  FF7
11C78:  MOVLW  00
11C7A:  MOVWF  FF8
11C7C:  MOVLW  07
11C7E:  MOVLB  7
11C80:  MOVWF  x0D
11C82:  MOVLB  0
11C84:  CALL   5D0E
11C88:  MOVFF  708,70D
11C8C:  MOVLW  1B
11C8E:  MOVLB  7
11C90:  MOVWF  x0E
11C92:  MOVLB  0
11C94:  CALL   632A
....................             SendDataDisplay(); 
11C98:  CALL   456A
....................             printf("bi.pic=%u",iconoPeque[sizeof(iconoGrande)-1]); 
11C9C:  MOVLW  B0
11C9E:  MOVWF  FF6
11CA0:  MOVLW  0B
11CA2:  MOVWF  FF7
11CA4:  MOVLW  00
11CA6:  MOVWF  FF8
11CA8:  MOVLW  07
11CAA:  MOVLB  7
11CAC:  MOVWF  x0D
11CAE:  MOVLB  0
11CB0:  CALL   5D0E
11CB4:  MOVFF  3B5,70D
11CB8:  MOVLW  1B
11CBA:  MOVLB  7
11CBC:  MOVWF  x0E
11CBE:  MOVLB  0
11CC0:  CALL   632A
....................             SendDataDisplay(); 
11CC4:  CALL   456A
....................             printf("bc.pic2=%u",iconoGrande[Opcion-1]); 
11CC8:  MOVLW  01
11CCA:  MOVLB  3
11CCC:  SUBWF  x4F,W
11CCE:  CLRF   03
11CD0:  ADDLW  A0
11CD2:  MOVWF  FE9
11CD4:  MOVLW  03
11CD6:  ADDWFC 03,W
11CD8:  MOVWF  FEA
11CDA:  MOVFF  FEF,708
11CDE:  MOVLW  BA
11CE0:  MOVWF  FF6
11CE2:  MOVLW  0B
11CE4:  MOVWF  FF7
11CE6:  MOVLW  00
11CE8:  MOVWF  FF8
11CEA:  MOVLW  08
11CEC:  MOVLB  7
11CEE:  MOVWF  x0D
11CF0:  MOVLB  0
11CF2:  CALL   5D0E
11CF6:  MOVFF  708,70D
11CFA:  MOVLW  1B
11CFC:  MOVLB  7
11CFE:  MOVWF  x0E
11D00:  MOVLB  0
11D02:  CALL   632A
....................             SendDataDisplay(); 
11D06:  CALL   456A
....................             printf("bd.pic2=%u",iconoPeque[Opcion]); 
11D0A:  CLRF   03
11D0C:  MOVLB  3
11D0E:  MOVF   x4F,W
11D10:  ADDLW  AB
11D12:  MOVWF  FE9
11D14:  MOVLW  03
11D16:  ADDWFC 03,W
11D18:  MOVWF  FEA
11D1A:  MOVFF  FEF,708
11D1E:  MOVLW  C6
11D20:  MOVWF  FF6
11D22:  MOVLW  0B
11D24:  MOVWF  FF7
11D26:  MOVLW  00
11D28:  MOVWF  FF8
11D2A:  MOVLW  08
11D2C:  MOVLB  7
11D2E:  MOVWF  x0D
11D30:  MOVLB  0
11D32:  CALL   5D0E
11D36:  MOVFF  708,70D
11D3A:  MOVLW  1B
11D3C:  MOVLB  7
11D3E:  MOVWF  x0E
11D40:  MOVLB  0
11D42:  CALL   632A
....................             SendDataDisplay(); 
11D46:  CALL   456A
....................             printf("bi.pic2=%u",iconoPeque[sizeof(iconoGrande)-1]); 
11D4A:  MOVLW  D2
11D4C:  MOVWF  FF6
11D4E:  MOVLW  0B
11D50:  MOVWF  FF7
11D52:  MOVLW  00
11D54:  MOVWF  FF8
11D56:  MOVLW  08
11D58:  MOVLB  7
11D5A:  MOVWF  x0D
11D5C:  MOVLB  0
11D5E:  CALL   5D0E
11D62:  MOVFF  3B5,70D
11D66:  MOVLW  1B
11D68:  MOVLB  7
11D6A:  MOVWF  x0E
11D6C:  MOVLB  0
11D6E:  CALL   632A
....................             SendDataDisplay(); 
11D72:  CALL   456A
....................             printf("textop.txt=\"%s\"",texto[Opcion-1]); 
11D76:  MOVLW  01
11D78:  MOVLB  3
11D7A:  SUBWF  x4F,W
11D7C:  MULLW  14
11D7E:  MOVF   FF3,W
11D80:  CLRF   03
11D82:  MOVLB  7
11D84:  MOVWF  x08
11D86:  MOVLW  DE
11D88:  MOVWF  FF6
11D8A:  MOVLW  0B
11D8C:  MOVWF  FF7
11D8E:  MOVLW  00
11D90:  MOVWF  FF8
11D92:  MOVLW  0C
11D94:  MOVWF  x0D
11D96:  MOVLB  0
11D98:  CALL   5D0E
11D9C:  MOVLW  50
11D9E:  MOVWF  FF6
11DA0:  MOVLW  01
11DA2:  MOVWF  FF7
11DA4:  MOVLW  00
11DA6:  MOVWF  FF8
11DA8:  MOVLB  7
11DAA:  MOVF   x08,W
11DAC:  ADDWF  FF6,F
11DAE:  MOVLW  00
11DB0:  ADDWFC FF7,F
11DB2:  MOVLB  0
11DB4:  CALL   4538
11DB8:  MOVLW  22
11DBA:  BTFSS  F9E.4
11DBC:  GOTO   11DBA
11DC0:  MOVWF  FAD
....................             SendDataDisplay(); 
11DC2:  CALL   456A
....................          }else if(Opcion==sizeof(iconoGrande)){ 
11DC6:  GOTO   12160
11DCA:  MOVLB  3
11DCC:  MOVF   x4F,W
11DCE:  SUBLW  0B
11DD0:  BTFSS  FD8.2
11DD2:  GOTO   11F8A
....................             printf("bc.pic=%u",iconoGrande[Opcion-1]); 
11DD6:  MOVLW  01
11DD8:  SUBWF  x4F,W
11DDA:  CLRF   03
11DDC:  ADDLW  A0
11DDE:  MOVWF  FE9
11DE0:  MOVLW  03
11DE2:  ADDWFC 03,W
11DE4:  MOVWF  FEA
11DE6:  MOVFF  FEF,708
11DEA:  MOVLW  EE
11DEC:  MOVWF  FF6
11DEE:  MOVLW  0B
11DF0:  MOVWF  FF7
11DF2:  MOVLW  00
11DF4:  MOVWF  FF8
11DF6:  MOVLW  07
11DF8:  MOVLB  7
11DFA:  MOVWF  x0D
11DFC:  MOVLB  0
11DFE:  CALL   5D0E
11E02:  MOVFF  708,70D
11E06:  MOVLW  1B
11E08:  MOVLB  7
11E0A:  MOVWF  x0E
11E0C:  MOVLB  0
11E0E:  CALL   632A
....................             SendDataDisplay(); 
11E12:  CALL   456A
....................             printf("bd.pic=%u",iconoPeque[0]); 
11E16:  MOVLW  F8
11E18:  MOVWF  FF6
11E1A:  MOVLW  0B
11E1C:  MOVWF  FF7
11E1E:  MOVLW  00
11E20:  MOVWF  FF8
11E22:  MOVLW  07
11E24:  MOVLB  7
11E26:  MOVWF  x0D
11E28:  MOVLB  0
11E2A:  CALL   5D0E
11E2E:  MOVFF  3AB,70D
11E32:  MOVLW  1B
11E34:  MOVLB  7
11E36:  MOVWF  x0E
11E38:  MOVLB  0
11E3A:  CALL   632A
....................             SendDataDisplay(); 
11E3E:  CALL   456A
....................             printf("bi.pic=%u",iconoPeque[Opcion-2]); 
11E42:  MOVLW  02
11E44:  MOVLB  3
11E46:  SUBWF  x4F,W
11E48:  CLRF   03
11E4A:  ADDLW  AB
11E4C:  MOVWF  FE9
11E4E:  MOVLW  03
11E50:  ADDWFC 03,W
11E52:  MOVWF  FEA
11E54:  MOVFF  FEF,708
11E58:  MOVLW  02
11E5A:  MOVWF  FF6
11E5C:  MOVLW  0C
11E5E:  MOVWF  FF7
11E60:  MOVLW  00
11E62:  MOVWF  FF8
11E64:  MOVLW  07
11E66:  MOVLB  7
11E68:  MOVWF  x0D
11E6A:  MOVLB  0
11E6C:  CALL   5D0E
11E70:  MOVFF  708,70D
11E74:  MOVLW  1B
11E76:  MOVLB  7
11E78:  MOVWF  x0E
11E7A:  MOVLB  0
11E7C:  CALL   632A
....................             SendDataDisplay(); 
11E80:  CALL   456A
....................             printf("bc.pic2=%u",iconoGrande[Opcion-1]); 
11E84:  MOVLW  01
11E86:  MOVLB  3
11E88:  SUBWF  x4F,W
11E8A:  CLRF   03
11E8C:  ADDLW  A0
11E8E:  MOVWF  FE9
11E90:  MOVLW  03
11E92:  ADDWFC 03,W
11E94:  MOVWF  FEA
11E96:  MOVFF  FEF,708
11E9A:  MOVLW  0C
11E9C:  MOVWF  FF6
11E9E:  MOVLW  0C
11EA0:  MOVWF  FF7
11EA2:  MOVLW  00
11EA4:  MOVWF  FF8
11EA6:  MOVLW  08
11EA8:  MOVLB  7
11EAA:  MOVWF  x0D
11EAC:  MOVLB  0
11EAE:  CALL   5D0E
11EB2:  MOVFF  708,70D
11EB6:  MOVLW  1B
11EB8:  MOVLB  7
11EBA:  MOVWF  x0E
11EBC:  MOVLB  0
11EBE:  CALL   632A
....................             SendDataDisplay(); 
11EC2:  CALL   456A
....................             printf("bd.pic2=%u",iconoPeque[0]); 
11EC6:  MOVLW  18
11EC8:  MOVWF  FF6
11ECA:  MOVLW  0C
11ECC:  MOVWF  FF7
11ECE:  MOVLW  00
11ED0:  MOVWF  FF8
11ED2:  MOVLW  08
11ED4:  MOVLB  7
11ED6:  MOVWF  x0D
11ED8:  MOVLB  0
11EDA:  CALL   5D0E
11EDE:  MOVFF  3AB,70D
11EE2:  MOVLW  1B
11EE4:  MOVLB  7
11EE6:  MOVWF  x0E
11EE8:  MOVLB  0
11EEA:  CALL   632A
....................             SendDataDisplay(); 
11EEE:  CALL   456A
....................             printf("bi.pic2=%u",iconoPeque[Opcion-2]); 
11EF2:  MOVLW  02
11EF4:  MOVLB  3
11EF6:  SUBWF  x4F,W
11EF8:  CLRF   03
11EFA:  ADDLW  AB
11EFC:  MOVWF  FE9
11EFE:  MOVLW  03
11F00:  ADDWFC 03,W
11F02:  MOVWF  FEA
11F04:  MOVFF  FEF,708
11F08:  MOVLW  24
11F0A:  MOVWF  FF6
11F0C:  MOVLW  0C
11F0E:  MOVWF  FF7
11F10:  MOVLW  00
11F12:  MOVWF  FF8
11F14:  MOVLW  08
11F16:  MOVLB  7
11F18:  MOVWF  x0D
11F1A:  MOVLB  0
11F1C:  CALL   5D0E
11F20:  MOVFF  708,70D
11F24:  MOVLW  1B
11F26:  MOVLB  7
11F28:  MOVWF  x0E
11F2A:  MOVLB  0
11F2C:  CALL   632A
....................             SendDataDisplay(); 
11F30:  CALL   456A
....................             printf("textop.txt=\"%s\"",texto[Opcion-1]); 
11F34:  MOVLW  01
11F36:  MOVLB  3
11F38:  SUBWF  x4F,W
11F3A:  MULLW  14
11F3C:  MOVF   FF3,W
11F3E:  CLRF   03
11F40:  MOVLB  7
11F42:  MOVWF  x08
11F44:  MOVLW  30
11F46:  MOVWF  FF6
11F48:  MOVLW  0C
11F4A:  MOVWF  FF7
11F4C:  MOVLW  00
11F4E:  MOVWF  FF8
11F50:  MOVLW  0C
11F52:  MOVWF  x0D
11F54:  MOVLB  0
11F56:  CALL   5D0E
11F5A:  MOVLW  50
11F5C:  MOVWF  FF6
11F5E:  MOVLW  01
11F60:  MOVWF  FF7
11F62:  MOVLW  00
11F64:  MOVWF  FF8
11F66:  MOVLB  7
11F68:  MOVF   x08,W
11F6A:  ADDWF  FF6,F
11F6C:  MOVLW  00
11F6E:  ADDWFC FF7,F
11F70:  MOVLB  0
11F72:  CALL   4538
11F76:  MOVLW  22
11F78:  BTFSS  F9E.4
11F7A:  GOTO   11F78
11F7E:  MOVWF  FAD
....................             SendDataDisplay(); 
11F80:  CALL   456A
....................          }else{ 
11F84:  GOTO   12160
11F88:  MOVLB  3
....................             printf("bc.pic=%u",iconoGrande[Opcion-1]); 
11F8A:  MOVLW  01
11F8C:  SUBWF  x4F,W
11F8E:  CLRF   03
11F90:  ADDLW  A0
11F92:  MOVWF  FE9
11F94:  MOVLW  03
11F96:  ADDWFC 03,W
11F98:  MOVWF  FEA
11F9A:  MOVFF  FEF,708
11F9E:  MOVLW  40
11FA0:  MOVWF  FF6
11FA2:  MOVLW  0C
11FA4:  MOVWF  FF7
11FA6:  MOVLW  00
11FA8:  MOVWF  FF8
11FAA:  MOVLW  07
11FAC:  MOVLB  7
11FAE:  MOVWF  x0D
11FB0:  MOVLB  0
11FB2:  CALL   5D0E
11FB6:  MOVFF  708,70D
11FBA:  MOVLW  1B
11FBC:  MOVLB  7
11FBE:  MOVWF  x0E
11FC0:  MOVLB  0
11FC2:  CALL   632A
....................             SendDataDisplay(); 
11FC6:  CALL   456A
....................             printf("bd.pic=%u",iconoPeque[Opcion]); 
11FCA:  CLRF   03
11FCC:  MOVLB  3
11FCE:  MOVF   x4F,W
11FD0:  ADDLW  AB
11FD2:  MOVWF  FE9
11FD4:  MOVLW  03
11FD6:  ADDWFC 03,W
11FD8:  MOVWF  FEA
11FDA:  MOVFF  FEF,708
11FDE:  MOVLW  4A
11FE0:  MOVWF  FF6
11FE2:  MOVLW  0C
11FE4:  MOVWF  FF7
11FE6:  MOVLW  00
11FE8:  MOVWF  FF8
11FEA:  MOVLW  07
11FEC:  MOVLB  7
11FEE:  MOVWF  x0D
11FF0:  MOVLB  0
11FF2:  CALL   5D0E
11FF6:  MOVFF  708,70D
11FFA:  MOVLW  1B
11FFC:  MOVLB  7
11FFE:  MOVWF  x0E
12000:  MOVLB  0
12002:  CALL   632A
....................             SendDataDisplay(); 
12006:  CALL   456A
....................             printf("bi.pic=%u",iconoPeque[Opcion-2]); 
1200A:  MOVLW  02
1200C:  MOVLB  3
1200E:  SUBWF  x4F,W
12010:  CLRF   03
12012:  ADDLW  AB
12014:  MOVWF  FE9
12016:  MOVLW  03
12018:  ADDWFC 03,W
1201A:  MOVWF  FEA
1201C:  MOVFF  FEF,708
12020:  MOVLW  54
12022:  MOVWF  FF6
12024:  MOVLW  0C
12026:  MOVWF  FF7
12028:  MOVLW  00
1202A:  MOVWF  FF8
1202C:  MOVLW  07
1202E:  MOVLB  7
12030:  MOVWF  x0D
12032:  MOVLB  0
12034:  CALL   5D0E
12038:  MOVFF  708,70D
1203C:  MOVLW  1B
1203E:  MOVLB  7
12040:  MOVWF  x0E
12042:  MOVLB  0
12044:  CALL   632A
....................             SendDataDisplay(); 
12048:  CALL   456A
....................             printf("bc.pic2=%u",iconoGrande[Opcion-1]); 
1204C:  MOVLW  01
1204E:  MOVLB  3
12050:  SUBWF  x4F,W
12052:  CLRF   03
12054:  ADDLW  A0
12056:  MOVWF  FE9
12058:  MOVLW  03
1205A:  ADDWFC 03,W
1205C:  MOVWF  FEA
1205E:  MOVFF  FEF,708
12062:  MOVLW  5E
12064:  MOVWF  FF6
12066:  MOVLW  0C
12068:  MOVWF  FF7
1206A:  MOVLW  00
1206C:  MOVWF  FF8
1206E:  MOVLW  08
12070:  MOVLB  7
12072:  MOVWF  x0D
12074:  MOVLB  0
12076:  CALL   5D0E
1207A:  MOVFF  708,70D
1207E:  MOVLW  1B
12080:  MOVLB  7
12082:  MOVWF  x0E
12084:  MOVLB  0
12086:  CALL   632A
....................             SendDataDisplay(); 
1208A:  CALL   456A
....................             printf("bd.pic2=%u",iconoPeque[Opcion]); 
1208E:  CLRF   03
12090:  MOVLB  3
12092:  MOVF   x4F,W
12094:  ADDLW  AB
12096:  MOVWF  FE9
12098:  MOVLW  03
1209A:  ADDWFC 03,W
1209C:  MOVWF  FEA
1209E:  MOVFF  FEF,708
120A2:  MOVLW  6A
120A4:  MOVWF  FF6
120A6:  MOVLW  0C
120A8:  MOVWF  FF7
120AA:  MOVLW  00
120AC:  MOVWF  FF8
120AE:  MOVLW  08
120B0:  MOVLB  7
120B2:  MOVWF  x0D
120B4:  MOVLB  0
120B6:  CALL   5D0E
120BA:  MOVFF  708,70D
120BE:  MOVLW  1B
120C0:  MOVLB  7
120C2:  MOVWF  x0E
120C4:  MOVLB  0
120C6:  CALL   632A
....................             SendDataDisplay(); 
120CA:  CALL   456A
....................             printf("bi.pic2=%u",iconoPeque[Opcion-2]); 
120CE:  MOVLW  02
120D0:  MOVLB  3
120D2:  SUBWF  x4F,W
120D4:  CLRF   03
120D6:  ADDLW  AB
120D8:  MOVWF  FE9
120DA:  MOVLW  03
120DC:  ADDWFC 03,W
120DE:  MOVWF  FEA
120E0:  MOVFF  FEF,708
120E4:  MOVLW  76
120E6:  MOVWF  FF6
120E8:  MOVLW  0C
120EA:  MOVWF  FF7
120EC:  MOVLW  00
120EE:  MOVWF  FF8
120F0:  MOVLW  08
120F2:  MOVLB  7
120F4:  MOVWF  x0D
120F6:  MOVLB  0
120F8:  CALL   5D0E
120FC:  MOVFF  708,70D
12100:  MOVLW  1B
12102:  MOVLB  7
12104:  MOVWF  x0E
12106:  MOVLB  0
12108:  CALL   632A
....................             SendDataDisplay(); 
1210C:  CALL   456A
....................             printf("textop.txt=\"%s\"",texto[Opcion-1]); 
12110:  MOVLW  01
12112:  MOVLB  3
12114:  SUBWF  x4F,W
12116:  MULLW  14
12118:  MOVF   FF3,W
1211A:  CLRF   03
1211C:  MOVLB  7
1211E:  MOVWF  x08
12120:  MOVLW  82
12122:  MOVWF  FF6
12124:  MOVLW  0C
12126:  MOVWF  FF7
12128:  MOVLW  00
1212A:  MOVWF  FF8
1212C:  MOVLW  0C
1212E:  MOVWF  x0D
12130:  MOVLB  0
12132:  CALL   5D0E
12136:  MOVLW  50
12138:  MOVWF  FF6
1213A:  MOVLW  01
1213C:  MOVWF  FF7
1213E:  MOVLW  00
12140:  MOVWF  FF8
12142:  MOVLB  7
12144:  MOVF   x08,W
12146:  ADDWF  FF6,F
12148:  MOVLW  00
1214A:  ADDWFC FF7,F
1214C:  MOVLB  0
1214E:  CALL   4538
12152:  MOVLW  22
12154:  BTFSS  F9E.4
12156:  GOTO   12154
1215A:  MOVWF  FAD
....................             SendDataDisplay(); 
1215C:  CALL   456A
....................          } 
....................           
....................          printf("ttitulo.txt=\"SELECCIONE SU CICLO\""); 
12160:  MOVLW  92
12162:  MOVWF  FF6
12164:  MOVLW  0C
12166:  MOVWF  FF7
12168:  MOVLW  00
1216A:  MOVWF  FF8
1216C:  CALL   4538
....................          SendDataDisplay(); 
12170:  CALL   456A
....................              
....................          if(RX_Buffer[4]==0x0d || RX_Buffer[4]==0x0c){//Tecla Derecha Oprimida 
12174:  MOVF   34,W
12176:  SUBLW  0D
12178:  BTFSC  FD8.2
1217A:  GOTO   12188
1217E:  MOVF   34,W
12180:  SUBLW  0C
12182:  BTFSS  FD8.2
12184:  GOTO   12192
....................             Opcion++; 
12188:  MOVLB  3
1218A:  INCF   x4F,F
....................             RX_Buffer[4]=0x00;             
1218C:  CLRF   34
....................             RX_Buffer2[4]=0x00; 
1218E:  CLRF   3F
12190:  MOVLB  0
....................          } 
....................           
....................          if(RX_Buffer[4]==0x0e || RX_Buffer[4]==0x0f){//Tecla Izquierda Oprimida 
12192:  MOVF   34,W
12194:  SUBLW  0E
12196:  BTFSC  FD8.2
12198:  GOTO   121A6
1219C:  MOVF   34,W
1219E:  SUBLW  0F
121A0:  BTFSS  FD8.2
121A2:  GOTO   121B0
....................             Opcion--; 
121A6:  MOVLB  3
121A8:  DECF   x4F,F
....................             RX_Buffer[4]=0x00; 
121AA:  CLRF   34
....................             RX_Buffer2[4]=0x00; 
121AC:  CLRF   3F
121AE:  MOVLB  0
....................          } 
....................       } 
....................        
....................       if(RIGHT && LEFT){ 
121B0:  BSF    F93.2
121B2:  BTFSC  F81.2
121B4:  GOTO   12208
121B8:  BSF    F93.3
121BA:  BTFSC  F81.3
121BC:  GOTO   12208
....................          delay_ms(20); 
121C0:  MOVLW  14
121C2:  MOVLB  7
121C4:  MOVWF  x1E
121C6:  MOVLB  0
121C8:  CALL   2060
....................          if(RIGHT && LEFT){ 
121CC:  BSF    F93.2
121CE:  BTFSC  F81.2
121D0:  GOTO   12208
121D4:  BSF    F93.3
121D6:  BTFSC  F81.3
121D8:  GOTO   12208
....................             printf("page Clave"); 
121DC:  MOVLW  B4
121DE:  MOVWF  FF6
121E0:  MOVLW  0C
121E2:  MOVWF  FF7
121E4:  MOVLW  00
121E6:  MOVWF  FF8
121E8:  CALL   4538
....................             SendDataDisplay();  
121EC:  CALL   456A
....................             Op=OFF; 
121F0:  BCF    xA1.6
....................             Op2=OFF; 
121F2:  BCF    xA1.7
....................             MenuAnt=Menu; 
121F4:  MOVFF  347,348
....................             TipoClave=1; 
121F8:  MOVLW  01
121FA:  MOVLB  2
121FC:  MOVWF  xCE
....................             RX_Buffer[3]=0x00; 
121FE:  CLRF   33
....................             RX_Buffer2[3]=0x00; 
12200:  CLRF   3E
....................             Opcion=0; 
12202:  MOVLB  3
12204:  CLRF   x4F
12206:  MOVLB  0
....................          } 
....................       } 
....................    } 
.................... //_--------------------------------------------------------------------------------------------------------------------------------------------------------        
....................  
.................... //_-------------------------------------------------------------------------------------------------------------------------------------------------------- 
....................       if(Menu==2){ //Menu de Tiempo Esterilizacion      
12208:  MOVLB  3
1220A:  MOVF   x47,W
1220C:  SUBLW  02
1220E:  BTFSS  FD8.2
12210:  GOTO   1254A
....................       revisePresion(); 
12214:  MOVLB  0
12216:  CALL   6452
....................          if(RX_Buffer[4]==0x0a){//Selecciono Minutos 
1221A:  MOVF   34,W
1221C:  SUBLW  0A
1221E:  BTFSS  FD8.2
12220:  GOTO   12228
....................             Minutos=ON; 
12224:  BSF    xA2.0
....................             Segundos=OFF; 
12226:  BCF    xA2.1
....................          } 
....................           
....................          if(RX_Buffer[4]==0x0b){//Selecciono Segundos 
12228:  MOVF   34,W
1222A:  SUBLW  0B
1222C:  BTFSS  FD8.2
1222E:  GOTO   12236
....................             Segundos=ON; 
12232:  BSF    xA2.1
....................             Minutos=OFF; 
12234:  BCF    xA2.0
....................          }            
....................           
....................          if(RX_Buffer[4]==0x11 || LEFT){//Selecciono Regresar 
12236:  MOVF   34,W
12238:  SUBLW  11
1223A:  BTFSC  FD8.2
1223C:  GOTO   12248
12240:  BSF    F93.3
12242:  BTFSC  F81.3
12244:  GOTO   1237E
....................             delay_ms(200); 
12248:  MOVLW  C8
1224A:  MOVLB  7
1224C:  MOVWF  x1E
1224E:  MOVLB  0
12250:  CALL   2060
....................             if(RX_Buffer[4]==0x11 || LEFT){ 
12254:  MOVF   34,W
12256:  SUBLW  11
12258:  BTFSC  FD8.2
1225A:  GOTO   12266
1225E:  BSF    F93.3
12260:  BTFSC  F81.3
12262:  GOTO   1237E
....................                Segundos=OFF; 
12266:  BCF    xA2.1
....................                Minutos=OFF; 
12268:  BCF    xA2.0
....................                printf("page CicloPersona"); 
1226A:  MOVLW  C0
1226C:  MOVWF  FF6
1226E:  MOVLW  0C
12270:  MOVWF  FF7
12272:  MOVLW  00
12274:  MOVWF  FF8
12276:  CALL   4538
....................                SendDataDisplay();   
1227A:  CALL   456A
....................                if(!GuardaEEPROM){ 
1227E:  BTFSC  xA2.2
12280:  GOTO   1237E
....................                   CiclosPersonalizados[CicloLibre-1].Minutoest=mEstp; 
12284:  MOVLW  01
12286:  MOVLB  3
12288:  SUBWF  x2D,W
1228A:  MULLW  0A
1228C:  MOVF   FF3,W
1228E:  MOVLB  7
12290:  CLRF   x09
12292:  MOVWF  x08
12294:  MOVLW  09
12296:  ADDWF  x08,W
12298:  MOVWF  01
1229A:  MOVLW  00
1229C:  ADDWFC x09,W
1229E:  MOVWF  03
122A0:  MOVF   01,W
122A2:  ADDLW  E0
122A4:  MOVWF  FE9
122A6:  MOVLW  06
122A8:  ADDWFC 03,W
122AA:  MOVWF  FEA
122AC:  MOVFF  C0,FEF
....................                   CiclosPersonalizados[CicloLibre-1].Segundoest=sEstp; 
122B0:  MOVLW  01
122B2:  MOVLB  3
122B4:  SUBWF  x2D,W
122B6:  MULLW  0A
122B8:  MOVF   FF3,W
122BA:  MOVLB  7
122BC:  CLRF   x09
122BE:  MOVWF  x08
122C0:  MOVLW  03
122C2:  ADDWF  x08,W
122C4:  MOVWF  01
122C6:  MOVLW  00
122C8:  ADDWFC x09,W
122CA:  MOVWF  03
122CC:  MOVF   01,W
122CE:  ADDLW  E0
122D0:  MOVWF  FE9
122D2:  MOVLW  06
122D4:  ADDWFC 03,W
122D6:  MOVWF  FEA
122D8:  MOVFF  BF,FEF
....................                   write_eeprom(101+((CicloLibre-1)*8),mEstp); 
122DC:  MOVLW  01
122DE:  MOVLB  3
122E0:  SUBWF  x2D,W
122E2:  MULLW  08
122E4:  MOVF   FF3,W
122E6:  ADDLW  65
122E8:  MOVLB  7
122EA:  MOVWF  x08
122EC:  CLRF   FAA
122EE:  MOVFF  708,FA9
122F2:  MOVFF  C0,FA8
122F6:  BCF    FA6.6
122F8:  BCF    FA6.7
122FA:  BSF    FA6.2
122FC:  MOVF   FF2,W
122FE:  MOVWF  00
12300:  BCF    FF2.6
12302:  BCF    FF2.7
12304:  MOVLB  F
12306:  MOVLW  55
12308:  MOVWF  FA7
1230A:  MOVLW  AA
1230C:  MOVWF  FA7
1230E:  BSF    FA6.1
12310:  BTFSC  FA6.1
12312:  GOTO   12310
12316:  BCF    FA6.2
12318:  MOVF   00,W
1231A:  IORWF  FF2,F
....................                   delay_ms(10); 
1231C:  MOVLW  0A
1231E:  MOVLB  7
12320:  MOVWF  x1E
12322:  MOVLB  0
12324:  CALL   2060
....................                   write_eeprom(102+((CicloLibre-1)*8),sEstp); 
12328:  MOVLW  01
1232A:  MOVLB  3
1232C:  SUBWF  x2D,W
1232E:  MULLW  08
12330:  MOVF   FF3,W
12332:  ADDLW  66
12334:  MOVLB  7
12336:  MOVWF  x08
12338:  CLRF   FAA
1233A:  MOVFF  708,FA9
1233E:  MOVFF  BF,FA8
12342:  BCF    FA6.6
12344:  BCF    FA6.7
12346:  BSF    FA6.2
12348:  MOVF   FF2,W
1234A:  MOVWF  00
1234C:  BCF    FF2.6
1234E:  BCF    FF2.7
12350:  MOVLB  F
12352:  MOVLW  55
12354:  MOVWF  FA7
12356:  MOVLW  AA
12358:  MOVWF  FA7
1235A:  BSF    FA6.1
1235C:  BTFSC  FA6.1
1235E:  GOTO   1235C
12362:  BCF    FA6.2
12364:  MOVF   00,W
12366:  IORWF  FF2,F
....................                   delay_ms(10); 
12368:  MOVLW  0A
1236A:  MOVLB  7
1236C:  MOVWF  x1E
1236E:  MOVLB  0
12370:  CALL   2060
....................                   mEst=mEstp; 
12374:  MOVFF  C0,BC
....................                   sEst=sEstp; 
12378:  MOVFF  BF,BB
....................                   GuardaEEPROM=ON; 
1237C:  BSF    xA2.2
....................                } 
....................             } 
....................          } 
....................           
....................          if(RIGHT){ 
1237E:  BSF    F93.2
12380:  BTFSC  F81.2
12382:  GOTO   12402
....................             delay_ms(200); 
12386:  MOVLW  C8
12388:  MOVLB  7
1238A:  MOVWF  x1E
1238C:  MOVLB  0
1238E:  CALL   2060
....................             if(RIGHT){ 
12392:  BSF    F93.2
12394:  BTFSC  F81.2
12396:  GOTO   12402
....................                if(!Segundos){ 
1239A:  BTFSC  xA2.1
1239C:  GOTO   123D0
....................                   Segundos=ON; 
123A0:  BSF    xA2.1
....................                   Minutos=OFF; 
123A2:  BCF    xA2.0
....................                   printf("tsecest.pco=65535"); 
123A4:  MOVLW  D2
123A6:  MOVWF  FF6
123A8:  MOVLW  0C
123AA:  MOVWF  FF7
123AC:  MOVLW  00
123AE:  MOVWF  FF8
123B0:  CALL   4538
....................                   SendDataDisplay();   
123B4:  CALL   456A
....................                   printf("tminest.pco=0"); 
123B8:  MOVLW  E4
123BA:  MOVWF  FF6
123BC:  MOVLW  0C
123BE:  MOVWF  FF7
123C0:  MOVLW  00
123C2:  MOVWF  FF8
123C4:  CALL   4538
....................                   SendDataDisplay();   
123C8:  CALL   456A
....................                }else if(!Minutos){ 
123CC:  GOTO   12402
123D0:  BTFSC  xA2.0
123D2:  GOTO   12402
....................                   Segundos=OFF; 
123D6:  BCF    xA2.1
....................                   Minutos=ON; 
123D8:  BSF    xA2.0
....................                   printf("tsecest.pco=0"); 
123DA:  MOVLW  F2
123DC:  MOVWF  FF6
123DE:  MOVLW  0C
123E0:  MOVWF  FF7
123E2:  MOVLW  00
123E4:  MOVWF  FF8
123E6:  CALL   4538
....................                   SendDataDisplay();   
123EA:  CALL   456A
....................                   printf("tminest.pco=65535"); 
123EE:  MOVLW  00
123F0:  MOVWF  FF6
123F2:  MOVLW  0D
123F4:  MOVWF  FF7
123F6:  MOVLW  00
123F8:  MOVWF  FF8
123FA:  CALL   4538
....................                   SendDataDisplay();   
123FE:  CALL   456A
....................                } 
....................             } 
....................          } 
....................           
....................          if(UP){ 
12402:  BSF    F93.0
12404:  BTFSC  F81.0
12406:  GOTO   1242E
....................             delay_ms(200); 
1240A:  MOVLW  C8
1240C:  MOVLB  7
1240E:  MOVWF  x1E
12410:  MOVLB  0
12412:  CALL   2060
....................             if(UP){ 
12416:  BSF    F93.0
12418:  BTFSC  F81.0
1241A:  GOTO   1242E
....................                if(Segundos){ 
1241E:  BTFSS  xA2.1
12420:  GOTO   12426
....................                   sEstp++; 
12424:  INCF   xBF,F
....................                } 
....................                if(Minutos){ 
12426:  BTFSS  xA2.0
12428:  GOTO   1242E
....................                   mEstp++; 
1242C:  INCF   xC0,F
....................                }     
....................             } 
....................          } 
....................           
....................          if(DOWN){ 
1242E:  BSF    F93.1
12430:  BTFSC  F81.1
12432:  GOTO   12462
....................             delay_ms(200); 
12436:  MOVLW  C8
12438:  MOVLB  7
1243A:  MOVWF  x1E
1243C:  MOVLB  0
1243E:  CALL   2060
....................             if(DOWN){ 
12442:  BSF    F93.1
12444:  BTFSC  F81.1
12446:  GOTO   12462
....................                if(Segundos && sEstp>0){ 
1244A:  BTFSS  xA2.1
1244C:  GOTO   1245A
12450:  MOVF   xBF,F
12452:  BTFSC  FD8.2
12454:  GOTO   1245A
....................                   sEstp--; 
12458:  DECF   xBF,F
....................                } 
....................                if(Minutos){ 
1245A:  BTFSS  xA2.0
1245C:  GOTO   12462
....................                   mEstp--; 
12460:  DECF   xC0,F
....................                }     
....................             } 
....................          } 
....................           
....................          if(RX_Buffer[4]==0x0c || RX_Buffer[4]==0x0d){//Tecla arriba Oprimida 
12462:  MOVF   34,W
12464:  SUBLW  0C
12466:  BTFSC  FD8.2
12468:  GOTO   12476
1246C:  MOVF   34,W
1246E:  SUBLW  0D
12470:  BTFSS  FD8.2
12472:  GOTO   1248A
....................             if(Segundos){ 
12476:  BTFSS  xA2.1
12478:  GOTO   1247E
....................                sEstp++; 
1247C:  INCF   xBF,F
....................             } 
....................             if(Minutos){ 
1247E:  BTFSS  xA2.0
12480:  GOTO   12486
....................                mEstp++; 
12484:  INCF   xC0,F
....................             }   
....................             RX_Buffer[4]=0x00;   
12486:  CLRF   34
....................             RX_Buffer2[4]=0x00; 
12488:  CLRF   3F
....................          } 
....................           
....................          if(RX_Buffer[4]==0x0f || RX_Buffer[4]==0x0e){//Tecla abajo oprimida 
1248A:  MOVF   34,W
1248C:  SUBLW  0F
1248E:  BTFSC  FD8.2
12490:  GOTO   1249E
12494:  MOVF   34,W
12496:  SUBLW  0E
12498:  BTFSS  FD8.2
1249A:  GOTO   124BA
....................             if(Segundos && sEstp>0){ 
1249E:  BTFSS  xA2.1
124A0:  GOTO   124AE
124A4:  MOVF   xBF,F
124A6:  BTFSC  FD8.2
124A8:  GOTO   124AE
....................                sEstp--; 
124AC:  DECF   xBF,F
....................             } 
....................             if(Minutos){ 
124AE:  BTFSS  xA2.0
124B0:  GOTO   124B6
....................                mEstp--; 
124B4:  DECF   xC0,F
....................             } 
....................             RX_Buffer[4]=0x00;   
124B6:  CLRF   34
....................             RX_Buffer2[4]=0x00; 
124B8:  CLRF   3F
....................          } 
....................           
....................          if(mEstp<1)mEstp=99; 
124BA:  MOVF   xC0,F
124BC:  BTFSS  FD8.2
124BE:  GOTO   124C6
124C2:  MOVLW  63
124C4:  MOVWF  xC0
....................          if(mEstp>99)mEstp=1; 
124C6:  MOVF   xC0,W
124C8:  SUBLW  63
124CA:  BTFSC  FD8.0
124CC:  GOTO   124D4
124D0:  MOVLW  01
124D2:  MOVWF  xC0
....................          if(sEstp>59)sEstp=0; 
124D4:  MOVF   xBF,W
124D6:  SUBLW  3B
124D8:  BTFSS  FD8.0
124DA:  CLRF   xBF
....................              
....................          printf("tminest.txt=\"%02u\"",mEstp); 
124DC:  MOVLW  12
124DE:  MOVWF  FF6
124E0:  MOVLW  0D
124E2:  MOVWF  FF7
124E4:  MOVLW  00
124E6:  MOVWF  FF8
124E8:  MOVLW  0D
124EA:  MOVLB  7
124EC:  MOVWF  x0D
124EE:  MOVLB  0
124F0:  CALL   5D0E
124F4:  MOVFF  C0,70D
124F8:  MOVLW  01
124FA:  MOVLB  7
124FC:  MOVWF  x0E
124FE:  MOVLB  0
12500:  CALL   632A
12504:  MOVLW  22
12506:  BTFSS  F9E.4
12508:  GOTO   12506
1250C:  MOVWF  FAD
....................          SendDataDisplay(); 
1250E:  CALL   456A
....................          printf("tsecest.txt=\"%02u\"",sEstp); 
12512:  MOVLW  26
12514:  MOVWF  FF6
12516:  MOVLW  0D
12518:  MOVWF  FF7
1251A:  MOVLW  00
1251C:  MOVWF  FF8
1251E:  MOVLW  0D
12520:  MOVLB  7
12522:  MOVWF  x0D
12524:  MOVLB  0
12526:  CALL   5D0E
1252A:  MOVFF  BF,70D
1252E:  MOVLW  01
12530:  MOVLB  7
12532:  MOVWF  x0E
12534:  MOVLB  0
12536:  CALL   632A
1253A:  MOVLW  22
1253C:  BTFSS  F9E.4
1253E:  GOTO   1253C
12542:  MOVWF  FAD
....................          SendDataDisplay(); 
12544:  CALL   456A
12548:  MOVLB  3
....................     } 
.................... //_--------------------------------------------------------------------------------------------------------------------------------------------------------        
....................  
.................... //_-------------------------------------------------------------------------------------------------------------------------------------------------------- 
....................     if(Menu==3){ //Menu de Tiempo de Secado 
1254A:  MOVF   x47,W
1254C:  SUBLW  03
1254E:  BTFSS  FD8.2
12550:  GOTO   1286C
....................       revisePresion();         
12554:  MOVLB  0
12556:  CALL   6452
....................              
....................          if(RX_Buffer[4]==0x0a){//Selecciono Minutos 
1255A:  MOVF   34,W
1255C:  SUBLW  0A
1255E:  BTFSS  FD8.2
12560:  GOTO   12568
....................             Minutos=ON; 
12564:  BSF    xA2.0
....................             Segundos=OFF; 
12566:  BCF    xA2.1
....................          } 
....................           
....................          if(RX_Buffer[4]==0x0b){//Selecciono Segundos 
12568:  MOVF   34,W
1256A:  SUBLW  0B
1256C:  BTFSS  FD8.2
1256E:  GOTO   12576
....................             Segundos=ON; 
12572:  BSF    xA2.1
....................             Minutos=OFF; 
12574:  BCF    xA2.0
....................          } 
....................           
....................          if(RX_Buffer[4]==0x11 || LEFT){//Selecciono Regresar 
12576:  MOVF   34,W
12578:  SUBLW  11
1257A:  BTFSC  FD8.2
1257C:  GOTO   12588
12580:  BSF    F93.3
12582:  BTFSC  F81.3
12584:  GOTO   126A0
....................             Segundos=OFF; 
12588:  BCF    xA2.1
....................             Minutos=OFF; 
1258A:  BCF    xA2.0
....................             printf("page CicloPersona"); 
1258C:  MOVLW  3A
1258E:  MOVWF  FF6
12590:  MOVLW  0D
12592:  MOVWF  FF7
12594:  MOVLW  00
12596:  MOVWF  FF8
12598:  CALL   4538
....................             SendDataDisplay();   
1259C:  CALL   456A
....................             if(!GuardaEEPROM){ 
125A0:  BTFSC  xA2.2
125A2:  GOTO   126A0
....................                CiclosPersonalizados[CicloLibre-1].Minutosec=mSecp; 
125A6:  MOVLW  01
125A8:  MOVLB  3
125AA:  SUBWF  x2D,W
125AC:  MULLW  0A
125AE:  MOVF   FF3,W
125B0:  MOVLB  7
125B2:  CLRF   x09
125B4:  MOVWF  x08
125B6:  MOVLW  04
125B8:  ADDWF  x08,W
125BA:  MOVWF  01
125BC:  MOVLW  00
125BE:  ADDWFC x09,W
125C0:  MOVWF  03
125C2:  MOVF   01,W
125C4:  ADDLW  E0
125C6:  MOVWF  FE9
125C8:  MOVLW  06
125CA:  ADDWFC 03,W
125CC:  MOVWF  FEA
125CE:  MOVFF  C2,FEF
....................                CiclosPersonalizados[CicloLibre-1].Segundosec=sSecp; 
125D2:  MOVLW  01
125D4:  MOVLB  3
125D6:  SUBWF  x2D,W
125D8:  MULLW  0A
125DA:  MOVF   FF3,W
125DC:  MOVLB  7
125DE:  CLRF   x09
125E0:  MOVWF  x08
125E2:  MOVLW  05
125E4:  ADDWF  x08,W
125E6:  MOVWF  01
125E8:  MOVLW  00
125EA:  ADDWFC x09,W
125EC:  MOVWF  03
125EE:  MOVF   01,W
125F0:  ADDLW  E0
125F2:  MOVWF  FE9
125F4:  MOVLW  06
125F6:  ADDWFC 03,W
125F8:  MOVWF  FEA
125FA:  MOVFF  C1,FEF
....................                write_eeprom(103+((CicloLibre-1)*8),mSecp); 
125FE:  MOVLW  01
12600:  MOVLB  3
12602:  SUBWF  x2D,W
12604:  MULLW  08
12606:  MOVF   FF3,W
12608:  ADDLW  67
1260A:  MOVLB  7
1260C:  MOVWF  x08
1260E:  CLRF   FAA
12610:  MOVFF  708,FA9
12614:  MOVFF  C2,FA8
12618:  BCF    FA6.6
1261A:  BCF    FA6.7
1261C:  BSF    FA6.2
1261E:  MOVF   FF2,W
12620:  MOVWF  00
12622:  BCF    FF2.6
12624:  BCF    FF2.7
12626:  MOVLB  F
12628:  MOVLW  55
1262A:  MOVWF  FA7
1262C:  MOVLW  AA
1262E:  MOVWF  FA7
12630:  BSF    FA6.1
12632:  BTFSC  FA6.1
12634:  GOTO   12632
12638:  BCF    FA6.2
1263A:  MOVF   00,W
1263C:  IORWF  FF2,F
....................                delay_ms(10); 
1263E:  MOVLW  0A
12640:  MOVLB  7
12642:  MOVWF  x1E
12644:  MOVLB  0
12646:  CALL   2060
....................                write_eeprom(104+((CicloLibre-1)*8),sSecp); 
1264A:  MOVLW  01
1264C:  MOVLB  3
1264E:  SUBWF  x2D,W
12650:  MULLW  08
12652:  MOVF   FF3,W
12654:  ADDLW  68
12656:  MOVLB  7
12658:  MOVWF  x08
1265A:  CLRF   FAA
1265C:  MOVFF  708,FA9
12660:  MOVFF  C1,FA8
12664:  BCF    FA6.6
12666:  BCF    FA6.7
12668:  BSF    FA6.2
1266A:  MOVF   FF2,W
1266C:  MOVWF  00
1266E:  BCF    FF2.6
12670:  BCF    FF2.7
12672:  MOVLB  F
12674:  MOVLW  55
12676:  MOVWF  FA7
12678:  MOVLW  AA
1267A:  MOVWF  FA7
1267C:  BSF    FA6.1
1267E:  BTFSC  FA6.1
12680:  GOTO   1267E
12684:  BCF    FA6.2
12686:  MOVF   00,W
12688:  IORWF  FF2,F
....................                delay_ms(10); 
1268A:  MOVLW  0A
1268C:  MOVLB  7
1268E:  MOVWF  x1E
12690:  MOVLB  0
12692:  CALL   2060
....................                mSec=mSecp; 
12696:  MOVFF  C2,BE
....................                sSec=sSecp; 
1269A:  MOVFF  C1,BD
....................                GuardaEEPROM=ON; 
1269E:  BSF    xA2.2
....................             } 
....................          } 
....................           
....................          if(RIGHT){ 
126A0:  BSF    F93.2
126A2:  BTFSC  F81.2
126A4:  GOTO   12724
....................             delay_ms(200); 
126A8:  MOVLW  C8
126AA:  MOVLB  7
126AC:  MOVWF  x1E
126AE:  MOVLB  0
126B0:  CALL   2060
....................             if(RIGHT){ 
126B4:  BSF    F93.2
126B6:  BTFSC  F81.2
126B8:  GOTO   12724
....................                if(!Segundos){ 
126BC:  BTFSC  xA2.1
126BE:  GOTO   126F2
....................                   Segundos=ON; 
126C2:  BSF    xA2.1
....................                   Minutos=OFF; 
126C4:  BCF    xA2.0
....................                   printf("tminsec.pco=0"); 
126C6:  MOVLW  4C
126C8:  MOVWF  FF6
126CA:  MOVLW  0D
126CC:  MOVWF  FF7
126CE:  MOVLW  00
126D0:  MOVWF  FF8
126D2:  CALL   4538
....................                   SendDataDisplay();                    
126D6:  CALL   456A
....................                   printf("tsecsec.pco=65535"); 
126DA:  MOVLW  5A
126DC:  MOVWF  FF6
126DE:  MOVLW  0D
126E0:  MOVWF  FF7
126E2:  MOVLW  00
126E4:  MOVWF  FF8
126E6:  CALL   4538
....................                   SendDataDisplay();   
126EA:  CALL   456A
....................                }else if(!Minutos){ 
126EE:  GOTO   12724
126F2:  BTFSC  xA2.0
126F4:  GOTO   12724
....................                   Segundos=OFF; 
126F8:  BCF    xA2.1
....................                   Minutos=ON; 
126FA:  BSF    xA2.0
....................                   printf("tminsec.pco=65535"); 
126FC:  MOVLW  6C
126FE:  MOVWF  FF6
12700:  MOVLW  0D
12702:  MOVWF  FF7
12704:  MOVLW  00
12706:  MOVWF  FF8
12708:  CALL   4538
....................                   SendDataDisplay();   
1270C:  CALL   456A
....................                   printf("tsecsec.pco=0"); 
12710:  MOVLW  7E
12712:  MOVWF  FF6
12714:  MOVLW  0D
12716:  MOVWF  FF7
12718:  MOVLW  00
1271A:  MOVWF  FF8
1271C:  CALL   4538
....................                   SendDataDisplay();   
12720:  CALL   456A
....................                } 
....................             } 
....................          } 
....................           
....................          if(UP){ 
12724:  BSF    F93.0
12726:  BTFSC  F81.0
12728:  GOTO   12750
....................             delay_ms(200); 
1272C:  MOVLW  C8
1272E:  MOVLB  7
12730:  MOVWF  x1E
12732:  MOVLB  0
12734:  CALL   2060
....................             if(UP){ 
12738:  BSF    F93.0
1273A:  BTFSC  F81.0
1273C:  GOTO   12750
....................                if(Segundos){ 
12740:  BTFSS  xA2.1
12742:  GOTO   12748
....................                   sSecp++; 
12746:  INCF   xC1,F
....................                } 
....................                if(Minutos){ 
12748:  BTFSS  xA2.0
1274A:  GOTO   12750
....................                   mSecp++; 
1274E:  INCF   xC2,F
....................                }   
....................             } 
....................          } 
....................           
....................          if(DOWN){ 
12750:  BSF    F93.1
12752:  BTFSC  F81.1
12754:  GOTO   12784
....................             delay_ms(200); 
12758:  MOVLW  C8
1275A:  MOVLB  7
1275C:  MOVWF  x1E
1275E:  MOVLB  0
12760:  CALL   2060
....................             if(DOWN){ 
12764:  BSF    F93.1
12766:  BTFSC  F81.1
12768:  GOTO   12784
....................                if(Segundos && sSecp>0){ 
1276C:  BTFSS  xA2.1
1276E:  GOTO   1277C
12772:  MOVF   xC1,F
12774:  BTFSC  FD8.2
12776:  GOTO   1277C
....................                   sSecp--; 
1277A:  DECF   xC1,F
....................                } 
....................                if(Minutos){ 
1277C:  BTFSS  xA2.0
1277E:  GOTO   12784
....................                   mSecp--; 
12782:  DECF   xC2,F
....................                }   
....................             } 
....................          } 
....................           
....................          if(RX_Buffer[4]==0x0c || RX_Buffer[4]==0x0d){//Tecla Derecha Oprimida 
12784:  MOVF   34,W
12786:  SUBLW  0C
12788:  BTFSC  FD8.2
1278A:  GOTO   12798
1278E:  MOVF   34,W
12790:  SUBLW  0D
12792:  BTFSS  FD8.2
12794:  GOTO   127AC
....................             if(Segundos){ 
12798:  BTFSS  xA2.1
1279A:  GOTO   127A0
....................                sSecp++; 
1279E:  INCF   xC1,F
....................             } 
....................             if(Minutos){ 
127A0:  BTFSS  xA2.0
127A2:  GOTO   127A8
....................                mSecp++; 
127A6:  INCF   xC2,F
....................             }   
....................             RX_Buffer[4]=0x00;   
127A8:  CLRF   34
....................             RX_Buffer2[4]=0x00;  
127AA:  CLRF   3F
....................          } 
....................           
....................          if(RX_Buffer[4]==0x0f || RX_Buffer[4]==0x0e){//Tecla Izquierda Oprimida 
127AC:  MOVF   34,W
127AE:  SUBLW  0F
127B0:  BTFSC  FD8.2
127B2:  GOTO   127C0
127B6:  MOVF   34,W
127B8:  SUBLW  0E
127BA:  BTFSS  FD8.2
127BC:  GOTO   127DC
....................             if(Segundos && sSecp>0){ 
127C0:  BTFSS  xA2.1
127C2:  GOTO   127D0
127C6:  MOVF   xC1,F
127C8:  BTFSC  FD8.2
127CA:  GOTO   127D0
....................                sSecp--; 
127CE:  DECF   xC1,F
....................             } 
....................             if(Minutos){ 
127D0:  BTFSS  xA2.0
127D2:  GOTO   127D8
....................                mSecp--; 
127D6:  DECF   xC2,F
....................             }  
....................             RX_Buffer[4]=0x00;   
127D8:  CLRF   34
....................             RX_Buffer2[4]=0x00;             
127DA:  CLRF   3F
....................          } 
....................          if(mSecp<1)mSecp=99; 
127DC:  MOVF   xC2,F
127DE:  BTFSS  FD8.2
127E0:  GOTO   127E8
127E4:  MOVLW  63
127E6:  MOVWF  xC2
....................          if(mSecp>99)mSecp=1; 
127E8:  MOVF   xC2,W
127EA:  SUBLW  63
127EC:  BTFSC  FD8.0
127EE:  GOTO   127F6
127F2:  MOVLW  01
127F4:  MOVWF  xC2
....................          if(sSecp>59)mSecp=0; 
127F6:  MOVF   xC1,W
127F8:  SUBLW  3B
127FA:  BTFSS  FD8.0
127FC:  CLRF   xC2
....................              
....................       printf("tminsec.txt=\"%02u\"",mSecp); 
127FE:  MOVLW  8C
12800:  MOVWF  FF6
12802:  MOVLW  0D
12804:  MOVWF  FF7
12806:  MOVLW  00
12808:  MOVWF  FF8
1280A:  MOVLW  0D
1280C:  MOVLB  7
1280E:  MOVWF  x0D
12810:  MOVLB  0
12812:  CALL   5D0E
12816:  MOVFF  C2,70D
1281A:  MOVLW  01
1281C:  MOVLB  7
1281E:  MOVWF  x0E
12820:  MOVLB  0
12822:  CALL   632A
12826:  MOVLW  22
12828:  BTFSS  F9E.4
1282A:  GOTO   12828
1282E:  MOVWF  FAD
....................       SendDataDisplay(); 
12830:  CALL   456A
....................       printf("tsecsec.txt=\"%02u\"",sSecp); 
12834:  MOVLW  A0
12836:  MOVWF  FF6
12838:  MOVLW  0D
1283A:  MOVWF  FF7
1283C:  MOVLW  00
1283E:  MOVWF  FF8
12840:  MOVLW  0D
12842:  MOVLB  7
12844:  MOVWF  x0D
12846:  MOVLB  0
12848:  CALL   5D0E
1284C:  MOVFF  C1,70D
12850:  MOVLW  01
12852:  MOVLB  7
12854:  MOVWF  x0E
12856:  MOVLB  0
12858:  CALL   632A
1285C:  MOVLW  22
1285E:  BTFSS  F9E.4
12860:  GOTO   1285E
12864:  MOVWF  FAD
....................       SendDataDisplay(); 
12866:  CALL   456A
1286A:  MOVLB  3
....................     } 
.................... //_--------------------------------------------------------------------------------------------------------------------------------------------------------        
....................  
.................... //_-------------------------------------------------------------------------------------------------------------------------------------------------------- 
....................     if(Menu==4){ //Menu de Temperatura 
1286C:  MOVF   x47,W
1286E:  SUBLW  04
12870:  BTFSS  FD8.2
12872:  GOTO   129E0
....................       revisePresion(); 
12876:  MOVLB  0
12878:  CALL   6452
....................          if(Setpoint<105) 
1287C:  MOVLB  3
1287E:  MOVF   x4E,W
12880:  SUBLW  68
12882:  BTFSS  FD8.0
12884:  GOTO   1288C
....................             Setpoint=134; 
12888:  MOVLW  86
1288A:  MOVWF  x4E
....................          if(Setpoint>134) 
1288C:  MOVF   x4E,W
1288E:  SUBLW  86
12890:  BTFSC  FD8.0
12892:  GOTO   1289A
....................             Setpoint=105; 
12896:  MOVLW  69
12898:  MOVWF  x4E
....................           
....................          if(RX_Buffer[4]==0x11 || LEFT){//Selecciono Regresar 
1289A:  MOVF   34,W
1289C:  SUBLW  11
1289E:  BTFSC  FD8.2
128A0:  GOTO   128AC
128A4:  BSF    F93.3
128A6:  BTFSC  F81.3
128A8:  GOTO   1293C
....................             Segundos=OFF; 
128AC:  MOVLB  0
128AE:  BCF    xA2.1
....................             Minutos=OFF; 
128B0:  BCF    xA2.0
....................             printf("page CicloPersona"); 
128B2:  MOVLW  B4
128B4:  MOVWF  FF6
128B6:  MOVLW  0D
128B8:  MOVWF  FF7
128BA:  MOVLW  00
128BC:  MOVWF  FF8
128BE:  CALL   4538
....................             SendDataDisplay();   
128C2:  CALL   456A
....................             if(!GuardaEEPROM){ 
128C6:  BTFSC  xA2.2
128C8:  GOTO   1293A
....................                CiclosPersonalizados[CicloLibre-1].Temperatura=Setpoint; 
128CC:  MOVLW  01
128CE:  MOVLB  3
128D0:  SUBWF  x2D,W
128D2:  MULLW  0A
128D4:  MOVF   FF3,W
128D6:  MOVLB  7
128D8:  CLRF   x09
128DA:  MOVWF  x08
128DC:  MOVLW  E0
128DE:  ADDWF  x08,W
128E0:  MOVWF  FE9
128E2:  MOVLW  06
128E4:  ADDWFC x09,W
128E6:  MOVWF  FEA
128E8:  MOVFF  34E,FEF
....................                write_eeprom(100+((CicloLibre-1)*8),Setpoint); 
128EC:  MOVLW  01
128EE:  MOVLB  3
128F0:  SUBWF  x2D,W
128F2:  MULLW  08
128F4:  MOVF   FF3,W
128F6:  ADDLW  64
128F8:  MOVLB  7
128FA:  MOVWF  x08
128FC:  CLRF   FAA
128FE:  MOVFF  708,FA9
12902:  MOVFF  34E,FA8
12906:  BCF    FA6.6
12908:  BCF    FA6.7
1290A:  BSF    FA6.2
1290C:  MOVF   FF2,W
1290E:  MOVWF  00
12910:  BCF    FF2.6
12912:  BCF    FF2.7
12914:  MOVLB  F
12916:  MOVLW  55
12918:  MOVWF  FA7
1291A:  MOVLW  AA
1291C:  MOVWF  FA7
1291E:  BSF    FA6.1
12920:  BTFSC  FA6.1
12922:  GOTO   12920
12926:  BCF    FA6.2
12928:  MOVF   00,W
1292A:  IORWF  FF2,F
....................                delay_ms(10); 
1292C:  MOVLW  0A
1292E:  MOVLB  7
12930:  MOVWF  x1E
12932:  MOVLB  0
12934:  CALL   2060
....................                GuardaEEPROM=ON; 
12938:  BSF    xA2.2
1293A:  MOVLB  3
....................             } 
....................          } 
....................           
....................          if(UP){ 
1293C:  BSF    F93.0
1293E:  BTFSC  F81.0
12940:  GOTO   1295C
....................             delay_ms(200); 
12944:  MOVLW  C8
12946:  MOVLB  7
12948:  MOVWF  x1E
1294A:  MOVLB  0
1294C:  CALL   2060
....................             if(UP){ 
12950:  BSF    F93.0
12952:  BTFSC  F81.0
12954:  GOTO   1295E
....................                Setpoint++; 
12958:  MOVLB  3
1295A:  INCF   x4E,F
1295C:  MOVLB  0
....................             } 
....................          } 
....................           
....................          if(DOWN){ 
1295E:  BSF    F93.1
12960:  BTFSC  F81.1
12962:  GOTO   12980
....................             delay_ms(200); 
12966:  MOVLW  C8
12968:  MOVLB  7
1296A:  MOVWF  x1E
1296C:  MOVLB  0
1296E:  CALL   2060
....................             if(DOWN){ 
12972:  BSF    F93.1
12974:  BTFSC  F81.1
12976:  GOTO   12980
....................                Setpoint--; 
1297A:  MOVLB  3
1297C:  DECF   x4E,F
1297E:  MOVLB  0
....................             } 
....................          } 
....................           
....................          if(RX_Buffer[4]==0x0d){//Tecla Arriba Oprimida 
12980:  MOVF   34,W
12982:  SUBLW  0D
12984:  BTFSS  FD8.2
12986:  GOTO   12994
....................             Setpoint++; 
1298A:  MOVLB  3
1298C:  INCF   x4E,F
....................             RX_Buffer[4]=0x00;   
1298E:  CLRF   34
....................             RX_Buffer2[4]=0x00;             
12990:  CLRF   3F
12992:  MOVLB  0
....................          } 
....................           
....................          if(RX_Buffer[4]==0x0c){//Tecla Abajo Oprimida 
12994:  MOVF   34,W
12996:  SUBLW  0C
12998:  BTFSS  FD8.2
1299A:  GOTO   129A8
....................             Setpoint--; 
1299E:  MOVLB  3
129A0:  DECF   x4E,F
....................             RX_Buffer[4]=0x00; 
129A2:  CLRF   34
....................             RX_Buffer2[4]=0x00;                         
129A4:  CLRF   3F
129A6:  MOVLB  0
....................          } 
....................       printf("tsettem.txt=\"%03u\"",Setpoint); 
129A8:  MOVLW  C6
129AA:  MOVWF  FF6
129AC:  MOVLW  0D
129AE:  MOVWF  FF7
129B0:  MOVLW  00
129B2:  MOVWF  FF8
129B4:  MOVLW  0D
129B6:  MOVLB  7
129B8:  MOVWF  x0D
129BA:  MOVLB  0
129BC:  CALL   5D0E
129C0:  MOVFF  34E,70D
129C4:  MOVLW  03
129C6:  MOVLB  7
129C8:  MOVWF  x0E
129CA:  MOVLB  0
129CC:  CALL   632A
129D0:  MOVLW  22
129D2:  BTFSS  F9E.4
129D4:  GOTO   129D2
129D8:  MOVWF  FAD
....................       SendDataDisplay(); 
129DA:  CALL   456A
129DE:  MOVLB  3
....................     } 
.................... //_--------------------------------------------------------------------------------------------------------------------------------------------------------        
....................  
.................... //_--------------------------------------------------------------------------------------------------------------------------------------------------------       
....................    if(Menu==5){//Menu de Nivel 
129E0:  MOVF   x47,W
129E2:  SUBLW  05
129E4:  BTFSS  FD8.2
129E6:  GOTO   12B98
....................       revisePresion(); 
129EA:  MOVLB  0
129EC:  CALL   6452
....................          if(Nivel<15) 
129F0:  MOVLB  3
129F2:  MOVF   x62,F
129F4:  BTFSS  FD8.2
129F6:  GOTO   12A0C
129FA:  MOVF   x61,W
129FC:  SUBLW  0E
129FE:  BTFSS  FD8.0
12A00:  GOTO   12A0C
....................             Nivel=Atmosferica; 
12A04:  MOVFF  33B,362
12A08:  MOVFF  33A,361
....................          if(Nivel>Atmosferica) 
12A0C:  MOVF   x3B,W
12A0E:  SUBWF  x62,W
12A10:  BTFSS  FD8.0
12A12:  GOTO   12A2C
12A16:  BTFSS  FD8.2
12A18:  GOTO   12A26
12A1C:  MOVF   x61,W
12A1E:  SUBWF  x3A,W
12A20:  BTFSC  FD8.0
12A22:  GOTO   12A2C
....................             Nivel=15; 
12A26:  CLRF   x62
12A28:  MOVLW  0F
12A2A:  MOVWF  x61
....................           
....................          if(RX_Buffer[4]==0x11 || LEFT){//Selecciono Regresar 
12A2C:  MOVF   34,W
12A2E:  SUBLW  11
12A30:  BTFSC  FD8.2
12A32:  GOTO   12A3E
12A36:  BSF    F93.3
12A38:  BTFSC  F81.3
12A3A:  GOTO   12AE0
....................             Segundos=OFF; 
12A3E:  MOVLB  0
12A40:  BCF    xA2.1
....................             Minutos=OFF;             
12A42:  BCF    xA2.0
....................             tiempo_secado=0; 
12A44:  MOVLB  3
12A46:  CLRF   x52
....................             printf("page CicloPersona"); 
12A48:  MOVLW  DA
12A4A:  MOVWF  FF6
12A4C:  MOVLW  0D
12A4E:  MOVWF  FF7
12A50:  MOVLW  00
12A52:  MOVWF  FF8
12A54:  MOVLB  0
12A56:  CALL   4538
....................             SendDataDisplay();  
12A5A:  CALL   456A
....................             if(!GuardaEEPROM){     
12A5E:  BTFSC  xA2.2
12A60:  GOTO   12ADE
....................                CiclosPersonalizados[CicloLibre-1].NivelVacio=Nivel; 
12A64:  MOVLW  01
12A66:  MOVLB  3
12A68:  SUBWF  x2D,W
12A6A:  MULLW  0A
12A6C:  MOVF   FF3,W
12A6E:  MOVLB  7
12A70:  CLRF   x09
12A72:  MOVWF  x08
12A74:  MOVLW  07
12A76:  ADDWF  x08,W
12A78:  MOVWF  01
12A7A:  MOVLW  00
12A7C:  ADDWFC x09,W
12A7E:  MOVWF  03
12A80:  MOVF   01,W
12A82:  ADDLW  E0
12A84:  MOVWF  FE9
12A86:  MOVLW  06
12A88:  ADDWFC 03,W
12A8A:  MOVWF  FEA
12A8C:  MOVFF  361,FEF
....................                write_eeprom(106+((CicloLibre-1)*8),Nivel); 
12A90:  MOVLW  01
12A92:  MOVLB  3
12A94:  SUBWF  x2D,W
12A96:  MULLW  08
12A98:  MOVF   FF3,W
12A9A:  ADDLW  6A
12A9C:  MOVLB  7
12A9E:  MOVWF  x08
12AA0:  CLRF   FAA
12AA2:  MOVFF  708,FA9
12AA6:  MOVFF  361,FA8
12AAA:  BCF    FA6.6
12AAC:  BCF    FA6.7
12AAE:  BSF    FA6.2
12AB0:  MOVF   FF2,W
12AB2:  MOVWF  00
12AB4:  BCF    FF2.6
12AB6:  BCF    FF2.7
12AB8:  MOVLB  F
12ABA:  MOVLW  55
12ABC:  MOVWF  FA7
12ABE:  MOVLW  AA
12AC0:  MOVWF  FA7
12AC2:  BSF    FA6.1
12AC4:  BTFSC  FA6.1
12AC6:  GOTO   12AC4
12ACA:  BCF    FA6.2
12ACC:  MOVF   00,W
12ACE:  IORWF  FF2,F
....................                delay_ms(20);             
12AD0:  MOVLW  14
12AD2:  MOVLB  7
12AD4:  MOVWF  x1E
12AD6:  MOVLB  0
12AD8:  CALL   2060
....................                GuardaEEPROM=ON; 
12ADC:  BSF    xA2.2
12ADE:  MOVLB  3
....................             } 
....................          } 
....................           
....................          if(UP){ 
12AE0:  BSF    F93.0
12AE2:  BTFSC  F81.0
12AE4:  GOTO   12B04
....................             delay_ms(200); 
12AE8:  MOVLW  C8
12AEA:  MOVLB  7
12AEC:  MOVWF  x1E
12AEE:  MOVLB  0
12AF0:  CALL   2060
....................             if(UP){ 
12AF4:  BSF    F93.0
12AF6:  BTFSC  F81.0
12AF8:  GOTO   12B06
....................                Nivel++; 
12AFC:  MOVLB  3
12AFE:  INCF   x61,F
12B00:  BTFSC  FD8.2
12B02:  INCF   x62,F
12B04:  MOVLB  0
....................             } 
....................          } 
....................           
....................          if(DOWN){ 
12B06:  BSF    F93.1
12B08:  BTFSC  F81.1
12B0A:  GOTO   12B2E
....................             delay_ms(200); 
12B0E:  MOVLW  C8
12B10:  MOVLB  7
12B12:  MOVWF  x1E
12B14:  MOVLB  0
12B16:  CALL   2060
....................             if(DOWN){ 
12B1A:  BSF    F93.1
12B1C:  BTFSC  F81.1
12B1E:  GOTO   12B2E
....................                Nivel--; 
12B22:  MOVLB  3
12B24:  MOVF   x61,W
12B26:  BTFSC  FD8.2
12B28:  DECF   x62,F
12B2A:  DECF   x61,F
12B2C:  MOVLB  0
....................             } 
....................          } 
....................           
....................          if(RX_Buffer[4]==0x0d){//Tecla Arriba Oprimida 
12B2E:  MOVF   34,W
12B30:  SUBLW  0D
12B32:  BTFSS  FD8.2
12B34:  GOTO   12B46
....................             Nivel++;             
12B38:  MOVLB  3
12B3A:  INCF   x61,F
12B3C:  BTFSC  FD8.2
12B3E:  INCF   x62,F
....................             RX_Buffer[4]=0x00;             
12B40:  CLRF   34
....................             RX_Buffer2[4]=0x00;             
12B42:  CLRF   3F
12B44:  MOVLB  0
....................          } 
....................           
....................          if(RX_Buffer[4]==0x0c){//Tecla Abajo Oprimida 
12B46:  MOVF   34,W
12B48:  SUBLW  0C
12B4A:  BTFSS  FD8.2
12B4C:  GOTO   12B60
....................             Nivel--; 
12B50:  MOVLB  3
12B52:  MOVF   x61,W
12B54:  BTFSC  FD8.2
12B56:  DECF   x62,F
12B58:  DECF   x61,F
....................             RX_Buffer[4]=0x00; 
12B5A:  CLRF   34
....................             RX_Buffer2[4]=0x00;             
12B5C:  CLRF   3F
12B5E:  MOVLB  0
....................          } 
....................           
....................       printf("tnivel.txt=\"%02Lu\"",Nivel); 
12B60:  MOVLW  EC
12B62:  MOVWF  FF6
12B64:  MOVLW  0D
12B66:  MOVWF  FF7
12B68:  MOVLW  00
12B6A:  MOVWF  FF8
12B6C:  MOVLW  0C
12B6E:  MOVLB  7
12B70:  MOVWF  x0D
12B72:  MOVLB  0
12B74:  CALL   5D0E
12B78:  MOVLW  0B
12B7A:  MOVWF  FE9
12B7C:  MOVFF  362,70D
12B80:  MOVFF  361,70C
12B84:  CALL   63A8
12B88:  MOVLW  22
12B8A:  BTFSS  F9E.4
12B8C:  GOTO   12B8A
12B90:  MOVWF  FAD
....................       SendDataDisplay(); 
12B92:  CALL   456A
12B96:  MOVLB  3
....................    } 
.................... //_--------------------------------------------------------------------------------------------------------------------------------------------------------       
....................  
.................... //_--------------------------------------------------------------------------------------------------------------------------------------------------------       
....................       if(Menu==6){ // Menu de Prueba de Componentes 
12B98:  MOVF   x47,W
12B9A:  SUBLW  06
12B9C:  BTFSS  FD8.2
12B9E:  GOTO   13312
....................          PruebaEstados=ON; 
12BA2:  MOVLB  0
12BA4:  BSF    xA1.4
....................           
....................          if(RX_Buffer[4]==0x01)//Oprimio EV Paso 
12BA6:  DECFSZ 34,W
12BA8:  GOTO   12BB2
....................          { 
....................             EstadoPaso=!EstadoPaso; 
12BAC:  BTG    xA2.3
....................             RX_Buffer[4]=0x00; 
12BAE:  CLRF   34
....................             RX_Buffer2[4]=0x00; 
12BB0:  CLRF   3F
....................          } 
....................           
....................          if(EstadoPaso){ 
12BB2:  BTFSS  xA2.3
12BB4:  GOTO   12BD4
....................             printf("b0.bco=2016"); 
12BB8:  MOVLW  00
12BBA:  MOVWF  FF6
12BBC:  MOVLW  0E
12BBE:  MOVWF  FF7
12BC0:  MOVLW  00
12BC2:  MOVWF  FF8
12BC4:  CALL   4538
....................             SendDataDisplay();  
12BC8:  CALL   456A
....................             Paso_on; 
12BCC:  BCF    F8B.0
12BCE:  BCF    F94.0
....................          }else{ 
12BD0:  GOTO   12BEC
....................             printf("b0.bco=63488"); 
12BD4:  MOVLW  0C
12BD6:  MOVWF  FF6
12BD8:  MOVLW  0E
12BDA:  MOVWF  FF7
12BDC:  MOVLW  00
12BDE:  MOVWF  FF8
12BE0:  CALL   4538
....................             SendDataDisplay();  
12BE4:  CALL   456A
....................             Paso_off; 
12BE8:  BSF    F8B.0
12BEA:  BCF    F94.0
....................          } 
....................           
....................          if(RX_Buffer[4]==0x02)//Oprimio EV Desfogue 
12BEC:  MOVF   34,W
12BEE:  SUBLW  02
12BF0:  BTFSS  FD8.2
12BF2:  GOTO   12BFC
....................          { 
....................             EstadoDesfogue=!EstadoDesfogue; 
12BF6:  BTG    xA1.0
....................             RX_Buffer[4]=0x00; 
12BF8:  CLRF   34
....................             RX_Buffer2[4]=0x00; 
12BFA:  CLRF   3F
....................          } 
....................           
....................          if(EstadoDesfogue){ 
12BFC:  BTFSS  xA1.0
12BFE:  GOTO   12C1E
....................             printf("b1.bco=2016"); 
12C02:  MOVLW  1A
12C04:  MOVWF  FF6
12C06:  MOVLW  0E
12C08:  MOVWF  FF7
12C0A:  MOVLW  00
12C0C:  MOVWF  FF8
12C0E:  CALL   4538
....................             SendDataDisplay();  
12C12:  CALL   456A
....................             Desfogue_on; 
12C16:  BCF    F8B.1
12C18:  BCF    F94.1
....................          }else{ 
12C1A:  GOTO   12C36
....................             printf("b1.bco=63488"); 
12C1E:  MOVLW  26
12C20:  MOVWF  FF6
12C22:  MOVLW  0E
12C24:  MOVWF  FF7
12C26:  MOVLW  00
12C28:  MOVWF  FF8
12C2A:  CALL   4538
....................             SendDataDisplay();  
12C2E:  CALL   456A
....................             Desfogue_off; 
12C32:  BSF    F8B.1
12C34:  BCF    F94.1
....................          } 
....................           
....................          if(RX_Buffer[4]==0x03)//Oprimio EV Vacio 
12C36:  MOVF   34,W
12C38:  SUBLW  03
12C3A:  BTFSS  FD8.2
12C3C:  GOTO   12C46
....................          { 
....................             EstadoVacio=!EstadoVacio; 
12C40:  BTG    xA4.7
....................             RX_Buffer[4]=0x00; 
12C42:  CLRF   34
....................             RX_Buffer2[4]=0x00; 
12C44:  CLRF   3F
....................          } 
....................           
....................          if(EstadoVacio){ 
12C46:  BTFSS  xA4.7
12C48:  GOTO   12C68
....................             printf("b2.bco=2016"); 
12C4C:  MOVLW  34
12C4E:  MOVWF  FF6
12C50:  MOVLW  0E
12C52:  MOVWF  FF7
12C54:  MOVLW  00
12C56:  MOVWF  FF8
12C58:  CALL   4538
....................             SendDataDisplay();  
12C5C:  CALL   456A
....................             Vacio_on; 
12C60:  BCF    F8B.2
12C62:  BCF    F94.2
....................          }else{ 
12C64:  GOTO   12C80
....................             printf("b2.bco=63488"); 
12C68:  MOVLW  40
12C6A:  MOVWF  FF6
12C6C:  MOVLW  0E
12C6E:  MOVWF  FF7
12C70:  MOVLW  00
12C72:  MOVWF  FF8
12C74:  CALL   4538
....................             SendDataDisplay();  
12C78:  CALL   456A
....................             Vacio_off; 
12C7C:  BSF    F8B.2
12C7E:  BCF    F94.2
....................          } 
....................          
....................          if(RX_Buffer[4]==0x04)//Oprimio EV Aire 
12C80:  MOVF   34,W
12C82:  SUBLW  04
12C84:  BTFSS  FD8.2
12C86:  GOTO   12C90
....................          { 
....................             EstadoAire=!EstadoAire; 
12C8A:  BTG    xA5.0
....................             RX_Buffer[4]=0x00; 
12C8C:  CLRF   34
....................             RX_Buffer2[4]=0x00; 
12C8E:  CLRF   3F
....................          } 
....................           
....................          if(EstadoAire){ 
12C90:  BTFSS  xA5.0
12C92:  GOTO   12CB2
....................             printf("b3.bco=2016"); 
12C96:  MOVLW  4E
12C98:  MOVWF  FF6
12C9A:  MOVLW  0E
12C9C:  MOVWF  FF7
12C9E:  MOVLW  00
12CA0:  MOVWF  FF8
12CA2:  CALL   4538
....................             SendDataDisplay();  
12CA6:  CALL   456A
....................             Aire_on; 
12CAA:  BCF    F8C.0
12CAC:  BCF    F95.0
....................          }else{ 
12CAE:  GOTO   12CCA
....................             printf("b3.bco=63488"); 
12CB2:  MOVLW  5A
12CB4:  MOVWF  FF6
12CB6:  MOVLW  0E
12CB8:  MOVWF  FF7
12CBA:  MOVLW  00
12CBC:  MOVWF  FF8
12CBE:  CALL   4538
....................             SendDataDisplay();  
12CC2:  CALL   456A
....................             Aire_off; 
12CC6:  BSF    F8C.0
12CC8:  BCF    F95.0
....................          } 
....................           
....................          if(RX_Buffer[4]==0x05)//Oprimio EV Aire Bomba 
12CCA:  MOVF   34,W
12CCC:  SUBLW  05
12CCE:  BTFSS  FD8.2
12CD0:  GOTO   12CDA
....................          { 
....................             EstadoAireBomba=!EstadoAireBomba; 
12CD4:  BTG    xA4.6
....................             RX_Buffer[4]=0x00; 
12CD6:  CLRF   34
....................             RX_Buffer2[4]=0x00; 
12CD8:  CLRF   3F
....................          } 
....................           
....................          if(EstadoAireBomba){ 
12CDA:  BTFSS  xA4.6
12CDC:  GOTO   12CFC
....................             printf("b4.bco=2016"); 
12CE0:  MOVLW  68
12CE2:  MOVWF  FF6
12CE4:  MOVLW  0E
12CE6:  MOVWF  FF7
12CE8:  MOVLW  00
12CEA:  MOVWF  FF8
12CEC:  CALL   4538
....................             SendDataDisplay();  
12CF0:  CALL   456A
....................             AireB_on; 
12CF4:  BCF    F8C.1
12CF6:  BCF    F95.1
....................          }else{ 
12CF8:  GOTO   12D14
....................             printf("b4.bco=63488"); 
12CFC:  MOVLW  74
12CFE:  MOVWF  FF6
12D00:  MOVLW  0E
12D02:  MOVWF  FF7
12D04:  MOVLW  00
12D06:  MOVWF  FF8
12D08:  CALL   4538
....................             SendDataDisplay();  
12D0C:  CALL   456A
....................             AireB_off; 
12D10:  BSF    F8C.1
12D12:  BCF    F95.1
....................          } 
....................           
....................          if(RX_Buffer[4]==0x06)//Oprimio Bomba Vacio 
12D14:  MOVF   34,W
12D16:  SUBLW  06
12D18:  BTFSS  FD8.2
12D1A:  GOTO   12D24
....................          { 
....................             EstadoBomba=!EstadoBomba; 
12D1E:  BTG    xA5.1
....................             RX_Buffer[4]=0x00; 
12D20:  CLRF   34
....................             RX_Buffer2[4]=0x00; 
12D22:  CLRF   3F
....................          } 
....................           
....................          if(EstadoBomba){ 
12D24:  BTFSS  xA5.1
12D26:  GOTO   12D52
....................             printf("b5.bco=2016"); 
12D2A:  MOVLW  82
12D2C:  MOVWF  FF6
12D2E:  MOVLW  0E
12D30:  MOVWF  FF7
12D32:  MOVLW  00
12D34:  MOVWF  FF8
12D36:  CALL   4538
....................             SendDataDisplay();  
12D3A:  CALL   456A
....................             if(!onBomba){ 
12D3E:  BTFSC  xA6.1
12D40:  GOTO   12D4A
....................                purgaBomba(); 
12D44:  CALL   6F9E
....................                onBomba=ON; 
12D48:  BSF    xA6.1
....................             } 
....................             BombaVacio_on; 
12D4A:  BCF    F8B.5
12D4C:  BCF    F94.5
....................          }else{ 
12D4E:  GOTO   12D6C
....................             printf("b5.bco=63488"); 
12D52:  MOVLW  8E
12D54:  MOVWF  FF6
12D56:  MOVLW  0E
12D58:  MOVWF  FF7
12D5A:  MOVLW  00
12D5C:  MOVWF  FF8
12D5E:  CALL   4538
....................             SendDataDisplay();  
12D62:  CALL   456A
....................             BombaVacio_off; 
12D66:  BSF    F8B.5
12D68:  BCF    F94.5
....................             onBomba=OFF; 
12D6A:  BCF    xA6.1
....................          } 
....................           
....................          if(RX_Buffer[4]==0x07)//Oprimio EV Agua 
12D6C:  MOVF   34,W
12D6E:  SUBLW  07
12D70:  BTFSS  FD8.2
12D72:  GOTO   12D7C
....................          { 
....................             EstadoAgua=!EstadoAgua; 
12D76:  BTG    xA1.1
....................             RX_Buffer[4]=0x00; 
12D78:  CLRF   34
....................             RX_Buffer2[4]=0x00; 
12D7A:  CLRF   3F
....................          } 
....................           
....................          if(EstadoAgua){ 
12D7C:  BTFSS  xA1.1
12D7E:  GOTO   12D9E
....................             printf("b6.bco=2016"); 
12D82:  MOVLW  9C
12D84:  MOVWF  FF6
12D86:  MOVLW  0E
12D88:  MOVWF  FF7
12D8A:  MOVLW  00
12D8C:  MOVWF  FF8
12D8E:  CALL   4538
....................             SendDataDisplay();  
12D92:  CALL   456A
....................             Agua_on; 
12D96:  BCF    F8C.3
12D98:  BCF    F95.3
....................          }else{ 
12D9A:  GOTO   12DB6
....................             printf("b6.bco=63488"); 
12D9E:  MOVLW  A8
12DA0:  MOVWF  FF6
12DA2:  MOVLW  0E
12DA4:  MOVWF  FF7
12DA6:  MOVLW  00
12DA8:  MOVWF  FF8
12DAA:  CALL   4538
....................             SendDataDisplay();  
12DAE:  CALL   456A
....................             Agua_off; 
12DB2:  BSF    F8C.3
12DB4:  BCF    F95.3
....................          } 
....................           
....................          if(RX_Buffer[4]==0x08)//Oprimio EV Agua2 
12DB6:  MOVF   34,W
12DB8:  SUBLW  08
12DBA:  BTFSS  FD8.2
12DBC:  GOTO   12DC6
....................          { 
....................             EstadoAgua2=!EstadoAgua2; 
12DC0:  BTG    xA5.2
....................             RX_Buffer[4]=0x00; 
12DC2:  CLRF   34
....................             RX_Buffer2[4]=0x00; 
12DC4:  CLRF   3F
....................          } 
....................           
....................          if(EstadoAgua2){ 
12DC6:  BTFSS  xA5.2
12DC8:  GOTO   12DE8
....................             printf("b7.bco=2016"); 
12DCC:  MOVLW  B6
12DCE:  MOVWF  FF6
12DD0:  MOVLW  0E
12DD2:  MOVWF  FF7
12DD4:  MOVLW  00
12DD6:  MOVWF  FF8
12DD8:  CALL   4538
....................             SendDataDisplay();  
12DDC:  CALL   456A
....................             //EV8_on; 
....................             enciendeBombaAgua(); 
12DE0:  CALL   5C50
....................          }else{ 
12DE4:  GOTO   12E00
....................             printf("b7.bco=63488"); 
12DE8:  MOVLW  C2
12DEA:  MOVWF  FF6
12DEC:  MOVLW  0E
12DEE:  MOVWF  FF7
12DF0:  MOVLW  00
12DF2:  MOVWF  FF8
12DF4:  CALL   4538
....................             SendDataDisplay();  
12DF8:  CALL   456A
....................             //EV8_off; 
....................             apagaBombaAgua(); 
12DFC:  CALL   5C3E
....................          } 
....................           
....................          if(RX_Buffer[4]==0x21)//Oprimio SSR1 
12E00:  MOVF   34,W
12E02:  SUBLW  21
12E04:  BTFSS  FD8.2
12E06:  GOTO   12E10
....................          { 
....................             EstadoSSR=!EstadoSSR; 
12E0A:  BTG    xA1.2
....................             RX_Buffer[4]=0x00; 
12E0C:  CLRF   34
....................             RX_Buffer2[4]=0x00; 
12E0E:  CLRF   3F
....................          } 
....................           
....................          if(EstadoSSR){ 
12E10:  BTFSS  xA1.2
12E12:  GOTO   12E32
....................             printf("b21.bco=2016"); 
12E16:  MOVLW  D0
12E18:  MOVWF  FF6
12E1A:  MOVLW  0E
12E1C:  MOVWF  FF7
12E1E:  MOVLW  00
12E20:  MOVWF  FF8
12E22:  CALL   4538
....................             SendDataDisplay();  
12E26:  CALL   456A
....................             SSR_on; 
12E2A:  BSF    F8D.1
12E2C:  BCF    F96.1
....................          }else{ 
12E2E:  GOTO   12E4A
....................             printf("b21.bco=63488"); 
12E32:  MOVLW  DE
12E34:  MOVWF  FF6
12E36:  MOVLW  0E
12E38:  MOVWF  FF7
12E3A:  MOVLW  00
12E3C:  MOVWF  FF8
12E3E:  CALL   4538
....................             SendDataDisplay();  
12E42:  CALL   456A
....................             SSR_off; 
12E46:  BCF    F8D.1
12E48:  BCF    F96.1
....................          } 
....................           
....................          if(RX_Buffer[4]==0x22)//Oprimio SSR2 
12E4A:  MOVF   34,W
12E4C:  SUBLW  22
12E4E:  BTFSS  FD8.2
12E50:  GOTO   12E5A
....................          { 
....................             EstadoSSR2=!EstadoSSR2; 
12E54:  BTG    xA1.3
....................             RX_Buffer[4]=0x00; 
12E56:  CLRF   34
....................             RX_Buffer2[4]=0x00; 
12E58:  CLRF   3F
....................          } 
....................           
....................          if(EstadoSSR2){ 
12E5A:  BTFSS  xA1.3
12E5C:  GOTO   12E7C
....................             printf("b22.bco=2016"); 
12E60:  MOVLW  EC
12E62:  MOVWF  FF6
12E64:  MOVLW  0E
12E66:  MOVWF  FF7
12E68:  MOVLW  00
12E6A:  MOVWF  FF8
12E6C:  CALL   4538
....................             SendDataDisplay();  
12E70:  CALL   456A
....................             SSR2_on; 
12E74:  BSF    F8D.2
12E76:  BCF    F96.2
....................          }else{ 
12E78:  GOTO   12E94
....................             printf("b22.bco=63488"); 
12E7C:  MOVLW  FA
12E7E:  MOVWF  FF6
12E80:  MOVLW  0E
12E82:  MOVWF  FF7
12E84:  MOVLW  00
12E86:  MOVWF  FF8
12E88:  CALL   4538
....................             SendDataDisplay();  
12E8C:  CALL   456A
....................             SSR2_off; 
12E90:  BCF    F8D.2
12E92:  BCF    F96.2
....................          } 
....................           
....................          if(RX_Buffer[4]==0x17)//Oprimio Abrir Cierre 
12E94:  MOVF   34,W
12E96:  SUBLW  17
12E98:  BTFSS  FD8.2
12E9A:  GOTO   12EA4
....................          { 
....................             EstadoACierre=!EstadoACierre; 
12E9E:  BTG    xA5.3
....................             RX_Buffer[4]=0x00; 
12EA0:  CLRF   34
....................             RX_Buffer2[4]=0x00; 
12EA2:  CLRF   3F
....................          } 
....................           
....................          if(EstadoACierre){ 
12EA4:  BTFSS  xA5.3
12EA6:  GOTO   12EC2
....................             printf("b16.bco=2016"); 
12EAA:  MOVLW  08
12EAC:  MOVWF  FF6
12EAE:  MOVLW  0F
12EB0:  MOVWF  FF7
12EB2:  MOVLW  00
12EB4:  MOVWF  FF8
12EB6:  CALL   4538
....................             SendDataDisplay();  
12EBA:  CALL   456A
....................             //sistemaBloqueo(1); 
....................          } 
....................          else{ 
12EBE:  GOTO   12ED6
....................             printf("b16.bco=63488"); 
12EC2:  MOVLW  16
12EC4:  MOVWF  FF6
12EC6:  MOVLW  0F
12EC8:  MOVWF  FF7
12ECA:  MOVLW  00
12ECC:  MOVWF  FF8
12ECE:  CALL   4538
....................             SendDataDisplay();  
12ED2:  CALL   456A
....................             //sistemaBloqueo(0); 
....................          } 
....................           
....................          if(DOOR){ 
12ED6:  BSF    F93.6
12ED8:  BTFSC  F81.6
12EDA:  GOTO   12EF6
....................             printf("b8.bco=2016"); 
12EDE:  MOVLW  24
12EE0:  MOVWF  FF6
12EE2:  MOVLW  0F
12EE4:  MOVWF  FF7
12EE6:  MOVLW  00
12EE8:  MOVWF  FF8
12EEA:  CALL   4538
....................             SendDataDisplay();  
12EEE:  CALL   456A
....................          }else{ 
12EF2:  GOTO   12F0A
....................             printf("b8.bco=63488"); 
12EF6:  MOVLW  30
12EF8:  MOVWF  FF6
12EFA:  MOVLW  0F
12EFC:  MOVWF  FF7
12EFE:  MOVLW  00
12F00:  MOVWF  FF8
12F02:  CALL   4538
....................             SendDataDisplay();  
12F06:  CALL   456A
....................          } 
....................           
....................          if(TERM){ 
12F0A:  BSF    F93.4
12F0C:  BTFSC  F81.4
12F0E:  GOTO   12F2A
....................             printf("b9.bco=2016"); 
12F12:  MOVLW  3E
12F14:  MOVWF  FF6
12F16:  MOVLW  0F
12F18:  MOVWF  FF7
12F1A:  MOVLW  00
12F1C:  MOVWF  FF8
12F1E:  CALL   4538
....................             SendDataDisplay();  
12F22:  CALL   456A
....................          }else{ 
12F26:  GOTO   12F3E
....................             printf("b9.bco=63488"); 
12F2A:  MOVLW  4A
12F2C:  MOVWF  FF6
12F2E:  MOVLW  0F
12F30:  MOVWF  FF7
12F32:  MOVLW  00
12F34:  MOVWF  FF8
12F36:  CALL   4538
....................             SendDataDisplay();  
12F3A:  CALL   456A
....................          } 
....................           
....................          if(STOP){ 
12F3E:  BSF    F93.5
12F40:  BTFSC  F81.5
12F42:  GOTO   12F5E
....................             printf("b10.bco=2016"); 
12F46:  MOVLW  58
12F48:  MOVWF  FF6
12F4A:  MOVLW  0F
12F4C:  MOVWF  FF7
12F4E:  MOVLW  00
12F50:  MOVWF  FF8
12F52:  CALL   4538
....................             SendDataDisplay();  
12F56:  CALL   456A
....................          }else{ 
12F5A:  GOTO   12F72
....................             printf("b10.bco=63488"); 
12F5E:  MOVLW  66
12F60:  MOVWF  FF6
12F62:  MOVLW  0F
12F64:  MOVWF  FF7
12F66:  MOVLW  00
12F68:  MOVWF  FF8
12F6A:  CALL   4538
....................             SendDataDisplay();  
12F6E:  CALL   456A
....................          } 
....................          /* 
....................          if(PRES){ 
....................             printf("b11.bco=2016"); 
....................             SendDataDisplay();  
....................          }else{ 
....................             printf("b11.bco=63488"); 
....................             SendDataDisplay();  
....................          }*/ 
....................           
....................          if(RX_Buffer[4]==0x13)//Oprimio Buzzer 
12F72:  MOVF   34,W
12F74:  SUBLW  13
12F76:  BTFSS  FD8.2
12F78:  GOTO   12F82
....................          { 
....................             EstadoBuzzer=!EstadoBuzzer; 
12F7C:  BTG    xA2.4
....................             RX_Buffer[4]=0x00; 
12F7E:  CLRF   34
....................             RX_Buffer2[4]=0x00; 
12F80:  CLRF   3F
....................          } 
....................           
....................          if(EstadoBuzzer){ 
12F82:  BTFSS  xA2.4
12F84:  GOTO   12FA4
....................             printf("b12.bco=2016"); 
12F88:  MOVLW  74
12F8A:  MOVWF  FF6
12F8C:  MOVLW  0F
12F8E:  MOVWF  FF7
12F90:  MOVLW  00
12F92:  MOVWF  FF8
12F94:  CALL   4538
....................             SendDataDisplay();  
12F98:  CALL   456A
....................             Buzzer_on; 
12F9C:  BSF    F8C.7
12F9E:  BCF    F95.7
....................          } 
....................          else{ 
12FA0:  GOTO   12FBC
....................             printf("b12.bco=63488"); 
12FA4:  MOVLW  82
12FA6:  MOVWF  FF6
12FA8:  MOVLW  0F
12FAA:  MOVWF  FF7
12FAC:  MOVLW  00
12FAE:  MOVWF  FF8
12FB0:  CALL   4538
....................             SendDataDisplay();  
12FB4:  CALL   456A
....................             Buzzer_off; 
12FB8:  BCF    F8C.7
12FBA:  BCF    F95.7
....................          } 
....................           
....................          if(LOW){ 
12FBC:  BTFSS  xA5.5
12FBE:  GOTO   12FDA
....................             printf("b17.bco=2016"); 
12FC2:  MOVLW  90
12FC4:  MOVWF  FF6
12FC6:  MOVLW  0F
12FC8:  MOVWF  FF7
12FCA:  MOVLW  00
12FCC:  MOVWF  FF8
12FCE:  CALL   4538
....................             SendDataDisplay();  
12FD2:  CALL   456A
....................          }else{ 
12FD6:  GOTO   12FEE
....................             printf("b17.bco=63488"); 
12FDA:  MOVLW  9E
12FDC:  MOVWF  FF6
12FDE:  MOVLW  0F
12FE0:  MOVWF  FF7
12FE2:  MOVLW  00
12FE4:  MOVWF  FF8
12FE6:  CALL   4538
....................             SendDataDisplay();  
12FEA:  CALL   456A
....................          } 
....................           
....................          if(HIG){ 
12FEE:  BTFSS  xA5.6
12FF0:  GOTO   1300C
....................             printf("b23.bco=2016"); 
12FF4:  MOVLW  AC
12FF6:  MOVWF  FF6
12FF8:  MOVLW  0F
12FFA:  MOVWF  FF7
12FFC:  MOVLW  00
12FFE:  MOVWF  FF8
13000:  CALL   4538
....................             SendDataDisplay();  
13004:  CALL   456A
....................          }else{ 
13008:  GOTO   13020
....................             printf("b23.bco=63488"); 
1300C:  MOVLW  BA
1300E:  MOVWF  FF6
13010:  MOVLW  0F
13012:  MOVWF  FF7
13014:  MOVLW  00
13016:  MOVWF  FF8
13018:  CALL   4538
....................             SendDataDisplay();  
1301C:  CALL   456A
....................          } 
....................           
....................          /*if(HRES){ 
....................             printf("b24.bco=2016"); 
....................             SendDataDisplay();  
....................          }else{ 
....................             printf("b24.bco=63488"); 
....................             SendDataDisplay();  
....................          }*/ 
....................           
....................          if(LRES){ 
13020:  BSF    F93.7
13022:  BTFSC  F81.7
13024:  GOTO   13040
....................             printf("b25.bco=2016"); 
13028:  MOVLW  C8
1302A:  MOVWF  FF6
1302C:  MOVLW  0F
1302E:  MOVWF  FF7
13030:  MOVLW  00
13032:  MOVWF  FF8
13034:  CALL   4538
....................             SendDataDisplay();  
13038:  CALL   456A
....................          }else{ 
1303C:  GOTO   13054
....................             printf("b25.bco=63488"); 
13040:  MOVLW  D6
13042:  MOVWF  FF6
13044:  MOVLW  0F
13046:  MOVWF  FF7
13048:  MOVLW  00
1304A:  MOVWF  FF8
1304C:  CALL   4538
....................             SendDataDisplay();  
13050:  CALL   456A
....................          } 
....................                    
....................          printf("b13.txt=\"ADC0:%3.0f\"",sensores(0));          
13054:  MOVLB  7
13056:  CLRF   x0E
13058:  MOVLB  0
1305A:  CALL   45D0
1305E:  MOVFF  00,708
13062:  MOVFF  01,709
13066:  MOVFF  02,70A
1306A:  MOVFF  03,70B
1306E:  MOVLW  E4
13070:  MOVWF  FF6
13072:  MOVLW  0F
13074:  MOVWF  FF7
13076:  MOVLW  00
13078:  MOVWF  FF8
1307A:  MOVLW  0E
1307C:  MOVLB  7
1307E:  MOVWF  x0D
13080:  MOVLB  0
13082:  CALL   5D0E
13086:  MOVLW  02
13088:  MOVWF  FE9
1308A:  MOVFF  70B,710
1308E:  MOVFF  70A,70F
13092:  MOVFF  709,70E
13096:  MOVFF  708,70D
1309A:  MOVLB  7
1309C:  CLRF   x11
1309E:  MOVLB  0
130A0:  CALL   5EE6
130A4:  MOVLW  22
130A6:  BTFSS  F9E.4
130A8:  GOTO   130A6
130AC:  MOVWF  FAD
....................          SendDataDisplay(); 
130AE:  CALL   456A
....................          printf("b14.txt=\"ADC1:%3.0f\"",sensores(1));          
130B2:  MOVLW  01
130B4:  MOVLB  7
130B6:  MOVWF  x0E
130B8:  MOVLB  0
130BA:  CALL   45D0
130BE:  MOVFF  00,708
130C2:  MOVFF  01,709
130C6:  MOVFF  02,70A
130CA:  MOVFF  03,70B
130CE:  MOVLW  FA
130D0:  MOVWF  FF6
130D2:  MOVLW  0F
130D4:  MOVWF  FF7
130D6:  MOVLW  00
130D8:  MOVWF  FF8
130DA:  MOVLW  0E
130DC:  MOVLB  7
130DE:  MOVWF  x0D
130E0:  MOVLB  0
130E2:  CALL   5D0E
130E6:  MOVLW  02
130E8:  MOVWF  FE9
130EA:  MOVFF  70B,710
130EE:  MOVFF  70A,70F
130F2:  MOVFF  709,70E
130F6:  MOVFF  708,70D
130FA:  MOVLB  7
130FC:  CLRF   x11
130FE:  MOVLB  0
13100:  CALL   5EE6
13104:  MOVLW  22
13106:  BTFSS  F9E.4
13108:  GOTO   13106
1310C:  MOVWF  FAD
....................          SendDataDisplay(); 
1310E:  CALL   456A
....................          printf("b15.txt=\"A5:%3.0f %03Lu\"",sensores(5),PresionCamara); 
13112:  MOVLW  05
13114:  MOVLB  7
13116:  MOVWF  x0E
13118:  MOVLB  0
1311A:  CALL   45D0
1311E:  MOVFF  00,708
13122:  MOVFF  01,709
13126:  MOVFF  02,70A
1312A:  MOVFF  03,70B
1312E:  MOVLW  10
13130:  MOVWF  FF6
13132:  MOVLW  10
13134:  MOVWF  FF7
13136:  MOVLW  00
13138:  MOVWF  FF8
1313A:  MOVLW  0C
1313C:  MOVLB  7
1313E:  MOVWF  x0D
13140:  MOVLB  0
13142:  CALL   5D0E
13146:  MOVLW  02
13148:  MOVWF  FE9
1314A:  MOVFF  70B,710
1314E:  MOVFF  70A,70F
13152:  MOVFF  709,70E
13156:  MOVFF  708,70D
1315A:  MOVLB  7
1315C:  CLRF   x11
1315E:  MOVLB  0
13160:  CALL   5EE6
13164:  MOVLW  20
13166:  BTFSS  F9E.4
13168:  GOTO   13166
1316C:  MOVWF  FAD
1316E:  MOVLW  0A
13170:  MOVWF  FE9
13172:  MOVFF  366,70D
13176:  MOVFF  365,70C
1317A:  CALL   63A8
1317E:  MOVLW  22
13180:  BTFSS  F9E.4
13182:  GOTO   13180
13186:  MOVWF  FAD
....................          SendDataDisplay(); 
13188:  CALL   456A
....................          printf("b18.txt=\"A4:%3.0f %03Lu\"",sensores(4),PresionPreCamara); 
1318C:  MOVLW  04
1318E:  MOVLB  7
13190:  MOVWF  x0E
13192:  MOVLB  0
13194:  CALL   45D0
13198:  MOVFF  00,708
1319C:  MOVFF  01,709
131A0:  MOVFF  02,70A
131A4:  MOVFF  03,70B
131A8:  MOVLW  2A
131AA:  MOVWF  FF6
131AC:  MOVLW  10
131AE:  MOVWF  FF7
131B0:  MOVLW  00
131B2:  MOVWF  FF8
131B4:  MOVLW  0C
131B6:  MOVLB  7
131B8:  MOVWF  x0D
131BA:  MOVLB  0
131BC:  CALL   5D0E
131C0:  MOVLW  02
131C2:  MOVWF  FE9
131C4:  MOVFF  70B,710
131C8:  MOVFF  70A,70F
131CC:  MOVFF  709,70E
131D0:  MOVFF  708,70D
131D4:  MOVLB  7
131D6:  CLRF   x11
131D8:  MOVLB  0
131DA:  CALL   5EE6
131DE:  MOVLW  20
131E0:  BTFSS  F9E.4
131E2:  GOTO   131E0
131E6:  MOVWF  FAD
131E8:  MOVLW  0A
131EA:  MOVWF  FE9
131EC:  MOVFF  368,70D
131F0:  MOVFF  367,70C
131F4:  CALL   63A8
131F8:  MOVLW  22
131FA:  BTFSS  F9E.4
131FC:  GOTO   131FA
13200:  MOVWF  FAD
....................          SendDataDisplay(); 
13202:  CALL   456A
....................          printf("b19.txt=\"%3.1f %3.1f\"",Temperatura2,Sensor[1].Pt); 
13206:  MOVLW  44
13208:  MOVWF  FF6
1320A:  MOVLW  10
1320C:  MOVWF  FF7
1320E:  MOVLW  00
13210:  MOVWF  FF8
13212:  MOVLW  09
13214:  MOVLB  7
13216:  MOVWF  x0D
13218:  MOVLB  0
1321A:  CALL   5D0E
1321E:  MOVLW  02
13220:  MOVWF  FE9
13222:  MOVFF  31A,710
13226:  MOVFF  319,70F
1322A:  MOVFF  318,70E
1322E:  MOVFF  317,70D
13232:  MOVLW  01
13234:  MOVLB  7
13236:  MOVWF  x11
13238:  MOVLB  0
1323A:  CALL   5EE6
1323E:  MOVLW  20
13240:  BTFSS  F9E.4
13242:  GOTO   13240
13246:  MOVWF  FAD
13248:  MOVLW  02
1324A:  MOVWF  FE9
1324C:  MOVFF  583,710
13250:  MOVFF  582,70F
13254:  MOVFF  581,70E
13258:  MOVFF  580,70D
1325C:  MOVLW  01
1325E:  MOVLB  7
13260:  MOVWF  x11
13262:  MOVLB  0
13264:  CALL   5EE6
13268:  MOVLW  22
1326A:  BTFSS  F9E.4
1326C:  GOTO   1326A
13270:  MOVWF  FAD
....................          SendDataDisplay(); 
13272:  CALL   456A
....................          printf("b20.txt=\"%3.1f %3.1f\"",Temperatura,Sensor[0].Pt); 
13276:  MOVLW  5A
13278:  MOVWF  FF6
1327A:  MOVLW  10
1327C:  MOVWF  FF7
1327E:  MOVLW  00
13280:  MOVWF  FF8
13282:  MOVLW  09
13284:  MOVLB  7
13286:  MOVWF  x0D
13288:  MOVLB  0
1328A:  CALL   5D0E
1328E:  MOVLW  02
13290:  MOVWF  FE9
13292:  MOVFF  316,710
13296:  MOVFF  315,70F
1329A:  MOVFF  314,70E
1329E:  MOVFF  313,70D
132A2:  MOVLW  01
132A4:  MOVLB  7
132A6:  MOVWF  x11
132A8:  MOVLB  0
132AA:  CALL   5EE6
132AE:  MOVLW  20
132B0:  BTFSS  F9E.4
132B2:  GOTO   132B0
132B6:  MOVWF  FAD
132B8:  MOVLW  02
132BA:  MOVWF  FE9
132BC:  MOVFF  417,710
132C0:  MOVFF  416,70F
132C4:  MOVFF  415,70E
132C8:  MOVFF  414,70D
132CC:  MOVLW  01
132CE:  MOVLB  7
132D0:  MOVWF  x11
132D2:  MOVLB  0
132D4:  CALL   5EE6
132D8:  MOVLW  22
132DA:  BTFSS  F9E.4
132DC:  GOTO   132DA
132E0:  MOVWF  FAD
....................          SendDataDisplay(); 
132E2:  CALL   456A
....................           
....................          if(RX_Buffer[4]==0x50){//Oprimio salir 
132E6:  MOVF   34,W
132E8:  SUBLW  50
132EA:  BTFSS  FD8.2
132EC:  GOTO   13310
....................             printf("page MenuPrincipal"); 
132F0:  MOVLW  70
132F2:  MOVWF  FF6
132F4:  MOVLW  10
132F6:  MOVWF  FF7
132F8:  MOVLW  00
132FA:  MOVWF  FF8
132FC:  CALL   4538
....................             SendDataDisplay(); 
13300:  CALL   456A
....................             PantallaPrincipal=0; 
13304:  MOVLB  2
13306:  CLRF   xCD
....................             PruebaEstados=OFF; 
13308:  MOVLB  0
1330A:  BCF    xA1.4
....................             ApagaSalidas(); 
1330C:  CALL   45A0
13310:  MOVLB  3
....................          } 
....................      } 
.................... //_--------------------------------------------------------------------------------------------------------------------------------------------------------     
....................  
.................... //_--------------------------------------------------------------------------------------------------------------------------------------------------------       
....................       if(Menu==7){ //Menu de Configuracin de Fecha y Hora 
13312:  MOVF   x47,W
13314:  SUBLW  07
13316:  BTFSS  FD8.2
13318:  GOTO   1384A
....................          Buzzer_off;          
1331C:  BCF    F8C.7
1331E:  BCF    F95.7
....................          SSR2_off; 
13320:  BCF    F8D.2
13322:  BCF    F96.2
....................          if(RX_Buffer[4]==0x0a){//Selecciono Hora 
13324:  MOVF   34,W
13326:  SUBLW  0A
13328:  BTFSS  FD8.2
1332A:  GOTO   13332
....................             Opcion=4; 
1332E:  MOVLW  04
13330:  MOVWF  x4F
....................          } 
....................           
....................          if(RX_Buffer[4]==0x0b){//Selecciono Minuto 
13332:  MOVF   34,W
13334:  SUBLW  0B
13336:  BTFSS  FD8.2
13338:  GOTO   13340
....................             Opcion=5; 
1333C:  MOVLW  05
1333E:  MOVWF  x4F
....................          } 
....................           
....................          if(RX_Buffer[4]==0x0c){//Selecciono Dia 
13340:  MOVF   34,W
13342:  SUBLW  0C
13344:  BTFSS  FD8.2
13346:  GOTO   1334E
....................             Opcion=1; 
1334A:  MOVLW  01
1334C:  MOVWF  x4F
....................          } 
....................           
....................          if(RX_Buffer[4]==0x0d){//Selecciono Hora 
1334E:  MOVF   34,W
13350:  SUBLW  0D
13352:  BTFSS  FD8.2
13354:  GOTO   1335C
....................             Opcion=2; 
13358:  MOVLW  02
1335A:  MOVWF  x4F
....................          } 
....................           
....................          if(RX_Buffer[4]==0x0e){//Selecciono Year 
1335C:  MOVF   34,W
1335E:  SUBLW  0E
13360:  BTFSS  FD8.2
13362:  GOTO   1336A
....................             Opcion=3; 
13366:  MOVLW  03
13368:  MOVWF  x4F
....................          } 
....................           
....................          if(RIGHT){ 
1336A:  BSF    F93.2
1336C:  BTFSC  F81.2
1336E:  GOTO   1338A
....................             delay_ms(200); 
13372:  MOVLW  C8
13374:  MOVLB  7
13376:  MOVWF  x1E
13378:  MOVLB  0
1337A:  CALL   2060
....................             if(RIGHT){ 
1337E:  BSF    F93.2
13380:  BTFSC  F81.2
13382:  GOTO   1338C
....................                Opcion++; 
13386:  MOVLB  3
13388:  INCF   x4F,F
1338A:  MOVLB  0
....................             } 
....................          } 
....................          if(Opcion>5) 
1338C:  MOVLB  3
1338E:  MOVF   x4F,W
13390:  SUBLW  05
13392:  BTFSC  FD8.0
13394:  GOTO   1339C
....................             Opcion=1; 
13398:  MOVLW  01
1339A:  MOVWF  x4F
....................          if(Opcion<1) 
1339C:  MOVF   x4F,F
1339E:  BTFSS  FD8.2
133A0:  GOTO   133A8
....................             Opcion=5; 
133A4:  MOVLW  05
133A6:  MOVWF  x4F
....................              
....................          if(RX_Buffer[4]==0x11 || LEFT){//Selecciono Regresar 
133A8:  MOVF   34,W
133AA:  SUBLW  11
133AC:  BTFSC  FD8.2
133AE:  GOTO   133BA
133B2:  BSF    F93.3
133B4:  BTFSC  F81.3
133B6:  GOTO   134E0
....................             printf("page MenuPrincipal"); 
133BA:  MOVLW  84
133BC:  MOVWF  FF6
133BE:  MOVLW  10
133C0:  MOVWF  FF7
133C2:  MOVLW  00
133C4:  MOVWF  FF8
133C6:  MOVLB  0
133C8:  CALL   4538
....................             SendDataDisplay();   
133CC:  CALL   456A
....................             PantallaPrincipal=0; 
133D0:  MOVLB  2
133D2:  CLRF   xCD
....................             Op=OFF; 
133D4:  MOVLB  0
133D6:  BCF    xA1.6
....................             Op2=OFF; 
133D8:  BCF    xA1.7
....................              
....................             if(esBisiesto(YearTx)) 
133DA:  MOVFF  392,708
133DE:  CALL   6FDE
133E2:  MOVF   01,F
133E4:  BTFSC  FD8.2
133E6:  GOTO   13406
....................                Modulo=Bisiesto[MesTx]; 
133EA:  CLRF   03
133EC:  MOVLB  3
133EE:  MOVF   x93,W
133F0:  ADDLW  93
133F2:  MOVWF  FE9
133F4:  MOVLW  00
133F6:  ADDWFC 03,W
133F8:  MOVWF  FEA
133FA:  MOVFF  FEF,2CF
133FE:  MOVLB  2
....................             else 
13400:  GOTO   1341C
13404:  MOVLB  0
....................                Modulo=Regular[MesTx]; 
13406:  CLRF   03
13408:  MOVLB  3
1340A:  MOVF   x93,W
1340C:  ADDLW  87
1340E:  MOVWF  FE9
13410:  MOVLW  00
13412:  ADDWFC 03,W
13414:  MOVWF  FEA
13416:  MOVFF  FEF,2CF
1341A:  MOVLB  2
....................           
....................             dowTx=((YearTx-1)%7+((YearTx-1)/4-3*((YearTx-1)/100+1)/4)%7+Modulo+DiaTx%7)%7; 
1341C:  MOVLW  01
1341E:  MOVLB  3
13420:  SUBWF  x92,W
13422:  MOVLB  7
13424:  MOVWF  x09
13426:  MOVFF  709,711
1342A:  MOVLW  07
1342C:  MOVWF  x12
1342E:  MOVLB  0
13430:  CALL   62FE
13434:  MOVFF  00,708
13438:  MOVLW  01
1343A:  MOVLB  3
1343C:  SUBWF  x92,W
1343E:  MOVWF  00
13440:  RRCF   00,W
13442:  MOVLB  7
13444:  MOVWF  x09
13446:  RRCF   x09,F
13448:  MOVLW  3F
1344A:  ANDWF  x09,F
1344C:  MOVLW  01
1344E:  MOVLB  3
13450:  SUBWF  x92,W
13452:  MOVLB  7
13454:  MOVWF  x0B
13456:  MOVFF  70B,711
1345A:  MOVLW  64
1345C:  MOVWF  x12
1345E:  MOVLB  0
13460:  CALL   62FE
13464:  MOVLW  01
13466:  ADDWF  01,W
13468:  MULLW  03
1346A:  MOVFF  FF3,00
1346E:  RRCF   00,F
13470:  RRCF   00,F
13472:  MOVLW  3F
13474:  ANDWF  00,F
13476:  MOVF   00,W
13478:  MOVLB  7
1347A:  SUBWF  x09,W
1347C:  MOVWF  x0A
1347E:  MOVFF  70A,711
13482:  MOVLW  07
13484:  MOVWF  x12
13486:  MOVLB  0
13488:  CALL   62FE
1348C:  MOVF   00,W
1348E:  MOVLB  7
13490:  ADDWF  x08,W
13492:  MOVLB  2
13494:  ADDWF  xCF,W
13496:  MOVLB  7
13498:  MOVWF  x08
1349A:  MOVFF  394,711
1349E:  MOVLW  07
134A0:  MOVWF  x12
134A2:  MOVLB  0
134A4:  CALL   62FE
134A8:  MOVF   00,W
134AA:  MOVLB  7
134AC:  ADDWF  x08,W
134AE:  MOVWF  x09
134B0:  MOVFF  709,711
134B4:  MOVLW  07
134B6:  MOVWF  x12
134B8:  MOVLB  0
134BA:  CALL   62FE
134BE:  MOVFF  00,397
....................             rtc_set_datetime(DiaTx,MesTx,YearTx,dowTx,HoraTx,MinutoTx); 
134C2:  MOVFF  394,708
134C6:  MOVFF  393,709
134CA:  MOVFF  392,70A
134CE:  MOVFF  397,70B
134D2:  MOVFF  395,70C
134D6:  MOVFF  396,70D
134DA:  GOTO   7064
134DE:  MOVLB  3
....................          } 
....................           
....................          if((RX_Buffer[4]==0x2a)|| UP){//Tecla Arriba Oprimida 
134E0:  MOVF   34,W
134E2:  SUBLW  2A
134E4:  BTFSC  FD8.2
134E6:  GOTO   134F2
134EA:  BSF    F93.0
134EC:  BTFSC  F81.0
134EE:  GOTO   1366A
....................             delay_ms(200); 
134F2:  MOVLW  C8
134F4:  MOVLB  7
134F6:  MOVWF  x1E
134F8:  MOVLB  0
134FA:  CALL   2060
....................             if((RX_Buffer[4]==0x2a)|| UP){    
134FE:  MOVF   34,W
13500:  SUBLW  2A
13502:  BTFSC  FD8.2
13504:  GOTO   13510
13508:  BSF    F93.0
1350A:  BTFSC  F81.0
1350C:  GOTO   1366C
....................                if(Opcion==1){ 
13510:  MOVLB  3
13512:  DECFSZ x4F,W
13514:  GOTO   135E8
....................                   if(MesTx==2){ 
13518:  MOVF   x93,W
1351A:  SUBLW  02
1351C:  BTFSS  FD8.2
1351E:  GOTO   1356A
....................                      if(esBisiesto(YearTx)){ 
13522:  MOVFF  392,708
13526:  MOVLB  0
13528:  CALL   6FDE
1352C:  MOVF   01,F
1352E:  BTFSC  FD8.2
13530:  GOTO   13550
....................                         if(DiaTx<29) 
13534:  MOVLB  3
13536:  MOVF   x94,W
13538:  SUBLW  1C
1353A:  BTFSS  FD8.0
1353C:  GOTO   13546
....................                            DiaTx++; 
13540:  INCF   x94,F
....................                         else 
13542:  GOTO   1354A
....................                            DiaTx=1;    
13546:  MOVLW  01
13548:  MOVWF  x94
....................                      }else{ 
1354A:  GOTO   13566
1354E:  MOVLB  0
....................                         if(DiaTx<28) 
13550:  MOVLB  3
13552:  MOVF   x94,W
13554:  SUBLW  1B
13556:  BTFSS  FD8.0
13558:  GOTO   13562
....................                            DiaTx++; 
1355C:  INCF   x94,F
....................                         else 
1355E:  GOTO   13566
....................                            DiaTx=1;    
13562:  MOVLW  01
13564:  MOVWF  x94
....................                      } 
....................                   }else{ 
13566:  GOTO   135E4
....................                      if(MesTx<=7){ 
1356A:  MOVF   x93,W
1356C:  SUBLW  07
1356E:  BTFSS  FD8.0
13570:  GOTO   135AE
....................                         if(MesTx % 2 ==0){ 
13574:  MOVF   x93,W
13576:  ANDLW  01
13578:  BTFSS  FD8.2
1357A:  GOTO   13596
....................                            if(DiaTx<30) 
1357E:  MOVF   x94,W
13580:  SUBLW  1D
13582:  BTFSS  FD8.0
13584:  GOTO   1358E
....................                               DiaTx++;     
13588:  INCF   x94,F
....................                            else 
1358A:  GOTO   13592
....................                               DiaTx=1;    
1358E:  MOVLW  01
13590:  MOVWF  x94
....................                         }else{ 
13592:  GOTO   135AA
....................                            if(DiaTx<31) 
13596:  MOVF   x94,W
13598:  SUBLW  1E
1359A:  BTFSS  FD8.0
1359C:  GOTO   135A6
....................                               DiaTx++;     
135A0:  INCF   x94,F
....................                            else 
135A2:  GOTO   135AA
....................                               DiaTx=1;    
135A6:  MOVLW  01
135A8:  MOVWF  x94
....................                         }     
....................                      }else{ 
135AA:  GOTO   135E4
....................                         if(MesTx % 2 ==0){ 
135AE:  MOVF   x93,W
135B0:  ANDLW  01
135B2:  BTFSS  FD8.2
135B4:  GOTO   135D0
....................                            if(DiaTx<31) 
135B8:  MOVF   x94,W
135BA:  SUBLW  1E
135BC:  BTFSS  FD8.0
135BE:  GOTO   135C8
....................                               DiaTx++;   
135C2:  INCF   x94,F
....................                            else 
135C4:  GOTO   135CC
....................                               DiaTx=1; 
135C8:  MOVLW  01
135CA:  MOVWF  x94
....................                         }else{ 
135CC:  GOTO   135E4
....................                            if(DiaTx<30) 
135D0:  MOVF   x94,W
135D2:  SUBLW  1D
135D4:  BTFSS  FD8.0
135D6:  GOTO   135E0
....................                               DiaTx++;     
135DA:  INCF   x94,F
....................                            else 
135DC:  GOTO   135E4
....................                               DiaTx=1; 
135E0:  MOVLW  01
135E2:  MOVWF  x94
....................                         }     
....................                      } 
....................                   } 
....................                }else if(Opcion==2){ 
135E4:  GOTO   13666
135E8:  MOVF   x4F,W
135EA:  SUBLW  02
135EC:  BTFSS  FD8.2
135EE:  GOTO   1360A
....................                   if(MesTx<12) 
135F2:  MOVF   x93,W
135F4:  SUBLW  0B
135F6:  BTFSS  FD8.0
135F8:  GOTO   13602
....................                      MesTx++; 
135FC:  INCF   x93,F
....................                   else 
135FE:  GOTO   13606
....................                      MesTx=1; 
13602:  MOVLW  01
13604:  MOVWF  x93
....................                }else if(Opcion==3){ 
13606:  GOTO   13666
1360A:  MOVF   x4F,W
1360C:  SUBLW  03
1360E:  BTFSS  FD8.2
13610:  GOTO   1362A
....................                   if(YearTx<99) 
13614:  MOVF   x92,W
13616:  SUBLW  62
13618:  BTFSS  FD8.0
1361A:  GOTO   13624
....................                      YearTx++; 
1361E:  INCF   x92,F
....................                   else  
13620:  GOTO   13626
....................                      YearTx=0; 
13624:  CLRF   x92
....................                }else if(Opcion==4){ 
13626:  GOTO   13666
1362A:  MOVF   x4F,W
1362C:  SUBLW  04
1362E:  BTFSS  FD8.2
13630:  GOTO   1364A
....................                   if(HoraTx<24) 
13634:  MOVF   x95,W
13636:  SUBLW  17
13638:  BTFSS  FD8.0
1363A:  GOTO   13644
....................                      HoraTx++; 
1363E:  INCF   x95,F
....................                   else 
13640:  GOTO   13646
....................                      HoraTx=0; 
13644:  CLRF   x95
....................                }else if(Opcion==5){ 
13646:  GOTO   13666
1364A:  MOVF   x4F,W
1364C:  SUBLW  05
1364E:  BTFSS  FD8.2
13650:  GOTO   13666
....................                   if(MinutoTx<59) 
13654:  MOVF   x96,W
13656:  SUBLW  3A
13658:  BTFSS  FD8.0
1365A:  GOTO   13664
....................                      MinutoTx++; 
1365E:  INCF   x96,F
....................                   else 
13660:  GOTO   13666
....................                      MinutoTx=0; 
13664:  CLRF   x96
....................                } 
....................                RX_Buffer[4]=0x00; 
13666:  CLRF   34
....................                RX_Buffer2[4]=0x00; 
13668:  CLRF   3F
1366A:  MOVLB  0
....................             } 
....................          } 
....................           
....................          if(RX_Buffer[4]==0x2b || DOWN){//Tecla Abajo Oprimida 
1366C:  MOVF   34,W
1366E:  SUBLW  2B
13670:  BTFSC  FD8.2
13672:  GOTO   1367E
13676:  BSF    F93.1
13678:  BTFSC  F81.1
1367A:  GOTO   13736
....................             delay_ms(200); 
1367E:  MOVLW  C8
13680:  MOVLB  7
13682:  MOVWF  x1E
13684:  MOVLB  0
13686:  CALL   2060
....................             if(RX_Buffer[4]==0x2b || DOWN){    
1368A:  MOVF   34,W
1368C:  SUBLW  2B
1368E:  BTFSC  FD8.2
13690:  GOTO   1369C
13694:  BSF    F93.1
13696:  BTFSC  F81.1
13698:  GOTO   13736
....................                if(Opcion==1){ 
1369C:  MOVLB  3
1369E:  DECFSZ x4F,W
136A0:  GOTO   136B2
....................                   if(DiaTx>0) 
136A4:  MOVF   x94,F
136A6:  BTFSC  FD8.2
136A8:  GOTO   136AE
....................                      DiaTx--; 
136AC:  DECF   x94,F
....................                }else if(Opcion==2){ 
136AE:  GOTO   13730
136B2:  MOVF   x4F,W
136B4:  SUBLW  02
136B6:  BTFSS  FD8.2
136B8:  GOTO   136D4
....................                   if(MesTx>1) 
136BC:  MOVF   x93,W
136BE:  SUBLW  01
136C0:  BTFSC  FD8.0
136C2:  GOTO   136CC
....................                      MesTx--; 
136C6:  DECF   x93,F
....................                   else 
136C8:  GOTO   136D0
....................                      MesTx=12; 
136CC:  MOVLW  0C
136CE:  MOVWF  x93
....................                }else if(Opcion==3){ 
136D0:  GOTO   13730
136D4:  MOVF   x4F,W
136D6:  SUBLW  03
136D8:  BTFSS  FD8.2
136DA:  GOTO   136F4
....................                   if(YearTx>0) 
136DE:  MOVF   x92,F
136E0:  BTFSC  FD8.2
136E2:  GOTO   136EC
....................                      YearTx--; 
136E6:  DECF   x92,F
....................                   else 
136E8:  GOTO   136F0
....................                      YearTx=99; 
136EC:  MOVLW  63
136EE:  MOVWF  x92
....................                }else if(Opcion==4){ 
136F0:  GOTO   13730
136F4:  MOVF   x4F,W
136F6:  SUBLW  04
136F8:  BTFSS  FD8.2
136FA:  GOTO   13714
....................                   if(HoraTx>0) 
136FE:  MOVF   x95,F
13700:  BTFSC  FD8.2
13702:  GOTO   1370C
....................                      HoraTx--; 
13706:  DECF   x95,F
....................                   else 
13708:  GOTO   13710
....................                      HoraTx=23; 
1370C:  MOVLW  17
1370E:  MOVWF  x95
....................                }else if(Opcion==5){ 
13710:  GOTO   13730
13714:  MOVF   x4F,W
13716:  SUBLW  05
13718:  BTFSS  FD8.2
1371A:  GOTO   13730
....................                   if(MinutoTx>0) 
1371E:  MOVF   x96,F
13720:  BTFSC  FD8.2
13722:  GOTO   1372C
....................                      MinutoTx--; 
13726:  DECF   x96,F
....................                   else 
13728:  GOTO   13730
....................                      MinutoTx=59; 
1372C:  MOVLW  3B
1372E:  MOVWF  x96
....................                } 
....................                RX_Buffer[4]=0x00; 
13730:  CLRF   34
....................                RX_Buffer2[4]=0x00; 
13732:  CLRF   3F
13734:  MOVLB  0
....................             } 
....................          } 
....................        
....................       printf("thora.txt=\"%02u\"",HoraTx); 
13736:  MOVLW  98
13738:  MOVWF  FF6
1373A:  MOVLW  10
1373C:  MOVWF  FF7
1373E:  MOVLW  00
13740:  MOVWF  FF8
13742:  MOVLW  0B
13744:  MOVLB  7
13746:  MOVWF  x0D
13748:  MOVLB  0
1374A:  CALL   5D0E
1374E:  MOVFF  395,70D
13752:  MOVLW  01
13754:  MOVLB  7
13756:  MOVWF  x0E
13758:  MOVLB  0
1375A:  CALL   632A
1375E:  MOVLW  22
13760:  BTFSS  F9E.4
13762:  GOTO   13760
13766:  MOVWF  FAD
....................       SendDataDisplay(); 
13768:  CALL   456A
....................       printf("tminutos.txt=\"%02u\"",MinutoTx); 
1376C:  MOVLW  AA
1376E:  MOVWF  FF6
13770:  MOVLW  10
13772:  MOVWF  FF7
13774:  MOVLW  00
13776:  MOVWF  FF8
13778:  MOVLW  0E
1377A:  MOVLB  7
1377C:  MOVWF  x0D
1377E:  MOVLB  0
13780:  CALL   5D0E
13784:  MOVFF  396,70D
13788:  MOVLW  01
1378A:  MOVLB  7
1378C:  MOVWF  x0E
1378E:  MOVLB  0
13790:  CALL   632A
13794:  MOVLW  22
13796:  BTFSS  F9E.4
13798:  GOTO   13796
1379C:  MOVWF  FAD
....................       SendDataDisplay(); 
1379E:  CALL   456A
....................       printf("tdia.txt=\"%02u\"",DiaTx); 
137A2:  MOVLW  BE
137A4:  MOVWF  FF6
137A6:  MOVLW  10
137A8:  MOVWF  FF7
137AA:  MOVLW  00
137AC:  MOVWF  FF8
137AE:  MOVLW  0A
137B0:  MOVLB  7
137B2:  MOVWF  x0D
137B4:  MOVLB  0
137B6:  CALL   5D0E
137BA:  MOVFF  394,70D
137BE:  MOVLW  01
137C0:  MOVLB  7
137C2:  MOVWF  x0E
137C4:  MOVLB  0
137C6:  CALL   632A
137CA:  MOVLW  22
137CC:  BTFSS  F9E.4
137CE:  GOTO   137CC
137D2:  MOVWF  FAD
....................       SendDataDisplay(); 
137D4:  CALL   456A
....................       printf("tmes.txt=\"%02u\"",MesTx); 
137D8:  MOVLW  CE
137DA:  MOVWF  FF6
137DC:  MOVLW  10
137DE:  MOVWF  FF7
137E0:  MOVLW  00
137E2:  MOVWF  FF8
137E4:  MOVLW  0A
137E6:  MOVLB  7
137E8:  MOVWF  x0D
137EA:  MOVLB  0
137EC:  CALL   5D0E
137F0:  MOVFF  393,70D
137F4:  MOVLW  01
137F6:  MOVLB  7
137F8:  MOVWF  x0E
137FA:  MOVLB  0
137FC:  CALL   632A
13800:  MOVLW  22
13802:  BTFSS  F9E.4
13804:  GOTO   13802
13808:  MOVWF  FAD
....................       SendDataDisplay(); 
1380A:  CALL   456A
....................       printf("tyear.txt=\"%02u\"",YearTx); 
1380E:  MOVLW  DE
13810:  MOVWF  FF6
13812:  MOVLW  10
13814:  MOVWF  FF7
13816:  MOVLW  00
13818:  MOVWF  FF8
1381A:  MOVLW  0B
1381C:  MOVLB  7
1381E:  MOVWF  x0D
13820:  MOVLB  0
13822:  CALL   5D0E
13826:  MOVFF  392,70D
1382A:  MOVLW  01
1382C:  MOVLB  7
1382E:  MOVWF  x0E
13830:  MOVLB  0
13832:  CALL   632A
13836:  MOVLW  22
13838:  BTFSS  F9E.4
1383A:  GOTO   13838
1383E:  MOVWF  FAD
....................       SendDataDisplay(); 
13840:  CALL   456A
....................       LimitaDia();   
13844:  GOTO   7120
13848:  MOVLB  3
....................     } 
.................... //_--------------------------------------------------------------------------------------------------------------------------------------------------------        
....................  
.................... //_-------------------------------------------------------------------------------------------------------------------------------------------------------- 
....................    if(Menu==8){ //Menu Ciclos Personalizados 
1384A:  MOVF   x47,W
1384C:  SUBLW  08
1384E:  BTFSS  FD8.2
13850:  GOTO   14208
....................       //printf("fecha.txt=\"Fecha:%02u/%02u/20%02u Hora: %02u:%02u:%02u\"",Dia,Mes,Year,Hora,Minuto,Segundo); 
....................       //SendDataDisplay(); 
....................       revisePresion(); 
13854:  MOVLB  0
13856:  CALL   6452
....................       GuardaEEPROM=OFF; 
1385A:  BCF    xA2.2
....................        
....................       if(RX_Buffer[4]>0x00 && RX_Buffer[4]<0x04){//Personalizados 
1385C:  MOVF   34,F
1385E:  BTFSC  FD8.2
13860:  GOTO   13B0E
13864:  MOVF   34,W
13866:  SUBLW  03
13868:  BTFSS  FD8.0
1386A:  GOTO   13B0E
....................          printf("ciclo.txt=\"CICLO P%02u\"",RX_Buffer[4]+0x06); 
1386E:  MOVLW  06
13870:  ADDWF  34,W
13872:  MOVLB  7
13874:  MOVWF  x08
13876:  MOVLW  F0
13878:  MOVWF  FF6
1387A:  MOVLW  10
1387C:  MOVWF  FF7
1387E:  MOVLW  00
13880:  MOVWF  FF8
13882:  MOVLW  12
13884:  MOVWF  x0D
13886:  MOVLB  0
13888:  CALL   5D0E
1388C:  MOVFF  708,70D
13890:  MOVLW  01
13892:  MOVLB  7
13894:  MOVWF  x0E
13896:  MOVLB  0
13898:  CALL   632A
1389C:  MOVLW  22
1389E:  BTFSS  F9E.4
138A0:  GOTO   1389E
138A4:  MOVWF  FAD
....................          SendDataDisplay();           
138A6:  CALL   456A
....................          printf("temp.txt=\"%u\"",CiclosPersonalizados[RX_Buffer[4]-1].Temperatura); 
138AA:  MOVLW  01
138AC:  SUBWF  34,W
138AE:  MULLW  0A
138B0:  MOVF   FF3,W
138B2:  MOVLB  7
138B4:  CLRF   x09
138B6:  MOVWF  x08
138B8:  MOVLW  E0
138BA:  ADDWF  x08,W
138BC:  MOVWF  FE9
138BE:  MOVLW  06
138C0:  ADDWFC x09,W
138C2:  MOVWF  FEA
138C4:  MOVFF  FEF,708
138C8:  MOVLW  08
138CA:  MOVWF  FF6
138CC:  MOVLW  11
138CE:  MOVWF  FF7
138D0:  MOVLW  00
138D2:  MOVWF  FF8
138D4:  MOVLW  0A
138D6:  MOVWF  x0D
138D8:  MOVLB  0
138DA:  CALL   5D0E
138DE:  MOVFF  708,70D
138E2:  MOVLW  1B
138E4:  MOVLB  7
138E6:  MOVWF  x0E
138E8:  MOVLB  0
138EA:  CALL   632A
138EE:  MOVLW  22
138F0:  BTFSS  F9E.4
138F2:  GOTO   138F0
138F6:  MOVWF  FAD
....................          SendDataDisplay(); 
138F8:  CALL   456A
....................          printf("test.txt=\"%02u:%02u\"",CiclosPersonalizados[RX_Buffer[4]-1].Minutoest,CiclosPersonalizados[RX_Buffer[4]-1].Segundoest); 
138FC:  MOVLW  01
138FE:  SUBWF  34,W
13900:  MULLW  0A
13902:  MOVF   FF3,W
13904:  MOVLB  7
13906:  CLRF   x09
13908:  MOVWF  x08
1390A:  MOVLW  09
1390C:  ADDWF  x08,W
1390E:  MOVWF  01
13910:  MOVLW  00
13912:  ADDWFC x09,W
13914:  MOVWF  03
13916:  MOVF   01,W
13918:  ADDLW  E0
1391A:  MOVWF  FE9
1391C:  MOVLW  06
1391E:  ADDWFC 03,W
13920:  MOVWF  FEA
13922:  MOVFF  FEF,708
13926:  MOVLW  01
13928:  SUBWF  34,W
1392A:  MULLW  0A
1392C:  MOVF   FF3,W
1392E:  CLRF   x0A
13930:  MOVWF  x09
13932:  MOVLW  03
13934:  ADDWF  x09,W
13936:  MOVWF  01
13938:  MOVLW  00
1393A:  ADDWFC x0A,W
1393C:  MOVWF  03
1393E:  MOVF   01,W
13940:  ADDLW  E0
13942:  MOVWF  FE9
13944:  MOVLW  06
13946:  ADDWFC 03,W
13948:  MOVWF  FEA
1394A:  MOVFF  FEF,709
1394E:  MOVLW  16
13950:  MOVWF  FF6
13952:  MOVLW  11
13954:  MOVWF  FF7
13956:  MOVLW  00
13958:  MOVWF  FF8
1395A:  MOVLW  0A
1395C:  MOVWF  x0D
1395E:  MOVLB  0
13960:  CALL   5D0E
13964:  MOVFF  708,70D
13968:  MOVLW  01
1396A:  MOVLB  7
1396C:  MOVWF  x0E
1396E:  MOVLB  0
13970:  CALL   632A
13974:  MOVLW  3A
13976:  BTFSS  F9E.4
13978:  GOTO   13976
1397C:  MOVWF  FAD
1397E:  MOVFF  709,70D
13982:  MOVLW  01
13984:  MOVLB  7
13986:  MOVWF  x0E
13988:  MOVLB  0
1398A:  CALL   632A
1398E:  MOVLW  22
13990:  BTFSS  F9E.4
13992:  GOTO   13990
13996:  MOVWF  FAD
....................          SendDataDisplay(); 
13998:  CALL   456A
....................          printf("tsec.txt=\"%02u:%02u\"",CiclosPersonalizados[RX_Buffer[4]-1].Minutosec,CiclosPersonalizados[RX_Buffer[4]-1].Segundosec); 
1399C:  MOVLW  01
1399E:  SUBWF  34,W
139A0:  MULLW  0A
139A2:  MOVF   FF3,W
139A4:  MOVLB  7
139A6:  CLRF   x09
139A8:  MOVWF  x08
139AA:  MOVLW  04
139AC:  ADDWF  x08,W
139AE:  MOVWF  01
139B0:  MOVLW  00
139B2:  ADDWFC x09,W
139B4:  MOVWF  03
139B6:  MOVF   01,W
139B8:  ADDLW  E0
139BA:  MOVWF  FE9
139BC:  MOVLW  06
139BE:  ADDWFC 03,W
139C0:  MOVWF  FEA
139C2:  MOVFF  FEF,708
139C6:  MOVLW  01
139C8:  SUBWF  34,W
139CA:  MULLW  0A
139CC:  MOVF   FF3,W
139CE:  CLRF   x0A
139D0:  MOVWF  x09
139D2:  MOVLW  05
139D4:  ADDWF  x09,W
139D6:  MOVWF  01
139D8:  MOVLW  00
139DA:  ADDWFC x0A,W
139DC:  MOVWF  03
139DE:  MOVF   01,W
139E0:  ADDLW  E0
139E2:  MOVWF  FE9
139E4:  MOVLW  06
139E6:  ADDWFC 03,W
139E8:  MOVWF  FEA
139EA:  MOVFF  FEF,709
139EE:  MOVLW  2C
139F0:  MOVWF  FF6
139F2:  MOVLW  11
139F4:  MOVWF  FF7
139F6:  MOVLW  00
139F8:  MOVWF  FF8
139FA:  MOVLW  0A
139FC:  MOVWF  x0D
139FE:  MOVLB  0
13A00:  CALL   5D0E
13A04:  MOVFF  708,70D
13A08:  MOVLW  01
13A0A:  MOVLB  7
13A0C:  MOVWF  x0E
13A0E:  MOVLB  0
13A10:  CALL   632A
13A14:  MOVLW  3A
13A16:  BTFSS  F9E.4
13A18:  GOTO   13A16
13A1C:  MOVWF  FAD
13A1E:  MOVFF  709,70D
13A22:  MOVLW  01
13A24:  MOVLB  7
13A26:  MOVWF  x0E
13A28:  MOVLB  0
13A2A:  CALL   632A
13A2E:  MOVLW  22
13A30:  BTFSS  F9E.4
13A32:  GOTO   13A30
13A36:  MOVWF  FAD
....................          SendDataDisplay(); 
13A38:  CALL   456A
....................          printf("pulsos.txt=\"%02u\"",CiclosPersonalizados[RX_Buffer[4]-1].PulsosVacio); 
13A3C:  MOVLW  01
13A3E:  SUBWF  34,W
13A40:  MULLW  0A
13A42:  MOVF   FF3,W
13A44:  MOVLB  7
13A46:  CLRF   x09
13A48:  MOVWF  x08
13A4A:  MOVLW  06
13A4C:  ADDWF  x08,W
13A4E:  MOVWF  01
13A50:  MOVLW  00
13A52:  ADDWFC x09,W
13A54:  MOVWF  03
13A56:  MOVF   01,W
13A58:  ADDLW  E0
13A5A:  MOVWF  FE9
13A5C:  MOVLW  06
13A5E:  ADDWFC 03,W
13A60:  MOVWF  FEA
13A62:  MOVFF  FEF,708
13A66:  MOVLW  42
13A68:  MOVWF  FF6
13A6A:  MOVLW  11
13A6C:  MOVWF  FF7
13A6E:  MOVLW  00
13A70:  MOVWF  FF8
13A72:  MOVLW  0C
13A74:  MOVWF  x0D
13A76:  MOVLB  0
13A78:  CALL   5D0E
13A7C:  MOVFF  708,70D
13A80:  MOVLW  01
13A82:  MOVLB  7
13A84:  MOVWF  x0E
13A86:  MOVLB  0
13A88:  CALL   632A
13A8C:  MOVLW  22
13A8E:  BTFSS  F9E.4
13A90:  GOTO   13A8E
13A94:  MOVWF  FAD
....................          SendDataDisplay(); 
13A96:  CALL   456A
....................          printf("vacio.txt=\"%03u kPa\"",CiclosPersonalizados[RX_Buffer[4]-1].NivelVacio); 
13A9A:  MOVLW  01
13A9C:  SUBWF  34,W
13A9E:  MULLW  0A
13AA0:  MOVF   FF3,W
13AA2:  MOVLB  7
13AA4:  CLRF   x09
13AA6:  MOVWF  x08
13AA8:  MOVLW  07
13AAA:  ADDWF  x08,W
13AAC:  MOVWF  01
13AAE:  MOVLW  00
13AB0:  ADDWFC x09,W
13AB2:  MOVWF  03
13AB4:  MOVF   01,W
13AB6:  ADDLW  E0
13AB8:  MOVWF  FE9
13ABA:  MOVLW  06
13ABC:  ADDWFC 03,W
13ABE:  MOVWF  FEA
13AC0:  MOVFF  FEF,708
13AC4:  MOVLW  54
13AC6:  MOVWF  FF6
13AC8:  MOVLW  11
13ACA:  MOVWF  FF7
13ACC:  MOVLW  00
13ACE:  MOVWF  FF8
13AD0:  MOVLW  0B
13AD2:  MOVWF  x0D
13AD4:  MOVLB  0
13AD6:  CALL   5D0E
13ADA:  MOVFF  708,70D
13ADE:  MOVLW  03
13AE0:  MOVLB  7
13AE2:  MOVWF  x0E
13AE4:  MOVLB  0
13AE6:  CALL   632A
13AEA:  MOVLW  63
13AEC:  MOVWF  FF6
13AEE:  MOVLW  11
13AF0:  MOVWF  FF7
13AF2:  MOVLW  00
13AF4:  MOVWF  FF8
13AF6:  MOVLW  05
13AF8:  MOVLB  7
13AFA:  MOVWF  x0D
13AFC:  MOVLB  0
13AFE:  CALL   5D0E
....................          SendDataDisplay(); 
13B02:  CALL   456A
....................          CicloLibre=RX_Buffer[4]; 
13B06:  MOVFF  34,32D
....................       }else if(CicloLibre==0x00){ 
13B0A:  GOTO   13E54
13B0E:  MOVLB  3
13B10:  MOVF   x2D,F
13B12:  BTFSS  FD8.2
13B14:  GOTO   13B98
....................          printf("ciclo.txt=\"CICLO P--\""); 
13B18:  MOVLW  6A
13B1A:  MOVWF  FF6
13B1C:  MOVLW  11
13B1E:  MOVWF  FF7
13B20:  MOVLW  00
13B22:  MOVWF  FF8
13B24:  MOVLB  0
13B26:  CALL   4538
....................          SendDataDisplay();           
13B2A:  CALL   456A
....................          printf("temp.txt=\"--\""); 
13B2E:  MOVLW  80
13B30:  MOVWF  FF6
13B32:  MOVLW  11
13B34:  MOVWF  FF7
13B36:  MOVLW  00
13B38:  MOVWF  FF8
13B3A:  CALL   4538
....................          SendDataDisplay(); 
13B3E:  CALL   456A
....................          printf("test.txt=\"--:--\""); 
13B42:  MOVLW  8E
13B44:  MOVWF  FF6
13B46:  MOVLW  11
13B48:  MOVWF  FF7
13B4A:  MOVLW  00
13B4C:  MOVWF  FF8
13B4E:  CALL   4538
....................          SendDataDisplay(); 
13B52:  CALL   456A
....................          printf("tsec.txt=\"--:--\""); 
13B56:  MOVLW  A0
13B58:  MOVWF  FF6
13B5A:  MOVLW  11
13B5C:  MOVWF  FF7
13B5E:  MOVLW  00
13B60:  MOVWF  FF8
13B62:  CALL   4538
....................          SendDataDisplay(); 
13B66:  CALL   456A
....................          printf("pulsos.txt=\"---\""); 
13B6A:  MOVLW  B2
13B6C:  MOVWF  FF6
13B6E:  MOVLW  11
13B70:  MOVWF  FF7
13B72:  MOVLW  00
13B74:  MOVWF  FF8
13B76:  CALL   4538
....................          SendDataDisplay(); 
13B7A:  CALL   456A
....................          printf("vacio.txt=\"---\""); 
13B7E:  MOVLW  C4
13B80:  MOVWF  FF6
13B82:  MOVLW  11
13B84:  MOVWF  FF7
13B86:  MOVLW  00
13B88:  MOVWF  FF8
13B8A:  CALL   4538
....................          SendDataDisplay(); 
13B8E:  CALL   456A
....................       }else if(CicloLibre>0 && CicloLibre<4){ 
13B92:  GOTO   13E54
13B96:  MOVLB  3
13B98:  MOVF   x2D,F
13B9A:  BTFSC  FD8.2
13B9C:  GOTO   13E56
13BA0:  MOVF   x2D,W
13BA2:  SUBLW  03
13BA4:  BTFSS  FD8.0
13BA6:  GOTO   13E56
....................          printf("ciclo.txt=\"CICLO P%02u\"",CicloLibre+0x06); 
13BAA:  MOVLW  06
13BAC:  ADDWF  x2D,W
13BAE:  MOVLB  7
13BB0:  MOVWF  x08
13BB2:  MOVLW  D4
13BB4:  MOVWF  FF6
13BB6:  MOVLW  11
13BB8:  MOVWF  FF7
13BBA:  MOVLW  00
13BBC:  MOVWF  FF8
13BBE:  MOVLW  12
13BC0:  MOVWF  x0D
13BC2:  MOVLB  0
13BC4:  CALL   5D0E
13BC8:  MOVFF  708,70D
13BCC:  MOVLW  01
13BCE:  MOVLB  7
13BD0:  MOVWF  x0E
13BD2:  MOVLB  0
13BD4:  CALL   632A
13BD8:  MOVLW  22
13BDA:  BTFSS  F9E.4
13BDC:  GOTO   13BDA
13BE0:  MOVWF  FAD
....................          SendDataDisplay();           
13BE2:  CALL   456A
....................          printf("temp.txt=\"%u\"",CiclosPersonalizados[CicloLibre-1].Temperatura); 
13BE6:  MOVLW  01
13BE8:  MOVLB  3
13BEA:  SUBWF  x2D,W
13BEC:  MULLW  0A
13BEE:  MOVF   FF3,W
13BF0:  MOVLB  7
13BF2:  CLRF   x09
13BF4:  MOVWF  x08
13BF6:  MOVLW  E0
13BF8:  ADDWF  x08,W
13BFA:  MOVWF  FE9
13BFC:  MOVLW  06
13BFE:  ADDWFC x09,W
13C00:  MOVWF  FEA
13C02:  MOVFF  FEF,708
13C06:  MOVLW  EC
13C08:  MOVWF  FF6
13C0A:  MOVLW  11
13C0C:  MOVWF  FF7
13C0E:  MOVLW  00
13C10:  MOVWF  FF8
13C12:  MOVLW  0A
13C14:  MOVWF  x0D
13C16:  MOVLB  0
13C18:  CALL   5D0E
13C1C:  MOVFF  708,70D
13C20:  MOVLW  1B
13C22:  MOVLB  7
13C24:  MOVWF  x0E
13C26:  MOVLB  0
13C28:  CALL   632A
13C2C:  MOVLW  22
13C2E:  BTFSS  F9E.4
13C30:  GOTO   13C2E
13C34:  MOVWF  FAD
....................          SendDataDisplay(); 
13C36:  CALL   456A
....................          printf("test.txt=\"%02u:%02u\"",CiclosPersonalizados[CicloLibre-1].Minutoest,CiclosPersonalizados[CicloLibre-1].Segundoest); 
13C3A:  MOVLW  01
13C3C:  MOVLB  3
13C3E:  SUBWF  x2D,W
13C40:  MULLW  0A
13C42:  MOVF   FF3,W
13C44:  MOVLB  7
13C46:  CLRF   x09
13C48:  MOVWF  x08
13C4A:  MOVLW  09
13C4C:  ADDWF  x08,W
13C4E:  MOVWF  01
13C50:  MOVLW  00
13C52:  ADDWFC x09,W
13C54:  MOVWF  03
13C56:  MOVF   01,W
13C58:  ADDLW  E0
13C5A:  MOVWF  FE9
13C5C:  MOVLW  06
13C5E:  ADDWFC 03,W
13C60:  MOVWF  FEA
13C62:  MOVFF  FEF,708
13C66:  MOVLW  01
13C68:  MOVLB  3
13C6A:  SUBWF  x2D,W
13C6C:  MULLW  0A
13C6E:  MOVF   FF3,W
13C70:  MOVLB  7
13C72:  CLRF   x0A
13C74:  MOVWF  x09
13C76:  MOVLW  03
13C78:  ADDWF  x09,W
13C7A:  MOVWF  01
13C7C:  MOVLW  00
13C7E:  ADDWFC x0A,W
13C80:  MOVWF  03
13C82:  MOVF   01,W
13C84:  ADDLW  E0
13C86:  MOVWF  FE9
13C88:  MOVLW  06
13C8A:  ADDWFC 03,W
13C8C:  MOVWF  FEA
13C8E:  MOVFF  FEF,709
13C92:  MOVLW  FA
13C94:  MOVWF  FF6
13C96:  MOVLW  11
13C98:  MOVWF  FF7
13C9A:  MOVLW  00
13C9C:  MOVWF  FF8
13C9E:  MOVLW  0A
13CA0:  MOVWF  x0D
13CA2:  MOVLB  0
13CA4:  CALL   5D0E
13CA8:  MOVFF  708,70D
13CAC:  MOVLW  01
13CAE:  MOVLB  7
13CB0:  MOVWF  x0E
13CB2:  MOVLB  0
13CB4:  CALL   632A
13CB8:  MOVLW  3A
13CBA:  BTFSS  F9E.4
13CBC:  GOTO   13CBA
13CC0:  MOVWF  FAD
13CC2:  MOVFF  709,70D
13CC6:  MOVLW  01
13CC8:  MOVLB  7
13CCA:  MOVWF  x0E
13CCC:  MOVLB  0
13CCE:  CALL   632A
13CD2:  MOVLW  22
13CD4:  BTFSS  F9E.4
13CD6:  GOTO   13CD4
13CDA:  MOVWF  FAD
....................          SendDataDisplay(); 
13CDC:  CALL   456A
....................          printf("tsec.txt=\"%02u:%02u\"",CiclosPersonalizados[CicloLibre-1].Minutosec,CiclosPersonalizados[CicloLibre-1].Segundosec); 
13CE0:  MOVLW  01
13CE2:  MOVLB  3
13CE4:  SUBWF  x2D,W
13CE6:  MULLW  0A
13CE8:  MOVF   FF3,W
13CEA:  MOVLB  7
13CEC:  CLRF   x09
13CEE:  MOVWF  x08
13CF0:  MOVLW  04
13CF2:  ADDWF  x08,W
13CF4:  MOVWF  01
13CF6:  MOVLW  00
13CF8:  ADDWFC x09,W
13CFA:  MOVWF  03
13CFC:  MOVF   01,W
13CFE:  ADDLW  E0
13D00:  MOVWF  FE9
13D02:  MOVLW  06
13D04:  ADDWFC 03,W
13D06:  MOVWF  FEA
13D08:  MOVFF  FEF,708
13D0C:  MOVLW  01
13D0E:  MOVLB  3
13D10:  SUBWF  x2D,W
13D12:  MULLW  0A
13D14:  MOVF   FF3,W
13D16:  MOVLB  7
13D18:  CLRF   x0A
13D1A:  MOVWF  x09
13D1C:  MOVLW  05
13D1E:  ADDWF  x09,W
13D20:  MOVWF  01
13D22:  MOVLW  00
13D24:  ADDWFC x0A,W
13D26:  MOVWF  03
13D28:  MOVF   01,W
13D2A:  ADDLW  E0
13D2C:  MOVWF  FE9
13D2E:  MOVLW  06
13D30:  ADDWFC 03,W
13D32:  MOVWF  FEA
13D34:  MOVFF  FEF,709
13D38:  MOVLW  10
13D3A:  MOVWF  FF6
13D3C:  MOVLW  12
13D3E:  MOVWF  FF7
13D40:  MOVLW  00
13D42:  MOVWF  FF8
13D44:  MOVLW  0A
13D46:  MOVWF  x0D
13D48:  MOVLB  0
13D4A:  CALL   5D0E
13D4E:  MOVFF  708,70D
13D52:  MOVLW  01
13D54:  MOVLB  7
13D56:  MOVWF  x0E
13D58:  MOVLB  0
13D5A:  CALL   632A
13D5E:  MOVLW  3A
13D60:  BTFSS  F9E.4
13D62:  GOTO   13D60
13D66:  MOVWF  FAD
13D68:  MOVFF  709,70D
13D6C:  MOVLW  01
13D6E:  MOVLB  7
13D70:  MOVWF  x0E
13D72:  MOVLB  0
13D74:  CALL   632A
13D78:  MOVLW  22
13D7A:  BTFSS  F9E.4
13D7C:  GOTO   13D7A
13D80:  MOVWF  FAD
....................          SendDataDisplay(); 
13D82:  CALL   456A
....................          printf("pulsos.txt=\"%02u\"",CiclosPersonalizados[CicloLibre-1].PulsosVacio); 
13D86:  MOVLW  01
13D88:  MOVLB  3
13D8A:  SUBWF  x2D,W
13D8C:  MULLW  0A
13D8E:  MOVF   FF3,W
13D90:  MOVLB  7
13D92:  CLRF   x09
13D94:  MOVWF  x08
13D96:  MOVLW  06
13D98:  ADDWF  x08,W
13D9A:  MOVWF  01
13D9C:  MOVLW  00
13D9E:  ADDWFC x09,W
13DA0:  MOVWF  03
13DA2:  MOVF   01,W
13DA4:  ADDLW  E0
13DA6:  MOVWF  FE9
13DA8:  MOVLW  06
13DAA:  ADDWFC 03,W
13DAC:  MOVWF  FEA
13DAE:  MOVFF  FEF,708
13DB2:  MOVLW  26
13DB4:  MOVWF  FF6
13DB6:  MOVLW  12
13DB8:  MOVWF  FF7
13DBA:  MOVLW  00
13DBC:  MOVWF  FF8
13DBE:  MOVLW  0C
13DC0:  MOVWF  x0D
13DC2:  MOVLB  0
13DC4:  CALL   5D0E
13DC8:  MOVFF  708,70D
13DCC:  MOVLW  01
13DCE:  MOVLB  7
13DD0:  MOVWF  x0E
13DD2:  MOVLB  0
13DD4:  CALL   632A
13DD8:  MOVLW  22
13DDA:  BTFSS  F9E.4
13DDC:  GOTO   13DDA
13DE0:  MOVWF  FAD
....................          SendDataDisplay(); 
13DE2:  CALL   456A
....................          printf("vacio.txt=\"%03u kPa\"",CiclosPersonalizados[CicloLibre-1].NivelVacio); 
13DE6:  MOVLW  01
13DE8:  MOVLB  3
13DEA:  SUBWF  x2D,W
13DEC:  MULLW  0A
13DEE:  MOVF   FF3,W
13DF0:  MOVLB  7
13DF2:  CLRF   x09
13DF4:  MOVWF  x08
13DF6:  MOVLW  07
13DF8:  ADDWF  x08,W
13DFA:  MOVWF  01
13DFC:  MOVLW  00
13DFE:  ADDWFC x09,W
13E00:  MOVWF  03
13E02:  MOVF   01,W
13E04:  ADDLW  E0
13E06:  MOVWF  FE9
13E08:  MOVLW  06
13E0A:  ADDWFC 03,W
13E0C:  MOVWF  FEA
13E0E:  MOVFF  FEF,708
13E12:  MOVLW  38
13E14:  MOVWF  FF6
13E16:  MOVLW  12
13E18:  MOVWF  FF7
13E1A:  MOVLW  00
13E1C:  MOVWF  FF8
13E1E:  MOVLW  0B
13E20:  MOVWF  x0D
13E22:  MOVLB  0
13E24:  CALL   5D0E
13E28:  MOVFF  708,70D
13E2C:  MOVLW  03
13E2E:  MOVLB  7
13E30:  MOVWF  x0E
13E32:  MOVLB  0
13E34:  CALL   632A
13E38:  MOVLW  47
13E3A:  MOVWF  FF6
13E3C:  MOVLW  12
13E3E:  MOVWF  FF7
13E40:  MOVLW  00
13E42:  MOVWF  FF8
13E44:  MOVLW  05
13E46:  MOVLB  7
13E48:  MOVWF  x0D
13E4A:  MOVLB  0
13E4C:  CALL   5D0E
....................          SendDataDisplay(); 
13E50:  CALL   456A
13E54:  MOVLB  3
....................       } 
....................        
....................       if(RX_Buffer[4]==0xa0){//a0, Menu Principal 
13E56:  MOVF   34,W
13E58:  SUBLW  A0
13E5A:  BTFSS  FD8.2
13E5C:  GOTO   13E78
....................          printf("page MenuPrincipal"); 
13E60:  MOVLW  4E
13E62:  MOVWF  FF6
13E64:  MOVLW  12
13E66:  MOVWF  FF7
13E68:  MOVLW  00
13E6A:  MOVWF  FF8
13E6C:  MOVLB  0
13E6E:  CALL   4538
....................          SendDataDisplay();               
13E72:  CALL   456A
13E76:  MOVLB  3
....................       } 
....................        
....................       if(RX_Buffer[4]==0x20 && CicloLibre>0){//20, Temperatura 
13E78:  MOVF   34,W
13E7A:  SUBLW  20
13E7C:  BTFSS  FD8.2
13E7E:  GOTO   13EC2
13E82:  MOVF   x2D,F
13E84:  BTFSC  FD8.2
13E86:  GOTO   13EC2
....................          printf("page Temperatura"); 
13E8A:  MOVLW  62
13E8C:  MOVWF  FF6
13E8E:  MOVLW  12
13E90:  MOVWF  FF7
13E92:  MOVLW  00
13E94:  MOVWF  FF8
13E96:  MOVLB  0
13E98:  CALL   4538
....................          SendDataDisplay();      
13E9C:  CALL   456A
....................          Setpoint=CiclosPersonalizados[CicloLibre-1].Temperatura; 
13EA0:  MOVLW  01
13EA2:  MOVLB  3
13EA4:  SUBWF  x2D,W
13EA6:  MULLW  0A
13EA8:  MOVF   FF3,W
13EAA:  MOVLB  7
13EAC:  CLRF   x09
13EAE:  MOVWF  x08
13EB0:  MOVLW  E0
13EB2:  ADDWF  x08,W
13EB4:  MOVWF  FE9
13EB6:  MOVLW  06
13EB8:  ADDWFC x09,W
13EBA:  MOVWF  FEA
13EBC:  MOVFF  FEF,34E
13EC0:  MOVLB  3
....................       } 
....................        
....................       if(RX_Buffer[4]==0x30 && CicloLibre>0){//30, Test 
13EC2:  MOVF   34,W
13EC4:  SUBLW  30
13EC6:  BTFSS  FD8.2
13EC8:  GOTO   13F48
13ECC:  MOVF   x2D,F
13ECE:  BTFSC  FD8.2
13ED0:  GOTO   13F48
....................          printf("page TiempoEst"); 
13ED4:  MOVLW  74
13ED6:  MOVWF  FF6
13ED8:  MOVLW  12
13EDA:  MOVWF  FF7
13EDC:  MOVLW  00
13EDE:  MOVWF  FF8
13EE0:  MOVLB  0
13EE2:  CALL   4538
....................          SendDataDisplay();      
13EE6:  CALL   456A
....................          mEstp=CiclosPersonalizados[CicloLibre-1].Minutoest; 
13EEA:  MOVLW  01
13EEC:  MOVLB  3
13EEE:  SUBWF  x2D,W
13EF0:  MULLW  0A
13EF2:  MOVF   FF3,W
13EF4:  MOVLB  7
13EF6:  CLRF   x09
13EF8:  MOVWF  x08
13EFA:  MOVLW  09
13EFC:  ADDWF  x08,W
13EFE:  MOVWF  01
13F00:  MOVLW  00
13F02:  ADDWFC x09,W
13F04:  MOVWF  03
13F06:  MOVF   01,W
13F08:  ADDLW  E0
13F0A:  MOVWF  FE9
13F0C:  MOVLW  06
13F0E:  ADDWFC 03,W
13F10:  MOVWF  FEA
13F12:  MOVFF  FEF,C0
13F16:  MOVLB  0
....................          sEstp=CiclosPersonalizados[CicloLibre-1].Segundoest; 
13F18:  MOVLW  01
13F1A:  MOVLB  3
13F1C:  SUBWF  x2D,W
13F1E:  MULLW  0A
13F20:  MOVF   FF3,W
13F22:  MOVLB  7
13F24:  CLRF   x09
13F26:  MOVWF  x08
13F28:  MOVLW  03
13F2A:  ADDWF  x08,W
13F2C:  MOVWF  01
13F2E:  MOVLW  00
13F30:  ADDWFC x09,W
13F32:  MOVWF  03
13F34:  MOVF   01,W
13F36:  ADDLW  E0
13F38:  MOVWF  FE9
13F3A:  MOVLW  06
13F3C:  ADDWFC 03,W
13F3E:  MOVWF  FEA
13F40:  MOVFF  FEF,BF
13F44:  MOVLB  0
13F46:  MOVLB  3
....................       } 
....................        
....................       if(RX_Buffer[4]==0x40 && CicloLibre>0){//30, Tsec 
13F48:  MOVF   34,W
13F4A:  SUBLW  40
13F4C:  BTFSS  FD8.2
13F4E:  GOTO   13FCE
13F52:  MOVF   x2D,F
13F54:  BTFSC  FD8.2
13F56:  GOTO   13FCE
....................          printf("page TiempoSec"); 
13F5A:  MOVLW  84
13F5C:  MOVWF  FF6
13F5E:  MOVLW  12
13F60:  MOVWF  FF7
13F62:  MOVLW  00
13F64:  MOVWF  FF8
13F66:  MOVLB  0
13F68:  CALL   4538
....................          SendDataDisplay();      
13F6C:  CALL   456A
....................          mSecp=CiclosPersonalizados[CicloLibre-1].Minutosec; 
13F70:  MOVLW  01
13F72:  MOVLB  3
13F74:  SUBWF  x2D,W
13F76:  MULLW  0A
13F78:  MOVF   FF3,W
13F7A:  MOVLB  7
13F7C:  CLRF   x09
13F7E:  MOVWF  x08
13F80:  MOVLW  04
13F82:  ADDWF  x08,W
13F84:  MOVWF  01
13F86:  MOVLW  00
13F88:  ADDWFC x09,W
13F8A:  MOVWF  03
13F8C:  MOVF   01,W
13F8E:  ADDLW  E0
13F90:  MOVWF  FE9
13F92:  MOVLW  06
13F94:  ADDWFC 03,W
13F96:  MOVWF  FEA
13F98:  MOVFF  FEF,C2
13F9C:  MOVLB  0
....................          sSecp=CiclosPersonalizados[CicloLibre-1].Segundosec; 
13F9E:  MOVLW  01
13FA0:  MOVLB  3
13FA2:  SUBWF  x2D,W
13FA4:  MULLW  0A
13FA6:  MOVF   FF3,W
13FA8:  MOVLB  7
13FAA:  CLRF   x09
13FAC:  MOVWF  x08
13FAE:  MOVLW  05
13FB0:  ADDWF  x08,W
13FB2:  MOVWF  01
13FB4:  MOVLW  00
13FB6:  ADDWFC x09,W
13FB8:  MOVWF  03
13FBA:  MOVF   01,W
13FBC:  ADDLW  E0
13FBE:  MOVWF  FE9
13FC0:  MOVLW  06
13FC2:  ADDWFC 03,W
13FC4:  MOVWF  FEA
13FC6:  MOVFF  FEF,C1
13FCA:  MOVLB  0
13FCC:  MOVLB  3
....................       } 
....................        
....................       if(RX_Buffer[4]==0x50 && CicloLibre>0){//50, PulsosVacio 
13FCE:  MOVF   34,W
13FD0:  SUBLW  50
13FD2:  BTFSS  FD8.2
13FD4:  GOTO   14024
13FD8:  MOVF   x2D,F
13FDA:  BTFSC  FD8.2
13FDC:  GOTO   14024
....................          printf("page Pulsos"); 
13FE0:  MOVLW  94
13FE2:  MOVWF  FF6
13FE4:  MOVLW  12
13FE6:  MOVWF  FF7
13FE8:  MOVLW  00
13FEA:  MOVWF  FF8
13FEC:  MOVLB  0
13FEE:  CALL   4538
....................          SendDataDisplay();      
13FF2:  CALL   456A
....................          Pulsos=CiclosPersonalizados[CicloLibre-1].PulsosVacio; 
13FF6:  MOVLW  01
13FF8:  MOVLB  3
13FFA:  SUBWF  x2D,W
13FFC:  MULLW  0A
13FFE:  MOVF   FF3,W
14000:  MOVLB  7
14002:  CLRF   x09
14004:  MOVWF  x08
14006:  MOVLW  06
14008:  ADDWF  x08,W
1400A:  MOVWF  01
1400C:  MOVLW  00
1400E:  ADDWFC x09,W
14010:  MOVWF  03
14012:  MOVF   01,W
14014:  ADDLW  E0
14016:  MOVWF  FE9
14018:  MOVLW  06
1401A:  ADDWFC 03,W
1401C:  MOVWF  FEA
1401E:  MOVFF  FEF,331
14022:  MOVLB  3
....................       } 
....................        
....................       if(RX_Buffer[4]==0x80 && CicloLibre>0){//80, Nivel Vacio 
14024:  MOVF   34,W
14026:  SUBLW  80
14028:  BTFSS  FD8.2
1402A:  GOTO   14080
1402E:  MOVF   x2D,F
14030:  BTFSC  FD8.2
14032:  GOTO   14080
....................          printf("page Nivel"); 
14036:  MOVLW  A0
14038:  MOVWF  FF6
1403A:  MOVLW  12
1403C:  MOVWF  FF7
1403E:  MOVLW  00
14040:  MOVWF  FF8
14042:  MOVLB  0
14044:  CALL   4538
....................          SendDataDisplay();      
14048:  CALL   456A
....................          Nivel=CiclosPersonalizados[CicloLibre-1].NivelVacio;          
1404C:  MOVLW  01
1404E:  MOVLB  3
14050:  SUBWF  x2D,W
14052:  MULLW  0A
14054:  MOVF   FF3,W
14056:  MOVLB  7
14058:  CLRF   x09
1405A:  MOVWF  x08
1405C:  MOVLW  07
1405E:  ADDWF  x08,W
14060:  MOVWF  01
14062:  MOVLW  00
14064:  ADDWFC x09,W
14066:  MOVWF  03
14068:  MOVF   01,W
1406A:  ADDLW  E0
1406C:  MOVWF  FE9
1406E:  MOVLW  06
14070:  ADDWFC 03,W
14072:  MOVWF  FEA
14074:  MOVF   FEF,W
14076:  CLRF   03
14078:  MOVLB  3
1407A:  MOVWF  x61
1407C:  MOVFF  03,362
....................       } 
....................        
....................       if(RX_Buffer[4]==0x70 && CicloLibre>0){//70, Iniciar Ciclo          
14080:  MOVF   34,W
14082:  SUBLW  70
14084:  BTFSS  FD8.2
14086:  GOTO   14208
1408A:  MOVF   x2D,F
1408C:  BTFSC  FD8.2
1408E:  GOTO   14208
....................          printf("page Funcionamiento"); 
14092:  MOVLW  AC
14094:  MOVWF  FF6
14096:  MOVLW  12
14098:  MOVWF  FF7
1409A:  MOVLW  00
1409C:  MOVWF  FF8
1409E:  MOVLB  0
140A0:  CALL   4538
....................          SendDataDisplay();        
140A4:  CALL   456A
....................          Libre=ON; 
140A8:  BSF    xA3.2
....................             ConfiguraCiclo(CiclosPersonalizados[CicloLibre-1].Segundoest,CiclosPersonalizados[CicloLibre-1].Minutoest, 
....................             CiclosPersonalizados[CicloLibre-1].Segundosec,CiclosPersonalizados[CicloLibre-1].MinutoSec,0,CicloLibre+6, 
....................             CiclosPersonalizados[CicloLibre-1].Temperatura,CiclosPersonalizados[CicloLibre-1].PulsosVacio,CiclosPersonalizados[CicloLibre-1].NivelVacio 
....................             ,0); 
140AA:  MOVLW  01
140AC:  MOVLB  3
140AE:  SUBWF  x2D,W
140B0:  MULLW  0A
140B2:  MOVF   FF3,W
140B4:  MOVLB  7
140B6:  CLRF   x09
140B8:  MOVWF  x08
140BA:  MOVLW  03
140BC:  ADDWF  x08,W
140BE:  MOVWF  01
140C0:  MOVLW  00
140C2:  ADDWFC x09,W
140C4:  MOVWF  03
140C6:  MOVF   01,W
140C8:  ADDLW  E0
140CA:  MOVWF  FE9
140CC:  MOVLW  06
140CE:  ADDWFC 03,W
140D0:  MOVWF  FEA
140D2:  MOVFF  FEF,708
140D6:  MOVLW  01
140D8:  MOVLB  3
140DA:  SUBWF  x2D,W
140DC:  MULLW  0A
140DE:  MOVF   FF3,W
140E0:  MOVLB  7
140E2:  CLRF   x0A
140E4:  MOVWF  x09
140E6:  MOVLW  09
140E8:  ADDWF  x09,W
140EA:  MOVWF  01
140EC:  MOVLW  00
140EE:  ADDWFC x0A,W
140F0:  MOVWF  03
140F2:  MOVF   01,W
140F4:  ADDLW  E0
140F6:  MOVWF  FE9
140F8:  MOVLW  06
140FA:  ADDWFC 03,W
140FC:  MOVWF  FEA
140FE:  MOVFF  FEF,709
14102:  MOVLW  01
14104:  MOVLB  3
14106:  SUBWF  x2D,W
14108:  MULLW  0A
1410A:  MOVF   FF3,W
1410C:  MOVLB  7
1410E:  CLRF   x0B
14110:  MOVWF  x0A
14112:  MOVLW  05
14114:  ADDWF  x0A,W
14116:  MOVWF  01
14118:  MOVLW  00
1411A:  ADDWFC x0B,W
1411C:  MOVWF  03
1411E:  MOVF   01,W
14120:  ADDLW  E0
14122:  MOVWF  FE9
14124:  MOVLW  06
14126:  ADDWFC 03,W
14128:  MOVWF  FEA
1412A:  MOVFF  FEF,70A
1412E:  MOVLW  01
14130:  MOVLB  3
14132:  SUBWF  x2D,W
14134:  MULLW  0A
14136:  MOVF   FF3,W
14138:  MOVLB  7
1413A:  CLRF   x0C
1413C:  MOVWF  x0B
1413E:  MOVLW  04
14140:  ADDWF  x0B,W
14142:  MOVWF  01
14144:  MOVLW  00
14146:  ADDWFC x0C,W
14148:  MOVWF  03
1414A:  MOVF   01,W
1414C:  ADDLW  E0
1414E:  MOVWF  FE9
14150:  MOVLW  06
14152:  ADDWFC 03,W
14154:  MOVWF  FEA
14156:  MOVFF  FEF,70B
1415A:  MOVLW  06
1415C:  MOVLB  3
1415E:  ADDWF  x2D,W
14160:  MOVLB  7
14162:  MOVWF  x0C
14164:  MOVLW  01
14166:  MOVLB  3
14168:  SUBWF  x2D,W
1416A:  MULLW  0A
1416C:  MOVF   FF3,W
1416E:  MOVLB  7
14170:  CLRF   x0E
14172:  MOVWF  x0D
14174:  MOVLW  E0
14176:  ADDWF  x0D,W
14178:  MOVWF  FE9
1417A:  MOVLW  06
1417C:  ADDWFC x0E,W
1417E:  MOVWF  FEA
14180:  MOVFF  FEF,70D
14184:  MOVLW  01
14186:  MOVLB  3
14188:  SUBWF  x2D,W
1418A:  MULLW  0A
1418C:  MOVF   FF3,W
1418E:  MOVLB  7
14190:  CLRF   x0F
14192:  MOVWF  x0E
14194:  MOVLW  06
14196:  ADDWF  x0E,W
14198:  MOVWF  01
1419A:  MOVLW  00
1419C:  ADDWFC x0F,W
1419E:  MOVWF  03
141A0:  MOVF   01,W
141A2:  ADDLW  E0
141A4:  MOVWF  FE9
141A6:  MOVLW  06
141A8:  ADDWFC 03,W
141AA:  MOVWF  FEA
141AC:  MOVFF  FEF,70E
141B0:  MOVLW  01
141B2:  MOVLB  3
141B4:  SUBWF  x2D,W
141B6:  MULLW  0A
141B8:  MOVF   FF3,W
141BA:  MOVLB  7
141BC:  CLRF   x10
141BE:  MOVWF  x0F
141C0:  MOVLW  07
141C2:  ADDWF  x0F,W
141C4:  MOVWF  01
141C6:  MOVLW  00
141C8:  ADDWFC x10,W
141CA:  MOVWF  03
141CC:  MOVF   01,W
141CE:  ADDLW  E0
141D0:  MOVWF  FE9
141D2:  MOVLW  06
141D4:  ADDWFC 03,W
141D6:  MOVWF  FEA
141D8:  MOVFF  FEF,70F
141DC:  MOVFF  708,710
141E0:  MOVFF  709,711
141E4:  MOVFF  70A,712
141E8:  MOVFF  70B,713
141EC:  CLRF   x14
141EE:  MOVFF  70C,715
141F2:  MOVFF  70D,716
141F6:  MOVFF  70E,717
141FA:  MOVFF  70F,718
141FE:  CLRF   x19
14200:  MOVLB  0
14202:  CALL   6EE8
14206:  MOVLB  3
....................       } 
....................    } 
.................... //_--------------------------------------------------------------------------------------------------------------------------------------------------------        
....................  
.................... //_--------------------------------------------------------------------------------------------------------------------------------------------------------       
....................    if(Menu==9){//Menu de Pulsos de Vacio 
14208:  MOVF   x47,W
1420A:  SUBLW  09
1420C:  BTFSS  FD8.2
1420E:  GOTO   14334
....................       revisePresion(); 
14212:  MOVLB  0
14214:  CALL   6452
....................          if(Pulsos<2) 
14218:  MOVLB  3
1421A:  MOVF   x31,W
1421C:  SUBLW  01
1421E:  BTFSS  FD8.0
14220:  GOTO   14228
....................             Pulsos=8; 
14224:  MOVLW  08
14226:  MOVWF  x31
....................          if(Pulsos>8) 
14228:  MOVF   x31,W
1422A:  SUBLW  08
1422C:  BTFSC  FD8.0
1422E:  GOTO   14236
....................             Pulsos=2; 
14232:  MOVLW  02
14234:  MOVWF  x31
....................           
....................          if(RX_Buffer[4]==0x11){//Selecciono Regresar 
14236:  MOVF   34,W
14238:  SUBLW  11
1423A:  BTFSS  FD8.2
1423C:  GOTO   142DC
....................             Segundos=OFF; 
14240:  MOVLB  0
14242:  BCF    xA2.1
....................             Minutos=OFF;             
14244:  BCF    xA2.0
....................             printf("page CicloPersona"); 
14246:  MOVLW  C0
14248:  MOVWF  FF6
1424A:  MOVLW  12
1424C:  MOVWF  FF7
1424E:  MOVLW  00
14250:  MOVWF  FF8
14252:  CALL   4538
....................             SendDataDisplay();   
14256:  CALL   456A
....................             if(!GuardaEEPROM){     
1425A:  BTFSC  xA2.2
1425C:  GOTO   142DA
....................                CiclosPersonalizados[CicloLibre-1].PulsosVacio=Pulsos; 
14260:  MOVLW  01
14262:  MOVLB  3
14264:  SUBWF  x2D,W
14266:  MULLW  0A
14268:  MOVF   FF3,W
1426A:  MOVLB  7
1426C:  CLRF   x09
1426E:  MOVWF  x08
14270:  MOVLW  06
14272:  ADDWF  x08,W
14274:  MOVWF  01
14276:  MOVLW  00
14278:  ADDWFC x09,W
1427A:  MOVWF  03
1427C:  MOVF   01,W
1427E:  ADDLW  E0
14280:  MOVWF  FE9
14282:  MOVLW  06
14284:  ADDWFC 03,W
14286:  MOVWF  FEA
14288:  MOVFF  331,FEF
....................                write_eeprom(105+((CicloLibre-1)*8),Pulsos); 
1428C:  MOVLW  01
1428E:  MOVLB  3
14290:  SUBWF  x2D,W
14292:  MULLW  08
14294:  MOVF   FF3,W
14296:  ADDLW  69
14298:  MOVLB  7
1429A:  MOVWF  x08
1429C:  CLRF   FAA
1429E:  MOVFF  708,FA9
142A2:  MOVFF  331,FA8
142A6:  BCF    FA6.6
142A8:  BCF    FA6.7
142AA:  BSF    FA6.2
142AC:  MOVF   FF2,W
142AE:  MOVWF  00
142B0:  BCF    FF2.6
142B2:  BCF    FF2.7
142B4:  MOVLB  F
142B6:  MOVLW  55
142B8:  MOVWF  FA7
142BA:  MOVLW  AA
142BC:  MOVWF  FA7
142BE:  BSF    FA6.1
142C0:  BTFSC  FA6.1
142C2:  GOTO   142C0
142C6:  BCF    FA6.2
142C8:  MOVF   00,W
142CA:  IORWF  FF2,F
....................                delay_ms(20);                            
142CC:  MOVLW  14
142CE:  MOVLB  7
142D0:  MOVWF  x1E
142D2:  MOVLB  0
142D4:  CALL   2060
....................                GuardaEEPROM=ON; 
142D8:  BSF    xA2.2
142DA:  MOVLB  3
....................             } 
....................          } 
....................           
....................          if(RX_Buffer[4]==0x0d){//Tecla Arriba Oprimida 
142DC:  MOVF   34,W
142DE:  SUBLW  0D
142E0:  BTFSS  FD8.2
142E2:  GOTO   142EC
....................             Pulsos++; 
142E6:  INCF   x31,F
....................             RX_Buffer[4]=0x00;             
142E8:  CLRF   34
....................             RX_Buffer2[4]=0x00;             
142EA:  CLRF   3F
....................          } 
....................           
....................          if(RX_Buffer[4]==0x0c){//Tecla Abajo Oprimida 
142EC:  MOVF   34,W
142EE:  SUBLW  0C
142F0:  BTFSS  FD8.2
142F2:  GOTO   142FC
....................             Pulsos--; 
142F6:  DECF   x31,F
....................             RX_Buffer[4]=0x00; 
142F8:  CLRF   34
....................             RX_Buffer2[4]=0x00;                         
142FA:  CLRF   3F
....................          } 
....................           
....................       printf("tpulsos.txt=\"%u\"",Pulsos); 
142FC:  MOVLW  D2
142FE:  MOVWF  FF6
14300:  MOVLW  12
14302:  MOVWF  FF7
14304:  MOVLW  00
14306:  MOVWF  FF8
14308:  MOVLW  0D
1430A:  MOVLB  7
1430C:  MOVWF  x0D
1430E:  MOVLB  0
14310:  CALL   5D0E
14314:  MOVFF  331,70D
14318:  MOVLW  1B
1431A:  MOVLB  7
1431C:  MOVWF  x0E
1431E:  MOVLB  0
14320:  CALL   632A
14324:  MOVLW  22
14326:  BTFSS  F9E.4
14328:  GOTO   14326
1432C:  MOVWF  FAD
....................       SendDataDisplay(); 
1432E:  CALL   456A
14332:  MOVLB  3
....................    } 
.................... //_--------------------------------------------------------------------------------------------------------------------------------------------------------       
....................  
.................... //_--------------------------------------------------------------------------------------------------------------------------------------------------------       
....................    if(Menu==12){//Menu de Visualizacion de Ciclos Realizados 
14334:  MOVF   x47,W
14336:  SUBLW  0C
14338:  BTFSS  FD8.2
1433A:  GOTO   148A2
....................       //printf("fecha.txt=\"Fecha:%02u/%02u/20%02u    Hora: %02u:%02u\"",Dia,Mes,Year,Hora,Minuto); 
....................       //SendDataDisplay(); 
....................       SSR2_off; 
1433E:  BCF    F8D.2
14340:  BCF    F96.2
....................       GuardaEEPROM=OFF; 
14342:  MOVLB  0
14344:  BCF    xA2.2
....................       Buzzer_off; 
14346:  BCF    F8C.7
14348:  BCF    F95.7
....................       /*  
....................       i2c_start();            // Comienzo de la comunicacin 
....................       i2c_write(0xA0);   // Direccin del esclavo en el bus I2C 
....................       i2c_write(9);    // Posicin de donde se leer el dato en el esclavo 
....................       i2c_write(0);    // Posicin de donde se leer el dato en el esclavo 
....................       i2c_start();            // Reinicio 
....................       i2c_write(direccion+1); // Direccin del esclavo en modo lectura 
....................       dato=i2c_read(0);       // Lectura del dato 
....................       i2c_stop(); 
....................       */       
....................       printf("estado.txt=\"----\""); 
1434A:  MOVLW  E4
1434C:  MOVWF  FF6
1434E:  MOVLW  12
14350:  MOVWF  FF7
14352:  MOVLW  00
14354:  MOVWF  FF8
14356:  CALL   4538
....................       SendDataDisplay();    
1435A:  CALL   456A
....................        
....................       if(RX_Buffer[6]==0x01){//01, Ciclos 
1435E:  DECFSZ 36,W
14360:  GOTO   14378
....................          printf("page MenuPrincipal"); 
14364:  MOVLW  F6
14366:  MOVWF  FF6
14368:  MOVLW  12
1436A:  MOVWF  FF7
1436C:  MOVLW  00
1436E:  MOVWF  FF8
14370:  CALL   4538
....................          SendDataDisplay();      
14374:  CALL   456A
....................       } 
....................        
....................       if(RX_Buffer[6]==0x02){//02, Izquierda 
14378:  MOVF   36,W
1437A:  SUBLW  02
1437C:  BTFSS  FD8.2
1437E:  GOTO   143C2
....................          RX_Buffer[6]=0x00;   
14382:  CLRF   36
....................          RX_Buffer2[6]=0x00; 
14384:  CLRF   41
....................          if(cicloVisto>0) 
14386:  MOVLB  3
14388:  MOVF   x54,F
1438A:  BTFSC  FD8.2
1438C:  GOTO   14392
....................             cicloVisto--; 
14390:  DECF   x54,F
....................          printf("h0.val=%u",cicloVisto); 
14392:  MOVLW  0A
14394:  MOVWF  FF6
14396:  MOVLW  13
14398:  MOVWF  FF7
1439A:  MOVLW  00
1439C:  MOVWF  FF8
1439E:  MOVLW  07
143A0:  MOVLB  7
143A2:  MOVWF  x0D
143A4:  MOVLB  0
143A6:  CALL   5D0E
143AA:  MOVFF  354,70D
143AE:  MOVLW  1B
143B0:  MOVLB  7
143B2:  MOVWF  x0E
143B4:  MOVLB  0
143B6:  CALL   632A
....................          SendDataDisplay();      
143BA:  CALL   456A
....................          actualizaTabla(); 
143BE:  CALL   71B4
....................       } 
....................        
....................       if(RX_Buffer[6]==0x03){//03, Arriba 
143C2:  MOVF   36,W
143C4:  SUBLW  03
143C6:  BTFSS  FD8.2
143C8:  GOTO   1440E
....................          RX_Buffer[6]=0x00;   
143CC:  CLRF   36
....................          RX_Buffer2[6]=0x00; 
143CE:  CLRF   41
....................          if(cicloVisualizado<28) 
143D0:  MOVLB  3
143D2:  MOVF   x55,W
143D4:  SUBLW  1B
143D6:  BTFSS  FD8.0
143D8:  GOTO   143DE
....................             cicloVisualizado++; 
143DC:  INCF   x55,F
....................          printf("h1.val=%u",cicloVisualizado); 
143DE:  MOVLW  14
143E0:  MOVWF  FF6
143E2:  MOVLW  13
143E4:  MOVWF  FF7
143E6:  MOVLW  00
143E8:  MOVWF  FF8
143EA:  MOVLW  07
143EC:  MOVLB  7
143EE:  MOVWF  x0D
143F0:  MOVLB  0
143F2:  CALL   5D0E
143F6:  MOVFF  355,70D
143FA:  MOVLW  1B
143FC:  MOVLB  7
143FE:  MOVWF  x0E
14400:  MOVLB  0
14402:  CALL   632A
....................          SendDataDisplay();     
14406:  CALL   456A
....................          actualizaTabla(); 
1440A:  CALL   71B4
....................          //exportarData(); 
....................       } 
....................        
....................       if(RX_Buffer[6]==0x04){//04, Abajo 
1440E:  MOVF   36,W
14410:  SUBLW  04
14412:  BTFSS  FD8.2
14414:  GOTO   14458
....................          RX_Buffer[6]=0x00;   
14418:  CLRF   36
....................          RX_Buffer2[6]=0x00; 
1441A:  CLRF   41
....................          if(cicloVisualizado>0) 
1441C:  MOVLB  3
1441E:  MOVF   x55,F
14420:  BTFSC  FD8.2
14422:  GOTO   14428
....................             cicloVisualizado--; 
14426:  DECF   x55,F
....................          printf("h1.val=%u",cicloVisualizado); 
14428:  MOVLW  1E
1442A:  MOVWF  FF6
1442C:  MOVLW  13
1442E:  MOVWF  FF7
14430:  MOVLW  00
14432:  MOVWF  FF8
14434:  MOVLW  07
14436:  MOVLB  7
14438:  MOVWF  x0D
1443A:  MOVLB  0
1443C:  CALL   5D0E
14440:  MOVFF  355,70D
14444:  MOVLW  1B
14446:  MOVLB  7
14448:  MOVWF  x0E
1444A:  MOVLB  0
1444C:  CALL   632A
....................          SendDataDisplay();   
14450:  CALL   456A
....................          actualizaTabla(); 
14454:  CALL   71B4
....................          //exportarData(); 
....................       } 
....................        
....................       if(RX_Buffer[6]==0x05){//05, Derecha 
14458:  MOVF   36,W
1445A:  SUBLW  05
1445C:  BTFSS  FD8.2
1445E:  GOTO   144A4
....................          RX_Buffer[6]=0x00;   
14462:  CLRF   36
....................          RX_Buffer2[6]=0x00; 
14464:  CLRF   41
....................          if(cicloVisto<200) 
14466:  MOVLB  3
14468:  MOVF   x54,W
1446A:  SUBLW  C7
1446C:  BTFSS  FD8.0
1446E:  GOTO   14474
....................             cicloVisto++; 
14472:  INCF   x54,F
....................          printf("h0.val=%u",cicloVisto); 
14474:  MOVLW  28
14476:  MOVWF  FF6
14478:  MOVLW  13
1447A:  MOVWF  FF7
1447C:  MOVLW  00
1447E:  MOVWF  FF8
14480:  MOVLW  07
14482:  MOVLB  7
14484:  MOVWF  x0D
14486:  MOVLB  0
14488:  CALL   5D0E
1448C:  MOVFF  354,70D
14490:  MOVLW  1B
14492:  MOVLB  7
14494:  MOVWF  x0E
14496:  MOVLB  0
14498:  CALL   632A
....................          SendDataDisplay();   
1449C:  CALL   456A
....................          actualizaTabla(); 
144A0:  CALL   71B4
....................          //exportarData(); 
....................       } 
....................        
....................       if(RX_Buffer[6]==0x06){//06, Imprime 
144A4:  MOVF   36,W
144A6:  SUBLW  06
144A8:  BTFSS  FD8.2
144AA:  GOTO   144CA
....................          RX_Buffer[6]=0x00;   
144AE:  CLRF   36
....................          RX_Buffer2[6]=0x00; 
144B0:  CLRF   41
....................          printf("t0.txt=\"!IMPRIMIENDO!\""); 
144B2:  MOVLW  32
144B4:  MOVWF  FF6
144B6:  MOVLW  13
144B8:  MOVWF  FF7
144BA:  MOVLW  00
144BC:  MOVWF  FF8
144BE:  CALL   4538
....................          SendDataDisplay();  
144C2:  CALL   456A
....................          exportarData(); 
144C6:  GOTO   7856
....................       } 
....................        
....................       if(RX_Buffer[4]>0x00 || RX_Buffer[5]>0x00){ 
144CA:  MOVF   34,F
144CC:  BTFSS  FD8.2
144CE:  GOTO   144DA
144D2:  MOVF   35,F
144D4:  BTFSC  FD8.2
144D6:  GOTO   144F6
....................          cicloVisualizado=RX_Buffer[4]-1; 
144DA:  MOVLW  01
144DC:  SUBWF  34,W
144DE:  MOVLB  3
144E0:  MOVWF  x55
....................          cicloVisto=RX_Buffer[5]-1; 
144E2:  MOVLW  01
144E4:  SUBWF  35,W
144E6:  MOVWF  x54
....................          RX_Buffer[4]=0x00; 
144E8:  CLRF   34
....................          RX_Buffer[5]=0x00; 
144EA:  CLRF   35
....................          RX_Buffer2[4]=0x00; 
144EC:  CLRF   3F
....................          RX_Buffer2[5]=0x00; 
144EE:  CLRF   40
....................          actualizaTabla(); 
144F0:  MOVLB  0
144F2:  CALL   71B4
....................       } 
....................        
....................       //Imprime Valores Estaticos 
....................       printf("fecha.txt=\"%02u/%02u/%02u\"",diaCiclos,mesCiclos,yearCiclos); 
144F6:  MOVLW  4A
144F8:  MOVWF  FF6
144FA:  MOVLW  13
144FC:  MOVWF  FF7
144FE:  MOVLW  00
14500:  MOVWF  FF8
14502:  MOVLW  0B
14504:  MOVLB  7
14506:  MOVWF  x0D
14508:  MOVLB  0
1450A:  CALL   5D0E
1450E:  MOVFF  403,70D
14512:  MOVLW  01
14514:  MOVLB  7
14516:  MOVWF  x0E
14518:  MOVLB  0
1451A:  CALL   632A
1451E:  MOVLW  2F
14520:  BTFSS  F9E.4
14522:  GOTO   14520
14526:  MOVWF  FAD
14528:  MOVFF  404,70D
1452C:  MOVLW  01
1452E:  MOVLB  7
14530:  MOVWF  x0E
14532:  MOVLB  0
14534:  CALL   632A
14538:  MOVLW  2F
1453A:  BTFSS  F9E.4
1453C:  GOTO   1453A
14540:  MOVWF  FAD
14542:  MOVFF  405,70D
14546:  MOVLW  01
14548:  MOVLB  7
1454A:  MOVWF  x0E
1454C:  MOVLB  0
1454E:  CALL   632A
14552:  MOVLW  22
14554:  BTFSS  F9E.4
14556:  GOTO   14554
1455A:  MOVWF  FAD
....................       SendDataDisplay(); 
1455C:  CALL   456A
....................        
....................       printf("ciclo.txt=\"%02u\"",cicloCiclos); 
14560:  MOVLW  66
14562:  MOVWF  FF6
14564:  MOVLW  13
14566:  MOVWF  FF7
14568:  MOVLW  00
1456A:  MOVWF  FF8
1456C:  MOVLW  0B
1456E:  MOVLB  7
14570:  MOVWF  x0D
14572:  MOVLB  0
14574:  CALL   5D0E
14578:  MOVFF  407,70D
1457C:  MOVLW  01
1457E:  MOVLB  7
14580:  MOVWF  x0E
14582:  MOVLB  0
14584:  CALL   632A
14588:  MOVLW  22
1458A:  BTFSS  F9E.4
1458C:  GOTO   1458A
14590:  MOVWF  FAD
....................       SendDataDisplay(); 
14592:  CALL   456A
....................        
....................       printf("t0.txt=\"Ciclo %02u\"",cicloVisto); 
14596:  MOVLW  78
14598:  MOVWF  FF6
1459A:  MOVLW  13
1459C:  MOVWF  FF7
1459E:  MOVLW  00
145A0:  MOVWF  FF8
145A2:  MOVLW  0E
145A4:  MOVLB  7
145A6:  MOVWF  x0D
145A8:  MOVLB  0
145AA:  CALL   5D0E
145AE:  MOVFF  354,70D
145B2:  MOVLW  01
145B4:  MOVLB  7
145B6:  MOVWF  x0E
145B8:  MOVLB  0
145BA:  CALL   632A
145BE:  MOVLW  22
145C0:  BTFSS  F9E.4
145C2:  GOTO   145C0
145C6:  MOVWF  FAD
....................       SendDataDisplay(); 
145C8:  CALL   456A
....................        
....................       printf("usuario.txt=\"---\""); 
145CC:  MOVLW  8C
145CE:  MOVWF  FF6
145D0:  MOVLW  13
145D2:  MOVWF  FF7
145D4:  MOVLW  00
145D6:  MOVWF  FF8
145D8:  CALL   4538
....................       SendDataDisplay(); 
145DC:  CALL   456A
....................        
....................       //Imprime Valores Dinamicos 
....................       for(i=0;i<7;i++){ 
145E0:  MOVLB  3
145E2:  CLRF   x4A
145E4:  MOVF   x4A,W
145E6:  SUBLW  06
145E8:  BTFSS  FD8.0
145EA:  GOTO   148A2
....................          printf("hora%u.txt=\"%02u.  %02u:%02u\"",i+1,cicloVisualizado+i+1,horaCiclos[i],minutoCiclos[i]); 
145EE:  MOVLW  01
145F0:  ADDWF  x4A,W
145F2:  MOVLB  7
145F4:  MOVWF  x08
145F6:  MOVLB  3
145F8:  MOVF   x4A,W
145FA:  ADDWF  x55,W
145FC:  ADDLW  01
145FE:  MOVLB  7
14600:  MOVWF  x09
14602:  CLRF   03
14604:  MOVLB  3
14606:  MOVF   x4A,W
14608:  ADDLW  EE
1460A:  MOVWF  FE9
1460C:  MOVLW  03
1460E:  ADDWFC 03,W
14610:  MOVWF  FEA
14612:  MOVFF  FEF,70A
14616:  CLRF   03
14618:  MOVF   x4A,W
1461A:  ADDLW  F5
1461C:  MOVWF  FE9
1461E:  MOVLW  03
14620:  ADDWFC 03,W
14622:  MOVWF  FEA
14624:  MOVFF  FEF,70B
14628:  MOVLW  9E
1462A:  MOVWF  FF6
1462C:  MOVLW  13
1462E:  MOVWF  FF7
14630:  MOVLW  00
14632:  MOVWF  FF8
14634:  MOVLW  04
14636:  MOVLB  7
14638:  MOVWF  x0D
1463A:  MOVLB  0
1463C:  CALL   5D0E
14640:  MOVFF  708,70D
14644:  MOVLW  1B
14646:  MOVLB  7
14648:  MOVWF  x0E
1464A:  MOVLB  0
1464C:  CALL   632A
14650:  MOVLW  A4
14652:  MOVWF  FF6
14654:  MOVLW  13
14656:  MOVWF  FF7
14658:  MOVLW  00
1465A:  MOVWF  FF8
1465C:  MOVLW  06
1465E:  MOVLB  7
14660:  MOVWF  x0D
14662:  MOVLB  0
14664:  CALL   5D0E
14668:  MOVFF  709,70D
1466C:  MOVLW  01
1466E:  MOVLB  7
14670:  MOVWF  x0E
14672:  MOVLB  0
14674:  CALL   632A
14678:  MOVLW  2E
1467A:  BTFSS  F9E.4
1467C:  GOTO   1467A
14680:  MOVWF  FAD
14682:  MOVLW  20
14684:  BTFSS  F9E.4
14686:  GOTO   14684
1468A:  MOVWF  FAD
1468C:  MOVLW  20
1468E:  BTFSS  F9E.4
14690:  GOTO   1468E
14694:  MOVWF  FAD
14696:  MOVFF  70A,70D
1469A:  MOVLW  01
1469C:  MOVLB  7
1469E:  MOVWF  x0E
146A0:  MOVLB  0
146A2:  CALL   632A
146A6:  MOVLW  3A
146A8:  BTFSS  F9E.4
146AA:  GOTO   146A8
146AE:  MOVWF  FAD
146B0:  MOVFF  70B,70D
146B4:  MOVLW  01
146B6:  MOVLB  7
146B8:  MOVWF  x0E
146BA:  MOVLB  0
146BC:  CALL   632A
146C0:  MOVLW  22
146C2:  BTFSS  F9E.4
146C4:  GOTO   146C2
146C8:  MOVWF  FAD
....................          SendDataDisplay(); 
146CA:  CALL   456A
....................          printf("T%u.txt=\"%3.1fC\"",i+1,TCiclos[i]); 
146CE:  MOVLW  01
146D0:  MOVLB  3
146D2:  ADDWF  x4A,W
146D4:  MOVLB  7
146D6:  MOVWF  x08
146D8:  MOVLB  3
146DA:  MOVF   x4A,W
146DC:  MULLW  04
146DE:  MOVF   FF3,W
146E0:  CLRF   03
146E2:  ADDLW  B6
146E4:  MOVWF  FE9
146E6:  MOVLW  03
146E8:  ADDWFC 03,W
146EA:  MOVWF  FEA
146EC:  MOVFF  FEF,709
146F0:  MOVFF  FEC,70A
146F4:  MOVFF  FEC,70B
146F8:  MOVFF  FEC,70C
146FC:  MOVLW  54
146FE:  BTFSS  F9E.4
14700:  GOTO   146FE
14704:  MOVWF  FAD
14706:  MOVFF  708,70D
1470A:  MOVLW  1B
1470C:  MOVLB  7
1470E:  MOVWF  x0E
14710:  MOVLB  0
14712:  CALL   632A
14716:  MOVLW  BF
14718:  MOVWF  FF6
1471A:  MOVLW  13
1471C:  MOVWF  FF7
1471E:  MOVLW  00
14720:  MOVWF  FF8
14722:  MOVLW  06
14724:  MOVLB  7
14726:  MOVWF  x0D
14728:  MOVLB  0
1472A:  CALL   5D0E
1472E:  MOVLW  02
14730:  MOVWF  FE9
14732:  MOVFF  70C,710
14736:  MOVFF  70B,70F
1473A:  MOVFF  70A,70E
1473E:  MOVFF  709,70D
14742:  MOVLW  01
14744:  MOVLB  7
14746:  MOVWF  x11
14748:  MOVLB  0
1474A:  CALL   5EE6
1474E:  MOVLW  B0
14750:  BTFSS  F9E.4
14752:  GOTO   14750
14756:  MOVWF  FAD
14758:  MOVLW  43
1475A:  BTFSS  F9E.4
1475C:  GOTO   1475A
14760:  MOVWF  FAD
14762:  MOVLW  22
14764:  BTFSS  F9E.4
14766:  GOTO   14764
1476A:  MOVWF  FAD
....................          SendDataDisplay(); 
1476C:  CALL   456A
....................          printf("Pc%u.txt=\"%03LukPa\"",i+1,PcCiclos[i]); 
14770:  MOVLW  01
14772:  MOVLB  3
14774:  ADDWF  x4A,W
14776:  MOVLB  7
14778:  MOVWF  x08
1477A:  BCF    FD8.0
1477C:  MOVLB  3
1477E:  RLCF   x4A,W
14780:  CLRF   03
14782:  ADDLW  D2
14784:  MOVWF  FE9
14786:  MOVLW  03
14788:  ADDWFC 03,W
1478A:  MOVWF  FEA
1478C:  MOVFF  FEC,70A
14790:  MOVF   FED,F
14792:  MOVFF  FEF,709
14796:  MOVLW  50
14798:  BTFSS  F9E.4
1479A:  GOTO   14798
1479E:  MOVWF  FAD
147A0:  MOVLW  63
147A2:  BTFSS  F9E.4
147A4:  GOTO   147A2
147A8:  MOVWF  FAD
147AA:  MOVFF  708,70D
147AE:  MOVLW  1B
147B0:  MOVLB  7
147B2:  MOVWF  x0E
147B4:  MOVLB  0
147B6:  CALL   632A
147BA:  MOVLW  D2
147BC:  MOVWF  FF6
147BE:  MOVLW  13
147C0:  MOVWF  FF7
147C2:  MOVLW  00
147C4:  MOVWF  FF8
147C6:  MOVLW  06
147C8:  MOVLB  7
147CA:  MOVWF  x0D
147CC:  MOVLB  0
147CE:  CALL   5D0E
147D2:  MOVLW  0A
147D4:  MOVWF  FE9
147D6:  MOVFF  70A,70D
147DA:  MOVFF  709,70C
147DE:  CALL   63A8
147E2:  MOVLW  DD
147E4:  MOVWF  FF6
147E6:  MOVLW  13
147E8:  MOVWF  FF7
147EA:  MOVLW  00
147EC:  MOVWF  FF8
147EE:  MOVLW  04
147F0:  MOVLB  7
147F2:  MOVWF  x0D
147F4:  MOVLB  0
147F6:  CALL   5D0E
....................          SendDataDisplay(); 
147FA:  CALL   456A
....................          printf("Ppc%u.txt=\"%03LukPa\"",i+1,PpcCiclos[i]); 
147FE:  MOVLW  01
14800:  MOVLB  3
14802:  ADDWF  x4A,W
14804:  MOVLB  7
14806:  MOVWF  x08
14808:  BCF    FD8.0
1480A:  MOVLB  3
1480C:  RLCF   x4A,W
1480E:  CLRF   03
14810:  ADDLW  E0
14812:  MOVWF  FE9
14814:  MOVLW  03
14816:  ADDWFC 03,W
14818:  MOVWF  FEA
1481A:  MOVFF  FEC,70A
1481E:  MOVF   FED,F
14820:  MOVFF  FEF,709
14824:  MOVLW  50
14826:  BTFSS  F9E.4
14828:  GOTO   14826
1482C:  MOVWF  FAD
1482E:  MOVLW  70
14830:  BTFSS  F9E.4
14832:  GOTO   14830
14836:  MOVWF  FAD
14838:  MOVLW  63
1483A:  BTFSS  F9E.4
1483C:  GOTO   1483A
14840:  MOVWF  FAD
14842:  MOVFF  708,70D
14846:  MOVLW  1B
14848:  MOVLB  7
1484A:  MOVWF  x0E
1484C:  MOVLB  0
1484E:  CALL   632A
14852:  MOVLW  E7
14854:  MOVWF  FF6
14856:  MOVLW  13
14858:  MOVWF  FF7
1485A:  MOVLW  00
1485C:  MOVWF  FF8
1485E:  MOVLW  06
14860:  MOVLB  7
14862:  MOVWF  x0D
14864:  MOVLB  0
14866:  CALL   5D0E
1486A:  MOVLW  0A
1486C:  MOVWF  FE9
1486E:  MOVFF  70A,70D
14872:  MOVFF  709,70C
14876:  CALL   63A8
1487A:  MOVLW  F2
1487C:  MOVWF  FF6
1487E:  MOVLW  13
14880:  MOVWF  FF7
14882:  MOVLW  00
14884:  MOVWF  FF8
14886:  MOVLW  04
14888:  MOVLB  7
1488A:  MOVWF  x0D
1488C:  MOVLB  0
1488E:  CALL   5D0E
....................          SendDataDisplay();          
14892:  CALL   456A
....................          codificaAlarma(); 
14896:  GOTO   7BFA
....................       }   
1489A:  MOVLB  3
1489C:  INCF   x4A,F
1489E:  GOTO   145E4
....................    } 
.................... //_--------------------------------------------------------------------------------------------------------------------------------------------------------       
....................  
.................... //_--------------------------------------------------------------------------------------------------------------------------------------------------------       
....................     if(Menu==15){//Menu de Clave Correcta 
148A2:  MOVF   x47,W
148A4:  SUBLW  0F
148A6:  BTFSS  FD8.2
148A8:  GOTO   148E8
....................       if(!entro){ 
148AC:  MOVLB  0
148AE:  BTFSC  xA5.4
148B0:  GOTO   148CE
....................          delay_ms(2000); 
148B4:  MOVLW  08
148B6:  MOVLB  7
148B8:  MOVWF  x08
148BA:  MOVLW  FA
148BC:  MOVWF  x1E
148BE:  MOVLB  0
148C0:  CALL   2060
148C4:  MOVLB  7
148C6:  DECFSZ x08,F
148C8:  BRA    148BA
....................          entro=ON; 
148CA:  MOVLB  0
148CC:  BSF    xA5.4
....................       } 
....................       printf("page MenuPrincipal"); 
148CE:  MOVLW  F8
148D0:  MOVWF  FF6
148D2:  MOVLW  13
148D4:  MOVWF  FF7
148D6:  MOVLW  00
148D8:  MOVWF  FF8
148DA:  CALL   4538
....................       SendDataDisplay();       
148DE:  CALL   456A
....................       SSR2_off; 
148E2:  BCF    F8D.2
148E4:  BCF    F96.2
148E6:  MOVLB  3
....................    } 
.................... //_--------------------------------------------------------------------------------------------------------------------------------------------------------       
....................  
.................... //_--------------------------------------------------------------------------------------------------------------------------------------------------------       
....................     if(Menu==16){//Menu de Clave InCorrecta 
148E8:  MOVF   x47,W
148EA:  SUBLW  10
148EC:  BTFSS  FD8.2
148EE:  GOTO   1492E
....................       if(!entro){ 
148F2:  MOVLB  0
148F4:  BTFSC  xA5.4
148F6:  GOTO   14914
....................          delay_ms(2000); 
148FA:  MOVLW  08
148FC:  MOVLB  7
148FE:  MOVWF  x08
14900:  MOVLW  FA
14902:  MOVWF  x1E
14904:  MOVLB  0
14906:  CALL   2060
1490A:  MOVLB  7
1490C:  DECFSZ x08,F
1490E:  BRA    14900
....................          entro=ON; 
14910:  MOVLB  0
14912:  BSF    xA5.4
....................       } 
....................       printf("page Clave"); 
14914:  MOVLW  0C
14916:  MOVWF  FF6
14918:  MOVLW  14
1491A:  MOVWF  FF7
1491C:  MOVLW  00
1491E:  MOVWF  FF8
14920:  CALL   4538
....................       SendDataDisplay(); 
14924:  CALL   456A
....................       SSR2_off; 
14928:  BCF    F8D.2
1492A:  BCF    F96.2
1492C:  MOVLB  3
....................    } 
.................... //_--------------------------------------------------------------------------------------------------------------------------------------------------------       
....................  
.................... //_--------------------------------------------------------------------------------------------------------------------------------------------------------     
....................    if(Menu==20){ // Este es el menu de cuando el proceso se inicio. 
1492E:  MOVF   x47,W
14930:  SUBLW  14
14932:  BTFSS  FD8.2
14934:  GOTO   1667A
....................    GuardaDatoEstatico(); 
14938:  MOVLB  0
1493A:  GOTO   81C0
....................    guardaCiclo=ON; 
1493E:  BSF    xA3.6
....................    if(!Libre){ 
14940:  BTFSC  xA3.2
14942:  GOTO   149D0
....................       printf("t2f.txt=\"%u\"",CicloSeleccionado); 
14946:  MOVLW  18
14948:  MOVWF  FF6
1494A:  MOVLW  14
1494C:  MOVWF  FF7
1494E:  MOVLW  00
14950:  MOVWF  FF8
14952:  MOVLW  09
14954:  MOVLB  7
14956:  MOVWF  x0D
14958:  MOVLB  0
1495A:  CALL   5D0E
1495E:  MOVFF  34D,70D
14962:  MOVLW  1B
14964:  MOVLB  7
14966:  MOVWF  x0E
14968:  MOVLB  0
1496A:  CALL   632A
1496E:  MOVLW  22
14970:  BTFSS  F9E.4
14972:  GOTO   14970
14976:  MOVWF  FAD
....................       SendDataDisplay(); 
14978:  CALL   456A
....................       printf("t3f.txt=\"%s\"",Texto[CicloSeleccionado-1]); 
1497C:  MOVLW  01
1497E:  MOVLB  3
14980:  SUBWF  x4D,W
14982:  MULLW  14
14984:  MOVF   FF3,W
14986:  CLRF   03
14988:  MOVLB  7
1498A:  MOVWF  x08
1498C:  MOVLW  26
1498E:  MOVWF  FF6
14990:  MOVLW  14
14992:  MOVWF  FF7
14994:  MOVLW  00
14996:  MOVWF  FF8
14998:  MOVLW  09
1499A:  MOVWF  x0D
1499C:  MOVLB  0
1499E:  CALL   5D0E
149A2:  MOVLW  50
149A4:  MOVWF  FF6
149A6:  MOVLW  01
149A8:  MOVWF  FF7
149AA:  MOVLW  00
149AC:  MOVWF  FF8
149AE:  MOVLB  7
149B0:  MOVF   x08,W
149B2:  ADDWF  FF6,F
149B4:  MOVLW  00
149B6:  ADDWFC FF7,F
149B8:  MOVLB  0
149BA:  CALL   4538
149BE:  MOVLW  22
149C0:  BTFSS  F9E.4
149C2:  GOTO   149C0
149C6:  MOVWF  FAD
....................       SendDataDisplay(); 
149C8:  CALL   456A
....................    }else{ 
149CC:  GOTO   14A22
....................       printf("t2f.txt=\"%u\"",CicloLibre+6); 
149D0:  MOVLW  06
149D2:  MOVLB  3
149D4:  ADDWF  x2D,W
149D6:  MOVLB  7
149D8:  MOVWF  x08
149DA:  MOVLW  34
149DC:  MOVWF  FF6
149DE:  MOVLW  14
149E0:  MOVWF  FF7
149E2:  MOVLW  00
149E4:  MOVWF  FF8
149E6:  MOVLW  09
149E8:  MOVWF  x0D
149EA:  MOVLB  0
149EC:  CALL   5D0E
149F0:  MOVFF  708,70D
149F4:  MOVLW  1B
149F6:  MOVLB  7
149F8:  MOVWF  x0E
149FA:  MOVLB  0
149FC:  CALL   632A
14A00:  MOVLW  22
14A02:  BTFSS  F9E.4
14A04:  GOTO   14A02
14A08:  MOVWF  FAD
....................       SendDataDisplay(); 
14A0A:  CALL   456A
....................       printf("t3f.txt=\"Personalizado\""); 
14A0E:  MOVLW  42
14A10:  MOVWF  FF6
14A12:  MOVLW  14
14A14:  MOVWF  FF7
14A16:  MOVLW  00
14A18:  MOVWF  FF8
14A1A:  CALL   4538
....................       SendDataDisplay(); 
14A1E:  CALL   456A
....................    } 
....................        
....................    if(PresionPreCamara>350 || PresionCamara>350){ 
14A22:  MOVLB  3
14A24:  MOVF   x68,W
14A26:  SUBLW  00
14A28:  BTFSC  FD8.0
14A2A:  GOTO   14A40
14A2E:  XORLW  FF
14A30:  BTFSS  FD8.2
14A32:  GOTO   14A5C
14A36:  MOVF   x67,W
14A38:  SUBLW  5E
14A3A:  BTFSS  FD8.0
14A3C:  GOTO   14A5C
14A40:  MOVF   x66,W
14A42:  SUBLW  00
14A44:  BTFSC  FD8.0
14A46:  GOTO   14AAE
14A4A:  XORLW  FF
14A4C:  BTFSS  FD8.2
14A4E:  GOTO   14A5C
14A52:  MOVF   x65,W
14A54:  SUBLW  5E
14A56:  BTFSC  FD8.0
14A58:  GOTO   14AAE
....................       conteoPresion++; 
14A5C:  MOVLB  0
14A5E:  INCF   xC3,F
....................       if(PresionPreCamara>350 || PresionCamara>350){ 
14A60:  MOVLB  3
14A62:  MOVF   x68,W
14A64:  SUBLW  00
14A66:  BTFSC  FD8.0
14A68:  GOTO   14A7E
14A6C:  XORLW  FF
14A6E:  BTFSS  FD8.2
14A70:  GOTO   14A9A
14A74:  MOVF   x67,W
14A76:  SUBLW  5E
14A78:  BTFSS  FD8.0
14A7A:  GOTO   14A9A
14A7E:  MOVF   x66,W
14A80:  SUBLW  00
14A82:  BTFSC  FD8.0
14A84:  GOTO   14AAA
14A88:  XORLW  FF
14A8A:  BTFSS  FD8.2
14A8C:  GOTO   14A9A
14A90:  MOVF   x65,W
14A92:  SUBLW  5E
14A94:  BTFSC  FD8.0
14A96:  GOTO   14AAA
....................          if(conteoPresion>=50) 
14A9A:  MOVLB  0
14A9C:  MOVF   xC3,W
14A9E:  SUBLW  31
14AA0:  BTFSC  FD8.0
14AA2:  GOTO   14AA8
....................             AlarmaPresion=ON;   
14AA6:  BSF    xA3.1
14AA8:  MOVLB  3
....................       } 
....................    }else{ 
14AAA:  GOTO   14AB2
....................       conteoPresion=0; 
14AAE:  MOVLB  0
14AB0:  CLRF   xC3
....................    } 
....................     
....................    if(TiempoCiclo>1800 && !Fugas){//ANALIZAR BIEN ESTA ALARMA 
14AB2:  MOVLB  0
14AB4:  MOVF   xA8,W
14AB6:  SUBLW  06
14AB8:  BTFSC  FD8.0
14ABA:  GOTO   14B14
14ABE:  XORLW  FF
14AC0:  BTFSS  FD8.2
14AC2:  GOTO   14AD0
14AC6:  MOVF   xA7,W
14AC8:  SUBLW  08
14ACA:  BTFSC  FD8.0
14ACC:  GOTO   14B14
14AD0:  BTFSC  xA3.4
14AD2:  GOTO   14B14
....................       if(TiempoCiclo>5400){ 
14AD6:  MOVF   xA8,W
14AD8:  SUBLW  14
14ADA:  BTFSC  FD8.0
14ADC:  GOTO   14AF4
14AE0:  XORLW  FF
14AE2:  BTFSS  FD8.2
14AE4:  GOTO   14AF2
14AE8:  MOVF   xA7,W
14AEA:  SUBLW  18
14AEC:  BTFSC  FD8.0
14AEE:  GOTO   14AF4
....................          AlarmaTiempoProlongado=ON; 
14AF2:  BSF    x9F.0
....................       } 
....................       if(PresionPrecamara<10){ 
14AF4:  MOVLB  3
14AF6:  MOVF   x68,F
14AF8:  BTFSS  FD8.2
14AFA:  GOTO   14B0E
14AFE:  MOVF   x67,W
14B00:  SUBLW  09
14B02:  BTFSS  FD8.0
14B04:  GOTO   14B0E
....................          AlarmaTiempoProlongado=ON; 
14B08:  MOVLB  0
14B0A:  BSF    x9F.0
14B0C:  MOVLB  3
....................       } 
....................    }else{ 
14B0E:  GOTO   14B16
14B12:  MOVLB  0
....................       AlarmaTiempoProlongado=OFF; 
14B14:  BCF    x9F.0
....................    } 
....................     
....................    if(Temperatura>Setpoint+4.0 && !Fugas){ 
14B16:  MOVLB  7
14B18:  CLRF   x1B
14B1A:  MOVFF  34E,71A
14B1E:  MOVLB  0
14B20:  CALL   2088
14B24:  BCF    FD8.1
14B26:  MOVFF  03,71D
14B2A:  MOVFF  02,71C
14B2E:  MOVFF  01,71B
14B32:  MOVFF  00,71A
14B36:  MOVLB  7
14B38:  CLRF   x21
14B3A:  CLRF   x20
14B3C:  CLRF   x1F
14B3E:  MOVLW  81
14B40:  MOVWF  x1E
14B42:  MOVLB  0
14B44:  CALL   221C
14B48:  MOVFF  03,711
14B4C:  MOVFF  02,710
14B50:  MOVFF  01,70F
14B54:  MOVFF  00,70E
14B58:  MOVFF  316,715
14B5C:  MOVFF  315,714
14B60:  MOVFF  314,713
14B64:  MOVFF  313,712
14B68:  CALL   2680
14B6C:  BTFSS  FD8.0
14B6E:  GOTO   14B7A
14B72:  BTFSC  xA3.4
14B74:  GOTO   14B7A
....................       AlarmaSobreTemperatura=ON; 
14B78:  BSF    x9F.1
....................    } 
....................     
....................    if(tTermostato>=2000){ 
14B7A:  MOVF   xB6,W
14B7C:  SUBLW  06
14B7E:  BTFSC  FD8.0
14B80:  GOTO   14B98
14B84:  XORLW  FF
14B86:  BTFSS  FD8.2
14B88:  GOTO   14B96
14B8C:  MOVF   xB5,W
14B8E:  SUBLW  CF
14B90:  BTFSC  FD8.0
14B92:  GOTO   14B98
....................       AlarmaTermostato=ON; 
14B96:  BSF    x9F.3
....................    } 
....................     
....................    if(TiempoLlenado>1800){ 
14B98:  MOVF   xAA,W
14B9A:  SUBLW  06
14B9C:  BTFSC  FD8.0
14B9E:  GOTO   14BBA
14BA2:  XORLW  FF
14BA4:  BTFSS  FD8.2
14BA6:  GOTO   14BB4
14BAA:  MOVF   xA9,W
14BAC:  SUBLW  08
14BAE:  BTFSC  FD8.0
14BB0:  GOTO   14BBA
....................       AlarmaLlenado=ON; 
14BB4:  BSF    x9F.2
....................    }else{ 
14BB6:  GOTO   14BBC
....................       AlarmaLlenado=OFF; 
14BBA:  BCF    x9F.2
....................    } 
....................     
....................    if(!DOOR){ 
14BBC:  BSF    F93.6
14BBE:  BTFSS  F81.6
14BC0:  GOTO   14BE0
....................       Paso_off; 
14BC4:  BSF    F8B.0
14BC6:  BCF    F94.0
....................       if(!Secando && !Finalizo && !Desfogando){ 
14BC8:  BTFSC  xA0.4
14BCA:  GOTO   14BDC
14BCE:  BTFSC  xA3.0
14BD0:  GOTO   14BDC
14BD4:  BTFSC  xA0.6
14BD6:  GOTO   14BDC
....................          AlarmaPuerta=ON; 
14BDA:  BSF    x9F.4
....................       } 
....................    }else{ 
14BDC:  GOTO   14BE2
....................       AlarmaPuerta=OFF; 
14BE0:  BCF    x9F.4
....................    } 
....................  
....................    if(tStop>=300){ 
14BE2:  MOVF   xB8,W
14BE4:  SUBLW  00
14BE6:  BTFSC  FD8.0
14BE8:  GOTO   14C00
14BEC:  XORLW  FF
14BEE:  BTFSS  FD8.2
14BF0:  GOTO   14BFE
14BF4:  MOVF   xB7,W
14BF6:  SUBLW  2B
14BF8:  BTFSC  FD8.0
14BFA:  GOTO   14C00
....................       AlarmaEmergencia=ON;          
14BFE:  BSF    x9F.5
....................    } 
....................     
....................    if(AlarmaPuerta || AlarmaTermostato || AlarmaSobreTemperatura || AlarmaTiempoProlongado || AlarmaEmergencia || AlarmaPresion || AlarmaBomba  
....................          || AlarmaVacio || AlarmaLlenado){ 
14C00:  BTFSC  x9F.4
14C02:  GOTO   14C36
14C06:  BTFSC  x9F.3
14C08:  GOTO   14C36
14C0C:  BTFSC  x9F.1
14C0E:  GOTO   14C36
14C12:  BTFSC  x9F.0
14C14:  GOTO   14C36
14C18:  BTFSC  x9F.5
14C1A:  GOTO   14C36
14C1E:  BTFSC  xA3.1
14C20:  GOTO   14C36
14C24:  BTFSC  x9F.6
14C26:  GOTO   14C36
14C2A:  BTFSC  x9F.7
14C2C:  GOTO   14C36
14C30:  BTFSS  x9F.2
14C32:  GOTO   15268
....................       ActivaAlarma(1); 
14C36:  MOVLW  01
14C38:  MOVLB  7
14C3A:  MOVWF  x08
14C3C:  MOVLB  0
14C3E:  CALL   608A
....................       if(AlarmaEmergencia){ 
14C42:  BTFSS  x9F.5
14C44:  GOTO   14D16
....................          codigoAlarma=1; 
14C48:  MOVLW  01
14C4A:  MOVLB  3
14C4C:  MOVWF  x33
....................          printf("Funcionamiento.t4f.txt=\" Parada de Emergencia\""); 
14C4E:  MOVLW  5A
14C50:  MOVWF  FF6
14C52:  MOVLW  14
14C54:  MOVWF  FF7
14C56:  MOVLW  00
14C58:  MOVWF  FF8
14C5A:  MOVLB  0
14C5C:  CALL   4538
....................          SendDataDisplay(); 
14C60:  CALL   456A
....................          printf("Funcionamiento.t5f.txt=\" Cancelado\""); 
14C64:  MOVLW  8A
14C66:  MOVWF  FF6
14C68:  MOVLW  14
14C6A:  MOVWF  FF7
14C6C:  MOVLW  00
14C6E:  MOVWF  FF8
14C70:  CALL   4538
....................          SendDataDisplay(); 
14C74:  CALL   456A
....................          Desfogue_on; 
14C78:  BCF    F8B.1
14C7A:  BCF    F94.1
....................          Paso_off; 
14C7C:  BSF    F8B.0
14C7E:  BCF    F94.0
....................          BombaVacio_off; 
14C80:  BSF    F8B.5
14C82:  BCF    F94.5
....................          Agua_off; 
14C84:  BSF    F8C.3
14C86:  BCF    F95.3
....................          //EV8_off; 
....................          apagaBombaAgua(); 
14C88:  CALL   5C3E
....................          Vacio_off; 
14C8C:  BSF    F8B.2
14C8E:  BCF    F94.2
....................          SSR_off; 
14C90:  BCF    F8D.1
14C92:  BCF    F96.1
....................          SSR2_off; 
14C94:  BCF    F8D.2
14C96:  BCF    F96.2
....................          if(PresionCamara<Atmosferica) 
14C98:  MOVLB  3
14C9A:  MOVF   x66,W
14C9C:  SUBWF  x3B,W
14C9E:  BTFSS  FD8.0
14CA0:  GOTO   14CBC
14CA4:  BTFSS  FD8.2
14CA6:  GOTO   14CB4
14CAA:  MOVF   x3A,W
14CAC:  SUBWF  x65,W
14CAE:  BTFSC  FD8.0
14CB0:  GOTO   14CBC
....................             Aire_on; 
14CB4:  BCF    F8C.0
14CB6:  BCF    F95.0
....................          else 
14CB8:  GOTO   14CC0
....................             Aire_off; 
14CBC:  BSF    F8C.0
14CBE:  BCF    F95.0
....................          AireB_off; 
14CC0:  BSF    F8C.1
14CC2:  BCF    F95.1
....................          Esterilizando=OFF; 
14CC4:  MOVLB  0
14CC6:  BCF    xA0.3
....................          Desfogando=OFF; 
14CC8:  BCF    xA0.6
....................          DesfogueSuave=OFF; 
14CCA:  BCF    xA0.7
....................          IniciaCiclo=OFF; 
14CCC:  BCF    xA0.2
....................          Controlando=0; 
14CCE:  MOVLB  3
14CD0:  CLRF   x3F
....................          if(codigoAnt!=codigoAlarma){ 
14CD2:  MOVF   x33,W
14CD4:  SUBWF  x80,W
14CD6:  BTFSC  FD8.2
14CD8:  GOTO   14CEC
....................             codigoAnt=codigoAlarma; 
14CDC:  MOVFF  333,380
....................             GuardaDatoCiclo(); 
14CE0:  MOVLB  0
14CE2:  CALL   8488
....................             incrementaCiclos(); 
14CE6:  CALL   883E
14CEA:  MOVLB  3
....................          } 
....................          if(!flagImprimir){ 
14CEC:  BTFSC  x3C.5
14CEE:  GOTO   14D10
....................             Imprime=20; 
14CF2:  MOVLW  14
14CF4:  MOVWF  x99
....................             Envio_Esclavos(); 
14CF6:  MOVLB  0
14CF8:  CALL   58A6
....................             delay_ms(100); 
14CFC:  MOVLW  64
14CFE:  MOVLB  7
14D00:  MOVWF  x1E
14D02:  MOVLB  0
14D04:  CALL   2060
....................             Imprime=10; 
14D08:  MOVLW  0A
14D0A:  MOVLB  3
14D0C:  MOVWF  x99
....................             flagImprimir=1; 
14D0E:  BSF    x3C.5
....................          } 
....................       }else if(AlarmaPuerta){ 
14D10:  GOTO   15262
14D14:  MOVLB  0
14D16:  BTFSS  x9F.4
14D18:  GOTO   14D98
....................          codigoAlarma=2; 
14D1C:  MOVLW  02
14D1E:  MOVLB  3
14D20:  MOVWF  x33
....................          printf("Funcionamiento.t4f.txt=\" Puerta Abierta\""); 
14D22:  MOVLW  AE
14D24:  MOVWF  FF6
14D26:  MOVLW  14
14D28:  MOVWF  FF7
14D2A:  MOVLW  00
14D2C:  MOVWF  FF8
14D2E:  MOVLB  0
14D30:  CALL   4538
....................          SendDataDisplay(); 
14D34:  CALL   456A
....................          printf("Funcionamiento.t5f.txt=\" Pausado\""); 
14D38:  MOVLW  D8
14D3A:  MOVWF  FF6
14D3C:  MOVLW  14
14D3E:  MOVWF  FF7
14D40:  MOVLW  00
14D42:  MOVWF  FF8
14D44:  CALL   4538
....................          SendDataDisplay(); 
14D48:  CALL   456A
....................          Aire_off; 
14D4C:  BSF    F8C.0
14D4E:  BCF    F95.0
....................          AireB_off; 
14D50:  BSF    F8C.1
14D52:  BCF    F95.1
....................          Desfogue_off; 
14D54:  BSF    F8B.1
14D56:  BCF    F94.1
....................          Paso_off; 
14D58:  BSF    F8B.0
14D5A:  BCF    F94.0
....................          BombaVacio_off; 
14D5C:  BSF    F8B.5
14D5E:  BCF    F94.5
....................          Agua_off; 
14D60:  BSF    F8C.3
14D62:  BCF    F95.3
....................          apagaBombaAgua(); 
14D64:  CALL   5C3E
....................          //EV8_off; 
....................          Vacio_off; 
14D68:  BSF    F8B.2
14D6A:  BCF    F94.2
....................          SSR_off; 
14D6C:  BCF    F8D.1
14D6E:  BCF    F96.1
....................          SSR2_off; 
14D70:  BCF    F8D.2
14D72:  BCF    F96.2
....................          IniciaLlenado=OFF; 
14D74:  BCF    xA0.0
....................          IniciaCiclo=OFF; 
14D76:  BCF    xA0.2
....................          Controlando=0; 
14D78:  MOVLB  3
14D7A:  CLRF   x3F
....................          if(codigoAnt!=codigoAlarma){ 
14D7C:  MOVF   x33,W
14D7E:  SUBWF  x80,W
14D80:  BTFSC  FD8.2
14D82:  GOTO   14D92
....................             codigoAnt=codigoAlarma; 
14D86:  MOVFF  333,380
....................             GuardaDatoCiclo(); 
14D8A:  MOVLB  0
14D8C:  CALL   8488
14D90:  MOVLB  3
....................          } 
....................          /*if(!flagImprimir && ActivaImpresion==1){ 
....................             Imprime=20; 
....................             Envio_Esclavos(); 
....................             delay_ms(100); 
....................             Imprime=10; 
....................             flagImprimir=1; 
....................          }*/ 
....................       }else if(AlarmaLlenado){ 
14D92:  GOTO   15262
14D96:  MOVLB  0
14D98:  BTFSS  x9F.2
14D9A:  GOTO   14E40
....................          codigoAlarma=9; 
14D9E:  MOVLW  09
14DA0:  MOVLB  3
14DA2:  MOVWF  x33
....................          if(codigoAnt!=codigoAlarma){ 
14DA4:  MOVF   x33,W
14DA6:  SUBWF  x80,W
14DA8:  BTFSC  FD8.2
14DAA:  GOTO   14DBA
....................             codigoAnt=codigoAlarma; 
14DAE:  MOVFF  333,380
....................             GuardaDatoCiclo(); 
14DB2:  MOVLB  0
14DB4:  CALL   8488
14DB8:  MOVLB  3
....................          } 
....................             printf("Funcionamiento.t4f.txt=\" Tiempo Llenado\""); 
14DBA:  MOVLW  FA
14DBC:  MOVWF  FF6
14DBE:  MOVLW  14
14DC0:  MOVWF  FF7
14DC2:  MOVLW  00
14DC4:  MOVWF  FF8
14DC6:  MOVLB  0
14DC8:  CALL   4538
....................             SendDataDisplay(); 
14DCC:  CALL   456A
....................             printf("Funcionamiento.t5f.txt=\" Cancelado\""); 
14DD0:  MOVLW  24
14DD2:  MOVWF  FF6
14DD4:  MOVLW  15
14DD6:  MOVWF  FF7
14DD8:  MOVLW  00
14DDA:  MOVWF  FF8
14DDC:  CALL   4538
....................             SendDataDisplay(); 
14DE0:  CALL   456A
....................             Aire_off; 
14DE4:  BSF    F8C.0
14DE6:  BCF    F95.0
....................             AireB_off; 
14DE8:  BSF    F8C.1
14DEA:  BCF    F95.1
....................             Desfogue_off; 
14DEC:  BSF    F8B.1
14DEE:  BCF    F94.1
....................             Paso_off; 
14DF0:  BSF    F8B.0
14DF2:  BCF    F94.0
....................             BombaVacio_off; 
14DF4:  BSF    F8B.5
14DF6:  BCF    F94.5
....................             Agua_off; 
14DF8:  BSF    F8C.3
14DFA:  BCF    F95.3
....................             //EV8_off; 
....................             apagaBombaAgua(); 
14DFC:  CALL   5C3E
....................             Vacio_off; 
14E00:  BSF    F8B.2
14E02:  BCF    F94.2
....................             SSR_off; 
14E04:  BCF    F8D.1
14E06:  BCF    F96.1
....................             SSR2_off; 
14E08:  BCF    F8D.2
14E0A:  BCF    F96.2
....................             IniciaLlenado=OFF; 
14E0C:  BCF    xA0.0
....................             IniciaCiclo=OFF; 
14E0E:  BCF    xA0.2
....................             Esterilizando=OFF; 
14E10:  BCF    xA0.3
....................             Controlando=0; 
14E12:  MOVLB  3
14E14:  CLRF   x3F
....................             if(!flagImprimir){ 
14E16:  BTFSC  x3C.5
14E18:  GOTO   14E3A
....................                Imprime=21; 
14E1C:  MOVLW  15
14E1E:  MOVWF  x99
....................                Envio_Esclavos(); 
14E20:  MOVLB  0
14E22:  CALL   58A6
....................                delay_ms(100); 
14E26:  MOVLW  64
14E28:  MOVLB  7
14E2A:  MOVWF  x1E
14E2C:  MOVLB  0
14E2E:  CALL   2060
....................                Imprime=10; 
14E32:  MOVLW  0A
14E34:  MOVLB  3
14E36:  MOVWF  x99
....................                flagImprimir=1; 
14E38:  BSF    x3C.5
....................             } 
....................       }else if(AlarmaTermostato){ 
14E3A:  GOTO   15262
14E3E:  MOVLB  0
14E40:  BTFSS  x9F.3
14E42:  GOTO   14EF0
....................          codigoAlarma=3; 
14E46:  MOVLW  03
14E48:  MOVLB  3
14E4A:  MOVWF  x33
....................          tiempo_esterilizacion=0;tiempo_secado=0;          
14E4C:  CLRF   x51
14E4E:  CLRF   x52
....................          printf("Funcionamiento.t4f.txt=\" Termostato\""); 
14E50:  MOVLW  48
14E52:  MOVWF  FF6
14E54:  MOVLW  15
14E56:  MOVWF  FF7
14E58:  MOVLW  00
14E5A:  MOVWF  FF8
14E5C:  MOVLB  0
14E5E:  CALL   4538
....................          SendDataDisplay(); 
14E62:  CALL   456A
....................          printf("Funcionamiento.t5f.txt=\" Cancelado\""); 
14E66:  MOVLW  6E
14E68:  MOVWF  FF6
14E6A:  MOVLW  15
14E6C:  MOVWF  FF7
14E6E:  MOVLW  00
14E70:  MOVWF  FF8
14E72:  CALL   4538
....................          SendDataDisplay(); 
14E76:  CALL   456A
....................          Aire_off; 
14E7A:  BSF    F8C.0
14E7C:  BCF    F95.0
....................          AireB_off; 
14E7E:  BSF    F8C.1
14E80:  BCF    F95.1
....................          Desfogue_on; 
14E82:  BCF    F8B.1
14E84:  BCF    F94.1
....................          Paso_off; 
14E86:  BSF    F8B.0
14E88:  BCF    F94.0
....................          BombaVacio_off; 
14E8A:  BSF    F8B.5
14E8C:  BCF    F94.5
....................          Agua_off; 
14E8E:  BSF    F8C.3
14E90:  BCF    F95.3
....................          //EV8_off; 
....................          apagaBombaAgua(); 
14E92:  CALL   5C3E
....................          Vacio_off; 
14E96:  BSF    F8B.2
14E98:  BCF    F94.2
....................          SSR_off; 
14E9A:  BCF    F8D.1
14E9C:  BCF    F96.1
....................          SSR2_off; 
14E9E:  BCF    F8D.2
14EA0:  BCF    F96.2
....................          Esterilizando=OFF; 
14EA2:  BCF    xA0.3
....................          Desfogando=OFF; 
14EA4:  BCF    xA0.6
....................          IniciaCiclo=OFF; 
14EA6:  BCF    xA0.2
....................          Controlando=0; 
14EA8:  MOVLB  3
14EAA:  CLRF   x3F
....................          if(codigoAnt!=codigoAlarma){ 
14EAC:  MOVF   x33,W
14EAE:  SUBWF  x80,W
14EB0:  BTFSC  FD8.2
14EB2:  GOTO   14EC6
....................             codigoAnt=codigoAlarma; 
14EB6:  MOVFF  333,380
....................             GuardaDatoCiclo(); 
14EBA:  MOVLB  0
14EBC:  CALL   8488
....................             incrementaCiclos(); 
14EC0:  CALL   883E
14EC4:  MOVLB  3
....................          } 
....................          if(!flagImprimir){ 
14EC6:  BTFSC  x3C.5
14EC8:  GOTO   14EEA
....................             Imprime=22; 
14ECC:  MOVLW  16
14ECE:  MOVWF  x99
....................             Envio_Esclavos(); 
14ED0:  MOVLB  0
14ED2:  CALL   58A6
....................             delay_ms(100); 
14ED6:  MOVLW  64
14ED8:  MOVLB  7
14EDA:  MOVWF  x1E
14EDC:  MOVLB  0
14EDE:  CALL   2060
....................             Imprime=10; 
14EE2:  MOVLW  0A
14EE4:  MOVLB  3
14EE6:  MOVWF  x99
....................             flagImprimir=1; 
14EE8:  BSF    x3C.5
....................          } 
....................       }else if(AlarmaSobreTemperatura){                   
14EEA:  GOTO   15262
14EEE:  MOVLB  0
14EF0:  BTFSS  x9F.1
14EF2:  GOTO   14F9A
....................          codigoAlarma=4; 
14EF6:  MOVLW  04
14EF8:  MOVLB  3
14EFA:  MOVWF  x33
....................          tiempo_esterilizacion=0;tiempo_secado=0;          
14EFC:  CLRF   x51
14EFE:  CLRF   x52
....................          printf("Funcionamiento.t4f.txt=\" Sobretemperatura\""); 
14F00:  MOVLW  92
14F02:  MOVWF  FF6
14F04:  MOVLW  15
14F06:  MOVWF  FF7
14F08:  MOVLW  00
14F0A:  MOVWF  FF8
14F0C:  MOVLB  0
14F0E:  CALL   4538
....................          SendDataDisplay(); 
14F12:  CALL   456A
....................          printf("Funcionamiento.t5f.txt=\" Cancelado\""); 
14F16:  MOVLW  BE
14F18:  MOVWF  FF6
14F1A:  MOVLW  15
14F1C:  MOVWF  FF7
14F1E:  MOVLW  00
14F20:  MOVWF  FF8
14F22:  CALL   4538
....................          SendDataDisplay();   
14F26:  CALL   456A
....................          Aire_off; 
14F2A:  BSF    F8C.0
14F2C:  BCF    F95.0
....................          AireB_off; 
14F2E:  BSF    F8C.1
14F30:  BCF    F95.1
....................          Desfogue_on; 
14F32:  BCF    F8B.1
14F34:  BCF    F94.1
....................          Paso_off; 
14F36:  BSF    F8B.0
14F38:  BCF    F94.0
....................          BombaVacio_off; 
14F3A:  BSF    F8B.5
14F3C:  BCF    F94.5
....................          Agua_off; 
14F3E:  BSF    F8C.3
14F40:  BCF    F95.3
....................          //EV8_off; 
....................          apagaBombaAgua(); 
14F42:  CALL   5C3E
....................          Vacio_off; 
14F46:  BSF    F8B.2
14F48:  BCF    F94.2
....................          SSR_off; 
14F4A:  BCF    F8D.1
14F4C:  BCF    F96.1
....................          SSR2_off; 
14F4E:  BCF    F8D.2
14F50:  BCF    F96.2
....................          Controlando=0; 
14F52:  MOVLB  3
14F54:  CLRF   x3F
....................          if(codigoAnt!=codigoAlarma){ 
14F56:  MOVF   x33,W
14F58:  SUBWF  x80,W
14F5A:  BTFSC  FD8.2
14F5C:  GOTO   14F70
....................             codigoAnt=codigoAlarma; 
14F60:  MOVFF  333,380
....................             GuardaDatoCiclo(); 
14F64:  MOVLB  0
14F66:  CALL   8488
....................             incrementaCiclos(); 
14F6A:  CALL   883E
14F6E:  MOVLB  3
....................          } 
....................          if(!flagImprimir){ 
14F70:  BTFSC  x3C.5
14F72:  GOTO   14F94
....................             Imprime=23; 
14F76:  MOVLW  17
14F78:  MOVWF  x99
....................             Envio_Esclavos(); 
14F7A:  MOVLB  0
14F7C:  CALL   58A6
....................             delay_ms(100); 
14F80:  MOVLW  64
14F82:  MOVLB  7
14F84:  MOVWF  x1E
14F86:  MOVLB  0
14F88:  CALL   2060
....................             Imprime=10; 
14F8C:  MOVLW  0A
14F8E:  MOVLB  3
14F90:  MOVWF  x99
....................             flagImprimir=1; 
14F92:  BSF    x3C.5
....................          } 
....................       }else if(AlarmaTiempoProlongado){ 
14F94:  GOTO   15262
14F98:  MOVLB  0
14F9A:  BTFSS  x9F.0
14F9C:  GOTO   15040
....................          codigoAlarma=5; 
14FA0:  MOVLW  05
14FA2:  MOVLB  3
14FA4:  MOVWF  x33
....................          printf("Funcionamiento.t4f.txt=\" Tiempo Prolongado\""); 
14FA6:  MOVLW  E2
14FA8:  MOVWF  FF6
14FAA:  MOVLW  15
14FAC:  MOVWF  FF7
14FAE:  MOVLW  00
14FB0:  MOVWF  FF8
14FB2:  MOVLB  0
14FB4:  CALL   4538
....................          SendDataDisplay(); 
14FB8:  CALL   456A
....................          printf("Funcionamiento.t5f.txt=\" Cancelado\""); 
14FBC:  MOVLW  0E
14FBE:  MOVWF  FF6
14FC0:  MOVLW  16
14FC2:  MOVWF  FF7
14FC4:  MOVLW  00
14FC6:  MOVWF  FF8
14FC8:  CALL   4538
....................          SendDataDisplay(); 
14FCC:  CALL   456A
....................          Aire_off; 
14FD0:  BSF    F8C.0
14FD2:  BCF    F95.0
....................          AireB_off; 
14FD4:  BSF    F8C.1
14FD6:  BCF    F95.1
....................          Desfogue_on; 
14FD8:  BCF    F8B.1
14FDA:  BCF    F94.1
....................          Paso_off; 
14FDC:  BSF    F8B.0
14FDE:  BCF    F94.0
....................          BombaVacio_off; 
14FE0:  BSF    F8B.5
14FE2:  BCF    F94.5
....................          Agua_off; 
14FE4:  BSF    F8C.3
14FE6:  BCF    F95.3
....................          //EV8_off; 
....................          apagaBombaAgua(); 
14FE8:  CALL   5C3E
....................          Vacio_off; 
14FEC:  BSF    F8B.2
14FEE:  BCF    F94.2
....................          SSR_off; 
14FF0:  BCF    F8D.1
14FF2:  BCF    F96.1
....................          SSR2_off; 
14FF4:  BCF    F8D.2
14FF6:  BCF    F96.2
....................          Controlando=0; 
14FF8:  MOVLB  3
14FFA:  CLRF   x3F
....................          if(codigoAnt!=codigoAlarma){ 
14FFC:  MOVF   x33,W
14FFE:  SUBWF  x80,W
15000:  BTFSC  FD8.2
15002:  GOTO   15016
....................             codigoAnt=codigoAlarma; 
15006:  MOVFF  333,380
....................             GuardaDatoCiclo(); 
1500A:  MOVLB  0
1500C:  CALL   8488
....................             incrementaCiclos(); 
15010:  CALL   883E
15014:  MOVLB  3
....................          } 
....................          if(!flagImprimir){ 
15016:  BTFSC  x3C.5
15018:  GOTO   1503A
....................             Imprime=24; 
1501C:  MOVLW  18
1501E:  MOVWF  x99
....................             Envio_Esclavos(); 
15020:  MOVLB  0
15022:  CALL   58A6
....................             delay_ms(100); 
15026:  MOVLW  64
15028:  MOVLB  7
1502A:  MOVWF  x1E
1502C:  MOVLB  0
1502E:  CALL   2060
....................             Imprime=10; 
15032:  MOVLW  0A
15034:  MOVLB  3
15036:  MOVWF  x99
....................             flagImprimir=1; 
15038:  BSF    x3C.5
....................          } 
....................       }else if(AlarmaPresion){ // Alarma de Error de SobrePresion: Error por exceso de Presion. 
1503A:  GOTO   15262
1503E:  MOVLB  0
15040:  BTFSS  xA3.1
15042:  GOTO   1511C
....................          codigoAlarma=6; 
15046:  MOVLW  06
15048:  MOVLB  3
1504A:  MOVWF  x33
....................          printf("Funcionamiento.t4f.txt=\" SobrePresion\""); 
1504C:  MOVLW  32
1504E:  MOVWF  FF6
15050:  MOVLW  16
15052:  MOVWF  FF7
15054:  MOVLW  00
15056:  MOVWF  FF8
15058:  MOVLB  0
1505A:  CALL   4538
....................          SendDataDisplay(); 
1505E:  CALL   456A
....................          printf("Funcionamiento.t5f.txt=\" Cancelado\""); 
15062:  MOVLW  5A
15064:  MOVWF  FF6
15066:  MOVLW  16
15068:  MOVWF  FF7
1506A:  MOVLW  00
1506C:  MOVWF  FF8
1506E:  CALL   4538
....................          SendDataDisplay(); 
15072:  CALL   456A
....................          Aire_off; 
15076:  BSF    F8C.0
15078:  BCF    F95.0
....................          AireB_off; 
1507A:  BSF    F8C.1
1507C:  BCF    F95.1
....................          Desfogue_on; 
1507E:  BCF    F8B.1
15080:  BCF    F94.1
....................          BombaVacio_off; 
15082:  BSF    F8B.5
15084:  BCF    F94.5
....................          Agua_off; 
15086:  BSF    F8C.3
15088:  BCF    F95.3
....................          //EV8_off; 
....................          apagaBombaAgua(); 
1508A:  CALL   5C3E
....................          Vacio_off; 
1508E:  BSF    F8B.2
15090:  BCF    F94.2
....................          SSR_off; 
15092:  BCF    F8D.1
15094:  BCF    F96.1
....................          SSR2_off; 
15096:  BCF    F8D.2
15098:  BCF    F96.2
....................          if(PresionCamara>(Atmosferica+4) && DOOR) 
1509A:  MOVLW  04
1509C:  MOVLB  3
1509E:  ADDWF  x3A,W
150A0:  MOVWF  01
150A2:  MOVLW  00
150A4:  ADDWFC x3B,W
150A6:  MOVWF  03
150A8:  MOVF   03,W
150AA:  SUBWF  x66,W
150AC:  BTFSS  FD8.0
150AE:  GOTO   150D2
150B2:  BTFSS  FD8.2
150B4:  GOTO   150C2
150B8:  MOVF   x65,W
150BA:  SUBWF  01,W
150BC:  BTFSC  FD8.0
150BE:  GOTO   150D2
150C2:  BSF    F93.6
150C4:  BTFSC  F81.6
150C6:  GOTO   150D2
....................             Paso_on; 
150CA:  BCF    F8B.0
150CC:  BCF    F94.0
....................          else 
150CE:  GOTO   150D6
....................             Paso_off; 
150D2:  BSF    F8B.0
150D4:  BCF    F94.0
....................          Controlando=0; 
150D6:  CLRF   x3F
....................          if(codigoAnt!=codigoAlarma){ 
150D8:  MOVF   x33,W
150DA:  SUBWF  x80,W
150DC:  BTFSC  FD8.2
150DE:  GOTO   150F2
....................             codigoAnt=codigoAlarma; 
150E2:  MOVFF  333,380
....................             GuardaDatoCiclo(); 
150E6:  MOVLB  0
150E8:  CALL   8488
....................             incrementaCiclos(); 
150EC:  CALL   883E
150F0:  MOVLB  3
....................          } 
....................          if(!flagImprimir){ 
150F2:  BTFSC  x3C.5
150F4:  GOTO   15116
....................             Imprime=25; 
150F8:  MOVLW  19
150FA:  MOVWF  x99
....................             Envio_Esclavos(); 
150FC:  MOVLB  0
150FE:  CALL   58A6
....................             delay_ms(100); 
15102:  MOVLW  64
15104:  MOVLB  7
15106:  MOVWF  x1E
15108:  MOVLB  0
1510A:  CALL   2060
....................             Imprime=10; 
1510E:  MOVLW  0A
15110:  MOVLB  3
15112:  MOVWF  x99
....................             flagImprimir=1; 
15114:  BSF    x3C.5
....................          } 
....................       }else if(AlarmaBomba){ // Alarma de Error de que bomba no ha arrancado. 
15116:  GOTO   15262
1511A:  MOVLB  0
1511C:  BTFSS  x9F.6
1511E:  GOTO   151C2
....................          codigoAlarma=7; 
15122:  MOVLW  07
15124:  MOVLB  3
15126:  MOVWF  x33
....................          printf("Funcionamiento.t4f.txt=\" Error Bomba\""); 
15128:  MOVLW  7E
1512A:  MOVWF  FF6
1512C:  MOVLW  16
1512E:  MOVWF  FF7
15130:  MOVLW  00
15132:  MOVWF  FF8
15134:  MOVLB  0
15136:  CALL   4538
....................          SendDataDisplay(); 
1513A:  CALL   456A
....................          printf("Funcionamiento.t5f.txt=\" Cancelado\""); 
1513E:  MOVLW  A4
15140:  MOVWF  FF6
15142:  MOVLW  16
15144:  MOVWF  FF7
15146:  MOVLW  00
15148:  MOVWF  FF8
1514A:  CALL   4538
....................          SendDataDisplay(); 
1514E:  CALL   456A
....................          Aire_off; 
15152:  BSF    F8C.0
15154:  BCF    F95.0
....................          AireB_off; 
15156:  BSF    F8C.1
15158:  BCF    F95.1
....................          Desfogue_off; 
1515A:  BSF    F8B.1
1515C:  BCF    F94.1
....................          Paso_off; 
1515E:  BSF    F8B.0
15160:  BCF    F94.0
....................          BombaVacio_off; 
15162:  BSF    F8B.5
15164:  BCF    F94.5
....................          Agua_off; 
15166:  BSF    F8C.3
15168:  BCF    F95.3
....................          //EV8_off; 
....................          apagaBombaAgua(); 
1516A:  CALL   5C3E
....................          Vacio_off; 
1516E:  BSF    F8B.2
15170:  BCF    F94.2
....................          SSR_off; 
15172:  BCF    F8D.1
15174:  BCF    F96.1
....................          SSR2_off; 
15176:  BCF    F8D.2
15178:  BCF    F96.2
....................          Controlando=0; 
1517A:  MOVLB  3
1517C:  CLRF   x3F
....................          if(codigoAnt!=codigoAlarma){ 
1517E:  MOVF   x33,W
15180:  SUBWF  x80,W
15182:  BTFSC  FD8.2
15184:  GOTO   15198
....................             codigoAnt=codigoAlarma; 
15188:  MOVFF  333,380
....................             GuardaDatoCiclo(); 
1518C:  MOVLB  0
1518E:  CALL   8488
....................             incrementaCiclos(); 
15192:  CALL   883E
15196:  MOVLB  3
....................          } 
....................          if(!flagImprimir){ 
15198:  BTFSC  x3C.5
1519A:  GOTO   151BC
....................             Imprime=26; 
1519E:  MOVLW  1A
151A0:  MOVWF  x99
....................             Envio_Esclavos(); 
151A2:  MOVLB  0
151A4:  CALL   58A6
....................             delay_ms(100); 
151A8:  MOVLW  64
151AA:  MOVLB  7
151AC:  MOVWF  x1E
151AE:  MOVLB  0
151B0:  CALL   2060
....................             Imprime=10; 
151B4:  MOVLW  0A
151B6:  MOVLB  3
151B8:  MOVWF  x99
....................             flagImprimir=1; 
151BA:  BSF    x3C.5
....................          } 
....................       }else if(AlarmaVacio){ // Alarma de Error de que genera el Vacio en el tiempo estipulado. 
151BC:  GOTO   15262
151C0:  MOVLB  0
151C2:  BTFSS  x9F.7
151C4:  GOTO   15264
....................          codigoAlarma=8; 
151C8:  MOVLW  08
151CA:  MOVLB  3
151CC:  MOVWF  x33
....................          printf("Funcionamiento.t4f.txt=\" Error Vacio\""); 
151CE:  MOVLW  C8
151D0:  MOVWF  FF6
151D2:  MOVLW  16
151D4:  MOVWF  FF7
151D6:  MOVLW  00
151D8:  MOVWF  FF8
151DA:  MOVLB  0
151DC:  CALL   4538
....................          SendDataDisplay(); 
151E0:  CALL   456A
....................          printf("Funcionamiento.t5f.txt=\" Cancelado\""); 
151E4:  MOVLW  EE
151E6:  MOVWF  FF6
151E8:  MOVLW  16
151EA:  MOVWF  FF7
151EC:  MOVLW  00
151EE:  MOVWF  FF8
151F0:  CALL   4538
....................          SendDataDisplay(); 
151F4:  CALL   456A
....................          Aire_off; 
151F8:  BSF    F8C.0
151FA:  BCF    F95.0
....................          AireB_off; 
151FC:  BSF    F8C.1
151FE:  BCF    F95.1
....................          Desfogue_off; 
15200:  BSF    F8B.1
15202:  BCF    F94.1
....................          Paso_off; 
15204:  BSF    F8B.0
15206:  BCF    F94.0
....................          BombaVacio_off; 
15208:  BSF    F8B.5
1520A:  BCF    F94.5
....................          Agua_off; 
1520C:  BSF    F8C.3
1520E:  BCF    F95.3
....................          //EV8_off; 
....................          apagaBombaAgua(); 
15210:  CALL   5C3E
....................          Vacio_off; 
15214:  BSF    F8B.2
15216:  BCF    F94.2
....................          SSR_off; 
15218:  BCF    F8D.1
1521A:  BCF    F96.1
....................          SSR2_off; 
1521C:  BCF    F8D.2
1521E:  BCF    F96.2
....................          Controlando=0; 
15220:  MOVLB  3
15222:  CLRF   x3F
....................          if(codigoAnt!=codigoAlarma){ 
15224:  MOVF   x33,W
15226:  SUBWF  x80,W
15228:  BTFSC  FD8.2
1522A:  GOTO   1523E
....................             codigoAnt=codigoAlarma; 
1522E:  MOVFF  333,380
....................             GuardaDatoCiclo(); 
15232:  MOVLB  0
15234:  CALL   8488
....................             incrementaCiclos(); 
15238:  CALL   883E
1523C:  MOVLB  3
....................          } 
....................          if(!flagImprimir){ 
1523E:  BTFSC  x3C.5
15240:  GOTO   15262
....................             Imprime=27; 
15244:  MOVLW  1B
15246:  MOVWF  x99
....................             Envio_Esclavos(); 
15248:  MOVLB  0
1524A:  CALL   58A6
....................             delay_ms(100); 
1524E:  MOVLW  64
15250:  MOVLB  7
15252:  MOVWF  x1E
15254:  MOVLB  0
15256:  CALL   2060
....................             Imprime=10; 
1525A:  MOVLW  0A
1525C:  MOVLB  3
1525E:  MOVWF  x99
....................             flagImprimir=1; 
15260:  BSF    x3C.5
15262:  MOVLB  0
....................          } 
....................       } 
....................    }else{ 
15264:  GOTO   1617A
....................       if(!Fugas){//Si selecciono un ciclo diferente al test de fugas 
15268:  BTFSC  xA3.4
1526A:  GOTO   15D6C
....................          Buzzer_off; 
1526E:  BCF    F8C.7
15270:  BCF    F95.7
....................          IniciaCiclo=ON; 
15272:  BSF    xA0.2
....................        
....................       if(flagImprime){ 
15274:  MOVLB  3
15276:  BTFSS  x3C.4
15278:  GOTO   1529A
....................          Imprime=5; 
1527C:  MOVLW  05
1527E:  MOVWF  x99
....................          Envio_Esclavos(); 
15280:  MOVLB  0
15282:  CALL   58A6
....................          delay_ms(100); 
15286:  MOVLW  64
15288:  MOVLB  7
1528A:  MOVWF  x1E
1528C:  MOVLB  0
1528E:  CALL   2060
....................          Imprime=10; 
15292:  MOVLW  0A
15294:  MOVLB  3
15296:  MOVWF  x99
....................          flagImprime=0; 
15298:  BCF    x3C.4
....................       } 
....................         
....................       if(!CalderinLleno){ 
1529A:  MOVLB  0
1529C:  BTFSC  xA0.1
1529E:  GOTO   15338
....................          if(LRES){ 
152A2:  BSF    F93.7
152A4:  BTFSC  F81.7
152A6:  GOTO   152DE
....................             printf("Funcionamiento.t4f.txt=\" Ninguna\""); 
152AA:  MOVLW  12
152AC:  MOVWF  FF6
152AE:  MOVLW  17
152B0:  MOVWF  FF7
152B2:  MOVLW  00
152B4:  MOVWF  FF8
152B6:  CALL   4538
....................             SendDataDisplay(); 
152BA:  CALL   456A
....................             printf("Funcionamiento.t5f.txt=\" Llenado Generador\""); 
152BE:  MOVLW  34
152C0:  MOVWF  FF6
152C2:  MOVLW  17
152C4:  MOVWF  FF7
152C6:  MOVLW  00
152C8:  MOVWF  FF8
152CA:  CALL   4538
....................             SendDataDisplay(); 
152CE:  CALL   456A
....................             Agua_on; 
152D2:  BCF    F8C.3
152D4:  BCF    F95.3
....................             //EV8_on; 
....................             enciendeBombaAgua(); 
152D6:  CALL   5C50
....................          }else{ 
152DA:  GOTO   1530E
....................             printf("Funcionamiento.t4f.txt=\" Reservorio Vacio\""); 
152DE:  MOVLW  60
152E0:  MOVWF  FF6
152E2:  MOVLW  17
152E4:  MOVWF  FF7
152E6:  MOVLW  00
152E8:  MOVWF  FF8
152EA:  CALL   4538
....................             SendDataDisplay(); 
152EE:  CALL   456A
....................             printf("Funcionamiento.t5f.txt=\" Llenado Generador\""); 
152F2:  MOVLW  8C
152F4:  MOVWF  FF6
152F6:  MOVLW  17
152F8:  MOVWF  FF7
152FA:  MOVLW  00
152FC:  MOVWF  FF8
152FE:  CALL   4538
....................             SendDataDisplay(); 
15302:  CALL   456A
....................             Agua_off; 
15306:  BSF    F8C.3
15308:  BCF    F95.3
....................             //EV8_off; 
....................             apagaBombaAgua(); 
1530A:  CALL   5C3E
....................          } 
....................          Control=0; 
1530E:  MOVLB  3
15310:  CLRF   x3D
....................          IniciaLlenado=ON; 
15312:  MOVLB  0
15314:  BSF    xA0.0
....................          Controlando=0; 
15316:  MOVLB  3
15318:  CLRF   x3F
....................          Desfogue_off; 
1531A:  BSF    F8B.1
1531C:  BCF    F94.1
....................          Paso_off; 
1531E:  BSF    F8B.0
15320:  BCF    F94.0
....................          Aire_off; 
15322:  BSF    F8C.0
15324:  BCF    F95.0
....................          AireB_off;  
15326:  BSF    F8C.1
15328:  BCF    F95.1
....................          SSR_off; 
1532A:  BCF    F8D.1
1532C:  BCF    F96.1
....................          SSR2_on; 
1532E:  BSF    F8D.2
15330:  BCF    F96.2
....................       }else if(!Precalentamiento){ 
15332:  GOTO   15D66
15336:  MOVLB  0
15338:  BTFSC  xA3.7
1533A:  GOTO   153B6
....................          printf("Funcionamiento.t4f.txt=\" Ninguna\""); 
1533E:  MOVLW  B8
15340:  MOVWF  FF6
15342:  MOVLW  17
15344:  MOVWF  FF7
15346:  MOVLW  00
15348:  MOVWF  FF8
1534A:  CALL   4538
....................          SendDataDisplay(); 
1534E:  CALL   456A
....................          printf("Funcionamiento.t5f.txt=\" PreCalentando\""); 
15352:  MOVLW  DA
15354:  MOVWF  FF6
15356:  MOVLW  17
15358:  MOVWF  FF7
1535A:  MOVLW  00
1535C:  MOVWF  FF8
1535E:  CALL   4538
....................          SendDataDisplay(); 
15362:  CALL   456A
....................          ControlaPresion();  
15366:  CALL   5B82
....................          Control=0; 
1536A:  MOVLB  3
1536C:  CLRF   x3D
....................          IniciaVacio=OFF; 
1536E:  MOVLB  0
15370:  BCF    xA4.0
....................          IniciaVacio2=OFF; 
15372:  BCF    xA4.1
....................          codigoAlarma=10; 
15374:  MOVLW  0A
15376:  MOVLB  3
15378:  MOVWF  x33
....................          if(codigoAnt!=codigoAlarma){ 
1537A:  MOVF   x33,W
1537C:  SUBWF  x80,W
1537E:  BTFSC  FD8.2
15380:  GOTO   15390
....................             codigoAnt=codigoAlarma; 
15384:  MOVFF  333,380
....................             GuardaDatoCiclo(); 
15388:  MOVLB  0
1538A:  CALL   8488
1538E:  MOVLB  3
....................          } 
....................          Desfogue_off; 
15390:  BSF    F8B.1
15392:  BCF    F94.1
....................          Agua_off; 
15394:  BSF    F8C.3
15396:  BCF    F95.3
....................          //EV8_off; 
....................          apagaBombaAgua(); 
15398:  MOVLB  0
1539A:  CALL   5C3E
....................          Paso_off; 
1539E:  BSF    F8B.0
153A0:  BCF    F94.0
....................          SSR2_on; 
153A2:  BSF    F8D.2
153A4:  BCF    F96.2
....................          Desfogue_off; 
153A6:  BSF    F8B.1
153A8:  BCF    F94.1
....................          Aire_off; 
153AA:  BSF    F8C.0
153AC:  BCF    F95.0
....................          AireB_off;               
153AE:  BSF    F8C.1
153B0:  BCF    F95.1
....................       }else{ 
153B2:  GOTO   15D64
....................          if(!Vacio){ //Si no ha realizado los pulsos de vacio  
153B6:  BTFSC  xA4.2
153B8:  GOTO   15622
....................             if(desfoguelento){ 
153BC:  BTFSS  xA6.7
153BE:  GOTO   153CC
....................                CantidadPulsos=3; 
153C2:  MOVLW  03
153C4:  MOVLB  3
153C6:  MOVWF  x2F
....................                NivelVacio=30; 
153C8:  MOVLW  1E
153CA:  MOVWF  x30
....................             } 
....................                 
....................             codigoAlarma=11; 
153CC:  MOVLW  0B
153CE:  MOVLB  3
153D0:  MOVWF  x33
....................             ControlaPresion(); 
153D2:  MOVLB  0
153D4:  CALL   5B82
....................             IniciaVacio=ON; 
153D8:  BSF    xA4.0
....................              
....................             if(codigoAnt!=codigoAlarma){ 
153DA:  MOVLB  3
153DC:  MOVF   x33,W
153DE:  SUBWF  x80,W
153E0:  BTFSC  FD8.2
153E2:  GOTO   153F0
....................                codigoAnt=codigoAlarma; 
153E6:  MOVFF  333,380
....................                GuardaDatoCiclo();                
153EA:  MOVLB  0
153EC:  CALL   8488
....................             } 
....................             if(!flag_vac){//Ciclo inicial para purga de Bomba 
153F0:  MOVLB  0
153F2:  BTFSC  xA4.3
153F4:  GOTO   15406
....................                flag_vac=ON; 
153F8:  BSF    xA4.3
....................                purgaBomba(); 
153FA:  CALL   6F9E
....................                IniciaVacio2=ON; 
153FE:  BSF    xA4.1
....................                PulsoPositivo=10; //Prueba para ver rendimiento de bomba de vacio************ 
15400:  MOVLW  0A
15402:  MOVLB  3
15404:  MOVWF  x81
....................             } 
....................                 
....................             if(PresionCamara>NivelVacio && PulsoPositivo==10){//Pulso Negativo 
15406:  MOVLB  3
15408:  MOVF   x66,F
1540A:  BTFSS  FD8.2
1540C:  GOTO   1541A
15410:  MOVF   x65,W
15412:  SUBWF  x30,W
15414:  BTFSC  FD8.0
15416:  GOTO   1549C
1541A:  MOVF   x81,W
1541C:  SUBLW  0A
1541E:  BTFSS  FD8.2
15420:  GOTO   1549C
....................                flag_vacio=1; 
15424:  MOVLB  0
15426:  BSF    xA4.4
....................                if(flag_pulso==0){ 
15428:  BTFSC  xA4.5
1542A:  GOTO   1545C
....................                   PulsosVacio++; 
1542E:  MOVLB  3
15430:  INCF   x82,F
....................                   flag_pulso=1; 
15432:  MOVLB  0
15434:  BSF    xA4.5
....................                   Desfogue_on; 
15436:  BCF    F8B.1
15438:  BCF    F94.1
....................                   delay_ms(12000); 
1543A:  MOVLW  30
1543C:  MOVLB  7
1543E:  MOVWF  x08
15440:  MOVLW  FA
15442:  MOVWF  x1E
15444:  MOVLB  0
15446:  CALL   2060
1544A:  MOVLB  7
1544C:  DECFSZ x08,F
1544E:  BRA    15440
....................                   Desfogue_off; 
15450:  BSF    F8B.1
15452:  BCF    F94.1
....................                   tvacio=0; 
15454:  MOVLB  3
15456:  CLRF   x70
15458:  CLRF   x6F
1545A:  MOVLB  0
....................                } 
....................                printf("Funcionamiento.t5f.txt=\" Pulso de Vacio %u\"",PulsosVacio); 
1545C:  MOVLW  02
1545E:  MOVWF  FF6
15460:  MOVLW  18
15462:  MOVWF  FF7
15464:  MOVLW  00
15466:  MOVWF  FF8
15468:  MOVLW  28
1546A:  MOVLB  7
1546C:  MOVWF  x0D
1546E:  MOVLB  0
15470:  CALL   5D0E
15474:  MOVFF  382,70D
15478:  MOVLW  1B
1547A:  MOVLB  7
1547C:  MOVWF  x0E
1547E:  MOVLB  0
15480:  CALL   632A
15484:  MOVLW  22
15486:  BTFSS  F9E.4
15488:  GOTO   15486
1548C:  MOVWF  FAD
....................                SendDataDisplay(); 
1548E:  CALL   456A
....................                salidasPulsoNegativo(); 
15492:  CALL   88CA
....................                //monitoreaNivelAlto();  
....................             }else{ 
15496:  GOTO   154A4
1549A:  MOVLB  3
....................                PulsoPositivo=5; 
1549C:  MOVLW  05
1549E:  MOVWF  x81
....................                tvacio=0; 
154A0:  CLRF   x70
154A2:  CLRF   x6F
....................             } 
....................              
....................             if(PulsosVacio>=CantidadPulsos && PulsoPositivo==5){//Si realiza los pulsos de vacio, continua con el proceso de calentamiento 
154A4:  MOVLB  3
154A6:  MOVF   x2F,W
154A8:  SUBWF  x82,W
154AA:  BTFSS  FD8.0
154AC:  GOTO   154F0
154B0:  MOVF   x81,W
154B2:  SUBLW  05
154B4:  BTFSS  FD8.2
154B6:  GOTO   154F0
....................                Vacio=ON; 
154BA:  MOVLB  0
154BC:  BSF    xA4.2
....................                Vacio_off; 
154BE:  BSF    F8B.2
154C0:  BCF    F94.2
....................                Desfogue_off; 
154C2:  BSF    F8B.1
154C4:  BCF    F94.1
....................                Aire_off; 
154C6:  BSF    F8C.0
154C8:  BCF    F95.0
....................                AireB_off; 
154CA:  BSF    F8C.1
154CC:  BCF    F95.1
....................                Paso_on; 
154CE:  BCF    F8B.0
154D0:  BCF    F94.0
....................                Agua_off; 
154D2:  BSF    F8C.3
154D4:  BCF    F95.3
....................                //EV8_off; 
....................                apagaBombaAgua(); 
154D6:  CALL   5C3E
....................                BombaVacio_off;  
154DA:  BSF    F8B.5
154DC:  BCF    F94.5
....................                SSR2_off; 
154DE:  BCF    F8D.2
154E0:  BCF    F96.2
....................                IniciaVacio=OFF; 
154E2:  BCF    xA4.0
....................                PulsoPositivo=10; 
154E4:  MOVLW  0A
154E6:  MOVLB  3
154E8:  MOVWF  x81
....................                flag_vac=0; 
154EA:  MOVLB  0
154EC:  BCF    xA4.3
154EE:  MOVLB  3
....................             } 
....................                
....................             if(PulsoPositivo==5){//Pulso Positivo 
154F0:  MOVF   x81,W
154F2:  SUBLW  05
154F4:  BTFSS  FD8.2
154F6:  GOTO   1556C
....................                tvacio=0; 
154FA:  CLRF   x70
154FC:  CLRF   x6F
....................                flag_pulso=0; 
154FE:  MOVLB  0
15500:  BCF    xA4.5
....................                printf("Funcionamiento.t5f.txt=\" Pulso Positivo %u\"",PulsosVacio); 
15502:  MOVLW  2E
15504:  MOVWF  FF6
15506:  MOVLW  18
15508:  MOVWF  FF7
1550A:  MOVLW  00
1550C:  MOVWF  FF8
1550E:  MOVLW  28
15510:  MOVLB  7
15512:  MOVWF  x0D
15514:  MOVLB  0
15516:  CALL   5D0E
1551A:  MOVFF  382,70D
1551E:  MOVLW  1B
15520:  MOVLB  7
15522:  MOVWF  x0E
15524:  MOVLB  0
15526:  CALL   632A
1552A:  MOVLW  22
1552C:  BTFSS  F9E.4
1552E:  GOTO   1552C
15532:  MOVWF  FAD
....................                SendDataDisplay(); 
15534:  CALL   456A
....................                salidasPulsoPositivo(); 
15538:  GOTO   88E4
....................                if(PresionCamara>=Atmosferica+25){ 
1553C:  MOVLW  19
1553E:  MOVLB  3
15540:  ADDWF  x3A,W
15542:  MOVWF  01
15544:  MOVLW  00
15546:  ADDWFC x3B,W
15548:  MOVWF  03
1554A:  MOVF   03,W
1554C:  SUBWF  x66,W
1554E:  BTFSS  FD8.0
15550:  GOTO   1556C
15554:  BTFSS  FD8.2
15556:  GOTO   15564
1555A:  MOVF   01,W
1555C:  SUBWF  x65,W
1555E:  BTFSS  FD8.0
15560:  GOTO   1556C
....................                   Paso_off; 
15564:  BSF    F8B.0
15566:  BCF    F94.0
....................                   PulsoPositivo=10; 
15568:  MOVLW  0A
1556A:  MOVWF  x81
....................                }   
....................             } 
....................                 
....................             if(tbomba>=60 && PulsosVacio==1 && PulsoPositivo==10){//Si no se ha generado ningun pulso de vacio despues de 60 segundos se genera alarma 
1556C:  MOVF   x6E,F
1556E:  BTFSS  FD8.2
15570:  GOTO   1557E
15574:  MOVF   x6D,W
15576:  SUBLW  3B
15578:  BTFSC  FD8.0
1557A:  GOTO   155DA
1557E:  DECFSZ x82,W
15580:  GOTO   155DA
15584:  MOVF   x81,W
15586:  SUBLW  0A
15588:  BTFSS  FD8.2
1558A:  GOTO   155DA
....................                if(PresionCamara>(Atmosferica-2) && flag_pulso==1){ 
1558E:  MOVLW  02
15590:  SUBWF  x3A,W
15592:  MOVWF  00
15594:  MOVLW  00
15596:  SUBWFB x3B,W
15598:  MOVWF  03
1559A:  MOVFF  00,01
1559E:  MOVF   03,W
155A0:  SUBWF  x66,W
155A2:  BTFSS  FD8.0
155A4:  GOTO   155CC
155A8:  BTFSS  FD8.2
155AA:  GOTO   155B8
155AE:  MOVF   x65,W
155B0:  SUBWF  01,W
155B2:  BTFSC  FD8.0
155B4:  GOTO   155CC
155B8:  MOVLB  0
155BA:  BTFSC  xA4.5
155BC:  BRA    155C4
155BE:  MOVLB  3
155C0:  GOTO   155CC
....................                   AlarmaBomba=ON; 
155C4:  BSF    x9F.6
....................                }else{ 
155C6:  GOTO   155D4
155CA:  MOVLB  3
....................                   tbomba=0; 
155CC:  CLRF   x6E
155CE:  CLRF   x6D
....................                   IniciaVacio2=OFF; 
155D0:  MOVLB  0
155D2:  BCF    xA4.1
....................                } 
....................              }else if(PulsosVacio>=1 && flag_pulso==0){ 
155D4:  GOTO   155F8
155D8:  MOVLB  3
155DA:  MOVF   x82,W
155DC:  SUBLW  00
155DE:  BTFSC  FD8.0
155E0:  GOTO   155F8
155E4:  MOVLB  0
155E6:  BTFSS  xA4.5
155E8:  BRA    155F0
155EA:  MOVLB  3
155EC:  GOTO   155F8
....................                IniciaVacio2=OFF; 
155F0:  BCF    xA4.1
....................                tbomba=0; 
155F2:  MOVLB  3
155F4:  CLRF   x6E
155F6:  CLRF   x6D
....................              } 
....................                 
....................             if(tvacio>840)//Si excede el tiempo maximo para generar los pulsos de vacio genera alarma             
155F8:  MOVLB  3
155FA:  MOVF   x70,W
155FC:  SUBLW  02
155FE:  BTFSC  FD8.0
15600:  GOTO   1561C
15604:  XORLW  FF
15606:  BTFSS  FD8.2
15608:  GOTO   15616
1560C:  MOVF   x6F,W
1560E:  SUBLW  48
15610:  BTFSC  FD8.0
15612:  GOTO   1561C
....................                AlarmaVacio=ON;             
15616:  MOVLB  0
15618:  BSF    x9F.7
1561A:  MOVLB  3
....................          }else{ 
1561C:  GOTO   15D66
15620:  MOVLB  0
....................             IniciaVacio=OFF;           
15622:  BCF    xA4.0
....................             IniciaVacio2=OFF;    
15624:  BCF    xA4.1
....................             if(!Esterilizando){ 
15626:  BTFSC  xA0.3
15628:  GOTO   1571C
....................                if(Temperatura>=((float)Setpoint-0.3)){ 
1562C:  MOVLB  7
1562E:  CLRF   x1B
15630:  MOVFF  34E,71A
15634:  MOVLB  0
15636:  CALL   2088
1563A:  MOVFF  00,708
1563E:  MOVFF  01,709
15642:  MOVFF  02,70A
15646:  MOVFF  03,70B
1564A:  BSF    FD8.1
1564C:  MOVFF  70B,71D
15650:  MOVFF  70A,71C
15654:  MOVFF  709,71B
15658:  MOVFF  708,71A
1565C:  MOVLW  9A
1565E:  MOVLB  7
15660:  MOVWF  x21
15662:  MOVLW  99
15664:  MOVWF  x20
15666:  MOVLW  19
15668:  MOVWF  x1F
1566A:  MOVLW  7D
1566C:  MOVWF  x1E
1566E:  MOVLB  0
15670:  CALL   221C
15674:  MOVFF  03,711
15678:  MOVFF  02,710
1567C:  MOVFF  01,70F
15680:  MOVFF  00,70E
15684:  MOVFF  316,715
15688:  MOVFF  315,714
1568C:  MOVFF  314,713
15690:  MOVFF  313,712
15694:  CALL   2680
15698:  BTFSC  FD8.0
1569A:  GOTO   156A4
1569E:  BTFSS  FD8.2
156A0:  GOTO   156A6
....................                   Esterilizando=ON; 
156A4:  BSF    xA0.3
....................                } 
....................                codigoAlarma=12; 
156A6:  MOVLW  0C
156A8:  MOVLB  3
156AA:  MOVWF  x33
....................                if(codigoAnt!=codigoAlarma){ 
156AC:  MOVF   x33,W
156AE:  SUBWF  x80,W
156B0:  BTFSC  FD8.2
156B2:  GOTO   156C0
....................                   codigoAnt=codigoAlarma; 
156B6:  MOVFF  333,380
....................                   GuardaDatoCiclo();                   
156BA:  MOVLB  0
156BC:  CALL   8488
....................                } 
....................                flag_vac=OFF; 
156C0:  MOVLB  0
156C2:  BCF    xA4.3
....................                printf("Funcionamiento.t4f.txt=\" Ninguna\""); 
156C4:  MOVLW  5A
156C6:  MOVWF  FF6
156C8:  MOVLW  18
156CA:  MOVWF  FF7
156CC:  MOVLW  00
156CE:  MOVWF  FF8
156D0:  CALL   4538
....................                SendDataDisplay(); 
156D4:  CALL   456A
....................                printf("Funcionamiento.t5f.txt=\" Calentando\""); 
156D8:  MOVLW  7C
156DA:  MOVWF  FF6
156DC:  MOVLW  18
156DE:  MOVWF  FF7
156E0:  MOVLW  00
156E2:  MOVWF  FF8
156E4:  CALL   4538
....................                SendDataDisplay(); 
156E8:  CALL   456A
....................                Control=1; 
156EC:  MOVLW  01
156EE:  MOVLB  3
156F0:  MOVWF  x3D
....................                Controla(); 
156F2:  MOVLB  0
156F4:  CALL   8976
....................                Paso_on; 
156F8:  BCF    F8B.0
156FA:  BCF    F94.0
....................                BombaVacio_off; 
156FC:  BSF    F8B.5
156FE:  BCF    F94.5
....................                Vacio_off; 
15700:  BSF    F8B.2
15702:  BCF    F94.2
....................                Aire_off; 
15704:  BSF    F8C.0
15706:  BCF    F95.0
....................                AireB_off; 
15708:  BSF    F8C.1
1570A:  BCF    F95.1
....................                //Desfogue_off; 
....................                purgaAguaTanque(); 
1570C:  GOTO   8EBC
....................                Agua_off; 
15710:  BSF    F8C.3
15712:  BCF    F95.3
....................                //EV8_off; 
....................                apagaBombaAgua(); 
15714:  CALL   5C3E
....................                 
....................                /*if(Temperatura<=TTrampa && desfoguelento){ 
....................                   Desfogue_on; 
....................                }else{ 
....................                   Desfogue_off; 
....................                }*/ 
....................             }else{ 
15718:  GOTO   15D64
....................                TiempoCiclo=0; 
1571C:  CLRF   xA8
1571E:  CLRF   xA7
....................                if(mEst==0 && sEst==0){  
15720:  MOVF   xBC,F
15722:  BTFSS  FD8.2
15724:  GOTO   15C7C
15728:  MOVF   xBB,F
1572A:  BTFSS  FD8.2
1572C:  GOTO   15C7C
....................                   if(desfoguelento){ 
15730:  BTFSS  xA6.7
15732:  GOTO   1593C
....................                      Controlando=0; 
15736:  MOVLB  3
15738:  CLRF   x3F
....................                      if(PresionCamara<(Atmosferica+20)){ 
1573A:  MOVLW  14
1573C:  ADDWF  x3A,W
1573E:  MOVWF  01
15740:  MOVLW  00
15742:  ADDWFC x3B,W
15744:  MOVWF  03
15746:  MOVF   x66,W
15748:  SUBWF  03,W
1574A:  BTFSS  FD8.0
1574C:  GOTO   1588C
15750:  BTFSS  FD8.2
15752:  GOTO   15760
15756:  MOVF   01,W
15758:  SUBWF  x65,W
1575A:  BTFSC  FD8.0
1575C:  GOTO   1588C
....................                         Secando=OFF;  
15760:  MOVLB  0
15762:  BCF    xA0.4
....................                         DesfogueSuave=OFF; 
15764:  BCF    xA0.7
....................                         BombaVacio_off; 
15766:  BSF    F8B.5
15768:  BCF    F94.5
....................                         Vacio_off; 
1576A:  BSF    F8B.2
1576C:  BCF    F94.2
....................                         Aire_off; 
1576E:  BSF    F8C.0
15770:  BCF    F95.0
....................                         Desfogue_on; 
15772:  BCF    F8B.1
15774:  BCF    F94.1
....................                         Paso_off;                         
15776:  BSF    F8B.0
15778:  BCF    F94.0
....................                         SSR2_off; 
1577A:  BCF    F8D.2
1577C:  BCF    F96.2
....................                         //SSR_off; 
....................                         if(Temperatura<=Tapertura && PresionCamara<(Atmosferica+2)){ 
1577E:  MOVLB  7
15780:  CLRF   x1B
15782:  MOVFF  2D1,71A
15786:  MOVLB  0
15788:  CALL   2088
1578C:  MOVFF  316,711
15790:  MOVFF  315,710
15794:  MOVFF  314,70F
15798:  MOVFF  313,70E
1579C:  MOVFF  03,715
157A0:  MOVFF  02,714
157A4:  MOVFF  01,713
157A8:  MOVFF  00,712
157AC:  CALL   2680
157B0:  BTFSC  FD8.0
157B2:  GOTO   157BC
157B6:  BTFSS  FD8.2
157B8:  GOTO   15868
157BC:  MOVLW  02
157BE:  MOVLB  3
157C0:  ADDWF  x3A,W
157C2:  MOVWF  01
157C4:  MOVLW  00
157C6:  ADDWFC x3B,W
157C8:  MOVWF  03
157CA:  MOVF   x66,W
157CC:  SUBWF  03,W
157CE:  BTFSC  FD8.0
157D0:  BRA    157D8
157D2:  MOVLB  0
157D4:  GOTO   15868
157D8:  BTFSS  FD8.2
157DA:  GOTO   157EC
157DE:  MOVF   01,W
157E0:  SUBWF  x65,W
157E2:  BTFSS  FD8.0
157E4:  BRA    157EC
157E6:  MOVLB  0
157E8:  GOTO   15868
....................                            ActivaAlarma(2); 
157EC:  MOVLW  02
157EE:  MOVLB  7
157F0:  MOVWF  x08
157F2:  MOVLB  0
157F4:  CALL   608A
....................                            printf("Funcionamiento.t4f.txt=\" Ninguna\""); 
157F8:  MOVLW  A2
157FA:  MOVWF  FF6
157FC:  MOVLW  18
157FE:  MOVWF  FF7
15800:  MOVLW  00
15802:  MOVWF  FF8
15804:  CALL   4538
....................                            SendDataDisplay(); 
15808:  CALL   456A
....................                            printf("Funcionamiento.t5f.txt=\" Finalizado\""); 
1580C:  MOVLW  C4
1580E:  MOVWF  FF6
15810:  MOVLW  18
15812:  MOVWF  FF7
15814:  MOVLW  00
15816:  MOVWF  FF8
15818:  CALL   4538
....................                            SendDataDisplay(); 
1581C:  CALL   456A
....................                            Finalizo=ON; 
15820:  BSF    xA3.0
....................                            codigoAlarma=14; 
15822:  MOVLW  0E
15824:  MOVLB  3
15826:  MOVWF  x33
....................                               if(codigoAnt!=codigoAlarma){ 
15828:  MOVF   x33,W
1582A:  SUBWF  x80,W
1582C:  BTFSC  FD8.2
1582E:  GOTO   1583E
....................                                  codigoAnt=codigoAlarma; 
15832:  MOVFF  333,380
....................                                  GuardaDatoCiclo();                   
15836:  MOVLB  0
15838:  CALL   8488
1583C:  MOVLB  3
....................                               }  
....................                               if(!flagImprimir){ 
1583E:  BTFSC  x3C.5
15840:  GOTO   15862
....................                                  Imprime=28; 
15844:  MOVLW  1C
15846:  MOVWF  x99
....................                                  Envio_Esclavos(); 
15848:  MOVLB  0
1584A:  CALL   58A6
....................                                  delay_ms(100); 
1584E:  MOVLW  64
15850:  MOVLB  7
15852:  MOVWF  x1E
15854:  MOVLB  0
15856:  CALL   2060
....................                                  Imprime=10; 
1585A:  MOVLW  0A
1585C:  MOVLB  3
1585E:  MOVWF  x99
....................                                  flagImprimir=1; 
15860:  BSF    x3C.5
....................                               } 
....................                               incrementaCiclos(); 
15862:  MOVLB  0
15864:  CALL   883E
....................                         } 
....................                         if(!HIG){ 
15868:  BTFSC  xA5.6
1586A:  GOTO   1587A
....................                            SSR_off; 
1586E:  BCF    F8D.1
15870:  BCF    F96.1
....................                            monitoreaNivelAlto(); 
15872:  CALL   8FCA
....................                         }else{ 
15876:  GOTO   15886
....................                            ControlaPresion(); 
1587A:  CALL   5B82
....................                            apagaBombaAgua(); 
1587E:  CALL   5C3E
....................                            Agua_off; 
15882:  BSF    F8C.3
15884:  BCF    F95.3
....................                         } 
....................                      }else if(PresionCamara>(Atmosferica+20)){ 
15886:  GOTO   15934
1588A:  MOVLB  3
1588C:  MOVLW  14
1588E:  ADDWF  x3A,W
15890:  MOVWF  01
15892:  MOVLW  00
15894:  ADDWFC x3B,W
15896:  MOVWF  03
15898:  MOVF   03,W
1589A:  SUBWF  x66,W
1589C:  BTFSS  FD8.0
1589E:  GOTO   15936
158A2:  BTFSS  FD8.2
158A4:  GOTO   158B2
158A8:  MOVF   x65,W
158AA:  SUBWF  01,W
158AC:  BTFSC  FD8.0
158AE:  GOTO   15936
....................                         codigoAlarma=13; 
158B2:  MOVLW  0D
158B4:  MOVWF  x33
....................                         if(codigoAnt!=codigoAlarma){ 
158B6:  MOVF   x33,W
158B8:  SUBWF  x80,W
158BA:  BTFSC  FD8.2
158BC:  GOTO   158CA
....................                            codigoAnt=codigoAlarma; 
158C0:  MOVFF  333,380
....................                            GuardaDatoCiclo();                   
158C4:  MOVLB  0
158C6:  CALL   8488
....................                         } 
....................                         Desfogando=ON; 
158CA:  MOVLB  0
158CC:  BSF    xA0.6
....................                         DesfogueSuave=ON; 
158CE:  BSF    xA0.7
....................                         printf("Funcionamiento.t4f.txt=\" Ninguna\""); 
158D0:  MOVLW  EA
158D2:  MOVWF  FF6
158D4:  MOVLW  18
158D6:  MOVWF  FF7
158D8:  MOVLW  00
158DA:  MOVWF  FF8
158DC:  CALL   4538
....................                         SendDataDisplay(); 
158E0:  CALL   456A
....................                         printf("Funcionamiento.t5f.txt=\" Despresurizando\""); 
158E4:  MOVLW  0C
158E6:  MOVWF  FF6
158E8:  MOVLW  19
158EA:  MOVWF  FF7
158EC:  MOVLW  00
158EE:  MOVWF  FF8
158F0:  CALL   4538
....................                         SendDataDisplay(); 
158F4:  CALL   456A
....................                         Control=0; 
158F8:  MOVLB  3
158FA:  CLRF   x3D
....................                         //Desfogue_on; 
....................                         if(!HIG){ 
158FC:  MOVLB  0
158FE:  BTFSC  xA5.6
15900:  GOTO   15914
....................                            SSR_off; 
15904:  BCF    F8D.1
15906:  BCF    F96.1
....................                            Paso_off; 
15908:  BSF    F8B.0
1590A:  BCF    F94.0
....................                            monitoreaNivelAlto(); 
1590C:  CALL   8FCA
....................                         }else{ 
15910:  GOTO   15924
....................                            Paso_off; 
15914:  BSF    F8B.0
15916:  BCF    F94.0
....................                            ControlaPresion(); 
15918:  CALL   5B82
....................                            apagaBombaAgua(); 
1591C:  CALL   5C3E
....................                            Agua_off; 
15920:  BSF    F8C.3
15922:  BCF    F95.3
....................                         } 
....................                         BombaVacio_off; 
15924:  BSF    F8B.5
15926:  BCF    F94.5
....................                         Vacio_off; 
15928:  BSF    F8B.2
1592A:  BCF    F94.2
....................                         Aire_off;  
1592C:  BSF    F8C.0
1592E:  BCF    F95.0
....................                         SSR2_off; 
15930:  BCF    F8D.2
15932:  BCF    F96.2
15934:  MOVLB  3
....................                         //SSR_off; 
....................                      } 
....................                   }else{                      
15936:  GOTO   15C76
1593A:  MOVLB  0
....................                      //Paso_off; 
....................                      Controlando=0; 
1593C:  MOVLB  3
1593E:  CLRF   x3F
....................                      Control=0; 
15940:  CLRF   x3D
....................                      if(PresionCamara<=(Atmosferica+10)){   
15942:  MOVLW  0A
15944:  ADDWF  x3A,W
15946:  MOVWF  01
15948:  MOVLW  00
1594A:  ADDWFC x3B,W
1594C:  MOVWF  03
1594E:  MOVF   x66,W
15950:  SUBWF  03,W
15952:  BTFSS  FD8.0
15954:  GOTO   15BC8
15958:  BTFSS  FD8.2
1595A:  GOTO   15968
1595E:  MOVF   x65,W
15960:  SUBWF  01,W
15962:  BTFSS  FD8.0
15964:  GOTO   15BC8
....................                         if(sSec==0 && mSec==0){                           
15968:  MOVLB  0
1596A:  MOVF   xBD,F
1596C:  BTFSS  FD8.2
1596E:  GOTO   15A9A
15972:  MOVF   xBE,F
15974:  BTFSS  FD8.2
15976:  GOTO   15A9A
....................                            Vacio_off; 
1597A:  BSF    F8B.2
1597C:  BCF    F94.2
....................                            Aire_on; 
1597E:  BCF    F8C.0
15980:  BCF    F95.0
....................                            Desfogue_off; 
15982:  BSF    F8B.1
15984:  BCF    F94.1
....................                            Paso_off; 
15986:  BSF    F8B.0
15988:  BCF    F94.0
....................                            SSR2_off; 
1598A:  BCF    F8D.2
1598C:  BCF    F96.2
....................                            //SSR_off; 
....................                            Secando=OFF; 
1598E:  BCF    xA0.4
....................                            if(PresionCamara>Atmosferica-10 && PresionCamara<Atmosferica+6){ 
15990:  MOVLW  0A
15992:  MOVLB  3
15994:  SUBWF  x3A,W
15996:  MOVWF  00
15998:  MOVLW  00
1599A:  SUBWFB x3B,W
1599C:  MOVWF  03
1599E:  MOVFF  00,01
159A2:  MOVF   03,W
159A4:  SUBWF  x66,W
159A6:  BTFSS  FD8.0
159A8:  GOTO   15A6C
159AC:  BTFSS  FD8.2
159AE:  GOTO   159BC
159B2:  MOVF   x65,W
159B4:  SUBWF  01,W
159B6:  BTFSC  FD8.0
159B8:  GOTO   15A6C
159BC:  MOVLW  06
159BE:  ADDWF  x3A,W
159C0:  MOVWF  01
159C2:  MOVLW  00
159C4:  ADDWFC x3B,W
159C6:  MOVWF  03
159C8:  MOVF   x66,W
159CA:  SUBWF  03,W
159CC:  BTFSS  FD8.0
159CE:  GOTO   15A6C
159D2:  BTFSS  FD8.2
159D4:  GOTO   159E2
159D8:  MOVF   01,W
159DA:  SUBWF  x65,W
159DC:  BTFSC  FD8.0
159DE:  GOTO   15A6C
....................                               ActivaAlarma(2); 
159E2:  MOVLW  02
159E4:  MOVLB  7
159E6:  MOVWF  x08
159E8:  MOVLB  0
159EA:  CALL   608A
....................                               printf("Funcionamiento.t4f.txt=\" Ninguna\""); 
159EE:  MOVLW  36
159F0:  MOVWF  FF6
159F2:  MOVLW  19
159F4:  MOVWF  FF7
159F6:  MOVLW  00
159F8:  MOVWF  FF8
159FA:  CALL   4538
....................                               SendDataDisplay(); 
159FE:  CALL   456A
....................                               printf("Funcionamiento.t5f.txt=\" Finalizado\""); 
15A02:  MOVLW  58
15A04:  MOVWF  FF6
15A06:  MOVLW  19
15A08:  MOVWF  FF7
15A0A:  MOVLW  00
15A0C:  MOVWF  FF8
15A0E:  CALL   4538
....................                               SendDataDisplay(); 
15A12:  CALL   456A
....................                               Finalizo=ON; 
15A16:  BSF    xA3.0
....................                               codigoAlarma=14; 
15A18:  MOVLW  0E
15A1A:  MOVLB  3
15A1C:  MOVWF  x33
....................                               if(codigoAnt!=codigoAlarma){ 
15A1E:  MOVF   x33,W
15A20:  SUBWF  x80,W
15A22:  BTFSC  FD8.2
15A24:  GOTO   15A34
....................                                  codigoAnt=codigoAlarma; 
15A28:  MOVFF  333,380
....................                                  GuardaDatoCiclo();                   
15A2C:  MOVLB  0
15A2E:  CALL   8488
15A32:  MOVLB  3
....................                               } 
....................                               if(!flagImprimir){ 
15A34:  BTFSC  x3C.5
15A36:  GOTO   15A58
....................                                  Imprime=28; 
15A3A:  MOVLW  1C
15A3C:  MOVWF  x99
....................                                  Envio_Esclavos(); 
15A3E:  MOVLB  0
15A40:  CALL   58A6
....................                                  delay_ms(100); 
15A44:  MOVLW  64
15A46:  MOVLB  7
15A48:  MOVWF  x1E
15A4A:  MOVLB  0
15A4C:  CALL   2060
....................                                  Imprime=10; 
15A50:  MOVLW  0A
15A52:  MOVLB  3
15A54:  MOVWF  x99
....................                                  flagImprimir=1; 
15A56:  BSF    x3C.5
....................                               } 
....................                               incrementaCiclos(); 
15A58:  MOVLB  0
15A5A:  CALL   883E
....................                               BombaVacio_off;                            
15A5E:  BSF    F8B.5
15A60:  BCF    F94.5
....................                               AireB_off; 
15A62:  BSF    F8C.1
15A64:  BCF    F95.1
....................                            }else{ 
15A66:  GOTO   15A76
15A6A:  MOVLB  3
....................                               BombaVacio_on;                            
15A6C:  BCF    F8B.5
15A6E:  BCF    F94.5
....................                               AireB_on; 
15A70:  BCF    F8C.1
15A72:  BCF    F95.1
15A74:  MOVLB  0
....................                            } 
....................                            Secando=OFF; 
15A76:  BCF    xA0.4
....................                            if(!HIG){ 
15A78:  BTFSC  xA5.6
15A7A:  GOTO   15A8A
....................                               SSR_off; 
15A7E:  BCF    F8D.1
15A80:  BCF    F96.1
....................                               monitoreaNivelAlto(); 
15A82:  CALL   8FCA
....................                            }else{ 
15A86:  GOTO   15A96
....................                               ControlaPresion(); 
15A8A:  CALL   5B82
....................                               apagaBombaAgua(); 
15A8E:  CALL   5C3E
....................                               Agua_off; 
15A92:  BSF    F8C.3
15A94:  BCF    F95.3
....................                            } 
....................                         }else{ 
15A96:  GOTO   15BC2
....................                            if(Secando){ 
15A9A:  BTFSS  xA0.4
15A9C:  GOTO   15AC8
....................                               printf("Funcionamiento.t4f.txt=\" Ninguna\""); 
15AA0:  MOVLW  7E
15AA2:  MOVWF  FF6
15AA4:  MOVLW  19
15AA6:  MOVWF  FF7
15AA8:  MOVLW  00
15AAA:  MOVWF  FF8
15AAC:  CALL   4538
....................                               SendDataDisplay(); 
15AB0:  CALL   456A
....................                               printf("Funcionamiento.t5f.txt=\" Secando\""); 
15AB4:  MOVLW  A0
15AB6:  MOVWF  FF6
15AB8:  MOVLW  19
15ABA:  MOVWF  FF7
15ABC:  MOVLW  00
15ABE:  MOVWF  FF8
15AC0:  CALL   4538
....................                               SendDataDisplay(); 
15AC4:  CALL   456A
....................                            } 
....................                            if(Temperatura<110){ 
15AC8:  MOVFF  316,711
15ACC:  MOVFF  315,710
15AD0:  MOVFF  314,70F
15AD4:  MOVFF  313,70E
15AD8:  MOVLB  7
15ADA:  CLRF   x15
15ADC:  CLRF   x14
15ADE:  MOVLW  5C
15AE0:  MOVWF  x13
15AE2:  MOVLW  85
15AE4:  MOVWF  x12
15AE6:  MOVLB  0
15AE8:  CALL   2680
15AEC:  BTFSS  FD8.0
15AEE:  GOTO   15AFA
....................                               SSR2_on; 
15AF2:  BSF    F8D.2
15AF4:  BCF    F96.2
....................                            }else{ 
15AF6:  GOTO   15AFE
....................                               SSR2_off; 
15AFA:  BCF    F8D.2
15AFC:  BCF    F96.2
....................                            } 
....................                            Paso_off; 
15AFE:  BSF    F8B.0
15B00:  BCF    F94.0
....................                            if(!HIG){ 
15B02:  BTFSC  xA5.6
15B04:  GOTO   15B14
....................                               SSR_off; 
15B08:  BCF    F8D.1
15B0A:  BCF    F96.1
....................                               monitoreaNivelAlto(); 
15B0C:  CALL   8FCA
....................                            }else{ 
15B10:  GOTO   15B20
....................                               ControlaPresion(); 
15B14:  CALL   5B82
....................                               apagaBombaAgua(); 
15B18:  CALL   5C3E
....................                               Agua_off; 
15B1C:  BSF    F8C.3
15B1E:  BCF    F95.3
....................                            } 
....................                          
....................                            if(!flag_vac){//Ciclo inicial para purga de Bomba 
15B20:  BTFSC  xA4.3
15B22:  GOTO   15B2C
....................                               flag_vac=ON; 
15B26:  BSF    xA4.3
....................                               purgaBomba(); 
15B28:  CALL   6F9E
....................                            } 
....................                             
....................                            if(PresionCamara<=Atmosferica){//Si alcanzo el nivel de vacio requerido 
15B2C:  MOVLB  3
15B2E:  MOVF   x66,W
15B30:  SUBWF  x3B,W
15B32:  BTFSS  FD8.0
15B34:  GOTO   15B4E
15B38:  BTFSS  FD8.2
15B3A:  GOTO   15B48
15B3E:  MOVF   x65,W
15B40:  SUBWF  x3A,W
15B42:  BTFSS  FD8.0
15B44:  GOTO   15B4E
....................                               Secando=ON; 
15B48:  MOVLB  0
15B4A:  BSF    xA0.4
15B4C:  MOVLB  3
....................                            } 
....................                             
....................                            if(PresionCamara>NivelVacio+5){//Si la presin de la camara es mayor al nivel de vacio 
15B4E:  MOVLW  05
15B50:  ADDWF  x30,W
15B52:  MOVF   x66,F
15B54:  BTFSS  FD8.2
15B56:  GOTO   15B68
15B5A:  SUBWF  x65,W
15B5C:  BTFSC  FD8.2
15B5E:  GOTO   15B70
15B62:  BTFSS  FD8.0
15B64:  GOTO   15B70
....................                               salidasPulsoNegativo();  
15B68:  MOVLB  0
15B6A:  CALL   88CA
15B6E:  MOVLB  3
....................                               //Agua_off;   
....................                               //EV8_off; 
....................                               //apagaBombaAgua(); 
....................                            } 
....................        
....................                            if(PresionCamara<=NivelVacio){//Si alcanzo el nivel de vacio requerido 
15B70:  MOVF   x66,F
15B72:  BTFSS  FD8.2
15B74:  GOTO   15BC4
15B78:  MOVF   x65,W
15B7A:  SUBWF  x30,W
15B7C:  BTFSS  FD8.0
15B7E:  GOTO   15BC4
....................                               Aire_on; 
15B82:  BCF    F8C.0
15B84:  BCF    F95.0
....................                               AireB_on; 
15B86:  BCF    F8C.1
15B88:  BCF    F95.1
....................                               codigoAlarma=15; 
15B8A:  MOVLW  0F
15B8C:  MOVWF  x33
....................                               if(codigoAnt!=codigoAlarma){ 
15B8E:  MOVF   x33,W
15B90:  SUBWF  x80,W
15B92:  BTFSC  FD8.2
15B94:  GOTO   15BAE
....................                                  codigoAnt=codigoAlarma; 
15B98:  MOVFF  333,380
....................                                  GuardaDatoCiclo();                   
15B9C:  MOVLB  0
15B9E:  CALL   8488
....................                                  delay_ms(100); 
15BA2:  MOVLW  64
15BA4:  MOVLB  7
15BA6:  MOVWF  x1E
15BA8:  MOVLB  0
15BAA:  CALL   2060
....................                               } 
....................                               Secando=ON; 
15BAE:  MOVLB  0
15BB0:  BSF    xA0.4
....................                               Desfogue_off; 
15BB2:  BSF    F8B.1
15BB4:  BCF    F94.1
....................                               Paso_off; 
15BB6:  BSF    F8B.0
15BB8:  BCF    F94.0
....................                               BombaVacio_on;  
15BBA:  BCF    F8B.5
15BBC:  BCF    F94.5
....................                               Vacio_off; 
15BBE:  BSF    F8B.2
15BC0:  BCF    F94.2
15BC2:  MOVLB  3
....................                            } 
....................                         } 
....................                      }else if(PresionCamara>(Atmosferica+15)){ 
15BC4:  GOTO   15C76
15BC8:  MOVLW  0F
15BCA:  ADDWF  x3A,W
15BCC:  MOVWF  01
15BCE:  MOVLW  00
15BD0:  ADDWFC x3B,W
15BD2:  MOVWF  03
15BD4:  MOVF   03,W
15BD6:  SUBWF  x66,W
15BD8:  BTFSS  FD8.0
15BDA:  GOTO   15C76
15BDE:  BTFSS  FD8.2
15BE0:  GOTO   15BEE
15BE4:  MOVF   x65,W
15BE6:  SUBWF  01,W
15BE8:  BTFSC  FD8.0
15BEA:  GOTO   15C76
....................                         codigoAlarma=13; 
15BEE:  MOVLW  0D
15BF0:  MOVWF  x33
....................                         if(codigoAnt!=codigoAlarma){ 
15BF2:  MOVF   x33,W
15BF4:  SUBWF  x80,W
15BF6:  BTFSC  FD8.2
15BF8:  GOTO   15C06
....................                            codigoAnt=codigoAlarma; 
15BFC:  MOVFF  333,380
....................                            GuardaDatoCiclo();                   
15C00:  MOVLB  0
15C02:  CALL   8488
....................                         } 
....................                         Desfogando=ON; 
15C06:  MOVLB  0
15C08:  BSF    xA0.6
....................                         printf("Funcionamiento.t4f.txt=\" Ninguna\""); 
15C0A:  MOVLW  C2
15C0C:  MOVWF  FF6
15C0E:  MOVLW  19
15C10:  MOVWF  FF7
15C12:  MOVLW  00
15C14:  MOVWF  FF8
15C16:  CALL   4538
....................                         SendDataDisplay(); 
15C1A:  CALL   456A
....................                         printf("Funcionamiento.t5f.txt=\" Despresurizando\""); 
15C1E:  MOVLW  E4
15C20:  MOVWF  FF6
15C22:  MOVLW  19
15C24:  MOVWF  FF7
15C26:  MOVLW  00
15C28:  MOVWF  FF8
15C2A:  CALL   4538
....................                         SendDataDisplay(); 
15C2E:  CALL   456A
....................                         Control=0; 
15C32:  MOVLB  3
15C34:  CLRF   x3D
....................                         Controlando=0; 
15C36:  CLRF   x3F
....................                         Desfogue_on; 
15C38:  BCF    F8B.1
15C3A:  BCF    F94.1
....................                         if(!HIG){ 
15C3C:  MOVLB  0
15C3E:  BTFSC  xA5.6
15C40:  GOTO   15C54
....................                            SSR_off; 
15C44:  BCF    F8D.1
15C46:  BCF    F96.1
....................                            Paso_off; 
15C48:  BSF    F8B.0
15C4A:  BCF    F94.0
....................                            monitoreaNivelAlto(); 
15C4C:  CALL   8FCA
....................                         }else{ 
15C50:  GOTO   15C64
....................                            Paso_off; 
15C54:  BSF    F8B.0
15C56:  BCF    F94.0
....................                            ControlaPresion(); 
15C58:  CALL   5B82
....................                            apagaBombaAgua(); 
15C5C:  CALL   5C3E
....................                            Agua_off; 
15C60:  BSF    F8C.3
15C62:  BCF    F95.3
....................                         } 
....................                         BombaVacio_off; 
15C64:  BSF    F8B.5
15C66:  BCF    F94.5
....................                         Vacio_off; 
15C68:  BSF    F8B.2
15C6A:  BCF    F94.2
....................                         Aire_off;  
15C6C:  BSF    F8C.0
15C6E:  BCF    F95.0
....................                         SSR2_on; 
15C70:  BSF    F8D.2
15C72:  BCF    F96.2
15C74:  MOVLB  3
....................                         //SSR_off;    
....................                      } 
....................                   } 
....................                }else{ 
15C76:  GOTO   15D66
15C7A:  MOVLB  0
....................                   if(Temperatura<((float)Setpoint-0.9) && !Desfogando){ 
15C7C:  MOVLB  7
15C7E:  CLRF   x1B
15C80:  MOVFF  34E,71A
15C84:  MOVLB  0
15C86:  CALL   2088
15C8A:  MOVFF  00,708
15C8E:  MOVFF  01,709
15C92:  MOVFF  02,70A
15C96:  MOVFF  03,70B
15C9A:  BSF    FD8.1
15C9C:  MOVFF  70B,71D
15CA0:  MOVFF  70A,71C
15CA4:  MOVFF  709,71B
15CA8:  MOVFF  708,71A
15CAC:  MOVLW  66
15CAE:  MOVLB  7
15CB0:  MOVWF  x21
15CB2:  MOVWF  x20
15CB4:  MOVWF  x1F
15CB6:  MOVLW  7E
15CB8:  MOVWF  x1E
15CBA:  MOVLB  0
15CBC:  CALL   221C
15CC0:  MOVFF  316,711
15CC4:  MOVFF  315,710
15CC8:  MOVFF  314,70F
15CCC:  MOVFF  313,70E
15CD0:  MOVFF  03,715
15CD4:  MOVFF  02,714
15CD8:  MOVFF  01,713
15CDC:  MOVFF  00,712
15CE0:  CALL   2680
15CE4:  BTFSS  FD8.0
15CE6:  GOTO   15CF2
15CEA:  BTFSC  xA0.6
15CEC:  GOTO   15CF2
....................                      Esterilizando=OFF; 
15CF0:  BCF    xA0.3
....................                   } 
....................                   codigoAlarma=16; 
15CF2:  MOVLW  10
15CF4:  MOVLB  3
15CF6:  MOVWF  x33
....................                   if(codigoAnt!=codigoAlarma){ 
15CF8:  MOVF   x33,W
15CFA:  SUBWF  x80,W
15CFC:  BTFSC  FD8.2
15CFE:  GOTO   15D0E
....................                      codigoAnt=codigoAlarma; 
15D02:  MOVFF  333,380
....................                      GuardaDatoCiclo();                   
15D06:  MOVLB  0
15D08:  CALL   8488
15D0C:  MOVLB  3
....................                   } 
....................                   printf("Funcionamiento.t4f.txt=\" Ninguna\""); 
15D0E:  MOVLW  0E
15D10:  MOVWF  FF6
15D12:  MOVLW  1A
15D14:  MOVWF  FF7
15D16:  MOVLW  00
15D18:  MOVWF  FF8
15D1A:  MOVLB  0
15D1C:  CALL   4538
....................                   SendDataDisplay(); 
15D20:  CALL   456A
....................                   printf("Funcionamiento.t5f.txt=\" Esterilizando\""); 
15D24:  MOVLW  30
15D26:  MOVWF  FF6
15D28:  MOVLW  1A
15D2A:  MOVWF  FF7
15D2C:  MOVLW  00
15D2E:  MOVWF  FF8
15D30:  CALL   4538
....................                   SendDataDisplay(); 
15D34:  CALL   456A
....................                   Paso_on; 
15D38:  BCF    F8B.0
15D3A:  BCF    F94.0
....................                   Desfogue_off; 
15D3C:  BSF    F8B.1
15D3E:  BCF    F94.1
....................                   BombaVacio_off; 
15D40:  BSF    F8B.5
15D42:  BCF    F94.5
....................                   Agua_off; 
15D44:  BSF    F8C.3
15D46:  BCF    F95.3
....................                   Vacio_off; 
15D48:  BSF    F8B.2
15D4A:  BCF    F94.2
....................                   Aire_off;  
15D4C:  BSF    F8C.0
15D4E:  BCF    F95.0
....................                   SSR2_off; 
15D50:  BCF    F8D.2
15D52:  BCF    F96.2
....................                   //EV8_off; 
....................                   apagaBombaAgua(); 
15D54:  CALL   5C3E
....................                   Control=1; 
15D58:  MOVLW  01
15D5A:  MOVLB  3
15D5C:  MOVWF  x3D
....................                   Controla(); 
15D5E:  MOVLB  0
15D60:  CALL   8976
15D64:  MOVLB  3
....................                } 
....................             } 
....................          } 
....................       }  
....................       }else{ 
15D66:  GOTO   1617C
15D6A:  MOVLB  0
....................          if(flagImprime){ 
15D6C:  MOVLB  3
15D6E:  BTFSS  x3C.4
15D70:  GOTO   15D92
....................             Imprime=5; 
15D74:  MOVLW  05
15D76:  MOVWF  x99
....................             Envio_Esclavos(); 
15D78:  MOVLB  0
15D7A:  CALL   58A6
....................             delay_ms(100); 
15D7E:  MOVLW  64
15D80:  MOVLB  7
15D82:  MOVWF  x1E
15D84:  MOVLB  0
15D86:  CALL   2060
....................             Imprime=10; 
15D8A:  MOVLW  0A
15D8C:  MOVLB  3
15D8E:  MOVWF  x99
....................             flagImprime=0; 
15D90:  BCF    x3C.4
....................          } 
....................          SSR_off; 
15D92:  BCF    F8D.1
15D94:  BCF    F96.1
....................          SSR2_off; 
15D96:  BCF    F8D.2
15D98:  BCF    F96.2
....................          Buzzer_off; 
15D9A:  BCF    F8C.7
15D9C:  BCF    F95.7
....................          IniciaCiclo=ON; 
15D9E:  MOVLB  0
15DA0:  BSF    xA0.2
....................          if(!flag_vac){ 
15DA2:  BTFSC  xA4.3
15DA4:  GOTO   15E38
....................             codigoAlarma=11; 
15DA8:  MOVLW  0B
15DAA:  MOVLB  3
15DAC:  MOVWF  x33
....................             if(codigoAnt!=codigoAlarma){ 
15DAE:  MOVF   x33,W
15DB0:  SUBWF  x80,W
15DB2:  BTFSC  FD8.2
15DB4:  GOTO   15DC2
....................                codigoAnt=codigoAlarma; 
15DB8:  MOVFF  333,380
....................                GuardaDatoCiclo();                
15DBC:  MOVLB  0
15DBE:  CALL   8488
....................             } 
....................             flag_vac=ON; 
15DC2:  MOVLB  0
15DC4:  BSF    xA4.3
....................             Vacio_off; 
15DC6:  BSF    F8B.2
15DC8:  BCF    F94.2
....................             Desfogue_off; 
15DCA:  BSF    F8B.1
15DCC:  BCF    F94.1
....................             Aire_off; 
15DCE:  BSF    F8C.0
15DD0:  BCF    F95.0
....................             AireB_on; 
15DD2:  BCF    F8C.1
15DD4:  BCF    F95.1
....................             Paso_off; 
15DD6:  BSF    F8B.0
15DD8:  BCF    F94.0
....................             Agua_off; 
15DDA:  BSF    F8C.3
15DDC:  BCF    F95.3
....................             for(i=0;i<10;i++){ 
15DDE:  MOVLB  3
15DE0:  CLRF   x4A
15DE2:  MOVF   x4A,W
15DE4:  SUBLW  09
15DE6:  BTFSS  FD8.0
15DE8:  GOTO   15E14
....................                BombaVacio_on; 
15DEC:  BCF    F8B.5
15DEE:  BCF    F94.5
....................                delay_ms(100); 
15DF0:  MOVLW  64
15DF2:  MOVLB  7
15DF4:  MOVWF  x1E
15DF6:  MOVLB  0
15DF8:  CALL   2060
....................                BombaVacio_off; 
15DFC:  BSF    F8B.5
15DFE:  BCF    F94.5
....................                delay_ms(100); 
15E00:  MOVLW  64
15E02:  MOVLB  7
15E04:  MOVWF  x1E
15E06:  MOVLB  0
15E08:  CALL   2060
....................             } 
15E0C:  MOVLB  3
15E0E:  INCF   x4A,F
15E10:  GOTO   15DE2
....................             BombaVacio_on; 
15E14:  BCF    F8B.5
15E16:  BCF    F94.5
....................             delay_ms(7000); 
15E18:  MOVLW  1C
15E1A:  MOVLB  7
15E1C:  MOVWF  x08
15E1E:  MOVLW  FA
15E20:  MOVWF  x1E
15E22:  MOVLB  0
15E24:  CALL   2060
15E28:  MOVLB  7
15E2A:  DECFSZ x08,F
15E2C:  BRA    15E1E
....................             IniciaVacio2=ON; 
15E2E:  MOVLB  0
15E30:  BSF    xA4.1
....................             IniciaVacio=ON; 
15E32:  BSF    xA4.0
....................             Vacio_on; 
15E34:  BCF    F8B.2
15E36:  BCF    F94.2
....................          } 
....................           
....................          if(tbomba>=60){ 
15E38:  MOVLB  3
15E3A:  MOVF   x6E,F
15E3C:  BTFSS  FD8.2
15E3E:  GOTO   15E4C
15E42:  MOVF   x6D,W
15E44:  SUBLW  3B
15E46:  BTFSC  FD8.0
15E48:  GOTO   15E8A
....................             if(PresionCamara>(Atmosferica-2)){ 
15E4C:  MOVLW  02
15E4E:  SUBWF  x3A,W
15E50:  MOVWF  00
15E52:  MOVLW  00
15E54:  SUBWFB x3B,W
15E56:  MOVWF  03
15E58:  MOVFF  00,01
15E5C:  MOVF   03,W
15E5E:  SUBWF  x66,W
15E60:  BTFSS  FD8.0
15E62:  GOTO   15E80
15E66:  BTFSS  FD8.2
15E68:  GOTO   15E76
15E6C:  MOVF   x65,W
15E6E:  SUBWF  01,W
15E70:  BTFSC  FD8.0
15E72:  GOTO   15E80
....................                AlarmaBomba=ON; 
15E76:  MOVLB  0
15E78:  BSF    x9F.6
....................             }else{ 
15E7A:  GOTO   15E88
15E7E:  MOVLB  3
....................                tbomba=0; 
15E80:  CLRF   x6E
15E82:  CLRF   x6D
....................                IniciaVacio2=OFF; 
15E84:  MOVLB  0
15E86:  BCF    xA4.1
15E88:  MOVLB  3
....................             } 
....................          } 
....................           
....................          if(tvacio>840){//Si excede el tiempo maximo para generar los pulsos de vacio genera alarma             
15E8A:  MOVF   x70,W
15E8C:  SUBLW  02
15E8E:  BTFSC  FD8.0
15E90:  GOTO   15EAC
15E94:  XORLW  FF
15E96:  BTFSS  FD8.2
15E98:  GOTO   15EA6
15E9C:  MOVF   x6F,W
15E9E:  SUBLW  48
15EA0:  BTFSC  FD8.0
15EA2:  GOTO   15EAC
....................             AlarmaVacio=ON; 
15EA6:  MOVLB  0
15EA8:  BSF    x9F.7
15EAA:  MOVLB  3
....................          } 
....................           
....................          if(PresionCamara<=vacioTest){ 
15EAC:  MOVF   x66,F
15EAE:  BTFSS  FD8.2
15EB0:  GOTO   15EE6
15EB4:  MOVF   x65,W
15EB6:  SUBWF  x57,W
15EB8:  BTFSS  FD8.0
15EBA:  GOTO   15EE6
....................             Vacio_off; 
15EBE:  BSF    F8B.2
15EC0:  BCF    F94.2
....................             Desfogue_off; 
15EC2:  BSF    F8B.1
15EC4:  BCF    F94.1
....................             Aire_off; 
15EC6:  BSF    F8C.0
15EC8:  BCF    F95.0
....................             AireB_off; 
15ECA:  BSF    F8C.1
15ECC:  BCF    F95.1
....................             Paso_off; 
15ECE:  BSF    F8B.0
15ED0:  BCF    F94.0
....................             Agua_off; 
15ED2:  BSF    F8C.3
15ED4:  BCF    F95.3
....................             BombaVacio_off; 
15ED6:  BSF    F8B.5
15ED8:  BCF    F94.5
....................             Esterilizando=ON; 
15EDA:  MOVLB  0
15EDC:  BSF    xA0.3
....................             IniciaVacio=OFF; 
15EDE:  BCF    xA4.0
....................             tbomba=0; 
15EE0:  MOVLB  3
15EE2:  CLRF   x6E
15EE4:  CLRF   x6D
....................          }  
....................           
....................          if(!Finalizo){ 
15EE6:  MOVLB  0
15EE8:  BTFSC  xA3.0
15EEA:  GOTO   16042
....................             if(!Esterilizando){ 
15EEE:  BTFSC  xA0.3
15EF0:  GOTO   15F5C
....................                if(codigoAlarma==8){ 
15EF4:  MOVLB  3
15EF6:  MOVF   x33,W
15EF8:  SUBLW  08
15EFA:  BTFSS  FD8.2
15EFC:  GOTO   15F12
....................                   ActivaAlarma(2); 
15F00:  MOVLW  02
15F02:  MOVLB  7
15F04:  MOVWF  x08
15F06:  MOVLB  0
15F08:  CALL   608A
....................                }else{ 
15F0C:  GOTO   15F58
15F10:  MOVLB  3
....................                   Vacio_on; 
15F12:  BCF    F8B.2
15F14:  BCF    F94.2
....................                   Desfogue_off; 
15F16:  BSF    F8B.1
15F18:  BCF    F94.1
....................                   Aire_off; 
15F1A:  BSF    F8C.0
15F1C:  BCF    F95.0
....................                   AireB_off; 
15F1E:  BSF    F8C.1
15F20:  BCF    F95.1
....................                   Paso_off; 
15F22:  BSF    F8B.0
15F24:  BCF    F94.0
....................                   Agua_off; 
15F26:  BSF    F8C.3
15F28:  BCF    F95.3
....................                   BombaVacio_on; 
15F2A:  BCF    F8B.5
15F2C:  BCF    F94.5
....................                   printf("Funcionamiento.t4f.txt=\" Ninguna\""); 
15F2E:  MOVLW  58
15F30:  MOVWF  FF6
15F32:  MOVLW  1A
15F34:  MOVWF  FF7
15F36:  MOVLW  00
15F38:  MOVWF  FF8
15F3A:  MOVLB  0
15F3C:  CALL   4538
....................                   SendDataDisplay(); 
15F40:  CALL   456A
....................                   printf("Funcionamiento.t5f.txt=\" Vacio\""); 
15F44:  MOVLW  7A
15F46:  MOVWF  FF6
15F48:  MOVLW  1A
15F4A:  MOVWF  FF7
15F4C:  MOVLW  00
15F4E:  MOVWF  FF8
15F50:  CALL   4538
....................                   SendDataDisplay(); 
15F54:  CALL   456A
....................                } 
....................             }else{ 
15F58:  GOTO   16042
....................                if(PresionCamara>50){ 
15F5C:  MOVLB  3
15F5E:  MOVF   x66,F
15F60:  BTFSS  FD8.2
15F62:  GOTO   15F70
15F66:  MOVF   x65,W
15F68:  SUBLW  32
15F6A:  BTFSC  FD8.0
15F6C:  GOTO   16018
....................                   printf("Funcionamiento.t4f.txt=\" Error Ciclo\""); 
15F70:  MOVLW  9A
15F72:  MOVWF  FF6
15F74:  MOVLW  1A
15F76:  MOVWF  FF7
15F78:  MOVLW  00
15F7A:  MOVWF  FF8
15F7C:  MOVLB  0
15F7E:  CALL   4538
....................                   SendDataDisplay(); 
15F82:  CALL   456A
....................                   printf("Funcionamiento.t5f.txt=\" Finalizado\""); 
15F86:  MOVLW  C0
15F88:  MOVWF  FF6
15F8A:  MOVLW  1A
15F8C:  MOVWF  FF7
15F8E:  MOVLW  00
15F90:  MOVWF  FF8
15F92:  CALL   4538
....................                   SendDataDisplay(); 
15F96:  CALL   456A
....................                   codigoAlarma=8; 
15F9A:  MOVLW  08
15F9C:  MOVLB  3
15F9E:  MOVWF  x33
....................                   if(codigoAnt!=codigoAlarma){ 
15FA0:  MOVF   x33,W
15FA2:  SUBWF  x80,W
15FA4:  BTFSC  FD8.2
15FA6:  GOTO   15FB6
....................                      codigoAnt=codigoAlarma; 
15FAA:  MOVFF  333,380
....................                      GuardaDatoCiclo();                   
15FAE:  MOVLB  0
15FB0:  CALL   8488
15FB4:  MOVLB  3
....................                   } 
....................                   if(!flagImprimir){//Imprime Ciclo Finalizado 
15FB6:  BTFSC  x3C.5
15FB8:  GOTO   15FDA
....................                      Imprime=26; 
15FBC:  MOVLW  1A
15FBE:  MOVWF  x99
....................                      Envio_Esclavos(); 
15FC0:  MOVLB  0
15FC2:  CALL   58A6
....................                      delay_ms(100); 
15FC6:  MOVLW  64
15FC8:  MOVLB  7
15FCA:  MOVWF  x1E
15FCC:  MOVLB  0
15FCE:  CALL   2060
....................                      Imprime=10; 
15FD2:  MOVLW  0A
15FD4:  MOVLB  3
15FD6:  MOVWF  x99
....................                      flagImprimir=1; 
15FD8:  BSF    x3C.5
....................                   } 
....................                   IniciaVacio=OFF; 
15FDA:  MOVLB  0
15FDC:  BCF    xA4.0
....................                   tbomba=0; 
15FDE:  MOVLB  3
15FE0:  CLRF   x6E
15FE2:  CLRF   x6D
....................                   Vacio_off; 
15FE4:  BSF    F8B.2
15FE6:  BCF    F94.2
....................                   Desfogue_off; 
15FE8:  BSF    F8B.1
15FEA:  BCF    F94.1
....................                   Aire_on; 
15FEC:  BCF    F8C.0
15FEE:  BCF    F95.0
....................                   AireB_off; 
15FF0:  BSF    F8C.1
15FF2:  BCF    F95.1
....................                   Paso_off; 
15FF4:  BSF    F8B.0
15FF6:  BCF    F94.0
....................                   Agua_off; 
15FF8:  BSF    F8C.3
15FFA:  BCF    F95.3
....................                   BombaVacio_off; 
15FFC:  BSF    F8B.5
15FFE:  BCF    F94.5
....................                   ActivaAlarma(2); 
16000:  MOVLW  02
16002:  MOVLB  7
16004:  MOVWF  x08
16006:  MOVLB  0
16008:  CALL   608A
....................                   incrementaCiclos(); 
1600C:  CALL   883E
....................                   Esterilizando=OFF; 
16010:  BCF    xA0.3
....................                }else{ 
16012:  GOTO   16042
16016:  MOVLB  3
....................                   printf("Funcionamiento.t4f.txt=\" Ninguna\""); 
16018:  MOVLW  E6
1601A:  MOVWF  FF6
1601C:  MOVLW  1A
1601E:  MOVWF  FF7
16020:  MOVLW  00
16022:  MOVWF  FF8
16024:  MOVLB  0
16026:  CALL   4538
....................                   SendDataDisplay(); 
1602A:  CALL   456A
....................                   printf("Funcionamiento.t5f.txt=\" Manteniendo Vacio\""); 
1602E:  MOVLW  08
16030:  MOVWF  FF6
16032:  MOVLW  1B
16034:  MOVWF  FF7
16036:  MOVLW  00
16038:  MOVWF  FF8
1603A:  CALL   4538
....................                   SendDataDisplay(); 
1603E:  CALL   456A
....................                } 
....................             } 
....................          } 
....................           
....................          if(mEst==0 && sEst==0){                 
16042:  MOVF   xBC,F
16044:  BTFSS  FD8.2
16046:  GOTO   1617A
1604A:  MOVF   xBB,F
1604C:  BTFSS  FD8.2
1604E:  GOTO   1617A
....................             IniciaVacio=OFF; 
16052:  BCF    xA4.0
....................             tbomba=0; 
16054:  MOVLB  3
16056:  CLRF   x6E
16058:  CLRF   x6D
....................             BombaVacio_off; 
1605A:  BSF    F8B.5
1605C:  BCF    F94.5
....................             Vacio_off; 
1605E:  BSF    F8B.2
16060:  BCF    F94.2
....................             Desfogue_off; 
16062:  BSF    F8B.1
16064:  BCF    F94.1
....................             Aire_on; 
16066:  BCF    F8C.0
16068:  BCF    F95.0
....................             Paso_off; 
1606A:  BSF    F8B.0
1606C:  BCF    F94.0
....................             Agua_off; 
1606E:  BSF    F8C.3
16070:  BCF    F95.3
....................             ActivaAlarma(2); 
16072:  MOVLW  02
16074:  MOVLB  7
16076:  MOVWF  x08
16078:  MOVLB  0
1607A:  CALL   608A
....................             if(!Finalizo){ 
1607E:  BTFSC  xA3.0
16080:  GOTO   16174
....................                Finalizo=ON; 
16084:  BSF    xA3.0
....................                if(PresionCamara<=50){ 
16086:  MOVLB  3
16088:  MOVF   x66,F
1608A:  BTFSS  FD8.2
1608C:  GOTO   16108
16090:  MOVF   x65,W
16092:  SUBLW  32
16094:  BTFSS  FD8.0
16096:  GOTO   16108
....................                   printf("Funcionamiento.t4f.txt=\" Ninguna\""); 
1609A:  MOVLW  34
1609C:  MOVWF  FF6
1609E:  MOVLW  1B
160A0:  MOVWF  FF7
160A2:  MOVLW  00
160A4:  MOVWF  FF8
160A6:  MOVLB  0
160A8:  CALL   4538
....................                   SendDataDisplay(); 
160AC:  CALL   456A
....................                   printf("Funcionamiento.t5f.txt=\" Finalizado\""); 
160B0:  MOVLW  56
160B2:  MOVWF  FF6
160B4:  MOVLW  1B
160B6:  MOVWF  FF7
160B8:  MOVLW  00
160BA:  MOVWF  FF8
160BC:  CALL   4538
....................                   SendDataDisplay(); 
160C0:  CALL   456A
....................                   codigoAlarma=14; 
160C4:  MOVLW  0E
160C6:  MOVLB  3
160C8:  MOVWF  x33
....................                   if(codigoAnt!=codigoAlarma){ 
160CA:  MOVF   x33,W
160CC:  SUBWF  x80,W
160CE:  BTFSC  FD8.2
160D0:  GOTO   160E0
....................                      codigoAnt=codigoAlarma; 
160D4:  MOVFF  333,380
....................                      GuardaDatoCiclo();                   
160D8:  MOVLB  0
160DA:  CALL   8488
160DE:  MOVLB  3
....................                   } 
....................                   if(!flagImprimir){ 
160E0:  BTFSC  x3C.5
160E2:  GOTO   16104
....................                      Imprime=28; 
160E6:  MOVLW  1C
160E8:  MOVWF  x99
....................                      Envio_Esclavos(); 
160EA:  MOVLB  0
160EC:  CALL   58A6
....................                      delay_ms(100); 
160F0:  MOVLW  64
160F2:  MOVLB  7
160F4:  MOVWF  x1E
160F6:  MOVLB  0
160F8:  CALL   2060
....................                      Imprime=10; 
160FC:  MOVLW  0A
160FE:  MOVLB  3
16100:  MOVWF  x99
....................                      flagImprimir=1; 
16102:  BSF    x3C.5
....................                   } 
....................                }else{ 
16104:  GOTO   16172
....................                   printf("Funcionamiento.t4f.txt=\" Error Ciclo\""); 
16108:  MOVLW  7C
1610A:  MOVWF  FF6
1610C:  MOVLW  1B
1610E:  MOVWF  FF7
16110:  MOVLW  00
16112:  MOVWF  FF8
16114:  MOVLB  0
16116:  CALL   4538
....................                   SendDataDisplay(); 
1611A:  CALL   456A
....................                   printf("Funcionamiento.t5f.txt=\" Finalizado\""); 
1611E:  MOVLW  A2
16120:  MOVWF  FF6
16122:  MOVLW  1B
16124:  MOVWF  FF7
16126:  MOVLW  00
16128:  MOVWF  FF8
1612A:  CALL   4538
....................                   SendDataDisplay(); 
1612E:  CALL   456A
....................                   codigoAlarma=8; 
16132:  MOVLW  08
16134:  MOVLB  3
16136:  MOVWF  x33
....................                   if(codigoAnt!=codigoAlarma){ 
16138:  MOVF   x33,W
1613A:  SUBWF  x80,W
1613C:  BTFSC  FD8.2
1613E:  GOTO   1614E
....................                      codigoAnt=codigoAlarma; 
16142:  MOVFF  333,380
....................                      GuardaDatoCiclo();                   
16146:  MOVLB  0
16148:  CALL   8488
1614C:  MOVLB  3
....................                   } 
....................                   if(!flagImprimir){ 
1614E:  BTFSC  x3C.5
16150:  GOTO   16172
....................                      Imprime=27; 
16154:  MOVLW  1B
16156:  MOVWF  x99
....................                      Envio_Esclavos(); 
16158:  MOVLB  0
1615A:  CALL   58A6
....................                      delay_ms(100); 
1615E:  MOVLW  64
16160:  MOVLB  7
16162:  MOVWF  x1E
16164:  MOVLB  0
16166:  CALL   2060
....................                      Imprime=10; 
1616A:  MOVLW  0A
1616C:  MOVLB  3
1616E:  MOVWF  x99
....................                      flagImprimir=1; 
16170:  BSF    x3C.5
16172:  MOVLB  0
....................                   } 
....................                } 
....................             } 
....................             incrementaCiclos(); 
16174:  CALL   883E
....................             Esterilizando=OFF; 
16178:  BCF    xA0.3
1617A:  MOVLB  3
....................          } 
....................       } 
....................    } 
....................  
....................    if(tguarda>=180){ 
1617C:  MOVF   x37,F
1617E:  BTFSS  FD8.2
16180:  GOTO   1618E
16184:  MOVF   x36,W
16186:  SUBLW  B3
16188:  BTFSC  FD8.0
1618A:  GOTO   161A0
....................       if(!Ciclo) 
1618E:  MOVLB  0
16190:  BTFSC  xA1.5
16192:  GOTO   1619A
....................          GuardaDatoCiclo(); 
16196:  CALL   8488
....................       tguarda=0; 
1619A:  MOVLB  3
1619C:  CLRF   x37
1619E:  CLRF   x36
....................    } 
....................  
....................    if(Grafica==1){ 
161A0:  BTFSS  x3C.1
161A2:  GOTO   16306
....................       printf("add 14,0,%1.0f",Temperatura*0.5); 
161A6:  MOVFF  316,721
161AA:  MOVFF  315,720
161AE:  MOVFF  314,71F
161B2:  MOVFF  313,71E
161B6:  MOVLB  7
161B8:  CLRF   x25
161BA:  CLRF   x24
161BC:  CLRF   x23
161BE:  MOVLW  7E
161C0:  MOVWF  x22
161C2:  MOVLB  0
161C4:  CALL   4628
161C8:  MOVFF  00,708
161CC:  MOVFF  01,709
161D0:  MOVFF  02,70A
161D4:  MOVFF  03,70B
161D8:  MOVLW  C8
161DA:  MOVWF  FF6
161DC:  MOVLW  1B
161DE:  MOVWF  FF7
161E0:  MOVLW  00
161E2:  MOVWF  FF8
161E4:  MOVLW  09
161E6:  MOVLB  7
161E8:  MOVWF  x0D
161EA:  MOVLB  0
161EC:  CALL   5D0E
161F0:  MOVLW  00
161F2:  MOVWF  FE9
161F4:  MOVFF  70B,710
161F8:  MOVFF  70A,70F
161FC:  MOVFF  709,70E
16200:  MOVFF  708,70D
16204:  MOVLB  7
16206:  CLRF   x11
16208:  MOVLB  0
1620A:  CALL   5EE6
....................       SendDataDisplay(); 
1620E:  CALL   456A
....................       printf("add 14,1,%1.0f",PresionCamara*0.5); 
16212:  MOVFF  366,71B
16216:  MOVFF  365,71A
1621A:  CALL   2088
1621E:  MOVFF  03,721
16222:  MOVFF  02,720
16226:  MOVFF  01,71F
1622A:  MOVFF  00,71E
1622E:  MOVLB  7
16230:  CLRF   x25
16232:  CLRF   x24
16234:  CLRF   x23
16236:  MOVLW  7E
16238:  MOVWF  x22
1623A:  MOVLB  0
1623C:  CALL   4628
16240:  MOVFF  00,708
16244:  MOVFF  01,709
16248:  MOVFF  02,70A
1624C:  MOVFF  03,70B
16250:  MOVLW  D8
16252:  MOVWF  FF6
16254:  MOVLW  1B
16256:  MOVWF  FF7
16258:  MOVLW  00
1625A:  MOVWF  FF8
1625C:  MOVLW  09
1625E:  MOVLB  7
16260:  MOVWF  x0D
16262:  MOVLB  0
16264:  CALL   5D0E
16268:  MOVLW  00
1626A:  MOVWF  FE9
1626C:  MOVFF  70B,710
16270:  MOVFF  70A,70F
16274:  MOVFF  709,70E
16278:  MOVFF  708,70D
1627C:  MOVLB  7
1627E:  CLRF   x11
16280:  MOVLB  0
16282:  CALL   5EE6
....................       SendDataDisplay(); 
16286:  CALL   456A
....................       printf("add 14,2,%1.0f",PresionPreCamara*0.5); 
1628A:  MOVFF  368,71B
1628E:  MOVFF  367,71A
16292:  CALL   2088
16296:  MOVFF  03,721
1629A:  MOVFF  02,720
1629E:  MOVFF  01,71F
162A2:  MOVFF  00,71E
162A6:  MOVLB  7
162A8:  CLRF   x25
162AA:  CLRF   x24
162AC:  CLRF   x23
162AE:  MOVLW  7E
162B0:  MOVWF  x22
162B2:  MOVLB  0
162B4:  CALL   4628
162B8:  MOVFF  00,708
162BC:  MOVFF  01,709
162C0:  MOVFF  02,70A
162C4:  MOVFF  03,70B
162C8:  MOVLW  E8
162CA:  MOVWF  FF6
162CC:  MOVLW  1B
162CE:  MOVWF  FF7
162D0:  MOVLW  00
162D2:  MOVWF  FF8
162D4:  MOVLW  09
162D6:  MOVLB  7
162D8:  MOVWF  x0D
162DA:  MOVLB  0
162DC:  CALL   5D0E
162E0:  MOVLW  00
162E2:  MOVWF  FE9
162E4:  MOVFF  70B,710
162E8:  MOVFF  70A,70F
162EC:  MOVFF  709,70E
162F0:  MOVFF  708,70D
162F4:  MOVLB  7
162F6:  CLRF   x11
162F8:  MOVLB  0
162FA:  CALL   5EE6
....................       SendDataDisplay(); 
162FE:  CALL   456A
....................       Grafica=0; 
16302:  MOVLB  3
16304:  BCF    x3C.1
....................    } 
....................    if(Lectura==1)// Utilizado para visualizar la lectura de la temperatura 
16306:  BTFSS  x3C.0
16308:  GOTO   1667A
....................    {                       
....................       Lectura=0; 
1630C:  BCF    x3C.0
....................       printf("tuser.txt=\"%s\"",1); 
1630E:  MOVLW  F8
16310:  MOVWF  FF6
16312:  MOVLW  1B
16314:  MOVWF  FF7
16316:  MOVLW  00
16318:  MOVWF  FF8
1631A:  MOVLW  0B
1631C:  MOVLB  7
1631E:  MOVWF  x0D
16320:  MOVLB  0
16322:  CALL   5D0E
16326:  CLRF   FEA
16328:  MOVLW  01
1632A:  MOVWF  FE9
1632C:  GOTO   9032
16330:  MOVLW  22
16332:  BTFSS  F9E.4
16334:  GOTO   16332
16338:  MOVWF  FAD
....................       SendDataDisplay(); 
1633A:  CALL   456A
....................       printf("t6f.txt=\"%3.1fC\"",Temperatura); 
1633E:  MOVLW  08
16340:  MOVWF  FF6
16342:  MOVLW  1C
16344:  MOVWF  FF7
16346:  MOVLW  00
16348:  MOVWF  FF8
1634A:  MOVLW  09
1634C:  MOVLB  7
1634E:  MOVWF  x0D
16350:  MOVLB  0
16352:  CALL   5D0E
16356:  MOVLW  02
16358:  MOVWF  FE9
1635A:  MOVFF  316,710
1635E:  MOVFF  315,70F
16362:  MOVFF  314,70E
16366:  MOVFF  313,70D
1636A:  MOVLW  01
1636C:  MOVLB  7
1636E:  MOVWF  x11
16370:  MOVLB  0
16372:  CALL   5EE6
16376:  MOVLW  B0
16378:  BTFSS  F9E.4
1637A:  GOTO   16378
1637E:  MOVWF  FAD
16380:  MOVLW  43
16382:  BTFSS  F9E.4
16384:  GOTO   16382
16388:  MOVWF  FAD
1638A:  MOVLW  22
1638C:  BTFSS  F9E.4
1638E:  GOTO   1638C
16392:  MOVWF  FAD
....................       SendDataDisplay(); 
16394:  CALL   456A
....................       printf("Funcionamiento.t7f.txt=\"%03LukPa\"",PresionCamara); 
16398:  MOVLW  1A
1639A:  MOVWF  FF6
1639C:  MOVLW  1C
1639E:  MOVWF  FF7
163A0:  MOVLW  00
163A2:  MOVWF  FF8
163A4:  MOVLW  18
163A6:  MOVLB  7
163A8:  MOVWF  x0D
163AA:  MOVLB  0
163AC:  CALL   5D0E
163B0:  MOVLW  0A
163B2:  MOVWF  FE9
163B4:  MOVFF  366,70D
163B8:  MOVFF  365,70C
163BC:  CALL   63A8
163C0:  MOVLW  37
163C2:  MOVWF  FF6
163C4:  MOVLW  1C
163C6:  MOVWF  FF7
163C8:  MOVLW  00
163CA:  MOVWF  FF8
163CC:  MOVLW  04
163CE:  MOVLB  7
163D0:  MOVWF  x0D
163D2:  MOVLB  0
163D4:  CALL   5D0E
....................       SendDataDisplay(); 
163D8:  CALL   456A
....................       printf("Funcionamiento.t12f.txt=\"%03LukPa\"",PresionPreCamara); 
163DC:  MOVLW  3C
163DE:  MOVWF  FF6
163E0:  MOVLW  1C
163E2:  MOVWF  FF7
163E4:  MOVLW  00
163E6:  MOVWF  FF8
163E8:  MOVLW  19
163EA:  MOVLB  7
163EC:  MOVWF  x0D
163EE:  MOVLB  0
163F0:  CALL   5D0E
163F4:  MOVLW  0A
163F6:  MOVWF  FE9
163F8:  MOVFF  368,70D
163FC:  MOVFF  367,70C
16400:  CALL   63A8
16404:  MOVLW  5A
16406:  MOVWF  FF6
16408:  MOVLW  1C
1640A:  MOVWF  FF7
1640C:  MOVLW  00
1640E:  MOVWF  FF8
16410:  MOVLW  04
16412:  MOVLB  7
16414:  MOVWF  x0D
16416:  MOVLB  0
16418:  CALL   5D0E
....................       SendDataDisplay(); 
1641C:  CALL   456A
....................       if(!Fugas){ 
16420:  BTFSC  xA3.4
16422:  GOTO   16460
....................          printf("Funcionamiento.t9f.txt=\"%03u\"",Setpoint); 
16426:  MOVLW  60
16428:  MOVWF  FF6
1642A:  MOVLW  1C
1642C:  MOVWF  FF7
1642E:  MOVLW  00
16430:  MOVWF  FF8
16432:  MOVLW  18
16434:  MOVLB  7
16436:  MOVWF  x0D
16438:  MOVLB  0
1643A:  CALL   5D0E
1643E:  MOVFF  34E,70D
16442:  MOVLW  03
16444:  MOVLB  7
16446:  MOVWF  x0E
16448:  MOVLB  0
1644A:  CALL   632A
1644E:  MOVLW  22
16450:  BTFSS  F9E.4
16452:  GOTO   16450
16456:  MOVWF  FAD
....................          SendDataDisplay();       
16458:  CALL   456A
....................       }else{ 
1645C:  GOTO   16474
....................          printf("Funcionamiento.t9f.txt=\"---\""); 
16460:  MOVLW  7E
16462:  MOVWF  FF6
16464:  MOVLW  1C
16466:  MOVWF  FF7
16468:  MOVLW  00
1646A:  MOVWF  FF8
1646C:  CALL   4538
....................          SendDataDisplay();       
16470:  CALL   456A
....................       } 
....................       printf("Funcionamiento.t10f.txt=\"%02u\"",mEst); 
16474:  MOVLW  9C
16476:  MOVWF  FF6
16478:  MOVLW  1C
1647A:  MOVWF  FF7
1647C:  MOVLW  00
1647E:  MOVWF  FF8
16480:  MOVLW  19
16482:  MOVLB  7
16484:  MOVWF  x0D
16486:  MOVLB  0
16488:  CALL   5D0E
1648C:  MOVFF  BC,70D
16490:  MOVLW  01
16492:  MOVLB  7
16494:  MOVWF  x0E
16496:  MOVLB  0
16498:  CALL   632A
1649C:  MOVLW  22
1649E:  BTFSS  F9E.4
164A0:  GOTO   1649E
164A4:  MOVWF  FAD
....................       SendDataDisplay();       
164A6:  CALL   456A
....................       printf("Funcionamiento.t13f.txt=\"%02u\"",sEst); 
164AA:  MOVLW  BC
164AC:  MOVWF  FF6
164AE:  MOVLW  1C
164B0:  MOVWF  FF7
164B2:  MOVLW  00
164B4:  MOVWF  FF8
164B6:  MOVLW  19
164B8:  MOVLB  7
164BA:  MOVWF  x0D
164BC:  MOVLB  0
164BE:  CALL   5D0E
164C2:  MOVFF  BB,70D
164C6:  MOVLW  01
164C8:  MOVLB  7
164CA:  MOVWF  x0E
164CC:  MOVLB  0
164CE:  CALL   632A
164D2:  MOVLW  22
164D4:  BTFSS  F9E.4
164D6:  GOTO   164D4
164DA:  MOVWF  FAD
....................       SendDataDisplay();       
164DC:  CALL   456A
....................       printf("Funcionamiento.t11f.txt=\"%02u\"",mSec); 
164E0:  MOVLW  DC
164E2:  MOVWF  FF6
164E4:  MOVLW  1C
164E6:  MOVWF  FF7
164E8:  MOVLW  00
164EA:  MOVWF  FF8
164EC:  MOVLW  19
164EE:  MOVLB  7
164F0:  MOVWF  x0D
164F2:  MOVLB  0
164F4:  CALL   5D0E
164F8:  MOVFF  BE,70D
164FC:  MOVLW  01
164FE:  MOVLB  7
16500:  MOVWF  x0E
16502:  MOVLB  0
16504:  CALL   632A
16508:  MOVLW  22
1650A:  BTFSS  F9E.4
1650C:  GOTO   1650A
16510:  MOVWF  FAD
....................       SendDataDisplay();       
16512:  CALL   456A
....................       printf("Funcionamiento.t16f.txt=\"%02u\"",sSec); 
16516:  MOVLW  FC
16518:  MOVWF  FF6
1651A:  MOVLW  1C
1651C:  MOVWF  FF7
1651E:  MOVLW  00
16520:  MOVWF  FF8
16522:  MOVLW  19
16524:  MOVLB  7
16526:  MOVWF  x0D
16528:  MOVLB  0
1652A:  CALL   5D0E
1652E:  MOVFF  BD,70D
16532:  MOVLW  01
16534:  MOVLB  7
16536:  MOVWF  x0E
16538:  MOVLB  0
1653A:  CALL   632A
1653E:  MOVLW  22
16540:  BTFSS  F9E.4
16542:  GOTO   16540
16546:  MOVWF  FAD
....................       SendDataDisplay();       
16548:  CALL   456A
....................        
....................       printf("fecha.txt=\"Fecha:%02u/%02u/20%02u    Hora: %02u:%02u:%02u\"",Dia,Mes,Year,Hora,Minuto,Segundo); 
1654C:  MOVLW  1C
1654E:  MOVWF  FF6
16550:  MOVLW  1D
16552:  MOVWF  FF7
16554:  MOVLW  00
16556:  MOVWF  FF8
16558:  MOVLW  11
1655A:  MOVLB  7
1655C:  MOVWF  x0D
1655E:  MOVLB  0
16560:  CALL   5D0E
16564:  MOVFF  38D,70D
16568:  MOVLW  01
1656A:  MOVLB  7
1656C:  MOVWF  x0E
1656E:  MOVLB  0
16570:  CALL   632A
16574:  MOVLW  2F
16576:  BTFSS  F9E.4
16578:  GOTO   16576
1657C:  MOVWF  FAD
1657E:  MOVFF  38C,70D
16582:  MOVLW  01
16584:  MOVLB  7
16586:  MOVWF  x0E
16588:  MOVLB  0
1658A:  CALL   632A
1658E:  MOVLW  2F
16590:  BTFSS  F9E.4
16592:  GOTO   16590
16596:  MOVWF  FAD
16598:  MOVLW  32
1659A:  BTFSS  F9E.4
1659C:  GOTO   1659A
165A0:  MOVWF  FAD
165A2:  MOVLW  30
165A4:  BTFSS  F9E.4
165A6:  GOTO   165A4
165AA:  MOVWF  FAD
165AC:  MOVFF  38B,70D
165B0:  MOVLW  01
165B2:  MOVLB  7
165B4:  MOVWF  x0E
165B6:  MOVLB  0
165B8:  CALL   632A
165BC:  MOVLW  3D
165BE:  MOVWF  FF6
165C0:  MOVLW  1D
165C2:  MOVWF  FF7
165C4:  MOVLW  00
165C6:  MOVWF  FF8
165C8:  MOVLW  0A
165CA:  MOVLB  7
165CC:  MOVWF  x0D
165CE:  MOVLB  0
165D0:  CALL   5D0E
165D4:  MOVFF  38E,70D
165D8:  MOVLW  01
165DA:  MOVLB  7
165DC:  MOVWF  x0E
165DE:  MOVLB  0
165E0:  CALL   632A
165E4:  MOVLW  3A
165E6:  BTFSS  F9E.4
165E8:  GOTO   165E6
165EC:  MOVWF  FAD
165EE:  MOVFF  38F,70D
165F2:  MOVLW  01
165F4:  MOVLB  7
165F6:  MOVWF  x0E
165F8:  MOVLB  0
165FA:  CALL   632A
165FE:  MOVLW  3A
16600:  BTFSS  F9E.4
16602:  GOTO   16600
16606:  MOVWF  FAD
16608:  MOVFF  390,70D
1660C:  MOVLW  01
1660E:  MOVLB  7
16610:  MOVWF  x0E
16612:  MOVLB  0
16614:  CALL   632A
16618:  MOVLW  22
1661A:  BTFSS  F9E.4
1661C:  GOTO   1661A
16620:  MOVWF  FAD
....................       SendDataDisplay(); 
16622:  CALL   456A
....................        
....................       if(LEFT && Finalizo){ 
16626:  BSF    F93.3
16628:  BTFSC  F81.3
1662A:  GOTO   16676
1662E:  BTFSS  xA3.0
16630:  GOTO   16676
....................          delay_ms(1000); 
16634:  MOVLW  04
16636:  MOVLB  7
16638:  MOVWF  x08
1663A:  MOVLW  FA
1663C:  MOVWF  x1E
1663E:  MOVLB  0
16640:  CALL   2060
16644:  MOVLB  7
16646:  DECFSZ x08,F
16648:  BRA    1663A
....................          if(LEFT && Finalizo){ 
1664A:  BSF    F93.3
1664C:  BTFSC  F81.3
1664E:  GOTO   16678
16652:  MOVLB  0
16654:  BTFSC  xA3.0
16656:  BRA    1665E
16658:  MOVLB  7
1665A:  GOTO   16678
....................             printf("page MenuPrincipal"); 
1665E:  MOVLW  58
16660:  MOVWF  FF6
16662:  MOVLW  1D
16664:  MOVWF  FF7
16666:  MOVLW  00
16668:  MOVWF  FF8
1666A:  CALL   4538
....................             SendDataDisplay(); 
1666E:  CALL   456A
....................             borraVariables(); 
16672:  GOTO   905A
16676:  MOVLB  7
16678:  MOVLB  3
....................          } 
....................       } 
....................    } 
.................... } 
.................... //_-------------------------------------------------------------------------------------------------------------------------------------------------------- 
....................  
.................... //_-------------------------------------------------------------------------------------------------------------------------------------------------------- 
....................       if(Menu==100){ //Menu de Configuracin de Parametros de Control 
1667A:  MOVF   x47,W
1667C:  SUBLW  64
1667E:  BTFSS  FD8.2
16680:  GOTO   17E46
....................       Buzzer_off; 
16684:  BCF    F8C.7
16686:  BCF    F95.7
....................       SSR2_off; 
16688:  BCF    F8D.2
1668A:  BCF    F96.2
....................       if(Opcion2>16) 
1668C:  MOVF   x50,W
1668E:  SUBLW  10
16690:  BTFSC  FD8.0
16692:  GOTO   1669A
....................          Opcion2=1; 
16696:  MOVLW  01
16698:  MOVWF  x50
....................       if(Opcion2<1) 
1669A:  MOVF   x50,F
1669C:  BTFSS  FD8.2
1669E:  GOTO   166A6
....................          Opcion2=16; 
166A2:  MOVLW  10
166A4:  MOVWF  x50
....................        
....................       if(Opcion2==1){ 
166A6:  DECFSZ x50,W
166A8:  GOTO   1684A
....................          printf("Config.t2c.txt=\"Proporcional\""); 
166AC:  MOVLW  6C
166AE:  MOVWF  FF6
166B0:  MOVLW  1D
166B2:  MOVWF  FF7
166B4:  MOVLW  00
166B6:  MOVWF  FF8
166B8:  MOVLB  0
166BA:  CALL   4538
....................          SendDataDisplay();       
166BE:  CALL   456A
....................          printf("t3c.txt=\"%2.0f\"",Ganancia); 
166C2:  MOVLW  8A
166C4:  MOVWF  FF6
166C6:  MOVLW  1D
166C8:  MOVWF  FF7
166CA:  MOVLW  00
166CC:  MOVWF  FF8
166CE:  MOVLW  09
166D0:  MOVLB  7
166D2:  MOVWF  x0D
166D4:  MOVLB  0
166D6:  CALL   5D0E
166DA:  MOVLW  01
166DC:  MOVWF  FE9
166DE:  MOVFF  2F6,710
166E2:  MOVFF  2F5,70F
166E6:  MOVFF  2F4,70E
166EA:  MOVFF  2F3,70D
166EE:  MOVLB  7
166F0:  CLRF   x11
166F2:  MOVLB  0
166F4:  CALL   5EE6
166F8:  MOVLW  22
166FA:  BTFSS  F9E.4
166FC:  GOTO   166FA
16700:  MOVWF  FAD
....................          SendDataDisplay(); 
16702:  CALL   456A
....................          if(RX_Buffer[4]==0x0a || UP){//Tecla Arriba Oprimida 
16706:  MOVF   34,W
16708:  SUBLW  0A
1670A:  BTFSC  FD8.2
1670C:  GOTO   16718
16710:  BSF    F93.0
16712:  BTFSC  F81.0
16714:  GOTO   1676E
....................             delay_ms(20); 
16718:  MOVLW  14
1671A:  MOVLB  7
1671C:  MOVWF  x1E
1671E:  MOVLB  0
16720:  CALL   2060
....................             if(RX_Buffer[4]==0x0a || UP){ 
16724:  MOVF   34,W
16726:  SUBLW  0A
16728:  BTFSC  FD8.2
1672A:  GOTO   16736
1672E:  BSF    F93.0
16730:  BTFSC  F81.0
16732:  GOTO   1676E
....................                Ganancia+=1.0; 
16736:  BCF    FD8.1
16738:  MOVFF  2F6,71D
1673C:  MOVFF  2F5,71C
16740:  MOVFF  2F4,71B
16744:  MOVFF  2F3,71A
16748:  MOVLB  7
1674A:  CLRF   x21
1674C:  CLRF   x20
1674E:  CLRF   x1F
16750:  MOVLW  7F
16752:  MOVWF  x1E
16754:  MOVLB  0
16756:  CALL   221C
1675A:  MOVFF  03,2F6
1675E:  MOVFF  02,2F5
16762:  MOVFF  01,2F4
16766:  MOVFF  00,2F3
....................                RX_Buffer[4]=0x00;   
1676A:  CLRF   34
....................                RX_Buffer2[4]=0x00;             
1676C:  CLRF   3F
....................             } 
....................          } 
....................              
....................          if(RX_Buffer[4]==0x0b || DOWN){//Tecla Abajo Oprimida 
1676E:  MOVF   34,W
16770:  SUBLW  0B
16772:  BTFSC  FD8.2
16774:  GOTO   16780
16778:  BSF    F93.1
1677A:  BTFSC  F81.1
1677C:  GOTO   167D6
....................             delay_ms(20); 
16780:  MOVLW  14
16782:  MOVLB  7
16784:  MOVWF  x1E
16786:  MOVLB  0
16788:  CALL   2060
....................             if(RX_Buffer[4]==0x0b || DOWN){ 
1678C:  MOVF   34,W
1678E:  SUBLW  0B
16790:  BTFSC  FD8.2
16792:  GOTO   1679E
16796:  BSF    F93.1
16798:  BTFSC  F81.1
1679A:  GOTO   167D6
....................                Ganancia-=1.0; 
1679E:  BSF    FD8.1
167A0:  MOVFF  2F6,71D
167A4:  MOVFF  2F5,71C
167A8:  MOVFF  2F4,71B
167AC:  MOVFF  2F3,71A
167B0:  MOVLB  7
167B2:  CLRF   x21
167B4:  CLRF   x20
167B6:  CLRF   x1F
167B8:  MOVLW  7F
167BA:  MOVWF  x1E
167BC:  MOVLB  0
167BE:  CALL   221C
167C2:  MOVFF  03,2F6
167C6:  MOVFF  02,2F5
167CA:  MOVFF  01,2F4
167CE:  MOVFF  00,2F3
....................                RX_Buffer[4]=0x00; 
167D2:  CLRF   34
....................                RX_Buffer2[4]=0x00;             
167D4:  CLRF   3F
....................             } 
....................          } 
....................           
....................          if(Ganancia>40) 
167D6:  MOVLB  7
167D8:  CLRF   x11
167DA:  CLRF   x10
167DC:  MOVLW  20
167DE:  MOVWF  x0F
167E0:  MOVLW  84
167E2:  MOVWF  x0E
167E4:  MOVFF  2F6,715
167E8:  MOVFF  2F5,714
167EC:  MOVFF  2F4,713
167F0:  MOVFF  2F3,712
167F4:  MOVLB  0
167F6:  CALL   2680
167FA:  BTFSS  FD8.0
167FC:  GOTO   1680C
....................             Ganancia=1; 
16800:  MOVLB  2
16802:  CLRF   xF6
16804:  CLRF   xF5
16806:  CLRF   xF4
16808:  MOVLW  7F
1680A:  MOVWF  xF3
....................          if(Ganancia<1) 
1680C:  MOVFF  2F6,711
16810:  MOVFF  2F5,710
16814:  MOVFF  2F4,70F
16818:  MOVFF  2F3,70E
1681C:  MOVLB  7
1681E:  CLRF   x15
16820:  CLRF   x14
16822:  CLRF   x13
16824:  MOVLW  7F
16826:  MOVWF  x12
16828:  MOVLB  0
1682A:  CALL   2680
1682E:  BTFSS  FD8.0
16830:  GOTO   16844
....................             Ganancia=40; 
16834:  MOVLB  2
16836:  CLRF   xF6
16838:  CLRF   xF5
1683A:  MOVLW  20
1683C:  MOVWF  xF4
1683E:  MOVLW  84
16840:  MOVWF  xF3
16842:  MOVLB  0
....................       }else if(Opcion2==2){ 
16844:  GOTO   1761C
16848:  MOVLB  3
1684A:  MOVF   x50,W
1684C:  SUBLW  02
1684E:  BTFSS  FD8.2
16850:  GOTO   16934
....................          printf("Config.t2c.txt=\"Derivativo\""); 
16854:  MOVLW  9A
16856:  MOVWF  FF6
16858:  MOVLW  1D
1685A:  MOVWF  FF7
1685C:  MOVLW  00
1685E:  MOVWF  FF8
16860:  MOVLB  0
16862:  CALL   4538
....................          SendDataDisplay();       
16866:  CALL   456A
....................          printf("t3c.txt=\"%u\"",Derivativo); 
1686A:  MOVLW  B6
1686C:  MOVWF  FF6
1686E:  MOVLW  1D
16870:  MOVWF  FF7
16872:  MOVLW  00
16874:  MOVWF  FF8
16876:  MOVLW  09
16878:  MOVLB  7
1687A:  MOVWF  x0D
1687C:  MOVLB  0
1687E:  CALL   5D0E
16882:  MOVFF  32C,70D
16886:  MOVLW  1B
16888:  MOVLB  7
1688A:  MOVWF  x0E
1688C:  MOVLB  0
1688E:  CALL   632A
16892:  MOVLW  22
16894:  BTFSS  F9E.4
16896:  GOTO   16894
1689A:  MOVWF  FAD
....................          SendDataDisplay(); 
1689C:  CALL   456A
....................          if(RX_Buffer[4]==0x0a || UP){//Tecla Arriba Oprimida 
168A0:  MOVF   34,W
168A2:  SUBLW  0A
168A4:  BTFSC  FD8.2
168A6:  GOTO   168B2
168AA:  BSF    F93.0
168AC:  BTFSC  F81.0
168AE:  GOTO   168DA
....................             delay_ms(20); 
168B2:  MOVLW  14
168B4:  MOVLB  7
168B6:  MOVWF  x1E
168B8:  MOVLB  0
168BA:  CALL   2060
....................             if(RX_Buffer[4]==0x0a || UP){ 
168BE:  MOVF   34,W
168C0:  SUBLW  0A
168C2:  BTFSC  FD8.2
168C4:  GOTO   168D0
168C8:  BSF    F93.0
168CA:  BTFSC  F81.0
168CC:  GOTO   168DA
....................                Derivativo++; 
168D0:  MOVLB  3
168D2:  INCF   x2C,F
....................                RX_Buffer[4]=0x00;   
168D4:  CLRF   34
....................                RX_Buffer2[4]=0x00;                            
168D6:  CLRF   3F
168D8:  MOVLB  0
....................             } 
....................          } 
....................              
....................          if(RX_Buffer[4]==0x0b || DOWN){//Tecla Abajo Oprimida 
168DA:  MOVF   34,W
168DC:  SUBLW  0B
168DE:  BTFSC  FD8.2
168E0:  GOTO   168EC
168E4:  BSF    F93.1
168E6:  BTFSC  F81.1
168E8:  GOTO   16914
....................             delay_ms(20); 
168EC:  MOVLW  14
168EE:  MOVLB  7
168F0:  MOVWF  x1E
168F2:  MOVLB  0
168F4:  CALL   2060
....................             if(RX_Buffer[4]==0x0b || DOWN){ 
168F8:  MOVF   34,W
168FA:  SUBLW  0B
168FC:  BTFSC  FD8.2
168FE:  GOTO   1690A
16902:  BSF    F93.1
16904:  BTFSC  F81.1
16906:  GOTO   16914
....................                Derivativo--; 
1690A:  MOVLB  3
1690C:  DECF   x2C,F
....................                RX_Buffer[4]=0x00; 
1690E:  CLRF   34
....................                RX_Buffer2[4]=0x00;                            
16910:  CLRF   3F
16912:  MOVLB  0
....................             } 
....................          } 
....................           
....................          if(Derivativo>40) 
16914:  MOVLB  3
16916:  MOVF   x2C,W
16918:  SUBLW  28
1691A:  BTFSC  FD8.0
1691C:  GOTO   16924
....................             Derivativo=1; 
16920:  MOVLW  01
16922:  MOVWF  x2C
....................          if(Derivativo<1) 
16924:  MOVF   x2C,F
16926:  BTFSS  FD8.2
16928:  GOTO   16930
....................             Derivativo=40; 
1692C:  MOVLW  28
1692E:  MOVWF  x2C
....................       }else if(Opcion2==3){ 
16930:  GOTO   1761A
16934:  MOVF   x50,W
16936:  SUBLW  03
16938:  BTFSS  FD8.2
1693A:  GOTO   16A1E
....................          printf("Config.t2c.txt=\"Integral\""); 
1693E:  MOVLW  C4
16940:  MOVWF  FF6
16942:  MOVLW  1D
16944:  MOVWF  FF7
16946:  MOVLW  00
16948:  MOVWF  FF8
1694A:  MOVLB  0
1694C:  CALL   4538
....................          SendDataDisplay();       
16950:  CALL   456A
....................          printf("t3c.txt=\"%u\"",Integral); 
16954:  MOVLW  DE
16956:  MOVWF  FF6
16958:  MOVLW  1D
1695A:  MOVWF  FF7
1695C:  MOVLW  00
1695E:  MOVWF  FF8
16960:  MOVLW  09
16962:  MOVLB  7
16964:  MOVWF  x0D
16966:  MOVLB  0
16968:  CALL   5D0E
1696C:  MOVFF  32B,70D
16970:  MOVLW  1B
16972:  MOVLB  7
16974:  MOVWF  x0E
16976:  MOVLB  0
16978:  CALL   632A
1697C:  MOVLW  22
1697E:  BTFSS  F9E.4
16980:  GOTO   1697E
16984:  MOVWF  FAD
....................          SendDataDisplay(); 
16986:  CALL   456A
....................          if(RX_Buffer[4]==0x0a || UP){//Tecla Arriba Oprimida 
1698A:  MOVF   34,W
1698C:  SUBLW  0A
1698E:  BTFSC  FD8.2
16990:  GOTO   1699C
16994:  BSF    F93.0
16996:  BTFSC  F81.0
16998:  GOTO   169C4
....................             delay_ms(20); 
1699C:  MOVLW  14
1699E:  MOVLB  7
169A0:  MOVWF  x1E
169A2:  MOVLB  0
169A4:  CALL   2060
....................             if(RX_Buffer[4]==0x0a || UP){ 
169A8:  MOVF   34,W
169AA:  SUBLW  0A
169AC:  BTFSC  FD8.2
169AE:  GOTO   169BA
169B2:  BSF    F93.0
169B4:  BTFSC  F81.0
169B6:  GOTO   169C4
....................                Integral++; 
169BA:  MOVLB  3
169BC:  INCF   x2B,F
....................                RX_Buffer[4]=0x00;   
169BE:  CLRF   34
....................                RX_Buffer2[4]=0x00;             
169C0:  CLRF   3F
169C2:  MOVLB  0
....................             } 
....................          } 
....................              
....................          if(RX_Buffer[4]==0x0b || DOWN){//Tecla Abajo Oprimida 
169C4:  MOVF   34,W
169C6:  SUBLW  0B
169C8:  BTFSC  FD8.2
169CA:  GOTO   169D6
169CE:  BSF    F93.1
169D0:  BTFSC  F81.1
169D2:  GOTO   169FE
....................             delay_ms(20); 
169D6:  MOVLW  14
169D8:  MOVLB  7
169DA:  MOVWF  x1E
169DC:  MOVLB  0
169DE:  CALL   2060
....................             if(RX_Buffer[4]==0x0b || DOWN){ 
169E2:  MOVF   34,W
169E4:  SUBLW  0B
169E6:  BTFSC  FD8.2
169E8:  GOTO   169F4
169EC:  BSF    F93.1
169EE:  BTFSC  F81.1
169F0:  GOTO   169FE
....................                Integral--; 
169F4:  MOVLB  3
169F6:  DECF   x2B,F
....................                RX_Buffer[4]=0x00; 
169F8:  CLRF   34
....................                RX_Buffer2[4]=0x00;                            
169FA:  CLRF   3F
169FC:  MOVLB  0
....................             } 
....................          } 
....................           
....................          if(Integral>4) 
169FE:  MOVLB  3
16A00:  MOVF   x2B,W
16A02:  SUBLW  04
16A04:  BTFSC  FD8.0
16A06:  GOTO   16A0E
....................             Integral=1; 
16A0A:  MOVLW  01
16A0C:  MOVWF  x2B
....................          if(Integral<1) 
16A0E:  MOVF   x2B,F
16A10:  BTFSS  FD8.2
16A12:  GOTO   16A1A
....................             Integral=4; 
16A16:  MOVLW  04
16A18:  MOVWF  x2B
....................       }else if(Opcion2==4){ 
16A1A:  GOTO   1761A
16A1E:  MOVF   x50,W
16A20:  SUBLW  04
16A22:  BTFSS  FD8.2
16A24:  GOTO   16BCA
....................          printf("Config.t2c.txt=\"Tciclo\""); 
16A28:  MOVLW  EC
16A2A:  MOVWF  FF6
16A2C:  MOVLW  1D
16A2E:  MOVWF  FF7
16A30:  MOVLW  00
16A32:  MOVWF  FF8
16A34:  MOVLB  0
16A36:  CALL   4538
....................          SendDataDisplay();       
16A3A:  CALL   456A
....................          printf("t3c.txt=\"%2.0f\"",Tciclo); 
16A3E:  MOVLW  04
16A40:  MOVWF  FF6
16A42:  MOVLW  1E
16A44:  MOVWF  FF7
16A46:  MOVLW  00
16A48:  MOVWF  FF8
16A4A:  MOVLW  09
16A4C:  MOVLB  7
16A4E:  MOVWF  x0D
16A50:  MOVLB  0
16A52:  CALL   5D0E
16A56:  MOVLW  01
16A58:  MOVWF  FE9
16A5A:  MOVFF  2DE,710
16A5E:  MOVFF  2DD,70F
16A62:  MOVFF  2DC,70E
16A66:  MOVFF  2DB,70D
16A6A:  MOVLB  7
16A6C:  CLRF   x11
16A6E:  MOVLB  0
16A70:  CALL   5EE6
16A74:  MOVLW  22
16A76:  BTFSS  F9E.4
16A78:  GOTO   16A76
16A7C:  MOVWF  FAD
....................          SendDataDisplay(); 
16A7E:  CALL   456A
....................          if(RX_Buffer[4]==0x0a || UP){//Tecla Arriba Oprimida 
16A82:  MOVF   34,W
16A84:  SUBLW  0A
16A86:  BTFSC  FD8.2
16A88:  GOTO   16A94
16A8C:  BSF    F93.0
16A8E:  BTFSC  F81.0
16A90:  GOTO   16AEA
....................             delay_ms(20); 
16A94:  MOVLW  14
16A96:  MOVLB  7
16A98:  MOVWF  x1E
16A9A:  MOVLB  0
16A9C:  CALL   2060
....................             if(RX_Buffer[4]==0x0a || UP){ 
16AA0:  MOVF   34,W
16AA2:  SUBLW  0A
16AA4:  BTFSC  FD8.2
16AA6:  GOTO   16AB2
16AAA:  BSF    F93.0
16AAC:  BTFSC  F81.0
16AAE:  GOTO   16AEA
....................                Tciclo+=1.0; 
16AB2:  BCF    FD8.1
16AB4:  MOVFF  2DE,71D
16AB8:  MOVFF  2DD,71C
16ABC:  MOVFF  2DC,71B
16AC0:  MOVFF  2DB,71A
16AC4:  MOVLB  7
16AC6:  CLRF   x21
16AC8:  CLRF   x20
16ACA:  CLRF   x1F
16ACC:  MOVLW  7F
16ACE:  MOVWF  x1E
16AD0:  MOVLB  0
16AD2:  CALL   221C
16AD6:  MOVFF  03,2DE
16ADA:  MOVFF  02,2DD
16ADE:  MOVFF  01,2DC
16AE2:  MOVFF  00,2DB
....................                RX_Buffer[4]=0x00;   
16AE6:  CLRF   34
....................                RX_Buffer2[4]=0x00;             
16AE8:  CLRF   3F
....................             } 
....................          } 
....................              
....................          if(RX_Buffer[4]==0x0b || DOWN){//Tecla Abajo Oprimida 
16AEA:  MOVF   34,W
16AEC:  SUBLW  0B
16AEE:  BTFSC  FD8.2
16AF0:  GOTO   16AFC
16AF4:  BSF    F93.1
16AF6:  BTFSC  F81.1
16AF8:  GOTO   16B52
....................             delay_ms(20); 
16AFC:  MOVLW  14
16AFE:  MOVLB  7
16B00:  MOVWF  x1E
16B02:  MOVLB  0
16B04:  CALL   2060
....................             if(RX_Buffer[4]==0x0b || DOWN){ 
16B08:  MOVF   34,W
16B0A:  SUBLW  0B
16B0C:  BTFSC  FD8.2
16B0E:  GOTO   16B1A
16B12:  BSF    F93.1
16B14:  BTFSC  F81.1
16B16:  GOTO   16B52
....................                Tciclo-=1.0; 
16B1A:  BSF    FD8.1
16B1C:  MOVFF  2DE,71D
16B20:  MOVFF  2DD,71C
16B24:  MOVFF  2DC,71B
16B28:  MOVFF  2DB,71A
16B2C:  MOVLB  7
16B2E:  CLRF   x21
16B30:  CLRF   x20
16B32:  CLRF   x1F
16B34:  MOVLW  7F
16B36:  MOVWF  x1E
16B38:  MOVLB  0
16B3A:  CALL   221C
16B3E:  MOVFF  03,2DE
16B42:  MOVFF  02,2DD
16B46:  MOVFF  01,2DC
16B4A:  MOVFF  00,2DB
....................                RX_Buffer[4]=0x00; 
16B4E:  CLRF   34
....................                RX_Buffer2[4]=0x00;             
16B50:  CLRF   3F
....................             } 
....................          } 
....................           
....................          if(Tciclo>20) 
16B52:  MOVLB  7
16B54:  CLRF   x11
16B56:  CLRF   x10
16B58:  MOVLW  20
16B5A:  MOVWF  x0F
16B5C:  MOVLW  83
16B5E:  MOVWF  x0E
16B60:  MOVFF  2DE,715
16B64:  MOVFF  2DD,714
16B68:  MOVFF  2DC,713
16B6C:  MOVFF  2DB,712
16B70:  MOVLB  0
16B72:  CALL   2680
16B76:  BTFSS  FD8.0
16B78:  GOTO   16B8A
....................             Tciclo=5; 
16B7C:  MOVLB  2
16B7E:  CLRF   xDE
16B80:  CLRF   xDD
16B82:  MOVLW  20
16B84:  MOVWF  xDC
16B86:  MOVLW  81
16B88:  MOVWF  xDB
....................          if(Tciclo<5) 
16B8A:  MOVFF  2DE,711
16B8E:  MOVFF  2DD,710
16B92:  MOVFF  2DC,70F
16B96:  MOVFF  2DB,70E
16B9A:  MOVLB  7
16B9C:  CLRF   x15
16B9E:  CLRF   x14
16BA0:  MOVLW  20
16BA2:  MOVWF  x13
16BA4:  MOVLW  81
16BA6:  MOVWF  x12
16BA8:  MOVLB  0
16BAA:  CALL   2680
16BAE:  BTFSS  FD8.0
16BB0:  GOTO   16BC4
....................             Tciclo=20; 
16BB4:  MOVLB  2
16BB6:  CLRF   xDE
16BB8:  CLRF   xDD
16BBA:  MOVLW  20
16BBC:  MOVWF  xDC
16BBE:  MOVLW  83
16BC0:  MOVWF  xDB
16BC2:  MOVLB  0
....................       }else if(Opcion2==5){ 
16BC4:  GOTO   1761C
16BC8:  MOVLB  3
16BCA:  MOVF   x50,W
16BCC:  SUBLW  05
16BCE:  BTFSS  FD8.2
16BD0:  GOTO   16CAC
....................          printf("Config.t2c.txt=\"Ajuste +\""); 
16BD4:  MOVLW  14
16BD6:  MOVWF  FF6
16BD8:  MOVLW  1E
16BDA:  MOVWF  FF7
16BDC:  MOVLW  00
16BDE:  MOVWF  FF8
16BE0:  MOVLB  0
16BE2:  CALL   4538
....................          SendDataDisplay();       
16BE6:  CALL   456A
....................          printf("t3c.txt=\"%u\"",Sensor[0].Ajuste); 
16BEA:  MOVLW  2E
16BEC:  MOVWF  FF6
16BEE:  MOVLW  1E
16BF0:  MOVWF  FF7
16BF2:  MOVLW  00
16BF4:  MOVWF  FF8
16BF6:  MOVLW  09
16BF8:  MOVLB  7
16BFA:  MOVWF  x0D
16BFC:  MOVLB  0
16BFE:  CALL   5D0E
16C02:  MOVFF  426,70D
16C06:  MOVLW  1B
16C08:  MOVLB  7
16C0A:  MOVWF  x0E
16C0C:  MOVLB  0
16C0E:  CALL   632A
16C12:  MOVLW  22
16C14:  BTFSS  F9E.4
16C16:  GOTO   16C14
16C1A:  MOVWF  FAD
....................          SendDataDisplay(); 
16C1C:  CALL   456A
....................          if(RX_Buffer[4]==0x0a || UP){//Tecla Arriba Oprimida 
16C20:  MOVF   34,W
16C22:  SUBLW  0A
16C24:  BTFSC  FD8.2
16C26:  GOTO   16C32
16C2A:  BSF    F93.0
16C2C:  BTFSC  F81.0
16C2E:  GOTO   16C64
....................             delay_ms(20); 
16C32:  MOVLW  14
16C34:  MOVLB  7
16C36:  MOVWF  x1E
16C38:  MOVLB  0
16C3A:  CALL   2060
....................             if(RX_Buffer[4]==0x0a || UP){ 
16C3E:  MOVF   34,W
16C40:  SUBLW  0A
16C42:  BTFSC  FD8.2
16C44:  GOTO   16C50
16C48:  BSF    F93.0
16C4A:  BTFSC  F81.0
16C4C:  GOTO   16C64
....................                if(Sensor[0].Ajuste<40) 
16C50:  MOVLB  4
16C52:  MOVF   x26,W
16C54:  SUBLW  27
16C56:  BTFSS  FD8.0
16C58:  GOTO   16C5E
....................                   Sensor[0].Ajuste++; 
16C5C:  INCF   x26,F
....................                RX_Buffer[4]=0x00;   
16C5E:  CLRF   34
....................                RX_Buffer2[4]=0x00;             
16C60:  CLRF   3F
16C62:  MOVLB  0
....................             } 
....................          } 
....................              
....................          if(RX_Buffer[4]==0x0b || DOWN){//Tecla Abajo Oprimida 
16C64:  MOVF   34,W
16C66:  SUBLW  0B
16C68:  BTFSC  FD8.2
16C6A:  GOTO   16C76
16C6E:  BSF    F93.1
16C70:  BTFSC  F81.1
16C72:  GOTO   16CA6
....................             delay_ms(20); 
16C76:  MOVLW  14
16C78:  MOVLB  7
16C7A:  MOVWF  x1E
16C7C:  MOVLB  0
16C7E:  CALL   2060
....................             if(RX_Buffer[4]==0x0b || DOWN){ 
16C82:  MOVF   34,W
16C84:  SUBLW  0B
16C86:  BTFSC  FD8.2
16C88:  GOTO   16C94
16C8C:  BSF    F93.1
16C8E:  BTFSC  F81.1
16C90:  GOTO   16CA6
....................                if(Sensor[0].Ajuste>0) 
16C94:  MOVLB  4
16C96:  MOVF   x26,F
16C98:  BTFSC  FD8.2
16C9A:  GOTO   16CA0
....................                   Sensor[0].Ajuste--; 
16C9E:  DECF   x26,F
....................                RX_Buffer[4]=0x00; 
16CA0:  CLRF   34
....................                RX_Buffer2[4]=0x00;             
16CA2:  CLRF   3F
16CA4:  MOVLB  0
....................             } 
....................          } 
....................       }else if(Opcion2==6){ 
16CA6:  GOTO   1761C
16CAA:  MOVLB  3
16CAC:  MOVF   x50,W
16CAE:  SUBLW  06
16CB0:  BTFSS  FD8.2
16CB2:  GOTO   16D8E
....................          printf("Config.t2c.txt=\"Ajuste -\""); 
16CB6:  MOVLW  3C
16CB8:  MOVWF  FF6
16CBA:  MOVLW  1E
16CBC:  MOVWF  FF7
16CBE:  MOVLW  00
16CC0:  MOVWF  FF8
16CC2:  MOVLB  0
16CC4:  CALL   4538
....................          SendDataDisplay();       
16CC8:  CALL   456A
....................          printf("t3c.txt=\"%u\"",Sensor[0].Ajusten); 
16CCC:  MOVLW  56
16CCE:  MOVWF  FF6
16CD0:  MOVLW  1E
16CD2:  MOVWF  FF7
16CD4:  MOVLW  00
16CD6:  MOVWF  FF8
16CD8:  MOVLW  09
16CDA:  MOVLB  7
16CDC:  MOVWF  x0D
16CDE:  MOVLB  0
16CE0:  CALL   5D0E
16CE4:  MOVFF  427,70D
16CE8:  MOVLW  1B
16CEA:  MOVLB  7
16CEC:  MOVWF  x0E
16CEE:  MOVLB  0
16CF0:  CALL   632A
16CF4:  MOVLW  22
16CF6:  BTFSS  F9E.4
16CF8:  GOTO   16CF6
16CFC:  MOVWF  FAD
....................          SendDataDisplay(); 
16CFE:  CALL   456A
....................          if(RX_Buffer[4]==0x0a || UP){//Tecla Arriba Oprimida 
16D02:  MOVF   34,W
16D04:  SUBLW  0A
16D06:  BTFSC  FD8.2
16D08:  GOTO   16D14
16D0C:  BSF    F93.0
16D0E:  BTFSC  F81.0
16D10:  GOTO   16D46
....................             delay_ms(20); 
16D14:  MOVLW  14
16D16:  MOVLB  7
16D18:  MOVWF  x1E
16D1A:  MOVLB  0
16D1C:  CALL   2060
....................             if(RX_Buffer[4]==0x0a || UP){ 
16D20:  MOVF   34,W
16D22:  SUBLW  0A
16D24:  BTFSC  FD8.2
16D26:  GOTO   16D32
16D2A:  BSF    F93.0
16D2C:  BTFSC  F81.0
16D2E:  GOTO   16D46
....................                if(Sensor[0].Ajusten<40) 
16D32:  MOVLB  4
16D34:  MOVF   x27,W
16D36:  SUBLW  27
16D38:  BTFSS  FD8.0
16D3A:  GOTO   16D40
....................                   Sensor[0].Ajusten++; 
16D3E:  INCF   x27,F
....................                RX_Buffer[4]=0x00;   
16D40:  CLRF   34
....................                RX_Buffer2[4]=0x00;             
16D42:  CLRF   3F
16D44:  MOVLB  0
....................             }          
....................          } 
....................              
....................          if(RX_Buffer[4]==0x0b || DOWN){//Tecla Abajo Oprimida 
16D46:  MOVF   34,W
16D48:  SUBLW  0B
16D4A:  BTFSC  FD8.2
16D4C:  GOTO   16D58
16D50:  BSF    F93.1
16D52:  BTFSC  F81.1
16D54:  GOTO   16D88
....................             delay_ms(20); 
16D58:  MOVLW  14
16D5A:  MOVLB  7
16D5C:  MOVWF  x1E
16D5E:  MOVLB  0
16D60:  CALL   2060
....................             if(RX_Buffer[4]==0x0b || DOWN){ 
16D64:  MOVF   34,W
16D66:  SUBLW  0B
16D68:  BTFSC  FD8.2
16D6A:  GOTO   16D76
16D6E:  BSF    F93.1
16D70:  BTFSC  F81.1
16D72:  GOTO   16D88
....................                if(Sensor[0].Ajusten>0) 
16D76:  MOVLB  4
16D78:  MOVF   x27,F
16D7A:  BTFSC  FD8.2
16D7C:  GOTO   16D82
....................                   Sensor[0].Ajusten--; 
16D80:  DECF   x27,F
....................                RX_Buffer[4]=0x00; 
16D82:  CLRF   34
....................                RX_Buffer2[4]=0x00;             
16D84:  CLRF   3F
16D86:  MOVLB  0
....................             } 
....................          } 
....................       }else if(Opcion2==7){ 
16D88:  GOTO   1761C
16D8C:  MOVLB  3
16D8E:  MOVF   x50,W
16D90:  SUBLW  07
16D92:  BTFSS  FD8.2
16D94:  GOTO   16E70
....................          printf("Config.t2c.txt=\"Ajuste2 +\""); 
16D98:  MOVLW  64
16D9A:  MOVWF  FF6
16D9C:  MOVLW  1E
16D9E:  MOVWF  FF7
16DA0:  MOVLW  00
16DA2:  MOVWF  FF8
16DA4:  MOVLB  0
16DA6:  CALL   4538
....................          SendDataDisplay();       
16DAA:  CALL   456A
....................          printf("t3c.txt=\"%u\"",Sensor[1].Ajuste); 
16DAE:  MOVLW  80
16DB0:  MOVWF  FF6
16DB2:  MOVLW  1E
16DB4:  MOVWF  FF7
16DB6:  MOVLW  00
16DB8:  MOVWF  FF8
16DBA:  MOVLW  09
16DBC:  MOVLB  7
16DBE:  MOVWF  x0D
16DC0:  MOVLB  0
16DC2:  CALL   5D0E
16DC6:  MOVFF  592,70D
16DCA:  MOVLW  1B
16DCC:  MOVLB  7
16DCE:  MOVWF  x0E
16DD0:  MOVLB  0
16DD2:  CALL   632A
16DD6:  MOVLW  22
16DD8:  BTFSS  F9E.4
16DDA:  GOTO   16DD8
16DDE:  MOVWF  FAD
....................          SendDataDisplay(); 
16DE0:  CALL   456A
....................          if(RX_Buffer[4]==0x0a || UP){//Tecla Arriba Oprimida 
16DE4:  MOVF   34,W
16DE6:  SUBLW  0A
16DE8:  BTFSC  FD8.2
16DEA:  GOTO   16DF6
16DEE:  BSF    F93.0
16DF0:  BTFSC  F81.0
16DF2:  GOTO   16E28
....................             delay_ms(20); 
16DF6:  MOVLW  14
16DF8:  MOVLB  7
16DFA:  MOVWF  x1E
16DFC:  MOVLB  0
16DFE:  CALL   2060
....................             if(RX_Buffer[4]==0x0a || UP){ 
16E02:  MOVF   34,W
16E04:  SUBLW  0A
16E06:  BTFSC  FD8.2
16E08:  GOTO   16E14
16E0C:  BSF    F93.0
16E0E:  BTFSC  F81.0
16E10:  GOTO   16E28
....................                if(Sensor[1].Ajuste<40) 
16E14:  MOVLB  5
16E16:  MOVF   x92,W
16E18:  SUBLW  27
16E1A:  BTFSS  FD8.0
16E1C:  GOTO   16E22
....................                   Sensor[1].Ajuste++; 
16E20:  INCF   x92,F
....................                RX_Buffer[4]=0x00;   
16E22:  CLRF   34
....................                RX_Buffer2[4]=0x00;             
16E24:  CLRF   3F
16E26:  MOVLB  0
....................             } 
....................          } 
....................              
....................          if(RX_Buffer[4]==0x0b || DOWN){//Tecla Abajo Oprimida 
16E28:  MOVF   34,W
16E2A:  SUBLW  0B
16E2C:  BTFSC  FD8.2
16E2E:  GOTO   16E3A
16E32:  BSF    F93.1
16E34:  BTFSC  F81.1
16E36:  GOTO   16E6A
....................             delay_ms(20); 
16E3A:  MOVLW  14
16E3C:  MOVLB  7
16E3E:  MOVWF  x1E
16E40:  MOVLB  0
16E42:  CALL   2060
....................             if(RX_Buffer[4]==0x0b || DOWN){ 
16E46:  MOVF   34,W
16E48:  SUBLW  0B
16E4A:  BTFSC  FD8.2
16E4C:  GOTO   16E58
16E50:  BSF    F93.1
16E52:  BTFSC  F81.1
16E54:  GOTO   16E6A
....................                if(Sensor[1].Ajuste>0) 
16E58:  MOVLB  5
16E5A:  MOVF   x92,F
16E5C:  BTFSC  FD8.2
16E5E:  GOTO   16E64
....................                   Sensor[1].Ajuste--; 
16E62:  DECF   x92,F
....................                RX_Buffer[4]=0x00; 
16E64:  CLRF   34
....................                RX_Buffer2[4]=0x00;             
16E66:  CLRF   3F
16E68:  MOVLB  0
....................             }            
....................          } 
....................       }else if(Opcion2==8){ 
16E6A:  GOTO   1761C
16E6E:  MOVLB  3
16E70:  MOVF   x50,W
16E72:  SUBLW  08
16E74:  BTFSS  FD8.2
16E76:  GOTO   16F52
....................          printf("Config.t2c.txt=\"Ajuste2 -\""); 
16E7A:  MOVLW  8E
16E7C:  MOVWF  FF6
16E7E:  MOVLW  1E
16E80:  MOVWF  FF7
16E82:  MOVLW  00
16E84:  MOVWF  FF8
16E86:  MOVLB  0
16E88:  CALL   4538
....................          SendDataDisplay();       
16E8C:  CALL   456A
....................          printf("t3c.txt=\"%u\"",Sensor[1].Ajusten); 
16E90:  MOVLW  AA
16E92:  MOVWF  FF6
16E94:  MOVLW  1E
16E96:  MOVWF  FF7
16E98:  MOVLW  00
16E9A:  MOVWF  FF8
16E9C:  MOVLW  09
16E9E:  MOVLB  7
16EA0:  MOVWF  x0D
16EA2:  MOVLB  0
16EA4:  CALL   5D0E
16EA8:  MOVFF  593,70D
16EAC:  MOVLW  1B
16EAE:  MOVLB  7
16EB0:  MOVWF  x0E
16EB2:  MOVLB  0
16EB4:  CALL   632A
16EB8:  MOVLW  22
16EBA:  BTFSS  F9E.4
16EBC:  GOTO   16EBA
16EC0:  MOVWF  FAD
....................          SendDataDisplay(); 
16EC2:  CALL   456A
....................          if(RX_Buffer[4]==0x0a || UP){//Tecla Arriba Oprimida 
16EC6:  MOVF   34,W
16EC8:  SUBLW  0A
16ECA:  BTFSC  FD8.2
16ECC:  GOTO   16ED8
16ED0:  BSF    F93.0
16ED2:  BTFSC  F81.0
16ED4:  GOTO   16F0A
....................             delay_ms(20); 
16ED8:  MOVLW  14
16EDA:  MOVLB  7
16EDC:  MOVWF  x1E
16EDE:  MOVLB  0
16EE0:  CALL   2060
....................             if(RX_Buffer[4]==0x0a || UP){ 
16EE4:  MOVF   34,W
16EE6:  SUBLW  0A
16EE8:  BTFSC  FD8.2
16EEA:  GOTO   16EF6
16EEE:  BSF    F93.0
16EF0:  BTFSC  F81.0
16EF2:  GOTO   16F0A
....................                if(Sensor[1].Ajusten<40) 
16EF6:  MOVLB  5
16EF8:  MOVF   x93,W
16EFA:  SUBLW  27
16EFC:  BTFSS  FD8.0
16EFE:  GOTO   16F04
....................                   Sensor[1].Ajusten++; 
16F02:  INCF   x93,F
....................                RX_Buffer[4]=0x00;   
16F04:  CLRF   34
....................                RX_Buffer2[4]=0x00;             
16F06:  CLRF   3F
16F08:  MOVLB  0
....................             } 
....................          } 
....................              
....................          if(RX_Buffer[4]==0x0b || DOWN){//Tecla Abajo Oprimida 
16F0A:  MOVF   34,W
16F0C:  SUBLW  0B
16F0E:  BTFSC  FD8.2
16F10:  GOTO   16F1C
16F14:  BSF    F93.1
16F16:  BTFSC  F81.1
16F18:  GOTO   16F4C
....................             delay_ms(20); 
16F1C:  MOVLW  14
16F1E:  MOVLB  7
16F20:  MOVWF  x1E
16F22:  MOVLB  0
16F24:  CALL   2060
....................             if(RX_Buffer[4]==0x0b || DOWN){ 
16F28:  MOVF   34,W
16F2A:  SUBLW  0B
16F2C:  BTFSC  FD8.2
16F2E:  GOTO   16F3A
16F32:  BSF    F93.1
16F34:  BTFSC  F81.1
16F36:  GOTO   16F4C
....................                if(Sensor[1].Ajusten>0) 
16F3A:  MOVLB  5
16F3C:  MOVF   x93,F
16F3E:  BTFSC  FD8.2
16F40:  GOTO   16F46
....................                   Sensor[1].Ajusten--; 
16F44:  DECF   x93,F
....................                RX_Buffer[4]=0x00; 
16F46:  CLRF   34
....................                RX_Buffer2[4]=0x00;             
16F48:  CLRF   3F
16F4A:  MOVLB  0
....................             } 
....................          } 
....................       }else if(Opcion2==9){ 
16F4C:  GOTO   1761C
16F50:  MOVLB  3
16F52:  MOVF   x50,W
16F54:  SUBLW  09
16F56:  BTFSS  FD8.2
16F58:  GOTO   17036
....................          printf("Config.t2c.txt=\"Media\""); 
16F5C:  MOVLW  B8
16F5E:  MOVWF  FF6
16F60:  MOVLW  1E
16F62:  MOVWF  FF7
16F64:  MOVLW  00
16F66:  MOVWF  FF8
16F68:  MOVLB  0
16F6A:  CALL   4538
....................          SendDataDisplay();       
16F6E:  CALL   456A
....................          printf("t3c.txt=\"%u\"",MediaMovil); 
16F72:  MOVLW  D0
16F74:  MOVWF  FF6
16F76:  MOVLW  1E
16F78:  MOVWF  FF7
16F7A:  MOVLW  00
16F7C:  MOVWF  FF8
16F7E:  MOVLW  09
16F80:  MOVLB  7
16F82:  MOVWF  x0D
16F84:  MOVLB  0
16F86:  CALL   5D0E
16F8A:  MOVFF  2CC,70D
16F8E:  MOVLW  1B
16F90:  MOVLB  7
16F92:  MOVWF  x0E
16F94:  MOVLB  0
16F96:  CALL   632A
16F9A:  MOVLW  22
16F9C:  BTFSS  F9E.4
16F9E:  GOTO   16F9C
16FA2:  MOVWF  FAD
....................          SendDataDisplay(); 
16FA4:  CALL   456A
....................          if(RX_Buffer[4]==0x0a || UP){//Tecla Arriba Oprimida 
16FA8:  MOVF   34,W
16FAA:  SUBLW  0A
16FAC:  BTFSC  FD8.2
16FAE:  GOTO   16FBA
16FB2:  BSF    F93.0
16FB4:  BTFSC  F81.0
16FB6:  GOTO   16FEC
....................             delay_ms(20); 
16FBA:  MOVLW  14
16FBC:  MOVLB  7
16FBE:  MOVWF  x1E
16FC0:  MOVLB  0
16FC2:  CALL   2060
....................             if(RX_Buffer[4]==0x0a || UP){ 
16FC6:  MOVF   34,W
16FC8:  SUBLW  0A
16FCA:  BTFSC  FD8.2
16FCC:  GOTO   16FD8
16FD0:  BSF    F93.0
16FD2:  BTFSC  F81.0
16FD4:  GOTO   16FEC
....................                if(MediaMovil<80) 
16FD8:  MOVLB  2
16FDA:  MOVF   xCC,W
16FDC:  SUBLW  4F
16FDE:  BTFSS  FD8.0
16FE0:  GOTO   16FE6
....................                   MediaMovil++; 
16FE4:  INCF   xCC,F
....................                RX_Buffer[4]=0x00;   
16FE6:  CLRF   34
....................                RX_Buffer2[4]=0x00;             
16FE8:  CLRF   3F
16FEA:  MOVLB  0
....................             } 
....................          } 
....................              
....................          if(RX_Buffer[4]==0x0b || DOWN){//Tecla Abajo Oprimida 
16FEC:  MOVF   34,W
16FEE:  SUBLW  0B
16FF0:  BTFSC  FD8.2
16FF2:  GOTO   16FFE
16FF6:  BSF    F93.1
16FF8:  BTFSC  F81.1
16FFA:  GOTO   17030
....................             delay_ms(20); 
16FFE:  MOVLW  14
17000:  MOVLB  7
17002:  MOVWF  x1E
17004:  MOVLB  0
17006:  CALL   2060
....................             if(RX_Buffer[4]==0x0b || DOWN){ 
1700A:  MOVF   34,W
1700C:  SUBLW  0B
1700E:  BTFSC  FD8.2
17010:  GOTO   1701C
17014:  BSF    F93.1
17016:  BTFSC  F81.1
17018:  GOTO   17030
....................                if(MediaMovil>10) 
1701C:  MOVLB  2
1701E:  MOVF   xCC,W
17020:  SUBLW  0A
17022:  BTFSC  FD8.0
17024:  GOTO   1702A
....................                   MediaMovil--; 
17028:  DECF   xCC,F
....................                RX_Buffer[4]=0x00; 
1702A:  CLRF   34
....................                RX_Buffer2[4]=0x00;             
1702C:  CLRF   3F
1702E:  MOVLB  0
....................             }             
....................          } 
....................       }else if(Opcion2==10){ 
17030:  GOTO   1761C
17034:  MOVLB  3
17036:  MOVF   x50,W
17038:  SUBLW  0A
1703A:  BTFSS  FD8.2
1703C:  GOTO   1711A
....................          printf("Config.t2c.txt=\"TTrampa\""); 
17040:  MOVLW  DE
17042:  MOVWF  FF6
17044:  MOVLW  1E
17046:  MOVWF  FF7
17048:  MOVLW  00
1704A:  MOVWF  FF8
1704C:  MOVLB  0
1704E:  CALL   4538
....................          SendDataDisplay();       
17052:  CALL   456A
....................          printf("t3c.txt=\"%02u\"",TTrampa); 
17056:  MOVLW  F8
17058:  MOVWF  FF6
1705A:  MOVLW  1E
1705C:  MOVWF  FF7
1705E:  MOVLW  00
17060:  MOVWF  FF8
17062:  MOVLW  09
17064:  MOVLB  7
17066:  MOVWF  x0D
17068:  MOVLB  0
1706A:  CALL   5D0E
1706E:  MOVFF  32E,70D
17072:  MOVLW  01
17074:  MOVLB  7
17076:  MOVWF  x0E
17078:  MOVLB  0
1707A:  CALL   632A
1707E:  MOVLW  22
17080:  BTFSS  F9E.4
17082:  GOTO   17080
17086:  MOVWF  FAD
....................          SendDataDisplay(); 
17088:  CALL   456A
....................          if(RX_Buffer[4]==0x0a || UP){//Tecla Arriba Oprimida 
1708C:  MOVF   34,W
1708E:  SUBLW  0A
17090:  BTFSC  FD8.2
17092:  GOTO   1709E
17096:  BSF    F93.0
17098:  BTFSC  F81.0
1709A:  GOTO   170D0
....................             delay_ms(20); 
1709E:  MOVLW  14
170A0:  MOVLB  7
170A2:  MOVWF  x1E
170A4:  MOVLB  0
170A6:  CALL   2060
....................             if(RX_Buffer[4]==0x0a || UP){ 
170AA:  MOVF   34,W
170AC:  SUBLW  0A
170AE:  BTFSC  FD8.2
170B0:  GOTO   170BC
170B4:  BSF    F93.0
170B6:  BTFSC  F81.0
170B8:  GOTO   170D0
....................                if(TTrampa<100) 
170BC:  MOVLB  3
170BE:  MOVF   x2E,W
170C0:  SUBLW  63
170C2:  BTFSS  FD8.0
170C4:  GOTO   170CA
....................                   TTrampa++; 
170C8:  INCF   x2E,F
....................                RX_Buffer[4]=0x00;   
170CA:  CLRF   34
....................                RX_Buffer2[4]=0x00;             
170CC:  CLRF   3F
170CE:  MOVLB  0
....................                //BorraBuffer(); 
....................             } 
....................          } 
....................              
....................          if(RX_Buffer[4]==0x0b || DOWN){//Tecla Abajo Oprimida 
170D0:  MOVF   34,W
170D2:  SUBLW  0B
170D4:  BTFSC  FD8.2
170D6:  GOTO   170E2
170DA:  BSF    F93.1
170DC:  BTFSC  F81.1
170DE:  GOTO   17114
....................             delay_ms(20); 
170E2:  MOVLW  14
170E4:  MOVLB  7
170E6:  MOVWF  x1E
170E8:  MOVLB  0
170EA:  CALL   2060
....................             if(RX_Buffer[4]==0x0b || DOWN){ 
170EE:  MOVF   34,W
170F0:  SUBLW  0B
170F2:  BTFSC  FD8.2
170F4:  GOTO   17100
170F8:  BSF    F93.1
170FA:  BTFSC  F81.1
170FC:  GOTO   17114
....................                if(TTrampa>50) 
17100:  MOVLB  3
17102:  MOVF   x2E,W
17104:  SUBLW  32
17106:  BTFSC  FD8.0
17108:  GOTO   1710E
....................                   TTrampa--; 
1710C:  DECF   x2E,F
....................                RX_Buffer[4]=0x00; 
1710E:  CLRF   34
....................                RX_Buffer2[4]=0x00;             
17110:  CLRF   3F
17112:  MOVLB  0
....................                //BorraBuffer(); 
....................             } 
....................          } 
....................       }else if(Opcion2==11){ 
17114:  GOTO   1761C
17118:  MOVLB  3
1711A:  MOVF   x50,W
1711C:  SUBLW  0B
1711E:  BTFSS  FD8.2
17120:  GOTO   17206
....................          printf("Config.t2c.txt=\"Vacio Ciclo\""); 
17124:  MOVLW  08
17126:  MOVWF  FF6
17128:  MOVLW  1F
1712A:  MOVWF  FF7
1712C:  MOVLW  00
1712E:  MOVWF  FF8
17130:  MOVLB  0
17132:  CALL   4538
....................          SendDataDisplay();       
17136:  CALL   456A
....................          printf("t3c.txt=\"%02u\"",vacioCiclo); 
1713A:  MOVLW  26
1713C:  MOVWF  FF6
1713E:  MOVLW  1F
17140:  MOVWF  FF7
17142:  MOVLW  00
17144:  MOVWF  FF8
17146:  MOVLW  09
17148:  MOVLB  7
1714A:  MOVWF  x0D
1714C:  MOVLB  0
1714E:  CALL   5D0E
17152:  MOVFF  358,70D
17156:  MOVLW  01
17158:  MOVLB  7
1715A:  MOVWF  x0E
1715C:  MOVLB  0
1715E:  CALL   632A
17162:  MOVLW  22
17164:  BTFSS  F9E.4
17166:  GOTO   17164
1716A:  MOVWF  FAD
....................          SendDataDisplay(); 
1716C:  CALL   456A
....................          if(RX_Buffer[4]==0x0a || UP){//Tecla Arriba Oprimida 
17170:  MOVF   34,W
17172:  SUBLW  0A
17174:  BTFSC  FD8.2
17176:  GOTO   17182
1717A:  BSF    F93.0
1717C:  BTFSC  F81.0
1717E:  GOTO   171AA
....................             delay_ms(20); 
17182:  MOVLW  14
17184:  MOVLB  7
17186:  MOVWF  x1E
17188:  MOVLB  0
1718A:  CALL   2060
....................             if(RX_Buffer[4]==0x0a || UP){ 
1718E:  MOVF   34,W
17190:  SUBLW  0A
17192:  BTFSC  FD8.2
17194:  GOTO   171A0
17198:  BSF    F93.0
1719A:  BTFSC  F81.0
1719C:  GOTO   171AA
....................                   ++vacioCiclo; 
171A0:  MOVLB  3
171A2:  INCF   x58,F
....................                RX_Buffer[4]=0x00;   
171A4:  CLRF   34
....................                RX_Buffer2[4]=0x00;             
171A6:  CLRF   3F
171A8:  MOVLB  0
....................             } 
....................          } 
....................              
....................          if(RX_Buffer[4]==0x0b || DOWN){//Tecla Abajo Oprimida 
171AA:  MOVF   34,W
171AC:  SUBLW  0B
171AE:  BTFSC  FD8.2
171B0:  GOTO   171BC
171B4:  BSF    F93.1
171B6:  BTFSC  F81.1
171B8:  GOTO   171E4
....................             delay_ms(20); 
171BC:  MOVLW  14
171BE:  MOVLB  7
171C0:  MOVWF  x1E
171C2:  MOVLB  0
171C4:  CALL   2060
....................             if(RX_Buffer[4]==0x0b || DOWN){ 
171C8:  MOVF   34,W
171CA:  SUBLW  0B
171CC:  BTFSC  FD8.2
171CE:  GOTO   171DA
171D2:  BSF    F93.1
171D4:  BTFSC  F81.1
171D6:  GOTO   171E4
....................                   --vacioCiclo; 
171DA:  MOVLB  3
171DC:  DECF   x58,F
....................                RX_Buffer[4]=0x00; 
171DE:  CLRF   34
....................                RX_Buffer2[4]=0x00;             
171E0:  CLRF   3F
171E2:  MOVLB  0
....................             } 
....................          } 
....................          if(vacioCiclo>30) 
171E4:  MOVLB  3
171E6:  MOVF   x58,W
171E8:  SUBLW  1E
171EA:  BTFSC  FD8.0
171EC:  GOTO   171F4
....................             vacioCiclo=17; 
171F0:  MOVLW  11
171F2:  MOVWF  x58
....................          if(vacioCiclo<17) 
171F4:  MOVF   x58,W
171F6:  SUBLW  10
171F8:  BTFSS  FD8.0
171FA:  GOTO   17202
....................             vacioCiclo=30; 
171FE:  MOVLW  1E
17200:  MOVWF  x58
....................       }else if(Opcion2==12){ 
17202:  GOTO   1761A
17206:  MOVF   x50,W
17208:  SUBLW  0C
1720A:  BTFSS  FD8.2
1720C:  GOTO   17262
....................          printf("Config.t2c.txt=\"Ciclos\""); 
17210:  MOVLW  36
17212:  MOVWF  FF6
17214:  MOVLW  1F
17216:  MOVWF  FF7
17218:  MOVLW  00
1721A:  MOVWF  FF8
1721C:  MOVLB  0
1721E:  CALL   4538
....................          SendDataDisplay();       
17222:  CALL   456A
....................          printf("t3c.txt=\"%05Lu\"",Ciclos); 
17226:  MOVLW  4E
17228:  MOVWF  FF6
1722A:  MOVLW  1F
1722C:  MOVWF  FF7
1722E:  MOVLW  00
17230:  MOVWF  FF8
17232:  MOVLW  09
17234:  MOVLB  7
17236:  MOVWF  x0D
17238:  MOVLB  0
1723A:  CALL   5D0E
1723E:  MOVLW  08
17240:  MOVWF  FE9
17242:  MOVFF  36A,70D
17246:  MOVFF  369,70C
1724A:  CALL   63A8
1724E:  MOVLW  22
17250:  BTFSS  F9E.4
17252:  GOTO   17250
17256:  MOVWF  FAD
....................          SendDataDisplay(); 
17258:  CALL   456A
....................       }else if(Opcion2==13){ 
1725C:  GOTO   1761C
17260:  MOVLB  3
17262:  MOVF   x50,W
17264:  SUBLW  0D
17266:  BTFSS  FD8.2
17268:  GOTO   17360
....................          printf("Config.t2c.txt=\"Atmosferica\""); 
1726C:  MOVLW  5E
1726E:  MOVWF  FF6
17270:  MOVLW  1F
17272:  MOVWF  FF7
17274:  MOVLW  00
17276:  MOVWF  FF8
17278:  MOVLB  0
1727A:  CALL   4538
....................          SendDataDisplay();       
1727E:  CALL   456A
....................          printf("t3c.txt=\"%03Lu\"",Atmosferica); 
17282:  MOVLW  7C
17284:  MOVWF  FF6
17286:  MOVLW  1F
17288:  MOVWF  FF7
1728A:  MOVLW  00
1728C:  MOVWF  FF8
1728E:  MOVLW  09
17290:  MOVLB  7
17292:  MOVWF  x0D
17294:  MOVLB  0
17296:  CALL   5D0E
1729A:  MOVLW  0A
1729C:  MOVWF  FE9
1729E:  MOVFF  33B,70D
172A2:  MOVFF  33A,70C
172A6:  CALL   63A8
172AA:  MOVLW  22
172AC:  BTFSS  F9E.4
172AE:  GOTO   172AC
172B2:  MOVWF  FAD
....................          SendDataDisplay(); 
172B4:  CALL   456A
....................          if(RX_Buffer[4]==0x0a || UP){//Tecla Arriba Oprimida 
172B8:  MOVF   34,W
172BA:  SUBLW  0A
172BC:  BTFSC  FD8.2
172BE:  GOTO   172CA
172C2:  BSF    F93.0
172C4:  BTFSC  F81.0
172C6:  GOTO   17308
....................             delay_ms(20); 
172CA:  MOVLW  14
172CC:  MOVLB  7
172CE:  MOVWF  x1E
172D0:  MOVLB  0
172D2:  CALL   2060
....................             if(RX_Buffer[4]==0x0a || UP){ 
172D6:  MOVF   34,W
172D8:  SUBLW  0A
172DA:  BTFSC  FD8.2
172DC:  GOTO   172E8
172E0:  BSF    F93.0
172E2:  BTFSC  F81.0
172E4:  GOTO   17308
....................                if(Atmosferica<100) 
172E8:  MOVLB  3
172EA:  MOVF   x3B,F
172EC:  BTFSS  FD8.2
172EE:  GOTO   17302
172F2:  MOVF   x3A,W
172F4:  SUBLW  63
172F6:  BTFSS  FD8.0
172F8:  GOTO   17302
....................                   ++Atmosferica; 
172FC:  INCF   x3A,F
172FE:  BTFSC  FD8.2
17300:  INCF   x3B,F
....................                RX_Buffer[4]=0x00;   
17302:  CLRF   34
....................                RX_Buffer2[4]=0x00;             
17304:  CLRF   3F
17306:  MOVLB  0
....................             } 
....................          } 
....................              
....................          if(RX_Buffer[4]==0x0b || DOWN){//Tecla Abajo Oprimida 
17308:  MOVF   34,W
1730A:  SUBLW  0B
1730C:  BTFSC  FD8.2
1730E:  GOTO   1731A
17312:  BSF    F93.1
17314:  BTFSC  F81.1
17316:  GOTO   1735A
....................             delay_ms(20); 
1731A:  MOVLW  14
1731C:  MOVLB  7
1731E:  MOVWF  x1E
17320:  MOVLB  0
17322:  CALL   2060
....................             if(RX_Buffer[4]==0x0b || DOWN){ 
17326:  MOVF   34,W
17328:  SUBLW  0B
1732A:  BTFSC  FD8.2
1732C:  GOTO   17338
17330:  BSF    F93.1
17332:  BTFSC  F81.1
17334:  GOTO   1735A
....................                if(Atmosferica>50) 
17338:  MOVLB  3
1733A:  MOVF   x3B,F
1733C:  BTFSS  FD8.2
1733E:  GOTO   1734C
17342:  MOVF   x3A,W
17344:  SUBLW  32
17346:  BTFSC  FD8.0
17348:  GOTO   17354
....................                   --Atmosferica; 
1734C:  MOVF   x3A,W
1734E:  BTFSC  FD8.2
17350:  DECF   x3B,F
17352:  DECF   x3A,F
....................                RX_Buffer[4]=0x00; 
17354:  CLRF   34
....................                RX_Buffer2[4]=0x00;             
17356:  CLRF   3F
17358:  MOVLB  0
....................             } 
....................          } 
....................       }else if(Opcion2==14){ 
1735A:  GOTO   1761C
1735E:  MOVLB  3
17360:  MOVF   x50,W
17362:  SUBLW  0E
17364:  BTFSS  FD8.2
17366:  GOTO   17444
....................          printf("Config.t2c.txt=\"T. Apertura\""); 
1736A:  MOVLW  8C
1736C:  MOVWF  FF6
1736E:  MOVLW  1F
17370:  MOVWF  FF7
17372:  MOVLW  00
17374:  MOVWF  FF8
17376:  MOVLB  0
17378:  CALL   4538
....................          SendDataDisplay();       
1737C:  CALL   456A
....................          printf("t3c.txt=\"%03u\"",Tapertura); 
17380:  MOVLW  AA
17382:  MOVWF  FF6
17384:  MOVLW  1F
17386:  MOVWF  FF7
17388:  MOVLW  00
1738A:  MOVWF  FF8
1738C:  MOVLW  09
1738E:  MOVLB  7
17390:  MOVWF  x0D
17392:  MOVLB  0
17394:  CALL   5D0E
17398:  MOVFF  2D1,70D
1739C:  MOVLW  03
1739E:  MOVLB  7
173A0:  MOVWF  x0E
173A2:  MOVLB  0
173A4:  CALL   632A
173A8:  MOVLW  22
173AA:  BTFSS  F9E.4
173AC:  GOTO   173AA
173B0:  MOVWF  FAD
....................          SendDataDisplay(); 
173B2:  CALL   456A
....................          if(RX_Buffer[4]==0x0a || UP){//Tecla Arriba Oprimida 
173B6:  MOVF   34,W
173B8:  SUBLW  0A
173BA:  BTFSC  FD8.2
173BC:  GOTO   173C8
173C0:  BSF    F93.0
173C2:  BTFSC  F81.0
173C4:  GOTO   173FA
....................             delay_ms(20); 
173C8:  MOVLW  14
173CA:  MOVLB  7
173CC:  MOVWF  x1E
173CE:  MOVLB  0
173D0:  CALL   2060
....................             if(RX_Buffer[4]==0x0a || UP){ 
173D4:  MOVF   34,W
173D6:  SUBLW  0A
173D8:  BTFSC  FD8.2
173DA:  GOTO   173E6
173DE:  BSF    F93.0
173E0:  BTFSC  F81.0
173E2:  GOTO   173FA
....................                if(Tapertura<100) 
173E6:  MOVLB  2
173E8:  MOVF   xD1,W
173EA:  SUBLW  63
173EC:  BTFSS  FD8.0
173EE:  GOTO   173F4
....................                   ++Tapertura; 
173F2:  INCF   xD1,F
....................                RX_Buffer[4]=0x00;   
173F4:  CLRF   34
....................                RX_Buffer2[4]=0x00;             
173F6:  CLRF   3F
173F8:  MOVLB  0
....................             } 
....................          } 
....................              
....................          if(RX_Buffer[4]==0x0b || DOWN){//Tecla Abajo Oprimida 
173FA:  MOVF   34,W
173FC:  SUBLW  0B
173FE:  BTFSC  FD8.2
17400:  GOTO   1740C
17404:  BSF    F93.1
17406:  BTFSC  F81.1
17408:  GOTO   1743E
....................             delay_ms(20); 
1740C:  MOVLW  14
1740E:  MOVLB  7
17410:  MOVWF  x1E
17412:  MOVLB  0
17414:  CALL   2060
....................             if(RX_Buffer[4]==0x0b || DOWN){ 
17418:  MOVF   34,W
1741A:  SUBLW  0B
1741C:  BTFSC  FD8.2
1741E:  GOTO   1742A
17422:  BSF    F93.1
17424:  BTFSC  F81.1
17426:  GOTO   1743E
....................                if(Tapertura>50) 
1742A:  MOVLB  2
1742C:  MOVF   xD1,W
1742E:  SUBLW  32
17430:  BTFSC  FD8.0
17432:  GOTO   17438
....................                   --Tapertura; 
17436:  DECF   xD1,F
....................                RX_Buffer[4]=0x00; 
17438:  CLRF   34
....................                RX_Buffer2[4]=0x00;             
1743A:  CLRF   3F
1743C:  MOVLB  0
....................             } 
....................          } 
....................       }else if(Opcion2==15){ 
1743E:  GOTO   1761C
17442:  MOVLB  3
17444:  MOVF   x50,W
17446:  SUBLW  0F
17448:  BTFSS  FD8.2
1744A:  GOTO   17532
....................          printf("Config.t2c.txt=\"Pulsos Config\""); 
1744E:  MOVLW  BA
17450:  MOVWF  FF6
17452:  MOVLW  1F
17454:  MOVWF  FF7
17456:  MOVLW  00
17458:  MOVWF  FF8
1745A:  MOVLB  0
1745C:  CALL   4538
....................          SendDataDisplay();       
17460:  CALL   456A
....................          printf("t3c.txt=\"%02u\"",pulsosConfigurados); 
17464:  MOVLW  DA
17466:  MOVWF  FF6
17468:  MOVLW  1F
1746A:  MOVWF  FF7
1746C:  MOVLW  00
1746E:  MOVWF  FF8
17470:  MOVLW  09
17472:  MOVLB  7
17474:  MOVWF  x0D
17476:  MOVLB  0
17478:  CALL   5D0E
1747C:  MOVFF  2D2,70D
17480:  MOVLW  01
17482:  MOVLB  7
17484:  MOVWF  x0E
17486:  MOVLB  0
17488:  CALL   632A
1748C:  MOVLW  22
1748E:  BTFSS  F9E.4
17490:  GOTO   1748E
17494:  MOVWF  FAD
....................          SendDataDisplay(); 
17496:  CALL   456A
....................          if(RX_Buffer[4]==0x0a || UP){//Tecla Arriba Oprimida 
1749A:  MOVF   34,W
1749C:  SUBLW  0A
1749E:  BTFSC  FD8.2
174A0:  GOTO   174AC
174A4:  BSF    F93.0
174A6:  BTFSC  F81.0
174A8:  GOTO   174D4
....................             delay_ms(20); 
174AC:  MOVLW  14
174AE:  MOVLB  7
174B0:  MOVWF  x1E
174B2:  MOVLB  0
174B4:  CALL   2060
....................             if(RX_Buffer[4]==0x0a || UP){ 
174B8:  MOVF   34,W
174BA:  SUBLW  0A
174BC:  BTFSC  FD8.2
174BE:  GOTO   174CA
174C2:  BSF    F93.0
174C4:  BTFSC  F81.0
174C6:  GOTO   174D4
....................                   ++pulsosConfigurados; 
174CA:  MOVLB  2
174CC:  INCF   xD2,F
....................                RX_Buffer[4]=0x00;   
174CE:  CLRF   34
....................                RX_Buffer2[4]=0x00;             
174D0:  CLRF   3F
174D2:  MOVLB  0
....................             } 
....................          } 
....................              
....................          if(RX_Buffer[4]==0x0b || DOWN){//Tecla Abajo Oprimida 
174D4:  MOVF   34,W
174D6:  SUBLW  0B
174D8:  BTFSC  FD8.2
174DA:  GOTO   174E6
174DE:  BSF    F93.1
174E0:  BTFSC  F81.1
174E2:  GOTO   1750E
....................             delay_ms(20); 
174E6:  MOVLW  14
174E8:  MOVLB  7
174EA:  MOVWF  x1E
174EC:  MOVLB  0
174EE:  CALL   2060
....................             if(RX_Buffer[4]==0x0b || DOWN){ 
174F2:  MOVF   34,W
174F4:  SUBLW  0B
174F6:  BTFSC  FD8.2
174F8:  GOTO   17504
174FC:  BSF    F93.1
174FE:  BTFSC  F81.1
17500:  GOTO   1750E
....................                   --pulsosConfigurados; 
17504:  MOVLB  2
17506:  DECF   xD2,F
....................                RX_Buffer[4]=0x00; 
17508:  CLRF   34
....................                RX_Buffer2[4]=0x00;             
1750A:  CLRF   3F
1750C:  MOVLB  0
....................             } 
....................          } 
....................          if(pulsosConfigurados>8) 
1750E:  MOVLB  2
17510:  MOVF   xD2,W
17512:  SUBLW  08
17514:  BTFSC  FD8.0
17516:  GOTO   1751E
....................             pulsosConfigurados=2; 
1751A:  MOVLW  02
1751C:  MOVWF  xD2
....................          if(pulsosConfigurados<2) 
1751E:  MOVF   xD2,W
17520:  SUBLW  01
17522:  BTFSS  FD8.0
17524:  GOTO   1752C
....................             pulsosConfigurados=8; 
17528:  MOVLW  08
1752A:  MOVWF  xD2
....................       }else if(Opcion2==16){ 
1752C:  GOTO   1761A
17530:  MOVLB  3
17532:  MOVF   x50,W
17534:  SUBLW  10
17536:  BTFSS  FD8.2
17538:  GOTO   1761A
....................          printf("Config.t2c.txt=\"Vacio Test\""); 
1753C:  MOVLW  EA
1753E:  MOVWF  FF6
17540:  MOVLW  1F
17542:  MOVWF  FF7
17544:  MOVLW  00
17546:  MOVWF  FF8
17548:  MOVLB  0
1754A:  CALL   4538
....................          SendDataDisplay();       
1754E:  CALL   456A
....................          printf("t3c.txt=\"%02u\"",vacioTest); 
17552:  MOVLW  06
17554:  MOVWF  FF6
17556:  MOVLW  20
17558:  MOVWF  FF7
1755A:  MOVLW  00
1755C:  MOVWF  FF8
1755E:  MOVLW  09
17560:  MOVLB  7
17562:  MOVWF  x0D
17564:  MOVLB  0
17566:  CALL   5D0E
1756A:  MOVFF  357,70D
1756E:  MOVLW  01
17570:  MOVLB  7
17572:  MOVWF  x0E
17574:  MOVLB  0
17576:  CALL   632A
1757A:  MOVLW  22
1757C:  BTFSS  F9E.4
1757E:  GOTO   1757C
17582:  MOVWF  FAD
....................          SendDataDisplay(); 
17584:  CALL   456A
....................          if(RX_Buffer[4]==0x0a || UP){//Tecla Arriba Oprimida 
17588:  MOVF   34,W
1758A:  SUBLW  0A
1758C:  BTFSC  FD8.2
1758E:  GOTO   1759A
17592:  BSF    F93.0
17594:  BTFSC  F81.0
17596:  GOTO   175C2
....................             delay_ms(20); 
1759A:  MOVLW  14
1759C:  MOVLB  7
1759E:  MOVWF  x1E
175A0:  MOVLB  0
175A2:  CALL   2060
....................             if(RX_Buffer[4]==0x0a || UP){ 
175A6:  MOVF   34,W
175A8:  SUBLW  0A
175AA:  BTFSC  FD8.2
175AC:  GOTO   175B8
175B0:  BSF    F93.0
175B2:  BTFSC  F81.0
175B4:  GOTO   175C2
....................                   ++vacioTest; 
175B8:  MOVLB  3
175BA:  INCF   x57,F
....................                RX_Buffer[4]=0x00;   
175BC:  CLRF   34
....................                RX_Buffer2[4]=0x00;             
175BE:  CLRF   3F
175C0:  MOVLB  0
....................             } 
....................          } 
....................              
....................          if(RX_Buffer[4]==0x0b || DOWN){//Tecla Abajo Oprimida 
175C2:  MOVF   34,W
175C4:  SUBLW  0B
175C6:  BTFSC  FD8.2
175C8:  GOTO   175D4
175CC:  BSF    F93.1
175CE:  BTFSC  F81.1
175D0:  GOTO   175FC
....................             delay_ms(20); 
175D4:  MOVLW  14
175D6:  MOVLB  7
175D8:  MOVWF  x1E
175DA:  MOVLB  0
175DC:  CALL   2060
....................             if(RX_Buffer[4]==0x0b || DOWN){ 
175E0:  MOVF   34,W
175E2:  SUBLW  0B
175E4:  BTFSC  FD8.2
175E6:  GOTO   175F2
175EA:  BSF    F93.1
175EC:  BTFSC  F81.1
175EE:  GOTO   175FC
....................                   --vacioTest; 
175F2:  MOVLB  3
175F4:  DECF   x57,F
....................                RX_Buffer[4]=0x00; 
175F6:  CLRF   34
....................                RX_Buffer2[4]=0x00;             
175F8:  CLRF   3F
175FA:  MOVLB  0
....................             } 
....................          } 
....................          if(vacioTest>30) 
175FC:  MOVLB  3
175FE:  MOVF   x57,W
17600:  SUBLW  1E
17602:  BTFSC  FD8.0
17604:  GOTO   1760C
....................             vacioTest=17; 
17608:  MOVLW  11
1760A:  MOVWF  x57
....................          if(vacioTest<17) 
1760C:  MOVF   x57,W
1760E:  SUBLW  10
17610:  BTFSS  FD8.0
17612:  GOTO   1761A
....................             vacioTest=30; 
17616:  MOVLW  1E
17618:  MOVWF  x57
1761A:  MOVLB  0
....................       } 
....................        
....................       if(RX_Buffer[4]==0x0c || LEFT){//Tecla Izquierda Oprimida 
1761C:  MOVF   34,W
1761E:  SUBLW  0C
17620:  BTFSC  FD8.2
17622:  GOTO   1762E
17626:  BSF    F93.3
17628:  BTFSC  F81.3
1762A:  GOTO   17656
....................          delay_ms(20); 
1762E:  MOVLW  14
17630:  MOVLB  7
17632:  MOVWF  x1E
17634:  MOVLB  0
17636:  CALL   2060
....................          if(RX_Buffer[4]==0x0c || LEFT){ 
1763A:  MOVF   34,W
1763C:  SUBLW  0C
1763E:  BTFSC  FD8.2
17640:  GOTO   1764C
17644:  BSF    F93.3
17646:  BTFSC  F81.3
17648:  GOTO   17656
....................             Opcion2++; 
1764C:  MOVLB  3
1764E:  INCF   x50,F
....................             RX_Buffer[4]=0x00;   
17650:  CLRF   34
....................             RX_Buffer2[4]=0x00;             
17652:  CLRF   3F
17654:  MOVLB  0
....................          } 
....................       } 
....................           
....................       if(RX_Buffer[4]==0x0d || RIGHT){//Tecla Derecha Oprimida 
17656:  MOVF   34,W
17658:  SUBLW  0D
1765A:  BTFSC  FD8.2
1765C:  GOTO   17668
17660:  BSF    F93.2
17662:  BTFSC  F81.2
17664:  GOTO   17690
....................          delay_ms(20); 
17668:  MOVLW  14
1766A:  MOVLB  7
1766C:  MOVWF  x1E
1766E:  MOVLB  0
17670:  CALL   2060
....................          if(RX_Buffer[4]==0x0d || RIGHT){ 
17674:  MOVF   34,W
17676:  SUBLW  0D
17678:  BTFSC  FD8.2
1767A:  GOTO   17686
1767E:  BSF    F93.2
17680:  BTFSC  F81.2
17682:  GOTO   17690
....................             Opcion2--; 
17686:  MOVLB  3
17688:  DECF   x50,F
....................             RX_Buffer[4]=0x00; 
1768A:  CLRF   34
....................             RX_Buffer2[4]=0x00;             
1768C:  CLRF   3F
1768E:  MOVLB  0
....................          } 
....................       } 
....................        
....................       if(RX_Buffer[4]==0x11 || (RIGHT && LEFT)){//Tecla Regresar 
17690:  MOVF   34,W
17692:  SUBLW  11
17694:  BTFSC  FD8.2
17696:  GOTO   176AA
1769A:  BSF    F93.2
1769C:  BTFSC  F81.2
1769E:  GOTO   17D84
176A2:  BSF    F93.3
176A4:  BTFSC  F81.3
176A6:  GOTO   17D84
....................          delay_ms(20); 
176AA:  MOVLW  14
176AC:  MOVLB  7
176AE:  MOVWF  x1E
176B0:  MOVLB  0
176B2:  CALL   2060
....................          if(RX_Buffer[4]==0x11 || (RIGHT && LEFT)){ 
176B6:  MOVF   34,W
176B8:  SUBLW  11
176BA:  BTFSC  FD8.2
176BC:  GOTO   176D0
176C0:  BSF    F93.2
176C2:  BTFSC  F81.2
176C4:  GOTO   17D84
176C8:  BSF    F93.3
176CA:  BTFSC  F81.3
176CC:  GOTO   17D84
....................             if(!GuardaEEPROM){ 
176D0:  BTFSC  xA2.2
176D2:  GOTO   17D70
....................                write_eeprom(18,(int8)Integral); 
176D6:  CLRF   FAA
176D8:  MOVLW  12
176DA:  MOVWF  FA9
176DC:  MOVFF  32B,FA8
176E0:  BCF    FA6.6
176E2:  BCF    FA6.7
176E4:  BSF    FA6.2
176E6:  MOVF   FF2,W
176E8:  MOVWF  00
176EA:  BCF    FF2.6
176EC:  BCF    FF2.7
176EE:  MOVLB  F
176F0:  MOVLW  55
176F2:  MOVWF  FA7
176F4:  MOVLW  AA
176F6:  MOVWF  FA7
176F8:  BSF    FA6.1
176FA:  BTFSC  FA6.1
176FC:  GOTO   176FA
17700:  BCF    FA6.2
17702:  MOVF   00,W
17704:  IORWF  FF2,F
....................                delay_ms(10); 
17706:  MOVLW  0A
17708:  MOVLB  7
1770A:  MOVWF  x1E
1770C:  MOVLB  0
1770E:  CALL   2060
....................                write_eeprom(19,(int8)Derivativo); 
17712:  CLRF   FAA
17714:  MOVLW  13
17716:  MOVWF  FA9
17718:  MOVFF  32C,FA8
1771C:  BCF    FA6.6
1771E:  BCF    FA6.7
17720:  BSF    FA6.2
17722:  MOVF   FF2,W
17724:  MOVWF  00
17726:  BCF    FF2.6
17728:  BCF    FF2.7
1772A:  MOVLB  F
1772C:  MOVLW  55
1772E:  MOVWF  FA7
17730:  MOVLW  AA
17732:  MOVWF  FA7
17734:  BSF    FA6.1
17736:  BTFSC  FA6.1
17738:  GOTO   17736
1773C:  BCF    FA6.2
1773E:  MOVF   00,W
17740:  IORWF  FF2,F
....................                delay_ms(10); 
17742:  MOVLW  0A
17744:  MOVLB  7
17746:  MOVWF  x1E
17748:  MOVLB  0
1774A:  CALL   2060
....................                write_eeprom(20,(int8)Ganancia); 
1774E:  MOVFF  2F6,71D
17752:  MOVFF  2F5,71C
17756:  MOVFF  2F4,71B
1775A:  MOVFF  2F3,71A
1775E:  CALL   5380
17762:  MOVFF  01,708
17766:  CLRF   FAA
17768:  MOVLW  14
1776A:  MOVWF  FA9
1776C:  MOVFF  708,FA8
17770:  BCF    FA6.6
17772:  BCF    FA6.7
17774:  BSF    FA6.2
17776:  MOVF   FF2,W
17778:  MOVWF  00
1777A:  BCF    FF2.6
1777C:  BCF    FF2.7
1777E:  MOVLB  F
17780:  MOVLW  55
17782:  MOVWF  FA7
17784:  MOVLW  AA
17786:  MOVWF  FA7
17788:  BSF    FA6.1
1778A:  BTFSC  FA6.1
1778C:  GOTO   1778A
17790:  BCF    FA6.2
17792:  MOVF   00,W
17794:  IORWF  FF2,F
....................                delay_ms(10); 
17796:  MOVLW  0A
17798:  MOVLB  7
1779A:  MOVWF  x1E
1779C:  MOVLB  0
1779E:  CALL   2060
....................                write_eeprom(21,Sensor[0].Ajuste); 
177A2:  CLRF   FAA
177A4:  MOVLW  15
177A6:  MOVWF  FA9
177A8:  MOVFF  426,FA8
177AC:  BCF    FA6.6
177AE:  BCF    FA6.7
177B0:  BSF    FA6.2
177B2:  MOVF   FF2,W
177B4:  MOVWF  00
177B6:  BCF    FF2.6
177B8:  BCF    FF2.7
177BA:  MOVLB  F
177BC:  MOVLW  55
177BE:  MOVWF  FA7
177C0:  MOVLW  AA
177C2:  MOVWF  FA7
177C4:  BSF    FA6.1
177C6:  BTFSC  FA6.1
177C8:  GOTO   177C6
177CC:  BCF    FA6.2
177CE:  MOVF   00,W
177D0:  IORWF  FF2,F
....................                delay_ms(10); 
177D2:  MOVLW  0A
177D4:  MOVLB  7
177D6:  MOVWF  x1E
177D8:  MOVLB  0
177DA:  CALL   2060
....................                write_eeprom(22,Sensor[0].Ajusten); 
177DE:  CLRF   FAA
177E0:  MOVLW  16
177E2:  MOVWF  FA9
177E4:  MOVFF  427,FA8
177E8:  BCF    FA6.6
177EA:  BCF    FA6.7
177EC:  BSF    FA6.2
177EE:  MOVF   FF2,W
177F0:  MOVWF  00
177F2:  BCF    FF2.6
177F4:  BCF    FF2.7
177F6:  MOVLB  F
177F8:  MOVLW  55
177FA:  MOVWF  FA7
177FC:  MOVLW  AA
177FE:  MOVWF  FA7
17800:  BSF    FA6.1
17802:  BTFSC  FA6.1
17804:  GOTO   17802
17808:  BCF    FA6.2
1780A:  MOVF   00,W
1780C:  IORWF  FF2,F
....................                delay_ms(10); 
1780E:  MOVLW  0A
17810:  MOVLB  7
17812:  MOVWF  x1E
17814:  MOVLB  0
17816:  CALL   2060
....................                write_eeprom(23,Sensor[1].Ajuste); 
1781A:  CLRF   FAA
1781C:  MOVLW  17
1781E:  MOVWF  FA9
17820:  MOVFF  592,FA8
17824:  BCF    FA6.6
17826:  BCF    FA6.7
17828:  BSF    FA6.2
1782A:  MOVF   FF2,W
1782C:  MOVWF  00
1782E:  BCF    FF2.6
17830:  BCF    FF2.7
17832:  MOVLB  F
17834:  MOVLW  55
17836:  MOVWF  FA7
17838:  MOVLW  AA
1783A:  MOVWF  FA7
1783C:  BSF    FA6.1
1783E:  BTFSC  FA6.1
17840:  GOTO   1783E
17844:  BCF    FA6.2
17846:  MOVF   00,W
17848:  IORWF  FF2,F
....................                delay_ms(10); 
1784A:  MOVLW  0A
1784C:  MOVLB  7
1784E:  MOVWF  x1E
17850:  MOVLB  0
17852:  CALL   2060
....................                write_eeprom(24,Sensor[1].Ajusten); 
17856:  CLRF   FAA
17858:  MOVLW  18
1785A:  MOVWF  FA9
1785C:  MOVFF  593,FA8
17860:  BCF    FA6.6
17862:  BCF    FA6.7
17864:  BSF    FA6.2
17866:  MOVF   FF2,W
17868:  MOVWF  00
1786A:  BCF    FF2.6
1786C:  BCF    FF2.7
1786E:  MOVLB  F
17870:  MOVLW  55
17872:  MOVWF  FA7
17874:  MOVLW  AA
17876:  MOVWF  FA7
17878:  BSF    FA6.1
1787A:  BTFSC  FA6.1
1787C:  GOTO   1787A
17880:  BCF    FA6.2
17882:  MOVF   00,W
17884:  IORWF  FF2,F
....................                delay_ms(10); 
17886:  MOVLW  0A
17888:  MOVLB  7
1788A:  MOVWF  x1E
1788C:  MOVLB  0
1788E:  CALL   2060
....................                write_eeprom(25,(int8)MediaMovil); 
17892:  CLRF   FAA
17894:  MOVLW  19
17896:  MOVWF  FA9
17898:  MOVFF  2CC,FA8
1789C:  BCF    FA6.6
1789E:  BCF    FA6.7
178A0:  BSF    FA6.2
178A2:  MOVF   FF2,W
178A4:  MOVWF  00
178A6:  BCF    FF2.6
178A8:  BCF    FF2.7
178AA:  MOVLB  F
178AC:  MOVLW  55
178AE:  MOVWF  FA7
178B0:  MOVLW  AA
178B2:  MOVWF  FA7
178B4:  BSF    FA6.1
178B6:  BTFSC  FA6.1
178B8:  GOTO   178B6
178BC:  BCF    FA6.2
178BE:  MOVF   00,W
178C0:  IORWF  FF2,F
....................                delay_ms(10); 
178C2:  MOVLW  0A
178C4:  MOVLB  7
178C6:  MOVWF  x1E
178C8:  MOVLB  0
178CA:  CALL   2060
....................                write_eeprom(26,(int8)Tciclo); 
178CE:  MOVFF  2DE,71D
178D2:  MOVFF  2DD,71C
178D6:  MOVFF  2DC,71B
178DA:  MOVFF  2DB,71A
178DE:  CALL   5380
178E2:  MOVFF  01,708
178E6:  CLRF   FAA
178E8:  MOVLW  1A
178EA:  MOVWF  FA9
178EC:  MOVFF  708,FA8
178F0:  BCF    FA6.6
178F2:  BCF    FA6.7
178F4:  BSF    FA6.2
178F6:  MOVF   FF2,W
178F8:  MOVWF  00
178FA:  BCF    FF2.6
178FC:  BCF    FF2.7
178FE:  MOVLB  F
17900:  MOVLW  55
17902:  MOVWF  FA7
17904:  MOVLW  AA
17906:  MOVWF  FA7
17908:  BSF    FA6.1
1790A:  BTFSC  FA6.1
1790C:  GOTO   1790A
17910:  BCF    FA6.2
17912:  MOVF   00,W
17914:  IORWF  FF2,F
....................                delay_ms(10); 
17916:  MOVLW  0A
17918:  MOVLB  7
1791A:  MOVWF  x1E
1791C:  MOVLB  0
1791E:  CALL   2060
....................                write_eeprom(28,(int8)Sensor[0].RPT100); 
17922:  MOVFF  41B,71D
17926:  MOVFF  41A,71C
1792A:  MOVFF  419,71B
1792E:  MOVFF  418,71A
17932:  CALL   5380
17936:  MOVFF  01,708
1793A:  CLRF   FAA
1793C:  MOVLW  1C
1793E:  MOVWF  FA9
17940:  MOVFF  708,FA8
17944:  BCF    FA6.6
17946:  BCF    FA6.7
17948:  BSF    FA6.2
1794A:  MOVF   FF2,W
1794C:  MOVWF  00
1794E:  BCF    FF2.6
17950:  BCF    FF2.7
17952:  MOVLB  F
17954:  MOVLW  55
17956:  MOVWF  FA7
17958:  MOVLW  AA
1795A:  MOVWF  FA7
1795C:  BSF    FA6.1
1795E:  BTFSC  FA6.1
17960:  GOTO   1795E
17964:  BCF    FA6.2
17966:  MOVF   00,W
17968:  IORWF  FF2,F
....................                delay_ms(10); 
1796A:  MOVLW  0A
1796C:  MOVLB  7
1796E:  MOVWF  x1E
17970:  MOVLB  0
17972:  CALL   2060
....................                Temporal=Sensor[0].RPT100-((int8)Sensor[0].RPT100); 
17976:  MOVFF  41B,71D
1797A:  MOVFF  41A,71C
1797E:  MOVFF  419,71B
17982:  MOVFF  418,71A
17986:  CALL   5380
1798A:  MOVLB  7
1798C:  CLRF   x1B
1798E:  MOVFF  01,71A
17992:  MOVLB  0
17994:  CALL   2088
17998:  BSF    FD8.1
1799A:  MOVFF  41B,71D
1799E:  MOVFF  41A,71C
179A2:  MOVFF  419,71B
179A6:  MOVFF  418,71A
179AA:  MOVFF  03,721
179AE:  MOVFF  02,720
179B2:  MOVFF  01,71F
179B6:  MOVFF  00,71E
179BA:  CALL   221C
179BE:  MOVFF  03,2AF
179C2:  MOVFF  02,2AE
179C6:  MOVFF  01,2AD
179CA:  MOVFF  00,2AC
....................                Temporal=Temporal*10; 
179CE:  MOVFF  2AF,721
179D2:  MOVFF  2AE,720
179D6:  MOVFF  2AD,71F
179DA:  MOVFF  2AC,71E
179DE:  MOVLB  7
179E0:  CLRF   x25
179E2:  CLRF   x24
179E4:  MOVLW  20
179E6:  MOVWF  x23
179E8:  MOVLW  82
179EA:  MOVWF  x22
179EC:  MOVLB  0
179EE:  CALL   4628
179F2:  MOVFF  03,2AF
179F6:  MOVFF  02,2AE
179FA:  MOVFF  01,2AD
179FE:  MOVFF  00,2AC
....................                write_eeprom(27,(int8)Temporal); 
17A02:  MOVFF  2AF,71D
17A06:  MOVFF  2AE,71C
17A0A:  MOVFF  2AD,71B
17A0E:  MOVFF  2AC,71A
17A12:  CALL   5380
17A16:  MOVFF  01,708
17A1A:  CLRF   FAA
17A1C:  MOVLW  1B
17A1E:  MOVWF  FA9
17A20:  MOVFF  708,FA8
17A24:  BCF    FA6.6
17A26:  BCF    FA6.7
17A28:  BSF    FA6.2
17A2A:  MOVF   FF2,W
17A2C:  MOVWF  00
17A2E:  BCF    FF2.6
17A30:  BCF    FF2.7
17A32:  MOVLB  F
17A34:  MOVLW  55
17A36:  MOVWF  FA7
17A38:  MOVLW  AA
17A3A:  MOVWF  FA7
17A3C:  BSF    FA6.1
17A3E:  BTFSC  FA6.1
17A40:  GOTO   17A3E
17A44:  BCF    FA6.2
17A46:  MOVF   00,W
17A48:  IORWF  FF2,F
....................                delay_ms(10); 
17A4A:  MOVLW  0A
17A4C:  MOVLB  7
17A4E:  MOVWF  x1E
17A50:  MOVLB  0
17A52:  CALL   2060
....................                write_eeprom(30,(int8)Sensor[1].RPT100); 
17A56:  MOVFF  587,71D
17A5A:  MOVFF  586,71C
17A5E:  MOVFF  585,71B
17A62:  MOVFF  584,71A
17A66:  CALL   5380
17A6A:  MOVFF  01,708
17A6E:  CLRF   FAA
17A70:  MOVLW  1E
17A72:  MOVWF  FA9
17A74:  MOVFF  708,FA8
17A78:  BCF    FA6.6
17A7A:  BCF    FA6.7
17A7C:  BSF    FA6.2
17A7E:  MOVF   FF2,W
17A80:  MOVWF  00
17A82:  BCF    FF2.6
17A84:  BCF    FF2.7
17A86:  MOVLB  F
17A88:  MOVLW  55
17A8A:  MOVWF  FA7
17A8C:  MOVLW  AA
17A8E:  MOVWF  FA7
17A90:  BSF    FA6.1
17A92:  BTFSC  FA6.1
17A94:  GOTO   17A92
17A98:  BCF    FA6.2
17A9A:  MOVF   00,W
17A9C:  IORWF  FF2,F
....................                delay_ms(10); 
17A9E:  MOVLW  0A
17AA0:  MOVLB  7
17AA2:  MOVWF  x1E
17AA4:  MOVLB  0
17AA6:  CALL   2060
....................                Temporal=Sensor[1].RPT100-((int8)Sensor[1].RPT100); 
17AAA:  MOVFF  587,71D
17AAE:  MOVFF  586,71C
17AB2:  MOVFF  585,71B
17AB6:  MOVFF  584,71A
17ABA:  CALL   5380
17ABE:  MOVLB  7
17AC0:  CLRF   x1B
17AC2:  MOVFF  01,71A
17AC6:  MOVLB  0
17AC8:  CALL   2088
17ACC:  BSF    FD8.1
17ACE:  MOVFF  587,71D
17AD2:  MOVFF  586,71C
17AD6:  MOVFF  585,71B
17ADA:  MOVFF  584,71A
17ADE:  MOVFF  03,721
17AE2:  MOVFF  02,720
17AE6:  MOVFF  01,71F
17AEA:  MOVFF  00,71E
17AEE:  CALL   221C
17AF2:  MOVFF  03,2AF
17AF6:  MOVFF  02,2AE
17AFA:  MOVFF  01,2AD
17AFE:  MOVFF  00,2AC
....................                Temporal=Temporal*10; 
17B02:  MOVFF  2AF,721
17B06:  MOVFF  2AE,720
17B0A:  MOVFF  2AD,71F
17B0E:  MOVFF  2AC,71E
17B12:  MOVLB  7
17B14:  CLRF   x25
17B16:  CLRF   x24
17B18:  MOVLW  20
17B1A:  MOVWF  x23
17B1C:  MOVLW  82
17B1E:  MOVWF  x22
17B20:  MOVLB  0
17B22:  CALL   4628
17B26:  MOVFF  03,2AF
17B2A:  MOVFF  02,2AE
17B2E:  MOVFF  01,2AD
17B32:  MOVFF  00,2AC
....................                write_eeprom(29,(int8)Temporal); 
17B36:  MOVFF  2AF,71D
17B3A:  MOVFF  2AE,71C
17B3E:  MOVFF  2AD,71B
17B42:  MOVFF  2AC,71A
17B46:  CALL   5380
17B4A:  MOVFF  01,708
17B4E:  CLRF   FAA
17B50:  MOVLW  1D
17B52:  MOVWF  FA9
17B54:  MOVFF  708,FA8
17B58:  BCF    FA6.6
17B5A:  BCF    FA6.7
17B5C:  BSF    FA6.2
17B5E:  MOVF   FF2,W
17B60:  MOVWF  00
17B62:  BCF    FF2.6
17B64:  BCF    FF2.7
17B66:  MOVLB  F
17B68:  MOVLW  55
17B6A:  MOVWF  FA7
17B6C:  MOVLW  AA
17B6E:  MOVWF  FA7
17B70:  BSF    FA6.1
17B72:  BTFSC  FA6.1
17B74:  GOTO   17B72
17B78:  BCF    FA6.2
17B7A:  MOVF   00,W
17B7C:  IORWF  FF2,F
....................                delay_ms(10); 
17B7E:  MOVLW  0A
17B80:  MOVLB  7
17B82:  MOVWF  x1E
17B84:  MOVLB  0
17B86:  CALL   2060
....................                write_eeprom(31,Atmosferica); 
17B8A:  CLRF   FAA
17B8C:  MOVLW  1F
17B8E:  MOVWF  FA9
17B90:  MOVFF  33A,FA8
17B94:  BCF    FA6.6
17B96:  BCF    FA6.7
17B98:  BSF    FA6.2
17B9A:  MOVF   FF2,W
17B9C:  MOVWF  00
17B9E:  BCF    FF2.6
17BA0:  BCF    FF2.7
17BA2:  MOVLB  F
17BA4:  MOVLW  55
17BA6:  MOVWF  FA7
17BA8:  MOVLW  AA
17BAA:  MOVWF  FA7
17BAC:  BSF    FA6.1
17BAE:  BTFSC  FA6.1
17BB0:  GOTO   17BAE
17BB4:  BCF    FA6.2
17BB6:  MOVF   00,W
17BB8:  IORWF  FF2,F
....................                delay_ms(10); 
17BBA:  MOVLW  0A
17BBC:  MOVLB  7
17BBE:  MOVWF  x1E
17BC0:  MOVLB  0
17BC2:  CALL   2060
....................                write_eeprom(32,Tapertura); 
17BC6:  CLRF   FAA
17BC8:  MOVLW  20
17BCA:  MOVWF  FA9
17BCC:  MOVFF  2D1,FA8
17BD0:  BCF    FA6.6
17BD2:  BCF    FA6.7
17BD4:  BSF    FA6.2
17BD6:  MOVF   FF2,W
17BD8:  MOVWF  00
17BDA:  BCF    FF2.6
17BDC:  BCF    FF2.7
17BDE:  MOVLB  F
17BE0:  MOVLW  55
17BE2:  MOVWF  FA7
17BE4:  MOVLW  AA
17BE6:  MOVWF  FA7
17BE8:  BSF    FA6.1
17BEA:  BTFSC  FA6.1
17BEC:  GOTO   17BEA
17BF0:  BCF    FA6.2
17BF2:  MOVF   00,W
17BF4:  IORWF  FF2,F
....................                delay_ms(10); 
17BF6:  MOVLW  0A
17BF8:  MOVLB  7
17BFA:  MOVWF  x1E
17BFC:  MOVLB  0
17BFE:  CALL   2060
....................                write_eeprom(39,TTrampa); 
17C02:  CLRF   FAA
17C04:  MOVLW  27
17C06:  MOVWF  FA9
17C08:  MOVFF  32E,FA8
17C0C:  BCF    FA6.6
17C0E:  BCF    FA6.7
17C10:  BSF    FA6.2
17C12:  MOVF   FF2,W
17C14:  MOVWF  00
17C16:  BCF    FF2.6
17C18:  BCF    FF2.7
17C1A:  MOVLB  F
17C1C:  MOVLW  55
17C1E:  MOVWF  FA7
17C20:  MOVLW  AA
17C22:  MOVWF  FA7
17C24:  BSF    FA6.1
17C26:  BTFSC  FA6.1
17C28:  GOTO   17C26
17C2C:  BCF    FA6.2
17C2E:  MOVF   00,W
17C30:  IORWF  FF2,F
....................                delay_ms(10); 
17C32:  MOVLW  0A
17C34:  MOVLB  7
17C36:  MOVWF  x1E
17C38:  MOVLB  0
17C3A:  CALL   2060
....................                write_eeprom(46,NivelDesfogue); 
17C3E:  CLRF   FAA
17C40:  MOVLW  2E
17C42:  MOVWF  FA9
17C44:  MOVFF  36B,FA8
17C48:  BCF    FA6.6
17C4A:  BCF    FA6.7
17C4C:  BSF    FA6.2
17C4E:  MOVF   FF2,W
17C50:  MOVWF  00
17C52:  BCF    FF2.6
17C54:  BCF    FF2.7
17C56:  MOVLB  F
17C58:  MOVLW  55
17C5A:  MOVWF  FA7
17C5C:  MOVLW  AA
17C5E:  MOVWF  FA7
17C60:  BSF    FA6.1
17C62:  BTFSC  FA6.1
17C64:  GOTO   17C62
17C68:  BCF    FA6.2
17C6A:  MOVF   00,W
17C6C:  IORWF  FF2,F
....................                delay_ms(10); 
17C6E:  MOVLW  0A
17C70:  MOVLB  7
17C72:  MOVWF  x1E
17C74:  MOVLB  0
17C76:  CALL   2060
....................                write_eeprom(47,pulsosConfigurados); 
17C7A:  CLRF   FAA
17C7C:  MOVLW  2F
17C7E:  MOVWF  FA9
17C80:  MOVFF  2D2,FA8
17C84:  BCF    FA6.6
17C86:  BCF    FA6.7
17C88:  BSF    FA6.2
17C8A:  MOVF   FF2,W
17C8C:  MOVWF  00
17C8E:  BCF    FF2.6
17C90:  BCF    FF2.7
17C92:  MOVLB  F
17C94:  MOVLW  55
17C96:  MOVWF  FA7
17C98:  MOVLW  AA
17C9A:  MOVWF  FA7
17C9C:  BSF    FA6.1
17C9E:  BTFSC  FA6.1
17CA0:  GOTO   17C9E
17CA4:  BCF    FA6.2
17CA6:  MOVF   00,W
17CA8:  IORWF  FF2,F
....................                delay_ms(10); 
17CAA:  MOVLW  0A
17CAC:  MOVLB  7
17CAE:  MOVWF  x1E
17CB0:  MOVLB  0
17CB2:  CALL   2060
....................                write_eeprom(48,vacioTest); 
17CB6:  CLRF   FAA
17CB8:  MOVLW  30
17CBA:  MOVWF  FA9
17CBC:  MOVFF  357,FA8
17CC0:  BCF    FA6.6
17CC2:  BCF    FA6.7
17CC4:  BSF    FA6.2
17CC6:  MOVF   FF2,W
17CC8:  MOVWF  00
17CCA:  BCF    FF2.6
17CCC:  BCF    FF2.7
17CCE:  MOVLB  F
17CD0:  MOVLW  55
17CD2:  MOVWF  FA7
17CD4:  MOVLW  AA
17CD6:  MOVWF  FA7
17CD8:  BSF    FA6.1
17CDA:  BTFSC  FA6.1
17CDC:  GOTO   17CDA
17CE0:  BCF    FA6.2
17CE2:  MOVF   00,W
17CE4:  IORWF  FF2,F
....................                delay_ms(10); 
17CE6:  MOVLW  0A
17CE8:  MOVLB  7
17CEA:  MOVWF  x1E
17CEC:  MOVLB  0
17CEE:  CALL   2060
....................                write_eeprom(49,vacioCiclo); 
17CF2:  CLRF   FAA
17CF4:  MOVLW  31
17CF6:  MOVWF  FA9
17CF8:  MOVFF  358,FA8
17CFC:  BCF    FA6.6
17CFE:  BCF    FA6.7
17D00:  BSF    FA6.2
17D02:  MOVF   FF2,W
17D04:  MOVWF  00
17D06:  BCF    FF2.6
17D08:  BCF    FF2.7
17D0A:  MOVLB  F
17D0C:  MOVLW  55
17D0E:  MOVWF  FA7
17D10:  MOVLW  AA
17D12:  MOVWF  FA7
17D14:  BSF    FA6.1
17D16:  BTFSC  FA6.1
17D18:  GOTO   17D16
17D1C:  BCF    FA6.2
17D1E:  MOVF   00,W
17D20:  IORWF  FF2,F
....................                delay_ms(10); 
17D22:  MOVLW  0A
17D24:  MOVLB  7
17D26:  MOVWF  x1E
17D28:  MOVLB  0
17D2A:  CALL   2060
....................                GuardaEEPROM=ON; 
17D2E:  BSF    xA2.2
....................                NivelSeleccionado=4995*NivelDesfogue; 
17D30:  MOVLW  13
17D32:  MOVLB  7
17D34:  MOVWF  x1F
17D36:  MOVLW  83
17D38:  MOVWF  x1E
17D3A:  MOVFF  36C,721
17D3E:  MOVFF  36B,720
17D42:  MOVLB  0
17D44:  CALL   2494
17D48:  MOVFF  02,38A
17D4C:  MOVFF  01,389
....................                Buzzer_on; 
17D50:  BSF    F8C.7
17D52:  BCF    F95.7
....................                delay_ms(1000); 
17D54:  MOVLW  04
17D56:  MOVLB  7
17D58:  MOVWF  x08
17D5A:  MOVLW  FA
17D5C:  MOVWF  x1E
17D5E:  MOVLB  0
17D60:  CALL   2060
17D64:  MOVLB  7
17D66:  DECFSZ x08,F
17D68:  BRA    17D5A
....................                Buzzer_off; 
17D6A:  BCF    F8C.7
17D6C:  BCF    F95.7
17D6E:  MOVLB  0
....................             } 
....................             printf("page MenuPrincipal"); 
17D70:  MOVLW  16
17D72:  MOVWF  FF6
17D74:  MOVLW  20
17D76:  MOVWF  FF7
17D78:  MOVLW  00
17D7A:  MOVWF  FF8
17D7C:  CALL   4538
....................             SendDataDisplay(); 
17D80:  CALL   456A
....................          } 
....................       } 
....................       printf("fecha.txt=\"Fecha:%02u/%02u/20%02u    Hora: %02u:%02u\"",Dia,Mes,Year,Hora,Minuto); 
17D84:  MOVLW  2A
17D86:  MOVWF  FF6
17D88:  MOVLW  20
17D8A:  MOVWF  FF7
17D8C:  MOVLW  00
17D8E:  MOVWF  FF8
17D90:  MOVLW  11
17D92:  MOVLB  7
17D94:  MOVWF  x0D
17D96:  MOVLB  0
17D98:  CALL   5D0E
17D9C:  MOVFF  38D,70D
17DA0:  MOVLW  01
17DA2:  MOVLB  7
17DA4:  MOVWF  x0E
17DA6:  MOVLB  0
17DA8:  CALL   632A
17DAC:  MOVLW  2F
17DAE:  BTFSS  F9E.4
17DB0:  GOTO   17DAE
17DB4:  MOVWF  FAD
17DB6:  MOVFF  38C,70D
17DBA:  MOVLW  01
17DBC:  MOVLB  7
17DBE:  MOVWF  x0E
17DC0:  MOVLB  0
17DC2:  CALL   632A
17DC6:  MOVLW  2F
17DC8:  BTFSS  F9E.4
17DCA:  GOTO   17DC8
17DCE:  MOVWF  FAD
17DD0:  MOVLW  32
17DD2:  BTFSS  F9E.4
17DD4:  GOTO   17DD2
17DD8:  MOVWF  FAD
17DDA:  MOVLW  30
17DDC:  BTFSS  F9E.4
17DDE:  GOTO   17DDC
17DE2:  MOVWF  FAD
17DE4:  MOVFF  38B,70D
17DE8:  MOVLW  01
17DEA:  MOVLB  7
17DEC:  MOVWF  x0E
17DEE:  MOVLB  0
17DF0:  CALL   632A
17DF4:  MOVLW  4B
17DF6:  MOVWF  FF6
17DF8:  MOVLW  20
17DFA:  MOVWF  FF7
17DFC:  MOVLW  00
17DFE:  MOVWF  FF8
17E00:  MOVLW  0A
17E02:  MOVLB  7
17E04:  MOVWF  x0D
17E06:  MOVLB  0
17E08:  CALL   5D0E
17E0C:  MOVFF  38E,70D
17E10:  MOVLW  01
17E12:  MOVLB  7
17E14:  MOVWF  x0E
17E16:  MOVLB  0
17E18:  CALL   632A
17E1C:  MOVLW  3A
17E1E:  BTFSS  F9E.4
17E20:  GOTO   17E1E
17E24:  MOVWF  FAD
17E26:  MOVFF  38F,70D
17E2A:  MOVLW  01
17E2C:  MOVLB  7
17E2E:  MOVWF  x0E
17E30:  MOVLB  0
17E32:  CALL   632A
17E36:  MOVLW  22
17E38:  BTFSS  F9E.4
17E3A:  GOTO   17E38
17E3E:  MOVWF  FAD
....................       SendDataDisplay();  
17E40:  CALL   456A
17E44:  MOVLB  3
....................     } 
.................... //_--------------------------------------------------------------------------------------------------------------------------------------------------------        
....................    } 
17E46:  GOTO   10BA8
.................... } 
17E4A:  SLEEP 

Configuration Fuses:
   Word  1: 0200   HS NOIESO NOFCMEN
   Word  2: 1B19   NOBROWNOUT WDT BORV20 NOPUT WDT8192
   Word  3: 0000   NOPBADEN NOLPT1OSC NOMCLR
   Word  4: 00B0   NOSTVREN NODEBUG NOLVP NOXINST BBSIZ4K
   Word  5: C03F   NOPROTECT NOCPD NOCPB
   Word  6: E03F   NOWRT NOWRTD NOWRTC NOWRTB
   Word  7: 403F   NOEBTR NOEBTRB
