CCS PCH C Compiler, Version 5.059, 56587               10-jun.-19 15:43

               Filename:   E:\JP\Autoclave 680L-V3.1 VM #004587960\Firmware V4.0\GLCD_Controller\GLCD_Controller.lst

               ROM used:   57810 bytes (59%)
                           Largest free fragment is 32768
               RAM used:   1593 (48%) at main() level
                           1616 (49%) worst case
               Stack used: 4 locations (3 in main + 1 for interrupts)
               Stack size: 31

*
00000:  GOTO   692A
*
00008:  GOTO   00CE
0000C:  NOP   
0000E:  NOP   
00010:  NOP   
00012:  NOP   
00014:  NOP   
00016:  NOP   
00018:  MOVWF  04
0001A:  MOVFF  FD8,05
0001E:  MOVFF  FE0,06
00022:  MOVLB  0
00024:  MOVFF  FE9,0C
00028:  MOVFF  FEA,07
0002C:  MOVFF  FE1,08
00030:  MOVFF  FE2,09
00034:  MOVFF  FD9,0A
00038:  MOVFF  FDA,0B
0003C:  MOVFF  FF3,12
00040:  MOVFF  FF4,13
00044:  MOVFF  FFA,14
00048:  MOVFF  FF5,15
0004C:  MOVFF  FF6,16
00050:  MOVFF  FF7,17
00054:  MOVFF  FF8,18
00058:  MOVFF  FFB,19
0005C:  MOVFF  00,0E
00060:  MOVFF  01,0F
00064:  MOVFF  02,10
00068:  MOVFF  03,11
0006C:  BTFSS  F9D.0
0006E:  GOTO   0078
00072:  BTFSC  F9E.0
00074:  GOTO   053C
00078:  MOVFF  0E,00
0007C:  MOVFF  0F,01
00080:  MOVFF  10,02
00084:  MOVFF  11,03
00088:  MOVFF  0C,FE9
0008C:  MOVFF  07,FEA
00090:  BSF    07.7
00092:  MOVFF  08,FE1
00096:  MOVFF  09,FE2
0009A:  MOVFF  0A,FD9
0009E:  MOVFF  0B,FDA
000A2:  MOVFF  12,FF3
000A6:  MOVFF  13,FF4
000AA:  MOVFF  14,FFA
000AE:  MOVFF  15,FF5
000B2:  MOVFF  16,FF6
000B6:  MOVFF  17,FF7
000BA:  MOVFF  18,FF8
000BE:  MOVFF  19,FFB
000C2:  MOVF   04,W
000C4:  MOVFF  06,FE0
000C8:  MOVFF  05,FD8
000CC:  RETFIE 0
000CE:  MOVWF  1B
000D0:  MOVFF  FD8,1C
000D4:  MOVFF  FE0,1D
000D8:  MOVLB  0
000DA:  MOVFF  FE9,23
000DE:  MOVFF  FEA,1E
000E2:  MOVFF  FE1,1F
000E6:  MOVFF  FE2,20
000EA:  MOVFF  FD9,21
000EE:  MOVFF  FDA,22
000F2:  MOVFF  FF3,29
000F6:  MOVFF  FF4,2A
000FA:  MOVFF  FFA,2B
000FE:  MOVFF  FF5,2C
00102:  MOVFF  FF6,2D
00106:  MOVFF  FF7,2E
0010A:  MOVFF  FF8,2F
0010E:  MOVFF  FFB,30
00112:  MOVFF  00,25
00116:  MOVFF  01,26
0011A:  MOVFF  02,27
0011E:  MOVFF  03,28
00122:  BTFSS  F9D.5
00124:  GOTO   012E
00128:  BTFSC  F9E.5
0012A:  GOTO   04CE
0012E:  MOVFF  25,00
00132:  MOVFF  26,01
00136:  MOVFF  27,02
0013A:  MOVFF  28,03
0013E:  MOVFF  23,FE9
00142:  MOVFF  1E,FEA
00146:  BSF    1E.7
00148:  MOVFF  1F,FE1
0014C:  MOVFF  20,FE2
00150:  MOVFF  21,FD9
00154:  MOVFF  22,FDA
00158:  MOVFF  29,FF3
0015C:  MOVFF  2A,FF4
00160:  MOVFF  2B,FFA
00164:  MOVFF  2C,FF5
00168:  MOVFF  2D,FF6
0016C:  MOVFF  2E,FF7
00170:  MOVFF  2F,FF8
00174:  MOVFF  30,FFB
00178:  MOVF   1B,W
0017A:  MOVFF  1D,FE0
0017E:  MOVFF  1C,FD8
00182:  RETFIE 0
.................... //Falta crear menu de ajuste de variables y de norma CFR21 
....................  
.................... #include <18F4685.h> 
.................... //////// Standard Header file for the PIC18F4685 device //////////////// 
.................... #device PIC18F4685 
.................... #list 
....................  
.................... #device adc=10 
.................... #device HIGH_INTS=TRUE //Activamos niveles de prioridad 
.................... #fuses HS,WDT8192,NOPROTECT,NOLVP,NODEBUG,NOSTVREN,NOPUT,NOCPD,NOWRT,NOIESO,NOFCMEN,NOPBADEN,NOWRTC,NOWRTB,NOEBTR,NOEBTRB,NOCPB,NOXINST,NOLPT1OSC,NOMCLR 
.................... #use delay(clock=20000000) 
*
01EDC:  MOVLW  06
01EDE:  MOVWF  FEA
01EE0:  MOVLW  35
01EE2:  MOVWF  FE9
01EE4:  MOVF   FEF,W
01EE6:  BZ    1F02
01EE8:  MOVLW  06
01EEA:  MOVWF  01
01EEC:  CLRF   00
01EEE:  DECFSZ 00,F
01EF0:  BRA    1EEE
01EF2:  DECFSZ 01,F
01EF4:  BRA    1EEC
01EF6:  MOVLW  7B
01EF8:  MOVWF  00
01EFA:  DECFSZ 00,F
01EFC:  BRA    1EFA
01EFE:  DECFSZ FEF,F
01F00:  BRA    1EE8
01F02:  RETURN 0
.................... #use i2c(Master,slow,sda=PIN_C4,scl=PIN_C3) 
.................... #use rs232(baud=9600, xmit=PIN_C6, rcv=PIN_C7, bits=8, parity=N) 
*
03C2C:  BTFSS  F9E.4
03C2E:  BRA    3C2C
03C30:  MOVWF  FAD
03C32:  RETURN 0
.................... #include <stdio.h> 
.................... /////////////////////////////////////////////////////////////////////////// 
.................... ////        (C) Copyright 1996,2003 Custom Computer Services           //// 
.................... //// This source code may only be used by licensed users of the CCS C  //// 
.................... //// compiler.  This source code may only be distributed to other      //// 
.................... //// licensed users of the CCS C compiler.  No other use, reproduction //// 
.................... //// or distribution is permitted without written permission.          //// 
.................... //// Derivative programs created using this software in object code    //// 
.................... //// form are not restricted in any way.                               //// 
.................... /////////////////////////////////////////////////////////////////////////// 
....................  
.................... #ifndef _STDIO 
.................... #define _STDIO 
.................... #include <string.h> 
.................... //////////////////////////////////////////////////////////////////////////// 
.................... ////        (C) Copyright 1996,2008 Custom Computer Services            //// 
.................... //// This source code may only be used by licensed users of the CCS C   //// 
.................... //// compiler.  This source code may only be distributed to other       //// 
.................... //// licensed users of the CCS C compiler.  No other use, reproduction  //// 
.................... //// or distribution is permitted without written permission.           //// 
.................... //// Derivative programs created using this software in object code     //// 
.................... //// form are not restricted in any way.                                //// 
.................... //////////////////////////////////////////////////////////////////////////// 
....................  
.................... #ifndef _STRING 
.................... #define _STRING 
.................... #include <stddef.h> 
.................... /////////////////////////////////////////////////////////////////////////// 
.................... ////        (C) Copyright 1996,2003 Custom Computer Services           //// 
.................... //// This source code may only be used by licensed users of the CCS C  //// 
.................... //// compiler.  This source code may only be distributed to other      //// 
.................... //// licensed users of the CCS C compiler.  No other use, reproduction //// 
.................... //// or distribution is permitted without written permission.          //// 
.................... //// Derivative programs created using this software in object code    //// 
.................... //// form are not restricted in any way.                               //// 
.................... /////////////////////////////////////////////////////////////////////////// 
....................  
.................... #ifndef _STDDEF 
....................  
.................... #define _STDDEF 
....................  
.................... #if sizeof(unsigned int8 *)==1 
.................... #define ptrdiff_t unsigned int8 
.................... #else 
.................... #define ptrdiff_t unsigned int16 
.................... #endif 
....................  
.................... #define size_t unsigned int8 
.................... #define wchar_t char 
.................... #define NULL 0 
....................  
.................... #define offsetof(s,f) (offsetofbit(s,f)/8) 
....................  
.................... #endif 
....................  
.................... #include <ctype.h> 
.................... //////////////////////////////////////////////////////////////////////////// 
.................... ////        (C) Copyright 1996,2003 Custom Computer Services            //// 
.................... //// This source code may only be used by licensed users of the CCS C   //// 
.................... //// compiler.  This source code may only be distributed to other       //// 
.................... //// licensed users of the CCS C compiler.  No other use, reproduction  //// 
.................... //// or distribution is permitted without written permission.           //// 
.................... //// Derivative programs created using this software in object code     //// 
.................... //// form are not restricted in any way.                                //// 
.................... //////////////////////////////////////////////////////////////////////////// 
....................  
.................... #ifndef _CTYPE 
.................... #define _CTYPE 
....................  
.................... #define islower(x)  isamong(x,"abcdefghijklmnopqrstuvwxyz") 
.................... #define isupper(x)  isamong(x,"ABCDEFGHIJKLMNOPQRSTUVWXYZ") 
.................... #define isalnum(x)  isamong(x,"0123456789ABCDEFGHIJKLMNOPQRSTUVWXYZabcdefghijklmnopqrstuvwxyz") 
.................... #define isalpha(x)  isamong(x,"ABCDEFGHIJKLMNOPQRSTUVWXYZabcdefghijklmnopqrstuvwxyz") 
.................... #define isdigit(x)  isamong(x,"0123456789") 
.................... #define isspace(x)  ((x)==' ') 
.................... #define isxdigit(x) isamong(x,"0123456789ABCDEFabcdef") 
.................... #define iscntrl(x)  ((x)<' ') 
.................... #define isprint(x)  ((x)>=' ') 
.................... #define isgraph(x)  ((x)>' ') 
.................... #define ispunct(x)  (((x)>' ')&&!isalnum(x)) 
....................  
.................... #endif 
....................  
....................  
....................  
....................  
....................  
.................... ////////////////////////////////////////////// 
.................... //// Uncomment the following define to    //// 
.................... //// allow some functions to use a        //// 
.................... //// quicker algorithm, but use more ROM  //// 
.................... ////                                      //// 
.................... //// #define FASTER_BUT_MORE_ROM          //// 
.................... ////////////////////////////////////////////// 
....................  
....................  
....................  
.................... /*Copying functions*/ 
.................... /* standard template: 
....................    void *memmove(void *s1, void *s2, size_t n). 
....................    Copies max of n characters safely (not following ending '\0') 
....................    from s2 in s1; if s2 has less than n characters, appends 0 */ 
....................  
.................... char *memmove(void *s1,char *s2,size_t n) 
.................... { 
....................    char *sc1; 
....................    char *sc2; 
....................    sc1=s1; 
....................    sc2=s2; 
....................    if(sc2<sc1 && sc1 <sc2 +n) 
....................       for(sc1+=n,sc2+=n;0<n;--n) 
....................          *--sc1=*--sc2; 
....................    else 
....................       for(;0<n;--n) 
....................          *sc1++=*sc2++; 
....................   return s1; 
....................   } 
....................  
.................... /* Standard template: char *strcpy(char *s1, const char *s2) 
....................    copies the string s2 including the null character to s1. 
....................    This is a compiler built in to handle the different address 
....................    spaces */ 
....................  
.................... #define strcopy strcpy 
....................  
.................... /* standard template: 
....................    char *strncpy(char *s1, const char *s2, size_t n). 
....................    Copies max of n characters (not following ending '\0') 
....................    from s2 in s1; if s2 has less than n characters, appends 0 */ 
....................  
.................... char *strncpy(char *s1, char *s2, size_t n) 
.................... { 
....................   char *s; 
....................  
....................   for (s = s1; n > 0 && *s2 != '\0'; n--) 
....................      *s++ = *s2++; 
....................   for (; n > 0; n--) 
....................      *s++ = '\0'; 
....................  
....................   return(s1); 
.................... } 
.................... /***********************************************************/ 
....................  
.................... /*concatenation functions*/ 
.................... /* standard template: char *strcat(char *s1, const char *s2) 
.................... appends s2 to s1*/ 
....................  
.................... char *strcat(char *s1, char *s2) 
.................... { 
....................    char *s; 
....................  
....................    for (s = s1; *s != '\0'; ++s); 
....................    while(*s2 != '\0') 
....................    { 
....................       *s = *s2; 
....................       ++s; 
....................       ++s2; 
....................    } 
....................  
....................    *s = '\0'; 
....................    return(s1); 
.................... } 
.................... /* standard template: char *strncat(char *s1, char *s2,size_t n) 
.................... appends not more than n characters from s2 to s1*/ 
....................  
.................... char *strncat(char *s1, char *s2, size_t n) 
.................... { 
....................    char *s; 
....................  
....................    for (s = s1; *s != '\0'; ++s); 
....................    while(*s2 != '\0' && 0<n) 
....................    { 
....................       *s = *s2; 
....................       ++s; 
....................       ++s2; 
....................       --n; 
....................    } 
....................  
....................    *s = '\0'; 
....................    return(s1); 
.................... } 
....................  
.................... /***********************************************************/ 
....................  
....................  
.................... /*comparison functions*/ 
.................... /* standard template: signed int memcmp(void *s1, void *s2). 
....................    Compares s1 & s2; returns -1 if s1<s2, 0 if s1=s2, 1 if s1>s2 */ 
....................  
.................... signed int8 memcmp(void * s1,char *s2,size_t n) 
.................... { 
.................... char *su1, *su2; 
.................... for(su1=s1, su2=s2; 0<n; ++su1, ++su2, --n) 
.................... { 
....................    if(*su1!=*su2) 
....................       return ((*su1<*su2)?-1:+1); 
.................... } 
.................... return 0; 
.................... } 
....................  
.................... /* standard template: int strcmp(const char *s1, const char *s2). 
....................    Compares s1 & s2; returns -1 if s1<s2, 0 if s1=s2, 1 if s1>s2 */ 
....................  
.................... signed int8 strcmp(char *s1, char *s2) 
.................... { 
....................    for (; *s1 == *s2; s1++, s2++) 
....................       if (*s1 == '\0') 
....................          return(0); 
....................    return((*s1 < *s2) ? -1: 1); 
.................... } 
.................... /* standard template: int strcoll(const char *s1, const char *s2). 
....................    Compares s1 & s2; returns -1 if s1<s2, 0 if s1=s2, 1 if s1>s2 */ 
....................  
.................... signed int8 strcoll(char *s1, char *s2) 
.................... { 
....................    for (; *s1 == *s2; s1++, s2++) 
....................       if (*s1 == '\0') 
....................          return(0); 
....................    return((*s1 < *s2) ? -1: 1); 
.................... } 
....................  
.................... /* standard template: 
....................    int strncmp(const char *s1, const char *s2, size_t n). 
....................    Compares max of n characters (not following 0) from s1 to s2; 
....................    returns same as strcmp */ 
....................  
.................... signed int8 strncmp(char *s1, char *s2, size_t n) 
.................... { 
....................    for (; n > 0; s1++, s2++, n--) 
....................       if (*s1 != *s2) 
....................          return((*s1 <*s2) ? -1: 1); 
....................       else if (*s1 == '\0') 
....................          return(0); 
....................    return(0); 
.................... } 
.................... /* standard template: 
....................    int strxfrm(const char *s1, const char *s2, size_t n). 
....................    transforms maximum of n characters from s2 and places them into s1*/ 
.................... size_t strxfrm(char *s1, char *s2, size_t n) 
.................... { 
....................   char *s; 
....................   unsigned int8 n1; 
....................   n1=n; 
....................   for (s = s1; n > 0 && *s2 != '\0'; n--) 
....................      *s++ = *s2++; 
....................   for (; n > 0; n--) 
....................      *s++ = '\0'; 
....................  
....................   return(n1); 
.................... } 
....................  
....................  
....................  
....................  
....................  
.................... /***********************************************************/ 
.................... /*Search functions*/ 
.................... /* standard template: void *memchr(const char *s, int c). 
....................    Finds first occurrence of c in n characters of s */ 
....................  
.................... char *memchr(void *s,unsigned int8 c,size_t n) 
.................... { 
....................    char uc; 
....................    char *su; 
....................    uc=c; 
....................    for(su=s;0<n;++su,--n) 
....................       if(*su==uc) 
....................       return su; 
....................    return NULL; 
.................... } 
....................  
.................... /* standard template: char *strchr(const char *s, int c). 
....................    Finds first occurrence of c in s */ 
....................  
.................... char *strchr(char *s, unsigned int8 c) 
.................... { 
....................    for (; *s != c; s++) 
....................       if (*s == '\0') 
....................          return(0); 
....................    return(s); 
.................... } 
.................... /* standard template: 
....................    size_t strcspn(const char *s1, const char *s2). 
....................    Computes length of max initial segment of s1 that 
....................    consists entirely of characters NOT from s2*/ 
....................  
.................... unsigned int8  strcspn(char *s1, char *s2) 
.................... { 
....................    char *sc1, *sc2; 
....................  
....................    for (sc1 = s1; *sc1 != 0; sc1++) 
....................       for (sc2 = s2; *sc2 != 0; sc2++) 
....................          if (*sc1 == *sc2) 
....................             return(sc1 - s1); 
....................    return(sc1 - s1); 
.................... } 
.................... /* standard template: 
....................    char *strpbrk(const char *s1, const char *s2). 
....................    Locates first occurence of any character from s2 in s1; 
....................    returns s1 if s2 is empty string */ 
....................  
.................... char *strpbrk(char *s1, char *s2) 
.................... { 
....................    char *sc1, *sc2; 
....................  
....................    for (sc1 = s1; *sc1 != 0; sc1++) 
....................       for (sc2 = s2; *sc2 != 0; sc2++) 
....................          if (*sc1 == *sc2) 
....................             return(sc1); 
....................    return(0); 
.................... } 
....................  
....................  
.................... /* standard template: char *strrchr(const char *s, int c). 
....................    Finds last occurrence of c in s */ 
....................  
.................... char *strrchr(char *s, unsigned int8 c) 
.................... { 
....................    char *p; 
....................  
....................    for (p = 0; ; s++) 
....................    { 
....................       if (*s == c) 
....................          p = s; 
....................       if (*s == '\0') 
....................          return(p); 
....................    } 
.................... } 
.................... /* computes length of max initial segment of s1 consisting 
....................    entirely of characters from s2 */ 
....................  
.................... unsigned int8  strspn(char *s1, char *s2) 
.................... { 
....................    char *sc1, *sc2; 
....................  
....................    for (sc1 = s1; *sc1 != 0; sc1++) 
....................       for (sc2 = s2; ; sc2++) 
....................     if (*sc2 == '\0') 
....................        return(sc1 - s1); 
....................          else if (*sc1 == *sc2) 
....................             break; 
....................    return(sc1 - s1); 
.................... } 
.................... /* standard template: 
....................    char *strstr(const char *s1, const char *s2); 
....................    Locates first occurence of character sequence s2 in s1; 
....................    returns 0 if s2 is empty string 
....................  
....................    Uncomment #define FASTER_BUT_MORE_ROM at the top of the 
....................    file to use the faster algorithm */ 
.................... char *strstr(char *s1, char *s2) 
.................... { 
....................    char *s, *t; 
....................  
....................    #ifdef FASTER_BUT_MORE_ROM 
....................    if (*s2 == '\0') 
....................          return(s1); 
....................    #endif 
....................  
....................    while (*s1) 
....................    { 
....................       for(s = s1, t = s2; *t && (*s == *t); ++s, ++t); 
....................  
....................       if (*t == '\0') 
....................          return s1; 
....................       ++s1; 
....................       #ifdef FASTER_BUT_MORE_ROM 
....................          while(*s1 != '\0' && *s1 != *s2) 
....................             ++s1; 
....................       #endif 
....................    } 
....................    return 0; 
.................... } 
....................  
.................... /* standard template: char *strtok(char *s1, const char *s2). 
....................  
....................    Finds next token in s1 delimited by a character from separator 
....................    string s2 (which can be different from call to call).  First call 
....................    starts at beginning of s1 searching for first character NOT 
....................    contained in s2; returns 0 if none is found. 
....................    If one is found, it is the start of first token (return value). 
....................    Function then searches from there for a character contained in s2. 
....................    If none is found, current token extends to end of s1, and subsequent 
....................    searches for a token will return 0.  If one is found, it is 
....................    overwritten by '\0', which terminates current token.  Function saves 
....................    pointer to following character from which next search will start. 
....................    Each subsequent call, with 0 as first argument, starts searching 
....................    from saved pointer */ 
....................  
.................... char *strtok(char *s1, char *s2) 
.................... { 
....................    char *beg, *end; 
....................    static char *save; 
....................  
....................    beg = (s1)? s1: save; 
....................    beg += strspn(beg, s2); 
....................    if (*beg == '\0') 
....................    { 
....................       *save = ' '; 
....................       return(0); 
....................    } 
....................    end = strpbrk(beg, s2); 
....................    if (*end != '\0') 
....................    { 
....................       *end = '\0'; 
....................       end++; 
....................    } 
....................    save = end; 
....................    return(beg); 
.................... } 
....................  
.................... /*****************************************************************/ 
.................... /*Miscellaneous functions*/ 
.................... /* standard template 
.................... maps error number in errnum to an error message string 
.................... Returns: Pointer to string 
.................... */ 
.................... #ifdef _ERRNO 
.................... char * strerror(unsigned int8 errnum) 
.................... { 
.................... char s[15]; 
.................... switch( errnum) 
.................... { 
.................... case 0: 
....................    strcpy(s,"no errors"); 
....................    return s; 
.................... case EDOM : 
....................    strcpy(s,"domain error"); 
....................    return s; 
.................... case ERANGE: 
....................    strcpy(s,"range error"); 
....................    return s; 
.................... } 
.................... } 
.................... #ENDIF 
.................... /* standard template: size_t strlen(const char *s). 
....................    Computes length of s1 (preceding terminating 0) */ 
....................  
.................... unsigned int8 strlen(char *s) 
.................... { 
....................    char *sc; 
....................  
....................    for (sc = s; *sc != 0; sc++); 
....................    return(sc - s); 
.................... } 
....................  
.................... /* standard template: size_t stricmp(const char *s1, const char *s2). 
....................    Compares s1 to s2 ignoring case (upper vs. lower) */ 
....................  
.................... signed int8 stricmp(char *s1, char *s2) 
.................... { 
....................  for(; *s1==*s2||(isalpha(*s1)&&isalpha(*s2)&&(*s1==*s2+32||*s2==*s1+32)); 
....................     s1++, s2++) 
....................     if (*s1 == '\0') 
....................        return(0); 
....................  return((*s1 < *s2) ? -1: 1); 
.................... } 
....................  
....................  
.................... /* standard template: char *strlwr(char *s). 
....................    Replaces uppercase letters by lowercase; 
....................    returns pointer to new string s */ 
....................  
.................... char *strlwr(char *s) 
.................... { 
....................    char *p; 
....................  
....................    for (p = s; *p != '\0'; p++) 
....................       if (*p >= 'A' && *p <='Z') 
....................          *p += 'a' - 'A'; 
....................    return(s); 
.................... } 
....................  
....................  
.................... /************************************************************/ 
....................  
....................  
.................... #endif 
....................  
.................... #ifndef getc 
.................... #define getc getch 
.................... #define getchar getch 
.................... #define puts(s) {printf(s); putchar(13); putchar(10);} 
.................... #define putc putchar 
.................... #endif 
.................... /* maps error number to an error message. Writes a sequence of characters to 
.................... stderr stream thus: if s is not null then string pointed to by s follwed by 
.................... a colon (:) and a space and the appropriate error message returned by strerror 
.................... function with argument errno 
....................  
.................... Returns: no value 
.................... */ 
....................  
.................... #ifdef _ERRNO 
.................... void perror(char *s) 
.................... { 
....................   if(s) 
....................   fprintf(STDERR,"%s: ",s); 
....................   fprintf(STDERR,"%s\r\n",strerror(errno)); 
.................... } 
.................... #endif 
.................... #endif 
....................  
.................... #include <string.h> 
.................... //////////////////////////////////////////////////////////////////////////// 
.................... ////        (C) Copyright 1996,2008 Custom Computer Services            //// 
.................... //// This source code may only be used by licensed users of the CCS C   //// 
.................... //// compiler.  This source code may only be distributed to other       //// 
.................... //// licensed users of the CCS C compiler.  No other use, reproduction  //// 
.................... //// or distribution is permitted without written permission.           //// 
.................... //// Derivative programs created using this software in object code     //// 
.................... //// form are not restricted in any way.                                //// 
.................... //////////////////////////////////////////////////////////////////////////// 
....................  
.................... #ifndef _STRING 
.................... #define _STRING 
.................... #include <stddef.h> 
.................... #include <ctype.h> 
....................  
....................  
....................  
.................... ////////////////////////////////////////////// 
.................... //// Uncomment the following define to    //// 
.................... //// allow some functions to use a        //// 
.................... //// quicker algorithm, but use more ROM  //// 
.................... ////                                      //// 
.................... //// #define FASTER_BUT_MORE_ROM          //// 
.................... ////////////////////////////////////////////// 
....................  
....................  
....................  
.................... /*Copying functions*/ 
.................... /* standard template: 
....................    void *memmove(void *s1, void *s2, size_t n). 
....................    Copies max of n characters safely (not following ending '\0') 
....................    from s2 in s1; if s2 has less than n characters, appends 0 */ 
....................  
.................... char *memmove(void *s1,char *s2,size_t n) 
.................... { 
....................    char *sc1; 
....................    char *sc2; 
....................    sc1=s1; 
....................    sc2=s2; 
....................    if(sc2<sc1 && sc1 <sc2 +n) 
....................       for(sc1+=n,sc2+=n;0<n;--n) 
....................          *--sc1=*--sc2; 
....................    else 
....................       for(;0<n;--n) 
....................          *sc1++=*sc2++; 
....................   return s1; 
....................   } 
....................  
.................... /* Standard template: char *strcpy(char *s1, const char *s2) 
....................    copies the string s2 including the null character to s1. 
....................    This is a compiler built in to handle the different address 
....................    spaces */ 
....................  
.................... #define strcopy strcpy 
....................  
.................... /* standard template: 
....................    char *strncpy(char *s1, const char *s2, size_t n). 
....................    Copies max of n characters (not following ending '\0') 
....................    from s2 in s1; if s2 has less than n characters, appends 0 */ 
....................  
.................... char *strncpy(char *s1, char *s2, size_t n) 
.................... { 
....................   char *s; 
....................  
....................   for (s = s1; n > 0 && *s2 != '\0'; n--) 
....................      *s++ = *s2++; 
....................   for (; n > 0; n--) 
....................      *s++ = '\0'; 
....................  
....................   return(s1); 
.................... } 
.................... /***********************************************************/ 
....................  
.................... /*concatenation functions*/ 
.................... /* standard template: char *strcat(char *s1, const char *s2) 
.................... appends s2 to s1*/ 
....................  
.................... char *strcat(char *s1, char *s2) 
.................... { 
....................    char *s; 
....................  
....................    for (s = s1; *s != '\0'; ++s); 
....................    while(*s2 != '\0') 
....................    { 
....................       *s = *s2; 
....................       ++s; 
....................       ++s2; 
....................    } 
....................  
....................    *s = '\0'; 
....................    return(s1); 
.................... } 
.................... /* standard template: char *strncat(char *s1, char *s2,size_t n) 
.................... appends not more than n characters from s2 to s1*/ 
....................  
.................... char *strncat(char *s1, char *s2, size_t n) 
.................... { 
....................    char *s; 
....................  
....................    for (s = s1; *s != '\0'; ++s); 
....................    while(*s2 != '\0' && 0<n) 
....................    { 
....................       *s = *s2; 
....................       ++s; 
....................       ++s2; 
....................       --n; 
....................    } 
....................  
....................    *s = '\0'; 
....................    return(s1); 
.................... } 
....................  
.................... /***********************************************************/ 
....................  
....................  
.................... /*comparison functions*/ 
.................... /* standard template: signed int memcmp(void *s1, void *s2). 
....................    Compares s1 & s2; returns -1 if s1<s2, 0 if s1=s2, 1 if s1>s2 */ 
....................  
.................... signed int8 memcmp(void * s1,char *s2,size_t n) 
.................... { 
.................... char *su1, *su2; 
.................... for(su1=s1, su2=s2; 0<n; ++su1, ++su2, --n) 
.................... { 
....................    if(*su1!=*su2) 
....................       return ((*su1<*su2)?-1:+1); 
.................... } 
.................... return 0; 
.................... } 
....................  
.................... /* standard template: int strcmp(const char *s1, const char *s2). 
....................    Compares s1 & s2; returns -1 if s1<s2, 0 if s1=s2, 1 if s1>s2 */ 
....................  
.................... signed int8 strcmp(char *s1, char *s2) 
.................... { 
....................    for (; *s1 == *s2; s1++, s2++) 
....................       if (*s1 == '\0') 
....................          return(0); 
....................    return((*s1 < *s2) ? -1: 1); 
.................... } 
.................... /* standard template: int strcoll(const char *s1, const char *s2). 
....................    Compares s1 & s2; returns -1 if s1<s2, 0 if s1=s2, 1 if s1>s2 */ 
....................  
.................... signed int8 strcoll(char *s1, char *s2) 
.................... { 
....................    for (; *s1 == *s2; s1++, s2++) 
....................       if (*s1 == '\0') 
....................          return(0); 
....................    return((*s1 < *s2) ? -1: 1); 
.................... } 
....................  
.................... /* standard template: 
....................    int strncmp(const char *s1, const char *s2, size_t n). 
....................    Compares max of n characters (not following 0) from s1 to s2; 
....................    returns same as strcmp */ 
....................  
.................... signed int8 strncmp(char *s1, char *s2, size_t n) 
.................... { 
....................    for (; n > 0; s1++, s2++, n--) 
....................       if (*s1 != *s2) 
....................          return((*s1 <*s2) ? -1: 1); 
....................       else if (*s1 == '\0') 
....................          return(0); 
....................    return(0); 
.................... } 
.................... /* standard template: 
....................    int strxfrm(const char *s1, const char *s2, size_t n). 
....................    transforms maximum of n characters from s2 and places them into s1*/ 
.................... size_t strxfrm(char *s1, char *s2, size_t n) 
.................... { 
....................   char *s; 
....................   unsigned int8 n1; 
....................   n1=n; 
....................   for (s = s1; n > 0 && *s2 != '\0'; n--) 
....................      *s++ = *s2++; 
....................   for (; n > 0; n--) 
....................      *s++ = '\0'; 
....................  
....................   return(n1); 
.................... } 
....................  
....................  
....................  
....................  
....................  
.................... /***********************************************************/ 
.................... /*Search functions*/ 
.................... /* standard template: void *memchr(const char *s, int c). 
....................    Finds first occurrence of c in n characters of s */ 
....................  
.................... char *memchr(void *s,unsigned int8 c,size_t n) 
.................... { 
....................    char uc; 
....................    char *su; 
....................    uc=c; 
....................    for(su=s;0<n;++su,--n) 
....................       if(*su==uc) 
....................       return su; 
....................    return NULL; 
.................... } 
....................  
.................... /* standard template: char *strchr(const char *s, int c). 
....................    Finds first occurrence of c in s */ 
....................  
.................... char *strchr(char *s, unsigned int8 c) 
.................... { 
....................    for (; *s != c; s++) 
....................       if (*s == '\0') 
....................          return(0); 
....................    return(s); 
.................... } 
.................... /* standard template: 
....................    size_t strcspn(const char *s1, const char *s2). 
....................    Computes length of max initial segment of s1 that 
....................    consists entirely of characters NOT from s2*/ 
....................  
.................... unsigned int8  strcspn(char *s1, char *s2) 
.................... { 
....................    char *sc1, *sc2; 
....................  
....................    for (sc1 = s1; *sc1 != 0; sc1++) 
....................       for (sc2 = s2; *sc2 != 0; sc2++) 
....................          if (*sc1 == *sc2) 
....................             return(sc1 - s1); 
....................    return(sc1 - s1); 
.................... } 
.................... /* standard template: 
....................    char *strpbrk(const char *s1, const char *s2). 
....................    Locates first occurence of any character from s2 in s1; 
....................    returns s1 if s2 is empty string */ 
....................  
.................... char *strpbrk(char *s1, char *s2) 
.................... { 
....................    char *sc1, *sc2; 
....................  
....................    for (sc1 = s1; *sc1 != 0; sc1++) 
....................       for (sc2 = s2; *sc2 != 0; sc2++) 
....................          if (*sc1 == *sc2) 
....................             return(sc1); 
....................    return(0); 
.................... } 
....................  
....................  
.................... /* standard template: char *strrchr(const char *s, int c). 
....................    Finds last occurrence of c in s */ 
....................  
.................... char *strrchr(char *s, unsigned int8 c) 
.................... { 
....................    char *p; 
....................  
....................    for (p = 0; ; s++) 
....................    { 
....................       if (*s == c) 
....................          p = s; 
....................       if (*s == '\0') 
....................          return(p); 
....................    } 
.................... } 
.................... /* computes length of max initial segment of s1 consisting 
....................    entirely of characters from s2 */ 
....................  
.................... unsigned int8  strspn(char *s1, char *s2) 
.................... { 
....................    char *sc1, *sc2; 
....................  
....................    for (sc1 = s1; *sc1 != 0; sc1++) 
....................       for (sc2 = s2; ; sc2++) 
....................     if (*sc2 == '\0') 
....................        return(sc1 - s1); 
....................          else if (*sc1 == *sc2) 
....................             break; 
....................    return(sc1 - s1); 
.................... } 
.................... /* standard template: 
....................    char *strstr(const char *s1, const char *s2); 
....................    Locates first occurence of character sequence s2 in s1; 
....................    returns 0 if s2 is empty string 
....................  
....................    Uncomment #define FASTER_BUT_MORE_ROM at the top of the 
....................    file to use the faster algorithm */ 
.................... char *strstr(char *s1, char *s2) 
.................... { 
....................    char *s, *t; 
....................  
....................    #ifdef FASTER_BUT_MORE_ROM 
....................    if (*s2 == '\0') 
....................          return(s1); 
....................    #endif 
....................  
....................    while (*s1) 
....................    { 
....................       for(s = s1, t = s2; *t && (*s == *t); ++s, ++t); 
....................  
....................       if (*t == '\0') 
....................          return s1; 
....................       ++s1; 
....................       #ifdef FASTER_BUT_MORE_ROM 
....................          while(*s1 != '\0' && *s1 != *s2) 
....................             ++s1; 
....................       #endif 
....................    } 
....................    return 0; 
.................... } 
....................  
.................... /* standard template: char *strtok(char *s1, const char *s2). 
....................  
....................    Finds next token in s1 delimited by a character from separator 
....................    string s2 (which can be different from call to call).  First call 
....................    starts at beginning of s1 searching for first character NOT 
....................    contained in s2; returns 0 if none is found. 
....................    If one is found, it is the start of first token (return value). 
....................    Function then searches from there for a character contained in s2. 
....................    If none is found, current token extends to end of s1, and subsequent 
....................    searches for a token will return 0.  If one is found, it is 
....................    overwritten by '\0', which terminates current token.  Function saves 
....................    pointer to following character from which next search will start. 
....................    Each subsequent call, with 0 as first argument, starts searching 
....................    from saved pointer */ 
....................  
.................... char *strtok(char *s1, char *s2) 
.................... { 
....................    char *beg, *end; 
....................    static char *save; 
....................  
....................    beg = (s1)? s1: save; 
....................    beg += strspn(beg, s2); 
....................    if (*beg == '\0') 
....................    { 
....................       *save = ' '; 
....................       return(0); 
....................    } 
....................    end = strpbrk(beg, s2); 
....................    if (*end != '\0') 
....................    { 
....................       *end = '\0'; 
....................       end++; 
....................    } 
....................    save = end; 
....................    return(beg); 
.................... } 
....................  
.................... /*****************************************************************/ 
.................... /*Miscellaneous functions*/ 
.................... /* standard template 
.................... maps error number in errnum to an error message string 
.................... Returns: Pointer to string 
.................... */ 
.................... #ifdef _ERRNO 
.................... char * strerror(unsigned int8 errnum) 
.................... { 
.................... char s[15]; 
.................... switch( errnum) 
.................... { 
.................... case 0: 
....................    strcpy(s,"no errors"); 
....................    return s; 
.................... case EDOM : 
....................    strcpy(s,"domain error"); 
....................    return s; 
.................... case ERANGE: 
....................    strcpy(s,"range error"); 
....................    return s; 
.................... } 
.................... } 
.................... #ENDIF 
.................... /* standard template: size_t strlen(const char *s). 
....................    Computes length of s1 (preceding terminating 0) */ 
....................  
.................... unsigned int8 strlen(char *s) 
.................... { 
....................    char *sc; 
....................  
....................    for (sc = s; *sc != 0; sc++); 
....................    return(sc - s); 
.................... } 
....................  
.................... /* standard template: size_t stricmp(const char *s1, const char *s2). 
....................    Compares s1 to s2 ignoring case (upper vs. lower) */ 
....................  
.................... signed int8 stricmp(char *s1, char *s2) 
.................... { 
....................  for(; *s1==*s2||(isalpha(*s1)&&isalpha(*s2)&&(*s1==*s2+32||*s2==*s1+32)); 
....................     s1++, s2++) 
....................     if (*s1 == '\0') 
....................        return(0); 
....................  return((*s1 < *s2) ? -1: 1); 
.................... } 
....................  
....................  
.................... /* standard template: char *strlwr(char *s). 
....................    Replaces uppercase letters by lowercase; 
....................    returns pointer to new string s */ 
....................  
.................... char *strlwr(char *s) 
.................... { 
....................    char *p; 
....................  
....................    for (p = s; *p != '\0'; p++) 
....................       if (*p >= 'A' && *p <='Z') 
....................          *p += 'a' - 'A'; 
....................    return(s); 
.................... } 
....................  
....................  
.................... /************************************************************/ 
....................  
....................  
.................... #endif 
....................  
.................... #include <stdlib.h> 
.................... /////////////////////////////////////////////////////////////////////////// 
.................... ////        (C) Copyright 1996,2007 Custom Computer Services           //// 
.................... //// This source code may only be used by licensed users of the CCS C  //// 
.................... //// compiler.  This source code may only be distributed to other      //// 
.................... //// licensed users of the CCS C compiler.  No other use, reproduction //// 
.................... //// or distribution is permitted without written permission.          //// 
.................... //// Derivative programs created using this software in object code    //// 
.................... //// form are not restricted in any way.                               //// 
.................... /////////////////////////////////////////////////////////////////////////// 
....................  
.................... #ifndef _STDLIB 
.................... #define _STDLIB 
....................  
.................... //--------------------------------------------------------------------------- 
.................... // Definitions and types 
.................... //--------------------------------------------------------------------------- 
....................  
.................... #ifndef RAND_MAX 
.................... #define RAND_MAX  32767    // The value of which is the maximum value 
....................                            // ... returned by the rand function 
.................... #endif 
....................  
....................  
.................... #IF (sizeof(int16*)>1) 
.................... #DEFINE LONG_POINTERS 1 
.................... #ELSE  
.................... #DEFINE LONG_POINTERS 0 
.................... #ENDIF 
....................  
.................... typedef struct { 
....................    signed int quot; 
....................    signed int rem; 
.................... } div_t; 
....................  
.................... typedef struct { 
....................    signed long quot; 
....................    signed long rem; 
.................... } ldiv_t; 
....................  
.................... #include <stddef.h> 
.................... /////////////////////////////////////////////////////////////////////////// 
.................... ////        (C) Copyright 1996,2003 Custom Computer Services           //// 
.................... //// This source code may only be used by licensed users of the CCS C  //// 
.................... //// compiler.  This source code may only be distributed to other      //// 
.................... //// licensed users of the CCS C compiler.  No other use, reproduction //// 
.................... //// or distribution is permitted without written permission.          //// 
.................... //// Derivative programs created using this software in object code    //// 
.................... //// form are not restricted in any way.                               //// 
.................... /////////////////////////////////////////////////////////////////////////// 
....................  
.................... #ifndef _STDDEF 
....................  
.................... #define _STDDEF 
....................  
.................... #if sizeof(unsigned int8 *)==1 
.................... #define ptrdiff_t unsigned int8 
.................... #else 
.................... #define ptrdiff_t unsigned int16 
.................... #endif 
....................  
.................... #define size_t unsigned int8 
.................... #define wchar_t char 
.................... #define NULL 0 
....................  
.................... #define offsetof(s,f) (offsetofbit(s,f)/8) 
....................  
.................... #endif 
....................  
....................  
.................... //--------------------------------------------------------------------------- 
.................... // String conversion functions 
.................... //--------------------------------------------------------------------------- 
....................  
.................... /* Standard template: signed int  atoi(char * s) 
....................  * converts the initial portion of the string s to a signed int 
....................  * returns the converted value if any, 0 otherwise 
....................  */ 
.................... signed int atoi(char *s); 
....................  
.................... /* Syntax: signed int32  atoi32(char * s) 
....................    converts the initial portion of the string s to a signed int32 
....................    returns the converted value if any, 0 otherwise*/ 
.................... #if (sizeof(long)==4) 
....................  #define atoi32(s) atol(s) 
.................... #else  
....................  signed int32 atoi32(char *s); 
.................... #endif 
....................  
.................... #if defined(__PCD__) 
.................... // The following functions only work on the 24 bit compiler 
.................... // for the 30F, 33F, 24F and 24H parts 
.................... /* Syntax: signed int48  atoi48(char * s) 
....................    converts the initial portion of the string s to a signed int48 
....................    returns the converted value if any, 0 otherwise*/ 
....................     
.................... signed int48 atoi48(char *s); 
....................  
.................... /* Syntax: signed int64  atoi64(char * s) 
....................    converts the initial portion of the string s to a signed int64 
....................    returns the converted value if any, 0 otherwise*/ 
.................... signed int64 atoi64(char *s); 
.................... #endif 
....................  
.................... /* Syntax: char *  itoa(signed int32 num, int8 base, char * s) 
....................    converts the signed int32 to a string and 
....................    returns the converted value if any, 0 otherwise*/ 
.................... char * itoa(signed int32 num, unsigned int base, char * s); 
....................  
.................... /* Standard template: signed int16  atol(char * s) 
....................  * converts the initial portion of the string s to a signed int16 
....................  * returns the converted value if any, 0 otherwise 
....................  */ 
.................... signed long atol(char *s); 
....................  
.................... /* Standard template: int16 strtoul(char * s,char *endptr,signed int base) 
....................  * converts the initial portion of the string s, represented as an 
....................  * integral value of radix base  to a signed long. 
....................  * Returns the converted value if any, 0 otherwise 
....................  * the final string is returned in the endptr, if endptr is not null 
....................  */ 
.................... signed long strtol(char *s,char *endptr, signed int base); 
....................  
.................... /* Standard template: int16 strtoul(char * s,char *endptr,signed int base) 
....................  * converts the initial portion of the string s, represented as an 
....................  * integral value of radix base to a unsigned long. 
....................  * returns the converted value if any, 0 otherwise 
....................  * the final string is returned in the endptr, if endptr is not null 
....................  */ 
.................... unsigned long strtoul(char *s,char *endptr, signed int base); 
....................  
.................... /* Standart template: float strtof(char * s,char *endptr) 
....................                       float48 strtof48(char *s,char *endptr); 
....................                       float64 strtod(char *s,char *endptr); 
....................  * converts the initial portion of the string s to a float32, float48 or float64, 
....................  * returns the converted value if any, 0 otherwise 
....................  * the final string is returned in the endptr, if endptr is not null                    
.................... */ 
.................... float strtof(char *s,char *endptr); 
.................... #if defined(__PCD__) 
.................... float48 strtof48(char *s,char *endptr); 
.................... float64 strtod(char *s,char *endptr); 
.................... #else 
.................... //provided for compatibility 
.................... #define strtof48(s, e) strtof(s, e) 
.................... #define strtod(s, e) strtof(s, e) 
.................... #endif 
....................  
.................... /* Standard template: float32 atof(char * s) 
....................  * converts the initial portion of the string s to a float. 
....................  * returns the converted value if any, 0 otherwise 
....................  */ 
.................... #define atof(s)   strtof(s, 0) 
....................  
.................... #if defined(__PCD__) 
.................... // The following functions only work on the 24 bit compiler 
.................... // for the 30F, 33F, 24F and 24H parts 
....................  
.................... /* Standard template: float48 atof48(char * s) 
....................  * converts the initial portion of the string s to a float. 
....................  * returns the converted value if any, 0 otherwise 
....................  */ 
.................... #define atof48(s) strtof48(s, 0) 
....................  
.................... /* Standard template: float64 atof64(char * s) 
....................  * converts the initial portion of the string s to a float. 
....................  * returns the converted value if any, 0 otherwise 
....................  */ 
.................... #define atof64(s) strtod(s, 0) 
.................... #endif 
....................  
.................... /* Standard template: float32 atoe(char * s) 
....................  * converts the initial portion of the string s to a float. 
....................  * returns the converted value if any, 0 otherwise 
....................  * also handles E format numbers 
....................  */ 
.................... #if !defined(__PCD__) 
.................... float atoe(char * s); 
.................... #endif 
....................  
.................... #if defined(__PCD__) 
.................... float32 atoe(char * s); 
.................... #endif 
....................  
.................... //--------------------------------------------------------------------------- 
.................... // Pseudo-random sequence generation functions 
.................... //--------------------------------------------------------------------------- 
....................  
.................... /* The rand function computes a sequence of pseudo-random integers in 
....................  * the range 0 to RAND_MAX 
....................  * 
....................  * Parameters: 
....................  *       (none) 
....................  * 
....................  * Returns: 
....................  *       The pseudo-random integer 
....................  */ 
.................... unsigned int16 rand(void); 
....................  
.................... /* The srand function uses the argument as a seed for a new sequence of 
....................  * pseudo-random numbers to be returned by subsequent calls to rand. 
....................  * 
....................  * Parameters: 
....................  *       [in] seed: The seed value to start from. You might need to pass 
....................  * 
....................  * Returns: 
....................  *       (none) 
....................  * 
....................  * Remarks 
....................  *          The srand function sets the starting point for generating 
....................  *       a series of pseudorandom integers. To reinitialize the 
....................  *       generator, use 1 as the seed argument. Any other value for 
....................  *       seed sets the generator to a random starting point. rand 
....................  *       retrieves the pseudorandom numbers that are generated. 
....................  *       Calling rand before any call to srand generates the same 
....................  *       sequence as calling srand with seed passed as 1. 
....................  *          Usually, you need to pass a time here from outer source 
....................  *       so that the numbers will be different every time you run. 
....................  */ 
.................... void srand(unsigned int32 seed); 
....................  
.................... //--------------------------------------------------------------------------- 
.................... // Memory management functions 
.................... //--------------------------------------------------------------------------- 
....................  
.................... // Comming soon 
....................  
.................... //--------------------------------------------------------------------------- 
.................... // Communication with the environment 
.................... //--------------------------------------------------------------------------- 
....................  
.................... /* The function returns 0 always 
....................  */ 
.................... signed int8 system(char *string); 
....................  
.................... //--------------------------------------------------------------------------- 
.................... // Searching and sorting utilities 
.................... //--------------------------------------------------------------------------- 
....................  
.................... /* Performs a binary search of a sorted array.. 
....................  * 
....................  * Parameters: 
....................  *       [in] key: Object to search for 
....................  *       [in] base: Pointer to base of search data 
....................  *       [in] num: Number of elements 
....................  *       [in] width: Width of elements 
....................  *       [in] compare: Function that compares two elements 
....................  * 
....................  * Returns: 
....................  *       bsearch returns a pointer to an occurrence of key in the array pointed 
....................  *       to by base. If key is not found, the function returns NULL. If the 
....................  *       array is not in order or contains duplicate records with identical keys, 
....................  *       the result is unpredictable. 
....................  */ 
.................... //void *bsearch(const void *key, const void *base, size_t num, size_t width, 
.................... //              int (*compare)(const void *, const void *)); 
....................  
.................... /* Performs the shell-metzner sort (not the quick sort algorithm). The contents 
....................  * of the array are sorted into ascending order according to a comparison 
....................  * function pointed to by compar. 
....................  * 
....................  * Parameters: 
....................  *       [in] base: Pointer to base of search data 
....................  *       [in] num: Number of elements 
....................  *       [in] width: Width of elements 
....................  *       [in] compare: Function that compares two elements 
....................  * 
....................  * Returns: 
....................  *       (none) 
....................  */ 
.................... //void *qsort(const void *base, size_t num, size_t width, 
.................... //              int (*compare)(const void *, const void *)); 
....................  
.................... //--------------------------------------------------------------------------- 
.................... // Integer arithmetic functions 
.................... //--------------------------------------------------------------------------- 
....................  
.................... #define labs abs 
....................  
.................... div_t div(signed int numer, signed int denom); 
.................... ldiv_t ldiv(signed long numer, signed long denom); 
....................  
.................... //--------------------------------------------------------------------------- 
.................... // Multibyte character functions 
.................... //--------------------------------------------------------------------------- 
....................  
.................... // Not supported 
....................  
.................... //--------------------------------------------------------------------------- 
.................... // Multibyte string functions 
.................... //--------------------------------------------------------------------------- 
....................  
.................... // Not supported 
....................  
....................  
.................... //--------------------------------------------------------------------------- 
.................... // Internal implementation 
.................... //--------------------------------------------------------------------------- 
....................  
.................... #include <stddef.h> 
.................... /////////////////////////////////////////////////////////////////////////// 
.................... ////        (C) Copyright 1996,2003 Custom Computer Services           //// 
.................... //// This source code may only be used by licensed users of the CCS C  //// 
.................... //// compiler.  This source code may only be distributed to other      //// 
.................... //// licensed users of the CCS C compiler.  No other use, reproduction //// 
.................... //// or distribution is permitted without written permission.          //// 
.................... //// Derivative programs created using this software in object code    //// 
.................... //// form are not restricted in any way.                               //// 
.................... /////////////////////////////////////////////////////////////////////////// 
....................  
.................... #ifndef _STDDEF 
....................  
.................... #define _STDDEF 
....................  
.................... #if sizeof(unsigned int8 *)==1 
.................... #define ptrdiff_t unsigned int8 
.................... #else 
.................... #define ptrdiff_t unsigned int16 
.................... #endif 
....................  
.................... #define size_t unsigned int8 
.................... #define wchar_t char 
.................... #define NULL 0 
....................  
.................... #define offsetof(s,f) (offsetofbit(s,f)/8) 
....................  
.................... #endif 
....................  
.................... #include <string.h> 
.................... //////////////////////////////////////////////////////////////////////////// 
.................... ////        (C) Copyright 1996,2008 Custom Computer Services            //// 
.................... //// This source code may only be used by licensed users of the CCS C   //// 
.................... //// compiler.  This source code may only be distributed to other       //// 
.................... //// licensed users of the CCS C compiler.  No other use, reproduction  //// 
.................... //// or distribution is permitted without written permission.           //// 
.................... //// Derivative programs created using this software in object code     //// 
.................... //// form are not restricted in any way.                                //// 
.................... //////////////////////////////////////////////////////////////////////////// 
....................  
.................... #ifndef _STRING 
.................... #define _STRING 
.................... #include <stddef.h> 
.................... #include <ctype.h> 
....................  
....................  
....................  
.................... ////////////////////////////////////////////// 
.................... //// Uncomment the following define to    //// 
.................... //// allow some functions to use a        //// 
.................... //// quicker algorithm, but use more ROM  //// 
.................... ////                                      //// 
.................... //// #define FASTER_BUT_MORE_ROM          //// 
.................... ////////////////////////////////////////////// 
....................  
....................  
....................  
.................... /*Copying functions*/ 
.................... /* standard template: 
....................    void *memmove(void *s1, void *s2, size_t n). 
....................    Copies max of n characters safely (not following ending '\0') 
....................    from s2 in s1; if s2 has less than n characters, appends 0 */ 
....................  
.................... char *memmove(void *s1,char *s2,size_t n) 
.................... { 
....................    char *sc1; 
....................    char *sc2; 
....................    sc1=s1; 
....................    sc2=s2; 
....................    if(sc2<sc1 && sc1 <sc2 +n) 
....................       for(sc1+=n,sc2+=n;0<n;--n) 
....................          *--sc1=*--sc2; 
....................    else 
....................       for(;0<n;--n) 
....................          *sc1++=*sc2++; 
....................   return s1; 
....................   } 
....................  
.................... /* Standard template: char *strcpy(char *s1, const char *s2) 
....................    copies the string s2 including the null character to s1. 
....................    This is a compiler built in to handle the different address 
....................    spaces */ 
....................  
.................... #define strcopy strcpy 
....................  
.................... /* standard template: 
....................    char *strncpy(char *s1, const char *s2, size_t n). 
....................    Copies max of n characters (not following ending '\0') 
....................    from s2 in s1; if s2 has less than n characters, appends 0 */ 
....................  
.................... char *strncpy(char *s1, char *s2, size_t n) 
.................... { 
....................   char *s; 
....................  
....................   for (s = s1; n > 0 && *s2 != '\0'; n--) 
....................      *s++ = *s2++; 
....................   for (; n > 0; n--) 
....................      *s++ = '\0'; 
....................  
....................   return(s1); 
.................... } 
.................... /***********************************************************/ 
....................  
.................... /*concatenation functions*/ 
.................... /* standard template: char *strcat(char *s1, const char *s2) 
.................... appends s2 to s1*/ 
....................  
.................... char *strcat(char *s1, char *s2) 
.................... { 
....................    char *s; 
....................  
....................    for (s = s1; *s != '\0'; ++s); 
....................    while(*s2 != '\0') 
....................    { 
....................       *s = *s2; 
....................       ++s; 
....................       ++s2; 
....................    } 
....................  
....................    *s = '\0'; 
....................    return(s1); 
.................... } 
.................... /* standard template: char *strncat(char *s1, char *s2,size_t n) 
.................... appends not more than n characters from s2 to s1*/ 
....................  
.................... char *strncat(char *s1, char *s2, size_t n) 
.................... { 
....................    char *s; 
....................  
....................    for (s = s1; *s != '\0'; ++s); 
....................    while(*s2 != '\0' && 0<n) 
....................    { 
....................       *s = *s2; 
....................       ++s; 
....................       ++s2; 
....................       --n; 
....................    } 
....................  
....................    *s = '\0'; 
....................    return(s1); 
.................... } 
....................  
.................... /***********************************************************/ 
....................  
....................  
.................... /*comparison functions*/ 
.................... /* standard template: signed int memcmp(void *s1, void *s2). 
....................    Compares s1 & s2; returns -1 if s1<s2, 0 if s1=s2, 1 if s1>s2 */ 
....................  
.................... signed int8 memcmp(void * s1,char *s2,size_t n) 
.................... { 
.................... char *su1, *su2; 
.................... for(su1=s1, su2=s2; 0<n; ++su1, ++su2, --n) 
.................... { 
....................    if(*su1!=*su2) 
....................       return ((*su1<*su2)?-1:+1); 
.................... } 
.................... return 0; 
.................... } 
....................  
.................... /* standard template: int strcmp(const char *s1, const char *s2). 
....................    Compares s1 & s2; returns -1 if s1<s2, 0 if s1=s2, 1 if s1>s2 */ 
....................  
.................... signed int8 strcmp(char *s1, char *s2) 
.................... { 
....................    for (; *s1 == *s2; s1++, s2++) 
....................       if (*s1 == '\0') 
....................          return(0); 
....................    return((*s1 < *s2) ? -1: 1); 
.................... } 
.................... /* standard template: int strcoll(const char *s1, const char *s2). 
....................    Compares s1 & s2; returns -1 if s1<s2, 0 if s1=s2, 1 if s1>s2 */ 
....................  
.................... signed int8 strcoll(char *s1, char *s2) 
.................... { 
....................    for (; *s1 == *s2; s1++, s2++) 
....................       if (*s1 == '\0') 
....................          return(0); 
....................    return((*s1 < *s2) ? -1: 1); 
.................... } 
....................  
.................... /* standard template: 
....................    int strncmp(const char *s1, const char *s2, size_t n). 
....................    Compares max of n characters (not following 0) from s1 to s2; 
....................    returns same as strcmp */ 
....................  
.................... signed int8 strncmp(char *s1, char *s2, size_t n) 
.................... { 
....................    for (; n > 0; s1++, s2++, n--) 
....................       if (*s1 != *s2) 
....................          return((*s1 <*s2) ? -1: 1); 
....................       else if (*s1 == '\0') 
....................          return(0); 
....................    return(0); 
.................... } 
.................... /* standard template: 
....................    int strxfrm(const char *s1, const char *s2, size_t n). 
....................    transforms maximum of n characters from s2 and places them into s1*/ 
.................... size_t strxfrm(char *s1, char *s2, size_t n) 
.................... { 
....................   char *s; 
....................   unsigned int8 n1; 
....................   n1=n; 
....................   for (s = s1; n > 0 && *s2 != '\0'; n--) 
....................      *s++ = *s2++; 
....................   for (; n > 0; n--) 
....................      *s++ = '\0'; 
....................  
....................   return(n1); 
.................... } 
....................  
....................  
....................  
....................  
....................  
.................... /***********************************************************/ 
.................... /*Search functions*/ 
.................... /* standard template: void *memchr(const char *s, int c). 
....................    Finds first occurrence of c in n characters of s */ 
....................  
.................... char *memchr(void *s,unsigned int8 c,size_t n) 
.................... { 
....................    char uc; 
....................    char *su; 
....................    uc=c; 
....................    for(su=s;0<n;++su,--n) 
....................       if(*su==uc) 
....................       return su; 
....................    return NULL; 
.................... } 
....................  
.................... /* standard template: char *strchr(const char *s, int c). 
....................    Finds first occurrence of c in s */ 
....................  
.................... char *strchr(char *s, unsigned int8 c) 
.................... { 
....................    for (; *s != c; s++) 
....................       if (*s == '\0') 
....................          return(0); 
....................    return(s); 
.................... } 
.................... /* standard template: 
....................    size_t strcspn(const char *s1, const char *s2). 
....................    Computes length of max initial segment of s1 that 
....................    consists entirely of characters NOT from s2*/ 
....................  
.................... unsigned int8  strcspn(char *s1, char *s2) 
.................... { 
....................    char *sc1, *sc2; 
....................  
....................    for (sc1 = s1; *sc1 != 0; sc1++) 
....................       for (sc2 = s2; *sc2 != 0; sc2++) 
....................          if (*sc1 == *sc2) 
....................             return(sc1 - s1); 
....................    return(sc1 - s1); 
.................... } 
.................... /* standard template: 
....................    char *strpbrk(const char *s1, const char *s2). 
....................    Locates first occurence of any character from s2 in s1; 
....................    returns s1 if s2 is empty string */ 
....................  
.................... char *strpbrk(char *s1, char *s2) 
.................... { 
....................    char *sc1, *sc2; 
....................  
....................    for (sc1 = s1; *sc1 != 0; sc1++) 
....................       for (sc2 = s2; *sc2 != 0; sc2++) 
....................          if (*sc1 == *sc2) 
....................             return(sc1); 
....................    return(0); 
.................... } 
....................  
....................  
.................... /* standard template: char *strrchr(const char *s, int c). 
....................    Finds last occurrence of c in s */ 
....................  
.................... char *strrchr(char *s, unsigned int8 c) 
.................... { 
....................    char *p; 
....................  
....................    for (p = 0; ; s++) 
....................    { 
....................       if (*s == c) 
....................          p = s; 
....................       if (*s == '\0') 
....................          return(p); 
....................    } 
.................... } 
.................... /* computes length of max initial segment of s1 consisting 
....................    entirely of characters from s2 */ 
....................  
.................... unsigned int8  strspn(char *s1, char *s2) 
.................... { 
....................    char *sc1, *sc2; 
....................  
....................    for (sc1 = s1; *sc1 != 0; sc1++) 
....................       for (sc2 = s2; ; sc2++) 
....................     if (*sc2 == '\0') 
....................        return(sc1 - s1); 
....................          else if (*sc1 == *sc2) 
....................             break; 
....................    return(sc1 - s1); 
.................... } 
.................... /* standard template: 
....................    char *strstr(const char *s1, const char *s2); 
....................    Locates first occurence of character sequence s2 in s1; 
....................    returns 0 if s2 is empty string 
....................  
....................    Uncomment #define FASTER_BUT_MORE_ROM at the top of the 
....................    file to use the faster algorithm */ 
.................... char *strstr(char *s1, char *s2) 
.................... { 
....................    char *s, *t; 
....................  
....................    #ifdef FASTER_BUT_MORE_ROM 
....................    if (*s2 == '\0') 
....................          return(s1); 
....................    #endif 
....................  
....................    while (*s1) 
....................    { 
....................       for(s = s1, t = s2; *t && (*s == *t); ++s, ++t); 
....................  
....................       if (*t == '\0') 
....................          return s1; 
....................       ++s1; 
....................       #ifdef FASTER_BUT_MORE_ROM 
....................          while(*s1 != '\0' && *s1 != *s2) 
....................             ++s1; 
....................       #endif 
....................    } 
....................    return 0; 
.................... } 
....................  
.................... /* standard template: char *strtok(char *s1, const char *s2). 
....................  
....................    Finds next token in s1 delimited by a character from separator 
....................    string s2 (which can be different from call to call).  First call 
....................    starts at beginning of s1 searching for first character NOT 
....................    contained in s2; returns 0 if none is found. 
....................    If one is found, it is the start of first token (return value). 
....................    Function then searches from there for a character contained in s2. 
....................    If none is found, current token extends to end of s1, and subsequent 
....................    searches for a token will return 0.  If one is found, it is 
....................    overwritten by '\0', which terminates current token.  Function saves 
....................    pointer to following character from which next search will start. 
....................    Each subsequent call, with 0 as first argument, starts searching 
....................    from saved pointer */ 
....................  
.................... char *strtok(char *s1, char *s2) 
.................... { 
....................    char *beg, *end; 
....................    static char *save; 
....................  
....................    beg = (s1)? s1: save; 
....................    beg += strspn(beg, s2); 
....................    if (*beg == '\0') 
....................    { 
....................       *save = ' '; 
....................       return(0); 
....................    } 
....................    end = strpbrk(beg, s2); 
....................    if (*end != '\0') 
....................    { 
....................       *end = '\0'; 
....................       end++; 
....................    } 
....................    save = end; 
....................    return(beg); 
.................... } 
....................  
.................... /*****************************************************************/ 
.................... /*Miscellaneous functions*/ 
.................... /* standard template 
.................... maps error number in errnum to an error message string 
.................... Returns: Pointer to string 
.................... */ 
.................... #ifdef _ERRNO 
.................... char * strerror(unsigned int8 errnum) 
.................... { 
.................... char s[15]; 
.................... switch( errnum) 
.................... { 
.................... case 0: 
....................    strcpy(s,"no errors"); 
....................    return s; 
.................... case EDOM : 
....................    strcpy(s,"domain error"); 
....................    return s; 
.................... case ERANGE: 
....................    strcpy(s,"range error"); 
....................    return s; 
.................... } 
.................... } 
.................... #ENDIF 
.................... /* standard template: size_t strlen(const char *s). 
....................    Computes length of s1 (preceding terminating 0) */ 
....................  
.................... unsigned int8 strlen(char *s) 
.................... { 
....................    char *sc; 
....................  
....................    for (sc = s; *sc != 0; sc++); 
....................    return(sc - s); 
.................... } 
....................  
.................... /* standard template: size_t stricmp(const char *s1, const char *s2). 
....................    Compares s1 to s2 ignoring case (upper vs. lower) */ 
....................  
.................... signed int8 stricmp(char *s1, char *s2) 
.................... { 
....................  for(; *s1==*s2||(isalpha(*s1)&&isalpha(*s2)&&(*s1==*s2+32||*s2==*s1+32)); 
....................     s1++, s2++) 
....................     if (*s1 == '\0') 
....................        return(0); 
....................  return((*s1 < *s2) ? -1: 1); 
.................... } 
....................  
....................  
.................... /* standard template: char *strlwr(char *s). 
....................    Replaces uppercase letters by lowercase; 
....................    returns pointer to new string s */ 
....................  
.................... char *strlwr(char *s) 
.................... { 
....................    char *p; 
....................  
....................    for (p = s; *p != '\0'; p++) 
....................       if (*p >= 'A' && *p <='Z') 
....................          *p += 'a' - 'A'; 
....................    return(s); 
.................... } 
....................  
....................  
.................... /************************************************************/ 
....................  
....................  
.................... #endif 
....................  
....................  
.................... div_t div(signed int numer, signed int denom) 
.................... { 
....................    div_t val; 
....................    val.quot = numer / denom; 
....................    val.rem = numer - (denom * val.quot); 
....................    return (val); 
.................... } 
....................  
.................... ldiv_t ldiv(signed long numer, signed long denom) 
.................... { 
....................    ldiv_t val; 
....................  
....................    val.quot = numer / denom; 
....................    val.rem = numer - (denom * val.quot); 
....................    return (val); 
.................... } 
....................  
.................... #if defined(__PCD__) 
.................... float32 atoe(char * s) 
.................... { 
....................    float32 pow10 = 1.0; 
....................    float32 result = 0.0; 
....................    unsigned int8 sign = 0; 
....................    unsigned int8 expsign = 0; 
....................    char c; 
....................    unsigned int8 ptr = 0; 
....................    unsigned int8 i; 
....................    float32 exp = 1.0; 
....................    unsigned int8 expcnt = 0; 
....................  
....................    c = s[ptr++]; 
....................  
....................    if ((c>='0' && c<='9') || c=='+' || c=='-' || c=='.' || c=='E' || c=='e') { 
....................       if(c == '-') { 
....................          sign = 1; 
....................          c = s[ptr++]; 
....................       } 
....................       if(c == '+') 
....................          c = s[ptr++]; 
....................  
....................       while((c >= '0' && c <= '9')) { 
....................          result = 10*result + c - '0'; 
....................          c = s[ptr++]; 
....................       } 
....................  
....................       if (c == '.') { 
....................          c = s[ptr++]; 
....................          while((c >= '0' && c <= '9')) { 
....................              pow10 = pow10*10; 
....................              result += (c - '0')/pow10; 
....................              c = s[ptr++]; 
....................          } 
....................       } 
....................  
....................       // Handling the exponent 
....................       if (c=='e' || c=='E') { 
....................          c = s[ptr++]; 
....................  
....................          if(c == '-') { 
....................             expsign = 1; 
....................             c = s[ptr++]; 
....................          } 
....................          if(c == '+') 
....................             c = s[ptr++]; 
....................  
....................          while((c >= '0' && c <= '9')) { 
....................             expcnt = 10*expcnt + c - '0'; 
....................             c = s[ptr++]; 
....................          } 
....................  
....................          for(i=0;i<expcnt;i++) 
....................             exp*=10; 
....................  
....................          if(expsign==1) 
....................             result/=exp; 
....................          else 
....................             result*=exp; 
....................       } 
....................    } 
....................  
....................    if (sign == 1) 
....................       result = -1*result; 
....................    return(result); 
.................... } 
.................... #endif 
....................  
.................... #if !defined(__PCD__) 
.................... float atoe(char * s) 
.................... { 
....................    float pow10 = 1.0; 
....................    float result = 0.0; 
....................    unsigned int8 sign = 0; 
....................    unsigned int8 expsign = 0; 
....................    char c; 
....................    unsigned int8 ptr = 0; 
....................    unsigned int8 i; 
....................    float exp = 1.0; 
....................    unsigned int8 expcnt = 0; 
....................  
....................    c = s[ptr++]; 
....................  
....................    if ((c>='0' && c<='9') || c=='+' || c=='-' || c=='.' || c=='E' || c=='e') { 
....................       if(c == '-') { 
....................          sign = 1; 
....................          c = s[ptr++]; 
....................       } 
....................       if(c == '+') 
....................          c = s[ptr++]; 
....................  
....................       while((c >= '0' && c <= '9')) { 
....................          result = 10*result + c - '0'; 
....................          c = s[ptr++]; 
....................       } 
....................  
....................       if (c == '.') { 
....................          c = s[ptr++]; 
....................          while((c >= '0' && c <= '9')) { 
....................              pow10 = pow10*10; 
....................              result += (c - '0')/pow10; 
....................              c = s[ptr++]; 
....................          } 
....................       } 
....................  
....................       // Handling the exponent 
....................       if (c=='e' || c=='E') { 
....................          c = s[ptr++]; 
....................  
....................          if(c == '-') { 
....................             expsign = 1; 
....................             c = s[ptr++]; 
....................          } 
....................          if(c == '+') 
....................             c = s[ptr++]; 
....................  
....................          while((c >= '0' && c <= '9')) { 
....................             expcnt = 10*expcnt + c - '0'; 
....................             c = s[ptr++]; 
....................          } 
....................  
....................          for(i=0;i<expcnt;i++) 
....................             exp*=10; 
....................  
....................          if(expsign==1) 
....................             result/=exp; 
....................          else 
....................             result*=exp; 
....................       } 
....................    } 
....................  
....................    if (sign == 1) 
....................       result = -1*result; 
....................    return(result); 
.................... } 
.................... #endif 
....................  
.................... signed int atoi(char *s) 
.................... { 
....................    signed int result; 
....................    unsigned int sign, base, index; 
....................    char c; 
....................  
....................    index = 0; 
....................    sign = 0; 
....................    base = 10; 
....................    result = 0; 
....................  
....................    if (!s) 
....................       return 0; 
....................    // Omit all preceeding alpha characters 
....................    c = s[index++]; 
....................  
....................    // increase index if either positive or negative sign is detected 
....................    if (c == '-') 
....................    { 
....................       sign = 1;         // Set the sign to negative 
....................       c = s[index++]; 
....................    } 
....................    else if (c == '+') 
....................    { 
....................       c = s[index++]; 
....................    } 
....................  
....................    if (c >= '0' && c <= '9') 
....................    { 
....................  
....................       // Check for hexa number 
....................       if (c == '0' && (s[index] == 'x' || s[index] == 'X')) 
....................       { 
....................          base = 16; 
....................          index++; 
....................          c = s[index++]; 
....................       } 
....................  
....................       // The number is a decimal number 
....................       if (base == 10) 
....................       { 
....................          while (c >= '0' && c <= '9') 
....................          { 
....................             result = 10*result + (c - '0'); 
....................             c = s[index++]; 
....................          } 
....................       } 
....................       else if (base == 16)    // The number is a hexa number 
....................       { 
....................          c = toupper(c); 
....................          while ( (c >= '0' && c <= '9') || (c >= 'A' && c<='F')) 
....................          { 
....................             if (c >= '0' && c <= '9') 
....................                result = (result << 4) + (c - '0'); 
....................             else 
....................                result = (result << 4) + (c - 'A' + 10); 
....................  
....................             c = s[index++]; 
....................             c = toupper(c); 
....................          } 
....................       } 
....................    } 
....................  
....................    if (sign == 1 && base == 10) 
....................        result = -result; 
....................  
....................    return(result); 
.................... } 
....................  
.................... signed long atol(char *s) 
.................... { 
....................    signed long result; 
....................    unsigned int sign, base, index; 
....................    char c; 
....................  
....................    index = 0; 
....................    sign = 0; 
....................    base = 10; 
....................    result = 0; 
....................  
....................    if (!s) 
....................       return 0; 
....................    c = s[index++]; 
....................  
....................    // increase index if either positive or negative sign is detected 
....................    if (c == '-') 
....................    { 
....................       sign = 1;         // Set the sign to negative 
....................       c = s[index++]; 
....................    } 
....................    else if (c == '+') 
....................    { 
....................       c = s[index++]; 
....................    } 
....................  
....................    if (c >= '0' && c <= '9') 
....................    { 
....................       if (c == '0' && (s[index] == 'x' || s[index] == 'X')) 
....................       { 
....................          base = 16; 
....................          index++; 
....................          c = s[index++]; 
....................       } 
....................  
....................       // The number is a decimal number 
....................       if (base == 10) 
....................       { 
....................          while (c >= '0' && c <= '9') 
....................          { 
....................             result = 10*result + (c - '0'); 
....................             c = s[index++]; 
....................          } 
....................       } 
....................       else if (base == 16)    // The number is a hexa number 
....................       { 
....................          c = toupper(c); 
....................          while ( (c >= '0' && c <= '9') || (c >= 'A' && c <='F')) 
....................          { 
....................             if (c >= '0' && c <= '9') 
....................                result = (result << 4) + (c - '0'); 
....................             else 
....................                result = (result << 4) + (c - 'A' + 10); 
....................  
....................             c = s[index++];c = toupper(c); 
....................          } 
....................       } 
....................    } 
....................  
....................    if (base == 10 && sign == 1) 
....................       result = -result; 
....................  
....................    return(result); 
.................... } 
....................  
.................... /* A fast routine to multiply by 10 
....................  */ 
.................... signed int32 mult_with10(int32 num) 
.................... { 
....................    return ( (num << 1) + (num << 3) ); 
.................... } 
....................  
.................... #if sizeof(long)==2 
.................... signed int32 atoi32(char *s) 
.................... { 
....................    signed int32 result; 
....................    int8 sign, base, index; 
....................    char c; 
....................  
....................    index = 0; 
....................    sign = 0; 
....................    base = 10; 
....................    result = 0; 
....................  
....................    if (!s) 
....................       return 0; 
....................    c = s[index++]; 
....................  
....................    // increase index if either positive or negative sign is detected 
....................    if (c == '-') 
....................    { 
....................       sign = 1;         // Set the sign to negative 
....................       c = s[index++]; 
....................    } 
....................    else if (c == '+') 
....................    { 
....................       c = s[index++]; 
....................    } 
....................  
....................    if (c >= '0' && c <= '9') 
....................    { 
....................       if (c == '0' && (s[index] == 'x' || s[index] == 'X')) 
....................       { 
....................          base = 16; 
....................          index++; 
....................          c = s[index++]; 
....................       } 
....................  
....................       // The number is a decimal number 
....................       if (base == 10) 
....................       { 
....................          while (c >= '0' && c <= '9') { 
....................             result = (result << 1) + (result << 3);  // result *= 10; 
....................             result += (c - '0'); 
....................             c = s[index++]; 
....................          } 
....................       } 
....................       else if (base == 16)    // The number is a hexa number 
....................       { 
....................          c = toupper(c); 
....................          while ((c >= '0' && c <= '9') || (c >= 'A' && c <='F')) 
....................          { 
....................             if (c >= '0' && c <= '9') 
....................                result = (result << 4) + (c - '0'); 
....................             else 
....................                result = (result << 4) + (c - 'A' + 10); 
....................  
....................             c = s[index++];c = toupper(c); 
....................          } 
....................       } 
....................    } 
....................  
....................    if (base == 10 && sign == 1) 
....................       result = -result; 
....................  
....................    return(result); 
.................... } 
.................... #endif 
....................  
.................... #if defined(__PCD__) 
....................  
.................... signed int48 atoi48(char *s) 
.................... { 
....................    signed int48 result; 
....................    int8 sign, base, index; 
....................    char c; 
....................  
....................    index = 0; 
....................    sign = 0; 
....................    base = 10; 
....................    result = 0; 
....................  
....................    if (!s) 
....................       return 0; 
....................    c = s[index++]; 
....................  
....................    // increase index if either positive or negative sign is detected 
....................    if (c == '-') 
....................    { 
....................       sign = 1;         // Set the sign to negative 
....................       c = s[index++]; 
....................    } 
....................    else if (c == '+') 
....................    { 
....................       c = s[index++]; 
....................    } 
....................  
....................    if (c >= '0' && c <= '9') 
....................    { 
....................       if (c == '0' && (s[index] == 'x' || s[index] == 'X')) 
....................       { 
....................          base = 16; 
....................          index++; 
....................          c = s[index++]; 
....................       } 
....................  
....................       // The number is a decimal number 
....................       if (base == 10) 
....................       { 
....................          while (c >= '0' && c <= '9') { 
....................             result = (result << 1) + (result << 3);  // result *= 10; 
....................             result += (c - '0'); 
....................             c = s[index++]; 
....................          } 
....................       } 
....................       else if (base == 16)    // The number is a hexa number 
....................       { 
....................          c = toupper(c); 
....................          while ((c >= '0' && c <= '9') || (c >= 'A' && c <='F')) 
....................          { 
....................             if (c >= '0' && c <= '9') 
....................                result = (result << 4) + (c - '0'); 
....................             else 
....................                result = (result << 4) + (c - 'A' + 10); 
....................  
....................             c = s[index++];c = toupper(c); 
....................          } 
....................       } 
....................    } 
....................  
....................    if (base == 10 && sign == 1) 
....................       result = -result; 
....................  
....................    return(result); 
.................... } 
....................  
.................... signed int64 atoi64(char *s) 
.................... { 
....................    signed int64 result; 
....................    int8 sign, base, index; 
....................    char c; 
....................  
....................    index = 0; 
....................    sign = 0; 
....................    base = 10; 
....................    result = 0; 
....................  
....................    if (!s) 
....................       return 0; 
....................    c = s[index++]; 
....................  
....................    // increase index if either positive or negative sign is detected 
....................    if (c == '-') 
....................    { 
....................       sign = 1;         // Set the sign to negative 
....................       c = s[index++]; 
....................    } 
....................    else if (c == '+') 
....................    { 
....................       c = s[index++]; 
....................    } 
....................  
....................    if (c >= '0' && c <= '9') 
....................    { 
....................       if (c == '0' && (s[index] == 'x' || s[index] == 'X')) 
....................       { 
....................          base = 16; 
....................          index++; 
....................          c = s[index++]; 
....................       } 
....................  
....................       // The number is a decimal number 
....................       if (base == 10) 
....................       { 
....................          while (c >= '0' && c <= '9') { 
....................             result = (result << 1) + (result << 3);  // result *= 10; 
....................             result += (c - '0'); 
....................             c = s[index++]; 
....................          } 
....................       } 
....................       else if (base == 16)    // The number is a hexa number 
....................       { 
....................          c = toupper(c); 
....................          while ((c >= '0' && c <= '9') || (c >= 'A' && c <='F')) 
....................          { 
....................             if (c >= '0' && c <= '9') 
....................                result = (result << 4) + (c - '0'); 
....................             else 
....................                result = (result << 4) + (c - 'A' + 10); 
....................  
....................             c = s[index++];c = toupper(c); 
....................          } 
....................       } 
....................    } 
....................  
....................    if (base == 10 && sign == 1) 
....................       result = -result; 
....................  
....................    return(result); 
.................... } 
.................... #endif 
....................  
.................... char * itoa(signed int32 num, unsigned int base, char * s) 
.................... { 
....................      unsigned int32 temp=1; 
....................      unsigned int8 i,sign=0,cnt=0; 
....................      char c; 
....................  
....................      if(num<0) { 
....................          sign=1;        // Check for negative number 
....................          num*=-1; 
....................      } 
....................  
....................      while(temp>0) { 
....................          temp=(num/base); 
....................          s[cnt]=(num%base)+'0';    // Conversion 
....................  
....................          if(s[cnt]>0x39) 
....................             s[cnt]+=0x7; 
....................  
....................          cnt++; 
....................          num=temp; 
....................      } 
....................  
....................      if(sign==1) { 
....................          s[cnt]=0x2D;      // Negative sign 
....................          cnt++; 
....................      } 
....................  
....................      for(i = 0;i<(int8)(cnt/2);i++) { 
....................  
....................          c=s[i]; 
....................          s[i]=s[cnt-i-1];        // Reverse the number 
....................          s[cnt-i-1]=c; 
....................      } 
....................      s[cnt]='\0';     // End the string 
....................      return s; 
.................... } 
....................  
.................... float strtof(char *s, char *endptr) 
.................... { 
....................    float pow10 = 1.0; 
....................    float result = 0.0; 
....................    int1 skip = 1, sign = 0, point = 0; 
....................    char c; 
....................    unsigned int8 ptr = 0; 
....................  
....................    if (!s) 
....................       return 0; 
....................  
....................    for(c=s[ptr++]; c!=0; c=s[ptr++]) 
....................    { 
....................       if (skip && !isspace(c)) 
....................       { 
....................          skip = 0; 
....................          if (c == '+') 
....................          { 
....................             sign = 0; 
....................             continue; 
....................          }             
....................          else if (c == '-') 
....................          { 
....................             sign = 1; 
....................             continue; 
....................          } 
....................       } 
....................       if (!skip && (c == '.') && !point) 
....................          point = 1; 
....................       else if (!skip && isdigit(c)) 
....................       { 
....................          c -= '0'; 
....................          if (point) 
....................          { 
....................             pow10 = pow10 * 10.0; 
....................             result += (float)c / pow10;    
....................          } 
....................          else 
....................          { 
....................             result = 10.0 * result + (float)c; 
....................          } 
....................       } 
....................       else if (!skip) 
....................          break; 
....................    } 
....................  
....................    if (sign) 
....................       result = -1*result; 
....................        
....................    if(endptr) 
....................    { 
....................       if (ptr) { 
....................          ptr--; 
....................        #IF LONG_POINTERS  
....................          *((long *)endptr)= s+ptr;  
....................        #ELSE 
....................          *((char *)endptr)=s+ptr; 
....................        #ENDIF 
....................       } 
....................       else 
....................       { 
....................       #IF LONG_POINTERS 
....................       *((long *)endptr)= s;  
....................       #ELSE 
....................       *((char *)endptr)=s; 
....................       #ENDIF 
....................       } 
....................    } 
....................  
....................    return(result); 
.................... } 
....................  
.................... #if defined(__PCD__) 
.................... float48 strtof48(char *s, char *endptr) 
.................... { 
....................    float48 pow10 = 1.0; 
....................    float48 result = 0.0; 
....................    int1 skip = 1, sign = 0, point = 0; 
....................    char c; 
....................    unsigned int8 ptr = 0; 
....................  
....................    if (!s) 
....................       return 0; 
....................  
....................    for(c=s[ptr++]; c!=0; c=s[ptr++]) 
....................    { 
....................       if (skip && !isspace(c)) 
....................       { 
....................          skip = 0; 
....................          if (c == '+') 
....................          { 
....................             sign = 0; 
....................             continue; 
....................          }             
....................          else if (c == '-') 
....................          { 
....................             sign = 1; 
....................             continue; 
....................          } 
....................       } 
....................       if (!skip && (c == '.') && !point) 
....................          point = 1; 
....................       else if (!skip && isdigit(c)) 
....................       { 
....................          c -= '0'; 
....................          if (point) 
....................          { 
....................             pow10 = pow10 * 10.0; 
....................             result += (float48)c / pow10;    
....................          } 
....................          else 
....................          { 
....................             result = 10.0 * result + (float48)c; 
....................          } 
....................       } 
....................       else if (!skip) 
....................          break; 
....................    } 
....................  
....................    if (sign) 
....................       result = -1*result; 
....................        
....................    if(endptr) 
....................    { 
....................       if (ptr) { 
....................          ptr--; 
....................        #IF LONG_POINTERS  
....................          *((long *)endptr)= s+ptr;  
....................        #ELSE 
....................          *((char *)endptr)=s+ptr; 
....................        #ENDIF 
....................       } 
....................       else 
....................       { 
....................       #IF LONG_POINTERS 
....................       *((long *)endptr)= s;  
....................       #ELSE 
....................       *((char *)endptr)=s; 
....................       #ENDIF 
....................       } 
....................    } 
....................  
....................    return(result); 
.................... } 
....................  
.................... float64 strtod(char *s, char *endptr) 
.................... { 
....................    float64 pow10 = 1.0; 
....................    float64 result = 0.0; 
....................    int1 skip = 1, sign = 0, point = 0; 
....................    char c; 
....................    unsigned int8 ptr = 0; 
....................  
....................    if (!s) 
....................       return 0; 
....................  
....................    for(c=s[ptr++]; c!=0; c=s[ptr++]) 
....................    { 
....................       if (skip && !isspace(c)) 
....................       { 
....................          skip = 0; 
....................          if (c == '+') 
....................          { 
....................             sign = 0; 
....................             continue; 
....................          }             
....................          else if (c == '-') 
....................          { 
....................             sign = 1; 
....................             continue; 
....................          } 
....................       } 
....................       if (!skip && (c == '.') && !point) 
....................          point = 1; 
....................       else if (!skip && isdigit(c)) 
....................       { 
....................          c -= '0'; 
....................          if (point) 
....................          { 
....................             pow10 = pow10 * 10.0; 
....................             result += (float64)c / pow10;    
....................          } 
....................          else 
....................          { 
....................             result = 10.0 * result + (float64)c; 
....................          } 
....................       } 
....................       else if (!skip) 
....................          break; 
....................    } 
....................  
....................    if (sign) 
....................       result = -1*result; 
....................        
....................    if(endptr) 
....................    { 
....................       if (ptr) { 
....................          ptr--; 
....................        #IF LONG_POINTERS  
....................          *((long *)endptr)= s+ptr;  
....................        #ELSE 
....................          *((char *)endptr)=s+ptr; 
....................        #ENDIF 
....................       } 
....................       else 
....................       { 
....................       #IF LONG_POINTERS 
....................       *((long *)endptr)= s;  
....................       #ELSE 
....................       *((char *)endptr)=s; 
....................       #ENDIF 
....................       } 
....................    } 
....................  
....................    return(result); 
.................... } 
.................... #endif 
....................  
.................... unsigned long strtoul(char *s, char *endptr, signed int base) 
.................... { 
....................    char *sc,*s1,*sd; 
....................    unsigned long x=0; 
....................    char sign; 
....................    char digits[]="0123456789abcdefghijklmnopqstuvwxyz"; 
....................    for(sc=s;isspace(*sc);++sc); 
....................    sign=*sc=='-'||*sc=='+'?*sc++:'+'; 
....................    if(sign=='-' || base <0 || base ==1|| base >36) // invalid base 
....................    goto StrtoulGO; 
....................  
....................    else if (base) 
....................    { 
....................       if(base==16 && *sc =='0'&&(sc[1]=='x' || sc[1]=='X')) 
....................          sc+=2; 
....................       if(base==8 && *sc =='0') 
....................          sc+=1; 
....................       if(base==2 && *sc =='0'&&sc[1]=='b') 
....................          sc+=2; 
....................  
....................    } 
....................    else if(*sc!='0') // base is 0, find base 
....................       base=10; 
....................    else if (sc[1]=='x' || sc[1]=='X') 
....................       base =16,sc+=2; 
....................    else if(sc[1]=='b') 
....................       base=2,sc+=2; 
....................    else 
....................       base=8; 
....................    for (s1=sc;*sc=='0';++sc);// skip leading zeroes 
....................    sd=memchr(digits,tolower(*sc),base); 
....................    for(; sd!=0; ) 
....................    { 
....................       x=x*base+(int16)(sd-digits); 
....................       ++sc; 
....................       sd=memchr(digits,tolower(*sc),base); 
....................    } 
....................    if(s1==sc) 
....................    { 
....................    StrtoulGO: 
....................       if (endptr) 
....................       { 
....................          #IF LONG_POINTERS 
....................          *((long *)endptr)= s;  
....................          #ELSE 
....................          *((char *)endptr)=s; 
....................          #ENDIF 
....................          } 
....................    return 0; 
....................    } 
....................    if (endptr) 
....................    { 
....................          #IF LONG_POINTERS 
....................          *((long *)endptr)= sc;  
....................          #ELSE 
....................          *((char *)endptr)=sc;  
....................          #ENDIF 
....................    } 
....................    return x; 
.................... } 
....................  
....................  
.................... signed long strtol(char *s,char *endptr, signed int base) 
.................... { 
....................    char *sc,*s1,*sd; 
....................    signed long x=0; 
....................    char sign; 
....................    char digits[]="0123456789abcdefghijklmnopqstuvwxyz"; 
....................    for(sc=s;isspace(*sc);++sc); 
....................    sign=*sc=='-'||*sc=='+'?*sc++:'+'; 
....................    if (base <0 || base ==1|| base >36) // invalid base 
....................    goto StrtolGO; 
....................    else if (base) 
....................    { 
....................       if(base==16 && *sc =='0'&&(sc[1]=='x' || sc[1]=='X')) 
....................          sc+=2; 
....................       if(base==8 && *sc =='0') 
....................          sc+=1; 
....................       if(base==2 && *sc =='0'&&sc[1]=='b') 
....................          sc+=2; 
....................  
....................    } 
....................    else if(*sc!='0') // base is 0, find base 
....................       base=10; 
....................    else if (sc[1]=='x' || sc[1]=='X') 
....................       base =16,sc+=2; 
....................    else if(sc[1]=='b') 
....................       base=2,sc+=2; 
....................    else 
....................       base=8; 
....................    for (s1=sc;*sc=='0';++sc);// skip leading zeroes 
....................  
....................    sd=memchr(digits,tolower(*sc),base); 
....................    for(;sd!=0;) 
....................    { 
....................       x=x*base+(int16)(sd-digits); 
....................       ++sc; 
....................       sd=memchr(digits,tolower(*sc),base); 
....................    } 
....................    if(s1==sc) 
....................    { 
....................    StrtolGO: 
....................       if (endptr) 
....................       { 
....................          #IF LONG_POINTERS 
....................          *((long *)endptr)= s;  
....................          #ELSE 
....................          *((char *)endptr)=s; 
....................          #ENDIF 
....................       } 
....................    return 0; 
....................    } 
....................    if(sign=='-') 
....................       x  =-x; 
....................    if (endptr) 
....................    { 
....................         #IF LONG_POINTERS 
....................          *((long *)endptr)= sc;  
....................         #ELSE 
....................         *((char *)endptr)=sc; 
....................         #ENDIF 
....................    } 
....................    return x; 
.................... } 
....................  
.................... signed int8 system(char *string) 
.................... { 
....................    return 0; 
.................... } 
....................  
.................... int8 mblen(char *s,size_t n) 
.................... { 
....................    return strlen(s); 
.................... } 
....................  
.................... int8 mbtowc(wchar_t *pwc,char *s,size_t n) 
.................... { 
....................    *pwc=*s; 
....................    return 1; 
.................... } 
....................  
.................... int8 wctomb(char *s,wchar_t wchar) 
.................... { 
....................    *s=wchar; 
....................    return 1; 
.................... } 
....................  
.................... size_t mbstowcs(wchar_t *pwcs,char *s,size_t n) 
.................... { 
....................    strncpy(pwcs,s,n); 
....................    return strlen(pwcs); 
.................... } 
....................  
.................... size_t wcstombs(char *s,wchar_t *pwcs,size_t n) 
.................... { 
....................    strncpy(s,pwcs,n); 
....................    return strlen(s); 
.................... } 
....................  
.................... //--------------------------------------------------------------------------- 
.................... // The random number implementation 
.................... //--------------------------------------------------------------------------- 
....................  
.................... unsigned int32 _Randseed; 
....................  
.................... unsigned int16 rand(void) 
.................... { 
....................    _Randseed = _Randseed * 1103515245 + 12345; 
....................    return ((unsigned int16)(_Randseed >> 16) % RAND_MAX); 
.................... } 
....................  
.................... void srand(unsigned int32 seed) 
.................... { 
....................    _Randseed = seed; 
.................... } 
....................  
.................... //--------------------------------------------------------------------------- 
.................... // Searching and sorting utilities implementation 
.................... //--------------------------------------------------------------------------- 
....................  
.................... #if !defined(__PCD__) 
.................... typedef signed int8 (*_Cmpfun)(char * p1,char * p2);  
.................... #else  
.................... typedef signed int16 (*_Cmpfun)(char * p1,char * p2);  
.................... #endif 
....................  
....................  
....................  
.................... void qsort(char * qdata, unsigned int qitems, unsigned int qsize, _Cmpfun cmp) { 
....................    unsigned int m,j,i,l; 
....................    int1 done; 
....................    unsigned int8 t[16]; 
....................  
....................    m = qitems/2; 
....................    while( m > 0 ) { 
....................      for(j=0; j<(qitems-m); ++j) { 
....................         i = j; 
....................         do 
....................         { 
....................            done=1; 
....................            l = i+m; 
....................            if( (*cmp)(qdata+i*qsize, qdata+l*qsize) > 0 ) { 
....................               memcpy(t, qdata+i*qsize, qsize); 
....................               memcpy(qdata+i*qsize, qdata+l*qsize, qsize); 
....................               memcpy(qdata+l*qsize, t, qsize); 
....................               if(m <= i) 
....................                 i -= m; 
....................                 done = 0; 
....................            } 
....................         } while(!done); 
....................      } 
....................      m = m/2; 
....................    } 
.................... } 
....................  
....................  
.................... char *bsearch(char *key, char *base, size_t num, size_t width,_Cmpfun cmp) 
.................... { 
....................    char *p, *q; 
....................    size_t n; 
....................    size_t pivot; 
....................    signed int val; 
....................  
....................    p = base; 
....................    n = num; 
....................  
....................    while (n > 0) 
....................    { 
....................       pivot = n >> 1; 
....................       q = p + width * pivot; 
....................  
....................       val = (*cmp)(key, q); 
....................  
....................       if (val < 0) 
....................          n = pivot; 
....................       else if (val == 0) 
....................          return ((char *)q); 
....................       else { 
....................          p = q + width; 
....................          n -= pivot + 1; 
....................       } 
....................    } 
....................  
....................    return NULL;      // There's no match 
.................... } 
....................  
....................  
.................... #endif 
....................  
.................... #include <DS1302.c> 
.................... ////////////////////////////////////////////////////////////////////////// 
.................... ////                               DS1302.C                           //// 
.................... ////                     Driver for Real Time Clock                   //// 
.................... ////                                                                  //// 
.................... ////  rtc_init()                                   Call after power up//// 
.................... ////                                                                  //// 
.................... ////  rtc_set_datetime(day,mth,year,dow,hour,min)  Set the date/time  //// 
.................... ////                                                                  //// 
.................... ////  rtc_get_date(day,mth,year,dow)               Get the date       //// 
.................... ////                                                                  //// 
.................... ////  rtc_get_time(hr,min,sec)                     Get the time       //// 
.................... ////                                                                  //// 
.................... ////  rtc_write_nvr(address,data)                  Write to NVR       //// 
.................... ////                                                                  //// 
.................... ////  data = rtc_read_nvr(address)                 Read from NVR      //// 
.................... ////                                                                  //// 
.................... ////  get_bcd(data)                              Convert data to BCD  //// 
.................... ////                                                                  //// 
.................... ////  rm_bcd(data)                               Convert data to int  //// 
.................... ////                                                                  //// 
.................... ////////////////////////////////////////////////////////////////////////// 
.................... ////        (C) Copyright 1996,2003 Custom Computer Services          //// 
.................... //// This source code may only be used by licensed users of the CCS C //// 
.................... //// compiler.  This source code may only be distributed to other     //// 
.................... //// licensed users of the CCS C compiler.  No other use, reproduction//// 
.................... //// or distribution is permitted without written permission.         //// 
.................... //// Derivative programs created using this software in object code   //// 
.................... //// form are not restricted in any way.                              //// 
.................... ////////////////////////////////////////////////////////////////////////// 
....................  
.................... //#ifndef RTC_SCLK 
....................  
.................... #define RTC_SCLK PIN_E1 
.................... #define RTC_IO   PIN_E2 
.................... #define RTC_RST  PIN_C0 
....................  
.................... //#endif 
....................  
.................... void write_ds1302_byte(BYTE cmd) { 
....................    BYTE i; 
....................  
....................    for(i=0;i<=7;++i) { 
*
03628:  MOVLB  6
0362A:  CLRF   x36
0362C:  MOVF   x36,W
0362E:  SUBLW  07
03630:  BNC   364C
....................       output_bit(RTC_IO, shift_right(&cmd,1,0) ); 
03632:  BCF    FD8.0
03634:  RRCF   x35,F
03636:  BC    363C
03638:  BCF    F8D.2
0363A:  BRA    363E
0363C:  BSF    F8D.2
0363E:  BCF    F96.2
....................       output_high(RTC_SCLK); 
03640:  BCF    F96.1
03642:  BSF    F8D.1
....................       output_low(RTC_SCLK); 
03644:  BCF    F96.1
03646:  BCF    F8D.1
03648:  INCF   x36,F
0364A:  BRA    362C
....................    } 
0364C:  MOVLB  0
0364E:  RETURN 0
.................... } 
....................  
.................... void write_ds1302(BYTE cmd, BYTE data) { 
....................  
....................    output_high(RTC_RST); 
03650:  BCF    F94.0
03652:  BSF    F8B.0
....................    write_ds1302_byte(cmd); 
03654:  MOVFF  633,635
03658:  RCALL  3628
....................    write_ds1302_byte(data); 
0365A:  MOVFF  634,635
0365E:  RCALL  3628
....................    output_low(RTC_RST); 
03660:  BCF    F94.0
03662:  BCF    F8B.0
03664:  RETURN 0
.................... } 
....................  
.................... BYTE read_ds1302(BYTE cmd) { 
....................    BYTE i,data; 
....................  
....................    output_high(RTC_RST); 
03666:  BCF    F94.0
03668:  BSF    F8B.0
....................    write_ds1302_byte(cmd); 
0366A:  MOVFF  630,635
0366E:  RCALL  3628
....................     
....................    input(RTC_IO); 
03670:  BSF    F96.2
....................    delay_us(10); 
03672:  MOVLW  10
03674:  MOVWF  00
03676:  DECFSZ 00,F
03678:  BRA    3676
0367A:  NOP   
....................           
....................    for(i=0;i<=7;++i) { 
0367C:  MOVLB  6
0367E:  CLRF   x31
03680:  MOVF   x31,W
03682:  SUBLW  07
03684:  BNC   36B0
....................       shift_right(&data,1,input(RTC_IO)); 
03686:  BSF    F96.2
03688:  BTFSC  F84.2
0368A:  BRA    3690
0368C:  BCF    FD8.0
0368E:  BRA    3692
03690:  BSF    FD8.0
03692:  RRCF   x32,F
....................       output_high(RTC_SCLK); 
03694:  BCF    F96.1
03696:  BSF    F8D.1
....................       delay_us(20); 
03698:  MOVLW  21
0369A:  MOVWF  00
0369C:  DECFSZ 00,F
0369E:  BRA    369C
....................       output_low(RTC_SCLK); 
036A0:  BCF    F96.1
036A2:  BCF    F8D.1
....................       delay_us(20); 
036A4:  MOVLW  21
036A6:  MOVWF  00
036A8:  DECFSZ 00,F
036AA:  BRA    36A8
036AC:  INCF   x31,F
036AE:  BRA    3680
....................    } 
....................    output_low(RTC_RST); 
036B0:  BCF    F94.0
036B2:  BCF    F8B.0
....................  
....................    return(data); 
036B4:  MOVFF  632,01
036B8:  MOVLB  0
036BA:  RETURN 0
.................... } 
....................  
.................... void rtc_init() { 
....................    BYTE x; 
....................    output_low(RTC_RST); 
036BC:  BCF    F94.0
036BE:  BCF    F8B.0
....................    delay_us(20); 
036C0:  MOVLW  21
036C2:  MOVWF  00
036C4:  DECFSZ 00,F
036C6:  BRA    36C4
....................    output_low(RTC_SCLK); 
036C8:  BCF    F96.1
036CA:  BCF    F8D.1
....................    write_ds1302(0x8e,0); 
036CC:  MOVLW  8E
036CE:  MOVLB  6
036D0:  MOVWF  x33
036D2:  CLRF   x34
036D4:  MOVLB  0
036D6:  RCALL  3650
....................    write_ds1302(0x90,0xa4); 
036D8:  MOVLW  90
036DA:  MOVLB  6
036DC:  MOVWF  x33
036DE:  MOVLW  A4
036E0:  MOVWF  x34
036E2:  MOVLB  0
036E4:  RCALL  3650
....................    x=read_ds1302(0x81); 
036E6:  MOVLW  81
036E8:  MOVLB  6
036EA:  MOVWF  x30
036EC:  MOVLB  0
036EE:  RCALL  3666
036F0:  MOVFF  01,62C
....................    if((x & 0x80)!=0) 
036F4:  MOVLB  6
036F6:  MOVF   x2C,W
036F8:  ANDLW  80
036FA:  BZ    3708
....................      write_ds1302(0x80,0); 
036FC:  MOVLW  80
036FE:  MOVWF  x33
03700:  CLRF   x34
03702:  MOVLB  0
03704:  RCALL  3650
03706:  MOVLB  6
03708:  MOVLB  0
0370A:  GOTO   6CAE (RETURN)
.................... } 
....................  
.................... byte get_bcd(BYTE data) 
.................... { 
....................    byte nibh; 
....................    byte nibl; 
....................  
....................    nibh=data/10; 
*
054FA:  MOVFF  632,635
054FE:  MOVLW  0A
05500:  MOVLB  6
05502:  MOVWF  x36
05504:  MOVLB  0
05506:  RCALL  502E
05508:  MOVFF  01,633
....................    nibl=data-(nibh*10); 
0550C:  MOVLB  6
0550E:  MOVF   x33,W
05510:  MULLW  0A
05512:  MOVF   FF3,W
05514:  SUBWF  x32,W
05516:  MOVWF  x34
....................  
....................    return((nibh<<4)|nibl); 
05518:  SWAPF  x33,W
0551A:  MOVWF  00
0551C:  MOVLW  F0
0551E:  ANDWF  00,F
05520:  MOVF   00,W
05522:  IORWF  x34,W
05524:  MOVWF  01
05526:  MOVLB  0
05528:  RETURN 0
.................... } 
....................  
.................... byte rm_bcd(BYTE data) 
.................... { 
....................    byte i; 
....................  
....................    i=data; 
*
04864:  MOVFF  631,632
....................    data=(i>>4)*10; 
04868:  MOVLB  6
0486A:  SWAPF  x32,W
0486C:  MOVWF  00
0486E:  MOVLW  0F
04870:  ANDWF  00,F
04872:  MOVF   00,W
04874:  MULLW  0A
04876:  MOVFF  FF3,631
....................    data=data+(i<<4>>4); 
0487A:  SWAPF  x32,W
0487C:  MOVWF  00
0487E:  MOVLW  F0
04880:  ANDWF  00,F
04882:  MOVF   00,W
04884:  SWAPF  00,F
04886:  MOVLW  0F
04888:  ANDWF  00,F
0488A:  MOVF   00,W
0488C:  ADDWF  x31,F
....................  
....................    return data; 
0488E:  MOVFF  631,01
04892:  MOVLB  0
04894:  RETURN 0
.................... } 
....................  
.................... void rtc_set_datetime(BYTE day, BYTE mth, BYTE year, BYTE dow, BYTE hr, BYTE min) { 
....................  
....................    write_ds1302(0x86,get_bcd(day)); 
*
0552A:  MOVFF  62C,632
0552E:  RCALL  54FA
05530:  MOVFF  01,632
05534:  MOVLW  86
05536:  MOVLB  6
05538:  MOVWF  x33
0553A:  MOVFF  01,634
0553E:  MOVLB  0
05540:  CALL   3650
....................    write_ds1302(0x88,get_bcd(mth)); 
05544:  MOVFF  62D,632
05548:  RCALL  54FA
0554A:  MOVFF  01,632
0554E:  MOVLW  88
05550:  MOVLB  6
05552:  MOVWF  x33
05554:  MOVFF  01,634
05558:  MOVLB  0
0555A:  CALL   3650
....................    write_ds1302(0x8c,get_bcd(year)); 
0555E:  MOVFF  62E,632
05562:  RCALL  54FA
05564:  MOVFF  01,632
05568:  MOVLW  8C
0556A:  MOVLB  6
0556C:  MOVWF  x33
0556E:  MOVFF  01,634
05572:  MOVLB  0
05574:  CALL   3650
....................    write_ds1302(0x8a,get_bcd(dow)); 
05578:  MOVFF  62F,632
0557C:  RCALL  54FA
0557E:  MOVFF  01,632
05582:  MOVLW  8A
05584:  MOVLB  6
05586:  MOVWF  x33
05588:  MOVFF  01,634
0558C:  MOVLB  0
0558E:  CALL   3650
....................    write_ds1302(0x84,get_bcd(hr)); 
05592:  MOVFF  630,632
05596:  RCALL  54FA
05598:  MOVFF  01,632
0559C:  MOVLW  84
0559E:  MOVLB  6
055A0:  MOVWF  x33
055A2:  MOVFF  01,634
055A6:  MOVLB  0
055A8:  CALL   3650
....................    write_ds1302(0x82,get_bcd(min)); 
055AC:  MOVFF  631,632
055B0:  RCALL  54FA
055B2:  MOVFF  01,632
055B6:  MOVLW  82
055B8:  MOVLB  6
055BA:  MOVWF  x33
055BC:  MOVFF  01,634
055C0:  MOVLB  0
055C2:  CALL   3650
....................    write_ds1302(0x80,get_bcd(0)); 
055C6:  MOVLB  6
055C8:  CLRF   x32
055CA:  MOVLB  0
055CC:  RCALL  54FA
055CE:  MOVFF  01,632
055D2:  MOVLW  80
055D4:  MOVLB  6
055D6:  MOVWF  x33
055D8:  MOVFF  01,634
055DC:  MOVLB  0
055DE:  CALL   3650
055E2:  GOTO   9646 (RETURN)
.................... } 
....................  
.................... void rtc_get_date(BYTE& day, BYTE& mth, BYTE& year, BYTE& dow) { 
....................    day = rm_bcd(read_ds1302(0x87)); 
*
06DF8:  MOVLW  87
06DFA:  MOVLB  6
06DFC:  MOVWF  x30
06DFE:  MOVLB  0
06E00:  CALL   3666
06E04:  MOVFF  01,62C
06E08:  MOVFF  01,631
06E0C:  CALL   4864
06E10:  MOVFF  01,213
....................    mth = rm_bcd(read_ds1302(0x89)); 
06E14:  MOVLW  89
06E16:  MOVLB  6
06E18:  MOVWF  x30
06E1A:  MOVLB  0
06E1C:  CALL   3666
06E20:  MOVFF  01,62C
06E24:  MOVFF  01,631
06E28:  CALL   4864
06E2C:  MOVFF  01,212
....................    year = rm_bcd(read_ds1302(0x8d)); 
06E30:  MOVLW  8D
06E32:  MOVLB  6
06E34:  MOVWF  x30
06E36:  MOVLB  0
06E38:  CALL   3666
06E3C:  MOVFF  01,62C
06E40:  MOVFF  01,631
06E44:  CALL   4864
06E48:  MOVFF  01,211
....................    dow = rm_bcd(read_ds1302(0x8b)); 
06E4C:  MOVLW  8B
06E4E:  MOVLB  6
06E50:  MOVWF  x30
06E52:  MOVLB  0
06E54:  CALL   3666
06E58:  MOVFF  01,62C
06E5C:  MOVFF  01,631
06E60:  CALL   4864
06E64:  MOVFF  01,217
.................... } 
....................  
.................... void rtc_get_time(BYTE& hr, BYTE& min, BYTE& sec) { 
....................    hr = rm_bcd(read_ds1302(0x85)); 
06E68:  MOVLW  85
06E6A:  MOVLB  6
06E6C:  MOVWF  x30
06E6E:  MOVLB  0
06E70:  CALL   3666
06E74:  MOVFF  01,62C
06E78:  MOVFF  01,631
06E7C:  CALL   4864
06E80:  MOVFF  01,214
....................    min = rm_bcd(read_ds1302(0x83)); 
06E84:  MOVLW  83
06E86:  MOVLB  6
06E88:  MOVWF  x30
06E8A:  MOVLB  0
06E8C:  CALL   3666
06E90:  MOVFF  01,62C
06E94:  MOVFF  01,631
06E98:  CALL   4864
06E9C:  MOVFF  01,215
....................    sec = rm_bcd(read_ds1302(0x81)); 
06EA0:  MOVLW  81
06EA2:  MOVLB  6
06EA4:  MOVWF  x30
06EA6:  MOVLB  0
06EA8:  CALL   3666
06EAC:  MOVFF  01,62C
06EB0:  MOVFF  01,631
06EB4:  CALL   4864
06EB8:  MOVFF  01,216
.................... } 
....................  
.................... void rtc_write_nvr(BYTE address, BYTE data) { 
....................    write_ds1302(address|0xc0,data); 
.................... } 
....................  
.................... BYTE rtc_read_nvr(BYTE address) { 
....................     return(read_ds1302(address|0xc1)); 
.................... } 
....................  
.................... #include <24512.c> 
.................... /////////////////////////////////////////////////////////////////////////// 
.................... ////   Library for a 24LC512 serial EEPROM                             //// 
.................... ////                                                                   //// 
.................... ////   init_ext_eeprom();    Call before the other functions are used  //// 
.................... ////                                                                   //// 
.................... ////   write_ext_eeprom(a, d);  Write the byte d to the address a      //// 
.................... ////                                                                   //// 
.................... ////   d = read_ext_eeprom(a);   Read the byte d from the address a    //// 
.................... ////                                                                   //// 
.................... ////   The main program may define eeprom_sda                          //// 
.................... ////   and eeprom_scl to override the defaults below.                  //// 
.................... ////                                                                   //// 
.................... /////////////////////////////////////////////////////////////////////////// 
.................... ////        (C) Copyright 1996,2003 Custom Computer Services           //// 
.................... //// This source code may only be used by licensed users of the CCS C  //// 
.................... //// compiler.  This source code may only be distributed to other      //// 
.................... //// licensed users of the CCS C compiler.  No other use, reproduction //// 
.................... //// or distribution is permitted without written permission.          //// 
.................... //// Derivative programs created using this software in object code    //// 
.................... //// form are not restricted in any way.                               //// 
.................... /////////////////////////////////////////////////////////////////////////// 
....................  
.................... #ifndef EEPROM_SDA 
....................  
.................... #define EEPROM_SDA  PIN_C4 
.................... #define EEPROM_SCL  PIN_C3 
....................  
.................... #endif 
....................  
.................... #use i2c(master, sda=EEPROM_SDA, scl=EEPROM_SCL) 
*
02370:  BCF    FC6.7
02372:  BCF    F9E.3
02374:  MOVFF  639,FC9
02378:  MOVLW  02
0237A:  BTFSC  FC6.7
0237C:  BRA    2388
0237E:  BTFSS  F9E.3
02380:  BRA    237E
02382:  MOVLW  00
02384:  BTFSC  FC5.6
02386:  MOVLW  01
02388:  MOVWF  01
0238A:  RETURN 0
0238C:  BCF    FC6.6
0238E:  BSF    FC5.3
02390:  BTFSC  FC5.3
02392:  BRA    2390
02394:  BTFSC  00.0
02396:  BCF    FC5.5
02398:  BTFSS  00.0
0239A:  BSF    FC5.5
0239C:  BSF    FC5.4
0239E:  BTFSC  FC5.4
023A0:  BRA    239E
023A2:  MOVFF  FC9,01
023A6:  RETURN 0
....................  
.................... #define EEPROM_ADDRESS long int 
.................... #define EEPROM_SIZE   65535 
....................  
.................... void init_ext_eeprom() 
.................... { 
....................    output_float(EEPROM_SCL); 
....................    output_float(EEPROM_SDA); 
....................  
.................... } 
....................  
.................... void write_ext_eeprom(long int address, BYTE data) 
.................... { 
....................    short int status; 
....................    i2c_start(); 
*
05DF6:  BSF    FC5.0
05DF8:  BTFSC  FC5.0
05DFA:  BRA    5DF8
....................    i2c_write(0xa0); 
05DFC:  MOVLW  A0
05DFE:  MOVLB  6
05E00:  MOVWF  x39
05E02:  MOVLB  0
05E04:  CALL   2370
....................    i2c_write(address>>8); 
05E08:  MOVFF  634,637
05E0C:  MOVLB  6
05E0E:  CLRF   x38
05E10:  MOVFF  634,639
05E14:  MOVLB  0
05E16:  CALL   2370
....................    i2c_write(address); 
05E1A:  MOVFF  633,639
05E1E:  CALL   2370
....................    i2c_write(data); 
05E22:  MOVFF  635,639
05E26:  CALL   2370
....................    i2c_stop(); 
05E2A:  BSF    FC5.2
05E2C:  BTFSC  FC5.2
05E2E:  BRA    5E2C
....................    i2c_start(); 
05E30:  BSF    FC5.0
05E32:  BTFSC  FC5.0
05E34:  BRA    5E32
....................    status=i2c_write(0xa0); 
05E36:  MOVLW  A0
05E38:  MOVLB  6
05E3A:  MOVWF  x39
05E3C:  MOVLB  0
05E3E:  CALL   2370
05E42:  MOVF   01,W
05E44:  MOVLB  6
05E46:  BCF    x36.0
05E48:  BTFSC  01.0
05E4A:  BSF    x36.0
....................    while(status==1) 
05E4C:  BTFSS  x36.0
05E4E:  BRA    5E6C
....................    { 
....................       i2c_start(); 
05E50:  BSF    FC5.1
05E52:  BTFSC  FC5.1
05E54:  BRA    5E52
....................       status=i2c_write(0xa0); 
05E56:  MOVLW  A0
05E58:  MOVWF  x39
05E5A:  MOVLB  0
05E5C:  CALL   2370
05E60:  MOVF   01,W
05E62:  MOVLB  6
05E64:  BCF    x36.0
05E66:  BTFSC  01.0
05E68:  BSF    x36.0
05E6A:  BRA    5E4C
....................    } 
....................    i2c_stop(); 
05E6C:  BSF    FC5.2
05E6E:  BTFSC  FC5.2
05E70:  BRA    5E6E
05E72:  MOVLB  0
05E74:  RETURN 0
.................... } 
....................  
.................... BYTE read_ext_eeprom(long int address) { 
....................    BYTE data; 
....................    i2c_start(); 
*
023A8:  BSF    FC5.0
023AA:  BTFSC  FC5.0
023AC:  BRA    23AA
....................    i2c_write(0xa0); 
023AE:  MOVLW  A0
023B0:  MOVLB  6
023B2:  MOVWF  x39
023B4:  MOVLB  0
023B6:  RCALL  2370
....................    i2c_write(address>>8); 
023B8:  MOVFF  632,634
023BC:  MOVLB  6
023BE:  CLRF   x35
023C0:  MOVFF  632,639
023C4:  MOVLB  0
023C6:  RCALL  2370
....................    i2c_write(address); 
023C8:  MOVFF  631,639
023CC:  RCALL  2370
....................    i2c_start(); 
023CE:  BSF    FC5.1
023D0:  BTFSC  FC5.1
023D2:  BRA    23D0
....................    i2c_write(0xa1); 
023D4:  MOVLW  A1
023D6:  MOVLB  6
023D8:  MOVWF  x39
023DA:  MOVLB  0
023DC:  RCALL  2370
....................    data=i2c_read(0); 
023DE:  CLRF   00
023E0:  RCALL  238C
023E2:  MOVFF  01,633
....................    i2c_stop(); 
023E6:  BSF    FC5.2
023E8:  BTFSC  FC5.2
023EA:  BRA    23E8
....................    return(data); 
023EC:  MOVLB  6
023EE:  MOVFF  633,01
023F2:  MOVLB  0
023F4:  RETURN 0
.................... } 
....................  
....................  
.................... #define   UP            !input(PIN_B6) 
.................... #define   DOWN          !input(PIN_B5) 
.................... #define   RIGHT         !input(PIN_B4) 
.................... #define   LEFT          !input(PIN_B3) 
....................  
.................... #define   DOOR          !input(PIN_B1) 
.................... #define   STOP          !input(PIN_B2) 
.................... #define   TERM          !input(PIN_B3) 
.................... #define   PRES          !input(PIN_A4) 
....................  
.................... #define   LOW           input(PIN_B0) 
....................  
.................... #define   Buzzer_on        output_bit(PIN_C5,1) 
.................... #define   Buzzer_off       output_bit(PIN_C5,0) 
....................  
.................... #define   Suministro_on    output_bit(PIN_D0,1) 
.................... #define   Suministro_off   output_bit(PIN_D0,0) 
....................  
.................... #define   Paso_on          output_bit(PIN_D1,1) 
.................... #define   Paso_off         output_bit(PIN_D1,0) 
....................  
.................... #define   Vacio_on         output_bit(PIN_D2,1) 
.................... #define   Vacio_off        output_bit(PIN_D2,0) 
....................  
.................... #define   Desfogue_on      output_bit(PIN_D3,1) 
.................... #define   Desfogue_off     output_bit(PIN_D3,0) 
....................  
.................... #define   Aire_on          output_bit(PIN_D4,1) 
.................... #define   Aire_off         output_bit(PIN_D4,0) 
....................  
.................... #define   BombaVacio_on    output_bit(PIN_D5,1) 
.................... #define   BombaVacio_off   output_bit(PIN_D5,0) 
....................  
.................... #define   Agua_on          output_bit(PIN_D6,1) 
.................... #define   Agua_off         output_bit(PIN_D6,0) 
....................  
.................... #define   Agua2_on         output_bit(PIN_D7,1) 
.................... #define   Agua2_off        output_bit(PIN_D7,0) 
....................  
.................... #define OFF 0 
.................... #define ON  1 
.................... #define RX_BUFFER_SIZE  10 
.................... char Rx_Buffer[RX_BUFFER_SIZE+1]; 
.................... char Rx_Buffer2[RX_BUFFER_SIZE+1]; 
.................... char RX_Wr_Index=0; 
....................  
.................... //Comunicacion//------------------------ 
.................... //byte txbuf[0X20]; 
.................... byte SlaveA0Tx[0X20]; 
.................... byte dato=0;            //Contendr la informacin a enviar o recibir 
.................... byte direccion=0;       //Contendr la direccin del esclavo en el bus I2C 
.................... byte posicion=0;        //Contendr la posicin en el buffer de memoria del esclavo donde se almacenar o de donde se recuperar el dato 
.................... //byte ByteConfig1=0,ByteConfig2=0,ByteConfig3=0; 
....................  
.................... /* Tabla de Modulos, Primera Fila Ao Regular y el siguiente ao Bisiesto 
.................... E   F   M   A   M   J   J   A   S   O   N   D 
.................... 0   3   3   6   1   4   6   2   5   0   3   5 
.................... 0   3   4   0   2   5   0   3   6   1   4   6 
.................... */ 
.................... int8 Regular[12]={0,3,3,6,1,4,6,2,5,0,3,5}; 
.................... int8 Bisiesto[12]={0,3,4,0,2,5,0,3,6,1,4,6}; 
....................  
.................... //Alarmas//--------------------- 
.................... short AlarmaTiempoProlongado=OFF,AlarmaSobreTemperatura=OFF,AlarmaTermostato=OFF,AlarmaPuerta=OFF,AlarmaEmergencia=OFF,AlarmaVacio=OFF; 
.................... short AlarmaBomba=OFF,guardaCiclo=OFF,Cilindro=OFF; 
.................... int16 TiempoVacio=600; 
....................  
.................... //Banderas//-------------------- 
.................... short IniciaLlenado=OFF,IniciaCiclo=OFF,Esterilizando=OFF,Secando=OFF,SensadoNivel=OFF,Desfogando=OFF,DesfogueSuave=OFF,CalderinLleno=OFF; 
.................... short EstadoDesfogue=OFF,EstadoSuministro=OFF,EstadoAire=OFF,PruebaEstados=OFF,disp_Guarda=OFF,Ciclo=OFF,EstadoAgua2=OFF; 
.................... short Op=OFF,Op2=OFF,Minutos=OFF,Segundos=OFF,GuardaEEPROM=OFF,EstadoPaso=OFF,EstadoVacio=OFF,EstadoBuzzer=OFF,flagAlarma=OFF; 
.................... short flagBuzzer=OFF,flagSilencio=OFF,Finalizo=OFF,AlarmaPresion=OFF,EstadoACierre=OFF,EstadoBomba=OFF,Libre=OFF,ingreso=OFF,Fugas=OFF; 
.................... short PreCalentamiento=OFF,IniciaVacio=OFF,IniciaVacio2=OFF,Vacio=OFF,flag_vac=OFF,flag_vacio=OFF,flag_pulso=OFF,EstadoAireBomba=OFF; 
....................  
.................... //Tiempos//--------------------- 
.................... int16 TiempoCiclo=0,TiempoSensadoNivel=0,Tp=0,Tc=0,tguarda=0; 
.................... signed int  Testerilizacion[4]={0,0,0,0};   // Tiempo transcurrido 
.................... signed int  Testerilizacionp[4]={0,0,0,0};   // Tiempo transcurrido 
.................... signed int  Tsecado[4]={0,0,0,0};   // Tiempo transcurrido 
.................... signed int  Tsecadop[4]={0,0,0,0};   // Tiempo transcurrido 
....................  
.................... //Control//------------------------ 
.................... float PromPresion[20]={0.0,0.0,0.0,0.0,0.0,0.0,0.0,0.0,0.0,0.0,0.0,0.0,0.0,0.0,0.0,0.0,0.0,0.0,0.0,0.0}; 
.................... float PromPresionp[20]={0.0,0.0,0.0,0.0,0.0,0.0,0.0,0.0,0.0,0.0,0.0,0.0,0.0,0.0,0.0,0.0,0.0,0.0,0.0,0.0}; 
.................... float Temporal=0.0; 
.................... //float K=0.006429; 
.................... float R7=3000,R8=3100,R9=3100,R10=3100,AN=0,BN=0; 
.................... float X[2]={0.0,0.0}; 
.................... float promediopresion=0.0,promediopresionp=0.0; 
.................... int8 h=0,l=0,MediaMovil=20,PantallaPrincipal=0,TipoClave=0,Modulo=0; 
.................... float V0=0.0,Pt,Tciclo=10.0,Tpulso=0.0,error=0.0,Prom=0.0,Temperature=0.0,tmp=0.0,Ganancia=25.0,Ganancia2=20.0,desvio=1.0; 
.................... float V1=0.0,Presion=0.0,V2=0.0,Presionp=0.0; 
.................... float Temperatura=0.0,Temperatura2=0.0; 
.................... float a=0.0011,b=2.3302,c=-244.0723; 
....................  
.................... //Varios//-------------------------------- 
.................... short desfoguelento=0,Lectura=0,Grafica=0; 
.................... short disp_Stop=0,flagTC=0,flagImprime=0; 
.................... int8 Control=0,tiemporecta=0,Controlando=0,timpresion=2,CalculoImpresion=0,Inicio=1,Dato_Exitoso=0,Dato2=0; 
.................... int8 Menu=0, MenuAnt=0,MenuAntt=240,i=0,CiclosL=0,CiclosH=0,CicloSeleccionado=0,Tapertura=0; 
.................... int16 CantidadPulsos=4; 
.................... int8 Setpoint=0,Opcion=1,Opcion2=1,tiempo_esterilizacion=0,tiempo_secado=0,tiempoImpresion=0; 
.................... int16 tiempos=0,tiempos2=0,tiempos3=0,tiempoctrl=0,Nivel=0,tinicio=0,PresionCamara=0,PresionPreCamara=0,Ciclos=0,tbomba=0,tvacio=0; 
.................... signed int  Password[4]={0,0,0,0};        // Contrasena Almacenada de 4 digitos 
.................... int8 r=0,t=0,r22=0,t2=0,TiempoControl=0,NivelDes=0; 
.................... int8 y=0,ConteoBuzzer=0,posicionDato=0,codigoAlarma=0,codigoAnt=0,codigoUsuario2=0; 
.................... int16 tbuzzer=0,tsilencio=0; 
.................... int8 Year=18,Mes=9,Dia=13,Hora=0,Minuto=0,Segundo=0,dow=0,cicloVisualizado=0,cicloVisto=0,NivelVacio=25,Atmosferica=75,PulsoPositivo=10,PulsosVacio=0; 
.................... int8 YearTx=0,MesTx=0,DiaTx=0,HoraTx=0,MinutoTx=0,SegundoTx=0,dowTx=0,SetTime=0,Imprime=0,CicloLibre=0,Pulsos=0,j=0,codigoUsuario=0,codigoUsuarioant=0; 
.................... signed int8 G1=0,G2=0,sg1=0,sg2=0; 
.................... const char Texto[12][20]={"CALENTAMIENTO","NO ENVUELTOS 134","NO ENVUELTOS 121","ENVUELTOS 134","ENVUELTOS 121","ENVUELTO DOBLE 1", 
.................... "ENVUELTO DOBLE 2","PRION","BOWIE & DICK","TEST DE FUGAS","TEST DE COMPONENTES","HORA Y FECHA"}; 
.................... char usuario[20]; 
.................... float TCiclos[7]; 
.................... int16 PcCiclos[7]; 
.................... int16 PpcCiclos[7]; 
.................... int8 horaCiclos[7]; 
.................... int8 minutoCiclos[7]; 
.................... int8 ACiclos[7]; 
.................... int8 diaCiclos=0,mesCiclos=0,yearCiclos=0,usuarioCiclos=0,cicloCiclos=0; 
.................... short estados[30]={0,0,0,0,0,0,0,0,0,0,0,0,0,0,0,0,0,0,0,0,0,0,0,0,0,0,0,0,0,0}; 
....................  
.................... typedef struct{ 
....................    int8 Password[4]; 
.................... }Claves; 
....................  
.................... typedef struct{ 
....................    int8 Temperatura; 
....................    int8 Minutoest; 
....................    int8 Segundoest; 
....................    int8 Minutosec; 
....................    int8 Segundosec; 
....................    int8 PulsosVacio; 
....................    int8 NivelVacio; 
....................    int8 NivelDesfogue; 
.................... }Personalizado; 
....................  
.................... typedef struct{ 
....................    float BN; 
....................    float AN; 
....................    float V0; 
....................    float Pt; 
....................    float RPT100; 
....................    int8 l; 
....................    int8 h; 
....................    float Prom; 
....................    float Temperature; 
....................    int8 Ajuste; 
....................    int8 Ajusten; 
....................    float promedio[80]; 
....................    float Gain; 
.................... }SensorPT100; 
....................  
.................... SensorPT100 Sensor[2]; 
.................... Personalizado CiclosPersonalizados[20]; 
.................... Claves Clave[10]; 
....................  
.................... #include "Funciones.h" 
....................  
.................... void BorraBuffer(void){ 
.................... RX_Buffer[0]=0; 
*
04FAA:  CLRF   38
.................... RX_Buffer[1]=0; 
04FAC:  CLRF   39
.................... RX_Buffer[2]=0; 
04FAE:  CLRF   3A
.................... RX_Buffer[3]=0; 
04FB0:  CLRF   3B
.................... RX_Buffer[4]=0; 
04FB2:  CLRF   3C
.................... RX_Buffer[5]=0; 
04FB4:  CLRF   3D
.................... RX_Buffer[6]=0; 
04FB6:  CLRF   3E
.................... RX_Buffer[7]=0; 
04FB8:  CLRF   3F
.................... RX_Buffer[8]=0; 
04FBA:  CLRF   40
.................... RX_Buffer[9]=0; 
04FBC:  CLRF   41
....................  
.................... RX_Buffer2[0]=0; 
04FBE:  CLRF   43
.................... RX_Buffer2[1]=0; 
04FC0:  CLRF   44
.................... RX_Buffer2[2]=0; 
04FC2:  CLRF   45
.................... RX_Buffer2[3]=0; 
04FC4:  CLRF   46
.................... RX_Buffer2[4]=0; 
04FC6:  CLRF   47
.................... RX_Buffer2[5]=0; 
04FC8:  CLRF   48
.................... RX_Buffer2[6]=0; 
04FCA:  CLRF   49
.................... RX_Buffer2[7]=0; 
04FCC:  CLRF   4A
.................... RX_Buffer2[8]=0; 
04FCE:  CLRF   4B
.................... RX_Buffer2[9]=0; 
04FD0:  CLRF   4C
04FD2:  GOTO   70C8 (RETURN)
.................... } 
....................  
.................... void SendDataDisplay(void){ 
.................... delay_us(10); 
*
03C34:  MOVLW  10
03C36:  MOVWF  00
03C38:  DECFSZ 00,F
03C3A:  BRA    3C38
03C3C:  NOP   
.................... putc(0xFF); 
03C3E:  MOVLW  FF
03C40:  RCALL  3C2C
.................... delay_us(10); 
03C42:  MOVLW  10
03C44:  MOVWF  00
03C46:  DECFSZ 00,F
03C48:  BRA    3C46
03C4A:  NOP   
.................... putc(0xFF); 
03C4C:  MOVLW  FF
03C4E:  RCALL  3C2C
.................... delay_us(10); 
03C50:  MOVLW  10
03C52:  MOVWF  00
03C54:  DECFSZ 00,F
03C56:  BRA    3C54
03C58:  NOP   
.................... putc(0xFF); 
03C5A:  MOVLW  FF
03C5C:  RCALL  3C2C
.................... delay_us(10); 
03C5E:  MOVLW  10
03C60:  MOVWF  00
03C62:  DECFSZ 00,F
03C64:  BRA    3C62
03C66:  NOP   
03C68:  RETURN 0
.................... } 
....................  
.................... short esBisiesto(int8 year) { 
....................      return ((year % 4 == 0 && year % 100 != 0) || year % 400 == 0); 
*
054A8:  MOVLB  6
054AA:  MOVF   x2C,W
054AC:  ANDLW  03
054AE:  BNZ   54C2
054B0:  MOVFF  62C,635
054B4:  MOVLW  64
054B6:  MOVWF  x36
054B8:  MOVLB  0
054BA:  RCALL  502E
054BC:  MOVF   00,F
054BE:  BNZ   54F0
054C0:  MOVLB  6
054C2:  CLRF   x31
054C4:  MOVFF  62C,630
054C8:  MOVLW  01
054CA:  MOVWF  x33
054CC:  MOVLW  90
054CE:  MOVWF  x32
054D0:  MOVLB  0
054D2:  RCALL  5462
054D4:  MOVFF  00,62D
054D8:  MOVLB  6
054DA:  MOVFF  03,62E
054DE:  MOVF   x2D,F
054E0:  BNZ   54EC
054E2:  MOVF   x2E,F
054E4:  BTFSS  FD8.2
054E6:  BRA    54EC
054E8:  MOVLB  0
054EA:  BRA    54F0
054EC:  MOVLW  00
054EE:  BRA    54F4
054F0:  MOVLW  01
054F2:  MOVLB  6
054F4:  MOVWF  01
054F6:  MOVLB  0
054F8:  RETURN 0
.................... } 
....................  
.................... void LimitaDia(){ 
....................    if(MesTx>12) 
*
055E6:  MOVLB  2
055E8:  MOVF   x1F,W
055EA:  SUBLW  0C
055EC:  BC    55F2
....................       MesTx=10; 
055EE:  MOVLW  0A
055F0:  MOVWF  x1F
....................    if(DiaTx>31) 
055F2:  MOVF   x20,W
055F4:  SUBLW  1F
055F6:  BC    55FC
....................       DiaTx=16; 
055F8:  MOVLW  10
055FA:  MOVWF  x20
....................    if(YearTx>99) 
055FC:  MOVF   x1E,W
055FE:  SUBLW  63
05600:  BC    5606
....................       YearTx=18;    
05602:  MOVLW  12
05604:  MOVWF  x1E
....................    if(HoraTx>24) 
05606:  MOVF   x21,W
05608:  SUBLW  18
0560A:  BC    5610
....................       HoraTx=11;       
0560C:  MOVLW  0B
0560E:  MOVWF  x21
....................    if(MinutoTx>59) 
05610:  MOVF   x22,W
05612:  SUBLW  3B
05614:  BC    561A
....................       MinutoTx=30;       
05616:  MOVLW  1E
05618:  MOVWF  x22
....................     
....................       if(MesTx==2){ 
0561A:  MOVF   x1F,W
0561C:  SUBLW  02
0561E:  BNZ   564A
....................          if(esBisiesto(YearTx)){ 
05620:  MOVFF  21E,62C
05624:  MOVLB  0
05626:  RCALL  54A8
05628:  MOVF   01,F
0562A:  BZ    563C
....................             if(DiaTx>29){ 
0562C:  MOVLB  2
0562E:  MOVF   x20,W
05630:  SUBLW  1D
05632:  BC    5638
....................                DiaTx=29; 
05634:  MOVLW  1D
05636:  MOVWF  x20
....................                //glcd_fillScreen(OFF); 
....................             } 
....................          }else{ 
05638:  BRA    5648
0563A:  MOVLB  0
....................             if(DiaTx>28){ 
0563C:  MOVLB  2
0563E:  MOVF   x20,W
05640:  SUBLW  1C
05642:  BC    5648
....................                DiaTx=28; 
05644:  MOVLW  1C
05646:  MOVWF  x20
....................                //glcd_fillScreen(OFF); 
....................             } 
....................          } 
....................       }else{ 
05648:  BRA    5674
....................          if(MesTx<=7){ 
0564A:  MOVF   x1F,W
0564C:  SUBLW  07
0564E:  BNC   5662
....................             if(MesTx % 2 ==0){ 
05650:  MOVF   x1F,W
05652:  ANDLW  01
05654:  BNZ   5660
....................                if(DiaTx>30){ 
05656:  MOVF   x20,W
05658:  SUBLW  1E
0565A:  BC    5660
....................                   DiaTx=30;  
0565C:  MOVLW  1E
0565E:  MOVWF  x20
....................                   //glcd_fillScreen(OFF); 
....................                } 
....................             } 
....................          }else{ 
05660:  BRA    5674
....................             if(MesTx % 2 ==1){ 
05662:  MOVF   x1F,W
05664:  ANDLW  01
05666:  SUBLW  01
05668:  BNZ   5674
....................                if(DiaTx>30){ 
0566A:  MOVF   x20,W
0566C:  SUBLW  1E
0566E:  BC    5674
....................                   DiaTx=30;  
05670:  MOVLW  1E
05672:  MOVWF  x20
....................                   //glcd_fillScreen(OFF); 
....................                } 
....................             } 
....................          } 
....................       } 
05674:  MOVLB  0
05676:  GOTO   98CA (RETURN)
.................... } 
....................  
.................... // Funcion para conversor analogo-digital 
.................... float sensores(int x){ 
.................... float y;set_adc_channel(x);delay_ms(1);y=read_adc();return (y); 
*
03D88:  MOVLB  6
03D8A:  RLCF   x30,W
03D8C:  MOVWF  00
03D8E:  RLCF   00,F
03D90:  MOVLW  FC
03D92:  ANDWF  00,F
03D94:  MOVFF  00,01
03D98:  MOVF   FC2,W
03D9A:  ANDLW  C3
03D9C:  IORWF  00,W
03D9E:  MOVWF  FC2
03DA0:  MOVLW  01
03DA2:  MOVWF  x35
03DA4:  MOVLB  0
03DA6:  CALL   1EDC
03DAA:  BSF    FC2.1
03DAC:  BTFSC  FC2.1
03DAE:  BRA    3DAC
03DB0:  MOVFF  FC4,63F
03DB4:  MOVFF  FC3,63E
03DB8:  MOVLB  0
03DBA:  CALL   1EA6
03DBE:  MOVFF  03,634
03DC2:  MOVFF  02,633
03DC6:  MOVFF  01,632
03DCA:  MOVFF  00,631
03DCE:  MOVFF  631,00
03DD2:  MOVFF  632,01
03DD6:  MOVFF  633,02
03DDA:  MOVFF  634,03
03DDE:  RETURN 0
.................... } 
....................  
.................... float LeerPT100(int8 canal,int media) 
.................... { 
....................    Prom=0.0; 
03DE0:  MOVLB  1
03DE2:  CLRF   x96
03DE4:  CLRF   x95
03DE6:  CLRF   x94
03DE8:  CLRF   x93
....................    Sensor[canal].V0 = sensores(canal);   //Lectura de Divisor de Voltaje de PT100 con resistencia de 6.18k (+-2%) 
03DEA:  MOVLB  6
03DEC:  CLRF   x35
03DEE:  MOVFF  62C,634
03DF2:  MOVLW  01
03DF4:  MOVWF  x37
03DF6:  MOVLW  64
03DF8:  MOVWF  x36
03DFA:  MOVLB  0
03DFC:  CALL   234E
03E00:  MOVFF  01,62E
03E04:  MOVLW  08
03E06:  MOVLB  6
03E08:  ADDWF  01,W
03E0A:  MOVWF  01
03E0C:  MOVLW  00
03E0E:  ADDWFC 02,W
03E10:  MOVWF  03
03E12:  MOVF   01,W
03E14:  ADDLW  9A
03E16:  MOVWF  01
03E18:  MOVLW  02
03E1A:  ADDWFC 03,F
03E1C:  MOVFF  01,62E
03E20:  MOVFF  03,62F
03E24:  MOVFF  62C,630
03E28:  MOVLB  0
03E2A:  RCALL  3D88
03E2C:  MOVFF  62F,FEA
03E30:  MOVFF  62E,FE9
03E34:  MOVFF  00,FEF
03E38:  MOVFF  01,FEC
03E3C:  MOVFF  02,FEC
03E40:  MOVFF  03,FEC
....................    Sensor[canal].V0 = Sensor[canal].V0/Sensor[canal].Gain; // Se elimina la ganancia 
03E44:  MOVLB  6
03E46:  CLRF   x35
03E48:  MOVFF  62C,634
03E4C:  MOVLW  01
03E4E:  MOVWF  x37
03E50:  MOVLW  64
03E52:  MOVWF  x36
03E54:  MOVLB  0
03E56:  CALL   234E
03E5A:  MOVFF  01,62E
03E5E:  MOVLW  08
03E60:  MOVLB  6
03E62:  ADDWF  01,W
03E64:  MOVWF  01
03E66:  MOVLW  00
03E68:  ADDWFC 02,W
03E6A:  MOVWF  03
03E6C:  MOVF   01,W
03E6E:  ADDLW  9A
03E70:  MOVWF  01
03E72:  MOVLW  02
03E74:  ADDWFC 03,F
03E76:  MOVFF  01,62E
03E7A:  MOVFF  03,62F
03E7E:  CLRF   x35
03E80:  MOVFF  62C,634
03E84:  MOVLW  01
03E86:  MOVWF  x37
03E88:  MOVLW  64
03E8A:  MOVWF  x36
03E8C:  MOVLB  0
03E8E:  CALL   234E
03E92:  MOVFF  01,630
03E96:  MOVLW  08
03E98:  MOVLB  6
03E9A:  ADDWF  01,W
03E9C:  MOVWF  01
03E9E:  MOVLW  00
03EA0:  ADDWFC 02,W
03EA2:  MOVWF  03
03EA4:  MOVF   01,W
03EA6:  ADDLW  9A
03EA8:  MOVWF  FE9
03EAA:  MOVLW  02
03EAC:  ADDWFC 03,W
03EAE:  MOVWF  FEA
03EB0:  MOVFF  FEF,630
03EB4:  MOVFF  FEC,631
03EB8:  MOVFF  FEC,632
03EBC:  MOVFF  FEC,633
03EC0:  CLRF   x35
03EC2:  MOVFF  62C,634
03EC6:  MOVLW  01
03EC8:  MOVWF  x37
03ECA:  MOVLW  64
03ECC:  MOVWF  x36
03ECE:  MOVLB  0
03ED0:  CALL   234E
03ED4:  MOVFF  02,635
03ED8:  MOVFF  01,634
03EDC:  MOVLW  60
03EDE:  MOVLB  6
03EE0:  ADDWF  01,W
03EE2:  MOVWF  01
03EE4:  MOVLW  01
03EE6:  ADDWFC 02,W
03EE8:  MOVWF  03
03EEA:  MOVF   01,W
03EEC:  ADDLW  9A
03EEE:  MOVWF  FE9
03EF0:  MOVLW  02
03EF2:  ADDWFC 03,W
03EF4:  MOVWF  FEA
03EF6:  MOVFF  FEF,63C
03EFA:  MOVFF  FEC,01
03EFE:  MOVFF  FEC,02
03F02:  MOVFF  FEC,03
03F06:  MOVFF  633,63B
03F0A:  MOVFF  632,63A
03F0E:  MOVFF  631,639
03F12:  MOVFF  630,638
03F16:  MOVFF  03,63F
03F1A:  MOVFF  02,63E
03F1E:  MOVFF  01,63D
03F22:  MOVLB  0
03F24:  CALL   1F04
03F28:  MOVFF  62F,FEA
03F2C:  MOVFF  62E,FE9
03F30:  MOVFF  00,FEF
03F34:  MOVFF  01,FEC
03F38:  MOVFF  02,FEC
03F3C:  MOVFF  03,FEC
....................    Sensor[canal].BN=(Sensor[canal].V0*(R8+R9))+(1023*R9); 
03F40:  MOVLB  6
03F42:  CLRF   x35
03F44:  MOVFF  62C,634
03F48:  MOVLW  01
03F4A:  MOVWF  x37
03F4C:  MOVLW  64
03F4E:  MOVWF  x36
03F50:  MOVLB  0
03F52:  CALL   234E
03F56:  MOVFF  02,62F
03F5A:  MOVFF  01,62E
03F5E:  MOVLW  9A
03F60:  MOVLB  6
03F62:  ADDWF  01,W
03F64:  MOVWF  01
03F66:  MOVLW  02
03F68:  ADDWFC 02,W
03F6A:  MOVWF  03
03F6C:  MOVFF  01,630
03F70:  MOVWF  x31
03F72:  CLRF   x35
03F74:  MOVFF  62C,634
03F78:  MOVLW  01
03F7A:  MOVWF  x37
03F7C:  MOVLW  64
03F7E:  MOVWF  x36
03F80:  MOVLB  0
03F82:  CALL   234E
03F86:  MOVFF  01,632
03F8A:  MOVLW  08
03F8C:  MOVLB  6
03F8E:  ADDWF  01,W
03F90:  MOVWF  01
03F92:  MOVLW  00
03F94:  ADDWFC 02,W
03F96:  MOVWF  03
03F98:  MOVF   01,W
03F9A:  ADDLW  9A
03F9C:  MOVWF  FE9
03F9E:  MOVLW  02
03FA0:  ADDWFC 03,W
03FA2:  MOVWF  FEA
03FA4:  MOVFF  FEF,632
03FA8:  MOVFF  FEC,633
03FAC:  MOVFF  FEC,634
03FB0:  MOVFF  FEC,635
03FB4:  MOVFF  FEA,637
03FB8:  MOVFF  FE9,636
03FBC:  BCF    FD8.1
03FBE:  MOVFF  158,641
03FC2:  MOVFF  157,640
03FC6:  MOVFF  156,63F
03FCA:  MOVFF  155,63E
03FCE:  MOVFF  15C,645
03FD2:  MOVFF  15B,644
03FD6:  MOVFF  15A,643
03FDA:  MOVFF  159,642
03FDE:  MOVLB  0
03FE0:  CALL   2062
03FE4:  MOVFF  637,FEA
03FE8:  MOVFF  636,FE9
03FEC:  MOVFF  635,645
03FF0:  MOVFF  634,644
03FF4:  MOVFF  633,643
03FF8:  MOVFF  632,642
03FFC:  MOVFF  03,649
04000:  MOVFF  02,648
04004:  MOVFF  01,647
04008:  MOVFF  00,646
0400C:  RCALL  3C92
0400E:  MOVFF  03,635
04012:  MOVFF  02,634
04016:  MOVFF  01,633
0401A:  MOVFF  00,632
0401E:  MOVLB  6
04020:  CLRF   x45
04022:  MOVLW  C0
04024:  MOVWF  x44
04026:  MOVLW  7F
04028:  MOVWF  x43
0402A:  MOVLW  88
0402C:  MOVWF  x42
0402E:  MOVFF  15C,649
04032:  MOVFF  15B,648
04036:  MOVFF  15A,647
0403A:  MOVFF  159,646
0403E:  MOVLB  0
04040:  RCALL  3C92
04042:  BCF    FD8.1
04044:  MOVFF  635,641
04048:  MOVFF  634,640
0404C:  MOVFF  633,63F
04050:  MOVFF  632,63E
04054:  MOVFF  03,645
04058:  MOVFF  02,644
0405C:  MOVFF  01,643
04060:  MOVFF  00,642
04064:  CALL   2062
04068:  MOVFF  631,FEA
0406C:  MOVFF  630,FE9
04070:  MOVFF  00,FEF
04074:  MOVFF  01,FEC
04078:  MOVFF  02,FEC
0407C:  MOVFF  03,FEC
....................    Sensor[canal].Pt=(R10/((AN/Sensor[canal].BN)-1))-R7; 
04080:  MOVLB  6
04082:  CLRF   x35
04084:  MOVFF  62C,634
04088:  MOVLW  01
0408A:  MOVWF  x37
0408C:  MOVLW  64
0408E:  MOVWF  x36
04090:  MOVLB  0
04092:  CALL   234E
04096:  MOVFF  01,62E
0409A:  MOVLW  0C
0409C:  MOVLB  6
0409E:  ADDWF  01,W
040A0:  MOVWF  01
040A2:  MOVLW  00
040A4:  ADDWFC 02,W
040A6:  MOVWF  03
040A8:  MOVF   01,W
040AA:  ADDLW  9A
040AC:  MOVWF  01
040AE:  MOVLW  02
040B0:  ADDWFC 03,F
040B2:  MOVFF  01,62E
040B6:  MOVFF  03,62F
040BA:  CLRF   x35
040BC:  MOVFF  62C,634
040C0:  MOVLW  01
040C2:  MOVWF  x37
040C4:  MOVLW  64
040C6:  MOVWF  x36
040C8:  MOVLB  0
040CA:  CALL   234E
040CE:  MOVFF  02,631
040D2:  MOVFF  01,630
040D6:  MOVLW  9A
040D8:  MOVLB  6
040DA:  ADDWF  01,W
040DC:  MOVWF  FE9
040DE:  MOVLW  02
040E0:  ADDWFC 02,W
040E2:  MOVWF  FEA
040E4:  MOVFF  FEF,63C
040E8:  MOVFF  FEC,01
040EC:  MOVFF  FEC,02
040F0:  MOVFF  FEC,03
040F4:  MOVFF  164,63B
040F8:  MOVFF  163,63A
040FC:  MOVFF  162,639
04100:  MOVFF  161,638
04104:  MOVFF  03,63F
04108:  MOVFF  02,63E
0410C:  MOVFF  01,63D
04110:  MOVLB  0
04112:  CALL   1F04
04116:  MOVFF  03,635
0411A:  MOVFF  02,634
0411E:  MOVFF  01,633
04122:  MOVFF  00,632
04126:  MOVFF  FEA,637
0412A:  MOVFF  FE9,636
0412E:  BSF    FD8.1
04130:  MOVFF  03,641
04134:  MOVFF  02,640
04138:  MOVFF  01,63F
0413C:  MOVFF  00,63E
04140:  MOVLB  6
04142:  CLRF   x45
04144:  CLRF   x44
04146:  CLRF   x43
04148:  MOVLW  7F
0414A:  MOVWF  x42
0414C:  MOVLB  0
0414E:  CALL   2062
04152:  MOVFF  637,FEA
04156:  MOVFF  636,FE9
0415A:  MOVFF  160,63B
0415E:  MOVFF  15F,63A
04162:  MOVFF  15E,639
04166:  MOVFF  15D,638
0416A:  MOVFF  03,63F
0416E:  MOVFF  02,63E
04172:  MOVFF  01,63D
04176:  MOVFF  00,63C
0417A:  CALL   1F04
0417E:  MOVFF  03,635
04182:  MOVFF  02,634
04186:  MOVFF  01,633
0418A:  MOVFF  00,632
0418E:  BSF    FD8.1
04190:  MOVFF  03,641
04194:  MOVFF  02,640
04198:  MOVFF  01,63F
0419C:  MOVFF  00,63E
041A0:  MOVFF  154,645
041A4:  MOVFF  153,644
041A8:  MOVFF  152,643
041AC:  MOVFF  151,642
041B0:  CALL   2062
041B4:  MOVFF  62F,FEA
041B8:  MOVFF  62E,FE9
041BC:  MOVFF  00,FEF
041C0:  MOVFF  01,FEC
041C4:  MOVFF  02,FEC
041C8:  MOVFF  03,FEC
....................    Sensor[canal].Pt=Sensor[canal].Pt-Sensor[canal].RPT100; //Ajuste de impedancia de cableado de PT100    
041CC:  MOVLB  6
041CE:  CLRF   x35
041D0:  MOVFF  62C,634
041D4:  MOVLW  01
041D6:  MOVWF  x37
041D8:  MOVLW  64
041DA:  MOVWF  x36
041DC:  MOVLB  0
041DE:  CALL   234E
041E2:  MOVFF  01,62E
041E6:  MOVLW  0C
041E8:  MOVLB  6
041EA:  ADDWF  01,W
041EC:  MOVWF  01
041EE:  MOVLW  00
041F0:  ADDWFC 02,W
041F2:  MOVWF  03
041F4:  MOVF   01,W
041F6:  ADDLW  9A
041F8:  MOVWF  01
041FA:  MOVLW  02
041FC:  ADDWFC 03,F
041FE:  MOVFF  01,62E
04202:  MOVFF  03,62F
04206:  CLRF   x35
04208:  MOVFF  62C,634
0420C:  MOVLW  01
0420E:  MOVWF  x37
04210:  MOVLW  64
04212:  MOVWF  x36
04214:  MOVLB  0
04216:  CALL   234E
0421A:  MOVFF  01,630
0421E:  MOVLW  0C
04220:  MOVLB  6
04222:  ADDWF  01,W
04224:  MOVWF  01
04226:  MOVLW  00
04228:  ADDWFC 02,W
0422A:  MOVWF  03
0422C:  MOVF   01,W
0422E:  ADDLW  9A
04230:  MOVWF  FE9
04232:  MOVLW  02
04234:  ADDWFC 03,W
04236:  MOVWF  FEA
04238:  MOVFF  FEF,630
0423C:  MOVFF  FEC,631
04240:  MOVFF  FEC,632
04244:  MOVFF  FEC,633
04248:  CLRF   x35
0424A:  MOVFF  62C,634
0424E:  MOVLW  01
04250:  MOVWF  x37
04252:  MOVLW  64
04254:  MOVWF  x36
04256:  MOVLB  0
04258:  CALL   234E
0425C:  MOVFF  02,635
04260:  MOVFF  01,634
04264:  MOVLW  10
04266:  MOVLB  6
04268:  ADDWF  01,W
0426A:  MOVWF  01
0426C:  MOVLW  00
0426E:  ADDWFC 02,W
04270:  MOVWF  03
04272:  MOVF   01,W
04274:  ADDLW  9A
04276:  MOVWF  FE9
04278:  MOVLW  02
0427A:  ADDWFC 03,W
0427C:  MOVWF  FEA
0427E:  MOVFF  FEF,642
04282:  MOVFF  FEC,01
04286:  MOVFF  FEC,02
0428A:  MOVFF  FEC,03
0428E:  BSF    FD8.1
04290:  MOVFF  633,641
04294:  MOVFF  632,640
04298:  MOVFF  631,63F
0429C:  MOVFF  630,63E
042A0:  MOVFF  03,645
042A4:  MOVFF  02,644
042A8:  MOVFF  01,643
042AC:  MOVLB  0
042AE:  CALL   2062
042B2:  MOVFF  62F,FEA
042B6:  MOVFF  62E,FE9
042BA:  MOVFF  00,FEF
042BE:  MOVFF  01,FEC
042C2:  MOVFF  02,FEC
042C6:  MOVFF  03,FEC
....................              
....................    if(Sensor[canal].l>(media-1)) 
042CA:  MOVLB  6
042CC:  CLRF   x35
042CE:  MOVFF  62C,634
042D2:  MOVLW  01
042D4:  MOVWF  x37
042D6:  MOVLW  64
042D8:  MOVWF  x36
042DA:  MOVLB  0
042DC:  CALL   234E
042E0:  MOVFF  02,62F
042E4:  MOVFF  01,62E
042E8:  MOVLW  14
042EA:  MOVLB  6
042EC:  ADDWF  01,W
042EE:  MOVWF  01
042F0:  MOVLW  00
042F2:  ADDWFC 02,W
042F4:  MOVWF  03
042F6:  MOVF   01,W
042F8:  ADDLW  9A
042FA:  MOVWF  FE9
042FC:  MOVLW  02
042FE:  ADDWFC 03,W
04300:  MOVWF  FEA
04302:  MOVFF  FEF,62E
04306:  MOVLW  01
04308:  SUBWF  x2D,W
0430A:  SUBWF  x2E,W
0430C:  BZ    4344
0430E:  BNC   4344
....................    {Sensor[canal].l=0;} 
04310:  CLRF   x35
04312:  MOVFF  62C,634
04316:  MOVLW  01
04318:  MOVWF  x37
0431A:  MOVLW  64
0431C:  MOVWF  x36
0431E:  MOVLB  0
04320:  CALL   234E
04324:  MOVFF  01,62E
04328:  MOVLW  14
0432A:  MOVLB  6
0432C:  ADDWF  01,W
0432E:  MOVWF  01
04330:  MOVLW  00
04332:  ADDWFC 02,W
04334:  MOVWF  03
04336:  MOVF   01,W
04338:  ADDLW  9A
0433A:  MOVWF  FE9
0433C:  MOVLW  02
0433E:  ADDWFC 03,W
04340:  MOVWF  FEA
04342:  CLRF   FEF
....................     
....................    Sensor[canal].promedio[Sensor[canal].l]=Sensor[canal].Pt;Sensor[canal].l++; 
04344:  CLRF   x35
04346:  MOVFF  62C,634
0434A:  MOVLW  01
0434C:  MOVWF  x37
0434E:  MOVLW  64
04350:  MOVWF  x36
04352:  MOVLB  0
04354:  CALL   234E
04358:  MOVFF  02,62F
0435C:  MOVFF  01,62E
04360:  MOVLW  20
04362:  MOVLB  6
04364:  ADDWF  x2E,F
04366:  MOVLW  00
04368:  ADDWFC x2F,F
0436A:  CLRF   x35
0436C:  MOVFF  62C,634
04370:  MOVLW  01
04372:  MOVWF  x37
04374:  MOVLW  64
04376:  MOVWF  x36
04378:  MOVLB  0
0437A:  CALL   234E
0437E:  MOVFF  02,631
04382:  MOVFF  01,630
04386:  MOVLW  14
04388:  MOVLB  6
0438A:  ADDWF  01,W
0438C:  MOVWF  01
0438E:  MOVLW  00
04390:  ADDWFC 02,W
04392:  MOVWF  03
04394:  MOVF   01,W
04396:  ADDLW  9A
04398:  MOVWF  FE9
0439A:  MOVLW  02
0439C:  ADDWFC 03,W
0439E:  MOVWF  FEA
043A0:  CLRF   x35
043A2:  MOVFF  FEF,634
043A6:  CLRF   x37
043A8:  MOVLW  04
043AA:  MOVWF  x36
043AC:  MOVLB  0
043AE:  CALL   234E
043B2:  MOVFF  02,03
043B6:  MOVF   01,W
043B8:  MOVLB  6
043BA:  ADDWF  x2E,W
043BC:  MOVWF  01
043BE:  MOVF   x2F,W
043C0:  ADDWFC 03,F
043C2:  MOVF   01,W
043C4:  ADDLW  9A
043C6:  MOVWF  01
043C8:  MOVLW  02
043CA:  ADDWFC 03,F
043CC:  MOVFF  01,62E
043D0:  MOVFF  03,62F
043D4:  CLRF   x35
043D6:  MOVFF  62C,634
043DA:  MOVLW  01
043DC:  MOVWF  x37
043DE:  MOVLW  64
043E0:  MOVWF  x36
043E2:  MOVLB  0
043E4:  CALL   234E
043E8:  MOVFF  02,631
043EC:  MOVFF  01,630
043F0:  MOVLW  0C
043F2:  MOVLB  6
043F4:  ADDWF  01,W
043F6:  MOVWF  01
043F8:  MOVLW  00
043FA:  ADDWFC 02,W
043FC:  MOVWF  03
043FE:  MOVF   01,W
04400:  ADDLW  9A
04402:  MOVWF  FE9
04404:  MOVLW  02
04406:  ADDWFC 03,W
04408:  MOVWF  FEA
0440A:  MOVFF  FEF,00
0440E:  MOVFF  FEC,01
04412:  MOVFF  FEC,02
04416:  MOVFF  FEC,03
0441A:  MOVFF  03,633
0441E:  MOVFF  02,632
04422:  MOVFF  01,631
04426:  MOVFF  00,630
0442A:  MOVFF  62F,FEA
0442E:  MOVFF  62E,FE9
04432:  MOVFF  00,FEF
04436:  MOVFF  01,FEC
0443A:  MOVFF  02,FEC
0443E:  MOVFF  03,FEC
04442:  CLRF   x35
04444:  MOVFF  62C,634
04448:  MOVLW  01
0444A:  MOVWF  x37
0444C:  MOVLW  64
0444E:  MOVWF  x36
04450:  MOVLB  0
04452:  CALL   234E
04456:  MOVFF  01,62E
0445A:  MOVLW  14
0445C:  MOVLB  6
0445E:  ADDWF  01,W
04460:  MOVWF  01
04462:  MOVLW  00
04464:  ADDWFC 02,W
04466:  MOVWF  03
04468:  MOVF   01,W
0446A:  ADDLW  9A
0446C:  MOVWF  FE9
0446E:  MOVLW  02
04470:  ADDWFC 03,W
04472:  MOVWF  FEA
04474:  INCF   FEF,F
....................           
....................    for(Sensor[canal].h=0;Sensor[canal].h<media;Sensor[canal].h++) 
04476:  CLRF   x35
04478:  MOVFF  62C,634
0447C:  MOVLW  01
0447E:  MOVWF  x37
04480:  MOVLW  64
04482:  MOVWF  x36
04484:  MOVLB  0
04486:  CALL   234E
0448A:  MOVFF  02,62F
0448E:  MOVFF  01,62E
04492:  MOVLW  15
04494:  MOVLB  6
04496:  ADDWF  01,W
04498:  MOVWF  01
0449A:  MOVLW  00
0449C:  ADDWFC 02,W
0449E:  MOVWF  03
044A0:  MOVF   01,W
044A2:  ADDLW  9A
044A4:  MOVWF  FE9
044A6:  MOVLW  02
044A8:  ADDWFC 03,W
044AA:  MOVWF  FEA
044AC:  CLRF   FEF
044AE:  CLRF   x35
044B0:  MOVFF  62C,634
044B4:  MOVLW  01
044B6:  MOVWF  x37
044B8:  MOVLW  64
044BA:  MOVWF  x36
044BC:  MOVLB  0
044BE:  CALL   234E
044C2:  MOVFF  02,62F
044C6:  MOVFF  01,62E
044CA:  MOVLW  15
044CC:  MOVLB  6
044CE:  ADDWF  01,W
044D0:  MOVWF  01
044D2:  MOVLW  00
044D4:  ADDWFC 02,W
044D6:  MOVWF  03
044D8:  MOVF   01,W
044DA:  ADDLW  9A
044DC:  MOVWF  FE9
044DE:  MOVLW  02
044E0:  ADDWFC 03,W
044E2:  MOVWF  FEA
044E4:  MOVF   x2D,W
044E6:  SUBWF  FEF,W
044E8:  BTFSC  FD8.0
044EA:  BRA    4606
....................    { 
....................       Prom+=Sensor[canal].promedio[Sensor[canal].h]; 
044EC:  CLRF   x35
044EE:  MOVFF  62C,634
044F2:  MOVLW  01
044F4:  MOVWF  x37
044F6:  MOVLW  64
044F8:  MOVWF  x36
044FA:  MOVLB  0
044FC:  CALL   234E
04500:  MOVFF  02,62F
04504:  MOVFF  01,62E
04508:  MOVLW  20
0450A:  MOVLB  6
0450C:  ADDWF  x2E,F
0450E:  MOVLW  00
04510:  ADDWFC x2F,F
04512:  CLRF   x35
04514:  MOVFF  62C,634
04518:  MOVLW  01
0451A:  MOVWF  x37
0451C:  MOVLW  64
0451E:  MOVWF  x36
04520:  MOVLB  0
04522:  CALL   234E
04526:  MOVFF  02,631
0452A:  MOVFF  01,630
0452E:  MOVLW  15
04530:  MOVLB  6
04532:  ADDWF  01,W
04534:  MOVWF  01
04536:  MOVLW  00
04538:  ADDWFC 02,W
0453A:  MOVWF  03
0453C:  MOVF   01,W
0453E:  ADDLW  9A
04540:  MOVWF  FE9
04542:  MOVLW  02
04544:  ADDWFC 03,W
04546:  MOVWF  FEA
04548:  CLRF   x35
0454A:  MOVFF  FEF,634
0454E:  CLRF   x37
04550:  MOVLW  04
04552:  MOVWF  x36
04554:  MOVLB  0
04556:  CALL   234E
0455A:  MOVFF  02,03
0455E:  MOVF   01,W
04560:  MOVLB  6
04562:  ADDWF  x2E,W
04564:  MOVWF  01
04566:  MOVF   x2F,W
04568:  ADDWFC 03,F
0456A:  MOVF   01,W
0456C:  ADDLW  9A
0456E:  MOVWF  FE9
04570:  MOVLW  02
04572:  ADDWFC 03,W
04574:  MOVWF  FEA
04576:  MOVFF  FEF,642
0457A:  MOVFF  FEC,01
0457E:  MOVFF  FEC,02
04582:  MOVFF  FEC,03
04586:  MOVFF  FEA,62F
0458A:  MOVFF  FE9,62E
0458E:  BCF    FD8.1
04590:  MOVFF  196,641
04594:  MOVFF  195,640
04598:  MOVFF  194,63F
0459C:  MOVFF  193,63E
045A0:  MOVFF  03,645
045A4:  MOVFF  02,644
045A8:  MOVFF  01,643
045AC:  MOVLB  0
045AE:  CALL   2062
045B2:  MOVFF  62F,FEA
045B6:  MOVFF  62E,FE9
045BA:  MOVFF  03,196
045BE:  MOVFF  02,195
045C2:  MOVFF  01,194
045C6:  MOVFF  00,193
045CA:  MOVLB  6
045CC:  CLRF   x35
045CE:  MOVFF  62C,634
045D2:  MOVLW  01
045D4:  MOVWF  x37
045D6:  MOVLW  64
045D8:  MOVWF  x36
045DA:  MOVLB  0
045DC:  CALL   234E
045E0:  MOVFF  02,62F
045E4:  MOVFF  01,62E
045E8:  MOVLW  15
045EA:  MOVLB  6
045EC:  ADDWF  01,W
045EE:  MOVWF  01
045F0:  MOVLW  00
045F2:  ADDWFC 02,W
045F4:  MOVWF  03
045F6:  MOVF   01,W
045F8:  ADDLW  9A
045FA:  MOVWF  FE9
045FC:  MOVLW  02
045FE:  ADDWFC 03,W
04600:  MOVWF  FEA
04602:  INCF   FEF,F
04604:  BRA    44AE
....................    }  
....................    Prom=Prom/media;    
04606:  CLRF   x3F
04608:  MOVFF  62D,63E
0460C:  MOVLB  0
0460E:  CALL   1EA6
04612:  MOVFF  196,63B
04616:  MOVFF  195,63A
0461A:  MOVFF  194,639
0461E:  MOVFF  193,638
04622:  MOVFF  03,63F
04626:  MOVFF  02,63E
0462A:  MOVFF  01,63D
0462E:  MOVFF  00,63C
04632:  CALL   1F04
04636:  MOVFF  03,196
0463A:  MOVFF  02,195
0463E:  MOVFF  01,194
04642:  MOVFF  00,193
....................    //Temperature=(Prom-100.0)/(0.385);  // Ecuacin determinada por linealizacin en Matlab. Revisar este polinomio.   
....................    Temperature=((Prom*Prom)*a)+(Prom*b)+c;  // Ecuacin determinada por linealizacin en Matlab. Revisar este polinomio. 
04646:  MOVFF  196,645
0464A:  MOVFF  195,644
0464E:  MOVFF  194,643
04652:  MOVFF  193,642
04656:  MOVFF  196,649
0465A:  MOVFF  195,648
0465E:  MOVFF  194,647
04662:  MOVFF  193,646
04666:  CALL   3C92
0466A:  MOVFF  03,631
0466E:  MOVFF  02,630
04672:  MOVFF  01,62F
04676:  MOVFF  00,62E
0467A:  MOVFF  03,645
0467E:  MOVFF  02,644
04682:  MOVFF  01,643
04686:  MOVFF  00,642
0468A:  MOVFF  1C6,649
0468E:  MOVFF  1C5,648
04692:  MOVFF  1C4,647
04696:  MOVFF  1C3,646
0469A:  CALL   3C92
0469E:  MOVFF  03,631
046A2:  MOVFF  02,630
046A6:  MOVFF  01,62F
046AA:  MOVFF  00,62E
046AE:  MOVFF  196,645
046B2:  MOVFF  195,644
046B6:  MOVFF  194,643
046BA:  MOVFF  193,642
046BE:  MOVFF  1CA,649
046C2:  MOVFF  1C9,648
046C6:  MOVFF  1C8,647
046CA:  MOVFF  1C7,646
046CE:  CALL   3C92
046D2:  BCF    FD8.1
046D4:  MOVFF  631,641
046D8:  MOVFF  630,640
046DC:  MOVFF  62F,63F
046E0:  MOVFF  62E,63E
046E4:  MOVFF  03,645
046E8:  MOVFF  02,644
046EC:  MOVFF  01,643
046F0:  MOVFF  00,642
046F4:  CALL   2062
046F8:  MOVFF  03,631
046FC:  MOVFF  02,630
04700:  MOVFF  01,62F
04704:  MOVFF  00,62E
04708:  BCF    FD8.1
0470A:  MOVFF  03,641
0470E:  MOVFF  02,640
04712:  MOVFF  01,63F
04716:  MOVFF  00,63E
0471A:  MOVFF  1CE,645
0471E:  MOVFF  1CD,644
04722:  MOVFF  1CC,643
04726:  MOVFF  1CB,642
0472A:  CALL   2062
0472E:  MOVFF  03,19A
04732:  MOVFF  02,199
04736:  MOVFF  01,198
0473A:  MOVFF  00,197
....................    Temperature+=((float)Sensor[canal].Ajuste-(float)Sensor[canal].Ajusten); 
0473E:  MOVLB  6
04740:  CLRF   x35
04742:  MOVFF  62C,634
04746:  MOVLW  01
04748:  MOVWF  x37
0474A:  MOVLW  64
0474C:  MOVWF  x36
0474E:  MOVLB  0
04750:  CALL   234E
04754:  MOVFF  02,62F
04758:  MOVFF  01,62E
0475C:  MOVLW  1E
0475E:  MOVLB  6
04760:  ADDWF  01,W
04762:  MOVWF  01
04764:  MOVLW  00
04766:  ADDWFC 02,W
04768:  MOVWF  03
0476A:  MOVF   01,W
0476C:  ADDLW  9A
0476E:  MOVWF  FE9
04770:  MOVLW  02
04772:  ADDWFC 03,W
04774:  MOVWF  FEA
04776:  MOVF   FEF,W
04778:  CLRF   x3F
0477A:  MOVWF  x3E
0477C:  MOVLB  0
0477E:  CALL   1EA6
04782:  MOVFF  03,631
04786:  MOVFF  02,630
0478A:  MOVFF  01,62F
0478E:  MOVFF  00,62E
04792:  MOVLB  6
04794:  CLRF   x35
04796:  MOVFF  62C,634
0479A:  MOVLW  01
0479C:  MOVWF  x37
0479E:  MOVLW  64
047A0:  MOVWF  x36
047A2:  MOVLB  0
047A4:  CALL   234E
047A8:  MOVFF  02,633
047AC:  MOVFF  01,632
047B0:  MOVLW  1F
047B2:  MOVLB  6
047B4:  ADDWF  01,W
047B6:  MOVWF  01
047B8:  MOVLW  00
047BA:  ADDWFC 02,W
047BC:  MOVWF  03
047BE:  MOVF   01,W
047C0:  ADDLW  9A
047C2:  MOVWF  FE9
047C4:  MOVLW  02
047C6:  ADDWFC 03,W
047C8:  MOVWF  FEA
047CA:  MOVF   FEF,W
047CC:  CLRF   x3F
047CE:  MOVWF  x3E
047D0:  MOVLB  0
047D2:  CALL   1EA6
047D6:  MOVFF  FEA,633
047DA:  MOVFF  FE9,632
047DE:  BSF    FD8.1
047E0:  MOVFF  631,641
047E4:  MOVFF  630,640
047E8:  MOVFF  62F,63F
047EC:  MOVFF  62E,63E
047F0:  MOVFF  03,645
047F4:  MOVFF  02,644
047F8:  MOVFF  01,643
047FC:  MOVFF  00,642
04800:  CALL   2062
04804:  MOVFF  633,FEA
04808:  MOVFF  632,FE9
0480C:  MOVFF  FEA,62F
04810:  MOVFF  FE9,62E
04814:  BCF    FD8.1
04816:  MOVFF  19A,641
0481A:  MOVFF  199,640
0481E:  MOVFF  198,63F
04822:  MOVFF  197,63E
04826:  MOVFF  03,645
0482A:  MOVFF  02,644
0482E:  MOVFF  01,643
04832:  MOVFF  00,642
04836:  CALL   2062
0483A:  MOVFF  62F,FEA
0483E:  MOVFF  62E,FE9
04842:  MOVFF  03,19A
04846:  MOVFF  02,199
0484A:  MOVFF  01,198
0484E:  MOVFF  00,197
....................     
....................    return Temperature; 
04852:  MOVFF  197,00
04856:  MOVFF  198,01
0485A:  MOVFF  199,02
0485E:  MOVFF  19A,03
04862:  RETURN 0
.................... } 
....................  
.................... float Leer_Sensor_Presion_Camara(int media){ 
....................    promediopresion=0.0; 
*
04AB2:  MOVLB  1
04AB4:  CLRF   x74
04AB6:  CLRF   x73
04AB8:  CLRF   x72
04ABA:  CLRF   x71
....................    V1 = sensores(2); 
04ABC:  MOVLW  02
04ABE:  MOVLB  6
04AC0:  MOVWF  x30
04AC2:  MOVLB  0
04AC4:  CALL   3D88
04AC8:  MOVFF  03,1AE
04ACC:  MOVFF  02,1AD
04AD0:  MOVFF  01,1AC
04AD4:  MOVFF  00,1AB
....................    Presion=(0.06364*V1)-12.5; //R=240, V=5; Sensor de Presion Absoluta de 0-50PSIA 
04AD8:  MOVLW  B0
04ADA:  MOVLB  6
04ADC:  MOVWF  x45
04ADE:  MOVLW  55
04AE0:  MOVWF  x44
04AE2:  MOVLW  02
04AE4:  MOVWF  x43
04AE6:  MOVLW  7B
04AE8:  MOVWF  x42
04AEA:  MOVFF  1AE,649
04AEE:  MOVFF  1AD,648
04AF2:  MOVFF  1AC,647
04AF6:  MOVFF  1AB,646
04AFA:  MOVLB  0
04AFC:  CALL   3C92
04B00:  MOVFF  03,630
04B04:  MOVFF  02,62F
04B08:  MOVFF  01,62E
04B0C:  MOVFF  00,62D
04B10:  BSF    FD8.1
04B12:  MOVFF  03,641
04B16:  MOVFF  02,640
04B1A:  MOVFF  01,63F
04B1E:  MOVFF  00,63E
04B22:  MOVLB  6
04B24:  CLRF   x45
04B26:  CLRF   x44
04B28:  MOVLW  48
04B2A:  MOVWF  x43
04B2C:  MOVLW  82
04B2E:  MOVWF  x42
04B30:  MOVLB  0
04B32:  CALL   2062
04B36:  MOVFF  03,1B2
04B3A:  MOVFF  02,1B1
04B3E:  MOVFF  01,1B0
04B42:  MOVFF  00,1AF
....................    Presion=Presion*6.89476; 
04B46:  MOVFF  1B2,645
04B4A:  MOVFF  1B1,644
04B4E:  MOVFF  1B0,643
04B52:  MOVFF  1AF,642
04B56:  MOVLW  E0
04B58:  MOVLB  6
04B5A:  MOVWF  x49
04B5C:  MOVLW  A1
04B5E:  MOVWF  x48
04B60:  MOVLW  5C
04B62:  MOVWF  x47
04B64:  MOVLW  81
04B66:  MOVWF  x46
04B68:  MOVLB  0
04B6A:  CALL   3C92
04B6E:  MOVFF  03,1B2
04B72:  MOVFF  02,1B1
04B76:  MOVFF  01,1B0
04B7A:  MOVFF  00,1AF
....................     
....................    if(Presion<0.0) 
04B7E:  MOVFF  1B2,633
04B82:  MOVFF  1B1,632
04B86:  MOVFF  1B0,631
04B8A:  MOVFF  1AF,630
04B8E:  MOVLB  6
04B90:  CLRF   x37
04B92:  CLRF   x36
04B94:  CLRF   x35
04B96:  CLRF   x34
04B98:  MOVLB  0
04B9A:  CALL   2436
04B9E:  BNC   4BAC
....................       Presion=0.0; 
04BA0:  MOVLB  1
04BA2:  CLRF   xB2
04BA4:  CLRF   xB1
04BA6:  CLRF   xB0
04BA8:  CLRF   xAF
04BAA:  MOVLB  0
....................     
....................    if(r>media-1) 
04BAC:  MOVLW  01
04BAE:  MOVLB  6
04BB0:  SUBWF  x2C,W
04BB2:  MOVLB  2
04BB4:  SUBWF  x01,W
04BB6:  BZ    4BBC
04BB8:  BNC   4BBC
....................       r=0; 
04BBA:  CLRF   x01
....................    PromPresion[r]=Presion;r++; 
04BBC:  MOVF   x01,W
04BBE:  MULLW  04
04BC0:  MOVF   FF3,W
04BC2:  CLRF   03
04BC4:  ADDLW  AD
04BC6:  MOVWF  FE9
04BC8:  MOVLW  00
04BCA:  ADDWFC 03,W
04BCC:  MOVWF  FEA
04BCE:  MOVFF  1AF,FEF
04BD2:  MOVFF  1B0,FEC
04BD6:  MOVFF  1B1,FEC
04BDA:  MOVFF  1B2,FEC
04BDE:  INCF   x01,F
....................           
....................    for(t=0;t<=(media-1);t++){ 
04BE0:  CLRF   x02
04BE2:  MOVLW  01
04BE4:  MOVLB  6
04BE6:  SUBWF  x2C,W
04BE8:  MOVLB  2
04BEA:  SUBWF  x02,W
04BEC:  BZ    4BF0
04BEE:  BC    4C5C
....................       promediopresion+=PromPresion[t]; 
04BF0:  MOVF   x02,W
04BF2:  MULLW  04
04BF4:  MOVF   FF3,W
04BF6:  CLRF   03
04BF8:  ADDLW  AD
04BFA:  MOVWF  FE9
04BFC:  MOVLW  00
04BFE:  ADDWFC 03,W
04C00:  MOVWF  FEA
04C02:  MOVFF  FEF,642
04C06:  MOVFF  FEC,01
04C0A:  MOVFF  FEC,02
04C0E:  MOVFF  FEC,03
04C12:  MOVFF  FEA,62E
04C16:  MOVFF  FE9,62D
04C1A:  BCF    FD8.1
04C1C:  MOVFF  174,641
04C20:  MOVFF  173,640
04C24:  MOVFF  172,63F
04C28:  MOVFF  171,63E
04C2C:  MOVFF  03,645
04C30:  MOVFF  02,644
04C34:  MOVFF  01,643
04C38:  MOVLB  0
04C3A:  CALL   2062
04C3E:  MOVFF  62E,FEA
04C42:  MOVFF  62D,FE9
04C46:  MOVFF  03,174
04C4A:  MOVFF  02,173
04C4E:  MOVFF  01,172
04C52:  MOVFF  00,171
04C56:  MOVLB  2
04C58:  INCF   x02,F
04C5A:  BRA    4BE2
....................    } 
....................     
....................    promediopresion=promediopresion/media;    
04C5C:  MOVLB  6
04C5E:  CLRF   x3F
04C60:  MOVFF  62C,63E
04C64:  MOVLB  0
04C66:  CALL   1EA6
04C6A:  MOVFF  174,63B
04C6E:  MOVFF  173,63A
04C72:  MOVFF  172,639
04C76:  MOVFF  171,638
04C7A:  MOVFF  03,63F
04C7E:  MOVFF  02,63E
04C82:  MOVFF  01,63D
04C86:  MOVFF  00,63C
04C8A:  CALL   1F04
04C8E:  MOVFF  03,174
04C92:  MOVFF  02,173
04C96:  MOVFF  01,172
04C9A:  MOVFF  00,171
....................     
....................    return promediopresion;    
04C9E:  MOVFF  171,00
04CA2:  MOVFF  172,01
04CA6:  MOVFF  173,02
04CAA:  MOVFF  174,03
04CAE:  GOTO   6FFE (RETURN)
.................... } 
....................  
.................... float Leer_Sensor_Presion_PreCamara(int media){ 
....................    promediopresionp=0.0; 
*
04CEE:  MOVLB  1
04CF0:  CLRF   x78
04CF2:  CLRF   x77
04CF4:  CLRF   x76
04CF6:  CLRF   x75
....................    V2 = sensores(3); 
04CF8:  MOVLW  03
04CFA:  MOVLB  6
04CFC:  MOVWF  x30
04CFE:  MOVLB  0
04D00:  CALL   3D88
04D04:  MOVFF  03,1B6
04D08:  MOVFF  02,1B5
04D0C:  MOVFF  01,1B4
04D10:  MOVFF  00,1B3
....................    //Presionp=(0.073842*V2)-14.504; //R=240, V=5; Sensor de Presion Manometrica de 0-58PSIG 
....................    Presionp=(0.06364*V2)-12.5; //R=240, V=5; Sensor de Presion Manometrica de 0-50PSIA 
04D14:  MOVLW  B0
04D16:  MOVLB  6
04D18:  MOVWF  x45
04D1A:  MOVLW  55
04D1C:  MOVWF  x44
04D1E:  MOVLW  02
04D20:  MOVWF  x43
04D22:  MOVLW  7B
04D24:  MOVWF  x42
04D26:  MOVFF  1B6,649
04D2A:  MOVFF  1B5,648
04D2E:  MOVFF  1B4,647
04D32:  MOVFF  1B3,646
04D36:  MOVLB  0
04D38:  CALL   3C92
04D3C:  MOVFF  03,630
04D40:  MOVFF  02,62F
04D44:  MOVFF  01,62E
04D48:  MOVFF  00,62D
04D4C:  BSF    FD8.1
04D4E:  MOVFF  03,641
04D52:  MOVFF  02,640
04D56:  MOVFF  01,63F
04D5A:  MOVFF  00,63E
04D5E:  MOVLB  6
04D60:  CLRF   x45
04D62:  CLRF   x44
04D64:  MOVLW  48
04D66:  MOVWF  x43
04D68:  MOVLW  82
04D6A:  MOVWF  x42
04D6C:  MOVLB  0
04D6E:  CALL   2062
04D72:  MOVFF  03,1BA
04D76:  MOVFF  02,1B9
04D7A:  MOVFF  01,1B8
04D7E:  MOVFF  00,1B7
....................    Presionp=Presionp*6.89476; 
04D82:  MOVFF  1BA,645
04D86:  MOVFF  1B9,644
04D8A:  MOVFF  1B8,643
04D8E:  MOVFF  1B7,642
04D92:  MOVLW  E0
04D94:  MOVLB  6
04D96:  MOVWF  x49
04D98:  MOVLW  A1
04D9A:  MOVWF  x48
04D9C:  MOVLW  5C
04D9E:  MOVWF  x47
04DA0:  MOVLW  81
04DA2:  MOVWF  x46
04DA4:  MOVLB  0
04DA6:  CALL   3C92
04DAA:  MOVFF  03,1BA
04DAE:  MOVFF  02,1B9
04DB2:  MOVFF  01,1B8
04DB6:  MOVFF  00,1B7
....................     
....................    if(Presionp<0.0) 
04DBA:  MOVFF  1BA,633
04DBE:  MOVFF  1B9,632
04DC2:  MOVFF  1B8,631
04DC6:  MOVFF  1B7,630
04DCA:  MOVLB  6
04DCC:  CLRF   x37
04DCE:  CLRF   x36
04DD0:  CLRF   x35
04DD2:  CLRF   x34
04DD4:  MOVLB  0
04DD6:  CALL   2436
04DDA:  BNC   4DE8
....................       Presionp=0.0; 
04DDC:  MOVLB  1
04DDE:  CLRF   xBA
04DE0:  CLRF   xB9
04DE2:  CLRF   xB8
04DE4:  CLRF   xB7
04DE6:  MOVLB  0
....................     
....................    if(r22>media-1) 
04DE8:  MOVLW  01
04DEA:  MOVLB  6
04DEC:  SUBWF  x2C,W
04DEE:  MOVLB  2
04DF0:  SUBWF  x03,W
04DF2:  BZ    4DF8
04DF4:  BNC   4DF8
....................       r22=0; 
04DF6:  CLRF   x03
....................    PromPresionp[r22]=Presionp;r22++; 
04DF8:  MOVF   x03,W
04DFA:  MULLW  04
04DFC:  MOVF   FF3,W
04DFE:  CLRF   03
04E00:  ADDLW  FD
04E02:  MOVWF  FE9
04E04:  MOVLW  00
04E06:  ADDWFC 03,W
04E08:  MOVWF  FEA
04E0A:  MOVFF  1B7,FEF
04E0E:  MOVFF  1B8,FEC
04E12:  MOVFF  1B9,FEC
04E16:  MOVFF  1BA,FEC
04E1A:  INCF   x03,F
....................           
....................    for(t2=0;t2<=(media-1);t2++){ 
04E1C:  CLRF   x04
04E1E:  MOVLW  01
04E20:  MOVLB  6
04E22:  SUBWF  x2C,W
04E24:  MOVLB  2
04E26:  SUBWF  x04,W
04E28:  BZ    4E2C
04E2A:  BC    4E98
....................       promediopresionp+=PromPresionp[t2]; 
04E2C:  MOVF   x04,W
04E2E:  MULLW  04
04E30:  MOVF   FF3,W
04E32:  CLRF   03
04E34:  ADDLW  FD
04E36:  MOVWF  FE9
04E38:  MOVLW  00
04E3A:  ADDWFC 03,W
04E3C:  MOVWF  FEA
04E3E:  MOVFF  FEF,642
04E42:  MOVFF  FEC,01
04E46:  MOVFF  FEC,02
04E4A:  MOVFF  FEC,03
04E4E:  MOVFF  FEA,62E
04E52:  MOVFF  FE9,62D
04E56:  BCF    FD8.1
04E58:  MOVFF  178,641
04E5C:  MOVFF  177,640
04E60:  MOVFF  176,63F
04E64:  MOVFF  175,63E
04E68:  MOVFF  03,645
04E6C:  MOVFF  02,644
04E70:  MOVFF  01,643
04E74:  MOVLB  0
04E76:  CALL   2062
04E7A:  MOVFF  62E,FEA
04E7E:  MOVFF  62D,FE9
04E82:  MOVFF  03,178
04E86:  MOVFF  02,177
04E8A:  MOVFF  01,176
04E8E:  MOVFF  00,175
04E92:  MOVLB  2
04E94:  INCF   x04,F
04E96:  BRA    4E1E
....................    } 
....................     
....................    promediopresionp=promediopresionp/media;    
04E98:  MOVLB  6
04E9A:  CLRF   x3F
04E9C:  MOVFF  62C,63E
04EA0:  MOVLB  0
04EA2:  CALL   1EA6
04EA6:  MOVFF  178,63B
04EAA:  MOVFF  177,63A
04EAE:  MOVFF  176,639
04EB2:  MOVFF  175,638
04EB6:  MOVFF  03,63F
04EBA:  MOVFF  02,63E
04EBE:  MOVFF  01,63D
04EC2:  MOVFF  00,63C
04EC6:  CALL   1F04
04ECA:  MOVFF  03,178
04ECE:  MOVFF  02,177
04ED2:  MOVFF  01,176
04ED6:  MOVFF  00,175
....................     
....................    return promediopresionp; 
04EDA:  MOVFF  175,00
04EDE:  MOVFF  176,01
04EE2:  MOVFF  177,02
04EE6:  MOVFF  178,03
04EEA:  GOTO   7026 (RETURN)
....................     
....................    /////////////////************** 
....................    /*promediopresionp=0.0; 
....................    V2 = sensores(3);   //Lectura de Divisor de Voltaje de PT100 con resistencia de 1k (+-10%) 
....................    V2 = V2*(5.0/1024.0); 
....................    Presionp=(V2-0.2)/(K); 
....................     
....................    if(Presionp<0.0) 
....................    { 
....................       Presionp=0.0; 
....................    } 
....................     
....................    if(r22>media-1) 
....................    {r22=0;} 
....................    PromPresionp[r22]=Presionp;r22++; 
....................           
....................    for(t2=0;t2<=(media-1);t2++) 
....................    { 
....................       promediopresionp+=PromPresionp[t2]; 
....................    }  
....................    promediopresionp=promediopresionp/media;    
....................     
....................    return promediopresionp;*/ 
.................... } 
....................  
.................... void Controla(){ 
.................... //-------------------------------Control de Calentamiento------------------------------------------------------------//          
....................    //error=desvio+Setpoint-Temperatura;      // Clculo del error ****** 
....................     
....................    if(error<-0.3)    
*
06582:  MOVFF  192,633
06586:  MOVFF  191,632
0658A:  MOVFF  190,631
0658E:  MOVFF  18F,630
06592:  MOVLW  9A
06594:  MOVLB  6
06596:  MOVWF  x37
06598:  MOVLW  99
0659A:  MOVWF  x36
0659C:  MOVWF  x35
0659E:  MOVLW  7D
065A0:  MOVWF  x34
065A2:  MOVLB  0
065A4:  CALL   2436
065A8:  BNC   65BA
....................       Ganancia=Ganancia2;    
065AA:  MOVFF  1A6,1A2
065AE:  MOVFF  1A5,1A1
065B2:  MOVFF  1A4,1A0
065B6:  MOVFF  1A3,19F
....................     
....................    if(Ganancia<1)    
065BA:  MOVFF  1A2,633
065BE:  MOVFF  1A1,632
065C2:  MOVFF  1A0,631
065C6:  MOVFF  19F,630
065CA:  MOVLB  6
065CC:  CLRF   x37
065CE:  CLRF   x36
065D0:  CLRF   x35
065D2:  MOVLW  7F
065D4:  MOVWF  x34
065D6:  MOVLB  0
065D8:  CALL   2436
065DC:  BNC   65EC
....................       Ganancia=1; 
065DE:  MOVLB  1
065E0:  CLRF   xA2
065E2:  CLRF   xA1
065E4:  CLRF   xA0
065E6:  MOVLW  7F
065E8:  MOVWF  x9F
065EA:  MOVLB  0
....................     
....................    if(error<0.0)     // Anti Wind_DOWN     
065EC:  MOVFF  192,633
065F0:  MOVFF  191,632
065F4:  MOVFF  190,631
065F8:  MOVFF  18F,630
065FC:  MOVLB  6
065FE:  CLRF   x37
06600:  CLRF   x36
06602:  CLRF   x35
06604:  CLRF   x34
06606:  MOVLB  0
06608:  CALL   2436
0660C:  BNC   661A
....................       error=0.0;      
0660E:  MOVLB  1
06610:  CLRF   x92
06612:  CLRF   x91
06614:  CLRF   x90
06616:  CLRF   x8F
06618:  MOVLB  0
....................        
....................    tmp=error*Ganancia;  // Control Proporcional. 
0661A:  MOVFF  192,645
0661E:  MOVFF  191,644
06622:  MOVFF  190,643
06626:  MOVFF  18F,642
0662A:  MOVFF  1A2,649
0662E:  MOVFF  1A1,648
06632:  MOVFF  1A0,647
06636:  MOVFF  19F,646
0663A:  CALL   3C92
0663E:  MOVFF  03,19E
06642:  MOVFF  02,19D
06646:  MOVFF  01,19C
0664A:  MOVFF  00,19B
....................           
....................    if(tmp>Setpoint)   // Anti Wind-UP          
0664E:  MOVLB  6
06650:  CLRF   x3F
06652:  MOVFF  1E1,63E
06656:  MOVLB  0
06658:  CALL   1EA6
0665C:  MOVFF  03,633
06660:  MOVFF  02,632
06664:  MOVFF  01,631
06668:  MOVFF  00,630
0666C:  MOVFF  19E,637
06670:  MOVFF  19D,636
06674:  MOVFF  19C,635
06678:  MOVFF  19B,634
0667C:  CALL   2436
06680:  BNC   66A0
....................       tmp=Setpoint;    
06682:  MOVLB  6
06684:  CLRF   x3F
06686:  MOVFF  1E1,63E
0668A:  MOVLB  0
0668C:  CALL   1EA6
06690:  MOVFF  03,19E
06694:  MOVFF  02,19D
06698:  MOVFF  01,19C
0669C:  MOVFF  00,19B
....................                 
....................    if(tmp<0.0)     // Anti Wind_DOWN       
066A0:  MOVFF  19E,633
066A4:  MOVFF  19D,632
066A8:  MOVFF  19C,631
066AC:  MOVFF  19B,630
066B0:  MOVLB  6
066B2:  CLRF   x37
066B4:  CLRF   x36
066B6:  CLRF   x35
066B8:  CLRF   x34
066BA:  MOVLB  0
066BC:  CALL   2436
066C0:  BNC   66CE
....................       tmp=0.0;    
066C2:  MOVLB  1
066C4:  CLRF   x9E
066C6:  CLRF   x9D
066C8:  CLRF   x9C
066CA:  CLRF   x9B
066CC:  MOVLB  0
....................     
....................    // Tpulso(t)= Tciclo*(y(t)-ymin)/(ymax - ymin); calculo de ciclo util para control de resistencia.ymax=140.ymin=0; 
....................    // Tpulso es float, hay que pasar ese ciclo a una salida de un puerto usando el TMR1. 
....................    Tpulso=(tmp/Setpoint)*Tciclo;   
066CE:  MOVLB  6
066D0:  CLRF   x3F
066D2:  MOVFF  1E1,63E
066D6:  MOVLB  0
066D8:  CALL   1EA6
066DC:  MOVFF  19E,63B
066E0:  MOVFF  19D,63A
066E4:  MOVFF  19C,639
066E8:  MOVFF  19B,638
066EC:  MOVFF  03,63F
066F0:  MOVFF  02,63E
066F4:  MOVFF  01,63D
066F8:  MOVFF  00,63C
066FC:  CALL   1F04
06700:  MOVFF  03,62F
06704:  MOVFF  02,62E
06708:  MOVFF  01,62D
0670C:  MOVFF  00,62C
06710:  MOVFF  03,645
06714:  MOVFF  02,644
06718:  MOVFF  01,643
0671C:  MOVFF  00,642
06720:  MOVFF  18A,649
06724:  MOVFF  189,648
06728:  MOVFF  188,647
0672C:  MOVFF  187,646
06730:  CALL   3C92
06734:  MOVFF  03,18E
06738:  MOVFF  02,18D
0673C:  MOVFF  01,18C
06740:  MOVFF  00,18B
....................     
....................    if(Tpulso<(Tciclo/5)) 
06744:  MOVFF  18A,63B
06748:  MOVFF  189,63A
0674C:  MOVFF  188,639
06750:  MOVFF  187,638
06754:  MOVLB  6
06756:  CLRF   x3F
06758:  CLRF   x3E
0675A:  MOVLW  20
0675C:  MOVWF  x3D
0675E:  MOVLW  81
06760:  MOVWF  x3C
06762:  MOVLB  0
06764:  CALL   1F04
06768:  MOVFF  18E,633
0676C:  MOVFF  18D,632
06770:  MOVFF  18C,631
06774:  MOVFF  18B,630
06778:  MOVFF  03,637
0677C:  MOVFF  02,636
06780:  MOVFF  01,635
06784:  MOVFF  00,634
06788:  CALL   2436
0678C:  BNC   679A
....................       Tpulso=0; 
0678E:  MOVLB  1
06790:  CLRF   x8E
06792:  CLRF   x8D
06794:  CLRF   x8C
06796:  CLRF   x8B
06798:  MOVLB  0
....................     
....................    if(Tpulso>(Tciclo-2)) 
0679A:  BSF    FD8.1
0679C:  MOVFF  18A,641
067A0:  MOVFF  189,640
067A4:  MOVFF  188,63F
067A8:  MOVFF  187,63E
067AC:  MOVLB  6
067AE:  CLRF   x45
067B0:  CLRF   x44
067B2:  CLRF   x43
067B4:  MOVLW  80
067B6:  MOVWF  x42
067B8:  MOVLB  0
067BA:  CALL   2062
067BE:  MOVFF  03,633
067C2:  MOVFF  02,632
067C6:  MOVFF  01,631
067CA:  MOVFF  00,630
067CE:  MOVFF  18E,637
067D2:  MOVFF  18D,636
067D6:  MOVFF  18C,635
067DA:  MOVFF  18B,634
067DE:  CALL   2436
067E2:  BNC   67F4
....................       Tpulso=Tciclo; 
067E4:  MOVFF  18A,18E
067E8:  MOVFF  189,18D
067EC:  MOVFF  188,18C
067F0:  MOVFF  187,18B
....................     
....................    Tp=(Tpulso/0.005); 
067F4:  MOVFF  18E,63B
067F8:  MOVFF  18D,63A
067FC:  MOVFF  18C,639
06800:  MOVFF  18B,638
06804:  MOVLW  0A
06806:  MOVLB  6
06808:  MOVWF  x3F
0680A:  MOVLW  D7
0680C:  MOVWF  x3E
0680E:  MOVLW  23
06810:  MOVWF  x3D
06812:  MOVLW  77
06814:  MOVWF  x3C
06816:  MOVLB  0
06818:  CALL   1F04
0681C:  MOVFF  03,641
06820:  MOVFF  02,640
06824:  MOVFF  01,63F
06828:  MOVFF  00,63E
0682C:  CALL   4CB2
06830:  MOVFF  02,98
06834:  MOVFF  01,97
....................    Tc=(Tciclo/0.005); 
06838:  MOVFF  18A,63B
0683C:  MOVFF  189,63A
06840:  MOVFF  188,639
06844:  MOVFF  187,638
06848:  MOVLW  0A
0684A:  MOVLB  6
0684C:  MOVWF  x3F
0684E:  MOVLW  D7
06850:  MOVWF  x3E
06852:  MOVLW  23
06854:  MOVWF  x3D
06856:  MOVLW  77
06858:  MOVWF  x3C
0685A:  MOVLB  0
0685C:  CALL   1F04
06860:  MOVFF  03,641
06864:  MOVFF  02,640
06868:  MOVFF  01,63F
0686C:  MOVFF  00,63E
06870:  CALL   4CB2
06874:  MOVFF  02,9A
06878:  MOVFF  01,99
....................    Controlando=1;    
0687C:  MOVLW  01
0687E:  MOVLB  1
06880:  MOVWF  xD1
....................    if(Temperatura>Setpoint+0.1){ 
06882:  MOVLB  6
06884:  CLRF   x3F
06886:  MOVFF  1E1,63E
0688A:  MOVLB  0
0688C:  CALL   1EA6
06890:  BCF    FD8.1
06892:  MOVFF  03,641
06896:  MOVFF  02,640
0689A:  MOVFF  01,63F
0689E:  MOVFF  00,63E
068A2:  MOVLW  CD
068A4:  MOVLB  6
068A6:  MOVWF  x45
068A8:  MOVLW  CC
068AA:  MOVWF  x44
068AC:  MOVLW  4C
068AE:  MOVWF  x43
068B0:  MOVLW  7B
068B2:  MOVWF  x42
068B4:  MOVLB  0
068B6:  CALL   2062
068BA:  MOVFF  03,633
068BE:  MOVFF  02,632
068C2:  MOVFF  01,631
068C6:  MOVFF  00,630
068CA:  MOVFF  1BE,637
068CE:  MOVFF  1BD,636
068D2:  MOVFF  1BC,635
068D6:  MOVFF  1BB,634
068DA:  CALL   2436
068DE:  BNC   68EA
....................       Suministro_off; 
068E0:  BCF    F8C.0
068E2:  BCF    F95.0
....................       Paso_off; 
068E4:  BCF    F8C.1
068E6:  BCF    F95.1
....................    }else if(Temperatura<=Setpoint){ 
068E8:  BRA    6928
068EA:  MOVLB  6
068EC:  CLRF   x3F
068EE:  MOVFF  1E1,63E
068F2:  MOVLB  0
068F4:  CALL   1EA6
068F8:  MOVFF  1BE,633
068FC:  MOVFF  1BD,632
06900:  MOVFF  1BC,631
06904:  MOVFF  1BB,630
06908:  MOVFF  03,637
0690C:  MOVFF  02,636
06910:  MOVFF  01,635
06914:  MOVFF  00,634
06918:  CALL   2436
0691C:  BC    6920
0691E:  BNZ   6928
....................       Suministro_on; 
06920:  BSF    F8C.0
06922:  BCF    F95.0
....................       Paso_on; 
06924:  BSF    F8C.1
06926:  BCF    F95.1
....................    } 
06928:  RETURN 0
.................... //--------------------------------------------------------------------------------------------------------------------//    
.................... } 
....................  
.................... void Envio_I2C(direccion, posicion, dato){ 
....................  
....................    i2c_start();            // Comienzo comunicacin 
....................    i2c_write(direccion);   // Direccin del esclavo en el bus I2C 
....................    i2c_write(posicion);    // Posicin donde se guardara el dato transmitido 
....................    i2c_write(dato);        // Dato a transmitir 
....................    i2c_stop();             // Fin comunicacin 
....................  } 
....................  
.................... void Lectura_I2C (byte direccion, byte posicion, byte &dato) { 
....................  
....................    i2c_start();            // Comienzo de la comunicacin 
....................    i2c_write(direccion);   // Direccin del esclavo en el bus I2C 
....................    i2c_write(posicion);    // Posicin de donde se leer el dato en el esclavo 
....................    i2c_start();            // Reinicio 
....................    i2c_write(direccion+1); // Direccin del esclavo en modo lectura 
....................    dato=i2c_read(0);       // Lectura del dato 
....................    i2c_stop();             // Fin comunicacin 
.................... } 
....................  
.................... void Carga_Vector(void){ 
....................    SlaveA0Tx[0]=(int8)Temperatura; 
....................    SlaveA0Tx[1]=(Temperatura-((int8)Temperatura))*10; 
....................    SlaveA0Tx[2]=make8((int16)PresionCamara,0); 
....................    SlaveA0Tx[3]=make8((int16)PresionCamara,1); 
....................    SlaveA0Tx[4]=make8((int16)PresionPreCamara,0); 
....................    SlaveA0Tx[5]=make8((int16)PresionPreCamara,1); 
....................    SlaveA0Tx[6]=(int8)Tpulso*10; 
....................    //SlaveA0Tx[7]=HIG; 
....................    SlaveA0Tx[8]=LOW; 
....................    SlaveA0Tx[9]=TERM; 
....................    SlaveA0Tx[10]=DOOR; 
....................    SlaveA0Tx[11]=STOP; 
....................    SlaveA0Tx[12]=(int8)error; 
....................    SlaveA0Tx[13]=CicloSeleccionado; 
....................    SlaveA0Tx[14]=SetTime; 
....................    SlaveA0Tx[15]=DiaTx; 
....................    SlaveA0Tx[16]=MesTx; 
....................    SlaveA0Tx[17]=YearTx; 
....................    SlaveA0Tx[18]=HoraTx; 
....................    SlaveA0Tx[19]=MinutoTx; 
....................    SlaveA0Tx[20]=SegundoTx; 
....................    SlaveA0Tx[21]=Imprime; 
.................... } 
....................  
.................... void Lee_Vector(void){ 
....................    /*Dia=txbuf[0]; 
....................    Mess=txbuf[1]; 
....................    Year=txbuf[2]; 
....................    Hora=txbuf[3]; 
....................    Minuto=txbuf[4]; 
....................    Segundo=txbuf[5]; 
....................    dow=txbuf[6];*/ 
.................... } 
....................  
.................... void Envio_Esclavos(void){ 
....................    //Carga_Vector(); 
....................    //for(i=0;i<22;i++) 
....................    //{ 
....................       //direccion=0xB0; 
....................       //Envio_I2C(direccion,i,SlaveA0Tx[i]); 
....................    //}  
.................... } 
.................... void Lectura_Esclavos(void){ 
....................    //for(i=0;i<7;i++) 
....................    //{ 
....................    //   direccion=0xA0;                        //Direccin en el bus I2c 
....................    //   posicion=i;                         //Posicin de memoria a leer 
....................    //   Lectura_I2C(direccion, posicion, dato);    //Lectura por I2C 
....................    //   txbuf[i]=(int8)dato; 
....................    //} 
....................    //Lee_Vector(); 
.................... } 
....................  
.................... int8 extraeDecimal(float data){ 
*
06064:  MOVLB  6
06066:  CLRF   x39
06068:  CLRF   x38
0606A:  CLRF   x37
0606C:  CLRF   x36
0606E:  CLRF   x3D
06070:  CLRF   x3C
06072:  CLRF   x3B
06074:  CLRF   x3A
....................    float entero=0; 
....................    float tmp=0.0; 
....................     
....................    entero=(int8)data; 
06076:  MOVFF  635,641
0607A:  MOVFF  634,640
0607E:  MOVFF  633,63F
06082:  MOVFF  632,63E
06086:  MOVLB  0
06088:  CALL   4CB2
0608C:  MOVLB  6
0608E:  CLRF   x3F
06090:  MOVFF  01,63E
06094:  MOVLB  0
06096:  CALL   1EA6
0609A:  MOVFF  03,639
0609E:  MOVFF  02,638
060A2:  MOVFF  01,637
060A6:  MOVFF  00,636
....................    tmp=(data-entero)*10; 
060AA:  BSF    FD8.1
060AC:  MOVFF  635,641
060B0:  MOVFF  634,640
060B4:  MOVFF  633,63F
060B8:  MOVFF  632,63E
060BC:  MOVFF  639,645
060C0:  MOVFF  638,644
060C4:  MOVFF  637,643
060C8:  MOVFF  636,642
060CC:  CALL   2062
060D0:  MOVFF  03,641
060D4:  MOVFF  02,640
060D8:  MOVFF  01,63F
060DC:  MOVFF  00,63E
060E0:  MOVFF  03,645
060E4:  MOVFF  02,644
060E8:  MOVFF  01,643
060EC:  MOVFF  00,642
060F0:  MOVLB  6
060F2:  CLRF   x49
060F4:  CLRF   x48
060F6:  MOVLW  20
060F8:  MOVWF  x47
060FA:  MOVLW  82
060FC:  MOVWF  x46
060FE:  MOVLB  0
06100:  CALL   3C92
06104:  MOVFF  03,63D
06108:  MOVFF  02,63C
0610C:  MOVFF  01,63B
06110:  MOVFF  00,63A
....................    return (int8)tmp; 
06114:  MOVFF  63D,641
06118:  MOVFF  63C,640
0611C:  MOVFF  63B,63F
06120:  MOVFF  63A,63E
06124:  CALL   4CB2
06128:  MOVF   01,W
0612A:  GOTO   623C (RETURN)
.................... } 
....................  
.................... float inttofloat(int8 decimal){ 
....................    float tmp; 
....................    tmp=decimal; 
*
023F6:  MOVLB  6
023F8:  CLRF   x3F
023FA:  MOVFF  630,63E
023FE:  MOVLB  0
02400:  RCALL  1EA6
02402:  MOVFF  03,634
02406:  MOVFF  02,633
0240A:  MOVFF  01,632
0240E:  MOVFF  00,631
....................    return tmp/10; 
02412:  MOVFF  634,63B
02416:  MOVFF  633,63A
0241A:  MOVFF  632,639
0241E:  MOVFF  631,638
02422:  MOVLB  6
02424:  CLRF   x3F
02426:  CLRF   x3E
02428:  MOVLW  20
0242A:  MOVWF  x3D
0242C:  MOVLW  82
0242E:  MOVWF  x3C
02430:  MOVLB  0
02432:  RCALL  1F04
02434:  RETURN 0
.................... } 
....................  
.................... void LeeEEPROM(){ 
.................... //Lectura EEPROM//-------------------------- 
....................    Ganancia=read_eeprom(20); 
*
024B0:  MOVFF  FF2,62C
024B4:  BCF    FF2.7
024B6:  CLRF   FAA
024B8:  MOVLW  14
024BA:  MOVWF  FA9
024BC:  BCF    FA6.6
024BE:  BCF    FA6.7
024C0:  BSF    FA6.0
024C2:  MOVF   FA8,W
024C4:  MOVLB  6
024C6:  BTFSC  x2C.7
024C8:  BSF    FF2.7
024CA:  CLRF   x3F
024CC:  MOVWF  x3E
024CE:  MOVLB  0
024D0:  RCALL  1EA6
024D2:  MOVFF  03,1A2
024D6:  MOVFF  02,1A1
024DA:  MOVFF  01,1A0
024DE:  MOVFF  00,19F
....................    delay_ms(10); 
024E2:  MOVLW  0A
024E4:  MOVLB  6
024E6:  MOVWF  x35
024E8:  MOVLB  0
024EA:  RCALL  1EDC
....................    Sensor[0].Ajuste=read_eeprom(21); 
024EC:  MOVFF  FF2,62C
024F0:  BCF    FF2.7
024F2:  CLRF   FAA
024F4:  MOVLW  15
024F6:  MOVWF  FA9
024F8:  BCF    FA6.6
024FA:  BCF    FA6.7
024FC:  BSF    FA6.0
024FE:  MOVF   FA8,W
02500:  MOVLB  6
02502:  BTFSC  x2C.7
02504:  BSF    FF2.7
02506:  MOVLB  2
02508:  MOVWF  xB8
....................    delay_ms(10); 
0250A:  MOVLW  0A
0250C:  MOVLB  6
0250E:  MOVWF  x35
02510:  MOVLB  0
02512:  RCALL  1EDC
....................    Sensor[0].Ajusten=read_eeprom(22); 
02514:  MOVFF  FF2,62C
02518:  BCF    FF2.7
0251A:  CLRF   FAA
0251C:  MOVLW  16
0251E:  MOVWF  FA9
02520:  BCF    FA6.6
02522:  BCF    FA6.7
02524:  BSF    FA6.0
02526:  MOVF   FA8,W
02528:  MOVLB  6
0252A:  BTFSC  x2C.7
0252C:  BSF    FF2.7
0252E:  MOVLB  2
02530:  MOVWF  xB9
....................    delay_ms(10); 
02532:  MOVLW  0A
02534:  MOVLB  6
02536:  MOVWF  x35
02538:  MOVLB  0
0253A:  RCALL  1EDC
....................    Sensor[1].Ajuste=read_eeprom(23); 
0253C:  MOVFF  FF2,62C
02540:  BCF    FF2.7
02542:  CLRF   FAA
02544:  MOVLW  17
02546:  MOVWF  FA9
02548:  BCF    FA6.6
0254A:  BCF    FA6.7
0254C:  BSF    FA6.0
0254E:  MOVF   FA8,W
02550:  MOVLB  6
02552:  BTFSC  x2C.7
02554:  BSF    FF2.7
02556:  MOVLB  4
02558:  MOVWF  x1C
....................    delay_ms(10); 
0255A:  MOVLW  0A
0255C:  MOVLB  6
0255E:  MOVWF  x35
02560:  MOVLB  0
02562:  RCALL  1EDC
....................    Sensor[1].Ajusten=read_eeprom(24); 
02564:  MOVFF  FF2,62C
02568:  BCF    FF2.7
0256A:  CLRF   FAA
0256C:  MOVLW  18
0256E:  MOVWF  FA9
02570:  BCF    FA6.6
02572:  BCF    FA6.7
02574:  BSF    FA6.0
02576:  MOVF   FA8,W
02578:  MOVLB  6
0257A:  BTFSC  x2C.7
0257C:  BSF    FF2.7
0257E:  MOVLB  4
02580:  MOVWF  x1D
....................    delay_ms(10);    
02582:  MOVLW  0A
02584:  MOVLB  6
02586:  MOVWF  x35
02588:  MOVLB  0
0258A:  RCALL  1EDC
....................    MediaMovil=read_eeprom(25); 
0258C:  MOVFF  FF2,62C
02590:  BCF    FF2.7
02592:  CLRF   FAA
02594:  MOVLW  19
02596:  MOVWF  FA9
02598:  BCF    FA6.6
0259A:  BCF    FA6.7
0259C:  BSF    FA6.0
0259E:  MOVF   FA8,W
025A0:  MOVLB  6
025A2:  BTFSC  x2C.7
025A4:  BSF    FF2.7
025A6:  MOVLB  1
025A8:  MOVWF  x7B
....................    delay_ms(10); 
025AA:  MOVLW  0A
025AC:  MOVLB  6
025AE:  MOVWF  x35
025B0:  MOVLB  0
025B2:  RCALL  1EDC
....................    Tciclo=read_eeprom(26); 
025B4:  MOVFF  FF2,62C
025B8:  BCF    FF2.7
025BA:  CLRF   FAA
025BC:  MOVLW  1A
025BE:  MOVWF  FA9
025C0:  BCF    FA6.6
025C2:  BCF    FA6.7
025C4:  BSF    FA6.0
025C6:  MOVF   FA8,W
025C8:  MOVLB  6
025CA:  BTFSC  x2C.7
025CC:  BSF    FF2.7
025CE:  CLRF   x3F
025D0:  MOVWF  x3E
025D2:  MOVLB  0
025D4:  RCALL  1EA6
025D6:  MOVFF  03,18A
025DA:  MOVFF  02,189
025DE:  MOVFF  01,188
025E2:  MOVFF  00,187
....................    delay_ms(10); 
025E6:  MOVLW  0A
025E8:  MOVLB  6
025EA:  MOVWF  x35
025EC:  MOVLB  0
025EE:  RCALL  1EDC
....................    Temporal=read_eeprom(27); 
025F0:  MOVFF  FF2,62C
025F4:  BCF    FF2.7
025F6:  CLRF   FAA
025F8:  MOVLW  1B
025FA:  MOVWF  FA9
025FC:  BCF    FA6.6
025FE:  BCF    FA6.7
02600:  BSF    FA6.0
02602:  MOVF   FA8,W
02604:  MOVLB  6
02606:  BTFSC  x2C.7
02608:  BSF    FF2.7
0260A:  CLRF   x3F
0260C:  MOVWF  x3E
0260E:  MOVLB  0
02610:  RCALL  1EA6
02612:  MOVFF  03,150
02616:  MOVFF  02,14F
0261A:  MOVFF  01,14E
0261E:  MOVFF  00,14D
....................    Temporal=Temporal/10.0; 
02622:  MOVFF  150,63B
02626:  MOVFF  14F,63A
0262A:  MOVFF  14E,639
0262E:  MOVFF  14D,638
02632:  MOVLB  6
02634:  CLRF   x3F
02636:  CLRF   x3E
02638:  MOVLW  20
0263A:  MOVWF  x3D
0263C:  MOVLW  82
0263E:  MOVWF  x3C
02640:  MOVLB  0
02642:  RCALL  1F04
02644:  MOVFF  03,150
02648:  MOVFF  02,14F
0264C:  MOVFF  01,14E
02650:  MOVFF  00,14D
....................    delay_ms(10); 
02654:  MOVLW  0A
02656:  MOVLB  6
02658:  MOVWF  x35
0265A:  MOVLB  0
0265C:  RCALL  1EDC
....................    Sensor[0].RPT100=read_eeprom(28)+Temporal; 
0265E:  MOVFF  FF2,62C
02662:  BCF    FF2.7
02664:  CLRF   FAA
02666:  MOVLW  1C
02668:  MOVWF  FA9
0266A:  BCF    FA6.6
0266C:  BCF    FA6.7
0266E:  BSF    FA6.0
02670:  MOVF   FA8,W
02672:  MOVLB  6
02674:  BTFSC  x2C.7
02676:  BSF    FF2.7
02678:  CLRF   x3F
0267A:  MOVWF  x3E
0267C:  MOVLB  0
0267E:  RCALL  1EA6
02680:  BCF    FD8.1
02682:  MOVFF  03,641
02686:  MOVFF  02,640
0268A:  MOVFF  01,63F
0268E:  MOVFF  00,63E
02692:  MOVFF  150,645
02696:  MOVFF  14F,644
0269A:  MOVFF  14E,643
0269E:  MOVFF  14D,642
026A2:  RCALL  2062
026A4:  MOVFF  03,2AD
026A8:  MOVFF  02,2AC
026AC:  MOVFF  01,2AB
026B0:  MOVFF  00,2AA
....................    delay_ms(10); 
026B4:  MOVLW  0A
026B6:  MOVLB  6
026B8:  MOVWF  x35
026BA:  MOVLB  0
026BC:  RCALL  1EDC
....................    Temporal=read_eeprom(29); 
026BE:  MOVFF  FF2,62C
026C2:  BCF    FF2.7
026C4:  CLRF   FAA
026C6:  MOVLW  1D
026C8:  MOVWF  FA9
026CA:  BCF    FA6.6
026CC:  BCF    FA6.7
026CE:  BSF    FA6.0
026D0:  MOVF   FA8,W
026D2:  MOVLB  6
026D4:  BTFSC  x2C.7
026D6:  BSF    FF2.7
026D8:  CLRF   x3F
026DA:  MOVWF  x3E
026DC:  MOVLB  0
026DE:  CALL   1EA6
026E2:  MOVFF  03,150
026E6:  MOVFF  02,14F
026EA:  MOVFF  01,14E
026EE:  MOVFF  00,14D
....................    Temporal=Temporal/10.0; 
026F2:  MOVFF  150,63B
026F6:  MOVFF  14F,63A
026FA:  MOVFF  14E,639
026FE:  MOVFF  14D,638
02702:  MOVLB  6
02704:  CLRF   x3F
02706:  CLRF   x3E
02708:  MOVLW  20
0270A:  MOVWF  x3D
0270C:  MOVLW  82
0270E:  MOVWF  x3C
02710:  MOVLB  0
02712:  CALL   1F04
02716:  MOVFF  03,150
0271A:  MOVFF  02,14F
0271E:  MOVFF  01,14E
02722:  MOVFF  00,14D
....................    delay_ms(10); 
02726:  MOVLW  0A
02728:  MOVLB  6
0272A:  MOVWF  x35
0272C:  MOVLB  0
0272E:  CALL   1EDC
....................    Sensor[1].RPT100=read_eeprom(30)+Temporal; 
02732:  MOVFF  FF2,62C
02736:  BCF    FF2.7
02738:  CLRF   FAA
0273A:  MOVLW  1E
0273C:  MOVWF  FA9
0273E:  BCF    FA6.6
02740:  BCF    FA6.7
02742:  BSF    FA6.0
02744:  MOVF   FA8,W
02746:  MOVLB  6
02748:  BTFSC  x2C.7
0274A:  BSF    FF2.7
0274C:  CLRF   x3F
0274E:  MOVWF  x3E
02750:  MOVLB  0
02752:  CALL   1EA6
02756:  BCF    FD8.1
02758:  MOVFF  03,641
0275C:  MOVFF  02,640
02760:  MOVFF  01,63F
02764:  MOVFF  00,63E
02768:  MOVFF  150,645
0276C:  MOVFF  14F,644
02770:  MOVFF  14E,643
02774:  MOVFF  14D,642
02778:  RCALL  2062
0277A:  MOVFF  03,411
0277E:  MOVFF  02,410
02782:  MOVFF  01,40F
02786:  MOVFF  00,40E
....................    delay_ms(10); 
0278A:  MOVLW  0A
0278C:  MOVLB  6
0278E:  MOVWF  x35
02790:  MOVLB  0
02792:  CALL   1EDC
....................    Atmosferica=read_eeprom(31); 
02796:  MOVFF  FF2,62C
0279A:  BCF    FF2.7
0279C:  CLRF   FAA
0279E:  MOVLW  1F
027A0:  MOVWF  FA9
027A2:  BCF    FA6.6
027A4:  BCF    FA6.7
027A6:  BSF    FA6.0
027A8:  MOVF   FA8,W
027AA:  MOVLB  6
027AC:  BTFSC  x2C.7
027AE:  BSF    FF2.7
027B0:  MOVLB  2
027B2:  MOVWF  x1B
....................    delay_ms(10); 
027B4:  MOVLW  0A
027B6:  MOVLB  6
027B8:  MOVWF  x35
027BA:  MOVLB  0
027BC:  CALL   1EDC
....................    Tapertura=read_eeprom(32); 
027C0:  MOVFF  FF2,62C
027C4:  BCF    FF2.7
027C6:  CLRF   FAA
027C8:  MOVLW  20
027CA:  MOVWF  FA9
027CC:  BCF    FA6.6
027CE:  BCF    FA6.7
027D0:  BSF    FA6.0
027D2:  MOVF   FA8,W
027D4:  MOVLB  6
027D6:  BTFSC  x2C.7
027D8:  BSF    FF2.7
027DA:  MOVLB  1
027DC:  MOVWF  xDE
....................    delay_ms(10); 
027DE:  MOVLW  0A
027E0:  MOVLB  6
027E2:  MOVWF  x35
027E4:  MOVLB  0
027E6:  CALL   1EDC
....................    CiclosL=read_eeprom(37); 
027EA:  MOVFF  FF2,62C
027EE:  BCF    FF2.7
027F0:  CLRF   FAA
027F2:  MOVLW  25
027F4:  MOVWF  FA9
027F6:  BCF    FA6.6
027F8:  BCF    FA6.7
027FA:  BSF    FA6.0
027FC:  MOVF   FA8,W
027FE:  MOVLB  6
02800:  BTFSC  x2C.7
02802:  BSF    FF2.7
02804:  MOVLB  1
02806:  MOVWF  xDB
....................    delay_ms(10); 
02808:  MOVLW  0A
0280A:  MOVLB  6
0280C:  MOVWF  x35
0280E:  MOVLB  0
02810:  CALL   1EDC
....................    CiclosH=read_eeprom(38); 
02814:  MOVFF  FF2,62C
02818:  BCF    FF2.7
0281A:  CLRF   FAA
0281C:  MOVLW  26
0281E:  MOVWF  FA9
02820:  BCF    FA6.6
02822:  BCF    FA6.7
02824:  BSF    FA6.0
02826:  MOVF   FA8,W
02828:  MOVLB  6
0282A:  BTFSC  x2C.7
0282C:  BSF    FF2.7
0282E:  MOVLB  1
02830:  MOVWF  xDC
....................    delay_ms(10); 
02832:  MOVLW  0A
02834:  MOVLB  6
02836:  MOVWF  x35
02838:  MOVLB  0
0283A:  CALL   1EDC
....................    Ciclos=make16(CiclosH,CiclosL); 
0283E:  MOVFF  1DC,1F8
02842:  MOVFF  1DB,1F7
....................    delay_ms(10); 
02846:  MOVLW  0A
02848:  MOVLB  6
0284A:  MOVWF  x35
0284C:  MOVLB  0
0284E:  CALL   1EDC
....................    G1=read_eeprom(42); 
02852:  MOVFF  FF2,62C
02856:  BCF    FF2.7
02858:  CLRF   FAA
0285A:  MOVLW  2A
0285C:  MOVWF  FA9
0285E:  BCF    FA6.6
02860:  BCF    FA6.7
02862:  BSF    FA6.0
02864:  MOVF   FA8,W
02866:  MOVLB  6
02868:  BTFSC  x2C.7
0286A:  BSF    FF2.7
0286C:  MOVLB  2
0286E:  MOVWF  x2C
....................    delay_ms(10); 
02870:  MOVLW  0A
02872:  MOVLB  6
02874:  MOVWF  x35
02876:  MOVLB  0
02878:  CALL   1EDC
....................    G2=read_eeprom(43); 
0287C:  MOVFF  FF2,62C
02880:  BCF    FF2.7
02882:  CLRF   FAA
02884:  MOVLW  2B
02886:  MOVWF  FA9
02888:  BCF    FA6.6
0288A:  BCF    FA6.7
0288C:  BSF    FA6.0
0288E:  MOVF   FA8,W
02890:  MOVLB  6
02892:  BTFSC  x2C.7
02894:  BSF    FF2.7
02896:  MOVLB  2
02898:  MOVWF  x2D
....................    delay_ms(10); 
0289A:  MOVLW  0A
0289C:  MOVLB  6
0289E:  MOVWF  x35
028A0:  MOVLB  0
028A2:  CALL   1EDC
....................    sg1=read_eeprom(44); 
028A6:  MOVFF  FF2,62C
028AA:  BCF    FF2.7
028AC:  CLRF   FAA
028AE:  MOVLW  2C
028B0:  MOVWF  FA9
028B2:  BCF    FA6.6
028B4:  BCF    FA6.7
028B6:  BSF    FA6.0
028B8:  MOVF   FA8,W
028BA:  MOVLB  6
028BC:  BTFSC  x2C.7
028BE:  BSF    FF2.7
028C0:  MOVLB  2
028C2:  MOVWF  x2E
....................    delay_ms(10); 
028C4:  MOVLW  0A
028C6:  MOVLB  6
028C8:  MOVWF  x35
028CA:  MOVLB  0
028CC:  CALL   1EDC
....................    sg2=read_eeprom(45); 
028D0:  MOVFF  FF2,62C
028D4:  BCF    FF2.7
028D6:  CLRF   FAA
028D8:  MOVLW  2D
028DA:  MOVWF  FA9
028DC:  BCF    FA6.6
028DE:  BCF    FA6.7
028E0:  BSF    FA6.0
028E2:  MOVF   FA8,W
028E4:  MOVLB  6
028E6:  BTFSC  x2C.7
028E8:  BSF    FF2.7
028EA:  MOVLB  2
028EC:  MOVWF  x2F
....................     
....................    for(i=0;i<30;i++){ 
028EE:  MOVLB  1
028F0:  CLRF   xDA
028F2:  MOVF   xDA,W
028F4:  SUBLW  1D
028F6:  BNC   2960
....................       estados[i]=read_eeprom(i+50); 
028F8:  MOVLW  32
028FA:  ADDWF  xDA,W
028FC:  MOVLB  6
028FE:  MOVWF  x2C
02900:  MOVFF  FF2,62D
02904:  BCF    FF2.7
02906:  CLRF   FAA
02908:  MOVFF  62C,FA9
0290C:  BCF    FA6.6
0290E:  BCF    FA6.7
02910:  BSF    FA6.0
02912:  MOVF   FA8,W
02914:  BTFSC  x2D.7
02916:  BSF    FF2.7
02918:  MOVWF  x2C
0291A:  MOVFF  1DA,62E
0291E:  MOVFF  62C,62F
02922:  MOVLW  02
02924:  MOVWF  x31
02926:  MOVLW  96
02928:  MOVWF  x30
0292A:  MOVLB  0
0292C:  RCALL  22DA
....................       if(estados[i]>1) 
0292E:  MOVFF  1DA,62D
02932:  MOVLW  02
02934:  MOVLB  6
02936:  MOVWF  x2F
02938:  MOVLW  96
0293A:  MOVWF  x2E
0293C:  MOVLB  0
0293E:  RCALL  231C
02940:  BTFSC  00.1
02942:  BRA    295A
....................          estados[i]=1; 
02944:  MOVFF  1DA,62E
02948:  MOVLW  01
0294A:  MOVLB  6
0294C:  MOVWF  x2F
0294E:  MOVLW  02
02950:  MOVWF  x31
02952:  MOVLW  96
02954:  MOVWF  x30
02956:  MOVLB  0
02958:  RCALL  22DA
0295A:  MOVLB  1
0295C:  INCF   xDA,F
0295E:  BRA    28F2
....................    } 
....................     
....................    for(i=0;i<20;i++){//Lee valores almacenados de ciclos personalizados 
02960:  CLRF   xDA
02962:  MOVF   xDA,W
02964:  SUBLW  13
02966:  BTFSS  FD8.0
02968:  BRA    2EB0
....................       CiclosPersonalizados[i].Temperatura=read_eeprom(100+(i*8));  
0296A:  MOVF   xDA,W
0296C:  MULLW  08
0296E:  MOVF   FF3,W
02970:  MOVLB  6
02972:  CLRF   x2D
02974:  MOVWF  x2C
02976:  MOVLW  62
02978:  ADDWF  x2C,W
0297A:  MOVWF  FE9
0297C:  MOVLW  05
0297E:  ADDWFC x2D,W
02980:  MOVWF  FEA
02982:  MOVLB  1
02984:  MOVF   xDA,W
02986:  MULLW  08
02988:  MOVF   FF3,W
0298A:  ADDLW  64
0298C:  MOVLB  6
0298E:  MOVWF  x30
02990:  MOVFF  FF2,631
02994:  BCF    FF2.7
02996:  CLRF   FAA
02998:  MOVFF  630,FA9
0299C:  BCF    FA6.6
0299E:  BCF    FA6.7
029A0:  BSF    FA6.0
029A2:  MOVF   FA8,W
029A4:  BTFSC  x31.7
029A6:  BSF    FF2.7
029A8:  MOVWF  FEF
....................       CiclosPersonalizados[i].Minutoest=read_eeprom(101+(i*8));  
029AA:  MOVLB  1
029AC:  MOVF   xDA,W
029AE:  MULLW  08
029B0:  MOVF   FF3,W
029B2:  MOVLB  6
029B4:  CLRF   x2D
029B6:  MOVWF  x2C
029B8:  MOVLW  01
029BA:  ADDWF  x2C,W
029BC:  MOVWF  01
029BE:  MOVLW  00
029C0:  ADDWFC x2D,W
029C2:  MOVWF  03
029C4:  MOVF   01,W
029C6:  ADDLW  62
029C8:  MOVWF  FE9
029CA:  MOVLW  05
029CC:  ADDWFC 03,W
029CE:  MOVWF  FEA
029D0:  MOVLB  1
029D2:  MOVF   xDA,W
029D4:  MULLW  08
029D6:  MOVF   FF3,W
029D8:  ADDLW  65
029DA:  MOVLB  6
029DC:  MOVWF  x2E
029DE:  MOVFF  FF2,62F
029E2:  BCF    FF2.7
029E4:  CLRF   FAA
029E6:  MOVFF  62E,FA9
029EA:  BCF    FA6.6
029EC:  BCF    FA6.7
029EE:  BSF    FA6.0
029F0:  MOVF   FA8,W
029F2:  BTFSC  x2F.7
029F4:  BSF    FF2.7
029F6:  MOVWF  FEF
....................       CiclosPersonalizados[i].Segundoest=read_eeprom(102+(i*8));  
029F8:  MOVLB  1
029FA:  MOVF   xDA,W
029FC:  MULLW  08
029FE:  MOVF   FF3,W
02A00:  MOVLB  6
02A02:  CLRF   x2D
02A04:  MOVWF  x2C
02A06:  MOVLW  02
02A08:  ADDWF  x2C,W
02A0A:  MOVWF  01
02A0C:  MOVLW  00
02A0E:  ADDWFC x2D,W
02A10:  MOVWF  03
02A12:  MOVF   01,W
02A14:  ADDLW  62
02A16:  MOVWF  FE9
02A18:  MOVLW  05
02A1A:  ADDWFC 03,W
02A1C:  MOVWF  FEA
02A1E:  MOVLB  1
02A20:  MOVF   xDA,W
02A22:  MULLW  08
02A24:  MOVF   FF3,W
02A26:  ADDLW  66
02A28:  MOVLB  6
02A2A:  MOVWF  x2E
02A2C:  MOVFF  FF2,62F
02A30:  BCF    FF2.7
02A32:  CLRF   FAA
02A34:  MOVFF  62E,FA9
02A38:  BCF    FA6.6
02A3A:  BCF    FA6.7
02A3C:  BSF    FA6.0
02A3E:  MOVF   FA8,W
02A40:  BTFSC  x2F.7
02A42:  BSF    FF2.7
02A44:  MOVWF  FEF
....................       CiclosPersonalizados[i].Minutosec=read_eeprom(103+(i*8));  
02A46:  MOVLB  1
02A48:  MOVF   xDA,W
02A4A:  MULLW  08
02A4C:  MOVF   FF3,W
02A4E:  MOVLB  6
02A50:  CLRF   x2D
02A52:  MOVWF  x2C
02A54:  MOVLW  03
02A56:  ADDWF  x2C,W
02A58:  MOVWF  01
02A5A:  MOVLW  00
02A5C:  ADDWFC x2D,W
02A5E:  MOVWF  03
02A60:  MOVF   01,W
02A62:  ADDLW  62
02A64:  MOVWF  FE9
02A66:  MOVLW  05
02A68:  ADDWFC 03,W
02A6A:  MOVWF  FEA
02A6C:  MOVLB  1
02A6E:  MOVF   xDA,W
02A70:  MULLW  08
02A72:  MOVF   FF3,W
02A74:  ADDLW  67
02A76:  MOVLB  6
02A78:  MOVWF  x2E
02A7A:  MOVFF  FF2,62F
02A7E:  BCF    FF2.7
02A80:  CLRF   FAA
02A82:  MOVFF  62E,FA9
02A86:  BCF    FA6.6
02A88:  BCF    FA6.7
02A8A:  BSF    FA6.0
02A8C:  MOVF   FA8,W
02A8E:  BTFSC  x2F.7
02A90:  BSF    FF2.7
02A92:  MOVWF  FEF
....................       CiclosPersonalizados[i].Segundosec=read_eeprom(104+(i*8));  
02A94:  MOVLB  1
02A96:  MOVF   xDA,W
02A98:  MULLW  08
02A9A:  MOVF   FF3,W
02A9C:  MOVLB  6
02A9E:  CLRF   x2D
02AA0:  MOVWF  x2C
02AA2:  MOVLW  04
02AA4:  ADDWF  x2C,W
02AA6:  MOVWF  01
02AA8:  MOVLW  00
02AAA:  ADDWFC x2D,W
02AAC:  MOVWF  03
02AAE:  MOVF   01,W
02AB0:  ADDLW  62
02AB2:  MOVWF  FE9
02AB4:  MOVLW  05
02AB6:  ADDWFC 03,W
02AB8:  MOVWF  FEA
02ABA:  MOVLB  1
02ABC:  MOVF   xDA,W
02ABE:  MULLW  08
02AC0:  MOVF   FF3,W
02AC2:  ADDLW  68
02AC4:  MOVLB  6
02AC6:  MOVWF  x2E
02AC8:  MOVFF  FF2,62F
02ACC:  BCF    FF2.7
02ACE:  CLRF   FAA
02AD0:  MOVFF  62E,FA9
02AD4:  BCF    FA6.6
02AD6:  BCF    FA6.7
02AD8:  BSF    FA6.0
02ADA:  MOVF   FA8,W
02ADC:  BTFSC  x2F.7
02ADE:  BSF    FF2.7
02AE0:  MOVWF  FEF
....................       CiclosPersonalizados[i].PulsosVacio=read_eeprom(105+(i*8));  
02AE2:  MOVLB  1
02AE4:  MOVF   xDA,W
02AE6:  MULLW  08
02AE8:  MOVF   FF3,W
02AEA:  MOVLB  6
02AEC:  CLRF   x2D
02AEE:  MOVWF  x2C
02AF0:  MOVLW  05
02AF2:  ADDWF  x2C,W
02AF4:  MOVWF  01
02AF6:  MOVLW  00
02AF8:  ADDWFC x2D,W
02AFA:  MOVWF  03
02AFC:  MOVF   01,W
02AFE:  ADDLW  62
02B00:  MOVWF  FE9
02B02:  MOVLW  05
02B04:  ADDWFC 03,W
02B06:  MOVWF  FEA
02B08:  MOVLB  1
02B0A:  MOVF   xDA,W
02B0C:  MULLW  08
02B0E:  MOVF   FF3,W
02B10:  ADDLW  69
02B12:  MOVLB  6
02B14:  MOVWF  x2E
02B16:  MOVFF  FF2,62F
02B1A:  BCF    FF2.7
02B1C:  CLRF   FAA
02B1E:  MOVFF  62E,FA9
02B22:  BCF    FA6.6
02B24:  BCF    FA6.7
02B26:  BSF    FA6.0
02B28:  MOVF   FA8,W
02B2A:  BTFSC  x2F.7
02B2C:  BSF    FF2.7
02B2E:  MOVWF  FEF
....................       CiclosPersonalizados[i].NivelVacio=read_eeprom(106+(i*8));  
02B30:  MOVLB  1
02B32:  MOVF   xDA,W
02B34:  MULLW  08
02B36:  MOVF   FF3,W
02B38:  MOVLB  6
02B3A:  CLRF   x2D
02B3C:  MOVWF  x2C
02B3E:  MOVLW  06
02B40:  ADDWF  x2C,W
02B42:  MOVWF  01
02B44:  MOVLW  00
02B46:  ADDWFC x2D,W
02B48:  MOVWF  03
02B4A:  MOVF   01,W
02B4C:  ADDLW  62
02B4E:  MOVWF  FE9
02B50:  MOVLW  05
02B52:  ADDWFC 03,W
02B54:  MOVWF  FEA
02B56:  MOVLB  1
02B58:  MOVF   xDA,W
02B5A:  MULLW  08
02B5C:  MOVF   FF3,W
02B5E:  ADDLW  6A
02B60:  MOVLB  6
02B62:  MOVWF  x2E
02B64:  MOVFF  FF2,62F
02B68:  BCF    FF2.7
02B6A:  CLRF   FAA
02B6C:  MOVFF  62E,FA9
02B70:  BCF    FA6.6
02B72:  BCF    FA6.7
02B74:  BSF    FA6.0
02B76:  MOVF   FA8,W
02B78:  BTFSC  x2F.7
02B7A:  BSF    FF2.7
02B7C:  MOVWF  FEF
....................       CiclosPersonalizados[i].NivelDesfogue=read_eeprom(107+(i*8));  
02B7E:  MOVLB  1
02B80:  MOVF   xDA,W
02B82:  MULLW  08
02B84:  MOVF   FF3,W
02B86:  MOVLB  6
02B88:  CLRF   x2D
02B8A:  MOVWF  x2C
02B8C:  MOVLW  07
02B8E:  ADDWF  x2C,W
02B90:  MOVWF  01
02B92:  MOVLW  00
02B94:  ADDWFC x2D,W
02B96:  MOVWF  03
02B98:  MOVF   01,W
02B9A:  ADDLW  62
02B9C:  MOVWF  FE9
02B9E:  MOVLW  05
02BA0:  ADDWFC 03,W
02BA2:  MOVWF  FEA
02BA4:  MOVLB  1
02BA6:  MOVF   xDA,W
02BA8:  MULLW  08
02BAA:  MOVF   FF3,W
02BAC:  ADDLW  6B
02BAE:  MOVLB  6
02BB0:  MOVWF  x2E
02BB2:  MOVFF  FF2,62F
02BB6:  BCF    FF2.7
02BB8:  CLRF   FAA
02BBA:  MOVFF  62E,FA9
02BBE:  BCF    FA6.6
02BC0:  BCF    FA6.7
02BC2:  BSF    FA6.0
02BC4:  MOVF   FA8,W
02BC6:  BTFSC  x2F.7
02BC8:  BSF    FF2.7
02BCA:  MOVWF  FEF
....................        
....................       if(CiclosPersonalizados[i].Temperatura>134 || CiclosPersonalizados[i].Temperatura<105) 
02BCC:  MOVLB  1
02BCE:  MOVF   xDA,W
02BD0:  MULLW  08
02BD2:  MOVF   FF3,W
02BD4:  MOVLB  6
02BD6:  CLRF   x2D
02BD8:  MOVWF  x2C
02BDA:  MOVLW  62
02BDC:  ADDWF  x2C,W
02BDE:  MOVWF  FE9
02BE0:  MOVLW  05
02BE2:  ADDWFC x2D,W
02BE4:  MOVWF  FEA
02BE6:  MOVF   FEF,W
02BE8:  SUBLW  86
02BEA:  BNC   2C0C
02BEC:  MOVLB  1
02BEE:  MOVF   xDA,W
02BF0:  MULLW  08
02BF2:  MOVF   FF3,W
02BF4:  MOVLB  6
02BF6:  CLRF   x2F
02BF8:  MOVWF  x2E
02BFA:  MOVLW  62
02BFC:  ADDWF  x2E,W
02BFE:  MOVWF  FE9
02C00:  MOVLW  05
02C02:  ADDWFC x2F,W
02C04:  MOVWF  FEA
02C06:  MOVF   FEF,W
02C08:  SUBLW  68
02C0A:  BNC   2C2A
....................          CiclosPersonalizados[i].Temperatura=121; 
02C0C:  MOVLB  1
02C0E:  MOVF   xDA,W
02C10:  MULLW  08
02C12:  MOVF   FF3,W
02C14:  MOVLB  6
02C16:  CLRF   x2D
02C18:  MOVWF  x2C
02C1A:  MOVLW  62
02C1C:  ADDWF  x2C,W
02C1E:  MOVWF  FE9
02C20:  MOVLW  05
02C22:  ADDWFC x2D,W
02C24:  MOVWF  FEA
02C26:  MOVLW  79
02C28:  MOVWF  FEF
....................       if(CiclosPersonalizados[i].Minutoest>59) 
02C2A:  MOVLB  1
02C2C:  MOVF   xDA,W
02C2E:  MULLW  08
02C30:  MOVF   FF3,W
02C32:  MOVLB  6
02C34:  CLRF   x2D
02C36:  MOVWF  x2C
02C38:  MOVLW  01
02C3A:  ADDWF  x2C,W
02C3C:  MOVWF  01
02C3E:  MOVLW  00
02C40:  ADDWFC x2D,W
02C42:  MOVWF  03
02C44:  MOVF   01,W
02C46:  ADDLW  62
02C48:  MOVWF  FE9
02C4A:  MOVLW  05
02C4C:  ADDWFC 03,W
02C4E:  MOVWF  FEA
02C50:  MOVF   FEF,W
02C52:  SUBLW  3B
02C54:  BC    2C80
....................          CiclosPersonalizados[i].Minutoest=3; 
02C56:  MOVLB  1
02C58:  MOVF   xDA,W
02C5A:  MULLW  08
02C5C:  MOVF   FF3,W
02C5E:  MOVLB  6
02C60:  CLRF   x2D
02C62:  MOVWF  x2C
02C64:  MOVLW  01
02C66:  ADDWF  x2C,W
02C68:  MOVWF  01
02C6A:  MOVLW  00
02C6C:  ADDWFC x2D,W
02C6E:  MOVWF  03
02C70:  MOVF   01,W
02C72:  ADDLW  62
02C74:  MOVWF  FE9
02C76:  MOVLW  05
02C78:  ADDWFC 03,W
02C7A:  MOVWF  FEA
02C7C:  MOVLW  03
02C7E:  MOVWF  FEF
....................       if(CiclosPersonalizados[i].Minutosec>59) 
02C80:  MOVLB  1
02C82:  MOVF   xDA,W
02C84:  MULLW  08
02C86:  MOVF   FF3,W
02C88:  MOVLB  6
02C8A:  CLRF   x2D
02C8C:  MOVWF  x2C
02C8E:  MOVLW  03
02C90:  ADDWF  x2C,W
02C92:  MOVWF  01
02C94:  MOVLW  00
02C96:  ADDWFC x2D,W
02C98:  MOVWF  03
02C9A:  MOVF   01,W
02C9C:  ADDLW  62
02C9E:  MOVWF  FE9
02CA0:  MOVLW  05
02CA2:  ADDWFC 03,W
02CA4:  MOVWF  FEA
02CA6:  MOVF   FEF,W
02CA8:  SUBLW  3B
02CAA:  BC    2CD4
....................          CiclosPersonalizados[i].Minutosec=0;    
02CAC:  MOVLB  1
02CAE:  MOVF   xDA,W
02CB0:  MULLW  08
02CB2:  MOVF   FF3,W
02CB4:  MOVLB  6
02CB6:  CLRF   x2D
02CB8:  MOVWF  x2C
02CBA:  MOVLW  03
02CBC:  ADDWF  x2C,W
02CBE:  MOVWF  01
02CC0:  MOVLW  00
02CC2:  ADDWFC x2D,W
02CC4:  MOVWF  03
02CC6:  MOVF   01,W
02CC8:  ADDLW  62
02CCA:  MOVWF  FE9
02CCC:  MOVLW  05
02CCE:  ADDWFC 03,W
02CD0:  MOVWF  FEA
02CD2:  CLRF   FEF
....................       if(CiclosPersonalizados[i].Segundoest>59) 
02CD4:  MOVLB  1
02CD6:  MOVF   xDA,W
02CD8:  MULLW  08
02CDA:  MOVF   FF3,W
02CDC:  MOVLB  6
02CDE:  CLRF   x2D
02CE0:  MOVWF  x2C
02CE2:  MOVLW  02
02CE4:  ADDWF  x2C,W
02CE6:  MOVWF  01
02CE8:  MOVLW  00
02CEA:  ADDWFC x2D,W
02CEC:  MOVWF  03
02CEE:  MOVF   01,W
02CF0:  ADDLW  62
02CF2:  MOVWF  FE9
02CF4:  MOVLW  05
02CF6:  ADDWFC 03,W
02CF8:  MOVWF  FEA
02CFA:  MOVF   FEF,W
02CFC:  SUBLW  3B
02CFE:  BC    2D28
....................          CiclosPersonalizados[i].Segundoest=0; 
02D00:  MOVLB  1
02D02:  MOVF   xDA,W
02D04:  MULLW  08
02D06:  MOVF   FF3,W
02D08:  MOVLB  6
02D0A:  CLRF   x2D
02D0C:  MOVWF  x2C
02D0E:  MOVLW  02
02D10:  ADDWF  x2C,W
02D12:  MOVWF  01
02D14:  MOVLW  00
02D16:  ADDWFC x2D,W
02D18:  MOVWF  03
02D1A:  MOVF   01,W
02D1C:  ADDLW  62
02D1E:  MOVWF  FE9
02D20:  MOVLW  05
02D22:  ADDWFC 03,W
02D24:  MOVWF  FEA
02D26:  CLRF   FEF
....................       if(CiclosPersonalizados[i].Segundosec>59) 
02D28:  MOVLB  1
02D2A:  MOVF   xDA,W
02D2C:  MULLW  08
02D2E:  MOVF   FF3,W
02D30:  MOVLB  6
02D32:  CLRF   x2D
02D34:  MOVWF  x2C
02D36:  MOVLW  04
02D38:  ADDWF  x2C,W
02D3A:  MOVWF  01
02D3C:  MOVLW  00
02D3E:  ADDWFC x2D,W
02D40:  MOVWF  03
02D42:  MOVF   01,W
02D44:  ADDLW  62
02D46:  MOVWF  FE9
02D48:  MOVLW  05
02D4A:  ADDWFC 03,W
02D4C:  MOVWF  FEA
02D4E:  MOVF   FEF,W
02D50:  SUBLW  3B
02D52:  BC    2D7C
....................          CiclosPersonalizados[i].Segundosec=0;       
02D54:  MOVLB  1
02D56:  MOVF   xDA,W
02D58:  MULLW  08
02D5A:  MOVF   FF3,W
02D5C:  MOVLB  6
02D5E:  CLRF   x2D
02D60:  MOVWF  x2C
02D62:  MOVLW  04
02D64:  ADDWF  x2C,W
02D66:  MOVWF  01
02D68:  MOVLW  00
02D6A:  ADDWFC x2D,W
02D6C:  MOVWF  03
02D6E:  MOVF   01,W
02D70:  ADDLW  62
02D72:  MOVWF  FE9
02D74:  MOVLW  05
02D76:  ADDWFC 03,W
02D78:  MOVWF  FEA
02D7A:  CLRF   FEF
....................       if(CiclosPersonalizados[i].PulsosVacio>15) 
02D7C:  MOVLB  1
02D7E:  MOVF   xDA,W
02D80:  MULLW  08
02D82:  MOVF   FF3,W
02D84:  MOVLB  6
02D86:  CLRF   x2D
02D88:  MOVWF  x2C
02D8A:  MOVLW  05
02D8C:  ADDWF  x2C,W
02D8E:  MOVWF  01
02D90:  MOVLW  00
02D92:  ADDWFC x2D,W
02D94:  MOVWF  03
02D96:  MOVF   01,W
02D98:  ADDLW  62
02D9A:  MOVWF  FE9
02D9C:  MOVLW  05
02D9E:  ADDWFC 03,W
02DA0:  MOVWF  FEA
02DA2:  MOVF   FEF,W
02DA4:  SUBLW  0F
02DA6:  BC    2DD2
....................          CiclosPersonalizados[i].PulsosVacio=4; 
02DA8:  MOVLB  1
02DAA:  MOVF   xDA,W
02DAC:  MULLW  08
02DAE:  MOVF   FF3,W
02DB0:  MOVLB  6
02DB2:  CLRF   x2D
02DB4:  MOVWF  x2C
02DB6:  MOVLW  05
02DB8:  ADDWF  x2C,W
02DBA:  MOVWF  01
02DBC:  MOVLW  00
02DBE:  ADDWFC x2D,W
02DC0:  MOVWF  03
02DC2:  MOVF   01,W
02DC4:  ADDLW  62
02DC6:  MOVWF  FE9
02DC8:  MOVLW  05
02DCA:  ADDWFC 03,W
02DCC:  MOVWF  FEA
02DCE:  MOVLW  04
02DD0:  MOVWF  FEF
....................       if(CiclosPersonalizados[i].NivelVacio>100 || CiclosPersonalizados[i].NivelVacio<10) 
02DD2:  MOVLB  1
02DD4:  MOVF   xDA,W
02DD6:  MULLW  08
02DD8:  MOVF   FF3,W
02DDA:  MOVLB  6
02DDC:  CLRF   x2D
02DDE:  MOVWF  x2C
02DE0:  MOVLW  06
02DE2:  ADDWF  x2C,W
02DE4:  MOVWF  01
02DE6:  MOVLW  00
02DE8:  ADDWFC x2D,W
02DEA:  MOVWF  03
02DEC:  MOVF   01,W
02DEE:  ADDLW  62
02DF0:  MOVWF  FE9
02DF2:  MOVLW  05
02DF4:  ADDWFC 03,W
02DF6:  MOVWF  FEA
02DF8:  MOVF   FEF,W
02DFA:  SUBLW  64
02DFC:  BNC   2E2A
02DFE:  MOVLB  1
02E00:  MOVF   xDA,W
02E02:  MULLW  08
02E04:  MOVF   FF3,W
02E06:  MOVLB  6
02E08:  CLRF   x2D
02E0A:  MOVWF  x2C
02E0C:  MOVLW  06
02E0E:  ADDWF  x2C,W
02E10:  MOVWF  01
02E12:  MOVLW  00
02E14:  ADDWFC x2D,W
02E16:  MOVWF  03
02E18:  MOVF   01,W
02E1A:  ADDLW  62
02E1C:  MOVWF  FE9
02E1E:  MOVLW  05
02E20:  ADDWFC 03,W
02E22:  MOVWF  FEA
02E24:  MOVF   FEF,W
02E26:  SUBLW  09
02E28:  BNC   2E54
....................          CiclosPersonalizados[i].NivelVacio=25;    
02E2A:  MOVLB  1
02E2C:  MOVF   xDA,W
02E2E:  MULLW  08
02E30:  MOVF   FF3,W
02E32:  MOVLB  6
02E34:  CLRF   x2D
02E36:  MOVWF  x2C
02E38:  MOVLW  06
02E3A:  ADDWF  x2C,W
02E3C:  MOVWF  01
02E3E:  MOVLW  00
02E40:  ADDWFC x2D,W
02E42:  MOVWF  03
02E44:  MOVF   01,W
02E46:  ADDLW  62
02E48:  MOVWF  FE9
02E4A:  MOVLW  05
02E4C:  ADDWFC 03,W
02E4E:  MOVWF  FEA
02E50:  MOVLW  19
02E52:  MOVWF  FEF
....................       if(CiclosPersonalizados[i].NivelDesfogue>6) 
02E54:  MOVLB  1
02E56:  MOVF   xDA,W
02E58:  MULLW  08
02E5A:  MOVF   FF3,W
02E5C:  MOVLB  6
02E5E:  CLRF   x2D
02E60:  MOVWF  x2C
02E62:  MOVLW  07
02E64:  ADDWF  x2C,W
02E66:  MOVWF  01
02E68:  MOVLW  00
02E6A:  ADDWFC x2D,W
02E6C:  MOVWF  03
02E6E:  MOVF   01,W
02E70:  ADDLW  62
02E72:  MOVWF  FE9
02E74:  MOVLW  05
02E76:  ADDWFC 03,W
02E78:  MOVWF  FEA
02E7A:  MOVF   FEF,W
02E7C:  SUBLW  06
02E7E:  BC    2EAA
....................          CiclosPersonalizados[i].NivelDesfogue=6; 
02E80:  MOVLB  1
02E82:  MOVF   xDA,W
02E84:  MULLW  08
02E86:  MOVF   FF3,W
02E88:  MOVLB  6
02E8A:  CLRF   x2D
02E8C:  MOVWF  x2C
02E8E:  MOVLW  07
02E90:  ADDWF  x2C,W
02E92:  MOVWF  01
02E94:  MOVLW  00
02E96:  ADDWFC x2D,W
02E98:  MOVWF  03
02E9A:  MOVF   01,W
02E9C:  ADDLW  62
02E9E:  MOVWF  FE9
02EA0:  MOVLW  05
02EA2:  ADDWFC 03,W
02EA4:  MOVWF  FEA
02EA6:  MOVLW  06
02EA8:  MOVWF  FEF
02EAA:  MOVLB  1
02EAC:  INCF   xDA,F
02EAE:  BRA    2962
....................    } 
....................     
....................    for(i=0;i<10;i++){//Lee contraseas de usuarios 
02EB0:  CLRF   xDA
02EB2:  MOVF   xDA,W
02EB4:  SUBLW  09
02EB6:  BNC   2F92
....................       for(j=0;j<4;j++){ 
02EB8:  MOVLB  2
02EBA:  CLRF   x29
02EBC:  MOVF   x29,W
02EBE:  SUBLW  03
02EC0:  BNC   2F8C
....................          Clave[i].Password[j]=read_eeprom((300+j)+(i*4)); 
02EC2:  MOVLB  1
02EC4:  MOVF   xDA,W
02EC6:  MULLW  04
02EC8:  MOVF   FF3,W
02ECA:  MOVLB  6
02ECC:  CLRF   x2D
02ECE:  MOVWF  x2C
02ED0:  CLRF   03
02ED2:  MOVLB  2
02ED4:  MOVF   x29,W
02ED6:  MOVLB  6
02ED8:  ADDWF  x2C,W
02EDA:  MOVWF  01
02EDC:  MOVF   x2D,W
02EDE:  ADDWFC 03,F
02EE0:  MOVF   01,W
02EE2:  ADDLW  02
02EE4:  MOVWF  FE9
02EE6:  MOVLW  06
02EE8:  ADDWFC 03,W
02EEA:  MOVWF  FEA
02EEC:  MOVLW  2C
02EEE:  MOVLB  2
02EF0:  ADDWF  x29,W
02EF2:  MOVLB  6
02EF4:  MOVWF  x2E
02EF6:  MOVLW  01
02EF8:  MOVWF  x2F
02EFA:  BTFSC  FD8.0
02EFC:  INCF   x2F,F
02EFE:  MOVLB  1
02F00:  MOVF   xDA,W
02F02:  MULLW  04
02F04:  MOVF   FF3,W
02F06:  MOVLB  6
02F08:  ADDWF  x2E,F
02F0A:  MOVLW  00
02F0C:  ADDWFC x2F,F
02F0E:  MOVFF  FF2,630
02F12:  BCF    FF2.7
02F14:  MOVFF  62F,FAA
02F18:  MOVFF  62E,FA9
02F1C:  BCF    FA6.6
02F1E:  BCF    FA6.7
02F20:  BSF    FA6.0
02F22:  MOVF   FA8,W
02F24:  BTFSC  x30.7
02F26:  BSF    FF2.7
02F28:  MOVWF  FEF
....................          if(Clave[i].Password[j]>9) 
02F2A:  MOVLB  1
02F2C:  MOVF   xDA,W
02F2E:  MULLW  04
02F30:  MOVF   FF3,W
02F32:  MOVLB  6
02F34:  CLRF   x2D
02F36:  MOVWF  x2C
02F38:  CLRF   03
02F3A:  MOVLB  2
02F3C:  MOVF   x29,W
02F3E:  MOVLB  6
02F40:  ADDWF  x2C,W
02F42:  MOVWF  01
02F44:  MOVF   x2D,W
02F46:  ADDWFC 03,F
02F48:  MOVF   01,W
02F4A:  ADDLW  02
02F4C:  MOVWF  FE9
02F4E:  MOVLW  06
02F50:  ADDWFC 03,W
02F52:  MOVWF  FEA
02F54:  MOVF   FEF,W
02F56:  SUBLW  09
02F58:  BC    2F86
....................             Clave[i].Password[j]=0; 
02F5A:  MOVLB  1
02F5C:  MOVF   xDA,W
02F5E:  MULLW  04
02F60:  MOVF   FF3,W
02F62:  MOVLB  6
02F64:  CLRF   x2D
02F66:  MOVWF  x2C
02F68:  CLRF   03
02F6A:  MOVLB  2
02F6C:  MOVF   x29,W
02F6E:  MOVLB  6
02F70:  ADDWF  x2C,W
02F72:  MOVWF  01
02F74:  MOVF   x2D,W
02F76:  ADDWFC 03,F
02F78:  MOVF   01,W
02F7A:  ADDLW  02
02F7C:  MOVWF  FE9
02F7E:  MOVLW  06
02F80:  ADDWFC 03,W
02F82:  MOVWF  FEA
02F84:  CLRF   FEF
02F86:  MOVLB  2
02F88:  INCF   x29,F
02F8A:  BRA    2EBC
....................       } 
02F8C:  MOVLB  1
02F8E:  INCF   xDA,F
02F90:  BRA    2EB2
....................    } 
....................     
....................    diaCiclos=read_ext_eeprom(2+(cicloVisto*320)); 
02F92:  MOVLB  6
02F94:  CLRF   x35
02F96:  MOVFF  219,634
02F9A:  MOVLW  01
02F9C:  MOVWF  x37
02F9E:  MOVLW  40
02FA0:  MOVWF  x36
02FA2:  MOVLB  0
02FA4:  CALL   234E
02FA8:  MOVFF  02,03
02FAC:  MOVF   01,W
02FAE:  ADDLW  02
02FB0:  MOVLB  6
02FB2:  MOVWF  x2C
02FB4:  MOVLW  00
02FB6:  ADDWFC 02,W
02FB8:  MOVWF  x2D
02FBA:  MOVWF  x32
02FBC:  MOVFF  62C,631
02FC0:  MOVLB  0
02FC2:  CALL   23A8
02FC6:  MOVFF  01,291
....................    if(diaCiclos>31) 
02FCA:  MOVLB  2
02FCC:  MOVF   x91,W
02FCE:  SUBLW  1F
02FD0:  BC    2FD6
....................       diaCiclos=1; 
02FD2:  MOVLW  01
02FD4:  MOVWF  x91
....................    mesCiclos=read_ext_eeprom(3+(cicloVisto*320)); 
02FD6:  MOVLB  6
02FD8:  CLRF   x35
02FDA:  MOVFF  219,634
02FDE:  MOVLW  01
02FE0:  MOVWF  x37
02FE2:  MOVLW  40
02FE4:  MOVWF  x36
02FE6:  MOVLB  0
02FE8:  CALL   234E
02FEC:  MOVFF  02,03
02FF0:  MOVF   01,W
02FF2:  ADDLW  03
02FF4:  MOVLB  6
02FF6:  MOVWF  x2C
02FF8:  MOVLW  00
02FFA:  ADDWFC 02,W
02FFC:  MOVWF  x2D
02FFE:  MOVWF  x32
03000:  MOVFF  62C,631
03004:  MOVLB  0
03006:  CALL   23A8
0300A:  MOVFF  01,292
....................    if(mesCiclos>12) 
0300E:  MOVLB  2
03010:  MOVF   x92,W
03012:  SUBLW  0C
03014:  BC    301A
....................       mesCiclos=1; 
03016:  MOVLW  01
03018:  MOVWF  x92
....................    yearCiclos=read_ext_eeprom(4+(cicloVisto*320)); 
0301A:  MOVLB  6
0301C:  CLRF   x35
0301E:  MOVFF  219,634
03022:  MOVLW  01
03024:  MOVWF  x37
03026:  MOVLW  40
03028:  MOVWF  x36
0302A:  MOVLB  0
0302C:  CALL   234E
03030:  MOVFF  02,03
03034:  MOVF   01,W
03036:  ADDLW  04
03038:  MOVLB  6
0303A:  MOVWF  x2C
0303C:  MOVLW  00
0303E:  ADDWFC 02,W
03040:  MOVWF  x2D
03042:  MOVWF  x32
03044:  MOVFF  62C,631
03048:  MOVLB  0
0304A:  CALL   23A8
0304E:  MOVFF  01,293
....................    if(yearCiclos>99) 
03052:  MOVLB  2
03054:  MOVF   x93,W
03056:  SUBLW  63
03058:  BC    305E
....................       yearCiclos=19; 
0305A:  MOVLW  13
0305C:  MOVWF  x93
....................    cicloCiclos=read_ext_eeprom(1+(cicloVisto*320)); 
0305E:  MOVLB  6
03060:  CLRF   x35
03062:  MOVFF  219,634
03066:  MOVLW  01
03068:  MOVWF  x37
0306A:  MOVLW  40
0306C:  MOVWF  x36
0306E:  MOVLB  0
03070:  CALL   234E
03074:  MOVFF  02,03
03078:  MOVF   01,W
0307A:  ADDLW  01
0307C:  MOVLB  6
0307E:  MOVWF  x2C
03080:  MOVLW  00
03082:  ADDWFC 02,W
03084:  MOVWF  x2D
03086:  MOVWF  x32
03088:  MOVFF  62C,631
0308C:  MOVLB  0
0308E:  CALL   23A8
03092:  MOVFF  01,295
....................    if(cicloCiclos>20) 
03096:  MOVLB  2
03098:  MOVF   x95,W
0309A:  SUBLW  14
0309C:  BC    30A2
....................       cicloCiclos=1; 
0309E:  MOVLW  01
030A0:  MOVWF  x95
....................    usuarioCiclos=read_ext_eeprom((cicloVisto*320)); 
030A2:  MOVLB  6
030A4:  CLRF   x35
030A6:  MOVFF  219,634
030AA:  MOVLW  01
030AC:  MOVWF  x37
030AE:  MOVLW  40
030B0:  MOVWF  x36
030B2:  MOVLB  0
030B4:  CALL   234E
030B8:  MOVFF  02,62D
030BC:  MOVFF  01,62C
030C0:  MOVFF  02,632
030C4:  MOVFF  01,631
030C8:  CALL   23A8
030CC:  MOVFF  01,294
....................    if(usuarioCiclos>10) 
030D0:  MOVLB  2
030D2:  MOVF   x94,W
030D4:  SUBLW  0A
030D6:  BC    30DC
....................       usuarioCiclos=1; 
030D8:  MOVLW  01
030DA:  MOVWF  x94
....................    for(i=0;i<7;i++){//Lee Valores para completar la Tabla 
030DC:  MOVLB  1
030DE:  CLRF   xDA
030E0:  MOVF   xDA,W
030E2:  SUBLW  06
030E4:  BTFSS  FD8.0
030E6:  BRA    3622
....................       horaCiclos[i]=read_ext_eeprom((cicloVisto*320)+11+((cicloVisualizado+i)*9)); 
030E8:  CLRF   03
030EA:  MOVF   xDA,W
030EC:  ADDLW  7C
030EE:  MOVWF  01
030F0:  MOVLW  02
030F2:  ADDWFC 03,F
030F4:  MOVFF  01,62C
030F8:  MOVLB  6
030FA:  MOVFF  03,62D
030FE:  CLRF   x35
03100:  MOVFF  219,634
03104:  MOVLW  01
03106:  MOVWF  x37
03108:  MOVLW  40
0310A:  MOVWF  x36
0310C:  MOVLB  0
0310E:  CALL   234E
03112:  MOVFF  02,62F
03116:  MOVFF  01,62E
0311A:  MOVLW  0B
0311C:  MOVLB  6
0311E:  ADDWF  x2E,F
03120:  MOVLW  00
03122:  ADDWFC x2F,F
03124:  MOVLB  1
03126:  MOVF   xDA,W
03128:  MOVLB  2
0312A:  ADDWF  x18,W
0312C:  MULLW  09
0312E:  MOVF   FF3,W
03130:  MOVLB  6
03132:  ADDWF  x2E,F
03134:  MOVLW  00
03136:  ADDWFC x2F,F
03138:  MOVFF  62F,632
0313C:  MOVFF  62E,631
03140:  MOVLB  0
03142:  CALL   23A8
03146:  MOVFF  62D,FEA
0314A:  MOVFF  62C,FE9
0314E:  MOVFF  01,FEF
....................       if(horaCiclos[i]>24) 
03152:  CLRF   03
03154:  MOVLB  1
03156:  MOVF   xDA,W
03158:  ADDLW  7C
0315A:  MOVWF  FE9
0315C:  MOVLW  02
0315E:  ADDWFC 03,W
03160:  MOVWF  FEA
03162:  MOVF   FEF,W
03164:  SUBLW  18
03166:  BC    3178
....................          horaCiclos[i]=0; 
03168:  CLRF   03
0316A:  MOVF   xDA,W
0316C:  ADDLW  7C
0316E:  MOVWF  FE9
03170:  MOVLW  02
03172:  ADDWFC 03,W
03174:  MOVWF  FEA
03176:  CLRF   FEF
....................       minutoCiclos[i]=read_ext_eeprom((cicloVisto*320)+12+((cicloVisualizado+i)*9)); 
03178:  CLRF   03
0317A:  MOVF   xDA,W
0317C:  ADDLW  83
0317E:  MOVWF  01
03180:  MOVLW  02
03182:  ADDWFC 03,F
03184:  MOVFF  01,62C
03188:  MOVLB  6
0318A:  MOVFF  03,62D
0318E:  CLRF   x35
03190:  MOVFF  219,634
03194:  MOVLW  01
03196:  MOVWF  x37
03198:  MOVLW  40
0319A:  MOVWF  x36
0319C:  MOVLB  0
0319E:  CALL   234E
031A2:  MOVFF  02,62F
031A6:  MOVFF  01,62E
031AA:  MOVLW  0C
031AC:  MOVLB  6
031AE:  ADDWF  x2E,F
031B0:  MOVLW  00
031B2:  ADDWFC x2F,F
031B4:  MOVLB  1
031B6:  MOVF   xDA,W
031B8:  MOVLB  2
031BA:  ADDWF  x18,W
031BC:  MULLW  09
031BE:  MOVF   FF3,W
031C0:  MOVLB  6
031C2:  ADDWF  x2E,F
031C4:  MOVLW  00
031C6:  ADDWFC x2F,F
031C8:  MOVFF  62F,632
031CC:  MOVFF  62E,631
031D0:  MOVLB  0
031D2:  CALL   23A8
031D6:  MOVFF  62D,FEA
031DA:  MOVFF  62C,FE9
031DE:  MOVFF  01,FEF
....................       if(minutoCiclos[i]>59) 
031E2:  CLRF   03
031E4:  MOVLB  1
031E6:  MOVF   xDA,W
031E8:  ADDLW  83
031EA:  MOVWF  FE9
031EC:  MOVLW  02
031EE:  ADDWFC 03,W
031F0:  MOVWF  FEA
031F2:  MOVF   FEF,W
031F4:  SUBLW  3B
031F6:  BC    3208
....................          minutoCiclos[i]=0; 
031F8:  CLRF   03
031FA:  MOVF   xDA,W
031FC:  ADDLW  83
031FE:  MOVWF  FE9
03200:  MOVLW  02
03202:  ADDWFC 03,W
03204:  MOVWF  FEA
03206:  CLRF   FEF
....................       TCiclos[i]=read_ext_eeprom((cicloVisto*320)+5+((cicloVisualizado+i)*9))+inttofloat(read_ext_eeprom((cicloVisto*320)+6+((cicloVisualizado+i)*9))); 
03208:  MOVF   xDA,W
0320A:  MULLW  04
0320C:  MOVF   FF3,W
0320E:  CLRF   03
03210:  ADDLW  44
03212:  MOVWF  01
03214:  MOVLW  02
03216:  ADDWFC 03,F
03218:  MOVFF  01,62C
0321C:  MOVLB  6
0321E:  MOVFF  03,62D
03222:  CLRF   x35
03224:  MOVFF  219,634
03228:  MOVLW  01
0322A:  MOVWF  x37
0322C:  MOVLW  40
0322E:  MOVWF  x36
03230:  MOVLB  0
03232:  CALL   234E
03236:  MOVFF  02,62F
0323A:  MOVFF  01,62E
0323E:  MOVLW  05
03240:  MOVLB  6
03242:  ADDWF  x2E,F
03244:  MOVLW  00
03246:  ADDWFC x2F,F
03248:  MOVLB  1
0324A:  MOVF   xDA,W
0324C:  MOVLB  2
0324E:  ADDWF  x18,W
03250:  MULLW  09
03252:  MOVF   FF3,W
03254:  MOVLB  6
03256:  ADDWF  x2E,F
03258:  MOVLW  00
0325A:  ADDWFC x2F,F
0325C:  MOVFF  62F,632
03260:  MOVFF  62E,631
03264:  MOVLB  0
03266:  CALL   23A8
0326A:  MOVFF  01,62E
0326E:  MOVLB  6
03270:  CLRF   x35
03272:  MOVFF  219,634
03276:  MOVLW  01
03278:  MOVWF  x37
0327A:  MOVLW  40
0327C:  MOVWF  x36
0327E:  MOVLB  0
03280:  CALL   234E
03284:  MOVFF  02,630
03288:  MOVFF  01,62F
0328C:  MOVLW  06
0328E:  MOVLB  6
03290:  ADDWF  x2F,F
03292:  MOVLW  00
03294:  ADDWFC x30,F
03296:  MOVLB  1
03298:  MOVF   xDA,W
0329A:  MOVLB  2
0329C:  ADDWF  x18,W
0329E:  MULLW  09
032A0:  MOVF   FF3,W
032A2:  MOVLB  6
032A4:  ADDWF  x2F,F
032A6:  MOVLW  00
032A8:  ADDWFC x30,F
032AA:  MOVFF  630,632
032AE:  MOVFF  62F,631
032B2:  MOVLB  0
032B4:  CALL   23A8
032B8:  MOVFF  01,62F
032BC:  MOVFF  01,630
032C0:  CALL   23F6
032C4:  MOVFF  03,632
032C8:  MOVFF  02,631
032CC:  MOVFF  01,630
032D0:  MOVFF  00,62F
032D4:  MOVLB  6
032D6:  CLRF   x3F
032D8:  MOVFF  62E,63E
032DC:  MOVLB  0
032DE:  CALL   1EA6
032E2:  BCF    FD8.1
032E4:  MOVFF  03,641
032E8:  MOVFF  02,640
032EC:  MOVFF  01,63F
032F0:  MOVFF  00,63E
032F4:  MOVFF  632,645
032F8:  MOVFF  631,644
032FC:  MOVFF  630,643
03300:  MOVFF  62F,642
03304:  CALL   2062
03308:  MOVFF  62D,FEA
0330C:  MOVFF  62C,FE9
03310:  MOVFF  00,FEF
03314:  MOVFF  01,FEC
03318:  MOVFF  02,FEC
0331C:  MOVFF  03,FEC
....................       if(TCiclos[i]>200) 
03320:  MOVLB  1
03322:  MOVF   xDA,W
03324:  MULLW  04
03326:  MOVF   FF3,W
03328:  CLRF   03
0332A:  ADDLW  44
0332C:  MOVWF  FE9
0332E:  MOVLW  02
03330:  ADDWFC 03,W
03332:  MOVWF  FEA
03334:  MOVFF  FEF,634
03338:  MOVFF  FEC,635
0333C:  MOVFF  FEC,636
03340:  MOVFF  FEC,637
03344:  MOVLB  6
03346:  CLRF   x33
03348:  CLRF   x32
0334A:  MOVLW  48
0334C:  MOVWF  x31
0334E:  MOVLW  86
03350:  MOVWF  x30
03352:  MOVLB  0
03354:  CALL   2436
03358:  BNC   3378
....................          TCiclos[i]=0; 
0335A:  MOVLB  1
0335C:  MOVF   xDA,W
0335E:  MULLW  04
03360:  MOVF   FF3,W
03362:  CLRF   03
03364:  ADDLW  44
03366:  MOVWF  FE9
03368:  MOVLW  02
0336A:  ADDWFC 03,W
0336C:  MOVWF  FEA
0336E:  CLRF   FEF
03370:  CLRF   FEC
03372:  CLRF   FEC
03374:  CLRF   FEC
03376:  MOVLB  0
....................       PcCiclos[i]=make16(read_ext_eeprom((cicloVisto*320)+7+((cicloVisualizado+i)*9)),read_ext_eeprom((cicloVisto*320)+8+((cicloVisualizado+i)*9))); 
03378:  BCF    FD8.0
0337A:  MOVLB  1
0337C:  RLCF   xDA,W
0337E:  CLRF   03
03380:  ADDLW  60
03382:  MOVWF  01
03384:  MOVLW  02
03386:  ADDWFC 03,F
03388:  MOVFF  01,62C
0338C:  MOVLB  6
0338E:  MOVFF  03,62D
03392:  CLRF   x35
03394:  MOVFF  219,634
03398:  MOVLW  01
0339A:  MOVWF  x37
0339C:  MOVLW  40
0339E:  MOVWF  x36
033A0:  MOVLB  0
033A2:  CALL   234E
033A6:  MOVFF  02,62F
033AA:  MOVFF  01,62E
033AE:  MOVLW  07
033B0:  MOVLB  6
033B2:  ADDWF  x2E,F
033B4:  MOVLW  00
033B6:  ADDWFC x2F,F
033B8:  MOVLB  1
033BA:  MOVF   xDA,W
033BC:  MOVLB  2
033BE:  ADDWF  x18,W
033C0:  MULLW  09
033C2:  MOVF   FF3,W
033C4:  MOVLB  6
033C6:  ADDWF  x2E,F
033C8:  MOVLW  00
033CA:  ADDWFC x2F,F
033CC:  MOVFF  62F,632
033D0:  MOVFF  62E,631
033D4:  MOVLB  0
033D6:  CALL   23A8
033DA:  MOVFF  01,62E
033DE:  MOVLB  6
033E0:  CLRF   x35
033E2:  MOVFF  219,634
033E6:  MOVLW  01
033E8:  MOVWF  x37
033EA:  MOVLW  40
033EC:  MOVWF  x36
033EE:  MOVLB  0
033F0:  CALL   234E
033F4:  MOVFF  02,630
033F8:  MOVFF  01,62F
033FC:  MOVLW  08
033FE:  MOVLB  6
03400:  ADDWF  x2F,F
03402:  MOVLW  00
03404:  ADDWFC x30,F
03406:  MOVLB  1
03408:  MOVF   xDA,W
0340A:  MOVLB  2
0340C:  ADDWF  x18,W
0340E:  MULLW  09
03410:  MOVF   FF3,W
03412:  MOVLB  6
03414:  ADDWF  x2F,F
03416:  MOVLW  00
03418:  ADDWFC x30,F
0341A:  MOVFF  630,632
0341E:  MOVFF  62F,631
03422:  MOVLB  0
03424:  CALL   23A8
03428:  MOVFF  62D,FEA
0342C:  MOVFF  62C,FE9
03430:  MOVFF  62E,FEC
03434:  MOVF   FED,F
03436:  MOVFF  01,FEF
....................       if(PcCiclos[i]>500) 
0343A:  BCF    FD8.0
0343C:  MOVLB  1
0343E:  RLCF   xDA,W
03440:  CLRF   03
03442:  ADDLW  60
03444:  MOVWF  FE9
03446:  MOVLW  02
03448:  ADDWFC 03,W
0344A:  MOVWF  FEA
0344C:  MOVFF  FEC,62D
03450:  MOVF   FED,F
03452:  MOVFF  FEF,62C
03456:  MOVLB  6
03458:  MOVF   x2D,W
0345A:  SUBLW  00
0345C:  BC    3482
0345E:  XORLW  FF
03460:  BNZ   3468
03462:  MOVF   x2C,W
03464:  SUBLW  F4
03466:  BC    3482
....................          PcCiclos[i]=0; 
03468:  BCF    FD8.0
0346A:  MOVLB  1
0346C:  RLCF   xDA,W
0346E:  CLRF   03
03470:  ADDLW  60
03472:  MOVWF  FE9
03474:  MOVLW  02
03476:  ADDWFC 03,W
03478:  MOVWF  FEA
0347A:  CLRF   FEC
0347C:  MOVF   FED,F
0347E:  CLRF   FEF
03480:  MOVLB  6
....................       PpcCiclos[i]=make16(read_ext_eeprom((cicloVisto*320)+9+((cicloVisualizado+i)*9)),read_ext_eeprom((cicloVisto*320)+10+((cicloVisualizado+i)*9))); 
03482:  BCF    FD8.0
03484:  MOVLB  1
03486:  RLCF   xDA,W
03488:  CLRF   03
0348A:  ADDLW  6E
0348C:  MOVWF  01
0348E:  MOVLW  02
03490:  ADDWFC 03,F
03492:  MOVFF  01,62C
03496:  MOVLB  6
03498:  MOVFF  03,62D
0349C:  CLRF   x35
0349E:  MOVFF  219,634
034A2:  MOVLW  01
034A4:  MOVWF  x37
034A6:  MOVLW  40
034A8:  MOVWF  x36
034AA:  MOVLB  0
034AC:  CALL   234E
034B0:  MOVFF  02,62F
034B4:  MOVFF  01,62E
034B8:  MOVLW  09
034BA:  MOVLB  6
034BC:  ADDWF  x2E,F
034BE:  MOVLW  00
034C0:  ADDWFC x2F,F
034C2:  MOVLB  1
034C4:  MOVF   xDA,W
034C6:  MOVLB  2
034C8:  ADDWF  x18,W
034CA:  MULLW  09
034CC:  MOVF   FF3,W
034CE:  MOVLB  6
034D0:  ADDWF  x2E,F
034D2:  MOVLW  00
034D4:  ADDWFC x2F,F
034D6:  MOVFF  62F,632
034DA:  MOVFF  62E,631
034DE:  MOVLB  0
034E0:  CALL   23A8
034E4:  MOVFF  01,62E
034E8:  MOVLB  6
034EA:  CLRF   x35
034EC:  MOVFF  219,634
034F0:  MOVLW  01
034F2:  MOVWF  x37
034F4:  MOVLW  40
034F6:  MOVWF  x36
034F8:  MOVLB  0
034FA:  CALL   234E
034FE:  MOVFF  02,630
03502:  MOVFF  01,62F
03506:  MOVLW  0A
03508:  MOVLB  6
0350A:  ADDWF  x2F,F
0350C:  MOVLW  00
0350E:  ADDWFC x30,F
03510:  MOVLB  1
03512:  MOVF   xDA,W
03514:  MOVLB  2
03516:  ADDWF  x18,W
03518:  MULLW  09
0351A:  MOVF   FF3,W
0351C:  MOVLB  6
0351E:  ADDWF  x2F,F
03520:  MOVLW  00
03522:  ADDWFC x30,F
03524:  MOVFF  630,632
03528:  MOVFF  62F,631
0352C:  MOVLB  0
0352E:  CALL   23A8
03532:  MOVFF  62D,FEA
03536:  MOVFF  62C,FE9
0353A:  MOVFF  62E,FEC
0353E:  MOVF   FED,F
03540:  MOVFF  01,FEF
....................       if(PpcCiclos[i]>500) 
03544:  BCF    FD8.0
03546:  MOVLB  1
03548:  RLCF   xDA,W
0354A:  CLRF   03
0354C:  ADDLW  6E
0354E:  MOVWF  FE9
03550:  MOVLW  02
03552:  ADDWFC 03,W
03554:  MOVWF  FEA
03556:  MOVFF  FEC,62D
0355A:  MOVF   FED,F
0355C:  MOVFF  FEF,62C
03560:  MOVLB  6
03562:  MOVF   x2D,W
03564:  SUBLW  00
03566:  BC    358C
03568:  XORLW  FF
0356A:  BNZ   3572
0356C:  MOVF   x2C,W
0356E:  SUBLW  F4
03570:  BC    358C
....................          PpcCiclos[i]=0; 
03572:  BCF    FD8.0
03574:  MOVLB  1
03576:  RLCF   xDA,W
03578:  CLRF   03
0357A:  ADDLW  6E
0357C:  MOVWF  FE9
0357E:  MOVLW  02
03580:  ADDWFC 03,W
03582:  MOVWF  FEA
03584:  CLRF   FEC
03586:  MOVF   FED,F
03588:  CLRF   FEF
0358A:  MOVLB  6
....................       ACiclos[i]=read_ext_eeprom((cicloVisto*320)+13+((cicloVisualizado+i)*9)); 
0358C:  CLRF   03
0358E:  MOVLB  1
03590:  MOVF   xDA,W
03592:  ADDLW  8A
03594:  MOVWF  01
03596:  MOVLW  02
03598:  ADDWFC 03,F
0359A:  MOVFF  01,62C
0359E:  MOVLB  6
035A0:  MOVFF  03,62D
035A4:  CLRF   x35
035A6:  MOVFF  219,634
035AA:  MOVLW  01
035AC:  MOVWF  x37
035AE:  MOVLW  40
035B0:  MOVWF  x36
035B2:  MOVLB  0
035B4:  CALL   234E
035B8:  MOVFF  02,62F
035BC:  MOVFF  01,62E
035C0:  MOVLW  0D
035C2:  MOVLB  6
035C4:  ADDWF  x2E,F
035C6:  MOVLW  00
035C8:  ADDWFC x2F,F
035CA:  MOVLB  1
035CC:  MOVF   xDA,W
035CE:  MOVLB  2
035D0:  ADDWF  x18,W
035D2:  MULLW  09
035D4:  MOVF   FF3,W
035D6:  MOVLB  6
035D8:  ADDWF  x2E,F
035DA:  MOVLW  00
035DC:  ADDWFC x2F,F
035DE:  MOVFF  62F,632
035E2:  MOVFF  62E,631
035E6:  MOVLB  0
035E8:  CALL   23A8
035EC:  MOVFF  62D,FEA
035F0:  MOVFF  62C,FE9
035F4:  MOVFF  01,FEF
....................       if(ACiclos[i]>10) 
035F8:  CLRF   03
035FA:  MOVLB  1
035FC:  MOVF   xDA,W
035FE:  ADDLW  8A
03600:  MOVWF  FE9
03602:  MOVLW  02
03604:  ADDWFC 03,W
03606:  MOVWF  FEA
03608:  MOVF   FEF,W
0360A:  SUBLW  0A
0360C:  BC    361E
....................          ACiclos[i]=0; 
0360E:  CLRF   03
03610:  MOVF   xDA,W
03612:  ADDLW  8A
03614:  MOVWF  FE9
03616:  MOVLW  02
03618:  ADDWFC 03,W
0361A:  MOVWF  FEA
0361C:  CLRF   FEF
0361E:  INCF   xDA,F
03620:  BRA    30E0
....................    } 
03622:  MOVLB  0
03624:  GOTO   6CAA (RETURN)
.................... } 
....................  
.................... void LimitaValores(){ 
....................    if(Ganancia>20.0){ 
*
0375C:  MOVLB  6
0375E:  CLRF   x33
03760:  CLRF   x32
03762:  MOVLW  20
03764:  MOVWF  x31
03766:  MOVLW  83
03768:  MOVWF  x30
0376A:  MOVFF  1A2,637
0376E:  MOVFF  1A1,636
03772:  MOVFF  1A0,635
03776:  MOVFF  19F,634
0377A:  MOVLB  0
0377C:  CALL   2436
03780:  BNC   37C8
....................       Ganancia=15.0; 
03782:  MOVLB  1
03784:  CLRF   xA2
03786:  CLRF   xA1
03788:  MOVLW  70
0378A:  MOVWF  xA0
0378C:  MOVLW  82
0378E:  MOVWF  x9F
....................       write_eeprom(20,15); 
03790:  MOVF   FF2,W
03792:  MOVWF  00
03794:  BCF    FF2.7
03796:  CLRF   FAA
03798:  MOVLW  14
0379A:  MOVWF  FA9
0379C:  MOVLW  0F
0379E:  MOVWF  FA8
037A0:  BCF    FA6.6
037A2:  BCF    FA6.7
037A4:  BSF    FA6.2
037A6:  MOVLB  F
037A8:  MOVLW  55
037AA:  MOVWF  FA7
037AC:  MOVLW  AA
037AE:  MOVWF  FA7
037B0:  BSF    FA6.1
037B2:  BTFSC  FA6.1
037B4:  BRA    37B2
037B6:  BCF    FA6.2
037B8:  MOVF   00,W
037BA:  IORWF  FF2,F
....................       delay_ms(10); 
037BC:  MOVLW  0A
037BE:  MOVLB  6
037C0:  MOVWF  x35
037C2:  MOVLB  0
037C4:  CALL   1EDC
....................    } 
....................    if(Sensor[0].Ajuste>50){ 
037C8:  MOVLB  2
037CA:  MOVF   xB8,W
037CC:  SUBLW  32
037CE:  BC    380E
....................       Sensor[0].Ajuste=11; 
037D0:  MOVLW  0B
037D2:  MOVWF  xB8
....................       write_eeprom(21,11); 
037D4:  MOVF   FF2,W
037D6:  MOVWF  00
037D8:  BCF    FF2.7
037DA:  CLRF   FAA
037DC:  MOVLW  15
037DE:  MOVWF  FA9
037E0:  MOVLW  0B
037E2:  MOVWF  FA8
037E4:  BCF    FA6.6
037E6:  BCF    FA6.7
037E8:  BSF    FA6.2
037EA:  MOVLB  F
037EC:  MOVLW  55
037EE:  MOVWF  FA7
037F0:  MOVLW  AA
037F2:  MOVWF  FA7
037F4:  BSF    FA6.1
037F6:  BTFSC  FA6.1
037F8:  BRA    37F6
037FA:  BCF    FA6.2
037FC:  MOVF   00,W
037FE:  IORWF  FF2,F
....................       delay_ms(10); 
03800:  MOVLW  0A
03802:  MOVLB  6
03804:  MOVWF  x35
03806:  MOVLB  0
03808:  CALL   1EDC
0380C:  MOVLB  2
....................    } 
....................    if(Sensor[0].Ajusten>50){ 
0380E:  MOVF   xB9,W
03810:  SUBLW  32
03812:  BC    384E
....................       Sensor[0].Ajusten=0; 
03814:  CLRF   xB9
....................       write_eeprom(22,0); 
03816:  MOVF   FF2,W
03818:  MOVWF  00
0381A:  BCF    FF2.7
0381C:  CLRF   FAA
0381E:  MOVLW  16
03820:  MOVWF  FA9
03822:  CLRF   FA8
03824:  BCF    FA6.6
03826:  BCF    FA6.7
03828:  BSF    FA6.2
0382A:  MOVLB  F
0382C:  MOVLW  55
0382E:  MOVWF  FA7
03830:  MOVLW  AA
03832:  MOVWF  FA7
03834:  BSF    FA6.1
03836:  BTFSC  FA6.1
03838:  BRA    3836
0383A:  BCF    FA6.2
0383C:  MOVF   00,W
0383E:  IORWF  FF2,F
....................       delay_ms(10); 
03840:  MOVLW  0A
03842:  MOVLB  6
03844:  MOVWF  x35
03846:  MOVLB  0
03848:  CALL   1EDC
0384C:  MOVLB  2
....................    } 
....................    if(Sensor[1].Ajuste>50){ 
0384E:  MOVLB  4
03850:  MOVF   x1C,W
03852:  SUBLW  32
03854:  BC    3890
....................       Sensor[1].Ajuste=0; 
03856:  CLRF   x1C
....................       write_eeprom(23,0); 
03858:  MOVF   FF2,W
0385A:  MOVWF  00
0385C:  BCF    FF2.7
0385E:  CLRF   FAA
03860:  MOVLW  17
03862:  MOVWF  FA9
03864:  CLRF   FA8
03866:  BCF    FA6.6
03868:  BCF    FA6.7
0386A:  BSF    FA6.2
0386C:  MOVLB  F
0386E:  MOVLW  55
03870:  MOVWF  FA7
03872:  MOVLW  AA
03874:  MOVWF  FA7
03876:  BSF    FA6.1
03878:  BTFSC  FA6.1
0387A:  BRA    3878
0387C:  BCF    FA6.2
0387E:  MOVF   00,W
03880:  IORWF  FF2,F
....................       delay_ms(10); 
03882:  MOVLW  0A
03884:  MOVLB  6
03886:  MOVWF  x35
03888:  MOVLB  0
0388A:  CALL   1EDC
0388E:  MOVLB  4
....................    } 
....................    if(Sensor[1].Ajusten>50){ 
03890:  MOVF   x1D,W
03892:  SUBLW  32
03894:  BC    38D0
....................       Sensor[1].Ajusten=0; 
03896:  CLRF   x1D
....................       write_eeprom(24,0); 
03898:  MOVF   FF2,W
0389A:  MOVWF  00
0389C:  BCF    FF2.7
0389E:  CLRF   FAA
038A0:  MOVLW  18
038A2:  MOVWF  FA9
038A4:  CLRF   FA8
038A6:  BCF    FA6.6
038A8:  BCF    FA6.7
038AA:  BSF    FA6.2
038AC:  MOVLB  F
038AE:  MOVLW  55
038B0:  MOVWF  FA7
038B2:  MOVLW  AA
038B4:  MOVWF  FA7
038B6:  BSF    FA6.1
038B8:  BTFSC  FA6.1
038BA:  BRA    38B8
038BC:  BCF    FA6.2
038BE:  MOVF   00,W
038C0:  IORWF  FF2,F
....................       delay_ms(10); 
038C2:  MOVLW  0A
038C4:  MOVLB  6
038C6:  MOVWF  x35
038C8:  MOVLB  0
038CA:  CALL   1EDC
038CE:  MOVLB  4
....................    } 
....................    if(MediaMovil>80){ 
038D0:  MOVLB  1
038D2:  MOVF   x7B,W
038D4:  SUBLW  50
038D6:  BC    3916
....................       MediaMovil=40; 
038D8:  MOVLW  28
038DA:  MOVWF  x7B
....................       write_eeprom(25,40); 
038DC:  MOVF   FF2,W
038DE:  MOVWF  00
038E0:  BCF    FF2.7
038E2:  CLRF   FAA
038E4:  MOVLW  19
038E6:  MOVWF  FA9
038E8:  MOVLW  28
038EA:  MOVWF  FA8
038EC:  BCF    FA6.6
038EE:  BCF    FA6.7
038F0:  BSF    FA6.2
038F2:  MOVLB  F
038F4:  MOVLW  55
038F6:  MOVWF  FA7
038F8:  MOVLW  AA
038FA:  MOVWF  FA7
038FC:  BSF    FA6.1
038FE:  BTFSC  FA6.1
03900:  BRA    38FE
03902:  BCF    FA6.2
03904:  MOVF   00,W
03906:  IORWF  FF2,F
....................       delay_ms(10); 
03908:  MOVLW  0A
0390A:  MOVLB  6
0390C:  MOVWF  x35
0390E:  MOVLB  0
03910:  CALL   1EDC
03914:  MOVLB  1
....................    } 
....................    if(Tciclo>10){ 
03916:  MOVLB  6
03918:  CLRF   x33
0391A:  CLRF   x32
0391C:  MOVLW  20
0391E:  MOVWF  x31
03920:  MOVLW  82
03922:  MOVWF  x30
03924:  MOVFF  18A,637
03928:  MOVFF  189,636
0392C:  MOVFF  188,635
03930:  MOVFF  187,634
03934:  MOVLB  0
03936:  CALL   2436
0393A:  BNC   3982
....................       Tciclo=10; 
0393C:  MOVLB  1
0393E:  CLRF   x8A
03940:  CLRF   x89
03942:  MOVLW  20
03944:  MOVWF  x88
03946:  MOVLW  82
03948:  MOVWF  x87
....................       write_eeprom(26,10); 
0394A:  MOVF   FF2,W
0394C:  MOVWF  00
0394E:  BCF    FF2.7
03950:  CLRF   FAA
03952:  MOVLW  1A
03954:  MOVWF  FA9
03956:  MOVLW  0A
03958:  MOVWF  FA8
0395A:  BCF    FA6.6
0395C:  BCF    FA6.7
0395E:  BSF    FA6.2
03960:  MOVLB  F
03962:  MOVLW  55
03964:  MOVWF  FA7
03966:  MOVLW  AA
03968:  MOVWF  FA7
0396A:  BSF    FA6.1
0396C:  BTFSC  FA6.1
0396E:  BRA    396C
03970:  BCF    FA6.2
03972:  MOVF   00,W
03974:  IORWF  FF2,F
....................       delay_ms(10); 
03976:  MOVLW  0A
03978:  MOVLB  6
0397A:  MOVWF  x35
0397C:  MOVLB  0
0397E:  CALL   1EDC
....................    } 
....................    if(Sensor[0].RPT100>2.0){ 
03982:  MOVLB  6
03984:  CLRF   x33
03986:  CLRF   x32
03988:  CLRF   x31
0398A:  MOVLW  80
0398C:  MOVWF  x30
0398E:  MOVFF  2AD,637
03992:  MOVFF  2AC,636
03996:  MOVFF  2AB,635
0399A:  MOVFF  2AA,634
0399E:  MOVLB  0
039A0:  CALL   2436
039A4:  BNC   3A20
....................       Sensor[0].RPT100=0.5; 
039A6:  MOVLB  2
039A8:  CLRF   xAD
039AA:  CLRF   xAC
039AC:  CLRF   xAB
039AE:  MOVLW  7E
039B0:  MOVWF  xAA
....................       write_eeprom(28,0); 
039B2:  MOVF   FF2,W
039B4:  MOVWF  00
039B6:  BCF    FF2.7
039B8:  CLRF   FAA
039BA:  MOVLW  1C
039BC:  MOVWF  FA9
039BE:  CLRF   FA8
039C0:  BCF    FA6.6
039C2:  BCF    FA6.7
039C4:  BSF    FA6.2
039C6:  MOVLB  F
039C8:  MOVLW  55
039CA:  MOVWF  FA7
039CC:  MOVLW  AA
039CE:  MOVWF  FA7
039D0:  BSF    FA6.1
039D2:  BTFSC  FA6.1
039D4:  BRA    39D2
039D6:  BCF    FA6.2
039D8:  MOVF   00,W
039DA:  IORWF  FF2,F
....................       delay_ms(10); 
039DC:  MOVLW  0A
039DE:  MOVLB  6
039E0:  MOVWF  x35
039E2:  MOVLB  0
039E4:  CALL   1EDC
....................       write_eeprom(27,5); 
039E8:  MOVF   FF2,W
039EA:  MOVWF  00
039EC:  BCF    FF2.7
039EE:  CLRF   FAA
039F0:  MOVLW  1B
039F2:  MOVWF  FA9
039F4:  MOVLW  05
039F6:  MOVWF  FA8
039F8:  BCF    FA6.6
039FA:  BCF    FA6.7
039FC:  BSF    FA6.2
039FE:  MOVLB  F
03A00:  MOVLW  55
03A02:  MOVWF  FA7
03A04:  MOVLW  AA
03A06:  MOVWF  FA7
03A08:  BSF    FA6.1
03A0A:  BTFSC  FA6.1
03A0C:  BRA    3A0A
03A0E:  BCF    FA6.2
03A10:  MOVF   00,W
03A12:  IORWF  FF2,F
....................       delay_ms(10); 
03A14:  MOVLW  0A
03A16:  MOVLB  6
03A18:  MOVWF  x35
03A1A:  MOVLB  0
03A1C:  CALL   1EDC
....................    } 
....................    if(Sensor[1].RPT100>2.0){ 
03A20:  MOVLB  6
03A22:  CLRF   x33
03A24:  CLRF   x32
03A26:  CLRF   x31
03A28:  MOVLW  80
03A2A:  MOVWF  x30
03A2C:  MOVFF  411,637
03A30:  MOVFF  410,636
03A34:  MOVFF  40F,635
03A38:  MOVFF  40E,634
03A3C:  MOVLB  0
03A3E:  CALL   2436
03A42:  BNC   3ABE
....................       Sensor[1].RPT100=0.5; 
03A44:  MOVLB  4
03A46:  CLRF   x11
03A48:  CLRF   x10
03A4A:  CLRF   x0F
03A4C:  MOVLW  7E
03A4E:  MOVWF  x0E
....................       write_eeprom(30,0); 
03A50:  MOVF   FF2,W
03A52:  MOVWF  00
03A54:  BCF    FF2.7
03A56:  CLRF   FAA
03A58:  MOVLW  1E
03A5A:  MOVWF  FA9
03A5C:  CLRF   FA8
03A5E:  BCF    FA6.6
03A60:  BCF    FA6.7
03A62:  BSF    FA6.2
03A64:  MOVLB  F
03A66:  MOVLW  55
03A68:  MOVWF  FA7
03A6A:  MOVLW  AA
03A6C:  MOVWF  FA7
03A6E:  BSF    FA6.1
03A70:  BTFSC  FA6.1
03A72:  BRA    3A70
03A74:  BCF    FA6.2
03A76:  MOVF   00,W
03A78:  IORWF  FF2,F
....................       delay_ms(10); 
03A7A:  MOVLW  0A
03A7C:  MOVLB  6
03A7E:  MOVWF  x35
03A80:  MOVLB  0
03A82:  CALL   1EDC
....................       write_eeprom(29,5); 
03A86:  MOVF   FF2,W
03A88:  MOVWF  00
03A8A:  BCF    FF2.7
03A8C:  CLRF   FAA
03A8E:  MOVLW  1D
03A90:  MOVWF  FA9
03A92:  MOVLW  05
03A94:  MOVWF  FA8
03A96:  BCF    FA6.6
03A98:  BCF    FA6.7
03A9A:  BSF    FA6.2
03A9C:  MOVLB  F
03A9E:  MOVLW  55
03AA0:  MOVWF  FA7
03AA2:  MOVLW  AA
03AA4:  MOVWF  FA7
03AA6:  BSF    FA6.1
03AA8:  BTFSC  FA6.1
03AAA:  BRA    3AA8
03AAC:  BCF    FA6.2
03AAE:  MOVF   00,W
03AB0:  IORWF  FF2,F
....................       delay_ms(10); 
03AB2:  MOVLW  0A
03AB4:  MOVLB  6
03AB6:  MOVWF  x35
03AB8:  MOVLB  0
03ABA:  CALL   1EDC
....................    } 
....................    if(Atmosferica>100){ 
03ABE:  MOVLB  2
03AC0:  MOVF   x1B,W
03AC2:  SUBLW  64
03AC4:  BC    3B04
....................       Atmosferica=69; 
03AC6:  MOVLW  45
03AC8:  MOVWF  x1B
....................       write_eeprom(31,69); 
03ACA:  MOVF   FF2,W
03ACC:  MOVWF  00
03ACE:  BCF    FF2.7
03AD0:  CLRF   FAA
03AD2:  MOVLW  1F
03AD4:  MOVWF  FA9
03AD6:  MOVLW  45
03AD8:  MOVWF  FA8
03ADA:  BCF    FA6.6
03ADC:  BCF    FA6.7
03ADE:  BSF    FA6.2
03AE0:  MOVLB  F
03AE2:  MOVLW  55
03AE4:  MOVWF  FA7
03AE6:  MOVLW  AA
03AE8:  MOVWF  FA7
03AEA:  BSF    FA6.1
03AEC:  BTFSC  FA6.1
03AEE:  BRA    3AEC
03AF0:  BCF    FA6.2
03AF2:  MOVF   00,W
03AF4:  IORWF  FF2,F
....................       delay_ms(10); 
03AF6:  MOVLW  0A
03AF8:  MOVLB  6
03AFA:  MOVWF  x35
03AFC:  MOVLB  0
03AFE:  CALL   1EDC
03B02:  MOVLB  2
....................    } 
....................    if(Tapertura>100){ 
03B04:  MOVLB  1
03B06:  MOVF   xDE,W
03B08:  SUBLW  64
03B0A:  BC    3B48
....................       Tapertura=85; 
03B0C:  MOVLW  55
03B0E:  MOVWF  xDE
....................       write_eeprom(32,85); 
03B10:  MOVF   FF2,W
03B12:  MOVWF  00
03B14:  BCF    FF2.7
03B16:  CLRF   FAA
03B18:  MOVLW  20
03B1A:  MOVWF  FA9
03B1C:  MOVLW  55
03B1E:  MOVWF  FA8
03B20:  BCF    FA6.6
03B22:  BCF    FA6.7
03B24:  BSF    FA6.2
03B26:  MOVLB  F
03B28:  MOVWF  FA7
03B2A:  MOVLW  AA
03B2C:  MOVWF  FA7
03B2E:  BSF    FA6.1
03B30:  BTFSC  FA6.1
03B32:  BRA    3B30
03B34:  BCF    FA6.2
03B36:  MOVF   00,W
03B38:  IORWF  FF2,F
....................       delay_ms(10); 
03B3A:  MOVLW  0A
03B3C:  MOVLB  6
03B3E:  MOVWF  x35
03B40:  MOVLB  0
03B42:  CALL   1EDC
03B46:  MOVLB  1
....................    } 
....................    if(Ciclos>60000){ 
03B48:  MOVF   xF8,W
03B4A:  SUBLW  E9
03B4C:  BC    3BCA
03B4E:  XORLW  FF
03B50:  BNZ   3B58
03B52:  MOVF   xF7,W
03B54:  SUBLW  60
03B56:  BC    3BCA
....................       Ciclos=0; 
03B58:  CLRF   xF8
03B5A:  CLRF   xF7
....................       write_eeprom(37,0); 
03B5C:  MOVF   FF2,W
03B5E:  MOVWF  00
03B60:  BCF    FF2.7
03B62:  CLRF   FAA
03B64:  MOVLW  25
03B66:  MOVWF  FA9
03B68:  CLRF   FA8
03B6A:  BCF    FA6.6
03B6C:  BCF    FA6.7
03B6E:  BSF    FA6.2
03B70:  MOVLB  F
03B72:  MOVLW  55
03B74:  MOVWF  FA7
03B76:  MOVLW  AA
03B78:  MOVWF  FA7
03B7A:  BSF    FA6.1
03B7C:  BTFSC  FA6.1
03B7E:  BRA    3B7C
03B80:  BCF    FA6.2
03B82:  MOVF   00,W
03B84:  IORWF  FF2,F
....................       delay_ms(10); 
03B86:  MOVLW  0A
03B88:  MOVLB  6
03B8A:  MOVWF  x35
03B8C:  MOVLB  0
03B8E:  CALL   1EDC
....................       write_eeprom(38,0); 
03B92:  MOVF   FF2,W
03B94:  MOVWF  00
03B96:  BCF    FF2.7
03B98:  CLRF   FAA
03B9A:  MOVLW  26
03B9C:  MOVWF  FA9
03B9E:  CLRF   FA8
03BA0:  BCF    FA6.6
03BA2:  BCF    FA6.7
03BA4:  BSF    FA6.2
03BA6:  MOVLB  F
03BA8:  MOVLW  55
03BAA:  MOVWF  FA7
03BAC:  MOVLW  AA
03BAE:  MOVWF  FA7
03BB0:  BSF    FA6.1
03BB2:  BTFSC  FA6.1
03BB4:  BRA    3BB2
03BB6:  BCF    FA6.2
03BB8:  MOVF   00,W
03BBA:  IORWF  FF2,F
....................       delay_ms(10); 
03BBC:  MOVLW  0A
03BBE:  MOVLB  6
03BC0:  MOVWF  x35
03BC2:  MOVLB  0
03BC4:  CALL   1EDC
03BC8:  MOVLB  1
....................    } 
....................    if(sg1==10){ 
03BCA:  MOVLB  2
03BCC:  MOVF   x2E,W
03BCE:  SUBLW  0A
03BD0:  BNZ   3BE4
....................       G1=G1*(-1); 
03BD2:  MOVFF  22C,633
03BD6:  MOVLB  6
03BD8:  SETF   x34
03BDA:  MOVLB  0
03BDC:  RCALL  370E
03BDE:  MOVFF  01,22C
03BE2:  MOVLB  2
....................    } 
....................    if(sg2==10){ 
03BE4:  MOVF   x2F,W
03BE6:  SUBLW  0A
03BE8:  BNZ   3BFC
....................       G2=G2*(-1); 
03BEA:  MOVFF  22D,633
03BEE:  MOVLB  6
03BF0:  SETF   x34
03BF2:  MOVLB  0
03BF4:  RCALL  370E
03BF6:  MOVFF  01,22D
03BFA:  MOVLB  2
....................    } 
03BFC:  MOVLB  0
03BFE:  GOTO   6CBE (RETURN)
.................... } 
....................  
.................... void LeeDisplay(void){ 
....................    if(Dato_Exitoso==5){ 
*
04896:  MOVLB  1
04898:  MOVF   xD5,W
0489A:  SUBLW  05
0489C:  BTFSS  FD8.2
0489E:  BRA    4A80
....................          RX_Buffer[0]=RX_Buffer2[0]; 
048A0:  MOVFF  43,38
....................          RX_Buffer[1]=RX_Buffer2[1]; 
048A4:  MOVFF  44,39
....................          RX_Buffer[2]=RX_Buffer2[2]; 
048A8:  MOVFF  45,3A
....................          RX_Buffer[3]=RX_Buffer2[3]; 
048AC:  MOVFF  46,3B
....................          RX_Buffer[4]=RX_Buffer2[4]; 
048B0:  MOVFF  47,3C
....................          RX_Buffer[5]=RX_Buffer2[5]; 
048B4:  MOVFF  48,3D
....................          RX_Buffer[6]=RX_Buffer2[6]; 
048B8:  MOVFF  49,3E
....................          RX_Buffer[7]=RX_Buffer2[7]; 
048BC:  MOVFF  4A,3F
....................          RX_Buffer[8]=RX_Buffer2[8]; 
048C0:  MOVFF  4B,40
....................          RX_Buffer[9]=RX_Buffer2[9]; 
048C4:  MOVFF  4C,41
....................           
....................       if(RX_Buffer[3]==0x01){// Pregunta por la pagina en la que esta el display,01 es Contrasea de Acceso 
048C8:  DECFSZ 3B,W
048CA:  BRA    48DA
....................          Menu=0; 
048CC:  CLRF   xD7
....................          if(MenuAntt!=Menu) 
048CE:  MOVF   xD7,W
048D0:  SUBWF  xD9,W
048D2:  BZ    48D8
....................             MenuAntt=Menu; 
048D4:  MOVFF  1D7,1D9
....................       }else if(RX_Buffer[3]==0x02){//02 es Ciclos Fijos 
048D8:  BRA    4A80
048DA:  MOVF   3B,W
048DC:  SUBLW  02
048DE:  BNZ   48F0
....................          Menu=1; 
048E0:  MOVLW  01
048E2:  MOVWF  xD7
....................          if(MenuAntt!=Menu) 
048E4:  MOVF   xD7,W
048E6:  SUBWF  xD9,W
048E8:  BZ    48EE
....................             MenuAntt=Menu; 
048EA:  MOVFF  1D7,1D9
....................       }else if(RX_Buffer[3]==0x03){//03 es Tiempo Esterilizacion 
048EE:  BRA    4A80
048F0:  MOVF   3B,W
048F2:  SUBLW  03
048F4:  BNZ   4906
....................          Menu=2; 
048F6:  MOVLW  02
048F8:  MOVWF  xD7
....................          if(MenuAntt!=Menu) 
048FA:  MOVF   xD7,W
048FC:  SUBWF  xD9,W
048FE:  BZ    4904
....................             MenuAntt=Menu; 
04900:  MOVFF  1D7,1D9
....................       }else if(RX_Buffer[3]==0x04){//04 es Tiempo de Secado 
04904:  BRA    4A80
04906:  MOVF   3B,W
04908:  SUBLW  04
0490A:  BNZ   491C
....................          Menu=3; 
0490C:  MOVLW  03
0490E:  MOVWF  xD7
....................          if(MenuAntt!=Menu) 
04910:  MOVF   xD7,W
04912:  SUBWF  xD9,W
04914:  BZ    491A
....................             MenuAntt=Menu; 
04916:  MOVFF  1D7,1D9
....................       }else if(RX_Buffer[3]==0x05){//05 es Temperatura 
0491A:  BRA    4A80
0491C:  MOVF   3B,W
0491E:  SUBLW  05
04920:  BNZ   4932
....................          Menu=4; 
04922:  MOVLW  04
04924:  MOVWF  xD7
....................          if(MenuAntt!=Menu) 
04926:  MOVF   xD7,W
04928:  SUBWF  xD9,W
0492A:  BZ    4930
....................             MenuAntt=Menu; 
0492C:  MOVFF  1D7,1D9
....................       }else if(RX_Buffer[3]==0x06){//06 es Nivel de Vacio 
04930:  BRA    4A80
04932:  MOVF   3B,W
04934:  SUBLW  06
04936:  BNZ   4948
....................          Menu=5; 
04938:  MOVLW  05
0493A:  MOVWF  xD7
....................          if(MenuAntt!=Menu) 
0493C:  MOVF   xD7,W
0493E:  SUBWF  xD9,W
04940:  BZ    4946
....................             MenuAntt=Menu; 
04942:  MOVFF  1D7,1D9
....................       }else if(RX_Buffer[3]==0x07){//07 es Test de Componentes 
04946:  BRA    4A80
04948:  MOVF   3B,W
0494A:  SUBLW  07
0494C:  BNZ   495E
....................          Menu=6; 
0494E:  MOVLW  06
04950:  MOVWF  xD7
....................          if(MenuAntt!=Menu) 
04952:  MOVF   xD7,W
04954:  SUBWF  xD9,W
04956:  BZ    495C
....................             MenuAntt=Menu; 
04958:  MOVFF  1D7,1D9
....................       }else if(RX_Buffer[3]==0x08){//08 es Fecha y hora 
0495C:  BRA    4A80
0495E:  MOVF   3B,W
04960:  SUBLW  08
04962:  BNZ   4974
....................          Menu=7; 
04964:  MOVLW  07
04966:  MOVWF  xD7
....................          if(MenuAntt!=Menu) 
04968:  MOVF   xD7,W
0496A:  SUBWF  xD9,W
0496C:  BZ    4972
....................             MenuAntt=Menu; 
0496E:  MOVFF  1D7,1D9
....................       }else if(RX_Buffer[3]==0x09){//09 es Ciclos Personalizados 
04972:  BRA    4A80
04974:  MOVF   3B,W
04976:  SUBLW  09
04978:  BNZ   498A
....................          Menu=8; 
0497A:  MOVLW  08
0497C:  MOVWF  xD7
....................          if(MenuAntt!=Menu) 
0497E:  MOVF   xD7,W
04980:  SUBWF  xD9,W
04982:  BZ    4988
....................             MenuAntt=Menu; 
04984:  MOVFF  1D7,1D9
....................       }else if(RX_Buffer[3]==0x0a){//0a es Pulsos de Vacio 
04988:  BRA    4A80
0498A:  MOVF   3B,W
0498C:  SUBLW  0A
0498E:  BNZ   49A0
....................          Menu=9; 
04990:  MOVLW  09
04992:  MOVWF  xD7
....................          if(MenuAntt!=Menu) 
04994:  MOVF   xD7,W
04996:  SUBWF  xD9,W
04998:  BZ    499E
....................             MenuAntt=Menu; 
0499A:  MOVFF  1D7,1D9
....................       }else if(RX_Buffer[3]==0x0b){//0b es Usuarios 
0499E:  BRA    4A80
049A0:  MOVF   3B,W
049A2:  SUBLW  0B
049A4:  BNZ   49B6
....................          Menu=10; 
049A6:  MOVLW  0A
049A8:  MOVWF  xD7
....................          if(MenuAntt!=Menu) 
049AA:  MOVF   xD7,W
049AC:  SUBWF  xD9,W
049AE:  BZ    49B4
....................             MenuAntt=Menu; 
049B0:  MOVFF  1D7,1D9
....................       }else if(RX_Buffer[3]==0x0c){//0c es Configuraciones 
049B4:  BRA    4A80
049B6:  MOVF   3B,W
049B8:  SUBLW  0C
049BA:  BNZ   49CC
....................          Menu=11; 
049BC:  MOVLW  0B
049BE:  MOVWF  xD7
....................          if(MenuAntt!=Menu) 
049C0:  MOVF   xD7,W
049C2:  SUBWF  xD9,W
049C4:  BZ    49CA
....................             MenuAntt=Menu; 
049C6:  MOVFF  1D7,1D9
....................       }else if(RX_Buffer[3]==0x0d){//0d es Ciclos 
049CA:  BRA    4A80
049CC:  MOVF   3B,W
049CE:  SUBLW  0D
049D0:  BNZ   49E2
....................          Menu=12; 
049D2:  MOVLW  0C
049D4:  MOVWF  xD7
....................          if(MenuAntt!=Menu) 
049D6:  MOVF   xD7,W
049D8:  SUBWF  xD9,W
049DA:  BZ    49E0
....................             MenuAntt=Menu; 
049DC:  MOVFF  1D7,1D9
....................       }else if(RX_Buffer[3]==0x0e){//0d es Activacion de Ciclos 
049E0:  BRA    4A80
049E2:  MOVF   3B,W
049E4:  SUBLW  0E
049E6:  BNZ   49F8
....................          Menu=14; 
049E8:  MOVLW  0E
049EA:  MOVWF  xD7
....................          if(MenuAntt!=Menu) 
049EC:  MOVF   xD7,W
049EE:  SUBWF  xD9,W
049F0:  BZ    49F6
....................             MenuAntt=Menu; 
049F2:  MOVFF  1D7,1D9
....................       }else if(RX_Buffer[3]==0x10){//10 es Nivel de Desfogue 
049F6:  BRA    4A80
049F8:  MOVF   3B,W
049FA:  SUBLW  10
049FC:  BNZ   4A0E
....................          Menu=13; 
049FE:  MOVLW  0D
04A00:  MOVWF  xD7
....................          if(MenuAntt!=Menu) 
04A02:  MOVF   xD7,W
04A04:  SUBWF  xD9,W
04A06:  BZ    4A0C
....................             MenuAntt=Menu; 
04A08:  MOVFF  1D7,1D9
....................       }else if(RX_Buffer[3]==0x0f){//0f es Recibe caracteres de contrasea desde display 
04A0C:  BRA    4A80
04A0E:  MOVF   3B,W
04A10:  SUBLW  0F
04A12:  BNZ   4A16
....................           
....................       }else if(RX_Buffer[3]==0x1a){//1a es Menu de Funcionamiento 
04A14:  BRA    4A80
04A16:  MOVF   3B,W
04A18:  SUBLW  1A
04A1A:  BNZ   4A2C
....................          Menu=20; 
04A1C:  MOVLW  14
04A1E:  MOVWF  xD7
....................          if(MenuAntt!=Menu) 
04A20:  MOVF   xD7,W
04A22:  SUBWF  xD9,W
04A24:  BZ    4A2A
....................             MenuAntt=Menu; 
04A26:  MOVFF  1D7,1D9
....................       }else if(RX_Buffer[3]==0x1b){//1b es Menu de clave correcta 
04A2A:  BRA    4A80
04A2C:  MOVF   3B,W
04A2E:  SUBLW  1B
04A30:  BNZ   4A42
....................          Menu=15; 
04A32:  MOVLW  0F
04A34:  MOVWF  xD7
....................          if(MenuAntt!=Menu) 
04A36:  MOVF   xD7,W
04A38:  SUBWF  xD9,W
04A3A:  BZ    4A40
....................             MenuAntt=Menu; 
04A3C:  MOVFF  1D7,1D9
....................       }else if(RX_Buffer[3]==0x1c){//1c es Menu de clave incorrecta 
04A40:  BRA    4A80
04A42:  MOVF   3B,W
04A44:  SUBLW  1C
04A46:  BNZ   4A58
....................          Menu=16; 
04A48:  MOVLW  10
04A4A:  MOVWF  xD7
....................          if(MenuAntt!=Menu) 
04A4C:  MOVF   xD7,W
04A4E:  SUBWF  xD9,W
04A50:  BZ    4A56
....................             MenuAntt=Menu; 
04A52:  MOVFF  1D7,1D9
....................       }else if(RX_Buffer[3]==0x2c){//2c es Menu de Configuracion de Parametros 
04A56:  BRA    4A80
04A58:  MOVF   3B,W
04A5A:  SUBLW  2C
04A5C:  BNZ   4A6E
....................          Menu=100; 
04A5E:  MOVLW  64
04A60:  MOVWF  xD7
....................          if(MenuAntt!=Menu) 
04A62:  MOVF   xD7,W
04A64:  SUBWF  xD9,W
04A66:  BZ    4A6C
....................             MenuAntt=Menu; 
04A68:  MOVFF  1D7,1D9
....................       }else if(RX_Buffer[3]==0xcc){//cc es Menu de Bienvenida 
04A6C:  BRA    4A80
04A6E:  MOVF   3B,W
04A70:  SUBLW  CC
04A72:  BNZ   4A80
....................          Menu=240; 
04A74:  MOVLW  F0
04A76:  MOVWF  xD7
....................          if(MenuAntt!=240) 
04A78:  MOVF   xD9,W
04A7A:  SUBLW  F0
04A7C:  BZ    4A80
....................             reset_cpu(); 
04A7E:  RESET
....................       } 
....................    } 
04A80:  MOVLB  0
04A82:  GOTO   6EC0 (RETURN)
.................... } 
....................  
.................... void ConfiguraCiclo(int8 este0,este1,este2,este3,secado0,secado1,secado2,secado3,liquidos,ciclo,temperatura){ 
....................    Testerilizacionp[0]=este0;Testerilizacionp[1]=este1;Testerilizacionp[2]=este2;Testerilizacionp[3]=este3; 
*
050D8:  MOVFF  638,A1
050DC:  MOVFF  639,A2
050E0:  MOVFF  63A,A3
050E4:  MOVFF  63B,A4
....................    Tsecadop[0]=secado0;Tsecadop[1]=secado1;Tsecadop[2]=secado2;Tsecadop[3]=secado3; 
050E8:  MOVFF  63C,A9
050EC:  MOVFF  63D,AA
050F0:  MOVFF  63E,AB
050F4:  MOVFF  63F,AC
....................    Setpoint=temperatura;                
050F8:  MOVFF  642,1E1
....................    tiempo_secado=0; 
050FC:  MOVLB  1
050FE:  CLRF   xE5
....................    if(Tsecadop[3]==0 && Tsecadop[2]==0){ 
05100:  MOVLB  0
05102:  MOVF   xAC,F
05104:  BNZ   510E
05106:  MOVF   xAB,F
05108:  BNZ   510E
....................       desfoguelento=1; 
0510A:  BSF    x92.2
....................    }else{ 
0510C:  BRA    5110
....................       desfoguelento=0; 
0510E:  BCF    x92.2
....................    } 
....................    CicloSeleccionado=ciclo;   
05110:  MOVFF  641,1DD
....................    Testerilizacion[0]=Testerilizacionp[0];Testerilizacion[1]=Testerilizacionp[1];Testerilizacion[2]=Testerilizacionp[2];Testerilizacion[3]=Testerilizacionp[3]; 
05114:  MOVFF  A1,9D
05118:  MOVFF  A2,9E
0511C:  MOVFF  A3,9F
05120:  MOVFF  A4,A0
....................    Tsecado[0]=Tsecadop[0];Tsecado[1]=Tsecadop[1];Tsecado[2]=Tsecadop[2];Tsecado[3]=Tsecadop[3]; 
05124:  MOVFF  A9,A5
05128:  MOVFF  AA,A6
0512C:  MOVFF  AB,A7
05130:  MOVFF  AC,A8
05134:  RETURN 0
.................... } 
....................  
.................... void ActivaAlarma(int8 Tipo){ 
....................     
....................    if(tsilencio>12000){ 
*
04EEE:  MOVLB  2
04EF0:  MOVF   x10,W
04EF2:  SUBLW  2D
04EF4:  BC    4F0A
04EF6:  XORLW  FF
04EF8:  BNZ   4F00
04EFA:  MOVF   x0F,W
04EFC:  SUBLW  E0
04EFE:  BC    4F0A
....................       tsilencio=0; 
04F00:  CLRF   x10
04F02:  CLRF   x0F
....................       flagSilencio=OFF; 
04F04:  MOVLB  0
04F06:  BCF    x90.2
04F08:  MOVLB  2
....................    } 
....................     
....................    if(Tipo==1){ // Alarma por Error 
04F0A:  MOVLB  6
04F0C:  DECFSZ x2C,W
04F0E:  BRA    4F68
....................    if(UP || DOWN || RIGHT || LEFT) 
04F10:  BSF    F93.6
04F12:  BTFSS  F81.6
04F14:  BRA    4F28
04F16:  BSF    F93.5
04F18:  BTFSS  F81.5
04F1A:  BRA    4F28
04F1C:  BSF    F93.4
04F1E:  BTFSS  F81.4
04F20:  BRA    4F28
04F22:  BSF    F93.3
04F24:  BTFSC  F81.3
04F26:  BRA    4F2E
....................       flagSilencio=ON; 
04F28:  MOVLB  0
04F2A:  BSF    x90.2
04F2C:  MOVLB  6
....................        
....................       if(!flagSilencio){ 
04F2E:  MOVLB  0
04F30:  BTFSC  x90.2
04F32:  BRA    4F5E
....................          flagAlarma=1; 
04F34:  BSF    x90.0
....................          if(tbuzzer>200){ 
04F36:  MOVLB  2
04F38:  MOVF   x0E,F
04F3A:  BNZ   4F42
04F3C:  MOVF   x0D,W
04F3E:  SUBLW  C8
04F40:  BC    4F5A
....................             tbuzzer=0; 
04F42:  CLRF   x0E
04F44:  CLRF   x0D
....................             flagBuzzer=!flagBuzzer; 
04F46:  MOVLB  0
04F48:  BTG    x90.1
....................             if(flagBuzzer) 
04F4A:  BTFSS  x90.1
04F4C:  BRA    4F54
....................                Buzzer_on; 
04F4E:  BSF    F8B.5
04F50:  BCF    F94.5
04F52:  BRA    4F58
....................             else 
....................                Buzzer_off; 
04F54:  BCF    F8B.5
04F56:  BCF    F94.5
04F58:  MOVLB  2
....................          } 
....................       }else{ 
04F5A:  BRA    4F64
04F5C:  MOVLB  0
....................          Buzzer_off; 
04F5E:  BCF    F8B.5
04F60:  BCF    F94.5
04F62:  MOVLB  2
....................       } 
....................    }else if(Tipo==2){  
04F64:  BRA    4FA4
04F66:  MOVLB  6
04F68:  MOVF   x2C,W
04F6A:  SUBLW  02
04F6C:  BNZ   4FA6
....................       flagAlarma=1; 
04F6E:  MOVLB  0
04F70:  BSF    x90.0
....................       if(ConteoBuzzer<20){    
04F72:  MOVLB  2
04F74:  MOVF   x08,W
04F76:  SUBLW  13
04F78:  BNC   4FA0
....................          if(tbuzzer>100){ 
04F7A:  MOVF   x0E,F
04F7C:  BNZ   4F84
04F7E:  MOVF   x0D,W
04F80:  SUBLW  64
04F82:  BC    4F9E
....................             tbuzzer=0; 
04F84:  CLRF   x0E
04F86:  CLRF   x0D
....................             flagBuzzer=!flagBuzzer; 
04F88:  MOVLB  0
04F8A:  BTG    x90.1
....................             if(flagBuzzer) 
04F8C:  BTFSS  x90.1
04F8E:  BRA    4F96
....................                Buzzer_on; 
04F90:  BSF    F8B.5
04F92:  BCF    F94.5
04F94:  BRA    4F9A
....................             else 
....................                Buzzer_off; 
04F96:  BCF    F8B.5
04F98:  BCF    F94.5
....................                 
....................             ConteoBuzzer++;    
04F9A:  MOVLB  2
04F9C:  INCF   x08,F
....................          } 
....................       }else{ 
04F9E:  BRA    4FA4
....................          Buzzer_off; 
04FA0:  BCF    F8B.5
04FA2:  BCF    F94.5
04FA4:  MOVLB  6
....................       } 
....................    } 
04FA6:  MOVLB  0
04FA8:  RETURN 0
.................... } 
....................  
.................... void ApagaSalidas(){ 
....................    Desfogue_off; 
*
03C6A:  BCF    F8C.3
03C6C:  BCF    F95.3
....................    Paso_off; 
03C6E:  BCF    F8C.1
03C70:  BCF    F95.1
....................    Vacio_off; 
03C72:  BCF    F8C.2
03C74:  BCF    F95.2
....................    Aire_off; 
03C76:  BCF    F8C.4
03C78:  BCF    F95.4
....................    Suministro_off; 
03C7A:  BCF    F8C.0
03C7C:  BCF    F95.0
....................    BombaVacio_off; 
03C7E:  BCF    F8C.5
03C80:  BCF    F95.5
....................    Buzzer_off; 
03C82:  BCF    F8B.5
03C84:  BCF    F94.5
....................    Agua_off; 
03C86:  BCF    F8C.6
03C88:  BCF    F95.6
....................    Controlando=0; 
03C8A:  MOVLB  1
03C8C:  CLRF   xD1
03C8E:  MOVLB  0
03C90:  RETURN 0
.................... } 
....................  
.................... void ControlaPresion(){ 
....................    if(PresionPrecamara>=130){ 
*
0655A:  MOVLB  1
0655C:  MOVF   xF6,F
0655E:  BNZ   6566
06560:  MOVF   xF5,W
06562:  SUBLW  81
06564:  BC    6570
....................       Suministro_off; 
06566:  BCF    F8C.0
06568:  BCF    F95.0
....................       Precalentamiento=ON; 
0656A:  MOVLB  0
0656C:  BSF    x91.2
0656E:  MOVLB  1
....................    } 
....................    if(PresionPrecamara<120) 
06570:  MOVF   xF6,F
06572:  BNZ   657E
06574:  MOVF   xF5,W
06576:  SUBLW  77
06578:  BNC   657E
....................       Suministro_on; 
0657A:  BSF    F8C.0
0657C:  BCF    F95.0
0657E:  MOVLB  0
06580:  RETURN 0
.................... } 
....................  
.................... void GuardaDatoEstatico(){ 
*
05E76:  MOVLB  6
05E78:  CLRF   x2D
05E7A:  CLRF   x2C
05E7C:  CLRF   x2F
05E7E:  CLRF   x2E
....................    int16 posCiclo=0,cicloMemoria=0; 
....................    posCiclo=Ciclos/200; 
05E80:  MOVFF  1F8,631
05E84:  MOVFF  1F7,630
05E88:  CLRF   x33
05E8A:  MOVLW  C8
05E8C:  MOVWF  x32
05E8E:  MOVLB  0
05E90:  CALL   5462
05E94:  MOVFF  02,62D
05E98:  MOVFF  01,62C
....................    cicloMemoria=Ciclos-(posCiclo*200); 
05E9C:  MOVFF  62D,635
05EA0:  MOVFF  62C,634
05EA4:  MOVLB  6
05EA6:  CLRF   x37
05EA8:  MOVLW  C8
05EAA:  MOVWF  x36
05EAC:  MOVLB  0
05EAE:  CALL   234E
05EB2:  MOVF   01,W
05EB4:  MOVLB  1
05EB6:  SUBWF  xF7,W
05EB8:  MOVLB  6
05EBA:  MOVWF  x2E
05EBC:  MOVF   02,W
05EBE:  MOVLB  1
05EC0:  SUBWFB xF8,W
05EC2:  MOVLB  6
05EC4:  MOVWF  x2F
....................    if(!disp_Guarda){ 
05EC6:  MOVLB  0
05EC8:  BTFSC  x8E.5
05ECA:  BRA    6060
....................       write_ext_eeprom(cicloMemoria*320,codigoUsuario); 
05ECC:  MOVFF  62F,635
05ED0:  MOVFF  62E,634
05ED4:  MOVLW  01
05ED6:  MOVLB  6
05ED8:  MOVWF  x37
05EDA:  MOVLW  40
05EDC:  MOVWF  x36
05EDE:  MOVLB  0
05EE0:  CALL   234E
05EE4:  MOVFF  02,631
05EE8:  MOVFF  01,630
05EEC:  MOVFF  02,634
05EF0:  MOVFF  01,633
05EF4:  MOVFF  22A,635
05EF8:  RCALL  5DF6
....................       delay_ms(10); 
05EFA:  MOVLW  0A
05EFC:  MOVLB  6
05EFE:  MOVWF  x35
05F00:  MOVLB  0
05F02:  CALL   1EDC
....................       if(!Libre) 
05F06:  BTFSC  x90.7
05F08:  BRA    5F44
....................          write_ext_eeprom(1+(cicloMemoria*320),CicloSeleccionado); 
05F0A:  MOVFF  62F,635
05F0E:  MOVFF  62E,634
05F12:  MOVLW  01
05F14:  MOVLB  6
05F16:  MOVWF  x37
05F18:  MOVLW  40
05F1A:  MOVWF  x36
05F1C:  MOVLB  0
05F1E:  CALL   234E
05F22:  MOVFF  02,03
05F26:  MOVF   01,W
05F28:  ADDLW  01
05F2A:  MOVLB  6
05F2C:  MOVWF  x30
05F2E:  MOVLW  00
05F30:  ADDWFC 02,W
05F32:  MOVWF  x31
05F34:  MOVWF  x34
05F36:  MOVFF  630,633
05F3A:  MOVFF  1DD,635
05F3E:  MOVLB  0
05F40:  RCALL  5DF6
05F42:  BRA    5F86
....................       else 
....................          write_ext_eeprom(1+(cicloMemoria*320),CicloLibre+10); 
05F44:  MOVFF  62F,635
05F48:  MOVFF  62E,634
05F4C:  MOVLW  01
05F4E:  MOVLB  6
05F50:  MOVWF  x37
05F52:  MOVLW  40
05F54:  MOVWF  x36
05F56:  MOVLB  0
05F58:  CALL   234E
05F5C:  MOVFF  02,03
05F60:  MOVF   01,W
05F62:  ADDLW  01
05F64:  MOVLB  6
05F66:  MOVWF  x30
05F68:  MOVLW  00
05F6A:  ADDWFC 02,W
05F6C:  MOVWF  x31
05F6E:  MOVLW  0A
05F70:  MOVLB  2
05F72:  ADDWF  x27,W
05F74:  MOVLB  6
05F76:  MOVWF  x32
05F78:  MOVFF  631,634
05F7C:  MOVFF  630,633
05F80:  MOVWF  x35
05F82:  MOVLB  0
05F84:  RCALL  5DF6
....................       delay_ms(10); 
05F86:  MOVLW  0A
05F88:  MOVLB  6
05F8A:  MOVWF  x35
05F8C:  MOVLB  0
05F8E:  CALL   1EDC
....................       write_ext_eeprom(2+(cicloMemoria*320),Dia); 
05F92:  MOVFF  62F,635
05F96:  MOVFF  62E,634
05F9A:  MOVLW  01
05F9C:  MOVLB  6
05F9E:  MOVWF  x37
05FA0:  MOVLW  40
05FA2:  MOVWF  x36
05FA4:  MOVLB  0
05FA6:  CALL   234E
05FAA:  MOVFF  02,03
05FAE:  MOVF   01,W
05FB0:  ADDLW  02
05FB2:  MOVLB  6
05FB4:  MOVWF  x30
05FB6:  MOVLW  00
05FB8:  ADDWFC 02,W
05FBA:  MOVWF  x31
05FBC:  MOVWF  x34
05FBE:  MOVFF  630,633
05FC2:  MOVFF  213,635
05FC6:  MOVLB  0
05FC8:  RCALL  5DF6
....................       delay_ms(10); 
05FCA:  MOVLW  0A
05FCC:  MOVLB  6
05FCE:  MOVWF  x35
05FD0:  MOVLB  0
05FD2:  CALL   1EDC
....................       write_ext_eeprom(3+(cicloMemoria*320),Mes); 
05FD6:  MOVFF  62F,635
05FDA:  MOVFF  62E,634
05FDE:  MOVLW  01
05FE0:  MOVLB  6
05FE2:  MOVWF  x37
05FE4:  MOVLW  40
05FE6:  MOVWF  x36
05FE8:  MOVLB  0
05FEA:  CALL   234E
05FEE:  MOVFF  02,03
05FF2:  MOVF   01,W
05FF4:  ADDLW  03
05FF6:  MOVLB  6
05FF8:  MOVWF  x30
05FFA:  MOVLW  00
05FFC:  ADDWFC 02,W
05FFE:  MOVWF  x31
06000:  MOVWF  x34
06002:  MOVFF  630,633
06006:  MOVFF  212,635
0600A:  MOVLB  0
0600C:  RCALL  5DF6
....................       delay_ms(10); 
0600E:  MOVLW  0A
06010:  MOVLB  6
06012:  MOVWF  x35
06014:  MOVLB  0
06016:  CALL   1EDC
....................       write_ext_eeprom(4+(cicloMemoria*320),Year); 
0601A:  MOVFF  62F,635
0601E:  MOVFF  62E,634
06022:  MOVLW  01
06024:  MOVLB  6
06026:  MOVWF  x37
06028:  MOVLW  40
0602A:  MOVWF  x36
0602C:  MOVLB  0
0602E:  CALL   234E
06032:  MOVFF  02,03
06036:  MOVF   01,W
06038:  ADDLW  04
0603A:  MOVLB  6
0603C:  MOVWF  x30
0603E:  MOVLW  00
06040:  ADDWFC 02,W
06042:  MOVWF  x31
06044:  MOVWF  x34
06046:  MOVFF  630,633
0604A:  MOVFF  211,635
0604E:  MOVLB  0
06050:  RCALL  5DF6
....................       delay_ms(10);  
06052:  MOVLW  0A
06054:  MOVLB  6
06056:  MOVWF  x35
06058:  MOVLB  0
0605A:  CALL   1EDC
....................       disp_Guarda=1; 
0605E:  BSF    x8E.5
....................    }    
06060:  GOTO   BF26 (RETURN)
.................... } 
....................  
.................... void GuardaDatoCiclo(){ 
*
0612E:  MOVLB  6
06130:  CLRF   x2D
06132:  CLRF   x2C
06134:  CLRF   x2F
06136:  CLRF   x2E
....................    int16 posCiclo=0,cicloMemoria=0; 
....................    posCiclo=Ciclos/200; 
06138:  MOVFF  1F8,631
0613C:  MOVFF  1F7,630
06140:  CLRF   x33
06142:  MOVLW  C8
06144:  MOVWF  x32
06146:  MOVLB  0
06148:  CALL   5462
0614C:  MOVFF  02,62D
06150:  MOVFF  01,62C
....................    if(!Ciclo){ 
06154:  BTFSC  x8E.6
06156:  BRA    64D0
....................       cicloMemoria=Ciclos-(posCiclo*200); 
06158:  MOVFF  62D,635
0615C:  MOVFF  62C,634
06160:  MOVLB  6
06162:  CLRF   x37
06164:  MOVLW  C8
06166:  MOVWF  x36
06168:  MOVLB  0
0616A:  CALL   234E
0616E:  MOVF   01,W
06170:  MOVLB  1
06172:  SUBWF  xF7,W
06174:  MOVLB  6
06176:  MOVWF  x2E
06178:  MOVF   02,W
0617A:  MOVLB  1
0617C:  SUBWFB xF8,W
0617E:  MOVLB  6
06180:  MOVWF  x2F
....................       write_ext_eeprom(5+(cicloMemoria*320)+(posicionDato*9),(int8)Temperatura); 
06182:  MOVFF  62F,635
06186:  MOVFF  62E,634
0618A:  MOVLW  01
0618C:  MOVWF  x37
0618E:  MOVLW  40
06190:  MOVWF  x36
06192:  MOVLB  0
06194:  CALL   234E
06198:  MOVFF  02,03
0619C:  MOVF   01,W
0619E:  ADDLW  05
061A0:  MOVLB  6
061A2:  MOVWF  x30
061A4:  MOVLW  00
061A6:  ADDWFC 02,W
061A8:  MOVWF  x31
061AA:  MOVLB  2
061AC:  MOVF   x09,W
061AE:  MULLW  09
061B0:  MOVF   FF3,W
061B2:  MOVLB  6
061B4:  ADDWF  x30,F
061B6:  MOVLW  00
061B8:  ADDWFC x31,F
061BA:  MOVFF  1BE,641
061BE:  MOVFF  1BD,640
061C2:  MOVFF  1BC,63F
061C6:  MOVFF  1BB,63E
061CA:  MOVLB  0
061CC:  CALL   4CB2
061D0:  MOVFF  01,632
061D4:  MOVFF  631,634
061D8:  MOVFF  630,633
061DC:  MOVFF  01,635
061E0:  RCALL  5DF6
....................       delay_ms(10); 
061E2:  MOVLW  0A
061E4:  MOVLB  6
061E6:  MOVWF  x35
061E8:  MOVLB  0
061EA:  CALL   1EDC
....................       write_ext_eeprom(6+(cicloMemoria*320)+(posicionDato*9),extraeDecimal(Temperatura)); 
061EE:  MOVFF  62F,635
061F2:  MOVFF  62E,634
061F6:  MOVLW  01
061F8:  MOVLB  6
061FA:  MOVWF  x37
061FC:  MOVLW  40
061FE:  MOVWF  x36
06200:  MOVLB  0
06202:  CALL   234E
06206:  MOVFF  02,03
0620A:  MOVF   01,W
0620C:  ADDLW  06
0620E:  MOVLB  6
06210:  MOVWF  x30
06212:  MOVLW  00
06214:  ADDWFC 02,W
06216:  MOVWF  x31
06218:  MOVLB  2
0621A:  MOVF   x09,W
0621C:  MULLW  09
0621E:  MOVF   FF3,W
06220:  MOVLB  6
06222:  ADDWF  x30,F
06224:  MOVLW  00
06226:  ADDWFC x31,F
06228:  MOVFF  1BE,635
0622C:  MOVFF  1BD,634
06230:  MOVFF  1BC,633
06234:  MOVFF  1BB,632
06238:  MOVLB  0
0623A:  BRA    6064
0623C:  MOVFF  01,632
06240:  MOVFF  631,634
06244:  MOVFF  630,633
06248:  MOVFF  01,635
0624C:  RCALL  5DF6
....................       delay_ms(10); 
0624E:  MOVLW  0A
06250:  MOVLB  6
06252:  MOVWF  x35
06254:  MOVLB  0
06256:  CALL   1EDC
....................       write_ext_eeprom(7+(cicloMemoria*320)+(posicionDato*9),make8(PresionCamara,1)); 
0625A:  MOVFF  62F,635
0625E:  MOVFF  62E,634
06262:  MOVLW  01
06264:  MOVLB  6
06266:  MOVWF  x37
06268:  MOVLW  40
0626A:  MOVWF  x36
0626C:  MOVLB  0
0626E:  CALL   234E
06272:  MOVFF  02,03
06276:  MOVF   01,W
06278:  ADDLW  07
0627A:  MOVLB  6
0627C:  MOVWF  x30
0627E:  MOVLW  00
06280:  ADDWFC 02,W
06282:  MOVWF  x31
06284:  MOVLB  2
06286:  MOVF   x09,W
06288:  MULLW  09
0628A:  MOVF   FF3,W
0628C:  MOVLB  6
0628E:  ADDWF  x30,F
06290:  MOVLW  00
06292:  ADDWFC x31,F
06294:  MOVFF  1F4,632
06298:  MOVFF  631,634
0629C:  MOVFF  630,633
062A0:  MOVFF  1F4,635
062A4:  MOVLB  0
062A6:  RCALL  5DF6
....................       delay_ms(10); 
062A8:  MOVLW  0A
062AA:  MOVLB  6
062AC:  MOVWF  x35
062AE:  MOVLB  0
062B0:  CALL   1EDC
....................       write_ext_eeprom(8+(cicloMemoria*320)+(posicionDato*9),make8(PresionCamara,0)); 
062B4:  MOVFF  62F,635
062B8:  MOVFF  62E,634
062BC:  MOVLW  01
062BE:  MOVLB  6
062C0:  MOVWF  x37
062C2:  MOVLW  40
062C4:  MOVWF  x36
062C6:  MOVLB  0
062C8:  CALL   234E
062CC:  MOVFF  02,03
062D0:  MOVF   01,W
062D2:  ADDLW  08
062D4:  MOVLB  6
062D6:  MOVWF  x30
062D8:  MOVLW  00
062DA:  ADDWFC 02,W
062DC:  MOVWF  x31
062DE:  MOVLB  2
062E0:  MOVF   x09,W
062E2:  MULLW  09
062E4:  MOVF   FF3,W
062E6:  MOVLB  6
062E8:  ADDWF  x30,F
062EA:  MOVLW  00
062EC:  ADDWFC x31,F
062EE:  MOVFF  1F3,632
062F2:  MOVFF  631,634
062F6:  MOVFF  630,633
062FA:  MOVFF  1F3,635
062FE:  MOVLB  0
06300:  RCALL  5DF6
....................       delay_ms(10); 
06302:  MOVLW  0A
06304:  MOVLB  6
06306:  MOVWF  x35
06308:  MOVLB  0
0630A:  CALL   1EDC
....................       write_ext_eeprom(9+(cicloMemoria*320)+(posicionDato*9),make8(PresionPreCamara,1)); 
0630E:  MOVFF  62F,635
06312:  MOVFF  62E,634
06316:  MOVLW  01
06318:  MOVLB  6
0631A:  MOVWF  x37
0631C:  MOVLW  40
0631E:  MOVWF  x36
06320:  MOVLB  0
06322:  CALL   234E
06326:  MOVFF  02,03
0632A:  MOVF   01,W
0632C:  ADDLW  09
0632E:  MOVLB  6
06330:  MOVWF  x30
06332:  MOVLW  00
06334:  ADDWFC 02,W
06336:  MOVWF  x31
06338:  MOVLB  2
0633A:  MOVF   x09,W
0633C:  MULLW  09
0633E:  MOVF   FF3,W
06340:  MOVLB  6
06342:  ADDWF  x30,F
06344:  MOVLW  00
06346:  ADDWFC x31,F
06348:  MOVFF  1F6,632
0634C:  MOVFF  631,634
06350:  MOVFF  630,633
06354:  MOVFF  1F6,635
06358:  MOVLB  0
0635A:  RCALL  5DF6
....................       delay_ms(10); 
0635C:  MOVLW  0A
0635E:  MOVLB  6
06360:  MOVWF  x35
06362:  MOVLB  0
06364:  CALL   1EDC
....................       write_ext_eeprom(10+(cicloMemoria*320)+(posicionDato*9),make8(PresionPreCamara,0)); 
06368:  MOVFF  62F,635
0636C:  MOVFF  62E,634
06370:  MOVLW  01
06372:  MOVLB  6
06374:  MOVWF  x37
06376:  MOVLW  40
06378:  MOVWF  x36
0637A:  MOVLB  0
0637C:  CALL   234E
06380:  MOVFF  02,03
06384:  MOVF   01,W
06386:  ADDLW  0A
06388:  MOVLB  6
0638A:  MOVWF  x30
0638C:  MOVLW  00
0638E:  ADDWFC 02,W
06390:  MOVWF  x31
06392:  MOVLB  2
06394:  MOVF   x09,W
06396:  MULLW  09
06398:  MOVF   FF3,W
0639A:  MOVLB  6
0639C:  ADDWF  x30,F
0639E:  MOVLW  00
063A0:  ADDWFC x31,F
063A2:  MOVFF  1F5,632
063A6:  MOVFF  631,634
063AA:  MOVFF  630,633
063AE:  MOVFF  1F5,635
063B2:  MOVLB  0
063B4:  RCALL  5DF6
....................       delay_ms(10); 
063B6:  MOVLW  0A
063B8:  MOVLB  6
063BA:  MOVWF  x35
063BC:  MOVLB  0
063BE:  CALL   1EDC
....................       write_ext_eeprom(11+(cicloMemoria*320)+(posicionDato*9),Hora); 
063C2:  MOVFF  62F,635
063C6:  MOVFF  62E,634
063CA:  MOVLW  01
063CC:  MOVLB  6
063CE:  MOVWF  x37
063D0:  MOVLW  40
063D2:  MOVWF  x36
063D4:  MOVLB  0
063D6:  CALL   234E
063DA:  MOVFF  02,03
063DE:  MOVF   01,W
063E0:  ADDLW  0B
063E2:  MOVLB  6
063E4:  MOVWF  x30
063E6:  MOVLW  00
063E8:  ADDWFC 02,W
063EA:  MOVWF  x31
063EC:  MOVLB  2
063EE:  MOVF   x09,W
063F0:  MULLW  09
063F2:  MOVF   FF3,W
063F4:  MOVLB  6
063F6:  ADDWF  x30,F
063F8:  MOVLW  00
063FA:  ADDWFC x31,F
063FC:  MOVFF  631,634
06400:  MOVFF  630,633
06404:  MOVFF  214,635
06408:  MOVLB  0
0640A:  RCALL  5DF6
....................       delay_ms(10); 
0640C:  MOVLW  0A
0640E:  MOVLB  6
06410:  MOVWF  x35
06412:  MOVLB  0
06414:  CALL   1EDC
....................       write_ext_eeprom(12+(cicloMemoria*320)+(posicionDato*9),Minuto); 
06418:  MOVFF  62F,635
0641C:  MOVFF  62E,634
06420:  MOVLW  01
06422:  MOVLB  6
06424:  MOVWF  x37
06426:  MOVLW  40
06428:  MOVWF  x36
0642A:  MOVLB  0
0642C:  CALL   234E
06430:  MOVFF  02,03
06434:  MOVF   01,W
06436:  ADDLW  0C
06438:  MOVLB  6
0643A:  MOVWF  x30
0643C:  MOVLW  00
0643E:  ADDWFC 02,W
06440:  MOVWF  x31
06442:  MOVLB  2
06444:  MOVF   x09,W
06446:  MULLW  09
06448:  MOVF   FF3,W
0644A:  MOVLB  6
0644C:  ADDWF  x30,F
0644E:  MOVLW  00
06450:  ADDWFC x31,F
06452:  MOVFF  631,634
06456:  MOVFF  630,633
0645A:  MOVFF  215,635
0645E:  MOVLB  0
06460:  RCALL  5DF6
....................       delay_ms(10); 
06462:  MOVLW  0A
06464:  MOVLB  6
06466:  MOVWF  x35
06468:  MOVLB  0
0646A:  CALL   1EDC
....................       write_ext_eeprom(13+(cicloMemoria*320)+(posicionDato*9),codigoAlarma); 
0646E:  MOVFF  62F,635
06472:  MOVFF  62E,634
06476:  MOVLW  01
06478:  MOVLB  6
0647A:  MOVWF  x37
0647C:  MOVLW  40
0647E:  MOVWF  x36
06480:  MOVLB  0
06482:  CALL   234E
06486:  MOVFF  02,03
0648A:  MOVF   01,W
0648C:  ADDLW  0D
0648E:  MOVLB  6
06490:  MOVWF  x30
06492:  MOVLW  00
06494:  ADDWFC 02,W
06496:  MOVWF  x31
06498:  MOVLB  2
0649A:  MOVF   x09,W
0649C:  MULLW  09
0649E:  MOVF   FF3,W
064A0:  MOVLB  6
064A2:  ADDWF  x30,F
064A4:  MOVLW  00
064A6:  ADDWFC x31,F
064A8:  MOVFF  631,634
064AC:  MOVFF  630,633
064B0:  MOVFF  20A,635
064B4:  MOVLB  0
064B6:  RCALL  5DF6
....................       delay_ms(10); 
064B8:  MOVLW  0A
064BA:  MOVLB  6
064BC:  MOVWF  x35
064BE:  MOVLB  0
064C0:  CALL   1EDC
....................     
....................       if(posicionDato<35) 
064C4:  MOVLB  2
064C6:  MOVF   x09,W
064C8:  SUBLW  22
064CA:  BNC   64CE
....................          ++posicionDato; 
064CC:  INCF   x09,F
064CE:  MOVLB  0
....................    } 
064D0:  RETURN 0
.................... } 
....................  
.................... void incrementaCiclos(){ 
....................    if(!Ciclo){ 
064D2:  BTFSC  x8E.6
064D4:  BRA    6558
....................       Ciclo=ON; 
064D6:  BSF    x8E.6
....................       Ciclos++; 
064D8:  MOVLB  1
064DA:  INCF   xF7,F
064DC:  BTFSC  FD8.2
064DE:  INCF   xF8,F
....................       CiclosL=make8(Ciclos,0); 
064E0:  MOVFF  1F7,1DB
....................       CiclosH=make8(Ciclos,1); 
064E4:  MOVFF  1F8,1DC
....................       write_eeprom(37,CiclosL); 
064E8:  MOVF   FF2,W
064EA:  MOVWF  00
064EC:  BCF    FF2.7
064EE:  CLRF   FAA
064F0:  MOVLW  25
064F2:  MOVWF  FA9
064F4:  MOVFF  1DB,FA8
064F8:  BCF    FA6.6
064FA:  BCF    FA6.7
064FC:  BSF    FA6.2
064FE:  MOVLB  F
06500:  MOVLW  55
06502:  MOVWF  FA7
06504:  MOVLW  AA
06506:  MOVWF  FA7
06508:  BSF    FA6.1
0650A:  BTFSC  FA6.1
0650C:  BRA    650A
0650E:  BCF    FA6.2
06510:  MOVF   00,W
06512:  IORWF  FF2,F
....................       delay_ms(20); 
06514:  MOVLW  14
06516:  MOVLB  6
06518:  MOVWF  x35
0651A:  MOVLB  0
0651C:  CALL   1EDC
....................       write_eeprom(38,CiclosH); 
06520:  MOVF   FF2,W
06522:  MOVWF  00
06524:  BCF    FF2.7
06526:  CLRF   FAA
06528:  MOVLW  26
0652A:  MOVWF  FA9
0652C:  MOVFF  1DC,FA8
06530:  BCF    FA6.6
06532:  BCF    FA6.7
06534:  BSF    FA6.2
06536:  MOVLB  F
06538:  MOVLW  55
0653A:  MOVWF  FA7
0653C:  MOVLW  AA
0653E:  MOVWF  FA7
06540:  BSF    FA6.1
06542:  BTFSC  FA6.1
06544:  BRA    6542
06546:  BCF    FA6.2
06548:  MOVF   00,W
0654A:  IORWF  FF2,F
....................       delay_ms(20); 
0654C:  MOVLW  14
0654E:  MOVLB  6
06550:  MOVWF  x35
06552:  MOVLB  0
06554:  CALL   1EDC
....................    } 
06558:  RETURN 0
.................... } 
....................  
.................... void exportarData(){ 
*
0567A:  MOVLB  6
0567C:  CLRF   x2D
0567E:  CLRF   x2C
05680:  CLRF   x2E
.................... int16 posicion=0; 
.................... int8 tmp=0; 
.................... posicion=0; 
05682:  CLRF   x2D
05684:  CLRF   x2C
.................... direccion=0xB0; 
05686:  MOVLW  B0
05688:  MOVLB  0
0568A:  MOVWF  x70
.................... Buzzer_on; 
0568C:  BSF    F8B.5
0568E:  BCF    F94.5
.................... //Inicio de Transmision 
.................... i2c_start();            // Comienzo comunicacin 
05690:  BSF    FC5.0
05692:  BTFSC  FC5.0
05694:  BRA    5692
.................... i2c_write(direccion);   // Direccin del esclavo en el bus I2C 
05696:  MOVFF  70,639
0569A:  CALL   2370
.................... i2c_write(make8(posicion,0));    // Posicin donde se guardara el dato transmitido 
0569E:  MOVFF  62C,62F
056A2:  MOVFF  62C,639
056A6:  CALL   2370
.................... i2c_write(make8(posicion,1));    // Posicin donde se guardara el dato transmitido 
056AA:  MOVFF  62D,62F
056AE:  MOVFF  62D,639
056B2:  CALL   2370
.................... i2c_write(0xff);        // Dato a transmitir 
056B6:  MOVLB  6
056B8:  SETF   x39
056BA:  MOVLB  0
056BC:  CALL   2370
.................... i2c_stop(); 
056C0:  BSF    FC5.2
056C2:  BTFSC  FC5.2
056C4:  BRA    56C2
.................... ++posicion; 
056C6:  MOVLB  6
056C8:  INCF   x2C,F
056CA:  BTFSC  FD8.2
056CC:  INCF   x2D,F
.................... i2c_start();            // Comienzo comunicacin 
056CE:  BSF    FC5.0
056D0:  BTFSC  FC5.0
056D2:  BRA    56D0
.................... i2c_write(direccion);   // Direccin del esclavo en el bus I2C 
056D4:  MOVFF  70,639
056D8:  MOVLB  0
056DA:  CALL   2370
.................... i2c_write(make8(posicion,0));    // Posicin donde se guardara el dato transmitido 
056DE:  MOVFF  62C,62F
056E2:  MOVFF  62C,639
056E6:  CALL   2370
.................... i2c_write(make8(posicion,1));    // Posicin donde se guardara el dato transmitido 
056EA:  MOVFF  62D,62F
056EE:  MOVFF  62D,639
056F2:  CALL   2370
.................... i2c_write(0xff);        // Dato a transmitir 
056F6:  MOVLB  6
056F8:  SETF   x39
056FA:  MOVLB  0
056FC:  CALL   2370
.................... i2c_stop(); 
05700:  BSF    FC5.2
05702:  BTFSC  FC5.2
05704:  BRA    5702
.................... ++posicion; 
05706:  MOVLB  6
05708:  INCF   x2C,F
0570A:  BTFSC  FD8.2
0570C:  INCF   x2D,F
.................... //Se envian 2 veces ff para indicar que se inicia la transmision. 
....................  
....................    for(i=0;i<5;i++){ 
0570E:  MOVLB  1
05710:  CLRF   xDA
05712:  MOVF   xDA,W
05714:  SUBLW  04
05716:  BNC   5796
....................       tmp=read_ext_eeprom((cicloVisto*320)+i); 
05718:  MOVLB  6
0571A:  CLRF   x35
0571C:  MOVFF  219,634
05720:  MOVLW  01
05722:  MOVWF  x37
05724:  MOVLW  40
05726:  MOVWF  x36
05728:  MOVLB  0
0572A:  CALL   234E
0572E:  MOVFF  02,630
05732:  MOVFF  01,62F
05736:  MOVLB  1
05738:  MOVF   xDA,W
0573A:  MOVLB  6
0573C:  ADDWF  x2F,F
0573E:  MOVLW  00
05740:  ADDWFC x30,F
05742:  MOVFF  630,632
05746:  MOVFF  62F,631
0574A:  MOVLB  0
0574C:  CALL   23A8
05750:  MOVFF  01,62E
....................       //if(tmp>250) 
....................       //   tmp=20; 
....................       i2c_start();            // Comienzo comunicacin 
05754:  BSF    FC5.0
05756:  BTFSC  FC5.0
05758:  BRA    5756
....................       i2c_write(direccion);   // Direccin del esclavo en el bus I2C 
0575A:  MOVFF  70,639
0575E:  CALL   2370
....................       i2c_write(make8(posicion,0));    // Posicin donde se guardara el dato transmitido 
05762:  MOVFF  62C,62F
05766:  MOVFF  62C,639
0576A:  CALL   2370
....................       i2c_write(make8(posicion,1));    // Posicin donde se guardara el dato transmitido 
0576E:  MOVFF  62D,62F
05772:  MOVFF  62D,639
05776:  CALL   2370
....................       i2c_write(tmp);        // Dato a transmitir 
0577A:  MOVFF  62E,639
0577E:  CALL   2370
....................       i2c_stop();  
05782:  BSF    FC5.2
05784:  BTFSC  FC5.2
05786:  BRA    5784
....................       ++posicion; 
05788:  MOVLB  6
0578A:  INCF   x2C,F
0578C:  BTFSC  FD8.2
0578E:  INCF   x2D,F
05790:  MOVLB  1
05792:  INCF   xDA,F
05794:  BRA    5712
....................    } 
....................    for(i=0;i<35;i++){//Lee Valores para completar la Tabla 
05796:  CLRF   xDA
05798:  MOVF   xDA,W
0579A:  SUBLW  22
0579C:  BNC   583E
....................       for(j=5;j<14;j++){//Lee Valores para completar la Tabla 
0579E:  MOVLW  05
057A0:  MOVLB  2
057A2:  MOVWF  x29
057A4:  MOVF   x29,W
057A6:  SUBLW  0D
057A8:  BNC   5838
....................          tmp=read_ext_eeprom((cicloVisto*320)+j+(i*9)); 
057AA:  MOVLB  6
057AC:  CLRF   x35
057AE:  MOVFF  219,634
057B2:  MOVLW  01
057B4:  MOVWF  x37
057B6:  MOVLW  40
057B8:  MOVWF  x36
057BA:  MOVLB  0
057BC:  CALL   234E
057C0:  MOVFF  02,630
057C4:  MOVFF  01,62F
057C8:  MOVLB  2
057CA:  MOVF   x29,W
057CC:  MOVLB  6
057CE:  ADDWF  x2F,F
057D0:  MOVLW  00
057D2:  ADDWFC x30,F
057D4:  MOVLB  1
057D6:  MOVF   xDA,W
057D8:  MULLW  09
057DA:  MOVF   FF3,W
057DC:  MOVLB  6
057DE:  ADDWF  x2F,F
057E0:  MOVLW  00
057E2:  ADDWFC x30,F
057E4:  MOVFF  630,632
057E8:  MOVFF  62F,631
057EC:  MOVLB  0
057EE:  CALL   23A8
057F2:  MOVFF  01,62E
....................          //if(tmp>250) 
....................          //   tmp=20; 
....................          i2c_start();            // Comienzo comunicacin 
057F6:  BSF    FC5.0
057F8:  BTFSC  FC5.0
057FA:  BRA    57F8
....................          i2c_write(direccion);   // Direccin del esclavo en el bus I2C 
057FC:  MOVFF  70,639
05800:  CALL   2370
....................          i2c_write(make8(posicion,0));    // Posicin donde se guardara el dato transmitido 
05804:  MOVFF  62C,62F
05808:  MOVFF  62C,639
0580C:  CALL   2370
....................          i2c_write(make8(posicion,1));    // Posicin donde se guardara el dato transmitido 
05810:  MOVFF  62D,62F
05814:  MOVFF  62D,639
05818:  CALL   2370
....................          i2c_write(tmp);        // Dato a transmitir 
0581C:  MOVFF  62E,639
05820:  CALL   2370
....................          i2c_stop();  
05824:  BSF    FC5.2
05826:  BTFSC  FC5.2
05828:  BRA    5826
....................          ++posicion; 
0582A:  MOVLB  6
0582C:  INCF   x2C,F
0582E:  BTFSC  FD8.2
05830:  INCF   x2D,F
05832:  MOVLB  2
05834:  INCF   x29,F
05836:  BRA    57A4
....................       } 
05838:  MOVLB  1
0583A:  INCF   xDA,F
0583C:  BRA    5798
....................    } 
....................  
.................... //Fin de Transmision 
.................... i2c_start();            // Comienzo comunicacin 
0583E:  BSF    FC5.0
05840:  BTFSC  FC5.0
05842:  BRA    5840
.................... i2c_write(direccion);   // Direccin del esclavo en el bus I2C 
05844:  MOVFF  70,639
05848:  MOVLB  0
0584A:  CALL   2370
.................... i2c_write(make8(posicion,0));    // Posicin donde se guardara el dato transmitido 
0584E:  MOVFF  62C,62F
05852:  MOVFF  62C,639
05856:  CALL   2370
.................... i2c_write(make8(posicion,1));    // Posicin donde se guardara el dato transmitido 
0585A:  MOVFF  62D,62F
0585E:  MOVFF  62D,639
05862:  CALL   2370
.................... i2c_write(0x1f);        // Dato a transmitir 
05866:  MOVLW  1F
05868:  MOVLB  6
0586A:  MOVWF  x39
0586C:  MOVLB  0
0586E:  CALL   2370
.................... i2c_stop(); 
05872:  BSF    FC5.2
05874:  BTFSC  FC5.2
05876:  BRA    5874
.................... ++posicion; 
05878:  MOVLB  6
0587A:  INCF   x2C,F
0587C:  BTFSC  FD8.2
0587E:  INCF   x2D,F
.................... i2c_start();            // Comienzo comunicacin 
05880:  BSF    FC5.0
05882:  BTFSC  FC5.0
05884:  BRA    5882
.................... i2c_write(direccion);   // Direccin del esclavo en el bus I2C 
05886:  MOVFF  70,639
0588A:  MOVLB  0
0588C:  CALL   2370
.................... i2c_write(make8(posicion,0));    // Posicin donde se guardara el dato transmitido 
05890:  MOVFF  62C,62F
05894:  MOVFF  62C,639
05898:  CALL   2370
.................... i2c_write(make8(posicion,1));    // Posicin donde se guardara el dato transmitido 
0589C:  MOVFF  62D,62F
058A0:  MOVFF  62D,639
058A4:  CALL   2370
.................... i2c_write(0x1f);        // Dato a transmitir 
058A8:  MOVLW  1F
058AA:  MOVLB  6
058AC:  MOVWF  x39
058AE:  MOVLB  0
058B0:  CALL   2370
.................... i2c_stop(); 
058B4:  BSF    FC5.2
058B6:  BTFSC  FC5.2
058B8:  BRA    58B6
.................... ++posicion; 
058BA:  MOVLB  6
058BC:  INCF   x2C,F
058BE:  BTFSC  FD8.2
058C0:  INCF   x2D,F
.................... //Se envian 2 veces 1f para indicar que se inicia la transmision. 
.................... delay_ms(200); 
058C2:  MOVLW  C8
058C4:  MOVWF  x35
058C6:  MOVLB  0
058C8:  CALL   1EDC
.................... Buzzer_off; 
058CC:  BCF    F8B.5
058CE:  BCF    F94.5
058D0:  GOTO   AFF8 (RETURN)
.................... } 
....................  
.................... void codificaAlarma(){ 
....................    if(ACiclos[i]==0){ 
058D4:  CLRF   03
058D6:  MOVLB  1
058D8:  MOVF   xDA,W
058DA:  ADDLW  8A
058DC:  MOVWF  FE9
058DE:  MOVLW  02
058E0:  ADDWFC 03,W
058E2:  MOVWF  FEA
058E4:  MOVF   FEF,F
058E6:  BNZ   5926
....................       printf("A%u.txt=\"----\"",i+1); 
058E8:  MOVLW  01
058EA:  ADDWF  xDA,W
058EC:  MOVLB  6
058EE:  MOVWF  x2C
058F0:  MOVLW  41
058F2:  BTFSS  F9E.4
058F4:  BRA    58F2
058F6:  MOVWF  FAD
058F8:  MOVFF  62C,631
058FC:  MOVLW  1B
058FE:  MOVWF  x32
05900:  MOVLB  0
05902:  CALL   505A
05906:  MOVLW  A7
05908:  MOVWF  FF6
0590A:  MOVLW  03
0590C:  MOVWF  FF7
0590E:  MOVLW  00
05910:  MOVWF  FF8
05912:  MOVLW  0B
05914:  MOVLB  6
05916:  MOVWF  x31
05918:  MOVLB  0
0591A:  CALL   4FD6
....................       SendDataDisplay(); 
0591E:  CALL   3C34
....................    }else if(ACiclos[i]==1){ 
05922:  BRA    5DEE
05924:  MOVLB  1
05926:  CLRF   03
05928:  MOVF   xDA,W
0592A:  ADDLW  8A
0592C:  MOVWF  FE9
0592E:  MOVLW  02
05930:  ADDWFC 03,W
05932:  MOVWF  FEA
05934:  DECFSZ FEF,W
05936:  BRA    5976
....................       printf("A%u.txt=\"Parada\"",i+1); 
05938:  MOVLW  01
0593A:  ADDWF  xDA,W
0593C:  MOVLB  6
0593E:  MOVWF  x2C
05940:  MOVLW  41
05942:  BTFSS  F9E.4
05944:  BRA    5942
05946:  MOVWF  FAD
05948:  MOVFF  62C,631
0594C:  MOVLW  1B
0594E:  MOVWF  x32
05950:  MOVLB  0
05952:  CALL   505A
05956:  MOVLW  B7
05958:  MOVWF  FF6
0595A:  MOVLW  03
0595C:  MOVWF  FF7
0595E:  MOVLW  00
05960:  MOVWF  FF8
05962:  MOVLW  0D
05964:  MOVLB  6
05966:  MOVWF  x31
05968:  MOVLB  0
0596A:  CALL   4FD6
....................       SendDataDisplay(); 
0596E:  CALL   3C34
....................    }else if(ACiclos[i]==2){ 
05972:  BRA    5DEE
05974:  MOVLB  1
05976:  CLRF   03
05978:  MOVF   xDA,W
0597A:  ADDLW  8A
0597C:  MOVWF  FE9
0597E:  MOVLW  02
05980:  ADDWFC 03,W
05982:  MOVWF  FEA
05984:  MOVF   FEF,W
05986:  SUBLW  02
05988:  BNZ   59C8
....................       printf("A%u.txt=\"Puerta\"",i+1); 
0598A:  MOVLW  01
0598C:  ADDWF  xDA,W
0598E:  MOVLB  6
05990:  MOVWF  x2C
05992:  MOVLW  41
05994:  BTFSS  F9E.4
05996:  BRA    5994
05998:  MOVWF  FAD
0599A:  MOVFF  62C,631
0599E:  MOVLW  1B
059A0:  MOVWF  x32
059A2:  MOVLB  0
059A4:  CALL   505A
059A8:  MOVLW  C9
059AA:  MOVWF  FF6
059AC:  MOVLW  03
059AE:  MOVWF  FF7
059B0:  MOVLW  00
059B2:  MOVWF  FF8
059B4:  MOVLW  0D
059B6:  MOVLB  6
059B8:  MOVWF  x31
059BA:  MOVLB  0
059BC:  CALL   4FD6
....................       SendDataDisplay(); 
059C0:  CALL   3C34
....................    }else if(ACiclos[i]==3){ 
059C4:  BRA    5DEE
059C6:  MOVLB  1
059C8:  CLRF   03
059CA:  MOVF   xDA,W
059CC:  ADDLW  8A
059CE:  MOVWF  FE9
059D0:  MOVLW  02
059D2:  ADDWFC 03,W
059D4:  MOVWF  FEA
059D6:  MOVF   FEF,W
059D8:  SUBLW  03
059DA:  BNZ   5A1A
....................       printf("A%u.txt=\"Termostato\"",i+1); 
059DC:  MOVLW  01
059DE:  ADDWF  xDA,W
059E0:  MOVLB  6
059E2:  MOVWF  x2C
059E4:  MOVLW  41
059E6:  BTFSS  F9E.4
059E8:  BRA    59E6
059EA:  MOVWF  FAD
059EC:  MOVFF  62C,631
059F0:  MOVLW  1B
059F2:  MOVWF  x32
059F4:  MOVLB  0
059F6:  CALL   505A
059FA:  MOVLW  DB
059FC:  MOVWF  FF6
059FE:  MOVLW  03
05A00:  MOVWF  FF7
05A02:  MOVLW  00
05A04:  MOVWF  FF8
05A06:  MOVLW  11
05A08:  MOVLB  6
05A0A:  MOVWF  x31
05A0C:  MOVLB  0
05A0E:  CALL   4FD6
....................       SendDataDisplay(); 
05A12:  CALL   3C34
....................    }else if(ACiclos[i]==4){ 
05A16:  BRA    5DEE
05A18:  MOVLB  1
05A1A:  CLRF   03
05A1C:  MOVF   xDA,W
05A1E:  ADDLW  8A
05A20:  MOVWF  FE9
05A22:  MOVLW  02
05A24:  ADDWFC 03,W
05A26:  MOVWF  FEA
05A28:  MOVF   FEF,W
05A2A:  SUBLW  04
05A2C:  BNZ   5A6C
....................       printf("A%u.txt=\"SobreT\"",i+1); 
05A2E:  MOVLW  01
05A30:  ADDWF  xDA,W
05A32:  MOVLB  6
05A34:  MOVWF  x2C
05A36:  MOVLW  41
05A38:  BTFSS  F9E.4
05A3A:  BRA    5A38
05A3C:  MOVWF  FAD
05A3E:  MOVFF  62C,631
05A42:  MOVLW  1B
05A44:  MOVWF  x32
05A46:  MOVLB  0
05A48:  CALL   505A
05A4C:  MOVLW  F1
05A4E:  MOVWF  FF6
05A50:  MOVLW  03
05A52:  MOVWF  FF7
05A54:  MOVLW  00
05A56:  MOVWF  FF8
05A58:  MOVLW  0D
05A5A:  MOVLB  6
05A5C:  MOVWF  x31
05A5E:  MOVLB  0
05A60:  CALL   4FD6
....................       SendDataDisplay(); 
05A64:  CALL   3C34
....................    }else if(ACiclos[i]==5){ 
05A68:  BRA    5DEE
05A6A:  MOVLB  1
05A6C:  CLRF   03
05A6E:  MOVF   xDA,W
05A70:  ADDLW  8A
05A72:  MOVWF  FE9
05A74:  MOVLW  02
05A76:  ADDWFC 03,W
05A78:  MOVWF  FEA
05A7A:  MOVF   FEF,W
05A7C:  SUBLW  05
05A7E:  BNZ   5ABE
....................       printf("A%u.txt=\"Tiempo\"",i+1); 
05A80:  MOVLW  01
05A82:  ADDWF  xDA,W
05A84:  MOVLB  6
05A86:  MOVWF  x2C
05A88:  MOVLW  41
05A8A:  BTFSS  F9E.4
05A8C:  BRA    5A8A
05A8E:  MOVWF  FAD
05A90:  MOVFF  62C,631
05A94:  MOVLW  1B
05A96:  MOVWF  x32
05A98:  MOVLB  0
05A9A:  CALL   505A
05A9E:  MOVLW  03
05AA0:  MOVWF  FF6
05AA2:  MOVLW  04
05AA4:  MOVWF  FF7
05AA6:  MOVLW  00
05AA8:  MOVWF  FF8
05AAA:  MOVLW  0D
05AAC:  MOVLB  6
05AAE:  MOVWF  x31
05AB0:  MOVLB  0
05AB2:  CALL   4FD6
....................       SendDataDisplay(); 
05AB6:  CALL   3C34
....................    }else if(ACiclos[i]==6){ 
05ABA:  BRA    5DEE
05ABC:  MOVLB  1
05ABE:  CLRF   03
05AC0:  MOVF   xDA,W
05AC2:  ADDLW  8A
05AC4:  MOVWF  FE9
05AC6:  MOVLW  02
05AC8:  ADDWFC 03,W
05ACA:  MOVWF  FEA
05ACC:  MOVF   FEF,W
05ACE:  SUBLW  06
05AD0:  BNZ   5B10
....................       printf("A%u.txt=\"Presion\"",i+1); 
05AD2:  MOVLW  01
05AD4:  ADDWF  xDA,W
05AD6:  MOVLB  6
05AD8:  MOVWF  x2C
05ADA:  MOVLW  41
05ADC:  BTFSS  F9E.4
05ADE:  BRA    5ADC
05AE0:  MOVWF  FAD
05AE2:  MOVFF  62C,631
05AE6:  MOVLW  1B
05AE8:  MOVWF  x32
05AEA:  MOVLB  0
05AEC:  CALL   505A
05AF0:  MOVLW  15
05AF2:  MOVWF  FF6
05AF4:  MOVLW  04
05AF6:  MOVWF  FF7
05AF8:  MOVLW  00
05AFA:  MOVWF  FF8
05AFC:  MOVLW  0E
05AFE:  MOVLB  6
05B00:  MOVWF  x31
05B02:  MOVLB  0
05B04:  CALL   4FD6
....................       SendDataDisplay(); 
05B08:  CALL   3C34
....................    }else if(ACiclos[i]==7){ 
05B0C:  BRA    5DEE
05B0E:  MOVLB  1
05B10:  CLRF   03
05B12:  MOVF   xDA,W
05B14:  ADDLW  8A
05B16:  MOVWF  FE9
05B18:  MOVLW  02
05B1A:  ADDWFC 03,W
05B1C:  MOVWF  FEA
05B1E:  MOVF   FEF,W
05B20:  SUBLW  07
05B22:  BNZ   5B62
....................       printf("A%u.txt=\"Bomba\"",i+1); 
05B24:  MOVLW  01
05B26:  ADDWF  xDA,W
05B28:  MOVLB  6
05B2A:  MOVWF  x2C
05B2C:  MOVLW  41
05B2E:  BTFSS  F9E.4
05B30:  BRA    5B2E
05B32:  MOVWF  FAD
05B34:  MOVFF  62C,631
05B38:  MOVLW  1B
05B3A:  MOVWF  x32
05B3C:  MOVLB  0
05B3E:  CALL   505A
05B42:  MOVLW  27
05B44:  MOVWF  FF6
05B46:  MOVLW  04
05B48:  MOVWF  FF7
05B4A:  MOVLW  00
05B4C:  MOVWF  FF8
05B4E:  MOVLW  0C
05B50:  MOVLB  6
05B52:  MOVWF  x31
05B54:  MOVLB  0
05B56:  CALL   4FD6
....................       SendDataDisplay(); 
05B5A:  CALL   3C34
....................    }else if(ACiclos[i]==8){ 
05B5E:  BRA    5DEE
05B60:  MOVLB  1
05B62:  CLRF   03
05B64:  MOVF   xDA,W
05B66:  ADDLW  8A
05B68:  MOVWF  FE9
05B6A:  MOVLW  02
05B6C:  ADDWFC 03,W
05B6E:  MOVWF  FEA
05B70:  MOVF   FEF,W
05B72:  SUBLW  08
05B74:  BNZ   5BB4
....................       printf("A%u.txt=\"ErrorVacio\"",i+1); 
05B76:  MOVLW  01
05B78:  ADDWF  xDA,W
05B7A:  MOVLB  6
05B7C:  MOVWF  x2C
05B7E:  MOVLW  41
05B80:  BTFSS  F9E.4
05B82:  BRA    5B80
05B84:  MOVWF  FAD
05B86:  MOVFF  62C,631
05B8A:  MOVLW  1B
05B8C:  MOVWF  x32
05B8E:  MOVLB  0
05B90:  CALL   505A
05B94:  MOVLW  37
05B96:  MOVWF  FF6
05B98:  MOVLW  04
05B9A:  MOVWF  FF7
05B9C:  MOVLW  00
05B9E:  MOVWF  FF8
05BA0:  MOVLW  11
05BA2:  MOVLB  6
05BA4:  MOVWF  x31
05BA6:  MOVLB  0
05BA8:  CALL   4FD6
....................       SendDataDisplay(); 
05BAC:  CALL   3C34
....................    }else if(ACiclos[i]==10){ 
05BB0:  BRA    5DEE
05BB2:  MOVLB  1
05BB4:  CLRF   03
05BB6:  MOVF   xDA,W
05BB8:  ADDLW  8A
05BBA:  MOVWF  FE9
05BBC:  MOVLW  02
05BBE:  ADDWFC 03,W
05BC0:  MOVWF  FEA
05BC2:  MOVF   FEF,W
05BC4:  SUBLW  0A
05BC6:  BNZ   5C06
....................       printf("A%u.txt=\"PreCale\"",i+1); 
05BC8:  MOVLW  01
05BCA:  ADDWF  xDA,W
05BCC:  MOVLB  6
05BCE:  MOVWF  x2C
05BD0:  MOVLW  41
05BD2:  BTFSS  F9E.4
05BD4:  BRA    5BD2
05BD6:  MOVWF  FAD
05BD8:  MOVFF  62C,631
05BDC:  MOVLW  1B
05BDE:  MOVWF  x32
05BE0:  MOVLB  0
05BE2:  CALL   505A
05BE6:  MOVLW  4D
05BE8:  MOVWF  FF6
05BEA:  MOVLW  04
05BEC:  MOVWF  FF7
05BEE:  MOVLW  00
05BF0:  MOVWF  FF8
05BF2:  MOVLW  0E
05BF4:  MOVLB  6
05BF6:  MOVWF  x31
05BF8:  MOVLB  0
05BFA:  CALL   4FD6
....................       SendDataDisplay(); 
05BFE:  CALL   3C34
....................    }else if(ACiclos[i]==11){ 
05C02:  BRA    5DEE
05C04:  MOVLB  1
05C06:  CLRF   03
05C08:  MOVF   xDA,W
05C0A:  ADDLW  8A
05C0C:  MOVWF  FE9
05C0E:  MOVLW  02
05C10:  ADDWFC 03,W
05C12:  MOVWF  FEA
05C14:  MOVF   FEF,W
05C16:  SUBLW  0B
05C18:  BNZ   5C58
....................       printf("A%u.txt=\"Vacio\"",i+1); 
05C1A:  MOVLW  01
05C1C:  ADDWF  xDA,W
05C1E:  MOVLB  6
05C20:  MOVWF  x2C
05C22:  MOVLW  41
05C24:  BTFSS  F9E.4
05C26:  BRA    5C24
05C28:  MOVWF  FAD
05C2A:  MOVFF  62C,631
05C2E:  MOVLW  1B
05C30:  MOVWF  x32
05C32:  MOVLB  0
05C34:  CALL   505A
05C38:  MOVLW  5F
05C3A:  MOVWF  FF6
05C3C:  MOVLW  04
05C3E:  MOVWF  FF7
05C40:  MOVLW  00
05C42:  MOVWF  FF8
05C44:  MOVLW  0C
05C46:  MOVLB  6
05C48:  MOVWF  x31
05C4A:  MOVLB  0
05C4C:  CALL   4FD6
....................       SendDataDisplay(); 
05C50:  CALL   3C34
....................    }else if(ACiclos[i]==12){ 
05C54:  BRA    5DEE
05C56:  MOVLB  1
05C58:  CLRF   03
05C5A:  MOVF   xDA,W
05C5C:  ADDLW  8A
05C5E:  MOVWF  FE9
05C60:  MOVLW  02
05C62:  ADDWFC 03,W
05C64:  MOVWF  FEA
05C66:  MOVF   FEF,W
05C68:  SUBLW  0C
05C6A:  BNZ   5CAA
....................       printf("A%u.txt=\"Calen\"",i+1); 
05C6C:  MOVLW  01
05C6E:  ADDWF  xDA,W
05C70:  MOVLB  6
05C72:  MOVWF  x2C
05C74:  MOVLW  41
05C76:  BTFSS  F9E.4
05C78:  BRA    5C76
05C7A:  MOVWF  FAD
05C7C:  MOVFF  62C,631
05C80:  MOVLW  1B
05C82:  MOVWF  x32
05C84:  MOVLB  0
05C86:  CALL   505A
05C8A:  MOVLW  6F
05C8C:  MOVWF  FF6
05C8E:  MOVLW  04
05C90:  MOVWF  FF7
05C92:  MOVLW  00
05C94:  MOVWF  FF8
05C96:  MOVLW  0C
05C98:  MOVLB  6
05C9A:  MOVWF  x31
05C9C:  MOVLB  0
05C9E:  CALL   4FD6
....................       SendDataDisplay(); 
05CA2:  CALL   3C34
....................    }else if(ACiclos[i]==13){ 
05CA6:  BRA    5DEE
05CA8:  MOVLB  1
05CAA:  CLRF   03
05CAC:  MOVF   xDA,W
05CAE:  ADDLW  8A
05CB0:  MOVWF  FE9
05CB2:  MOVLW  02
05CB4:  ADDWFC 03,W
05CB6:  MOVWF  FEA
05CB8:  MOVF   FEF,W
05CBA:  SUBLW  0D
05CBC:  BNZ   5CFC
....................       printf("A%u.txt=\"Desfoga\"",i+1); 
05CBE:  MOVLW  01
05CC0:  ADDWF  xDA,W
05CC2:  MOVLB  6
05CC4:  MOVWF  x2C
05CC6:  MOVLW  41
05CC8:  BTFSS  F9E.4
05CCA:  BRA    5CC8
05CCC:  MOVWF  FAD
05CCE:  MOVFF  62C,631
05CD2:  MOVLW  1B
05CD4:  MOVWF  x32
05CD6:  MOVLB  0
05CD8:  CALL   505A
05CDC:  MOVLW  7F
05CDE:  MOVWF  FF6
05CE0:  MOVLW  04
05CE2:  MOVWF  FF7
05CE4:  MOVLW  00
05CE6:  MOVWF  FF8
05CE8:  MOVLW  0E
05CEA:  MOVLB  6
05CEC:  MOVWF  x31
05CEE:  MOVLB  0
05CF0:  CALL   4FD6
....................       SendDataDisplay(); 
05CF4:  CALL   3C34
....................    }else if(ACiclos[i]==14){ 
05CF8:  BRA    5DEE
05CFA:  MOVLB  1
05CFC:  CLRF   03
05CFE:  MOVF   xDA,W
05D00:  ADDLW  8A
05D02:  MOVWF  FE9
05D04:  MOVLW  02
05D06:  ADDWFC 03,W
05D08:  MOVWF  FEA
05D0A:  MOVF   FEF,W
05D0C:  SUBLW  0E
05D0E:  BNZ   5D4E
....................       printf("A%u.txt=\"Finalizado\"",i+1); 
05D10:  MOVLW  01
05D12:  ADDWF  xDA,W
05D14:  MOVLB  6
05D16:  MOVWF  x2C
05D18:  MOVLW  41
05D1A:  BTFSS  F9E.4
05D1C:  BRA    5D1A
05D1E:  MOVWF  FAD
05D20:  MOVFF  62C,631
05D24:  MOVLW  1B
05D26:  MOVWF  x32
05D28:  MOVLB  0
05D2A:  CALL   505A
05D2E:  MOVLW  91
05D30:  MOVWF  FF6
05D32:  MOVLW  04
05D34:  MOVWF  FF7
05D36:  MOVLW  00
05D38:  MOVWF  FF8
05D3A:  MOVLW  11
05D3C:  MOVLB  6
05D3E:  MOVWF  x31
05D40:  MOVLB  0
05D42:  CALL   4FD6
....................       SendDataDisplay(); 
05D46:  CALL   3C34
....................    }else if(ACiclos[i]==15){ 
05D4A:  BRA    5DEE
05D4C:  MOVLB  1
05D4E:  CLRF   03
05D50:  MOVF   xDA,W
05D52:  ADDLW  8A
05D54:  MOVWF  FE9
05D56:  MOVLW  02
05D58:  ADDWFC 03,W
05D5A:  MOVWF  FEA
05D5C:  MOVF   FEF,W
05D5E:  SUBLW  0F
05D60:  BNZ   5DA0
....................       printf("A%u.txt=\"Secando\"",i+1); 
05D62:  MOVLW  01
05D64:  ADDWF  xDA,W
05D66:  MOVLB  6
05D68:  MOVWF  x2C
05D6A:  MOVLW  41
05D6C:  BTFSS  F9E.4
05D6E:  BRA    5D6C
05D70:  MOVWF  FAD
05D72:  MOVFF  62C,631
05D76:  MOVLW  1B
05D78:  MOVWF  x32
05D7A:  MOVLB  0
05D7C:  CALL   505A
05D80:  MOVLW  A7
05D82:  MOVWF  FF6
05D84:  MOVLW  04
05D86:  MOVWF  FF7
05D88:  MOVLW  00
05D8A:  MOVWF  FF8
05D8C:  MOVLW  0E
05D8E:  MOVLB  6
05D90:  MOVWF  x31
05D92:  MOVLB  0
05D94:  CALL   4FD6
....................       SendDataDisplay(); 
05D98:  CALL   3C34
....................    }else if(ACiclos[i]==16){ 
05D9C:  BRA    5DEE
05D9E:  MOVLB  1
05DA0:  CLRF   03
05DA2:  MOVF   xDA,W
05DA4:  ADDLW  8A
05DA6:  MOVWF  FE9
05DA8:  MOVLW  02
05DAA:  ADDWFC 03,W
05DAC:  MOVWF  FEA
05DAE:  MOVF   FEF,W
05DB0:  SUBLW  10
05DB2:  BNZ   5DF0
....................       printf("A%u.txt=\"Esterilizando\"",i+1); 
05DB4:  MOVLW  01
05DB6:  ADDWF  xDA,W
05DB8:  MOVLB  6
05DBA:  MOVWF  x2C
05DBC:  MOVLW  41
05DBE:  BTFSS  F9E.4
05DC0:  BRA    5DBE
05DC2:  MOVWF  FAD
05DC4:  MOVFF  62C,631
05DC8:  MOVLW  1B
05DCA:  MOVWF  x32
05DCC:  MOVLB  0
05DCE:  CALL   505A
05DD2:  MOVLW  B9
05DD4:  MOVWF  FF6
05DD6:  MOVLW  04
05DD8:  MOVWF  FF7
05DDA:  MOVLW  00
05DDC:  MOVWF  FF8
05DDE:  MOVLW  14
05DE0:  MOVLB  6
05DE2:  MOVWF  x31
05DE4:  MOVLB  0
05DE6:  CALL   4FD6
....................       SendDataDisplay(); 
05DEA:  CALL   3C34
05DEE:  MOVLB  1
....................    } 
05DF0:  MOVLB  0
05DF2:  GOTO   BA9E (RETURN)
.................... } 
....................  
.................... void sistemaBloqueo(short activa){ 
....................    if(activa && DOOR){ 
*
04A86:  MOVLB  6
04A88:  MOVF   x2C,F
04A8A:  BZ    4AA2
04A8C:  BSF    F93.1
04A8E:  BTFSC  F81.1
04A90:  BRA    4AA2
....................       output_bit(PIN_C1,1); 
04A92:  BSF    F8B.1
04A94:  BCF    F94.1
....................       output_bit(PIN_C2,0); 
04A96:  BCF    F8B.2
04A98:  BCF    F94.2
....................       Cilindro=ON; 
04A9A:  MOVLB  0
04A9C:  BSF    x8B.0
....................    }else if(!activa){ 
04A9E:  BRA    4AB0
04AA0:  MOVLB  6
04AA2:  MOVF   x2C,F
04AA4:  BNZ   4AAE
....................       output_bit(PIN_C1,0); 
04AA6:  BCF    F8B.1
04AA8:  BCF    F94.1
....................       output_bit(PIN_C2,1); 
04AAA:  BSF    F8B.2
04AAC:  BCF    F94.2
04AAE:  MOVLB  0
....................    } 
04AB0:  RETURN 0
.................... } 
....................  
....................  
.................... #int_rda HIGH 
.................... void serial_rx_isr(){ 
....................    Dato2=fgetc(); 
*
004CE:  BTFSS  F9E.5
004D0:  BRA    04CE
004D2:  MOVFF  FAE,1D6
004D6:  MOVLB  1
....................    if(Dato2==0x65){//Inicio Comunicacion 
004D8:  MOVF   xD6,W
004DA:  SUBLW  65
004DC:  BNZ   04E4
....................       Inicio=1; 
004DE:  MOVLW  01
004E0:  MOVWF  xD4
....................       RX_Wr_Index =0; 
004E2:  CLRF   4E
....................    } 
....................     
....................    if(Inicio==1){ 
004E4:  DECFSZ xD4,W
004E6:  BRA    04FC
....................       Rx_Buffer2[RX_Wr_Index] = Dato2; 
004E8:  CLRF   03
004EA:  MOVF   4E,W
004EC:  ADDLW  43
004EE:  MOVWF  FE9
004F0:  MOVLW  00
004F2:  ADDWFC 03,W
004F4:  MOVWF  FEA
004F6:  MOVFF  1D6,FEF
....................       RX_Wr_Index++; 
004FA:  INCF   4E,F
....................    } 
....................    if(RX_Wr_Index >= RX_BUFFER_SIZE){ 
004FC:  MOVF   4E,W
004FE:  SUBLW  09
00500:  BC    0506
....................       RX_Wr_Index =0; 
00502:  CLRF   4E
....................       Inicio=0; 
00504:  CLRF   xD4
....................    } 
....................  
....................    if(RX_Wr_Index==0){ 
00506:  MOVF   4E,F
00508:  BNZ   052A
....................       if(Rx_Buffer2[0]==0x65 && Rx_Buffer2[1]==0xff && Rx_Buffer2[2]==0xff && Rx_Buffer2[8]==0x00 && Rx_Buffer2[9]==0xff ){ 
0050A:  MOVF   43,W
0050C:  SUBLW  65
0050E:  BNZ   0526
00510:  INCFSZ 44,W
00512:  BRA    0526
00514:  INCFSZ 45,W
00516:  BRA    0526
00518:  MOVF   4B,F
0051A:  BNZ   0526
0051C:  INCFSZ 4C,W
0051E:  BRA    0526
....................          Dato_Exitoso=5; 
00520:  MOVLW  05
00522:  MOVWF  xD5
....................       }else{ 
00524:  BRA    052A
....................          Dato_Exitoso=10; 
00526:  MOVLW  0A
00528:  MOVWF  xD5
....................       } 
....................    } 
....................     
....................    if(Menu==20) 
0052A:  MOVF   xD7,W
0052C:  SUBLW  14
0052E:  BNZ   0534
....................      Buzzer_on; 
00530:  BSF    F8B.5
00532:  BCF    F94.5
.................... } 
....................  
00534:  BCF    F9E.5
00536:  MOVLB  0
00538:  GOTO   012E
.................... #int_TIMER1 
.................... void temp1s(void){ 
....................    set_timer1(40536); // Se repite cada 5ms 
0053C:  MOVLW  9E
0053E:  MOVWF  FCF
00540:  MOVLW  58
00542:  MOVWF  FCE
....................    tiempos++; 
00544:  MOVLB  1
00546:  INCF   xE7,F
00548:  BTFSC  FD8.2
0054A:  INCF   xE8,F
....................    tiempos2++; 
0054C:  INCF   xE9,F
0054E:  BTFSC  FD8.2
00550:  INCF   xEA,F
....................    tiempos3++; 
00552:  INCF   xEB,F
00554:  BTFSC  FD8.2
00556:  INCF   xEC,F
....................    tiempoctrl++; 
00558:  INCF   xED,F
0055A:  BTFSC  FD8.2
0055C:  INCF   xEE,F
....................     
....................    if(flagAlarma) 
0055E:  MOVLB  0
00560:  BTFSS  x90.0
00562:  BRA    056E
....................       tbuzzer++; 
00564:  MOVLB  2
00566:  INCF   x0D,F
00568:  BTFSC  FD8.2
0056A:  INCF   x0E,F
0056C:  MOVLB  0
....................        
....................    if(flagSilencio)    
0056E:  BTFSS  x90.2
00570:  BRA    057C
....................       tsilencio++; 
00572:  MOVLB  2
00574:  INCF   x0F,F
00576:  BTFSC  FD8.2
00578:  INCF   x10,F
0057A:  MOVLB  0
....................  
....................    if(tiempos>=200){  // 12000 para que incremente cada minuto, 200para que incremente cada segundo. 
0057C:  MOVLB  1
0057E:  MOVF   xE8,F
00580:  BNZ   058A
00582:  MOVF   xE7,W
00584:  SUBLW  C7
00586:  BTFSC  FD8.0
00588:  BRA    06C6
....................       if(flagTC) 
0058A:  MOVLB  0
0058C:  BTFSS  x92.6
0058E:  BRA    0596
....................          TiempoControl++; 
00590:  MOVLB  2
00592:  INCF   x05,F
00594:  MOVLB  0
....................        
....................       tiemporecta++; 
00596:  MOVLB  1
00598:  INCF   xD0,F
....................        
....................       if(IniciaCiclo && tiempoImpresion<CalculoImpresion){ 
0059A:  MOVLB  0
0059C:  BTFSS  x8B.2
0059E:  BRA    05B2
005A0:  MOVLB  1
005A2:  MOVF   xD3,W
005A4:  SUBWF  xE6,W
005A6:  BTFSS  FD8.0
005A8:  BRA    05AE
005AA:  MOVLB  0
005AC:  BRA    05B2
....................          tiempoImpresion++; 
005AE:  INCF   xE6,F
....................       }else if(tiempoImpresion>=CalculoImpresion){ 
005B0:  BRA    05C2
005B2:  MOVLB  1
005B4:  MOVF   xD3,W
005B6:  SUBWF  xE6,W
005B8:  BNC   05C2
....................          flagImprime=1; 
005BA:  MOVLB  0
005BC:  BSF    x92.7
....................          tiempoImpresion=0; 
005BE:  MOVLB  1
005C0:  CLRF   xE6
....................       } 
....................        
....................       if(guardaCiclo) 
005C2:  MOVLB  0
005C4:  BTFSS  x8A.7
005C6:  BRA    05CE
....................          tguarda++; 
005C8:  INCF   x9B,F
005CA:  BTFSC  FD8.2
005CC:  INCF   x9C,F
....................        
....................       if(IniciaCiclo && !Esterilizando && DOOR) 
005CE:  BTFSS  x8B.2
005D0:  BRA    05E2
005D2:  BTFSC  x8B.3
005D4:  BRA    05E2
005D6:  BSF    F93.1
005D8:  BTFSC  F81.1
005DA:  BRA    05E2
....................          TiempoCiclo++; 
005DC:  INCF   x93,F
005DE:  BTFSC  FD8.2
005E0:  INCF   x94,F
....................        
....................       if(SensadoNivel) 
005E2:  BTFSS  x8B.5
005E4:  BRA    05EC
....................          TiempoSensadoNivel++; 
005E6:  INCF   x95,F
005E8:  BTFSC  FD8.2
005EA:  INCF   x96,F
....................        
....................       if(IniciaVacio) 
005EC:  BTFSS  x91.3
005EE:  BRA    05FA
....................          tvacio++;          
005F0:  MOVLB  1
005F2:  INCF   xFB,F
005F4:  BTFSC  FD8.2
005F6:  INCF   xFC,F
005F8:  MOVLB  0
....................        
....................       if(IniciaVacio2) 
005FA:  BTFSS  x91.4
005FC:  BRA    0608
....................          tbomba++; 
005FE:  MOVLB  1
00600:  INCF   xF9,F
00602:  BTFSC  FD8.2
00604:  INCF   xFA,F
00606:  MOVLB  0
....................       
....................       tiempos=0;Lectura=1;tinicio++; 
00608:  MOVLB  1
0060A:  CLRF   xE8
0060C:  CLRF   xE7
0060E:  MOVLB  0
00610:  BSF    x92.3
00612:  MOVLB  1
00614:  INCF   xF1,F
00616:  BTFSC  FD8.2
00618:  INCF   xF2,F
....................     
....................       if(Esterilizando && !Desfogando){                
0061A:  MOVLB  0
0061C:  BTFSS  x8B.3
0061E:  BRA    0672
00620:  BTFSC  x8B.6
00622:  BRA    0672
....................          if(Testerilizacion[0]>0){ 
00624:  BTFSC  x9D.7
00626:  BRA    0632
00628:  MOVF   x9D,W
0062A:  SUBLW  00
0062C:  BC    0632
....................             Testerilizacion[0]--; 
0062E:  DECF   x9D,F
....................          }else if(Testerilizacion[1]>0){ 
00630:  BRA    0672
00632:  BTFSC  x9E.7
00634:  BRA    0644
00636:  MOVF   x9E,W
00638:  SUBLW  00
0063A:  BC    0644
....................             Testerilizacion[1]--; 
0063C:  DECF   x9E,F
....................             Testerilizacion[0]=9; 
0063E:  MOVLW  09
00640:  MOVWF  x9D
....................          }else if(Testerilizacion[2]>0){ 
00642:  BRA    0672
00644:  BTFSC  x9F.7
00646:  BRA    065A
00648:  MOVF   x9F,W
0064A:  SUBLW  00
0064C:  BC    065A
....................             Testerilizacion[2]--; 
0064E:  DECF   x9F,F
....................             Testerilizacion[1]=5; 
00650:  MOVLW  05
00652:  MOVWF  x9E
....................             Testerilizacion[0]=9; 
00654:  MOVLW  09
00656:  MOVWF  x9D
....................          }else if(Testerilizacion[3]>0){ 
00658:  BRA    0672
0065A:  BTFSC  xA0.7
0065C:  BRA    0672
0065E:  MOVF   xA0,W
00660:  SUBLW  00
00662:  BC    0672
....................             Testerilizacion[3]--; 
00664:  DECF   xA0,F
....................             Testerilizacion[2]=9; 
00666:  MOVLW  09
00668:  MOVWF  x9F
....................             Testerilizacion[1]=5; 
0066A:  MOVLW  05
0066C:  MOVWF  x9E
....................             Testerilizacion[0]=9; 
0066E:  MOVLW  09
00670:  MOVWF  x9D
....................          } 
....................       } 
....................        
....................       if(Secando){ 
00672:  BTFSS  x8B.4
00674:  BRA    06C4
....................          if(Tsecado[0]>0){ 
00676:  BTFSC  xA5.7
00678:  BRA    0684
0067A:  MOVF   xA5,W
0067C:  SUBLW  00
0067E:  BC    0684
....................             Tsecado[0]--; 
00680:  DECF   xA5,F
....................          }else if(Tsecado[1]>0){ 
00682:  BRA    06C4
00684:  BTFSC  xA6.7
00686:  BRA    0696
00688:  MOVF   xA6,W
0068A:  SUBLW  00
0068C:  BC    0696
....................             Tsecado[1]--; 
0068E:  DECF   xA6,F
....................             Tsecado[0]=9; 
00690:  MOVLW  09
00692:  MOVWF  xA5
....................          }else if(Tsecado[2]>0){ 
00694:  BRA    06C4
00696:  BTFSC  xA7.7
00698:  BRA    06AC
0069A:  MOVF   xA7,W
0069C:  SUBLW  00
0069E:  BC    06AC
....................             Tsecado[2]--; 
006A0:  DECF   xA7,F
....................             Tsecado[1]=5; 
006A2:  MOVLW  05
006A4:  MOVWF  xA6
....................             Tsecado[0]=9; 
006A6:  MOVLW  09
006A8:  MOVWF  xA5
....................          }else if(Tsecado[3]>0){ 
006AA:  BRA    06C4
006AC:  BTFSC  xA8.7
006AE:  BRA    06C4
006B0:  MOVF   xA8,W
006B2:  SUBLW  00
006B4:  BC    06C4
....................             Tsecado[3]--; 
006B6:  DECF   xA8,F
....................             Tsecado[2]=9; 
006B8:  MOVLW  09
006BA:  MOVWF  xA7
....................             Tsecado[1]=5; 
006BC:  MOVLW  05
006BE:  MOVWF  xA6
....................             Tsecado[0]=9; 
006C0:  MOVLW  09
006C2:  MOVWF  xA5
006C4:  MOVLB  1
....................          } 
....................       } 
....................    } 
006C6:  BCF    F9E.0
006C8:  MOVLB  0
006CA:  GOTO   0078
.................... } 
....................  
.................... void main() 
*
0692A:  CLRF   FF8
0692C:  BCF    F9F.0
0692E:  BSF    F9F.5
06930:  BSF    FD0.7
06932:  BSF    07.7
06934:  BSF    F94.3
06936:  BSF    F94.4
06938:  MOVLW  31
0693A:  MOVWF  FC8
0693C:  MOVLW  28
0693E:  MOVWF  FC6
06940:  BSF    FC7.7
06942:  BCF    FC7.6
06944:  BSF    FB8.3
06946:  MOVLW  08
06948:  MOVWF  FAF
0694A:  MOVLW  02
0694C:  MOVWF  FB0
0694E:  MOVLW  A6
06950:  MOVWF  FAC
06952:  MOVLW  90
06954:  MOVWF  FAB
06956:  CLRF   4E
06958:  CLRF   x6F
0695A:  CLRF   x70
0695C:  CLRF   x71
0695E:  BCF    x8A.0
06960:  BCF    x8A.1
06962:  BCF    x8A.2
06964:  BCF    x8A.3
06966:  BCF    x8A.4
06968:  BCF    x8A.5
0696A:  BCF    x8A.6
0696C:  BCF    x8A.7
0696E:  BCF    x8B.0
06970:  MOVLW  02
06972:  MOVWF  x8D
06974:  MOVLW  58
06976:  MOVWF  x8C
06978:  BCF    x8B.1
0697A:  BCF    x8B.2
0697C:  BCF    x8B.3
0697E:  BCF    x8B.4
06980:  BCF    x8B.5
06982:  BCF    x8B.6
06984:  BCF    x8B.7
06986:  BCF    x8E.0
06988:  BCF    x8E.1
0698A:  BCF    x8E.2
0698C:  BCF    x8E.3
0698E:  BCF    x8E.4
06990:  BCF    x8E.5
06992:  BCF    x8E.6
06994:  BCF    x8E.7
06996:  BCF    x8F.0
06998:  BCF    x8F.1
0699A:  BCF    x8F.2
0699C:  BCF    x8F.3
0699E:  BCF    x8F.4
069A0:  BCF    x8F.5
069A2:  BCF    x8F.6
069A4:  BCF    x8F.7
069A6:  BCF    x90.0
069A8:  BCF    x90.1
069AA:  BCF    x90.2
069AC:  BCF    x90.3
069AE:  BCF    x90.4
069B0:  BCF    x90.5
069B2:  BCF    x90.6
069B4:  BCF    x90.7
069B6:  BCF    x91.0
069B8:  BCF    x91.1
069BA:  BCF    x91.2
069BC:  BCF    x91.3
069BE:  BCF    x91.4
069C0:  BCF    x91.5
069C2:  BCF    x91.6
069C4:  BCF    x91.7
069C6:  BCF    x92.0
069C8:  BCF    x92.1
069CA:  CLRF   x94
069CC:  CLRF   x93
069CE:  CLRF   x96
069D0:  CLRF   x95
069D2:  CLRF   x98
069D4:  CLRF   x97
069D6:  CLRF   x9A
069D8:  CLRF   x99
069DA:  CLRF   x9C
069DC:  CLRF   x9B
069DE:  MOVLB  1
069E0:  CLRF   x50
069E2:  CLRF   x4F
069E4:  CLRF   x4E
069E6:  CLRF   x4D
069E8:  CLRF   x54
069EA:  MOVLW  80
069EC:  MOVWF  x53
069EE:  MOVLW  3B
069F0:  MOVWF  x52
069F2:  MOVLW  8A
069F4:  MOVWF  x51
069F6:  CLRF   x58
069F8:  MOVLW  C0
069FA:  MOVWF  x57
069FC:  MOVLW  41
069FE:  MOVWF  x56
06A00:  MOVLW  8A
06A02:  MOVWF  x55
06A04:  CLRF   x5C
06A06:  MOVLW  C0
06A08:  MOVWF  x5B
06A0A:  MOVLW  41
06A0C:  MOVWF  x5A
06A0E:  MOVLW  8A
06A10:  MOVWF  x59
06A12:  CLRF   x60
06A14:  MOVLW  C0
06A16:  MOVWF  x5F
06A18:  MOVLW  41
06A1A:  MOVWF  x5E
06A1C:  MOVLW  8A
06A1E:  MOVWF  x5D
06A20:  CLRF   x64
06A22:  CLRF   x63
06A24:  CLRF   x62
06A26:  CLRF   x61
06A28:  CLRF   x68
06A2A:  CLRF   x67
06A2C:  CLRF   x66
06A2E:  CLRF   x65
06A30:  CLRF   x74
06A32:  CLRF   x73
06A34:  CLRF   x72
06A36:  CLRF   x71
06A38:  CLRF   x78
06A3A:  CLRF   x77
06A3C:  CLRF   x76
06A3E:  CLRF   x75
06A40:  CLRF   x79
06A42:  CLRF   x7A
06A44:  MOVLW  14
06A46:  MOVWF  x7B
06A48:  CLRF   x7C
06A4A:  CLRF   x7D
06A4C:  CLRF   x7E
06A4E:  CLRF   x82
06A50:  CLRF   x81
06A52:  CLRF   x80
06A54:  CLRF   x7F
06A56:  CLRF   x8A
06A58:  CLRF   x89
06A5A:  MOVLW  20
06A5C:  MOVWF  x88
06A5E:  MOVLW  82
06A60:  MOVWF  x87
06A62:  CLRF   x8E
06A64:  CLRF   x8D
06A66:  CLRF   x8C
06A68:  CLRF   x8B
06A6A:  CLRF   x92
06A6C:  CLRF   x91
06A6E:  CLRF   x90
06A70:  CLRF   x8F
06A72:  CLRF   x96
06A74:  CLRF   x95
06A76:  CLRF   x94
06A78:  CLRF   x93
06A7A:  CLRF   x9A
06A7C:  CLRF   x99
06A7E:  CLRF   x98
06A80:  CLRF   x97
06A82:  CLRF   x9E
06A84:  CLRF   x9D
06A86:  CLRF   x9C
06A88:  CLRF   x9B
06A8A:  CLRF   xA2
06A8C:  CLRF   xA1
06A8E:  MOVLW  48
06A90:  MOVWF  xA0
06A92:  MOVLW  83
06A94:  MOVWF  x9F
06A96:  CLRF   xA6
06A98:  CLRF   xA5
06A9A:  MOVLW  20
06A9C:  MOVWF  xA4
06A9E:  MOVLW  83
06AA0:  MOVWF  xA3
06AA2:  CLRF   xAA
06AA4:  CLRF   xA9
06AA6:  CLRF   xA8
06AA8:  MOVLW  7F
06AAA:  MOVWF  xA7
06AAC:  CLRF   xAE
06AAE:  CLRF   xAD
06AB0:  CLRF   xAC
06AB2:  CLRF   xAB
06AB4:  CLRF   xB2
06AB6:  CLRF   xB1
06AB8:  CLRF   xB0
06ABA:  CLRF   xAF
06ABC:  CLRF   xB6
06ABE:  CLRF   xB5
06AC0:  CLRF   xB4
06AC2:  CLRF   xB3
06AC4:  CLRF   xBA
06AC6:  CLRF   xB9
06AC8:  CLRF   xB8
06ACA:  CLRF   xB7
06ACC:  CLRF   xBE
06ACE:  CLRF   xBD
06AD0:  CLRF   xBC
06AD2:  CLRF   xBB
06AD4:  CLRF   xC2
06AD6:  CLRF   xC1
06AD8:  CLRF   xC0
06ADA:  CLRF   xBF
06ADC:  MOVLW  E0
06ADE:  MOVWF  xC6
06AE0:  MOVLW  2D
06AE2:  MOVWF  xC5
06AE4:  MOVLW  10
06AE6:  MOVWF  xC4
06AE8:  MOVLW  75
06AEA:  MOVWF  xC3
06AEC:  SETF   xCA
06AEE:  MOVLW  21
06AF0:  MOVWF  xC9
06AF2:  MOVLW  15
06AF4:  MOVWF  xC8
06AF6:  MOVLW  80
06AF8:  MOVWF  xC7
06AFA:  MOVLW  82
06AFC:  MOVWF  xCE
06AFE:  MOVLW  12
06B00:  MOVWF  xCD
06B02:  MOVLW  F4
06B04:  MOVWF  xCC
06B06:  MOVLW  86
06B08:  MOVWF  xCB
06B0A:  MOVLB  0
06B0C:  BCF    x92.2
06B0E:  BCF    x92.3
06B10:  BCF    x92.4
06B12:  BCF    x92.5
06B14:  BCF    x92.6
06B16:  BCF    x92.7
06B18:  MOVLB  1
06B1A:  CLRF   xCF
06B1C:  CLRF   xD0
06B1E:  CLRF   xD1
06B20:  MOVLW  02
06B22:  MOVWF  xD2
06B24:  CLRF   xD3
06B26:  MOVLW  01
06B28:  MOVWF  xD4
06B2A:  CLRF   xD5
06B2C:  CLRF   xD6
06B2E:  CLRF   xD7
06B30:  CLRF   xD8
06B32:  MOVLW  F0
06B34:  MOVWF  xD9
06B36:  CLRF   xDA
06B38:  CLRF   xDB
06B3A:  CLRF   xDC
06B3C:  CLRF   xDD
06B3E:  CLRF   xDE
06B40:  CLRF   xE0
06B42:  MOVLW  04
06B44:  MOVWF  xDF
06B46:  CLRF   xE1
06B48:  MOVLW  01
06B4A:  MOVWF  xE2
06B4C:  MOVWF  xE3
06B4E:  CLRF   xE4
06B50:  CLRF   xE5
06B52:  CLRF   xE6
06B54:  CLRF   xE8
06B56:  CLRF   xE7
06B58:  CLRF   xEA
06B5A:  CLRF   xE9
06B5C:  CLRF   xEC
06B5E:  CLRF   xEB
06B60:  CLRF   xEE
06B62:  CLRF   xED
06B64:  CLRF   xF0
06B66:  CLRF   xEF
06B68:  CLRF   xF2
06B6A:  CLRF   xF1
06B6C:  CLRF   xF4
06B6E:  CLRF   xF3
06B70:  CLRF   xF6
06B72:  CLRF   xF5
06B74:  CLRF   xF8
06B76:  CLRF   xF7
06B78:  CLRF   xFA
06B7A:  CLRF   xF9
06B7C:  CLRF   xFC
06B7E:  CLRF   xFB
06B80:  MOVLB  2
06B82:  CLRF   x01
06B84:  CLRF   x02
06B86:  CLRF   x03
06B88:  CLRF   x04
06B8A:  CLRF   x05
06B8C:  CLRF   x06
06B8E:  CLRF   x07
06B90:  CLRF   x08
06B92:  CLRF   x09
06B94:  CLRF   x0A
06B96:  CLRF   x0B
06B98:  CLRF   x0C
06B9A:  CLRF   x0E
06B9C:  CLRF   x0D
06B9E:  CLRF   x10
06BA0:  CLRF   x0F
06BA2:  MOVLW  12
06BA4:  MOVWF  x11
06BA6:  MOVLW  09
06BA8:  MOVWF  x12
06BAA:  MOVLW  0D
06BAC:  MOVWF  x13
06BAE:  CLRF   x14
06BB0:  CLRF   x15
06BB2:  CLRF   x16
06BB4:  CLRF   x17
06BB6:  CLRF   x18
06BB8:  CLRF   x19
06BBA:  MOVLW  19
06BBC:  MOVWF  x1A
06BBE:  MOVLW  4B
06BC0:  MOVWF  x1B
06BC2:  MOVLW  0A
06BC4:  MOVWF  x1C
06BC6:  CLRF   x1D
06BC8:  CLRF   x1E
06BCA:  CLRF   x1F
06BCC:  CLRF   x20
06BCE:  CLRF   x21
06BD0:  CLRF   x22
06BD2:  CLRF   x23
06BD4:  CLRF   x24
06BD6:  CLRF   x25
06BD8:  CLRF   x26
06BDA:  CLRF   x27
06BDC:  CLRF   x28
06BDE:  CLRF   x29
06BE0:  CLRF   x2A
06BE2:  CLRF   x2B
06BE4:  CLRF   x2C
06BE6:  CLRF   x2D
06BE8:  CLRF   x2E
06BEA:  CLRF   x2F
06BEC:  CLRF   x91
06BEE:  CLRF   x92
06BF0:  CLRF   x93
06BF2:  CLRF   x94
06BF4:  CLRF   x95
06BF6:  MOVLB  6
06BF8:  CLRF   x2B
06BFA:  CLRF   x2A
06BFC:  MOVF   FC1,W
06BFE:  ANDLW  C0
06C00:  IORLW  0F
06C02:  MOVWF  FC1
06C04:  MOVLW  07
06C06:  MOVWF  FB4
06C08:  BRA    6C42
06C0A:  DATA 02,00
06C0C:  DATA 32,00
06C0E:  DATA 00,18
06C10:  DATA 00,72
06C12:  DATA 00,03
06C14:  DATA 03,06
06C16:  DATA 01,04
06C18:  DATA 06,02
06C1A:  DATA 05,00
06C1C:  DATA 03,05
06C1E:  DATA 00,03
06C20:  DATA 04,00
06C22:  DATA 02,05
06C24:  DATA 00,03
06C26:  DATA 06,01
06C28:  DATA 04,06
06C2A:  DATA B0,40
06C2C:  DATA 9D,00
06C2E:  DATA 08,41
06C30:  DATA 69,00
06C32:  DATA 04,01
06C34:  DATA FD,00
06C36:  DATA 00,00
06C38:  DATA 00,04
06C3A:  DATA 02,96
06C3C:  DATA 00,00
06C3E:  DATA 00,00
06C40:  DATA 00,00
06C42:  MOVLW  00
06C44:  MOVWF  FF8
06C46:  MOVLW  6C
06C48:  MOVWF  FF7
06C4A:  MOVLW  0A
06C4C:  MOVWF  FF6
06C4E:  TBLRD*+
06C50:  MOVF   FF5,W
06C52:  MOVWF  00
06C54:  XORLW  00
06C56:  BZ    6C7E
06C58:  TBLRD*+
06C5A:  MOVF   FF5,W
06C5C:  MOVWF  01
06C5E:  BTFSC  FE8.7
06C60:  BRA    6C6C
06C62:  ANDLW  0F
06C64:  MOVWF  FEA
06C66:  TBLRD*+
06C68:  MOVFF  FF5,FE9
06C6C:  BTFSC  01.6
06C6E:  TBLRD*+
06C70:  BTFSS  01.6
06C72:  TBLRD*+
06C74:  MOVFF  FF5,FEE
06C78:  DCFSNZ 00,F
06C7A:  BRA    6C4E
06C7C:  BRA    6C70
06C7E:  CLRF   FF8
.................... { 
....................    setup_timer_1(T1_INTERNAL|T1_DIV_BY_1); 
06C80:  MOVLW  85
06C82:  MOVWF  FCD
....................    enable_interrupts(INT_TIMER1); 
06C84:  BSF    F9D.0
....................    setup_adc_ports(AN0_TO_AN3); 
06C86:  MOVF   FC1,W
06C88:  ANDLW  C0
06C8A:  IORLW  0B
06C8C:  MOVWF  FC1
....................    setup_adc(ADC_CLOCK_DIV_64); 
06C8E:  MOVF   FC0,W
06C90:  ANDLW  C0
06C92:  IORLW  06
06C94:  MOVWF  FC0
06C96:  BSF    FC0.7
06C98:  BSF    FC2.0
....................    port_b_pullups(true); 
06C9A:  BCF    FF1.7
....................    enable_interrupts(int_rda); 
06C9C:  BSF    F9D.5
....................    setup_wdt(WDT_ON); 
06C9E:  BSF    FD1.0
....................    enable_interrupts(global); 
06CA0:  MOVLW  C0
06CA2:  IORWF  FF2,F
....................    LeeEEPROM(); 
06CA4:  MOVLB  0
06CA6:  GOTO   24B0
....................    rtc_init(); 
06CAA:  GOTO   36BC
....................    delay_ms(1); 
06CAE:  MOVLW  01
06CB0:  MOVLB  6
06CB2:  MOVWF  x35
06CB4:  MOVLB  0
06CB6:  CALL   1EDC
....................    LimitaValores(); 
06CBA:  GOTO   375C
....................    CalculoImpresion=timpresion*60; 
06CBE:  MOVLB  1
06CC0:  MOVF   xD2,W
06CC2:  MULLW  3C
06CC4:  MOVFF  FF3,1D3
....................    printf("page Bienvenida"); 
06CC8:  MOVLW  CE
06CCA:  MOVWF  FF6
06CCC:  MOVLW  06
06CCE:  MOVWF  FF7
06CD0:  MOVLW  00
06CD2:  MOVWF  FF8
06CD4:  MOVLB  0
06CD6:  CALL   3C02
....................    SendDataDisplay(); 
06CDA:  CALL   3C34
....................    printf("bkcmd=0"); 
06CDE:  MOVLW  DE
06CE0:  MOVWF  FF6
06CE2:  MOVLW  06
06CE4:  MOVWF  FF7
06CE6:  MOVLW  00
06CE8:  MOVWF  FF8
06CEA:  CALL   3C02
....................    SendDataDisplay(); 
06CEE:  CALL   3C34
....................    delay_ms(3500);  
06CF2:  MOVLW  0E
06CF4:  MOVLB  6
06CF6:  MOVWF  x2C
06CF8:  MOVLW  FA
06CFA:  MOVWF  x35
06CFC:  MOVLB  0
06CFE:  CALL   1EDC
06D02:  MOVLB  6
06D04:  DECFSZ x2C,F
06D06:  BRA    6CF8
....................    printf("page Usuarios"); 
06D08:  MOVLW  E6
06D0A:  MOVWF  FF6
06D0C:  MOVLW  06
06D0E:  MOVWF  FF7
06D10:  MOVLW  00
06D12:  MOVWF  FF8
06D14:  MOVLB  0
06D16:  CALL   3C02
....................    SendDataDisplay(); 
06D1A:  CALL   3C34
....................    ApagaSalidas(); 
06D1E:  CALL   3C6A
....................    AN=1023*(R8+R9); 
06D22:  BCF    FD8.1
06D24:  MOVFF  158,641
06D28:  MOVFF  157,640
06D2C:  MOVFF  156,63F
06D30:  MOVFF  155,63E
06D34:  MOVFF  15C,645
06D38:  MOVFF  15B,644
06D3C:  MOVFF  15A,643
06D40:  MOVFF  159,642
06D44:  CALL   2062
06D48:  MOVLB  6
06D4A:  CLRF   x45
06D4C:  MOVLW  C0
06D4E:  MOVWF  x44
06D50:  MOVLW  7F
06D52:  MOVWF  x43
06D54:  MOVLW  88
06D56:  MOVWF  x42
06D58:  MOVFF  03,649
06D5C:  MOVFF  02,648
06D60:  MOVFF  01,647
06D64:  MOVFF  00,646
06D68:  MOVLB  0
06D6A:  CALL   3C92
06D6E:  MOVFF  03,164
06D72:  MOVFF  02,163
06D76:  MOVFF  01,162
06D7A:  MOVFF  00,161
....................    //TiempoVacio=CantidadPulsos*360;  
....................    TiempoVacio=360;  
06D7E:  MOVLW  01
06D80:  MOVWF  x8D
06D82:  MOVLW  68
06D84:  MOVWF  x8C
....................    Sensor[0].Gain=152.53; 
06D86:  MOVLW  AE
06D88:  MOVLB  3
06D8A:  MOVWF  xFD
06D8C:  MOVLW  87
06D8E:  MOVWF  xFC
06D90:  MOVLW  18
06D92:  MOVWF  xFB
06D94:  MOVLW  86
06D96:  MOVWF  xFA
....................    Sensor[1].Gain=151.61; 
06D98:  MOVLW  29
06D9A:  MOVLB  5
06D9C:  MOVWF  x61
06D9E:  MOVLW  9C
06DA0:  MOVWF  x60
06DA2:  MOVLW  17
06DA4:  MOVWF  x5F
06DA6:  MOVLW  86
06DA8:  MOVWF  x5E
....................     
....................    for(i=0;i<MediaMovil;i++){ 
06DAA:  MOVLB  1
06DAC:  CLRF   xDA
06DAE:  MOVF   x7B,W
06DB0:  SUBWF  xDA,W
06DB2:  BC    6DF8
....................       Temperatura=LeerPT100(1,MediaMovil); 
06DB4:  MOVLW  01
06DB6:  MOVLB  6
06DB8:  MOVWF  x2C
06DBA:  MOVFF  17B,62D
06DBE:  MOVLB  0
06DC0:  CALL   3DE0
06DC4:  MOVFF  03,1BE
06DC8:  MOVFF  02,1BD
06DCC:  MOVFF  01,1BC
06DD0:  MOVFF  00,1BB
....................       Temperatura2=LeerPT100(0,MediaMovil); 
06DD4:  MOVLB  6
06DD6:  CLRF   x2C
06DD8:  MOVFF  17B,62D
06DDC:  MOVLB  0
06DDE:  CALL   3DE0
06DE2:  MOVFF  03,1C2
06DE6:  MOVFF  02,1C1
06DEA:  MOVFF  01,1C0
06DEE:  MOVFF  00,1BF
06DF2:  MOVLB  1
06DF4:  INCF   xDA,F
06DF6:  BRA    6DAE
....................    } 
....................     
....................    while(true) 
....................    { 
....................       rtc_get_date(Dia,Mes,Year,dow); 
....................       rtc_get_time(Hora,Minuto,Segundo); 
....................       LeeDisplay(); 
*
06EBC:  GOTO   4896
....................       //Envio_Esclavos(); 
....................       delay_ms(1); 
06EC0:  MOVLW  01
06EC2:  MOVLB  6
06EC4:  MOVWF  x35
06EC6:  MOVLB  0
06EC8:  CALL   1EDC
....................       //Lectura_Esclavos(); 
....................       restart_wdt(); 
06ECC:  CLRWDT
....................        
....................       if(!PruebaEstados){ 
06ECE:  BTFSC  x8E.4
06ED0:  BRA    6F28
....................          if(Temperatura2>40) 
06ED2:  MOVLB  6
06ED4:  CLRF   x33
06ED6:  CLRF   x32
06ED8:  MOVLW  20
06EDA:  MOVWF  x31
06EDC:  MOVLW  84
06EDE:  MOVWF  x30
06EE0:  MOVFF  1C2,637
06EE4:  MOVFF  1C1,636
06EE8:  MOVFF  1C0,635
06EEC:  MOVFF  1BF,634
06EF0:  MOVLB  0
06EF2:  CALL   2436
06EF6:  BNC   6EFE
....................             Agua2_on; 
06EF8:  BSF    F8C.7
06EFA:  BCF    F95.7
06EFC:  BRA    6F28
....................          else if(Temperatura2<38) 
06EFE:  MOVFF  1C2,633
06F02:  MOVFF  1C1,632
06F06:  MOVFF  1C0,631
06F0A:  MOVFF  1BF,630
06F0E:  MOVLB  6
06F10:  CLRF   x37
06F12:  CLRF   x36
06F14:  MOVLW  18
06F16:  MOVWF  x35
06F18:  MOVLW  84
06F1A:  MOVWF  x34
06F1C:  MOVLB  0
06F1E:  CALL   2436
06F22:  BNC   6F28
....................             Agua2_off; 
06F24:  BCF    F8C.7
06F26:  BCF    F95.7
....................       } 
....................        
....................       if(!PruebaEstados){ 
06F28:  BTFSC  x8E.4
06F2A:  BRA    6F66
....................          if(PresionCamara<=Atmosferica+3 && (!IniciaCiclo || Finalizo)){ 
06F2C:  MOVLW  03
06F2E:  MOVLB  2
06F30:  ADDWF  x1B,W
06F32:  MOVLB  1
06F34:  MOVF   xF4,F
06F36:  BNZ   6F5A
06F38:  SUBWF  xF3,W
06F3A:  BZ    6F3E
06F3C:  BC    6F5A
06F3E:  MOVLB  0
06F40:  BTFSS  x8B.2
06F42:  BRA    6F4C
06F44:  BTFSC  x90.3
06F46:  BRA    6F4C
06F48:  MOVLB  1
06F4A:  BRA    6F5A
....................             sistemaBloqueo(0); 
06F4C:  MOVLB  6
06F4E:  CLRF   x2C
06F50:  MOVLB  0
06F52:  CALL   4A86
....................          }else{ 
06F56:  BRA    6F66
06F58:  MOVLB  1
....................             sistemaBloqueo(1); 
06F5A:  MOVLW  01
06F5C:  MOVLB  6
06F5E:  MOVWF  x2C
06F60:  MOVLB  0
06F62:  CALL   4A86
....................          } 
....................       } 
....................        
.................... // Monitoreo Nivel de Agua//-------------------------------------- 
....................             if(!LOW){//Si no sensa agua en el reservorio del agua para la bomba 
06F66:  BSF    F93.0
06F68:  BTFSC  F81.0
06F6A:  BRA    6F7C
....................                TiempoSensadoNivel=0; 
06F6C:  CLRF   x96
06F6E:  CLRF   x95
....................                Controlando=0;    
06F70:  MOVLB  1
06F72:  CLRF   xD1
....................                CalderinLleno=OFF; 
06F74:  MOVLB  0
06F76:  BCF    x8E.0
....................                SensadoNivel=OFF; 
06F78:  BCF    x8B.5
....................             } else{ 
06F7A:  BRA    6F8E
....................                SensadoNivel=ON; 
06F7C:  BSF    x8B.5
....................                if(TiempoSensadoNivel>3){ 
06F7E:  MOVF   x96,F
06F80:  BNZ   6F88
06F82:  MOVF   x95,W
06F84:  SUBLW  03
06F86:  BC    6F8E
....................                   SensadoNivel=OFF; 
06F88:  BCF    x8B.5
....................                   CalderinLleno=ON; 
06F8A:  BSF    x8E.0
....................                   IniciaLlenado=OFF;                   
06F8C:  BCF    x8B.1
....................                }                                  
....................             } 
....................        
.................... // Tiempo de Grafica//-------------------------------------- 
....................       if(tiempos2>=2000){ 
06F8E:  MOVLB  1
06F90:  MOVF   xEA,W
06F92:  SUBLW  06
06F94:  BC    6FAA
06F96:  XORLW  FF
06F98:  BNZ   6FA0
06F9A:  MOVF   xE9,W
06F9C:  SUBLW  CF
06F9E:  BC    6FAA
....................          Grafica=1; 
06FA0:  MOVLB  0
06FA2:  BSF    x92.4
....................          tiempos2=0; 
06FA4:  MOVLB  1
06FA6:  CLRF   xEA
06FA8:  CLRF   xE9
....................       } 
....................  
.................... // Tiempo de Muestreo//-------------------------------------- 
....................       if(tiempos3>=20){ 
06FAA:  MOVF   xEC,F
06FAC:  BNZ   6FB4
06FAE:  MOVF   xEB,W
06FB0:  SUBLW  13
06FB2:  BC    7048
....................          Temperatura=LeerPt100(1,MediaMovil); 
06FB4:  MOVLW  01
06FB6:  MOVLB  6
06FB8:  MOVWF  x2C
06FBA:  MOVFF  17B,62D
06FBE:  MOVLB  0
06FC0:  CALL   3DE0
06FC4:  MOVFF  03,1BE
06FC8:  MOVFF  02,1BD
06FCC:  MOVFF  01,1BC
06FD0:  MOVFF  00,1BB
....................          Temperatura2=LeerPt100(0,MediaMovil); 
06FD4:  MOVLB  6
06FD6:  CLRF   x2C
06FD8:  MOVFF  17B,62D
06FDC:  MOVLB  0
06FDE:  CALL   3DE0
06FE2:  MOVFF  03,1C2
06FE6:  MOVFF  02,1C1
06FEA:  MOVFF  01,1C0
06FEE:  MOVFF  00,1BF
....................          PresionCamara=Leer_Sensor_Presion_Camara(10); 
06FF2:  MOVLW  0A
06FF4:  MOVLB  6
06FF6:  MOVWF  x2C
06FF8:  MOVLB  0
06FFA:  GOTO   4AB2
06FFE:  MOVFF  03,641
07002:  MOVFF  02,640
07006:  MOVFF  01,63F
0700A:  MOVFF  00,63E
0700E:  CALL   4CB2
07012:  MOVFF  02,1F4
07016:  MOVFF  01,1F3
....................          PresionPreCamara=Leer_Sensor_Presion_PreCamara(10); 
0701A:  MOVLW  0A
0701C:  MOVLB  6
0701E:  MOVWF  x2C
07020:  MOVLB  0
07022:  GOTO   4CEE
07026:  MOVFF  03,641
0702A:  MOVFF  02,640
0702E:  MOVFF  01,63F
07032:  MOVFF  00,63E
07036:  CALL   4CB2
0703A:  MOVFF  02,1F6
0703E:  MOVFF  01,1F5
....................          tiempos3=0; 
07042:  MOVLB  1
07044:  CLRF   xEC
07046:  CLRF   xEB
....................       } 
....................        
.................... // Monitoreo Parada Emergencia//--------------------------------------       
....................       if(!STOP && !IniciaCiclo && !PruebaEstados){ 
07048:  BSF    F93.2
0704A:  BTFSS  F81.2
0704C:  BRA    70CC
0704E:  MOVLB  0
07050:  BTFSS  x8B.2
07052:  BRA    7058
07054:  MOVLB  1
07056:  BRA    70CC
07058:  BTFSS  x8E.4
0705A:  BRA    7060
0705C:  MOVLB  1
0705E:  BRA    70CC
....................          if(!disp_Stop){ 
07060:  BTFSC  x92.5
07062:  BRA    706C
....................             disp_Stop=1;Menu=255; 
07064:  BSF    x92.5
07066:  MOVLB  1
07068:  SETF   xD7
0706A:  MOVLB  0
....................          } 
....................          Controlando=0; 
0706C:  MOVLB  1
0706E:  CLRF   xD1
....................          Desfogue_on; 
07070:  BSF    F8C.3
07072:  BCF    F95.3
....................          Paso_off; 
07074:  BCF    F8C.1
07076:  BCF    F95.1
....................          Suministro_off; 
07078:  BCF    F8C.0
0707A:  BCF    F95.0
....................          if(PresionCamara<Atmosferica) 
0707C:  MOVF   xF4,F
0707E:  BNZ   7090
07080:  MOVLB  2
07082:  MOVF   x1B,W
07084:  MOVLB  1
07086:  SUBWF  xF3,W
07088:  BC    7090
....................             Aire_on; 
0708A:  BSF    F8C.4
0708C:  BCF    F95.4
0708E:  BRA    7094
....................          else 
....................             Aire_off; 
07090:  BCF    F8C.4
07092:  BCF    F95.4
....................          Vacio_off;    
07094:  BCF    F8C.2
07096:  BCF    F95.2
....................          Agua_off; 
07098:  BCF    F8C.6
0709A:  BCF    F95.6
....................          BombaVacio_off; 
0709C:  BCF    F8C.5
0709E:  BCF    F95.5
....................          DesfogueSuave=OFF; 
070A0:  MOVLB  0
070A2:  BCF    x8B.7
....................          printf("page Emergencia"); 
070A4:  MOVLW  F4
070A6:  MOVWF  FF6
070A8:  MOVLW  06
070AA:  MOVWF  FF7
070AC:  MOVLW  00
070AE:  MOVWF  FF8
070B0:  CALL   3C02
....................          SendDataDisplay(); 
070B4:  CALL   3C34
....................          ActivaAlarma(1); 
070B8:  MOVLW  01
070BA:  MOVLB  6
070BC:  MOVWF  x2C
070BE:  MOVLB  0
070C0:  CALL   4EEE
....................          BorraBuffer(); 
070C4:  GOTO   4FAA
....................       }else{ 
070C8:  BRA    70D4
070CA:  MOVLB  1
....................          if(disp_Stop){ 
070CC:  MOVLB  0
070CE:  BTFSS  x92.5
070D0:  BRA    70D4
....................             reset_cpu(); 
070D2:  RESET
....................          } 
....................       }            
....................    //Buzzer_off;    
.................... //_-------------------------------------------------------------------------------------------------------------------------------------------------------- 
....................    if(Menu==240){ //Menu de Bienvenida. 
070D4:  MOVLB  1
070D6:  MOVF   xD7,W
070D8:  SUBLW  F0
070DA:  BNZ   7124
....................       printf("bkcmd=0"); 
070DC:  MOVLW  04
070DE:  MOVWF  FF6
070E0:  MOVLW  07
070E2:  MOVWF  FF7
070E4:  MOVLW  00
070E6:  MOVWF  FF8
070E8:  MOVLB  0
070EA:  CALL   3C02
....................       SendDataDisplay(); 
070EE:  CALL   3C34
....................       delay_ms(1500); 
070F2:  MOVLW  06
070F4:  MOVLB  6
070F6:  MOVWF  x2C
070F8:  MOVLW  FA
070FA:  MOVWF  x35
070FC:  MOVLB  0
070FE:  CALL   1EDC
07102:  MOVLB  6
07104:  DECFSZ x2C,F
07106:  BRA    70F8
....................       printf("page Usuarios"); 
07108:  MOVLW  0C
0710A:  MOVWF  FF6
0710C:  MOVLW  07
0710E:  MOVWF  FF7
07110:  MOVLW  00
07112:  MOVWF  FF8
07114:  MOVLB  0
07116:  CALL   3C02
....................       SendDataDisplay(); 
0711A:  CALL   3C34
....................       ApagaSalidas(); 
0711E:  CALL   3C6A
07122:  MOVLB  1
....................    } 
.................... //_-------------------------------------------------------------------------------------------------------------------------------------------------------- 
....................  
.................... //_-------------------------------------------------------------------------------------------------------------------------------------------------------- 
....................     if(Menu==0){ //Menu de Contrasea de acceso. 
07124:  MOVF   xD7,F
07126:  BTFSS  FD8.2
07128:  BRA    7780
....................       ApagaSalidas(); 
0712A:  MOVLB  0
0712C:  CALL   3C6A
....................       //printf("bkcmd=0"); 
....................       //SendDataDisplay(); 
....................       if(RX_Buffer[4]==0x11){//11 
07130:  MOVF   3C,W
07132:  SUBLW  11
07134:  BNZ   7158
....................          if(TipoClave!=0){ 
07136:  MOVLB  1
07138:  MOVF   x7D,F
0713A:  BZ    7156
....................             printf("page MenuPrincipal"); 
0713C:  MOVLW  1A
0713E:  MOVWF  FF6
07140:  MOVLW  07
07142:  MOVWF  FF7
07144:  MOVLW  00
07146:  MOVWF  FF8
07148:  MOVLB  0
0714A:  CALL   3C02
....................             SendDataDisplay(); 
0714E:  CALL   3C34
....................             PantallaPrincipal=0; 
07152:  MOVLB  1
07154:  CLRF   x7C
07156:  MOVLB  0
....................          } 
....................       } 
....................        
....................       if(TipoClave==3){ 
07158:  MOVLB  1
0715A:  MOVF   x7D,W
0715C:  SUBLW  03
0715E:  BNZ   718C
....................          printf("titulo.txt=\"Clave Nueva\""); 
07160:  MOVLW  2E
07162:  MOVWF  FF6
07164:  MOVLW  07
07166:  MOVWF  FF7
07168:  MOVLW  00
0716A:  MOVWF  FF8
0716C:  MOVLB  0
0716E:  CALL   3C02
....................          SendDataDisplay(); 
07172:  CALL   3C34
....................          printf("doevents"); 
07176:  MOVLW  48
07178:  MOVWF  FF6
0717A:  MOVLW  07
0717C:  MOVWF  FF7
0717E:  MOVLW  00
07180:  MOVWF  FF8
07182:  CALL   3C02
....................          SendDataDisplay(); 
07186:  CALL   3C34
0718A:  MOVLB  1
....................       } 
....................        
....................       if(TipoClave==2){ 
0718C:  MOVF   x7D,W
0718E:  SUBLW  02
07190:  BNZ   71BE
....................          printf("titulo.txt=\"Clave Actual\""); 
07192:  MOVLW  52
07194:  MOVWF  FF6
07196:  MOVLW  07
07198:  MOVWF  FF7
0719A:  MOVLW  00
0719C:  MOVWF  FF8
0719E:  MOVLB  0
071A0:  CALL   3C02
....................          SendDataDisplay(); 
071A4:  CALL   3C34
....................          printf("doevents"); 
071A8:  MOVLW  6C
071AA:  MOVWF  FF6
071AC:  MOVLW  07
071AE:  MOVWF  FF7
071B0:  MOVLW  00
071B2:  MOVWF  FF8
071B4:  CALL   3C02
....................          SendDataDisplay(); 
071B8:  CALL   3C34
071BC:  MOVLB  1
....................       } 
....................        
....................       if(TipoClave==1){ 
071BE:  DECFSZ x7D,W
071C0:  BRA    71EE
....................          printf("titulo.txt=\"Clave Tecnico\""); 
071C2:  MOVLW  76
071C4:  MOVWF  FF6
071C6:  MOVLW  07
071C8:  MOVWF  FF7
071CA:  MOVLW  00
071CC:  MOVWF  FF8
071CE:  MOVLB  0
071D0:  CALL   3C02
....................          SendDataDisplay(); 
071D4:  CALL   3C34
....................          printf("doevents"); 
071D8:  MOVLW  92
071DA:  MOVWF  FF6
071DC:  MOVLW  07
071DE:  MOVWF  FF7
071E0:  MOVLW  00
071E2:  MOVWF  FF8
071E4:  CALL   3C02
....................          SendDataDisplay(); 
071E8:  CALL   3C34
071EC:  MOVLB  1
....................       } 
....................        
....................       if(TipoClave==0){ 
071EE:  MOVF   x7D,F
071F0:  BNZ   7224
....................          printf("titulo.txt=\"%s\"",usuario); 
071F2:  MOVLW  9C
071F4:  MOVWF  FF6
071F6:  MOVLW  07
071F8:  MOVWF  FF7
071FA:  MOVLW  00
071FC:  MOVWF  FF8
071FE:  MOVLW  0C
07200:  MOVLB  6
07202:  MOVWF  x31
07204:  MOVLB  0
07206:  CALL   4FD6
0720A:  MOVLW  02
0720C:  MOVWF  FEA
0720E:  MOVLW  30
07210:  MOVWF  FE9
07212:  CALL   5008
07216:  MOVLW  22
07218:  BTFSS  F9E.4
0721A:  BRA    7218
0721C:  MOVWF  FAD
....................          SendDataDisplay(); 
0721E:  CALL   3C34
07222:  MOVLB  1
....................       } 
....................        
....................       if(RX_Buffer[4]==0x11){//11, Regresar 
07224:  MOVF   3C,W
07226:  SUBLW  11
07228:  BNZ   7260
....................          if(TipoClave==1){ 
0722A:  DECFSZ x7D,W
0722C:  BRA    7248
....................             printf("page Ajustes"); 
0722E:  MOVLW  AC
07230:  MOVWF  FF6
07232:  MOVLW  07
07234:  MOVWF  FF7
07236:  MOVLW  00
07238:  MOVWF  FF8
0723A:  MOVLB  0
0723C:  CALL   3C02
....................             SendDataDisplay();        
07240:  CALL   3C34
....................          }else{ 
07244:  BRA    725E
07246:  MOVLB  1
....................             printf("page Usuarios"); 
07248:  MOVLW  BA
0724A:  MOVWF  FF6
0724C:  MOVLW  07
0724E:  MOVWF  FF7
07250:  MOVLW  00
07252:  MOVWF  FF8
07254:  MOVLB  0
07256:  CALL   3C02
....................             SendDataDisplay();        
0725A:  CALL   3C34
0725E:  MOVLB  1
....................          } 
....................       } 
....................        
....................       if(RX_Buffer[3]==0x0f){//0f, recibe caracteres ingresados desde el Display 
07260:  MOVF   3B,W
07262:  SUBLW  0F
07264:  BTFSS  FD8.2
07266:  BRA    7780
....................          delay_ms(800); 
07268:  MOVLW  04
0726A:  MOVLB  6
0726C:  MOVWF  x2C
0726E:  MOVLW  C8
07270:  MOVWF  x35
07272:  MOVLB  0
07274:  CALL   1EDC
07278:  MOVLB  6
0727A:  DECFSZ x2C,F
0727C:  BRA    726E
....................          if(TipoClave==0){ 
0727E:  MOVLB  1
07280:  MOVF   x7D,F
07282:  BTFSS  FD8.2
07284:  BRA    7430
....................             if(RX_Buffer[4]==0x33&&RX_Buffer[5]==0x38&&RX_Buffer[6]==0x39&&RX_Buffer[7]==0x32 &&RX_Buffer[8]==0x00 &&RX_Buffer[9]==0xff){ // Si Ingresa clave para reset general del sistema. 
07286:  MOVF   3C,W
07288:  SUBLW  33
0728A:  BNZ   72FE
0728C:  MOVF   3D,W
0728E:  SUBLW  38
07290:  BNZ   72FE
07292:  MOVF   3E,W
07294:  SUBLW  39
07296:  BNZ   72FE
07298:  MOVF   3F,W
0729A:  SUBLW  32
0729C:  BNZ   72FE
0729E:  MOVF   40,F
072A0:  BNZ   72FE
072A2:  INCFSZ 41,W
072A4:  BRA    72FE
....................                for(i=0;i<40;i++){//Lee contraseas de usuarios 
072A6:  CLRF   xDA
072A8:  MOVF   xDA,W
072AA:  SUBLW  27
072AC:  BNC   72FC
....................                   write_eeprom(300+i,0);delay_ms(20); 
072AE:  MOVLW  2C
072B0:  ADDWF  xDA,W
072B2:  MOVLB  6
072B4:  MOVWF  x2C
072B6:  MOVLW  01
072B8:  MOVWF  x2D
072BA:  BTFSC  FD8.0
072BC:  INCF   x2D,F
072BE:  MOVF   FF2,W
072C0:  MOVWF  00
072C2:  BCF    FF2.7
072C4:  MOVFF  62D,FAA
072C8:  MOVFF  62C,FA9
072CC:  CLRF   FA8
072CE:  BCF    FA6.6
072D0:  BCF    FA6.7
072D2:  BSF    FA6.2
072D4:  MOVLB  F
072D6:  MOVLW  55
072D8:  MOVWF  FA7
072DA:  MOVLW  AA
072DC:  MOVWF  FA7
072DE:  BSF    FA6.1
072E0:  BTFSC  FA6.1
072E2:  BRA    72E0
072E4:  BCF    FA6.2
072E6:  MOVF   00,W
072E8:  IORWF  FF2,F
072EA:  MOVLW  14
072EC:  MOVLB  6
072EE:  MOVWF  x35
072F0:  MOVLB  0
072F2:  CALL   1EDC
072F6:  MOVLB  1
072F8:  INCF   xDA,F
072FA:  BRA    72A8
....................                } 
....................                reset_cpu(); 
072FC:  RESET
....................             } 
....................              
....................             if(RX_Buffer[4]>=0x30 && RX_Buffer[5]>=0x30 && RX_Buffer[6]>=0x30 && RX_Buffer[7]>=0x30 
....................             && RX_Buffer[4]<=0x39 && RX_Buffer[5]<=0x39 && RX_Buffer[6]<=0x39 && RX_Buffer[7]<=0x39){ 
072FE:  MOVF   3C,W
07300:  SUBLW  2F
07302:  BTFSC  FD8.0
07304:  BRA    742E
07306:  MOVF   3D,W
07308:  SUBLW  2F
0730A:  BTFSC  FD8.0
0730C:  BRA    742E
0730E:  MOVF   3E,W
07310:  SUBLW  2F
07312:  BTFSC  FD8.0
07314:  BRA    742E
07316:  MOVF   3F,W
07318:  SUBLW  2F
0731A:  BTFSC  FD8.0
0731C:  BRA    742E
0731E:  MOVF   3C,W
07320:  SUBLW  39
07322:  BTFSS  FD8.0
07324:  BRA    742E
07326:  MOVF   3D,W
07328:  SUBLW  39
0732A:  BTFSS  FD8.0
0732C:  BRA    742E
0732E:  MOVF   3E,W
07330:  SUBLW  39
07332:  BTFSS  FD8.0
07334:  BRA    742E
07336:  MOVF   3F,W
07338:  SUBLW  39
0733A:  BTFSS  FD8.0
0733C:  BRA    742E
....................                if((RX_Buffer[4]==Clave[codigoUsuario].Password[0]+0x30)&&(RX_Buffer[5]==Clave[codigoUsuario].Password[1]+0x30)&& 
....................                (RX_Buffer[6]==Clave[codigoUsuario].Password[2]+0x30)&&(RX_Buffer[7]==Clave[codigoUsuario].Password[3]+0x30) 
....................                &&RX_Buffer[8]==0x00 &&RX_Buffer[9]==0xff){ 
0733E:  MOVLB  2
07340:  MOVF   x2A,W
07342:  MULLW  04
07344:  MOVF   FF3,W
07346:  MOVLB  6
07348:  CLRF   x2D
0734A:  MOVWF  x2C
0734C:  MOVLW  02
0734E:  ADDWF  x2C,W
07350:  MOVWF  FE9
07352:  MOVLW  06
07354:  ADDWFC x2D,W
07356:  MOVWF  FEA
07358:  MOVLW  30
0735A:  ADDWF  FEF,W
0735C:  SUBWF  3C,W
0735E:  BNZ   7412
07360:  MOVLB  2
07362:  MOVF   x2A,W
07364:  MULLW  04
07366:  MOVF   FF3,W
07368:  MOVLB  6
0736A:  CLRF   x2F
0736C:  MOVWF  x2E
0736E:  MOVLW  01
07370:  ADDWF  x2E,W
07372:  MOVWF  01
07374:  MOVLW  00
07376:  ADDWFC x2F,W
07378:  MOVWF  03
0737A:  MOVF   01,W
0737C:  ADDLW  02
0737E:  MOVWF  FE9
07380:  MOVLW  06
07382:  ADDWFC 03,W
07384:  MOVWF  FEA
07386:  MOVLW  30
07388:  ADDWF  FEF,W
0738A:  SUBWF  3D,W
0738C:  BNZ   7412
0738E:  MOVLB  2
07390:  MOVF   x2A,W
07392:  MULLW  04
07394:  MOVF   FF3,W
07396:  MOVLB  6
07398:  CLRF   x2F
0739A:  MOVWF  x2E
0739C:  MOVLW  02
0739E:  ADDWF  x2E,W
073A0:  MOVWF  01
073A2:  MOVLW  00
073A4:  ADDWFC x2F,W
073A6:  MOVWF  03
073A8:  MOVF   01,W
073AA:  ADDLW  02
073AC:  MOVWF  FE9
073AE:  MOVLW  06
073B0:  ADDWFC 03,W
073B2:  MOVWF  FEA
073B4:  MOVLW  30
073B6:  ADDWF  FEF,W
073B8:  SUBWF  3E,W
073BA:  BNZ   7412
073BC:  MOVLB  2
073BE:  MOVF   x2A,W
073C0:  MULLW  04
073C2:  MOVF   FF3,W
073C4:  MOVLB  6
073C6:  CLRF   x2F
073C8:  MOVWF  x2E
073CA:  MOVLW  03
073CC:  ADDWF  x2E,W
073CE:  MOVWF  01
073D0:  MOVLW  00
073D2:  ADDWFC x2F,W
073D4:  MOVWF  03
073D6:  MOVF   01,W
073D8:  ADDLW  02
073DA:  MOVWF  FE9
073DC:  MOVLW  06
073DE:  ADDWFC 03,W
073E0:  MOVWF  FEA
073E2:  MOVLW  30
073E4:  ADDWF  FEF,W
073E6:  SUBWF  3F,W
073E8:  BNZ   7412
073EA:  MOVF   40,F
073EC:  BNZ   7412
073EE:  INCFSZ 41,W
073F0:  BRA    7412
....................                   printf("page ClaveCorrecta"); 
073F2:  MOVLW  C8
073F4:  MOVWF  FF6
073F6:  MOVLW  07
073F8:  MOVWF  FF7
073FA:  MOVLW  00
073FC:  MOVWF  FF8
073FE:  MOVLB  0
07400:  CALL   3C02
....................                   SendDataDisplay(); 
07404:  CALL   3C34
....................                   ingreso=ON; 
07408:  BSF    x91.0
....................                   RX_Buffer[3]=0x00;RX_Buffer2[3]=0x00;   
0740A:  CLRF   3B
0740C:  CLRF   46
....................                }else{ 
0740E:  BRA    742C
07410:  MOVLB  6
....................                   printf("page ClaveBad"); 
07412:  MOVLW  DC
07414:  MOVWF  FF6
07416:  MOVLW  07
07418:  MOVWF  FF7
0741A:  MOVLW  00
0741C:  MOVWF  FF8
0741E:  MOVLB  0
07420:  CALL   3C02
....................                   SendDataDisplay(); 
07424:  CALL   3C34
....................                   RX_Buffer[3]=0x00;RX_Buffer2[3]=0x00;   
07428:  CLRF   3B
0742A:  CLRF   46
0742C:  MOVLB  1
....................                }  
....................             } 
....................          }else if(TipoClave==1){ 
0742E:  BRA    7780
07430:  DECFSZ x7D,W
07432:  BRA    7490
....................             if(RX_Buffer[4]==0x34&&RX_Buffer[5]==0x34&&RX_Buffer[6]==0x34&&RX_Buffer[7]==0x34&&RX_Buffer[8]==0x00 &&RX_Buffer[9]==0xff){ // Si Ingresa clave de Servicio Tecnico 
07434:  MOVF   3C,W
07436:  SUBLW  34
07438:  BNZ   7472
0743A:  MOVF   3D,W
0743C:  SUBLW  34
0743E:  BNZ   7472
07440:  MOVF   3E,W
07442:  SUBLW  34
07444:  BNZ   7472
07446:  MOVF   3F,W
07448:  SUBLW  34
0744A:  BNZ   7472
0744C:  MOVF   40,F
0744E:  BNZ   7472
07450:  INCFSZ 41,W
07452:  BRA    7472
....................                printf("page Config"); 
07454:  MOVLW  EA
07456:  MOVWF  FF6
07458:  MOVLW  07
0745A:  MOVWF  FF7
0745C:  MOVLW  00
0745E:  MOVWF  FF8
07460:  MOVLB  0
07462:  CALL   3C02
....................                SendDataDisplay(); 
07466:  CALL   3C34
....................                RX_Buffer[3]=0x00;RX_Buffer2[3]=0x00;   
0746A:  CLRF   3B
0746C:  CLRF   46
....................             }else{ 
0746E:  BRA    748C
07470:  MOVLB  1
....................                printf("page Menu"); 
07472:  MOVLW  F6
07474:  MOVWF  FF6
07476:  MOVLW  07
07478:  MOVWF  FF7
0747A:  MOVLW  00
0747C:  MOVWF  FF8
0747E:  MOVLB  0
07480:  CALL   3C02
....................                SendDataDisplay(); 
07484:  CALL   3C34
....................                RX_Buffer[3]=0x00;RX_Buffer2[3]=0x00;   
07488:  CLRF   3B
0748A:  CLRF   46
....................             } 
....................          }else if(TipoClave==2){ 
0748C:  BRA    777E
0748E:  MOVLB  1
07490:  MOVF   x7D,W
07492:  SUBLW  02
07494:  BTFSS  FD8.2
07496:  BRA    75E6
....................             if(RX_Buffer[4]>=0x30 && RX_Buffer[5]>=0x30 && RX_Buffer[6]>=0x30 && RX_Buffer[7]>=0x30 
....................             && RX_Buffer[4]<=0x39 && RX_Buffer[5]<=0x39 && RX_Buffer[6]<=0x39 && RX_Buffer[7]<=0x39){ 
07498:  MOVF   3C,W
0749A:  SUBLW  2F
0749C:  BTFSC  FD8.0
0749E:  BRA    75E4
074A0:  MOVF   3D,W
074A2:  SUBLW  2F
074A4:  BTFSC  FD8.0
074A6:  BRA    75E4
074A8:  MOVF   3E,W
074AA:  SUBLW  2F
074AC:  BTFSC  FD8.0
074AE:  BRA    75E4
074B0:  MOVF   3F,W
074B2:  SUBLW  2F
074B4:  BTFSC  FD8.0
074B6:  BRA    75E4
074B8:  MOVF   3C,W
074BA:  SUBLW  39
074BC:  BTFSS  FD8.0
074BE:  BRA    75E4
074C0:  MOVF   3D,W
074C2:  SUBLW  39
074C4:  BTFSS  FD8.0
074C6:  BRA    75E4
074C8:  MOVF   3E,W
074CA:  SUBLW  39
074CC:  BTFSS  FD8.0
074CE:  BRA    75E4
074D0:  MOVF   3F,W
074D2:  SUBLW  39
074D4:  BTFSS  FD8.0
074D6:  BRA    75E4
....................                if((RX_Buffer[4]==Clave[codigoUsuario2].Password[0]+0x30)&&(RX_Buffer[5]==Clave[codigoUsuario2].Password[1]+0x30)&& 
....................                (RX_Buffer[6]==Clave[codigoUsuario2].Password[2]+0x30)&&(RX_Buffer[7]==Clave[codigoUsuario2].Password[3]+0x30) 
....................                &&RX_Buffer[8]==0x00 &&RX_Buffer[9]==0xff){ 
074D8:  MOVLB  2
074DA:  MOVF   x0C,W
074DC:  MULLW  04
074DE:  MOVF   FF3,W
074E0:  MOVLB  6
074E2:  CLRF   x2D
074E4:  MOVWF  x2C
074E6:  MOVLW  02
074E8:  ADDWF  x2C,W
074EA:  MOVWF  FE9
074EC:  MOVLW  06
074EE:  ADDWFC x2D,W
074F0:  MOVWF  FEA
074F2:  MOVLW  30
074F4:  ADDWF  FEF,W
074F6:  SUBWF  3C,W
074F8:  BNZ   75C4
074FA:  MOVLB  2
074FC:  MOVF   x0C,W
074FE:  MULLW  04
07500:  MOVF   FF3,W
07502:  MOVLB  6
07504:  CLRF   x2F
07506:  MOVWF  x2E
07508:  MOVLW  01
0750A:  ADDWF  x2E,W
0750C:  MOVWF  01
0750E:  MOVLW  00
07510:  ADDWFC x2F,W
07512:  MOVWF  03
07514:  MOVF   01,W
07516:  ADDLW  02
07518:  MOVWF  FE9
0751A:  MOVLW  06
0751C:  ADDWFC 03,W
0751E:  MOVWF  FEA
07520:  MOVLW  30
07522:  ADDWF  FEF,W
07524:  SUBWF  3D,W
07526:  BNZ   75C4
07528:  MOVLB  2
0752A:  MOVF   x0C,W
0752C:  MULLW  04
0752E:  MOVF   FF3,W
07530:  MOVLB  6
07532:  CLRF   x2F
07534:  MOVWF  x2E
07536:  MOVLW  02
07538:  ADDWF  x2E,W
0753A:  MOVWF  01
0753C:  MOVLW  00
0753E:  ADDWFC x2F,W
07540:  MOVWF  03
07542:  MOVF   01,W
07544:  ADDLW  02
07546:  MOVWF  FE9
07548:  MOVLW  06
0754A:  ADDWFC 03,W
0754C:  MOVWF  FEA
0754E:  MOVLW  30
07550:  ADDWF  FEF,W
07552:  SUBWF  3E,W
07554:  BNZ   75C4
07556:  MOVLB  2
07558:  MOVF   x0C,W
0755A:  MULLW  04
0755C:  MOVF   FF3,W
0755E:  MOVLB  6
07560:  CLRF   x2F
07562:  MOVWF  x2E
07564:  MOVLW  03
07566:  ADDWF  x2E,W
07568:  MOVWF  01
0756A:  MOVLW  00
0756C:  ADDWFC x2F,W
0756E:  MOVWF  03
07570:  MOVF   01,W
07572:  ADDLW  02
07574:  MOVWF  FE9
07576:  MOVLW  06
07578:  ADDWFC 03,W
0757A:  MOVWF  FEA
0757C:  MOVLW  30
0757E:  ADDWF  FEF,W
07580:  SUBWF  3F,W
07582:  BNZ   75C4
07584:  MOVF   40,F
07586:  BNZ   75C4
07588:  INCFSZ 41,W
0758A:  BRA    75C4
....................                   printf("page Clave"); 
0758C:  MOVLW  00
0758E:  MOVWF  FF6
07590:  MOVLW  08
07592:  MOVWF  FF7
07594:  MOVLW  00
07596:  MOVWF  FF8
07598:  MOVLB  0
0759A:  CALL   3C02
....................                   SendDataDisplay(); 
0759E:  CALL   3C34
....................                   printf("titulo.txt=\"Clave Nueva\""); 
075A2:  MOVLW  0C
075A4:  MOVWF  FF6
075A6:  MOVLW  08
075A8:  MOVWF  FF7
075AA:  MOVLW  00
075AC:  MOVWF  FF8
075AE:  CALL   3C02
....................                   SendDataDisplay(); 
075B2:  CALL   3C34
....................                   TipoClave=3; 
075B6:  MOVLW  03
075B8:  MOVLB  1
075BA:  MOVWF  x7D
....................                   RX_Buffer[3]=0x00; 
075BC:  CLRF   3B
....................                   RX_Buffer2[3]=0x00; 
075BE:  CLRF   46
....................                }else{ 
075C0:  BRA    75E4
075C2:  MOVLB  6
....................                   printf("page Menu"); 
075C4:  MOVLW  26
075C6:  MOVWF  FF6
075C8:  MOVLW  08
075CA:  MOVWF  FF7
075CC:  MOVLW  00
075CE:  MOVWF  FF8
075D0:  MOVLB  0
075D2:  CALL   3C02
....................                   SendDataDisplay(); 
075D6:  CALL   3C34
....................                   RX_Buffer[3]=0x00; 
075DA:  CLRF   3B
....................                   RX_Buffer2[3]=0x00; 
075DC:  CLRF   46
....................                   codigoUsuario=codigoUsuarioant; 
075DE:  MOVFF  22B,22A
075E2:  MOVLB  1
....................                }  
....................             } 
....................          }else if(TipoClave==3){ 
075E4:  BRA    7780
075E6:  MOVF   x7D,W
075E8:  SUBLW  03
075EA:  BTFSS  FD8.2
075EC:  BRA    7780
....................             printf("titulo.txt=\"Clave Nueva\""); 
075EE:  MOVLW  30
075F0:  MOVWF  FF6
075F2:  MOVLW  08
075F4:  MOVWF  FF7
075F6:  MOVLW  00
075F8:  MOVWF  FF8
075FA:  MOVLB  0
075FC:  CALL   3C02
....................             SendDataDisplay(); 
07600:  CALL   3C34
....................             printf("page Menu"); 
07604:  MOVLW  4A
07606:  MOVWF  FF6
07608:  MOVLW  08
0760A:  MOVWF  FF7
0760C:  MOVLW  00
0760E:  MOVWF  FF8
07610:  CALL   3C02
....................             SendDataDisplay(); 
07614:  CALL   3C34
....................             if(!GuardaEEPROM){ 
07618:  BTFSC  x8F.4
0761A:  BRA    777A
....................                write_eeprom(300+(codigoUsuario*4),RX_Buffer[4]-0x30);delay_ms(20); 
0761C:  MOVLB  2
0761E:  MOVF   x2A,W
07620:  MULLW  04
07622:  MOVF   FF3,W
07624:  ADDLW  2C
07626:  MOVLB  6
07628:  MOVWF  x2C
0762A:  MOVLW  01
0762C:  MOVWF  x2D
0762E:  BTFSC  FD8.0
07630:  INCF   x2D,F
07632:  MOVLW  30
07634:  SUBWF  3C,W
07636:  MOVWF  x2E
07638:  MOVF   FF2,W
0763A:  MOVWF  00
0763C:  BCF    FF2.7
0763E:  MOVFF  62D,FAA
07642:  MOVFF  62C,FA9
07646:  MOVFF  62E,FA8
0764A:  BCF    FA6.6
0764C:  BCF    FA6.7
0764E:  BSF    FA6.2
07650:  MOVLB  F
07652:  MOVLW  55
07654:  MOVWF  FA7
07656:  MOVLW  AA
07658:  MOVWF  FA7
0765A:  BSF    FA6.1
0765C:  BTFSC  FA6.1
0765E:  BRA    765C
07660:  BCF    FA6.2
07662:  MOVF   00,W
07664:  IORWF  FF2,F
07666:  MOVLW  14
07668:  MOVLB  6
0766A:  MOVWF  x35
0766C:  MOVLB  0
0766E:  CALL   1EDC
....................                write_eeprom(301+(codigoUsuario*4),RX_Buffer[5]-0x30);delay_ms(20); 
07672:  MOVLB  2
07674:  MOVF   x2A,W
07676:  MULLW  04
07678:  MOVF   FF3,W
0767A:  ADDLW  2D
0767C:  MOVLB  6
0767E:  MOVWF  x2C
07680:  MOVLW  01
07682:  MOVWF  x2D
07684:  BTFSC  FD8.0
07686:  INCF   x2D,F
07688:  MOVLW  30
0768A:  SUBWF  3D,W
0768C:  MOVWF  x2E
0768E:  MOVF   FF2,W
07690:  MOVWF  00
07692:  BCF    FF2.7
07694:  MOVFF  62D,FAA
07698:  MOVFF  62C,FA9
0769C:  MOVFF  62E,FA8
076A0:  BCF    FA6.6
076A2:  BCF    FA6.7
076A4:  BSF    FA6.2
076A6:  MOVLB  F
076A8:  MOVLW  55
076AA:  MOVWF  FA7
076AC:  MOVLW  AA
076AE:  MOVWF  FA7
076B0:  BSF    FA6.1
076B2:  BTFSC  FA6.1
076B4:  BRA    76B2
076B6:  BCF    FA6.2
076B8:  MOVF   00,W
076BA:  IORWF  FF2,F
076BC:  MOVLW  14
076BE:  MOVLB  6
076C0:  MOVWF  x35
076C2:  MOVLB  0
076C4:  CALL   1EDC
....................                write_eeprom(302+(codigoUsuario*4),RX_Buffer[6]-0x30);delay_ms(20); 
076C8:  MOVLB  2
076CA:  MOVF   x2A,W
076CC:  MULLW  04
076CE:  MOVF   FF3,W
076D0:  ADDLW  2E
076D2:  MOVLB  6
076D4:  MOVWF  x2C
076D6:  MOVLW  01
076D8:  MOVWF  x2D
076DA:  BTFSC  FD8.0
076DC:  INCF   x2D,F
076DE:  MOVLW  30
076E0:  SUBWF  3E,W
076E2:  MOVWF  x2E
076E4:  MOVF   FF2,W
076E6:  MOVWF  00
076E8:  BCF    FF2.7
076EA:  MOVFF  62D,FAA
076EE:  MOVFF  62C,FA9
076F2:  MOVFF  62E,FA8
076F6:  BCF    FA6.6
076F8:  BCF    FA6.7
076FA:  BSF    FA6.2
076FC:  MOVLB  F
076FE:  MOVLW  55
07700:  MOVWF  FA7
07702:  MOVLW  AA
07704:  MOVWF  FA7
07706:  BSF    FA6.1
07708:  BTFSC  FA6.1
0770A:  BRA    7708
0770C:  BCF    FA6.2
0770E:  MOVF   00,W
07710:  IORWF  FF2,F
07712:  MOVLW  14
07714:  MOVLB  6
07716:  MOVWF  x35
07718:  MOVLB  0
0771A:  CALL   1EDC
....................                write_eeprom(303+(codigoUsuario*4),RX_Buffer[7]-0x30);delay_ms(20); 
0771E:  MOVLB  2
07720:  MOVF   x2A,W
07722:  MULLW  04
07724:  MOVF   FF3,W
07726:  ADDLW  2F
07728:  MOVLB  6
0772A:  MOVWF  x2C
0772C:  MOVLW  01
0772E:  MOVWF  x2D
07730:  BTFSC  FD8.0
07732:  INCF   x2D,F
07734:  MOVLW  30
07736:  SUBWF  3F,W
07738:  MOVWF  x2E
0773A:  MOVF   FF2,W
0773C:  MOVWF  00
0773E:  BCF    FF2.7
07740:  MOVFF  62D,FAA
07744:  MOVFF  62C,FA9
07748:  MOVFF  62E,FA8
0774C:  BCF    FA6.6
0774E:  BCF    FA6.7
07750:  BSF    FA6.2
07752:  MOVLB  F
07754:  MOVLW  55
07756:  MOVWF  FA7
07758:  MOVLW  AA
0775A:  MOVWF  FA7
0775C:  BSF    FA6.1
0775E:  BTFSC  FA6.1
07760:  BRA    775E
07762:  BCF    FA6.2
07764:  MOVF   00,W
07766:  IORWF  FF2,F
07768:  MOVLW  14
0776A:  MOVLB  6
0776C:  MOVWF  x35
0776E:  MOVLB  0
07770:  CALL   1EDC
....................                GuardaEEPROM=ON; 
07774:  BSF    x8F.4
....................                codigoUsuario=codigoUsuarioant; 
07776:  MOVFF  22B,22A
....................             } 
....................             RX_Buffer[3]=0x00; 
0777A:  CLRF   3B
....................             RX_Buffer2[3]=0x00; 
0777C:  CLRF   46
0777E:  MOVLB  1
....................          } 
....................       } 
....................     } 
.................... //_--------------------------------------------------------------------------------------------------------------------------------------------------------        
....................  
.................... //_-------------------------------------------------------------------------------------------------------------------------------------------------------- 
....................    if(Menu==1){ //Menu Principal. 
07780:  DECFSZ xD7,W
07782:  GOTO   8118
....................       printf("fecha.txt=\"Fecha:%02u/%02u/20%02u    Hora: %02u:%02u:%02u\"",Dia,Mes,Year,Hora,Minuto,Segundo); 
07786:  MOVLW  54
07788:  MOVWF  FF6
0778A:  MOVLW  08
0778C:  MOVWF  FF7
0778E:  MOVLW  00
07790:  MOVWF  FF8
07792:  MOVLW  11
07794:  MOVLB  6
07796:  MOVWF  x31
07798:  MOVLB  0
0779A:  CALL   4FD6
0779E:  MOVFF  213,631
077A2:  MOVLW  01
077A4:  MOVLB  6
077A6:  MOVWF  x32
077A8:  MOVLB  0
077AA:  CALL   505A
077AE:  MOVLW  2F
077B0:  BTFSS  F9E.4
077B2:  BRA    77B0
077B4:  MOVWF  FAD
077B6:  MOVFF  212,631
077BA:  MOVLW  01
077BC:  MOVLB  6
077BE:  MOVWF  x32
077C0:  MOVLB  0
077C2:  CALL   505A
077C6:  MOVLW  6E
077C8:  MOVWF  FF6
077CA:  MOVLW  08
077CC:  MOVWF  FF7
077CE:  MOVLW  00
077D0:  MOVWF  FF8
077D2:  MOVLW  03
077D4:  MOVLB  6
077D6:  MOVWF  x31
077D8:  MOVLB  0
077DA:  CALL   4FD6
077DE:  MOVFF  211,631
077E2:  MOVLW  01
077E4:  MOVLB  6
077E6:  MOVWF  x32
077E8:  MOVLB  0
077EA:  CALL   505A
077EE:  MOVLW  75
077F0:  MOVWF  FF6
077F2:  MOVLW  08
077F4:  MOVWF  FF7
077F6:  MOVLW  00
077F8:  MOVWF  FF8
077FA:  MOVLW  0A
077FC:  MOVLB  6
077FE:  MOVWF  x31
07800:  MOVLB  0
07802:  CALL   4FD6
07806:  MOVFF  214,631
0780A:  MOVLW  01
0780C:  MOVLB  6
0780E:  MOVWF  x32
07810:  MOVLB  0
07812:  CALL   505A
07816:  MOVLW  3A
07818:  BTFSS  F9E.4
0781A:  BRA    7818
0781C:  MOVWF  FAD
0781E:  MOVFF  215,631
07822:  MOVLW  01
07824:  MOVLB  6
07826:  MOVWF  x32
07828:  MOVLB  0
0782A:  CALL   505A
0782E:  MOVLW  3A
07830:  BTFSS  F9E.4
07832:  BRA    7830
07834:  MOVWF  FAD
07836:  MOVFF  216,631
0783A:  MOVLW  01
0783C:  MOVLB  6
0783E:  MOVWF  x32
07840:  MOVLB  0
07842:  CALL   505A
07846:  MOVLW  22
07848:  BTFSS  F9E.4
0784A:  BRA    7848
0784C:  MOVWF  FAD
....................       SendDataDisplay(); 
0784E:  CALL   3C34
....................       GuardaEEPROM=OFF; 
07852:  BCF    x8F.4
....................       printf("tuser.txt=\"%s\"",usuario); 
07854:  MOVLW  90
07856:  MOVWF  FF6
07858:  MOVLW  08
0785A:  MOVWF  FF7
0785C:  MOVLW  00
0785E:  MOVWF  FF8
07860:  MOVLW  0B
07862:  MOVLB  6
07864:  MOVWF  x31
07866:  MOVLB  0
07868:  CALL   4FD6
0786C:  MOVLW  02
0786E:  MOVWF  FEA
07870:  MOVLW  30
07872:  MOVWF  FE9
07874:  CALL   5008
07878:  MOVLW  22
0787A:  BTFSS  F9E.4
0787C:  BRA    787A
0787E:  MOVWF  FAD
....................       SendDataDisplay(); 
07880:  CALL   3C34
....................       codigoUsuarioant=codigoUsuario; 
07884:  MOVFF  22A,22B
....................        
....................       if(RX_Buffer[4]==0x01 && RX_Buffer[5]==0x0f && estados[19+RX_Buffer[4]]){//01, Calentamiento 
07888:  DECFSZ 3C,W
0788A:  BRA    794C
0788C:  MOVF   3D,W
0788E:  SUBLW  0F
07890:  BNZ   794C
07892:  MOVLW  13
07894:  ADDWF  3C,W
07896:  MOVLB  6
07898:  MOVWF  x2D
0789A:  MOVLW  02
0789C:  MOVWF  x2F
0789E:  MOVLW  96
078A0:  MOVWF  x2E
078A2:  MOVLB  0
078A4:  CALL   231C
078A8:  BTFSS  01.0
078AA:  BRA    794C
....................          delay_ms(5); 
078AC:  MOVLW  05
078AE:  MOVLB  6
078B0:  MOVWF  x35
078B2:  MOVLB  0
078B4:  CALL   1EDC
....................          if(RX_Buffer[4]==0x01 && RX_Buffer[5]==0x0f && estados[19+RX_Buffer[4]]){//01, Calentamiento 
078B8:  DECFSZ 3C,W
078BA:  BRA    794C
078BC:  MOVF   3D,W
078BE:  SUBLW  0F
078C0:  BNZ   794C
078C2:  MOVLW  13
078C4:  ADDWF  3C,W
078C6:  MOVLB  6
078C8:  MOVWF  x2D
078CA:  MOVLW  02
078CC:  MOVWF  x2F
078CE:  MOVLW  96
078D0:  MOVWF  x2E
078D2:  MOVLB  0
078D4:  CALL   231C
078D8:  BTFSS  01.0
078DA:  BRA    794C
....................             printf("page Funcionamiento"); 
078DC:  MOVLW  A0
078DE:  MOVWF  FF6
078E0:  MOVLW  08
078E2:  MOVWF  FF7
078E4:  MOVLW  00
078E6:  MOVWF  FF8
078E8:  CALL   3C02
....................             SendDataDisplay();        
078EC:  CALL   3C34
....................             ConfiguraCiclo(0,0,5,1,0,0,1,0,0,1,121); 
078F0:  MOVLB  6
078F2:  CLRF   x38
078F4:  CLRF   x39
078F6:  MOVLW  05
078F8:  MOVWF  x3A
078FA:  MOVLW  01
078FC:  MOVWF  x3B
078FE:  CLRF   x3C
07900:  CLRF   x3D
07902:  MOVWF  x3E
07904:  CLRF   x3F
07906:  CLRF   x40
07908:  MOVWF  x41
0790A:  MOVLW  79
0790C:  MOVWF  x42
0790E:  MOVLB  0
07910:  CALL   50D8
....................             Op=OFF; 
07914:  BCF    x8F.0
....................             Op2=OFF; 
07916:  BCF    x8F.1
....................             MenuAnt=Menu; 
07918:  MOVFF  1D7,1D8
....................             CantidadPulsos=7; 
0791C:  MOVLB  1
0791E:  CLRF   xE0
07920:  MOVLW  07
07922:  MOVWF  xDF
....................             NivelVacio=32; 
07924:  MOVLW  20
07926:  MOVLB  2
07928:  MOVWF  x1A
....................             Fugas=OFF; 
0792A:  MOVLB  0
0792C:  BCF    x91.1
....................             TiempoVacio=CantidadPulsos*180; 
0792E:  MOVFF  1E0,635
07932:  MOVFF  1DF,634
07936:  MOVLB  6
07938:  CLRF   x37
0793A:  MOVLW  B4
0793C:  MOVWF  x36
0793E:  MOVLB  0
07940:  CALL   234E
07944:  MOVFF  02,8D
07948:  MOVFF  01,8C
....................          } 
....................       } 
....................        
....................       if(RX_Buffer[4]==0x02 && RX_Buffer[5]==0x0f && estados[19+RX_Buffer[4]]){//02, No Envueltos 134 
0794C:  MOVF   3C,W
0794E:  SUBLW  02
07950:  BNZ   7A16
07952:  MOVF   3D,W
07954:  SUBLW  0F
07956:  BNZ   7A16
07958:  MOVLW  13
0795A:  ADDWF  3C,W
0795C:  MOVLB  6
0795E:  MOVWF  x2D
07960:  MOVLW  02
07962:  MOVWF  x2F
07964:  MOVLW  96
07966:  MOVWF  x2E
07968:  MOVLB  0
0796A:  CALL   231C
0796E:  BTFSS  01.0
07970:  BRA    7A16
....................          delay_ms(5); 
07972:  MOVLW  05
07974:  MOVLB  6
07976:  MOVWF  x35
07978:  MOVLB  0
0797A:  CALL   1EDC
....................          if(RX_Buffer[4]==0x02 && RX_Buffer[5]==0x0f && estados[19+RX_Buffer[4]]){ 
0797E:  MOVF   3C,W
07980:  SUBLW  02
07982:  BNZ   7A16
07984:  MOVF   3D,W
07986:  SUBLW  0F
07988:  BNZ   7A16
0798A:  MOVLW  13
0798C:  ADDWF  3C,W
0798E:  MOVLB  6
07990:  MOVWF  x2D
07992:  MOVLW  02
07994:  MOVWF  x2F
07996:  MOVLW  96
07998:  MOVWF  x2E
0799A:  MOVLB  0
0799C:  CALL   231C
079A0:  BTFSS  01.0
079A2:  BRA    7A16
....................             printf("page Funcionamiento"); 
079A4:  MOVLW  B4
079A6:  MOVWF  FF6
079A8:  MOVLW  08
079AA:  MOVWF  FF7
079AC:  MOVLW  00
079AE:  MOVWF  FF8
079B0:  CALL   3C02
....................             SendDataDisplay();        
079B4:  CALL   3C34
....................             ConfiguraCiclo(0,0,3,0,0,0,1,0,0,2,134); 
079B8:  MOVLB  6
079BA:  CLRF   x38
079BC:  CLRF   x39
079BE:  MOVLW  03
079C0:  MOVWF  x3A
079C2:  CLRF   x3B
079C4:  CLRF   x3C
079C6:  CLRF   x3D
079C8:  MOVLW  01
079CA:  MOVWF  x3E
079CC:  CLRF   x3F
079CE:  CLRF   x40
079D0:  MOVLW  02
079D2:  MOVWF  x41
079D4:  MOVLW  86
079D6:  MOVWF  x42
079D8:  MOVLB  0
079DA:  CALL   50D8
....................             Op=OFF; 
079DE:  BCF    x8F.0
....................             Op2=OFF; 
079E0:  BCF    x8F.1
....................             MenuAnt=Menu; 
079E2:  MOVFF  1D7,1D8
....................             CantidadPulsos=7; 
079E6:  MOVLB  1
079E8:  CLRF   xE0
079EA:  MOVLW  07
079EC:  MOVWF  xDF
....................             NivelVacio=32; 
079EE:  MOVLW  20
079F0:  MOVLB  2
079F2:  MOVWF  x1A
....................             Fugas=OFF; 
079F4:  MOVLB  0
079F6:  BCF    x91.1
....................             TiempoVacio=CantidadPulsos*180; 
079F8:  MOVFF  1E0,635
079FC:  MOVFF  1DF,634
07A00:  MOVLB  6
07A02:  CLRF   x37
07A04:  MOVLW  B4
07A06:  MOVWF  x36
07A08:  MOVLB  0
07A0A:  CALL   234E
07A0E:  MOVFF  02,8D
07A12:  MOVFF  01,8C
....................          } 
....................       } 
....................        
....................       if(RX_Buffer[4]==0x03  && RX_Buffer[5]==0x0f && estados[19+RX_Buffer[4]]){//03, No Envueltos 121 
07A16:  MOVF   3C,W
07A18:  SUBLW  03
07A1A:  BNZ   7AE0
07A1C:  MOVF   3D,W
07A1E:  SUBLW  0F
07A20:  BNZ   7AE0
07A22:  MOVLW  13
07A24:  ADDWF  3C,W
07A26:  MOVLB  6
07A28:  MOVWF  x2D
07A2A:  MOVLW  02
07A2C:  MOVWF  x2F
07A2E:  MOVLW  96
07A30:  MOVWF  x2E
07A32:  MOVLB  0
07A34:  CALL   231C
07A38:  BTFSS  01.0
07A3A:  BRA    7AE0
....................          delay_ms(5); 
07A3C:  MOVLW  05
07A3E:  MOVLB  6
07A40:  MOVWF  x35
07A42:  MOVLB  0
07A44:  CALL   1EDC
....................          if(RX_Buffer[4]==0x03 && RX_Buffer[5]==0x0f && estados[19+RX_Buffer[4]]){ 
07A48:  MOVF   3C,W
07A4A:  SUBLW  03
07A4C:  BNZ   7AE0
07A4E:  MOVF   3D,W
07A50:  SUBLW  0F
07A52:  BNZ   7AE0
07A54:  MOVLW  13
07A56:  ADDWF  3C,W
07A58:  MOVLB  6
07A5A:  MOVWF  x2D
07A5C:  MOVLW  02
07A5E:  MOVWF  x2F
07A60:  MOVLW  96
07A62:  MOVWF  x2E
07A64:  MOVLB  0
07A66:  CALL   231C
07A6A:  BTFSS  01.0
07A6C:  BRA    7AE0
....................             printf("page Funcionamiento"); 
07A6E:  MOVLW  C8
07A70:  MOVWF  FF6
07A72:  MOVLW  08
07A74:  MOVWF  FF7
07A76:  MOVLW  00
07A78:  MOVWF  FF8
07A7A:  CALL   3C02
....................             SendDataDisplay();        
07A7E:  CALL   3C34
....................             ConfiguraCiclo(0,0,5,1,0,0,1,0,0,3,121); 
07A82:  MOVLB  6
07A84:  CLRF   x38
07A86:  CLRF   x39
07A88:  MOVLW  05
07A8A:  MOVWF  x3A
07A8C:  MOVLW  01
07A8E:  MOVWF  x3B
07A90:  CLRF   x3C
07A92:  CLRF   x3D
07A94:  MOVWF  x3E
07A96:  CLRF   x3F
07A98:  CLRF   x40
07A9A:  MOVLW  03
07A9C:  MOVWF  x41
07A9E:  MOVLW  79
07AA0:  MOVWF  x42
07AA2:  MOVLB  0
07AA4:  CALL   50D8
....................             Op=OFF; 
07AA8:  BCF    x8F.0
....................             Op2=OFF; 
07AAA:  BCF    x8F.1
....................             MenuAnt=Menu; 
07AAC:  MOVFF  1D7,1D8
....................             CantidadPulsos=7; 
07AB0:  MOVLB  1
07AB2:  CLRF   xE0
07AB4:  MOVLW  07
07AB6:  MOVWF  xDF
....................             NivelVacio=32; 
07AB8:  MOVLW  20
07ABA:  MOVLB  2
07ABC:  MOVWF  x1A
....................             Fugas=OFF; 
07ABE:  MOVLB  0
07AC0:  BCF    x91.1
....................             TiempoVacio=CantidadPulsos*180; 
07AC2:  MOVFF  1E0,635
07AC6:  MOVFF  1DF,634
07ACA:  MOVLB  6
07ACC:  CLRF   x37
07ACE:  MOVLW  B4
07AD0:  MOVWF  x36
07AD2:  MOVLB  0
07AD4:  CALL   234E
07AD8:  MOVFF  02,8D
07ADC:  MOVFF  01,8C
....................          } 
....................       } 
....................        
....................       if(RX_Buffer[4]==0x04 && RX_Buffer[5]==0x0f && estados[19+RX_Buffer[4]]){//04, Envueltos 134 
07AE0:  MOVF   3C,W
07AE2:  SUBLW  04
07AE4:  BNZ   7BAC
07AE6:  MOVF   3D,W
07AE8:  SUBLW  0F
07AEA:  BNZ   7BAC
07AEC:  MOVLW  13
07AEE:  ADDWF  3C,W
07AF0:  MOVLB  6
07AF2:  MOVWF  x2D
07AF4:  MOVLW  02
07AF6:  MOVWF  x2F
07AF8:  MOVLW  96
07AFA:  MOVWF  x2E
07AFC:  MOVLB  0
07AFE:  CALL   231C
07B02:  BTFSS  01.0
07B04:  BRA    7BAC
....................          delay_ms(5); 
07B06:  MOVLW  05
07B08:  MOVLB  6
07B0A:  MOVWF  x35
07B0C:  MOVLB  0
07B0E:  CALL   1EDC
....................          if(RX_Buffer[4]==0x04 && RX_Buffer[5]==0x0f && estados[19+RX_Buffer[4]]){ 
07B12:  MOVF   3C,W
07B14:  SUBLW  04
07B16:  BNZ   7BAC
07B18:  MOVF   3D,W
07B1A:  SUBLW  0F
07B1C:  BNZ   7BAC
07B1E:  MOVLW  13
07B20:  ADDWF  3C,W
07B22:  MOVLB  6
07B24:  MOVWF  x2D
07B26:  MOVLW  02
07B28:  MOVWF  x2F
07B2A:  MOVLW  96
07B2C:  MOVWF  x2E
07B2E:  MOVLB  0
07B30:  CALL   231C
07B34:  BTFSS  01.0
07B36:  BRA    7BAC
....................             printf("page Funcionamiento"); 
07B38:  MOVLW  DC
07B3A:  MOVWF  FF6
07B3C:  MOVLW  08
07B3E:  MOVWF  FF7
07B40:  MOVLW  00
07B42:  MOVWF  FF8
07B44:  CALL   3C02
....................             SendDataDisplay();        
07B48:  CALL   3C34
....................             ConfiguraCiclo(0,0,4,0,0,0,5,1,0,4,134); 
07B4C:  MOVLB  6
07B4E:  CLRF   x38
07B50:  CLRF   x39
07B52:  MOVLW  04
07B54:  MOVWF  x3A
07B56:  CLRF   x3B
07B58:  CLRF   x3C
07B5A:  CLRF   x3D
07B5C:  MOVLW  05
07B5E:  MOVWF  x3E
07B60:  MOVLW  01
07B62:  MOVWF  x3F
07B64:  CLRF   x40
07B66:  MOVLW  04
07B68:  MOVWF  x41
07B6A:  MOVLW  86
07B6C:  MOVWF  x42
07B6E:  MOVLB  0
07B70:  CALL   50D8
....................             Op=OFF; 
07B74:  BCF    x8F.0
....................             Op2=OFF; 
07B76:  BCF    x8F.1
....................             MenuAnt=Menu; 
07B78:  MOVFF  1D7,1D8
....................             CantidadPulsos=7; 
07B7C:  MOVLB  1
07B7E:  CLRF   xE0
07B80:  MOVLW  07
07B82:  MOVWF  xDF
....................             NivelVacio=32; 
07B84:  MOVLW  20
07B86:  MOVLB  2
07B88:  MOVWF  x1A
....................             Fugas=OFF; 
07B8A:  MOVLB  0
07B8C:  BCF    x91.1
....................             TiempoVacio=CantidadPulsos*180; 
07B8E:  MOVFF  1E0,635
07B92:  MOVFF  1DF,634
07B96:  MOVLB  6
07B98:  CLRF   x37
07B9A:  MOVLW  B4
07B9C:  MOVWF  x36
07B9E:  MOVLB  0
07BA0:  CALL   234E
07BA4:  MOVFF  02,8D
07BA8:  MOVFF  01,8C
....................          } 
....................       } 
....................        
....................       if(RX_Buffer[4]==0x05 && RX_Buffer[5]==0x0f && estados[19+RX_Buffer[4]]){//05, Envueltos 121 
07BAC:  MOVF   3C,W
07BAE:  SUBLW  05
07BB0:  BNZ   7C7A
07BB2:  MOVF   3D,W
07BB4:  SUBLW  0F
07BB6:  BNZ   7C7A
07BB8:  MOVLW  13
07BBA:  ADDWF  3C,W
07BBC:  MOVLB  6
07BBE:  MOVWF  x2D
07BC0:  MOVLW  02
07BC2:  MOVWF  x2F
07BC4:  MOVLW  96
07BC6:  MOVWF  x2E
07BC8:  MOVLB  0
07BCA:  CALL   231C
07BCE:  BTFSS  01.0
07BD0:  BRA    7C7A
....................          delay_ms(5); 
07BD2:  MOVLW  05
07BD4:  MOVLB  6
07BD6:  MOVWF  x35
07BD8:  MOVLB  0
07BDA:  CALL   1EDC
....................          if(RX_Buffer[4]==0x05 && RX_Buffer[5]==0x0f && estados[19+RX_Buffer[4]]){ 
07BDE:  MOVF   3C,W
07BE0:  SUBLW  05
07BE2:  BNZ   7C7A
07BE4:  MOVF   3D,W
07BE6:  SUBLW  0F
07BE8:  BNZ   7C7A
07BEA:  MOVLW  13
07BEC:  ADDWF  3C,W
07BEE:  MOVLB  6
07BF0:  MOVWF  x2D
07BF2:  MOVLW  02
07BF4:  MOVWF  x2F
07BF6:  MOVLW  96
07BF8:  MOVWF  x2E
07BFA:  MOVLB  0
07BFC:  CALL   231C
07C00:  BTFSS  01.0
07C02:  BRA    7C7A
....................             printf("page Funcionamiento"); 
07C04:  MOVLW  F0
07C06:  MOVWF  FF6
07C08:  MOVLW  08
07C0A:  MOVWF  FF7
07C0C:  MOVLW  00
07C0E:  MOVWF  FF8
07C10:  CALL   3C02
....................             SendDataDisplay();        
07C14:  CALL   3C34
....................             ConfiguraCiclo(0,0,5,1,0,0,5,1,0,5,121); 
07C18:  MOVLB  6
07C1A:  CLRF   x38
07C1C:  CLRF   x39
07C1E:  MOVLW  05
07C20:  MOVWF  x3A
07C22:  MOVLW  01
07C24:  MOVWF  x3B
07C26:  CLRF   x3C
07C28:  CLRF   x3D
07C2A:  MOVLW  05
07C2C:  MOVWF  x3E
07C2E:  MOVLW  01
07C30:  MOVWF  x3F
07C32:  CLRF   x40
07C34:  MOVLW  05
07C36:  MOVWF  x41
07C38:  MOVLW  79
07C3A:  MOVWF  x42
07C3C:  MOVLB  0
07C3E:  CALL   50D8
....................             Op=OFF; 
07C42:  BCF    x8F.0
....................             Op2=OFF; 
07C44:  BCF    x8F.1
....................             MenuAnt=Menu; 
07C46:  MOVFF  1D7,1D8
....................             CantidadPulsos=7; 
07C4A:  MOVLB  1
07C4C:  CLRF   xE0
07C4E:  MOVLW  07
07C50:  MOVWF  xDF
....................             NivelVacio=32; 
07C52:  MOVLW  20
07C54:  MOVLB  2
07C56:  MOVWF  x1A
....................             Fugas=OFF; 
07C58:  MOVLB  0
07C5A:  BCF    x91.1
....................             TiempoVacio=CantidadPulsos*180; 
07C5C:  MOVFF  1E0,635
07C60:  MOVFF  1DF,634
07C64:  MOVLB  6
07C66:  CLRF   x37
07C68:  MOVLW  B4
07C6A:  MOVWF  x36
07C6C:  MOVLB  0
07C6E:  CALL   234E
07C72:  MOVFF  02,8D
07C76:  MOVFF  01,8C
....................          } 
....................       } 
....................        
....................       if(RX_Buffer[4]==0x06 && RX_Buffer[5]==0x0f && estados[19+RX_Buffer[4]]){//06, Envuelto Doble 1 
07C7A:  MOVF   3C,W
07C7C:  SUBLW  06
07C7E:  BNZ   7D44
07C80:  MOVF   3D,W
07C82:  SUBLW  0F
07C84:  BNZ   7D44
07C86:  MOVLW  13
07C88:  ADDWF  3C,W
07C8A:  MOVLB  6
07C8C:  MOVWF  x2D
07C8E:  MOVLW  02
07C90:  MOVWF  x2F
07C92:  MOVLW  96
07C94:  MOVWF  x2E
07C96:  MOVLB  0
07C98:  CALL   231C
07C9C:  BTFSS  01.0
07C9E:  BRA    7D44
....................          delay_ms(5); 
07CA0:  MOVLW  05
07CA2:  MOVLB  6
07CA4:  MOVWF  x35
07CA6:  MOVLB  0
07CA8:  CALL   1EDC
....................          if(RX_Buffer[4]==0x06 && RX_Buffer[5]==0x0f && estados[19+RX_Buffer[4]]){ 
07CAC:  MOVF   3C,W
07CAE:  SUBLW  06
07CB0:  BNZ   7D44
07CB2:  MOVF   3D,W
07CB4:  SUBLW  0F
07CB6:  BNZ   7D44
07CB8:  MOVLW  13
07CBA:  ADDWF  3C,W
07CBC:  MOVLB  6
07CBE:  MOVWF  x2D
07CC0:  MOVLW  02
07CC2:  MOVWF  x2F
07CC4:  MOVLW  96
07CC6:  MOVWF  x2E
07CC8:  MOVLB  0
07CCA:  CALL   231C
07CCE:  BTFSS  01.0
07CD0:  BRA    7D44
....................             printf("page Funcionamiento"); 
07CD2:  MOVLW  04
07CD4:  MOVWF  FF6
07CD6:  MOVLW  09
07CD8:  MOVWF  FF7
07CDA:  MOVLW  00
07CDC:  MOVWF  FF8
07CDE:  CALL   3C02
....................             SendDataDisplay();        
07CE2:  CALL   3C34
....................             ConfiguraCiclo(0,0,7,0,0,0,0,2,0,6,134); 
07CE6:  MOVLB  6
07CE8:  CLRF   x38
07CEA:  CLRF   x39
07CEC:  MOVLW  07
07CEE:  MOVWF  x3A
07CF0:  CLRF   x3B
07CF2:  CLRF   x3C
07CF4:  CLRF   x3D
07CF6:  CLRF   x3E
07CF8:  MOVLW  02
07CFA:  MOVWF  x3F
07CFC:  CLRF   x40
07CFE:  MOVLW  06
07D00:  MOVWF  x41
07D02:  MOVLW  86
07D04:  MOVWF  x42
07D06:  MOVLB  0
07D08:  CALL   50D8
....................             Op=OFF; 
07D0C:  BCF    x8F.0
....................             Op2=OFF; 
07D0E:  BCF    x8F.1
....................             MenuAnt=Menu; 
07D10:  MOVFF  1D7,1D8
....................             CantidadPulsos=7; 
07D14:  MOVLB  1
07D16:  CLRF   xE0
07D18:  MOVLW  07
07D1A:  MOVWF  xDF
....................             NivelVacio=32; 
07D1C:  MOVLW  20
07D1E:  MOVLB  2
07D20:  MOVWF  x1A
....................             Fugas=OFF; 
07D22:  MOVLB  0
07D24:  BCF    x91.1
....................             TiempoVacio=CantidadPulsos*180; 
07D26:  MOVFF  1E0,635
07D2A:  MOVFF  1DF,634
07D2E:  MOVLB  6
07D30:  CLRF   x37
07D32:  MOVLW  B4
07D34:  MOVWF  x36
07D36:  MOVLB  0
07D38:  CALL   234E
07D3C:  MOVFF  02,8D
07D40:  MOVFF  01,8C
....................          } 
....................       } 
....................        
....................       if(RX_Buffer[4]==0x07 && RX_Buffer[5]==0x0f && estados[19+RX_Buffer[4]]){//07, Envuelto Doble 2 
07D44:  MOVF   3C,W
07D46:  SUBLW  07
07D48:  BNZ   7E0E
07D4A:  MOVF   3D,W
07D4C:  SUBLW  0F
07D4E:  BNZ   7E0E
07D50:  MOVLW  13
07D52:  ADDWF  3C,W
07D54:  MOVLB  6
07D56:  MOVWF  x2D
07D58:  MOVLW  02
07D5A:  MOVWF  x2F
07D5C:  MOVLW  96
07D5E:  MOVWF  x2E
07D60:  MOVLB  0
07D62:  CALL   231C
07D66:  BTFSS  01.0
07D68:  BRA    7E0E
....................          delay_ms(5); 
07D6A:  MOVLW  05
07D6C:  MOVLB  6
07D6E:  MOVWF  x35
07D70:  MOVLB  0
07D72:  CALL   1EDC
....................          if(RX_Buffer[4]==0x07 && RX_Buffer[5]==0x0f && estados[19+RX_Buffer[4]]){ 
07D76:  MOVF   3C,W
07D78:  SUBLW  07
07D7A:  BNZ   7E0E
07D7C:  MOVF   3D,W
07D7E:  SUBLW  0F
07D80:  BNZ   7E0E
07D82:  MOVLW  13
07D84:  ADDWF  3C,W
07D86:  MOVLB  6
07D88:  MOVWF  x2D
07D8A:  MOVLW  02
07D8C:  MOVWF  x2F
07D8E:  MOVLW  96
07D90:  MOVWF  x2E
07D92:  MOVLB  0
07D94:  CALL   231C
07D98:  BTFSS  01.0
07D9A:  BRA    7E0E
....................             printf("page Funcionamiento"); 
07D9C:  MOVLW  18
07D9E:  MOVWF  FF6
07DA0:  MOVLW  09
07DA2:  MOVWF  FF7
07DA4:  MOVLW  00
07DA6:  MOVWF  FF8
07DA8:  CALL   3C02
....................             SendDataDisplay();        
07DAC:  CALL   3C34
....................             ConfiguraCiclo(0,0,7,0,0,0,0,3,0,7,134); 
07DB0:  MOVLB  6
07DB2:  CLRF   x38
07DB4:  CLRF   x39
07DB6:  MOVLW  07
07DB8:  MOVWF  x3A
07DBA:  CLRF   x3B
07DBC:  CLRF   x3C
07DBE:  CLRF   x3D
07DC0:  CLRF   x3E
07DC2:  MOVLW  03
07DC4:  MOVWF  x3F
07DC6:  CLRF   x40
07DC8:  MOVLW  07
07DCA:  MOVWF  x41
07DCC:  MOVLW  86
07DCE:  MOVWF  x42
07DD0:  MOVLB  0
07DD2:  CALL   50D8
....................             Op=OFF; 
07DD6:  BCF    x8F.0
....................             Op2=OFF; 
07DD8:  BCF    x8F.1
....................             MenuAnt=Menu; 
07DDA:  MOVFF  1D7,1D8
....................             CantidadPulsos=7; 
07DDE:  MOVLB  1
07DE0:  CLRF   xE0
07DE2:  MOVLW  07
07DE4:  MOVWF  xDF
....................             NivelVacio=32; 
07DE6:  MOVLW  20
07DE8:  MOVLB  2
07DEA:  MOVWF  x1A
....................             Fugas=OFF; 
07DEC:  MOVLB  0
07DEE:  BCF    x91.1
....................             TiempoVacio=CantidadPulsos*180; 
07DF0:  MOVFF  1E0,635
07DF4:  MOVFF  1DF,634
07DF8:  MOVLB  6
07DFA:  CLRF   x37
07DFC:  MOVLW  B4
07DFE:  MOVWF  x36
07E00:  MOVLB  0
07E02:  CALL   234E
07E06:  MOVFF  02,8D
07E0A:  MOVFF  01,8C
....................          } 
....................       } 
....................        
....................       if(RX_Buffer[4]==0x08 && RX_Buffer[5]==0x0f && estados[19+RX_Buffer[4]]){//08, Prion 
07E0E:  MOVF   3C,W
07E10:  SUBLW  08
07E12:  BNZ   7EDC
07E14:  MOVF   3D,W
07E16:  SUBLW  0F
07E18:  BNZ   7EDC
07E1A:  MOVLW  13
07E1C:  ADDWF  3C,W
07E1E:  MOVLB  6
07E20:  MOVWF  x2D
07E22:  MOVLW  02
07E24:  MOVWF  x2F
07E26:  MOVLW  96
07E28:  MOVWF  x2E
07E2A:  MOVLB  0
07E2C:  CALL   231C
07E30:  BTFSS  01.0
07E32:  BRA    7EDC
....................          delay_ms(5); 
07E34:  MOVLW  05
07E36:  MOVLB  6
07E38:  MOVWF  x35
07E3A:  MOVLB  0
07E3C:  CALL   1EDC
....................          if(RX_Buffer[4]==0x08 && RX_Buffer[5]==0x0f && estados[19+RX_Buffer[4]]){ 
07E40:  MOVF   3C,W
07E42:  SUBLW  08
07E44:  BNZ   7EDC
07E46:  MOVF   3D,W
07E48:  SUBLW  0F
07E4A:  BNZ   7EDC
07E4C:  MOVLW  13
07E4E:  ADDWF  3C,W
07E50:  MOVLB  6
07E52:  MOVWF  x2D
07E54:  MOVLW  02
07E56:  MOVWF  x2F
07E58:  MOVLW  96
07E5A:  MOVWF  x2E
07E5C:  MOVLB  0
07E5E:  CALL   231C
07E62:  BTFSS  01.0
07E64:  BRA    7EDC
....................             printf("page Funcionamiento"); 
07E66:  MOVLW  2C
07E68:  MOVWF  FF6
07E6A:  MOVLW  09
07E6C:  MOVWF  FF7
07E6E:  MOVLW  00
07E70:  MOVWF  FF8
07E72:  CALL   3C02
....................             SendDataDisplay();        
07E76:  CALL   3C34
....................             ConfiguraCiclo(0,0,8,1,0,0,5,1,0,8,134); 
07E7A:  MOVLB  6
07E7C:  CLRF   x38
07E7E:  CLRF   x39
07E80:  MOVLW  08
07E82:  MOVWF  x3A
07E84:  MOVLW  01
07E86:  MOVWF  x3B
07E88:  CLRF   x3C
07E8A:  CLRF   x3D
07E8C:  MOVLW  05
07E8E:  MOVWF  x3E
07E90:  MOVLW  01
07E92:  MOVWF  x3F
07E94:  CLRF   x40
07E96:  MOVLW  08
07E98:  MOVWF  x41
07E9A:  MOVLW  86
07E9C:  MOVWF  x42
07E9E:  MOVLB  0
07EA0:  CALL   50D8
....................             Op=OFF; 
07EA4:  BCF    x8F.0
....................             Op2=OFF; 
07EA6:  BCF    x8F.1
....................             MenuAnt=Menu; 
07EA8:  MOVFF  1D7,1D8
....................             CantidadPulsos=7; 
07EAC:  MOVLB  1
07EAE:  CLRF   xE0
07EB0:  MOVLW  07
07EB2:  MOVWF  xDF
....................             NivelVacio=32; 
07EB4:  MOVLW  20
07EB6:  MOVLB  2
07EB8:  MOVWF  x1A
....................             Fugas=OFF; 
07EBA:  MOVLB  0
07EBC:  BCF    x91.1
....................             TiempoVacio=CantidadPulsos*180; 
07EBE:  MOVFF  1E0,635
07EC2:  MOVFF  1DF,634
07EC6:  MOVLB  6
07EC8:  CLRF   x37
07ECA:  MOVLW  B4
07ECC:  MOVWF  x36
07ECE:  MOVLB  0
07ED0:  CALL   234E
07ED4:  MOVFF  02,8D
07ED8:  MOVFF  01,8C
....................          } 
....................       } 
....................        
....................       if(RX_Buffer[4]==0x09 && RX_Buffer[5]==0x0f && estados[19+RX_Buffer[4]]){//09, Bowie & Dick 
07EDC:  MOVF   3C,W
07EDE:  SUBLW  09
07EE0:  BNZ   7FA6
07EE2:  MOVF   3D,W
07EE4:  SUBLW  0F
07EE6:  BNZ   7FA6
07EE8:  MOVLW  13
07EEA:  ADDWF  3C,W
07EEC:  MOVLB  6
07EEE:  MOVWF  x2D
07EF0:  MOVLW  02
07EF2:  MOVWF  x2F
07EF4:  MOVLW  96
07EF6:  MOVWF  x2E
07EF8:  MOVLB  0
07EFA:  CALL   231C
07EFE:  BTFSS  01.0
07F00:  BRA    7FA6
....................          delay_ms(5); 
07F02:  MOVLW  05
07F04:  MOVLB  6
07F06:  MOVWF  x35
07F08:  MOVLB  0
07F0A:  CALL   1EDC
....................          if(RX_Buffer[4]==0x09 && RX_Buffer[5]==0x0f && estados[19+RX_Buffer[4]]){ 
07F0E:  MOVF   3C,W
07F10:  SUBLW  09
07F12:  BNZ   7FA6
07F14:  MOVF   3D,W
07F16:  SUBLW  0F
07F18:  BNZ   7FA6
07F1A:  MOVLW  13
07F1C:  ADDWF  3C,W
07F1E:  MOVLB  6
07F20:  MOVWF  x2D
07F22:  MOVLW  02
07F24:  MOVWF  x2F
07F26:  MOVLW  96
07F28:  MOVWF  x2E
07F2A:  MOVLB  0
07F2C:  CALL   231C
07F30:  BTFSS  01.0
07F32:  BRA    7FA6
....................             printf("page Funcionamiento"); 
07F34:  MOVLW  40
07F36:  MOVWF  FF6
07F38:  MOVLW  09
07F3A:  MOVWF  FF7
07F3C:  MOVLW  00
07F3E:  MOVWF  FF8
07F40:  CALL   3C02
....................             SendDataDisplay();        
07F44:  CALL   3C34
....................             ConfiguraCiclo(0,3,3,0,0,0,2,0,0,9,134); 
07F48:  MOVLB  6
07F4A:  CLRF   x38
07F4C:  MOVLW  03
07F4E:  MOVWF  x39
07F50:  MOVWF  x3A
07F52:  CLRF   x3B
07F54:  CLRF   x3C
07F56:  CLRF   x3D
07F58:  MOVLW  02
07F5A:  MOVWF  x3E
07F5C:  CLRF   x3F
07F5E:  CLRF   x40
07F60:  MOVLW  09
07F62:  MOVWF  x41
07F64:  MOVLW  86
07F66:  MOVWF  x42
07F68:  MOVLB  0
07F6A:  CALL   50D8
....................             Op=OFF; 
07F6E:  BCF    x8F.0
....................             Op2=OFF; 
07F70:  BCF    x8F.1
....................             MenuAnt=Menu; 
07F72:  MOVFF  1D7,1D8
....................             CantidadPulsos=7; 
07F76:  MOVLB  1
07F78:  CLRF   xE0
07F7A:  MOVLW  07
07F7C:  MOVWF  xDF
....................             NivelVacio=32; 
07F7E:  MOVLW  20
07F80:  MOVLB  2
07F82:  MOVWF  x1A
....................             Fugas=OFF; 
07F84:  MOVLB  0
07F86:  BCF    x91.1
....................             TiempoVacio=CantidadPulsos*180; 
07F88:  MOVFF  1E0,635
07F8C:  MOVFF  1DF,634
07F90:  MOVLB  6
07F92:  CLRF   x37
07F94:  MOVLW  B4
07F96:  MOVWF  x36
07F98:  MOVLB  0
07F9A:  CALL   234E
07F9E:  MOVFF  02,8D
07FA2:  MOVFF  01,8C
....................          } 
....................       } 
....................        
....................       if(RX_Buffer[4]==0x0a && RX_Buffer[5]==0x0f && estados[19+RX_Buffer[4]]){//0a, Test de Fugas 
07FA6:  MOVF   3C,W
07FA8:  SUBLW  0A
07FAA:  BNZ   806E
07FAC:  MOVF   3D,W
07FAE:  SUBLW  0F
07FB0:  BNZ   806E
07FB2:  MOVLW  13
07FB4:  ADDWF  3C,W
07FB6:  MOVLB  6
07FB8:  MOVWF  x2D
07FBA:  MOVLW  02
07FBC:  MOVWF  x2F
07FBE:  MOVLW  96
07FC0:  MOVWF  x2E
07FC2:  MOVLB  0
07FC4:  CALL   231C
07FC8:  BTFSS  01.0
07FCA:  BRA    806E
....................          delay_ms(5); 
07FCC:  MOVLW  05
07FCE:  MOVLB  6
07FD0:  MOVWF  x35
07FD2:  MOVLB  0
07FD4:  CALL   1EDC
....................          if(RX_Buffer[4]==0x0a && RX_Buffer[5]==0x0f && estados[19+RX_Buffer[4]]){ 
07FD8:  MOVF   3C,W
07FDA:  SUBLW  0A
07FDC:  BNZ   806E
07FDE:  MOVF   3D,W
07FE0:  SUBLW  0F
07FE2:  BNZ   806E
07FE4:  MOVLW  13
07FE6:  ADDWF  3C,W
07FE8:  MOVLB  6
07FEA:  MOVWF  x2D
07FEC:  MOVLW  02
07FEE:  MOVWF  x2F
07FF0:  MOVLW  96
07FF2:  MOVWF  x2E
07FF4:  MOVLB  0
07FF6:  CALL   231C
07FFA:  BTFSS  01.0
07FFC:  BRA    806E
....................             printf("page Funcionamiento"); 
07FFE:  MOVLW  54
08000:  MOVWF  FF6
08002:  MOVLW  09
08004:  MOVWF  FF7
08006:  MOVLW  00
08008:  MOVWF  FF8
0800A:  CALL   3C02
....................             SendDataDisplay();        
0800E:  CALL   3C34
....................             ConfiguraCiclo(0,0,5,1,0,0,0,0,0,10,0); 
08012:  MOVLB  6
08014:  CLRF   x38
08016:  CLRF   x39
08018:  MOVLW  05
0801A:  MOVWF  x3A
0801C:  MOVLW  01
0801E:  MOVWF  x3B
08020:  CLRF   x3C
08022:  CLRF   x3D
08024:  CLRF   x3E
08026:  CLRF   x3F
08028:  CLRF   x40
0802A:  MOVLW  0A
0802C:  MOVWF  x41
0802E:  CLRF   x42
08030:  MOVLB  0
08032:  CALL   50D8
....................             Op=OFF; 
08036:  BCF    x8F.0
....................             Op2=OFF; 
08038:  BCF    x8F.1
....................             MenuAnt=Menu; 
0803A:  MOVFF  1D7,1D8
....................             CantidadPulsos=1; 
0803E:  MOVLB  1
08040:  CLRF   xE0
08042:  MOVLW  01
08044:  MOVWF  xDF
....................             NivelVacio=17; 
08046:  MOVLW  11
08048:  MOVLB  2
0804A:  MOVWF  x1A
....................             Fugas=ON; 
0804C:  MOVLB  0
0804E:  BSF    x91.1
....................             TiempoVacio=CantidadPulsos*180; 
08050:  MOVFF  1E0,635
08054:  MOVFF  1DF,634
08058:  MOVLB  6
0805A:  CLRF   x37
0805C:  MOVLW  B4
0805E:  MOVWF  x36
08060:  MOVLB  0
08062:  CALL   234E
08066:  MOVFF  02,8D
0806A:  MOVFF  01,8C
....................          } 
....................       } 
....................        
....................       if(RX_Buffer[4]==0xa0){//a0, Ciclos Fijos 
0806E:  MOVF   3C,W
08070:  SUBLW  A0
08072:  BNZ   8088
....................          printf("page Menu"); 
08074:  MOVLW  68
08076:  MOVWF  FF6
08078:  MOVLW  09
0807A:  MOVWF  FF7
0807C:  MOVLW  00
0807E:  MOVWF  FF8
08080:  CALL   3C02
....................          SendDataDisplay();      
08084:  CALL   3C34
....................       } 
....................        
....................       if(RX_Buffer[4]==0xb0){//b0, Personalizados 
08088:  MOVF   3C,W
0808A:  SUBLW  B0
0808C:  BNZ   80A2
....................          printf("page CicloPersona"); 
0808E:  MOVLW  72
08090:  MOVWF  FF6
08092:  MOVLW  09
08094:  MOVWF  FF7
08096:  MOVLW  00
08098:  MOVWF  FF8
0809A:  CALL   3C02
....................          SendDataDisplay();      
0809E:  CALL   3C34
....................       } 
....................        
....................       if(RX_Buffer[4]==0xc0){//c0, Configuraciones 
080A2:  MOVF   3C,W
080A4:  SUBLW  C0
080A6:  BNZ   80CA
....................          if(codigoUsuario==0 || codigoUsuario==9){        
080A8:  MOVLB  2
080AA:  MOVF   x2A,F
080AC:  BZ    80B4
080AE:  MOVF   x2A,W
080B0:  SUBLW  09
080B2:  BNZ   80CC
....................             printf("page Ajustes"); 
080B4:  MOVLW  84
080B6:  MOVWF  FF6
080B8:  MOVLW  09
080BA:  MOVWF  FF7
080BC:  MOVLW  00
080BE:  MOVWF  FF8
080C0:  MOVLB  0
080C2:  CALL   3C02
....................             SendDataDisplay();      
080C6:  CALL   3C34
080CA:  MOVLB  2
....................          } 
....................       } 
....................  
....................          if(RIGHT && LEFT){ 
080CC:  BSF    F93.4
080CE:  BTFSC  F81.4
080D0:  BRA    811C
080D2:  BSF    F93.3
080D4:  BTFSC  F81.3
080D6:  BRA    811C
....................             delay_ms(20); 
080D8:  MOVLW  14
080DA:  MOVLB  6
080DC:  MOVWF  x35
080DE:  MOVLB  0
080E0:  CALL   1EDC
....................             if(RIGHT && LEFT){ 
080E4:  BSF    F93.4
080E6:  BTFSC  F81.4
080E8:  BRA    811A
080EA:  BSF    F93.3
080EC:  BTFSC  F81.3
080EE:  BRA    811A
....................                printf("page Clave"); 
080F0:  MOVLW  92
080F2:  MOVWF  FF6
080F4:  MOVLW  09
080F6:  MOVWF  FF7
080F8:  MOVLW  00
080FA:  MOVWF  FF8
080FC:  CALL   3C02
....................                SendDataDisplay();  
08100:  CALL   3C34
....................                Op=OFF; 
08104:  BCF    x8F.0
....................                Op2=OFF; 
08106:  BCF    x8F.1
....................                MenuAnt=Menu; 
08108:  MOVFF  1D7,1D8
....................                TipoClave=1; 
0810C:  MOVLW  01
0810E:  MOVLB  1
08110:  MOVWF  x7D
....................                RX_Buffer[3]=0x00; 
08112:  CLRF   3B
....................                RX_Buffer2[3]=0x00; 
08114:  CLRF   46
....................                Opcion=0; 
08116:  CLRF   xE2
08118:  MOVLB  0
0811A:  MOVLB  2
....................             } 
....................          } 
....................    } 
.................... //_--------------------------------------------------------------------------------------------------------------------------------------------------------        
....................  
.................... //_-------------------------------------------------------------------------------------------------------------------------------------------------------- 
....................     if(Menu==2){ //Menu de Tiempo Esterilizacion      
0811C:  MOVLB  1
0811E:  MOVF   xD7,W
08120:  SUBLW  02
08122:  BTFSS  FD8.2
08124:  BRA    8532
....................       printf("fecha.txt=\"Fecha:%02u/%02u/20%02u    Hora: %02u:%02u:%02u\"",Dia,Mes,Year,Hora,Minuto,Segundo); 
08126:  MOVLW  9E
08128:  MOVWF  FF6
0812A:  MOVLW  09
0812C:  MOVWF  FF7
0812E:  MOVLW  00
08130:  MOVWF  FF8
08132:  MOVLW  11
08134:  MOVLB  6
08136:  MOVWF  x31
08138:  MOVLB  0
0813A:  CALL   4FD6
0813E:  MOVFF  213,631
08142:  MOVLW  01
08144:  MOVLB  6
08146:  MOVWF  x32
08148:  MOVLB  0
0814A:  CALL   505A
0814E:  MOVLW  2F
08150:  BTFSS  F9E.4
08152:  BRA    8150
08154:  MOVWF  FAD
08156:  MOVFF  212,631
0815A:  MOVLW  01
0815C:  MOVLB  6
0815E:  MOVWF  x32
08160:  MOVLB  0
08162:  CALL   505A
08166:  MOVLW  B8
08168:  MOVWF  FF6
0816A:  MOVLW  09
0816C:  MOVWF  FF7
0816E:  MOVLW  00
08170:  MOVWF  FF8
08172:  MOVLW  03
08174:  MOVLB  6
08176:  MOVWF  x31
08178:  MOVLB  0
0817A:  CALL   4FD6
0817E:  MOVFF  211,631
08182:  MOVLW  01
08184:  MOVLB  6
08186:  MOVWF  x32
08188:  MOVLB  0
0818A:  CALL   505A
0818E:  MOVLW  BF
08190:  MOVWF  FF6
08192:  MOVLW  09
08194:  MOVWF  FF7
08196:  MOVLW  00
08198:  MOVWF  FF8
0819A:  MOVLW  0A
0819C:  MOVLB  6
0819E:  MOVWF  x31
081A0:  MOVLB  0
081A2:  CALL   4FD6
081A6:  MOVFF  214,631
081AA:  MOVLW  01
081AC:  MOVLB  6
081AE:  MOVWF  x32
081B0:  MOVLB  0
081B2:  CALL   505A
081B6:  MOVLW  3A
081B8:  BTFSS  F9E.4
081BA:  BRA    81B8
081BC:  MOVWF  FAD
081BE:  MOVFF  215,631
081C2:  MOVLW  01
081C4:  MOVLB  6
081C6:  MOVWF  x32
081C8:  MOVLB  0
081CA:  CALL   505A
081CE:  MOVLW  3A
081D0:  BTFSS  F9E.4
081D2:  BRA    81D0
081D4:  MOVWF  FAD
081D6:  MOVFF  216,631
081DA:  MOVLW  01
081DC:  MOVLB  6
081DE:  MOVWF  x32
081E0:  MOVLB  0
081E2:  CALL   505A
081E6:  MOVLW  22
081E8:  BTFSS  F9E.4
081EA:  BRA    81E8
081EC:  MOVWF  FAD
....................       SendDataDisplay(); 
081EE:  CALL   3C34
....................          if(RX_Buffer[4]==0x0a){//Selecciono Minutos 
081F2:  MOVF   3C,W
081F4:  SUBLW  0A
081F6:  BNZ   81FC
....................             Minutos=ON; 
081F8:  BSF    x8F.2
....................             Segundos=OFF; 
081FA:  BCF    x8F.3
....................          } 
....................           
....................          if(RX_Buffer[4]==0x0b){//Selecciono Segundos 
081FC:  MOVF   3C,W
081FE:  SUBLW  0B
08200:  BNZ   8206
....................             Segundos=ON; 
08202:  BSF    x8F.3
....................             Minutos=OFF; 
08204:  BCF    x8F.2
....................          } 
....................           
....................          if(RX_Buffer[4]==0x11){//Selecciono Regresar 
08206:  MOVF   3C,W
08208:  SUBLW  11
0820A:  BTFSS  FD8.2
0820C:  BRA    837C
....................             Segundos=OFF; 
0820E:  BCF    x8F.3
....................             Minutos=OFF; 
08210:  BCF    x8F.2
....................             printf("page CicloPersona"); 
08212:  MOVLW  DA
08214:  MOVWF  FF6
08216:  MOVLW  09
08218:  MOVWF  FF7
0821A:  MOVLW  00
0821C:  MOVWF  FF8
0821E:  CALL   3C02
....................             SendDataDisplay();   
08222:  CALL   3C34
....................             PantallaPrincipal=1; 
08226:  MOVLW  01
08228:  MOVLB  1
0822A:  MOVWF  x7C
....................             Op=OFF; 
0822C:  MOVLB  0
0822E:  BCF    x8F.0
....................             Op2=OFF; 
08230:  BCF    x8F.1
....................             if(!GuardaEEPROM){ 
08232:  BTFSC  x8F.4
08234:  BRA    837C
....................                CiclosPersonalizados[CicloLibre-1].Minutoest=Testerilizacionp[2]+(Testerilizacionp[3]*10); 
08236:  MOVLW  01
08238:  MOVLB  2
0823A:  SUBWF  x27,W
0823C:  MULLW  08
0823E:  MOVF   FF3,W
08240:  MOVLB  6
08242:  CLRF   x2D
08244:  MOVWF  x2C
08246:  MOVLW  01
08248:  ADDWF  x2C,W
0824A:  MOVWF  01
0824C:  MOVLW  00
0824E:  ADDWFC x2D,W
08250:  MOVWF  03
08252:  MOVF   01,W
08254:  ADDLW  62
08256:  MOVWF  FE9
08258:  MOVLW  05
0825A:  ADDWFC 03,W
0825C:  MOVWF  FEA
0825E:  MOVFF  A4,633
08262:  MOVLW  0A
08264:  MOVWF  x34
08266:  MOVLB  0
08268:  CALL   370E
0826C:  MOVF   01,W
0826E:  ADDWF  xA3,W
08270:  MOVWF  FEF
....................                CiclosPersonalizados[CicloLibre-1].Segundoest=Testerilizacionp[0]+(Testerilizacionp[1]*10); 
08272:  MOVLW  01
08274:  MOVLB  2
08276:  SUBWF  x27,W
08278:  MULLW  08
0827A:  MOVF   FF3,W
0827C:  MOVLB  6
0827E:  CLRF   x2D
08280:  MOVWF  x2C
08282:  MOVLW  02
08284:  ADDWF  x2C,W
08286:  MOVWF  01
08288:  MOVLW  00
0828A:  ADDWFC x2D,W
0828C:  MOVWF  03
0828E:  MOVF   01,W
08290:  ADDLW  62
08292:  MOVWF  FE9
08294:  MOVLW  05
08296:  ADDWFC 03,W
08298:  MOVWF  FEA
0829A:  MOVFF  A2,633
0829E:  MOVLW  0A
082A0:  MOVWF  x34
082A2:  MOVLB  0
082A4:  CALL   370E
082A8:  MOVF   01,W
082AA:  ADDWF  xA1,W
082AC:  MOVWF  FEF
....................                write_eeprom(101+((CicloLibre-1)*8),Testerilizacionp[2]+(Testerilizacionp[3]*10)); 
082AE:  MOVLW  01
082B0:  MOVLB  2
082B2:  SUBWF  x27,W
082B4:  MULLW  08
082B6:  MOVF   FF3,W
082B8:  ADDLW  65
082BA:  MOVLB  6
082BC:  MOVWF  x2C
082BE:  MOVFF  A4,633
082C2:  MOVLW  0A
082C4:  MOVWF  x34
082C6:  MOVLB  0
082C8:  CALL   370E
082CC:  MOVF   01,W
082CE:  ADDWF  xA3,W
082D0:  MOVLB  6
082D2:  MOVWF  x2D
082D4:  MOVF   FF2,W
082D6:  MOVWF  00
082D8:  BCF    FF2.7
082DA:  CLRF   FAA
082DC:  MOVFF  62C,FA9
082E0:  MOVFF  62D,FA8
082E4:  BCF    FA6.6
082E6:  BCF    FA6.7
082E8:  BSF    FA6.2
082EA:  MOVLB  F
082EC:  MOVLW  55
082EE:  MOVWF  FA7
082F0:  MOVLW  AA
082F2:  MOVWF  FA7
082F4:  BSF    FA6.1
082F6:  BTFSC  FA6.1
082F8:  BRA    82F6
082FA:  BCF    FA6.2
082FC:  MOVF   00,W
082FE:  IORWF  FF2,F
....................                delay_ms(10); 
08300:  MOVLW  0A
08302:  MOVLB  6
08304:  MOVWF  x35
08306:  MOVLB  0
08308:  CALL   1EDC
....................                write_eeprom(102+((CicloLibre-1)*8),Testerilizacionp[0]+(Testerilizacionp[1]*10)); 
0830C:  MOVLW  01
0830E:  MOVLB  2
08310:  SUBWF  x27,W
08312:  MULLW  08
08314:  MOVF   FF3,W
08316:  ADDLW  66
08318:  MOVLB  6
0831A:  MOVWF  x2C
0831C:  MOVFF  A2,633
08320:  MOVLW  0A
08322:  MOVWF  x34
08324:  MOVLB  0
08326:  CALL   370E
0832A:  MOVF   01,W
0832C:  ADDWF  xA1,W
0832E:  MOVLB  6
08330:  MOVWF  x2D
08332:  MOVF   FF2,W
08334:  MOVWF  00
08336:  BCF    FF2.7
08338:  CLRF   FAA
0833A:  MOVFF  62C,FA9
0833E:  MOVFF  62D,FA8
08342:  BCF    FA6.6
08344:  BCF    FA6.7
08346:  BSF    FA6.2
08348:  MOVLB  F
0834A:  MOVLW  55
0834C:  MOVWF  FA7
0834E:  MOVLW  AA
08350:  MOVWF  FA7
08352:  BSF    FA6.1
08354:  BTFSC  FA6.1
08356:  BRA    8354
08358:  BCF    FA6.2
0835A:  MOVF   00,W
0835C:  IORWF  FF2,F
....................                delay_ms(10); 
0835E:  MOVLW  0A
08360:  MOVLB  6
08362:  MOVWF  x35
08364:  MOVLB  0
08366:  CALL   1EDC
....................                Testerilizacion[0]=Testerilizacionp[0]; 
0836A:  MOVFF  A1,9D
....................                Testerilizacion[1]=Testerilizacionp[1]; 
0836E:  MOVFF  A2,9E
....................                Testerilizacion[2]=Testerilizacionp[2]; 
08372:  MOVFF  A3,9F
....................                Testerilizacion[3]=Testerilizacionp[3]; 
08376:  MOVFF  A4,A0
....................                GuardaEEPROM=ON; 
0837A:  BSF    x8F.4
....................             } 
....................          } 
....................           
....................          if(RX_Buffer[4]==0x0d && !Op){//Tecla Arriba Oprimida 
0837C:  MOVF   3C,W
0837E:  SUBLW  0D
08380:  BNZ   83CA
08382:  BTFSC  x8F.0
08384:  BRA    83CA
....................             if(Segundos){ 
08386:  BTFSS  x8F.3
08388:  BRA    83A6
....................                Testerilizacionp[0]++; 
0838A:  INCF   xA1,F
....................                if(Testerilizacionp[0]>9){ 
0838C:  BTFSC  xA1.7
0838E:  BRA    83A6
08390:  MOVF   xA1,W
08392:  SUBLW  09
08394:  BC    83A6
....................                   Testerilizacionp[1]++; 
08396:  INCF   xA2,F
....................                   if(Testerilizacionp[1]>5) 
08398:  BTFSC  xA2.7
0839A:  BRA    83A4
0839C:  MOVF   xA2,W
0839E:  SUBLW  05
083A0:  BC    83A4
....................                      Testerilizacionp[1]=0; 
083A2:  CLRF   xA2
....................                   Testerilizacionp[0]=0; 
083A4:  CLRF   xA1
....................                } 
....................             } 
....................             if(Minutos){ 
083A6:  BTFSS  x8F.2
083A8:  BRA    83C6
....................                Testerilizacionp[2]++; 
083AA:  INCF   xA3,F
....................                if(Testerilizacionp[2]>9){ 
083AC:  BTFSC  xA3.7
083AE:  BRA    83C6
083B0:  MOVF   xA3,W
083B2:  SUBLW  09
083B4:  BC    83C6
....................                   Testerilizacionp[3]++; 
083B6:  INCF   xA4,F
....................                   if(Testerilizacionp[3]>5) 
083B8:  BTFSC  xA4.7
083BA:  BRA    83C4
083BC:  MOVF   xA4,W
083BE:  SUBLW  05
083C0:  BC    83C4
....................                      Testerilizacionp[3]=0; 
083C2:  CLRF   xA4
....................                   Testerilizacionp[2]=0; 
083C4:  CLRF   xA3
....................                } 
....................             } 
....................             RX_Buffer[4]=0x00; 
083C6:  CLRF   3C
....................             Op=ON; 
083C8:  BSF    x8F.0
....................             //BorraBuffer(); 
....................          } 
....................           
....................          if(RX_Buffer[4]==0x0c && Op){//Tecla Derecha Oprimida 
083CA:  MOVF   3C,W
083CC:  SUBLW  0C
083CE:  BNZ   8418
083D0:  BTFSS  x8F.0
083D2:  BRA    8418
....................             if(Segundos){ 
083D4:  BTFSS  x8F.3
083D6:  BRA    83F4
....................                Testerilizacionp[0]++; 
083D8:  INCF   xA1,F
....................                if(Testerilizacionp[0]>9){ 
083DA:  BTFSC  xA1.7
083DC:  BRA    83F4
083DE:  MOVF   xA1,W
083E0:  SUBLW  09
083E2:  BC    83F4
....................                   Testerilizacionp[1]++; 
083E4:  INCF   xA2,F
....................                   if(Testerilizacionp[1]>5) 
083E6:  BTFSC  xA2.7
083E8:  BRA    83F2
083EA:  MOVF   xA2,W
083EC:  SUBLW  05
083EE:  BC    83F2
....................                      Testerilizacionp[1]=0; 
083F0:  CLRF   xA2
....................                   Testerilizacionp[0]=0; 
083F2:  CLRF   xA1
....................                } 
....................             } 
....................             if(Minutos){ 
083F4:  BTFSS  x8F.2
083F6:  BRA    8414
....................                Testerilizacionp[2]++; 
083F8:  INCF   xA3,F
....................                if(Testerilizacionp[2]>9){ 
083FA:  BTFSC  xA3.7
083FC:  BRA    8414
083FE:  MOVF   xA3,W
08400:  SUBLW  09
08402:  BC    8414
....................                   Testerilizacionp[3]++; 
08404:  INCF   xA4,F
....................                   if(Testerilizacionp[3]>5) 
08406:  BTFSC  xA4.7
08408:  BRA    8412
0840A:  MOVF   xA4,W
0840C:  SUBLW  05
0840E:  BC    8412
....................                      Testerilizacionp[3]=0; 
08410:  CLRF   xA4
....................                   Testerilizacionp[2]=0; 
08412:  CLRF   xA3
....................                } 
....................             } 
....................             RX_Buffer[4]=0x00; 
08414:  CLRF   3C
....................             Op=OFF; 
08416:  BCF    x8F.0
....................             //BorraBuffer(); 
....................          } 
....................           
....................          if(RX_Buffer[4]==0x0e && !Op2){//Tecla Izquierda Oprimida 
08418:  MOVF   3C,W
0841A:  SUBLW  0E
0841C:  BNZ   845A
0841E:  BTFSC  x8F.1
08420:  BRA    845A
....................             if(Segundos){ 
08422:  BTFSS  x8F.3
08424:  BRA    843C
....................                Testerilizacionp[0]--; 
08426:  DECF   xA1,F
....................                if(Testerilizacionp[0]<0){ 
08428:  BTFSS  xA1.7
0842A:  BRA    843C
....................                   Testerilizacionp[1]--; 
0842C:  DECF   xA2,F
....................                   if(Testerilizacionp[1]<0) 
0842E:  BTFSC  xA2.7
08430:  BRA    8434
08432:  BRA    8438
....................                      Testerilizacionp[1]=5; 
08434:  MOVLW  05
08436:  MOVWF  xA2
....................                   Testerilizacionp[0]=9; 
08438:  MOVLW  09
0843A:  MOVWF  xA1
....................                } 
....................             } 
....................             if(Minutos){ 
0843C:  BTFSS  x8F.2
0843E:  BRA    8456
....................                Testerilizacionp[2]--; 
08440:  DECF   xA3,F
....................                if(Testerilizacionp[2]<0){ 
08442:  BTFSS  xA3.7
08444:  BRA    8456
....................                   Testerilizacionp[3]--; 
08446:  DECF   xA4,F
....................                   if(Testerilizacionp[3]<0) 
08448:  BTFSC  xA4.7
0844A:  BRA    844E
0844C:  BRA    8452
....................                      Testerilizacionp[3]=5; 
0844E:  MOVLW  05
08450:  MOVWF  xA4
....................                   Testerilizacionp[2]=9; 
08452:  MOVLW  09
08454:  MOVWF  xA3
....................                } 
....................             } 
....................             RX_Buffer[4]=0x00; 
08456:  CLRF   3C
....................             Op2=ON; 
08458:  BSF    x8F.1
....................             //BorraBuffer(); 
....................          } 
....................           
....................          if(RX_Buffer[4]==0x0f && Op2){//Tecla Izquierda Oprimida 
0845A:  MOVF   3C,W
0845C:  SUBLW  0F
0845E:  BNZ   849C
08460:  BTFSS  x8F.1
08462:  BRA    849C
....................              
....................             if(Segundos){ 
08464:  BTFSS  x8F.3
08466:  BRA    847E
....................                Testerilizacionp[0]--; 
08468:  DECF   xA1,F
....................                if(Testerilizacionp[0]<0){ 
0846A:  BTFSS  xA1.7
0846C:  BRA    847E
....................                   Testerilizacionp[1]--; 
0846E:  DECF   xA2,F
....................                   if(Testerilizacionp[1]<0) 
08470:  BTFSC  xA2.7
08472:  BRA    8476
08474:  BRA    847A
....................                      Testerilizacionp[1]=5; 
08476:  MOVLW  05
08478:  MOVWF  xA2
....................                   Testerilizacionp[0]=9; 
0847A:  MOVLW  09
0847C:  MOVWF  xA1
....................                } 
....................             } 
....................             if(Minutos){ 
0847E:  BTFSS  x8F.2
08480:  BRA    8498
....................                Testerilizacionp[2]--; 
08482:  DECF   xA3,F
....................                if(Testerilizacionp[2]<0){ 
08484:  BTFSS  xA3.7
08486:  BRA    8498
....................                   Testerilizacionp[3]--; 
08488:  DECF   xA4,F
....................                   if(Testerilizacionp[3]<0) 
0848A:  BTFSC  xA4.7
0848C:  BRA    8490
0848E:  BRA    8494
....................                      Testerilizacionp[3]=5; 
08490:  MOVLW  05
08492:  MOVWF  xA4
....................                   Testerilizacionp[2]=9; 
08494:  MOVLW  09
08496:  MOVWF  xA3
....................                } 
....................             } 
....................             RX_Buffer[4]=0x00; 
08498:  CLRF   3C
....................             Op2=OFF; 
0849A:  BCF    x8F.1
....................             //BorraBuffer(); 
....................          } 
....................          printf("tminest.txt=\"%02u\"",((Testerilizacionp[3]*10)+Testerilizacionp[2])); 
0849C:  MOVFF  A4,633
084A0:  MOVLW  0A
084A2:  MOVLB  6
084A4:  MOVWF  x34
084A6:  MOVLB  0
084A8:  CALL   370E
084AC:  MOVF   xA3,W
084AE:  ADDWF  01,W
084B0:  MOVLB  6
084B2:  MOVWF  x2C
084B4:  MOVLW  EC
084B6:  MOVWF  FF6
084B8:  MOVLW  09
084BA:  MOVWF  FF7
084BC:  MOVLW  00
084BE:  MOVWF  FF8
084C0:  MOVLW  0D
084C2:  MOVWF  x31
084C4:  MOVLB  0
084C6:  CALL   4FD6
084CA:  MOVFF  62C,631
084CE:  MOVLW  01
084D0:  MOVLB  6
084D2:  MOVWF  x32
084D4:  MOVLB  0
084D6:  CALL   505A
084DA:  MOVLW  22
084DC:  BTFSS  F9E.4
084DE:  BRA    84DC
084E0:  MOVWF  FAD
....................          SendDataDisplay(); 
084E2:  CALL   3C34
....................          printf("tsecest.txt=\"%02u\"",((Testerilizacionp[1]*10)+Testerilizacionp[0])); 
084E6:  MOVFF  A2,633
084EA:  MOVLW  0A
084EC:  MOVLB  6
084EE:  MOVWF  x34
084F0:  MOVLB  0
084F2:  CALL   370E
084F6:  MOVF   xA1,W
084F8:  ADDWF  01,W
084FA:  MOVLB  6
084FC:  MOVWF  x2C
084FE:  MOVLW  00
08500:  MOVWF  FF6
08502:  MOVLW  0A
08504:  MOVWF  FF7
08506:  MOVLW  00
08508:  MOVWF  FF8
0850A:  MOVLW  0D
0850C:  MOVWF  x31
0850E:  MOVLB  0
08510:  CALL   4FD6
08514:  MOVFF  62C,631
08518:  MOVLW  01
0851A:  MOVLB  6
0851C:  MOVWF  x32
0851E:  MOVLB  0
08520:  CALL   505A
08524:  MOVLW  22
08526:  BTFSS  F9E.4
08528:  BRA    8526
0852A:  MOVWF  FAD
....................          SendDataDisplay(); 
0852C:  CALL   3C34
08530:  MOVLB  1
....................     } 
.................... //_--------------------------------------------------------------------------------------------------------------------------------------------------------        
....................  
.................... //_-------------------------------------------------------------------------------------------------------------------------------------------------------- 
....................     if(Menu==3){ //Menu de Tiempo de Secado 
08532:  MOVF   xD7,W
08534:  SUBLW  03
08536:  BTFSS  FD8.2
08538:  BRA    88BA
....................       printf("fecha.txt=\"Fecha:%02u/%02u/20%02u    Hora: %02u:%02u:%02u\"",Dia,Mes,Year,Hora,Minuto,Segundo); 
0853A:  MOVLW  14
0853C:  MOVWF  FF6
0853E:  MOVLW  0A
08540:  MOVWF  FF7
08542:  MOVLW  00
08544:  MOVWF  FF8
08546:  MOVLW  11
08548:  MOVLB  6
0854A:  MOVWF  x31
0854C:  MOVLB  0
0854E:  CALL   4FD6
08552:  MOVFF  213,631
08556:  MOVLW  01
08558:  MOVLB  6
0855A:  MOVWF  x32
0855C:  MOVLB  0
0855E:  CALL   505A
08562:  MOVLW  2F
08564:  BTFSS  F9E.4
08566:  BRA    8564
08568:  MOVWF  FAD
0856A:  MOVFF  212,631
0856E:  MOVLW  01
08570:  MOVLB  6
08572:  MOVWF  x32
08574:  MOVLB  0
08576:  CALL   505A
0857A:  MOVLW  2E
0857C:  MOVWF  FF6
0857E:  MOVLW  0A
08580:  MOVWF  FF7
08582:  MOVLW  00
08584:  MOVWF  FF8
08586:  MOVLW  03
08588:  MOVLB  6
0858A:  MOVWF  x31
0858C:  MOVLB  0
0858E:  CALL   4FD6
08592:  MOVFF  211,631
08596:  MOVLW  01
08598:  MOVLB  6
0859A:  MOVWF  x32
0859C:  MOVLB  0
0859E:  CALL   505A
085A2:  MOVLW  35
085A4:  MOVWF  FF6
085A6:  MOVLW  0A
085A8:  MOVWF  FF7
085AA:  MOVLW  00
085AC:  MOVWF  FF8
085AE:  MOVLW  0A
085B0:  MOVLB  6
085B2:  MOVWF  x31
085B4:  MOVLB  0
085B6:  CALL   4FD6
085BA:  MOVFF  214,631
085BE:  MOVLW  01
085C0:  MOVLB  6
085C2:  MOVWF  x32
085C4:  MOVLB  0
085C6:  CALL   505A
085CA:  MOVLW  3A
085CC:  BTFSS  F9E.4
085CE:  BRA    85CC
085D0:  MOVWF  FAD
085D2:  MOVFF  215,631
085D6:  MOVLW  01
085D8:  MOVLB  6
085DA:  MOVWF  x32
085DC:  MOVLB  0
085DE:  CALL   505A
085E2:  MOVLW  3A
085E4:  BTFSS  F9E.4
085E6:  BRA    85E4
085E8:  MOVWF  FAD
085EA:  MOVFF  216,631
085EE:  MOVLW  01
085F0:  MOVLB  6
085F2:  MOVWF  x32
085F4:  MOVLB  0
085F6:  CALL   505A
085FA:  MOVLW  22
085FC:  BTFSS  F9E.4
085FE:  BRA    85FC
08600:  MOVWF  FAD
....................       SendDataDisplay(); 
08602:  CALL   3C34
....................          if(RX_Buffer[4]==0x0a){//Selecciono Minutos 
08606:  MOVF   3C,W
08608:  SUBLW  0A
0860A:  BNZ   8610
....................             Minutos=ON; 
0860C:  BSF    x8F.2
....................             Segundos=OFF; 
0860E:  BCF    x8F.3
....................          } 
....................           
....................          if(RX_Buffer[4]==0x0b){//Selecciono Segundos 
08610:  MOVF   3C,W
08612:  SUBLW  0B
08614:  BNZ   861A
....................             Segundos=ON; 
08616:  BSF    x8F.3
....................             Minutos=OFF; 
08618:  BCF    x8F.2
....................          } 
....................           
....................          if(RX_Buffer[4]==0x11){//Selecciono Regresar 
0861A:  MOVF   3C,W
0861C:  SUBLW  11
0861E:  BTFSS  FD8.2
08620:  BRA    8790
....................             Segundos=OFF; 
08622:  BCF    x8F.3
....................             Minutos=OFF; 
08624:  BCF    x8F.2
....................             printf("page CicloPersona"); 
08626:  MOVLW  50
08628:  MOVWF  FF6
0862A:  MOVLW  0A
0862C:  MOVWF  FF7
0862E:  MOVLW  00
08630:  MOVWF  FF8
08632:  CALL   3C02
....................             SendDataDisplay();   
08636:  CALL   3C34
....................             PantallaPrincipal=1; 
0863A:  MOVLW  01
0863C:  MOVLB  1
0863E:  MOVWF  x7C
....................             Op=OFF; 
08640:  MOVLB  0
08642:  BCF    x8F.0
....................             Op2=OFF; 
08644:  BCF    x8F.1
....................             if(!GuardaEEPROM){ 
08646:  BTFSC  x8F.4
08648:  BRA    8790
....................                CiclosPersonalizados[CicloLibre-1].Minutosec=Tsecadop[2]+(Tsecadop[3]*10); 
0864A:  MOVLW  01
0864C:  MOVLB  2
0864E:  SUBWF  x27,W
08650:  MULLW  08
08652:  MOVF   FF3,W
08654:  MOVLB  6
08656:  CLRF   x2D
08658:  MOVWF  x2C
0865A:  MOVLW  03
0865C:  ADDWF  x2C,W
0865E:  MOVWF  01
08660:  MOVLW  00
08662:  ADDWFC x2D,W
08664:  MOVWF  03
08666:  MOVF   01,W
08668:  ADDLW  62
0866A:  MOVWF  FE9
0866C:  MOVLW  05
0866E:  ADDWFC 03,W
08670:  MOVWF  FEA
08672:  MOVFF  AC,633
08676:  MOVLW  0A
08678:  MOVWF  x34
0867A:  MOVLB  0
0867C:  CALL   370E
08680:  MOVF   01,W
08682:  ADDWF  xAB,W
08684:  MOVWF  FEF
....................                CiclosPersonalizados[CicloLibre-1].Segundosec=Tsecadop[0]+(Tsecadop[1]*10); 
08686:  MOVLW  01
08688:  MOVLB  2
0868A:  SUBWF  x27,W
0868C:  MULLW  08
0868E:  MOVF   FF3,W
08690:  MOVLB  6
08692:  CLRF   x2D
08694:  MOVWF  x2C
08696:  MOVLW  04
08698:  ADDWF  x2C,W
0869A:  MOVWF  01
0869C:  MOVLW  00
0869E:  ADDWFC x2D,W
086A0:  MOVWF  03
086A2:  MOVF   01,W
086A4:  ADDLW  62
086A6:  MOVWF  FE9
086A8:  MOVLW  05
086AA:  ADDWFC 03,W
086AC:  MOVWF  FEA
086AE:  MOVFF  AA,633
086B2:  MOVLW  0A
086B4:  MOVWF  x34
086B6:  MOVLB  0
086B8:  CALL   370E
086BC:  MOVF   01,W
086BE:  ADDWF  xA9,W
086C0:  MOVWF  FEF
....................                write_eeprom(103+((CicloLibre-1)*8),Tsecadop[2]+(Tsecadop[3]*10)); 
086C2:  MOVLW  01
086C4:  MOVLB  2
086C6:  SUBWF  x27,W
086C8:  MULLW  08
086CA:  MOVF   FF3,W
086CC:  ADDLW  67
086CE:  MOVLB  6
086D0:  MOVWF  x2C
086D2:  MOVFF  AC,633
086D6:  MOVLW  0A
086D8:  MOVWF  x34
086DA:  MOVLB  0
086DC:  CALL   370E
086E0:  MOVF   01,W
086E2:  ADDWF  xAB,W
086E4:  MOVLB  6
086E6:  MOVWF  x2D
086E8:  MOVF   FF2,W
086EA:  MOVWF  00
086EC:  BCF    FF2.7
086EE:  CLRF   FAA
086F0:  MOVFF  62C,FA9
086F4:  MOVFF  62D,FA8
086F8:  BCF    FA6.6
086FA:  BCF    FA6.7
086FC:  BSF    FA6.2
086FE:  MOVLB  F
08700:  MOVLW  55
08702:  MOVWF  FA7
08704:  MOVLW  AA
08706:  MOVWF  FA7
08708:  BSF    FA6.1
0870A:  BTFSC  FA6.1
0870C:  BRA    870A
0870E:  BCF    FA6.2
08710:  MOVF   00,W
08712:  IORWF  FF2,F
....................                delay_ms(10); 
08714:  MOVLW  0A
08716:  MOVLB  6
08718:  MOVWF  x35
0871A:  MOVLB  0
0871C:  CALL   1EDC
....................                write_eeprom(104+((CicloLibre-1)*8),Tsecadop[0]+(Tsecadop[1]*10)); 
08720:  MOVLW  01
08722:  MOVLB  2
08724:  SUBWF  x27,W
08726:  MULLW  08
08728:  MOVF   FF3,W
0872A:  ADDLW  68
0872C:  MOVLB  6
0872E:  MOVWF  x2C
08730:  MOVFF  AA,633
08734:  MOVLW  0A
08736:  MOVWF  x34
08738:  MOVLB  0
0873A:  CALL   370E
0873E:  MOVF   01,W
08740:  ADDWF  xA9,W
08742:  MOVLB  6
08744:  MOVWF  x2D
08746:  MOVF   FF2,W
08748:  MOVWF  00
0874A:  BCF    FF2.7
0874C:  CLRF   FAA
0874E:  MOVFF  62C,FA9
08752:  MOVFF  62D,FA8
08756:  BCF    FA6.6
08758:  BCF    FA6.7
0875A:  BSF    FA6.2
0875C:  MOVLB  F
0875E:  MOVLW  55
08760:  MOVWF  FA7
08762:  MOVLW  AA
08764:  MOVWF  FA7
08766:  BSF    FA6.1
08768:  BTFSC  FA6.1
0876A:  BRA    8768
0876C:  BCF    FA6.2
0876E:  MOVF   00,W
08770:  IORWF  FF2,F
....................                delay_ms(10); 
08772:  MOVLW  0A
08774:  MOVLB  6
08776:  MOVWF  x35
08778:  MOVLB  0
0877A:  CALL   1EDC
....................                Tsecado[0]=Tsecadop[0]; 
0877E:  MOVFF  A9,A5
....................                Tsecado[1]=Tsecadop[1]; 
08782:  MOVFF  AA,A6
....................                Tsecado[2]=Tsecadop[2]; 
08786:  MOVFF  AB,A7
....................                Tsecado[3]=Tsecadop[3]; 
0878A:  MOVFF  AC,A8
....................                GuardaEEPROM=ON; 
0878E:  BSF    x8F.4
....................             } 
....................          } 
....................            
....................          if(RX_Buffer[4]==0x0d ||RX_Buffer[4]==0x0c){//Tecla Arriba Oprimida 
08790:  MOVF   3C,W
08792:  SUBLW  0D
08794:  BZ    879C
08796:  MOVF   3C,W
08798:  SUBLW  0C
0879A:  BNZ   87E0
....................             if(Segundos){ 
0879C:  BTFSS  x8F.3
0879E:  BRA    87BC
....................                Tsecadop[0]++; 
087A0:  INCF   xA9,F
....................                if(Tsecadop[0]>9){ 
087A2:  BTFSC  xA9.7
087A4:  BRA    87BC
087A6:  MOVF   xA9,W
087A8:  SUBLW  09
087AA:  BC    87BC
....................                   Tsecadop[1]++; 
087AC:  INCF   xAA,F
....................                   if(Tsecadop[1]>5) 
087AE:  BTFSC  xAA.7
087B0:  BRA    87BA
087B2:  MOVF   xAA,W
087B4:  SUBLW  05
087B6:  BC    87BA
....................                      Tsecadop[1]=0; 
087B8:  CLRF   xAA
....................                   Tsecadop[0]=0; 
087BA:  CLRF   xA9
....................                } 
....................             } 
....................             if(Minutos){ 
087BC:  BTFSS  x8F.2
087BE:  BRA    87DC
....................                Tsecadop[2]++; 
087C0:  INCF   xAB,F
....................                if(Tsecadop[2]>9){ 
087C2:  BTFSC  xAB.7
087C4:  BRA    87DC
087C6:  MOVF   xAB,W
087C8:  SUBLW  09
087CA:  BC    87DC
....................                   Tsecadop[3]++; 
087CC:  INCF   xAC,F
....................                   if(Tsecadop[3]>5) 
087CE:  BTFSC  xAC.7
087D0:  BRA    87DA
087D2:  MOVF   xAC,W
087D4:  SUBLW  05
087D6:  BC    87DA
....................                      Tsecadop[3]=0; 
087D8:  CLRF   xAC
....................                   Tsecadop[2]=0; 
087DA:  CLRF   xAB
....................                } 
....................             } 
....................             RX_Buffer[4]=0x00; 
087DC:  CLRF   3C
....................             RX_Buffer2[4]=0x00;                         
087DE:  CLRF   47
....................          } 
....................           
....................          if(RX_Buffer[4]==0x0e || RX_Buffer[4]==0x0f){//Tecla Izquierda Oprimida 
087E0:  MOVF   3C,W
087E2:  SUBLW  0E
087E4:  BZ    87EC
087E6:  MOVF   3C,W
087E8:  SUBLW  0F
087EA:  BNZ   8824
....................             if(Segundos){ 
087EC:  BTFSS  x8F.3
087EE:  BRA    8806
....................                Tsecadop[0]--; 
087F0:  DECF   xA9,F
....................                if(Tsecadop[0]<0){ 
087F2:  BTFSS  xA9.7
087F4:  BRA    8806
....................                   Tsecadop[1]--; 
087F6:  DECF   xAA,F
....................                   if(Tsecadop[1]<0) 
087F8:  BTFSC  xAA.7
087FA:  BRA    87FE
087FC:  BRA    8802
....................                      Tsecadop[1]=5; 
087FE:  MOVLW  05
08800:  MOVWF  xAA
....................                   Tsecadop[0]=9; 
08802:  MOVLW  09
08804:  MOVWF  xA9
....................                } 
....................             } 
....................             if(Minutos){ 
08806:  BTFSS  x8F.2
08808:  BRA    8820
....................                Tsecadop[2]--; 
0880A:  DECF   xAB,F
....................                if(Tsecadop[2]<0){ 
0880C:  BTFSS  xAB.7
0880E:  BRA    8820
....................                   Tsecadop[3]--; 
08810:  DECF   xAC,F
....................                   if(Tsecadop[3]<0) 
08812:  BTFSC  xAC.7
08814:  BRA    8818
08816:  BRA    881C
....................                      Tsecadop[3]=5; 
08818:  MOVLW  05
0881A:  MOVWF  xAC
....................                   Tsecadop[2]=9; 
0881C:  MOVLW  09
0881E:  MOVWF  xAB
....................                } 
....................             } 
....................             RX_Buffer[4]=0x00; 
08820:  CLRF   3C
....................             RX_Buffer2[4]=0x00;             
08822:  CLRF   47
....................          } 
....................           
....................       printf("tminsec.txt=\"%02u\"",((Tsecadop[3]*10)+Tsecadop[2])); 
08824:  MOVFF  AC,633
08828:  MOVLW  0A
0882A:  MOVLB  6
0882C:  MOVWF  x34
0882E:  MOVLB  0
08830:  CALL   370E
08834:  MOVF   xAB,W
08836:  ADDWF  01,W
08838:  MOVLB  6
0883A:  MOVWF  x2C
0883C:  MOVLW  62
0883E:  MOVWF  FF6
08840:  MOVLW  0A
08842:  MOVWF  FF7
08844:  MOVLW  00
08846:  MOVWF  FF8
08848:  MOVLW  0D
0884A:  MOVWF  x31
0884C:  MOVLB  0
0884E:  CALL   4FD6
08852:  MOVFF  62C,631
08856:  MOVLW  01
08858:  MOVLB  6
0885A:  MOVWF  x32
0885C:  MOVLB  0
0885E:  CALL   505A
08862:  MOVLW  22
08864:  BTFSS  F9E.4
08866:  BRA    8864
08868:  MOVWF  FAD
....................       SendDataDisplay(); 
0886A:  CALL   3C34
....................       printf("tsecsec.txt=\"%02u\"",((Tsecadop[1]*10)+Tsecadop[0])); 
0886E:  MOVFF  AA,633
08872:  MOVLW  0A
08874:  MOVLB  6
08876:  MOVWF  x34
08878:  MOVLB  0
0887A:  CALL   370E
0887E:  MOVF   xA9,W
08880:  ADDWF  01,W
08882:  MOVLB  6
08884:  MOVWF  x2C
08886:  MOVLW  76
08888:  MOVWF  FF6
0888A:  MOVLW  0A
0888C:  MOVWF  FF7
0888E:  MOVLW  00
08890:  MOVWF  FF8
08892:  MOVLW  0D
08894:  MOVWF  x31
08896:  MOVLB  0
08898:  CALL   4FD6
0889C:  MOVFF  62C,631
088A0:  MOVLW  01
088A2:  MOVLB  6
088A4:  MOVWF  x32
088A6:  MOVLB  0
088A8:  CALL   505A
088AC:  MOVLW  22
088AE:  BTFSS  F9E.4
088B0:  BRA    88AE
088B2:  MOVWF  FAD
....................       SendDataDisplay(); 
088B4:  CALL   3C34
088B8:  MOVLB  1
....................     } 
.................... //_--------------------------------------------------------------------------------------------------------------------------------------------------------        
....................  
.................... //_-------------------------------------------------------------------------------------------------------------------------------------------------------- 
....................     if(Menu==4){ //Menu de Temperatura 
088BA:  MOVF   xD7,W
088BC:  SUBLW  04
088BE:  BTFSS  FD8.2
088C0:  BRA    8A8E
....................       printf("fecha.txt=\"Fecha:%02u/%02u/20%02u    Hora: %02u:%02u:%02u\"",Dia,Mes,Year,Hora,Minuto,Segundo); 
088C2:  MOVLW  8A
088C4:  MOVWF  FF6
088C6:  MOVLW  0A
088C8:  MOVWF  FF7
088CA:  MOVLW  00
088CC:  MOVWF  FF8
088CE:  MOVLW  11
088D0:  MOVLB  6
088D2:  MOVWF  x31
088D4:  MOVLB  0
088D6:  CALL   4FD6
088DA:  MOVFF  213,631
088DE:  MOVLW  01
088E0:  MOVLB  6
088E2:  MOVWF  x32
088E4:  MOVLB  0
088E6:  CALL   505A
088EA:  MOVLW  2F
088EC:  BTFSS  F9E.4
088EE:  BRA    88EC
088F0:  MOVWF  FAD
088F2:  MOVFF  212,631
088F6:  MOVLW  01
088F8:  MOVLB  6
088FA:  MOVWF  x32
088FC:  MOVLB  0
088FE:  CALL   505A
08902:  MOVLW  A4
08904:  MOVWF  FF6
08906:  MOVLW  0A
08908:  MOVWF  FF7
0890A:  MOVLW  00
0890C:  MOVWF  FF8
0890E:  MOVLW  03
08910:  MOVLB  6
08912:  MOVWF  x31
08914:  MOVLB  0
08916:  CALL   4FD6
0891A:  MOVFF  211,631
0891E:  MOVLW  01
08920:  MOVLB  6
08922:  MOVWF  x32
08924:  MOVLB  0
08926:  CALL   505A
0892A:  MOVLW  AB
0892C:  MOVWF  FF6
0892E:  MOVLW  0A
08930:  MOVWF  FF7
08932:  MOVLW  00
08934:  MOVWF  FF8
08936:  MOVLW  0A
08938:  MOVLB  6
0893A:  MOVWF  x31
0893C:  MOVLB  0
0893E:  CALL   4FD6
08942:  MOVFF  214,631
08946:  MOVLW  01
08948:  MOVLB  6
0894A:  MOVWF  x32
0894C:  MOVLB  0
0894E:  CALL   505A
08952:  MOVLW  3A
08954:  BTFSS  F9E.4
08956:  BRA    8954
08958:  MOVWF  FAD
0895A:  MOVFF  215,631
0895E:  MOVLW  01
08960:  MOVLB  6
08962:  MOVWF  x32
08964:  MOVLB  0
08966:  CALL   505A
0896A:  MOVLW  3A
0896C:  BTFSS  F9E.4
0896E:  BRA    896C
08970:  MOVWF  FAD
08972:  MOVFF  216,631
08976:  MOVLW  01
08978:  MOVLB  6
0897A:  MOVWF  x32
0897C:  MOVLB  0
0897E:  CALL   505A
08982:  MOVLW  22
08984:  BTFSS  F9E.4
08986:  BRA    8984
08988:  MOVWF  FAD
....................       SendDataDisplay(); 
0898A:  CALL   3C34
....................          if(Setpoint<105) 
0898E:  MOVLB  1
08990:  MOVF   xE1,W
08992:  SUBLW  68
08994:  BNC   899A
....................             Setpoint=134; 
08996:  MOVLW  86
08998:  MOVWF  xE1
....................          if(Setpoint>134) 
0899A:  MOVF   xE1,W
0899C:  SUBLW  86
0899E:  BC    89A4
....................             Setpoint=105; 
089A0:  MOVLW  69
089A2:  MOVWF  xE1
....................           
....................          if(RX_Buffer[4]==0x11){//Selecciono Regresar 
089A4:  MOVF   3C,W
089A6:  SUBLW  11
089A8:  BNZ   8A40
....................             Segundos=OFF; 
089AA:  MOVLB  0
089AC:  BCF    x8F.3
....................             Minutos=OFF; 
089AE:  BCF    x8F.2
....................             printf("page CicloPersona"); 
089B0:  MOVLW  C6
089B2:  MOVWF  FF6
089B4:  MOVLW  0A
089B6:  MOVWF  FF7
089B8:  MOVLW  00
089BA:  MOVWF  FF8
089BC:  CALL   3C02
....................             SendDataDisplay();   
089C0:  CALL   3C34
....................             PantallaPrincipal=1; 
089C4:  MOVLW  01
089C6:  MOVLB  1
089C8:  MOVWF  x7C
....................             Op=OFF; 
089CA:  MOVLB  0
089CC:  BCF    x8F.0
....................             Op2=OFF; 
089CE:  BCF    x8F.1
....................             if(!GuardaEEPROM){ 
089D0:  BTFSC  x8F.4
089D2:  BRA    8A3E
....................                CiclosPersonalizados[CicloLibre-1].Temperatura=Setpoint; 
089D4:  MOVLW  01
089D6:  MOVLB  2
089D8:  SUBWF  x27,W
089DA:  MULLW  08
089DC:  MOVF   FF3,W
089DE:  MOVLB  6
089E0:  CLRF   x2D
089E2:  MOVWF  x2C
089E4:  MOVLW  62
089E6:  ADDWF  x2C,W
089E8:  MOVWF  FE9
089EA:  MOVLW  05
089EC:  ADDWFC x2D,W
089EE:  MOVWF  FEA
089F0:  MOVFF  1E1,FEF
....................                write_eeprom(100+((CicloLibre-1)*8),Setpoint); 
089F4:  MOVLW  01
089F6:  MOVLB  2
089F8:  SUBWF  x27,W
089FA:  MULLW  08
089FC:  MOVF   FF3,W
089FE:  ADDLW  64
08A00:  MOVLB  6
08A02:  MOVWF  x2C
08A04:  MOVF   FF2,W
08A06:  MOVWF  00
08A08:  BCF    FF2.7
08A0A:  CLRF   FAA
08A0C:  MOVFF  62C,FA9
08A10:  MOVFF  1E1,FA8
08A14:  BCF    FA6.6
08A16:  BCF    FA6.7
08A18:  BSF    FA6.2
08A1A:  MOVLB  F
08A1C:  MOVLW  55
08A1E:  MOVWF  FA7
08A20:  MOVLW  AA
08A22:  MOVWF  FA7
08A24:  BSF    FA6.1
08A26:  BTFSC  FA6.1
08A28:  BRA    8A26
08A2A:  BCF    FA6.2
08A2C:  MOVF   00,W
08A2E:  IORWF  FF2,F
....................                delay_ms(10); 
08A30:  MOVLW  0A
08A32:  MOVLB  6
08A34:  MOVWF  x35
08A36:  MOVLB  0
08A38:  CALL   1EDC
....................                GuardaEEPROM=ON; 
08A3C:  BSF    x8F.4
08A3E:  MOVLB  1
....................             } 
....................          } 
....................           
....................          if(RX_Buffer[4]==0x0d){//Tecla Arriba Oprimida 
08A40:  MOVF   3C,W
08A42:  SUBLW  0D
08A44:  BNZ   8A4C
....................             Setpoint++; 
08A46:  INCF   xE1,F
....................             RX_Buffer[4]=0x00;   
08A48:  CLRF   3C
....................             RX_Buffer2[4]=0x00;             
08A4A:  CLRF   47
....................             //BorraBuffer(); 
....................          } 
....................           
....................          if(RX_Buffer[4]==0x0c){//Tecla Abajo Oprimida 
08A4C:  MOVF   3C,W
08A4E:  SUBLW  0C
08A50:  BNZ   8A58
....................             Setpoint--; 
08A52:  DECF   xE1,F
....................             RX_Buffer[4]=0x00; 
08A54:  CLRF   3C
....................             RX_Buffer2[4]=0x00;             
08A56:  CLRF   47
....................             //BorraBuffer(); 
....................          } 
....................           
....................       printf("tsettem.txt=\"%03u\"",Setpoint); 
08A58:  MOVLW  D8
08A5A:  MOVWF  FF6
08A5C:  MOVLW  0A
08A5E:  MOVWF  FF7
08A60:  MOVLW  00
08A62:  MOVWF  FF8
08A64:  MOVLW  0D
08A66:  MOVLB  6
08A68:  MOVWF  x31
08A6A:  MOVLB  0
08A6C:  CALL   4FD6
08A70:  MOVFF  1E1,631
08A74:  MOVLW  03
08A76:  MOVLB  6
08A78:  MOVWF  x32
08A7A:  MOVLB  0
08A7C:  CALL   505A
08A80:  MOVLW  22
08A82:  BTFSS  F9E.4
08A84:  BRA    8A82
08A86:  MOVWF  FAD
....................       SendDataDisplay(); 
08A88:  CALL   3C34
08A8C:  MOVLB  1
....................     } 
.................... //_--------------------------------------------------------------------------------------------------------------------------------------------------------        
....................  
.................... //_--------------------------------------------------------------------------------------------------------------------------------------------------------       
....................     if(Menu==5){//Menu de Nivel de Vacio 
08A8E:  MOVF   xD7,W
08A90:  SUBLW  05
08A92:  BTFSS  FD8.2
08A94:  BRA    8C7E
....................       printf("fecha.txt=\"Fecha:%02u/%02u/20%02u    Hora: %02u:%02u:%02u\"",Dia,Mes,Year,Hora,Minuto,Segundo); 
08A96:  MOVLW  EC
08A98:  MOVWF  FF6
08A9A:  MOVLW  0A
08A9C:  MOVWF  FF7
08A9E:  MOVLW  00
08AA0:  MOVWF  FF8
08AA2:  MOVLW  11
08AA4:  MOVLB  6
08AA6:  MOVWF  x31
08AA8:  MOVLB  0
08AAA:  CALL   4FD6
08AAE:  MOVFF  213,631
08AB2:  MOVLW  01
08AB4:  MOVLB  6
08AB6:  MOVWF  x32
08AB8:  MOVLB  0
08ABA:  CALL   505A
08ABE:  MOVLW  2F
08AC0:  BTFSS  F9E.4
08AC2:  BRA    8AC0
08AC4:  MOVWF  FAD
08AC6:  MOVFF  212,631
08ACA:  MOVLW  01
08ACC:  MOVLB  6
08ACE:  MOVWF  x32
08AD0:  MOVLB  0
08AD2:  CALL   505A
08AD6:  MOVLW  06
08AD8:  MOVWF  FF6
08ADA:  MOVLW  0B
08ADC:  MOVWF  FF7
08ADE:  MOVLW  00
08AE0:  MOVWF  FF8
08AE2:  MOVLW  03
08AE4:  MOVLB  6
08AE6:  MOVWF  x31
08AE8:  MOVLB  0
08AEA:  CALL   4FD6
08AEE:  MOVFF  211,631
08AF2:  MOVLW  01
08AF4:  MOVLB  6
08AF6:  MOVWF  x32
08AF8:  MOVLB  0
08AFA:  CALL   505A
08AFE:  MOVLW  0D
08B00:  MOVWF  FF6
08B02:  MOVLW  0B
08B04:  MOVWF  FF7
08B06:  MOVLW  00
08B08:  MOVWF  FF8
08B0A:  MOVLW  0A
08B0C:  MOVLB  6
08B0E:  MOVWF  x31
08B10:  MOVLB  0
08B12:  CALL   4FD6
08B16:  MOVFF  214,631
08B1A:  MOVLW  01
08B1C:  MOVLB  6
08B1E:  MOVWF  x32
08B20:  MOVLB  0
08B22:  CALL   505A
08B26:  MOVLW  3A
08B28:  BTFSS  F9E.4
08B2A:  BRA    8B28
08B2C:  MOVWF  FAD
08B2E:  MOVFF  215,631
08B32:  MOVLW  01
08B34:  MOVLB  6
08B36:  MOVWF  x32
08B38:  MOVLB  0
08B3A:  CALL   505A
08B3E:  MOVLW  3A
08B40:  BTFSS  F9E.4
08B42:  BRA    8B40
08B44:  MOVWF  FAD
08B46:  MOVFF  216,631
08B4A:  MOVLW  01
08B4C:  MOVLB  6
08B4E:  MOVWF  x32
08B50:  MOVLB  0
08B52:  CALL   505A
08B56:  MOVLW  22
08B58:  BTFSS  F9E.4
08B5A:  BRA    8B58
08B5C:  MOVWF  FAD
....................       SendDataDisplay(); 
08B5E:  CALL   3C34
....................          if(Nivel<25) 
08B62:  MOVLB  1
08B64:  MOVF   xF0,F
08B66:  BNZ   8B74
08B68:  MOVF   xEF,W
08B6A:  SUBLW  18
08B6C:  BNC   8B74
....................             Nivel=100; 
08B6E:  CLRF   xF0
08B70:  MOVLW  64
08B72:  MOVWF  xEF
....................          if(Nivel>100) 
08B74:  MOVF   xF0,F
08B76:  BNZ   8B7E
08B78:  MOVF   xEF,W
08B7A:  SUBLW  64
08B7C:  BC    8B84
....................             Nivel=25; 
08B7E:  CLRF   xF0
08B80:  MOVLW  19
08B82:  MOVWF  xEF
....................           
....................          if(RX_Buffer[4]==0x11){//Selecciono Regresar 
08B84:  MOVF   3C,W
08B86:  SUBLW  11
08B88:  BNZ   8C26
....................             Segundos=OFF; 
08B8A:  MOVLB  0
08B8C:  BCF    x8F.3
....................             Minutos=OFF;             
08B8E:  BCF    x8F.2
....................             tiempo_secado=0; 
08B90:  MOVLB  1
08B92:  CLRF   xE5
....................             printf("page CicloPersona"); 
08B94:  MOVLW  28
08B96:  MOVWF  FF6
08B98:  MOVLW  0B
08B9A:  MOVWF  FF7
08B9C:  MOVLW  00
08B9E:  MOVWF  FF8
08BA0:  MOVLB  0
08BA2:  CALL   3C02
....................             SendDataDisplay();   
08BA6:  CALL   3C34
....................             if(!GuardaEEPROM){     
08BAA:  BTFSC  x8F.4
08BAC:  BRA    8C24
....................                CiclosPersonalizados[CicloLibre-1].NivelVacio=Nivel; 
08BAE:  MOVLW  01
08BB0:  MOVLB  2
08BB2:  SUBWF  x27,W
08BB4:  MULLW  08
08BB6:  MOVF   FF3,W
08BB8:  MOVLB  6
08BBA:  CLRF   x2D
08BBC:  MOVWF  x2C
08BBE:  MOVLW  06
08BC0:  ADDWF  x2C,W
08BC2:  MOVWF  01
08BC4:  MOVLW  00
08BC6:  ADDWFC x2D,W
08BC8:  MOVWF  03
08BCA:  MOVF   01,W
08BCC:  ADDLW  62
08BCE:  MOVWF  FE9
08BD0:  MOVLW  05
08BD2:  ADDWFC 03,W
08BD4:  MOVWF  FEA
08BD6:  MOVFF  1EF,FEF
....................                write_eeprom(106+((CicloLibre-1)*8),Nivel); 
08BDA:  MOVLW  01
08BDC:  MOVLB  2
08BDE:  SUBWF  x27,W
08BE0:  MULLW  08
08BE2:  MOVF   FF3,W
08BE4:  ADDLW  6A
08BE6:  MOVLB  6
08BE8:  MOVWF  x2C
08BEA:  MOVF   FF2,W
08BEC:  MOVWF  00
08BEE:  BCF    FF2.7
08BF0:  CLRF   FAA
08BF2:  MOVFF  62C,FA9
08BF6:  MOVFF  1EF,FA8
08BFA:  BCF    FA6.6
08BFC:  BCF    FA6.7
08BFE:  BSF    FA6.2
08C00:  MOVLB  F
08C02:  MOVLW  55
08C04:  MOVWF  FA7
08C06:  MOVLW  AA
08C08:  MOVWF  FA7
08C0A:  BSF    FA6.1
08C0C:  BTFSC  FA6.1
08C0E:  BRA    8C0C
08C10:  BCF    FA6.2
08C12:  MOVF   00,W
08C14:  IORWF  FF2,F
....................                delay_ms(20);             
08C16:  MOVLW  14
08C18:  MOVLB  6
08C1A:  MOVWF  x35
08C1C:  MOVLB  0
08C1E:  CALL   1EDC
....................                GuardaEEPROM=ON; 
08C22:  BSF    x8F.4
08C24:  MOVLB  1
....................             } 
....................          } 
....................           
....................          if(RX_Buffer[4]==0x0d){//Tecla Arriba Oprimida 
08C26:  MOVF   3C,W
08C28:  SUBLW  0D
08C2A:  BNZ   8C36
....................             Nivel++; 
08C2C:  INCF   xEF,F
08C2E:  BTFSC  FD8.2
08C30:  INCF   xF0,F
....................             RX_Buffer[4]=0x00;             
08C32:  CLRF   3C
....................             RX_Buffer2[4]=0x00;             
08C34:  CLRF   47
....................             //BorraBuffer(); 
....................          } 
....................           
....................          if(RX_Buffer[4]==0x0c){//Tecla Abajo Oprimida 
08C36:  MOVF   3C,W
08C38:  SUBLW  0C
08C3A:  BNZ   8C48
....................             Nivel--; 
08C3C:  MOVF   xEF,W
08C3E:  BTFSC  FD8.2
08C40:  DECF   xF0,F
08C42:  DECF   xEF,F
....................             RX_Buffer[4]=0x00; 
08C44:  CLRF   3C
....................             RX_Buffer2[4]=0x00;             
08C46:  CLRF   47
....................             //BorraBuffer(); 
....................          } 
....................           
....................       printf("tnivel.txt=\"%Lu\"",Nivel); 
08C48:  MOVLW  3A
08C4A:  MOVWF  FF6
08C4C:  MOVLW  0B
08C4E:  MOVWF  FF7
08C50:  MOVLW  00
08C52:  MOVWF  FF8
08C54:  MOVLW  0C
08C56:  MOVLB  6
08C58:  MOVWF  x31
08C5A:  MOVLB  0
08C5C:  CALL   4FD6
08C60:  MOVLW  10
08C62:  MOVWF  FE9
08C64:  MOVFF  1F0,631
08C68:  MOVFF  1EF,630
08C6C:  CALL   5136
08C70:  MOVLW  22
08C72:  BTFSS  F9E.4
08C74:  BRA    8C72
08C76:  MOVWF  FAD
....................       SendDataDisplay(); 
08C78:  CALL   3C34
08C7C:  MOVLB  1
....................    } 
.................... //_--------------------------------------------------------------------------------------------------------------------------------------------------------       
....................  
.................... //_--------------------------------------------------------------------------------------------------------------------------------------------------------       
....................     if(Menu==6){ // Menu de Prueba de Componentes 
08C7E:  MOVF   xD7,W
08C80:  SUBLW  06
08C82:  BTFSS  FD8.2
08C84:  GOTO   94E2
....................          PruebaEstados=ON; 
08C88:  MOVLB  0
08C8A:  BSF    x8E.4
....................           
....................          if(RX_Buffer[4]==0x01)//Oprimio EV Suministro 
08C8C:  DECFSZ 3C,W
08C8E:  BRA    8C96
....................          { 
....................             EstadoSuministro=!EstadoSuministro; 
08C90:  BTG    x8E.2
....................             RX_Buffer[4]=0x00; 
08C92:  CLRF   3C
....................             RX_Buffer2[4]=0x00; 
08C94:  CLRF   47
....................          } 
....................           
....................          if(EstadoSuministro){ 
08C96:  BTFSS  x8E.2
08C98:  BRA    8CB4
....................             printf("b0.bco=2016"); 
08C9A:  MOVLW  4C
08C9C:  MOVWF  FF6
08C9E:  MOVLW  0B
08CA0:  MOVWF  FF7
08CA2:  MOVLW  00
08CA4:  MOVWF  FF8
08CA6:  CALL   3C02
....................             SendDataDisplay();  
08CAA:  CALL   3C34
....................             Suministro_on; 
08CAE:  BSF    F8C.0
08CB0:  BCF    F95.0
....................          } 
08CB2:  BRA    8CCC
....................          else{ 
....................             printf("b0.bco=63488"); 
08CB4:  MOVLW  58
08CB6:  MOVWF  FF6
08CB8:  MOVLW  0B
08CBA:  MOVWF  FF7
08CBC:  MOVLW  00
08CBE:  MOVWF  FF8
08CC0:  CALL   3C02
....................             SendDataDisplay();  
08CC4:  CALL   3C34
....................             Suministro_off; 
08CC8:  BCF    F8C.0
08CCA:  BCF    F95.0
....................          } 
....................           
....................          if(RX_Buffer[4]==0x02)//Oprimio EV Desfogue 
08CCC:  MOVF   3C,W
08CCE:  SUBLW  02
08CD0:  BNZ   8CD8
....................          { 
....................             EstadoDesfogue=!EstadoDesfogue; 
08CD2:  BTG    x8E.1
....................             RX_Buffer[4]=0x00; 
08CD4:  CLRF   3C
....................             RX_Buffer2[4]=0x00; 
08CD6:  CLRF   47
....................          } 
....................           
....................          if(EstadoDesfogue){ 
08CD8:  BTFSS  x8E.1
08CDA:  BRA    8CF6
....................             printf("b1.bco=2016"); 
08CDC:  MOVLW  66
08CDE:  MOVWF  FF6
08CE0:  MOVLW  0B
08CE2:  MOVWF  FF7
08CE4:  MOVLW  00
08CE6:  MOVWF  FF8
08CE8:  CALL   3C02
....................             SendDataDisplay();  
08CEC:  CALL   3C34
....................             Desfogue_on; 
08CF0:  BSF    F8C.3
08CF2:  BCF    F95.3
....................          } 
08CF4:  BRA    8D0E
....................          else{ 
....................             printf("b1.bco=63488"); 
08CF6:  MOVLW  72
08CF8:  MOVWF  FF6
08CFA:  MOVLW  0B
08CFC:  MOVWF  FF7
08CFE:  MOVLW  00
08D00:  MOVWF  FF8
08D02:  CALL   3C02
....................             SendDataDisplay();  
08D06:  CALL   3C34
....................             Desfogue_off; 
08D0A:  BCF    F8C.3
08D0C:  BCF    F95.3
....................          } 
....................           
....................          if(RX_Buffer[4]==0x03)//Oprimio EV Paso 
08D0E:  MOVF   3C,W
08D10:  SUBLW  03
08D12:  BNZ   8D1A
....................          { 
....................             EstadoPaso=!EstadoPaso; 
08D14:  BTG    x8F.5
....................             RX_Buffer[4]=0x00; 
08D16:  CLRF   3C
....................             RX_Buffer2[4]=0x00; 
08D18:  CLRF   47
....................          } 
....................           
....................          if(EstadoPaso){ 
08D1A:  BTFSS  x8F.5
08D1C:  BRA    8D38
....................             printf("b2.bco=2016"); 
08D1E:  MOVLW  80
08D20:  MOVWF  FF6
08D22:  MOVLW  0B
08D24:  MOVWF  FF7
08D26:  MOVLW  00
08D28:  MOVWF  FF8
08D2A:  CALL   3C02
....................             SendDataDisplay();  
08D2E:  CALL   3C34
....................             Paso_on; 
08D32:  BSF    F8C.1
08D34:  BCF    F95.1
....................          } 
08D36:  BRA    8D50
....................          else{ 
....................             printf("b2.bco=63488"); 
08D38:  MOVLW  8C
08D3A:  MOVWF  FF6
08D3C:  MOVLW  0B
08D3E:  MOVWF  FF7
08D40:  MOVLW  00
08D42:  MOVWF  FF8
08D44:  CALL   3C02
....................             SendDataDisplay();  
08D48:  CALL   3C34
....................             Paso_off; 
08D4C:  BCF    F8C.1
08D4E:  BCF    F95.1
....................          } 
....................          
....................          if(RX_Buffer[4]==0x04)//Oprimio Vacio 
08D50:  MOVF   3C,W
08D52:  SUBLW  04
08D54:  BNZ   8D5C
....................          { 
....................             EstadoVacio=!EstadoVacio; 
08D56:  BTG    x8F.6
....................             RX_Buffer[4]=0x00; 
08D58:  CLRF   3C
....................             RX_Buffer2[4]=0x00; 
08D5A:  CLRF   47
....................          } 
....................           
....................          if(EstadoVacio){ 
08D5C:  BTFSS  x8F.6
08D5E:  BRA    8D7A
....................             printf("b3.bco=2016"); 
08D60:  MOVLW  9A
08D62:  MOVWF  FF6
08D64:  MOVLW  0B
08D66:  MOVWF  FF7
08D68:  MOVLW  00
08D6A:  MOVWF  FF8
08D6C:  CALL   3C02
....................             SendDataDisplay();  
08D70:  CALL   3C34
....................             Vacio_on; 
08D74:  BSF    F8C.2
08D76:  BCF    F95.2
....................          } 
08D78:  BRA    8D92
....................          else{ 
....................             printf("b3.bco=63488"); 
08D7A:  MOVLW  A6
08D7C:  MOVWF  FF6
08D7E:  MOVLW  0B
08D80:  MOVWF  FF7
08D82:  MOVLW  00
08D84:  MOVWF  FF8
08D86:  CALL   3C02
....................             SendDataDisplay();  
08D8A:  CALL   3C34
....................             Vacio_off; 
08D8E:  BCF    F8C.2
08D90:  BCF    F95.2
....................          } 
....................           
....................          if(RX_Buffer[4]==0x05)//Oprimio Aire 
08D92:  MOVF   3C,W
08D94:  SUBLW  05
08D96:  BNZ   8D9E
....................          { 
....................             EstadoAire=!EstadoAire; 
08D98:  BTG    x8E.3
....................             RX_Buffer[4]=0x00; 
08D9A:  CLRF   3C
....................             RX_Buffer2[4]=0x00; 
08D9C:  CLRF   47
....................          } 
....................           
....................          if(EstadoAire){ 
08D9E:  BTFSS  x8E.3
08DA0:  BRA    8DBC
....................             printf("b4.bco=2016"); 
08DA2:  MOVLW  B4
08DA4:  MOVWF  FF6
08DA6:  MOVLW  0B
08DA8:  MOVWF  FF7
08DAA:  MOVLW  00
08DAC:  MOVWF  FF8
08DAE:  CALL   3C02
....................             SendDataDisplay();  
08DB2:  CALL   3C34
....................             Aire_on; 
08DB6:  BSF    F8C.4
08DB8:  BCF    F95.4
....................          } 
08DBA:  BRA    8DD4
....................          else{ 
....................             printf("b4.bco=63488"); 
08DBC:  MOVLW  C0
08DBE:  MOVWF  FF6
08DC0:  MOVLW  0B
08DC2:  MOVWF  FF7
08DC4:  MOVLW  00
08DC6:  MOVWF  FF8
08DC8:  CALL   3C02
....................             SendDataDisplay();  
08DCC:  CALL   3C34
....................             Aire_off; 
08DD0:  BCF    F8C.4
08DD2:  BCF    F95.4
....................          } 
....................           
....................          if(RX_Buffer[4]==0x06)//Oprimio Bomba Vacio 
08DD4:  MOVF   3C,W
08DD6:  SUBLW  06
08DD8:  BNZ   8DE0
....................          { 
....................             EstadoBomba=!EstadoBomba; 
08DDA:  BTG    x90.6
....................             RX_Buffer[4]=0x00; 
08DDC:  CLRF   3C
....................             RX_Buffer2[4]=0x00; 
08DDE:  CLRF   47
....................          } 
....................           
....................          if(EstadoBomba){ 
08DE0:  BTFSS  x90.6
08DE2:  BRA    8E02
....................             printf("b5.bco=2016"); 
08DE4:  MOVLW  CE
08DE6:  MOVWF  FF6
08DE8:  MOVLW  0B
08DEA:  MOVWF  FF7
08DEC:  MOVLW  00
08DEE:  MOVWF  FF8
08DF0:  CALL   3C02
....................             SendDataDisplay();  
08DF4:  CALL   3C34
....................             if(CalderinLleno) 
08DF8:  BTFSS  x8E.0
08DFA:  BRA    8E00
....................                BombaVacio_on; 
08DFC:  BSF    F8C.5
08DFE:  BCF    F95.5
....................          } 
08E00:  BRA    8E1A
....................          else{ 
....................             printf("b5.bco=63488"); 
08E02:  MOVLW  DA
08E04:  MOVWF  FF6
08E06:  MOVLW  0B
08E08:  MOVWF  FF7
08E0A:  MOVLW  00
08E0C:  MOVWF  FF8
08E0E:  CALL   3C02
....................             SendDataDisplay();  
08E12:  CALL   3C34
....................             BombaVacio_off; 
08E16:  BCF    F8C.5
08E18:  BCF    F95.5
....................          } 
....................           
....................          if(RX_Buffer[4]==0x07)//Oprimio EV Agua 
08E1A:  MOVF   3C,W
08E1C:  SUBLW  07
08E1E:  BNZ   8E26
....................          { 
....................             EstadoAireBomba=!EstadoAireBomba; 
08E20:  BTG    x92.1
....................             RX_Buffer[4]=0x00; 
08E22:  CLRF   3C
....................             RX_Buffer2[4]=0x00; 
08E24:  CLRF   47
....................          } 
....................           
....................          if(EstadoAireBomba){ 
08E26:  BTFSS  x92.1
08E28:  BRA    8E44
....................             printf("b6.bco=2016"); 
08E2A:  MOVLW  E8
08E2C:  MOVWF  FF6
08E2E:  MOVLW  0B
08E30:  MOVWF  FF7
08E32:  MOVLW  00
08E34:  MOVWF  FF8
08E36:  CALL   3C02
....................             SendDataDisplay();  
08E3A:  CALL   3C34
....................             Agua_on; 
08E3E:  BSF    F8C.6
08E40:  BCF    F95.6
....................          } 
08E42:  BRA    8E5C
....................          else{ 
....................             printf("b6.bco=63488"); 
08E44:  MOVLW  F4
08E46:  MOVWF  FF6
08E48:  MOVLW  0B
08E4A:  MOVWF  FF7
08E4C:  MOVLW  00
08E4E:  MOVWF  FF8
08E50:  CALL   3C02
....................             SendDataDisplay();  
08E54:  CALL   3C34
....................             Agua_off; 
08E58:  BCF    F8C.6
08E5A:  BCF    F95.6
....................          } 
....................           
....................          if(RX_Buffer[4]==0x08)//Oprimio EV Agua2 
08E5C:  MOVF   3C,W
08E5E:  SUBLW  08
08E60:  BNZ   8E68
....................          { 
....................             EstadoAgua2=!EstadoAgua2; 
08E62:  BTG    x8E.7
....................             RX_Buffer[4]=0x00; 
08E64:  CLRF   3C
....................             RX_Buffer2[4]=0x00; 
08E66:  CLRF   47
....................          } 
....................           
....................          if(EstadoAgua2){ 
08E68:  BTFSS  x8E.7
08E6A:  BRA    8E86
....................             printf("b7.bco=2016"); 
08E6C:  MOVLW  02
08E6E:  MOVWF  FF6
08E70:  MOVLW  0C
08E72:  MOVWF  FF7
08E74:  MOVLW  00
08E76:  MOVWF  FF8
08E78:  CALL   3C02
....................             SendDataDisplay();  
08E7C:  CALL   3C34
....................             Agua2_on; 
08E80:  BSF    F8C.7
08E82:  BCF    F95.7
....................          } 
08E84:  BRA    8E9E
....................          else{ 
....................             printf("b7.bco=63488"); 
08E86:  MOVLW  0E
08E88:  MOVWF  FF6
08E8A:  MOVLW  0C
08E8C:  MOVWF  FF7
08E8E:  MOVLW  00
08E90:  MOVWF  FF8
08E92:  CALL   3C02
....................             SendDataDisplay();  
08E96:  CALL   3C34
....................             Agua2_off; 
08E9A:  BCF    F8C.7
08E9C:  BCF    F95.7
....................          } 
....................           
....................          if(RX_Buffer[4]==0x17)//Oprimio Abrir Cierre 
08E9E:  MOVF   3C,W
08EA0:  SUBLW  17
08EA2:  BNZ   8EAA
....................          { 
....................             EstadoACierre=!EstadoACierre; 
08EA4:  BTG    x90.5
....................             RX_Buffer[4]=0x00; 
08EA6:  CLRF   3C
....................             RX_Buffer2[4]=0x00; 
08EA8:  CLRF   47
....................          } 
....................           
....................          if(EstadoACierre){ 
08EAA:  BTFSS  x90.5
08EAC:  BRA    8ED0
....................             printf("b16.bco=2016"); 
08EAE:  MOVLW  1C
08EB0:  MOVWF  FF6
08EB2:  MOVLW  0C
08EB4:  MOVWF  FF7
08EB6:  MOVLW  00
08EB8:  MOVWF  FF8
08EBA:  CALL   3C02
....................             SendDataDisplay();  
08EBE:  CALL   3C34
....................             sistemaBloqueo(1); 
08EC2:  MOVLW  01
08EC4:  MOVLB  6
08EC6:  MOVWF  x2C
08EC8:  MOVLB  0
08ECA:  CALL   4A86
....................          } 
08ECE:  BRA    8EEE
....................          else{ 
....................             printf("b16.bco=63488"); 
08ED0:  MOVLW  2A
08ED2:  MOVWF  FF6
08ED4:  MOVLW  0C
08ED6:  MOVWF  FF7
08ED8:  MOVLW  00
08EDA:  MOVWF  FF8
08EDC:  CALL   3C02
....................             SendDataDisplay();  
08EE0:  CALL   3C34
....................             sistemaBloqueo(0); 
08EE4:  MOVLB  6
08EE6:  CLRF   x2C
08EE8:  MOVLB  0
08EEA:  CALL   4A86
....................          } 
....................           
....................          if(DOOR){ 
08EEE:  BSF    F93.1
08EF0:  BTFSC  F81.1
08EF2:  BRA    8F0A
....................             printf("b8.bco=2016"); 
08EF4:  MOVLW  38
08EF6:  MOVWF  FF6
08EF8:  MOVLW  0C
08EFA:  MOVWF  FF7
08EFC:  MOVLW  00
08EFE:  MOVWF  FF8
08F00:  CALL   3C02
....................             SendDataDisplay();  
08F04:  CALL   3C34
....................          }else{ 
08F08:  BRA    8F1E
....................             printf("b8.bco=63488"); 
08F0A:  MOVLW  44
08F0C:  MOVWF  FF6
08F0E:  MOVLW  0C
08F10:  MOVWF  FF7
08F12:  MOVLW  00
08F14:  MOVWF  FF8
08F16:  CALL   3C02
....................             SendDataDisplay();  
08F1A:  CALL   3C34
....................          } 
....................           
....................          if(TERM){ 
08F1E:  BSF    F93.3
08F20:  BTFSC  F81.3
08F22:  BRA    8F3A
....................             printf("b9.bco=2016"); 
08F24:  MOVLW  52
08F26:  MOVWF  FF6
08F28:  MOVLW  0C
08F2A:  MOVWF  FF7
08F2C:  MOVLW  00
08F2E:  MOVWF  FF8
08F30:  CALL   3C02
....................             SendDataDisplay();  
08F34:  CALL   3C34
....................          }else{ 
08F38:  BRA    8F4E
....................             printf("b9.bco=63488"); 
08F3A:  MOVLW  5E
08F3C:  MOVWF  FF6
08F3E:  MOVLW  0C
08F40:  MOVWF  FF7
08F42:  MOVLW  00
08F44:  MOVWF  FF8
08F46:  CALL   3C02
....................             SendDataDisplay();  
08F4A:  CALL   3C34
....................          } 
....................           
....................          if(STOP){ 
08F4E:  BSF    F93.2
08F50:  BTFSC  F81.2
08F52:  BRA    8F6A
....................             printf("b10.bco=2016"); 
08F54:  MOVLW  6C
08F56:  MOVWF  FF6
08F58:  MOVLW  0C
08F5A:  MOVWF  FF7
08F5C:  MOVLW  00
08F5E:  MOVWF  FF8
08F60:  CALL   3C02
....................             SendDataDisplay();  
08F64:  CALL   3C34
....................          }else{ 
08F68:  BRA    8F7E
....................             printf("b10.bco=63488"); 
08F6A:  MOVLW  7A
08F6C:  MOVWF  FF6
08F6E:  MOVLW  0C
08F70:  MOVWF  FF7
08F72:  MOVLW  00
08F74:  MOVWF  FF8
08F76:  CALL   3C02
....................             SendDataDisplay();  
08F7A:  CALL   3C34
....................          } 
....................           
....................          if(PRES){ 
08F7E:  BSF    F92.4
08F80:  BTFSC  F80.4
08F82:  BRA    8F9A
....................             printf("b11.bco=2016"); 
08F84:  MOVLW  88
08F86:  MOVWF  FF6
08F88:  MOVLW  0C
08F8A:  MOVWF  FF7
08F8C:  MOVLW  00
08F8E:  MOVWF  FF8
08F90:  CALL   3C02
....................             SendDataDisplay();  
08F94:  CALL   3C34
....................          }else{ 
08F98:  BRA    8FAE
....................             printf("b11.bco=63488"); 
08F9A:  MOVLW  96
08F9C:  MOVWF  FF6
08F9E:  MOVLW  0C
08FA0:  MOVWF  FF7
08FA2:  MOVLW  00
08FA4:  MOVWF  FF8
08FA6:  CALL   3C02
....................             SendDataDisplay();  
08FAA:  CALL   3C34
....................          } 
....................           
....................          if(RX_Buffer[4]==0x13)//Oprimio Buzzer 
08FAE:  MOVF   3C,W
08FB0:  SUBLW  13
08FB2:  BNZ   8FBA
....................          { 
....................             EstadoBuzzer=!EstadoBuzzer; 
08FB4:  BTG    x8F.7
....................             RX_Buffer[4]=0x00; 
08FB6:  CLRF   3C
....................             RX_Buffer2[4]=0x00; 
08FB8:  CLRF   47
....................          } 
....................           
....................          if(EstadoBuzzer){ 
08FBA:  BTFSS  x8F.7
08FBC:  BRA    8FD8
....................             printf("b12.bco=2016"); 
08FBE:  MOVLW  A4
08FC0:  MOVWF  FF6
08FC2:  MOVLW  0C
08FC4:  MOVWF  FF7
08FC6:  MOVLW  00
08FC8:  MOVWF  FF8
08FCA:  CALL   3C02
....................             SendDataDisplay();  
08FCE:  CALL   3C34
....................             Buzzer_on; 
08FD2:  BSF    F8B.5
08FD4:  BCF    F94.5
....................          } 
08FD6:  BRA    8FF0
....................          else{ 
....................             printf("b12.bco=63488"); 
08FD8:  MOVLW  B2
08FDA:  MOVWF  FF6
08FDC:  MOVLW  0C
08FDE:  MOVWF  FF7
08FE0:  MOVLW  00
08FE2:  MOVWF  FF8
08FE4:  CALL   3C02
....................             SendDataDisplay();  
08FE8:  CALL   3C34
....................             Buzzer_off; 
08FEC:  BCF    F8B.5
08FEE:  BCF    F94.5
....................          } 
....................           
....................          if(LOW){ 
08FF0:  BSF    F93.0
08FF2:  BTFSS  F81.0
08FF4:  BRA    900C
....................             printf("b17.bco=2016"); 
08FF6:  MOVLW  C0
08FF8:  MOVWF  FF6
08FFA:  MOVLW  0C
08FFC:  MOVWF  FF7
08FFE:  MOVLW  00
09000:  MOVWF  FF8
09002:  CALL   3C02
....................             SendDataDisplay();  
09006:  CALL   3C34
....................          }else{ 
0900A:  BRA    9020
....................             printf("b17.bco=63488"); 
0900C:  MOVLW  CE
0900E:  MOVWF  FF6
09010:  MOVLW  0C
09012:  MOVWF  FF7
09014:  MOVLW  00
09016:  MOVWF  FF8
09018:  CALL   3C02
....................             SendDataDisplay();  
0901C:  CALL   3C34
....................          } 
....................           
....................          if(RX_Buffer[4]==0x14)//Oprimio Zero ADC3 
09020:  MOVF   3C,W
09022:  SUBLW  14
09024:  BTFSS  FD8.2
09026:  BRA    9156
....................          { 
....................             G1=41-sensores(2); 
09028:  MOVLW  02
0902A:  MOVLB  6
0902C:  MOVWF  x30
0902E:  MOVLB  0
09030:  CALL   3D88
09034:  MOVFF  FEA,62D
09038:  MOVFF  FE9,62C
0903C:  BSF    FD8.1
0903E:  MOVLB  6
09040:  CLRF   x41
09042:  CLRF   x40
09044:  MOVLW  24
09046:  MOVWF  x3F
09048:  MOVLW  84
0904A:  MOVWF  x3E
0904C:  MOVFF  03,645
09050:  MOVFF  02,644
09054:  MOVFF  01,643
09058:  MOVFF  00,642
0905C:  MOVLB  0
0905E:  CALL   2062
09062:  MOVFF  62D,FEA
09066:  MOVFF  62C,FE9
0906A:  MOVFF  03,641
0906E:  MOVFF  02,640
09072:  MOVFF  01,63F
09076:  MOVFF  00,63E
0907A:  CALL   4CB2
0907E:  MOVFF  01,22C
....................             if(G1<0) 
09082:  MOVLB  2
09084:  BTFSS  x2C.7
09086:  BRA    908E
....................                sg1=10; 
09088:  MOVLW  0A
0908A:  MOVWF  x2E
0908C:  BRA    9092
....................             else 
....................                sg1=5; 
0908E:  MOVLW  05
09090:  MOVWF  x2E
....................                    
....................             write_eeprom(42,(int8)G1); 
09092:  MOVF   FF2,W
09094:  MOVWF  00
09096:  BCF    FF2.7
09098:  CLRF   FAA
0909A:  MOVLW  2A
0909C:  MOVWF  FA9
0909E:  MOVFF  22C,FA8
090A2:  BCF    FA6.6
090A4:  BCF    FA6.7
090A6:  BSF    FA6.2
090A8:  MOVLB  F
090AA:  MOVLW  55
090AC:  MOVWF  FA7
090AE:  MOVLW  AA
090B0:  MOVWF  FA7
090B2:  BSF    FA6.1
090B4:  BTFSC  FA6.1
090B6:  BRA    90B4
090B8:  BCF    FA6.2
090BA:  MOVF   00,W
090BC:  IORWF  FF2,F
....................             delay_ms(10); 
090BE:  MOVLW  0A
090C0:  MOVLB  6
090C2:  MOVWF  x35
090C4:  MOVLB  0
090C6:  CALL   1EDC
....................             write_eeprom(44,(int8)sg1); 
090CA:  MOVF   FF2,W
090CC:  MOVWF  00
090CE:  BCF    FF2.7
090D0:  CLRF   FAA
090D2:  MOVLW  2C
090D4:  MOVWF  FA9
090D6:  MOVFF  22E,FA8
090DA:  BCF    FA6.6
090DC:  BCF    FA6.7
090DE:  BSF    FA6.2
090E0:  MOVLB  F
090E2:  MOVLW  55
090E4:  MOVWF  FA7
090E6:  MOVLW  AA
090E8:  MOVWF  FA7
090EA:  BSF    FA6.1
090EC:  BTFSC  FA6.1
090EE:  BRA    90EC
090F0:  BCF    FA6.2
090F2:  MOVF   00,W
090F4:  IORWF  FF2,F
....................             delay_ms(10); 
090F6:  MOVLW  0A
090F8:  MOVLB  6
090FA:  MOVWF  x35
090FC:  MOVLB  0
090FE:  CALL   1EDC
....................             Buzzer_on; 
09102:  BSF    F8B.5
09104:  BCF    F94.5
....................             delay_ms(1000); 
09106:  MOVLW  04
09108:  MOVLB  6
0910A:  MOVWF  x2C
0910C:  MOVLW  FA
0910E:  MOVWF  x35
09110:  MOVLB  0
09112:  CALL   1EDC
09116:  MOVLB  6
09118:  DECFSZ x2C,F
0911A:  BRA    910C
....................             Buzzer_off; 
0911C:  BCF    F8B.5
0911E:  BCF    F94.5
....................             delay_ms(1000); 
09120:  MOVLW  04
09122:  MOVWF  x2C
09124:  MOVLW  FA
09126:  MOVWF  x35
09128:  MOVLB  0
0912A:  CALL   1EDC
0912E:  MOVLB  6
09130:  DECFSZ x2C,F
09132:  BRA    9124
....................             Buzzer_on; 
09134:  BSF    F8B.5
09136:  BCF    F94.5
....................             delay_ms(1000); 
09138:  MOVLW  04
0913A:  MOVWF  x2C
0913C:  MOVLW  FA
0913E:  MOVWF  x35
09140:  MOVLB  0
09142:  CALL   1EDC
09146:  MOVLB  6
09148:  DECFSZ x2C,F
0914A:  BRA    913C
....................             Buzzer_off; 
0914C:  BCF    F8B.5
0914E:  BCF    F94.5
....................             RX_Buffer[4]=0x00; 
09150:  CLRF   3C
....................             RX_Buffer2[4]=0x00; 
09152:  CLRF   47
09154:  MOVLB  0
....................          } 
....................           
....................          if(RX_Buffer[4]==0x14)//Oprimio Zero ADC3 
09156:  MOVF   3C,W
09158:  SUBLW  14
0915A:  BTFSS  FD8.2
0915C:  BRA    928C
....................          { 
....................             G2=41-sensores(3); 
0915E:  MOVLW  03
09160:  MOVLB  6
09162:  MOVWF  x30
09164:  MOVLB  0
09166:  CALL   3D88
0916A:  MOVFF  FEA,62D
0916E:  MOVFF  FE9,62C
09172:  BSF    FD8.1
09174:  MOVLB  6
09176:  CLRF   x41
09178:  CLRF   x40
0917A:  MOVLW  24
0917C:  MOVWF  x3F
0917E:  MOVLW  84
09180:  MOVWF  x3E
09182:  MOVFF  03,645
09186:  MOVFF  02,644
0918A:  MOVFF  01,643
0918E:  MOVFF  00,642
09192:  MOVLB  0
09194:  CALL   2062
09198:  MOVFF  62D,FEA
0919C:  MOVFF  62C,FE9
091A0:  MOVFF  03,641
091A4:  MOVFF  02,640
091A8:  MOVFF  01,63F
091AC:  MOVFF  00,63E
091B0:  CALL   4CB2
091B4:  MOVFF  01,22D
....................             if(G2<0) 
091B8:  MOVLB  2
091BA:  BTFSS  x2D.7
091BC:  BRA    91C4
....................                sg2=10; 
091BE:  MOVLW  0A
091C0:  MOVWF  x2F
091C2:  BRA    91C8
....................             else 
....................                sg2=5; 
091C4:  MOVLW  05
091C6:  MOVWF  x2F
....................                    
....................             write_eeprom(43,(int8)G2); 
091C8:  MOVF   FF2,W
091CA:  MOVWF  00
091CC:  BCF    FF2.7
091CE:  CLRF   FAA
091D0:  MOVLW  2B
091D2:  MOVWF  FA9
091D4:  MOVFF  22D,FA8
091D8:  BCF    FA6.6
091DA:  BCF    FA6.7
091DC:  BSF    FA6.2
091DE:  MOVLB  F
091E0:  MOVLW  55
091E2:  MOVWF  FA7
091E4:  MOVLW  AA
091E6:  MOVWF  FA7
091E8:  BSF    FA6.1
091EA:  BTFSC  FA6.1
091EC:  BRA    91EA
091EE:  BCF    FA6.2
091F0:  MOVF   00,W
091F2:  IORWF  FF2,F
....................             delay_ms(10); 
091F4:  MOVLW  0A
091F6:  MOVLB  6
091F8:  MOVWF  x35
091FA:  MOVLB  0
091FC:  CALL   1EDC
....................             write_eeprom(45,(int8)sg2); 
09200:  MOVF   FF2,W
09202:  MOVWF  00
09204:  BCF    FF2.7
09206:  CLRF   FAA
09208:  MOVLW  2D
0920A:  MOVWF  FA9
0920C:  MOVFF  22F,FA8
09210:  BCF    FA6.6
09212:  BCF    FA6.7
09214:  BSF    FA6.2
09216:  MOVLB  F
09218:  MOVLW  55
0921A:  MOVWF  FA7
0921C:  MOVLW  AA
0921E:  MOVWF  FA7
09220:  BSF    FA6.1
09222:  BTFSC  FA6.1
09224:  BRA    9222
09226:  BCF    FA6.2
09228:  MOVF   00,W
0922A:  IORWF  FF2,F
....................             delay_ms(10); 
0922C:  MOVLW  0A
0922E:  MOVLB  6
09230:  MOVWF  x35
09232:  MOVLB  0
09234:  CALL   1EDC
....................             Buzzer_on; 
09238:  BSF    F8B.5
0923A:  BCF    F94.5
....................             delay_ms(1000); 
0923C:  MOVLW  04
0923E:  MOVLB  6
09240:  MOVWF  x2C
09242:  MOVLW  FA
09244:  MOVWF  x35
09246:  MOVLB  0
09248:  CALL   1EDC
0924C:  MOVLB  6
0924E:  DECFSZ x2C,F
09250:  BRA    9242
....................             Buzzer_off; 
09252:  BCF    F8B.5
09254:  BCF    F94.5
....................             delay_ms(1000); 
09256:  MOVLW  04
09258:  MOVWF  x2C
0925A:  MOVLW  FA
0925C:  MOVWF  x35
0925E:  MOVLB  0
09260:  CALL   1EDC
09264:  MOVLB  6
09266:  DECFSZ x2C,F
09268:  BRA    925A
....................             Buzzer_on; 
0926A:  BSF    F8B.5
0926C:  BCF    F94.5
....................             delay_ms(1000); 
0926E:  MOVLW  04
09270:  MOVWF  x2C
09272:  MOVLW  FA
09274:  MOVWF  x35
09276:  MOVLB  0
09278:  CALL   1EDC
0927C:  MOVLB  6
0927E:  DECFSZ x2C,F
09280:  BRA    9272
....................             Buzzer_off; 
09282:  BCF    F8B.5
09284:  BCF    F94.5
....................             RX_Buffer[4]=0x00; 
09286:  CLRF   3C
....................             RX_Buffer2[4]=0x00; 
09288:  CLRF   47
0928A:  MOVLB  0
....................          } 
....................                    
....................          printf("b13.txt=\"ADC0:%3.0f\"",sensores(0));          
0928C:  MOVLB  6
0928E:  CLRF   x30
09290:  MOVLB  0
09292:  CALL   3D88
09296:  MOVFF  03,62F
0929A:  MOVFF  02,62E
0929E:  MOVFF  01,62D
092A2:  MOVFF  00,62C
092A6:  MOVLW  DC
092A8:  MOVWF  FF6
092AA:  MOVLW  0C
092AC:  MOVWF  FF7
092AE:  MOVLW  00
092B0:  MOVWF  FF8
092B2:  MOVLW  0E
092B4:  MOVLB  6
092B6:  MOVWF  x31
092B8:  MOVLB  0
092BA:  CALL   4FD6
092BE:  MOVLW  02
092C0:  MOVWF  FE9
092C2:  MOVFF  62F,634
092C6:  MOVFF  62E,633
092CA:  MOVFF  62D,632
092CE:  MOVFF  62C,631
092D2:  MOVLB  6
092D4:  CLRF   x35
092D6:  MOVLB  0
092D8:  CALL   52C2
092DC:  MOVLW  22
092DE:  BTFSS  F9E.4
092E0:  BRA    92DE
092E2:  MOVWF  FAD
....................          SendDataDisplay(); 
092E4:  CALL   3C34
....................          printf("b14.txt=\"ADC1:%3.0f\"",sensores(1));          
092E8:  MOVLW  01
092EA:  MOVLB  6
092EC:  MOVWF  x30
092EE:  MOVLB  0
092F0:  CALL   3D88
092F4:  MOVFF  03,62F
092F8:  MOVFF  02,62E
092FC:  MOVFF  01,62D
09300:  MOVFF  00,62C
09304:  MOVLW  F2
09306:  MOVWF  FF6
09308:  MOVLW  0C
0930A:  MOVWF  FF7
0930C:  MOVLW  00
0930E:  MOVWF  FF8
09310:  MOVLW  0E
09312:  MOVLB  6
09314:  MOVWF  x31
09316:  MOVLB  0
09318:  CALL   4FD6
0931C:  MOVLW  02
0931E:  MOVWF  FE9
09320:  MOVFF  62F,634
09324:  MOVFF  62E,633
09328:  MOVFF  62D,632
0932C:  MOVFF  62C,631
09330:  MOVLB  6
09332:  CLRF   x35
09334:  MOVLB  0
09336:  CALL   52C2
0933A:  MOVLW  22
0933C:  BTFSS  F9E.4
0933E:  BRA    933C
09340:  MOVWF  FAD
....................          SendDataDisplay(); 
09342:  CALL   3C34
....................          printf("b15.txt=\"A2:%3.0f %03Lu\"",sensores(2),PresionCamara); 
09346:  MOVLW  02
09348:  MOVLB  6
0934A:  MOVWF  x30
0934C:  MOVLB  0
0934E:  CALL   3D88
09352:  MOVFF  03,62F
09356:  MOVFF  02,62E
0935A:  MOVFF  01,62D
0935E:  MOVFF  00,62C
09362:  MOVLW  08
09364:  MOVWF  FF6
09366:  MOVLW  0D
09368:  MOVWF  FF7
0936A:  MOVLW  00
0936C:  MOVWF  FF8
0936E:  MOVLW  0C
09370:  MOVLB  6
09372:  MOVWF  x31
09374:  MOVLB  0
09376:  CALL   4FD6
0937A:  MOVLW  02
0937C:  MOVWF  FE9
0937E:  MOVFF  62F,634
09382:  MOVFF  62E,633
09386:  MOVFF  62D,632
0938A:  MOVFF  62C,631
0938E:  MOVLB  6
09390:  CLRF   x35
09392:  MOVLB  0
09394:  CALL   52C2
09398:  MOVLW  20
0939A:  BTFSS  F9E.4
0939C:  BRA    939A
0939E:  MOVWF  FAD
093A0:  MOVLW  0A
093A2:  MOVWF  FE9
093A4:  MOVFF  1F4,631
093A8:  MOVFF  1F3,630
093AC:  CALL   5136
093B0:  MOVLW  22
093B2:  BTFSS  F9E.4
093B4:  BRA    93B2
093B6:  MOVWF  FAD
....................          SendDataDisplay(); 
093B8:  CALL   3C34
....................          printf("b18.txt=\"A3:%3.0f %03Lu\"",sensores(3),PresionPreCamara); 
093BC:  MOVLW  03
093BE:  MOVLB  6
093C0:  MOVWF  x30
093C2:  MOVLB  0
093C4:  CALL   3D88
093C8:  MOVFF  03,62F
093CC:  MOVFF  02,62E
093D0:  MOVFF  01,62D
093D4:  MOVFF  00,62C
093D8:  MOVLW  22
093DA:  MOVWF  FF6
093DC:  MOVLW  0D
093DE:  MOVWF  FF7
093E0:  MOVLW  00
093E2:  MOVWF  FF8
093E4:  MOVLW  0C
093E6:  MOVLB  6
093E8:  MOVWF  x31
093EA:  MOVLB  0
093EC:  CALL   4FD6
093F0:  MOVLW  02
093F2:  MOVWF  FE9
093F4:  MOVFF  62F,634
093F8:  MOVFF  62E,633
093FC:  MOVFF  62D,632
09400:  MOVFF  62C,631
09404:  MOVLB  6
09406:  CLRF   x35
09408:  MOVLB  0
0940A:  CALL   52C2
0940E:  MOVLW  20
09410:  BTFSS  F9E.4
09412:  BRA    9410
09414:  MOVWF  FAD
09416:  MOVLW  0A
09418:  MOVWF  FE9
0941A:  MOVFF  1F6,631
0941E:  MOVFF  1F5,630
09422:  CALL   5136
09426:  MOVLW  22
09428:  BTFSS  F9E.4
0942A:  BRA    9428
0942C:  MOVWF  FAD
....................          SendDataDisplay(); 
0942E:  CALL   3C34
....................          printf("b19.txt=\"T2:%3.1f\"",Temperatura2); 
09432:  MOVLW  3C
09434:  MOVWF  FF6
09436:  MOVLW  0D
09438:  MOVWF  FF7
0943A:  MOVLW  00
0943C:  MOVWF  FF8
0943E:  MOVLW  0C
09440:  MOVLB  6
09442:  MOVWF  x31
09444:  MOVLB  0
09446:  CALL   4FD6
0944A:  MOVLW  02
0944C:  MOVWF  FE9
0944E:  MOVFF  1C2,634
09452:  MOVFF  1C1,633
09456:  MOVFF  1C0,632
0945A:  MOVFF  1BF,631
0945E:  MOVLW  01
09460:  MOVLB  6
09462:  MOVWF  x35
09464:  MOVLB  0
09466:  CALL   52C2
0946A:  MOVLW  22
0946C:  BTFSS  F9E.4
0946E:  BRA    946C
09470:  MOVWF  FAD
....................          SendDataDisplay(); 
09472:  CALL   3C34
....................          printf("b20.txt=\"T1:%3.1f\"",Temperatura); 
09476:  MOVLW  50
09478:  MOVWF  FF6
0947A:  MOVLW  0D
0947C:  MOVWF  FF7
0947E:  MOVLW  00
09480:  MOVWF  FF8
09482:  MOVLW  0C
09484:  MOVLB  6
09486:  MOVWF  x31
09488:  MOVLB  0
0948A:  CALL   4FD6
0948E:  MOVLW  02
09490:  MOVWF  FE9
09492:  MOVFF  1BE,634
09496:  MOVFF  1BD,633
0949A:  MOVFF  1BC,632
0949E:  MOVFF  1BB,631
094A2:  MOVLW  01
094A4:  MOVLB  6
094A6:  MOVWF  x35
094A8:  MOVLB  0
094AA:  CALL   52C2
094AE:  MOVLW  22
094B0:  BTFSS  F9E.4
094B2:  BRA    94B0
094B4:  MOVWF  FAD
....................          SendDataDisplay(); 
094B6:  CALL   3C34
....................           
....................          if(RX_Buffer[4]==0x21)//Oprimio salir 
094BA:  MOVF   3C,W
094BC:  SUBLW  21
094BE:  BNZ   94E0
....................          { 
....................             printf("page Menu"); 
094C0:  MOVLW  64
094C2:  MOVWF  FF6
094C4:  MOVLW  0D
094C6:  MOVWF  FF7
094C8:  MOVLW  00
094CA:  MOVWF  FF8
094CC:  CALL   3C02
....................             SendDataDisplay(); 
094D0:  CALL   3C34
....................             PantallaPrincipal=0; 
094D4:  MOVLB  1
094D6:  CLRF   x7C
....................             PruebaEstados=OFF; 
094D8:  MOVLB  0
094DA:  BCF    x8E.4
....................             ApagaSalidas(); 
094DC:  CALL   3C6A
094E0:  MOVLB  1
....................             // Falta apagar Todo 
....................          } 
....................      } 
.................... //_--------------------------------------------------------------------------------------------------------------------------------------------------------     
....................  
.................... //_--------------------------------------------------------------------------------------------------------------------------------------------------------       
....................     if(Menu==7){ //Menu de Configuracin de Fecha y Hora 
094E2:  MOVF   xD7,W
094E4:  SUBLW  07
094E6:  BTFSS  FD8.2
094E8:  BRA    98CC
....................        
....................          if(RX_Buffer[4]==0x0a)//Selecciono Hora 
094EA:  MOVF   3C,W
094EC:  SUBLW  0A
094EE:  BNZ   94F4
....................             Opcion=4; 
094F0:  MOVLW  04
094F2:  MOVWF  xE2
....................           
....................          if(RX_Buffer[4]==0x0b)//Selecciono Minuto 
094F4:  MOVF   3C,W
094F6:  SUBLW  0B
094F8:  BNZ   94FE
....................             Opcion=5; 
094FA:  MOVLW  05
094FC:  MOVWF  xE2
....................           
....................          if(RX_Buffer[4]==0x0c)//Selecciono Dia 
094FE:  MOVF   3C,W
09500:  SUBLW  0C
09502:  BNZ   9508
....................             Opcion=1; 
09504:  MOVLW  01
09506:  MOVWF  xE2
....................           
....................          if(RX_Buffer[4]==0x0d)//Selecciono Hora 
09508:  MOVF   3C,W
0950A:  SUBLW  0D
0950C:  BNZ   9512
....................             Opcion=2; 
0950E:  MOVLW  02
09510:  MOVWF  xE2
....................           
....................          if(RX_Buffer[4]==0x0e)//Selecciono Year 
09512:  MOVF   3C,W
09514:  SUBLW  0E
09516:  BNZ   951C
....................             Opcion=3; 
09518:  MOVLW  03
0951A:  MOVWF  xE2
....................           
....................          if(Opcion>5) 
0951C:  MOVF   xE2,W
0951E:  SUBLW  05
09520:  BC    9526
....................             Opcion=1; 
09522:  MOVLW  01
09524:  MOVWF  xE2
....................          if(Opcion<1) 
09526:  MOVF   xE2,F
09528:  BNZ   952E
....................             Opcion=5; 
0952A:  MOVLW  05
0952C:  MOVWF  xE2
....................              
....................          if(RX_Buffer[4]==0x11){//Selecciono Regresar 
0952E:  MOVF   3C,W
09530:  SUBLW  11
09532:  BTFSS  FD8.2
09534:  BRA    9648
....................             printf("page Menu"); 
09536:  MOVLW  6E
09538:  MOVWF  FF6
0953A:  MOVLW  0D
0953C:  MOVWF  FF7
0953E:  MOVLW  00
09540:  MOVWF  FF8
09542:  MOVLB  0
09544:  CALL   3C02
....................             SendDataDisplay();   
09548:  CALL   3C34
....................             PantallaPrincipal=0; 
0954C:  MOVLB  1
0954E:  CLRF   x7C
....................             Op=OFF; 
09550:  MOVLB  0
09552:  BCF    x8F.0
....................             Op2=OFF; 
09554:  BCF    x8F.1
....................              
....................             if(esBisiesto(YearTx)) 
09556:  MOVFF  21E,62C
0955A:  CALL   54A8
0955E:  MOVF   01,F
09560:  BZ    957A
....................                Modulo=Bisiesto[MesTx]; 
09562:  CLRF   03
09564:  MOVLB  2
09566:  MOVF   x1F,W
09568:  ADDLW  7E
0956A:  MOVWF  FE9
0956C:  MOVLW  00
0956E:  ADDWFC 03,W
09570:  MOVWF  FEA
09572:  MOVFF  FEF,17E
09576:  BRA    958E
09578:  MOVLB  0
....................             else 
....................                Modulo=Regular[MesTx]; 
0957A:  CLRF   03
0957C:  MOVLB  2
0957E:  MOVF   x1F,W
09580:  ADDLW  72
09582:  MOVWF  FE9
09584:  MOVLW  00
09586:  ADDWFC 03,W
09588:  MOVWF  FEA
0958A:  MOVFF  FEF,17E
....................           
....................             dowTx=((YearTx-1)%7+((YearTx-1)/4-3*((YearTx-1)/100+1)/4)%7+Modulo+DiaTx%7)%7; 
0958E:  MOVLW  01
09590:  SUBWF  x1E,W
09592:  MOVLB  6
09594:  MOVWF  x2D
09596:  MOVWF  x35
09598:  MOVLW  07
0959A:  MOVWF  x36
0959C:  MOVLB  0
0959E:  CALL   502E
095A2:  MOVFF  00,62C
095A6:  MOVLW  01
095A8:  MOVLB  2
095AA:  SUBWF  x1E,W
095AC:  MOVWF  00
095AE:  RRCF   00,W
095B0:  MOVLB  6
095B2:  MOVWF  x2D
095B4:  RRCF   x2D,F
095B6:  MOVLW  3F
095B8:  ANDWF  x2D,F
095BA:  MOVLW  01
095BC:  MOVLB  2
095BE:  SUBWF  x1E,W
095C0:  MOVLB  6
095C2:  MOVWF  x2F
095C4:  MOVWF  x35
095C6:  MOVLW  64
095C8:  MOVWF  x36
095CA:  MOVLB  0
095CC:  CALL   502E
095D0:  MOVLW  01
095D2:  ADDWF  01,W
095D4:  MULLW  03
095D6:  MOVFF  FF3,00
095DA:  RRCF   00,F
095DC:  RRCF   00,F
095DE:  MOVLW  3F
095E0:  ANDWF  00,F
095E2:  MOVF   00,W
095E4:  MOVLB  6
095E6:  SUBWF  x2D,W
095E8:  MOVWF  x2E
095EA:  MOVWF  x35
095EC:  MOVLW  07
095EE:  MOVWF  x36
095F0:  MOVLB  0
095F2:  CALL   502E
095F6:  MOVF   00,W
095F8:  MOVLB  6
095FA:  ADDWF  x2C,W
095FC:  MOVLB  1
095FE:  ADDWF  x7E,W
09600:  MOVLB  6
09602:  MOVWF  x2C
09604:  MOVFF  220,635
09608:  MOVLW  07
0960A:  MOVWF  x36
0960C:  MOVLB  0
0960E:  CALL   502E
09612:  MOVF   00,W
09614:  MOVLB  6
09616:  ADDWF  x2C,W
09618:  MOVWF  x2D
0961A:  MOVWF  x35
0961C:  MOVLW  07
0961E:  MOVWF  x36
09620:  MOVLB  0
09622:  CALL   502E
09626:  MOVFF  00,224
....................             rtc_set_datetime(DiaTx,MesTx,YearTx,dowTx,HoraTx,MinutoTx); 
0962A:  MOVFF  220,62C
0962E:  MOVFF  21F,62D
09632:  MOVFF  21E,62E
09636:  MOVFF  224,62F
0963A:  MOVFF  221,630
0963E:  MOVFF  222,631
09642:  GOTO   552A
09646:  MOVLB  1
....................          } 
....................           
....................          if(RX_Buffer[4]==0x2a){//Tecla Arriba Oprimida 
09648:  MOVF   3C,W
0964A:  SUBLW  2A
0964C:  BTFSS  FD8.2
0964E:  BRA    9748
....................                if(Opcion==1){ 
09650:  DECFSZ xE2,W
09652:  BRA    96E4
....................                   if(MesTx==2){ 
09654:  MOVLB  2
09656:  MOVF   x1F,W
09658:  SUBLW  02
0965A:  BNZ   9690
....................                      if(esBisiesto(YearTx)){ 
0965C:  MOVFF  21E,62C
09660:  MOVLB  0
09662:  CALL   54A8
09666:  MOVF   01,F
09668:  BZ    967E
....................                         if(DiaTx<29) 
0966A:  MOVLB  2
0966C:  MOVF   x20,W
0966E:  SUBLW  1C
09670:  BNC   9676
....................                            DiaTx++; 
09672:  INCF   x20,F
09674:  BRA    967A
....................                         else 
....................                            DiaTx=1;    
09676:  MOVLW  01
09678:  MOVWF  x20
....................                      }else{ 
0967A:  BRA    968E
0967C:  MOVLB  0
....................                         if(DiaTx<28) 
0967E:  MOVLB  2
09680:  MOVF   x20,W
09682:  SUBLW  1B
09684:  BNC   968A
....................                            DiaTx++; 
09686:  INCF   x20,F
09688:  BRA    968E
....................                         else 
....................                            DiaTx=1;    
0968A:  MOVLW  01
0968C:  MOVWF  x20
....................                      } 
....................                   }else{ 
0968E:  BRA    96E0
....................                      if(MesTx<=7){ 
09690:  MOVF   x1F,W
09692:  SUBLW  07
09694:  BNC   96BC
....................                         if(MesTx % 2 ==0){ 
09696:  MOVF   x1F,W
09698:  ANDLW  01
0969A:  BNZ   96AC
....................                            if(DiaTx<30) 
0969C:  MOVF   x20,W
0969E:  SUBLW  1D
096A0:  BNC   96A6
....................                               DiaTx++;     
096A2:  INCF   x20,F
096A4:  BRA    96AA
....................                            else 
....................                               DiaTx=1;    
096A6:  MOVLW  01
096A8:  MOVWF  x20
....................                         }else{ 
096AA:  BRA    96BA
....................                            if(DiaTx<31) 
096AC:  MOVF   x20,W
096AE:  SUBLW  1E
096B0:  BNC   96B6
....................                               DiaTx++;     
096B2:  INCF   x20,F
096B4:  BRA    96BA
....................                            else 
....................                               DiaTx=1;    
096B6:  MOVLW  01
096B8:  MOVWF  x20
....................                         }     
....................                      }else{ 
096BA:  BRA    96E0
....................                         if(MesTx % 2 ==0){ 
096BC:  MOVF   x1F,W
096BE:  ANDLW  01
096C0:  BNZ   96D2
....................                            if(DiaTx<31) 
096C2:  MOVF   x20,W
096C4:  SUBLW  1E
096C6:  BNC   96CC
....................                               DiaTx++;   
096C8:  INCF   x20,F
096CA:  BRA    96D0
....................                            else 
....................                               DiaTx=1; 
096CC:  MOVLW  01
096CE:  MOVWF  x20
....................                         }else{ 
096D0:  BRA    96E0
....................                            if(DiaTx<30) 
096D2:  MOVF   x20,W
096D4:  SUBLW  1D
096D6:  BNC   96DC
....................                               DiaTx++;     
096D8:  INCF   x20,F
096DA:  BRA    96E0
....................                            else 
....................                               DiaTx=1; 
096DC:  MOVLW  01
096DE:  MOVWF  x20
....................                         }     
....................                      } 
....................                   } 
....................                }else if(Opcion==2){ 
096E0:  BRA    9742
096E2:  MOVLB  1
096E4:  MOVF   xE2,W
096E6:  SUBLW  02
096E8:  BNZ   96FE
....................                   if(MesTx<12) 
096EA:  MOVLB  2
096EC:  MOVF   x1F,W
096EE:  SUBLW  0B
096F0:  BNC   96F6
....................                      MesTx++; 
096F2:  INCF   x1F,F
096F4:  BRA    96FA
....................                   else 
....................                      MesTx=1; 
096F6:  MOVLW  01
096F8:  MOVWF  x1F
....................                }else if(Opcion==3){ 
096FA:  BRA    9742
096FC:  MOVLB  1
096FE:  MOVF   xE2,W
09700:  SUBLW  03
09702:  BNZ   9716
....................                   if(YearTx<99) 
09704:  MOVLB  2
09706:  MOVF   x1E,W
09708:  SUBLW  62
0970A:  BNC   9710
....................                      YearTx++; 
0970C:  INCF   x1E,F
0970E:  BRA    9712
....................                   else  
....................                      YearTx=0; 
09710:  CLRF   x1E
....................                }else if(Opcion==4){ 
09712:  BRA    9742
09714:  MOVLB  1
09716:  MOVF   xE2,W
09718:  SUBLW  04
0971A:  BNZ   972E
....................                   if(HoraTx<24) 
0971C:  MOVLB  2
0971E:  MOVF   x21,W
09720:  SUBLW  17
09722:  BNC   9728
....................                      HoraTx++; 
09724:  INCF   x21,F
09726:  BRA    972A
....................                   else 
....................                      HoraTx=0; 
09728:  CLRF   x21
....................                }else if(Opcion==5){ 
0972A:  BRA    9742
0972C:  MOVLB  1
0972E:  MOVF   xE2,W
09730:  SUBLW  05
09732:  BNZ   9744
....................                   if(MinutoTx<59) 
09734:  MOVLB  2
09736:  MOVF   x22,W
09738:  SUBLW  3A
0973A:  BNC   9740
....................                      MinutoTx++; 
0973C:  INCF   x22,F
0973E:  BRA    9742
....................                   else 
....................                      MinutoTx=0; 
09740:  CLRF   x22
09742:  MOVLB  1
....................                } 
....................                RX_Buffer[4]=0x00; 
09744:  CLRF   3C
....................                RX_Buffer2[4]=0x00; 
09746:  CLRF   47
....................          } 
....................           
....................          if(RX_Buffer[4]==0x2b){//Tecla Abajo Oprimida  
09748:  MOVF   3C,W
0974A:  SUBLW  2B
0974C:  BNZ   97C2
....................                if(Opcion==1){ 
0974E:  DECFSZ xE2,W
09750:  BRA    975E
....................                   if(DiaTx>0) 
09752:  MOVLB  2
09754:  MOVF   x20,F
09756:  BZ    975A
....................                      DiaTx--; 
09758:  DECF   x20,F
....................                }else if(Opcion==2){ 
0975A:  BRA    97BC
0975C:  MOVLB  1
0975E:  MOVF   xE2,W
09760:  SUBLW  02
09762:  BNZ   9778
....................                   if(MesTx>1) 
09764:  MOVLB  2
09766:  MOVF   x1F,W
09768:  SUBLW  01
0976A:  BC    9770
....................                      MesTx--; 
0976C:  DECF   x1F,F
0976E:  BRA    9774
....................                   else 
....................                      MesTx=12; 
09770:  MOVLW  0C
09772:  MOVWF  x1F
....................                }else if(Opcion==3){ 
09774:  BRA    97BC
09776:  MOVLB  1
09778:  MOVF   xE2,W
0977A:  SUBLW  03
0977C:  BNZ   9790
....................                   if(YearTx>0) 
0977E:  MOVLB  2
09780:  MOVF   x1E,F
09782:  BZ    9788
....................                      YearTx--; 
09784:  DECF   x1E,F
09786:  BRA    978C
....................                   else 
....................                      YearTx=99; 
09788:  MOVLW  63
0978A:  MOVWF  x1E
....................                }else if(Opcion==4){ 
0978C:  BRA    97BC
0978E:  MOVLB  1
09790:  MOVF   xE2,W
09792:  SUBLW  04
09794:  BNZ   97A8
....................                   if(HoraTx>0) 
09796:  MOVLB  2
09798:  MOVF   x21,F
0979A:  BZ    97A0
....................                      HoraTx--; 
0979C:  DECF   x21,F
0979E:  BRA    97A4
....................                   else 
....................                      HoraTx=23; 
097A0:  MOVLW  17
097A2:  MOVWF  x21
....................                }else if(Opcion==5){ 
097A4:  BRA    97BC
097A6:  MOVLB  1
097A8:  MOVF   xE2,W
097AA:  SUBLW  05
097AC:  BNZ   97BE
....................                   if(MinutoTx>0) 
097AE:  MOVLB  2
097B0:  MOVF   x22,F
097B2:  BZ    97B8
....................                      MinutoTx--; 
097B4:  DECF   x22,F
097B6:  BRA    97BC
....................                   else 
....................                      MinutoTx=59; 
097B8:  MOVLW  3B
097BA:  MOVWF  x22
097BC:  MOVLB  1
....................                } 
....................                RX_Buffer[4]=0x00; 
097BE:  CLRF   3C
....................                RX_Buffer2[4]=0x00; 
097C0:  CLRF   47
....................                //BorraBuffer(); 
....................          } 
....................        
....................       printf("thora.txt=\"%02u\"",HoraTx); 
097C2:  MOVLW  78
097C4:  MOVWF  FF6
097C6:  MOVLW  0D
097C8:  MOVWF  FF7
097CA:  MOVLW  00
097CC:  MOVWF  FF8
097CE:  MOVLW  0B
097D0:  MOVLB  6
097D2:  MOVWF  x31
097D4:  MOVLB  0
097D6:  CALL   4FD6
097DA:  MOVFF  221,631
097DE:  MOVLW  01
097E0:  MOVLB  6
097E2:  MOVWF  x32
097E4:  MOVLB  0
097E6:  CALL   505A
097EA:  MOVLW  22
097EC:  BTFSS  F9E.4
097EE:  BRA    97EC
097F0:  MOVWF  FAD
....................       SendDataDisplay(); 
097F2:  CALL   3C34
....................       printf("tminutos.txt=\"%02u\"",MinutoTx); 
097F6:  MOVLW  8A
097F8:  MOVWF  FF6
097FA:  MOVLW  0D
097FC:  MOVWF  FF7
097FE:  MOVLW  00
09800:  MOVWF  FF8
09802:  MOVLW  0E
09804:  MOVLB  6
09806:  MOVWF  x31
09808:  MOVLB  0
0980A:  CALL   4FD6
0980E:  MOVFF  222,631
09812:  MOVLW  01
09814:  MOVLB  6
09816:  MOVWF  x32
09818:  MOVLB  0
0981A:  CALL   505A
0981E:  MOVLW  22
09820:  BTFSS  F9E.4
09822:  BRA    9820
09824:  MOVWF  FAD
....................       SendDataDisplay(); 
09826:  CALL   3C34
....................       printf("tdia.txt=\"%02u\"",DiaTx); 
0982A:  MOVLW  9E
0982C:  MOVWF  FF6
0982E:  MOVLW  0D
09830:  MOVWF  FF7
09832:  MOVLW  00
09834:  MOVWF  FF8
09836:  MOVLW  0A
09838:  MOVLB  6
0983A:  MOVWF  x31
0983C:  MOVLB  0
0983E:  CALL   4FD6
09842:  MOVFF  220,631
09846:  MOVLW  01
09848:  MOVLB  6
0984A:  MOVWF  x32
0984C:  MOVLB  0
0984E:  CALL   505A
09852:  MOVLW  22
09854:  BTFSS  F9E.4
09856:  BRA    9854
09858:  MOVWF  FAD
....................       SendDataDisplay(); 
0985A:  CALL   3C34
....................       printf("tmes.txt=\"%02u\"",MesTx); 
0985E:  MOVLW  AE
09860:  MOVWF  FF6
09862:  MOVLW  0D
09864:  MOVWF  FF7
09866:  MOVLW  00
09868:  MOVWF  FF8
0986A:  MOVLW  0A
0986C:  MOVLB  6
0986E:  MOVWF  x31
09870:  MOVLB  0
09872:  CALL   4FD6
09876:  MOVFF  21F,631
0987A:  MOVLW  01
0987C:  MOVLB  6
0987E:  MOVWF  x32
09880:  MOVLB  0
09882:  CALL   505A
09886:  MOVLW  22
09888:  BTFSS  F9E.4
0988A:  BRA    9888
0988C:  MOVWF  FAD
....................       SendDataDisplay(); 
0988E:  CALL   3C34
....................       printf("tyear.txt=\"%02u\"",YearTx); 
09892:  MOVLW  BE
09894:  MOVWF  FF6
09896:  MOVLW  0D
09898:  MOVWF  FF7
0989A:  MOVLW  00
0989C:  MOVWF  FF8
0989E:  MOVLW  0B
098A0:  MOVLB  6
098A2:  MOVWF  x31
098A4:  MOVLB  0
098A6:  CALL   4FD6
098AA:  MOVFF  21E,631
098AE:  MOVLW  01
098B0:  MOVLB  6
098B2:  MOVWF  x32
098B4:  MOVLB  0
098B6:  CALL   505A
098BA:  MOVLW  22
098BC:  BTFSS  F9E.4
098BE:  BRA    98BC
098C0:  MOVWF  FAD
....................       SendDataDisplay(); 
098C2:  CALL   3C34
....................       LimitaDia();   
098C6:  GOTO   55E6
098CA:  MOVLB  1
....................     } 
.................... //_--------------------------------------------------------------------------------------------------------------------------------------------------------        
....................  
.................... //_-------------------------------------------------------------------------------------------------------------------------------------------------------- 
....................    if(Menu==8){ //Menu Ciclos Personalizados 
098CC:  MOVF   xD7,W
098CE:  SUBLW  08
098D0:  BTFSS  FD8.2
098D2:  GOTO   A6AA
....................       printf("fecha.txt=\"Fecha:%02u/%02u/20%02u    Hora: %02u:%02u:%02u\"",Dia,Mes,Year,Hora,Minuto,Segundo); 
098D6:  MOVLW  D0
098D8:  MOVWF  FF6
098DA:  MOVLW  0D
098DC:  MOVWF  FF7
098DE:  MOVLW  00
098E0:  MOVWF  FF8
098E2:  MOVLW  11
098E4:  MOVLB  6
098E6:  MOVWF  x31
098E8:  MOVLB  0
098EA:  CALL   4FD6
098EE:  MOVFF  213,631
098F2:  MOVLW  01
098F4:  MOVLB  6
098F6:  MOVWF  x32
098F8:  MOVLB  0
098FA:  CALL   505A
098FE:  MOVLW  2F
09900:  BTFSS  F9E.4
09902:  BRA    9900
09904:  MOVWF  FAD
09906:  MOVFF  212,631
0990A:  MOVLW  01
0990C:  MOVLB  6
0990E:  MOVWF  x32
09910:  MOVLB  0
09912:  CALL   505A
09916:  MOVLW  EA
09918:  MOVWF  FF6
0991A:  MOVLW  0D
0991C:  MOVWF  FF7
0991E:  MOVLW  00
09920:  MOVWF  FF8
09922:  MOVLW  03
09924:  MOVLB  6
09926:  MOVWF  x31
09928:  MOVLB  0
0992A:  CALL   4FD6
0992E:  MOVFF  211,631
09932:  MOVLW  01
09934:  MOVLB  6
09936:  MOVWF  x32
09938:  MOVLB  0
0993A:  CALL   505A
0993E:  MOVLW  F1
09940:  MOVWF  FF6
09942:  MOVLW  0D
09944:  MOVWF  FF7
09946:  MOVLW  00
09948:  MOVWF  FF8
0994A:  MOVLW  0A
0994C:  MOVLB  6
0994E:  MOVWF  x31
09950:  MOVLB  0
09952:  CALL   4FD6
09956:  MOVFF  214,631
0995A:  MOVLW  01
0995C:  MOVLB  6
0995E:  MOVWF  x32
09960:  MOVLB  0
09962:  CALL   505A
09966:  MOVLW  3A
09968:  BTFSS  F9E.4
0996A:  BRA    9968
0996C:  MOVWF  FAD
0996E:  MOVFF  215,631
09972:  MOVLW  01
09974:  MOVLB  6
09976:  MOVWF  x32
09978:  MOVLB  0
0997A:  CALL   505A
0997E:  MOVLW  3A
09980:  BTFSS  F9E.4
09982:  BRA    9980
09984:  MOVWF  FAD
09986:  MOVFF  216,631
0998A:  MOVLW  01
0998C:  MOVLB  6
0998E:  MOVWF  x32
09990:  MOVLB  0
09992:  CALL   505A
09996:  MOVLW  22
09998:  BTFSS  F9E.4
0999A:  BRA    9998
0999C:  MOVWF  FAD
....................       SendDataDisplay(); 
0999E:  CALL   3C34
....................       GuardaEEPROM=OFF; 
099A2:  BCF    x8F.4
....................       printf("tuser.txt=\"%s\"",usuario); 
099A4:  MOVLW  0C
099A6:  MOVWF  FF6
099A8:  MOVLW  0E
099AA:  MOVWF  FF7
099AC:  MOVLW  00
099AE:  MOVWF  FF8
099B0:  MOVLW  0B
099B2:  MOVLB  6
099B4:  MOVWF  x31
099B6:  MOVLB  0
099B8:  CALL   4FD6
099BC:  MOVLW  02
099BE:  MOVWF  FEA
099C0:  MOVLW  30
099C2:  MOVWF  FE9
099C4:  CALL   5008
099C8:  MOVLW  22
099CA:  BTFSS  F9E.4
099CC:  BRA    99CA
099CE:  MOVWF  FAD
....................       SendDataDisplay(); 
099D0:  CALL   3C34
....................        
....................       if(RX_Buffer[4]>0x00 && RX_Buffer[4]<0x15 && estados[RX_Buffer[4]-1]){//Personalizados 
099D4:  MOVF   3C,F
099D6:  BTFSC  FD8.2
099D8:  BRA    9CA0
099DA:  MOVF   3C,W
099DC:  SUBLW  14
099DE:  BTFSS  FD8.0
099E0:  BRA    9CA0
099E2:  MOVLW  01
099E4:  SUBWF  3C,W
099E6:  MOVLB  6
099E8:  MOVWF  x2D
099EA:  MOVLW  02
099EC:  MOVWF  x2F
099EE:  MOVLW  96
099F0:  MOVWF  x2E
099F2:  MOVLB  0
099F4:  CALL   231C
099F8:  BTFSS  01.0
099FA:  BRA    9CA0
....................          printf("ciclo.txt=\"CICLO P%02u\"",RX_Buffer[4]+0x0a); 
099FC:  MOVLW  0A
099FE:  ADDWF  3C,W
09A00:  MOVLB  6
09A02:  MOVWF  x2C
09A04:  MOVLW  1C
09A06:  MOVWF  FF6
09A08:  MOVLW  0E
09A0A:  MOVWF  FF7
09A0C:  MOVLW  00
09A0E:  MOVWF  FF8
09A10:  MOVLW  12
09A12:  MOVWF  x31
09A14:  MOVLB  0
09A16:  CALL   4FD6
09A1A:  MOVFF  62C,631
09A1E:  MOVLW  01
09A20:  MOVLB  6
09A22:  MOVWF  x32
09A24:  MOVLB  0
09A26:  CALL   505A
09A2A:  MOVLW  22
09A2C:  BTFSS  F9E.4
09A2E:  BRA    9A2C
09A30:  MOVWF  FAD
....................          SendDataDisplay();           
09A32:  CALL   3C34
....................          printf("temp.txt=\"%u\"",CiclosPersonalizados[RX_Buffer[4]-1].Temperatura); 
09A36:  MOVLW  01
09A38:  SUBWF  3C,W
09A3A:  MULLW  08
09A3C:  MOVF   FF3,W
09A3E:  MOVLB  6
09A40:  CLRF   x2D
09A42:  MOVWF  x2C
09A44:  MOVLW  62
09A46:  ADDWF  x2C,W
09A48:  MOVWF  FE9
09A4A:  MOVLW  05
09A4C:  ADDWFC x2D,W
09A4E:  MOVWF  FEA
09A50:  MOVFF  FEF,62E
09A54:  MOVLW  34
09A56:  MOVWF  FF6
09A58:  MOVLW  0E
09A5A:  MOVWF  FF7
09A5C:  MOVLW  00
09A5E:  MOVWF  FF8
09A60:  MOVLW  0A
09A62:  MOVWF  x31
09A64:  MOVLB  0
09A66:  CALL   4FD6
09A6A:  MOVFF  62E,631
09A6E:  MOVLW  1B
09A70:  MOVLB  6
09A72:  MOVWF  x32
09A74:  MOVLB  0
09A76:  CALL   505A
09A7A:  MOVLW  22
09A7C:  BTFSS  F9E.4
09A7E:  BRA    9A7C
09A80:  MOVWF  FAD
....................          SendDataDisplay(); 
09A82:  CALL   3C34
....................          printf("test.txt=\"%02u:%02u\"",CiclosPersonalizados[RX_Buffer[4]-1].Minutoest,CiclosPersonalizados[RX_Buffer[4]-1].Segundoest); 
09A86:  MOVLW  01
09A88:  SUBWF  3C,W
09A8A:  MULLW  08
09A8C:  MOVF   FF3,W
09A8E:  MOVLB  6
09A90:  CLRF   x2D
09A92:  MOVWF  x2C
09A94:  MOVLW  01
09A96:  ADDWF  x2C,W
09A98:  MOVWF  01
09A9A:  MOVLW  00
09A9C:  ADDWFC x2D,W
09A9E:  MOVWF  03
09AA0:  MOVF   01,W
09AA2:  ADDLW  62
09AA4:  MOVWF  FE9
09AA6:  MOVLW  05
09AA8:  ADDWFC 03,W
09AAA:  MOVWF  FEA
09AAC:  MOVFF  FEF,62C
09AB0:  MOVLW  01
09AB2:  SUBWF  3C,W
09AB4:  MULLW  08
09AB6:  MOVF   FF3,W
09AB8:  CLRF   x2E
09ABA:  MOVWF  x2D
09ABC:  MOVLW  02
09ABE:  ADDWF  x2D,W
09AC0:  MOVWF  01
09AC2:  MOVLW  00
09AC4:  ADDWFC x2E,W
09AC6:  MOVWF  03
09AC8:  MOVF   01,W
09ACA:  ADDLW  62
09ACC:  MOVWF  FE9
09ACE:  MOVLW  05
09AD0:  ADDWFC 03,W
09AD2:  MOVWF  FEA
09AD4:  MOVFF  FEF,62D
09AD8:  MOVLW  42
09ADA:  MOVWF  FF6
09ADC:  MOVLW  0E
09ADE:  MOVWF  FF7
09AE0:  MOVLW  00
09AE2:  MOVWF  FF8
09AE4:  MOVLW  0A
09AE6:  MOVWF  x31
09AE8:  MOVLB  0
09AEA:  CALL   4FD6
09AEE:  MOVFF  62C,631
09AF2:  MOVLW  01
09AF4:  MOVLB  6
09AF6:  MOVWF  x32
09AF8:  MOVLB  0
09AFA:  CALL   505A
09AFE:  MOVLW  3A
09B00:  BTFSS  F9E.4
09B02:  BRA    9B00
09B04:  MOVWF  FAD
09B06:  MOVFF  62D,631
09B0A:  MOVLW  01
09B0C:  MOVLB  6
09B0E:  MOVWF  x32
09B10:  MOVLB  0
09B12:  CALL   505A
09B16:  MOVLW  22
09B18:  BTFSS  F9E.4
09B1A:  BRA    9B18
09B1C:  MOVWF  FAD
....................          SendDataDisplay(); 
09B1E:  CALL   3C34
....................          printf("tsec.txt=\"%02u:%02u\"",CiclosPersonalizados[RX_Buffer[4]-1].Minutosec,CiclosPersonalizados[RX_Buffer[4]-1].Segundosec); 
09B22:  MOVLW  01
09B24:  SUBWF  3C,W
09B26:  MULLW  08
09B28:  MOVF   FF3,W
09B2A:  MOVLB  6
09B2C:  CLRF   x2D
09B2E:  MOVWF  x2C
09B30:  MOVLW  03
09B32:  ADDWF  x2C,W
09B34:  MOVWF  01
09B36:  MOVLW  00
09B38:  ADDWFC x2D,W
09B3A:  MOVWF  03
09B3C:  MOVF   01,W
09B3E:  ADDLW  62
09B40:  MOVWF  FE9
09B42:  MOVLW  05
09B44:  ADDWFC 03,W
09B46:  MOVWF  FEA
09B48:  MOVFF  FEF,62C
09B4C:  MOVLW  01
09B4E:  SUBWF  3C,W
09B50:  MULLW  08
09B52:  MOVF   FF3,W
09B54:  CLRF   x2E
09B56:  MOVWF  x2D
09B58:  MOVLW  04
09B5A:  ADDWF  x2D,W
09B5C:  MOVWF  01
09B5E:  MOVLW  00
09B60:  ADDWFC x2E,W
09B62:  MOVWF  03
09B64:  MOVF   01,W
09B66:  ADDLW  62
09B68:  MOVWF  FE9
09B6A:  MOVLW  05
09B6C:  ADDWFC 03,W
09B6E:  MOVWF  FEA
09B70:  MOVFF  FEF,62D
09B74:  MOVLW  58
09B76:  MOVWF  FF6
09B78:  MOVLW  0E
09B7A:  MOVWF  FF7
09B7C:  MOVLW  00
09B7E:  MOVWF  FF8
09B80:  MOVLW  0A
09B82:  MOVWF  x31
09B84:  MOVLB  0
09B86:  CALL   4FD6
09B8A:  MOVFF  62C,631
09B8E:  MOVLW  01
09B90:  MOVLB  6
09B92:  MOVWF  x32
09B94:  MOVLB  0
09B96:  CALL   505A
09B9A:  MOVLW  3A
09B9C:  BTFSS  F9E.4
09B9E:  BRA    9B9C
09BA0:  MOVWF  FAD
09BA2:  MOVFF  62D,631
09BA6:  MOVLW  01
09BA8:  MOVLB  6
09BAA:  MOVWF  x32
09BAC:  MOVLB  0
09BAE:  CALL   505A
09BB2:  MOVLW  22
09BB4:  BTFSS  F9E.4
09BB6:  BRA    9BB4
09BB8:  MOVWF  FAD
....................          SendDataDisplay(); 
09BBA:  CALL   3C34
....................          printf("pulsos.txt=\"%02u\"",CiclosPersonalizados[RX_Buffer[4]-1].PulsosVacio); 
09BBE:  MOVLW  01
09BC0:  SUBWF  3C,W
09BC2:  MULLW  08
09BC4:  MOVF   FF3,W
09BC6:  MOVLB  6
09BC8:  CLRF   x2D
09BCA:  MOVWF  x2C
09BCC:  MOVLW  05
09BCE:  ADDWF  x2C,W
09BD0:  MOVWF  01
09BD2:  MOVLW  00
09BD4:  ADDWFC x2D,W
09BD6:  MOVWF  03
09BD8:  MOVF   01,W
09BDA:  ADDLW  62
09BDC:  MOVWF  FE9
09BDE:  MOVLW  05
09BE0:  ADDWFC 03,W
09BE2:  MOVWF  FEA
09BE4:  MOVFF  FEF,62C
09BE8:  MOVLW  6E
09BEA:  MOVWF  FF6
09BEC:  MOVLW  0E
09BEE:  MOVWF  FF7
09BF0:  MOVLW  00
09BF2:  MOVWF  FF8
09BF4:  MOVLW  0C
09BF6:  MOVWF  x31
09BF8:  MOVLB  0
09BFA:  CALL   4FD6
09BFE:  MOVFF  62C,631
09C02:  MOVLW  01
09C04:  MOVLB  6
09C06:  MOVWF  x32
09C08:  MOVLB  0
09C0A:  CALL   505A
09C0E:  MOVLW  22
09C10:  BTFSS  F9E.4
09C12:  BRA    9C10
09C14:  MOVWF  FAD
....................          SendDataDisplay(); 
09C16:  CALL   3C34
....................          printf("vacio.txt=\"%03u kPa\"",CiclosPersonalizados[RX_Buffer[4]-1].NivelVacio); 
09C1A:  MOVLW  01
09C1C:  SUBWF  3C,W
09C1E:  MULLW  08
09C20:  MOVF   FF3,W
09C22:  MOVLB  6
09C24:  CLRF   x2D
09C26:  MOVWF  x2C
09C28:  MOVLW  06
09C2A:  ADDWF  x2C,W
09C2C:  MOVWF  01
09C2E:  MOVLW  00
09C30:  ADDWFC x2D,W
09C32:  MOVWF  03
09C34:  MOVF   01,W
09C36:  ADDLW  62
09C38:  MOVWF  FE9
09C3A:  MOVLW  05
09C3C:  ADDWFC 03,W
09C3E:  MOVWF  FEA
09C40:  MOVFF  FEF,62C
09C44:  MOVLW  80
09C46:  MOVWF  FF6
09C48:  MOVLW  0E
09C4A:  MOVWF  FF7
09C4C:  MOVLW  00
09C4E:  MOVWF  FF8
09C50:  MOVLW  0B
09C52:  MOVWF  x31
09C54:  MOVLB  0
09C56:  CALL   4FD6
09C5A:  MOVFF  62C,631
09C5E:  MOVLW  03
09C60:  MOVLB  6
09C62:  MOVWF  x32
09C64:  MOVLB  0
09C66:  CALL   505A
09C6A:  MOVLW  8F
09C6C:  MOVWF  FF6
09C6E:  MOVLW  0E
09C70:  MOVWF  FF7
09C72:  MOVLW  00
09C74:  MOVWF  FF8
09C76:  MOVLW  05
09C78:  MOVLB  6
09C7A:  MOVWF  x31
09C7C:  MOVLB  0
09C7E:  CALL   4FD6
....................          SendDataDisplay(); 
09C82:  CALL   3C34
....................          //printf("desfogue.txt=\"%u\"",CiclosPersonalizados[RX_Buffer[4]-1].NivelDesfogue); 
....................          printf("desfogue.txt=\"N/A\""); 
09C86:  MOVLW  96
09C88:  MOVWF  FF6
09C8A:  MOVLW  0E
09C8C:  MOVWF  FF7
09C8E:  MOVLW  00
09C90:  MOVWF  FF8
09C92:  CALL   3C02
....................          SendDataDisplay(); 
09C96:  CALL   3C34
....................          CicloLibre=RX_Buffer[4]; 
09C9A:  MOVFF  3C,227
....................       }else if(CicloLibre==0x00){ 
09C9E:  BRA    A016
09CA0:  MOVLB  2
09CA2:  MOVF   x27,F
09CA4:  BNZ   9D38
....................          printf("ciclo.txt=\"CICLO P--\""); 
09CA6:  MOVLW  AA
09CA8:  MOVWF  FF6
09CAA:  MOVLW  0E
09CAC:  MOVWF  FF7
09CAE:  MOVLW  00
09CB0:  MOVWF  FF8
09CB2:  MOVLB  0
09CB4:  CALL   3C02
....................          SendDataDisplay();           
09CB8:  CALL   3C34
....................          printf("temp.txt=\"--\""); 
09CBC:  MOVLW  C0
09CBE:  MOVWF  FF6
09CC0:  MOVLW  0E
09CC2:  MOVWF  FF7
09CC4:  MOVLW  00
09CC6:  MOVWF  FF8
09CC8:  CALL   3C02
....................          SendDataDisplay(); 
09CCC:  CALL   3C34
....................          printf("test.txt=\"--:--\""); 
09CD0:  MOVLW  CE
09CD2:  MOVWF  FF6
09CD4:  MOVLW  0E
09CD6:  MOVWF  FF7
09CD8:  MOVLW  00
09CDA:  MOVWF  FF8
09CDC:  CALL   3C02
....................          SendDataDisplay(); 
09CE0:  CALL   3C34
....................          printf("tsec.txt=\"--:--\""); 
09CE4:  MOVLW  E0
09CE6:  MOVWF  FF6
09CE8:  MOVLW  0E
09CEA:  MOVWF  FF7
09CEC:  MOVLW  00
09CEE:  MOVWF  FF8
09CF0:  CALL   3C02
....................          SendDataDisplay(); 
09CF4:  CALL   3C34
....................          printf("pulsos.txt=\"--\""); 
09CF8:  MOVLW  F2
09CFA:  MOVWF  FF6
09CFC:  MOVLW  0E
09CFE:  MOVWF  FF7
09D00:  MOVLW  00
09D02:  MOVWF  FF8
09D04:  CALL   3C02
....................          SendDataDisplay(); 
09D08:  CALL   3C34
....................          printf("vacio.txt=\"--\""); 
09D0C:  MOVLW  02
09D0E:  MOVWF  FF6
09D10:  MOVLW  0F
09D12:  MOVWF  FF7
09D14:  MOVLW  00
09D16:  MOVWF  FF8
09D18:  CALL   3C02
....................          SendDataDisplay(); 
09D1C:  CALL   3C34
....................          printf("desfogue.txt=\"--\""); 
09D20:  MOVLW  12
09D22:  MOVWF  FF6
09D24:  MOVLW  0F
09D26:  MOVWF  FF7
09D28:  MOVLW  00
09D2A:  MOVWF  FF8
09D2C:  CALL   3C02
....................          SendDataDisplay(); 
09D30:  CALL   3C34
....................       }else if(CicloLibre>0 && CicloLibre<21 && estados[CicloLibre-1]){ 
09D34:  BRA    A016
09D36:  MOVLB  2
09D38:  MOVF   x27,F
09D3A:  BTFSC  FD8.2
09D3C:  BRA    A018
09D3E:  MOVF   x27,W
09D40:  SUBLW  14
09D42:  BTFSS  FD8.0
09D44:  BRA    A018
09D46:  MOVLW  01
09D48:  SUBWF  x27,W
09D4A:  MOVLB  6
09D4C:  MOVWF  x2D
09D4E:  MOVLW  02
09D50:  MOVWF  x2F
09D52:  MOVLW  96
09D54:  MOVWF  x2E
09D56:  MOVLB  0
09D58:  CALL   231C
09D5C:  BTFSC  01.0
09D5E:  BRA    9D64
09D60:  MOVLB  2
09D62:  BRA    A018
....................          printf("ciclo.txt=\"CICLO P%02u\"",CicloLibre+0x0a); 
09D64:  MOVLW  0A
09D66:  MOVLB  2
09D68:  ADDWF  x27,W
09D6A:  MOVLB  6
09D6C:  MOVWF  x2C
09D6E:  MOVLW  24
09D70:  MOVWF  FF6
09D72:  MOVLW  0F
09D74:  MOVWF  FF7
09D76:  MOVLW  00
09D78:  MOVWF  FF8
09D7A:  MOVLW  12
09D7C:  MOVWF  x31
09D7E:  MOVLB  0
09D80:  CALL   4FD6
09D84:  MOVFF  62C,631
09D88:  MOVLW  01
09D8A:  MOVLB  6
09D8C:  MOVWF  x32
09D8E:  MOVLB  0
09D90:  CALL   505A
09D94:  MOVLW  22
09D96:  BTFSS  F9E.4
09D98:  BRA    9D96
09D9A:  MOVWF  FAD
....................          SendDataDisplay();           
09D9C:  CALL   3C34
....................          printf("temp.txt=\"%u\"",CiclosPersonalizados[CicloLibre-1].Temperatura); 
09DA0:  MOVLW  01
09DA2:  MOVLB  2
09DA4:  SUBWF  x27,W
09DA6:  MULLW  08
09DA8:  MOVF   FF3,W
09DAA:  MOVLB  6
09DAC:  CLRF   x2D
09DAE:  MOVWF  x2C
09DB0:  MOVLW  62
09DB2:  ADDWF  x2C,W
09DB4:  MOVWF  FE9
09DB6:  MOVLW  05
09DB8:  ADDWFC x2D,W
09DBA:  MOVWF  FEA
09DBC:  MOVFF  FEF,62E
09DC0:  MOVLW  3C
09DC2:  MOVWF  FF6
09DC4:  MOVLW  0F
09DC6:  MOVWF  FF7
09DC8:  MOVLW  00
09DCA:  MOVWF  FF8
09DCC:  MOVLW  0A
09DCE:  MOVWF  x31
09DD0:  MOVLB  0
09DD2:  CALL   4FD6
09DD6:  MOVFF  62E,631
09DDA:  MOVLW  1B
09DDC:  MOVLB  6
09DDE:  MOVWF  x32
09DE0:  MOVLB  0
09DE2:  CALL   505A
09DE6:  MOVLW  22
09DE8:  BTFSS  F9E.4
09DEA:  BRA    9DE8
09DEC:  MOVWF  FAD
....................          SendDataDisplay(); 
09DEE:  CALL   3C34
....................          printf("test.txt=\"%02u:%02u\"",CiclosPersonalizados[CicloLibre-1].Minutoest,CiclosPersonalizados[CicloLibre-1].Segundoest); 
09DF2:  MOVLW  01
09DF4:  MOVLB  2
09DF6:  SUBWF  x27,W
09DF8:  MULLW  08
09DFA:  MOVF   FF3,W
09DFC:  MOVLB  6
09DFE:  CLRF   x2D
09E00:  MOVWF  x2C
09E02:  MOVLW  01
09E04:  ADDWF  x2C,W
09E06:  MOVWF  01
09E08:  MOVLW  00
09E0A:  ADDWFC x2D,W
09E0C:  MOVWF  03
09E0E:  MOVF   01,W
09E10:  ADDLW  62
09E12:  MOVWF  FE9
09E14:  MOVLW  05
09E16:  ADDWFC 03,W
09E18:  MOVWF  FEA
09E1A:  MOVFF  FEF,62C
09E1E:  MOVLW  01
09E20:  MOVLB  2
09E22:  SUBWF  x27,W
09E24:  MULLW  08
09E26:  MOVF   FF3,W
09E28:  MOVLB  6
09E2A:  CLRF   x2E
09E2C:  MOVWF  x2D
09E2E:  MOVLW  02
09E30:  ADDWF  x2D,W
09E32:  MOVWF  01
09E34:  MOVLW  00
09E36:  ADDWFC x2E,W
09E38:  MOVWF  03
09E3A:  MOVF   01,W
09E3C:  ADDLW  62
09E3E:  MOVWF  FE9
09E40:  MOVLW  05
09E42:  ADDWFC 03,W
09E44:  MOVWF  FEA
09E46:  MOVFF  FEF,62D
09E4A:  MOVLW  4A
09E4C:  MOVWF  FF6
09E4E:  MOVLW  0F
09E50:  MOVWF  FF7
09E52:  MOVLW  00
09E54:  MOVWF  FF8
09E56:  MOVLW  0A
09E58:  MOVWF  x31
09E5A:  MOVLB  0
09E5C:  CALL   4FD6
09E60:  MOVFF  62C,631
09E64:  MOVLW  01
09E66:  MOVLB  6
09E68:  MOVWF  x32
09E6A:  MOVLB  0
09E6C:  CALL   505A
09E70:  MOVLW  3A
09E72:  BTFSS  F9E.4
09E74:  BRA    9E72
09E76:  MOVWF  FAD
09E78:  MOVFF  62D,631
09E7C:  MOVLW  01
09E7E:  MOVLB  6
09E80:  MOVWF  x32
09E82:  MOVLB  0
09E84:  CALL   505A
09E88:  MOVLW  22
09E8A:  BTFSS  F9E.4
09E8C:  BRA    9E8A
09E8E:  MOVWF  FAD
....................          SendDataDisplay(); 
09E90:  CALL   3C34
....................          printf("tsec.txt=\"%02u:%02u\"",CiclosPersonalizados[CicloLibre-1].Minutosec,CiclosPersonalizados[CicloLibre-1].Segundosec); 
09E94:  MOVLW  01
09E96:  MOVLB  2
09E98:  SUBWF  x27,W
09E9A:  MULLW  08
09E9C:  MOVF   FF3,W
09E9E:  MOVLB  6
09EA0:  CLRF   x2D
09EA2:  MOVWF  x2C
09EA4:  MOVLW  03
09EA6:  ADDWF  x2C,W
09EA8:  MOVWF  01
09EAA:  MOVLW  00
09EAC:  ADDWFC x2D,W
09EAE:  MOVWF  03
09EB0:  MOVF   01,W
09EB2:  ADDLW  62
09EB4:  MOVWF  FE9
09EB6:  MOVLW  05
09EB8:  ADDWFC 03,W
09EBA:  MOVWF  FEA
09EBC:  MOVFF  FEF,62C
09EC0:  MOVLW  01
09EC2:  MOVLB  2
09EC4:  SUBWF  x27,W
09EC6:  MULLW  08
09EC8:  MOVF   FF3,W
09ECA:  MOVLB  6
09ECC:  CLRF   x2E
09ECE:  MOVWF  x2D
09ED0:  MOVLW  04
09ED2:  ADDWF  x2D,W
09ED4:  MOVWF  01
09ED6:  MOVLW  00
09ED8:  ADDWFC x2E,W
09EDA:  MOVWF  03
09EDC:  MOVF   01,W
09EDE:  ADDLW  62
09EE0:  MOVWF  FE9
09EE2:  MOVLW  05
09EE4:  ADDWFC 03,W
09EE6:  MOVWF  FEA
09EE8:  MOVFF  FEF,62D
09EEC:  MOVLW  60
09EEE:  MOVWF  FF6
09EF0:  MOVLW  0F
09EF2:  MOVWF  FF7
09EF4:  MOVLW  00
09EF6:  MOVWF  FF8
09EF8:  MOVLW  0A
09EFA:  MOVWF  x31
09EFC:  MOVLB  0
09EFE:  CALL   4FD6
09F02:  MOVFF  62C,631
09F06:  MOVLW  01
09F08:  MOVLB  6
09F0A:  MOVWF  x32
09F0C:  MOVLB  0
09F0E:  CALL   505A
09F12:  MOVLW  3A
09F14:  BTFSS  F9E.4
09F16:  BRA    9F14
09F18:  MOVWF  FAD
09F1A:  MOVFF  62D,631
09F1E:  MOVLW  01
09F20:  MOVLB  6
09F22:  MOVWF  x32
09F24:  MOVLB  0
09F26:  CALL   505A
09F2A:  MOVLW  22
09F2C:  BTFSS  F9E.4
09F2E:  BRA    9F2C
09F30:  MOVWF  FAD
....................          SendDataDisplay(); 
09F32:  CALL   3C34
....................          printf("pulsos.txt=\"%02u\"",CiclosPersonalizados[CicloLibre-1].PulsosVacio); 
09F36:  MOVLW  01
09F38:  MOVLB  2
09F3A:  SUBWF  x27,W
09F3C:  MULLW  08
09F3E:  MOVF   FF3,W
09F40:  MOVLB  6
09F42:  CLRF   x2D
09F44:  MOVWF  x2C
09F46:  MOVLW  05
09F48:  ADDWF  x2C,W
09F4A:  MOVWF  01
09F4C:  MOVLW  00
09F4E:  ADDWFC x2D,W
09F50:  MOVWF  03
09F52:  MOVF   01,W
09F54:  ADDLW  62
09F56:  MOVWF  FE9
09F58:  MOVLW  05
09F5A:  ADDWFC 03,W
09F5C:  MOVWF  FEA
09F5E:  MOVFF  FEF,62C
09F62:  MOVLW  76
09F64:  MOVWF  FF6
09F66:  MOVLW  0F
09F68:  MOVWF  FF7
09F6A:  MOVLW  00
09F6C:  MOVWF  FF8
09F6E:  MOVLW  0C
09F70:  MOVWF  x31
09F72:  MOVLB  0
09F74:  CALL   4FD6
09F78:  MOVFF  62C,631
09F7C:  MOVLW  01
09F7E:  MOVLB  6
09F80:  MOVWF  x32
09F82:  MOVLB  0
09F84:  CALL   505A
09F88:  MOVLW  22
09F8A:  BTFSS  F9E.4
09F8C:  BRA    9F8A
09F8E:  MOVWF  FAD
....................          SendDataDisplay(); 
09F90:  CALL   3C34
....................          printf("vacio.txt=\"%03u kPa\"",CiclosPersonalizados[CicloLibre-1].NivelVacio); 
09F94:  MOVLW  01
09F96:  MOVLB  2
09F98:  SUBWF  x27,W
09F9A:  MULLW  08
09F9C:  MOVF   FF3,W
09F9E:  MOVLB  6
09FA0:  CLRF   x2D
09FA2:  MOVWF  x2C
09FA4:  MOVLW  06
09FA6:  ADDWF  x2C,W
09FA8:  MOVWF  01
09FAA:  MOVLW  00
09FAC:  ADDWFC x2D,W
09FAE:  MOVWF  03
09FB0:  MOVF   01,W
09FB2:  ADDLW  62
09FB4:  MOVWF  FE9
09FB6:  MOVLW  05
09FB8:  ADDWFC 03,W
09FBA:  MOVWF  FEA
09FBC:  MOVFF  FEF,62C
09FC0:  MOVLW  88
09FC2:  MOVWF  FF6
09FC4:  MOVLW  0F
09FC6:  MOVWF  FF7
09FC8:  MOVLW  00
09FCA:  MOVWF  FF8
09FCC:  MOVLW  0B
09FCE:  MOVWF  x31
09FD0:  MOVLB  0
09FD2:  CALL   4FD6
09FD6:  MOVFF  62C,631
09FDA:  MOVLW  03
09FDC:  MOVLB  6
09FDE:  MOVWF  x32
09FE0:  MOVLB  0
09FE2:  CALL   505A
09FE6:  MOVLW  97
09FE8:  MOVWF  FF6
09FEA:  MOVLW  0F
09FEC:  MOVWF  FF7
09FEE:  MOVLW  00
09FF0:  MOVWF  FF8
09FF2:  MOVLW  05
09FF4:  MOVLB  6
09FF6:  MOVWF  x31
09FF8:  MOVLB  0
09FFA:  CALL   4FD6
....................          SendDataDisplay(); 
09FFE:  CALL   3C34
....................          //printf("desfogue.txt=\"%u\"",CiclosPersonalizados[CicloLibre-1].NivelDesfogue); 
....................          printf("desfogue.txt=\"N/A\""); 
0A002:  MOVLW  9E
0A004:  MOVWF  FF6
0A006:  MOVLW  0F
0A008:  MOVWF  FF7
0A00A:  MOVLW  00
0A00C:  MOVWF  FF8
0A00E:  CALL   3C02
....................          SendDataDisplay(); 
0A012:  CALL   3C34
0A016:  MOVLB  2
....................       } 
....................        
....................       if(RX_Buffer[4]==0xa0){//a0, Menu Principal 
0A018:  MOVF   3C,W
0A01A:  SUBLW  A0
0A01C:  BNZ   A036
....................          printf("page Menu"); 
0A01E:  MOVLW  B2
0A020:  MOVWF  FF6
0A022:  MOVLW  0F
0A024:  MOVWF  FF7
0A026:  MOVLW  00
0A028:  MOVWF  FF8
0A02A:  MOVLB  0
0A02C:  CALL   3C02
....................          SendDataDisplay();      
0A030:  CALL   3C34
0A034:  MOVLB  2
....................       } 
....................        
....................       if(RX_Buffer[4]==0xb0){//b0, Personalizados 
0A036:  MOVF   3C,W
0A038:  SUBLW  B0
0A03A:  BNZ   A054
....................          printf("page CicloPersona"); 
0A03C:  MOVLW  BC
0A03E:  MOVWF  FF6
0A040:  MOVLW  0F
0A042:  MOVWF  FF7
0A044:  MOVLW  00
0A046:  MOVWF  FF8
0A048:  MOVLB  0
0A04A:  CALL   3C02
....................          SendDataDisplay();      
0A04E:  CALL   3C34
0A052:  MOVLB  2
....................       } 
....................        
....................       if(RX_Buffer[4]==0xc0){//c0, Configuraciones 
0A054:  MOVF   3C,W
0A056:  SUBLW  C0
0A058:  BNZ   A07C
....................          if(codigoUsuario==0 || codigoUsuario==9){   
0A05A:  MOVF   x2A,F
0A05C:  BZ    A064
0A05E:  MOVF   x2A,W
0A060:  SUBLW  09
0A062:  BNZ   A07C
....................             printf("page Ajustes"); 
0A064:  MOVLW  CE
0A066:  MOVWF  FF6
0A068:  MOVLW  0F
0A06A:  MOVWF  FF7
0A06C:  MOVLW  00
0A06E:  MOVWF  FF8
0A070:  MOVLB  0
0A072:  CALL   3C02
....................             SendDataDisplay();      
0A076:  CALL   3C34
0A07A:  MOVLB  2
....................          } 
....................       } 
....................        
....................       if(RX_Buffer[4]==0x20 && CicloLibre>0){//20, Temperatura 
0A07C:  MOVF   3C,W
0A07E:  SUBLW  20
0A080:  BNZ   A0C8
0A082:  MOVF   x27,F
0A084:  BZ    A0C8
....................          if(codigoUsuario==0 || codigoUsuario==9){   
0A086:  MOVF   x2A,F
0A088:  BZ    A090
0A08A:  MOVF   x2A,W
0A08C:  SUBLW  09
0A08E:  BNZ   A0C8
....................             printf("page Temperatura"); 
0A090:  MOVLW  DC
0A092:  MOVWF  FF6
0A094:  MOVLW  0F
0A096:  MOVWF  FF7
0A098:  MOVLW  00
0A09A:  MOVWF  FF8
0A09C:  MOVLB  0
0A09E:  CALL   3C02
....................             SendDataDisplay();      
0A0A2:  CALL   3C34
....................             Setpoint=CiclosPersonalizados[CicloLibre-1].Temperatura; 
0A0A6:  MOVLW  01
0A0A8:  MOVLB  2
0A0AA:  SUBWF  x27,W
0A0AC:  MULLW  08
0A0AE:  MOVF   FF3,W
0A0B0:  MOVLB  6
0A0B2:  CLRF   x2D
0A0B4:  MOVWF  x2C
0A0B6:  MOVLW  62
0A0B8:  ADDWF  x2C,W
0A0BA:  MOVWF  FE9
0A0BC:  MOVLW  05
0A0BE:  ADDWFC x2D,W
0A0C0:  MOVWF  FEA
0A0C2:  MOVFF  FEF,1E1
0A0C6:  MOVLB  2
....................          } 
....................       } 
....................        
....................       if(RX_Buffer[4]==0x30 && CicloLibre>0){//30, Test 
0A0C8:  MOVF   3C,W
0A0CA:  SUBLW  30
0A0CC:  BTFSS  FD8.2
0A0CE:  BRA    A1F6
0A0D0:  MOVF   x27,F
0A0D2:  BTFSC  FD8.2
0A0D4:  BRA    A1F6
....................          if(codigoUsuario==0 || codigoUsuario==9){   
0A0D6:  MOVF   x2A,F
0A0D8:  BZ    A0E2
0A0DA:  MOVF   x2A,W
0A0DC:  SUBLW  09
0A0DE:  BTFSS  FD8.2
0A0E0:  BRA    A1F6
....................             printf("page TiempoEst"); 
0A0E2:  MOVLW  EE
0A0E4:  MOVWF  FF6
0A0E6:  MOVLW  0F
0A0E8:  MOVWF  FF7
0A0EA:  MOVLW  00
0A0EC:  MOVWF  FF8
0A0EE:  MOVLB  0
0A0F0:  CALL   3C02
....................             SendDataDisplay();      
0A0F4:  CALL   3C34
....................             Testerilizacionp[3]=CiclosPersonalizados[CicloLibre-1].Minutoest/10; 
0A0F8:  MOVLW  01
0A0FA:  MOVLB  2
0A0FC:  SUBWF  x27,W
0A0FE:  MULLW  08
0A100:  MOVF   FF3,W
0A102:  MOVLB  6
0A104:  CLRF   x2D
0A106:  MOVWF  x2C
0A108:  MOVLW  01
0A10A:  ADDWF  x2C,W
0A10C:  MOVWF  01
0A10E:  MOVLW  00
0A110:  ADDWFC x2D,W
0A112:  MOVWF  03
0A114:  MOVF   01,W
0A116:  ADDLW  62
0A118:  MOVWF  FE9
0A11A:  MOVLW  05
0A11C:  ADDWFC 03,W
0A11E:  MOVWF  FEA
0A120:  MOVFF  FEF,635
0A124:  MOVLW  0A
0A126:  MOVWF  x36
0A128:  MOVLB  0
0A12A:  CALL   502E
0A12E:  MOVFF  01,A4
....................             Testerilizacionp[2]=CiclosPersonalizados[CicloLibre-1].Minutoest-(Testerilizacion[3]*10); 
0A132:  MOVLW  01
0A134:  MOVLB  2
0A136:  SUBWF  x27,W
0A138:  MULLW  08
0A13A:  MOVF   FF3,W
0A13C:  MOVLB  6
0A13E:  CLRF   x2D
0A140:  MOVWF  x2C
0A142:  MOVLW  01
0A144:  ADDWF  x2C,W
0A146:  MOVWF  01
0A148:  MOVLW  00
0A14A:  ADDWFC x2D,W
0A14C:  MOVWF  03
0A14E:  MOVF   01,W
0A150:  ADDLW  62
0A152:  MOVWF  FE9
0A154:  MOVLW  05
0A156:  ADDWFC 03,W
0A158:  MOVWF  FEA
0A15A:  MOVFF  FEF,62C
0A15E:  MOVFF  A0,633
0A162:  MOVLW  0A
0A164:  MOVWF  x34
0A166:  MOVLB  0
0A168:  CALL   370E
0A16C:  MOVF   01,W
0A16E:  MOVLB  6
0A170:  SUBWF  x2C,W
0A172:  MOVLB  0
0A174:  MOVWF  xA3
....................             Testerilizacionp[1]=CiclosPersonalizados[CicloLibre-1].Segundoest/10; 
0A176:  MOVLW  01
0A178:  MOVLB  2
0A17A:  SUBWF  x27,W
0A17C:  MULLW  08
0A17E:  MOVF   FF3,W
0A180:  MOVLB  6
0A182:  CLRF   x2D
0A184:  MOVWF  x2C
0A186:  MOVLW  02
0A188:  ADDWF  x2C,W
0A18A:  MOVWF  01
0A18C:  MOVLW  00
0A18E:  ADDWFC x2D,W
0A190:  MOVWF  03
0A192:  MOVF   01,W
0A194:  ADDLW  62
0A196:  MOVWF  FE9
0A198:  MOVLW  05
0A19A:  ADDWFC 03,W
0A19C:  MOVWF  FEA
0A19E:  MOVFF  FEF,635
0A1A2:  MOVLW  0A
0A1A4:  MOVWF  x36
0A1A6:  MOVLB  0
0A1A8:  CALL   502E
0A1AC:  MOVFF  01,A2
....................             Testerilizacionp[0]=CiclosPersonalizados[CicloLibre-1].Segundoest-(Testerilizacion[1]*10); 
0A1B0:  MOVLW  01
0A1B2:  MOVLB  2
0A1B4:  SUBWF  x27,W
0A1B6:  MULLW  08
0A1B8:  MOVF   FF3,W
0A1BA:  MOVLB  6
0A1BC:  CLRF   x2D
0A1BE:  MOVWF  x2C
0A1C0:  MOVLW  02
0A1C2:  ADDWF  x2C,W
0A1C4:  MOVWF  01
0A1C6:  MOVLW  00
0A1C8:  ADDWFC x2D,W
0A1CA:  MOVWF  03
0A1CC:  MOVF   01,W
0A1CE:  ADDLW  62
0A1D0:  MOVWF  FE9
0A1D2:  MOVLW  05
0A1D4:  ADDWFC 03,W
0A1D6:  MOVWF  FEA
0A1D8:  MOVFF  FEF,62C
0A1DC:  MOVFF  9E,633
0A1E0:  MOVLW  0A
0A1E2:  MOVWF  x34
0A1E4:  MOVLB  0
0A1E6:  CALL   370E
0A1EA:  MOVF   01,W
0A1EC:  MOVLB  6
0A1EE:  SUBWF  x2C,W
0A1F0:  MOVLB  0
0A1F2:  MOVWF  xA1
0A1F4:  MOVLB  2
....................          } 
....................       } 
....................        
....................       if(RX_Buffer[4]==0x40 && CicloLibre>0){//40, Tsec 
0A1F6:  MOVF   3C,W
0A1F8:  SUBLW  40
0A1FA:  BTFSS  FD8.2
0A1FC:  BRA    A324
0A1FE:  MOVF   x27,F
0A200:  BTFSC  FD8.2
0A202:  BRA    A324
....................          if(codigoUsuario==0 || codigoUsuario==9){   
0A204:  MOVF   x2A,F
0A206:  BZ    A210
0A208:  MOVF   x2A,W
0A20A:  SUBLW  09
0A20C:  BTFSS  FD8.2
0A20E:  BRA    A324
....................             printf("page TiempoSec"); 
0A210:  MOVLW  FE
0A212:  MOVWF  FF6
0A214:  MOVLW  0F
0A216:  MOVWF  FF7
0A218:  MOVLW  00
0A21A:  MOVWF  FF8
0A21C:  MOVLB  0
0A21E:  CALL   3C02
....................             SendDataDisplay();    
0A222:  CALL   3C34
....................             Tsecadop[3]=CiclosPersonalizados[CicloLibre-1].Minutosec/10; 
0A226:  MOVLW  01
0A228:  MOVLB  2
0A22A:  SUBWF  x27,W
0A22C:  MULLW  08
0A22E:  MOVF   FF3,W
0A230:  MOVLB  6
0A232:  CLRF   x2D
0A234:  MOVWF  x2C
0A236:  MOVLW  03
0A238:  ADDWF  x2C,W
0A23A:  MOVWF  01
0A23C:  MOVLW  00
0A23E:  ADDWFC x2D,W
0A240:  MOVWF  03
0A242:  MOVF   01,W
0A244:  ADDLW  62
0A246:  MOVWF  FE9
0A248:  MOVLW  05
0A24A:  ADDWFC 03,W
0A24C:  MOVWF  FEA
0A24E:  MOVFF  FEF,635
0A252:  MOVLW  0A
0A254:  MOVWF  x36
0A256:  MOVLB  0
0A258:  CALL   502E
0A25C:  MOVFF  01,AC
....................             Tsecadop[2]=CiclosPersonalizados[CicloLibre-1].Minutosec-(Tsecado[3]*10); 
0A260:  MOVLW  01
0A262:  MOVLB  2
0A264:  SUBWF  x27,W
0A266:  MULLW  08
0A268:  MOVF   FF3,W
0A26A:  MOVLB  6
0A26C:  CLRF   x2D
0A26E:  MOVWF  x2C
0A270:  MOVLW  03
0A272:  ADDWF  x2C,W
0A274:  MOVWF  01
0A276:  MOVLW  00
0A278:  ADDWFC x2D,W
0A27A:  MOVWF  03
0A27C:  MOVF   01,W
0A27E:  ADDLW  62
0A280:  MOVWF  FE9
0A282:  MOVLW  05
0A284:  ADDWFC 03,W
0A286:  MOVWF  FEA
0A288:  MOVFF  FEF,62C
0A28C:  MOVFF  A8,633
0A290:  MOVLW  0A
0A292:  MOVWF  x34
0A294:  MOVLB  0
0A296:  CALL   370E
0A29A:  MOVF   01,W
0A29C:  MOVLB  6
0A29E:  SUBWF  x2C,W
0A2A0:  MOVLB  0
0A2A2:  MOVWF  xAB
....................             Tsecadop[1]=CiclosPersonalizados[CicloLibre-1].Segundosec/10; 
0A2A4:  MOVLW  01
0A2A6:  MOVLB  2
0A2A8:  SUBWF  x27,W
0A2AA:  MULLW  08
0A2AC:  MOVF   FF3,W
0A2AE:  MOVLB  6
0A2B0:  CLRF   x2D
0A2B2:  MOVWF  x2C
0A2B4:  MOVLW  04
0A2B6:  ADDWF  x2C,W
0A2B8:  MOVWF  01
0A2BA:  MOVLW  00
0A2BC:  ADDWFC x2D,W
0A2BE:  MOVWF  03
0A2C0:  MOVF   01,W
0A2C2:  ADDLW  62
0A2C4:  MOVWF  FE9
0A2C6:  MOVLW  05
0A2C8:  ADDWFC 03,W
0A2CA:  MOVWF  FEA
0A2CC:  MOVFF  FEF,635
0A2D0:  MOVLW  0A
0A2D2:  MOVWF  x36
0A2D4:  MOVLB  0
0A2D6:  CALL   502E
0A2DA:  MOVFF  01,AA
....................             Tsecadop[0]=CiclosPersonalizados[CicloLibre-1].Segundosec-(Tsecado[1]*10); 
0A2DE:  MOVLW  01
0A2E0:  MOVLB  2
0A2E2:  SUBWF  x27,W
0A2E4:  MULLW  08
0A2E6:  MOVF   FF3,W
0A2E8:  MOVLB  6
0A2EA:  CLRF   x2D
0A2EC:  MOVWF  x2C
0A2EE:  MOVLW  04
0A2F0:  ADDWF  x2C,W
0A2F2:  MOVWF  01
0A2F4:  MOVLW  00
0A2F6:  ADDWFC x2D,W
0A2F8:  MOVWF  03
0A2FA:  MOVF   01,W
0A2FC:  ADDLW  62
0A2FE:  MOVWF  FE9
0A300:  MOVLW  05
0A302:  ADDWFC 03,W
0A304:  MOVWF  FEA
0A306:  MOVFF  FEF,62C
0A30A:  MOVFF  A6,633
0A30E:  MOVLW  0A
0A310:  MOVWF  x34
0A312:  MOVLB  0
0A314:  CALL   370E
0A318:  MOVF   01,W
0A31A:  MOVLB  6
0A31C:  SUBWF  x2C,W
0A31E:  MOVLB  0
0A320:  MOVWF  xA9
0A322:  MOVLB  2
....................          } 
....................       } 
....................        
....................       if(RX_Buffer[4]==0x50 && CicloLibre>0){//50, PulsosVacio 
0A324:  MOVF   3C,W
0A326:  SUBLW  50
0A328:  BNZ   A37C
0A32A:  MOVF   x27,F
0A32C:  BZ    A37C
....................          if(codigoUsuario==0 || codigoUsuario==9){   
0A32E:  MOVF   x2A,F
0A330:  BZ    A338
0A332:  MOVF   x2A,W
0A334:  SUBLW  09
0A336:  BNZ   A37C
....................             printf("page Pulsos"); 
0A338:  MOVLW  0E
0A33A:  MOVWF  FF6
0A33C:  MOVLW  10
0A33E:  MOVWF  FF7
0A340:  MOVLW  00
0A342:  MOVWF  FF8
0A344:  MOVLB  0
0A346:  CALL   3C02
....................             SendDataDisplay();      
0A34A:  CALL   3C34
....................             Pulsos=CiclosPersonalizados[CicloLibre-1].PulsosVacio; 
0A34E:  MOVLW  01
0A350:  MOVLB  2
0A352:  SUBWF  x27,W
0A354:  MULLW  08
0A356:  MOVF   FF3,W
0A358:  MOVLB  6
0A35A:  CLRF   x2D
0A35C:  MOVWF  x2C
0A35E:  MOVLW  05
0A360:  ADDWF  x2C,W
0A362:  MOVWF  01
0A364:  MOVLW  00
0A366:  ADDWFC x2D,W
0A368:  MOVWF  03
0A36A:  MOVF   01,W
0A36C:  ADDLW  62
0A36E:  MOVWF  FE9
0A370:  MOVLW  05
0A372:  ADDWFC 03,W
0A374:  MOVWF  FEA
0A376:  MOVFF  FEF,228
0A37A:  MOVLB  2
....................          } 
....................       } 
....................        
....................       if(RX_Buffer[4]==0x60 && CicloLibre>0){//60, NivelVacio 
0A37C:  MOVF   3C,W
0A37E:  SUBLW  60
0A380:  BNZ   A3D8
0A382:  MOVF   x27,F
0A384:  BZ    A3D8
....................          if(codigoUsuario==0 || codigoUsuario==9){   
0A386:  MOVF   x2A,F
0A388:  BZ    A390
0A38A:  MOVF   x2A,W
0A38C:  SUBLW  09
0A38E:  BNZ   A3D8
....................             printf("page Nivel"); 
0A390:  MOVLW  1A
0A392:  MOVWF  FF6
0A394:  MOVLW  10
0A396:  MOVWF  FF7
0A398:  MOVLW  00
0A39A:  MOVWF  FF8
0A39C:  MOVLB  0
0A39E:  CALL   3C02
....................             SendDataDisplay();      
0A3A2:  CALL   3C34
....................             Nivel=CiclosPersonalizados[CicloLibre-1].NivelVacio; 
0A3A6:  MOVLW  01
0A3A8:  MOVLB  2
0A3AA:  SUBWF  x27,W
0A3AC:  MULLW  08
0A3AE:  MOVF   FF3,W
0A3B0:  MOVLB  6
0A3B2:  CLRF   x2D
0A3B4:  MOVWF  x2C
0A3B6:  MOVLW  06
0A3B8:  ADDWF  x2C,W
0A3BA:  MOVWF  01
0A3BC:  MOVLW  00
0A3BE:  ADDWFC x2D,W
0A3C0:  MOVWF  03
0A3C2:  MOVF   01,W
0A3C4:  ADDLW  62
0A3C6:  MOVWF  FE9
0A3C8:  MOVLW  05
0A3CA:  ADDWFC 03,W
0A3CC:  MOVWF  FEA
0A3CE:  MOVLB  1
0A3D0:  CLRF   xF0
0A3D2:  MOVFF  FEF,1EF
0A3D6:  MOVLB  2
....................          } 
....................       } 
....................        
....................       if(RX_Buffer[4]==0x80 && CicloLibre>0){//80, NivelDesfogue 
0A3D8:  MOVF   3C,W
0A3DA:  SUBLW  80
0A3DC:  BNZ   A3E2
0A3DE:  MOVF   x27,F
0A3E0:  BZ    A3E2
....................          //printf("page NivelDes"); 
....................          //SendDataDisplay();      
....................          //NivelDes=CiclosPersonalizados[CicloLibre-1].NivelDesfogue; 
....................       } 
....................        
....................       if(RX_Buffer[4]==0x70 && CicloLibre>0){//70, Iniciar Ciclo 
0A3E2:  MOVF   3C,W
0A3E4:  SUBLW  70
0A3E6:  BTFSS  FD8.2
0A3E8:  BRA    A6A8
0A3EA:  MOVF   x27,F
0A3EC:  BTFSC  FD8.2
0A3EE:  BRA    A6A8
....................          printf("page Funcionamiento"); 
0A3F0:  MOVLW  26
0A3F2:  MOVWF  FF6
0A3F4:  MOVLW  10
0A3F6:  MOVWF  FF7
0A3F8:  MOVLW  00
0A3FA:  MOVWF  FF8
0A3FC:  MOVLB  0
0A3FE:  CALL   3C02
....................          SendDataDisplay();        
0A402:  CALL   3C34
....................          Libre=ON; 
0A406:  BSF    x90.7
....................             ConfiguraCiclo(CiclosPersonalizados[CicloLibre-1].Segundoest-(Testerilizacion[1]*10), 
....................                         CiclosPersonalizados[CicloLibre-1].Segundoest/10, 
....................                         CiclosPersonalizados[CicloLibre-1].Minutoest-(Testerilizacion[3]*10), 
....................                         CiclosPersonalizados[CicloLibre-1].Minutoest/10, 
....................                         CiclosPersonalizados[CicloLibre-1].Segundosec-(Tsecado[1]*10), 
....................                         CiclosPersonalizados[CicloLibre-1].Segundosec/10, 
....................                         CiclosPersonalizados[CicloLibre-1].Minutosec-(Tsecado[3]*10), 
....................                         CiclosPersonalizados[CicloLibre-1].Minutosec/10,0,CicloLibre+10,CiclosPersonalizados[CicloLibre-1].Temperatura);             
0A408:  MOVLW  01
0A40A:  MOVLB  2
0A40C:  SUBWF  x27,W
0A40E:  MULLW  08
0A410:  MOVF   FF3,W
0A412:  MOVLB  6
0A414:  CLRF   x2D
0A416:  MOVWF  x2C
0A418:  MOVLW  02
0A41A:  ADDWF  x2C,W
0A41C:  MOVWF  01
0A41E:  MOVLW  00
0A420:  ADDWFC x2D,W
0A422:  MOVWF  03
0A424:  MOVF   01,W
0A426:  ADDLW  62
0A428:  MOVWF  FE9
0A42A:  MOVLW  05
0A42C:  ADDWFC 03,W
0A42E:  MOVWF  FEA
0A430:  MOVFF  FEF,62C
0A434:  MOVFF  9E,633
0A438:  MOVLW  0A
0A43A:  MOVWF  x34
0A43C:  MOVLB  0
0A43E:  CALL   370E
0A442:  MOVF   01,W
0A444:  MOVLB  6
0A446:  SUBWF  x2C,F
0A448:  MOVLW  01
0A44A:  MOVLB  2
0A44C:  SUBWF  x27,W
0A44E:  MULLW  08
0A450:  MOVF   FF3,W
0A452:  MOVLB  6
0A454:  CLRF   x2E
0A456:  MOVWF  x2D
0A458:  MOVLW  02
0A45A:  ADDWF  x2D,W
0A45C:  MOVWF  01
0A45E:  MOVLW  00
0A460:  ADDWFC x2E,W
0A462:  MOVWF  03
0A464:  MOVF   01,W
0A466:  ADDLW  62
0A468:  MOVWF  FE9
0A46A:  MOVLW  05
0A46C:  ADDWFC 03,W
0A46E:  MOVWF  FEA
0A470:  MOVFF  FEF,635
0A474:  MOVLW  0A
0A476:  MOVWF  x36
0A478:  MOVLB  0
0A47A:  CALL   502E
0A47E:  MOVFF  01,62D
0A482:  MOVLW  01
0A484:  MOVLB  2
0A486:  SUBWF  x27,W
0A488:  MULLW  08
0A48A:  MOVF   FF3,W
0A48C:  MOVLB  6
0A48E:  CLRF   x2F
0A490:  MOVWF  x2E
0A492:  MOVLW  01
0A494:  ADDWF  x2E,W
0A496:  MOVWF  01
0A498:  MOVLW  00
0A49A:  ADDWFC x2F,W
0A49C:  MOVWF  03
0A49E:  MOVF   01,W
0A4A0:  ADDLW  62
0A4A2:  MOVWF  FE9
0A4A4:  MOVLW  05
0A4A6:  ADDWFC 03,W
0A4A8:  MOVWF  FEA
0A4AA:  MOVFF  FEF,62E
0A4AE:  MOVFF  A0,633
0A4B2:  MOVLW  0A
0A4B4:  MOVWF  x34
0A4B6:  MOVLB  0
0A4B8:  CALL   370E
0A4BC:  MOVF   01,W
0A4BE:  MOVLB  6
0A4C0:  SUBWF  x2E,F
0A4C2:  MOVLW  01
0A4C4:  MOVLB  2
0A4C6:  SUBWF  x27,W
0A4C8:  MULLW  08
0A4CA:  MOVF   FF3,W
0A4CC:  MOVLB  6
0A4CE:  CLRF   x30
0A4D0:  MOVWF  x2F
0A4D2:  MOVLW  01
0A4D4:  ADDWF  x2F,W
0A4D6:  MOVWF  01
0A4D8:  MOVLW  00
0A4DA:  ADDWFC x30,W
0A4DC:  MOVWF  03
0A4DE:  MOVF   01,W
0A4E0:  ADDLW  62
0A4E2:  MOVWF  FE9
0A4E4:  MOVLW  05
0A4E6:  ADDWFC 03,W
0A4E8:  MOVWF  FEA
0A4EA:  MOVFF  FEF,635
0A4EE:  MOVLW  0A
0A4F0:  MOVWF  x36
0A4F2:  MOVLB  0
0A4F4:  CALL   502E
0A4F8:  MOVFF  01,62F
0A4FC:  MOVLW  01
0A4FE:  MOVLB  2
0A500:  SUBWF  x27,W
0A502:  MULLW  08
0A504:  MOVF   FF3,W
0A506:  MOVLB  6
0A508:  CLRF   x31
0A50A:  MOVWF  x30
0A50C:  MOVLW  04
0A50E:  ADDWF  x30,W
0A510:  MOVWF  01
0A512:  MOVLW  00
0A514:  ADDWFC x31,W
0A516:  MOVWF  03
0A518:  MOVF   01,W
0A51A:  ADDLW  62
0A51C:  MOVWF  FE9
0A51E:  MOVLW  05
0A520:  ADDWFC 03,W
0A522:  MOVWF  FEA
0A524:  MOVFF  FEF,630
0A528:  MOVFF  A6,633
0A52C:  MOVLW  0A
0A52E:  MOVWF  x34
0A530:  MOVLB  0
0A532:  CALL   370E
0A536:  MOVF   01,W
0A538:  MOVLB  6
0A53A:  SUBWF  x30,F
0A53C:  MOVLW  01
0A53E:  MOVLB  2
0A540:  SUBWF  x27,W
0A542:  MULLW  08
0A544:  MOVF   FF3,W
0A546:  MOVLB  6
0A548:  CLRF   x32
0A54A:  MOVWF  x31
0A54C:  MOVLW  04
0A54E:  ADDWF  x31,W
0A550:  MOVWF  01
0A552:  MOVLW  00
0A554:  ADDWFC x32,W
0A556:  MOVWF  03
0A558:  MOVF   01,W
0A55A:  ADDLW  62
0A55C:  MOVWF  FE9
0A55E:  MOVLW  05
0A560:  ADDWFC 03,W
0A562:  MOVWF  FEA
0A564:  MOVFF  FEF,635
0A568:  MOVLW  0A
0A56A:  MOVWF  x36
0A56C:  MOVLB  0
0A56E:  CALL   502E
0A572:  MOVFF  01,631
0A576:  MOVLW  01
0A578:  MOVLB  2
0A57A:  SUBWF  x27,W
0A57C:  MULLW  08
0A57E:  MOVF   FF3,W
0A580:  MOVLB  6
0A582:  CLRF   x33
0A584:  MOVWF  x32
0A586:  MOVLW  03
0A588:  ADDWF  x32,W
0A58A:  MOVWF  01
0A58C:  MOVLW  00
0A58E:  ADDWFC x33,W
0A590:  MOVWF  03
0A592:  MOVF   01,W
0A594:  ADDLW  62
0A596:  MOVWF  FE9
0A598:  MOVLW  05
0A59A:  ADDWFC 03,W
0A59C:  MOVWF  FEA
0A59E:  MOVFF  FEF,632
0A5A2:  MOVFF  A8,633
0A5A6:  MOVLW  0A
0A5A8:  MOVWF  x34
0A5AA:  MOVLB  0
0A5AC:  CALL   370E
0A5B0:  MOVF   01,W
0A5B2:  MOVLB  6
0A5B4:  SUBWF  x32,F
0A5B6:  MOVLW  01
0A5B8:  MOVLB  2
0A5BA:  SUBWF  x27,W
0A5BC:  MULLW  08
0A5BE:  MOVF   FF3,W
0A5C0:  MOVLB  6
0A5C2:  CLRF   x34
0A5C4:  MOVWF  x33
0A5C6:  MOVLW  03
0A5C8:  ADDWF  x33,W
0A5CA:  MOVWF  01
0A5CC:  MOVLW  00
0A5CE:  ADDWFC x34,W
0A5D0:  MOVWF  03
0A5D2:  MOVF   01,W
0A5D4:  ADDLW  62
0A5D6:  MOVWF  FE9
0A5D8:  MOVLW  05
0A5DA:  ADDWFC 03,W
0A5DC:  MOVWF  FEA
0A5DE:  MOVFF  FEF,635
0A5E2:  MOVLW  0A
0A5E4:  MOVWF  x36
0A5E6:  MOVLB  0
0A5E8:  CALL   502E
0A5EC:  MOVFF  01,633
0A5F0:  MOVLW  0A
0A5F2:  MOVLB  2
0A5F4:  ADDWF  x27,W
0A5F6:  MOVLB  6
0A5F8:  MOVWF  x34
0A5FA:  MOVLW  01
0A5FC:  MOVLB  2
0A5FE:  SUBWF  x27,W
0A600:  MULLW  08
0A602:  MOVF   FF3,W
0A604:  MOVLB  6
0A606:  CLRF   x36
0A608:  MOVWF  x35
0A60A:  MOVLW  62
0A60C:  ADDWF  x35,W
0A60E:  MOVWF  FE9
0A610:  MOVLW  05
0A612:  ADDWFC x36,W
0A614:  MOVWF  FEA
0A616:  MOVFF  FEF,642
0A61A:  MOVFF  62C,638
0A61E:  MOVFF  62D,639
0A622:  MOVFF  62E,63A
0A626:  MOVFF  62F,63B
0A62A:  MOVFF  630,63C
0A62E:  MOVFF  631,63D
0A632:  MOVFF  632,63E
0A636:  MOVFF  01,63F
0A63A:  CLRF   x40
0A63C:  MOVFF  634,641
0A640:  MOVLB  0
0A642:  CALL   50D8
....................          NivelVacio=CiclosPersonalizados[CicloLibre-1].NivelVacio; 
0A646:  MOVLW  01
0A648:  MOVLB  2
0A64A:  SUBWF  x27,W
0A64C:  MULLW  08
0A64E:  MOVF   FF3,W
0A650:  MOVLB  6
0A652:  CLRF   x2D
0A654:  MOVWF  x2C
0A656:  MOVLW  06
0A658:  ADDWF  x2C,W
0A65A:  MOVWF  01
0A65C:  MOVLW  00
0A65E:  ADDWFC x2D,W
0A660:  MOVWF  03
0A662:  MOVF   01,W
0A664:  ADDLW  62
0A666:  MOVWF  FE9
0A668:  MOVLW  05
0A66A:  ADDWFC 03,W
0A66C:  MOVWF  FEA
0A66E:  MOVFF  FEF,21A
....................          CantidadPulsos=CiclosPersonalizados[CicloLibre-1].PulsosVacio; 
0A672:  MOVLW  01
0A674:  MOVLB  2
0A676:  SUBWF  x27,W
0A678:  MULLW  08
0A67A:  MOVF   FF3,W
0A67C:  MOVLB  6
0A67E:  CLRF   x2D
0A680:  MOVWF  x2C
0A682:  MOVLW  05
0A684:  ADDWF  x2C,W
0A686:  MOVWF  01
0A688:  MOVLW  00
0A68A:  ADDWFC x2D,W
0A68C:  MOVWF  03
0A68E:  MOVF   01,W
0A690:  ADDLW  62
0A692:  MOVWF  FE9
0A694:  MOVLW  05
0A696:  ADDWFC 03,W
0A698:  MOVWF  FEA
0A69A:  MOVLB  1
0A69C:  CLRF   xE0
0A69E:  MOVFF  FEF,1DF
....................          Fugas=OFF; 
0A6A2:  MOVLB  0
0A6A4:  BCF    x91.1
0A6A6:  MOVLB  2
0A6A8:  MOVLB  1
....................       } 
....................    } 
.................... //_--------------------------------------------------------------------------------------------------------------------------------------------------------        
....................  
.................... //_--------------------------------------------------------------------------------------------------------------------------------------------------------       
....................    if(Menu==9){//Menu de Pulsos de Vacio 
0A6AA:  MOVF   xD7,W
0A6AC:  SUBLW  09
0A6AE:  BTFSS  FD8.2
0A6B0:  BRA    A87E
....................       printf("fecha.txt=\"Fecha:%02u/%02u/20%02u    Hora: %02u:%02u:%02u\"",Dia,Mes,Year,Hora,Minuto,Segundo); 
0A6B2:  MOVLW  3A
0A6B4:  MOVWF  FF6
0A6B6:  MOVLW  10
0A6B8:  MOVWF  FF7
0A6BA:  MOVLW  00
0A6BC:  MOVWF  FF8
0A6BE:  MOVLW  11
0A6C0:  MOVLB  6
0A6C2:  MOVWF  x31
0A6C4:  MOVLB  0
0A6C6:  CALL   4FD6
0A6CA:  MOVFF  213,631
0A6CE:  MOVLW  01
0A6D0:  MOVLB  6
0A6D2:  MOVWF  x32
0A6D4:  MOVLB  0
0A6D6:  CALL   505A
0A6DA:  MOVLW  2F
0A6DC:  BTFSS  F9E.4
0A6DE:  BRA    A6DC
0A6E0:  MOVWF  FAD
0A6E2:  MOVFF  212,631
0A6E6:  MOVLW  01
0A6E8:  MOVLB  6
0A6EA:  MOVWF  x32
0A6EC:  MOVLB  0
0A6EE:  CALL   505A
0A6F2:  MOVLW  54
0A6F4:  MOVWF  FF6
0A6F6:  MOVLW  10
0A6F8:  MOVWF  FF7
0A6FA:  MOVLW  00
0A6FC:  MOVWF  FF8
0A6FE:  MOVLW  03
0A700:  MOVLB  6
0A702:  MOVWF  x31
0A704:  MOVLB  0
0A706:  CALL   4FD6
0A70A:  MOVFF  211,631
0A70E:  MOVLW  01
0A710:  MOVLB  6
0A712:  MOVWF  x32
0A714:  MOVLB  0
0A716:  CALL   505A
0A71A:  MOVLW  5B
0A71C:  MOVWF  FF6
0A71E:  MOVLW  10
0A720:  MOVWF  FF7
0A722:  MOVLW  00
0A724:  MOVWF  FF8
0A726:  MOVLW  0A
0A728:  MOVLB  6
0A72A:  MOVWF  x31
0A72C:  MOVLB  0
0A72E:  CALL   4FD6
0A732:  MOVFF  214,631
0A736:  MOVLW  01
0A738:  MOVLB  6
0A73A:  MOVWF  x32
0A73C:  MOVLB  0
0A73E:  CALL   505A
0A742:  MOVLW  3A
0A744:  BTFSS  F9E.4
0A746:  BRA    A744
0A748:  MOVWF  FAD
0A74A:  MOVFF  215,631
0A74E:  MOVLW  01
0A750:  MOVLB  6
0A752:  MOVWF  x32
0A754:  MOVLB  0
0A756:  CALL   505A
0A75A:  MOVLW  3A
0A75C:  BTFSS  F9E.4
0A75E:  BRA    A75C
0A760:  MOVWF  FAD
0A762:  MOVFF  216,631
0A766:  MOVLW  01
0A768:  MOVLB  6
0A76A:  MOVWF  x32
0A76C:  MOVLB  0
0A76E:  CALL   505A
0A772:  MOVLW  22
0A774:  BTFSS  F9E.4
0A776:  BRA    A774
0A778:  MOVWF  FAD
....................       SendDataDisplay(); 
0A77A:  CALL   3C34
....................          if(Pulsos<5) 
0A77E:  MOVLB  2
0A780:  MOVF   x28,W
0A782:  SUBLW  04
0A784:  BNC   A78A
....................             Pulsos=15; 
0A786:  MOVLW  0F
0A788:  MOVWF  x28
....................          if(Pulsos>15) 
0A78A:  MOVF   x28,W
0A78C:  SUBLW  0F
0A78E:  BC    A794
....................             Pulsos=5; 
0A790:  MOVLW  05
0A792:  MOVWF  x28
....................           
....................          if(RX_Buffer[4]==0x11){//Selecciono Regresar 
0A794:  MOVF   3C,W
0A796:  SUBLW  11
0A798:  BNZ   A830
....................             Segundos=OFF; 
0A79A:  MOVLB  0
0A79C:  BCF    x8F.3
....................             Minutos=OFF;             
0A79E:  BCF    x8F.2
....................             printf("page CicloPersona"); 
0A7A0:  MOVLW  76
0A7A2:  MOVWF  FF6
0A7A4:  MOVLW  10
0A7A6:  MOVWF  FF7
0A7A8:  MOVLW  00
0A7AA:  MOVWF  FF8
0A7AC:  CALL   3C02
....................             SendDataDisplay();   
0A7B0:  CALL   3C34
....................             if(!GuardaEEPROM){     
0A7B4:  BTFSC  x8F.4
0A7B6:  BRA    A82E
....................                CiclosPersonalizados[CicloLibre-1].PulsosVacio=Pulsos; 
0A7B8:  MOVLW  01
0A7BA:  MOVLB  2
0A7BC:  SUBWF  x27,W
0A7BE:  MULLW  08
0A7C0:  MOVF   FF3,W
0A7C2:  MOVLB  6
0A7C4:  CLRF   x2D
0A7C6:  MOVWF  x2C
0A7C8:  MOVLW  05
0A7CA:  ADDWF  x2C,W
0A7CC:  MOVWF  01
0A7CE:  MOVLW  00
0A7D0:  ADDWFC x2D,W
0A7D2:  MOVWF  03
0A7D4:  MOVF   01,W
0A7D6:  ADDLW  62
0A7D8:  MOVWF  FE9
0A7DA:  MOVLW  05
0A7DC:  ADDWFC 03,W
0A7DE:  MOVWF  FEA
0A7E0:  MOVFF  228,FEF
....................                write_eeprom(105+((CicloLibre-1)*8),Pulsos); 
0A7E4:  MOVLW  01
0A7E6:  MOVLB  2
0A7E8:  SUBWF  x27,W
0A7EA:  MULLW  08
0A7EC:  MOVF   FF3,W
0A7EE:  ADDLW  69
0A7F0:  MOVLB  6
0A7F2:  MOVWF  x2C
0A7F4:  MOVF   FF2,W
0A7F6:  MOVWF  00
0A7F8:  BCF    FF2.7
0A7FA:  CLRF   FAA
0A7FC:  MOVFF  62C,FA9
0A800:  MOVFF  228,FA8
0A804:  BCF    FA6.6
0A806:  BCF    FA6.7
0A808:  BSF    FA6.2
0A80A:  MOVLB  F
0A80C:  MOVLW  55
0A80E:  MOVWF  FA7
0A810:  MOVLW  AA
0A812:  MOVWF  FA7
0A814:  BSF    FA6.1
0A816:  BTFSC  FA6.1
0A818:  BRA    A816
0A81A:  BCF    FA6.2
0A81C:  MOVF   00,W
0A81E:  IORWF  FF2,F
....................                delay_ms(20);             
0A820:  MOVLW  14
0A822:  MOVLB  6
0A824:  MOVWF  x35
0A826:  MOVLB  0
0A828:  CALL   1EDC
....................                //NivelSeleccionado=9990*Nivel; 
....................                GuardaEEPROM=ON; 
0A82C:  BSF    x8F.4
0A82E:  MOVLB  2
....................             } 
....................          } 
....................           
....................          if(RX_Buffer[4]==0x0d){//Tecla Arriba Oprimida 
0A830:  MOVF   3C,W
0A832:  SUBLW  0D
0A834:  BNZ   A83C
....................             Pulsos++; 
0A836:  INCF   x28,F
....................             RX_Buffer[4]=0x00;             
0A838:  CLRF   3C
....................             RX_Buffer2[4]=0x00;             
0A83A:  CLRF   47
....................             //BorraBuffer(); 
....................          } 
....................           
....................          if(RX_Buffer[4]==0x0c){//Tecla Abajo Oprimida 
0A83C:  MOVF   3C,W
0A83E:  SUBLW  0C
0A840:  BNZ   A848
....................             Pulsos--; 
0A842:  DECF   x28,F
....................             RX_Buffer[4]=0x00; 
0A844:  CLRF   3C
....................             RX_Buffer2[4]=0x00;             
0A846:  CLRF   47
....................             //BorraBuffer(); 
....................          } 
....................           
....................       printf("tnivel.txt=\"%u\"",Pulsos); 
0A848:  MOVLW  88
0A84A:  MOVWF  FF6
0A84C:  MOVLW  10
0A84E:  MOVWF  FF7
0A850:  MOVLW  00
0A852:  MOVWF  FF8
0A854:  MOVLW  0C
0A856:  MOVLB  6
0A858:  MOVWF  x31
0A85A:  MOVLB  0
0A85C:  CALL   4FD6
0A860:  MOVFF  228,631
0A864:  MOVLW  1B
0A866:  MOVLB  6
0A868:  MOVWF  x32
0A86A:  MOVLB  0
0A86C:  CALL   505A
0A870:  MOVLW  22
0A872:  BTFSS  F9E.4
0A874:  BRA    A872
0A876:  MOVWF  FAD
....................       SendDataDisplay(); 
0A878:  CALL   3C34
0A87C:  MOVLB  1
....................    } 
.................... //_--------------------------------------------------------------------------------------------------------------------------------------------------------       
....................  
.................... //_--------------------------------------------------------------------------------------------------------------------------------------------------------       
....................    if(Menu==10){//Menu de Usuarios 
0A87E:  MOVF   xD7,W
0A880:  SUBLW  0A
0A882:  BTFSS  FD8.2
0A884:  BRA    AC82
....................       printf("fecha.txt=\"Fecha:%02u/%02u/20%02u    Hora: %02u:%02u:%02u\"",Dia,Mes,Year,Hora,Minuto,Segundo); 
0A886:  MOVLW  98
0A888:  MOVWF  FF6
0A88A:  MOVLW  10
0A88C:  MOVWF  FF7
0A88E:  MOVLW  00
0A890:  MOVWF  FF8
0A892:  MOVLW  11
0A894:  MOVLB  6
0A896:  MOVWF  x31
0A898:  MOVLB  0
0A89A:  CALL   4FD6
0A89E:  MOVFF  213,631
0A8A2:  MOVLW  01
0A8A4:  MOVLB  6
0A8A6:  MOVWF  x32
0A8A8:  MOVLB  0
0A8AA:  CALL   505A
0A8AE:  MOVLW  2F
0A8B0:  BTFSS  F9E.4
0A8B2:  BRA    A8B0
0A8B4:  MOVWF  FAD
0A8B6:  MOVFF  212,631
0A8BA:  MOVLW  01
0A8BC:  MOVLB  6
0A8BE:  MOVWF  x32
0A8C0:  MOVLB  0
0A8C2:  CALL   505A
0A8C6:  MOVLW  B2
0A8C8:  MOVWF  FF6
0A8CA:  MOVLW  10
0A8CC:  MOVWF  FF7
0A8CE:  MOVLW  00
0A8D0:  MOVWF  FF8
0A8D2:  MOVLW  03
0A8D4:  MOVLB  6
0A8D6:  MOVWF  x31
0A8D8:  MOVLB  0
0A8DA:  CALL   4FD6
0A8DE:  MOVFF  211,631
0A8E2:  MOVLW  01
0A8E4:  MOVLB  6
0A8E6:  MOVWF  x32
0A8E8:  MOVLB  0
0A8EA:  CALL   505A
0A8EE:  MOVLW  B9
0A8F0:  MOVWF  FF6
0A8F2:  MOVLW  10
0A8F4:  MOVWF  FF7
0A8F6:  MOVLW  00
0A8F8:  MOVWF  FF8
0A8FA:  MOVLW  0A
0A8FC:  MOVLB  6
0A8FE:  MOVWF  x31
0A900:  MOVLB  0
0A902:  CALL   4FD6
0A906:  MOVFF  214,631
0A90A:  MOVLW  01
0A90C:  MOVLB  6
0A90E:  MOVWF  x32
0A910:  MOVLB  0
0A912:  CALL   505A
0A916:  MOVLW  3A
0A918:  BTFSS  F9E.4
0A91A:  BRA    A918
0A91C:  MOVWF  FAD
0A91E:  MOVFF  215,631
0A922:  MOVLW  01
0A924:  MOVLB  6
0A926:  MOVWF  x32
0A928:  MOVLB  0
0A92A:  CALL   505A
0A92E:  MOVLW  3A
0A930:  BTFSS  F9E.4
0A932:  BRA    A930
0A934:  MOVWF  FAD
0A936:  MOVFF  216,631
0A93A:  MOVLW  01
0A93C:  MOVLB  6
0A93E:  MOVWF  x32
0A940:  MOVLB  0
0A942:  CALL   505A
0A946:  MOVLW  22
0A948:  BTFSS  F9E.4
0A94A:  BRA    A948
0A94C:  MOVWF  FAD
....................       SendDataDisplay(); 
0A94E:  CALL   3C34
....................       GuardaEEPROM=OFF; 
0A952:  BCF    x8F.4
....................       if(ingreso) 
0A954:  BTFSS  x91.0
0A956:  BRA    A962
....................          TipoClave=2; 
0A958:  MOVLW  02
0A95A:  MOVLB  1
0A95C:  MOVWF  x7D
0A95E:  BRA    A966
0A960:  MOVLB  0
....................       else 
....................          TipoClave=0; 
0A962:  MOVLB  1
0A964:  CLRF   x7D
....................        
....................       if(RX_Buffer[4]==0x01){//01, Admin 
0A966:  DECFSZ 3C,W
0A968:  BRA    A9AC
....................          printf("page Clave"); 
0A96A:  MOVLW  D4
0A96C:  MOVWF  FF6
0A96E:  MOVLW  10
0A970:  MOVWF  FF7
0A972:  MOVLW  00
0A974:  MOVWF  FF8
0A976:  MOVLB  0
0A978:  CALL   3C02
....................          SendDataDisplay();        
0A97C:  CALL   3C34
....................          if(!ingreso){ 
0A980:  BTFSC  x91.0
0A982:  BRA    A9A4
....................             usuario="Admin"; 
0A984:  MOVLW  02
0A986:  MOVWF  FEA
0A988:  MOVLW  30
0A98A:  MOVWF  FE9
0A98C:  MOVLW  00
0A98E:  CALL   0184
0A992:  TBLRD*-
0A994:  TBLRD*+
0A996:  MOVF   FF5,W
0A998:  MOVWF  FEE
0A99A:  IORLW  00
0A99C:  BNZ   A994
....................             codigoUsuario=0; 
0A99E:  MOVLB  2
0A9A0:  CLRF   x2A
0A9A2:  MOVLB  0
....................          } 
....................          codigoUsuario2=0; 
0A9A4:  MOVLB  2
0A9A6:  CLRF   x0C
....................       }else if(RX_Buffer[4]==0x02){//02, Operador 1 
0A9A8:  BRA    AC54
0A9AA:  MOVLB  1
0A9AC:  MOVF   3C,W
0A9AE:  SUBLW  02
0A9B0:  BNZ   A9F8
....................          printf("page Clave"); 
0A9B2:  MOVLW  E0
0A9B4:  MOVWF  FF6
0A9B6:  MOVLW  10
0A9B8:  MOVWF  FF7
0A9BA:  MOVLW  00
0A9BC:  MOVWF  FF8
0A9BE:  MOVLB  0
0A9C0:  CALL   3C02
....................          SendDataDisplay();        
0A9C4:  CALL   3C34
....................          if(!ingreso){ 
0A9C8:  BTFSC  x91.0
0A9CA:  BRA    A9EE
....................             usuario="Operador 1"; 
0A9CC:  MOVLW  02
0A9CE:  MOVWF  FEA
0A9D0:  MOVLW  30
0A9D2:  MOVWF  FE9
0A9D4:  MOVLW  00
0A9D6:  CALL   019E
0A9DA:  TBLRD*-
0A9DC:  TBLRD*+
0A9DE:  MOVF   FF5,W
0A9E0:  MOVWF  FEE
0A9E2:  IORLW  00
0A9E4:  BNZ   A9DC
....................             codigoUsuario=1; 
0A9E6:  MOVLW  01
0A9E8:  MOVLB  2
0A9EA:  MOVWF  x2A
0A9EC:  MOVLB  0
....................          } 
....................          codigoUsuario2=1; 
0A9EE:  MOVLW  01
0A9F0:  MOVLB  2
0A9F2:  MOVWF  x0C
....................       }else if(RX_Buffer[4]==0x03){//03, Operador 2 
0A9F4:  BRA    AC54
0A9F6:  MOVLB  1
0A9F8:  MOVF   3C,W
0A9FA:  SUBLW  03
0A9FC:  BNZ   AA44
....................          printf("page Clave"); 
0A9FE:  MOVLW  EC
0AA00:  MOVWF  FF6
0AA02:  MOVLW  10
0AA04:  MOVWF  FF7
0AA06:  MOVLW  00
0AA08:  MOVWF  FF8
0AA0A:  MOVLB  0
0AA0C:  CALL   3C02
....................          SendDataDisplay();        
0AA10:  CALL   3C34
....................          if(!ingreso){ 
0AA14:  BTFSC  x91.0
0AA16:  BRA    AA3A
....................             usuario="Operador 2"; 
0AA18:  MOVLW  02
0AA1A:  MOVWF  FEA
0AA1C:  MOVLW  30
0AA1E:  MOVWF  FE9
0AA20:  MOVLW  00
0AA22:  CALL   01BE
0AA26:  TBLRD*-
0AA28:  TBLRD*+
0AA2A:  MOVF   FF5,W
0AA2C:  MOVWF  FEE
0AA2E:  IORLW  00
0AA30:  BNZ   AA28
....................             codigoUsuario=2; 
0AA32:  MOVLW  02
0AA34:  MOVLB  2
0AA36:  MOVWF  x2A
0AA38:  MOVLB  0
....................          } 
....................          codigoUsuario2=2; 
0AA3A:  MOVLW  02
0AA3C:  MOVLB  2
0AA3E:  MOVWF  x0C
....................       }else if(RX_Buffer[4]==0x04){//04, Operador 3 
0AA40:  BRA    AC54
0AA42:  MOVLB  1
0AA44:  MOVF   3C,W
0AA46:  SUBLW  04
0AA48:  BNZ   AA90
....................          printf("page Clave"); 
0AA4A:  MOVLW  F8
0AA4C:  MOVWF  FF6
0AA4E:  MOVLW  10
0AA50:  MOVWF  FF7
0AA52:  MOVLW  00
0AA54:  MOVWF  FF8
0AA56:  MOVLB  0
0AA58:  CALL   3C02
....................          SendDataDisplay();        
0AA5C:  CALL   3C34
....................          if(!ingreso){ 
0AA60:  BTFSC  x91.0
0AA62:  BRA    AA86
....................             usuario="Operador 3"; 
0AA64:  MOVLW  02
0AA66:  MOVWF  FEA
0AA68:  MOVLW  30
0AA6A:  MOVWF  FE9
0AA6C:  MOVLW  00
0AA6E:  CALL   01DE
0AA72:  TBLRD*-
0AA74:  TBLRD*+
0AA76:  MOVF   FF5,W
0AA78:  MOVWF  FEE
0AA7A:  IORLW  00
0AA7C:  BNZ   AA74
....................             codigoUsuario=3; 
0AA7E:  MOVLW  03
0AA80:  MOVLB  2
0AA82:  MOVWF  x2A
0AA84:  MOVLB  0
....................          } 
....................          codigoUsuario2=3; 
0AA86:  MOVLW  03
0AA88:  MOVLB  2
0AA8A:  MOVWF  x0C
....................       }else if(RX_Buffer[4]==0x05){//05, Operador 4 
0AA8C:  BRA    AC54
0AA8E:  MOVLB  1
0AA90:  MOVF   3C,W
0AA92:  SUBLW  05
0AA94:  BNZ   AADC
....................          printf("page Clave"); 
0AA96:  MOVLW  04
0AA98:  MOVWF  FF6
0AA9A:  MOVLW  11
0AA9C:  MOVWF  FF7
0AA9E:  MOVLW  00
0AAA0:  MOVWF  FF8
0AAA2:  MOVLB  0
0AAA4:  CALL   3C02
....................          SendDataDisplay();        
0AAA8:  CALL   3C34
....................          if(!ingreso){ 
0AAAC:  BTFSC  x91.0
0AAAE:  BRA    AAD2
....................             usuario="Operador 4"; 
0AAB0:  MOVLW  02
0AAB2:  MOVWF  FEA
0AAB4:  MOVLW  30
0AAB6:  MOVWF  FE9
0AAB8:  MOVLW  00
0AABA:  CALL   01FE
0AABE:  TBLRD*-
0AAC0:  TBLRD*+
0AAC2:  MOVF   FF5,W
0AAC4:  MOVWF  FEE
0AAC6:  IORLW  00
0AAC8:  BNZ   AAC0
....................             codigoUsuario=4; 
0AACA:  MOVLW  04
0AACC:  MOVLB  2
0AACE:  MOVWF  x2A
0AAD0:  MOVLB  0
....................          } 
....................          codigoUsuario2=4; 
0AAD2:  MOVLW  04
0AAD4:  MOVLB  2
0AAD6:  MOVWF  x0C
....................       }else if(RX_Buffer[4]==0x06){//06, Operador 5 
0AAD8:  BRA    AC54
0AADA:  MOVLB  1
0AADC:  MOVF   3C,W
0AADE:  SUBLW  06
0AAE0:  BNZ   AB28
....................          printf("page Clave"); 
0AAE2:  MOVLW  10
0AAE4:  MOVWF  FF6
0AAE6:  MOVLW  11
0AAE8:  MOVWF  FF7
0AAEA:  MOVLW  00
0AAEC:  MOVWF  FF8
0AAEE:  MOVLB  0
0AAF0:  CALL   3C02
....................          SendDataDisplay();        
0AAF4:  CALL   3C34
....................          if(!ingreso){ 
0AAF8:  BTFSC  x91.0
0AAFA:  BRA    AB1E
....................             usuario="Operador 5"; 
0AAFC:  MOVLW  02
0AAFE:  MOVWF  FEA
0AB00:  MOVLW  30
0AB02:  MOVWF  FE9
0AB04:  MOVLW  00
0AB06:  CALL   021E
0AB0A:  TBLRD*-
0AB0C:  TBLRD*+
0AB0E:  MOVF   FF5,W
0AB10:  MOVWF  FEE
0AB12:  IORLW  00
0AB14:  BNZ   AB0C
....................             codigoUsuario=5; 
0AB16:  MOVLW  05
0AB18:  MOVLB  2
0AB1A:  MOVWF  x2A
0AB1C:  MOVLB  0
....................          } 
....................          codigoUsuario2=5; 
0AB1E:  MOVLW  05
0AB20:  MOVLB  2
0AB22:  MOVWF  x0C
....................       }else if(RX_Buffer[4]==0x07){//07, Operador 6 
0AB24:  BRA    AC54
0AB26:  MOVLB  1
0AB28:  MOVF   3C,W
0AB2A:  SUBLW  07
0AB2C:  BNZ   AB74
....................          printf("page Clave"); 
0AB2E:  MOVLW  1C
0AB30:  MOVWF  FF6
0AB32:  MOVLW  11
0AB34:  MOVWF  FF7
0AB36:  MOVLW  00
0AB38:  MOVWF  FF8
0AB3A:  MOVLB  0
0AB3C:  CALL   3C02
....................          SendDataDisplay();        
0AB40:  CALL   3C34
....................          if(!ingreso){ 
0AB44:  BTFSC  x91.0
0AB46:  BRA    AB6A
....................             usuario="Operador 6"; 
0AB48:  MOVLW  02
0AB4A:  MOVWF  FEA
0AB4C:  MOVLW  30
0AB4E:  MOVWF  FE9
0AB50:  MOVLW  00
0AB52:  CALL   023E
0AB56:  TBLRD*-
0AB58:  TBLRD*+
0AB5A:  MOVF   FF5,W
0AB5C:  MOVWF  FEE
0AB5E:  IORLW  00
0AB60:  BNZ   AB58
....................             codigoUsuario=6; 
0AB62:  MOVLW  06
0AB64:  MOVLB  2
0AB66:  MOVWF  x2A
0AB68:  MOVLB  0
....................          } 
....................          codigoUsuario2=6; 
0AB6A:  MOVLW  06
0AB6C:  MOVLB  2
0AB6E:  MOVWF  x0C
....................       }else if(RX_Buffer[4]==0x08){//08, Operador 7 
0AB70:  BRA    AC54
0AB72:  MOVLB  1
0AB74:  MOVF   3C,W
0AB76:  SUBLW  08
0AB78:  BNZ   ABC0
....................          printf("page Clave"); 
0AB7A:  MOVLW  28
0AB7C:  MOVWF  FF6
0AB7E:  MOVLW  11
0AB80:  MOVWF  FF7
0AB82:  MOVLW  00
0AB84:  MOVWF  FF8
0AB86:  MOVLB  0
0AB88:  CALL   3C02
....................          SendDataDisplay();        
0AB8C:  CALL   3C34
....................          if(!ingreso){ 
0AB90:  BTFSC  x91.0
0AB92:  BRA    ABB6
....................             usuario="Operador 7"; 
0AB94:  MOVLW  02
0AB96:  MOVWF  FEA
0AB98:  MOVLW  30
0AB9A:  MOVWF  FE9
0AB9C:  MOVLW  00
0AB9E:  CALL   025E
0ABA2:  TBLRD*-
0ABA4:  TBLRD*+
0ABA6:  MOVF   FF5,W
0ABA8:  MOVWF  FEE
0ABAA:  IORLW  00
0ABAC:  BNZ   ABA4
....................             codigoUsuario=7; 
0ABAE:  MOVLW  07
0ABB0:  MOVLB  2
0ABB2:  MOVWF  x2A
0ABB4:  MOVLB  0
....................          } 
....................          codigoUsuario2=7; 
0ABB6:  MOVLW  07
0ABB8:  MOVLB  2
0ABBA:  MOVWF  x0C
....................       }else if(RX_Buffer[4]==0x09){//09, Operador 8 
0ABBC:  BRA    AC54
0ABBE:  MOVLB  1
0ABC0:  MOVF   3C,W
0ABC2:  SUBLW  09
0ABC4:  BNZ   AC0C
....................          printf("page Clave"); 
0ABC6:  MOVLW  34
0ABC8:  MOVWF  FF6
0ABCA:  MOVLW  11
0ABCC:  MOVWF  FF7
0ABCE:  MOVLW  00
0ABD0:  MOVWF  FF8
0ABD2:  MOVLB  0
0ABD4:  CALL   3C02
....................          SendDataDisplay();        
0ABD8:  CALL   3C34
....................          if(!ingreso){ 
0ABDC:  BTFSC  x91.0
0ABDE:  BRA    AC02
....................             usuario="Operador 8"; 
0ABE0:  MOVLW  02
0ABE2:  MOVWF  FEA
0ABE4:  MOVLW  30
0ABE6:  MOVWF  FE9
0ABE8:  MOVLW  00
0ABEA:  CALL   027E
0ABEE:  TBLRD*-
0ABF0:  TBLRD*+
0ABF2:  MOVF   FF5,W
0ABF4:  MOVWF  FEE
0ABF6:  IORLW  00
0ABF8:  BNZ   ABF0
....................             codigoUsuario=8; 
0ABFA:  MOVLW  08
0ABFC:  MOVLB  2
0ABFE:  MOVWF  x2A
0AC00:  MOVLB  0
....................          } 
....................          codigoUsuario2=8; 
0AC02:  MOVLW  08
0AC04:  MOVLB  2
0AC06:  MOVWF  x0C
....................       }else if(RX_Buffer[4]==0x0a){//0a, Tecnico 
0AC08:  BRA    AC54
0AC0A:  MOVLB  1
0AC0C:  MOVF   3C,W
0AC0E:  SUBLW  0A
0AC10:  BNZ   AC56
....................          printf("page Clave"); 
0AC12:  MOVLW  40
0AC14:  MOVWF  FF6
0AC16:  MOVLW  11
0AC18:  MOVWF  FF7
0AC1A:  MOVLW  00
0AC1C:  MOVWF  FF8
0AC1E:  MOVLB  0
0AC20:  CALL   3C02
....................          SendDataDisplay();        
0AC24:  CALL   3C34
....................          if(!ingreso){ 
0AC28:  BTFSC  x91.0
0AC2A:  BRA    AC4E
....................             usuario="Tecnico"; 
0AC2C:  MOVLW  02
0AC2E:  MOVWF  FEA
0AC30:  MOVLW  30
0AC32:  MOVWF  FE9
0AC34:  MOVLW  00
0AC36:  CALL   029E
0AC3A:  TBLRD*-
0AC3C:  TBLRD*+
0AC3E:  MOVF   FF5,W
0AC40:  MOVWF  FEE
0AC42:  IORLW  00
0AC44:  BNZ   AC3C
....................             codigoUsuario=9; 
0AC46:  MOVLW  09
0AC48:  MOVLB  2
0AC4A:  MOVWF  x2A
0AC4C:  MOVLB  0
....................          } 
....................          codigoUsuario2=9; 
0AC4E:  MOVLW  09
0AC50:  MOVLB  2
0AC52:  MOVWF  x0C
0AC54:  MOVLB  1
....................       } 
....................        
....................       if(RX_Buffer[4]==0xaa && ingreso){//aa, Regresar 
0AC56:  MOVF   3C,W
0AC58:  SUBLW  AA
0AC5A:  BNZ   AC82
0AC5C:  MOVLB  0
0AC5E:  BTFSC  x91.0
0AC60:  BRA    AC66
0AC62:  MOVLB  1
0AC64:  BRA    AC82
....................          printf("page Ajustes"); 
0AC66:  MOVLW  4C
0AC68:  MOVWF  FF6
0AC6A:  MOVLW  11
0AC6C:  MOVWF  FF7
0AC6E:  MOVLW  00
0AC70:  MOVWF  FF8
0AC72:  CALL   3C02
....................          SendDataDisplay();        
0AC76:  CALL   3C34
....................          codigoUsuario2=10; 
0AC7A:  MOVLW  0A
0AC7C:  MOVLB  2
0AC7E:  MOVWF  x0C
0AC80:  MOVLB  1
....................       } 
....................    } 
.................... //_--------------------------------------------------------------------------------------------------------------------------------------------------------       
....................  
.................... //_--------------------------------------------------------------------------------------------------------------------------------------------------------       
....................    if(Menu==11){//Menu de Configuraciones 
0AC82:  MOVF   xD7,W
0AC84:  SUBLW  0B
0AC86:  BTFSS  FD8.2
0AC88:  BRA    AEBE
....................       printf("fecha.txt=\"Fecha:%02u/%02u/20%02u    Hora: %02u:%02u:%02u\"",Dia,Mes,Year,Hora,Minuto,Segundo); 
0AC8A:  MOVLW  5A
0AC8C:  MOVWF  FF6
0AC8E:  MOVLW  11
0AC90:  MOVWF  FF7
0AC92:  MOVLW  00
0AC94:  MOVWF  FF8
0AC96:  MOVLW  11
0AC98:  MOVLB  6
0AC9A:  MOVWF  x31
0AC9C:  MOVLB  0
0AC9E:  CALL   4FD6
0ACA2:  MOVFF  213,631
0ACA6:  MOVLW  01
0ACA8:  MOVLB  6
0ACAA:  MOVWF  x32
0ACAC:  MOVLB  0
0ACAE:  CALL   505A
0ACB2:  MOVLW  2F
0ACB4:  BTFSS  F9E.4
0ACB6:  BRA    ACB4
0ACB8:  MOVWF  FAD
0ACBA:  MOVFF  212,631
0ACBE:  MOVLW  01
0ACC0:  MOVLB  6
0ACC2:  MOVWF  x32
0ACC4:  MOVLB  0
0ACC6:  CALL   505A
0ACCA:  MOVLW  74
0ACCC:  MOVWF  FF6
0ACCE:  MOVLW  11
0ACD0:  MOVWF  FF7
0ACD2:  MOVLW  00
0ACD4:  MOVWF  FF8
0ACD6:  MOVLW  03
0ACD8:  MOVLB  6
0ACDA:  MOVWF  x31
0ACDC:  MOVLB  0
0ACDE:  CALL   4FD6
0ACE2:  MOVFF  211,631
0ACE6:  MOVLW  01
0ACE8:  MOVLB  6
0ACEA:  MOVWF  x32
0ACEC:  MOVLB  0
0ACEE:  CALL   505A
0ACF2:  MOVLW  7B
0ACF4:  MOVWF  FF6
0ACF6:  MOVLW  11
0ACF8:  MOVWF  FF7
0ACFA:  MOVLW  00
0ACFC:  MOVWF  FF8
0ACFE:  MOVLW  0A
0AD00:  MOVLB  6
0AD02:  MOVWF  x31
0AD04:  MOVLB  0
0AD06:  CALL   4FD6
0AD0A:  MOVFF  214,631
0AD0E:  MOVLW  01
0AD10:  MOVLB  6
0AD12:  MOVWF  x32
0AD14:  MOVLB  0
0AD16:  CALL   505A
0AD1A:  MOVLW  3A
0AD1C:  BTFSS  F9E.4
0AD1E:  BRA    AD1C
0AD20:  MOVWF  FAD
0AD22:  MOVFF  215,631
0AD26:  MOVLW  01
0AD28:  MOVLB  6
0AD2A:  MOVWF  x32
0AD2C:  MOVLB  0
0AD2E:  CALL   505A
0AD32:  MOVLW  3A
0AD34:  BTFSS  F9E.4
0AD36:  BRA    AD34
0AD38:  MOVWF  FAD
0AD3A:  MOVFF  216,631
0AD3E:  MOVLW  01
0AD40:  MOVLB  6
0AD42:  MOVWF  x32
0AD44:  MOVLB  0
0AD46:  CALL   505A
0AD4A:  MOVLW  22
0AD4C:  BTFSS  F9E.4
0AD4E:  BRA    AD4C
0AD50:  MOVWF  FAD
....................       SendDataDisplay(); 
0AD52:  CALL   3C34
....................       GuardaEEPROM=OFF; 
0AD56:  BCF    x8F.4
....................       printf("tuser.txt=\"%s\"",usuario); 
0AD58:  MOVLW  96
0AD5A:  MOVWF  FF6
0AD5C:  MOVLW  11
0AD5E:  MOVWF  FF7
0AD60:  MOVLW  00
0AD62:  MOVWF  FF8
0AD64:  MOVLW  0B
0AD66:  MOVLB  6
0AD68:  MOVWF  x31
0AD6A:  MOVLB  0
0AD6C:  CALL   4FD6
0AD70:  MOVLW  02
0AD72:  MOVWF  FEA
0AD74:  MOVLW  30
0AD76:  MOVWF  FE9
0AD78:  CALL   5008
0AD7C:  MOVLW  22
0AD7E:  BTFSS  F9E.4
0AD80:  BRA    AD7E
0AD82:  MOVWF  FAD
....................       SendDataDisplay(); 
0AD84:  CALL   3C34
....................       TipoClave=0; 
0AD88:  MOVLB  1
0AD8A:  CLRF   x7D
....................        
....................       if(RX_Buffer[4]==0x01){//01, Ciclos 
0AD8C:  DECFSZ 3C,W
0AD8E:  BRA    ADA8
....................          printf("page Ciclos"); 
0AD90:  MOVLW  A6
0AD92:  MOVWF  FF6
0AD94:  MOVLW  11
0AD96:  MOVWF  FF7
0AD98:  MOVLW  00
0AD9A:  MOVWF  FF8
0AD9C:  MOVLB  0
0AD9E:  CALL   3C02
....................          SendDataDisplay();      
0ADA2:  CALL   3C34
0ADA6:  MOVLB  1
....................       } 
....................        
....................       if(RX_Buffer[4]==0x02){//02, Test de Componentes 
0ADA8:  MOVF   3C,W
0ADAA:  SUBLW  02
0ADAC:  BNZ   ADC6
....................          printf("page Test"); 
0ADAE:  MOVLW  B2
0ADB0:  MOVWF  FF6
0ADB2:  MOVLW  11
0ADB4:  MOVWF  FF7
0ADB6:  MOVLW  00
0ADB8:  MOVWF  FF8
0ADBA:  MOVLB  0
0ADBC:  CALL   3C02
....................          SendDataDisplay();      
0ADC0:  CALL   3C34
0ADC4:  MOVLB  1
....................       } 
....................        
....................       if(RX_Buffer[4]==0x03){//03, Modificacin de clave Usuarios 
0ADC6:  MOVF   3C,W
0ADC8:  SUBLW  03
0ADCA:  BNZ   ADE4
....................          printf("page Usuarios"); 
0ADCC:  MOVLW  BC
0ADCE:  MOVWF  FF6
0ADD0:  MOVLW  11
0ADD2:  MOVWF  FF7
0ADD4:  MOVLW  00
0ADD6:  MOVWF  FF8
0ADD8:  MOVLB  0
0ADDA:  CALL   3C02
....................          SendDataDisplay();      
0ADDE:  CALL   3C34
0ADE2:  MOVLB  1
....................       } 
....................        
....................       if(RX_Buffer[4]==0x04){//03, Modificacin de clave Usuarios 
0ADE4:  MOVF   3C,W
0ADE6:  SUBLW  04
0ADE8:  BNZ   AE02
....................          printf("page Activa"); 
0ADEA:  MOVLW  CA
0ADEC:  MOVWF  FF6
0ADEE:  MOVLW  11
0ADF0:  MOVWF  FF7
0ADF2:  MOVLW  00
0ADF4:  MOVWF  FF8
0ADF6:  MOVLB  0
0ADF8:  CALL   3C02
....................          SendDataDisplay();      
0ADFC:  CALL   3C34
0AE00:  MOVLB  1
....................       } 
....................        
....................       if(RX_Buffer[4]==0x11 && CodigoUsuario==9){//11, Menu Oculto Tecnico 
0AE02:  MOVF   3C,W
0AE04:  SUBLW  11
0AE06:  BNZ   AE32
0AE08:  MOVLB  2
0AE0A:  MOVF   x2A,W
0AE0C:  SUBLW  09
0AE0E:  BTFSC  FD8.2
0AE10:  BRA    AE16
0AE12:  MOVLB  1
0AE14:  BRA    AE32
....................          printf("page Clave"); 
0AE16:  MOVLW  D6
0AE18:  MOVWF  FF6
0AE1A:  MOVLW  11
0AE1C:  MOVWF  FF7
0AE1E:  MOVLW  00
0AE20:  MOVWF  FF8
0AE22:  MOVLB  0
0AE24:  CALL   3C02
....................          SendDataDisplay();  
0AE28:  CALL   3C34
....................          TipoClave=1; 
0AE2C:  MOVLW  01
0AE2E:  MOVLB  1
0AE30:  MOVWF  x7D
....................       } 
....................        
....................       if(RX_Buffer[4]==0x05){//05, Hora y Fecha 
0AE32:  MOVF   3C,W
0AE34:  SUBLW  05
0AE36:  BNZ   AE64
....................          printf("page Fecha"); 
0AE38:  MOVLW  E2
0AE3A:  MOVWF  FF6
0AE3C:  MOVLW  11
0AE3E:  MOVWF  FF7
0AE40:  MOVLW  00
0AE42:  MOVWF  FF8
0AE44:  MOVLB  0
0AE46:  CALL   3C02
....................          SendDataDisplay();      
0AE4A:  CALL   3C34
....................          DiaTx=Dia; 
0AE4E:  MOVFF  213,220
....................          MesTx=Mes; 
0AE52:  MOVFF  212,21F
....................          YearTx=Year; 
0AE56:  MOVFF  211,21E
....................          HoraTx=Hora; 
0AE5A:  MOVFF  214,221
....................          MinutoTx=Minuto; 
0AE5E:  MOVFF  215,222
0AE62:  MOVLB  1
....................       } 
....................        
....................       if(RX_Buffer[4]==0xa0){//a0, Menu Principal 
0AE64:  MOVF   3C,W
0AE66:  SUBLW  A0
0AE68:  BNZ   AE82
....................          printf("page Menu"); 
0AE6A:  MOVLW  EE
0AE6C:  MOVWF  FF6
0AE6E:  MOVLW  11
0AE70:  MOVWF  FF7
0AE72:  MOVLW  00
0AE74:  MOVWF  FF8
0AE76:  MOVLB  0
0AE78:  CALL   3C02
....................          SendDataDisplay();      
0AE7C:  CALL   3C34
0AE80:  MOVLB  1
....................       } 
....................        
....................       if(RX_Buffer[4]==0xb0){//b0, Personalizados 
0AE82:  MOVF   3C,W
0AE84:  SUBLW  B0
0AE86:  BNZ   AEA0
....................          printf("page CicloPersona"); 
0AE88:  MOVLW  F8
0AE8A:  MOVWF  FF6
0AE8C:  MOVLW  11
0AE8E:  MOVWF  FF7
0AE90:  MOVLW  00
0AE92:  MOVWF  FF8
0AE94:  MOVLB  0
0AE96:  CALL   3C02
....................          SendDataDisplay();      
0AE9A:  CALL   3C34
0AE9E:  MOVLB  1
....................       } 
....................        
....................       if(RX_Buffer[4]==0xc0){//c0, Configuraciones 
0AEA0:  MOVF   3C,W
0AEA2:  SUBLW  C0
0AEA4:  BNZ   AEBE
....................          printf("page Ajustes"); 
0AEA6:  MOVLW  0A
0AEA8:  MOVWF  FF6
0AEAA:  MOVLW  12
0AEAC:  MOVWF  FF7
0AEAE:  MOVLW  00
0AEB0:  MOVWF  FF8
0AEB2:  MOVLB  0
0AEB4:  CALL   3C02
....................          SendDataDisplay();      
0AEB8:  CALL   3C34
0AEBC:  MOVLB  1
....................       } 
....................    } 
.................... //_--------------------------------------------------------------------------------------------------------------------------------------------------------       
....................  
.................... //_--------------------------------------------------------------------------------------------------------------------------------------------------------       
....................    if(Menu==12){//Menu de Visualizacion de Ciclos Realizados 
0AEBE:  MOVF   xD7,W
0AEC0:  SUBLW  0C
0AEC2:  BTFSS  FD8.2
0AEC4:  GOTO   BAA4
....................       //printf("fecha.txt=\"Fecha:%02u/%02u/20%02u    Hora: %02u:%02u\"",Dia,Mes,Year,Hora,Minuto); 
....................       //SendDataDisplay(); 
....................       GuardaEEPROM=OFF; 
0AEC8:  MOVLB  0
0AECA:  BCF    x8F.4
....................        
....................       i2c_start();            // Comienzo de la comunicacin 
0AECC:  BSF    FC5.0
0AECE:  BTFSC  FC5.0
0AED0:  BRA    AECE
....................       i2c_write(0xB0);   // Direccin del esclavo en el bus I2C 
0AED2:  MOVLW  B0
0AED4:  MOVLB  6
0AED6:  MOVWF  x39
0AED8:  MOVLB  0
0AEDA:  CALL   2370
....................       i2c_write(0);    // Posicin de donde se leer el dato en el esclavo 
0AEDE:  MOVLB  6
0AEE0:  CLRF   x39
0AEE2:  MOVLB  0
0AEE4:  CALL   2370
....................       i2c_write(0);    // Posicin de donde se leer el dato en el esclavo 
0AEE8:  MOVLB  6
0AEEA:  CLRF   x39
0AEEC:  MOVLB  0
0AEEE:  CALL   2370
....................       i2c_start();            // Reinicio 
0AEF2:  BSF    FC5.1
0AEF4:  BTFSC  FC5.1
0AEF6:  BRA    AEF4
....................       i2c_write(direccion+1); // Direccin del esclavo en modo lectura 
0AEF8:  MOVLW  01
0AEFA:  ADDWF  x70,W
0AEFC:  MOVLB  6
0AEFE:  MOVWF  x2C
0AF00:  MOVWF  x39
0AF02:  MOVLB  0
0AF04:  CALL   2370
....................       dato=i2c_read(0);       // Lectura del dato 
0AF08:  CLRF   00
0AF0A:  CALL   238C
0AF0E:  MOVFF  01,6F
....................       i2c_stop(); 
0AF12:  BSF    FC5.2
0AF14:  BTFSC  FC5.2
0AF16:  BRA    AF14
....................       if(dato==1){ 
0AF18:  DECFSZ x6F,W
0AF1A:  BRA    AF32
....................          printf("estado.txt=\"Enlazando \""); 
0AF1C:  MOVLW  18
0AF1E:  MOVWF  FF6
0AF20:  MOVLW  12
0AF22:  MOVWF  FF7
0AF24:  MOVLW  00
0AF26:  MOVWF  FF8
0AF28:  CALL   3C02
....................          SendDataDisplay();      
0AF2C:  CALL   3C34
....................       }else if(dato==2){ 
0AF30:  BRA    AFD2
0AF32:  MOVF   x6F,W
0AF34:  SUBLW  02
0AF36:  BNZ   AF4E
....................          printf("estado.txt=\"Verificando Com. \""); 
0AF38:  MOVLW  30
0AF3A:  MOVWF  FF6
0AF3C:  MOVLW  12
0AF3E:  MOVWF  FF7
0AF40:  MOVLW  00
0AF42:  MOVWF  FF8
0AF44:  CALL   3C02
....................          SendDataDisplay();     
0AF48:  CALL   3C34
....................       }else if(dato==3){ 
0AF4C:  BRA    AFD2
0AF4E:  MOVF   x6F,W
0AF50:  SUBLW  03
0AF52:  BNZ   AF6A
....................          printf("estado.txt=\"Montando USB\""); 
0AF54:  MOVLW  50
0AF56:  MOVWF  FF6
0AF58:  MOVLW  12
0AF5A:  MOVWF  FF7
0AF5C:  MOVLW  00
0AF5E:  MOVWF  FF8
0AF60:  CALL   3C02
....................          SendDataDisplay();     
0AF64:  CALL   3C34
....................       }else if(dato==4){ 
0AF68:  BRA    AFD2
0AF6A:  MOVF   x6F,W
0AF6C:  SUBLW  04
0AF6E:  BNZ   AF86
....................          printf("estado.txt=\"Creando Archivo\""); 
0AF70:  MOVLW  6A
0AF72:  MOVWF  FF6
0AF74:  MOVLW  12
0AF76:  MOVWF  FF7
0AF78:  MOVLW  00
0AF7A:  MOVWF  FF8
0AF7C:  CALL   3C02
....................          SendDataDisplay();     
0AF80:  CALL   3C34
....................       }else if(dato==5){ 
0AF84:  BRA    AFD2
0AF86:  MOVF   x6F,W
0AF88:  SUBLW  05
0AF8A:  BNZ   AFA2
....................          printf("estado.txt=\"Transfiriendo Datos\""); 
0AF8C:  MOVLW  88
0AF8E:  MOVWF  FF6
0AF90:  MOVLW  12
0AF92:  MOVWF  FF7
0AF94:  MOVLW  00
0AF96:  MOVWF  FF8
0AF98:  CALL   3C02
....................          SendDataDisplay();     
0AF9C:  CALL   3C34
....................       }else if(dato==6){ 
0AFA0:  BRA    AFD2
0AFA2:  MOVF   x6F,W
0AFA4:  SUBLW  06
0AFA6:  BNZ   AFBE
....................          printf("estado.txt=\"Cerrando USB\""); 
0AFA8:  MOVLW  AA
0AFAA:  MOVWF  FF6
0AFAC:  MOVLW  12
0AFAE:  MOVWF  FF7
0AFB0:  MOVLW  00
0AFB2:  MOVWF  FF8
0AFB4:  CALL   3C02
....................          SendDataDisplay();     
0AFB8:  CALL   3C34
....................       }else{ 
0AFBC:  BRA    AFD2
....................          printf("estado.txt=\"Desconectado \""); 
0AFBE:  MOVLW  C4
0AFC0:  MOVWF  FF6
0AFC2:  MOVLW  12
0AFC4:  MOVWF  FF7
0AFC6:  MOVLW  00
0AFC8:  MOVWF  FF8
0AFCA:  CALL   3C02
....................          SendDataDisplay();     
0AFCE:  CALL   3C34
....................       } 
....................        
....................       if(RX_Buffer[6]==0x01){//01, Ciclos 
0AFD2:  DECFSZ 3E,W
0AFD4:  BRA    AFEA
....................          printf("page Ajustes"); 
0AFD6:  MOVLW  E0
0AFD8:  MOVWF  FF6
0AFDA:  MOVLW  12
0AFDC:  MOVWF  FF7
0AFDE:  MOVLW  00
0AFE0:  MOVWF  FF8
0AFE2:  CALL   3C02
....................          SendDataDisplay();      
0AFE6:  CALL   3C34
....................       } 
....................        
....................       if(RX_Buffer[6]==0x02){//02, Exportar 
0AFEA:  MOVF   3E,W
0AFEC:  SUBLW  02
0AFEE:  BNZ   AFF8
....................          RX_Buffer[6]=0x00;   
0AFF0:  CLRF   3E
....................          RX_Buffer2[6]=0x00; 
0AFF2:  CLRF   49
....................          exportarData(); 
0AFF4:  GOTO   567A
....................       } 
....................        
....................       if(RX_Buffer[4]>0x00 && RX_Buffer[5]>0x00){ 
0AFF8:  MOVF   3C,F
0AFFA:  BTFSC  FD8.2
0AFFC:  BRA    B6AC
0AFFE:  MOVF   3D,F
0B000:  BTFSC  FD8.2
0B002:  BRA    B6AC
....................          cicloVisualizado=RX_Buffer[4]-1; 
0B004:  MOVLW  01
0B006:  SUBWF  3C,W
0B008:  MOVLB  2
0B00A:  MOVWF  x18
....................          cicloVisto=RX_Buffer[5]-1; 
0B00C:  MOVLW  01
0B00E:  SUBWF  3D,W
0B010:  MOVWF  x19
....................          RX_Buffer[4]=0x00; 
0B012:  CLRF   3C
....................          RX_Buffer[5]=0x00; 
0B014:  CLRF   3D
....................          RX_Buffer2[4]=0x00; 
0B016:  CLRF   47
....................          RX_Buffer2[5]=0x00; 
0B018:  CLRF   48
....................          diaCiclos=read_ext_eeprom(2+(cicloVisto*320)); 
0B01A:  MOVLB  6
0B01C:  CLRF   x35
0B01E:  MOVFF  219,634
0B022:  MOVLW  01
0B024:  MOVWF  x37
0B026:  MOVLW  40
0B028:  MOVWF  x36
0B02A:  MOVLB  0
0B02C:  CALL   234E
0B030:  MOVFF  02,03
0B034:  MOVF   01,W
0B036:  ADDLW  02
0B038:  MOVLB  6
0B03A:  MOVWF  x2C
0B03C:  MOVLW  00
0B03E:  ADDWFC 02,W
0B040:  MOVWF  x2D
0B042:  MOVWF  x32
0B044:  MOVFF  62C,631
0B048:  MOVLB  0
0B04A:  CALL   23A8
0B04E:  MOVFF  01,291
....................          if(diaCiclos>31) 
0B052:  MOVLB  2
0B054:  MOVF   x91,W
0B056:  SUBLW  1F
0B058:  BC    B05E
....................             diaCiclos=1; 
0B05A:  MOVLW  01
0B05C:  MOVWF  x91
....................          mesCiclos=read_ext_eeprom(3+(cicloVisto*320)); 
0B05E:  MOVLB  6
0B060:  CLRF   x35
0B062:  MOVFF  219,634
0B066:  MOVLW  01
0B068:  MOVWF  x37
0B06A:  MOVLW  40
0B06C:  MOVWF  x36
0B06E:  MOVLB  0
0B070:  CALL   234E
0B074:  MOVFF  02,03
0B078:  MOVF   01,W
0B07A:  ADDLW  03
0B07C:  MOVLB  6
0B07E:  MOVWF  x2C
0B080:  MOVLW  00
0B082:  ADDWFC 02,W
0B084:  MOVWF  x2D
0B086:  MOVWF  x32
0B088:  MOVFF  62C,631
0B08C:  MOVLB  0
0B08E:  CALL   23A8
0B092:  MOVFF  01,292
....................          if(mesCiclos>12) 
0B096:  MOVLB  2
0B098:  MOVF   x92,W
0B09A:  SUBLW  0C
0B09C:  BC    B0A2
....................             mesCiclos=1; 
0B09E:  MOVLW  01
0B0A0:  MOVWF  x92
....................          yearCiclos=read_ext_eeprom(4+(cicloVisto*320)); 
0B0A2:  MOVLB  6
0B0A4:  CLRF   x35
0B0A6:  MOVFF  219,634
0B0AA:  MOVLW  01
0B0AC:  MOVWF  x37
0B0AE:  MOVLW  40
0B0B0:  MOVWF  x36
0B0B2:  MOVLB  0
0B0B4:  CALL   234E
0B0B8:  MOVFF  02,03
0B0BC:  MOVF   01,W
0B0BE:  ADDLW  04
0B0C0:  MOVLB  6
0B0C2:  MOVWF  x2C
0B0C4:  MOVLW  00
0B0C6:  ADDWFC 02,W
0B0C8:  MOVWF  x2D
0B0CA:  MOVWF  x32
0B0CC:  MOVFF  62C,631
0B0D0:  MOVLB  0
0B0D2:  CALL   23A8
0B0D6:  MOVFF  01,293
....................          if(yearCiclos>99) 
0B0DA:  MOVLB  2
0B0DC:  MOVF   x93,W
0B0DE:  SUBLW  63
0B0E0:  BC    B0E6
....................             yearCiclos=19; 
0B0E2:  MOVLW  13
0B0E4:  MOVWF  x93
....................          cicloCiclos=read_ext_eeprom(1+(cicloVisto*320)); 
0B0E6:  MOVLB  6
0B0E8:  CLRF   x35
0B0EA:  MOVFF  219,634
0B0EE:  MOVLW  01
0B0F0:  MOVWF  x37
0B0F2:  MOVLW  40
0B0F4:  MOVWF  x36
0B0F6:  MOVLB  0
0B0F8:  CALL   234E
0B0FC:  MOVFF  02,03
0B100:  MOVF   01,W
0B102:  ADDLW  01
0B104:  MOVLB  6
0B106:  MOVWF  x2C
0B108:  MOVLW  00
0B10A:  ADDWFC 02,W
0B10C:  MOVWF  x2D
0B10E:  MOVWF  x32
0B110:  MOVFF  62C,631
0B114:  MOVLB  0
0B116:  CALL   23A8
0B11A:  MOVFF  01,295
....................          if(cicloCiclos>20) 
0B11E:  MOVLB  2
0B120:  MOVF   x95,W
0B122:  SUBLW  14
0B124:  BC    B12A
....................             cicloCiclos=1; 
0B126:  MOVLW  01
0B128:  MOVWF  x95
....................          usuarioCiclos=read_ext_eeprom((cicloVisto*320)); 
0B12A:  MOVLB  6
0B12C:  CLRF   x35
0B12E:  MOVFF  219,634
0B132:  MOVLW  01
0B134:  MOVWF  x37
0B136:  MOVLW  40
0B138:  MOVWF  x36
0B13A:  MOVLB  0
0B13C:  CALL   234E
0B140:  MOVFF  02,62D
0B144:  MOVFF  01,62C
0B148:  MOVFF  02,632
0B14C:  MOVFF  01,631
0B150:  CALL   23A8
0B154:  MOVFF  01,294
....................          if(usuarioCiclos>10) 
0B158:  MOVLB  2
0B15A:  MOVF   x94,W
0B15C:  SUBLW  0A
0B15E:  BC    B164
....................             usuarioCiclos=1; 
0B160:  MOVLW  01
0B162:  MOVWF  x94
....................          for(i=0;i<7;i++){//Lee Valores para completar la Tabla 
0B164:  MOVLB  1
0B166:  CLRF   xDA
0B168:  MOVF   xDA,W
0B16A:  SUBLW  06
0B16C:  BTFSS  FD8.0
0B16E:  BRA    B6AA
....................             horaCiclos[i]=read_ext_eeprom((cicloVisto*320)+11+((cicloVisualizado+i)*9)); 
0B170:  CLRF   03
0B172:  MOVF   xDA,W
0B174:  ADDLW  7C
0B176:  MOVWF  01
0B178:  MOVLW  02
0B17A:  ADDWFC 03,F
0B17C:  MOVFF  01,62C
0B180:  MOVLB  6
0B182:  MOVFF  03,62D
0B186:  CLRF   x35
0B188:  MOVFF  219,634
0B18C:  MOVLW  01
0B18E:  MOVWF  x37
0B190:  MOVLW  40
0B192:  MOVWF  x36
0B194:  MOVLB  0
0B196:  CALL   234E
0B19A:  MOVFF  02,62F
0B19E:  MOVFF  01,62E
0B1A2:  MOVLW  0B
0B1A4:  MOVLB  6
0B1A6:  ADDWF  x2E,F
0B1A8:  MOVLW  00
0B1AA:  ADDWFC x2F,F
0B1AC:  MOVLB  1
0B1AE:  MOVF   xDA,W
0B1B0:  MOVLB  2
0B1B2:  ADDWF  x18,W
0B1B4:  MULLW  09
0B1B6:  MOVF   FF3,W
0B1B8:  MOVLB  6
0B1BA:  ADDWF  x2E,F
0B1BC:  MOVLW  00
0B1BE:  ADDWFC x2F,F
0B1C0:  MOVFF  62F,632
0B1C4:  MOVFF  62E,631
0B1C8:  MOVLB  0
0B1CA:  CALL   23A8
0B1CE:  MOVFF  62D,FEA
0B1D2:  MOVFF  62C,FE9
0B1D6:  MOVFF  01,FEF
....................             if(horaCiclos[i]>24) 
0B1DA:  CLRF   03
0B1DC:  MOVLB  1
0B1DE:  MOVF   xDA,W
0B1E0:  ADDLW  7C
0B1E2:  MOVWF  FE9
0B1E4:  MOVLW  02
0B1E6:  ADDWFC 03,W
0B1E8:  MOVWF  FEA
0B1EA:  MOVF   FEF,W
0B1EC:  SUBLW  18
0B1EE:  BC    B200
....................                horaCiclos[i]=0; 
0B1F0:  CLRF   03
0B1F2:  MOVF   xDA,W
0B1F4:  ADDLW  7C
0B1F6:  MOVWF  FE9
0B1F8:  MOVLW  02
0B1FA:  ADDWFC 03,W
0B1FC:  MOVWF  FEA
0B1FE:  CLRF   FEF
....................             minutoCiclos[i]=read_ext_eeprom((cicloVisto*320)+12+((cicloVisualizado+i)*9)); 
0B200:  CLRF   03
0B202:  MOVF   xDA,W
0B204:  ADDLW  83
0B206:  MOVWF  01
0B208:  MOVLW  02
0B20A:  ADDWFC 03,F
0B20C:  MOVFF  01,62C
0B210:  MOVLB  6
0B212:  MOVFF  03,62D
0B216:  CLRF   x35
0B218:  MOVFF  219,634
0B21C:  MOVLW  01
0B21E:  MOVWF  x37
0B220:  MOVLW  40
0B222:  MOVWF  x36
0B224:  MOVLB  0
0B226:  CALL   234E
0B22A:  MOVFF  02,62F
0B22E:  MOVFF  01,62E
0B232:  MOVLW  0C
0B234:  MOVLB  6
0B236:  ADDWF  x2E,F
0B238:  MOVLW  00
0B23A:  ADDWFC x2F,F
0B23C:  MOVLB  1
0B23E:  MOVF   xDA,W
0B240:  MOVLB  2
0B242:  ADDWF  x18,W
0B244:  MULLW  09
0B246:  MOVF   FF3,W
0B248:  MOVLB  6
0B24A:  ADDWF  x2E,F
0B24C:  MOVLW  00
0B24E:  ADDWFC x2F,F
0B250:  MOVFF  62F,632
0B254:  MOVFF  62E,631
0B258:  MOVLB  0
0B25A:  CALL   23A8
0B25E:  MOVFF  62D,FEA
0B262:  MOVFF  62C,FE9
0B266:  MOVFF  01,FEF
....................             if(minutoCiclos[i]>59) 
0B26A:  CLRF   03
0B26C:  MOVLB  1
0B26E:  MOVF   xDA,W
0B270:  ADDLW  83
0B272:  MOVWF  FE9
0B274:  MOVLW  02
0B276:  ADDWFC 03,W
0B278:  MOVWF  FEA
0B27A:  MOVF   FEF,W
0B27C:  SUBLW  3B
0B27E:  BC    B290
....................                minutoCiclos[i]=0; 
0B280:  CLRF   03
0B282:  MOVF   xDA,W
0B284:  ADDLW  83
0B286:  MOVWF  FE9
0B288:  MOVLW  02
0B28A:  ADDWFC 03,W
0B28C:  MOVWF  FEA
0B28E:  CLRF   FEF
....................             TCiclos[i]=read_ext_eeprom((cicloVisto*320)+5+((cicloVisualizado+i)*9))+inttofloat(read_ext_eeprom((cicloVisto*320)+6+((cicloVisualizado+i)*9))); 
0B290:  MOVF   xDA,W
0B292:  MULLW  04
0B294:  MOVF   FF3,W
0B296:  CLRF   03
0B298:  ADDLW  44
0B29A:  MOVWF  01
0B29C:  MOVLW  02
0B29E:  ADDWFC 03,F
0B2A0:  MOVFF  01,62C
0B2A4:  MOVLB  6
0B2A6:  MOVFF  03,62D
0B2AA:  CLRF   x35
0B2AC:  MOVFF  219,634
0B2B0:  MOVLW  01
0B2B2:  MOVWF  x37
0B2B4:  MOVLW  40
0B2B6:  MOVWF  x36
0B2B8:  MOVLB  0
0B2BA:  CALL   234E
0B2BE:  MOVFF  02,62F
0B2C2:  MOVFF  01,62E
0B2C6:  MOVLW  05
0B2C8:  MOVLB  6
0B2CA:  ADDWF  x2E,F
0B2CC:  MOVLW  00
0B2CE:  ADDWFC x2F,F
0B2D0:  MOVLB  1
0B2D2:  MOVF   xDA,W
0B2D4:  MOVLB  2
0B2D6:  ADDWF  x18,W
0B2D8:  MULLW  09
0B2DA:  MOVF   FF3,W
0B2DC:  MOVLB  6
0B2DE:  ADDWF  x2E,F
0B2E0:  MOVLW  00
0B2E2:  ADDWFC x2F,F
0B2E4:  MOVFF  62F,632
0B2E8:  MOVFF  62E,631
0B2EC:  MOVLB  0
0B2EE:  CALL   23A8
0B2F2:  MOVFF  01,62E
0B2F6:  MOVLB  6
0B2F8:  CLRF   x35
0B2FA:  MOVFF  219,634
0B2FE:  MOVLW  01
0B300:  MOVWF  x37
0B302:  MOVLW  40
0B304:  MOVWF  x36
0B306:  MOVLB  0
0B308:  CALL   234E
0B30C:  MOVFF  02,630
0B310:  MOVFF  01,62F
0B314:  MOVLW  06
0B316:  MOVLB  6
0B318:  ADDWF  x2F,F
0B31A:  MOVLW  00
0B31C:  ADDWFC x30,F
0B31E:  MOVLB  1
0B320:  MOVF   xDA,W
0B322:  MOVLB  2
0B324:  ADDWF  x18,W
0B326:  MULLW  09
0B328:  MOVF   FF3,W
0B32A:  MOVLB  6
0B32C:  ADDWF  x2F,F
0B32E:  MOVLW  00
0B330:  ADDWFC x30,F
0B332:  MOVFF  630,632
0B336:  MOVFF  62F,631
0B33A:  MOVLB  0
0B33C:  CALL   23A8
0B340:  MOVFF  01,62F
0B344:  MOVFF  01,630
0B348:  CALL   23F6
0B34C:  MOVFF  03,632
0B350:  MOVFF  02,631
0B354:  MOVFF  01,630
0B358:  MOVFF  00,62F
0B35C:  MOVLB  6
0B35E:  CLRF   x3F
0B360:  MOVFF  62E,63E
0B364:  MOVLB  0
0B366:  CALL   1EA6
0B36A:  BCF    FD8.1
0B36C:  MOVFF  03,641
0B370:  MOVFF  02,640
0B374:  MOVFF  01,63F
0B378:  MOVFF  00,63E
0B37C:  MOVFF  632,645
0B380:  MOVFF  631,644
0B384:  MOVFF  630,643
0B388:  MOVFF  62F,642
0B38C:  CALL   2062
0B390:  MOVFF  62D,FEA
0B394:  MOVFF  62C,FE9
0B398:  MOVFF  00,FEF
0B39C:  MOVFF  01,FEC
0B3A0:  MOVFF  02,FEC
0B3A4:  MOVFF  03,FEC
....................             if(TCiclos[i]>150) 
0B3A8:  MOVLB  1
0B3AA:  MOVF   xDA,W
0B3AC:  MULLW  04
0B3AE:  MOVF   FF3,W
0B3B0:  CLRF   03
0B3B2:  ADDLW  44
0B3B4:  MOVWF  FE9
0B3B6:  MOVLW  02
0B3B8:  ADDWFC 03,W
0B3BA:  MOVWF  FEA
0B3BC:  MOVFF  FEF,634
0B3C0:  MOVFF  FEC,635
0B3C4:  MOVFF  FEC,636
0B3C8:  MOVFF  FEC,637
0B3CC:  MOVLB  6
0B3CE:  CLRF   x33
0B3D0:  CLRF   x32
0B3D2:  MOVLW  16
0B3D4:  MOVWF  x31
0B3D6:  MOVLW  86
0B3D8:  MOVWF  x30
0B3DA:  MOVLB  0
0B3DC:  CALL   2436
0B3E0:  BNC   B400
....................                TCiclos[i]=0; 
0B3E2:  MOVLB  1
0B3E4:  MOVF   xDA,W
0B3E6:  MULLW  04
0B3E8:  MOVF   FF3,W
0B3EA:  CLRF   03
0B3EC:  ADDLW  44
0B3EE:  MOVWF  FE9
0B3F0:  MOVLW  02
0B3F2:  ADDWFC 03,W
0B3F4:  MOVWF  FEA
0B3F6:  CLRF   FEF
0B3F8:  CLRF   FEC
0B3FA:  CLRF   FEC
0B3FC:  CLRF   FEC
0B3FE:  MOVLB  0
....................             PcCiclos[i]=make16(read_ext_eeprom((cicloVisto*320)+7+((cicloVisualizado+i)*9)),read_ext_eeprom((cicloVisto*320)+8+((cicloVisualizado+i)*9))); 
0B400:  BCF    FD8.0
0B402:  MOVLB  1
0B404:  RLCF   xDA,W
0B406:  CLRF   03
0B408:  ADDLW  60
0B40A:  MOVWF  01
0B40C:  MOVLW  02
0B40E:  ADDWFC 03,F
0B410:  MOVFF  01,62C
0B414:  MOVLB  6
0B416:  MOVFF  03,62D
0B41A:  CLRF   x35
0B41C:  MOVFF  219,634
0B420:  MOVLW  01
0B422:  MOVWF  x37
0B424:  MOVLW  40
0B426:  MOVWF  x36
0B428:  MOVLB  0
0B42A:  CALL   234E
0B42E:  MOVFF  02,62F
0B432:  MOVFF  01,62E
0B436:  MOVLW  07
0B438:  MOVLB  6
0B43A:  ADDWF  x2E,F
0B43C:  MOVLW  00
0B43E:  ADDWFC x2F,F
0B440:  MOVLB  1
0B442:  MOVF   xDA,W
0B444:  MOVLB  2
0B446:  ADDWF  x18,W
0B448:  MULLW  09
0B44A:  MOVF   FF3,W
0B44C:  MOVLB  6
0B44E:  ADDWF  x2E,F
0B450:  MOVLW  00
0B452:  ADDWFC x2F,F
0B454:  MOVFF  62F,632
0B458:  MOVFF  62E,631
0B45C:  MOVLB  0
0B45E:  CALL   23A8
0B462:  MOVFF  01,62E
0B466:  MOVLB  6
0B468:  CLRF   x35
0B46A:  MOVFF  219,634
0B46E:  MOVLW  01
0B470:  MOVWF  x37
0B472:  MOVLW  40
0B474:  MOVWF  x36
0B476:  MOVLB  0
0B478:  CALL   234E
0B47C:  MOVFF  02,630
0B480:  MOVFF  01,62F
0B484:  MOVLW  08
0B486:  MOVLB  6
0B488:  ADDWF  x2F,F
0B48A:  MOVLW  00
0B48C:  ADDWFC x30,F
0B48E:  MOVLB  1
0B490:  MOVF   xDA,W
0B492:  MOVLB  2
0B494:  ADDWF  x18,W
0B496:  MULLW  09
0B498:  MOVF   FF3,W
0B49A:  MOVLB  6
0B49C:  ADDWF  x2F,F
0B49E:  MOVLW  00
0B4A0:  ADDWFC x30,F
0B4A2:  MOVFF  630,632
0B4A6:  MOVFF  62F,631
0B4AA:  MOVLB  0
0B4AC:  CALL   23A8
0B4B0:  MOVFF  62D,FEA
0B4B4:  MOVFF  62C,FE9
0B4B8:  MOVFF  62E,FEC
0B4BC:  MOVF   FED,F
0B4BE:  MOVFF  01,FEF
....................             if(PcCiclos[i]>400) 
0B4C2:  BCF    FD8.0
0B4C4:  MOVLB  1
0B4C6:  RLCF   xDA,W
0B4C8:  CLRF   03
0B4CA:  ADDLW  60
0B4CC:  MOVWF  FE9
0B4CE:  MOVLW  02
0B4D0:  ADDWFC 03,W
0B4D2:  MOVWF  FEA
0B4D4:  MOVFF  FEC,62D
0B4D8:  MOVF   FED,F
0B4DA:  MOVFF  FEF,62C
0B4DE:  MOVLB  6
0B4E0:  MOVF   x2D,W
0B4E2:  SUBLW  00
0B4E4:  BC    B50A
0B4E6:  XORLW  FF
0B4E8:  BNZ   B4F0
0B4EA:  MOVF   x2C,W
0B4EC:  SUBLW  90
0B4EE:  BC    B50A
....................                PcCiclos[i]=0; 
0B4F0:  BCF    FD8.0
0B4F2:  MOVLB  1
0B4F4:  RLCF   xDA,W
0B4F6:  CLRF   03
0B4F8:  ADDLW  60
0B4FA:  MOVWF  FE9
0B4FC:  MOVLW  02
0B4FE:  ADDWFC 03,W
0B500:  MOVWF  FEA
0B502:  CLRF   FEC
0B504:  MOVF   FED,F
0B506:  CLRF   FEF
0B508:  MOVLB  6
....................             PpcCiclos[i]=make16(read_ext_eeprom((cicloVisto*320)+9+((cicloVisualizado+i)*9)),read_ext_eeprom((cicloVisto*320)+10+((cicloVisualizado+i)*9))); 
0B50A:  BCF    FD8.0
0B50C:  MOVLB  1
0B50E:  RLCF   xDA,W
0B510:  CLRF   03
0B512:  ADDLW  6E
0B514:  MOVWF  01
0B516:  MOVLW  02
0B518:  ADDWFC 03,F
0B51A:  MOVFF  01,62C
0B51E:  MOVLB  6
0B520:  MOVFF  03,62D
0B524:  CLRF   x35
0B526:  MOVFF  219,634
0B52A:  MOVLW  01
0B52C:  MOVWF  x37
0B52E:  MOVLW  40
0B530:  MOVWF  x36
0B532:  MOVLB  0
0B534:  CALL   234E
0B538:  MOVFF  02,62F
0B53C:  MOVFF  01,62E
0B540:  MOVLW  09
0B542:  MOVLB  6
0B544:  ADDWF  x2E,F
0B546:  MOVLW  00
0B548:  ADDWFC x2F,F
0B54A:  MOVLB  1
0B54C:  MOVF   xDA,W
0B54E:  MOVLB  2
0B550:  ADDWF  x18,W
0B552:  MULLW  09
0B554:  MOVF   FF3,W
0B556:  MOVLB  6
0B558:  ADDWF  x2E,F
0B55A:  MOVLW  00
0B55C:  ADDWFC x2F,F
0B55E:  MOVFF  62F,632
0B562:  MOVFF  62E,631
0B566:  MOVLB  0
0B568:  CALL   23A8
0B56C:  MOVFF  01,62E
0B570:  MOVLB  6
0B572:  CLRF   x35
0B574:  MOVFF  219,634
0B578:  MOVLW  01
0B57A:  MOVWF  x37
0B57C:  MOVLW  40
0B57E:  MOVWF  x36
0B580:  MOVLB  0
0B582:  CALL   234E
0B586:  MOVFF  02,630
0B58A:  MOVFF  01,62F
0B58E:  MOVLW  0A
0B590:  MOVLB  6
0B592:  ADDWF  x2F,F
0B594:  MOVLW  00
0B596:  ADDWFC x30,F
0B598:  MOVLB  1
0B59A:  MOVF   xDA,W
0B59C:  MOVLB  2
0B59E:  ADDWF  x18,W
0B5A0:  MULLW  09
0B5A2:  MOVF   FF3,W
0B5A4:  MOVLB  6
0B5A6:  ADDWF  x2F,F
0B5A8:  MOVLW  00
0B5AA:  ADDWFC x30,F
0B5AC:  MOVFF  630,632
0B5B0:  MOVFF  62F,631
0B5B4:  MOVLB  0
0B5B6:  CALL   23A8
0B5BA:  MOVFF  62D,FEA
0B5BE:  MOVFF  62C,FE9
0B5C2:  MOVFF  62E,FEC
0B5C6:  MOVF   FED,F
0B5C8:  MOVFF  01,FEF
....................             if(PpcCiclos[i]>400) 
0B5CC:  BCF    FD8.0
0B5CE:  MOVLB  1
0B5D0:  RLCF   xDA,W
0B5D2:  CLRF   03
0B5D4:  ADDLW  6E
0B5D6:  MOVWF  FE9
0B5D8:  MOVLW  02
0B5DA:  ADDWFC 03,W
0B5DC:  MOVWF  FEA
0B5DE:  MOVFF  FEC,62D
0B5E2:  MOVF   FED,F
0B5E4:  MOVFF  FEF,62C
0B5E8:  MOVLB  6
0B5EA:  MOVF   x2D,W
0B5EC:  SUBLW  00
0B5EE:  BC    B614
0B5F0:  XORLW  FF
0B5F2:  BNZ   B5FA
0B5F4:  MOVF   x2C,W
0B5F6:  SUBLW  90
0B5F8:  BC    B614
....................                PpcCiclos[i]=0; 
0B5FA:  BCF    FD8.0
0B5FC:  MOVLB  1
0B5FE:  RLCF   xDA,W
0B600:  CLRF   03
0B602:  ADDLW  6E
0B604:  MOVWF  FE9
0B606:  MOVLW  02
0B608:  ADDWFC 03,W
0B60A:  MOVWF  FEA
0B60C:  CLRF   FEC
0B60E:  MOVF   FED,F
0B610:  CLRF   FEF
0B612:  MOVLB  6
....................             ACiclos[i]=read_ext_eeprom((cicloVisto*320)+13+((cicloVisualizado+i)*9)); 
0B614:  CLRF   03
0B616:  MOVLB  1
0B618:  MOVF   xDA,W
0B61A:  ADDLW  8A
0B61C:  MOVWF  01
0B61E:  MOVLW  02
0B620:  ADDWFC 03,F
0B622:  MOVFF  01,62C
0B626:  MOVLB  6
0B628:  MOVFF  03,62D
0B62C:  CLRF   x35
0B62E:  MOVFF  219,634
0B632:  MOVLW  01
0B634:  MOVWF  x37
0B636:  MOVLW  40
0B638:  MOVWF  x36
0B63A:  MOVLB  0
0B63C:  CALL   234E
0B640:  MOVFF  02,62F
0B644:  MOVFF  01,62E
0B648:  MOVLW  0D
0B64A:  MOVLB  6
0B64C:  ADDWF  x2E,F
0B64E:  MOVLW  00
0B650:  ADDWFC x2F,F
0B652:  MOVLB  1
0B654:  MOVF   xDA,W
0B656:  MOVLB  2
0B658:  ADDWF  x18,W
0B65A:  MULLW  09
0B65C:  MOVF   FF3,W
0B65E:  MOVLB  6
0B660:  ADDWF  x2E,F
0B662:  MOVLW  00
0B664:  ADDWFC x2F,F
0B666:  MOVFF  62F,632
0B66A:  MOVFF  62E,631
0B66E:  MOVLB  0
0B670:  CALL   23A8
0B674:  MOVFF  62D,FEA
0B678:  MOVFF  62C,FE9
0B67C:  MOVFF  01,FEF
....................             if(ACiclos[i]>20) 
0B680:  CLRF   03
0B682:  MOVLB  1
0B684:  MOVF   xDA,W
0B686:  ADDLW  8A
0B688:  MOVWF  FE9
0B68A:  MOVLW  02
0B68C:  ADDWFC 03,W
0B68E:  MOVWF  FEA
0B690:  MOVF   FEF,W
0B692:  SUBLW  14
0B694:  BC    B6A6
....................                ACiclos[i]=0; 
0B696:  CLRF   03
0B698:  MOVF   xDA,W
0B69A:  ADDLW  8A
0B69C:  MOVWF  FE9
0B69E:  MOVLW  02
0B6A0:  ADDWFC 03,W
0B6A2:  MOVWF  FEA
0B6A4:  CLRF   FEF
0B6A6:  INCF   xDA,F
0B6A8:  BRA    B168
0B6AA:  MOVLB  0
....................          } 
....................       } 
....................        
....................       //Imprime Valores Estaticos 
....................       printf("fecha.txt=\"%02u/%02u/%02u\"",diaCiclos,mesCiclos,yearCiclos); 
0B6AC:  MOVLW  EE
0B6AE:  MOVWF  FF6
0B6B0:  MOVLW  12
0B6B2:  MOVWF  FF7
0B6B4:  MOVLW  00
0B6B6:  MOVWF  FF8
0B6B8:  MOVLW  0B
0B6BA:  MOVLB  6
0B6BC:  MOVWF  x31
0B6BE:  MOVLB  0
0B6C0:  CALL   4FD6
0B6C4:  MOVFF  291,631
0B6C8:  MOVLW  01
0B6CA:  MOVLB  6
0B6CC:  MOVWF  x32
0B6CE:  MOVLB  0
0B6D0:  CALL   505A
0B6D4:  MOVLW  2F
0B6D6:  BTFSS  F9E.4
0B6D8:  BRA    B6D6
0B6DA:  MOVWF  FAD
0B6DC:  MOVFF  292,631
0B6E0:  MOVLW  01
0B6E2:  MOVLB  6
0B6E4:  MOVWF  x32
0B6E6:  MOVLB  0
0B6E8:  CALL   505A
0B6EC:  MOVLW  2F
0B6EE:  BTFSS  F9E.4
0B6F0:  BRA    B6EE
0B6F2:  MOVWF  FAD
0B6F4:  MOVFF  293,631
0B6F8:  MOVLW  01
0B6FA:  MOVLB  6
0B6FC:  MOVWF  x32
0B6FE:  MOVLB  0
0B700:  CALL   505A
0B704:  MOVLW  22
0B706:  BTFSS  F9E.4
0B708:  BRA    B706
0B70A:  MOVWF  FAD
....................       SendDataDisplay(); 
0B70C:  CALL   3C34
....................        
....................       printf("ciclo.txt=\"%02u\"",cicloCiclos); 
0B710:  MOVLW  0A
0B712:  MOVWF  FF6
0B714:  MOVLW  13
0B716:  MOVWF  FF7
0B718:  MOVLW  00
0B71A:  MOVWF  FF8
0B71C:  MOVLW  0B
0B71E:  MOVLB  6
0B720:  MOVWF  x31
0B722:  MOVLB  0
0B724:  CALL   4FD6
0B728:  MOVFF  295,631
0B72C:  MOVLW  01
0B72E:  MOVLB  6
0B730:  MOVWF  x32
0B732:  MOVLB  0
0B734:  CALL   505A
0B738:  MOVLW  22
0B73A:  BTFSS  F9E.4
0B73C:  BRA    B73A
0B73E:  MOVWF  FAD
....................       SendDataDisplay(); 
0B740:  CALL   3C34
....................        
....................       printf("t0.txt=\"Ciclo %02u\"",cicloVisto+1); 
0B744:  MOVLW  01
0B746:  MOVLB  2
0B748:  ADDWF  x19,W
0B74A:  MOVLB  6
0B74C:  MOVWF  x2C
0B74E:  MOVLW  1C
0B750:  MOVWF  FF6
0B752:  MOVLW  13
0B754:  MOVWF  FF7
0B756:  MOVLW  00
0B758:  MOVWF  FF8
0B75A:  MOVLW  0E
0B75C:  MOVWF  x31
0B75E:  MOVLB  0
0B760:  CALL   4FD6
0B764:  MOVFF  62C,631
0B768:  MOVLW  01
0B76A:  MOVLB  6
0B76C:  MOVWF  x32
0B76E:  MOVLB  0
0B770:  CALL   505A
0B774:  MOVLW  22
0B776:  BTFSS  F9E.4
0B778:  BRA    B776
0B77A:  MOVWF  FAD
....................       SendDataDisplay(); 
0B77C:  CALL   3C34
....................        
....................       if(usuarioCiclos==0){ 
0B780:  MOVLB  2
0B782:  MOVF   x94,F
0B784:  BNZ   B7A0
....................          printf("usuario.txt=\"Admin\""); 
0B786:  MOVLW  30
0B788:  MOVWF  FF6
0B78A:  MOVLW  13
0B78C:  MOVWF  FF7
0B78E:  MOVLW  00
0B790:  MOVWF  FF8
0B792:  MOVLB  0
0B794:  CALL   3C02
....................          SendDataDisplay(); 
0B798:  CALL   3C34
....................       }else if(usuarioCiclos>0 && usuarioCiclos<9){ 
0B79C:  BRA    B7FE
0B79E:  MOVLB  2
0B7A0:  MOVF   x94,F
0B7A2:  BZ    B7E2
0B7A4:  MOVF   x94,W
0B7A6:  SUBLW  08
0B7A8:  BNC   B7E2
....................          printf("usuario.txt=\"Operador%u\"",usuarioCiclos); 
0B7AA:  MOVLW  44
0B7AC:  MOVWF  FF6
0B7AE:  MOVLW  13
0B7B0:  MOVWF  FF7
0B7B2:  MOVLW  00
0B7B4:  MOVWF  FF8
0B7B6:  MOVLW  15
0B7B8:  MOVLB  6
0B7BA:  MOVWF  x31
0B7BC:  MOVLB  0
0B7BE:  CALL   4FD6
0B7C2:  MOVFF  294,631
0B7C6:  MOVLW  1B
0B7C8:  MOVLB  6
0B7CA:  MOVWF  x32
0B7CC:  MOVLB  0
0B7CE:  CALL   505A
0B7D2:  MOVLW  22
0B7D4:  BTFSS  F9E.4
0B7D6:  BRA    B7D4
0B7D8:  MOVWF  FAD
....................          SendDataDisplay(); 
0B7DA:  CALL   3C34
....................       }else if(usuarioCiclos==9){ 
0B7DE:  BRA    B7FE
0B7E0:  MOVLB  2
0B7E2:  MOVF   x94,W
0B7E4:  SUBLW  09
0B7E6:  BNZ   B800
....................          printf("usuario.txt=\"Tecnico\""); 
0B7E8:  MOVLW  5E
0B7EA:  MOVWF  FF6
0B7EC:  MOVLW  13
0B7EE:  MOVWF  FF7
0B7F0:  MOVLW  00
0B7F2:  MOVWF  FF8
0B7F4:  MOVLB  0
0B7F6:  CALL   3C02
....................          SendDataDisplay(); 
0B7FA:  CALL   3C34
0B7FE:  MOVLB  2
....................       } 
....................        
....................       //Imprime Valores Dinamicos 
....................       for(i=0;i<7;i++){ 
0B800:  MOVLB  1
0B802:  CLRF   xDA
0B804:  MOVF   xDA,W
0B806:  SUBLW  06
0B808:  BTFSS  FD8.0
0B80A:  BRA    BAA4
....................          printf("hora%u.txt=\"%02u.  %02u:%02u\"",i+1,cicloVisualizado+i+1,horaCiclos[i],minutoCiclos[i]); 
0B80C:  MOVLW  01
0B80E:  ADDWF  xDA,W
0B810:  MOVLB  6
0B812:  MOVWF  x2C
0B814:  MOVLB  1
0B816:  MOVF   xDA,W
0B818:  MOVLB  2
0B81A:  ADDWF  x18,W
0B81C:  ADDLW  01
0B81E:  MOVLB  6
0B820:  MOVWF  x2D
0B822:  CLRF   03
0B824:  MOVLB  1
0B826:  MOVF   xDA,W
0B828:  ADDLW  7C
0B82A:  MOVWF  FE9
0B82C:  MOVLW  02
0B82E:  ADDWFC 03,W
0B830:  MOVWF  FEA
0B832:  MOVFF  FEF,62E
0B836:  CLRF   03
0B838:  MOVF   xDA,W
0B83A:  ADDLW  83
0B83C:  MOVWF  FE9
0B83E:  MOVLW  02
0B840:  ADDWFC 03,W
0B842:  MOVWF  FEA
0B844:  MOVFF  FEF,62F
0B848:  MOVLW  74
0B84A:  MOVWF  FF6
0B84C:  MOVLW  13
0B84E:  MOVWF  FF7
0B850:  MOVLW  00
0B852:  MOVWF  FF8
0B854:  MOVLW  04
0B856:  MOVLB  6
0B858:  MOVWF  x31
0B85A:  MOVLB  0
0B85C:  CALL   4FD6
0B860:  MOVFF  62C,631
0B864:  MOVLW  1B
0B866:  MOVLB  6
0B868:  MOVWF  x32
0B86A:  MOVLB  0
0B86C:  CALL   505A
0B870:  MOVLW  7A
0B872:  MOVWF  FF6
0B874:  MOVLW  13
0B876:  MOVWF  FF7
0B878:  MOVLW  00
0B87A:  MOVWF  FF8
0B87C:  MOVLW  06
0B87E:  MOVLB  6
0B880:  MOVWF  x31
0B882:  MOVLB  0
0B884:  CALL   4FD6
0B888:  MOVFF  62D,631
0B88C:  MOVLW  01
0B88E:  MOVLB  6
0B890:  MOVWF  x32
0B892:  MOVLB  0
0B894:  CALL   505A
0B898:  MOVLW  84
0B89A:  MOVWF  FF6
0B89C:  MOVLW  13
0B89E:  MOVWF  FF7
0B8A0:  MOVLW  00
0B8A2:  MOVWF  FF8
0B8A4:  MOVLW  03
0B8A6:  MOVLB  6
0B8A8:  MOVWF  x31
0B8AA:  MOVLB  0
0B8AC:  CALL   4FD6
0B8B0:  MOVFF  62E,631
0B8B4:  MOVLW  01
0B8B6:  MOVLB  6
0B8B8:  MOVWF  x32
0B8BA:  MOVLB  0
0B8BC:  CALL   505A
0B8C0:  MOVLW  3A
0B8C2:  BTFSS  F9E.4
0B8C4:  BRA    B8C2
0B8C6:  MOVWF  FAD
0B8C8:  MOVFF  62F,631
0B8CC:  MOVLW  01
0B8CE:  MOVLB  6
0B8D0:  MOVWF  x32
0B8D2:  MOVLB  0
0B8D4:  CALL   505A
0B8D8:  MOVLW  22
0B8DA:  BTFSS  F9E.4
0B8DC:  BRA    B8DA
0B8DE:  MOVWF  FAD
....................          SendDataDisplay(); 
0B8E0:  CALL   3C34
....................          printf("T%u.txt=\"%3.1fC\"",i+1,TCiclos[i]); 
0B8E4:  MOVLW  01
0B8E6:  MOVLB  1
0B8E8:  ADDWF  xDA,W
0B8EA:  MOVLB  6
0B8EC:  MOVWF  x2C
0B8EE:  MOVLB  1
0B8F0:  MOVF   xDA,W
0B8F2:  MULLW  04
0B8F4:  MOVF   FF3,W
0B8F6:  CLRF   03
0B8F8:  ADDLW  44
0B8FA:  MOVWF  FE9
0B8FC:  MOVLW  02
0B8FE:  ADDWFC 03,W
0B900:  MOVWF  FEA
0B902:  MOVFF  FEF,62D
0B906:  MOVFF  FEC,62E
0B90A:  MOVFF  FEC,62F
0B90E:  MOVFF  FEC,630
0B912:  MOVLW  54
0B914:  BTFSS  F9E.4
0B916:  BRA    B914
0B918:  MOVWF  FAD
0B91A:  MOVFF  62C,631
0B91E:  MOVLW  1B
0B920:  MOVLB  6
0B922:  MOVWF  x32
0B924:  MOVLB  0
0B926:  CALL   505A
0B92A:  MOVLW  95
0B92C:  MOVWF  FF6
0B92E:  MOVLW  13
0B930:  MOVWF  FF7
0B932:  MOVLW  00
0B934:  MOVWF  FF8
0B936:  MOVLW  06
0B938:  MOVLB  6
0B93A:  MOVWF  x31
0B93C:  MOVLB  0
0B93E:  CALL   4FD6
0B942:  MOVLW  02
0B944:  MOVWF  FE9
0B946:  MOVFF  630,634
0B94A:  MOVFF  62F,633
0B94E:  MOVFF  62E,632
0B952:  MOVFF  62D,631
0B956:  MOVLW  01
0B958:  MOVLB  6
0B95A:  MOVWF  x35
0B95C:  MOVLB  0
0B95E:  CALL   52C2
0B962:  MOVLW  A0
0B964:  MOVWF  FF6
0B966:  MOVLW  13
0B968:  MOVWF  FF7
0B96A:  MOVLW  00
0B96C:  MOVWF  FF8
0B96E:  MOVLW  03
0B970:  MOVLB  6
0B972:  MOVWF  x31
0B974:  MOVLB  0
0B976:  CALL   4FD6
....................          SendDataDisplay(); 
0B97A:  CALL   3C34
....................          printf("Pc%u.txt=\"%03LukPa\"",i+1,PcCiclos[i]); 
0B97E:  MOVLW  01
0B980:  MOVLB  1
0B982:  ADDWF  xDA,W
0B984:  MOVLB  6
0B986:  MOVWF  x2C
0B988:  BCF    FD8.0
0B98A:  MOVLB  1
0B98C:  RLCF   xDA,W
0B98E:  CLRF   03
0B990:  ADDLW  60
0B992:  MOVWF  FE9
0B994:  MOVLW  02
0B996:  ADDWFC 03,W
0B998:  MOVWF  FEA
0B99A:  MOVFF  FEC,62E
0B99E:  MOVF   FED,F
0B9A0:  MOVFF  FEF,62D
0B9A4:  MOVLW  50
0B9A6:  BTFSS  F9E.4
0B9A8:  BRA    B9A6
0B9AA:  MOVWF  FAD
0B9AC:  MOVLW  63
0B9AE:  BTFSS  F9E.4
0B9B0:  BRA    B9AE
0B9B2:  MOVWF  FAD
0B9B4:  MOVFF  62C,631
0B9B8:  MOVLW  1B
0B9BA:  MOVLB  6
0B9BC:  MOVWF  x32
0B9BE:  MOVLB  0
0B9C0:  CALL   505A
0B9C4:  MOVLW  A8
0B9C6:  MOVWF  FF6
0B9C8:  MOVLW  13
0B9CA:  MOVWF  FF7
0B9CC:  MOVLW  00
0B9CE:  MOVWF  FF8
0B9D0:  MOVLW  06
0B9D2:  MOVLB  6
0B9D4:  MOVWF  x31
0B9D6:  MOVLB  0
0B9D8:  CALL   4FD6
0B9DC:  MOVLW  0A
0B9DE:  MOVWF  FE9
0B9E0:  MOVFF  62E,631
0B9E4:  MOVFF  62D,630
0B9E8:  CALL   5136
0B9EC:  MOVLW  B3
0B9EE:  MOVWF  FF6
0B9F0:  MOVLW  13
0B9F2:  MOVWF  FF7
0B9F4:  MOVLW  00
0B9F6:  MOVWF  FF8
0B9F8:  MOVLW  04
0B9FA:  MOVLB  6
0B9FC:  MOVWF  x31
0B9FE:  MOVLB  0
0BA00:  CALL   4FD6
....................          SendDataDisplay(); 
0BA04:  CALL   3C34
....................          printf("Ppc%u.txt=\"%03LukPa\"",i+1,PpcCiclos[i]); 
0BA08:  MOVLW  01
0BA0A:  MOVLB  1
0BA0C:  ADDWF  xDA,W
0BA0E:  MOVLB  6
0BA10:  MOVWF  x2C
0BA12:  BCF    FD8.0
0BA14:  MOVLB  1
0BA16:  RLCF   xDA,W
0BA18:  CLRF   03
0BA1A:  ADDLW  6E
0BA1C:  MOVWF  FE9
0BA1E:  MOVLW  02
0BA20:  ADDWFC 03,W
0BA22:  MOVWF  FEA
0BA24:  MOVFF  FEC,62E
0BA28:  MOVF   FED,F
0BA2A:  MOVFF  FEF,62D
0BA2E:  MOVLW  B8
0BA30:  MOVWF  FF6
0BA32:  MOVLW  13
0BA34:  MOVWF  FF7
0BA36:  MOVLW  00
0BA38:  MOVWF  FF8
0BA3A:  MOVLW  03
0BA3C:  MOVLB  6
0BA3E:  MOVWF  x31
0BA40:  MOVLB  0
0BA42:  CALL   4FD6
0BA46:  MOVFF  62C,631
0BA4A:  MOVLW  1B
0BA4C:  MOVLB  6
0BA4E:  MOVWF  x32
0BA50:  MOVLB  0
0BA52:  CALL   505A
0BA56:  MOVLW  BD
0BA58:  MOVWF  FF6
0BA5A:  MOVLW  13
0BA5C:  MOVWF  FF7
0BA5E:  MOVLW  00
0BA60:  MOVWF  FF8
0BA62:  MOVLW  06
0BA64:  MOVLB  6
0BA66:  MOVWF  x31
0BA68:  MOVLB  0
0BA6A:  CALL   4FD6
0BA6E:  MOVLW  0A
0BA70:  MOVWF  FE9
0BA72:  MOVFF  62E,631
0BA76:  MOVFF  62D,630
0BA7A:  CALL   5136
0BA7E:  MOVLW  C8
0BA80:  MOVWF  FF6
0BA82:  MOVLW  13
0BA84:  MOVWF  FF7
0BA86:  MOVLW  00
0BA88:  MOVWF  FF8
0BA8A:  MOVLW  04
0BA8C:  MOVLB  6
0BA8E:  MOVWF  x31
0BA90:  MOVLB  0
0BA92:  CALL   4FD6
....................          SendDataDisplay();          
0BA96:  CALL   3C34
....................          codificaAlarma(); 
0BA9A:  GOTO   58D4
0BA9E:  MOVLB  1
0BAA0:  INCF   xDA,F
0BAA2:  BRA    B804
....................       }   
....................    } 
.................... //_--------------------------------------------------------------------------------------------------------------------------------------------------------       
....................  
.................... //_--------------------------------------------------------------------------------------------------------------------------------------------------------       
....................     if(Menu==13){//Menu de Nivel de Desfogue 
0BAA4:  MOVF   xD7,W
0BAA6:  SUBLW  0D
0BAA8:  BTFSS  FD8.2
0BAAA:  BRA    BC7C
....................       printf("fecha.txt=\"Fecha:%02u/%02u/20%02u    Hora: %02u:%02u:%02u\"",Dia,Mes,Year,Hora,Minuto,Segundo); 
0BAAC:  MOVLW  CE
0BAAE:  MOVWF  FF6
0BAB0:  MOVLW  13
0BAB2:  MOVWF  FF7
0BAB4:  MOVLW  00
0BAB6:  MOVWF  FF8
0BAB8:  MOVLW  11
0BABA:  MOVLB  6
0BABC:  MOVWF  x31
0BABE:  MOVLB  0
0BAC0:  CALL   4FD6
0BAC4:  MOVFF  213,631
0BAC8:  MOVLW  01
0BACA:  MOVLB  6
0BACC:  MOVWF  x32
0BACE:  MOVLB  0
0BAD0:  CALL   505A
0BAD4:  MOVLW  2F
0BAD6:  BTFSS  F9E.4
0BAD8:  BRA    BAD6
0BADA:  MOVWF  FAD
0BADC:  MOVFF  212,631
0BAE0:  MOVLW  01
0BAE2:  MOVLB  6
0BAE4:  MOVWF  x32
0BAE6:  MOVLB  0
0BAE8:  CALL   505A
0BAEC:  MOVLW  E8
0BAEE:  MOVWF  FF6
0BAF0:  MOVLW  13
0BAF2:  MOVWF  FF7
0BAF4:  MOVLW  00
0BAF6:  MOVWF  FF8
0BAF8:  MOVLW  03
0BAFA:  MOVLB  6
0BAFC:  MOVWF  x31
0BAFE:  MOVLB  0
0BB00:  CALL   4FD6
0BB04:  MOVFF  211,631
0BB08:  MOVLW  01
0BB0A:  MOVLB  6
0BB0C:  MOVWF  x32
0BB0E:  MOVLB  0
0BB10:  CALL   505A
0BB14:  MOVLW  EF
0BB16:  MOVWF  FF6
0BB18:  MOVLW  13
0BB1A:  MOVWF  FF7
0BB1C:  MOVLW  00
0BB1E:  MOVWF  FF8
0BB20:  MOVLW  0A
0BB22:  MOVLB  6
0BB24:  MOVWF  x31
0BB26:  MOVLB  0
0BB28:  CALL   4FD6
0BB2C:  MOVFF  214,631
0BB30:  MOVLW  01
0BB32:  MOVLB  6
0BB34:  MOVWF  x32
0BB36:  MOVLB  0
0BB38:  CALL   505A
0BB3C:  MOVLW  3A
0BB3E:  BTFSS  F9E.4
0BB40:  BRA    BB3E
0BB42:  MOVWF  FAD
0BB44:  MOVFF  215,631
0BB48:  MOVLW  01
0BB4A:  MOVLB  6
0BB4C:  MOVWF  x32
0BB4E:  MOVLB  0
0BB50:  CALL   505A
0BB54:  MOVLW  3A
0BB56:  BTFSS  F9E.4
0BB58:  BRA    BB56
0BB5A:  MOVWF  FAD
0BB5C:  MOVFF  216,631
0BB60:  MOVLW  01
0BB62:  MOVLB  6
0BB64:  MOVWF  x32
0BB66:  MOVLB  0
0BB68:  CALL   505A
0BB6C:  MOVLW  22
0BB6E:  BTFSS  F9E.4
0BB70:  BRA    BB6E
0BB72:  MOVWF  FAD
....................       SendDataDisplay(); 
0BB74:  CALL   3C34
....................          if(NivelDes<1) 
0BB78:  MOVLB  2
0BB7A:  MOVF   x06,F
0BB7C:  BNZ   BB82
....................             NivelDes=6; 
0BB7E:  MOVLW  06
0BB80:  MOVWF  x06
....................          if(NivelDes>6) 
0BB82:  MOVF   x06,W
0BB84:  SUBLW  06
0BB86:  BC    BB8C
....................             NivelDes=1; 
0BB88:  MOVLW  01
0BB8A:  MOVWF  x06
....................           
....................          if(RX_Buffer[4]==0x11){//Selecciono Regresar 
0BB8C:  MOVF   3C,W
0BB8E:  SUBLW  11
0BB90:  BNZ   BC2E
....................             Segundos=OFF; 
0BB92:  MOVLB  0
0BB94:  BCF    x8F.3
....................             Minutos=OFF;             
0BB96:  BCF    x8F.2
....................             tiempo_secado=0; 
0BB98:  MOVLB  1
0BB9A:  CLRF   xE5
....................             printf("page CicloPersona"); 
0BB9C:  MOVLW  0A
0BB9E:  MOVWF  FF6
0BBA0:  MOVLW  14
0BBA2:  MOVWF  FF7
0BBA4:  MOVLW  00
0BBA6:  MOVWF  FF8
0BBA8:  MOVLB  0
0BBAA:  CALL   3C02
....................             SendDataDisplay();   
0BBAE:  CALL   3C34
....................             if(!GuardaEEPROM){     
0BBB2:  BTFSC  x8F.4
0BBB4:  BRA    BC2C
....................                CiclosPersonalizados[CicloLibre-1].NivelDesfogue=NivelDes; 
0BBB6:  MOVLW  01
0BBB8:  MOVLB  2
0BBBA:  SUBWF  x27,W
0BBBC:  MULLW  08
0BBBE:  MOVF   FF3,W
0BBC0:  MOVLB  6
0BBC2:  CLRF   x2D
0BBC4:  MOVWF  x2C
0BBC6:  MOVLW  07
0BBC8:  ADDWF  x2C,W
0BBCA:  MOVWF  01
0BBCC:  MOVLW  00
0BBCE:  ADDWFC x2D,W
0BBD0:  MOVWF  03
0BBD2:  MOVF   01,W
0BBD4:  ADDLW  62
0BBD6:  MOVWF  FE9
0BBD8:  MOVLW  05
0BBDA:  ADDWFC 03,W
0BBDC:  MOVWF  FEA
0BBDE:  MOVFF  206,FEF
....................                write_eeprom(107+((CicloLibre-1)*8),NivelDes); 
0BBE2:  MOVLW  01
0BBE4:  MOVLB  2
0BBE6:  SUBWF  x27,W
0BBE8:  MULLW  08
0BBEA:  MOVF   FF3,W
0BBEC:  ADDLW  6B
0BBEE:  MOVLB  6
0BBF0:  MOVWF  x2C
0BBF2:  MOVF   FF2,W
0BBF4:  MOVWF  00
0BBF6:  BCF    FF2.7
0BBF8:  CLRF   FAA
0BBFA:  MOVFF  62C,FA9
0BBFE:  MOVFF  206,FA8
0BC02:  BCF    FA6.6
0BC04:  BCF    FA6.7
0BC06:  BSF    FA6.2
0BC08:  MOVLB  F
0BC0A:  MOVLW  55
0BC0C:  MOVWF  FA7
0BC0E:  MOVLW  AA
0BC10:  MOVWF  FA7
0BC12:  BSF    FA6.1
0BC14:  BTFSC  FA6.1
0BC16:  BRA    BC14
0BC18:  BCF    FA6.2
0BC1A:  MOVF   00,W
0BC1C:  IORWF  FF2,F
....................                delay_ms(20);             
0BC1E:  MOVLW  14
0BC20:  MOVLB  6
0BC22:  MOVWF  x35
0BC24:  MOVLB  0
0BC26:  CALL   1EDC
....................                GuardaEEPROM=ON; 
0BC2A:  BSF    x8F.4
0BC2C:  MOVLB  2
....................             } 
....................          } 
....................           
....................          if(RX_Buffer[4]==0x0d){//Tecla Arriba Oprimida 
0BC2E:  MOVF   3C,W
0BC30:  SUBLW  0D
0BC32:  BNZ   BC3A
....................             NivelDes++; 
0BC34:  INCF   x06,F
....................             RX_Buffer[4]=0x00;             
0BC36:  CLRF   3C
....................             RX_Buffer2[4]=0x00;                        
0BC38:  CLRF   47
....................          } 
....................           
....................          if(RX_Buffer[4]==0x0c){//Tecla Abajo Oprimida 
0BC3A:  MOVF   3C,W
0BC3C:  SUBLW  0C
0BC3E:  BNZ   BC46
....................             NivelDes--; 
0BC40:  DECF   x06,F
....................             RX_Buffer[4]=0x00; 
0BC42:  CLRF   3C
....................             RX_Buffer2[4]=0x00;                         
0BC44:  CLRF   47
....................          } 
....................           
....................       printf("tnivel.txt=\"%u\"",NivelDes); 
0BC46:  MOVLW  1C
0BC48:  MOVWF  FF6
0BC4A:  MOVLW  14
0BC4C:  MOVWF  FF7
0BC4E:  MOVLW  00
0BC50:  MOVWF  FF8
0BC52:  MOVLW  0C
0BC54:  MOVLB  6
0BC56:  MOVWF  x31
0BC58:  MOVLB  0
0BC5A:  CALL   4FD6
0BC5E:  MOVFF  206,631
0BC62:  MOVLW  1B
0BC64:  MOVLB  6
0BC66:  MOVWF  x32
0BC68:  MOVLB  0
0BC6A:  CALL   505A
0BC6E:  MOVLW  22
0BC70:  BTFSS  F9E.4
0BC72:  BRA    BC70
0BC74:  MOVWF  FAD
....................       SendDataDisplay(); 
0BC76:  CALL   3C34
0BC7A:  MOVLB  1
....................    } 
.................... //_--------------------------------------------------------------------------------------------------------------------------------------------------------       
....................  
.................... //_--------------------------------------------------------------------------------------------------------------------------------------------------------       
....................     if(Menu==14){//Menu de Activacion de Ciclos 
0BC7C:  MOVF   xD7,W
0BC7E:  SUBLW  0E
0BC80:  BTFSS  FD8.2
0BC82:  BRA    BEAE
....................       printf("fecha.txt=\"Fecha:%02u/%02u/20%02u    Hora: %02u:%02u:%02u\"",Dia,Mes,Year,Hora,Minuto,Segundo); 
0BC84:  MOVLW  2C
0BC86:  MOVWF  FF6
0BC88:  MOVLW  14
0BC8A:  MOVWF  FF7
0BC8C:  MOVLW  00
0BC8E:  MOVWF  FF8
0BC90:  MOVLW  11
0BC92:  MOVLB  6
0BC94:  MOVWF  x31
0BC96:  MOVLB  0
0BC98:  CALL   4FD6
0BC9C:  MOVFF  213,631
0BCA0:  MOVLW  01
0BCA2:  MOVLB  6
0BCA4:  MOVWF  x32
0BCA6:  MOVLB  0
0BCA8:  CALL   505A
0BCAC:  MOVLW  2F
0BCAE:  BTFSS  F9E.4
0BCB0:  BRA    BCAE
0BCB2:  MOVWF  FAD
0BCB4:  MOVFF  212,631
0BCB8:  MOVLW  01
0BCBA:  MOVLB  6
0BCBC:  MOVWF  x32
0BCBE:  MOVLB  0
0BCC0:  CALL   505A
0BCC4:  MOVLW  46
0BCC6:  MOVWF  FF6
0BCC8:  MOVLW  14
0BCCA:  MOVWF  FF7
0BCCC:  MOVLW  00
0BCCE:  MOVWF  FF8
0BCD0:  MOVLW  03
0BCD2:  MOVLB  6
0BCD4:  MOVWF  x31
0BCD6:  MOVLB  0
0BCD8:  CALL   4FD6
0BCDC:  MOVFF  211,631
0BCE0:  MOVLW  01
0BCE2:  MOVLB  6
0BCE4:  MOVWF  x32
0BCE6:  MOVLB  0
0BCE8:  CALL   505A
0BCEC:  MOVLW  4D
0BCEE:  MOVWF  FF6
0BCF0:  MOVLW  14
0BCF2:  MOVWF  FF7
0BCF4:  MOVLW  00
0BCF6:  MOVWF  FF8
0BCF8:  MOVLW  0A
0BCFA:  MOVLB  6
0BCFC:  MOVWF  x31
0BCFE:  MOVLB  0
0BD00:  CALL   4FD6
0BD04:  MOVFF  214,631
0BD08:  MOVLW  01
0BD0A:  MOVLB  6
0BD0C:  MOVWF  x32
0BD0E:  MOVLB  0
0BD10:  CALL   505A
0BD14:  MOVLW  3A
0BD16:  BTFSS  F9E.4
0BD18:  BRA    BD16
0BD1A:  MOVWF  FAD
0BD1C:  MOVFF  215,631
0BD20:  MOVLW  01
0BD22:  MOVLB  6
0BD24:  MOVWF  x32
0BD26:  MOVLB  0
0BD28:  CALL   505A
0BD2C:  MOVLW  3A
0BD2E:  BTFSS  F9E.4
0BD30:  BRA    BD2E
0BD32:  MOVWF  FAD
0BD34:  MOVFF  216,631
0BD38:  MOVLW  01
0BD3A:  MOVLB  6
0BD3C:  MOVWF  x32
0BD3E:  MOVLB  0
0BD40:  CALL   505A
0BD44:  MOVLW  22
0BD46:  BTFSS  F9E.4
0BD48:  BRA    BD46
0BD4A:  MOVWF  FAD
....................       SendDataDisplay(); 
0BD4C:  CALL   3C34
....................        
....................       if(RX_Buffer[4]==0xaa){ 
0BD50:  MOVF   3C,W
0BD52:  SUBLW  AA
0BD54:  BNZ   BDDC
....................          for(i=0;i<30;i++){ 
0BD56:  MOVLB  1
0BD58:  CLRF   xDA
0BD5A:  MOVF   xDA,W
0BD5C:  SUBLW  1D
0BD5E:  BNC   BDC2
....................             write_eeprom(50+i,estados[i]); 
0BD60:  MOVLW  32
0BD62:  ADDWF  xDA,W
0BD64:  MOVLB  6
0BD66:  MOVWF  x2C
0BD68:  MOVFF  1DA,62D
0BD6C:  MOVLW  02
0BD6E:  MOVWF  x2F
0BD70:  MOVLW  96
0BD72:  MOVWF  x2E
0BD74:  MOVLB  0
0BD76:  CALL   231C
0BD7A:  MOVLW  00
0BD7C:  BTFSC  01.0
0BD7E:  MOVLW  01
0BD80:  MOVLB  6
0BD82:  MOVWF  x2D
0BD84:  MOVF   FF2,W
0BD86:  MOVWF  00
0BD88:  BCF    FF2.7
0BD8A:  CLRF   FAA
0BD8C:  MOVFF  62C,FA9
0BD90:  MOVFF  62D,FA8
0BD94:  BCF    FA6.6
0BD96:  BCF    FA6.7
0BD98:  BSF    FA6.2
0BD9A:  MOVLB  F
0BD9C:  MOVLW  55
0BD9E:  MOVWF  FA7
0BDA0:  MOVLW  AA
0BDA2:  MOVWF  FA7
0BDA4:  BSF    FA6.1
0BDA6:  BTFSC  FA6.1
0BDA8:  BRA    BDA6
0BDAA:  BCF    FA6.2
0BDAC:  MOVF   00,W
0BDAE:  IORWF  FF2,F
....................             delay_ms(10); 
0BDB0:  MOVLW  0A
0BDB2:  MOVLB  6
0BDB4:  MOVWF  x35
0BDB6:  MOVLB  0
0BDB8:  CALL   1EDC
0BDBC:  MOVLB  1
0BDBE:  INCF   xDA,F
0BDC0:  BRA    BD5A
....................          } 
....................          printf("page Ajustes"); 
0BDC2:  MOVLW  68
0BDC4:  MOVWF  FF6
0BDC6:  MOVLW  14
0BDC8:  MOVWF  FF7
0BDCA:  MOVLW  00
0BDCC:  MOVWF  FF8
0BDCE:  MOVLB  0
0BDD0:  CALL   3C02
....................          SendDataDisplay();  
0BDD4:  CALL   3C34
....................          RX_Buffer[4]=0x00; 
0BDD8:  CLRF   3C
....................          RX_Buffer2[4]=0x00; 
0BDDA:  CLRF   47
....................       } 
....................        
....................       for(i=0;i<30;i++){ 
0BDDC:  MOVLB  1
0BDDE:  CLRF   xDA
0BDE0:  MOVF   xDA,W
0BDE2:  SUBLW  1D
0BDE4:  BNC   BEAE
....................          if(RX_Buffer[4]==i+1){ 
0BDE6:  MOVLW  01
0BDE8:  ADDWF  xDA,W
0BDEA:  SUBWF  3C,W
0BDEC:  BNZ   BE26
....................             estados[i]=!estados[i]; 
0BDEE:  MOVFF  1DA,62D
0BDF2:  MOVLW  02
0BDF4:  MOVLB  6
0BDF6:  MOVWF  x2F
0BDF8:  MOVLW  96
0BDFA:  MOVWF  x2E
0BDFC:  MOVLB  0
0BDFE:  CALL   231C
0BE02:  MOVLW  00
0BE04:  BTFSS  01.0
0BE06:  MOVLW  01
0BE08:  MOVLB  6
0BE0A:  MOVWF  x2C
0BE0C:  MOVFF  1DA,62E
0BE10:  MOVWF  x2F
0BE12:  MOVLW  02
0BE14:  MOVWF  x31
0BE16:  MOVLW  96
0BE18:  MOVWF  x30
0BE1A:  MOVLB  0
0BE1C:  CALL   22DA
....................             RX_Buffer[4]=0x00; 
0BE20:  CLRF   3C
....................             RX_Buffer2[4]=0x00; 
0BE22:  CLRF   47
0BE24:  MOVLB  1
....................          } 
....................           
....................          if(estados[i]){ 
0BE26:  MOVFF  1DA,62D
0BE2A:  MOVLW  02
0BE2C:  MOVLB  6
0BE2E:  MOVWF  x2F
0BE30:  MOVLW  96
0BE32:  MOVWF  x2E
0BE34:  MOVLB  0
0BE36:  CALL   231C
0BE3A:  BTFSS  01.0
0BE3C:  BRA    BE74
....................             printf("b%u.bco=2016",i); 
0BE3E:  MOVLW  62
0BE40:  BTFSS  F9E.4
0BE42:  BRA    BE40
0BE44:  MOVWF  FAD
0BE46:  MOVFF  1DA,631
0BE4A:  MOVLW  1B
0BE4C:  MOVLB  6
0BE4E:  MOVWF  x32
0BE50:  MOVLB  0
0BE52:  CALL   505A
0BE56:  MOVLW  79
0BE58:  MOVWF  FF6
0BE5A:  MOVLW  14
0BE5C:  MOVWF  FF7
0BE5E:  MOVLW  00
0BE60:  MOVWF  FF8
0BE62:  MOVLW  09
0BE64:  MOVLB  6
0BE66:  MOVWF  x31
0BE68:  MOVLB  0
0BE6A:  CALL   4FD6
....................             SendDataDisplay();              
0BE6E:  CALL   3C34
....................          }else{ 
0BE72:  BRA    BEA8
....................             printf("b%u.bco=63488",i); 
0BE74:  MOVLW  62
0BE76:  BTFSS  F9E.4
0BE78:  BRA    BE76
0BE7A:  MOVWF  FAD
0BE7C:  MOVFF  1DA,631
0BE80:  MOVLW  1B
0BE82:  MOVLB  6
0BE84:  MOVWF  x32
0BE86:  MOVLB  0
0BE88:  CALL   505A
0BE8C:  MOVLW  87
0BE8E:  MOVWF  FF6
0BE90:  MOVLW  14
0BE92:  MOVWF  FF7
0BE94:  MOVLW  00
0BE96:  MOVWF  FF8
0BE98:  MOVLW  0A
0BE9A:  MOVLB  6
0BE9C:  MOVWF  x31
0BE9E:  MOVLB  0
0BEA0:  CALL   4FD6
....................             SendDataDisplay();  
0BEA4:  CALL   3C34
....................          } 
0BEA8:  MOVLB  1
0BEAA:  INCF   xDA,F
0BEAC:  BRA    BDE0
....................       } 
....................    } 
.................... //_--------------------------------------------------------------------------------------------------------------------------------------------------------       
....................  
.................... //_--------------------------------------------------------------------------------------------------------------------------------------------------------       
....................     if(Menu==15){//Menu de Clave Correcta 
0BEAE:  MOVF   xD7,W
0BEB0:  SUBLW  0F
0BEB2:  BNZ   BEE2
....................       delay_ms(2000); 
0BEB4:  MOVLW  08
0BEB6:  MOVLB  6
0BEB8:  MOVWF  x2C
0BEBA:  MOVLW  FA
0BEBC:  MOVWF  x35
0BEBE:  MOVLB  0
0BEC0:  CALL   1EDC
0BEC4:  MOVLB  6
0BEC6:  DECFSZ x2C,F
0BEC8:  BRA    BEBA
....................       printf("page CicloPersona"); 
0BECA:  MOVLW  92
0BECC:  MOVWF  FF6
0BECE:  MOVLW  14
0BED0:  MOVWF  FF7
0BED2:  MOVLW  00
0BED4:  MOVWF  FF8
0BED6:  MOVLB  0
0BED8:  CALL   3C02
....................       SendDataDisplay();      
0BEDC:  CALL   3C34
0BEE0:  MOVLB  1
....................       //printf("page Menu"); 
....................       //SendDataDisplay(); 
....................    } 
.................... //_--------------------------------------------------------------------------------------------------------------------------------------------------------       
....................  
.................... //_--------------------------------------------------------------------------------------------------------------------------------------------------------       
....................     if(Menu==16){//Menu de Clave InCorrecta 
0BEE2:  MOVF   xD7,W
0BEE4:  SUBLW  10
0BEE6:  BNZ   BF16
....................       delay_ms(2000); 
0BEE8:  MOVLW  08
0BEEA:  MOVLB  6
0BEEC:  MOVWF  x2C
0BEEE:  MOVLW  FA
0BEF0:  MOVWF  x35
0BEF2:  MOVLB  0
0BEF4:  CALL   1EDC
0BEF8:  MOVLB  6
0BEFA:  DECFSZ x2C,F
0BEFC:  BRA    BEEE
....................       printf("page Clave"); 
0BEFE:  MOVLW  A4
0BF00:  MOVWF  FF6
0BF02:  MOVLW  14
0BF04:  MOVWF  FF7
0BF06:  MOVLW  00
0BF08:  MOVWF  FF8
0BF0A:  MOVLB  0
0BF0C:  CALL   3C02
....................       SendDataDisplay(); 
0BF10:  CALL   3C34
0BF14:  MOVLB  1
....................    } 
.................... //_--------------------------------------------------------------------------------------------------------------------------------------------------------       
....................  
.................... //_--------------------------------------------------------------------------------------------------------------------------------------------------------     
....................    if(Menu==20){ // Este es el menu de cuando el proceso se inicio. 
0BF16:  MOVF   xD7,W
0BF18:  SUBLW  14
0BF1A:  BTFSS  FD8.2
0BF1C:  GOTO   D36A
....................     
....................    GuardaDatoEstatico(); 
0BF20:  MOVLB  0
0BF22:  GOTO   5E76
....................    guardaCiclo=ON; 
0BF26:  BSF    x8A.7
....................    if(!Libre){ 
0BF28:  BTFSC  x90.7
0BF2A:  BRA    BFB0
....................       printf("t2f.txt=\"%u\"",CicloSeleccionado); 
0BF2C:  MOVLW  B0
0BF2E:  MOVWF  FF6
0BF30:  MOVLW  14
0BF32:  MOVWF  FF7
0BF34:  MOVLW  00
0BF36:  MOVWF  FF8
0BF38:  MOVLW  09
0BF3A:  MOVLB  6
0BF3C:  MOVWF  x31
0BF3E:  MOVLB  0
0BF40:  CALL   4FD6
0BF44:  MOVFF  1DD,631
0BF48:  MOVLW  1B
0BF4A:  MOVLB  6
0BF4C:  MOVWF  x32
0BF4E:  MOVLB  0
0BF50:  CALL   505A
0BF54:  MOVLW  22
0BF56:  BTFSS  F9E.4
0BF58:  BRA    BF56
0BF5A:  MOVWF  FAD
....................       SendDataDisplay(); 
0BF5C:  CALL   3C34
....................       printf("t3f.txt=\"%s\"",Texto[CicloSeleccionado-1]); 
0BF60:  MOVLW  01
0BF62:  MOVLB  1
0BF64:  SUBWF  xDD,W
0BF66:  MULLW  14
0BF68:  MOVF   FF3,W
0BF6A:  CLRF   03
0BF6C:  MOVLB  6
0BF6E:  MOVWF  x2C
0BF70:  MOVLW  BE
0BF72:  MOVWF  FF6
0BF74:  MOVLW  14
0BF76:  MOVWF  FF7
0BF78:  MOVLW  00
0BF7A:  MOVWF  FF8
0BF7C:  MOVLW  09
0BF7E:  MOVWF  x31
0BF80:  MOVLB  0
0BF82:  CALL   4FD6
0BF86:  MOVLW  BA
0BF88:  MOVWF  FF6
0BF8A:  MOVLW  02
0BF8C:  MOVWF  FF7
0BF8E:  MOVLW  00
0BF90:  MOVWF  FF8
0BF92:  MOVLB  6
0BF94:  MOVF   x2C,W
0BF96:  ADDWF  FF6,F
0BF98:  MOVLW  00
0BF9A:  ADDWFC FF7,F
0BF9C:  MOVLB  0
0BF9E:  CALL   3C02
0BFA2:  MOVLW  22
0BFA4:  BTFSS  F9E.4
0BFA6:  BRA    BFA4
0BFA8:  MOVWF  FAD
....................       SendDataDisplay(); 
0BFAA:  CALL   3C34
....................    }else{ 
0BFAE:  BRA    C000
....................       printf("t2f.txt=\"%u\"",CicloLibre+10); 
0BFB0:  MOVLW  0A
0BFB2:  MOVLB  2
0BFB4:  ADDWF  x27,W
0BFB6:  MOVLB  6
0BFB8:  MOVWF  x2C
0BFBA:  MOVLW  CC
0BFBC:  MOVWF  FF6
0BFBE:  MOVLW  14
0BFC0:  MOVWF  FF7
0BFC2:  MOVLW  00
0BFC4:  MOVWF  FF8
0BFC6:  MOVLW  09
0BFC8:  MOVWF  x31
0BFCA:  MOVLB  0
0BFCC:  CALL   4FD6
0BFD0:  MOVFF  62C,631
0BFD4:  MOVLW  1B
0BFD6:  MOVLB  6
0BFD8:  MOVWF  x32
0BFDA:  MOVLB  0
0BFDC:  CALL   505A
0BFE0:  MOVLW  22
0BFE2:  BTFSS  F9E.4
0BFE4:  BRA    BFE2
0BFE6:  MOVWF  FAD
....................       SendDataDisplay(); 
0BFE8:  CALL   3C34
....................       printf("t3f.txt=\"Personalizado\""); 
0BFEC:  MOVLW  DA
0BFEE:  MOVWF  FF6
0BFF0:  MOVLW  14
0BFF2:  MOVWF  FF7
0BFF4:  MOVLW  00
0BFF6:  MOVWF  FF8
0BFF8:  CALL   3C02
....................       SendDataDisplay(); 
0BFFC:  CALL   3C34
....................    } 
....................        
....................    if(PresionPreCamara>275 || PresionCamara>350){ 
0C000:  MOVLB  1
0C002:  MOVF   xF6,W
0C004:  SUBLW  00
0C006:  BC    C012
0C008:  XORLW  FF
0C00A:  BNZ   C022
0C00C:  MOVF   xF5,W
0C00E:  SUBLW  13
0C010:  BNC   C022
0C012:  MOVF   xF4,W
0C014:  SUBLW  00
0C016:  BC    C028
0C018:  XORLW  FF
0C01A:  BNZ   C022
0C01C:  MOVF   xF3,W
0C01E:  SUBLW  5E
0C020:  BC    C028
....................       AlarmaPresion=ON; 
0C022:  MOVLB  0
0C024:  BSF    x90.4
0C026:  MOVLB  1
....................    } 
....................     
....................    if(TiempoCiclo>1800 && !Fugas){//ANALIZAR BIEN ESTA ALARMA 
0C028:  MOVLB  0
0C02A:  MOVF   x94,W
0C02C:  SUBLW  06
0C02E:  BC    C054
0C030:  XORLW  FF
0C032:  BNZ   C03A
0C034:  MOVF   x93,W
0C036:  SUBLW  08
0C038:  BC    C054
0C03A:  BTFSC  x91.1
0C03C:  BRA    C054
....................       if(PresionPrecamara<10){ 
0C03E:  MOVLB  1
0C040:  MOVF   xF6,F
0C042:  BNZ   C050
0C044:  MOVF   xF5,W
0C046:  SUBLW  09
0C048:  BNC   C050
....................          AlarmaTiempoProlongado=ON; 
0C04A:  MOVLB  0
0C04C:  BSF    x8A.0
0C04E:  MOVLB  1
....................       } 
....................    }else{ 
0C050:  BRA    C058
0C052:  MOVLB  0
....................       AlarmaTiempoProlongado=OFF; 
0C054:  BCF    x8A.0
0C056:  MOVLB  1
....................    } 
....................     
....................    if(Temperatura>Setpoint+4.0 && !Fugas){ 
0C058:  MOVLB  6
0C05A:  CLRF   x3F
0C05C:  MOVFF  1E1,63E
0C060:  MOVLB  0
0C062:  CALL   1EA6
0C066:  BCF    FD8.1
0C068:  MOVFF  03,641
0C06C:  MOVFF  02,640
0C070:  MOVFF  01,63F
0C074:  MOVFF  00,63E
0C078:  MOVLB  6
0C07A:  CLRF   x45
0C07C:  CLRF   x44
0C07E:  CLRF   x43
0C080:  MOVLW  81
0C082:  MOVWF  x42
0C084:  MOVLB  0
0C086:  CALL   2062
0C08A:  MOVFF  03,633
0C08E:  MOVFF  02,632
0C092:  MOVFF  01,631
0C096:  MOVFF  00,630
0C09A:  MOVFF  1BE,637
0C09E:  MOVFF  1BD,636
0C0A2:  MOVFF  1BC,635
0C0A6:  MOVFF  1BB,634
0C0AA:  CALL   2436
0C0AE:  BNC   C0B6
0C0B0:  BTFSC  x91.1
0C0B2:  BRA    C0B6
....................       AlarmaSobreTemperatura=ON; 
0C0B4:  BSF    x8A.1
....................    } 
....................     
....................    if(!TERM){ 
0C0B6:  BSF    F93.3
0C0B8:  BTFSS  F81.3
0C0BA:  BRA    C0BC
....................       //AlarmaTermostato=ON; 
....................    } 
....................     
....................    if(!DOOR){ 
0C0BC:  BSF    F93.1
0C0BE:  BTFSS  F81.1
0C0C0:  BRA    C0D2
....................       //Desfogue_off; 
....................       //Solenoide_off; 
....................       Paso_off; 
0C0C2:  BCF    F8C.1
0C0C4:  BCF    F95.1
....................       if(!Secando && !Finalizo){ 
0C0C6:  BTFSC  x8B.4
0C0C8:  BRA    C0D0
0C0CA:  BTFSC  x90.3
0C0CC:  BRA    C0D0
....................          AlarmaPuerta=ON; 
0C0CE:  BSF    x8A.3
....................       } 
....................    }else{ 
0C0D0:  BRA    C0D4
....................       AlarmaPuerta=OFF; 
0C0D2:  BCF    x8A.3
....................    } 
....................  
....................    if(!STOP){ 
0C0D4:  BSF    F93.2
0C0D6:  BTFSS  F81.2
0C0D8:  BRA    C0DC
....................       AlarmaEmergencia=ON; 
0C0DA:  BSF    x8A.4
....................    } 
....................     
....................    if(AlarmaPuerta || AlarmaTermostato || AlarmaSobreTemperatura || AlarmaTiempoProlongado || AlarmaEmergencia || AlarmaPresion || AlarmaBomba  
....................          || AlarmaVacio){ 
0C0DC:  BTFSC  x8A.3
0C0DE:  BRA    C0FC
0C0E0:  BTFSC  x8A.2
0C0E2:  BRA    C0FC
0C0E4:  BTFSC  x8A.1
0C0E6:  BRA    C0FC
0C0E8:  BTFSC  x8A.0
0C0EA:  BRA    C0FC
0C0EC:  BTFSC  x8A.4
0C0EE:  BRA    C0FC
0C0F0:  BTFSC  x90.4
0C0F2:  BRA    C0FC
0C0F4:  BTFSC  x8A.6
0C0F6:  BRA    C0FC
0C0F8:  BTFSS  x8A.5
0C0FA:  BRA    C4C0
....................       ActivaAlarma(1); 
0C0FC:  MOVLW  01
0C0FE:  MOVLB  6
0C100:  MOVWF  x2C
0C102:  MOVLB  0
0C104:  CALL   4EEE
....................       if(AlarmaEmergencia){ 
0C108:  BTFSS  x8A.4
0C10A:  BRA    C196
....................          codigoAlarma=1; 
0C10C:  MOVLW  01
0C10E:  MOVLB  2
0C110:  MOVWF  x0A
....................          printf("Funcionamiento.t4f.txt=\" Parada de Emergencia\""); 
0C112:  MOVLW  F2
0C114:  MOVWF  FF6
0C116:  MOVLW  14
0C118:  MOVWF  FF7
0C11A:  MOVLW  00
0C11C:  MOVWF  FF8
0C11E:  MOVLB  0
0C120:  CALL   3C02
....................          SendDataDisplay(); 
0C124:  CALL   3C34
....................          printf("Funcionamiento.t5f.txt=\" Cancelado\""); 
0C128:  MOVLW  22
0C12A:  MOVWF  FF6
0C12C:  MOVLW  15
0C12E:  MOVWF  FF7
0C130:  MOVLW  00
0C132:  MOVWF  FF8
0C134:  CALL   3C02
....................          SendDataDisplay(); 
0C138:  CALL   3C34
....................          Desfogue_on; 
0C13C:  BSF    F8C.3
0C13E:  BCF    F95.3
....................          Paso_off; 
0C140:  BCF    F8C.1
0C142:  BCF    F95.1
....................          Suministro_off; 
0C144:  BCF    F8C.0
0C146:  BCF    F95.0
....................          BombaVacio_off; 
0C148:  BCF    F8C.5
0C14A:  BCF    F95.5
....................          Agua_off; 
0C14C:  BCF    F8C.6
0C14E:  BCF    F95.6
....................          Vacio_off; 
0C150:  BCF    F8C.2
0C152:  BCF    F95.2
....................          if(PresionCamara<Atmosferica) 
0C154:  MOVLB  1
0C156:  MOVF   xF4,F
0C158:  BNZ   C16A
0C15A:  MOVLB  2
0C15C:  MOVF   x1B,W
0C15E:  MOVLB  1
0C160:  SUBWF  xF3,W
0C162:  BC    C16A
....................             Aire_on; 
0C164:  BSF    F8C.4
0C166:  BCF    F95.4
0C168:  BRA    C16E
....................          else 
....................             Aire_off; 
0C16A:  BCF    F8C.4
0C16C:  BCF    F95.4
....................          Esterilizando=OFF; 
0C16E:  MOVLB  0
0C170:  BCF    x8B.3
....................          Desfogando=OFF; 
0C172:  BCF    x8B.6
....................          DesfogueSuave=OFF; 
0C174:  BCF    x8B.7
....................          //IniciaCiclo=OFF; 
....................          Controlando=0; 
0C176:  MOVLB  1
0C178:  CLRF   xD1
....................          if(codigoAnt!=codigoAlarma){ 
0C17A:  MOVLB  2
0C17C:  MOVF   x0A,W
0C17E:  SUBWF  x0B,W
0C180:  BZ    C192
....................             codigoAnt=codigoAlarma; 
0C182:  MOVFF  20A,20B
....................             GuardaDatoCiclo(); 
0C186:  MOVLB  0
0C188:  CALL   612E
....................             incrementaCiclos(); 
0C18C:  CALL   64D2
0C190:  MOVLB  2
....................          } 
....................       }else if(AlarmaPuerta){ 
0C192:  BRA    C4BA
0C194:  MOVLB  0
0C196:  BTFSS  x8A.3
0C198:  BRA    C200
....................          codigoAlarma=2; 
0C19A:  MOVLW  02
0C19C:  MOVLB  2
0C19E:  MOVWF  x0A
....................          printf("Funcionamiento.t4f.txt=\" Puerta Abierta\""); 
0C1A0:  MOVLW  46
0C1A2:  MOVWF  FF6
0C1A4:  MOVLW  15
0C1A6:  MOVWF  FF7
0C1A8:  MOVLW  00
0C1AA:  MOVWF  FF8
0C1AC:  MOVLB  0
0C1AE:  CALL   3C02
....................          SendDataDisplay(); 
0C1B2:  CALL   3C34
....................          printf("Funcionamiento.t5f.txt=\" Pausado\""); 
0C1B6:  MOVLW  70
0C1B8:  MOVWF  FF6
0C1BA:  MOVLW  15
0C1BC:  MOVWF  FF7
0C1BE:  MOVLW  00
0C1C0:  MOVWF  FF8
0C1C2:  CALL   3C02
....................          SendDataDisplay(); 
0C1C6:  CALL   3C34
....................          Paso_off; 
0C1CA:  BCF    F8C.1
0C1CC:  BCF    F95.1
....................          Suministro_off; 
0C1CE:  BCF    F8C.0
0C1D0:  BCF    F95.0
....................          BombaVacio_off; 
0C1D2:  BCF    F8C.5
0C1D4:  BCF    F95.5
....................          Aire_off; 
0C1D6:  BCF    F8C.4
0C1D8:  BCF    F95.4
....................          Agua_off; 
0C1DA:  BCF    F8C.6
0C1DC:  BCF    F95.6
....................          Vacio_off; 
0C1DE:  BCF    F8C.2
0C1E0:  BCF    F95.2
....................          IniciaLlenado=OFF; 
0C1E2:  BCF    x8B.1
....................          //IniciaCiclo=OFF; 
....................          Controlando=0; 
0C1E4:  MOVLB  1
0C1E6:  CLRF   xD1
....................          if(codigoAnt!=codigoAlarma){ 
0C1E8:  MOVLB  2
0C1EA:  MOVF   x0A,W
0C1EC:  SUBWF  x0B,W
0C1EE:  BZ    C1FC
....................             codigoAnt=codigoAlarma; 
0C1F0:  MOVFF  20A,20B
....................             GuardaDatoCiclo(); 
0C1F4:  MOVLB  0
0C1F6:  CALL   612E
0C1FA:  MOVLB  2
....................          } 
....................       }else if(AlarmaTermostato){ 
0C1FC:  BRA    C4BA
0C1FE:  MOVLB  0
0C200:  BTFSS  x8A.2
0C202:  BRA    C27C
....................          codigoAlarma=3; 
0C204:  MOVLW  03
0C206:  MOVLB  2
0C208:  MOVWF  x0A
....................          tiempo_esterilizacion=0;tiempo_secado=0;          
0C20A:  MOVLB  1
0C20C:  CLRF   xE4
0C20E:  CLRF   xE5
....................          printf("Funcionamiento.t4f.txt=\" Termostato\""); 
0C210:  MOVLW  92
0C212:  MOVWF  FF6
0C214:  MOVLW  15
0C216:  MOVWF  FF7
0C218:  MOVLW  00
0C21A:  MOVWF  FF8
0C21C:  MOVLB  0
0C21E:  CALL   3C02
....................          SendDataDisplay(); 
0C222:  CALL   3C34
....................          printf("Funcionamiento.t5f.txt=\" Cancelado\""); 
0C226:  MOVLW  B8
0C228:  MOVWF  FF6
0C22A:  MOVLW  15
0C22C:  MOVWF  FF7
0C22E:  MOVLW  00
0C230:  MOVWF  FF8
0C232:  CALL   3C02
....................          SendDataDisplay(); 
0C236:  CALL   3C34
....................          Suministro_off; 
0C23A:  BCF    F8C.0
0C23C:  BCF    F95.0
....................          Desfogue_on;                   
0C23E:  BSF    F8C.3
0C240:  BCF    F95.3
....................          Paso_off; 
0C242:  BCF    F8C.1
0C244:  BCF    F95.1
....................          BombaVacio_off; 
0C246:  BCF    F8C.5
0C248:  BCF    F95.5
....................          Aire_off; 
0C24A:  BCF    F8C.4
0C24C:  BCF    F95.4
....................          Agua_off; 
0C24E:  BCF    F8C.6
0C250:  BCF    F95.6
....................          Vacio_off; 
0C252:  BCF    F8C.2
0C254:  BCF    F95.2
....................          Esterilizando=OFF; 
0C256:  BCF    x8B.3
....................          Desfogando=OFF; 
0C258:  BCF    x8B.6
....................          IniciaCiclo=OFF; 
0C25A:  BCF    x8B.2
....................          Controlando=0; 
0C25C:  MOVLB  1
0C25E:  CLRF   xD1
....................          if(codigoAnt!=codigoAlarma){ 
0C260:  MOVLB  2
0C262:  MOVF   x0A,W
0C264:  SUBWF  x0B,W
0C266:  BZ    C278
....................             codigoAnt=codigoAlarma; 
0C268:  MOVFF  20A,20B
....................             GuardaDatoCiclo(); 
0C26C:  MOVLB  0
0C26E:  CALL   612E
....................             incrementaCiclos(); 
0C272:  CALL   64D2
0C276:  MOVLB  2
....................          } 
....................       }else if(AlarmaSobreTemperatura){                   
0C278:  BRA    C4BA
0C27A:  MOVLB  0
0C27C:  BTFSS  x8A.1
0C27E:  BRA    C2F2
....................          codigoAlarma=4; 
0C280:  MOVLW  04
0C282:  MOVLB  2
0C284:  MOVWF  x0A
....................          tiempo_esterilizacion=0;tiempo_secado=0;          
0C286:  MOVLB  1
0C288:  CLRF   xE4
0C28A:  CLRF   xE5
....................          printf("Funcionamiento.t4f.txt=\" Sobretemperatura\""); 
0C28C:  MOVLW  DC
0C28E:  MOVWF  FF6
0C290:  MOVLW  15
0C292:  MOVWF  FF7
0C294:  MOVLW  00
0C296:  MOVWF  FF8
0C298:  MOVLB  0
0C29A:  CALL   3C02
....................          SendDataDisplay(); 
0C29E:  CALL   3C34
....................          printf("Funcionamiento.t5f.txt=\" Cancelado\""); 
0C2A2:  MOVLW  08
0C2A4:  MOVWF  FF6
0C2A6:  MOVLW  16
0C2A8:  MOVWF  FF7
0C2AA:  MOVLW  00
0C2AC:  MOVWF  FF8
0C2AE:  CALL   3C02
....................          SendDataDisplay();   
0C2B2:  CALL   3C34
....................          Suministro_off; 
0C2B6:  BCF    F8C.0
0C2B8:  BCF    F95.0
....................          Desfogue_on; 
0C2BA:  BSF    F8C.3
0C2BC:  BCF    F95.3
....................          Paso_off; 
0C2BE:  BCF    F8C.1
0C2C0:  BCF    F95.1
....................          BombaVacio_off; 
0C2C2:  BCF    F8C.5
0C2C4:  BCF    F95.5
....................          Aire_off; 
0C2C6:  BCF    F8C.4
0C2C8:  BCF    F95.4
....................          Agua_off; 
0C2CA:  BCF    F8C.6
0C2CC:  BCF    F95.6
....................          Vacio_off; 
0C2CE:  BCF    F8C.2
0C2D0:  BCF    F95.2
....................          Controlando=0; 
0C2D2:  MOVLB  1
0C2D4:  CLRF   xD1
....................          if(codigoAnt!=codigoAlarma){ 
0C2D6:  MOVLB  2
0C2D8:  MOVF   x0A,W
0C2DA:  SUBWF  x0B,W
0C2DC:  BZ    C2EE
....................             codigoAnt=codigoAlarma; 
0C2DE:  MOVFF  20A,20B
....................             GuardaDatoCiclo(); 
0C2E2:  MOVLB  0
0C2E4:  CALL   612E
....................             incrementaCiclos(); 
0C2E8:  CALL   64D2
0C2EC:  MOVLB  2
....................          } 
....................       }else if(AlarmaTiempoProlongado){ 
0C2EE:  BRA    C4BA
0C2F0:  MOVLB  0
0C2F2:  BTFSS  x8A.0
0C2F4:  BRA    C35A
....................          codigoAlarma=5; 
0C2F6:  MOVLW  05
0C2F8:  MOVLB  2
0C2FA:  MOVWF  x0A
....................          printf("Funcionamiento.t4f.txt=\" Tiempo Prolongado\""); 
0C2FC:  MOVLW  2C
0C2FE:  MOVWF  FF6
0C300:  MOVLW  16
0C302:  MOVWF  FF7
0C304:  MOVLW  00
0C306:  MOVWF  FF8
0C308:  MOVLB  0
0C30A:  CALL   3C02
....................          SendDataDisplay(); 
0C30E:  CALL   3C34
....................          printf("Funcionamiento.t5f.txt=\" Cancelado\""); 
0C312:  MOVLW  58
0C314:  MOVWF  FF6
0C316:  MOVLW  16
0C318:  MOVWF  FF7
0C31A:  MOVLW  00
0C31C:  MOVWF  FF8
0C31E:  CALL   3C02
....................          SendDataDisplay(); 
0C322:  CALL   3C34
....................          Suministro_off; 
0C326:  BCF    F8C.0
0C328:  BCF    F95.0
....................          Desfogue_on; 
0C32A:  BSF    F8C.3
0C32C:  BCF    F95.3
....................          Paso_off; 
0C32E:  BCF    F8C.1
0C330:  BCF    F95.1
....................          Agua_off; 
0C332:  BCF    F8C.6
0C334:  BCF    F95.6
....................          Vacio_off; 
0C336:  BCF    F8C.2
0C338:  BCF    F95.2
....................          Controlando=0; 
0C33A:  MOVLB  1
0C33C:  CLRF   xD1
....................          if(codigoAnt!=codigoAlarma){ 
0C33E:  MOVLB  2
0C340:  MOVF   x0A,W
0C342:  SUBWF  x0B,W
0C344:  BZ    C356
....................             codigoAnt=codigoAlarma; 
0C346:  MOVFF  20A,20B
....................             GuardaDatoCiclo(); 
0C34A:  MOVLB  0
0C34C:  CALL   612E
....................             incrementaCiclos(); 
0C350:  CALL   64D2
0C354:  MOVLB  2
....................          } 
....................       }else if(AlarmaPresion){ // Alarma de Error de SobrePresion: Error por exceso de Presion. 
0C356:  BRA    C4BA
0C358:  MOVLB  0
0C35A:  BTFSS  x90.4
0C35C:  BRA    C3E6
....................          codigoAlarma=6; 
0C35E:  MOVLW  06
0C360:  MOVLB  2
0C362:  MOVWF  x0A
....................          printf("Funcionamiento.t4f.txt=\" SobrePresion\""); 
0C364:  MOVLW  7C
0C366:  MOVWF  FF6
0C368:  MOVLW  16
0C36A:  MOVWF  FF7
0C36C:  MOVLW  00
0C36E:  MOVWF  FF8
0C370:  MOVLB  0
0C372:  CALL   3C02
....................          SendDataDisplay(); 
0C376:  CALL   3C34
....................          printf("Funcionamiento.t5f.txt=\" Cancelado\""); 
0C37A:  MOVLW  A4
0C37C:  MOVWF  FF6
0C37E:  MOVLW  16
0C380:  MOVWF  FF7
0C382:  MOVLW  00
0C384:  MOVWF  FF8
0C386:  CALL   3C02
....................          SendDataDisplay(); 
0C38A:  CALL   3C34
....................          Desfogue_on; 
0C38E:  BSF    F8C.3
0C390:  BCF    F95.3
....................          Suministro_off; 
0C392:  BCF    F8C.0
0C394:  BCF    F95.0
....................          BombaVacio_off; 
0C396:  BCF    F8C.5
0C398:  BCF    F95.5
....................          Aire_off; 
0C39A:  BCF    F8C.4
0C39C:  BCF    F95.4
....................          Agua_off; 
0C39E:  BCF    F8C.6
0C3A0:  BCF    F95.6
....................          Vacio_off; 
0C3A2:  BCF    F8C.2
0C3A4:  BCF    F95.2
....................          if(PresionPreCamara>(Atmosferica+4) && DOOR) 
0C3A6:  MOVLW  04
0C3A8:  MOVLB  2
0C3AA:  ADDWF  x1B,W
0C3AC:  MOVLB  1
0C3AE:  MOVF   xF6,F
0C3B0:  BNZ   C3B8
0C3B2:  SUBWF  xF5,W
0C3B4:  BZ    C3C4
0C3B6:  BNC   C3C4
0C3B8:  BSF    F93.1
0C3BA:  BTFSC  F81.1
0C3BC:  BRA    C3C4
....................             Paso_on; 
0C3BE:  BSF    F8C.1
0C3C0:  BCF    F95.1
0C3C2:  BRA    C3C8
....................          else 
....................             Paso_off; 
0C3C4:  BCF    F8C.1
0C3C6:  BCF    F95.1
....................          Controlando=0; 
0C3C8:  CLRF   xD1
....................          if(codigoAnt!=codigoAlarma){ 
0C3CA:  MOVLB  2
0C3CC:  MOVF   x0A,W
0C3CE:  SUBWF  x0B,W
0C3D0:  BZ    C3E2
....................             codigoAnt=codigoAlarma; 
0C3D2:  MOVFF  20A,20B
....................             GuardaDatoCiclo(); 
0C3D6:  MOVLB  0
0C3D8:  CALL   612E
....................             incrementaCiclos(); 
0C3DC:  CALL   64D2
0C3E0:  MOVLB  2
....................          } 
....................       }else if(AlarmaBomba){ // Alarma de Error de que bomba no ha arrancado. 
0C3E2:  BRA    C4BA
0C3E4:  MOVLB  0
0C3E6:  BTFSS  x8A.6
0C3E8:  BRA    C452
....................          codigoAlarma=7; 
0C3EA:  MOVLW  07
0C3EC:  MOVLB  2
0C3EE:  MOVWF  x0A
....................          printf("Funcionamiento.t4f.txt=\" Error Bomba\""); 
0C3F0:  MOVLW  C8
0C3F2:  MOVWF  FF6
0C3F4:  MOVLW  16
0C3F6:  MOVWF  FF7
0C3F8:  MOVLW  00
0C3FA:  MOVWF  FF8
0C3FC:  MOVLB  0
0C3FE:  CALL   3C02
....................          SendDataDisplay(); 
0C402:  CALL   3C34
....................          printf("Funcionamiento.t5f.txt=\" Cancelado\""); 
0C406:  MOVLW  EE
0C408:  MOVWF  FF6
0C40A:  MOVLW  16
0C40C:  MOVWF  FF7
0C40E:  MOVLW  00
0C410:  MOVWF  FF8
0C412:  CALL   3C02
....................          SendDataDisplay(); 
0C416:  CALL   3C34
....................          Desfogue_on; 
0C41A:  BSF    F8C.3
0C41C:  BCF    F95.3
....................          Suministro_off; 
0C41E:  BCF    F8C.0
0C420:  BCF    F95.0
....................          BombaVacio_off; 
0C422:  BCF    F8C.5
0C424:  BCF    F95.5
....................          Aire_off; 
0C426:  BCF    F8C.4
0C428:  BCF    F95.4
....................          Agua_off; 
0C42A:  BCF    F8C.6
0C42C:  BCF    F95.6
....................          Vacio_off; 
0C42E:  BCF    F8C.2
0C430:  BCF    F95.2
....................          Controlando=0; 
0C432:  MOVLB  1
0C434:  CLRF   xD1
....................          if(codigoAnt!=codigoAlarma){ 
0C436:  MOVLB  2
0C438:  MOVF   x0A,W
0C43A:  SUBWF  x0B,W
0C43C:  BZ    C44E
....................             codigoAnt=codigoAlarma; 
0C43E:  MOVFF  20A,20B
....................             GuardaDatoCiclo(); 
0C442:  MOVLB  0
0C444:  CALL   612E
....................             incrementaCiclos(); 
0C448:  CALL   64D2
0C44C:  MOVLB  2
....................          } 
....................       }else if(AlarmaVacio){ // Alarma de Error de que genera el Vacio en el tiempo estipulado. 
0C44E:  BRA    C4BA
0C450:  MOVLB  0
0C452:  BTFSS  x8A.5
0C454:  BRA    C4B8
....................          codigoAlarma=8; 
0C456:  MOVLW  08
0C458:  MOVLB  2
0C45A:  MOVWF  x0A
....................          printf("Funcionamiento.t4f.txt=\" Error Vacio\""); 
0C45C:  MOVLW  12
0C45E:  MOVWF  FF6
0C460:  MOVLW  17
0C462:  MOVWF  FF7
0C464:  MOVLW  00
0C466:  MOVWF  FF8
0C468:  MOVLB  0
0C46A:  CALL   3C02
....................          SendDataDisplay(); 
0C46E:  CALL   3C34
....................          printf("Funcionamiento.t5f.txt=\" Cancelado\""); 
0C472:  MOVLW  38
0C474:  MOVWF  FF6
0C476:  MOVLW  17
0C478:  MOVWF  FF7
0C47A:  MOVLW  00
0C47C:  MOVWF  FF8
0C47E:  CALL   3C02
....................          SendDataDisplay(); 
0C482:  CALL   3C34
....................          Desfogue_on; 
0C486:  BSF    F8C.3
0C488:  BCF    F95.3
....................          Suministro_off; 
0C48A:  BCF    F8C.0
0C48C:  BCF    F95.0
....................          BombaVacio_off; 
0C48E:  BCF    F8C.5
0C490:  BCF    F95.5
....................          Aire_off; 
0C492:  BCF    F8C.4
0C494:  BCF    F95.4
....................          Agua_off; 
0C496:  BCF    F8C.6
0C498:  BCF    F95.6
....................          Vacio_off; 
0C49A:  BCF    F8C.2
0C49C:  BCF    F95.2
....................          Controlando=0; 
0C49E:  MOVLB  1
0C4A0:  CLRF   xD1
....................          if(codigoAnt!=codigoAlarma){ 
0C4A2:  MOVLB  2
0C4A4:  MOVF   x0A,W
0C4A6:  SUBWF  x0B,W
0C4A8:  BZ    C4BA
....................             codigoAnt=codigoAlarma; 
0C4AA:  MOVFF  20A,20B
....................             GuardaDatoCiclo(); 
0C4AE:  MOVLB  0
0C4B0:  CALL   612E
....................             incrementaCiclos(); 
0C4B4:  CALL   64D2
0C4B8:  MOVLB  2
....................          } 
....................       } 
....................    }else{ 
0C4BA:  GOTO   CEB6
0C4BE:  MOVLB  0
....................        
....................       if(!Fugas){//Si selecciono un ciclo diferente al test de fugas 
0C4C0:  BTFSC  x91.1
0C4C2:  GOTO   CCBE
....................          Buzzer_off; 
0C4C6:  BCF    F8B.5
0C4C8:  BCF    F94.5
....................          IniciaCiclo=ON; 
0C4CA:  BSF    x8B.2
....................           
....................       if(!Precalentamiento){       
0C4CC:  BTFSC  x91.2
0C4CE:  BRA    C524
....................          printf("Funcionamiento.t4f.txt=\" Ninguna\""); 
0C4D0:  MOVLW  5C
0C4D2:  MOVWF  FF6
0C4D4:  MOVLW  17
0C4D6:  MOVWF  FF7
0C4D8:  MOVLW  00
0C4DA:  MOVWF  FF8
0C4DC:  CALL   3C02
....................          SendDataDisplay(); 
0C4E0:  CALL   3C34
....................          printf("Funcionamiento.t5f.txt=\" PreCalentando\""); 
0C4E4:  MOVLW  7E
0C4E6:  MOVWF  FF6
0C4E8:  MOVLW  17
0C4EA:  MOVWF  FF7
0C4EC:  MOVLW  00
0C4EE:  MOVWF  FF8
0C4F0:  CALL   3C02
....................          SendDataDisplay(); 
0C4F4:  CALL   3C34
....................          ControlaPresion();  
0C4F8:  CALL   655A
....................          Control=0; 
0C4FC:  MOVLB  1
0C4FE:  CLRF   xCF
....................          IniciaVacio=OFF; 
0C500:  MOVLB  0
0C502:  BCF    x91.3
....................          IniciaVacio2=OFF; 
0C504:  BCF    x91.4
....................          codigoAlarma=10; 
0C506:  MOVLW  0A
0C508:  MOVLB  2
0C50A:  MOVWF  x0A
....................          if(codigoAnt!=codigoAlarma){ 
0C50C:  MOVF   x0A,W
0C50E:  SUBWF  x0B,W
0C510:  BZ    C51E
....................             codigoAnt=codigoAlarma; 
0C512:  MOVFF  20A,20B
....................             GuardaDatoCiclo(); 
0C516:  MOVLB  0
0C518:  CALL   612E
0C51C:  MOVLB  2
....................          } 
....................       }else{ 
0C51E:  GOTO   CCBA
0C522:  MOVLB  0
....................          if(!Vacio){ //Si no ha realizado los pulsos de vacio 
0C524:  BTFSC  x91.5
0C526:  BRA    C75C
....................             codigoAlarma=11; 
0C528:  MOVLW  0B
0C52A:  MOVLB  2
0C52C:  MOVWF  x0A
....................             if(codigoAnt!=codigoAlarma){ 
0C52E:  MOVF   x0A,W
0C530:  SUBWF  x0B,W
0C532:  BZ    C540
....................                codigoAnt=codigoAlarma; 
0C534:  MOVFF  20A,20B
....................                GuardaDatoCiclo();                
0C538:  MOVLB  0
0C53A:  CALL   612E
0C53E:  MOVLB  2
....................             } 
....................             if(!flag_vac){//Ciclo inicial para purga de Bomba 
0C540:  MOVLB  0
0C542:  BTFSC  x91.6
0C544:  BRA    C58C
....................                flag_vac=ON; 
0C546:  BSF    x91.6
....................                Vacio_off; 
0C548:  BCF    F8C.2
0C54A:  BCF    F95.2
....................                Desfogue_off; 
0C54C:  BCF    F8C.3
0C54E:  BCF    F95.3
....................                Aire_off; 
0C550:  BCF    F8C.4
0C552:  BCF    F95.4
....................                Paso_off; 
0C554:  BCF    F8C.1
0C556:  BCF    F95.1
....................                Agua_on; 
0C558:  BSF    F8C.6
0C55A:  BCF    F95.6
....................                delay_ms(7000); 
0C55C:  MOVLW  1C
0C55E:  MOVLB  6
0C560:  MOVWF  x2C
0C562:  MOVLW  FA
0C564:  MOVWF  x35
0C566:  MOVLB  0
0C568:  CALL   1EDC
0C56C:  MOVLB  6
0C56E:  DECFSZ x2C,F
0C570:  BRA    C562
....................                if(CalderinLleno) 
0C572:  MOVLB  0
0C574:  BTFSS  x8E.0
0C576:  BRA    C57E
....................                   BombaVacio_on; 
0C578:  BSF    F8C.5
0C57A:  BCF    F95.5
0C57C:  BRA    C582
....................                else 
....................                   BombaVacio_off; 
0C57E:  BCF    F8C.5
0C580:  BCF    F95.5
....................                IniciaVacio2=ON; 
0C582:  BSF    x91.4
....................                PulsoPositivo=5; //Prueba para ver rendimiento de bomba de vacio************ 
0C584:  MOVLW  05
0C586:  MOVLB  2
0C588:  MOVWF  x1C
0C58A:  MOVLB  0
....................             } 
....................             printf("Funcionamiento.t4f.txt=\" Ninguna\""); 
0C58C:  MOVLW  A6
0C58E:  MOVWF  FF6
0C590:  MOVLW  17
0C592:  MOVWF  FF7
0C594:  MOVLW  00
0C596:  MOVWF  FF8
0C598:  CALL   3C02
....................             SendDataDisplay(); 
0C59C:  CALL   3C34
....................             ControlaPresion(); 
0C5A0:  CALL   655A
....................             IniciaVacio=ON; 
0C5A4:  BSF    x91.3
....................                 
....................             if(PresionCamara>NivelVacio && PulsoPositivo==10){//Pulso Negativo 
0C5A6:  MOVLB  1
0C5A8:  MOVF   xF4,F
0C5AA:  BNZ   C5B4
0C5AC:  MOVF   xF3,W
0C5AE:  MOVLB  2
0C5B0:  SUBWF  x1A,W
0C5B2:  BC    C626
0C5B4:  MOVLB  2
0C5B6:  MOVF   x1C,W
0C5B8:  SUBLW  0A
0C5BA:  BNZ   C626
....................                flag_vacio=1; 
0C5BC:  MOVLB  0
0C5BE:  BSF    x91.7
....................                if(CalderinLleno) 
0C5C0:  BTFSS  x8E.0
0C5C2:  BRA    C5CA
....................                   BombaVacio_on; 
0C5C4:  BSF    F8C.5
0C5C6:  BCF    F95.5
0C5C8:  BRA    C5CE
....................                else 
....................                   BombaVacio_off; 
0C5CA:  BCF    F8C.5
0C5CC:  BCF    F95.5
....................                Vacio_on; 
0C5CE:  BSF    F8C.2
0C5D0:  BCF    F95.2
....................                Desfogue_off; 
0C5D2:  BCF    F8C.3
0C5D4:  BCF    F95.3
....................                Aire_off;                      
0C5D6:  BCF    F8C.4
0C5D8:  BCF    F95.4
....................                Paso_off; 
0C5DA:  BCF    F8C.1
0C5DC:  BCF    F95.1
....................                Agua_on; 
0C5DE:  BSF    F8C.6
0C5E0:  BCF    F95.6
....................                printf("Funcionamiento.t5f.txt=\" Pulso de Vacio %u\"",PulsosVacio); 
0C5E2:  MOVLW  C8
0C5E4:  MOVWF  FF6
0C5E6:  MOVLW  17
0C5E8:  MOVWF  FF7
0C5EA:  MOVLW  00
0C5EC:  MOVWF  FF8
0C5EE:  MOVLW  28
0C5F0:  MOVLB  6
0C5F2:  MOVWF  x31
0C5F4:  MOVLB  0
0C5F6:  CALL   4FD6
0C5FA:  MOVFF  21D,631
0C5FE:  MOVLW  1B
0C600:  MOVLB  6
0C602:  MOVWF  x32
0C604:  MOVLB  0
0C606:  CALL   505A
0C60A:  MOVLW  22
0C60C:  BTFSS  F9E.4
0C60E:  BRA    C60C
0C610:  MOVWF  FAD
....................                SendDataDisplay(); 
0C612:  CALL   3C34
....................                if(flag_pulso==0){ 
0C616:  BTFSC  x92.0
0C618:  BRA    C622
....................                   PulsosVacio++; 
0C61A:  MOVLB  2
0C61C:  INCF   x1D,F
....................                   flag_pulso=1; 
0C61E:  MOVLB  0
0C620:  BSF    x92.0
....................                } 
....................             }else{ 
0C622:  BRA    C62C
0C624:  MOVLB  2
....................                PulsoPositivo=5; 
0C626:  MOVLW  05
0C628:  MOVWF  x1C
0C62A:  MOVLB  0
....................             } 
....................              
....................             if(PulsosVacio>=CantidadPulsos && PulsoPositivo==5){//Si realiza los pulsos de vacio, continua con el proceso de calentamiento 
0C62C:  MOVLB  1
0C62E:  MOVF   xE0,F
0C630:  BNZ   C676
0C632:  MOVF   xDF,W
0C634:  MOVLB  2
0C636:  SUBWF  x1D,W
0C638:  BTFSC  FD8.0
0C63A:  BRA    C640
0C63C:  MOVLB  1
0C63E:  BRA    C676
0C640:  MOVF   x1C,W
0C642:  SUBLW  05
0C644:  BTFSC  FD8.2
0C646:  BRA    C64C
0C648:  MOVLB  1
0C64A:  BRA    C676
....................                Vacio=ON; 
0C64C:  MOVLB  0
0C64E:  BSF    x91.5
....................                Vacio_off; 
0C650:  BCF    F8C.2
0C652:  BCF    F95.2
....................                BombaVacio_off; 
0C654:  BCF    F8C.5
0C656:  BCF    F95.5
....................                Vacio_off; 
0C658:  BCF    F8C.2
0C65A:  BCF    F95.2
....................                Desfogue_off; 
0C65C:  BCF    F8C.3
0C65E:  BCF    F95.3
....................                Aire_off;                                  
0C660:  BCF    F8C.4
0C662:  BCF    F95.4
....................                IniciaVacio=OFF; 
0C664:  BCF    x91.3
....................                Paso_on; 
0C666:  BSF    F8C.1
0C668:  BCF    F95.1
....................                Agua_off; 
0C66A:  BCF    F8C.6
0C66C:  BCF    F95.6
....................                PulsoPositivo=10; 
0C66E:  MOVLW  0A
0C670:  MOVLB  2
0C672:  MOVWF  x1C
0C674:  MOVLB  1
....................             } 
....................                
....................             if(PulsoPositivo==5){//Pulso Positivo 
0C676:  MOVLB  2
0C678:  MOVF   x1C,W
0C67A:  SUBLW  05
0C67C:  BNZ   C700
....................                tvacio=0; 
0C67E:  MOVLB  1
0C680:  CLRF   xFC
0C682:  CLRF   xFB
....................                flag_pulso=0; 
0C684:  MOVLB  0
0C686:  BCF    x92.0
....................                printf("Funcionamiento.t5f.txt=\" Pulso Positivo %u\"",PulsosVacio+1); 
0C688:  MOVLW  01
0C68A:  MOVLB  2
0C68C:  ADDWF  x1D,W
0C68E:  MOVLB  6
0C690:  MOVWF  x2C
0C692:  MOVLW  F4
0C694:  MOVWF  FF6
0C696:  MOVLW  17
0C698:  MOVWF  FF7
0C69A:  MOVLW  00
0C69C:  MOVWF  FF8
0C69E:  MOVLW  28
0C6A0:  MOVWF  x31
0C6A2:  MOVLB  0
0C6A4:  CALL   4FD6
0C6A8:  MOVFF  62C,631
0C6AC:  MOVLW  1B
0C6AE:  MOVLB  6
0C6B0:  MOVWF  x32
0C6B2:  MOVLB  0
0C6B4:  CALL   505A
0C6B8:  MOVLW  22
0C6BA:  BTFSS  F9E.4
0C6BC:  BRA    C6BA
0C6BE:  MOVWF  FAD
....................                SendDataDisplay(); 
0C6C0:  CALL   3C34
....................                if(CalderinLleno) 
0C6C4:  BTFSS  x8E.0
0C6C6:  BRA    C6CE
....................                   BombaVacio_on; 
0C6C8:  BSF    F8C.5
0C6CA:  BCF    F95.5
0C6CC:  BRA    C6D2
....................                else 
....................                   BombaVacio_off; 
0C6CE:  BCF    F8C.5
0C6D0:  BCF    F95.5
....................                Vacio_off; 
0C6D2:  BCF    F8C.2
0C6D4:  BCF    F95.2
....................                Desfogue_off; 
0C6D6:  BCF    F8C.3
0C6D8:  BCF    F95.3
....................                Aire_off;                      
0C6DA:  BCF    F8C.4
0C6DC:  BCF    F95.4
....................                Paso_on;      
0C6DE:  BSF    F8C.1
0C6E0:  BCF    F95.1
....................                Agua_on; 
0C6E2:  BSF    F8C.6
0C6E4:  BCF    F95.6
....................                if(PresionCamara>=Atmosferica+25){ 
0C6E6:  MOVLW  19
0C6E8:  MOVLB  2
0C6EA:  ADDWF  x1B,W
0C6EC:  MOVLB  1
0C6EE:  MOVF   xF4,F
0C6F0:  BNZ   C6F6
0C6F2:  SUBWF  xF3,W
0C6F4:  BNC   C702
....................                   Paso_off; 
0C6F6:  BCF    F8C.1
0C6F8:  BCF    F95.1
....................                   PulsoPositivo=10; 
0C6FA:  MOVLW  0A
0C6FC:  MOVLB  2
0C6FE:  MOVWF  x1C
0C700:  MOVLB  1
....................                }   
....................             } 
....................                 
....................             if(tbomba>=120 && PulsosVacio==0){//Si no se ha generado ningun pulso de vacio despues de 120 segundos se genera alarma 
0C702:  MOVF   xFA,F
0C704:  BNZ   C70C
0C706:  MOVF   xF9,W
0C708:  SUBLW  77
0C70A:  BC    C73C
0C70C:  MOVLB  2
0C70E:  MOVF   x1D,F
0C710:  BTFSC  FD8.2
0C712:  BRA    C718
0C714:  MOVLB  1
0C716:  BRA    C73C
....................                if(PresionCamara>Atmosferica){ 
0C718:  MOVLB  1
0C71A:  MOVF   xF4,F
0C71C:  BNZ   C728
0C71E:  MOVF   xF3,W
0C720:  MOVLB  2
0C722:  SUBWF  x1B,W
0C724:  BC    C730
0C726:  MOVLB  1
....................                   AlarmaBomba=ON; 
0C728:  MOVLB  0
0C72A:  BSF    x8A.6
....................                }else{ 
0C72C:  BRA    C73A
0C72E:  MOVLB  2
....................                   tbomba=0; 
0C730:  MOVLB  1
0C732:  CLRF   xFA
0C734:  CLRF   xF9
....................                   IniciaVacio2=OFF; 
0C736:  MOVLB  0
0C738:  BCF    x91.4
0C73A:  MOVLB  1
....................                } 
....................              } 
....................                 
....................             if(tvacio>=TiempoVacio){//Si excede el tiempo maximo para generar los pulsos de vacio genera alarma             
0C73C:  MOVLB  0
0C73E:  MOVF   x8D,W
0C740:  MOVLB  1
0C742:  SUBWF  xFC,W
0C744:  BNC   C758
0C746:  BNZ   C752
0C748:  MOVLB  0
0C74A:  MOVF   x8C,W
0C74C:  MOVLB  1
0C74E:  SUBWF  xFB,W
0C750:  BNC   C758
....................                AlarmaVacio=ON; 
0C752:  MOVLB  0
0C754:  BSF    x8A.5
0C756:  MOVLB  1
....................             } 
....................          }else{ 
0C758:  BRA    CCB8
0C75A:  MOVLB  0
....................             IniciaVacio=OFF;         
0C75C:  BCF    x91.3
....................             if(Temperatura>=((float)Setpoint-0.3)){ 
0C75E:  MOVLB  6
0C760:  CLRF   x3F
0C762:  MOVFF  1E1,63E
0C766:  MOVLB  0
0C768:  CALL   1EA6
0C76C:  MOVFF  03,62F
0C770:  MOVFF  02,62E
0C774:  MOVFF  01,62D
0C778:  MOVFF  00,62C
0C77C:  BSF    FD8.1
0C77E:  MOVFF  03,641
0C782:  MOVFF  02,640
0C786:  MOVFF  01,63F
0C78A:  MOVFF  00,63E
0C78E:  MOVLW  9A
0C790:  MOVLB  6
0C792:  MOVWF  x45
0C794:  MOVLW  99
0C796:  MOVWF  x44
0C798:  MOVLW  19
0C79A:  MOVWF  x43
0C79C:  MOVLW  7D
0C79E:  MOVWF  x42
0C7A0:  MOVLB  0
0C7A2:  CALL   2062
0C7A6:  MOVFF  03,633
0C7AA:  MOVFF  02,632
0C7AE:  MOVFF  01,631
0C7B2:  MOVFF  00,630
0C7B6:  MOVFF  1BE,637
0C7BA:  MOVFF  1BD,636
0C7BE:  MOVFF  1BC,635
0C7C2:  MOVFF  1BB,634
0C7C6:  CALL   2436
0C7CA:  BC    C7CE
0C7CC:  BNZ   C7D0
....................                Esterilizando=ON; 
0C7CE:  BSF    x8B.3
....................             } 
....................              
....................             if(Temperatura<((float)Setpoint-0.9) && !Desfogando){ 
0C7D0:  MOVLB  6
0C7D2:  CLRF   x3F
0C7D4:  MOVFF  1E1,63E
0C7D8:  MOVLB  0
0C7DA:  CALL   1EA6
0C7DE:  MOVFF  03,62F
0C7E2:  MOVFF  02,62E
0C7E6:  MOVFF  01,62D
0C7EA:  MOVFF  00,62C
0C7EE:  BSF    FD8.1
0C7F0:  MOVFF  03,641
0C7F4:  MOVFF  02,640
0C7F8:  MOVFF  01,63F
0C7FC:  MOVFF  00,63E
0C800:  MOVLW  66
0C802:  MOVLB  6
0C804:  MOVWF  x45
0C806:  MOVWF  x44
0C808:  MOVWF  x43
0C80A:  MOVLW  7E
0C80C:  MOVWF  x42
0C80E:  MOVLB  0
0C810:  CALL   2062
0C814:  MOVFF  1BE,633
0C818:  MOVFF  1BD,632
0C81C:  MOVFF  1BC,631
0C820:  MOVFF  1BB,630
0C824:  MOVFF  03,637
0C828:  MOVFF  02,636
0C82C:  MOVFF  01,635
0C830:  MOVFF  00,634
0C834:  CALL   2436
0C838:  BNC   C840
0C83A:  BTFSC  x8B.6
0C83C:  BRA    C840
....................                Esterilizando=OFF; 
0C83E:  BCF    x8B.3
....................             } 
....................              
....................             if(!Esterilizando){ 
0C840:  BTFSC  x8B.3
0C842:  BRA    C8AE
....................                codigoAlarma=12; 
0C844:  MOVLW  0C
0C846:  MOVLB  2
0C848:  MOVWF  x0A
....................                if(codigoAnt!=codigoAlarma){ 
0C84A:  MOVF   x0A,W
0C84C:  SUBWF  x0B,W
0C84E:  BZ    C85C
....................                   codigoAnt=codigoAlarma; 
0C850:  MOVFF  20A,20B
....................                   GuardaDatoCiclo();                   
0C854:  MOVLB  0
0C856:  CALL   612E
0C85A:  MOVLB  2
....................                } 
....................                flag_vac=OFF; 
0C85C:  MOVLB  0
0C85E:  BCF    x91.6
....................                printf("Funcionamiento.t4f.txt=\" Ninguna\""); 
0C860:  MOVLW  20
0C862:  MOVWF  FF6
0C864:  MOVLW  18
0C866:  MOVWF  FF7
0C868:  MOVLW  00
0C86A:  MOVWF  FF8
0C86C:  CALL   3C02
....................                SendDataDisplay(); 
0C870:  CALL   3C34
....................                printf("Funcionamiento.t5f.txt=\" Calentando\""); 
0C874:  MOVLW  42
0C876:  MOVWF  FF6
0C878:  MOVLW  18
0C87A:  MOVWF  FF7
0C87C:  MOVLW  00
0C87E:  MOVWF  FF8
0C880:  CALL   3C02
....................                SendDataDisplay(); 
0C884:  CALL   3C34
....................                Control=1; 
0C888:  MOVLW  01
0C88A:  MOVLB  1
0C88C:  MOVWF  xCF
....................                Controla(); 
0C88E:  MOVLB  0
0C890:  CALL   6582
....................                Paso_on; 
0C894:  BSF    F8C.1
0C896:  BCF    F95.1
....................                BombaVacio_off; 
0C898:  BCF    F8C.5
0C89A:  BCF    F95.5
....................                Vacio_off; 
0C89C:  BCF    F8C.2
0C89E:  BCF    F95.2
....................                Aire_off; 
0C8A0:  BCF    F8C.4
0C8A2:  BCF    F95.4
....................                Desfogue_off; 
0C8A4:  BCF    F8C.3
0C8A6:  BCF    F95.3
....................                Agua_off; 
0C8A8:  BCF    F8C.6
0C8AA:  BCF    F95.6
....................             }else{ 
0C8AC:  BRA    CCB6
....................                TiempoCiclo=0; 
0C8AE:  CLRF   x94
0C8B0:  CLRF   x93
....................                if((Testerilizacion[0]==0)&&(Testerilizacion[1]==0)&& 
....................                (Testerilizacion[2]==0)&&(Testerilizacion[3]==0)){  
0C8B2:  MOVF   x9D,F
0C8B4:  BTFSS  FD8.2
0C8B6:  BRA    CC68
0C8B8:  MOVF   x9E,F
0C8BA:  BTFSS  FD8.2
0C8BC:  BRA    CC68
0C8BE:  MOVF   x9F,F
0C8C0:  BTFSS  FD8.2
0C8C2:  BRA    CC68
0C8C4:  MOVF   xA0,F
0C8C6:  BTFSS  FD8.2
0C8C8:  BRA    CC68
....................                   if(desfoguelento){ 
0C8CA:  BTFSS  x92.2
0C8CC:  BRA    CA0C
....................                      Controlando=0; 
0C8CE:  MOVLB  1
0C8D0:  CLRF   xD1
....................                      if(PresionCamara<(Atmosferica+2)){ 
0C8D2:  MOVLW  02
0C8D4:  MOVLB  2
0C8D6:  ADDWF  x1B,W
0C8D8:  MOVLB  1
0C8DA:  MOVF   xF4,F
0C8DC:  BNZ   C990
0C8DE:  SUBWF  xF3,W
0C8E0:  BC    C990
....................                         Secando=OFF; 
0C8E2:  MOVLB  0
0C8E4:  BCF    x8B.4
....................                         DesfogueSuave=OFF; 
0C8E6:  BCF    x8B.7
....................                         BombaVacio_off; 
0C8E8:  BCF    F8C.5
0C8EA:  BCF    F95.5
....................                         Vacio_off; 
0C8EC:  BCF    F8C.2
0C8EE:  BCF    F95.2
....................                         Aire_off; 
0C8F0:  BCF    F8C.4
0C8F2:  BCF    F95.4
....................                         Desfogue_on; 
0C8F4:  BSF    F8C.3
0C8F6:  BCF    F95.3
....................                         Paso_off; 
0C8F8:  BCF    F8C.1
0C8FA:  BCF    F95.1
....................                         Suministro_off; 
0C8FC:  BCF    F8C.0
0C8FE:  BCF    F95.0
....................                         Agua_off; 
0C900:  BCF    F8C.6
0C902:  BCF    F95.6
....................                         if(Temperatura<=Tapertura){ 
0C904:  MOVLB  6
0C906:  CLRF   x3F
0C908:  MOVFF  1DE,63E
0C90C:  MOVLB  0
0C90E:  CALL   1EA6
0C912:  MOVFF  1BE,633
0C916:  MOVFF  1BD,632
0C91A:  MOVFF  1BC,631
0C91E:  MOVFF  1BB,630
0C922:  MOVFF  03,637
0C926:  MOVFF  02,636
0C92A:  MOVFF  01,635
0C92E:  MOVFF  00,634
0C932:  CALL   2436
0C936:  BC    C93A
0C938:  BNZ   C986
....................                            ActivaAlarma(2); 
0C93A:  MOVLW  02
0C93C:  MOVLB  6
0C93E:  MOVWF  x2C
0C940:  MOVLB  0
0C942:  CALL   4EEE
....................                            printf("Funcionamiento.t4f.txt=\" Ninguna\""); 
0C946:  MOVLW  68
0C948:  MOVWF  FF6
0C94A:  MOVLW  18
0C94C:  MOVWF  FF7
0C94E:  MOVLW  00
0C950:  MOVWF  FF8
0C952:  CALL   3C02
....................                            SendDataDisplay(); 
0C956:  CALL   3C34
....................                            printf("Funcionamiento.t5f.txt=\" Finalizado\""); 
0C95A:  MOVLW  8A
0C95C:  MOVWF  FF6
0C95E:  MOVLW  18
0C960:  MOVWF  FF7
0C962:  MOVLW  00
0C964:  MOVWF  FF8
0C966:  CALL   3C02
....................                            SendDataDisplay(); 
0C96A:  CALL   3C34
....................                            Finalizo=ON; 
0C96E:  BSF    x90.3
....................                            codigoAlarma=14; 
0C970:  MOVLW  0E
0C972:  MOVLB  2
0C974:  MOVWF  x0A
....................                               if(codigoAnt!=codigoAlarma){ 
0C976:  MOVF   x0A,W
0C978:  SUBWF  x0B,W
0C97A:  BZ    C988
....................                                  codigoAnt=codigoAlarma; 
0C97C:  MOVFF  20A,20B
....................                                  GuardaDatoCiclo();                   
0C980:  MOVLB  0
0C982:  CALL   612E
0C986:  MOVLB  2
....................                               }                           
....................                         } 
....................                         incrementaCiclos(); 
0C988:  MOVLB  0
0C98A:  CALL   64D2
....................                      }else if(PresionCamara>(Atmosferica+10)){ 
0C98E:  BRA    CA0A
0C990:  MOVLW  0A
0C992:  MOVLB  2
0C994:  ADDWF  x1B,W
0C996:  MOVLB  1
0C998:  MOVF   xF4,F
0C99A:  BNZ   C9A2
0C99C:  SUBWF  xF3,W
0C99E:  BZ    CA08
0C9A0:  BNC   CA08
....................                         codigoAlarma=13; 
0C9A2:  MOVLW  0D
0C9A4:  MOVLB  2
0C9A6:  MOVWF  x0A
....................                         if(codigoAnt!=codigoAlarma){ 
0C9A8:  MOVF   x0A,W
0C9AA:  SUBWF  x0B,W
0C9AC:  BZ    C9BA
....................                            codigoAnt=codigoAlarma; 
0C9AE:  MOVFF  20A,20B
....................                            GuardaDatoCiclo();                   
0C9B2:  MOVLB  0
0C9B4:  CALL   612E
0C9B8:  MOVLB  2
....................                         } 
....................                         Desfogando=ON; 
0C9BA:  MOVLB  0
0C9BC:  BSF    x8B.6
....................                         DesfogueSuave=ON; 
0C9BE:  BSF    x8B.7
....................                         printf("Funcionamiento.t4f.txt=\" Ninguna\""); 
0C9C0:  MOVLW  B0
0C9C2:  MOVWF  FF6
0C9C4:  MOVLW  18
0C9C6:  MOVWF  FF7
0C9C8:  MOVLW  00
0C9CA:  MOVWF  FF8
0C9CC:  CALL   3C02
....................                         SendDataDisplay(); 
0C9D0:  CALL   3C34
....................                         printf("Funcionamiento.t5f.txt=\" Despresurizando\""); 
0C9D4:  MOVLW  D2
0C9D6:  MOVWF  FF6
0C9D8:  MOVLW  18
0C9DA:  MOVWF  FF7
0C9DC:  MOVLW  00
0C9DE:  MOVWF  FF8
0C9E0:  CALL   3C02
....................                         SendDataDisplay(); 
0C9E4:  CALL   3C34
....................                         Control=0; 
0C9E8:  MOVLB  1
0C9EA:  CLRF   xCF
....................                         Desfogue_on; 
0C9EC:  BSF    F8C.3
0C9EE:  BCF    F95.3
....................                         Paso_on; 
0C9F0:  BSF    F8C.1
0C9F2:  BCF    F95.1
....................                         BombaVacio_off; 
0C9F4:  BCF    F8C.5
0C9F6:  BCF    F95.5
....................                         Agua_off; 
0C9F8:  BCF    F8C.6
0C9FA:  BCF    F95.6
....................                         Vacio_off; 
0C9FC:  BCF    F8C.2
0C9FE:  BCF    F95.2
....................                         Aire_off;  
0CA00:  BCF    F8C.4
0CA02:  BCF    F95.4
....................                         Suministro_off; 
0CA04:  BCF    F8C.0
0CA06:  BCF    F95.0
0CA08:  MOVLB  0
....................                      } 
....................                   }else{                      
0CA0A:  BRA    CC62
....................                      Paso_off; 
0CA0C:  BCF    F8C.1
0CA0E:  BCF    F95.1
....................                      Controlando=0; 
0CA10:  MOVLB  1
0CA12:  CLRF   xD1
....................                      Control=0; 
0CA14:  CLRF   xCF
....................                      if(PresionCamara<(Atmosferica+2)){   
0CA16:  MOVLW  02
0CA18:  MOVLB  2
0CA1A:  ADDWF  x1B,W
0CA1C:  MOVLB  1
0CA1E:  MOVF   xF4,F
0CA20:  BTFSS  FD8.2
0CA22:  BRA    CBDE
0CA24:  SUBWF  xF3,W
0CA26:  BTFSC  FD8.0
0CA28:  BRA    CBDE
....................                         if((Tsecado[0]==0)&&(Tsecado[1]==0)&&(Tsecado[2]==0)&&(Tsecado[3]==0)){                           
0CA2A:  MOVLB  0
0CA2C:  MOVF   xA5,F
0CA2E:  BTFSS  FD8.2
0CA30:  BRA    CB20
0CA32:  MOVF   xA6,F
0CA34:  BTFSS  FD8.2
0CA36:  BRA    CB20
0CA38:  MOVF   xA7,F
0CA3A:  BTFSS  FD8.2
0CA3C:  BRA    CB20
0CA3E:  MOVF   xA8,F
0CA40:  BNZ   CB20
....................                            codigoAlarma=15; 
0CA42:  MOVLW  0F
0CA44:  MOVLB  2
0CA46:  MOVWF  x0A
....................                            if(codigoAnt!=codigoAlarma){ 
0CA48:  MOVF   x0A,W
0CA4A:  SUBWF  x0B,W
0CA4C:  BZ    CA5A
....................                               codigoAnt=codigoAlarma; 
0CA4E:  MOVFF  20A,20B
....................                               GuardaDatoCiclo();                   
0CA52:  MOVLB  0
0CA54:  CALL   612E
0CA58:  MOVLB  2
....................                            } 
....................                            if(!DOOR){ 
0CA5A:  BSF    F93.1
0CA5C:  BTFSS  F81.1
0CA5E:  BRA    CA6A
....................                               Desfogue_off; 
0CA60:  BCF    F8C.3
0CA62:  BCF    F95.3
....................                               Paso_off; 
0CA64:  BCF    F8C.1
0CA66:  BCF    F95.1
....................                            }else{ 
0CA68:  BRA    CA72
....................                               Desfogue_on;                               
0CA6A:  BSF    F8C.3
0CA6C:  BCF    F95.3
....................                               Paso_off; 
0CA6E:  BCF    F8C.1
0CA70:  BCF    F95.1
....................                            }     
....................                            BombaVacio_off; 
0CA72:  BCF    F8C.5
0CA74:  BCF    F95.5
....................                            Agua_off; 
0CA76:  BCF    F8C.6
0CA78:  BCF    F95.6
....................                            Vacio_off; 
0CA7A:  BCF    F8C.2
0CA7C:  BCF    F95.2
....................                            Aire_on; 
0CA7E:  BSF    F8C.4
0CA80:  BCF    F95.4
....................                            Desfogue_on; 
0CA82:  BSF    F8C.3
0CA84:  BCF    F95.3
....................                            Paso_off; 
0CA86:  BCF    F8C.1
0CA88:  BCF    F95.1
....................                            Suministro_off; 
0CA8A:  BCF    F8C.0
0CA8C:  BCF    F95.0
....................                            Secando=OFF; 
0CA8E:  MOVLB  0
0CA90:  BCF    x8B.4
....................                            if(Temperatura<=Tapertura){ 
0CA92:  MOVLB  6
0CA94:  CLRF   x3F
0CA96:  MOVFF  1DE,63E
0CA9A:  MOVLB  0
0CA9C:  CALL   1EA6
0CAA0:  MOVFF  1BE,633
0CAA4:  MOVFF  1BD,632
0CAA8:  MOVFF  1BC,631
0CAAC:  MOVFF  1BB,630
0CAB0:  MOVFF  03,637
0CAB4:  MOVFF  02,636
0CAB8:  MOVFF  01,635
0CABC:  MOVFF  00,634
0CAC0:  CALL   2436
0CAC4:  BC    CAC8
0CAC6:  BNZ   CB14
....................                               ActivaAlarma(2); 
0CAC8:  MOVLW  02
0CACA:  MOVLB  6
0CACC:  MOVWF  x2C
0CACE:  MOVLB  0
0CAD0:  CALL   4EEE
....................                               printf("Funcionamiento.t4f.txt=\" Ninguna\""); 
0CAD4:  MOVLW  FC
0CAD6:  MOVWF  FF6
0CAD8:  MOVLW  18
0CADA:  MOVWF  FF7
0CADC:  MOVLW  00
0CADE:  MOVWF  FF8
0CAE0:  CALL   3C02
....................                               SendDataDisplay(); 
0CAE4:  CALL   3C34
....................                               printf("Funcionamiento.t5f.txt=\" Finalizado\""); 
0CAE8:  MOVLW  1E
0CAEA:  MOVWF  FF6
0CAEC:  MOVLW  19
0CAEE:  MOVWF  FF7
0CAF0:  MOVLW  00
0CAF2:  MOVWF  FF8
0CAF4:  CALL   3C02
....................                               SendDataDisplay(); 
0CAF8:  CALL   3C34
....................                               Finalizo=ON; 
0CAFC:  BSF    x90.3
....................                               codigoAlarma=14; 
0CAFE:  MOVLW  0E
0CB00:  MOVLB  2
0CB02:  MOVWF  x0A
....................                               if(codigoAnt!=codigoAlarma){ 
0CB04:  MOVF   x0A,W
0CB06:  SUBWF  x0B,W
0CB08:  BZ    CB16
....................                                  codigoAnt=codigoAlarma; 
0CB0A:  MOVFF  20A,20B
....................                                  GuardaDatoCiclo();                   
0CB0E:  MOVLB  0
0CB10:  CALL   612E
0CB14:  MOVLB  2
....................                               } 
....................                            } 
....................                            incrementaCiclos(); 
0CB16:  MOVLB  0
0CB18:  CALL   64D2
....................                            Secando=OFF; 
0CB1C:  BCF    x8B.4
....................                         }else{ 
0CB1E:  BRA    CBDA
....................                            if(Secando){ 
0CB20:  BTFSS  x8B.4
0CB22:  BRA    CB4C
....................                               printf("Funcionamiento.t4f.txt=\" Ninguna\""); 
0CB24:  MOVLW  44
0CB26:  MOVWF  FF6
0CB28:  MOVLW  19
0CB2A:  MOVWF  FF7
0CB2C:  MOVLW  00
0CB2E:  MOVWF  FF8
0CB30:  CALL   3C02
....................                               SendDataDisplay(); 
0CB34:  CALL   3C34
....................                               printf("Funcionamiento.t5f.txt=\" Secando\""); 
0CB38:  MOVLW  66
0CB3A:  MOVWF  FF6
0CB3C:  MOVLW  19
0CB3E:  MOVWF  FF7
0CB40:  MOVLW  00
0CB42:  MOVWF  FF8
0CB44:  CALL   3C02
....................                               SendDataDisplay(); 
0CB48:  CALL   3C34
....................                            } 
....................                            Paso_off; 
0CB4C:  BCF    F8C.1
0CB4E:  BCF    F95.1
....................                            ControlaPresion(); 
0CB50:  CALL   655A
....................                            if(PresionCamara>NivelVacio+5){//Si la presin de la camara es mayor al nivel de vacio 
0CB54:  MOVLW  05
0CB56:  MOVLB  2
0CB58:  ADDWF  x1A,W
0CB5A:  MOVLB  1
0CB5C:  MOVF   xF4,F
0CB5E:  BNZ   CB66
0CB60:  SUBWF  xF3,W
0CB62:  BZ    CB8C
0CB64:  BNC   CB8C
....................                               if(CalderinLleno) 
0CB66:  MOVLB  0
0CB68:  BTFSS  x8E.0
0CB6A:  BRA    CB72
....................                                  BombaVacio_on; 
0CB6C:  BSF    F8C.5
0CB6E:  BCF    F95.5
0CB70:  BRA    CB76
....................                               else 
....................                                  BombaVacio_off; 
0CB72:  BCF    F8C.5
0CB74:  BCF    F95.5
....................                               Vacio_on; 
0CB76:  BSF    F8C.2
0CB78:  BCF    F95.2
....................                               Agua_on; 
0CB7A:  BSF    F8C.6
0CB7C:  BCF    F95.6
....................                               Desfogue_off; 
0CB7E:  BCF    F8C.3
0CB80:  BCF    F95.3
....................                               Aire_off; 
0CB82:  BCF    F8C.4
0CB84:  BCF    F95.4
....................                               Paso_off; 
0CB86:  BCF    F8C.1
0CB88:  BCF    F95.1
0CB8A:  MOVLB  1
....................                            } 
....................        
....................                            if(PresionCamara<=NivelVacio){//Si alcanzo el nivel de vacio requerido 
0CB8C:  MOVF   xF4,F
0CB8E:  BNZ   CBDC
0CB90:  MOVF   xF3,W
0CB92:  MOVLB  2
0CB94:  SUBWF  x1A,W
0CB96:  BTFSC  FD8.0
0CB98:  BRA    CB9E
0CB9A:  MOVLB  1
0CB9C:  BRA    CBDC
....................                               codigoAlarma=15; 
0CB9E:  MOVLW  0F
0CBA0:  MOVWF  x0A
....................                               if(codigoAnt!=codigoAlarma){ 
0CBA2:  MOVF   x0A,W
0CBA4:  SUBWF  x0B,W
0CBA6:  BZ    CBB4
....................                                  codigoAnt=codigoAlarma; 
0CBA8:  MOVFF  20A,20B
....................                                  GuardaDatoCiclo();                   
0CBAC:  MOVLB  0
0CBAE:  CALL   612E
0CBB2:  MOVLB  2
....................                               } 
....................                               Secando=ON; 
0CBB4:  MOVLB  0
0CBB6:  BSF    x8B.4
....................                               if(CalderinLleno) 
0CBB8:  BTFSS  x8E.0
0CBBA:  BRA    CBC2
....................                                  BombaVacio_on; 
0CBBC:  BSF    F8C.5
0CBBE:  BCF    F95.5
0CBC0:  BRA    CBC6
....................                               else 
....................                                  BombaVacio_off; 
0CBC2:  BCF    F8C.5
0CBC4:  BCF    F95.5
....................                               Agua_on; 
0CBC6:  BSF    F8C.6
0CBC8:  BCF    F95.6
....................                               Vacio_on; 
0CBCA:  BSF    F8C.2
0CBCC:  BCF    F95.2
....................                               Desfogue_off; 
0CBCE:  BCF    F8C.3
0CBD0:  BCF    F95.3
....................                               Aire_on;                      
0CBD2:  BSF    F8C.4
0CBD4:  BCF    F95.4
....................                               Paso_off; 
0CBD6:  BCF    F8C.1
0CBD8:  BCF    F95.1
0CBDA:  MOVLB  1
....................                            } 
....................                         } 
....................                      }else if(PresionCamara>(Atmosferica+5)){ 
0CBDC:  BRA    CC64
0CBDE:  MOVLW  05
0CBE0:  MOVLB  2
0CBE2:  ADDWF  x1B,W
0CBE4:  MOVLB  1
0CBE6:  MOVF   xF4,F
0CBE8:  BNZ   CBF0
0CBEA:  SUBWF  xF3,W
0CBEC:  BZ    CC64
0CBEE:  BNC   CC64
....................                         codigoAlarma=13; 
0CBF0:  MOVLW  0D
0CBF2:  MOVLB  2
0CBF4:  MOVWF  x0A
....................                         if(codigoAnt!=codigoAlarma){ 
0CBF6:  MOVF   x0A,W
0CBF8:  SUBWF  x0B,W
0CBFA:  BZ    CC08
....................                            codigoAnt=codigoAlarma; 
0CBFC:  MOVFF  20A,20B
....................                            GuardaDatoCiclo();                   
0CC00:  MOVLB  0
0CC02:  CALL   612E
0CC06:  MOVLB  2
....................                         } 
....................                         Desfogando=ON; 
0CC08:  MOVLB  0
0CC0A:  BSF    x8B.6
....................                         printf("Funcionamiento.t4f.txt=\" Ninguna\""); 
0CC0C:  MOVLW  88
0CC0E:  MOVWF  FF6
0CC10:  MOVLW  19
0CC12:  MOVWF  FF7
0CC14:  MOVLW  00
0CC16:  MOVWF  FF8
0CC18:  CALL   3C02
....................                         SendDataDisplay(); 
0CC1C:  CALL   3C34
....................                         printf("Funcionamiento.t5f.txt=\" Despresurizando\""); 
0CC20:  MOVLW  AA
0CC22:  MOVWF  FF6
0CC24:  MOVLW  19
0CC26:  MOVWF  FF7
0CC28:  MOVLW  00
0CC2A:  MOVWF  FF8
0CC2C:  CALL   3C02
....................                         SendDataDisplay(); 
0CC30:  CALL   3C34
....................                         Control=0; 
0CC34:  MOVLB  1
0CC36:  CLRF   xCF
....................                         Controlando=0; 
0CC38:  CLRF   xD1
....................                         Paso_off; 
0CC3A:  BCF    F8C.1
0CC3C:  BCF    F95.1
....................                         Desfogue_off; 
0CC3E:  BCF    F8C.3
0CC40:  BCF    F95.3
....................                         if(CalderinLleno) 
0CC42:  MOVLB  0
0CC44:  BTFSS  x8E.0
0CC46:  BRA    CC4E
....................                            BombaVacio_on; 
0CC48:  BSF    F8C.5
0CC4A:  BCF    F95.5
0CC4C:  BRA    CC52
....................                         else 
....................                            BombaVacio_off;    
0CC4E:  BCF    F8C.5
0CC50:  BCF    F95.5
....................                         Agua_on; 
0CC52:  BSF    F8C.6
0CC54:  BCF    F95.6
....................                         Vacio_on; 
0CC56:  BSF    F8C.2
0CC58:  BCF    F95.2
....................                         Aire_off; 
0CC5A:  BCF    F8C.4
0CC5C:  BCF    F95.4
....................                         Suministro_off; 
0CC5E:  BCF    F8C.0
0CC60:  BCF    F95.0
0CC62:  MOVLB  1
....................                      } 
....................                   } 
....................                }else{ 
0CC64:  BRA    CCB8
0CC66:  MOVLB  0
....................                   codigoAlarma=16; 
0CC68:  MOVLW  10
0CC6A:  MOVLB  2
0CC6C:  MOVWF  x0A
....................                   if(codigoAnt!=codigoAlarma){ 
0CC6E:  MOVF   x0A,W
0CC70:  SUBWF  x0B,W
0CC72:  BZ    CC80
....................                      codigoAnt=codigoAlarma; 
0CC74:  MOVFF  20A,20B
....................                      GuardaDatoCiclo();                   
0CC78:  MOVLB  0
0CC7A:  CALL   612E
0CC7E:  MOVLB  2
....................                   } 
....................                   printf("Funcionamiento.t4f.txt=\" Ninguna\""); 
0CC80:  MOVLW  D4
0CC82:  MOVWF  FF6
0CC84:  MOVLW  19
0CC86:  MOVWF  FF7
0CC88:  MOVLW  00
0CC8A:  MOVWF  FF8
0CC8C:  MOVLB  0
0CC8E:  CALL   3C02
....................                   SendDataDisplay(); 
0CC92:  CALL   3C34
....................                   printf("Funcionamiento.t5f.txt=\" Esterilizando\""); 
0CC96:  MOVLW  F6
0CC98:  MOVWF  FF6
0CC9A:  MOVLW  19
0CC9C:  MOVWF  FF7
0CC9E:  MOVLW  00
0CCA0:  MOVWF  FF8
0CCA2:  CALL   3C02
....................                   SendDataDisplay(); 
0CCA6:  CALL   3C34
....................                   //Paso_on; 
....................                   Control=1; 
0CCAA:  MOVLW  01
0CCAC:  MOVLB  1
0CCAE:  MOVWF  xCF
....................                   Controla(); 
0CCB0:  MOVLB  0
0CCB2:  CALL   6582
0CCB6:  MOVLB  1
0CCB8:  MOVLB  2
....................                } 
....................             } 
....................          } 
....................       }  
....................       }else{ 
0CCBA:  BRA    CEB6
0CCBC:  MOVLB  0
....................       Buzzer_off; 
0CCBE:  BCF    F8B.5
0CCC0:  BCF    F94.5
....................       IniciaCiclo=ON; 
0CCC2:  BSF    x8B.2
....................          if(!flag_vac){ 
0CCC4:  BTFSC  x91.6
0CCC6:  BRA    CD18
....................             codigoAlarma=11; 
0CCC8:  MOVLW  0B
0CCCA:  MOVLB  2
0CCCC:  MOVWF  x0A
....................             if(codigoAnt!=codigoAlarma){ 
0CCCE:  MOVF   x0A,W
0CCD0:  SUBWF  x0B,W
0CCD2:  BZ    CCE0
....................                codigoAnt=codigoAlarma; 
0CCD4:  MOVFF  20A,20B
....................                GuardaDatoCiclo();                
0CCD8:  MOVLB  0
0CCDA:  CALL   612E
0CCDE:  MOVLB  2
....................             } 
....................             flag_vac=ON; 
0CCE0:  MOVLB  0
0CCE2:  BSF    x91.6
....................             if(CalderinLleno) 
0CCE4:  BTFSS  x8E.0
0CCE6:  BRA    CCEE
....................                BombaVacio_on; 
0CCE8:  BSF    F8C.5
0CCEA:  BCF    F95.5
0CCEC:  BRA    CCF2
....................             else 
....................                BombaVacio_off; 
0CCEE:  BCF    F8C.5
0CCF0:  BCF    F95.5
....................             Desfogue_off; 
0CCF2:  BCF    F8C.3
0CCF4:  BCF    F95.3
....................             Aire_off; 
0CCF6:  BCF    F8C.4
0CCF8:  BCF    F95.4
....................             Agua_off; 
0CCFA:  BCF    F8C.6
0CCFC:  BCF    F95.6
....................             Paso_off; 
0CCFE:  BCF    F8C.1
0CD00:  BCF    F95.1
....................             Suministro_off; 
0CD02:  BCF    F8C.0
0CD04:  BCF    F95.0
....................             delay_ms(70); 
0CD06:  MOVLW  46
0CD08:  MOVLB  6
0CD0A:  MOVWF  x35
0CD0C:  MOVLB  0
0CD0E:  CALL   1EDC
....................             IniciaVacio2=ON; 
0CD12:  BSF    x91.4
....................             Vacio_on; 
0CD14:  BSF    F8C.2
0CD16:  BCF    F95.2
....................          } 
....................           
....................          if(tbomba>=120){ 
0CD18:  MOVLB  1
0CD1A:  MOVF   xFA,F
0CD1C:  BNZ   CD24
0CD1E:  MOVF   xF9,W
0CD20:  SUBLW  77
0CD22:  BC    CD46
....................             if(PresionCamara>Atmosferica){ 
0CD24:  MOVF   xF4,F
0CD26:  BNZ   CD32
0CD28:  MOVF   xF3,W
0CD2A:  MOVLB  2
0CD2C:  SUBWF  x1B,W
0CD2E:  BC    CD3A
0CD30:  MOVLB  1
....................                AlarmaBomba=ON; 
0CD32:  MOVLB  0
0CD34:  BSF    x8A.6
....................             }else{ 
0CD36:  BRA    CD44
0CD38:  MOVLB  2
....................                tbomba=0; 
0CD3A:  MOVLB  1
0CD3C:  CLRF   xFA
0CD3E:  CLRF   xF9
....................                IniciaVacio2=OFF; 
0CD40:  MOVLB  0
0CD42:  BCF    x91.4
0CD44:  MOVLB  1
....................             } 
....................          } 
....................           
....................          if(tvacio>=TiempoVacio){//Si excede el tiempo maximo para generar los pulsos de vacio genera alarma             
0CD46:  MOVLB  0
0CD48:  MOVF   x8D,W
0CD4A:  MOVLB  1
0CD4C:  SUBWF  xFC,W
0CD4E:  BNC   CD62
0CD50:  BNZ   CD5C
0CD52:  MOVLB  0
0CD54:  MOVF   x8C,W
0CD56:  MOVLB  1
0CD58:  SUBWF  xFB,W
0CD5A:  BNC   CD62
....................                AlarmaVacio=ON; 
0CD5C:  MOVLB  0
0CD5E:  BSF    x8A.5
0CD60:  MOVLB  1
....................          } 
....................           
....................          if(PresionCamara<55){ 
0CD62:  MOVF   xF4,F
0CD64:  BNZ   CD94
0CD66:  MOVF   xF3,W
0CD68:  SUBLW  36
0CD6A:  BNC   CD94
....................             BombaVacio_off; 
0CD6C:  BCF    F8C.5
0CD6E:  BCF    F95.5
....................             Vacio_off; 
0CD70:  BCF    F8C.2
0CD72:  BCF    F95.2
....................             Desfogue_off; 
0CD74:  BCF    F8C.3
0CD76:  BCF    F95.3
....................             Aire_off; 
0CD78:  BCF    F8C.4
0CD7A:  BCF    F95.4
....................             Agua_off; 
0CD7C:  BCF    F8C.6
0CD7E:  BCF    F95.6
....................             Paso_off; 
0CD80:  BCF    F8C.1
0CD82:  BCF    F95.1
....................             Suministro_off; 
0CD84:  BCF    F8C.0
0CD86:  BCF    F95.0
....................             Esterilizando=ON; 
0CD88:  MOVLB  0
0CD8A:  BSF    x8B.3
....................             IniciaVacio=OFF; 
0CD8C:  BCF    x91.3
....................             tbomba=0; 
0CD8E:  MOVLB  1
0CD90:  CLRF   xFA
0CD92:  CLRF   xF9
....................          }  
....................           
....................          if(!Esterilizando){ 
0CD94:  MOVLB  0
0CD96:  BTFSC  x8B.3
0CD98:  BRA    CDD0
....................             if(CalderinLleno) 
0CD9A:  BTFSS  x8E.0
0CD9C:  BRA    CDA4
....................                BombaVacio_on; 
0CD9E:  BSF    F8C.5
0CDA0:  BCF    F95.5
0CDA2:  BRA    CDA8
....................             else 
....................                BombaVacio_off; 
0CDA4:  BCF    F8C.5
0CDA6:  BCF    F95.5
....................              
....................             printf("Funcionamiento.t4f.txt=\" Ninguna\""); 
0CDA8:  MOVLW  1E
0CDAA:  MOVWF  FF6
0CDAC:  MOVLW  1A
0CDAE:  MOVWF  FF7
0CDB0:  MOVLW  00
0CDB2:  MOVWF  FF8
0CDB4:  CALL   3C02
....................             SendDataDisplay(); 
0CDB8:  CALL   3C34
....................             printf("Funcionamiento.t5f.txt=\" Vacio\""); 
0CDBC:  MOVLW  40
0CDBE:  MOVWF  FF6
0CDC0:  MOVLW  1A
0CDC2:  MOVWF  FF7
0CDC4:  MOVLW  00
0CDC6:  MOVWF  FF8
0CDC8:  CALL   3C02
....................             SendDataDisplay(); 
0CDCC:  CALL   3C34
....................          } 
....................           
....................          if((Testerilizacion[0]==0)&&(Testerilizacion[1]==0)&&(Testerilizacion[2]==0)&&(Testerilizacion[3]==0)){                 
0CDD0:  MOVF   x9D,F
0CDD2:  BTFSS  FD8.2
0CDD4:  BRA    CEB4
0CDD6:  MOVF   x9E,F
0CDD8:  BNZ   CEB4
0CDDA:  MOVF   x9F,F
0CDDC:  BNZ   CEB4
0CDDE:  MOVF   xA0,F
0CDE0:  BNZ   CEB4
....................             IniciaVacio=OFF; 
0CDE2:  BCF    x91.3
....................             tbomba=0; 
0CDE4:  MOVLB  1
0CDE6:  CLRF   xFA
0CDE8:  CLRF   xF9
....................             BombaVacio_off; 
0CDEA:  BCF    F8C.5
0CDEC:  BCF    F95.5
....................             Vacio_off; 
0CDEE:  BCF    F8C.2
0CDF0:  BCF    F95.2
....................             Desfogue_off; 
0CDF2:  BCF    F8C.3
0CDF4:  BCF    F95.3
....................             Aire_on; 
0CDF6:  BSF    F8C.4
0CDF8:  BCF    F95.4
....................             Paso_off; 
0CDFA:  BCF    F8C.1
0CDFC:  BCF    F95.1
....................             Suministro_off; 
0CDFE:  BCF    F8C.0
0CE00:  BCF    F95.0
....................             Agua_off; 
0CE02:  BCF    F8C.6
0CE04:  BCF    F95.6
....................             ActivaAlarma(2); 
0CE06:  MOVLW  02
0CE08:  MOVLB  6
0CE0A:  MOVWF  x2C
0CE0C:  MOVLB  0
0CE0E:  CALL   4EEE
....................             if(!Finalizo){ 
0CE12:  BTFSC  x90.3
0CE14:  BRA    CEAA
....................                Finalizo=ON; 
0CE16:  BSF    x90.3
....................                if(PresionCamara<=60){ 
0CE18:  MOVLB  1
0CE1A:  MOVF   xF4,F
0CE1C:  BNZ   CE6A
0CE1E:  MOVF   xF3,W
0CE20:  SUBLW  3C
0CE22:  BNC   CE6A
....................                   printf("Funcionamiento.t4f.txt=\" Ninguna\""); 
0CE24:  MOVLW  60
0CE26:  MOVWF  FF6
0CE28:  MOVLW  1A
0CE2A:  MOVWF  FF7
0CE2C:  MOVLW  00
0CE2E:  MOVWF  FF8
0CE30:  MOVLB  0
0CE32:  CALL   3C02
....................                   SendDataDisplay(); 
0CE36:  CALL   3C34
....................                   printf("Funcionamiento.t5f.txt=\" Finalizado\""); 
0CE3A:  MOVLW  82
0CE3C:  MOVWF  FF6
0CE3E:  MOVLW  1A
0CE40:  MOVWF  FF7
0CE42:  MOVLW  00
0CE44:  MOVWF  FF8
0CE46:  CALL   3C02
....................                   SendDataDisplay(); 
0CE4A:  CALL   3C34
....................                   codigoAlarma=14; 
0CE4E:  MOVLW  0E
0CE50:  MOVLB  2
0CE52:  MOVWF  x0A
....................                   if(codigoAnt!=codigoAlarma){ 
0CE54:  MOVF   x0A,W
0CE56:  SUBWF  x0B,W
0CE58:  BZ    CE66
....................                      codigoAnt=codigoAlarma; 
0CE5A:  MOVFF  20A,20B
....................                      GuardaDatoCiclo();                   
0CE5E:  MOVLB  0
0CE60:  CALL   612E
0CE64:  MOVLB  2
....................                   } 
....................                }else{ 
0CE66:  BRA    CEAC
0CE68:  MOVLB  1
....................                   printf("Funcionamiento.t4f.txt=\" Error Ciclo\""); 
0CE6A:  MOVLW  A8
0CE6C:  MOVWF  FF6
0CE6E:  MOVLW  1A
0CE70:  MOVWF  FF7
0CE72:  MOVLW  00
0CE74:  MOVWF  FF8
0CE76:  MOVLB  0
0CE78:  CALL   3C02
....................                   SendDataDisplay(); 
0CE7C:  CALL   3C34
....................                   printf("Funcionamiento.t5f.txt=\" Finalizado\""); 
0CE80:  MOVLW  CE
0CE82:  MOVWF  FF6
0CE84:  MOVLW  1A
0CE86:  MOVWF  FF7
0CE88:  MOVLW  00
0CE8A:  MOVWF  FF8
0CE8C:  CALL   3C02
....................                   SendDataDisplay(); 
0CE90:  CALL   3C34
....................                   codigoAlarma=8; 
0CE94:  MOVLW  08
0CE96:  MOVLB  2
0CE98:  MOVWF  x0A
....................                   if(codigoAnt!=codigoAlarma){ 
0CE9A:  MOVF   x0A,W
0CE9C:  SUBWF  x0B,W
0CE9E:  BZ    CEAC
....................                      codigoAnt=codigoAlarma; 
0CEA0:  MOVFF  20A,20B
....................                      GuardaDatoCiclo();                   
0CEA4:  MOVLB  0
0CEA6:  CALL   612E
0CEAA:  MOVLB  2
....................                   } 
....................                } 
....................             } 
....................             incrementaCiclos(); 
0CEAC:  MOVLB  0
0CEAE:  CALL   64D2
....................             Esterilizando=OFF; 
0CEB2:  BCF    x8B.3
0CEB4:  MOVLB  2
....................          } 
....................       } 
....................    } 
....................  
....................    if(tguarda>=180){ 
0CEB6:  MOVLB  0
0CEB8:  MOVF   x9C,F
0CEBA:  BNZ   CEC2
0CEBC:  MOVF   x9B,W
0CEBE:  SUBLW  B3
0CEC0:  BC    CECE
....................       if(!Ciclo) 
0CEC2:  BTFSC  x8E.6
0CEC4:  BRA    CECA
....................          GuardaDatoCiclo(); 
0CEC6:  CALL   612E
....................       tguarda=0; 
0CECA:  CLRF   x9C
0CECC:  CLRF   x9B
....................    } 
....................  
....................    if(Grafica==1){ 
0CECE:  BTFSS  x92.4
0CED0:  BRA    D042
....................       printf("add 14,0,%1.0f",Temperatura*0.66); 
0CED2:  MOVFF  1BE,645
0CED6:  MOVFF  1BD,644
0CEDA:  MOVFF  1BC,643
0CEDE:  MOVFF  1BB,642
0CEE2:  MOVLW  C3
0CEE4:  MOVLB  6
0CEE6:  MOVWF  x49
0CEE8:  MOVLW  F5
0CEEA:  MOVWF  x48
0CEEC:  MOVLW  28
0CEEE:  MOVWF  x47
0CEF0:  MOVLW  7E
0CEF2:  MOVWF  x46
0CEF4:  MOVLB  0
0CEF6:  CALL   3C92
0CEFA:  MOVFF  03,62F
0CEFE:  MOVFF  02,62E
0CF02:  MOVFF  01,62D
0CF06:  MOVFF  00,62C
0CF0A:  MOVLW  F4
0CF0C:  MOVWF  FF6
0CF0E:  MOVLW  1A
0CF10:  MOVWF  FF7
0CF12:  MOVLW  00
0CF14:  MOVWF  FF8
0CF16:  MOVLW  09
0CF18:  MOVLB  6
0CF1A:  MOVWF  x31
0CF1C:  MOVLB  0
0CF1E:  CALL   4FD6
0CF22:  MOVLW  00
0CF24:  MOVWF  FE9
0CF26:  MOVFF  62F,634
0CF2A:  MOVFF  62E,633
0CF2E:  MOVFF  62D,632
0CF32:  MOVFF  62C,631
0CF36:  MOVLB  6
0CF38:  CLRF   x35
0CF3A:  MOVLB  0
0CF3C:  CALL   52C2
....................       SendDataDisplay(); 
0CF40:  CALL   3C34
....................       printf("add 14,1,%1.0f",PresionCamara*0.66); 
0CF44:  MOVFF  1F4,63F
0CF48:  MOVFF  1F3,63E
0CF4C:  CALL   1EA6
0CF50:  MOVFF  03,645
0CF54:  MOVFF  02,644
0CF58:  MOVFF  01,643
0CF5C:  MOVFF  00,642
0CF60:  MOVLW  C3
0CF62:  MOVLB  6
0CF64:  MOVWF  x49
0CF66:  MOVLW  F5
0CF68:  MOVWF  x48
0CF6A:  MOVLW  28
0CF6C:  MOVWF  x47
0CF6E:  MOVLW  7E
0CF70:  MOVWF  x46
0CF72:  MOVLB  0
0CF74:  CALL   3C92
0CF78:  MOVFF  03,62F
0CF7C:  MOVFF  02,62E
0CF80:  MOVFF  01,62D
0CF84:  MOVFF  00,62C
0CF88:  MOVLW  04
0CF8A:  MOVWF  FF6
0CF8C:  MOVLW  1B
0CF8E:  MOVWF  FF7
0CF90:  MOVLW  00
0CF92:  MOVWF  FF8
0CF94:  MOVLW  09
0CF96:  MOVLB  6
0CF98:  MOVWF  x31
0CF9A:  MOVLB  0
0CF9C:  CALL   4FD6
0CFA0:  MOVLW  00
0CFA2:  MOVWF  FE9
0CFA4:  MOVFF  62F,634
0CFA8:  MOVFF  62E,633
0CFAC:  MOVFF  62D,632
0CFB0:  MOVFF  62C,631
0CFB4:  MOVLB  6
0CFB6:  CLRF   x35
0CFB8:  MOVLB  0
0CFBA:  CALL   52C2
....................       SendDataDisplay(); 
0CFBE:  CALL   3C34
....................       printf("add 14,2,%1.0f",PresionPreCamara*0.66); 
0CFC2:  MOVFF  1F6,63F
0CFC6:  MOVFF  1F5,63E
0CFCA:  CALL   1EA6
0CFCE:  MOVFF  03,645
0CFD2:  MOVFF  02,644
0CFD6:  MOVFF  01,643
0CFDA:  MOVFF  00,642
0CFDE:  MOVLW  C3
0CFE0:  MOVLB  6
0CFE2:  MOVWF  x49
0CFE4:  MOVLW  F5
0CFE6:  MOVWF  x48
0CFE8:  MOVLW  28
0CFEA:  MOVWF  x47
0CFEC:  MOVLW  7E
0CFEE:  MOVWF  x46
0CFF0:  MOVLB  0
0CFF2:  CALL   3C92
0CFF6:  MOVFF  03,62F
0CFFA:  MOVFF  02,62E
0CFFE:  MOVFF  01,62D
0D002:  MOVFF  00,62C
0D006:  MOVLW  14
0D008:  MOVWF  FF6
0D00A:  MOVLW  1B
0D00C:  MOVWF  FF7
0D00E:  MOVLW  00
0D010:  MOVWF  FF8
0D012:  MOVLW  09
0D014:  MOVLB  6
0D016:  MOVWF  x31
0D018:  MOVLB  0
0D01A:  CALL   4FD6
0D01E:  MOVLW  00
0D020:  MOVWF  FE9
0D022:  MOVFF  62F,634
0D026:  MOVFF  62E,633
0D02A:  MOVFF  62D,632
0D02E:  MOVFF  62C,631
0D032:  MOVLB  6
0D034:  CLRF   x35
0D036:  MOVLB  0
0D038:  CALL   52C2
....................       SendDataDisplay(); 
0D03C:  CALL   3C34
....................       Grafica=0; 
0D040:  BCF    x92.4
....................    } 
....................    if(Lectura==1)// Utilizado para visualizar la lectura de la temperatura 
0D042:  BTFSS  x92.3
0D044:  BRA    D368
....................    {                       
....................       Lectura=0; 
0D046:  BCF    x92.3
....................       printf("tuser.txt=\"%s\"",usuario); 
0D048:  MOVLW  24
0D04A:  MOVWF  FF6
0D04C:  MOVLW  1B
0D04E:  MOVWF  FF7
0D050:  MOVLW  00
0D052:  MOVWF  FF8
0D054:  MOVLW  0B
0D056:  MOVLB  6
0D058:  MOVWF  x31
0D05A:  MOVLB  0
0D05C:  CALL   4FD6
0D060:  MOVLW  02
0D062:  MOVWF  FEA
0D064:  MOVLW  30
0D066:  MOVWF  FE9
0D068:  CALL   5008
0D06C:  MOVLW  22
0D06E:  BTFSS  F9E.4
0D070:  BRA    D06E
0D072:  MOVWF  FAD
....................       SendDataDisplay(); 
0D074:  CALL   3C34
....................       printf("t6f.txt=\"%3.1f\"",Temperatura); 
0D078:  MOVLW  34
0D07A:  MOVWF  FF6
0D07C:  MOVLW  1B
0D07E:  MOVWF  FF7
0D080:  MOVLW  00
0D082:  MOVWF  FF8
0D084:  MOVLW  09
0D086:  MOVLB  6
0D088:  MOVWF  x31
0D08A:  MOVLB  0
0D08C:  CALL   4FD6
0D090:  MOVLW  02
0D092:  MOVWF  FE9
0D094:  MOVFF  1BE,634
0D098:  MOVFF  1BD,633
0D09C:  MOVFF  1BC,632
0D0A0:  MOVFF  1BB,631
0D0A4:  MOVLW  01
0D0A6:  MOVLB  6
0D0A8:  MOVWF  x35
0D0AA:  MOVLB  0
0D0AC:  CALL   52C2
0D0B0:  MOVLW  22
0D0B2:  BTFSS  F9E.4
0D0B4:  BRA    D0B2
0D0B6:  MOVWF  FAD
....................       SendDataDisplay(); 
0D0B8:  CALL   3C34
....................       printf("Funcionamiento.t7f.txt=\"%03LukPa\"",PresionCamara); 
0D0BC:  MOVLW  44
0D0BE:  MOVWF  FF6
0D0C0:  MOVLW  1B
0D0C2:  MOVWF  FF7
0D0C4:  MOVLW  00
0D0C6:  MOVWF  FF8
0D0C8:  MOVLW  18
0D0CA:  MOVLB  6
0D0CC:  MOVWF  x31
0D0CE:  MOVLB  0
0D0D0:  CALL   4FD6
0D0D4:  MOVLW  0A
0D0D6:  MOVWF  FE9
0D0D8:  MOVFF  1F4,631
0D0DC:  MOVFF  1F3,630
0D0E0:  CALL   5136
0D0E4:  MOVLW  61
0D0E6:  MOVWF  FF6
0D0E8:  MOVLW  1B
0D0EA:  MOVWF  FF7
0D0EC:  MOVLW  00
0D0EE:  MOVWF  FF8
0D0F0:  MOVLW  04
0D0F2:  MOVLB  6
0D0F4:  MOVWF  x31
0D0F6:  MOVLB  0
0D0F8:  CALL   4FD6
....................       SendDataDisplay(); 
0D0FC:  CALL   3C34
....................       printf("Funcionamiento.t12f.txt=\"%03LukPa\"",PresionPreCamara); 
0D100:  MOVLW  66
0D102:  MOVWF  FF6
0D104:  MOVLW  1B
0D106:  MOVWF  FF7
0D108:  MOVLW  00
0D10A:  MOVWF  FF8
0D10C:  MOVLW  19
0D10E:  MOVLB  6
0D110:  MOVWF  x31
0D112:  MOVLB  0
0D114:  CALL   4FD6
0D118:  MOVLW  0A
0D11A:  MOVWF  FE9
0D11C:  MOVFF  1F6,631
0D120:  MOVFF  1F5,630
0D124:  CALL   5136
0D128:  MOVLW  84
0D12A:  MOVWF  FF6
0D12C:  MOVLW  1B
0D12E:  MOVWF  FF7
0D130:  MOVLW  00
0D132:  MOVWF  FF8
0D134:  MOVLW  04
0D136:  MOVLB  6
0D138:  MOVWF  x31
0D13A:  MOVLB  0
0D13C:  CALL   4FD6
....................       SendDataDisplay(); 
0D140:  CALL   3C34
....................       printf("Funcionamiento.t9f.txt=\"%03u\"",Setpoint); 
0D144:  MOVLW  8A
0D146:  MOVWF  FF6
0D148:  MOVLW  1B
0D14A:  MOVWF  FF7
0D14C:  MOVLW  00
0D14E:  MOVWF  FF8
0D150:  MOVLW  18
0D152:  MOVLB  6
0D154:  MOVWF  x31
0D156:  MOVLB  0
0D158:  CALL   4FD6
0D15C:  MOVFF  1E1,631
0D160:  MOVLW  03
0D162:  MOVLB  6
0D164:  MOVWF  x32
0D166:  MOVLB  0
0D168:  CALL   505A
0D16C:  MOVLW  22
0D16E:  BTFSS  F9E.4
0D170:  BRA    D16E
0D172:  MOVWF  FAD
....................       SendDataDisplay();       
0D174:  CALL   3C34
....................       printf("Funcionamiento.t10f.txt=\"%02u\"",((Testerilizacion[3]*10)+Testerilizacion[2])); 
0D178:  MOVFF  A0,633
0D17C:  MOVLW  0A
0D17E:  MOVLB  6
0D180:  MOVWF  x34
0D182:  MOVLB  0
0D184:  CALL   370E
0D188:  MOVF   x9F,W
0D18A:  ADDWF  01,W
0D18C:  MOVLB  6
0D18E:  MOVWF  x2C
0D190:  MOVLW  A8
0D192:  MOVWF  FF6
0D194:  MOVLW  1B
0D196:  MOVWF  FF7
0D198:  MOVLW  00
0D19A:  MOVWF  FF8
0D19C:  MOVLW  19
0D19E:  MOVWF  x31
0D1A0:  MOVLB  0
0D1A2:  CALL   4FD6
0D1A6:  MOVFF  62C,631
0D1AA:  MOVLW  01
0D1AC:  MOVLB  6
0D1AE:  MOVWF  x32
0D1B0:  MOVLB  0
0D1B2:  CALL   505A
0D1B6:  MOVLW  22
0D1B8:  BTFSS  F9E.4
0D1BA:  BRA    D1B8
0D1BC:  MOVWF  FAD
....................       SendDataDisplay();       
0D1BE:  CALL   3C34
....................       printf("Funcionamiento.t13f.txt=\"%02u\"",((Testerilizacion[1]*10)+Testerilizacion[0])); 
0D1C2:  MOVFF  9E,633
0D1C6:  MOVLW  0A
0D1C8:  MOVLB  6
0D1CA:  MOVWF  x34
0D1CC:  MOVLB  0
0D1CE:  CALL   370E
0D1D2:  MOVF   x9D,W
0D1D4:  ADDWF  01,W
0D1D6:  MOVLB  6
0D1D8:  MOVWF  x2C
0D1DA:  MOVLW  C8
0D1DC:  MOVWF  FF6
0D1DE:  MOVLW  1B
0D1E0:  MOVWF  FF7
0D1E2:  MOVLW  00
0D1E4:  MOVWF  FF8
0D1E6:  MOVLW  19
0D1E8:  MOVWF  x31
0D1EA:  MOVLB  0
0D1EC:  CALL   4FD6
0D1F0:  MOVFF  62C,631
0D1F4:  MOVLW  01
0D1F6:  MOVLB  6
0D1F8:  MOVWF  x32
0D1FA:  MOVLB  0
0D1FC:  CALL   505A
0D200:  MOVLW  22
0D202:  BTFSS  F9E.4
0D204:  BRA    D202
0D206:  MOVWF  FAD
....................       SendDataDisplay();       
0D208:  CALL   3C34
....................       printf("Funcionamiento.t11f.txt=\"%02u\"",((Tsecado[3]*10)+Tsecado[2])); 
0D20C:  MOVFF  A8,633
0D210:  MOVLW  0A
0D212:  MOVLB  6
0D214:  MOVWF  x34
0D216:  MOVLB  0
0D218:  CALL   370E
0D21C:  MOVF   xA7,W
0D21E:  ADDWF  01,W
0D220:  MOVLB  6
0D222:  MOVWF  x2C
0D224:  MOVLW  E8
0D226:  MOVWF  FF6
0D228:  MOVLW  1B
0D22A:  MOVWF  FF7
0D22C:  MOVLW  00
0D22E:  MOVWF  FF8
0D230:  MOVLW  19
0D232:  MOVWF  x31
0D234:  MOVLB  0
0D236:  CALL   4FD6
0D23A:  MOVFF  62C,631
0D23E:  MOVLW  01
0D240:  MOVLB  6
0D242:  MOVWF  x32
0D244:  MOVLB  0
0D246:  CALL   505A
0D24A:  MOVLW  22
0D24C:  BTFSS  F9E.4
0D24E:  BRA    D24C
0D250:  MOVWF  FAD
....................       SendDataDisplay();       
0D252:  CALL   3C34
....................       printf("Funcionamiento.t16f.txt=\"%02u\"",((Tsecado[1]*10)+Tsecado[0])); 
0D256:  MOVFF  A6,633
0D25A:  MOVLW  0A
0D25C:  MOVLB  6
0D25E:  MOVWF  x34
0D260:  MOVLB  0
0D262:  CALL   370E
0D266:  MOVF   xA5,W
0D268:  ADDWF  01,W
0D26A:  MOVLB  6
0D26C:  MOVWF  x2C
0D26E:  MOVLW  08
0D270:  MOVWF  FF6
0D272:  MOVLW  1C
0D274:  MOVWF  FF7
0D276:  MOVLW  00
0D278:  MOVWF  FF8
0D27A:  MOVLW  19
0D27C:  MOVWF  x31
0D27E:  MOVLB  0
0D280:  CALL   4FD6
0D284:  MOVFF  62C,631
0D288:  MOVLW  01
0D28A:  MOVLB  6
0D28C:  MOVWF  x32
0D28E:  MOVLB  0
0D290:  CALL   505A
0D294:  MOVLW  22
0D296:  BTFSS  F9E.4
0D298:  BRA    D296
0D29A:  MOVWF  FAD
....................       SendDataDisplay();       
0D29C:  CALL   3C34
....................        
....................       printf("fecha.txt=\"Fecha:%02u/%02u/20%02u    Hora: %02u:%02u\"",Dia,Mes,Year,Hora,Minuto); 
0D2A0:  MOVLW  28
0D2A2:  MOVWF  FF6
0D2A4:  MOVLW  1C
0D2A6:  MOVWF  FF7
0D2A8:  MOVLW  00
0D2AA:  MOVWF  FF8
0D2AC:  MOVLW  11
0D2AE:  MOVLB  6
0D2B0:  MOVWF  x31
0D2B2:  MOVLB  0
0D2B4:  CALL   4FD6
0D2B8:  MOVFF  213,631
0D2BC:  MOVLW  01
0D2BE:  MOVLB  6
0D2C0:  MOVWF  x32
0D2C2:  MOVLB  0
0D2C4:  CALL   505A
0D2C8:  MOVLW  2F
0D2CA:  BTFSS  F9E.4
0D2CC:  BRA    D2CA
0D2CE:  MOVWF  FAD
0D2D0:  MOVFF  212,631
0D2D4:  MOVLW  01
0D2D6:  MOVLB  6
0D2D8:  MOVWF  x32
0D2DA:  MOVLB  0
0D2DC:  CALL   505A
0D2E0:  MOVLW  42
0D2E2:  MOVWF  FF6
0D2E4:  MOVLW  1C
0D2E6:  MOVWF  FF7
0D2E8:  MOVLW  00
0D2EA:  MOVWF  FF8
0D2EC:  MOVLW  03
0D2EE:  MOVLB  6
0D2F0:  MOVWF  x31
0D2F2:  MOVLB  0
0D2F4:  CALL   4FD6
0D2F8:  MOVFF  211,631
0D2FC:  MOVLW  01
0D2FE:  MOVLB  6
0D300:  MOVWF  x32
0D302:  MOVLB  0
0D304:  CALL   505A
0D308:  MOVLW  49
0D30A:  MOVWF  FF6
0D30C:  MOVLW  1C
0D30E:  MOVWF  FF7
0D310:  MOVLW  00
0D312:  MOVWF  FF8
0D314:  MOVLW  0A
0D316:  MOVLB  6
0D318:  MOVWF  x31
0D31A:  MOVLB  0
0D31C:  CALL   4FD6
0D320:  MOVFF  214,631
0D324:  MOVLW  01
0D326:  MOVLB  6
0D328:  MOVWF  x32
0D32A:  MOVLB  0
0D32C:  CALL   505A
0D330:  MOVLW  3A
0D332:  BTFSS  F9E.4
0D334:  BRA    D332
0D336:  MOVWF  FAD
0D338:  MOVFF  215,631
0D33C:  MOVLW  01
0D33E:  MOVLB  6
0D340:  MOVWF  x32
0D342:  MOVLB  0
0D344:  CALL   505A
0D348:  MOVLW  22
0D34A:  BTFSS  F9E.4
0D34C:  BRA    D34A
0D34E:  MOVWF  FAD
....................       SendDataDisplay(); 
0D350:  CALL   3C34
....................       printf("fecha.font=2"); 
0D354:  MOVLW  5E
0D356:  MOVWF  FF6
0D358:  MOVLW  1C
0D35A:  MOVWF  FF7
0D35C:  MOVLW  00
0D35E:  MOVWF  FF8
0D360:  CALL   3C02
....................       SendDataDisplay(); 
0D364:  CALL   3C34
0D368:  MOVLB  1
....................    } 
....................  
.................... } 
.................... //_-------------------------------------------------------------------------------------------------------------------------------------------------------- 
....................  
.................... //_-------------------------------------------------------------------------------------------------------------------------------------------------------- 
....................       if(Menu==100){ //Menu de Configuracin de Parametros de Control 
0D36A:  MOVF   xD7,W
0D36C:  SUBLW  64
0D36E:  BTFSS  FD8.2
0D370:  GOTO   E1D0
....................       
....................       if(Opcion2>12) 
0D374:  MOVF   xE3,W
0D376:  SUBLW  0C
0D378:  BC    D37E
....................          Opcion2=1; 
0D37A:  MOVLW  01
0D37C:  MOVWF  xE3
....................       if(Opcion2<1) 
0D37E:  MOVF   xE3,F
0D380:  BNZ   D386
....................          Opcion2=12; 
0D382:  MOVLW  0C
0D384:  MOVWF  xE3
....................        
....................       if(Opcion2==1){ 
0D386:  DECFSZ xE3,W
0D388:  BRA    D4CC
....................          printf("Config.t2c.txt=\"Proporcional\""); 
0D38A:  MOVLW  6C
0D38C:  MOVWF  FF6
0D38E:  MOVLW  1C
0D390:  MOVWF  FF7
0D392:  MOVLW  00
0D394:  MOVWF  FF8
0D396:  MOVLB  0
0D398:  CALL   3C02
....................          SendDataDisplay();       
0D39C:  CALL   3C34
....................          printf("t3c.txt=\"%2.0f\"",Ganancia); 
0D3A0:  MOVLW  8A
0D3A2:  MOVWF  FF6
0D3A4:  MOVLW  1C
0D3A6:  MOVWF  FF7
0D3A8:  MOVLW  00
0D3AA:  MOVWF  FF8
0D3AC:  MOVLW  09
0D3AE:  MOVLB  6
0D3B0:  MOVWF  x31
0D3B2:  MOVLB  0
0D3B4:  CALL   4FD6
0D3B8:  MOVLW  01
0D3BA:  MOVWF  FE9
0D3BC:  MOVFF  1A2,634
0D3C0:  MOVFF  1A1,633
0D3C4:  MOVFF  1A0,632
0D3C8:  MOVFF  19F,631
0D3CC:  MOVLB  6
0D3CE:  CLRF   x35
0D3D0:  MOVLB  0
0D3D2:  CALL   52C2
0D3D6:  MOVLW  22
0D3D8:  BTFSS  F9E.4
0D3DA:  BRA    D3D8
0D3DC:  MOVWF  FAD
....................          SendDataDisplay(); 
0D3DE:  CALL   3C34
....................          if(RX_Buffer[4]==0x0a){//Tecla Arriba Oprimida 
0D3E2:  MOVF   3C,W
0D3E4:  SUBLW  0A
0D3E6:  BNZ   D420
....................                Ganancia+=1.0; 
0D3E8:  BCF    FD8.1
0D3EA:  MOVFF  1A2,641
0D3EE:  MOVFF  1A1,640
0D3F2:  MOVFF  1A0,63F
0D3F6:  MOVFF  19F,63E
0D3FA:  MOVLB  6
0D3FC:  CLRF   x45
0D3FE:  CLRF   x44
0D400:  CLRF   x43
0D402:  MOVLW  7F
0D404:  MOVWF  x42
0D406:  MOVLB  0
0D408:  CALL   2062
0D40C:  MOVFF  03,1A2
0D410:  MOVFF  02,1A1
0D414:  MOVFF  01,1A0
0D418:  MOVFF  00,19F
....................                RX_Buffer[4]=0x00;   
0D41C:  CLRF   3C
....................                RX_Buffer2[4]=0x00;             
0D41E:  CLRF   47
....................                //BorraBuffer(); 
....................          } 
....................              
....................          if(RX_Buffer[4]==0x0b){//Tecla Abajo Oprimida 
0D420:  MOVF   3C,W
0D422:  SUBLW  0B
0D424:  BNZ   D45E
....................                Ganancia-=1.0; 
0D426:  BSF    FD8.1
0D428:  MOVFF  1A2,641
0D42C:  MOVFF  1A1,640
0D430:  MOVFF  1A0,63F
0D434:  MOVFF  19F,63E
0D438:  MOVLB  6
0D43A:  CLRF   x45
0D43C:  CLRF   x44
0D43E:  CLRF   x43
0D440:  MOVLW  7F
0D442:  MOVWF  x42
0D444:  MOVLB  0
0D446:  CALL   2062
0D44A:  MOVFF  03,1A2
0D44E:  MOVFF  02,1A1
0D452:  MOVFF  01,1A0
0D456:  MOVFF  00,19F
....................                RX_Buffer[4]=0x00; 
0D45A:  CLRF   3C
....................                RX_Buffer2[4]=0x00;             
0D45C:  CLRF   47
....................                //BorraBuffer(); 
....................          } 
....................           
....................          if(Ganancia>40) 
0D45E:  MOVLB  6
0D460:  CLRF   x33
0D462:  CLRF   x32
0D464:  MOVLW  20
0D466:  MOVWF  x31
0D468:  MOVLW  84
0D46A:  MOVWF  x30
0D46C:  MOVFF  1A2,637
0D470:  MOVFF  1A1,636
0D474:  MOVFF  1A0,635
0D478:  MOVFF  19F,634
0D47C:  MOVLB  0
0D47E:  CALL   2436
0D482:  BNC   D492
....................             Ganancia=1; 
0D484:  MOVLB  1
0D486:  CLRF   xA2
0D488:  CLRF   xA1
0D48A:  CLRF   xA0
0D48C:  MOVLW  7F
0D48E:  MOVWF  x9F
0D490:  MOVLB  0
....................          if(Ganancia<1) 
0D492:  MOVFF  1A2,633
0D496:  MOVFF  1A1,632
0D49A:  MOVFF  1A0,631
0D49E:  MOVFF  19F,630
0D4A2:  MOVLB  6
0D4A4:  CLRF   x37
0D4A6:  CLRF   x36
0D4A8:  CLRF   x35
0D4AA:  MOVLW  7F
0D4AC:  MOVWF  x34
0D4AE:  MOVLB  0
0D4B0:  CALL   2436
0D4B4:  BNC   D4C6
....................             Ganancia=40; 
0D4B6:  MOVLB  1
0D4B8:  CLRF   xA2
0D4BA:  CLRF   xA1
0D4BC:  MOVLW  20
0D4BE:  MOVWF  xA0
0D4C0:  MOVLW  84
0D4C2:  MOVWF  x9F
0D4C4:  MOVLB  0
....................       }else if(Opcion2==2){ 
0D4C6:  GOTO   DC44
0D4CA:  MOVLB  1
0D4CC:  MOVF   xE3,W
0D4CE:  SUBLW  02
0D4D0:  BTFSS  FD8.2
0D4D2:  BRA    D618
....................          printf("Config.t2c.txt=\"Tciclo\""); 
0D4D4:  MOVLW  9A
0D4D6:  MOVWF  FF6
0D4D8:  MOVLW  1C
0D4DA:  MOVWF  FF7
0D4DC:  MOVLW  00
0D4DE:  MOVWF  FF8
0D4E0:  MOVLB  0
0D4E2:  CALL   3C02
....................          SendDataDisplay();       
0D4E6:  CALL   3C34
....................          printf("t3c.txt=\"%2.0f\"",Tciclo); 
0D4EA:  MOVLW  B2
0D4EC:  MOVWF  FF6
0D4EE:  MOVLW  1C
0D4F0:  MOVWF  FF7
0D4F2:  MOVLW  00
0D4F4:  MOVWF  FF8
0D4F6:  MOVLW  09
0D4F8:  MOVLB  6
0D4FA:  MOVWF  x31
0D4FC:  MOVLB  0
0D4FE:  CALL   4FD6
0D502:  MOVLW  01
0D504:  MOVWF  FE9
0D506:  MOVFF  18A,634
0D50A:  MOVFF  189,633
0D50E:  MOVFF  188,632
0D512:  MOVFF  187,631
0D516:  MOVLB  6
0D518:  CLRF   x35
0D51A:  MOVLB  0
0D51C:  CALL   52C2
0D520:  MOVLW  22
0D522:  BTFSS  F9E.4
0D524:  BRA    D522
0D526:  MOVWF  FAD
....................          SendDataDisplay(); 
0D528:  CALL   3C34
....................          if(RX_Buffer[4]==0x0a){//Tecla Arriba Oprimida 
0D52C:  MOVF   3C,W
0D52E:  SUBLW  0A
0D530:  BNZ   D56A
....................                Tciclo+=1.0; 
0D532:  BCF    FD8.1
0D534:  MOVFF  18A,641
0D538:  MOVFF  189,640
0D53C:  MOVFF  188,63F
0D540:  MOVFF  187,63E
0D544:  MOVLB  6
0D546:  CLRF   x45
0D548:  CLRF   x44
0D54A:  CLRF   x43
0D54C:  MOVLW  7F
0D54E:  MOVWF  x42
0D550:  MOVLB  0
0D552:  CALL   2062
0D556:  MOVFF  03,18A
0D55A:  MOVFF  02,189
0D55E:  MOVFF  01,188
0D562:  MOVFF  00,187
....................                RX_Buffer[4]=0x00;   
0D566:  CLRF   3C
....................                RX_Buffer2[4]=0x00;             
0D568:  CLRF   47
....................                //BorraBuffer(); 
....................          } 
....................              
....................          if(RX_Buffer[4]==0x0b){//Tecla Abajo Oprimida             
0D56A:  MOVF   3C,W
0D56C:  SUBLW  0B
0D56E:  BNZ   D5A8
....................                Tciclo-=1.0; 
0D570:  BSF    FD8.1
0D572:  MOVFF  18A,641
0D576:  MOVFF  189,640
0D57A:  MOVFF  188,63F
0D57E:  MOVFF  187,63E
0D582:  MOVLB  6
0D584:  CLRF   x45
0D586:  CLRF   x44
0D588:  CLRF   x43
0D58A:  MOVLW  7F
0D58C:  MOVWF  x42
0D58E:  MOVLB  0
0D590:  CALL   2062
0D594:  MOVFF  03,18A
0D598:  MOVFF  02,189
0D59C:  MOVFF  01,188
0D5A0:  MOVFF  00,187
....................                RX_Buffer[4]=0x00; 
0D5A4:  CLRF   3C
....................                RX_Buffer2[4]=0x00;             
0D5A6:  CLRF   47
....................                //BorraBuffer(); 
....................          } 
....................           
....................          if(Tciclo>20) 
0D5A8:  MOVLB  6
0D5AA:  CLRF   x33
0D5AC:  CLRF   x32
0D5AE:  MOVLW  20
0D5B0:  MOVWF  x31
0D5B2:  MOVLW  83
0D5B4:  MOVWF  x30
0D5B6:  MOVFF  18A,637
0D5BA:  MOVFF  189,636
0D5BE:  MOVFF  188,635
0D5C2:  MOVFF  187,634
0D5C6:  MOVLB  0
0D5C8:  CALL   2436
0D5CC:  BNC   D5DE
....................             Tciclo=5; 
0D5CE:  MOVLB  1
0D5D0:  CLRF   x8A
0D5D2:  CLRF   x89
0D5D4:  MOVLW  20
0D5D6:  MOVWF  x88
0D5D8:  MOVLW  81
0D5DA:  MOVWF  x87
0D5DC:  MOVLB  0
....................          if(Tciclo<5) 
0D5DE:  MOVFF  18A,633
0D5E2:  MOVFF  189,632
0D5E6:  MOVFF  188,631
0D5EA:  MOVFF  187,630
0D5EE:  MOVLB  6
0D5F0:  CLRF   x37
0D5F2:  CLRF   x36
0D5F4:  MOVLW  20
0D5F6:  MOVWF  x35
0D5F8:  MOVLW  81
0D5FA:  MOVWF  x34
0D5FC:  MOVLB  0
0D5FE:  CALL   2436
0D602:  BNC   D614
....................             Tciclo=20; 
0D604:  MOVLB  1
0D606:  CLRF   x8A
0D608:  CLRF   x89
0D60A:  MOVLW  20
0D60C:  MOVWF  x88
0D60E:  MOVLW  83
0D610:  MOVWF  x87
0D612:  MOVLB  0
....................       }else if(Opcion2==3){ 
0D614:  BRA    DC44
0D616:  MOVLB  1
0D618:  MOVF   xE3,W
0D61A:  SUBLW  03
0D61C:  BNZ   D696
....................          printf("Config.t2c.txt=\"Ajuste +\""); 
0D61E:  MOVLW  C2
0D620:  MOVWF  FF6
0D622:  MOVLW  1C
0D624:  MOVWF  FF7
0D626:  MOVLW  00
0D628:  MOVWF  FF8
0D62A:  MOVLB  0
0D62C:  CALL   3C02
....................          SendDataDisplay();       
0D630:  CALL   3C34
....................          printf("t3c.txt=\"%u\"",Sensor[0].Ajuste); 
0D634:  MOVLW  DC
0D636:  MOVWF  FF6
0D638:  MOVLW  1C
0D63A:  MOVWF  FF7
0D63C:  MOVLW  00
0D63E:  MOVWF  FF8
0D640:  MOVLW  09
0D642:  MOVLB  6
0D644:  MOVWF  x31
0D646:  MOVLB  0
0D648:  CALL   4FD6
0D64C:  MOVFF  2B8,631
0D650:  MOVLW  1B
0D652:  MOVLB  6
0D654:  MOVWF  x32
0D656:  MOVLB  0
0D658:  CALL   505A
0D65C:  MOVLW  22
0D65E:  BTFSS  F9E.4
0D660:  BRA    D65E
0D662:  MOVWF  FAD
....................          SendDataDisplay(); 
0D664:  CALL   3C34
....................          if(RX_Buffer[4]==0x0a){//Tecla Arriba Oprimida             
0D668:  MOVF   3C,W
0D66A:  SUBLW  0A
0D66C:  BNZ   D67E
....................                if(Sensor[0].Ajuste<40) 
0D66E:  MOVLB  2
0D670:  MOVF   xB8,W
0D672:  SUBLW  27
0D674:  BNC   D678
....................                   Sensor[0].Ajuste++; 
0D676:  INCF   xB8,F
....................                RX_Buffer[4]=0x00;   
0D678:  CLRF   3C
....................                RX_Buffer2[4]=0x00;             
0D67A:  CLRF   47
0D67C:  MOVLB  0
....................                //BorraBuffer();             
....................          } 
....................              
....................          if(RX_Buffer[4]==0x0b){//Tecla Abajo Oprimida             
0D67E:  MOVF   3C,W
0D680:  SUBLW  0B
0D682:  BNZ   D692
....................                if(Sensor[0].Ajuste>0) 
0D684:  MOVLB  2
0D686:  MOVF   xB8,F
0D688:  BZ    D68C
....................                   Sensor[0].Ajuste--; 
0D68A:  DECF   xB8,F
....................                RX_Buffer[4]=0x00; 
0D68C:  CLRF   3C
....................                RX_Buffer2[4]=0x00;             
0D68E:  CLRF   47
0D690:  MOVLB  0
....................                //BorraBuffer(); 
....................          } 
....................       }else if(Opcion2==4){ 
0D692:  BRA    DC44
0D694:  MOVLB  1
0D696:  MOVF   xE3,W
0D698:  SUBLW  04
0D69A:  BNZ   D714
....................          printf("Config.t2c.txt=\"Ajuste -\""); 
0D69C:  MOVLW  EA
0D69E:  MOVWF  FF6
0D6A0:  MOVLW  1C
0D6A2:  MOVWF  FF7
0D6A4:  MOVLW  00
0D6A6:  MOVWF  FF8
0D6A8:  MOVLB  0
0D6AA:  CALL   3C02
....................          SendDataDisplay();       
0D6AE:  CALL   3C34
....................          printf("t3c.txt=\"%u\"",Sensor[0].Ajusten); 
0D6B2:  MOVLW  04
0D6B4:  MOVWF  FF6
0D6B6:  MOVLW  1D
0D6B8:  MOVWF  FF7
0D6BA:  MOVLW  00
0D6BC:  MOVWF  FF8
0D6BE:  MOVLW  09
0D6C0:  MOVLB  6
0D6C2:  MOVWF  x31
0D6C4:  MOVLB  0
0D6C6:  CALL   4FD6
0D6CA:  MOVFF  2B9,631
0D6CE:  MOVLW  1B
0D6D0:  MOVLB  6
0D6D2:  MOVWF  x32
0D6D4:  MOVLB  0
0D6D6:  CALL   505A
0D6DA:  MOVLW  22
0D6DC:  BTFSS  F9E.4
0D6DE:  BRA    D6DC
0D6E0:  MOVWF  FAD
....................          SendDataDisplay(); 
0D6E2:  CALL   3C34
....................          if(RX_Buffer[4]==0x0a){//Tecla Arriba Oprimida             
0D6E6:  MOVF   3C,W
0D6E8:  SUBLW  0A
0D6EA:  BNZ   D6FC
....................                if(Sensor[0].Ajusten<40) 
0D6EC:  MOVLB  2
0D6EE:  MOVF   xB9,W
0D6F0:  SUBLW  27
0D6F2:  BNC   D6F6
....................                   Sensor[0].Ajusten++; 
0D6F4:  INCF   xB9,F
....................                RX_Buffer[4]=0x00;   
0D6F6:  CLRF   3C
....................                RX_Buffer2[4]=0x00;             
0D6F8:  CLRF   47
0D6FA:  MOVLB  0
....................                //BorraBuffer();             
....................          } 
....................              
....................          if(RX_Buffer[4]==0x0b){//Tecla Abajo Oprimida             
0D6FC:  MOVF   3C,W
0D6FE:  SUBLW  0B
0D700:  BNZ   D710
....................                if(Sensor[0].Ajusten>0) 
0D702:  MOVLB  2
0D704:  MOVF   xB9,F
0D706:  BZ    D70A
....................                   Sensor[0].Ajusten--; 
0D708:  DECF   xB9,F
....................                RX_Buffer[4]=0x00; 
0D70A:  CLRF   3C
....................                RX_Buffer2[4]=0x00;             
0D70C:  CLRF   47
0D70E:  MOVLB  0
....................                //BorraBuffer(); 
....................          } 
....................       }else if(Opcion2==5){ 
0D710:  BRA    DC44
0D712:  MOVLB  1
0D714:  MOVF   xE3,W
0D716:  SUBLW  05
0D718:  BNZ   D792
....................          printf("Config.t2c.txt=\"Ajuste2 +\""); 
0D71A:  MOVLW  12
0D71C:  MOVWF  FF6
0D71E:  MOVLW  1D
0D720:  MOVWF  FF7
0D722:  MOVLW  00
0D724:  MOVWF  FF8
0D726:  MOVLB  0
0D728:  CALL   3C02
....................          SendDataDisplay();       
0D72C:  CALL   3C34
....................          printf("t3c.txt=\"%u\"",Sensor[1].Ajuste); 
0D730:  MOVLW  2E
0D732:  MOVWF  FF6
0D734:  MOVLW  1D
0D736:  MOVWF  FF7
0D738:  MOVLW  00
0D73A:  MOVWF  FF8
0D73C:  MOVLW  09
0D73E:  MOVLB  6
0D740:  MOVWF  x31
0D742:  MOVLB  0
0D744:  CALL   4FD6
0D748:  MOVFF  41C,631
0D74C:  MOVLW  1B
0D74E:  MOVLB  6
0D750:  MOVWF  x32
0D752:  MOVLB  0
0D754:  CALL   505A
0D758:  MOVLW  22
0D75A:  BTFSS  F9E.4
0D75C:  BRA    D75A
0D75E:  MOVWF  FAD
....................          SendDataDisplay(); 
0D760:  CALL   3C34
....................          if(RX_Buffer[4]==0x0a){//Tecla Arriba Oprimida 
0D764:  MOVF   3C,W
0D766:  SUBLW  0A
0D768:  BNZ   D77A
....................                if(Sensor[1].Ajuste<40) 
0D76A:  MOVLB  4
0D76C:  MOVF   x1C,W
0D76E:  SUBLW  27
0D770:  BNC   D774
....................                   Sensor[1].Ajuste++; 
0D772:  INCF   x1C,F
....................                RX_Buffer[4]=0x00;   
0D774:  CLRF   3C
....................                RX_Buffer2[4]=0x00;             
0D776:  CLRF   47
0D778:  MOVLB  0
....................                //BorraBuffer(); 
....................          } 
....................              
....................          if(RX_Buffer[4]==0x0b){//Tecla Abajo Oprimida 
0D77A:  MOVF   3C,W
0D77C:  SUBLW  0B
0D77E:  BNZ   D78E
....................                if(Sensor[1].Ajuste>0) 
0D780:  MOVLB  4
0D782:  MOVF   x1C,F
0D784:  BZ    D788
....................                   Sensor[1].Ajuste--; 
0D786:  DECF   x1C,F
....................                RX_Buffer[4]=0x00; 
0D788:  CLRF   3C
....................                RX_Buffer2[4]=0x00;             
0D78A:  CLRF   47
0D78C:  MOVLB  0
....................                //BorraBuffer();             
....................          } 
....................       }else if(Opcion2==6){ 
0D78E:  BRA    DC44
0D790:  MOVLB  1
0D792:  MOVF   xE3,W
0D794:  SUBLW  06
0D796:  BNZ   D810
....................          printf("Config.t2c.txt=\"Ajuste2 -\""); 
0D798:  MOVLW  3C
0D79A:  MOVWF  FF6
0D79C:  MOVLW  1D
0D79E:  MOVWF  FF7
0D7A0:  MOVLW  00
0D7A2:  MOVWF  FF8
0D7A4:  MOVLB  0
0D7A6:  CALL   3C02
....................          SendDataDisplay();       
0D7AA:  CALL   3C34
....................          printf("t3c.txt=\"%u\"",Sensor[1].Ajusten); 
0D7AE:  MOVLW  58
0D7B0:  MOVWF  FF6
0D7B2:  MOVLW  1D
0D7B4:  MOVWF  FF7
0D7B6:  MOVLW  00
0D7B8:  MOVWF  FF8
0D7BA:  MOVLW  09
0D7BC:  MOVLB  6
0D7BE:  MOVWF  x31
0D7C0:  MOVLB  0
0D7C2:  CALL   4FD6
0D7C6:  MOVFF  41D,631
0D7CA:  MOVLW  1B
0D7CC:  MOVLB  6
0D7CE:  MOVWF  x32
0D7D0:  MOVLB  0
0D7D2:  CALL   505A
0D7D6:  MOVLW  22
0D7D8:  BTFSS  F9E.4
0D7DA:  BRA    D7D8
0D7DC:  MOVWF  FAD
....................          SendDataDisplay(); 
0D7DE:  CALL   3C34
....................          if(RX_Buffer[4]==0x0a){//Tecla Arriba Oprimida             
0D7E2:  MOVF   3C,W
0D7E4:  SUBLW  0A
0D7E6:  BNZ   D7F8
....................                if(Sensor[1].Ajusten<40) 
0D7E8:  MOVLB  4
0D7EA:  MOVF   x1D,W
0D7EC:  SUBLW  27
0D7EE:  BNC   D7F2
....................                   Sensor[1].Ajusten++; 
0D7F0:  INCF   x1D,F
....................                RX_Buffer[4]=0x00;   
0D7F2:  CLRF   3C
....................                RX_Buffer2[4]=0x00;             
0D7F4:  CLRF   47
0D7F6:  MOVLB  0
....................                //BorraBuffer(); 
....................          } 
....................              
....................          if(RX_Buffer[4]==0x0b){//Tecla Abajo Oprimida             
0D7F8:  MOVF   3C,W
0D7FA:  SUBLW  0B
0D7FC:  BNZ   D80C
....................                if(Sensor[1].Ajusten>0) 
0D7FE:  MOVLB  4
0D800:  MOVF   x1D,F
0D802:  BZ    D806
....................                   Sensor[1].Ajusten--; 
0D804:  DECF   x1D,F
....................                RX_Buffer[4]=0x00; 
0D806:  CLRF   3C
....................                RX_Buffer2[4]=0x00;             
0D808:  CLRF   47
0D80A:  MOVLB  0
....................                //BorraBuffer(); 
....................          } 
....................       }else if(Opcion2==7){ 
0D80C:  BRA    DC44
0D80E:  MOVLB  1
0D810:  MOVF   xE3,W
0D812:  SUBLW  07
0D814:  BNZ   D890
....................          printf("Config.t2c.txt=\"Media\""); 
0D816:  MOVLW  66
0D818:  MOVWF  FF6
0D81A:  MOVLW  1D
0D81C:  MOVWF  FF7
0D81E:  MOVLW  00
0D820:  MOVWF  FF8
0D822:  MOVLB  0
0D824:  CALL   3C02
....................          SendDataDisplay();       
0D828:  CALL   3C34
....................          printf("t3c.txt=\"%u\"",MediaMovil); 
0D82C:  MOVLW  7E
0D82E:  MOVWF  FF6
0D830:  MOVLW  1D
0D832:  MOVWF  FF7
0D834:  MOVLW  00
0D836:  MOVWF  FF8
0D838:  MOVLW  09
0D83A:  MOVLB  6
0D83C:  MOVWF  x31
0D83E:  MOVLB  0
0D840:  CALL   4FD6
0D844:  MOVFF  17B,631
0D848:  MOVLW  1B
0D84A:  MOVLB  6
0D84C:  MOVWF  x32
0D84E:  MOVLB  0
0D850:  CALL   505A
0D854:  MOVLW  22
0D856:  BTFSS  F9E.4
0D858:  BRA    D856
0D85A:  MOVWF  FAD
....................          SendDataDisplay(); 
0D85C:  CALL   3C34
....................          if(RX_Buffer[4]==0x0a){//Tecla Arriba Oprimida 
0D860:  MOVF   3C,W
0D862:  SUBLW  0A
0D864:  BNZ   D876
....................                if(MediaMovil<80) 
0D866:  MOVLB  1
0D868:  MOVF   x7B,W
0D86A:  SUBLW  4F
0D86C:  BNC   D870
....................                   MediaMovil++; 
0D86E:  INCF   x7B,F
....................                RX_Buffer[4]=0x00;   
0D870:  CLRF   3C
....................                RX_Buffer2[4]=0x00;             
0D872:  CLRF   47
0D874:  MOVLB  0
....................                //BorraBuffer(); 
....................          } 
....................              
....................          if(RX_Buffer[4]==0x0b){//Tecla Abajo Oprimida 
0D876:  MOVF   3C,W
0D878:  SUBLW  0B
0D87A:  BNZ   D88C
....................                if(MediaMovil>10) 
0D87C:  MOVLB  1
0D87E:  MOVF   x7B,W
0D880:  SUBLW  0A
0D882:  BC    D886
....................                   MediaMovil--; 
0D884:  DECF   x7B,F
....................                RX_Buffer[4]=0x00; 
0D886:  CLRF   3C
....................                RX_Buffer2[4]=0x00;             
0D888:  CLRF   47
0D88A:  MOVLB  0
....................                //BorraBuffer();             
....................          } 
....................       }else if(Opcion2==8){ 
0D88C:  BRA    DC44
0D88E:  MOVLB  1
0D890:  MOVF   xE3,W
0D892:  SUBLW  08
0D894:  BTFSS  FD8.2
0D896:  BRA    D9C2
....................          printf("Config.t2c.txt=\"RPT100B\""); 
0D898:  MOVLW  8C
0D89A:  MOVWF  FF6
0D89C:  MOVLW  1D
0D89E:  MOVWF  FF7
0D8A0:  MOVLW  00
0D8A2:  MOVWF  FF8
0D8A4:  MOVLB  0
0D8A6:  CALL   3C02
....................          SendDataDisplay();       
0D8AA:  CALL   3C34
....................          printf("t3c.txt=\"%2.1f\"",Sensor[0].RPT100); 
0D8AE:  MOVLW  A6
0D8B0:  MOVWF  FF6
0D8B2:  MOVLW  1D
0D8B4:  MOVWF  FF7
0D8B6:  MOVLW  00
0D8B8:  MOVWF  FF8
0D8BA:  MOVLW  09
0D8BC:  MOVLB  6
0D8BE:  MOVWF  x31
0D8C0:  MOVLB  0
0D8C2:  CALL   4FD6
0D8C6:  MOVLW  01
0D8C8:  MOVWF  FE9
0D8CA:  MOVFF  2AD,634
0D8CE:  MOVFF  2AC,633
0D8D2:  MOVFF  2AB,632
0D8D6:  MOVFF  2AA,631
0D8DA:  MOVLB  6
0D8DC:  MOVWF  x35
0D8DE:  MOVLB  0
0D8E0:  CALL   52C2
0D8E4:  MOVLW  22
0D8E6:  BTFSS  F9E.4
0D8E8:  BRA    D8E6
0D8EA:  MOVWF  FAD
....................          SendDataDisplay(); 
0D8EC:  CALL   3C34
....................          if(RX_Buffer[4]==0x0a){//Tecla Arriba Oprimida             
0D8F0:  MOVF   3C,W
0D8F2:  SUBLW  0A
0D8F4:  BNZ   D958
....................                if(Sensor[0].RPT100<2.0) 
0D8F6:  MOVFF  2AD,633
0D8FA:  MOVFF  2AC,632
0D8FE:  MOVFF  2AB,631
0D902:  MOVFF  2AA,630
0D906:  MOVLB  6
0D908:  CLRF   x37
0D90A:  CLRF   x36
0D90C:  CLRF   x35
0D90E:  MOVLW  80
0D910:  MOVWF  x34
0D912:  MOVLB  0
0D914:  CALL   2436
0D918:  BNC   D954
....................                   Sensor[0].RPT100+=0.1; 
0D91A:  BCF    FD8.1
0D91C:  MOVFF  2AD,641
0D920:  MOVFF  2AC,640
0D924:  MOVFF  2AB,63F
0D928:  MOVFF  2AA,63E
0D92C:  MOVLW  CD
0D92E:  MOVLB  6
0D930:  MOVWF  x45
0D932:  MOVLW  CC
0D934:  MOVWF  x44
0D936:  MOVLW  4C
0D938:  MOVWF  x43
0D93A:  MOVLW  7B
0D93C:  MOVWF  x42
0D93E:  MOVLB  0
0D940:  CALL   2062
0D944:  MOVFF  03,2AD
0D948:  MOVFF  02,2AC
0D94C:  MOVFF  01,2AB
0D950:  MOVFF  00,2AA
....................                RX_Buffer[4]=0x00;   
0D954:  CLRF   3C
....................                RX_Buffer2[4]=0x00;             
0D956:  CLRF   47
....................                //BorraBuffer(); 
....................          } 
....................              
....................          if(RX_Buffer[4]==0x0b){//Tecla Abajo Oprimida 
0D958:  MOVF   3C,W
0D95A:  SUBLW  0B
0D95C:  BNZ   D9BE
....................                if(Sensor[0].RPT100>0.0) 
0D95E:  MOVLB  6
0D960:  CLRF   x33
0D962:  CLRF   x32
0D964:  CLRF   x31
0D966:  CLRF   x30
0D968:  MOVFF  2AD,637
0D96C:  MOVFF  2AC,636
0D970:  MOVFF  2AB,635
0D974:  MOVFF  2AA,634
0D978:  MOVLB  0
0D97A:  CALL   2436
0D97E:  BNC   D9BA
....................                   Sensor[0].RPT100-=0.1; 
0D980:  BSF    FD8.1
0D982:  MOVFF  2AD,641
0D986:  MOVFF  2AC,640
0D98A:  MOVFF  2AB,63F
0D98E:  MOVFF  2AA,63E
0D992:  MOVLW  CD
0D994:  MOVLB  6
0D996:  MOVWF  x45
0D998:  MOVLW  CC
0D99A:  MOVWF  x44
0D99C:  MOVLW  4C
0D99E:  MOVWF  x43
0D9A0:  MOVLW  7B
0D9A2:  MOVWF  x42
0D9A4:  MOVLB  0
0D9A6:  CALL   2062
0D9AA:  MOVFF  03,2AD
0D9AE:  MOVFF  02,2AC
0D9B2:  MOVFF  01,2AB
0D9B6:  MOVFF  00,2AA
....................                RX_Buffer[4]=0x00; 
0D9BA:  CLRF   3C
....................                RX_Buffer2[4]=0x00;             
0D9BC:  CLRF   47
....................                //BorraBuffer(); 
....................          } 
....................       }else if(Opcion2==9){ 
0D9BE:  BRA    DC44
0D9C0:  MOVLB  1
0D9C2:  MOVF   xE3,W
0D9C4:  SUBLW  09
0D9C6:  BTFSS  FD8.2
0D9C8:  BRA    DAF4
....................          printf("Config.t2c.txt=\"RPT100B 2\""); 
0D9CA:  MOVLW  B6
0D9CC:  MOVWF  FF6
0D9CE:  MOVLW  1D
0D9D0:  MOVWF  FF7
0D9D2:  MOVLW  00
0D9D4:  MOVWF  FF8
0D9D6:  MOVLB  0
0D9D8:  CALL   3C02
....................          SendDataDisplay();       
0D9DC:  CALL   3C34
....................          printf("t3c.txt=\"%2.1f\"",Sensor[1].RPT100); 
0D9E0:  MOVLW  D2
0D9E2:  MOVWF  FF6
0D9E4:  MOVLW  1D
0D9E6:  MOVWF  FF7
0D9E8:  MOVLW  00
0D9EA:  MOVWF  FF8
0D9EC:  MOVLW  09
0D9EE:  MOVLB  6
0D9F0:  MOVWF  x31
0D9F2:  MOVLB  0
0D9F4:  CALL   4FD6
0D9F8:  MOVLW  01
0D9FA:  MOVWF  FE9
0D9FC:  MOVFF  411,634
0DA00:  MOVFF  410,633
0DA04:  MOVFF  40F,632
0DA08:  MOVFF  40E,631
0DA0C:  MOVLB  6
0DA0E:  MOVWF  x35
0DA10:  MOVLB  0
0DA12:  CALL   52C2
0DA16:  MOVLW  22
0DA18:  BTFSS  F9E.4
0DA1A:  BRA    DA18
0DA1C:  MOVWF  FAD
....................          SendDataDisplay(); 
0DA1E:  CALL   3C34
....................          if(RX_Buffer[4]==0x0a){//Tecla Arriba Oprimida 
0DA22:  MOVF   3C,W
0DA24:  SUBLW  0A
0DA26:  BNZ   DA8A
....................                if(Sensor[1].RPT100<2.0) 
0DA28:  MOVFF  411,633
0DA2C:  MOVFF  410,632
0DA30:  MOVFF  40F,631
0DA34:  MOVFF  40E,630
0DA38:  MOVLB  6
0DA3A:  CLRF   x37
0DA3C:  CLRF   x36
0DA3E:  CLRF   x35
0DA40:  MOVLW  80
0DA42:  MOVWF  x34
0DA44:  MOVLB  0
0DA46:  CALL   2436
0DA4A:  BNC   DA86
....................                   Sensor[1].RPT100+=0.1; 
0DA4C:  BCF    FD8.1
0DA4E:  MOVFF  411,641
0DA52:  MOVFF  410,640
0DA56:  MOVFF  40F,63F
0DA5A:  MOVFF  40E,63E
0DA5E:  MOVLW  CD
0DA60:  MOVLB  6
0DA62:  MOVWF  x45
0DA64:  MOVLW  CC
0DA66:  MOVWF  x44
0DA68:  MOVLW  4C
0DA6A:  MOVWF  x43
0DA6C:  MOVLW  7B
0DA6E:  MOVWF  x42
0DA70:  MOVLB  0
0DA72:  CALL   2062
0DA76:  MOVFF  03,411
0DA7A:  MOVFF  02,410
0DA7E:  MOVFF  01,40F
0DA82:  MOVFF  00,40E
....................                RX_Buffer[4]=0x00;   
0DA86:  CLRF   3C
....................                RX_Buffer2[4]=0x00;             
0DA88:  CLRF   47
....................                //BorraBuffer(); 
....................          } 
....................              
....................          if(RX_Buffer[4]==0x0b){//Tecla Abajo Oprimida 
0DA8A:  MOVF   3C,W
0DA8C:  SUBLW  0B
0DA8E:  BNZ   DAF0
....................                if(Sensor[1].RPT100>0.0) 
0DA90:  MOVLB  6
0DA92:  CLRF   x33
0DA94:  CLRF   x32
0DA96:  CLRF   x31
0DA98:  CLRF   x30
0DA9A:  MOVFF  411,637
0DA9E:  MOVFF  410,636
0DAA2:  MOVFF  40F,635
0DAA6:  MOVFF  40E,634
0DAAA:  MOVLB  0
0DAAC:  CALL   2436
0DAB0:  BNC   DAEC
....................                   Sensor[1].RPT100-=0.1; 
0DAB2:  BSF    FD8.1
0DAB4:  MOVFF  411,641
0DAB8:  MOVFF  410,640
0DABC:  MOVFF  40F,63F
0DAC0:  MOVFF  40E,63E
0DAC4:  MOVLW  CD
0DAC6:  MOVLB  6
0DAC8:  MOVWF  x45
0DACA:  MOVLW  CC
0DACC:  MOVWF  x44
0DACE:  MOVLW  4C
0DAD0:  MOVWF  x43
0DAD2:  MOVLW  7B
0DAD4:  MOVWF  x42
0DAD6:  MOVLB  0
0DAD8:  CALL   2062
0DADC:  MOVFF  03,411
0DAE0:  MOVFF  02,410
0DAE4:  MOVFF  01,40F
0DAE8:  MOVFF  00,40E
....................                RX_Buffer[4]=0x00; 
0DAEC:  CLRF   3C
....................                RX_Buffer2[4]=0x00;             
0DAEE:  CLRF   47
....................                //BorraBuffer(); 
....................          } 
....................       }else if(Opcion2==10){ 
0DAF0:  BRA    DC44
0DAF2:  MOVLB  1
0DAF4:  MOVF   xE3,W
0DAF6:  SUBLW  0A
0DAF8:  BNZ   DB48
....................          printf("Config.t2c.txt=\"Ciclos\""); 
0DAFA:  MOVLW  E2
0DAFC:  MOVWF  FF6
0DAFE:  MOVLW  1D
0DB00:  MOVWF  FF7
0DB02:  MOVLW  00
0DB04:  MOVWF  FF8
0DB06:  MOVLB  0
0DB08:  CALL   3C02
....................          SendDataDisplay();       
0DB0C:  CALL   3C34
....................          printf("t3c.txt=\"%03Lu\"",Ciclos); 
0DB10:  MOVLW  FA
0DB12:  MOVWF  FF6
0DB14:  MOVLW  1D
0DB16:  MOVWF  FF7
0DB18:  MOVLW  00
0DB1A:  MOVWF  FF8
0DB1C:  MOVLW  09
0DB1E:  MOVLB  6
0DB20:  MOVWF  x31
0DB22:  MOVLB  0
0DB24:  CALL   4FD6
0DB28:  MOVLW  0A
0DB2A:  MOVWF  FE9
0DB2C:  MOVFF  1F8,631
0DB30:  MOVFF  1F7,630
0DB34:  CALL   5136
0DB38:  MOVLW  22
0DB3A:  BTFSS  F9E.4
0DB3C:  BRA    DB3A
0DB3E:  MOVWF  FAD
....................          SendDataDisplay(); 
0DB40:  CALL   3C34
....................       }else if(Opcion2==11){ 
0DB44:  BRA    DC44
0DB46:  MOVLB  1
0DB48:  MOVF   xE3,W
0DB4A:  SUBLW  0B
0DB4C:  BNZ   DBC8
....................          printf("Config.t2c.txt=\"Atmosferica\""); 
0DB4E:  MOVLW  0A
0DB50:  MOVWF  FF6
0DB52:  MOVLW  1E
0DB54:  MOVWF  FF7
0DB56:  MOVLW  00
0DB58:  MOVWF  FF8
0DB5A:  MOVLB  0
0DB5C:  CALL   3C02
....................          SendDataDisplay();       
0DB60:  CALL   3C34
....................          printf("t3c.txt=\"%03u\"",Atmosferica); 
0DB64:  MOVLW  28
0DB66:  MOVWF  FF6
0DB68:  MOVLW  1E
0DB6A:  MOVWF  FF7
0DB6C:  MOVLW  00
0DB6E:  MOVWF  FF8
0DB70:  MOVLW  09
0DB72:  MOVLB  6
0DB74:  MOVWF  x31
0DB76:  MOVLB  0
0DB78:  CALL   4FD6
0DB7C:  MOVFF  21B,631
0DB80:  MOVLW  03
0DB82:  MOVLB  6
0DB84:  MOVWF  x32
0DB86:  MOVLB  0
0DB88:  CALL   505A
0DB8C:  MOVLW  22
0DB8E:  BTFSS  F9E.4
0DB90:  BRA    DB8E
0DB92:  MOVWF  FAD
....................          SendDataDisplay(); 
0DB94:  CALL   3C34
....................          if(RX_Buffer[4]==0x0a){//Tecla Arriba Oprimida 
0DB98:  MOVF   3C,W
0DB9A:  SUBLW  0A
0DB9C:  BNZ   DBAE
....................                if(Atmosferica<100) 
0DB9E:  MOVLB  2
0DBA0:  MOVF   x1B,W
0DBA2:  SUBLW  63
0DBA4:  BNC   DBA8
....................                   ++Atmosferica; 
0DBA6:  INCF   x1B,F
....................                RX_Buffer[4]=0x00;   
0DBA8:  CLRF   3C
....................                RX_Buffer2[4]=0x00;             
0DBAA:  CLRF   47
0DBAC:  MOVLB  0
....................                //BorraBuffer(); 
....................          } 
....................              
....................          if(RX_Buffer[4]==0x0b){//Tecla Abajo Oprimida 
0DBAE:  MOVF   3C,W
0DBB0:  SUBLW  0B
0DBB2:  BNZ   DBC4
....................                if(Atmosferica>50) 
0DBB4:  MOVLB  2
0DBB6:  MOVF   x1B,W
0DBB8:  SUBLW  32
0DBBA:  BC    DBBE
....................                   --Atmosferica; 
0DBBC:  DECF   x1B,F
....................                RX_Buffer[4]=0x00; 
0DBBE:  CLRF   3C
....................                RX_Buffer2[4]=0x00;             
0DBC0:  CLRF   47
0DBC2:  MOVLB  0
....................                //BorraBuffer(); 
....................          } 
....................       }else if(Opcion2==12){ 
0DBC4:  BRA    DC44
0DBC6:  MOVLB  1
0DBC8:  MOVF   xE3,W
0DBCA:  SUBLW  0C
0DBCC:  BNZ   DC42
....................          printf("Config.t2c.txt=\"T. Apertura\""); 
0DBCE:  MOVLW  38
0DBD0:  MOVWF  FF6
0DBD2:  MOVLW  1E
0DBD4:  MOVWF  FF7
0DBD6:  MOVLW  00
0DBD8:  MOVWF  FF8
0DBDA:  MOVLB  0
0DBDC:  CALL   3C02
....................          SendDataDisplay();       
0DBE0:  CALL   3C34
....................          printf("t3c.txt=\"%03u\"",Tapertura); 
0DBE4:  MOVLW  56
0DBE6:  MOVWF  FF6
0DBE8:  MOVLW  1E
0DBEA:  MOVWF  FF7
0DBEC:  MOVLW  00
0DBEE:  MOVWF  FF8
0DBF0:  MOVLW  09
0DBF2:  MOVLB  6
0DBF4:  MOVWF  x31
0DBF6:  MOVLB  0
0DBF8:  CALL   4FD6
0DBFC:  MOVFF  1DE,631
0DC00:  MOVLW  03
0DC02:  MOVLB  6
0DC04:  MOVWF  x32
0DC06:  MOVLB  0
0DC08:  CALL   505A
0DC0C:  MOVLW  22
0DC0E:  BTFSS  F9E.4
0DC10:  BRA    DC0E
0DC12:  MOVWF  FAD
....................          SendDataDisplay(); 
0DC14:  CALL   3C34
....................          if(RX_Buffer[4]==0x0a){//Tecla Arriba Oprimida 
0DC18:  MOVF   3C,W
0DC1A:  SUBLW  0A
0DC1C:  BNZ   DC2E
....................                if(Tapertura<100) 
0DC1E:  MOVLB  1
0DC20:  MOVF   xDE,W
0DC22:  SUBLW  63
0DC24:  BNC   DC28
....................                   ++Tapertura; 
0DC26:  INCF   xDE,F
....................                RX_Buffer[4]=0x00;   
0DC28:  CLRF   3C
....................                RX_Buffer2[4]=0x00;             
0DC2A:  CLRF   47
0DC2C:  MOVLB  0
....................                //BorraBuffer(); 
....................          } 
....................              
....................          if(RX_Buffer[4]==0x0b){//Tecla Abajo Oprimida 
0DC2E:  MOVF   3C,W
0DC30:  SUBLW  0B
0DC32:  BNZ   DC44
....................                if(Tapertura>50) 
0DC34:  MOVLB  1
0DC36:  MOVF   xDE,W
0DC38:  SUBLW  32
0DC3A:  BC    DC3E
....................                   --Tapertura; 
0DC3C:  DECF   xDE,F
....................                RX_Buffer[4]=0x00; 
0DC3E:  CLRF   3C
....................                RX_Buffer2[4]=0x00;             
0DC40:  CLRF   47
0DC42:  MOVLB  0
....................                //BorraBuffer();            
....................          } 
....................       } 
....................        
....................       if(RX_Buffer[4]==0x0c){//Tecla Izquierda Oprimida 
0DC44:  MOVF   3C,W
0DC46:  SUBLW  0C
0DC48:  BNZ   DC54
....................             Opcion2++; 
0DC4A:  MOVLB  1
0DC4C:  INCF   xE3,F
....................             RX_Buffer[4]=0x00;   
0DC4E:  CLRF   3C
....................             RX_Buffer2[4]=0x00;             
0DC50:  CLRF   47
0DC52:  MOVLB  0
....................             //BorraBuffer();    
....................       } 
....................           
....................       if(RX_Buffer[4]==0x0d){//Tecla Derecha Oprimida          
0DC54:  MOVF   3C,W
0DC56:  SUBLW  0D
0DC58:  BNZ   DC64
....................             Opcion2--; 
0DC5A:  MOVLB  1
0DC5C:  DECF   xE3,F
....................             RX_Buffer[4]=0x00; 
0DC5E:  CLRF   3C
....................             RX_Buffer2[4]=0x00;             
0DC60:  CLRF   47
0DC62:  MOVLB  0
....................             //BorraBuffer(); 
....................       } 
....................        
....................       if(RX_Buffer[4]==0x11){//Tecla Regresar 
0DC64:  MOVF   3C,W
0DC66:  SUBLW  11
0DC68:  BTFSS  FD8.2
0DC6A:  BRA    E11A
....................          delay_ms(20); 
0DC6C:  MOVLW  14
0DC6E:  MOVLB  6
0DC70:  MOVWF  x35
0DC72:  MOVLB  0
0DC74:  CALL   1EDC
....................          if(RX_Buffer[4]==0x11){ 
0DC78:  MOVF   3C,W
0DC7A:  SUBLW  11
0DC7C:  BTFSS  FD8.2
0DC7E:  BRA    E11A
....................             if(!GuardaEEPROM){ 
0DC80:  BTFSC  x8F.4
0DC82:  BRA    E106
....................                write_eeprom(20,(int8)Ganancia); 
0DC84:  MOVFF  1A2,641
0DC88:  MOVFF  1A1,640
0DC8C:  MOVFF  1A0,63F
0DC90:  MOVFF  19F,63E
0DC94:  CALL   4CB2
0DC98:  MOVFF  01,62C
0DC9C:  MOVF   FF2,W
0DC9E:  MOVWF  00
0DCA0:  BCF    FF2.7
0DCA2:  CLRF   FAA
0DCA4:  MOVLW  14
0DCA6:  MOVWF  FA9
0DCA8:  MOVFF  62C,FA8
0DCAC:  BCF    FA6.6
0DCAE:  BCF    FA6.7
0DCB0:  BSF    FA6.2
0DCB2:  MOVLB  F
0DCB4:  MOVLW  55
0DCB6:  MOVWF  FA7
0DCB8:  MOVLW  AA
0DCBA:  MOVWF  FA7
0DCBC:  BSF    FA6.1
0DCBE:  BTFSC  FA6.1
0DCC0:  BRA    DCBE
0DCC2:  BCF    FA6.2
0DCC4:  MOVF   00,W
0DCC6:  IORWF  FF2,F
....................                delay_ms(10); 
0DCC8:  MOVLW  0A
0DCCA:  MOVLB  6
0DCCC:  MOVWF  x35
0DCCE:  MOVLB  0
0DCD0:  CALL   1EDC
....................                write_eeprom(21,Sensor[0].Ajuste); 
0DCD4:  MOVF   FF2,W
0DCD6:  MOVWF  00
0DCD8:  BCF    FF2.7
0DCDA:  CLRF   FAA
0DCDC:  MOVLW  15
0DCDE:  MOVWF  FA9
0DCE0:  MOVFF  2B8,FA8
0DCE4:  BCF    FA6.6
0DCE6:  BCF    FA6.7
0DCE8:  BSF    FA6.2
0DCEA:  MOVLB  F
0DCEC:  MOVLW  55
0DCEE:  MOVWF  FA7
0DCF0:  MOVLW  AA
0DCF2:  MOVWF  FA7
0DCF4:  BSF    FA6.1
0DCF6:  BTFSC  FA6.1
0DCF8:  BRA    DCF6
0DCFA:  BCF    FA6.2
0DCFC:  MOVF   00,W
0DCFE:  IORWF  FF2,F
....................                delay_ms(10); 
0DD00:  MOVLW  0A
0DD02:  MOVLB  6
0DD04:  MOVWF  x35
0DD06:  MOVLB  0
0DD08:  CALL   1EDC
....................                write_eeprom(22,Sensor[0].Ajusten); 
0DD0C:  MOVF   FF2,W
0DD0E:  MOVWF  00
0DD10:  BCF    FF2.7
0DD12:  CLRF   FAA
0DD14:  MOVLW  16
0DD16:  MOVWF  FA9
0DD18:  MOVFF  2B9,FA8
0DD1C:  BCF    FA6.6
0DD1E:  BCF    FA6.7
0DD20:  BSF    FA6.2
0DD22:  MOVLB  F
0DD24:  MOVLW  55
0DD26:  MOVWF  FA7
0DD28:  MOVLW  AA
0DD2A:  MOVWF  FA7
0DD2C:  BSF    FA6.1
0DD2E:  BTFSC  FA6.1
0DD30:  BRA    DD2E
0DD32:  BCF    FA6.2
0DD34:  MOVF   00,W
0DD36:  IORWF  FF2,F
....................                delay_ms(10); 
0DD38:  MOVLW  0A
0DD3A:  MOVLB  6
0DD3C:  MOVWF  x35
0DD3E:  MOVLB  0
0DD40:  CALL   1EDC
....................                write_eeprom(23,Sensor[1].Ajuste); 
0DD44:  MOVF   FF2,W
0DD46:  MOVWF  00
0DD48:  BCF    FF2.7
0DD4A:  CLRF   FAA
0DD4C:  MOVLW  17
0DD4E:  MOVWF  FA9
0DD50:  MOVFF  41C,FA8
0DD54:  BCF    FA6.6
0DD56:  BCF    FA6.7
0DD58:  BSF    FA6.2
0DD5A:  MOVLB  F
0DD5C:  MOVLW  55
0DD5E:  MOVWF  FA7
0DD60:  MOVLW  AA
0DD62:  MOVWF  FA7
0DD64:  BSF    FA6.1
0DD66:  BTFSC  FA6.1
0DD68:  BRA    DD66
0DD6A:  BCF    FA6.2
0DD6C:  MOVF   00,W
0DD6E:  IORWF  FF2,F
....................                delay_ms(10); 
0DD70:  MOVLW  0A
0DD72:  MOVLB  6
0DD74:  MOVWF  x35
0DD76:  MOVLB  0
0DD78:  CALL   1EDC
....................                write_eeprom(24,Sensor[1].Ajusten); 
0DD7C:  MOVF   FF2,W
0DD7E:  MOVWF  00
0DD80:  BCF    FF2.7
0DD82:  CLRF   FAA
0DD84:  MOVLW  18
0DD86:  MOVWF  FA9
0DD88:  MOVFF  41D,FA8
0DD8C:  BCF    FA6.6
0DD8E:  BCF    FA6.7
0DD90:  BSF    FA6.2
0DD92:  MOVLB  F
0DD94:  MOVLW  55
0DD96:  MOVWF  FA7
0DD98:  MOVLW  AA
0DD9A:  MOVWF  FA7
0DD9C:  BSF    FA6.1
0DD9E:  BTFSC  FA6.1
0DDA0:  BRA    DD9E
0DDA2:  BCF    FA6.2
0DDA4:  MOVF   00,W
0DDA6:  IORWF  FF2,F
....................                delay_ms(10); 
0DDA8:  MOVLW  0A
0DDAA:  MOVLB  6
0DDAC:  MOVWF  x35
0DDAE:  MOVLB  0
0DDB0:  CALL   1EDC
....................                write_eeprom(25,(int8)MediaMovil); 
0DDB4:  MOVF   FF2,W
0DDB6:  MOVWF  00
0DDB8:  BCF    FF2.7
0DDBA:  CLRF   FAA
0DDBC:  MOVLW  19
0DDBE:  MOVWF  FA9
0DDC0:  MOVFF  17B,FA8
0DDC4:  BCF    FA6.6
0DDC6:  BCF    FA6.7
0DDC8:  BSF    FA6.2
0DDCA:  MOVLB  F
0DDCC:  MOVLW  55
0DDCE:  MOVWF  FA7
0DDD0:  MOVLW  AA
0DDD2:  MOVWF  FA7
0DDD4:  BSF    FA6.1
0DDD6:  BTFSC  FA6.1
0DDD8:  BRA    DDD6
0DDDA:  BCF    FA6.2
0DDDC:  MOVF   00,W
0DDDE:  IORWF  FF2,F
....................                delay_ms(10); 
0DDE0:  MOVLW  0A
0DDE2:  MOVLB  6
0DDE4:  MOVWF  x35
0DDE6:  MOVLB  0
0DDE8:  CALL   1EDC
....................                write_eeprom(26,(int8)Tciclo); 
0DDEC:  MOVFF  18A,641
0DDF0:  MOVFF  189,640
0DDF4:  MOVFF  188,63F
0DDF8:  MOVFF  187,63E
0DDFC:  CALL   4CB2
0DE00:  MOVFF  01,62C
0DE04:  MOVF   FF2,W
0DE06:  MOVWF  00
0DE08:  BCF    FF2.7
0DE0A:  CLRF   FAA
0DE0C:  MOVLW  1A
0DE0E:  MOVWF  FA9
0DE10:  MOVFF  62C,FA8
0DE14:  BCF    FA6.6
0DE16:  BCF    FA6.7
0DE18:  BSF    FA6.2
0DE1A:  MOVLB  F
0DE1C:  MOVLW  55
0DE1E:  MOVWF  FA7
0DE20:  MOVLW  AA
0DE22:  MOVWF  FA7
0DE24:  BSF    FA6.1
0DE26:  BTFSC  FA6.1
0DE28:  BRA    DE26
0DE2A:  BCF    FA6.2
0DE2C:  MOVF   00,W
0DE2E:  IORWF  FF2,F
....................                delay_ms(10); 
0DE30:  MOVLW  0A
0DE32:  MOVLB  6
0DE34:  MOVWF  x35
0DE36:  MOVLB  0
0DE38:  CALL   1EDC
....................                write_eeprom(28,(int8)Sensor[0].RPT100); 
0DE3C:  MOVFF  2AD,641
0DE40:  MOVFF  2AC,640
0DE44:  MOVFF  2AB,63F
0DE48:  MOVFF  2AA,63E
0DE4C:  CALL   4CB2
0DE50:  MOVFF  01,62C
0DE54:  MOVF   FF2,W
0DE56:  MOVWF  00
0DE58:  BCF    FF2.7
0DE5A:  CLRF   FAA
0DE5C:  MOVLW  1C
0DE5E:  MOVWF  FA9
0DE60:  MOVFF  62C,FA8
0DE64:  BCF    FA6.6
0DE66:  BCF    FA6.7
0DE68:  BSF    FA6.2
0DE6A:  MOVLB  F
0DE6C:  MOVLW  55
0DE6E:  MOVWF  FA7
0DE70:  MOVLW  AA
0DE72:  MOVWF  FA7
0DE74:  BSF    FA6.1
0DE76:  BTFSC  FA6.1
0DE78:  BRA    DE76
0DE7A:  BCF    FA6.2
0DE7C:  MOVF   00,W
0DE7E:  IORWF  FF2,F
....................                delay_ms(10); 
0DE80:  MOVLW  0A
0DE82:  MOVLB  6
0DE84:  MOVWF  x35
0DE86:  MOVLB  0
0DE88:  CALL   1EDC
....................                Temporal=Sensor[0].RPT100-((int8)Sensor[0].RPT100); 
0DE8C:  MOVFF  2AD,641
0DE90:  MOVFF  2AC,640
0DE94:  MOVFF  2AB,63F
0DE98:  MOVFF  2AA,63E
0DE9C:  CALL   4CB2
0DEA0:  MOVLB  6
0DEA2:  CLRF   x3F
0DEA4:  MOVFF  01,63E
0DEA8:  MOVLB  0
0DEAA:  CALL   1EA6
0DEAE:  BSF    FD8.1
0DEB0:  MOVFF  2AD,641
0DEB4:  MOVFF  2AC,640
0DEB8:  MOVFF  2AB,63F
0DEBC:  MOVFF  2AA,63E
0DEC0:  MOVFF  03,645
0DEC4:  MOVFF  02,644
0DEC8:  MOVFF  01,643
0DECC:  MOVFF  00,642
0DED0:  CALL   2062
0DED4:  MOVFF  03,150
0DED8:  MOVFF  02,14F
0DEDC:  MOVFF  01,14E
0DEE0:  MOVFF  00,14D
....................                Temporal=Temporal*10; 
0DEE4:  MOVFF  150,645
0DEE8:  MOVFF  14F,644
0DEEC:  MOVFF  14E,643
0DEF0:  MOVFF  14D,642
0DEF4:  MOVLB  6
0DEF6:  CLRF   x49
0DEF8:  CLRF   x48
0DEFA:  MOVLW  20
0DEFC:  MOVWF  x47
0DEFE:  MOVLW  82
0DF00:  MOVWF  x46
0DF02:  MOVLB  0
0DF04:  CALL   3C92
0DF08:  MOVFF  03,150
0DF0C:  MOVFF  02,14F
0DF10:  MOVFF  01,14E
0DF14:  MOVFF  00,14D
....................                write_eeprom(27,(int8)Temporal); 
0DF18:  MOVFF  150,641
0DF1C:  MOVFF  14F,640
0DF20:  MOVFF  14E,63F
0DF24:  MOVFF  14D,63E
0DF28:  CALL   4CB2
0DF2C:  MOVFF  01,62C
0DF30:  MOVF   FF2,W
0DF32:  MOVWF  00
0DF34:  BCF    FF2.7
0DF36:  CLRF   FAA
0DF38:  MOVLW  1B
0DF3A:  MOVWF  FA9
0DF3C:  MOVFF  62C,FA8
0DF40:  BCF    FA6.6
0DF42:  BCF    FA6.7
0DF44:  BSF    FA6.2
0DF46:  MOVLB  F
0DF48:  MOVLW  55
0DF4A:  MOVWF  FA7
0DF4C:  MOVLW  AA
0DF4E:  MOVWF  FA7
0DF50:  BSF    FA6.1
0DF52:  BTFSC  FA6.1
0DF54:  BRA    DF52
0DF56:  BCF    FA6.2
0DF58:  MOVF   00,W
0DF5A:  IORWF  FF2,F
....................                delay_ms(10); 
0DF5C:  MOVLW  0A
0DF5E:  MOVLB  6
0DF60:  MOVWF  x35
0DF62:  MOVLB  0
0DF64:  CALL   1EDC
....................                write_eeprom(30,(int8)Sensor[1].RPT100); 
0DF68:  MOVFF  411,641
0DF6C:  MOVFF  410,640
0DF70:  MOVFF  40F,63F
0DF74:  MOVFF  40E,63E
0DF78:  CALL   4CB2
0DF7C:  MOVFF  01,62C
0DF80:  MOVF   FF2,W
0DF82:  MOVWF  00
0DF84:  BCF    FF2.7
0DF86:  CLRF   FAA
0DF88:  MOVLW  1E
0DF8A:  MOVWF  FA9
0DF8C:  MOVFF  62C,FA8
0DF90:  BCF    FA6.6
0DF92:  BCF    FA6.7
0DF94:  BSF    FA6.2
0DF96:  MOVLB  F
0DF98:  MOVLW  55
0DF9A:  MOVWF  FA7
0DF9C:  MOVLW  AA
0DF9E:  MOVWF  FA7
0DFA0:  BSF    FA6.1
0DFA2:  BTFSC  FA6.1
0DFA4:  BRA    DFA2
0DFA6:  BCF    FA6.2
0DFA8:  MOVF   00,W
0DFAA:  IORWF  FF2,F
....................                delay_ms(10); 
0DFAC:  MOVLW  0A
0DFAE:  MOVLB  6
0DFB0:  MOVWF  x35
0DFB2:  MOVLB  0
0DFB4:  CALL   1EDC
....................                Temporal=Sensor[1].RPT100-((int8)Sensor[1].RPT100); 
0DFB8:  MOVFF  411,641
0DFBC:  MOVFF  410,640
0DFC0:  MOVFF  40F,63F
0DFC4:  MOVFF  40E,63E
0DFC8:  CALL   4CB2
0DFCC:  MOVLB  6
0DFCE:  CLRF   x3F
0DFD0:  MOVFF  01,63E
0DFD4:  MOVLB  0
0DFD6:  CALL   1EA6
0DFDA:  BSF    FD8.1
0DFDC:  MOVFF  411,641
0DFE0:  MOVFF  410,640
0DFE4:  MOVFF  40F,63F
0DFE8:  MOVFF  40E,63E
0DFEC:  MOVFF  03,645
0DFF0:  MOVFF  02,644
0DFF4:  MOVFF  01,643
0DFF8:  MOVFF  00,642
0DFFC:  CALL   2062
0E000:  MOVFF  03,150
0E004:  MOVFF  02,14F
0E008:  MOVFF  01,14E
0E00C:  MOVFF  00,14D
....................                Temporal=Temporal*10; 
0E010:  MOVFF  150,645
0E014:  MOVFF  14F,644
0E018:  MOVFF  14E,643
0E01C:  MOVFF  14D,642
0E020:  MOVLB  6
0E022:  CLRF   x49
0E024:  CLRF   x48
0E026:  MOVLW  20
0E028:  MOVWF  x47
0E02A:  MOVLW  82
0E02C:  MOVWF  x46
0E02E:  MOVLB  0
0E030:  CALL   3C92
0E034:  MOVFF  03,150
0E038:  MOVFF  02,14F
0E03C:  MOVFF  01,14E
0E040:  MOVFF  00,14D
....................                write_eeprom(29,(int8)Temporal); 
0E044:  MOVFF  150,641
0E048:  MOVFF  14F,640
0E04C:  MOVFF  14E,63F
0E050:  MOVFF  14D,63E
0E054:  CALL   4CB2
0E058:  MOVFF  01,62C
0E05C:  MOVF   FF2,W
0E05E:  MOVWF  00
0E060:  BCF    FF2.7
0E062:  CLRF   FAA
0E064:  MOVLW  1D
0E066:  MOVWF  FA9
0E068:  MOVFF  62C,FA8
0E06C:  BCF    FA6.6
0E06E:  BCF    FA6.7
0E070:  BSF    FA6.2
0E072:  MOVLB  F
0E074:  MOVLW  55
0E076:  MOVWF  FA7
0E078:  MOVLW  AA
0E07A:  MOVWF  FA7
0E07C:  BSF    FA6.1
0E07E:  BTFSC  FA6.1
0E080:  BRA    E07E
0E082:  BCF    FA6.2
0E084:  MOVF   00,W
0E086:  IORWF  FF2,F
....................                delay_ms(10); 
0E088:  MOVLW  0A
0E08A:  MOVLB  6
0E08C:  MOVWF  x35
0E08E:  MOVLB  0
0E090:  CALL   1EDC
....................                write_eeprom(31,Atmosferica); 
0E094:  MOVF   FF2,W
0E096:  MOVWF  00
0E098:  BCF    FF2.7
0E09A:  CLRF   FAA
0E09C:  MOVLW  1F
0E09E:  MOVWF  FA9
0E0A0:  MOVFF  21B,FA8
0E0A4:  BCF    FA6.6
0E0A6:  BCF    FA6.7
0E0A8:  BSF    FA6.2
0E0AA:  MOVLB  F
0E0AC:  MOVLW  55
0E0AE:  MOVWF  FA7
0E0B0:  MOVLW  AA
0E0B2:  MOVWF  FA7
0E0B4:  BSF    FA6.1
0E0B6:  BTFSC  FA6.1
0E0B8:  BRA    E0B6
0E0BA:  BCF    FA6.2
0E0BC:  MOVF   00,W
0E0BE:  IORWF  FF2,F
....................                delay_ms(10); 
0E0C0:  MOVLW  0A
0E0C2:  MOVLB  6
0E0C4:  MOVWF  x35
0E0C6:  MOVLB  0
0E0C8:  CALL   1EDC
....................                write_eeprom(32,Tapertura); 
0E0CC:  MOVF   FF2,W
0E0CE:  MOVWF  00
0E0D0:  BCF    FF2.7
0E0D2:  CLRF   FAA
0E0D4:  MOVLW  20
0E0D6:  MOVWF  FA9
0E0D8:  MOVFF  1DE,FA8
0E0DC:  BCF    FA6.6
0E0DE:  BCF    FA6.7
0E0E0:  BSF    FA6.2
0E0E2:  MOVLB  F
0E0E4:  MOVLW  55
0E0E6:  MOVWF  FA7
0E0E8:  MOVLW  AA
0E0EA:  MOVWF  FA7
0E0EC:  BSF    FA6.1
0E0EE:  BTFSC  FA6.1
0E0F0:  BRA    E0EE
0E0F2:  BCF    FA6.2
0E0F4:  MOVF   00,W
0E0F6:  IORWF  FF2,F
....................                delay_ms(10); 
0E0F8:  MOVLW  0A
0E0FA:  MOVLB  6
0E0FC:  MOVWF  x35
0E0FE:  MOVLB  0
0E100:  CALL   1EDC
....................                GuardaEEPROM=ON; 
0E104:  BSF    x8F.4
....................             } 
....................             printf("page Menu"); 
0E106:  MOVLW  66
0E108:  MOVWF  FF6
0E10A:  MOVLW  1E
0E10C:  MOVWF  FF7
0E10E:  MOVLW  00
0E110:  MOVWF  FF8
0E112:  CALL   3C02
....................             SendDataDisplay(); 
0E116:  CALL   3C34
....................             //BorraBuffer(); 
....................          } 
....................       } 
....................       printf("fecha.txt=\"Fecha:%02u/%02u/20%02u    Hora: %02u:%02u\"",Dia,Mes,Year,Hora,Minuto); 
0E11A:  MOVLW  70
0E11C:  MOVWF  FF6
0E11E:  MOVLW  1E
0E120:  MOVWF  FF7
0E122:  MOVLW  00
0E124:  MOVWF  FF8
0E126:  MOVLW  11
0E128:  MOVLB  6
0E12A:  MOVWF  x31
0E12C:  MOVLB  0
0E12E:  CALL   4FD6
0E132:  MOVFF  213,631
0E136:  MOVLW  01
0E138:  MOVLB  6
0E13A:  MOVWF  x32
0E13C:  MOVLB  0
0E13E:  CALL   505A
0E142:  MOVLW  2F
0E144:  BTFSS  F9E.4
0E146:  BRA    E144
0E148:  MOVWF  FAD
0E14A:  MOVFF  212,631
0E14E:  MOVLW  01
0E150:  MOVLB  6
0E152:  MOVWF  x32
0E154:  MOVLB  0
0E156:  CALL   505A
0E15A:  MOVLW  8A
0E15C:  MOVWF  FF6
0E15E:  MOVLW  1E
0E160:  MOVWF  FF7
0E162:  MOVLW  00
0E164:  MOVWF  FF8
0E166:  MOVLW  03
0E168:  MOVLB  6
0E16A:  MOVWF  x31
0E16C:  MOVLB  0
0E16E:  CALL   4FD6
0E172:  MOVFF  211,631
0E176:  MOVLW  01
0E178:  MOVLB  6
0E17A:  MOVWF  x32
0E17C:  MOVLB  0
0E17E:  CALL   505A
0E182:  MOVLW  91
0E184:  MOVWF  FF6
0E186:  MOVLW  1E
0E188:  MOVWF  FF7
0E18A:  MOVLW  00
0E18C:  MOVWF  FF8
0E18E:  MOVLW  0A
0E190:  MOVLB  6
0E192:  MOVWF  x31
0E194:  MOVLB  0
0E196:  CALL   4FD6
0E19A:  MOVFF  214,631
0E19E:  MOVLW  01
0E1A0:  MOVLB  6
0E1A2:  MOVWF  x32
0E1A4:  MOVLB  0
0E1A6:  CALL   505A
0E1AA:  MOVLW  3A
0E1AC:  BTFSS  F9E.4
0E1AE:  BRA    E1AC
0E1B0:  MOVWF  FAD
0E1B2:  MOVFF  215,631
0E1B6:  MOVLW  01
0E1B8:  MOVLB  6
0E1BA:  MOVWF  x32
0E1BC:  MOVLB  0
0E1BE:  CALL   505A
0E1C2:  MOVLW  22
0E1C4:  BTFSS  F9E.4
0E1C6:  BRA    E1C4
0E1C8:  MOVWF  FAD
....................       SendDataDisplay();  
0E1CA:  CALL   3C34
0E1CE:  MOVLB  1
....................     } 
0E1D0:  GOTO   6DF8
.................... //_--------------------------------------------------------------------------------------------------------------------------------------------------------        
....................  
....................    } 
.................... } 
0E1D4:  SLEEP 

Configuration Fuses:
   Word  1: 0200   HS NOFCMEN NOIESO
   Word  2: 1B1F   NOPUT BROWNOUT BORV21 WDT WDT8192
   Word  3: 0000   NOPBADEN NOLPT1OSC NOMCLR
   Word  4: 00B0   NOSTVREN NOLVP NOXINST NODEBUG
   Word  5: C03F   NOPROTECT NOCPB NOCPD
   Word  6: E03F   NOWRT NOWRTC NOWRTB NOWRTD
   Word  7: 403F   NOEBTR NOEBTRB
