CCS PCH C Compiler, Version 4.104, 5967               03-mar.-20 09:31

               Filename: D:\Laboratorio\Autoclave\Autoclave Horizontal\Sin Precamara\2019\Autoclave 85L Avantika #004588078 OP201997\Firmware V4.1\GLCD_Controller\GLCD_Controller.lst

               ROM used: 49152 bytes (50%)
                         Largest free fragment is 32768
               RAM used: 1056 (32%) at main() level
                         1084 (33%) worst case
               Stack:    5 worst case (4 in main + 1 for interrupts)

*
00000:  GOTO   594C
*
00008:  GOTO   00BA
0000C:  NOP   
0000E:  NOP   
00010:  NOP   
00012:  NOP   
00014:  NOP   
00016:  NOP   
00018:  MOVWF  04
0001A:  MOVFF  FD8,05
0001E:  MOVFF  FE0,06
00022:  MOVLB  0
00024:  MOVFF  FE9,0C
00028:  MOVFF  FEA,07
0002C:  MOVFF  FE1,08
00030:  MOVFF  FE2,09
00034:  MOVFF  FD9,0A
00038:  MOVFF  FDA,0B
0003C:  MOVFF  FF3,12
00040:  MOVFF  FF4,13
00044:  MOVFF  FFA,14
00048:  MOVFF  FFB,15
0004C:  MOVFF  00,0E
00050:  MOVFF  01,0F
00054:  MOVFF  02,10
00058:  MOVFF  03,11
0005C:  BTFSS  FF2.5
0005E:  GOTO   0068
00062:  BTFSC  FF2.2
00064:  GOTO   02C8
00068:  BTFSS  F9D.0
0006A:  GOTO   0074
0006E:  BTFSC  F9E.0
00070:  GOTO   0320
00074:  MOVFF  0E,00
00078:  MOVFF  0F,01
0007C:  MOVFF  10,02
00080:  MOVFF  11,03
00084:  MOVFF  0C,FE9
00088:  MOVFF  07,FEA
0008C:  BSF    07.7
0008E:  MOVFF  08,FE1
00092:  MOVFF  09,FE2
00096:  MOVFF  0A,FD9
0009A:  MOVFF  0B,FDA
0009E:  MOVFF  12,FF3
000A2:  MOVFF  13,FF4
000A6:  MOVFF  14,FFA
000AA:  MOVFF  15,FFB
000AE:  MOVF   04,W
000B0:  MOVFF  06,FE0
000B4:  MOVFF  05,FD8
000B8:  RETFIE 0
000BA:  MOVWF  17
000BC:  MOVFF  FD8,18
000C0:  MOVFF  FE0,19
000C4:  MOVLB  0
000C6:  MOVFF  FE9,1F
000CA:  MOVFF  FEA,1A
000CE:  MOVFF  FE1,1B
000D2:  MOVFF  FE2,1C
000D6:  MOVFF  FD9,1D
000DA:  MOVFF  FDA,1E
000DE:  MOVFF  FF3,25
000E2:  MOVFF  FF4,26
000E6:  MOVFF  FFA,27
000EA:  MOVFF  FFB,28
000EE:  MOVFF  00,21
000F2:  MOVFF  01,22
000F6:  MOVFF  02,23
000FA:  MOVFF  03,24
000FE:  BTFSS  F9D.5
00100:  GOTO   010A
00104:  BTFSC  F9E.5
00106:  GOTO   025A
0010A:  MOVFF  21,00
0010E:  MOVFF  22,01
00112:  MOVFF  23,02
00116:  MOVFF  24,03
0011A:  MOVFF  1F,FE9
0011E:  MOVFF  1A,FEA
00122:  BSF    1A.7
00124:  MOVFF  1B,FE1
00128:  MOVFF  1C,FE2
0012C:  MOVFF  1D,FD9
00130:  MOVFF  1E,FDA
00134:  MOVFF  25,FF3
00138:  MOVFF  26,FF4
0013C:  MOVFF  27,FFA
00140:  MOVFF  28,FFB
00144:  MOVF   17,W
00146:  MOVFF  19,FE0
0014A:  MOVFF  18,FD8
0014E:  RETFIE 0
.................... //Falta crear menu de ajuste de variables y de norma CFR21 
....................  
.................... #include <18F4685.h> 
.................... //////// Standard Header file for the PIC18F4685 device //////////////// 
.................... #device PIC18F4685 
.................... #list 
....................  
.................... #device adc=10 
.................... #device HIGH_INTS=TRUE //Activamos niveles de prioridad 
.................... #fuses HS,WDT8192,NOPROTECT,NOLVP,NODEBUG,NOSTVREN,NOPUT,NOCPD,NOWRT,NOIESO,NOFCMEN,NOPBADEN,NOWRTC,NOWRTB,NOEBTR,NOEBTRB,NOCPB,NOXINST,NOLPT1OSC,NOMCLR 
.................... #use delay(clock=20000000) 
*
01814:  MOVLW  04
01816:  MOVWF  FEA
01818:  MOVLW  2A
0181A:  MOVWF  FE9
0181C:  MOVF   FEF,W
0181E:  BZ    183A
01820:  MOVLW  06
01822:  MOVWF  01
01824:  CLRF   00
01826:  DECFSZ 00,F
01828:  BRA    1826
0182A:  DECFSZ 01,F
0182C:  BRA    1824
0182E:  MOVLW  7B
01830:  MOVWF  00
01832:  DECFSZ 00,F
01834:  BRA    1832
01836:  DECFSZ FEF,F
01838:  BRA    1820
0183A:  RETLW  00
.................... #use i2c(Master,slow,sda=PIN_C4,scl=PIN_C3) 
*
03E36:  MOVLW  08
03E38:  MOVWF  01
03E3A:  MOVLW  05
03E3C:  MOVWF  00
03E3E:  DECFSZ 00,F
03E40:  BRA    3E3E
03E42:  BCF    F8B.3
03E44:  BCF    F94.3
03E46:  MOVLW  06
03E48:  MOVWF  00
03E4A:  DECFSZ 00,F
03E4C:  BRA    3E4A
03E4E:  MOVLB  4
03E50:  RLCF   x2E,F
03E52:  BCF    F8B.4
03E54:  BTFSC  FD8.0
03E56:  BSF    F94.4
03E58:  BTFSS  FD8.0
03E5A:  BCF    F94.4
03E5C:  BSF    F94.3
03E5E:  BTFSS  F82.3
03E60:  BRA    3E5E
03E62:  DECFSZ 01,F
03E64:  BRA    3E68
03E66:  BRA    3E6C
03E68:  MOVLB  0
03E6A:  BRA    3E3A
03E6C:  MOVLW  05
03E6E:  MOVWF  00
03E70:  DECFSZ 00,F
03E72:  BRA    3E70
03E74:  BCF    F8B.3
03E76:  BCF    F94.3
03E78:  NOP   
03E7A:  BSF    F94.4
03E7C:  MOVLW  06
03E7E:  MOVWF  00
03E80:  DECFSZ 00,F
03E82:  BRA    3E80
03E84:  MOVLW  06
03E86:  MOVWF  00
03E88:  DECFSZ 00,F
03E8A:  BRA    3E88
03E8C:  BSF    F94.3
03E8E:  BTFSS  F82.3
03E90:  BRA    3E8E
03E92:  CLRF   01
03E94:  MOVLW  06
03E96:  MOVWF  00
03E98:  DECFSZ 00,F
03E9A:  BRA    3E98
03E9C:  BTFSC  F82.4
03E9E:  BSF    01.0
03EA0:  BCF    F8B.3
03EA2:  BCF    F94.3
03EA4:  BCF    F8B.4
03EA6:  BCF    F94.4
03EA8:  MOVLB  0
03EAA:  RETLW  00
.................... #use rs232(baud=9600, xmit=PIN_C6, rcv=PIN_C7, bits=8, parity=N) 
*
035AA:  BTFSS  F9E.4
035AC:  BRA    35AA
035AE:  MOVWF  FAD
035B0:  RETLW  00
.................... //#include "HDM64GS12.c" 
.................... //#include "GRAPHICS.c" 
.................... ///#include "imagen.h" 
.................... #include <stdio.h> 
.................... /////////////////////////////////////////////////////////////////////////// 
.................... ////        (C) Copyright 1996,2003 Custom Computer Services           //// 
.................... //// This source code may only be used by licensed users of the CCS C  //// 
.................... //// compiler.  This source code may only be distributed to other      //// 
.................... //// licensed users of the CCS C compiler.  No other use, reproduction //// 
.................... //// or distribution is permitted without written permission.          //// 
.................... //// Derivative programs created using this software in object code    //// 
.................... //// form are not restricted in any way.                               //// 
.................... /////////////////////////////////////////////////////////////////////////// 
....................  
.................... #ifndef _STDIO 
.................... #define _STDIO 
.................... #include <string.h> 
.................... //////////////////////////////////////////////////////////////////////////// 
.................... ////        (C) Copyright 1996,2008 Custom Computer Services            //// 
.................... //// This source code may only be used by licensed users of the CCS C   //// 
.................... //// compiler.  This source code may only be distributed to other       //// 
.................... //// licensed users of the CCS C compiler.  No other use, reproduction  //// 
.................... //// or distribution is permitted without written permission.           //// 
.................... //// Derivative programs created using this software in object code     //// 
.................... //// form are not restricted in any way.                                //// 
.................... //////////////////////////////////////////////////////////////////////////// 
....................  
.................... #ifndef _STRING 
.................... #define _STRING 
.................... #include <stddef.h> 
.................... /////////////////////////////////////////////////////////////////////////// 
.................... ////        (C) Copyright 1996,2003 Custom Computer Services           //// 
.................... //// This source code may only be used by licensed users of the CCS C  //// 
.................... //// compiler.  This source code may only be distributed to other      //// 
.................... //// licensed users of the CCS C compiler.  No other use, reproduction //// 
.................... //// or distribution is permitted without written permission.          //// 
.................... //// Derivative programs created using this software in object code    //// 
.................... //// form are not restricted in any way.                               //// 
.................... /////////////////////////////////////////////////////////////////////////// 
....................  
.................... #ifndef _STDDEF 
....................  
.................... #define _STDDEF 
....................  
.................... #if sizeof(unsigned int8 *)==1 
.................... #define ptrdiff_t unsigned int8 
.................... #else 
.................... #define ptrdiff_t unsigned int16 
.................... #endif 
....................  
.................... #define size_t unsigned int8 
.................... #define wchar_t char 
.................... #define NULL 0 
....................  
.................... #define offsetof(s,f) (offsetofbit(s,f)/8) 
....................  
.................... #endif 
....................  
.................... #include <ctype.h> 
.................... //////////////////////////////////////////////////////////////////////////// 
.................... ////        (C) Copyright 1996,2003 Custom Computer Services            //// 
.................... //// This source code may only be used by licensed users of the CCS C   //// 
.................... //// compiler.  This source code may only be distributed to other       //// 
.................... //// licensed users of the CCS C compiler.  No other use, reproduction  //// 
.................... //// or distribution is permitted without written permission.           //// 
.................... //// Derivative programs created using this software in object code     //// 
.................... //// form are not restricted in any way.                                //// 
.................... //////////////////////////////////////////////////////////////////////////// 
....................  
.................... #ifndef _CTYPE 
.................... #define _CTYPE 
....................  
.................... #define islower(x)  isamong(x,"abcdefghijklmnopqrstuvwxyz") 
.................... #define isupper(x)  isamong(x,"ABCDEFGHIJKLMNOPQRSTUVWXYZ") 
.................... #define isalnum(x)  isamong(x,"0123456789ABCDEFGHIJKLMNOPQRSTUVWXYZabcdefghijklmnopqrstuvwxyz") 
.................... #define isalpha(x)  isamong(x,"ABCDEFGHIJKLMNOPQRSTUVWXYZabcdefghijklmnopqrstuvwxyz") 
.................... #define isdigit(x)  isamong(x,"0123456789") 
.................... #define isspace(x)  ((x)==' ') 
.................... #define isxdigit(x) isamong(x,"0123456789ABCDEFabcdef") 
.................... #define iscntrl(x)  ((x)<' ') 
.................... #define isprint(x)  ((x)>=' ') 
.................... #define isgraph(x)  ((x)>' ') 
.................... #define ispunct(x)  (((x)>' ')&&!isalnum(x)) 
....................  
.................... #endif 
....................  
....................  
....................  
....................  
....................  
.................... ////////////////////////////////////////////// 
.................... //// Uncomment the following define to    //// 
.................... //// allow some functions to use a        //// 
.................... //// quicker algorithm, but use more ROM  //// 
.................... ////                                      //// 
.................... //// #define FASTER_BUT_MORE_ROM          //// 
.................... ////////////////////////////////////////////// 
....................  
....................  
....................  
.................... /*Copying functions*/ 
.................... /* standard template: 
....................    void *memmove(void *s1, void *s2, size_t n). 
....................    Copies max of n characters safely (not following ending '\0') 
....................    from s2 in s1; if s2 has less than n characters, appends 0 */ 
....................  
.................... char *memmove(void *s1,char *s2,size_t n) 
.................... { 
....................    char *sc1; 
....................    char *sc2; 
....................    sc1=s1; 
....................    sc2=s2; 
....................    if(sc2<sc1 && sc1 <sc2 +n) 
....................       for(sc1+=n,sc2+=n;0<n;--n) 
....................          *--sc1=*--sc2; 
....................    else 
....................       for(;0<n;--n) 
....................          *sc1++=*sc2++; 
....................   return s1; 
....................   } 
....................  
.................... /* Standard template: char *strcpy(char *s1, const char *s2) 
....................    copies the string s2 including the null character to s1. 
....................    This is a compiler built in to handle the different address 
....................    spaces */ 
....................  
.................... #define strcopy strcpy 
....................  
.................... /* standard template: 
....................    char *strncpy(char *s1, const char *s2, size_t n). 
....................    Copies max of n characters (not following ending '\0') 
....................    from s2 in s1; if s2 has less than n characters, appends 0 */ 
....................  
.................... char *strncpy(char *s1, char *s2, size_t n) 
.................... { 
....................   char *s; 
....................  
....................   for (s = s1; n > 0 && *s2 != '\0'; n--) 
....................      *s++ = *s2++; 
....................   for (; n > 0; n--) 
....................      *s++ = '\0'; 
....................  
....................   return(s1); 
.................... } 
.................... /***********************************************************/ 
....................  
.................... /*concatenation functions*/ 
.................... /* standard template: char *strcat(char *s1, const char *s2) 
.................... appends s2 to s1*/ 
....................  
.................... char *strcat(char *s1, char *s2) 
.................... { 
....................    char *s; 
....................  
....................    for (s = s1; *s != '\0'; ++s); 
....................    while(*s2 != '\0') 
....................    { 
....................       *s = *s2; 
....................       ++s; 
....................       ++s2; 
....................    } 
....................  
....................    *s = '\0'; 
....................    return(s1); 
.................... } 
.................... /* standard template: char *strncat(char *s1, char *s2,size_t n) 
.................... appends not more than n characters from s2 to s1*/ 
....................  
.................... char *strncat(char *s1, char *s2, size_t n) 
.................... { 
....................    char *s; 
....................  
....................    for (s = s1; *s != '\0'; ++s); 
....................    while(*s2 != '\0' && 0<n) 
....................    { 
....................       *s = *s2; 
....................       ++s; 
....................       ++s2; 
....................       --n; 
....................    } 
....................  
....................    *s = '\0'; 
....................    return(s1); 
.................... } 
....................  
.................... /***********************************************************/ 
....................  
....................  
.................... /*comparison functions*/ 
.................... /* standard template: signed int memcmp(void *s1, void *s2). 
....................    Compares s1 & s2; returns -1 if s1<s2, 0 if s1=s2, 1 if s1>s2 */ 
....................  
.................... signed int8 memcmp(void * s1,char *s2,size_t n) 
.................... { 
.................... char *su1, *su2; 
.................... for(su1=s1, su2=s2; 0<n; ++su1, ++su2, --n) 
.................... { 
....................    if(*su1!=*su2) 
....................       return ((*su1<*su2)?-1:+1); 
.................... } 
.................... return 0; 
.................... } 
....................  
.................... /* standard template: int strcmp(const char *s1, const char *s2). 
....................    Compares s1 & s2; returns -1 if s1<s2, 0 if s1=s2, 1 if s1>s2 */ 
....................  
.................... signed int8 strcmp(char *s1, char *s2) 
.................... { 
....................    for (; *s1 == *s2; s1++, s2++) 
....................       if (*s1 == '\0') 
....................          return(0); 
....................    return((*s1 < *s2) ? -1: 1); 
.................... } 
.................... /* standard template: int strcoll(const char *s1, const char *s2). 
....................    Compares s1 & s2; returns -1 if s1<s2, 0 if s1=s2, 1 if s1>s2 */ 
....................  
.................... signed int8 strcoll(char *s1, char *s2) 
.................... { 
....................    for (; *s1 == *s2; s1++, s2++) 
....................       if (*s1 == '\0') 
....................          return(0); 
....................    return((*s1 < *s2) ? -1: 1); 
.................... } 
....................  
.................... /* standard template: 
....................    int strncmp(const char *s1, const char *s2, size_t n). 
....................    Compares max of n characters (not following 0) from s1 to s2; 
....................    returns same as strcmp */ 
....................  
.................... signed int8 strncmp(char *s1, char *s2, size_t n) 
.................... { 
....................    for (; n > 0; s1++, s2++, n--) 
....................       if (*s1 != *s2) 
....................          return((*s1 <*s2) ? -1: 1); 
....................       else if (*s1 == '\0') 
....................          return(0); 
....................    return(0); 
.................... } 
.................... /* standard template: 
....................    int strxfrm(const char *s1, const char *s2, size_t n). 
....................    transforms maximum of n characters from s2 and places them into s1*/ 
.................... size_t strxfrm(char *s1, char *s2, size_t n) 
.................... { 
....................   char *s; 
....................   unsigned int8 n1; 
....................   n1=n; 
....................   for (s = s1; n > 0 && *s2 != '\0'; n--) 
....................      *s++ = *s2++; 
....................   for (; n > 0; n--) 
....................      *s++ = '\0'; 
....................  
....................   return(n1); 
.................... } 
....................  
....................  
....................  
....................  
....................  
.................... /***********************************************************/ 
.................... /*Search functions*/ 
.................... /* standard template: void *memchr(const char *s, int c). 
....................    Finds first occurrence of c in n characters of s */ 
....................  
.................... char *memchr(void *s,unsigned int8 c,size_t n) 
.................... { 
....................    char uc; 
....................    char *su; 
....................    uc=c; 
....................    for(su=s;0<n;++su,--n) 
....................       if(*su==uc) 
....................       return su; 
....................    return NULL; 
.................... } 
....................  
.................... /* standard template: char *strchr(const char *s, int c). 
....................    Finds first occurrence of c in s */ 
....................  
.................... char *strchr(char *s, unsigned int8 c) 
.................... { 
....................    for (; *s != c; s++) 
....................       if (*s == '\0') 
....................          return(0); 
....................    return(s); 
.................... } 
.................... /* standard template: 
....................    size_t strcspn(const char *s1, const char *s2). 
....................    Computes length of max initial segment of s1 that 
....................    consists entirely of characters NOT from s2*/ 
....................  
.................... unsigned int8  strcspn(char *s1, char *s2) 
.................... { 
....................    char *sc1, *sc2; 
....................  
....................    for (sc1 = s1; *sc1 != 0; sc1++) 
....................       for (sc2 = s2; *sc2 != 0; sc2++) 
....................          if (*sc1 == *sc2) 
....................             return(sc1 - s1); 
....................    return(sc1 - s1); 
.................... } 
.................... /* standard template: 
....................    char *strpbrk(const char *s1, const char *s2). 
....................    Locates first occurence of any character from s2 in s1; 
....................    returns s1 if s2 is empty string */ 
....................  
.................... char *strpbrk(char *s1, char *s2) 
.................... { 
....................    char *sc1, *sc2; 
....................  
....................    for (sc1 = s1; *sc1 != 0; sc1++) 
....................       for (sc2 = s2; *sc2 != 0; sc2++) 
....................          if (*sc1 == *sc2) 
....................             return(sc1); 
....................    return(0); 
.................... } 
....................  
....................  
.................... /* standard template: char *strrchr(const char *s, int c). 
....................    Finds last occurrence of c in s */ 
....................  
.................... char *strrchr(char *s, unsigned int8 c) 
.................... { 
....................    char *p; 
....................  
....................    for (p = 0; ; s++) 
....................    { 
....................       if (*s == c) 
....................          p = s; 
....................       if (*s == '\0') 
....................          return(p); 
....................    } 
.................... } 
.................... /* computes length of max initial segment of s1 consisting 
....................    entirely of characters from s2 */ 
....................  
.................... unsigned int8  strspn(char *s1, char *s2) 
.................... { 
....................    char *sc1, *sc2; 
....................  
....................    for (sc1 = s1; *sc1 != 0; sc1++) 
....................       for (sc2 = s2; ; sc2++) 
....................     if (*sc2 == '\0') 
....................        return(sc1 - s1); 
....................          else if (*sc1 == *sc2) 
....................             break; 
....................    return(sc1 - s1); 
.................... } 
.................... /* standard template: 
....................    char *strstr(const char *s1, const char *s2); 
....................    Locates first occurence of character sequence s2 in s1; 
....................    returns 0 if s2 is empty string 
....................  
....................    Uncomment #define FASTER_BUT_MORE_ROM at the top of the 
....................    file to use the faster algorithm */ 
.................... char *strstr(char *s1, char *s2) 
.................... { 
....................    char *s, *t; 
....................  
....................    #ifdef FASTER_BUT_MORE_ROM 
....................    if (*s2 == '\0') 
....................          return(s1); 
....................    #endif 
....................  
....................    while (*s1) 
....................    { 
....................       for(s = s1, t = s2; *t && (*s == *t); ++s, ++t); 
....................  
....................       if (*t == '\0') 
....................          return s1; 
....................       ++s1; 
....................       #ifdef FASTER_BUT_MORE_ROM 
....................          while(*s1 != '\0' && *s1 != *s2) 
....................             ++s1; 
....................       #endif 
....................    } 
....................    return 0; 
.................... } 
....................  
.................... /* standard template: char *strtok(char *s1, const char *s2). 
....................  
....................    Finds next token in s1 delimited by a character from separator 
....................    string s2 (which can be different from call to call).  First call 
....................    starts at beginning of s1 searching for first character NOT 
....................    contained in s2; returns 0 if none is found. 
....................    If one is found, it is the start of first token (return value). 
....................    Function then searches from there for a character contained in s2. 
....................    If none is found, current token extends to end of s1, and subsequent 
....................    searches for a token will return 0.  If one is found, it is 
....................    overwritten by '\0', which terminates current token.  Function saves 
....................    pointer to following character from which next search will start. 
....................    Each subsequent call, with 0 as first argument, starts searching 
....................    from saved pointer */ 
....................  
.................... char *strtok(char *s1, char *s2) 
.................... { 
....................    char *beg, *end; 
....................    static char *save; 
....................  
....................    beg = (s1)? s1: save; 
....................    beg += strspn(beg, s2); 
....................    if (*beg == '\0') 
....................    { 
....................       *save = ' '; 
....................       return(0); 
....................    } 
....................    end = strpbrk(beg, s2); 
....................    if (*end != '\0') 
....................    { 
....................       *end = '\0'; 
....................       end++; 
....................    } 
....................    save = end; 
....................    return(beg); 
.................... } 
....................  
.................... /*****************************************************************/ 
.................... /*Miscellaneous functions*/ 
.................... /* standard template 
.................... maps error number in errnum to an error message string 
.................... Returns: Pointer to string 
.................... */ 
.................... #ifdef _ERRNO 
.................... char * strerror(unsigned int8 errnum) 
.................... { 
.................... char s[15]; 
.................... switch( errnum) 
.................... { 
.................... case 0: 
....................    strcpy(s,"no errors"); 
....................    return s; 
.................... case EDOM : 
....................    strcpy(s,"domain error"); 
....................    return s; 
.................... case ERANGE: 
....................    strcpy(s,"range error"); 
....................    return s; 
.................... } 
.................... } 
.................... #ENDIF 
.................... /* standard template: size_t strlen(const char *s). 
....................    Computes length of s1 (preceding terminating 0) */ 
....................  
.................... unsigned int8 strlen(char *s) 
.................... { 
....................    char *sc; 
....................  
....................    for (sc = s; *sc != 0; sc++); 
....................    return(sc - s); 
.................... } 
....................  
.................... /* standard template: size_t stricmp(const char *s1, const char *s2). 
....................    Compares s1 to s2 ignoring case (upper vs. lower) */ 
....................  
.................... signed int8 stricmp(char *s1, char *s2) 
.................... { 
....................  for(; *s1==*s2||(isalpha(*s1)&&isalpha(*s2)&&(*s1==*s2+32||*s2==*s1+32)); 
....................     s1++, s2++) 
....................     if (*s1 == '\0') 
....................        return(0); 
....................  return((*s1 < *s2) ? -1: 1); 
.................... } 
....................  
....................  
.................... /* standard template: char *strlwr(char *s). 
....................    Replaces uppercase letters by lowercase; 
....................    returns pointer to new string s */ 
....................  
.................... char *strlwr(char *s) 
.................... { 
....................    char *p; 
....................  
....................    for (p = s; *p != '\0'; p++) 
....................       if (*p >= 'A' && *p <='Z') 
....................          *p += 'a' - 'A'; 
....................    return(s); 
.................... } 
....................  
....................  
.................... /************************************************************/ 
....................  
....................  
.................... #endif 
....................  
.................... #ifndef getc 
.................... #define getc getch 
.................... #define getchar getch 
.................... #define puts(s) {printf(s); putchar(13); putchar(10);} 
.................... #define putc putchar 
.................... #endif 
.................... /* maps error number to an error message. Writes a sequence of characters to 
.................... stderr stream thus: if s is not null then string pointed to by s follwed by 
.................... a colon (:) and a space and the appropriate error message returned by strerror 
.................... function with argument errno 
....................  
.................... Returns: no value 
.................... */ 
....................  
.................... #ifdef _ERRNO 
.................... void perror(char *s) 
.................... { 
....................   if(s) 
....................   fprintf(STDERR,"%s: ",s); 
....................   fprintf(STDERR,"%s\r\n",strerror(errno)); 
.................... } 
.................... #endif 
.................... #endif 
....................  
.................... #include <string.h> 
.................... //////////////////////////////////////////////////////////////////////////// 
.................... ////        (C) Copyright 1996,2008 Custom Computer Services            //// 
.................... //// This source code may only be used by licensed users of the CCS C   //// 
.................... //// compiler.  This source code may only be distributed to other       //// 
.................... //// licensed users of the CCS C compiler.  No other use, reproduction  //// 
.................... //// or distribution is permitted without written permission.           //// 
.................... //// Derivative programs created using this software in object code     //// 
.................... //// form are not restricted in any way.                                //// 
.................... //////////////////////////////////////////////////////////////////////////// 
....................  
.................... #ifndef _STRING 
.................... #define _STRING 
.................... #include <stddef.h> 
.................... #include <ctype.h> 
....................  
....................  
....................  
.................... ////////////////////////////////////////////// 
.................... //// Uncomment the following define to    //// 
.................... //// allow some functions to use a        //// 
.................... //// quicker algorithm, but use more ROM  //// 
.................... ////                                      //// 
.................... //// #define FASTER_BUT_MORE_ROM          //// 
.................... ////////////////////////////////////////////// 
....................  
....................  
....................  
.................... /*Copying functions*/ 
.................... /* standard template: 
....................    void *memmove(void *s1, void *s2, size_t n). 
....................    Copies max of n characters safely (not following ending '\0') 
....................    from s2 in s1; if s2 has less than n characters, appends 0 */ 
....................  
.................... char *memmove(void *s1,char *s2,size_t n) 
.................... { 
....................    char *sc1; 
....................    char *sc2; 
....................    sc1=s1; 
....................    sc2=s2; 
....................    if(sc2<sc1 && sc1 <sc2 +n) 
....................       for(sc1+=n,sc2+=n;0<n;--n) 
....................          *--sc1=*--sc2; 
....................    else 
....................       for(;0<n;--n) 
....................          *sc1++=*sc2++; 
....................   return s1; 
....................   } 
....................  
.................... /* Standard template: char *strcpy(char *s1, const char *s2) 
....................    copies the string s2 including the null character to s1. 
....................    This is a compiler built in to handle the different address 
....................    spaces */ 
....................  
.................... #define strcopy strcpy 
....................  
.................... /* standard template: 
....................    char *strncpy(char *s1, const char *s2, size_t n). 
....................    Copies max of n characters (not following ending '\0') 
....................    from s2 in s1; if s2 has less than n characters, appends 0 */ 
....................  
.................... char *strncpy(char *s1, char *s2, size_t n) 
.................... { 
....................   char *s; 
....................  
....................   for (s = s1; n > 0 && *s2 != '\0'; n--) 
....................      *s++ = *s2++; 
....................   for (; n > 0; n--) 
....................      *s++ = '\0'; 
....................  
....................   return(s1); 
.................... } 
.................... /***********************************************************/ 
....................  
.................... /*concatenation functions*/ 
.................... /* standard template: char *strcat(char *s1, const char *s2) 
.................... appends s2 to s1*/ 
....................  
.................... char *strcat(char *s1, char *s2) 
.................... { 
....................    char *s; 
....................  
....................    for (s = s1; *s != '\0'; ++s); 
....................    while(*s2 != '\0') 
....................    { 
....................       *s = *s2; 
....................       ++s; 
....................       ++s2; 
....................    } 
....................  
....................    *s = '\0'; 
....................    return(s1); 
.................... } 
.................... /* standard template: char *strncat(char *s1, char *s2,size_t n) 
.................... appends not more than n characters from s2 to s1*/ 
....................  
.................... char *strncat(char *s1, char *s2, size_t n) 
.................... { 
....................    char *s; 
....................  
....................    for (s = s1; *s != '\0'; ++s); 
....................    while(*s2 != '\0' && 0<n) 
....................    { 
....................       *s = *s2; 
....................       ++s; 
....................       ++s2; 
....................       --n; 
....................    } 
....................  
....................    *s = '\0'; 
....................    return(s1); 
.................... } 
....................  
.................... /***********************************************************/ 
....................  
....................  
.................... /*comparison functions*/ 
.................... /* standard template: signed int memcmp(void *s1, void *s2). 
....................    Compares s1 & s2; returns -1 if s1<s2, 0 if s1=s2, 1 if s1>s2 */ 
....................  
.................... signed int8 memcmp(void * s1,char *s2,size_t n) 
.................... { 
.................... char *su1, *su2; 
.................... for(su1=s1, su2=s2; 0<n; ++su1, ++su2, --n) 
.................... { 
....................    if(*su1!=*su2) 
....................       return ((*su1<*su2)?-1:+1); 
.................... } 
.................... return 0; 
.................... } 
....................  
.................... /* standard template: int strcmp(const char *s1, const char *s2). 
....................    Compares s1 & s2; returns -1 if s1<s2, 0 if s1=s2, 1 if s1>s2 */ 
....................  
.................... signed int8 strcmp(char *s1, char *s2) 
.................... { 
....................    for (; *s1 == *s2; s1++, s2++) 
....................       if (*s1 == '\0') 
....................          return(0); 
....................    return((*s1 < *s2) ? -1: 1); 
.................... } 
.................... /* standard template: int strcoll(const char *s1, const char *s2). 
....................    Compares s1 & s2; returns -1 if s1<s2, 0 if s1=s2, 1 if s1>s2 */ 
....................  
.................... signed int8 strcoll(char *s1, char *s2) 
.................... { 
....................    for (; *s1 == *s2; s1++, s2++) 
....................       if (*s1 == '\0') 
....................          return(0); 
....................    return((*s1 < *s2) ? -1: 1); 
.................... } 
....................  
.................... /* standard template: 
....................    int strncmp(const char *s1, const char *s2, size_t n). 
....................    Compares max of n characters (not following 0) from s1 to s2; 
....................    returns same as strcmp */ 
....................  
.................... signed int8 strncmp(char *s1, char *s2, size_t n) 
.................... { 
....................    for (; n > 0; s1++, s2++, n--) 
....................       if (*s1 != *s2) 
....................          return((*s1 <*s2) ? -1: 1); 
....................       else if (*s1 == '\0') 
....................          return(0); 
....................    return(0); 
.................... } 
.................... /* standard template: 
....................    int strxfrm(const char *s1, const char *s2, size_t n). 
....................    transforms maximum of n characters from s2 and places them into s1*/ 
.................... size_t strxfrm(char *s1, char *s2, size_t n) 
.................... { 
....................   char *s; 
....................   unsigned int8 n1; 
....................   n1=n; 
....................   for (s = s1; n > 0 && *s2 != '\0'; n--) 
....................      *s++ = *s2++; 
....................   for (; n > 0; n--) 
....................      *s++ = '\0'; 
....................  
....................   return(n1); 
.................... } 
....................  
....................  
....................  
....................  
....................  
.................... /***********************************************************/ 
.................... /*Search functions*/ 
.................... /* standard template: void *memchr(const char *s, int c). 
....................    Finds first occurrence of c in n characters of s */ 
....................  
.................... char *memchr(void *s,unsigned int8 c,size_t n) 
.................... { 
....................    char uc; 
....................    char *su; 
....................    uc=c; 
....................    for(su=s;0<n;++su,--n) 
....................       if(*su==uc) 
....................       return su; 
....................    return NULL; 
.................... } 
....................  
.................... /* standard template: char *strchr(const char *s, int c). 
....................    Finds first occurrence of c in s */ 
....................  
.................... char *strchr(char *s, unsigned int8 c) 
.................... { 
....................    for (; *s != c; s++) 
....................       if (*s == '\0') 
....................          return(0); 
....................    return(s); 
.................... } 
.................... /* standard template: 
....................    size_t strcspn(const char *s1, const char *s2). 
....................    Computes length of max initial segment of s1 that 
....................    consists entirely of characters NOT from s2*/ 
....................  
.................... unsigned int8  strcspn(char *s1, char *s2) 
.................... { 
....................    char *sc1, *sc2; 
....................  
....................    for (sc1 = s1; *sc1 != 0; sc1++) 
....................       for (sc2 = s2; *sc2 != 0; sc2++) 
....................          if (*sc1 == *sc2) 
....................             return(sc1 - s1); 
....................    return(sc1 - s1); 
.................... } 
.................... /* standard template: 
....................    char *strpbrk(const char *s1, const char *s2). 
....................    Locates first occurence of any character from s2 in s1; 
....................    returns s1 if s2 is empty string */ 
....................  
.................... char *strpbrk(char *s1, char *s2) 
.................... { 
....................    char *sc1, *sc2; 
....................  
....................    for (sc1 = s1; *sc1 != 0; sc1++) 
....................       for (sc2 = s2; *sc2 != 0; sc2++) 
....................          if (*sc1 == *sc2) 
....................             return(sc1); 
....................    return(0); 
.................... } 
....................  
....................  
.................... /* standard template: char *strrchr(const char *s, int c). 
....................    Finds last occurrence of c in s */ 
....................  
.................... char *strrchr(char *s, unsigned int8 c) 
.................... { 
....................    char *p; 
....................  
....................    for (p = 0; ; s++) 
....................    { 
....................       if (*s == c) 
....................          p = s; 
....................       if (*s == '\0') 
....................          return(p); 
....................    } 
.................... } 
.................... /* computes length of max initial segment of s1 consisting 
....................    entirely of characters from s2 */ 
....................  
.................... unsigned int8  strspn(char *s1, char *s2) 
.................... { 
....................    char *sc1, *sc2; 
....................  
....................    for (sc1 = s1; *sc1 != 0; sc1++) 
....................       for (sc2 = s2; ; sc2++) 
....................     if (*sc2 == '\0') 
....................        return(sc1 - s1); 
....................          else if (*sc1 == *sc2) 
....................             break; 
....................    return(sc1 - s1); 
.................... } 
.................... /* standard template: 
....................    char *strstr(const char *s1, const char *s2); 
....................    Locates first occurence of character sequence s2 in s1; 
....................    returns 0 if s2 is empty string 
....................  
....................    Uncomment #define FASTER_BUT_MORE_ROM at the top of the 
....................    file to use the faster algorithm */ 
.................... char *strstr(char *s1, char *s2) 
.................... { 
....................    char *s, *t; 
....................  
....................    #ifdef FASTER_BUT_MORE_ROM 
....................    if (*s2 == '\0') 
....................          return(s1); 
....................    #endif 
....................  
....................    while (*s1) 
....................    { 
....................       for(s = s1, t = s2; *t && (*s == *t); ++s, ++t); 
....................  
....................       if (*t == '\0') 
....................          return s1; 
....................       ++s1; 
....................       #ifdef FASTER_BUT_MORE_ROM 
....................          while(*s1 != '\0' && *s1 != *s2) 
....................             ++s1; 
....................       #endif 
....................    } 
....................    return 0; 
.................... } 
....................  
.................... /* standard template: char *strtok(char *s1, const char *s2). 
....................  
....................    Finds next token in s1 delimited by a character from separator 
....................    string s2 (which can be different from call to call).  First call 
....................    starts at beginning of s1 searching for first character NOT 
....................    contained in s2; returns 0 if none is found. 
....................    If one is found, it is the start of first token (return value). 
....................    Function then searches from there for a character contained in s2. 
....................    If none is found, current token extends to end of s1, and subsequent 
....................    searches for a token will return 0.  If one is found, it is 
....................    overwritten by '\0', which terminates current token.  Function saves 
....................    pointer to following character from which next search will start. 
....................    Each subsequent call, with 0 as first argument, starts searching 
....................    from saved pointer */ 
....................  
.................... char *strtok(char *s1, char *s2) 
.................... { 
....................    char *beg, *end; 
....................    static char *save; 
....................  
....................    beg = (s1)? s1: save; 
....................    beg += strspn(beg, s2); 
....................    if (*beg == '\0') 
....................    { 
....................       *save = ' '; 
....................       return(0); 
....................    } 
....................    end = strpbrk(beg, s2); 
....................    if (*end != '\0') 
....................    { 
....................       *end = '\0'; 
....................       end++; 
....................    } 
....................    save = end; 
....................    return(beg); 
.................... } 
....................  
.................... /*****************************************************************/ 
.................... /*Miscellaneous functions*/ 
.................... /* standard template 
.................... maps error number in errnum to an error message string 
.................... Returns: Pointer to string 
.................... */ 
.................... #ifdef _ERRNO 
.................... char * strerror(unsigned int8 errnum) 
.................... { 
.................... char s[15]; 
.................... switch( errnum) 
.................... { 
.................... case 0: 
....................    strcpy(s,"no errors"); 
....................    return s; 
.................... case EDOM : 
....................    strcpy(s,"domain error"); 
....................    return s; 
.................... case ERANGE: 
....................    strcpy(s,"range error"); 
....................    return s; 
.................... } 
.................... } 
.................... #ENDIF 
.................... /* standard template: size_t strlen(const char *s). 
....................    Computes length of s1 (preceding terminating 0) */ 
....................  
.................... unsigned int8 strlen(char *s) 
.................... { 
....................    char *sc; 
....................  
....................    for (sc = s; *sc != 0; sc++); 
....................    return(sc - s); 
.................... } 
....................  
.................... /* standard template: size_t stricmp(const char *s1, const char *s2). 
....................    Compares s1 to s2 ignoring case (upper vs. lower) */ 
....................  
.................... signed int8 stricmp(char *s1, char *s2) 
.................... { 
....................  for(; *s1==*s2||(isalpha(*s1)&&isalpha(*s2)&&(*s1==*s2+32||*s2==*s1+32)); 
....................     s1++, s2++) 
....................     if (*s1 == '\0') 
....................        return(0); 
....................  return((*s1 < *s2) ? -1: 1); 
.................... } 
....................  
....................  
.................... /* standard template: char *strlwr(char *s). 
....................    Replaces uppercase letters by lowercase; 
....................    returns pointer to new string s */ 
....................  
.................... char *strlwr(char *s) 
.................... { 
....................    char *p; 
....................  
....................    for (p = s; *p != '\0'; p++) 
....................       if (*p >= 'A' && *p <='Z') 
....................          *p += 'a' - 'A'; 
....................    return(s); 
.................... } 
....................  
....................  
.................... /************************************************************/ 
....................  
....................  
.................... #endif 
....................  
.................... #include <stdlib.h> 
.................... /////////////////////////////////////////////////////////////////////////// 
.................... ////        (C) Copyright 1996,2007 Custom Computer Services           //// 
.................... //// This source code may only be used by licensed users of the CCS C  //// 
.................... //// compiler.  This source code may only be distributed to other      //// 
.................... //// licensed users of the CCS C compiler.  No other use, reproduction //// 
.................... //// or distribution is permitted without written permission.          //// 
.................... //// Derivative programs created using this software in object code    //// 
.................... //// form are not restricted in any way.                               //// 
.................... /////////////////////////////////////////////////////////////////////////// 
....................  
.................... #ifndef _STDLIB 
.................... #define _STDLIB 
....................  
.................... //--------------------------------------------------------------------------- 
.................... // Definitions and types 
.................... //--------------------------------------------------------------------------- 
....................  
.................... #ifndef RAND_MAX 
.................... #define RAND_MAX  32767    // The value of which is the maximum value 
....................                            // ... returned by the rand function 
.................... #endif 
....................  
....................  
.................... #IF (sizeof(int16*)>1) 
.................... #DEFINE LONG_POINTERS 1 
.................... #ELSE  
.................... #DEFINE LONG_POINTERS 0 
.................... #ENDIF 
....................  
.................... typedef struct { 
....................    signed int quot; 
....................    signed int rem; 
.................... } div_t; 
....................  
.................... typedef struct { 
....................    signed long quot; 
....................    signed long rem; 
.................... } ldiv_t; 
....................  
.................... #include <stddef.h> 
.................... /////////////////////////////////////////////////////////////////////////// 
.................... ////        (C) Copyright 1996,2003 Custom Computer Services           //// 
.................... //// This source code may only be used by licensed users of the CCS C  //// 
.................... //// compiler.  This source code may only be distributed to other      //// 
.................... //// licensed users of the CCS C compiler.  No other use, reproduction //// 
.................... //// or distribution is permitted without written permission.          //// 
.................... //// Derivative programs created using this software in object code    //// 
.................... //// form are not restricted in any way.                               //// 
.................... /////////////////////////////////////////////////////////////////////////// 
....................  
.................... #ifndef _STDDEF 
....................  
.................... #define _STDDEF 
....................  
.................... #if sizeof(unsigned int8 *)==1 
.................... #define ptrdiff_t unsigned int8 
.................... #else 
.................... #define ptrdiff_t unsigned int16 
.................... #endif 
....................  
.................... #define size_t unsigned int8 
.................... #define wchar_t char 
.................... #define NULL 0 
....................  
.................... #define offsetof(s,f) (offsetofbit(s,f)/8) 
....................  
.................... #endif 
....................  
....................  
.................... //--------------------------------------------------------------------------- 
.................... // String conversion functions 
.................... //--------------------------------------------------------------------------- 
....................  
.................... /* Standard template: signed int  atoi(char * s) 
....................  * converts the initial portion of the string s to a signed int 
....................  * returns the converted value if any, 0 otherwise 
....................  */ 
.................... signed int atoi(char *s); 
....................  
.................... /* Syntax: signed int32  atoi32(char * s) 
....................    converts the initial portion of the string s to a signed int32 
....................    returns the converted value if any, 0 otherwise*/ 
.................... #if (sizeof(long)==4) 
....................  #define atoi32(s) atol(s) 
.................... #else  
....................  signed int32 atoi32(char *s); 
.................... #endif 
....................  
.................... #if defined(__PCD__) 
.................... // The following functions only work on the 24 bit compiler 
.................... // for the 30F, 33F, 24F and 24H parts 
.................... /* Syntax: signed int48  atoi48(char * s) 
....................    converts the initial portion of the string s to a signed int48 
....................    returns the converted value if any, 0 otherwise*/ 
....................     
.................... signed int48 atoi48(char *s); 
....................  
.................... /* Syntax: signed int64  atoi64(char * s) 
....................    converts the initial portion of the string s to a signed int64 
....................    returns the converted value if any, 0 otherwise*/ 
.................... signed int64 atoi64(char *s); 
.................... #endif 
....................  
.................... /* Syntax: char *  itoa(signed int32 num, int8 base, char * s) 
....................    converts the signed int32 to a string and 
....................    returns the converted value if any, 0 otherwise*/ 
.................... char * itoa(signed int32 num, unsigned int base, char * s); 
....................  
.................... /* Standard template: signed int16  atol(char * s) 
....................  * converts the initial portion of the string s to a signed int16 
....................  * returns the converted value if any, 0 otherwise 
....................  */ 
.................... signed long atol(char *s); 
....................  
.................... /* Standard template: int16 strtoul(char * s,char *endptr,signed int base) 
....................  * converts the initial portion of the string s, represented as an 
....................  * integral value of radix base  to a signed long. 
....................  * Returns the converted value if any, 0 otherwise 
....................  * the final string is returned in the endptr, if endptr is not null 
....................  */ 
.................... signed long strtol(char *s,char *endptr, signed int base); 
....................  
.................... /* Standard template: int16 strtoul(char * s,char *endptr,signed int base) 
....................  * converts the initial portion of the string s, represented as an 
....................  * integral value of radix base to a unsigned long. 
....................  * returns the converted value if any, 0 otherwise 
....................  * the final string is returned in the endptr, if endptr is not null 
....................  */ 
.................... unsigned long strtoul(char *s,char *endptr, signed int base); 
....................  
.................... /* Standart template: float strtof(char * s,char *endptr) 
....................                       float48 strtof48(char *s,char *endptr); 
....................                       float64 strtod(char *s,char *endptr); 
....................  * converts the initial portion of the string s to a float32, float48 or float64, 
....................  * returns the converted value if any, 0 otherwise 
....................  * the final string is returned in the endptr, if endptr is not null                    
.................... */ 
.................... float strtof(char *s,char *endptr); 
.................... #if defined(__PCD__) 
.................... float48 strtof48(char *s,char *endptr); 
.................... float64 strtod(char *s,char *endptr); 
.................... #else 
.................... //provided for compatibility 
.................... #define strtof48(s, e) strtof(s, e) 
.................... #define strtod(s, e) strtof(s, e) 
.................... #endif 
....................  
.................... /* Standard template: float32 atof(char * s) 
....................  * converts the initial portion of the string s to a float. 
....................  * returns the converted value if any, 0 otherwise 
....................  */ 
.................... #define atof(s)   strtof(s, 0) 
....................  
.................... #if defined(__PCD__) 
.................... // The following functions only work on the 24 bit compiler 
.................... // for the 30F, 33F, 24F and 24H parts 
....................  
.................... /* Standard template: float48 atof48(char * s) 
....................  * converts the initial portion of the string s to a float. 
....................  * returns the converted value if any, 0 otherwise 
....................  */ 
.................... #define atof48(s) strtof48(s, 0) 
....................  
.................... /* Standard template: float64 atof64(char * s) 
....................  * converts the initial portion of the string s to a float. 
....................  * returns the converted value if any, 0 otherwise 
....................  */ 
.................... #define atof64(s) strtod(s, 0) 
.................... #endif 
....................  
.................... /* Standard template: float32 atoe(char * s) 
....................  * converts the initial portion of the string s to a float. 
....................  * returns the converted value if any, 0 otherwise 
....................  * also handles E format numbers 
....................  */ 
.................... #if !defined(__PCD__) 
.................... float atoe(char * s); 
.................... #endif 
....................  
.................... #if defined(__PCD__) 
.................... float32 atoe(char * s); 
.................... #endif 
....................  
.................... //--------------------------------------------------------------------------- 
.................... // Pseudo-random sequence generation functions 
.................... //--------------------------------------------------------------------------- 
....................  
.................... /* The rand function computes a sequence of pseudo-random integers in 
....................  * the range 0 to RAND_MAX 
....................  * 
....................  * Parameters: 
....................  *       (none) 
....................  * 
....................  * Returns: 
....................  *       The pseudo-random integer 
....................  */ 
.................... unsigned int16 rand(void); 
....................  
.................... /* The srand function uses the argument as a seed for a new sequence of 
....................  * pseudo-random numbers to be returned by subsequent calls to rand. 
....................  * 
....................  * Parameters: 
....................  *       [in] seed: The seed value to start from. You might need to pass 
....................  * 
....................  * Returns: 
....................  *       (none) 
....................  * 
....................  * Remarks 
....................  *          The srand function sets the starting point for generating 
....................  *       a series of pseudorandom integers. To reinitialize the 
....................  *       generator, use 1 as the seed argument. Any other value for 
....................  *       seed sets the generator to a random starting point. rand 
....................  *       retrieves the pseudorandom numbers that are generated. 
....................  *       Calling rand before any call to srand generates the same 
....................  *       sequence as calling srand with seed passed as 1. 
....................  *          Usually, you need to pass a time here from outer source 
....................  *       so that the numbers will be different every time you run. 
....................  */ 
.................... void srand(unsigned int32 seed); 
....................  
.................... //--------------------------------------------------------------------------- 
.................... // Memory management functions 
.................... //--------------------------------------------------------------------------- 
....................  
.................... // Comming soon 
....................  
.................... //--------------------------------------------------------------------------- 
.................... // Communication with the environment 
.................... //--------------------------------------------------------------------------- 
....................  
.................... /* The function returns 0 always 
....................  */ 
.................... signed int8 system(char *string); 
....................  
.................... //--------------------------------------------------------------------------- 
.................... // Searching and sorting utilities 
.................... //--------------------------------------------------------------------------- 
....................  
.................... /* Performs a binary search of a sorted array.. 
....................  * 
....................  * Parameters: 
....................  *       [in] key: Object to search for 
....................  *       [in] base: Pointer to base of search data 
....................  *       [in] num: Number of elements 
....................  *       [in] width: Width of elements 
....................  *       [in] compare: Function that compares two elements 
....................  * 
....................  * Returns: 
....................  *       bsearch returns a pointer to an occurrence of key in the array pointed 
....................  *       to by base. If key is not found, the function returns NULL. If the 
....................  *       array is not in order or contains duplicate records with identical keys, 
....................  *       the result is unpredictable. 
....................  */ 
.................... //void *bsearch(const void *key, const void *base, size_t num, size_t width, 
.................... //              int (*compare)(const void *, const void *)); 
....................  
.................... /* Performs the shell-metzner sort (not the quick sort algorithm). The contents 
....................  * of the array are sorted into ascending order according to a comparison 
....................  * function pointed to by compar. 
....................  * 
....................  * Parameters: 
....................  *       [in] base: Pointer to base of search data 
....................  *       [in] num: Number of elements 
....................  *       [in] width: Width of elements 
....................  *       [in] compare: Function that compares two elements 
....................  * 
....................  * Returns: 
....................  *       (none) 
....................  */ 
.................... //void *qsort(const void *base, size_t num, size_t width, 
.................... //              int (*compare)(const void *, const void *)); 
....................  
.................... //--------------------------------------------------------------------------- 
.................... // Integer arithmetic functions 
.................... //--------------------------------------------------------------------------- 
....................  
.................... #define labs abs 
....................  
.................... div_t div(signed int numer, signed int denom); 
.................... ldiv_t ldiv(signed long numer, signed long denom); 
....................  
.................... //--------------------------------------------------------------------------- 
.................... // Multibyte character functions 
.................... //--------------------------------------------------------------------------- 
....................  
.................... // Not supported 
....................  
.................... //--------------------------------------------------------------------------- 
.................... // Multibyte string functions 
.................... //--------------------------------------------------------------------------- 
....................  
.................... // Not supported 
....................  
....................  
.................... //--------------------------------------------------------------------------- 
.................... // Internal implementation 
.................... //--------------------------------------------------------------------------- 
....................  
.................... #include <stddef.h> 
.................... /////////////////////////////////////////////////////////////////////////// 
.................... ////        (C) Copyright 1996,2003 Custom Computer Services           //// 
.................... //// This source code may only be used by licensed users of the CCS C  //// 
.................... //// compiler.  This source code may only be distributed to other      //// 
.................... //// licensed users of the CCS C compiler.  No other use, reproduction //// 
.................... //// or distribution is permitted without written permission.          //// 
.................... //// Derivative programs created using this software in object code    //// 
.................... //// form are not restricted in any way.                               //// 
.................... /////////////////////////////////////////////////////////////////////////// 
....................  
.................... #ifndef _STDDEF 
....................  
.................... #define _STDDEF 
....................  
.................... #if sizeof(unsigned int8 *)==1 
.................... #define ptrdiff_t unsigned int8 
.................... #else 
.................... #define ptrdiff_t unsigned int16 
.................... #endif 
....................  
.................... #define size_t unsigned int8 
.................... #define wchar_t char 
.................... #define NULL 0 
....................  
.................... #define offsetof(s,f) (offsetofbit(s,f)/8) 
....................  
.................... #endif 
....................  
.................... #include <string.h> 
.................... //////////////////////////////////////////////////////////////////////////// 
.................... ////        (C) Copyright 1996,2008 Custom Computer Services            //// 
.................... //// This source code may only be used by licensed users of the CCS C   //// 
.................... //// compiler.  This source code may only be distributed to other       //// 
.................... //// licensed users of the CCS C compiler.  No other use, reproduction  //// 
.................... //// or distribution is permitted without written permission.           //// 
.................... //// Derivative programs created using this software in object code     //// 
.................... //// form are not restricted in any way.                                //// 
.................... //////////////////////////////////////////////////////////////////////////// 
....................  
.................... #ifndef _STRING 
.................... #define _STRING 
.................... #include <stddef.h> 
.................... #include <ctype.h> 
....................  
....................  
....................  
.................... ////////////////////////////////////////////// 
.................... //// Uncomment the following define to    //// 
.................... //// allow some functions to use a        //// 
.................... //// quicker algorithm, but use more ROM  //// 
.................... ////                                      //// 
.................... //// #define FASTER_BUT_MORE_ROM          //// 
.................... ////////////////////////////////////////////// 
....................  
....................  
....................  
.................... /*Copying functions*/ 
.................... /* standard template: 
....................    void *memmove(void *s1, void *s2, size_t n). 
....................    Copies max of n characters safely (not following ending '\0') 
....................    from s2 in s1; if s2 has less than n characters, appends 0 */ 
....................  
.................... char *memmove(void *s1,char *s2,size_t n) 
.................... { 
....................    char *sc1; 
....................    char *sc2; 
....................    sc1=s1; 
....................    sc2=s2; 
....................    if(sc2<sc1 && sc1 <sc2 +n) 
....................       for(sc1+=n,sc2+=n;0<n;--n) 
....................          *--sc1=*--sc2; 
....................    else 
....................       for(;0<n;--n) 
....................          *sc1++=*sc2++; 
....................   return s1; 
....................   } 
....................  
.................... /* Standard template: char *strcpy(char *s1, const char *s2) 
....................    copies the string s2 including the null character to s1. 
....................    This is a compiler built in to handle the different address 
....................    spaces */ 
....................  
.................... #define strcopy strcpy 
....................  
.................... /* standard template: 
....................    char *strncpy(char *s1, const char *s2, size_t n). 
....................    Copies max of n characters (not following ending '\0') 
....................    from s2 in s1; if s2 has less than n characters, appends 0 */ 
....................  
.................... char *strncpy(char *s1, char *s2, size_t n) 
.................... { 
....................   char *s; 
....................  
....................   for (s = s1; n > 0 && *s2 != '\0'; n--) 
....................      *s++ = *s2++; 
....................   for (; n > 0; n--) 
....................      *s++ = '\0'; 
....................  
....................   return(s1); 
.................... } 
.................... /***********************************************************/ 
....................  
.................... /*concatenation functions*/ 
.................... /* standard template: char *strcat(char *s1, const char *s2) 
.................... appends s2 to s1*/ 
....................  
.................... char *strcat(char *s1, char *s2) 
.................... { 
....................    char *s; 
....................  
....................    for (s = s1; *s != '\0'; ++s); 
....................    while(*s2 != '\0') 
....................    { 
....................       *s = *s2; 
....................       ++s; 
....................       ++s2; 
....................    } 
....................  
....................    *s = '\0'; 
....................    return(s1); 
.................... } 
.................... /* standard template: char *strncat(char *s1, char *s2,size_t n) 
.................... appends not more than n characters from s2 to s1*/ 
....................  
.................... char *strncat(char *s1, char *s2, size_t n) 
.................... { 
....................    char *s; 
....................  
....................    for (s = s1; *s != '\0'; ++s); 
....................    while(*s2 != '\0' && 0<n) 
....................    { 
....................       *s = *s2; 
....................       ++s; 
....................       ++s2; 
....................       --n; 
....................    } 
....................  
....................    *s = '\0'; 
....................    return(s1); 
.................... } 
....................  
.................... /***********************************************************/ 
....................  
....................  
.................... /*comparison functions*/ 
.................... /* standard template: signed int memcmp(void *s1, void *s2). 
....................    Compares s1 & s2; returns -1 if s1<s2, 0 if s1=s2, 1 if s1>s2 */ 
....................  
.................... signed int8 memcmp(void * s1,char *s2,size_t n) 
.................... { 
.................... char *su1, *su2; 
.................... for(su1=s1, su2=s2; 0<n; ++su1, ++su2, --n) 
.................... { 
....................    if(*su1!=*su2) 
....................       return ((*su1<*su2)?-1:+1); 
.................... } 
.................... return 0; 
.................... } 
....................  
.................... /* standard template: int strcmp(const char *s1, const char *s2). 
....................    Compares s1 & s2; returns -1 if s1<s2, 0 if s1=s2, 1 if s1>s2 */ 
....................  
.................... signed int8 strcmp(char *s1, char *s2) 
.................... { 
....................    for (; *s1 == *s2; s1++, s2++) 
....................       if (*s1 == '\0') 
....................          return(0); 
....................    return((*s1 < *s2) ? -1: 1); 
.................... } 
.................... /* standard template: int strcoll(const char *s1, const char *s2). 
....................    Compares s1 & s2; returns -1 if s1<s2, 0 if s1=s2, 1 if s1>s2 */ 
....................  
.................... signed int8 strcoll(char *s1, char *s2) 
.................... { 
....................    for (; *s1 == *s2; s1++, s2++) 
....................       if (*s1 == '\0') 
....................          return(0); 
....................    return((*s1 < *s2) ? -1: 1); 
.................... } 
....................  
.................... /* standard template: 
....................    int strncmp(const char *s1, const char *s2, size_t n). 
....................    Compares max of n characters (not following 0) from s1 to s2; 
....................    returns same as strcmp */ 
....................  
.................... signed int8 strncmp(char *s1, char *s2, size_t n) 
.................... { 
....................    for (; n > 0; s1++, s2++, n--) 
....................       if (*s1 != *s2) 
....................          return((*s1 <*s2) ? -1: 1); 
....................       else if (*s1 == '\0') 
....................          return(0); 
....................    return(0); 
.................... } 
.................... /* standard template: 
....................    int strxfrm(const char *s1, const char *s2, size_t n). 
....................    transforms maximum of n characters from s2 and places them into s1*/ 
.................... size_t strxfrm(char *s1, char *s2, size_t n) 
.................... { 
....................   char *s; 
....................   unsigned int8 n1; 
....................   n1=n; 
....................   for (s = s1; n > 0 && *s2 != '\0'; n--) 
....................      *s++ = *s2++; 
....................   for (; n > 0; n--) 
....................      *s++ = '\0'; 
....................  
....................   return(n1); 
.................... } 
....................  
....................  
....................  
....................  
....................  
.................... /***********************************************************/ 
.................... /*Search functions*/ 
.................... /* standard template: void *memchr(const char *s, int c). 
....................    Finds first occurrence of c in n characters of s */ 
....................  
.................... char *memchr(void *s,unsigned int8 c,size_t n) 
.................... { 
....................    char uc; 
....................    char *su; 
....................    uc=c; 
....................    for(su=s;0<n;++su,--n) 
....................       if(*su==uc) 
....................       return su; 
....................    return NULL; 
.................... } 
....................  
.................... /* standard template: char *strchr(const char *s, int c). 
....................    Finds first occurrence of c in s */ 
....................  
.................... char *strchr(char *s, unsigned int8 c) 
.................... { 
....................    for (; *s != c; s++) 
....................       if (*s == '\0') 
....................          return(0); 
....................    return(s); 
.................... } 
.................... /* standard template: 
....................    size_t strcspn(const char *s1, const char *s2). 
....................    Computes length of max initial segment of s1 that 
....................    consists entirely of characters NOT from s2*/ 
....................  
.................... unsigned int8  strcspn(char *s1, char *s2) 
.................... { 
....................    char *sc1, *sc2; 
....................  
....................    for (sc1 = s1; *sc1 != 0; sc1++) 
....................       for (sc2 = s2; *sc2 != 0; sc2++) 
....................          if (*sc1 == *sc2) 
....................             return(sc1 - s1); 
....................    return(sc1 - s1); 
.................... } 
.................... /* standard template: 
....................    char *strpbrk(const char *s1, const char *s2). 
....................    Locates first occurence of any character from s2 in s1; 
....................    returns s1 if s2 is empty string */ 
....................  
.................... char *strpbrk(char *s1, char *s2) 
.................... { 
....................    char *sc1, *sc2; 
....................  
....................    for (sc1 = s1; *sc1 != 0; sc1++) 
....................       for (sc2 = s2; *sc2 != 0; sc2++) 
....................          if (*sc1 == *sc2) 
....................             return(sc1); 
....................    return(0); 
.................... } 
....................  
....................  
.................... /* standard template: char *strrchr(const char *s, int c). 
....................    Finds last occurrence of c in s */ 
....................  
.................... char *strrchr(char *s, unsigned int8 c) 
.................... { 
....................    char *p; 
....................  
....................    for (p = 0; ; s++) 
....................    { 
....................       if (*s == c) 
....................          p = s; 
....................       if (*s == '\0') 
....................          return(p); 
....................    } 
.................... } 
.................... /* computes length of max initial segment of s1 consisting 
....................    entirely of characters from s2 */ 
....................  
.................... unsigned int8  strspn(char *s1, char *s2) 
.................... { 
....................    char *sc1, *sc2; 
....................  
....................    for (sc1 = s1; *sc1 != 0; sc1++) 
....................       for (sc2 = s2; ; sc2++) 
....................     if (*sc2 == '\0') 
....................        return(sc1 - s1); 
....................          else if (*sc1 == *sc2) 
....................             break; 
....................    return(sc1 - s1); 
.................... } 
.................... /* standard template: 
....................    char *strstr(const char *s1, const char *s2); 
....................    Locates first occurence of character sequence s2 in s1; 
....................    returns 0 if s2 is empty string 
....................  
....................    Uncomment #define FASTER_BUT_MORE_ROM at the top of the 
....................    file to use the faster algorithm */ 
.................... char *strstr(char *s1, char *s2) 
.................... { 
....................    char *s, *t; 
....................  
....................    #ifdef FASTER_BUT_MORE_ROM 
....................    if (*s2 == '\0') 
....................          return(s1); 
....................    #endif 
....................  
....................    while (*s1) 
....................    { 
....................       for(s = s1, t = s2; *t && (*s == *t); ++s, ++t); 
....................  
....................       if (*t == '\0') 
....................          return s1; 
....................       ++s1; 
....................       #ifdef FASTER_BUT_MORE_ROM 
....................          while(*s1 != '\0' && *s1 != *s2) 
....................             ++s1; 
....................       #endif 
....................    } 
....................    return 0; 
.................... } 
....................  
.................... /* standard template: char *strtok(char *s1, const char *s2). 
....................  
....................    Finds next token in s1 delimited by a character from separator 
....................    string s2 (which can be different from call to call).  First call 
....................    starts at beginning of s1 searching for first character NOT 
....................    contained in s2; returns 0 if none is found. 
....................    If one is found, it is the start of first token (return value). 
....................    Function then searches from there for a character contained in s2. 
....................    If none is found, current token extends to end of s1, and subsequent 
....................    searches for a token will return 0.  If one is found, it is 
....................    overwritten by '\0', which terminates current token.  Function saves 
....................    pointer to following character from which next search will start. 
....................    Each subsequent call, with 0 as first argument, starts searching 
....................    from saved pointer */ 
....................  
.................... char *strtok(char *s1, char *s2) 
.................... { 
....................    char *beg, *end; 
....................    static char *save; 
....................  
....................    beg = (s1)? s1: save; 
....................    beg += strspn(beg, s2); 
....................    if (*beg == '\0') 
....................    { 
....................       *save = ' '; 
....................       return(0); 
....................    } 
....................    end = strpbrk(beg, s2); 
....................    if (*end != '\0') 
....................    { 
....................       *end = '\0'; 
....................       end++; 
....................    } 
....................    save = end; 
....................    return(beg); 
.................... } 
....................  
.................... /*****************************************************************/ 
.................... /*Miscellaneous functions*/ 
.................... /* standard template 
.................... maps error number in errnum to an error message string 
.................... Returns: Pointer to string 
.................... */ 
.................... #ifdef _ERRNO 
.................... char * strerror(unsigned int8 errnum) 
.................... { 
.................... char s[15]; 
.................... switch( errnum) 
.................... { 
.................... case 0: 
....................    strcpy(s,"no errors"); 
....................    return s; 
.................... case EDOM : 
....................    strcpy(s,"domain error"); 
....................    return s; 
.................... case ERANGE: 
....................    strcpy(s,"range error"); 
....................    return s; 
.................... } 
.................... } 
.................... #ENDIF 
.................... /* standard template: size_t strlen(const char *s). 
....................    Computes length of s1 (preceding terminating 0) */ 
....................  
.................... unsigned int8 strlen(char *s) 
.................... { 
....................    char *sc; 
....................  
....................    for (sc = s; *sc != 0; sc++); 
....................    return(sc - s); 
.................... } 
....................  
.................... /* standard template: size_t stricmp(const char *s1, const char *s2). 
....................    Compares s1 to s2 ignoring case (upper vs. lower) */ 
....................  
.................... signed int8 stricmp(char *s1, char *s2) 
.................... { 
....................  for(; *s1==*s2||(isalpha(*s1)&&isalpha(*s2)&&(*s1==*s2+32||*s2==*s1+32)); 
....................     s1++, s2++) 
....................     if (*s1 == '\0') 
....................        return(0); 
....................  return((*s1 < *s2) ? -1: 1); 
.................... } 
....................  
....................  
.................... /* standard template: char *strlwr(char *s). 
....................    Replaces uppercase letters by lowercase; 
....................    returns pointer to new string s */ 
....................  
.................... char *strlwr(char *s) 
.................... { 
....................    char *p; 
....................  
....................    for (p = s; *p != '\0'; p++) 
....................       if (*p >= 'A' && *p <='Z') 
....................          *p += 'a' - 'A'; 
....................    return(s); 
.................... } 
....................  
....................  
.................... /************************************************************/ 
....................  
....................  
.................... #endif 
....................  
....................  
.................... div_t div(signed int numer, signed int denom) 
.................... { 
....................    div_t val; 
....................    val.quot = numer / denom; 
....................    val.rem = numer - (denom * val.quot); 
....................    return (val); 
.................... } 
....................  
.................... ldiv_t ldiv(signed long numer, signed long denom) 
.................... { 
....................    ldiv_t val; 
....................  
....................    val.quot = numer / denom; 
....................    val.rem = numer - (denom * val.quot); 
....................    return (val); 
.................... } 
....................  
.................... #if defined(__PCD__) 
.................... float32 atoe(char * s) 
.................... { 
....................    float32 pow10 = 1.0; 
....................    float32 result = 0.0; 
....................    unsigned int8 sign = 0; 
....................    unsigned int8 expsign = 0; 
....................    char c; 
....................    unsigned int8 ptr = 0; 
....................    unsigned int8 i; 
....................    float32 exp = 1.0; 
....................    unsigned int8 expcnt = 0; 
....................  
....................    c = s[ptr++]; 
....................  
....................    if ((c>='0' && c<='9') || c=='+' || c=='-' || c=='.' || c=='E' || c=='e') { 
....................       if(c == '-') { 
....................          sign = 1; 
....................          c = s[ptr++]; 
....................       } 
....................       if(c == '+') 
....................          c = s[ptr++]; 
....................  
....................       while((c >= '0' && c <= '9')) { 
....................          result = 10*result + c - '0'; 
....................          c = s[ptr++]; 
....................       } 
....................  
....................       if (c == '.') { 
....................          c = s[ptr++]; 
....................          while((c >= '0' && c <= '9')) { 
....................              pow10 = pow10*10; 
....................              result += (c - '0')/pow10; 
....................              c = s[ptr++]; 
....................          } 
....................       } 
....................  
....................       // Handling the exponent 
....................       if (c=='e' || c=='E') { 
....................          c = s[ptr++]; 
....................  
....................          if(c == '-') { 
....................             expsign = 1; 
....................             c = s[ptr++]; 
....................          } 
....................          if(c == '+') 
....................             c = s[ptr++]; 
....................  
....................          while((c >= '0' && c <= '9')) { 
....................             expcnt = 10*expcnt + c - '0'; 
....................             c = s[ptr++]; 
....................          } 
....................  
....................          for(i=0;i<expcnt;i++) 
....................             exp*=10; 
....................  
....................          if(expsign==1) 
....................             result/=exp; 
....................          else 
....................             result*=exp; 
....................       } 
....................    } 
....................  
....................    if (sign == 1) 
....................       result = -1*result; 
....................    return(result); 
.................... } 
.................... #endif 
....................  
.................... #if !defined(__PCD__) 
.................... float atoe(char * s) 
.................... { 
....................    float pow10 = 1.0; 
....................    float result = 0.0; 
....................    unsigned int8 sign = 0; 
....................    unsigned int8 expsign = 0; 
....................    char c; 
....................    unsigned int8 ptr = 0; 
....................    unsigned int8 i; 
....................    float exp = 1.0; 
....................    unsigned int8 expcnt = 0; 
....................  
....................    c = s[ptr++]; 
....................  
....................    if ((c>='0' && c<='9') || c=='+' || c=='-' || c=='.' || c=='E' || c=='e') { 
....................       if(c == '-') { 
....................          sign = 1; 
....................          c = s[ptr++]; 
....................       } 
....................       if(c == '+') 
....................          c = s[ptr++]; 
....................  
....................       while((c >= '0' && c <= '9')) { 
....................          result = 10*result + c - '0'; 
....................          c = s[ptr++]; 
....................       } 
....................  
....................       if (c == '.') { 
....................          c = s[ptr++]; 
....................          while((c >= '0' && c <= '9')) { 
....................              pow10 = pow10*10; 
....................              result += (c - '0')/pow10; 
....................              c = s[ptr++]; 
....................          } 
....................       } 
....................  
....................       // Handling the exponent 
....................       if (c=='e' || c=='E') { 
....................          c = s[ptr++]; 
....................  
....................          if(c == '-') { 
....................             expsign = 1; 
....................             c = s[ptr++]; 
....................          } 
....................          if(c == '+') 
....................             c = s[ptr++]; 
....................  
....................          while((c >= '0' && c <= '9')) { 
....................             expcnt = 10*expcnt + c - '0'; 
....................             c = s[ptr++]; 
....................          } 
....................  
....................          for(i=0;i<expcnt;i++) 
....................             exp*=10; 
....................  
....................          if(expsign==1) 
....................             result/=exp; 
....................          else 
....................             result*=exp; 
....................       } 
....................    } 
....................  
....................    if (sign == 1) 
....................       result = -1*result; 
....................    return(result); 
.................... } 
.................... #endif 
....................  
.................... signed int atoi(char *s) 
.................... { 
....................    signed int result; 
....................    unsigned int sign, base, index; 
....................    char c; 
....................  
....................    index = 0; 
....................    sign = 0; 
....................    base = 10; 
....................    result = 0; 
....................  
....................    if (!s) 
....................       return 0; 
....................    // Omit all preceeding alpha characters 
....................    c = s[index++]; 
....................  
....................    // increase index if either positive or negative sign is detected 
....................    if (c == '-') 
....................    { 
....................       sign = 1;         // Set the sign to negative 
....................       c = s[index++]; 
....................    } 
....................    else if (c == '+') 
....................    { 
....................       c = s[index++]; 
....................    } 
....................  
....................    if (c >= '0' && c <= '9') 
....................    { 
....................  
....................       // Check for hexa number 
....................       if (c == '0' && (s[index] == 'x' || s[index] == 'X')) 
....................       { 
....................          base = 16; 
....................          index++; 
....................          c = s[index++]; 
....................       } 
....................  
....................       // The number is a decimal number 
....................       if (base == 10) 
....................       { 
....................          while (c >= '0' && c <= '9') 
....................          { 
....................             result = 10*result + (c - '0'); 
....................             c = s[index++]; 
....................          } 
....................       } 
....................       else if (base == 16)    // The number is a hexa number 
....................       { 
....................          c = toupper(c); 
....................          while ( (c >= '0' && c <= '9') || (c >= 'A' && c<='F')) 
....................          { 
....................             if (c >= '0' && c <= '9') 
....................                result = (result << 4) + (c - '0'); 
....................             else 
....................                result = (result << 4) + (c - 'A' + 10); 
....................  
....................             c = s[index++]; 
....................             c = toupper(c); 
....................          } 
....................       } 
....................    } 
....................  
....................    if (sign == 1 && base == 10) 
....................        result = -result; 
....................  
....................    return(result); 
.................... } 
....................  
.................... signed long atol(char *s) 
.................... { 
....................    signed long result; 
....................    unsigned int sign, base, index; 
....................    char c; 
....................  
....................    index = 0; 
....................    sign = 0; 
....................    base = 10; 
....................    result = 0; 
....................  
....................    if (!s) 
....................       return 0; 
....................    c = s[index++]; 
....................  
....................    // increase index if either positive or negative sign is detected 
....................    if (c == '-') 
....................    { 
....................       sign = 1;         // Set the sign to negative 
....................       c = s[index++]; 
....................    } 
....................    else if (c == '+') 
....................    { 
....................       c = s[index++]; 
....................    } 
....................  
....................    if (c >= '0' && c <= '9') 
....................    { 
....................       if (c == '0' && (s[index] == 'x' || s[index] == 'X')) 
....................       { 
....................          base = 16; 
....................          index++; 
....................          c = s[index++]; 
....................       } 
....................  
....................       // The number is a decimal number 
....................       if (base == 10) 
....................       { 
....................          while (c >= '0' && c <= '9') 
....................          { 
....................             result = 10*result + (c - '0'); 
....................             c = s[index++]; 
....................          } 
....................       } 
....................       else if (base == 16)    // The number is a hexa number 
....................       { 
....................          c = toupper(c); 
....................          while ( (c >= '0' && c <= '9') || (c >= 'A' && c <='F')) 
....................          { 
....................             if (c >= '0' && c <= '9') 
....................                result = (result << 4) + (c - '0'); 
....................             else 
....................                result = (result << 4) + (c - 'A' + 10); 
....................  
....................             c = s[index++];c = toupper(c); 
....................          } 
....................       } 
....................    } 
....................  
....................    if (base == 10 && sign == 1) 
....................       result = -result; 
....................  
....................    return(result); 
.................... } 
....................  
.................... /* A fast routine to multiply by 10 
....................  */ 
.................... signed int32 mult_with10(int32 num) 
.................... { 
....................    return ( (num << 1) + (num << 3) ); 
.................... } 
....................  
.................... #if sizeof(long)==2 
.................... signed int32 atoi32(char *s) 
.................... { 
....................    signed int32 result; 
....................    int8 sign, base, index; 
....................    char c; 
....................  
....................    index = 0; 
....................    sign = 0; 
....................    base = 10; 
....................    result = 0; 
....................  
....................    if (!s) 
....................       return 0; 
....................    c = s[index++]; 
....................  
....................    // increase index if either positive or negative sign is detected 
....................    if (c == '-') 
....................    { 
....................       sign = 1;         // Set the sign to negative 
....................       c = s[index++]; 
....................    } 
....................    else if (c == '+') 
....................    { 
....................       c = s[index++]; 
....................    } 
....................  
....................    if (c >= '0' && c <= '9') 
....................    { 
....................       if (c == '0' && (s[index] == 'x' || s[index] == 'X')) 
....................       { 
....................          base = 16; 
....................          index++; 
....................          c = s[index++]; 
....................       } 
....................  
....................       // The number is a decimal number 
....................       if (base == 10) 
....................       { 
....................          while (c >= '0' && c <= '9') { 
....................             result = (result << 1) + (result << 3);  // result *= 10; 
....................             result += (c - '0'); 
....................             c = s[index++]; 
....................          } 
....................       } 
....................       else if (base == 16)    // The number is a hexa number 
....................       { 
....................          c = toupper(c); 
....................          while ((c >= '0' && c <= '9') || (c >= 'A' && c <='F')) 
....................          { 
....................             if (c >= '0' && c <= '9') 
....................                result = (result << 4) + (c - '0'); 
....................             else 
....................                result = (result << 4) + (c - 'A' + 10); 
....................  
....................             c = s[index++];c = toupper(c); 
....................          } 
....................       } 
....................    } 
....................  
....................    if (base == 10 && sign == 1) 
....................       result = -result; 
....................  
....................    return(result); 
.................... } 
.................... #endif 
....................  
.................... #if defined(__PCD__) 
....................  
.................... signed int48 atoi48(char *s) 
.................... { 
....................    signed int48 result; 
....................    int8 sign, base, index; 
....................    char c; 
....................  
....................    index = 0; 
....................    sign = 0; 
....................    base = 10; 
....................    result = 0; 
....................  
....................    if (!s) 
....................       return 0; 
....................    c = s[index++]; 
....................  
....................    // increase index if either positive or negative sign is detected 
....................    if (c == '-') 
....................    { 
....................       sign = 1;         // Set the sign to negative 
....................       c = s[index++]; 
....................    } 
....................    else if (c == '+') 
....................    { 
....................       c = s[index++]; 
....................    } 
....................  
....................    if (c >= '0' && c <= '9') 
....................    { 
....................       if (c == '0' && (s[index] == 'x' || s[index] == 'X')) 
....................       { 
....................          base = 16; 
....................          index++; 
....................          c = s[index++]; 
....................       } 
....................  
....................       // The number is a decimal number 
....................       if (base == 10) 
....................       { 
....................          while (c >= '0' && c <= '9') { 
....................             result = (result << 1) + (result << 3);  // result *= 10; 
....................             result += (c - '0'); 
....................             c = s[index++]; 
....................          } 
....................       } 
....................       else if (base == 16)    // The number is a hexa number 
....................       { 
....................          c = toupper(c); 
....................          while ((c >= '0' && c <= '9') || (c >= 'A' && c <='F')) 
....................          { 
....................             if (c >= '0' && c <= '9') 
....................                result = (result << 4) + (c - '0'); 
....................             else 
....................                result = (result << 4) + (c - 'A' + 10); 
....................  
....................             c = s[index++];c = toupper(c); 
....................          } 
....................       } 
....................    } 
....................  
....................    if (base == 10 && sign == 1) 
....................       result = -result; 
....................  
....................    return(result); 
.................... } 
....................  
.................... signed int64 atoi64(char *s) 
.................... { 
....................    signed int64 result; 
....................    int8 sign, base, index; 
....................    char c; 
....................  
....................    index = 0; 
....................    sign = 0; 
....................    base = 10; 
....................    result = 0; 
....................  
....................    if (!s) 
....................       return 0; 
....................    c = s[index++]; 
....................  
....................    // increase index if either positive or negative sign is detected 
....................    if (c == '-') 
....................    { 
....................       sign = 1;         // Set the sign to negative 
....................       c = s[index++]; 
....................    } 
....................    else if (c == '+') 
....................    { 
....................       c = s[index++]; 
....................    } 
....................  
....................    if (c >= '0' && c <= '9') 
....................    { 
....................       if (c == '0' && (s[index] == 'x' || s[index] == 'X')) 
....................       { 
....................          base = 16; 
....................          index++; 
....................          c = s[index++]; 
....................       } 
....................  
....................       // The number is a decimal number 
....................       if (base == 10) 
....................       { 
....................          while (c >= '0' && c <= '9') { 
....................             result = (result << 1) + (result << 3);  // result *= 10; 
....................             result += (c - '0'); 
....................             c = s[index++]; 
....................          } 
....................       } 
....................       else if (base == 16)    // The number is a hexa number 
....................       { 
....................          c = toupper(c); 
....................          while ((c >= '0' && c <= '9') || (c >= 'A' && c <='F')) 
....................          { 
....................             if (c >= '0' && c <= '9') 
....................                result = (result << 4) + (c - '0'); 
....................             else 
....................                result = (result << 4) + (c - 'A' + 10); 
....................  
....................             c = s[index++];c = toupper(c); 
....................          } 
....................       } 
....................    } 
....................  
....................    if (base == 10 && sign == 1) 
....................       result = -result; 
....................  
....................    return(result); 
.................... } 
.................... #endif 
....................  
.................... char * itoa(signed int32 num, unsigned int base, char * s) 
.................... { 
....................      unsigned int32 temp=1; 
....................      unsigned int8 i,sign=0,cnt=0; 
....................      char c; 
....................  
....................      if(num<0) { 
....................          sign=1;        // Check for negative number 
....................          num*=-1; 
....................      } 
....................  
....................      while(temp>0) { 
....................          temp=(num/base); 
....................          s[cnt]=(num%base)+'0';    // Conversion 
....................  
....................          if(s[cnt]>0x39) 
....................             s[cnt]+=0x7; 
....................  
....................          cnt++; 
....................          num=temp; 
....................      } 
....................  
....................      if(sign==1) { 
....................          s[cnt]=0x2D;      // Negative sign 
....................          cnt++; 
....................      } 
....................  
....................      for(i = 0;i<(int8)(cnt/2);i++) { 
....................  
....................          c=s[i]; 
....................          s[i]=s[cnt-i-1];        // Reverse the number 
....................          s[cnt-i-1]=c; 
....................      } 
....................      s[cnt]='\0';     // End the string 
....................      return s; 
.................... } 
....................  
.................... float strtof(char *s, char *endptr) 
.................... { 
....................    float pow10 = 1.0; 
....................    float result = 0.0; 
....................    int1 skip = 1, sign = 0, point = 0; 
....................    char c; 
....................    unsigned int8 ptr = 0; 
....................  
....................    if (!s) 
....................       return 0; 
....................  
....................    for(c=s[ptr++]; c!=0; c=s[ptr++]) 
....................    { 
....................       if (skip && !isspace(c)) 
....................       { 
....................          skip = 0; 
....................          if (c == '+') 
....................          { 
....................             sign = 0; 
....................             continue; 
....................          }             
....................          else if (c == '-') 
....................          { 
....................             sign = 1; 
....................             continue; 
....................          } 
....................       } 
....................       if (!skip && (c == '.') && !point) 
....................          point = 1; 
....................       else if (!skip && isdigit(c)) 
....................       { 
....................          c -= '0'; 
....................          if (point) 
....................          { 
....................             pow10 = pow10 * 10.0; 
....................             result += (float)c / pow10;    
....................          } 
....................          else 
....................          { 
....................             result = 10.0 * result + (float)c; 
....................          } 
....................       } 
....................       else if (!skip) 
....................          break; 
....................    } 
....................  
....................    if (sign) 
....................       result = -1*result; 
....................        
....................    if(endptr) 
....................    { 
....................       if (ptr) { 
....................          ptr--; 
....................        #IF LONG_POINTERS  
....................          *((long *)endptr)= s+ptr;  
....................        #ELSE 
....................          *((char *)endptr)=s+ptr; 
....................        #ENDIF 
....................       } 
....................       else 
....................       { 
....................       #IF LONG_POINTERS 
....................       *((long *)endptr)= s;  
....................       #ELSE 
....................       *((char *)endptr)=s; 
....................       #ENDIF 
....................       } 
....................    } 
....................  
....................    return(result); 
.................... } 
....................  
.................... #if defined(__PCD__) 
.................... float48 strtof48(char *s, char *endptr) 
.................... { 
....................    float48 pow10 = 1.0; 
....................    float48 result = 0.0; 
....................    int1 skip = 1, sign = 0, point = 0; 
....................    char c; 
....................    unsigned int8 ptr = 0; 
....................  
....................    if (!s) 
....................       return 0; 
....................  
....................    for(c=s[ptr++]; c!=0; c=s[ptr++]) 
....................    { 
....................       if (skip && !isspace(c)) 
....................       { 
....................          skip = 0; 
....................          if (c == '+') 
....................          { 
....................             sign = 0; 
....................             continue; 
....................          }             
....................          else if (c == '-') 
....................          { 
....................             sign = 1; 
....................             continue; 
....................          } 
....................       } 
....................       if (!skip && (c == '.') && !point) 
....................          point = 1; 
....................       else if (!skip && isdigit(c)) 
....................       { 
....................          c -= '0'; 
....................          if (point) 
....................          { 
....................             pow10 = pow10 * 10.0; 
....................             result += (float48)c / pow10;    
....................          } 
....................          else 
....................          { 
....................             result = 10.0 * result + (float48)c; 
....................          } 
....................       } 
....................       else if (!skip) 
....................          break; 
....................    } 
....................  
....................    if (sign) 
....................       result = -1*result; 
....................        
....................    if(endptr) 
....................    { 
....................       if (ptr) { 
....................          ptr--; 
....................        #IF LONG_POINTERS  
....................          *((long *)endptr)= s+ptr;  
....................        #ELSE 
....................          *((char *)endptr)=s+ptr; 
....................        #ENDIF 
....................       } 
....................       else 
....................       { 
....................       #IF LONG_POINTERS 
....................       *((long *)endptr)= s;  
....................       #ELSE 
....................       *((char *)endptr)=s; 
....................       #ENDIF 
....................       } 
....................    } 
....................  
....................    return(result); 
.................... } 
....................  
.................... float64 strtod(char *s, char *endptr) 
.................... { 
....................    float64 pow10 = 1.0; 
....................    float64 result = 0.0; 
....................    int1 skip = 1, sign = 0, point = 0; 
....................    char c; 
....................    unsigned int8 ptr = 0; 
....................  
....................    if (!s) 
....................       return 0; 
....................  
....................    for(c=s[ptr++]; c!=0; c=s[ptr++]) 
....................    { 
....................       if (skip && !isspace(c)) 
....................       { 
....................          skip = 0; 
....................          if (c == '+') 
....................          { 
....................             sign = 0; 
....................             continue; 
....................          }             
....................          else if (c == '-') 
....................          { 
....................             sign = 1; 
....................             continue; 
....................          } 
....................       } 
....................       if (!skip && (c == '.') && !point) 
....................          point = 1; 
....................       else if (!skip && isdigit(c)) 
....................       { 
....................          c -= '0'; 
....................          if (point) 
....................          { 
....................             pow10 = pow10 * 10.0; 
....................             result += (float64)c / pow10;    
....................          } 
....................          else 
....................          { 
....................             result = 10.0 * result + (float64)c; 
....................          } 
....................       } 
....................       else if (!skip) 
....................          break; 
....................    } 
....................  
....................    if (sign) 
....................       result = -1*result; 
....................        
....................    if(endptr) 
....................    { 
....................       if (ptr) { 
....................          ptr--; 
....................        #IF LONG_POINTERS  
....................          *((long *)endptr)= s+ptr;  
....................        #ELSE 
....................          *((char *)endptr)=s+ptr; 
....................        #ENDIF 
....................       } 
....................       else 
....................       { 
....................       #IF LONG_POINTERS 
....................       *((long *)endptr)= s;  
....................       #ELSE 
....................       *((char *)endptr)=s; 
....................       #ENDIF 
....................       } 
....................    } 
....................  
....................    return(result); 
.................... } 
.................... #endif 
....................  
.................... unsigned long strtoul(char *s, char *endptr, signed int base) 
.................... { 
....................    char *sc,*s1,*sd; 
....................    unsigned long x=0; 
....................    char sign; 
....................    char digits[]="0123456789abcdefghijklmnopqstuvwxyz"; 
....................    for(sc=s;isspace(*sc);++sc); 
....................    sign=*sc=='-'||*sc=='+'?*sc++:'+'; 
....................    if(sign=='-' || base <0 || base ==1|| base >36) // invalid base 
....................    goto StrtoulGO; 
....................  
....................    else if (base) 
....................    { 
....................       if(base==16 && *sc =='0'&&(sc[1]=='x' || sc[1]=='X')) 
....................          sc+=2; 
....................       if(base==8 && *sc =='0') 
....................          sc+=1; 
....................       if(base==2 && *sc =='0'&&sc[1]=='b') 
....................          sc+=2; 
....................  
....................    } 
....................    else if(*sc!='0') // base is 0, find base 
....................       base=10; 
....................    else if (sc[1]=='x' || sc[1]=='X') 
....................       base =16,sc+=2; 
....................    else if(sc[1]=='b') 
....................       base=2,sc+=2; 
....................    else 
....................       base=8; 
....................    for (s1=sc;*sc=='0';++sc);// skip leading zeroes 
....................    sd=memchr(digits,tolower(*sc),base); 
....................    for(; sd!=0; ) 
....................    { 
....................       x=x*base+(int16)(sd-digits); 
....................       ++sc; 
....................       sd=memchr(digits,tolower(*sc),base); 
....................    } 
....................    if(s1==sc) 
....................    { 
....................    StrtoulGO: 
....................       if (endptr) 
....................       { 
....................          #IF LONG_POINTERS 
....................          *((long *)endptr)= s;  
....................          #ELSE 
....................          *((char *)endptr)=s; 
....................          #ENDIF 
....................          } 
....................    return 0; 
....................    } 
....................    if (endptr) 
....................    { 
....................          #IF LONG_POINTERS 
....................          *((long *)endptr)= sc;  
....................          #ELSE 
....................          *((char *)endptr)=sc;  
....................          #ENDIF 
....................    } 
....................    return x; 
.................... } 
....................  
....................  
.................... signed long strtol(char *s,char *endptr, signed int base) 
.................... { 
....................    char *sc,*s1,*sd; 
....................    signed long x=0; 
....................    char sign; 
....................    char digits[]="0123456789abcdefghijklmnopqstuvwxyz"; 
....................    for(sc=s;isspace(*sc);++sc); 
....................    sign=*sc=='-'||*sc=='+'?*sc++:'+'; 
....................    if (base <0 || base ==1|| base >36) // invalid base 
....................    goto StrtolGO; 
....................    else if (base) 
....................    { 
....................       if(base==16 && *sc =='0'&&(sc[1]=='x' || sc[1]=='X')) 
....................          sc+=2; 
....................       if(base==8 && *sc =='0') 
....................          sc+=1; 
....................       if(base==2 && *sc =='0'&&sc[1]=='b') 
....................          sc+=2; 
....................  
....................    } 
....................    else if(*sc!='0') // base is 0, find base 
....................       base=10; 
....................    else if (sc[1]=='x' || sc[1]=='X') 
....................       base =16,sc+=2; 
....................    else if(sc[1]=='b') 
....................       base=2,sc+=2; 
....................    else 
....................       base=8; 
....................    for (s1=sc;*sc=='0';++sc);// skip leading zeroes 
....................  
....................    sd=memchr(digits,tolower(*sc),base); 
....................    for(;sd!=0;) 
....................    { 
....................       x=x*base+(int16)(sd-digits); 
....................       ++sc; 
....................       sd=memchr(digits,tolower(*sc),base); 
....................    } 
....................    if(s1==sc) 
....................    { 
....................    StrtolGO: 
....................       if (endptr) 
....................       { 
....................          #IF LONG_POINTERS 
....................          *((long *)endptr)= s;  
....................          #ELSE 
....................          *((char *)endptr)=s; 
....................          #ENDIF 
....................       } 
....................    return 0; 
....................    } 
....................    if(sign=='-') 
....................       x  =-x; 
....................    if (endptr) 
....................    { 
....................         #IF LONG_POINTERS 
....................          *((long *)endptr)= sc;  
....................         #ELSE 
....................         *((char *)endptr)=sc; 
....................         #ENDIF 
....................    } 
....................    return x; 
.................... } 
....................  
.................... signed int8 system(char *string) 
.................... { 
....................    return 0; 
.................... } 
....................  
.................... int8 mblen(char *s,size_t n) 
.................... { 
....................    return strlen(s); 
.................... } 
....................  
.................... int8 mbtowc(wchar_t *pwc,char *s,size_t n) 
.................... { 
....................    *pwc=*s; 
....................    return 1; 
.................... } 
....................  
.................... int8 wctomb(char *s,wchar_t wchar) 
.................... { 
....................    *s=wchar; 
....................    return 1; 
.................... } 
....................  
.................... size_t mbstowcs(wchar_t *pwcs,char *s,size_t n) 
.................... { 
....................    strncpy(pwcs,s,n); 
....................    return strlen(pwcs); 
.................... } 
....................  
.................... size_t wcstombs(char *s,wchar_t *pwcs,size_t n) 
.................... { 
....................    strncpy(s,pwcs,n); 
....................    return strlen(s); 
.................... } 
....................  
.................... //--------------------------------------------------------------------------- 
.................... // The random number implementation 
.................... //--------------------------------------------------------------------------- 
....................  
.................... unsigned int32 _Randseed; 
....................  
.................... unsigned int16 rand(void) 
.................... { 
....................    _Randseed = _Randseed * 1103515245 + 12345; 
....................    return ((unsigned int16)(_Randseed >> 16) % RAND_MAX); 
.................... } 
....................  
.................... void srand(unsigned int32 seed) 
.................... { 
....................    _Randseed = seed; 
.................... } 
....................  
.................... //--------------------------------------------------------------------------- 
.................... // Searching and sorting utilities implementation 
.................... //--------------------------------------------------------------------------- 
....................  
.................... #if !defined(__PCD__) 
.................... typedef signed int8 (*_Cmpfun)(char * p1,char * p2);  
.................... #else  
.................... typedef signed int16 (*_Cmpfun)(char * p1,char * p2);  
.................... #endif 
....................  
....................  
....................  
.................... void qsort(char * qdata, unsigned int qitems, unsigned int qsize, _Cmpfun cmp) { 
....................    unsigned int m,j,i,l; 
....................    int1 done; 
....................    unsigned int8 t[16]; 
....................  
....................    m = qitems/2; 
....................    while( m > 0 ) { 
....................      for(j=0; j<(qitems-m); ++j) { 
....................         i = j; 
....................         do 
....................         { 
....................            done=1; 
....................            l = i+m; 
....................            if( (*cmp)(qdata+i*qsize, qdata+l*qsize) > 0 ) { 
....................               memcpy(t, qdata+i*qsize, qsize); 
....................               memcpy(qdata+i*qsize, qdata+l*qsize, qsize); 
....................               memcpy(qdata+l*qsize, t, qsize); 
....................               if(m <= i) 
....................                 i -= m; 
....................                 done = 0; 
....................            } 
....................         } while(!done); 
....................      } 
....................      m = m/2; 
....................    } 
.................... } 
....................  
....................  
.................... char *bsearch(char *key, char *base, size_t num, size_t width,_Cmpfun cmp) 
.................... { 
....................    char *p, *q; 
....................    size_t n; 
....................    size_t pivot; 
....................    signed int val; 
....................  
....................    p = base; 
....................    n = num; 
....................  
....................    while (n > 0) 
....................    { 
....................       pivot = n >> 1; 
....................       q = p + width * pivot; 
....................  
....................       val = (*cmp)(key, q); 
....................  
....................       if (val < 0) 
....................          n = pivot; 
....................       else if (val == 0) 
....................          return ((char *)q); 
....................       else { 
....................          p = q + width; 
....................          n -= pivot + 1; 
....................       } 
....................    } 
....................  
....................    return NULL;      // There's no match 
.................... } 
....................  
....................  
.................... #endif 
....................  
.................... #include <DS1302.c> 
.................... ////////////////////////////////////////////////////////////////////////// 
.................... ////                               DS1302.C                           //// 
.................... ////                     Driver for Real Time Clock                   //// 
.................... ////                                                                  //// 
.................... ////  rtc_init()                                   Call after power up//// 
.................... ////                                                                  //// 
.................... ////  rtc_set_datetime(day,mth,year,dow,hour,min)  Set the date/time  //// 
.................... ////                                                                  //// 
.................... ////  rtc_get_date(day,mth,year,dow)               Get the date       //// 
.................... ////                                                                  //// 
.................... ////  rtc_get_time(hr,min,sec)                     Get the time       //// 
.................... ////                                                                  //// 
.................... ////  rtc_write_nvr(address,data)                  Write to NVR       //// 
.................... ////                                                                  //// 
.................... ////  data = rtc_read_nvr(address)                 Read from NVR      //// 
.................... ////                                                                  //// 
.................... ////  get_bcd(data)                              Convert data to BCD  //// 
.................... ////                                                                  //// 
.................... ////  rm_bcd(data)                               Convert data to int  //// 
.................... ////                                                                  //// 
.................... ////////////////////////////////////////////////////////////////////////// 
.................... ////        (C) Copyright 1996,2003 Custom Computer Services          //// 
.................... //// This source code may only be used by licensed users of the CCS C //// 
.................... //// compiler.  This source code may only be distributed to other     //// 
.................... //// licensed users of the CCS C compiler.  No other use, reproduction//// 
.................... //// or distribution is permitted without written permission.         //// 
.................... //// Derivative programs created using this software in object code   //// 
.................... //// form are not restricted in any way.                              //// 
.................... ////////////////////////////////////////////////////////////////////////// 
....................  
.................... //#ifndef RTC_SCLK 
....................  
.................... #define RTC_SCLK PIN_D1 
.................... #define RTC_IO   PIN_D2 
.................... #define RTC_RST  PIN_D3 
....................  
.................... //#endif 
....................  
.................... void write_ds1302_byte(BYTE cmd) { 
....................    BYTE i; 
....................  
....................    for(i=0;i<=7;++i) { 
*
029B0:  MOVLB  4
029B2:  CLRF   x1F
029B4:  MOVF   x1F,W
029B6:  SUBLW  07
029B8:  BNC   29D4
....................       output_bit(RTC_IO, shift_right(&cmd,1,0) ); 
029BA:  BCF    FD8.0
029BC:  RRCF   x1E,F
029BE:  BC    29C4
029C0:  BCF    F8C.2
029C2:  BRA    29C6
029C4:  BSF    F8C.2
029C6:  BCF    F95.2
....................       output_high(RTC_SCLK); 
029C8:  BCF    F95.1
029CA:  BSF    F8C.1
....................       output_low(RTC_SCLK); 
029CC:  BCF    F95.1
029CE:  BCF    F8C.1
....................    } 
029D0:  INCF   x1F,F
029D2:  BRA    29B4
.................... } 
029D4:  MOVLB  0
029D6:  RETLW  00
....................  
.................... void write_ds1302(BYTE cmd, BYTE data) { 
....................  
....................    output_high(RTC_RST); 
029D8:  BCF    F95.3
029DA:  BSF    F8C.3
....................    write_ds1302_byte(cmd); 
029DC:  MOVFF  41C,41E
029E0:  RCALL  29B0
....................    write_ds1302_byte(data); 
029E2:  MOVFF  41D,41E
029E6:  RCALL  29B0
....................    output_low(RTC_RST); 
029E8:  BCF    F95.3
029EA:  BCF    F8C.3
.................... } 
029EC:  RETLW  00
....................  
.................... BYTE read_ds1302(BYTE cmd) { 
....................    BYTE i,data; 
....................  
....................    output_high(RTC_RST); 
029EE:  BCF    F95.3
029F0:  BSF    F8C.3
....................    write_ds1302_byte(cmd); 
029F2:  MOVFF  419,41E
029F6:  RCALL  29B0
....................     
....................    input(RTC_IO); 
029F8:  BSF    F95.2
....................    delay_us(10); 
029FA:  MOVLW  10
029FC:  MOVWF  00
029FE:  DECFSZ 00,F
02A00:  BRA    29FE
02A02:  NOP   
....................           
....................    for(i=0;i<=7;++i) { 
02A04:  MOVLB  4
02A06:  CLRF   x1A
02A08:  MOVF   x1A,W
02A0A:  SUBLW  07
02A0C:  BNC   2A38
....................       shift_right(&data,1,input(RTC_IO)); 
02A0E:  BSF    F95.2
02A10:  BTFSC  F83.2
02A12:  BRA    2A18
02A14:  BCF    FD8.0
02A16:  BRA    2A1A
02A18:  BSF    FD8.0
02A1A:  RRCF   x1B,F
....................       output_high(RTC_SCLK); 
02A1C:  BCF    F95.1
02A1E:  BSF    F8C.1
....................       delay_us(20); 
02A20:  MOVLW  21
02A22:  MOVWF  00
02A24:  DECFSZ 00,F
02A26:  BRA    2A24
....................       output_low(RTC_SCLK); 
02A28:  BCF    F95.1
02A2A:  BCF    F8C.1
....................       delay_us(20); 
02A2C:  MOVLW  21
02A2E:  MOVWF  00
02A30:  DECFSZ 00,F
02A32:  BRA    2A30
....................    } 
02A34:  INCF   x1A,F
02A36:  BRA    2A08
....................    output_low(RTC_RST); 
02A38:  BCF    F95.3
02A3A:  BCF    F8C.3
....................  
....................    return(data); 
02A3C:  MOVFF  41B,01
.................... } 
02A40:  MOVLB  0
02A42:  RETLW  00
....................  
.................... void rtc_init() { 
....................    BYTE x; 
....................    output_low(RTC_RST); 
02A44:  BCF    F95.3
02A46:  BCF    F8C.3
....................    delay_us(20); 
02A48:  MOVLW  21
02A4A:  MOVWF  00
02A4C:  DECFSZ 00,F
02A4E:  BRA    2A4C
....................    output_low(RTC_SCLK); 
02A50:  BCF    F95.1
02A52:  BCF    F8C.1
....................    write_ds1302(0x8e,0); 
02A54:  MOVLW  8E
02A56:  MOVLB  4
02A58:  MOVWF  x1C
02A5A:  CLRF   x1D
02A5C:  MOVLB  0
02A5E:  RCALL  29D8
....................    write_ds1302(0x90,0xa4); 
02A60:  MOVLW  90
02A62:  MOVLB  4
02A64:  MOVWF  x1C
02A66:  MOVLW  A4
02A68:  MOVWF  x1D
02A6A:  MOVLB  0
02A6C:  RCALL  29D8
....................    x=read_ds1302(0x81); 
02A6E:  MOVLW  81
02A70:  MOVLB  4
02A72:  MOVWF  x19
02A74:  MOVLB  0
02A76:  RCALL  29EE
02A78:  MOVFF  01,415
....................    if((x & 0x80)!=0) 
02A7C:  MOVLB  4
02A7E:  MOVF   x15,W
02A80:  ANDLW  80
02A82:  BZ    2A90
....................      write_ds1302(0x80,0); 
02A84:  MOVLW  80
02A86:  MOVWF  x1C
02A88:  CLRF   x1D
02A8A:  MOVLB  0
02A8C:  RCALL  29D8
02A8E:  MOVLB  4
.................... } 
02A90:  MOVLB  0
02A92:  GOTO   615A (RETURN)
....................  
.................... byte get_bcd(BYTE data) 
.................... { 
....................    byte nibh; 
....................    byte nibl; 
....................  
....................    nibh=data/10; 
*
04982:  MOVFF  41B,41F
04986:  MOVLW  0A
04988:  MOVLB  4
0498A:  MOVWF  x20
0498C:  MOVLB  0
0498E:  RCALL  44AC
04990:  MOVFF  01,41C
....................    nibl=data-(nibh*10); 
04994:  MOVLB  4
04996:  MOVF   x1C,W
04998:  MULLW  0A
0499A:  MOVF   FF3,W
0499C:  SUBWF  x1B,W
0499E:  MOVWF  x1D
....................  
....................    return((nibh<<4)|nibl); 
049A0:  SWAPF  x1C,W
049A2:  MOVWF  00
049A4:  MOVLW  F0
049A6:  ANDWF  00,F
049A8:  MOVF   00,W
049AA:  IORWF  x1D,W
049AC:  MOVWF  01
.................... } 
049AE:  MOVLB  0
049B0:  RETLW  00
....................  
.................... byte rm_bcd(BYTE data) 
.................... { 
....................    byte i; 
....................  
....................    i=data; 
*
04346:  MOVFF  41A,41B
....................    data=(i>>4)*10; 
0434A:  MOVLB  4
0434C:  SWAPF  x1B,W
0434E:  MOVWF  00
04350:  MOVLW  0F
04352:  ANDWF  00,F
04354:  MOVF   00,W
04356:  MULLW  0A
04358:  MOVFF  FF3,41A
....................    data=data+(i<<4>>4); 
0435C:  SWAPF  x1B,W
0435E:  MOVWF  00
04360:  MOVLW  F0
04362:  ANDWF  00,F
04364:  MOVF   00,W
04366:  SWAPF  00,F
04368:  MOVLW  0F
0436A:  ANDWF  00,F
0436C:  MOVF   00,W
0436E:  ADDWF  x1A,F
....................  
....................    return data; 
04370:  MOVFF  41A,01
.................... } 
04374:  MOVLB  0
04376:  RETLW  00
....................  
.................... void rtc_set_datetime(BYTE day, BYTE mth, BYTE year, BYTE dow, BYTE hr, BYTE min) { 
....................  
....................    write_ds1302(0x86,get_bcd(day)); 
*
049B2:  MOVFF  415,41B
049B6:  RCALL  4982
049B8:  MOVFF  01,41B
049BC:  MOVLW  86
049BE:  MOVLB  4
049C0:  MOVWF  x1C
049C2:  MOVFF  01,41D
049C6:  MOVLB  0
049C8:  CALL   29D8
....................    write_ds1302(0x88,get_bcd(mth)); 
049CC:  MOVFF  416,41B
049D0:  RCALL  4982
049D2:  MOVFF  01,41B
049D6:  MOVLW  88
049D8:  MOVLB  4
049DA:  MOVWF  x1C
049DC:  MOVFF  01,41D
049E0:  MOVLB  0
049E2:  CALL   29D8
....................    write_ds1302(0x8c,get_bcd(year)); 
049E6:  MOVFF  417,41B
049EA:  RCALL  4982
049EC:  MOVFF  01,41B
049F0:  MOVLW  8C
049F2:  MOVLB  4
049F4:  MOVWF  x1C
049F6:  MOVFF  01,41D
049FA:  MOVLB  0
049FC:  CALL   29D8
....................    write_ds1302(0x8a,get_bcd(dow)); 
04A00:  MOVFF  418,41B
04A04:  RCALL  4982
04A06:  MOVFF  01,41B
04A0A:  MOVLW  8A
04A0C:  MOVLB  4
04A0E:  MOVWF  x1C
04A10:  MOVFF  01,41D
04A14:  MOVLB  0
04A16:  CALL   29D8
....................    write_ds1302(0x84,get_bcd(hr)); 
04A1A:  MOVFF  419,41B
04A1E:  RCALL  4982
04A20:  MOVFF  01,41B
04A24:  MOVLW  84
04A26:  MOVLB  4
04A28:  MOVWF  x1C
04A2A:  MOVFF  01,41D
04A2E:  MOVLB  0
04A30:  CALL   29D8
....................    write_ds1302(0x82,get_bcd(min)); 
04A34:  MOVFF  41A,41B
04A38:  RCALL  4982
04A3A:  MOVFF  01,41B
04A3E:  MOVLW  82
04A40:  MOVLB  4
04A42:  MOVWF  x1C
04A44:  MOVFF  01,41D
04A48:  MOVLB  0
04A4A:  CALL   29D8
....................    write_ds1302(0x80,get_bcd(0)); 
04A4E:  MOVLB  4
04A50:  CLRF   x1B
04A52:  MOVLB  0
04A54:  RCALL  4982
04A56:  MOVFF  01,41B
04A5A:  MOVLW  80
04A5C:  MOVLB  4
04A5E:  MOVWF  x1C
04A60:  MOVFF  01,41D
04A64:  MOVLB  0
04A66:  CALL   29D8
.................... } 
04A6A:  GOTO   9206 (RETURN)
....................  
.................... void rtc_get_date(BYTE& day, BYTE& mth, BYTE& year, BYTE& dow) { 
....................    day = rm_bcd(read_ds1302(0x87)); 
*
06370:  MOVLW  87
06372:  MOVLB  4
06374:  MOVWF  x19
06376:  MOVLB  0
06378:  CALL   29EE
0637C:  MOVFF  01,415
06380:  MOVFF  01,41A
06384:  CALL   4346
06388:  MOVFF  01,381
....................    mth = rm_bcd(read_ds1302(0x89)); 
0638C:  MOVLW  89
0638E:  MOVLB  4
06390:  MOVWF  x19
06392:  MOVLB  0
06394:  CALL   29EE
06398:  MOVFF  01,415
0639C:  MOVFF  01,41A
063A0:  CALL   4346
063A4:  MOVFF  01,380
....................    year = rm_bcd(read_ds1302(0x8d)); 
063A8:  MOVLW  8D
063AA:  MOVLB  4
063AC:  MOVWF  x19
063AE:  MOVLB  0
063B0:  CALL   29EE
063B4:  MOVFF  01,415
063B8:  MOVFF  01,41A
063BC:  CALL   4346
063C0:  MOVFF  01,37F
....................    dow = rm_bcd(read_ds1302(0x8b)); 
063C4:  MOVLW  8B
063C6:  MOVLB  4
063C8:  MOVWF  x19
063CA:  MOVLB  0
063CC:  CALL   29EE
063D0:  MOVFF  01,415
063D4:  MOVFF  01,41A
063D8:  CALL   4346
063DC:  MOVFF  01,385
.................... } 
....................  
.................... void rtc_get_time(BYTE& hr, BYTE& min, BYTE& sec) { 
....................    hr = rm_bcd(read_ds1302(0x85)); 
063E0:  MOVLW  85
063E2:  MOVLB  4
063E4:  MOVWF  x19
063E6:  MOVLB  0
063E8:  CALL   29EE
063EC:  MOVFF  01,415
063F0:  MOVFF  01,41A
063F4:  CALL   4346
063F8:  MOVFF  01,382
....................    min = rm_bcd(read_ds1302(0x83)); 
063FC:  MOVLW  83
063FE:  MOVLB  4
06400:  MOVWF  x19
06402:  MOVLB  0
06404:  CALL   29EE
06408:  MOVFF  01,415
0640C:  MOVFF  01,41A
06410:  CALL   4346
06414:  MOVFF  01,383
....................    sec = rm_bcd(read_ds1302(0x81)); 
06418:  MOVLW  81
0641A:  MOVLB  4
0641C:  MOVWF  x19
0641E:  MOVLB  0
06420:  CALL   29EE
06424:  MOVFF  01,415
06428:  MOVFF  01,41A
0642C:  CALL   4346
06430:  MOVFF  01,384
.................... } 
....................  
.................... void rtc_write_nvr(BYTE address, BYTE data) { 
....................    write_ds1302(address|0xc0,data); 
.................... } 
....................  
.................... BYTE rtc_read_nvr(BYTE address) { 
....................     return(read_ds1302(address|0xc1)); 
.................... } 
....................  
....................  
.................... #define   UP            !input(PIN_B0) 
.................... #define   DOWN          !input(PIN_B1) 
.................... #define   RIGHT         !input(PIN_B2) 
.................... #define   LEFT          !input(PIN_B3) 
....................  
.................... #define   DOOR          !input(PIN_B6) 
.................... #define   STOP          !input(PIN_B7) 
.................... #define   TERM          !input(PIN_B5) 
....................  
.................... #define   LOW           input(PIN_C1) 
.................... #define   HIG           input(PIN_C0) 
....................  
.................... #define   SSR_on           output_bit(PIN_C2,0) 
.................... #define   SSR_off          output_bit(PIN_C2,1) 
....................  
.................... #define   Buzzer_on        output_bit(PIN_D0,1) 
.................... #define   Buzzer_off       output_bit(PIN_D0,0) 
....................  
.................... #define   Desfogue_on      output_bit(PIN_D4,1) 
.................... #define   Desfogue_off     output_bit(PIN_D4,0) 
....................  
.................... #define   Agua_on          output_bit(PIN_D5,1) 
.................... #define   Agua_off         output_bit(PIN_D5,0) 
....................  
.................... #define   Bomba_on         output_bit(PIN_D6,1) 
.................... #define   Bomba_off        output_bit(PIN_D6,0) 
....................  
.................... #define OFF 0 
.................... #define ON  1 
.................... #define RX_BUFFER_SIZE  10 
.................... char Rx_Buffer[RX_BUFFER_SIZE+1]; 
.................... char Rx_Buffer2[RX_BUFFER_SIZE+1]; 
.................... char RX_Wr_Index=0; 
.................... char RX_Rd_Index=0; 
.................... char RX_Counter=0; 
....................  
.................... #define TX_BUFFER_SIZE  24 
.................... char Tx_Buffer[TX_BUFFER_SIZE+1]; 
.................... char TX_Wr_Index=0; 
.................... char TX_Counter=0; 
.................... //int1 RX_Buffer_Overflow=0; 
....................  
.................... //Comunicacion//------------------------ 
.................... byte SlaveA0Tx[0X20]; 
.................... byte dato=0;            //Contendr la informacin a enviar o recibir 
.................... byte direccion=0;       //Contendr la direccin del esclavo en el bus I2C 
.................... byte posicion=0;        //Contendr la posicin en el buffer de memoria del esclavo donde se almacenar o de donde se recuperar el dato 
....................  
.................... /* Tabla de Modulos, Primera Fila Ao Regular y el siguiente ao Bisiesto 
.................... E   F   M   A   M   J   J   A   S   O   N   D 
.................... 0   3   3   6   1   4   6   2   5   0   3   5 
.................... 0   3   4   0   2   5   0   3   6   1   4   6 
.................... */ 
.................... int8 Regular[12]={0,3,3,6,1,4,6,2,5,0,3,5}; 
.................... int8 Bisiesto[12]={0,3,4,0,2,5,0,3,6,1,4,6}; 
....................  
.................... //Alarmas//--------------------- 
.................... short AlarmaTiempoProlongado=OFF,AlarmaSobreTemperatura=OFF,AlarmaLlenado=OFF,AlarmaTermostato=OFF,AlarmaPuerta=OFF,AlarmaEmergencia=OFF,AlarmaCiclo=OFF; 
....................  
.................... //Banderas//-------------------- 
.................... short IniciaLlenado=OFF,CalderinLleno=OFF,IniciaCiclo=OFF,Esterilizando=OFF,Secando=OFF,SensadoNivel=OFF,Desfogando=OFF,DesfogueSuave=OFF; 
.................... short EstadoDesfogue=OFF,EstadoAgua=OFF,EstadoSSR=OFF,PruebaEstados=OFF,Ciclo=OFF,flagCalentando=OFF,flagEsterilizando=OFF,EstadoAire=OFF; 
.................... short flagDesfogando=OFF,Op=OFF,Op2=OFF,Minutos=OFF,Segundos=OFF,GuardaEEPROM=OFF,EstadoPaso=OFF,EstadoBuzzer=OFF,flagAlarma=OFF; 
.................... short flagBuzzer=OFF,flagSilencio=OFF,Finalizo=OFF,AlarmaPresion=OFF,Libre=OFF,purga=OFF,entro=OFF,Aire=OFF,flagBombaAgua=OFF,flagBombaAguaOff=OFF; 
....................  
.................... //Tiempos//--------------------- 
.................... int16 TiempoCiclo=0,TiempoLlenado=0,TiempoSensadoNivel=0,Tp=0,Tc=0,tBombaAgua=0,tBombaAguaOff=0; 
.................... signed int  Testerilizacion[5]={0,0,0,0,0};   // Tiempo transcurrido 
.................... signed int  Testerilizacionp[5]={0,0,0,0,0};   // Tiempo transcurrido 
.................... signed int  Tsecado[4]={0,0,0,0};   // Tiempo transcurrido 
.................... signed int  Tsecadop[4]={0,0,0,0};   // Tiempo transcurrido 
....................  
.................... //Control//------------------------ 
.................... float promedio[80]={0.0,0.0,0.0,0.0,0.0,0.0,0.0,0.0,0.0,0.0,0.0,0.0,0.0,0.0,0.0,0.0,0.0,0.0,0.0,0.0,0.0,0.0,0.0,0.0,0.0,0.0,0.0,0.0,0.0,0.0,0.0,0.0,0.0,0.0,0.0,0.0,0.0,0.0,0.0,0.0,0.0,0.0,0.0,0.0,0.0,0.0,0.0,0.0,0.0,0.0,0.0,0.0,0.0,0.0,0.0,0.0,0.0,0.0,0.0,0.0,0.0,0.0,0.0,0.0}; 
.................... float PromPresion[20]={0.0,0.0,0.0,0.0,0.0,0.0,0.0,0.0,0.0,0.0,0.0,0.0,0.0,0.0,0.0,0.0,0.0,0.0,0.0,0.0}; 
.................... float PromPresionp[20]={0.0,0.0,0.0,0.0,0.0,0.0,0.0,0.0,0.0,0.0,0.0,0.0,0.0,0.0,0.0,0.0,0.0,0.0,0.0,0.0}; 
.................... float Gain=141.6,RPT100=0.5,Temporal=0.0; 
.................... float R1=100,R10=6850; 
.................... float X[2]={0.0,0.0}; 
.................... float promediopresion=0.0,Aumento=0.0,promediopresionp=0.0; 
.................... int8 h=0,l=0,Ajuste=0,Ajusten=0,MediaMovil=20,TTrampa=0,PantallaPrincipal=0,TipoClave=0,Modulo=0,Digito=0; 
.................... float V0=0.0,Pt,Tciclo=10.0,Tpulso=0.0,error=0.0,Prom=0.0,Temperature=0.0,tmp=0.0,Ganancia=25.0,Ganancia2=20.0,desvio=1.0,tmp2=0.0; 
.................... float V1=0.0,Presion=0.0,V2=0.0,Presionp=0.0; 
.................... float Temperatura=0.0,K=0.0012858; 
.................... float a=0.0011,b=2.3302,c=-244.0723; 
.................... float p1=-0.00036062,p2=0.30947,p3=72.816,Tactual=0.0; 
.................... int8 Integral=0,Derivativo=0,CicloLibre=0; 
....................  
.................... //Varios//-------------------------------- 
.................... short desfoguelento=0,Lectura=0,Grafica=0; 
.................... short disp_Stop=0,flagTC=0,flagImprime=0,flagImprimir=0; 
.................... int8 Control=0,tiemporecta=0,Controlando=0,ActivaImpresion=1,timpresion=2,CalculoImpresion=0,Inicio=1,Dato_Exitoso=0,Dato2=0,z=0; 
.................... int8 Menu=0, MenuAnt=0,MenuAntt=240,i=0,CiclosL=0,CiclosH=0,CicloSeleccionado=0; 
.................... int8 Setpoint=0,Opcion=1,Opcion2=1,tiempo_esterilizacion=0,tiempo_secado=0,tiempoImpresion=0; 
.................... int16 tiempos=0,tiempos2=0,tiempos3=0,tiempoctrl=0,Nivel=0,tinicio=0,PresionCamara=0,PresionPreCamara=0,Ciclos=0,NivelSeleccionado=0; 
.................... signed int  Contrasena[4]={0,0,0,0};      // Contrasena de 4 digitos 
.................... signed int  Password[4]={0,0,0,0};        // Contrasena Almacenada de 4 digitos 
.................... int8 r=0,t=0,r22=0,t2=0,TiempoControl=0; 
.................... int8 y=0,ConteoBuzzer=0; 
.................... int16 t_exhaust=0,tbuzzer=0,tsilencio=0; 
.................... int8 Year=18,Mes=9,Dia=13,Hora=0,Minuto=0,Segundo=0,dow=0; 
.................... int8 YearTx=0,MesTx=0,DiaTx=0,HoraTx=0,MinutoTx=0,SegundoTx=0,dowTx=0,SetTime=0,Imprime=0; 
.................... signed int8 G1=0,G2=0,sg1=0,sg2=0; 
....................  
.................... int8 iconoGrande[15]={22,60,68,59,25,24,66,64,16,62,23,28,20,46}; 
.................... int8 iconoPeque[15]={18,57,67,58,34,33,65,63,36,61,32,38,19,17}; 
.................... char const texto[14][20]={"NO ENVUELTO","ENVUELTO","DEL. NO ENVUELTO","DEL. ENVUELTO","LIQUIDOS A","LIQUIDOS B","LIQUIDOS C","SOLIDOS A","SOLIDOS B","DESINFECCION","LIBRE","TEST","HORA Y FECHA","CLAVE"}; 
....................  
.................... typedef struct{ 
....................    int8 Temperatura; 
....................    int8 MinutoestH; 
....................    int8 MinutoestL; 
....................    int8 Segundoest; 
....................    int8 Minutosec; 
....................    int8 Segundosec; 
....................    int8 PulsosVacio; 
....................    int8 NivelVacio; 
....................    int8 NivelDesfogue; 
....................    int8 Minutoest; 
.................... }Personalizado; 
....................  
.................... Personalizado CiclosPersonalizados[10]; 
....................  
.................... #include "Funciones.h" 
.................... void BorraBuffer(void){ 
.................... RX_Buffer[0]=0; 
*
0444E:  CLRF   30
.................... RX_Buffer[1]=0; 
04450:  CLRF   31
.................... RX_Buffer[2]=0; 
04452:  CLRF   32
.................... RX_Buffer[3]=0; 
04454:  CLRF   33
.................... RX_Buffer[4]=0; 
04456:  CLRF   34
.................... RX_Buffer[5]=0; 
04458:  CLRF   35
.................... RX_Buffer[6]=0; 
0445A:  CLRF   36
.................... RX_Buffer[7]=0; 
0445C:  CLRF   37
.................... RX_Buffer[8]=0; 
0445E:  CLRF   38
.................... RX_Buffer[9]=0; 
04460:  CLRF   39
....................  
.................... RX_Buffer2[0]=0; 
04462:  CLRF   3B
.................... RX_Buffer2[1]=0; 
04464:  CLRF   3C
.................... RX_Buffer2[2]=0; 
04466:  CLRF   3D
.................... RX_Buffer2[3]=0; 
04468:  CLRF   3E
.................... RX_Buffer2[4]=0; 
0446A:  CLRF   3F
.................... RX_Buffer2[5]=0; 
0446C:  CLRF   40
.................... RX_Buffer2[6]=0; 
0446E:  CLRF   41
.................... RX_Buffer2[7]=0; 
04470:  CLRF   42
.................... RX_Buffer2[8]=0; 
04472:  CLRF   43
.................... RX_Buffer2[9]=0; 
04474:  CLRF   44
....................  
.................... } 
04476:  GOTO   649C (RETURN)
....................  
.................... char bgetc(void){ 
....................    char c; 
....................    while(RX_Counter==0) 
....................       ; 
....................    c=Rx_Buffer2[RX_Rd_Index]; 
....................    if(++RX_Rd_Index>RX_BUFFER_SIZE) 
....................       RX_Rd_Index=0; 
....................    if(RX_Counter) 
....................       RX_Counter--; 
....................    return c; 
.................... } 
....................  
.................... void bputc(char c){ 
....................    char restart=0; 
....................    while(TX_Counter> (TX_BUFFER_SIZE-1)) 
....................       ; 
....................    if(TX_Counter==0) 
....................       restart=1; 
....................    TX_Buffer[TX_Wr_Index++]=c; 
....................    if(TX_Wr_Index>TX_BUFFER_SIZE) 
....................       TX_Wr_Index=0; 
....................     
....................    TX_Counter++; 
....................     
....................    if(restart==1) 
....................       enable_interrupts(int_tbe); 
.................... } 
....................  
.................... void SendDataDisplay(void){ 
.................... delay_us(10); 
*
035B2:  MOVLW  10
035B4:  MOVWF  00
035B6:  DECFSZ 00,F
035B8:  BRA    35B6
035BA:  NOP   
.................... putc(0xFF); 
035BC:  MOVLW  FF
035BE:  RCALL  35AA
.................... delay_us(10); 
035C0:  MOVLW  10
035C2:  MOVWF  00
035C4:  DECFSZ 00,F
035C6:  BRA    35C4
035C8:  NOP   
.................... putc(0xFF); 
035CA:  MOVLW  FF
035CC:  RCALL  35AA
.................... delay_us(10); 
035CE:  MOVLW  10
035D0:  MOVWF  00
035D2:  DECFSZ 00,F
035D4:  BRA    35D2
035D6:  NOP   
.................... putc(0xFF); 
035D8:  MOVLW  FF
035DA:  RCALL  35AA
.................... delay_us(10); 
035DC:  MOVLW  10
035DE:  MOVWF  00
035E0:  DECFSZ 00,F
035E2:  BRA    35E0
035E4:  NOP   
.................... } 
035E6:  RETLW  00
....................  
.................... short esBisiesto(int8 year) { 
....................      return ((year % 4 == 0 && year % 100 != 0) || year % 400 == 0); 
*
04930:  MOVLB  4
04932:  MOVF   x15,W
04934:  ANDLW  03
04936:  BNZ   494A
04938:  MOVFF  415,41F
0493C:  MOVLW  64
0493E:  MOVWF  x20
04940:  MOVLB  0
04942:  RCALL  44AC
04944:  MOVF   00,F
04946:  BNZ   4978
04948:  MOVLB  4
0494A:  CLRF   x17
0494C:  MOVFF  415,416
04950:  MOVLW  01
04952:  MOVWF  x19
04954:  MOVLW  90
04956:  MOVWF  x18
04958:  MOVLB  0
0495A:  BRA    48E8
0495C:  MOVFF  00,416
04960:  MOVLB  4
04962:  MOVFF  03,417
04966:  MOVF   x16,F
04968:  BNZ   4974
0496A:  MOVF   x17,F
0496C:  BTFSS  FD8.2
0496E:  BRA    4974
04970:  MOVLB  0
04972:  BRA    4978
04974:  MOVLW  00
04976:  BRA    497C
04978:  MOVLW  01
0497A:  MOVLB  4
0497C:  MOVWF  01
.................... } 
0497E:  MOVLB  0
04980:  RETLW  00
....................  
.................... void LimitaDia(){ 
....................    if(MesTx>12) 
*
04A6E:  MOVLB  3
04A70:  MOVF   x87,W
04A72:  SUBLW  0C
04A74:  BC    4A7A
....................       MesTx=10; 
04A76:  MOVLW  0A
04A78:  MOVWF  x87
....................    if(DiaTx>31) 
04A7A:  MOVF   x88,W
04A7C:  SUBLW  1F
04A7E:  BC    4A84
....................       DiaTx=16; 
04A80:  MOVLW  10
04A82:  MOVWF  x88
....................    if(YearTx>99) 
04A84:  MOVF   x86,W
04A86:  SUBLW  63
04A88:  BC    4A8E
....................       YearTx=18;    
04A8A:  MOVLW  12
04A8C:  MOVWF  x86
....................    if(HoraTx>24) 
04A8E:  MOVF   x89,W
04A90:  SUBLW  18
04A92:  BC    4A98
....................       HoraTx=11;       
04A94:  MOVLW  0B
04A96:  MOVWF  x89
....................    if(MinutoTx>59) 
04A98:  MOVF   x8A,W
04A9A:  SUBLW  3B
04A9C:  BC    4AA2
....................       MinutoTx=30;       
04A9E:  MOVLW  1E
04AA0:  MOVWF  x8A
....................     
....................       if(MesTx==2){ 
04AA2:  MOVF   x87,W
04AA4:  SUBLW  02
04AA6:  BNZ   4AD2
....................          if(esBisiesto(YearTx)){ 
04AA8:  MOVFF  386,415
04AAC:  MOVLB  0
04AAE:  RCALL  4930
04AB0:  MOVF   01,F
04AB2:  BZ    4AC4
....................             if(DiaTx>29){ 
04AB4:  MOVLB  3
04AB6:  MOVF   x88,W
04AB8:  SUBLW  1D
04ABA:  BC    4AC0
....................                DiaTx=29; 
04ABC:  MOVLW  1D
04ABE:  MOVWF  x88
....................                //glcd_fillScreen(OFF); 
....................             } 
....................          }else{ 
04AC0:  BRA    4AD0
04AC2:  MOVLB  0
....................             if(DiaTx>28){ 
04AC4:  MOVLB  3
04AC6:  MOVF   x88,W
04AC8:  SUBLW  1C
04ACA:  BC    4AD0
....................                DiaTx=28; 
04ACC:  MOVLW  1C
04ACE:  MOVWF  x88
....................                //glcd_fillScreen(OFF); 
....................             } 
....................          } 
....................       }else{ 
04AD0:  BRA    4AFC
....................          if(MesTx<=7){ 
04AD2:  MOVF   x87,W
04AD4:  SUBLW  07
04AD6:  BNC   4AEA
....................             if(MesTx % 2 ==0){ 
04AD8:  MOVF   x87,W
04ADA:  ANDLW  01
04ADC:  BNZ   4AE8
....................                if(DiaTx>30){ 
04ADE:  MOVF   x88,W
04AE0:  SUBLW  1E
04AE2:  BC    4AE8
....................                   DiaTx=30;  
04AE4:  MOVLW  1E
04AE6:  MOVWF  x88
....................                   //glcd_fillScreen(OFF); 
....................                } 
....................             } 
....................          }else{ 
04AE8:  BRA    4AFC
....................             if(MesTx % 2 ==1){ 
04AEA:  MOVF   x87,W
04AEC:  ANDLW  01
04AEE:  SUBLW  01
04AF0:  BNZ   4AFC
....................                if(DiaTx>30){ 
04AF2:  MOVF   x88,W
04AF4:  SUBLW  1E
04AF6:  BC    4AFC
....................                   DiaTx=30;  
04AF8:  MOVLW  1E
04AFA:  MOVWF  x88
....................                   //glcd_fillScreen(OFF); 
....................                } 
....................             } 
....................          } 
....................       } 
.................... } 
04AFC:  MOVLB  0
04AFE:  GOTO   94A4 (RETURN)
....................  
.................... void ActualizaRecta(){ 
....................    X[y]=Temperature; 
*
04B76:  MOVLB  3
04B78:  MOVF   x77,W
04B7A:  MULLW  04
04B7C:  MOVF   FF3,W
04B7E:  CLRF   03
04B80:  ADDLW  B9
04B82:  MOVWF  FE9
04B84:  MOVLW  02
04B86:  ADDWFC 03,W
04B88:  MOVWF  FEA
04B8A:  MOVFF  2EF,FEF
04B8E:  MOVFF  2F0,FEC
04B92:  MOVFF  2F1,FEC
04B96:  MOVFF  2F2,FEC
....................    y++; 
04B9A:  INCF   x77,F
....................    if(y>=2) 
04B9C:  MOVF   x77,W
04B9E:  SUBLW  01
04BA0:  BC    4BDE
....................    { 
....................       y=0; 
04BA2:  CLRF   x77
....................       Aumento=X[1]-X[0]; 
04BA4:  BSF    FD8.1
04BA6:  MOVFF  2C0,42D
04BAA:  MOVFF  2BF,42C
04BAE:  MOVFF  2BE,42B
04BB2:  MOVFF  2BD,42A
04BB6:  MOVFF  2BC,431
04BBA:  MOVFF  2BB,430
04BBE:  MOVFF  2BA,42F
04BC2:  MOVFF  2B9,42E
04BC6:  MOVLB  0
04BC8:  CALL   19D0
04BCC:  MOVFF  03,2C8
04BD0:  MOVFF  02,2C7
04BD4:  MOVFF  01,2C6
04BD8:  MOVFF  00,2C5
04BDC:  MOVLB  3
....................    } 
.................... } 
04BDE:  MOVLB  0
04BE0:  RETLW  00
....................  
.................... // Funcion para conversor analogo-digital 
.................... float sensores(int x){ 
.................... float y;set_adc_channel(x);delay_ms(1);y=read_adc();return (y); 
*
03606:  MOVLB  4
03608:  RLCF   x16,W
0360A:  MOVWF  00
0360C:  RLCF   00,F
0360E:  MOVLW  FC
03610:  ANDWF  00,F
03612:  MOVFF  00,01
03616:  MOVF   FC2,W
03618:  ANDLW  C3
0361A:  IORWF  00,W
0361C:  MOVWF  FC2
0361E:  MOVLW  01
03620:  MOVWF  x2A
03622:  MOVLB  0
03624:  CALL   1814
03628:  BSF    FC2.1
0362A:  BTFSC  FC2.1
0362C:  BRA    362A
0362E:  MOVFF  FC4,42B
03632:  MOVFF  FC3,42A
03636:  MOVLB  0
03638:  CALL   183C
0363C:  MOVFF  03,41A
03640:  MOVFF  02,419
03644:  MOVFF  01,418
03648:  MOVFF  00,417
0364C:  MOVFF  417,00
03650:  MOVFF  418,01
03654:  MOVFF  419,02
03658:  MOVFF  41A,03
.................... } 
0365C:  RETLW  00
.................... float LeerPT100(int media) 
.................... { 
....................    Prom=0.0; 
*
03776:  MOVLB  2
03778:  CLRF   xEE
0377A:  CLRF   xED
0377C:  CLRF   xEC
0377E:  CLRF   xEB
....................    V0 = sensores(0);   //Lectura de Divisor de Voltaje de PT100 con resistencia de 6.18k (+-2%) 
03780:  MOVLB  4
03782:  CLRF   x16
03784:  MOVLB  0
03786:  RCALL  3606
03788:  MOVFF  03,2DA
0378C:  MOVFF  02,2D9
03790:  MOVFF  01,2D8
03794:  MOVFF  00,2D7
....................    V0 = V0/104.48; // Se elimina la ganancia 
03798:  MOVFF  2DA,41D
0379C:  MOVFF  2D9,41C
037A0:  MOVFF  2D8,41B
037A4:  MOVFF  2D7,41A
037A8:  MOVLW  C3
037AA:  MOVLB  4
037AC:  MOVWF  x21
037AE:  MOVLW  F5
037B0:  MOVWF  x20
037B2:  MOVLW  50
037B4:  MOVWF  x1F
037B6:  MOVLW  85
037B8:  MOVWF  x1E
037BA:  MOVLB  0
037BC:  CALL   1872
037C0:  MOVFF  03,2DA
037C4:  MOVFF  02,2D9
037C8:  MOVFF  01,2D8
037CC:  MOVFF  00,2D7
....................    //V0 += 14.82; 
....................    V0 += 14.83; 
037D0:  BCF    FD8.1
037D2:  MOVFF  2DA,42D
037D6:  MOVFF  2D9,42C
037DA:  MOVFF  2D8,42B
037DE:  MOVFF  2D7,42A
037E2:  MOVLW  AE
037E4:  MOVLB  4
037E6:  MOVWF  x31
037E8:  MOVLW  47
037EA:  MOVWF  x30
037EC:  MOVLW  6D
037EE:  MOVWF  x2F
037F0:  MOVLW  82
037F2:  MOVWF  x2E
037F4:  MOVLB  0
037F6:  CALL   19D0
037FA:  MOVFF  03,2DA
037FE:  MOVFF  02,2D9
03802:  MOVFF  01,2D8
03806:  MOVFF  00,2D7
....................    Pt=R10/((1023/V0)-1); 
0380A:  MOVLB  4
0380C:  CLRF   x1D
0380E:  MOVLW  C0
03810:  MOVWF  x1C
03812:  MOVLW  7F
03814:  MOVWF  x1B
03816:  MOVLW  88
03818:  MOVWF  x1A
0381A:  MOVFF  2DA,421
0381E:  MOVFF  2D9,420
03822:  MOVFF  2D8,41F
03826:  MOVFF  2D7,41E
0382A:  MOVLB  0
0382C:  CALL   1872
03830:  MOVFF  00,416
03834:  MOVFF  01,417
03838:  MOVFF  02,418
0383C:  MOVFF  03,419
03840:  BSF    FD8.1
03842:  MOVFF  03,42D
03846:  MOVFF  02,42C
0384A:  MOVFF  01,42B
0384E:  MOVFF  00,42A
03852:  MOVLB  4
03854:  CLRF   x31
03856:  CLRF   x30
03858:  CLRF   x2F
0385A:  MOVLW  7F
0385C:  MOVWF  x2E
0385E:  MOVLB  0
03860:  CALL   19D0
03864:  MOVFF  2B8,41D
03868:  MOVFF  2B7,41C
0386C:  MOVFF  2B6,41B
03870:  MOVFF  2B5,41A
03874:  MOVFF  03,421
03878:  MOVFF  02,420
0387C:  MOVFF  01,41F
03880:  MOVFF  00,41E
03884:  CALL   1872
03888:  MOVFF  03,2DE
0388C:  MOVFF  02,2DD
03890:  MOVFF  01,2DC
03894:  MOVFF  00,2DB
....................              
....................    if(l>(media-1)) 
03898:  MOVLW  01
0389A:  MOVLB  4
0389C:  SUBWF  x15,W
0389E:  MOVLB  2
038A0:  SUBWF  xCE,W
038A2:  BZ    38A8
038A4:  BNC   38A8
....................    {l=0;} 
038A6:  CLRF   xCE
....................    //promedio[l]=Temperature;l++; 
....................    promedio[l]=Pt;l++; 
038A8:  MOVLB  4
038AA:  CLRF   x1A
038AC:  MOVFF  2CE,419
038B0:  CLRF   x1C
038B2:  MOVLW  04
038B4:  MOVWF  x1B
038B6:  MOVLB  0
038B8:  RCALL  365E
038BA:  MOVF   01,W
038BC:  ADDLW  C5
038BE:  MOVWF  FE9
038C0:  MOVLW  00
038C2:  ADDWFC 02,W
038C4:  MOVWF  FEA
038C6:  MOVFF  2DB,FEF
038CA:  MOVFF  2DC,FEC
038CE:  MOVFF  2DD,FEC
038D2:  MOVFF  2DE,FEC
038D6:  MOVLB  2
038D8:  INCF   xCE,F
....................           
....................    for(h=0;h<media;h++) 
038DA:  CLRF   xCD
038DC:  MOVLB  4
038DE:  MOVF   x15,W
038E0:  MOVLB  2
038E2:  SUBWF  xCD,W
038E4:  BC    3964
....................    { 
....................       Prom+=promedio[h]; 
038E6:  MOVLB  4
038E8:  CLRF   x1A
038EA:  MOVFF  2CD,419
038EE:  CLRF   x1C
038F0:  MOVLW  04
038F2:  MOVWF  x1B
038F4:  MOVLB  0
038F6:  RCALL  365E
038F8:  MOVFF  02,03
038FC:  MOVF   01,W
038FE:  ADDLW  C5
03900:  MOVWF  FE9
03902:  MOVLW  00
03904:  ADDWFC 02,W
03906:  MOVWF  FEA
03908:  MOVFF  FEF,00
0390C:  MOVFF  FEC,01
03910:  MOVFF  FEC,02
03914:  MOVFF  FEC,03
03918:  MOVFF  FEA,417
0391C:  MOVFF  FE9,416
03920:  BCF    FD8.1
03922:  MOVFF  2EE,42D
03926:  MOVFF  2ED,42C
0392A:  MOVFF  2EC,42B
0392E:  MOVFF  2EB,42A
03932:  MOVFF  03,431
03936:  MOVFF  02,430
0393A:  MOVFF  01,42F
0393E:  MOVFF  00,42E
03942:  CALL   19D0
03946:  MOVFF  417,FEA
0394A:  MOVFF  416,FE9
0394E:  MOVFF  03,2EE
03952:  MOVFF  02,2ED
03956:  MOVFF  01,2EC
0395A:  MOVFF  00,2EB
....................    }  
0395E:  MOVLB  2
03960:  INCF   xCD,F
03962:  BRA    38DC
....................    Prom=Prom/media;    
03964:  MOVLB  4
03966:  CLRF   x2B
03968:  MOVFF  415,42A
0396C:  MOVLB  0
0396E:  CALL   183C
03972:  MOVFF  2EE,41D
03976:  MOVFF  2ED,41C
0397A:  MOVFF  2EC,41B
0397E:  MOVFF  2EB,41A
03982:  MOVFF  03,421
03986:  MOVFF  02,420
0398A:  MOVFF  01,41F
0398E:  MOVFF  00,41E
03992:  CALL   1872
03996:  MOVFF  03,2EE
0399A:  MOVFF  02,2ED
0399E:  MOVFF  01,2EC
039A2:  MOVFF  00,2EB
....................    //Temperature=(Prom-100.0)/(0.385);  // Ecuacin determinada por linealizacin en Matlab. Revisar este polinomio.   
....................    Temperature=((Prom*Prom)*a)+(Prom*b)+c;  // Ecuacin determinada por linealizacin en Matlab. Revisar este polinomio. 
039A6:  MOVFF  2EE,431
039AA:  MOVFF  2ED,430
039AE:  MOVFF  2EC,42F
039B2:  MOVFF  2EB,42E
039B6:  MOVFF  2EE,435
039BA:  MOVFF  2ED,434
039BE:  MOVFF  2EC,433
039C2:  MOVFF  2EB,432
039C6:  RCALL  3680
039C8:  MOVFF  00,416
039CC:  MOVFF  01,417
039D0:  MOVFF  02,418
039D4:  MOVFF  03,419
039D8:  MOVFF  03,431
039DC:  MOVFF  02,430
039E0:  MOVFF  01,42F
039E4:  MOVFF  00,42E
039E8:  MOVFF  322,435
039EC:  MOVFF  321,434
039F0:  MOVFF  320,433
039F4:  MOVFF  31F,432
039F8:  RCALL  3680
039FA:  MOVFF  00,416
039FE:  MOVFF  01,417
03A02:  MOVFF  02,418
03A06:  MOVFF  03,419
03A0A:  MOVFF  2EE,431
03A0E:  MOVFF  2ED,430
03A12:  MOVFF  2EC,42F
03A16:  MOVFF  2EB,42E
03A1A:  MOVFF  326,435
03A1E:  MOVFF  325,434
03A22:  MOVFF  324,433
03A26:  MOVFF  323,432
03A2A:  RCALL  3680
03A2C:  BCF    FD8.1
03A2E:  MOVFF  419,42D
03A32:  MOVFF  418,42C
03A36:  MOVFF  417,42B
03A3A:  MOVFF  416,42A
03A3E:  MOVFF  03,431
03A42:  MOVFF  02,430
03A46:  MOVFF  01,42F
03A4A:  MOVFF  00,42E
03A4E:  CALL   19D0
03A52:  MOVFF  00,416
03A56:  MOVFF  01,417
03A5A:  MOVFF  02,418
03A5E:  MOVFF  03,419
03A62:  BCF    FD8.1
03A64:  MOVFF  03,42D
03A68:  MOVFF  02,42C
03A6C:  MOVFF  01,42B
03A70:  MOVFF  00,42A
03A74:  MOVFF  32A,431
03A78:  MOVFF  329,430
03A7C:  MOVFF  328,42F
03A80:  MOVFF  327,42E
03A84:  CALL   19D0
03A88:  MOVFF  03,2F2
03A8C:  MOVFF  02,2F1
03A90:  MOVFF  01,2F0
03A94:  MOVFF  00,2EF
....................    Temperature+=((float)Ajuste-(float)Ajusten); 
03A98:  MOVLB  4
03A9A:  CLRF   x2B
03A9C:  MOVFF  2CF,42A
03AA0:  MOVLB  0
03AA2:  CALL   183C
03AA6:  MOVFF  00,416
03AAA:  MOVFF  01,417
03AAE:  MOVFF  02,418
03AB2:  MOVFF  03,419
03AB6:  MOVLB  4
03AB8:  CLRF   x2B
03ABA:  MOVFF  2D0,42A
03ABE:  MOVLB  0
03AC0:  CALL   183C
03AC4:  BSF    FD8.1
03AC6:  MOVFF  419,42D
03ACA:  MOVFF  418,42C
03ACE:  MOVFF  417,42B
03AD2:  MOVFF  416,42A
03AD6:  MOVFF  03,431
03ADA:  MOVFF  02,430
03ADE:  MOVFF  01,42F
03AE2:  MOVFF  00,42E
03AE6:  CALL   19D0
03AEA:  BCF    FD8.1
03AEC:  MOVFF  2F2,42D
03AF0:  MOVFF  2F1,42C
03AF4:  MOVFF  2F0,42B
03AF8:  MOVFF  2EF,42A
03AFC:  MOVFF  03,431
03B00:  MOVFF  02,430
03B04:  MOVFF  01,42F
03B08:  MOVFF  00,42E
03B0C:  CALL   19D0
03B10:  MOVFF  03,2F2
03B14:  MOVFF  02,2F1
03B18:  MOVFF  01,2F0
03B1C:  MOVFF  00,2EF
....................    //Temperature-=39.0; 
....................     
....................    //return Prom; 
....................    return Temperature; 
03B20:  MOVFF  2EF,00
03B24:  MOVFF  2F0,01
03B28:  MOVFF  2F1,02
03B2C:  MOVFF  2F2,03
.................... } 
03B30:  RETLW  00
....................  
.................... float Leer_Sensor_Presion_Camara(int media){ 
....................    promediopresion=0.0; 
*
03F46:  MOVLB  2
03F48:  CLRF   xC4
03F4A:  CLRF   xC3
03F4C:  CLRF   xC2
03F4E:  CLRF   xC1
....................    V1 = sensores(2);   //Lectura de Divisor de Voltaje de PT100 con resistencia de 1k (+-10%) 
03F50:  MOVLW  02
03F52:  MOVLB  4
03F54:  MOVWF  x16
03F56:  MOVLB  0
03F58:  CALL   3606
03F5C:  MOVFF  03,30A
03F60:  MOVFF  02,309
03F64:  MOVFF  01,308
03F68:  MOVFF  00,307
....................    //V1 = V1*(5.0/1024.0); 
....................    //Presion=(V1-0.2)/(K); 
....................    Presion=(((V1)/1023)-0.04)/K; 
03F6C:  MOVFF  30A,41D
03F70:  MOVFF  309,41C
03F74:  MOVFF  308,41B
03F78:  MOVFF  307,41A
03F7C:  MOVLB  4
03F7E:  CLRF   x21
03F80:  MOVLW  C0
03F82:  MOVWF  x20
03F84:  MOVLW  7F
03F86:  MOVWF  x1F
03F88:  MOVLW  88
03F8A:  MOVWF  x1E
03F8C:  MOVLB  0
03F8E:  CALL   1872
03F92:  MOVFF  00,416
03F96:  MOVFF  01,417
03F9A:  MOVFF  02,418
03F9E:  MOVFF  03,419
03FA2:  BSF    FD8.1
03FA4:  MOVFF  03,42D
03FA8:  MOVFF  02,42C
03FAC:  MOVFF  01,42B
03FB0:  MOVFF  00,42A
03FB4:  MOVLW  0A
03FB6:  MOVLB  4
03FB8:  MOVWF  x31
03FBA:  MOVLW  D7
03FBC:  MOVWF  x30
03FBE:  MOVLW  23
03FC0:  MOVWF  x2F
03FC2:  MOVLW  7A
03FC4:  MOVWF  x2E
03FC6:  MOVLB  0
03FC8:  CALL   19D0
03FCC:  MOVFF  00,416
03FD0:  MOVFF  01,417
03FD4:  MOVFF  02,418
03FD8:  MOVFF  03,419
03FDC:  MOVFF  03,41D
03FE0:  MOVFF  02,41C
03FE4:  MOVFF  01,41B
03FE8:  MOVFF  00,41A
03FEC:  MOVFF  31E,421
03FF0:  MOVFF  31D,420
03FF4:  MOVFF  31C,41F
03FF8:  MOVFF  31B,41E
03FFC:  CALL   1872
04000:  MOVFF  03,30E
04004:  MOVFF  02,30D
04008:  MOVFF  01,30C
0400C:  MOVFF  00,30B
....................     
....................    if(Presion<0.0) 
04010:  MOVFF  30E,41C
04014:  MOVFF  30D,41B
04018:  MOVFF  30C,41A
0401C:  MOVFF  30B,419
04020:  MOVLB  4
04022:  CLRF   x20
04024:  CLRF   x1F
04026:  CLRF   x1E
04028:  CLRF   x1D
0402A:  MOVLB  0
0402C:  CALL   2A96
04030:  BNC   403C
....................    { 
....................       Presion=0.0; 
04032:  MOVLB  3
04034:  CLRF   x0E
04036:  CLRF   x0D
04038:  CLRF   x0C
0403A:  CLRF   x0B
....................    } 
....................     
....................    if(r>media-1) 
0403C:  MOVLW  01
0403E:  MOVLB  4
04040:  SUBWF  x15,W
04042:  MOVLB  3
04044:  SUBWF  x72,W
04046:  BZ    404C
04048:  BNC   404C
....................    {r=0;} 
0404A:  CLRF   x72
....................    PromPresion[r]=Presion;r++; 
0404C:  MOVF   x72,W
0404E:  MULLW  04
04050:  MOVF   FF3,W
04052:  CLRF   03
04054:  ADDLW  05
04056:  MOVWF  FE9
04058:  MOVLW  02
0405A:  ADDWFC 03,W
0405C:  MOVWF  FEA
0405E:  MOVFF  30B,FEF
04062:  MOVFF  30C,FEC
04066:  MOVFF  30D,FEC
0406A:  MOVFF  30E,FEC
0406E:  INCF   x72,F
....................           
....................    for(t=0;t<=(media-1);t++) 
04070:  CLRF   x73
04072:  MOVLW  01
04074:  MOVLB  4
04076:  SUBWF  x15,W
04078:  MOVLB  3
0407A:  SUBWF  x73,W
0407C:  BZ    4080
0407E:  BC    40F0
....................    { 
....................       promediopresion+=PromPresion[t]; 
04080:  MOVF   x73,W
04082:  MULLW  04
04084:  MOVF   FF3,W
04086:  CLRF   03
04088:  ADDLW  05
0408A:  MOVWF  FE9
0408C:  MOVLW  02
0408E:  ADDWFC 03,W
04090:  MOVWF  FEA
04092:  MOVFF  FEF,00
04096:  MOVFF  FEC,01
0409A:  MOVFF  FEC,02
0409E:  MOVFF  FEC,03
040A2:  MOVFF  FEA,417
040A6:  MOVFF  FE9,416
040AA:  BCF    FD8.1
040AC:  MOVFF  2C4,42D
040B0:  MOVFF  2C3,42C
040B4:  MOVFF  2C2,42B
040B8:  MOVFF  2C1,42A
040BC:  MOVFF  03,431
040C0:  MOVFF  02,430
040C4:  MOVFF  01,42F
040C8:  MOVFF  00,42E
040CC:  MOVLB  0
040CE:  CALL   19D0
040D2:  MOVFF  417,FEA
040D6:  MOVFF  416,FE9
040DA:  MOVFF  03,2C4
040DE:  MOVFF  02,2C3
040E2:  MOVFF  01,2C2
040E6:  MOVFF  00,2C1
....................    }  
040EA:  MOVLB  3
040EC:  INCF   x73,F
040EE:  BRA    4072
....................    promediopresion=promediopresion/media;    
040F0:  MOVLB  4
040F2:  CLRF   x2B
040F4:  MOVFF  415,42A
040F8:  MOVLB  0
040FA:  CALL   183C
040FE:  MOVFF  2C4,41D
04102:  MOVFF  2C3,41C
04106:  MOVFF  2C2,41B
0410A:  MOVFF  2C1,41A
0410E:  MOVFF  03,421
04112:  MOVFF  02,420
04116:  MOVFF  01,41F
0411A:  MOVFF  00,41E
0411E:  CALL   1872
04122:  MOVFF  03,2C4
04126:  MOVFF  02,2C3
0412A:  MOVFF  01,2C2
0412E:  MOVFF  00,2C1
....................     
....................    return promediopresion; 
04132:  MOVFF  2C1,00
04136:  MOVFF  2C2,01
0413A:  MOVFF  2C3,02
0413E:  MOVFF  2C4,03
.................... } 
04142:  GOTO   632C (RETURN)
....................  
.................... float Leer_Sensor_Presion_PreCamara(int media){ 
....................    promediopresionp=0.0; 
04146:  MOVLB  2
04148:  CLRF   xCC
0414A:  CLRF   xCB
0414C:  CLRF   xCA
0414E:  CLRF   xC9
....................    V2 = sensores(3);   //Lectura de Divisor de Voltaje de PT100 con resistencia de 1k (+-10%) 
04150:  MOVLW  03
04152:  MOVLB  4
04154:  MOVWF  x16
04156:  MOVLB  0
04158:  CALL   3606
0415C:  MOVFF  03,312
04160:  MOVFF  02,311
04164:  MOVFF  01,310
04168:  MOVFF  00,30F
....................    //V2 = V2*(5.0/1024.0); 
....................    //Presionp=(V2-0.2)/(K); 
....................    Presionp=(((V2)/1023)-0.04)/K; 
0416C:  MOVFF  312,41D
04170:  MOVFF  311,41C
04174:  MOVFF  310,41B
04178:  MOVFF  30F,41A
0417C:  MOVLB  4
0417E:  CLRF   x21
04180:  MOVLW  C0
04182:  MOVWF  x20
04184:  MOVLW  7F
04186:  MOVWF  x1F
04188:  MOVLW  88
0418A:  MOVWF  x1E
0418C:  MOVLB  0
0418E:  CALL   1872
04192:  MOVFF  00,416
04196:  MOVFF  01,417
0419A:  MOVFF  02,418
0419E:  MOVFF  03,419
041A2:  BSF    FD8.1
041A4:  MOVFF  03,42D
041A8:  MOVFF  02,42C
041AC:  MOVFF  01,42B
041B0:  MOVFF  00,42A
041B4:  MOVLW  0A
041B6:  MOVLB  4
041B8:  MOVWF  x31
041BA:  MOVLW  D7
041BC:  MOVWF  x30
041BE:  MOVLW  23
041C0:  MOVWF  x2F
041C2:  MOVLW  7A
041C4:  MOVWF  x2E
041C6:  MOVLB  0
041C8:  CALL   19D0
041CC:  MOVFF  00,416
041D0:  MOVFF  01,417
041D4:  MOVFF  02,418
041D8:  MOVFF  03,419
041DC:  MOVFF  03,41D
041E0:  MOVFF  02,41C
041E4:  MOVFF  01,41B
041E8:  MOVFF  00,41A
041EC:  MOVFF  31E,421
041F0:  MOVFF  31D,420
041F4:  MOVFF  31C,41F
041F8:  MOVFF  31B,41E
041FC:  CALL   1872
04200:  MOVFF  03,316
04204:  MOVFF  02,315
04208:  MOVFF  01,314
0420C:  MOVFF  00,313
....................     
....................    if(Presionp<0.0) 
04210:  MOVFF  316,41C
04214:  MOVFF  315,41B
04218:  MOVFF  314,41A
0421C:  MOVFF  313,419
04220:  MOVLB  4
04222:  CLRF   x20
04224:  CLRF   x1F
04226:  CLRF   x1E
04228:  CLRF   x1D
0422A:  MOVLB  0
0422C:  CALL   2A96
04230:  BNC   423C
....................    { 
....................       Presionp=0.0; 
04232:  MOVLB  3
04234:  CLRF   x16
04236:  CLRF   x15
04238:  CLRF   x14
0423A:  CLRF   x13
....................    } 
....................     
....................    if(r22>media-1) 
0423C:  MOVLW  01
0423E:  MOVLB  4
04240:  SUBWF  x15,W
04242:  MOVLB  3
04244:  SUBWF  x74,W
04246:  BZ    424C
04248:  BNC   424C
....................    {r22=0;} 
0424A:  CLRF   x74
....................    PromPresionp[r22]=Presionp;r22++; 
0424C:  MOVF   x74,W
0424E:  MULLW  04
04250:  MOVF   FF3,W
04252:  CLRF   03
04254:  ADDLW  55
04256:  MOVWF  FE9
04258:  MOVLW  02
0425A:  ADDWFC 03,W
0425C:  MOVWF  FEA
0425E:  MOVFF  313,FEF
04262:  MOVFF  314,FEC
04266:  MOVFF  315,FEC
0426A:  MOVFF  316,FEC
0426E:  INCF   x74,F
....................           
....................    for(t2=0;t2<=(media-1);t2++) 
04270:  CLRF   x75
04272:  MOVLW  01
04274:  MOVLB  4
04276:  SUBWF  x15,W
04278:  MOVLB  3
0427A:  SUBWF  x75,W
0427C:  BZ    4280
0427E:  BC    42F0
....................    { 
....................       promediopresionp+=PromPresionp[t2]; 
04280:  MOVF   x75,W
04282:  MULLW  04
04284:  MOVF   FF3,W
04286:  CLRF   03
04288:  ADDLW  55
0428A:  MOVWF  FE9
0428C:  MOVLW  02
0428E:  ADDWFC 03,W
04290:  MOVWF  FEA
04292:  MOVFF  FEF,00
04296:  MOVFF  FEC,01
0429A:  MOVFF  FEC,02
0429E:  MOVFF  FEC,03
042A2:  MOVFF  FEA,417
042A6:  MOVFF  FE9,416
042AA:  BCF    FD8.1
042AC:  MOVFF  2CC,42D
042B0:  MOVFF  2CB,42C
042B4:  MOVFF  2CA,42B
042B8:  MOVFF  2C9,42A
042BC:  MOVFF  03,431
042C0:  MOVFF  02,430
042C4:  MOVFF  01,42F
042C8:  MOVFF  00,42E
042CC:  MOVLB  0
042CE:  CALL   19D0
042D2:  MOVFF  417,FEA
042D6:  MOVFF  416,FE9
042DA:  MOVFF  03,2CC
042DE:  MOVFF  02,2CB
042E2:  MOVFF  01,2CA
042E6:  MOVFF  00,2C9
....................    }  
042EA:  MOVLB  3
042EC:  INCF   x75,F
042EE:  BRA    4272
....................    promediopresionp=promediopresionp/media;    
042F0:  MOVLB  4
042F2:  CLRF   x2B
042F4:  MOVFF  415,42A
042F8:  MOVLB  0
042FA:  CALL   183C
042FE:  MOVFF  2CC,41D
04302:  MOVFF  2CB,41C
04306:  MOVFF  2CA,41B
0430A:  MOVFF  2C9,41A
0430E:  MOVFF  03,421
04312:  MOVFF  02,420
04316:  MOVFF  01,41F
0431A:  MOVFF  00,41E
0431E:  CALL   1872
04322:  MOVFF  03,2CC
04326:  MOVFF  02,2CB
0432A:  MOVFF  01,2CA
0432E:  MOVFF  00,2C9
....................     
....................    return promediopresionp; 
04332:  MOVFF  2C9,00
04336:  MOVFF  2CA,01
0433A:  MOVFF  2CB,02
0433E:  MOVFF  2CC,03
.................... } 
04342:  GOTO   6354 (RETURN)
....................  
.................... void Controla(){ 
....................    if(tiemporecta>=Derivativo/2.0) 
*
04BE2:  MOVLB  4
04BE4:  CLRF   x2B
04BE6:  MOVFF  33C,42A
04BEA:  MOVLB  0
04BEC:  CALL   183C
04BF0:  MOVFF  03,41D
04BF4:  MOVFF  02,41C
04BF8:  MOVFF  01,41B
04BFC:  MOVFF  00,41A
04C00:  MOVLB  4
04C02:  CLRF   x21
04C04:  CLRF   x20
04C06:  CLRF   x1F
04C08:  MOVLW  80
04C0A:  MOVWF  x1E
04C0C:  MOVLB  0
04C0E:  CALL   1872
04C12:  MOVFF  00,415
04C16:  MOVFF  01,416
04C1A:  MOVFF  02,417
04C1E:  MOVFF  03,418
04C22:  MOVLB  4
04C24:  CLRF   x2B
04C26:  MOVFF  340,42A
04C2A:  MOVLB  0
04C2C:  CALL   183C
04C30:  MOVFF  418,41C
04C34:  MOVFF  417,41B
04C38:  MOVFF  416,41A
04C3C:  MOVFF  415,419
04C40:  MOVFF  03,420
04C44:  MOVFF  02,41F
04C48:  MOVFF  01,41E
04C4C:  MOVFF  00,41D
04C50:  CALL   2A96
04C54:  BC    4C58
04C56:  BNZ   4C5E
....................    { 
....................       ActualizaRecta(); 
04C58:  RCALL  4B76
....................       tiemporecta=0; 
04C5A:  MOVLB  3
04C5C:  CLRF   x40
....................    }  
.................... //-------------------------------Control de Calentamiento------------------------------------------------------------//          
....................    error=desvio+Setpoint-Temperatura;      // Clculo del error ****** 
04C5E:  MOVLB  4
04C60:  CLRF   x2B
04C62:  MOVFF  350,42A
04C66:  MOVLB  0
04C68:  CALL   183C
04C6C:  BCF    FD8.1
04C6E:  MOVFF  302,42D
04C72:  MOVFF  301,42C
04C76:  MOVFF  300,42B
04C7A:  MOVFF  2FF,42A
04C7E:  MOVFF  03,431
04C82:  MOVFF  02,430
04C86:  MOVFF  01,42F
04C8A:  MOVFF  00,42E
04C8E:  CALL   19D0
04C92:  MOVFF  00,415
04C96:  MOVFF  01,416
04C9A:  MOVFF  02,417
04C9E:  MOVFF  03,418
04CA2:  BSF    FD8.1
04CA4:  MOVFF  03,42D
04CA8:  MOVFF  02,42C
04CAC:  MOVFF  01,42B
04CB0:  MOVFF  00,42A
04CB4:  MOVFF  31A,431
04CB8:  MOVFF  319,430
04CBC:  MOVFF  318,42F
04CC0:  MOVFF  317,42E
04CC4:  CALL   19D0
04CC8:  MOVFF  03,2EA
04CCC:  MOVFF  02,2E9
04CD0:  MOVFF  01,2E8
04CD4:  MOVFF  00,2E7
....................     
....................    if(error>1.0 && error<15 && Aumento<0.3) 
04CD8:  MOVLB  4
04CDA:  CLRF   x1C
04CDC:  CLRF   x1B
04CDE:  CLRF   x1A
04CE0:  MOVLW  7F
04CE2:  MOVWF  x19
04CE4:  MOVFF  2EA,420
04CE8:  MOVFF  2E9,41F
04CEC:  MOVFF  2E8,41E
04CF0:  MOVFF  2E7,41D
04CF4:  MOVLB  0
04CF6:  CALL   2A96
04CFA:  BTFSS  FD8.0
04CFC:  BRA    4F24
04CFE:  MOVFF  2EA,41C
04D02:  MOVFF  2E9,41B
04D06:  MOVFF  2E8,41A
04D0A:  MOVFF  2E7,419
04D0E:  MOVLB  4
04D10:  CLRF   x20
04D12:  CLRF   x1F
04D14:  MOVLW  70
04D16:  MOVWF  x1E
04D18:  MOVLW  82
04D1A:  MOVWF  x1D
04D1C:  MOVLB  0
04D1E:  CALL   2A96
04D22:  BTFSS  FD8.0
04D24:  BRA    4F24
04D26:  MOVFF  2C8,41C
04D2A:  MOVFF  2C7,41B
04D2E:  MOVFF  2C6,41A
04D32:  MOVFF  2C5,419
04D36:  MOVLW  9A
04D38:  MOVLB  4
04D3A:  MOVWF  x20
04D3C:  MOVLW  99
04D3E:  MOVWF  x1F
04D40:  MOVLW  19
04D42:  MOVWF  x1E
04D44:  MOVLW  7D
04D46:  MOVWF  x1D
04D48:  MOVLB  0
04D4A:  CALL   2A96
04D4E:  BTFSS  FD8.0
04D50:  BRA    4F24
....................    { 
....................       if(Tpulso<4.0) 
04D52:  MOVFF  2E6,41C
04D56:  MOVFF  2E5,41B
04D5A:  MOVFF  2E4,41A
04D5E:  MOVFF  2E3,419
04D62:  MOVLB  4
04D64:  CLRF   x20
04D66:  CLRF   x1F
04D68:  CLRF   x1E
04D6A:  MOVLW  81
04D6C:  MOVWF  x1D
04D6E:  MOVLB  0
04D70:  CALL   2A96
04D74:  BTFSS  FD8.0
04D76:  BRA    4F22
....................       { 
....................          flagTC=1; 
04D78:  BSF    xA4.6
....................          if(TiempoControl>=Derivativo) 
04D7A:  MOVLB  3
04D7C:  MOVF   x3C,W
04D7E:  SUBWF  x76,W
04D80:  BTFSS  FD8.0
04D82:  BRA    4F1E
....................          { 
....................             TiempoControl=0; 
04D84:  CLRF   x76
....................             if(Aumento<-0.5){ 
04D86:  MOVFF  2C8,41C
04D8A:  MOVFF  2C7,41B
04D8E:  MOVFF  2C6,41A
04D92:  MOVFF  2C5,419
04D96:  MOVLB  4
04D98:  CLRF   x20
04D9A:  CLRF   x1F
04D9C:  MOVLW  80
04D9E:  MOVWF  x1E
04DA0:  MOVLW  7E
04DA2:  MOVWF  x1D
04DA4:  MOVLB  0
04DA6:  CALL   2A96
04DAA:  BNC   4E1C
....................                Ganancia+=Integral+0.2; 
04DAC:  MOVLB  4
04DAE:  CLRF   x2B
04DB0:  MOVFF  33B,42A
04DB4:  MOVLB  0
04DB6:  CALL   183C
04DBA:  BCF    FD8.1
04DBC:  MOVFF  03,42D
04DC0:  MOVFF  02,42C
04DC4:  MOVFF  01,42B
04DC8:  MOVFF  00,42A
04DCC:  MOVLW  CD
04DCE:  MOVLB  4
04DD0:  MOVWF  x31
04DD2:  MOVLW  CC
04DD4:  MOVWF  x30
04DD6:  MOVLW  4C
04DD8:  MOVWF  x2F
04DDA:  MOVLW  7C
04DDC:  MOVWF  x2E
04DDE:  MOVLB  0
04DE0:  CALL   19D0
04DE4:  BCF    FD8.1
04DE6:  MOVFF  2FA,42D
04DEA:  MOVFF  2F9,42C
04DEE:  MOVFF  2F8,42B
04DF2:  MOVFF  2F7,42A
04DF6:  MOVFF  03,431
04DFA:  MOVFF  02,430
04DFE:  MOVFF  01,42F
04E02:  MOVFF  00,42E
04E06:  CALL   19D0
04E0A:  MOVFF  03,2FA
04E0E:  MOVFF  02,2F9
04E12:  MOVFF  01,2F8
04E16:  MOVFF  00,2F7
....................             }else{ 
04E1A:  BRA    4F1C
....................                if(Aumento<-0.1){ 
04E1C:  MOVFF  2C8,41C
04E20:  MOVFF  2C7,41B
04E24:  MOVFF  2C6,41A
04E28:  MOVFF  2C5,419
04E2C:  MOVLW  CD
04E2E:  MOVLB  4
04E30:  MOVWF  x20
04E32:  MOVLW  CC
04E34:  MOVWF  x1F
04E36:  MOVWF  x1E
04E38:  MOVLW  7B
04E3A:  MOVWF  x1D
04E3C:  MOVLB  0
04E3E:  CALL   2A96
04E42:  BNC   4EB4
....................                   Ganancia+=Integral-0.2; 
04E44:  MOVLB  4
04E46:  CLRF   x2B
04E48:  MOVFF  33B,42A
04E4C:  MOVLB  0
04E4E:  CALL   183C
04E52:  BSF    FD8.1
04E54:  MOVFF  03,42D
04E58:  MOVFF  02,42C
04E5C:  MOVFF  01,42B
04E60:  MOVFF  00,42A
04E64:  MOVLW  CD
04E66:  MOVLB  4
04E68:  MOVWF  x31
04E6A:  MOVLW  CC
04E6C:  MOVWF  x30
04E6E:  MOVLW  4C
04E70:  MOVWF  x2F
04E72:  MOVLW  7C
04E74:  MOVWF  x2E
04E76:  MOVLB  0
04E78:  CALL   19D0
04E7C:  BCF    FD8.1
04E7E:  MOVFF  2FA,42D
04E82:  MOVFF  2F9,42C
04E86:  MOVFF  2F8,42B
04E8A:  MOVFF  2F7,42A
04E8E:  MOVFF  03,431
04E92:  MOVFF  02,430
04E96:  MOVFF  01,42F
04E9A:  MOVFF  00,42E
04E9E:  CALL   19D0
04EA2:  MOVFF  03,2FA
04EA6:  MOVFF  02,2F9
04EAA:  MOVFF  01,2F8
04EAE:  MOVFF  00,2F7
....................                }else{ 
04EB2:  BRA    4F1C
....................                   Ganancia+=Integral-0.5; 
04EB4:  MOVLB  4
04EB6:  CLRF   x2B
04EB8:  MOVFF  33B,42A
04EBC:  MOVLB  0
04EBE:  CALL   183C
04EC2:  BSF    FD8.1
04EC4:  MOVFF  03,42D
04EC8:  MOVFF  02,42C
04ECC:  MOVFF  01,42B
04ED0:  MOVFF  00,42A
04ED4:  MOVLB  4
04ED6:  CLRF   x31
04ED8:  CLRF   x30
04EDA:  CLRF   x2F
04EDC:  MOVLW  7E
04EDE:  MOVWF  x2E
04EE0:  MOVLB  0
04EE2:  CALL   19D0
04EE6:  BCF    FD8.1
04EE8:  MOVFF  2FA,42D
04EEC:  MOVFF  2F9,42C
04EF0:  MOVFF  2F8,42B
04EF4:  MOVFF  2F7,42A
04EF8:  MOVFF  03,431
04EFC:  MOVFF  02,430
04F00:  MOVFF  01,42F
04F04:  MOVFF  00,42E
04F08:  CALL   19D0
04F0C:  MOVFF  03,2FA
04F10:  MOVFF  02,2F9
04F14:  MOVFF  01,2F8
04F18:  MOVFF  00,2F7
04F1C:  MOVLB  3
....................                } 
....................             } 
....................          } 
....................       }else{ 
04F1E:  BRA    4F26
04F20:  MOVLB  0
....................          flagTC=0; 
04F22:  BCF    xA4.6
04F24:  MOVLB  3
....................       } 
....................    } 
....................     
....................    if(error<-0.3) 
04F26:  MOVFF  2EA,41C
04F2A:  MOVFF  2E9,41B
04F2E:  MOVFF  2E8,41A
04F32:  MOVFF  2E7,419
04F36:  MOVLW  9A
04F38:  MOVLB  4
04F3A:  MOVWF  x20
04F3C:  MOVLW  99
04F3E:  MOVWF  x1F
04F40:  MOVWF  x1E
04F42:  MOVLW  7D
04F44:  MOVWF  x1D
04F46:  MOVLB  0
04F48:  CALL   2A96
04F4C:  BNC   4F5E
....................    { 
....................       Ganancia=Ganancia2; 
04F4E:  MOVFF  2FE,2FA
04F52:  MOVFF  2FD,2F9
04F56:  MOVFF  2FC,2F8
04F5A:  MOVFF  2FB,2F7
....................    } 
....................     
....................    if(Ganancia<1) 
04F5E:  MOVFF  2FA,41C
04F62:  MOVFF  2F9,41B
04F66:  MOVFF  2F8,41A
04F6A:  MOVFF  2F7,419
04F6E:  MOVLB  4
04F70:  CLRF   x20
04F72:  CLRF   x1F
04F74:  CLRF   x1E
04F76:  MOVLW  7F
04F78:  MOVWF  x1D
04F7A:  MOVLB  0
04F7C:  CALL   2A96
04F80:  BNC   4F8E
....................    { 
....................       Ganancia=1; 
04F82:  MOVLB  2
04F84:  CLRF   xFA
04F86:  CLRF   xF9
04F88:  CLRF   xF8
04F8A:  MOVLW  7F
04F8C:  MOVWF  xF7
....................    } 
....................     
....................    if(error<0.0)     // Anti Wind_DOWN     
04F8E:  MOVFF  2EA,41C
04F92:  MOVFF  2E9,41B
04F96:  MOVFF  2E8,41A
04F9A:  MOVFF  2E7,419
04F9E:  MOVLB  4
04FA0:  CLRF   x20
04FA2:  CLRF   x1F
04FA4:  CLRF   x1E
04FA6:  CLRF   x1D
04FA8:  MOVLB  0
04FAA:  CALL   2A96
04FAE:  BNC   4FBC
....................    { 
....................       error=0.0; 
04FB0:  MOVLB  2
04FB2:  CLRF   xEA
04FB4:  CLRF   xE9
04FB6:  CLRF   xE8
04FB8:  CLRF   xE7
04FBA:  MOVLB  0
....................    } 
....................    //tmp=(Setpoint-Prom)*Ganancia;  // Control Proporcional. 
....................    tmp=error*Ganancia;  // Control Proporcional. 
04FBC:  MOVFF  2EA,431
04FC0:  MOVFF  2E9,430
04FC4:  MOVFF  2E8,42F
04FC8:  MOVFF  2E7,42E
04FCC:  MOVFF  2FA,435
04FD0:  MOVFF  2F9,434
04FD4:  MOVFF  2F8,433
04FD8:  MOVFF  2F7,432
04FDC:  CALL   3680
04FE0:  MOVFF  03,2F6
04FE4:  MOVFF  02,2F5
04FE8:  MOVFF  01,2F4
04FEC:  MOVFF  00,2F3
....................           
....................    if(tmp>Setpoint)   // Anti Wind-UP       
04FF0:  MOVLB  4
04FF2:  CLRF   x2B
04FF4:  MOVFF  350,42A
04FF8:  MOVLB  0
04FFA:  CALL   183C
04FFE:  MOVFF  03,41C
05002:  MOVFF  02,41B
05006:  MOVFF  01,41A
0500A:  MOVFF  00,419
0500E:  MOVFF  2F6,420
05012:  MOVFF  2F5,41F
05016:  MOVFF  2F4,41E
0501A:  MOVFF  2F3,41D
0501E:  CALL   2A96
05022:  BNC   5042
....................    { 
....................       tmp=Setpoint; 
05024:  MOVLB  4
05026:  CLRF   x2B
05028:  MOVFF  350,42A
0502C:  MOVLB  0
0502E:  CALL   183C
05032:  MOVFF  03,2F6
05036:  MOVFF  02,2F5
0503A:  MOVFF  01,2F4
0503E:  MOVFF  00,2F3
....................    } 
....................                 
....................    if(tmp<0.0)     // Anti Wind_DOWN     
05042:  MOVFF  2F6,41C
05046:  MOVFF  2F5,41B
0504A:  MOVFF  2F4,41A
0504E:  MOVFF  2F3,419
05052:  MOVLB  4
05054:  CLRF   x20
05056:  CLRF   x1F
05058:  CLRF   x1E
0505A:  CLRF   x1D
0505C:  MOVLB  0
0505E:  CALL   2A96
05062:  BNC   506E
....................    { 
....................       tmp=0.0; 
05064:  MOVLB  2
05066:  CLRF   xF6
05068:  CLRF   xF5
0506A:  CLRF   xF4
0506C:  CLRF   xF3
....................    } 
....................     
....................    // Tpulso(t)= Tciclo*(y(t)-ymin)/(ymax - ymin); calculo de ciclo util para control de resistencia.ymax=140.ymin=0; 
....................    // Tpulso es float, hay que pasar ese ciclo a una salida de un puerto usando el TMR1. 
....................    tmp2=(tmp/Setpoint); 
0506E:  MOVLB  4
05070:  CLRF   x2B
05072:  MOVFF  350,42A
05076:  MOVLB  0
05078:  CALL   183C
0507C:  MOVFF  2F6,41D
05080:  MOVFF  2F5,41C
05084:  MOVFF  2F4,41B
05088:  MOVFF  2F3,41A
0508C:  MOVFF  03,421
05090:  MOVFF  02,420
05094:  MOVFF  01,41F
05098:  MOVFF  00,41E
0509C:  CALL   1872
050A0:  MOVFF  03,306
050A4:  MOVFF  02,305
050A8:  MOVFF  01,304
050AC:  MOVFF  00,303
....................    //if(tmp2>0.8) 
....................    //tmp2=0.8; 
....................    Tpulso=tmp2*Tciclo;   
050B0:  MOVFF  306,431
050B4:  MOVFF  305,430
050B8:  MOVFF  304,42F
050BC:  MOVFF  303,42E
050C0:  MOVFF  2E2,435
050C4:  MOVFF  2E1,434
050C8:  MOVFF  2E0,433
050CC:  MOVFF  2DF,432
050D0:  CALL   3680
050D4:  MOVFF  03,2E6
050D8:  MOVFF  02,2E5
050DC:  MOVFF  01,2E4
050E0:  MOVFF  00,2E3
....................                                        
....................    Tp=(Tpulso/0.005); 
050E4:  MOVFF  2E6,41D
050E8:  MOVFF  2E5,41C
050EC:  MOVFF  2E4,41B
050F0:  MOVFF  2E3,41A
050F4:  MOVLW  0A
050F6:  MOVLB  4
050F8:  MOVWF  x21
050FA:  MOVLW  D7
050FC:  MOVWF  x20
050FE:  MOVLW  23
05100:  MOVWF  x1F
05102:  MOVLW  77
05104:  MOVWF  x1E
05106:  MOVLB  0
05108:  CALL   1872
0510C:  MOVFF  03,42D
05110:  MOVFF  02,42C
05114:  MOVFF  01,42B
05118:  MOVFF  00,42A
0511C:  CALL   3CAC
05120:  MOVFF  02,AC
05124:  MOVFF  01,AB
....................    Tc=(Tciclo/0.005); 
05128:  MOVFF  2E2,41D
0512C:  MOVFF  2E1,41C
05130:  MOVFF  2E0,41B
05134:  MOVFF  2DF,41A
05138:  MOVLW  0A
0513A:  MOVLB  4
0513C:  MOVWF  x21
0513E:  MOVLW  D7
05140:  MOVWF  x20
05142:  MOVLW  23
05144:  MOVWF  x1F
05146:  MOVLW  77
05148:  MOVWF  x1E
0514A:  MOVLB  0
0514C:  CALL   1872
05150:  MOVFF  03,42D
05154:  MOVFF  02,42C
05158:  MOVFF  01,42B
0515C:  MOVFF  00,42A
05160:  CALL   3CAC
05164:  MOVFF  02,AE
05168:  MOVFF  01,AD
....................    Controlando=1;    
0516C:  MOVLW  01
0516E:  MOVLB  3
05170:  MOVWF  x41
.................... //--------------------------------------------------------------------------------------------------------------------//    
.................... } 
05172:  MOVLB  0
05174:  GOTO   AB40 (RETURN)
....................  
.................... void ControlaPresion(){ 
....................    if(tiemporecta>=Derivativo/2.0) 
05178:  MOVLB  4
0517A:  CLRF   x2B
0517C:  MOVFF  33C,42A
05180:  MOVLB  0
05182:  CALL   183C
05186:  MOVFF  03,41D
0518A:  MOVFF  02,41C
0518E:  MOVFF  01,41B
05192:  MOVFF  00,41A
05196:  MOVLB  4
05198:  CLRF   x21
0519A:  CLRF   x20
0519C:  CLRF   x1F
0519E:  MOVLW  80
051A0:  MOVWF  x1E
051A2:  MOVLB  0
051A4:  CALL   1872
051A8:  MOVFF  00,415
051AC:  MOVFF  01,416
051B0:  MOVFF  02,417
051B4:  MOVFF  03,418
051B8:  MOVLB  4
051BA:  CLRF   x2B
051BC:  MOVFF  340,42A
051C0:  MOVLB  0
051C2:  CALL   183C
051C6:  MOVFF  418,41C
051CA:  MOVFF  417,41B
051CE:  MOVFF  416,41A
051D2:  MOVFF  415,419
051D6:  MOVFF  03,420
051DA:  MOVFF  02,41F
051DE:  MOVFF  01,41E
051E2:  MOVFF  00,41D
051E6:  CALL   2A96
051EA:  BC    51EE
051EC:  BNZ   51F4
....................    { 
....................       ActualizaRecta(); 
051EE:  RCALL  4B76
....................       tiemporecta=0; 
051F0:  MOVLB  3
051F2:  CLRF   x40
....................    }  
....................    Tactual=((PresionCamara+72)*(PresionCamara+72)*p1)+((PresionCamara+72)*p2)+p3; 
051F4:  MOVLW  48
051F6:  MOVLB  3
051F8:  ADDWF  x62,W
051FA:  MOVLB  4
051FC:  MOVWF  x15
051FE:  MOVLW  00
05200:  MOVLB  3
05202:  ADDWFC x63,W
05204:  MOVLB  4
05206:  MOVWF  x16
05208:  MOVLW  48
0520A:  MOVLB  3
0520C:  ADDWF  x62,W
0520E:  MOVWF  01
05210:  MOVLW  00
05212:  ADDWFC x63,W
05214:  MOVWF  03
05216:  MOVFF  01,417
0521A:  MOVLB  4
0521C:  MOVWF  x18
0521E:  MOVFF  416,41A
05222:  MOVFF  415,419
05226:  MOVWF  x1C
05228:  MOVFF  01,41B
0522C:  MOVLB  0
0522E:  CALL   365E
05232:  MOVFF  02,416
05236:  MOVFF  01,415
0523A:  MOVFF  02,42B
0523E:  MOVFF  01,42A
05242:  CALL   183C
05246:  MOVFF  03,431
0524A:  MOVFF  02,430
0524E:  MOVFF  01,42F
05252:  MOVFF  00,42E
05256:  MOVFF  32E,435
0525A:  MOVFF  32D,434
0525E:  MOVFF  32C,433
05262:  MOVFF  32B,432
05266:  CALL   3680
0526A:  MOVFF  00,415
0526E:  MOVFF  01,416
05272:  MOVFF  02,417
05276:  MOVFF  03,418
0527A:  MOVLW  48
0527C:  MOVLB  3
0527E:  ADDWF  x62,W
05280:  MOVLB  4
05282:  MOVWF  x19
05284:  MOVLW  00
05286:  MOVLB  3
05288:  ADDWFC x63,W
0528A:  MOVLB  4
0528C:  MOVWF  x1A
0528E:  MOVWF  x2B
05290:  MOVFF  419,42A
05294:  MOVLB  0
05296:  CALL   183C
0529A:  MOVFF  03,431
0529E:  MOVFF  02,430
052A2:  MOVFF  01,42F
052A6:  MOVFF  00,42E
052AA:  MOVFF  332,435
052AE:  MOVFF  331,434
052B2:  MOVFF  330,433
052B6:  MOVFF  32F,432
052BA:  CALL   3680
052BE:  BCF    FD8.1
052C0:  MOVFF  418,42D
052C4:  MOVFF  417,42C
052C8:  MOVFF  416,42B
052CC:  MOVFF  415,42A
052D0:  MOVFF  03,431
052D4:  MOVFF  02,430
052D8:  MOVFF  01,42F
052DC:  MOVFF  00,42E
052E0:  CALL   19D0
052E4:  MOVFF  00,415
052E8:  MOVFF  01,416
052EC:  MOVFF  02,417
052F0:  MOVFF  03,418
052F4:  BCF    FD8.1
052F6:  MOVFF  03,42D
052FA:  MOVFF  02,42C
052FE:  MOVFF  01,42B
05302:  MOVFF  00,42A
05306:  MOVFF  336,431
0530A:  MOVFF  335,430
0530E:  MOVFF  334,42F
05312:  MOVFF  333,42E
05316:  CALL   19D0
0531A:  MOVFF  03,33A
0531E:  MOVFF  02,339
05322:  MOVFF  01,338
05326:  MOVFF  00,337
.................... //-------------------------------Control de Calentamiento------------------------------------------------------------//          
....................    if(Esterilizando){ 
0532A:  BTFSS  xA0.2
0532C:  BRA    53AA
....................       error=desvio+Setpoint-Tactual;      // Clculo del error ****** 
0532E:  MOVLB  4
05330:  CLRF   x2B
05332:  MOVFF  350,42A
05336:  MOVLB  0
05338:  CALL   183C
0533C:  BCF    FD8.1
0533E:  MOVFF  302,42D
05342:  MOVFF  301,42C
05346:  MOVFF  300,42B
0534A:  MOVFF  2FF,42A
0534E:  MOVFF  03,431
05352:  MOVFF  02,430
05356:  MOVFF  01,42F
0535A:  MOVFF  00,42E
0535E:  CALL   19D0
05362:  MOVFF  00,415
05366:  MOVFF  01,416
0536A:  MOVFF  02,417
0536E:  MOVFF  03,418
05372:  BSF    FD8.1
05374:  MOVFF  03,42D
05378:  MOVFF  02,42C
0537C:  MOVFF  01,42B
05380:  MOVFF  00,42A
05384:  MOVFF  33A,431
05388:  MOVFF  339,430
0538C:  MOVFF  338,42F
05390:  MOVFF  337,42E
05394:  CALL   19D0
05398:  MOVFF  03,2EA
0539C:  MOVFF  02,2E9
053A0:  MOVFF  01,2E8
053A4:  MOVFF  00,2E7
....................    }else{ 
053A8:  BRA    545A
....................       error=desvio+1.5+Setpoint-Tactual;      // Clculo del error ****** 
053AA:  BCF    FD8.1
053AC:  MOVFF  302,42D
053B0:  MOVFF  301,42C
053B4:  MOVFF  300,42B
053B8:  MOVFF  2FF,42A
053BC:  MOVLB  4
053BE:  CLRF   x31
053C0:  CLRF   x30
053C2:  MOVLW  40
053C4:  MOVWF  x2F
053C6:  MOVLW  7F
053C8:  MOVWF  x2E
053CA:  MOVLB  0
053CC:  CALL   19D0
053D0:  MOVFF  00,415
053D4:  MOVFF  01,416
053D8:  MOVFF  02,417
053DC:  MOVFF  03,418
053E0:  MOVLB  4
053E2:  CLRF   x2B
053E4:  MOVFF  350,42A
053E8:  MOVLB  0
053EA:  CALL   183C
053EE:  BCF    FD8.1
053F0:  MOVFF  418,42D
053F4:  MOVFF  417,42C
053F8:  MOVFF  416,42B
053FC:  MOVFF  415,42A
05400:  MOVFF  03,431
05404:  MOVFF  02,430
05408:  MOVFF  01,42F
0540C:  MOVFF  00,42E
05410:  CALL   19D0
05414:  MOVFF  00,415
05418:  MOVFF  01,416
0541C:  MOVFF  02,417
05420:  MOVFF  03,418
05424:  BSF    FD8.1
05426:  MOVFF  03,42D
0542A:  MOVFF  02,42C
0542E:  MOVFF  01,42B
05432:  MOVFF  00,42A
05436:  MOVFF  33A,431
0543A:  MOVFF  339,430
0543E:  MOVFF  338,42F
05442:  MOVFF  337,42E
05446:  CALL   19D0
0544A:  MOVFF  03,2EA
0544E:  MOVFF  02,2E9
05452:  MOVFF  01,2E8
05456:  MOVFF  00,2E7
....................    } 
....................     
....................    if(error>1.0 && error<15 && Aumento<0.3) 
0545A:  MOVLB  4
0545C:  CLRF   x1C
0545E:  CLRF   x1B
05460:  CLRF   x1A
05462:  MOVLW  7F
05464:  MOVWF  x19
05466:  MOVFF  2EA,420
0546A:  MOVFF  2E9,41F
0546E:  MOVFF  2E8,41E
05472:  MOVFF  2E7,41D
05476:  MOVLB  0
05478:  CALL   2A96
0547C:  BTFSS  FD8.0
0547E:  BRA    56A6
05480:  MOVFF  2EA,41C
05484:  MOVFF  2E9,41B
05488:  MOVFF  2E8,41A
0548C:  MOVFF  2E7,419
05490:  MOVLB  4
05492:  CLRF   x20
05494:  CLRF   x1F
05496:  MOVLW  70
05498:  MOVWF  x1E
0549A:  MOVLW  82
0549C:  MOVWF  x1D
0549E:  MOVLB  0
054A0:  CALL   2A96
054A4:  BTFSS  FD8.0
054A6:  BRA    56A6
054A8:  MOVFF  2C8,41C
054AC:  MOVFF  2C7,41B
054B0:  MOVFF  2C6,41A
054B4:  MOVFF  2C5,419
054B8:  MOVLW  9A
054BA:  MOVLB  4
054BC:  MOVWF  x20
054BE:  MOVLW  99
054C0:  MOVWF  x1F
054C2:  MOVLW  19
054C4:  MOVWF  x1E
054C6:  MOVLW  7D
054C8:  MOVWF  x1D
054CA:  MOVLB  0
054CC:  CALL   2A96
054D0:  BTFSS  FD8.0
054D2:  BRA    56A6
....................    { 
....................       if(Tpulso<4.0) 
054D4:  MOVFF  2E6,41C
054D8:  MOVFF  2E5,41B
054DC:  MOVFF  2E4,41A
054E0:  MOVFF  2E3,419
054E4:  MOVLB  4
054E6:  CLRF   x20
054E8:  CLRF   x1F
054EA:  CLRF   x1E
054EC:  MOVLW  81
054EE:  MOVWF  x1D
054F0:  MOVLB  0
054F2:  CALL   2A96
054F6:  BTFSS  FD8.0
054F8:  BRA    56A4
....................       { 
....................          flagTC=1; 
054FA:  BSF    xA4.6
....................          if(TiempoControl>=Derivativo) 
054FC:  MOVLB  3
054FE:  MOVF   x3C,W
05500:  SUBWF  x76,W
05502:  BTFSS  FD8.0
05504:  BRA    56A0
....................          { 
....................             TiempoControl=0; 
05506:  CLRF   x76
....................             if(Aumento<-0.5){ 
05508:  MOVFF  2C8,41C
0550C:  MOVFF  2C7,41B
05510:  MOVFF  2C6,41A
05514:  MOVFF  2C5,419
05518:  MOVLB  4
0551A:  CLRF   x20
0551C:  CLRF   x1F
0551E:  MOVLW  80
05520:  MOVWF  x1E
05522:  MOVLW  7E
05524:  MOVWF  x1D
05526:  MOVLB  0
05528:  CALL   2A96
0552C:  BNC   559E
....................                Ganancia+=Integral+0.2; 
0552E:  MOVLB  4
05530:  CLRF   x2B
05532:  MOVFF  33B,42A
05536:  MOVLB  0
05538:  CALL   183C
0553C:  BCF    FD8.1
0553E:  MOVFF  03,42D
05542:  MOVFF  02,42C
05546:  MOVFF  01,42B
0554A:  MOVFF  00,42A
0554E:  MOVLW  CD
05550:  MOVLB  4
05552:  MOVWF  x31
05554:  MOVLW  CC
05556:  MOVWF  x30
05558:  MOVLW  4C
0555A:  MOVWF  x2F
0555C:  MOVLW  7C
0555E:  MOVWF  x2E
05560:  MOVLB  0
05562:  CALL   19D0
05566:  BCF    FD8.1
05568:  MOVFF  2FA,42D
0556C:  MOVFF  2F9,42C
05570:  MOVFF  2F8,42B
05574:  MOVFF  2F7,42A
05578:  MOVFF  03,431
0557C:  MOVFF  02,430
05580:  MOVFF  01,42F
05584:  MOVFF  00,42E
05588:  CALL   19D0
0558C:  MOVFF  03,2FA
05590:  MOVFF  02,2F9
05594:  MOVFF  01,2F8
05598:  MOVFF  00,2F7
....................             }else{ 
0559C:  BRA    569E
....................                if(Aumento<-0.1){ 
0559E:  MOVFF  2C8,41C
055A2:  MOVFF  2C7,41B
055A6:  MOVFF  2C6,41A
055AA:  MOVFF  2C5,419
055AE:  MOVLW  CD
055B0:  MOVLB  4
055B2:  MOVWF  x20
055B4:  MOVLW  CC
055B6:  MOVWF  x1F
055B8:  MOVWF  x1E
055BA:  MOVLW  7B
055BC:  MOVWF  x1D
055BE:  MOVLB  0
055C0:  CALL   2A96
055C4:  BNC   5636
....................                   Ganancia+=Integral-0.2; 
055C6:  MOVLB  4
055C8:  CLRF   x2B
055CA:  MOVFF  33B,42A
055CE:  MOVLB  0
055D0:  CALL   183C
055D4:  BSF    FD8.1
055D6:  MOVFF  03,42D
055DA:  MOVFF  02,42C
055DE:  MOVFF  01,42B
055E2:  MOVFF  00,42A
055E6:  MOVLW  CD
055E8:  MOVLB  4
055EA:  MOVWF  x31
055EC:  MOVLW  CC
055EE:  MOVWF  x30
055F0:  MOVLW  4C
055F2:  MOVWF  x2F
055F4:  MOVLW  7C
055F6:  MOVWF  x2E
055F8:  MOVLB  0
055FA:  CALL   19D0
055FE:  BCF    FD8.1
05600:  MOVFF  2FA,42D
05604:  MOVFF  2F9,42C
05608:  MOVFF  2F8,42B
0560C:  MOVFF  2F7,42A
05610:  MOVFF  03,431
05614:  MOVFF  02,430
05618:  MOVFF  01,42F
0561C:  MOVFF  00,42E
05620:  CALL   19D0
05624:  MOVFF  03,2FA
05628:  MOVFF  02,2F9
0562C:  MOVFF  01,2F8
05630:  MOVFF  00,2F7
....................                }else{ 
05634:  BRA    569E
....................                   Ganancia+=Integral-0.5; 
05636:  MOVLB  4
05638:  CLRF   x2B
0563A:  MOVFF  33B,42A
0563E:  MOVLB  0
05640:  CALL   183C
05644:  BSF    FD8.1
05646:  MOVFF  03,42D
0564A:  MOVFF  02,42C
0564E:  MOVFF  01,42B
05652:  MOVFF  00,42A
05656:  MOVLB  4
05658:  CLRF   x31
0565A:  CLRF   x30
0565C:  CLRF   x2F
0565E:  MOVLW  7E
05660:  MOVWF  x2E
05662:  MOVLB  0
05664:  CALL   19D0
05668:  BCF    FD8.1
0566A:  MOVFF  2FA,42D
0566E:  MOVFF  2F9,42C
05672:  MOVFF  2F8,42B
05676:  MOVFF  2F7,42A
0567A:  MOVFF  03,431
0567E:  MOVFF  02,430
05682:  MOVFF  01,42F
05686:  MOVFF  00,42E
0568A:  CALL   19D0
0568E:  MOVFF  03,2FA
05692:  MOVFF  02,2F9
05696:  MOVFF  01,2F8
0569A:  MOVFF  00,2F7
0569E:  MOVLB  3
....................                } 
....................             } 
....................          } 
....................       }else{ 
056A0:  BRA    56A8
056A2:  MOVLB  0
....................          flagTC=0; 
056A4:  BCF    xA4.6
056A6:  MOVLB  3
....................       } 
....................    } 
....................     
....................    if(error<-0.3) 
056A8:  MOVFF  2EA,41C
056AC:  MOVFF  2E9,41B
056B0:  MOVFF  2E8,41A
056B4:  MOVFF  2E7,419
056B8:  MOVLW  9A
056BA:  MOVLB  4
056BC:  MOVWF  x20
056BE:  MOVLW  99
056C0:  MOVWF  x1F
056C2:  MOVWF  x1E
056C4:  MOVLW  7D
056C6:  MOVWF  x1D
056C8:  MOVLB  0
056CA:  CALL   2A96
056CE:  BNC   56E0
....................    { 
....................       Ganancia=Ganancia2; 
056D0:  MOVFF  2FE,2FA
056D4:  MOVFF  2FD,2F9
056D8:  MOVFF  2FC,2F8
056DC:  MOVFF  2FB,2F7
....................    } 
....................     
....................    if(Ganancia<1) 
056E0:  MOVFF  2FA,41C
056E4:  MOVFF  2F9,41B
056E8:  MOVFF  2F8,41A
056EC:  MOVFF  2F7,419
056F0:  MOVLB  4
056F2:  CLRF   x20
056F4:  CLRF   x1F
056F6:  CLRF   x1E
056F8:  MOVLW  7F
056FA:  MOVWF  x1D
056FC:  MOVLB  0
056FE:  CALL   2A96
05702:  BNC   5710
....................    { 
....................       Ganancia=1; 
05704:  MOVLB  2
05706:  CLRF   xFA
05708:  CLRF   xF9
0570A:  CLRF   xF8
0570C:  MOVLW  7F
0570E:  MOVWF  xF7
....................    } 
....................     
....................    if(error<0.0)     // Anti Wind_DOWN     
05710:  MOVFF  2EA,41C
05714:  MOVFF  2E9,41B
05718:  MOVFF  2E8,41A
0571C:  MOVFF  2E7,419
05720:  MOVLB  4
05722:  CLRF   x20
05724:  CLRF   x1F
05726:  CLRF   x1E
05728:  CLRF   x1D
0572A:  MOVLB  0
0572C:  CALL   2A96
05730:  BNC   573E
....................    { 
....................       error=0.0; 
05732:  MOVLB  2
05734:  CLRF   xEA
05736:  CLRF   xE9
05738:  CLRF   xE8
0573A:  CLRF   xE7
0573C:  MOVLB  0
....................    } 
....................    //tmp=(Setpoint-Prom)*Ganancia;  // Control Proporcional. 
....................    tmp=error*Ganancia;  // Control Proporcional. 
0573E:  MOVFF  2EA,431
05742:  MOVFF  2E9,430
05746:  MOVFF  2E8,42F
0574A:  MOVFF  2E7,42E
0574E:  MOVFF  2FA,435
05752:  MOVFF  2F9,434
05756:  MOVFF  2F8,433
0575A:  MOVFF  2F7,432
0575E:  CALL   3680
05762:  MOVFF  03,2F6
05766:  MOVFF  02,2F5
0576A:  MOVFF  01,2F4
0576E:  MOVFF  00,2F3
....................           
....................    if(tmp>Setpoint)   // Anti Wind-UP       
05772:  MOVLB  4
05774:  CLRF   x2B
05776:  MOVFF  350,42A
0577A:  MOVLB  0
0577C:  CALL   183C
05780:  MOVFF  03,41C
05784:  MOVFF  02,41B
05788:  MOVFF  01,41A
0578C:  MOVFF  00,419
05790:  MOVFF  2F6,420
05794:  MOVFF  2F5,41F
05798:  MOVFF  2F4,41E
0579C:  MOVFF  2F3,41D
057A0:  CALL   2A96
057A4:  BNC   57C4
....................    { 
....................       tmp=Setpoint; 
057A6:  MOVLB  4
057A8:  CLRF   x2B
057AA:  MOVFF  350,42A
057AE:  MOVLB  0
057B0:  CALL   183C
057B4:  MOVFF  03,2F6
057B8:  MOVFF  02,2F5
057BC:  MOVFF  01,2F4
057C0:  MOVFF  00,2F3
....................    } 
....................                 
....................    if(tmp<0.0)     // Anti Wind_DOWN     
057C4:  MOVFF  2F6,41C
057C8:  MOVFF  2F5,41B
057CC:  MOVFF  2F4,41A
057D0:  MOVFF  2F3,419
057D4:  MOVLB  4
057D6:  CLRF   x20
057D8:  CLRF   x1F
057DA:  CLRF   x1E
057DC:  CLRF   x1D
057DE:  MOVLB  0
057E0:  CALL   2A96
057E4:  BNC   57F0
....................    { 
....................       tmp=0.0; 
057E6:  MOVLB  2
057E8:  CLRF   xF6
057EA:  CLRF   xF5
057EC:  CLRF   xF4
057EE:  CLRF   xF3
....................    } 
....................     
....................    // Tpulso(t)= Tciclo*(y(t)-ymin)/(ymax - ymin); calculo de ciclo util para control de resistencia.ymax=140.ymin=0; 
....................    // Tpulso es float, hay que pasar ese ciclo a una salida de un puerto usando el TMR1. 
....................    tmp2=(tmp/Setpoint); 
057F0:  MOVLB  4
057F2:  CLRF   x2B
057F4:  MOVFF  350,42A
057F8:  MOVLB  0
057FA:  CALL   183C
057FE:  MOVFF  2F6,41D
05802:  MOVFF  2F5,41C
05806:  MOVFF  2F4,41B
0580A:  MOVFF  2F3,41A
0580E:  MOVFF  03,421
05812:  MOVFF  02,420
05816:  MOVFF  01,41F
0581A:  MOVFF  00,41E
0581E:  CALL   1872
05822:  MOVFF  03,306
05826:  MOVFF  02,305
0582A:  MOVFF  01,304
0582E:  MOVFF  00,303
....................    //if(tmp2>0.8) 
....................    //tmp2=0.8; 
....................    Tpulso=tmp2*Tciclo;   
05832:  MOVFF  306,431
05836:  MOVFF  305,430
0583A:  MOVFF  304,42F
0583E:  MOVFF  303,42E
05842:  MOVFF  2E2,435
05846:  MOVFF  2E1,434
0584A:  MOVFF  2E0,433
0584E:  MOVFF  2DF,432
05852:  CALL   3680
05856:  MOVFF  03,2E6
0585A:  MOVFF  02,2E5
0585E:  MOVFF  01,2E4
05862:  MOVFF  00,2E3
....................                                        
....................    Tp=(Tpulso/0.005); 
05866:  MOVFF  2E6,41D
0586A:  MOVFF  2E5,41C
0586E:  MOVFF  2E4,41B
05872:  MOVFF  2E3,41A
05876:  MOVLW  0A
05878:  MOVLB  4
0587A:  MOVWF  x21
0587C:  MOVLW  D7
0587E:  MOVWF  x20
05880:  MOVLW  23
05882:  MOVWF  x1F
05884:  MOVLW  77
05886:  MOVWF  x1E
05888:  MOVLB  0
0588A:  CALL   1872
0588E:  MOVFF  03,42D
05892:  MOVFF  02,42C
05896:  MOVFF  01,42B
0589A:  MOVFF  00,42A
0589E:  CALL   3CAC
058A2:  MOVFF  02,AC
058A6:  MOVFF  01,AB
....................    Tc=(Tciclo/0.005); 
058AA:  MOVFF  2E2,41D
058AE:  MOVFF  2E1,41C
058B2:  MOVFF  2E0,41B
058B6:  MOVFF  2DF,41A
058BA:  MOVLW  0A
058BC:  MOVLB  4
058BE:  MOVWF  x21
058C0:  MOVLW  D7
058C2:  MOVWF  x20
058C4:  MOVLW  23
058C6:  MOVWF  x1F
058C8:  MOVLW  77
058CA:  MOVWF  x1E
058CC:  MOVLB  0
058CE:  CALL   1872
058D2:  MOVFF  03,42D
058D6:  MOVFF  02,42C
058DA:  MOVFF  01,42B
058DE:  MOVFF  00,42A
058E2:  CALL   3CAC
058E6:  MOVFF  02,AE
058EA:  MOVFF  01,AD
....................    Controlando=1;    
058EE:  MOVLW  01
058F0:  MOVLB  3
058F2:  MOVWF  x41
.................... //--------------------------------------------------------------------------------------------------------------------//    
.................... } 
058F4:  MOVLB  0
058F6:  RETLW  00
....................  
.................... void Envio_I2C(direccion, posicion, dato){ 
....................  
....................    i2c_start();            // Comienzo comunicacin 
*
03EAC:  BSF    F94.4
03EAE:  MOVLW  05
03EB0:  MOVWF  00
03EB2:  DECFSZ 00,F
03EB4:  BRA    3EB2
03EB6:  BSF    F94.3
03EB8:  MOVLW  06
03EBA:  MOVWF  00
03EBC:  DECFSZ 00,F
03EBE:  BRA    3EBC
03EC0:  BCF    F8B.4
03EC2:  BCF    F94.4
03EC4:  MOVLW  05
03EC6:  MOVWF  00
03EC8:  DECFSZ 00,F
03ECA:  BRA    3EC8
03ECC:  BCF    F8B.3
03ECE:  BCF    F94.3
....................    i2c_write(direccion);   // Direccin del esclavo en el bus I2C 
03ED0:  MOVFF  42B,42E
03ED4:  RCALL  3E36
....................    i2c_write(posicion);    // Posicin donde se guardara el dato transmitido 
03ED6:  MOVFF  42C,42E
03EDA:  RCALL  3E36
....................    i2c_write(dato);        // Dato a transmitir 
03EDC:  MOVFF  42D,42E
03EE0:  RCALL  3E36
....................    i2c_stop();             // Fin comunicacin 
03EE2:  BCF    F94.4
03EE4:  NOP   
03EE6:  BSF    F94.3
03EE8:  BTFSS  F82.3
03EEA:  BRA    3EE8
03EEC:  MOVLW  05
03EEE:  MOVWF  00
03EF0:  DECFSZ 00,F
03EF2:  BRA    3EF0
03EF4:  BRA    3EF6
03EF6:  NOP   
03EF8:  BSF    F94.4
03EFA:  MOVLW  05
03EFC:  MOVWF  00
03EFE:  DECFSZ 00,F
03F00:  BRA    3EFE
....................  } 
03F02:  GOTO   3F3C (RETURN)
....................  
.................... void Lectura_I2C (byte direccion, byte posicion, byte &dato) { 
....................  
....................    i2c_start();            // Comienzo de la comunicacin 
....................    i2c_write(direccion);   // Direccin del esclavo en el bus I2C 
....................    i2c_write(posicion);    // Posicin de donde se leer el dato en el esclavo 
....................    i2c_start();            // Reinicio 
....................    i2c_write(direccion+1); // Direccin del esclavo en modo lectura 
....................    dato=i2c_read(0);       // Lectura del dato 
....................    i2c_stop();             // Fin comunicacin 
.................... } 
....................  
.................... void Carga_Vector(void){ 
....................    SlaveA0Tx[0]=(int8)Temperatura; 
*
03CE8:  MOVFF  31A,42D
03CEC:  MOVFF  319,42C
03CF0:  MOVFF  318,42B
03CF4:  MOVFF  317,42A
03CF8:  RCALL  3CAC
03CFA:  MOVFF  01,64
....................    SlaveA0Tx[1]=(Temperatura-((int8)Temperatura))*10; 
03CFE:  MOVFF  31A,42D
03D02:  MOVFF  319,42C
03D06:  MOVFF  318,42B
03D0A:  MOVFF  317,42A
03D0E:  RCALL  3CAC
03D10:  MOVLB  4
03D12:  CLRF   x2B
03D14:  MOVFF  01,42A
03D18:  MOVLB  0
03D1A:  CALL   183C
03D1E:  BSF    FD8.1
03D20:  MOVFF  31A,42D
03D24:  MOVFF  319,42C
03D28:  MOVFF  318,42B
03D2C:  MOVFF  317,42A
03D30:  MOVFF  03,431
03D34:  MOVFF  02,430
03D38:  MOVFF  01,42F
03D3C:  MOVFF  00,42E
03D40:  CALL   19D0
03D44:  MOVFF  00,42A
03D48:  MOVFF  01,42B
03D4C:  MOVFF  02,42C
03D50:  MOVFF  03,42D
03D54:  MOVFF  03,431
03D58:  MOVFF  02,430
03D5C:  MOVFF  01,42F
03D60:  MOVFF  00,42E
03D64:  MOVLB  4
03D66:  CLRF   x35
03D68:  CLRF   x34
03D6A:  MOVLW  20
03D6C:  MOVWF  x33
03D6E:  MOVLW  82
03D70:  MOVWF  x32
03D72:  MOVLB  0
03D74:  RCALL  3680
03D76:  MOVFF  03,42D
03D7A:  MOVFF  02,42C
03D7E:  MOVFF  01,42B
03D82:  MOVFF  00,42A
03D86:  RCALL  3CAC
03D88:  MOVFF  01,65
....................    SlaveA0Tx[2]=make8((int16)PresionCamara,0); 
03D8C:  MOVFF  362,66
03D90:  MOVLB  0
....................    SlaveA0Tx[3]=make8((int16)PresionCamara,1); 
03D92:  MOVFF  363,67
03D96:  MOVLB  0
....................    SlaveA0Tx[4]=make8((int16)PresionPreCamara,0); 
03D98:  MOVFF  364,68
03D9C:  MOVLB  0
....................    SlaveA0Tx[5]=make8((int16)PresionPreCamara,1); 
03D9E:  MOVFF  365,69
03DA2:  MOVLB  0
....................    SlaveA0Tx[6]=(int8)Tpulso*10; 
03DA4:  MOVFF  2E6,42D
03DA8:  MOVFF  2E5,42C
03DAC:  MOVFF  2E4,42B
03DB0:  MOVFF  2E3,42A
03DB4:  RCALL  3CAC
03DB6:  MOVF   01,W
03DB8:  MULLW  0A
03DBA:  MOVFF  FF3,6A
....................    SlaveA0Tx[7]=HIG; 
03DBE:  BSF    F94.0
03DC0:  CLRF   x6B
03DC2:  BTFSC  F82.0
03DC4:  INCF   x6B,F
....................    SlaveA0Tx[8]=LOW; 
03DC6:  BSF    F94.1
03DC8:  CLRF   x6C
03DCA:  BTFSC  F82.1
03DCC:  INCF   x6C,F
....................    SlaveA0Tx[9]=TERM; 
03DCE:  BSF    F93.5
03DD0:  CLRF   x6D
03DD2:  BTFSS  F81.5
03DD4:  INCF   x6D,F
....................    SlaveA0Tx[10]=DOOR; 
03DD6:  BSF    F93.6
03DD8:  CLRF   x6E
03DDA:  BTFSS  F81.6
03DDC:  INCF   x6E,F
....................    SlaveA0Tx[11]=STOP; 
03DDE:  BSF    F93.7
03DE0:  CLRF   x6F
03DE2:  BTFSS  F81.7
03DE4:  INCF   x6F,F
....................    SlaveA0Tx[12]=(int8)error; 
03DE6:  MOVFF  2EA,42D
03DEA:  MOVFF  2E9,42C
03DEE:  MOVFF  2E8,42B
03DF2:  MOVFF  2E7,42A
03DF6:  RCALL  3CAC
03DF8:  MOVFF  01,70
....................    SlaveA0Tx[13]=CicloSeleccionado; 
03DFC:  MOVFF  34F,71
....................    SlaveA0Tx[14]=SetTime; 
03E00:  MOVFF  38D,72
....................    SlaveA0Tx[15]=Dia; 
03E04:  MOVFF  381,73
....................    SlaveA0Tx[16]=Mes; 
03E08:  MOVFF  380,74
....................    SlaveA0Tx[17]=Year; 
03E0C:  MOVFF  37F,75
....................    SlaveA0Tx[18]=Hora; 
03E10:  MOVFF  382,76
....................    SlaveA0Tx[19]=Minuto; 
03E14:  MOVFF  383,77
....................    SlaveA0Tx[20]=Segundo; 
03E18:  MOVFF  384,78
....................    SlaveA0Tx[21]=Imprime; 
03E1C:  MOVFF  38E,79
....................    SlaveA0Tx[22]=Aire; 
03E20:  CLRF   x7A
03E22:  BTFSC  xA3.7
03E24:  INCF   x7A,F
....................    SlaveA0Tx[23]=make8(Ciclos,0); 
03E26:  MOVFF  366,7B
03E2A:  MOVLB  0
....................    SlaveA0Tx[24]=make8(Ciclos,1); 
03E2C:  MOVFF  367,7C
03E30:  MOVLB  0
.................... } 
03E32:  GOTO   3F08 (RETURN)
....................  
.................... void Lee_Vector(void){ 
....................    /*Dia=txbuf[0]; 
....................    Mess=txbuf[1]; 
....................    Year=txbuf[2]; 
....................    Hora=txbuf[3]; 
....................    Minuto=txbuf[4]; 
....................    Segundo=txbuf[5]; 
....................    dow=txbuf[6];*/ 
.................... } 
....................  
.................... void Envio_Esclavos(void){ 
....................    Carga_Vector(); 
*
03F06:  BRA    3CE8
....................    for(i=0;i<25;i++) 
03F08:  MOVLB  3
03F0A:  CLRF   x4C
03F0C:  MOVF   x4C,W
03F0E:  SUBLW  18
03F10:  BNC   3F42
....................    { 
....................       direccion=0xB0; 
03F12:  MOVLW  B0
03F14:  MOVLB  0
03F16:  MOVWF  x85
....................       Envio_I2C(direccion,i,SlaveA0Tx[i]); 
03F18:  CLRF   03
03F1A:  MOVLB  3
03F1C:  MOVF   x4C,W
03F1E:  ADDLW  64
03F20:  MOVWF  FE9
03F22:  MOVLW  00
03F24:  ADDWFC 03,W
03F26:  MOVWF  FEA
03F28:  MOVFF  FEF,42A
03F2C:  MOVFF  85,42B
03F30:  MOVFF  34C,42C
03F34:  MOVFF  42A,42D
03F38:  MOVLB  0
03F3A:  BRA    3EAC
....................    }  
03F3C:  MOVLB  3
03F3E:  INCF   x4C,F
03F40:  BRA    3F0C
.................... } 
03F42:  MOVLB  0
03F44:  RETLW  00
.................... void Lectura_Esclavos(void){ 
....................    //for(i=0;i<7;i++) 
....................    //{ 
....................    //   direccion=0xA0;                        //Direccin en el bus I2c 
....................    //   posicion=i;                         //Posicin de memoria a leer 
....................    //   Lectura_I2C(direccion, posicion, dato);    //Lectura por I2C 
....................    //   txbuf[i]=(int8)dato; 
....................    //} 
....................    //Lee_Vector(); 
.................... } 
....................  
.................... void LeeEEPROM(){ 
.................... //Lectura EEPROM//-------------------------- 
....................    Testerilizacionp[0]=read_eeprom(0); 
*
01C48:  MOVFF  FF2,415
01C4C:  BCF    FF2.6
01C4E:  BCF    FF2.7
01C50:  CLRF   FAA
01C52:  CLRF   FA9
01C54:  BCF    FA6.6
01C56:  BCF    FA6.7
01C58:  BSF    FA6.0
01C5A:  MOVF   FA8,W
01C5C:  MOVLB  4
01C5E:  BTFSC  x15.6
01C60:  BSF    FF2.6
01C62:  BTFSC  x15.7
01C64:  BSF    FF2.7
01C66:  MOVLB  0
01C68:  MOVWF  xB8
....................    delay_ms(10); 
01C6A:  MOVLW  0A
01C6C:  MOVLB  4
01C6E:  MOVWF  x2A
01C70:  MOVLB  0
01C72:  RCALL  1814
....................    Testerilizacionp[1]=read_eeprom(1); 
01C74:  MOVFF  FF2,415
01C78:  BCF    FF2.6
01C7A:  BCF    FF2.7
01C7C:  CLRF   FAA
01C7E:  MOVLW  01
01C80:  MOVWF  FA9
01C82:  BCF    FA6.6
01C84:  BCF    FA6.7
01C86:  BSF    FA6.0
01C88:  MOVF   FA8,W
01C8A:  MOVLB  4
01C8C:  BTFSC  x15.6
01C8E:  BSF    FF2.6
01C90:  BTFSC  x15.7
01C92:  BSF    FF2.7
01C94:  MOVLB  0
01C96:  MOVWF  xB9
....................    delay_ms(10); 
01C98:  MOVLW  0A
01C9A:  MOVLB  4
01C9C:  MOVWF  x2A
01C9E:  MOVLB  0
01CA0:  RCALL  1814
....................    Testerilizacionp[2]=read_eeprom(2); 
01CA2:  MOVFF  FF2,415
01CA6:  BCF    FF2.6
01CA8:  BCF    FF2.7
01CAA:  CLRF   FAA
01CAC:  MOVLW  02
01CAE:  MOVWF  FA9
01CB0:  BCF    FA6.6
01CB2:  BCF    FA6.7
01CB4:  BSF    FA6.0
01CB6:  MOVF   FA8,W
01CB8:  MOVLB  4
01CBA:  BTFSC  x15.6
01CBC:  BSF    FF2.6
01CBE:  BTFSC  x15.7
01CC0:  BSF    FF2.7
01CC2:  MOVLB  0
01CC4:  MOVWF  xBA
....................    delay_ms(10); 
01CC6:  MOVLW  0A
01CC8:  MOVLB  4
01CCA:  MOVWF  x2A
01CCC:  MOVLB  0
01CCE:  RCALL  1814
....................    Testerilizacionp[3]=read_eeprom(3); 
01CD0:  MOVFF  FF2,415
01CD4:  BCF    FF2.6
01CD6:  BCF    FF2.7
01CD8:  CLRF   FAA
01CDA:  MOVLW  03
01CDC:  MOVWF  FA9
01CDE:  BCF    FA6.6
01CE0:  BCF    FA6.7
01CE2:  BSF    FA6.0
01CE4:  MOVF   FA8,W
01CE6:  MOVLB  4
01CE8:  BTFSC  x15.6
01CEA:  BSF    FF2.6
01CEC:  BTFSC  x15.7
01CEE:  BSF    FF2.7
01CF0:  MOVLB  0
01CF2:  MOVWF  xBB
....................    delay_ms(10); 
01CF4:  MOVLW  0A
01CF6:  MOVLB  4
01CF8:  MOVWF  x2A
01CFA:  MOVLB  0
01CFC:  RCALL  1814
....................    Tsecadop[0]=read_eeprom(4); 
01CFE:  MOVFF  FF2,415
01D02:  BCF    FF2.6
01D04:  BCF    FF2.7
01D06:  CLRF   FAA
01D08:  MOVLW  04
01D0A:  MOVWF  FA9
01D0C:  BCF    FA6.6
01D0E:  BCF    FA6.7
01D10:  BSF    FA6.0
01D12:  MOVF   FA8,W
01D14:  MOVLB  4
01D16:  BTFSC  x15.6
01D18:  BSF    FF2.6
01D1A:  BTFSC  x15.7
01D1C:  BSF    FF2.7
01D1E:  MOVLB  0
01D20:  MOVWF  xC1
....................    delay_ms(10); 
01D22:  MOVLW  0A
01D24:  MOVLB  4
01D26:  MOVWF  x2A
01D28:  MOVLB  0
01D2A:  RCALL  1814
....................    Tsecadop[1]=read_eeprom(5); 
01D2C:  MOVFF  FF2,415
01D30:  BCF    FF2.6
01D32:  BCF    FF2.7
01D34:  CLRF   FAA
01D36:  MOVLW  05
01D38:  MOVWF  FA9
01D3A:  BCF    FA6.6
01D3C:  BCF    FA6.7
01D3E:  BSF    FA6.0
01D40:  MOVF   FA8,W
01D42:  MOVLB  4
01D44:  BTFSC  x15.6
01D46:  BSF    FF2.6
01D48:  BTFSC  x15.7
01D4A:  BSF    FF2.7
01D4C:  MOVLB  0
01D4E:  MOVWF  xC2
....................    delay_ms(10); 
01D50:  MOVLW  0A
01D52:  MOVLB  4
01D54:  MOVWF  x2A
01D56:  MOVLB  0
01D58:  RCALL  1814
....................    Tsecadop[2]=read_eeprom(6); 
01D5A:  MOVFF  FF2,415
01D5E:  BCF    FF2.6
01D60:  BCF    FF2.7
01D62:  CLRF   FAA
01D64:  MOVLW  06
01D66:  MOVWF  FA9
01D68:  BCF    FA6.6
01D6A:  BCF    FA6.7
01D6C:  BSF    FA6.0
01D6E:  MOVF   FA8,W
01D70:  MOVLB  4
01D72:  BTFSC  x15.6
01D74:  BSF    FF2.6
01D76:  BTFSC  x15.7
01D78:  BSF    FF2.7
01D7A:  MOVLB  0
01D7C:  MOVWF  xC3
....................    delay_ms(10); 
01D7E:  MOVLW  0A
01D80:  MOVLB  4
01D82:  MOVWF  x2A
01D84:  MOVLB  0
01D86:  RCALL  1814
....................    Tsecadop[3]=read_eeprom(7); 
01D88:  MOVFF  FF2,415
01D8C:  BCF    FF2.6
01D8E:  BCF    FF2.7
01D90:  CLRF   FAA
01D92:  MOVLW  07
01D94:  MOVWF  FA9
01D96:  BCF    FA6.6
01D98:  BCF    FA6.7
01D9A:  BSF    FA6.0
01D9C:  MOVF   FA8,W
01D9E:  MOVLB  4
01DA0:  BTFSC  x15.6
01DA2:  BSF    FF2.6
01DA4:  BTFSC  x15.7
01DA6:  BSF    FF2.7
01DA8:  MOVLB  0
01DAA:  MOVWF  xC4
....................    delay_ms(10); 
01DAC:  MOVLW  0A
01DAE:  MOVLB  4
01DB0:  MOVWF  x2A
01DB2:  MOVLB  0
01DB4:  RCALL  1814
....................    Setpoint=read_eeprom(8); 
01DB6:  MOVFF  FF2,415
01DBA:  BCF    FF2.6
01DBC:  BCF    FF2.7
01DBE:  CLRF   FAA
01DC0:  MOVLW  08
01DC2:  MOVWF  FA9
01DC4:  BCF    FA6.6
01DC6:  BCF    FA6.7
01DC8:  BSF    FA6.0
01DCA:  MOVF   FA8,W
01DCC:  MOVLB  4
01DCE:  BTFSC  x15.6
01DD0:  BSF    FF2.6
01DD2:  BTFSC  x15.7
01DD4:  BSF    FF2.7
01DD6:  MOVLB  3
01DD8:  MOVWF  x50
....................    delay_ms(10); 
01DDA:  MOVLW  0A
01DDC:  MOVLB  4
01DDE:  MOVWF  x2A
01DE0:  MOVLB  0
01DE2:  RCALL  1814
....................    Nivel=read_eeprom(9); 
01DE4:  MOVFF  FF2,415
01DE8:  BCF    FF2.6
01DEA:  BCF    FF2.7
01DEC:  CLRF   FAA
01DEE:  MOVLW  09
01DF0:  MOVWF  FA9
01DF2:  BCF    FA6.6
01DF4:  BCF    FA6.7
01DF6:  BSF    FA6.0
01DF8:  MOVF   FA8,W
01DFA:  MOVLB  4
01DFC:  BTFSC  x15.6
01DFE:  BSF    FF2.6
01E00:  BTFSC  x15.7
01E02:  BSF    FF2.7
01E04:  MOVLB  3
01E06:  CLRF   x5F
01E08:  MOVWF  x5E
....................    delay_ms(10); 
01E0A:  MOVLW  0A
01E0C:  MOVLB  4
01E0E:  MOVWF  x2A
01E10:  MOVLB  0
01E12:  RCALL  1814
....................    Password[0]=read_eeprom(10); 
01E14:  MOVFF  FF2,415
01E18:  BCF    FF2.6
01E1A:  BCF    FF2.7
01E1C:  CLRF   FAA
01E1E:  MOVLW  0A
01E20:  MOVWF  FA9
01E22:  BCF    FA6.6
01E24:  BCF    FA6.7
01E26:  BSF    FA6.0
01E28:  MOVF   FA8,W
01E2A:  MOVLB  4
01E2C:  BTFSC  x15.6
01E2E:  BSF    FF2.6
01E30:  BTFSC  x15.7
01E32:  BSF    FF2.7
01E34:  MOVLB  3
01E36:  MOVWF  x6E
....................    delay_ms(10); 
01E38:  MOVLW  0A
01E3A:  MOVLB  4
01E3C:  MOVWF  x2A
01E3E:  MOVLB  0
01E40:  RCALL  1814
....................    Password[1]=read_eeprom(11); 
01E42:  MOVFF  FF2,415
01E46:  BCF    FF2.6
01E48:  BCF    FF2.7
01E4A:  CLRF   FAA
01E4C:  MOVLW  0B
01E4E:  MOVWF  FA9
01E50:  BCF    FA6.6
01E52:  BCF    FA6.7
01E54:  BSF    FA6.0
01E56:  MOVF   FA8,W
01E58:  MOVLB  4
01E5A:  BTFSC  x15.6
01E5C:  BSF    FF2.6
01E5E:  BTFSC  x15.7
01E60:  BSF    FF2.7
01E62:  MOVLB  3
01E64:  MOVWF  x6F
....................    delay_ms(10); 
01E66:  MOVLW  0A
01E68:  MOVLB  4
01E6A:  MOVWF  x2A
01E6C:  MOVLB  0
01E6E:  RCALL  1814
....................    Password[2]=read_eeprom(12); 
01E70:  MOVFF  FF2,415
01E74:  BCF    FF2.6
01E76:  BCF    FF2.7
01E78:  CLRF   FAA
01E7A:  MOVLW  0C
01E7C:  MOVWF  FA9
01E7E:  BCF    FA6.6
01E80:  BCF    FA6.7
01E82:  BSF    FA6.0
01E84:  MOVF   FA8,W
01E86:  MOVLB  4
01E88:  BTFSC  x15.6
01E8A:  BSF    FF2.6
01E8C:  BTFSC  x15.7
01E8E:  BSF    FF2.7
01E90:  MOVLB  3
01E92:  MOVWF  x70
....................    delay_ms(10); 
01E94:  MOVLW  0A
01E96:  MOVLB  4
01E98:  MOVWF  x2A
01E9A:  MOVLB  0
01E9C:  RCALL  1814
....................    Password[3]=read_eeprom(13); 
01E9E:  MOVFF  FF2,415
01EA2:  BCF    FF2.6
01EA4:  BCF    FF2.7
01EA6:  CLRF   FAA
01EA8:  MOVLW  0D
01EAA:  MOVWF  FA9
01EAC:  BCF    FA6.6
01EAE:  BCF    FA6.7
01EB0:  BSF    FA6.0
01EB2:  MOVF   FA8,W
01EB4:  MOVLB  4
01EB6:  BTFSC  x15.6
01EB8:  BSF    FF2.6
01EBA:  BTFSC  x15.7
01EBC:  BSF    FF2.7
01EBE:  MOVLB  3
01EC0:  MOVWF  x71
....................    delay_ms(10); 
01EC2:  MOVLW  0A
01EC4:  MOVLB  4
01EC6:  MOVWF  x2A
01EC8:  MOVLB  0
01ECA:  RCALL  1814
....................    Ganancia=read_eeprom(20); 
01ECC:  MOVFF  FF2,415
01ED0:  BCF    FF2.6
01ED2:  BCF    FF2.7
01ED4:  CLRF   FAA
01ED6:  MOVLW  14
01ED8:  MOVWF  FA9
01EDA:  BCF    FA6.6
01EDC:  BCF    FA6.7
01EDE:  BSF    FA6.0
01EE0:  MOVF   FA8,W
01EE2:  MOVLB  4
01EE4:  BTFSC  x15.6
01EE6:  BSF    FF2.6
01EE8:  BTFSC  x15.7
01EEA:  BSF    FF2.7
01EEC:  CLRF   x2B
01EEE:  MOVWF  x2A
01EF0:  MOVLB  0
01EF2:  RCALL  183C
01EF4:  MOVFF  03,2FA
01EF8:  MOVFF  02,2F9
01EFC:  MOVFF  01,2F8
01F00:  MOVFF  00,2F7
....................    delay_ms(10); 
01F04:  MOVLW  0A
01F06:  MOVLB  4
01F08:  MOVWF  x2A
01F0A:  MOVLB  0
01F0C:  RCALL  1814
....................    Ajuste=read_eeprom(21); 
01F0E:  MOVFF  FF2,415
01F12:  BCF    FF2.6
01F14:  BCF    FF2.7
01F16:  CLRF   FAA
01F18:  MOVLW  15
01F1A:  MOVWF  FA9
01F1C:  BCF    FA6.6
01F1E:  BCF    FA6.7
01F20:  BSF    FA6.0
01F22:  MOVF   FA8,W
01F24:  MOVLB  4
01F26:  BTFSC  x15.6
01F28:  BSF    FF2.6
01F2A:  BTFSC  x15.7
01F2C:  BSF    FF2.7
01F2E:  MOVLB  2
01F30:  MOVWF  xCF
....................    delay_ms(10); 
01F32:  MOVLW  0A
01F34:  MOVLB  4
01F36:  MOVWF  x2A
01F38:  MOVLB  0
01F3A:  RCALL  1814
....................    Ajusten=read_eeprom(22); 
01F3C:  MOVFF  FF2,415
01F40:  BCF    FF2.6
01F42:  BCF    FF2.7
01F44:  CLRF   FAA
01F46:  MOVLW  16
01F48:  MOVWF  FA9
01F4A:  BCF    FA6.6
01F4C:  BCF    FA6.7
01F4E:  BSF    FA6.0
01F50:  MOVF   FA8,W
01F52:  MOVLB  4
01F54:  BTFSC  x15.6
01F56:  BSF    FF2.6
01F58:  BTFSC  x15.7
01F5A:  BSF    FF2.7
01F5C:  MOVLB  2
01F5E:  MOVWF  xD0
....................    delay_ms(10); 
01F60:  MOVLW  0A
01F62:  MOVLB  4
01F64:  MOVWF  x2A
01F66:  MOVLB  0
01F68:  RCALL  1814
....................    //Desvio=read_eeprom(23); 
....................    MediaMovil=read_eeprom(24); 
01F6A:  MOVFF  FF2,415
01F6E:  BCF    FF2.6
01F70:  BCF    FF2.7
01F72:  CLRF   FAA
01F74:  MOVLW  18
01F76:  MOVWF  FA9
01F78:  BCF    FA6.6
01F7A:  BCF    FA6.7
01F7C:  BSF    FA6.0
01F7E:  MOVF   FA8,W
01F80:  MOVLB  4
01F82:  BTFSC  x15.6
01F84:  BSF    FF2.6
01F86:  BTFSC  x15.7
01F88:  BSF    FF2.7
01F8A:  MOVLB  2
01F8C:  MOVWF  xD1
....................    delay_ms(10); 
01F8E:  MOVLW  0A
01F90:  MOVLB  4
01F92:  MOVWF  x2A
01F94:  MOVLB  0
01F96:  RCALL  1814
....................    Tciclo=read_eeprom(25); 
01F98:  MOVFF  FF2,415
01F9C:  BCF    FF2.6
01F9E:  BCF    FF2.7
01FA0:  CLRF   FAA
01FA2:  MOVLW  19
01FA4:  MOVWF  FA9
01FA6:  BCF    FA6.6
01FA8:  BCF    FA6.7
01FAA:  BSF    FA6.0
01FAC:  MOVF   FA8,W
01FAE:  MOVLB  4
01FB0:  BTFSC  x15.6
01FB2:  BSF    FF2.6
01FB4:  BTFSC  x15.7
01FB6:  BSF    FF2.7
01FB8:  CLRF   x2B
01FBA:  MOVWF  x2A
01FBC:  MOVLB  0
01FBE:  RCALL  183C
01FC0:  MOVFF  03,2E2
01FC4:  MOVFF  02,2E1
01FC8:  MOVFF  01,2E0
01FCC:  MOVFF  00,2DF
....................    delay_ms(10); 
01FD0:  MOVLW  0A
01FD2:  MOVLB  4
01FD4:  MOVWF  x2A
01FD6:  MOVLB  0
01FD8:  RCALL  1814
....................    Integral=read_eeprom(26); 
01FDA:  MOVFF  FF2,415
01FDE:  BCF    FF2.6
01FE0:  BCF    FF2.7
01FE2:  CLRF   FAA
01FE4:  MOVLW  1A
01FE6:  MOVWF  FA9
01FE8:  BCF    FA6.6
01FEA:  BCF    FA6.7
01FEC:  BSF    FA6.0
01FEE:  MOVF   FA8,W
01FF0:  MOVLB  4
01FF2:  BTFSC  x15.6
01FF4:  BSF    FF2.6
01FF6:  BTFSC  x15.7
01FF8:  BSF    FF2.7
01FFA:  MOVLB  3
01FFC:  MOVWF  x3B
....................    delay_ms(10); 
01FFE:  MOVLW  0A
02000:  MOVLB  4
02002:  MOVWF  x2A
02004:  MOVLB  0
02006:  RCALL  1814
....................    Derivativo=read_eeprom(27); 
02008:  MOVFF  FF2,415
0200C:  BCF    FF2.6
0200E:  BCF    FF2.7
02010:  CLRF   FAA
02012:  MOVLW  1B
02014:  MOVWF  FA9
02016:  BCF    FA6.6
02018:  BCF    FA6.7
0201A:  BSF    FA6.0
0201C:  MOVF   FA8,W
0201E:  MOVLB  4
02020:  BTFSC  x15.6
02022:  BSF    FF2.6
02024:  BTFSC  x15.7
02026:  BSF    FF2.7
02028:  MOVLB  3
0202A:  MOVWF  x3C
....................    delay_ms(10); 
0202C:  MOVLW  0A
0202E:  MOVLB  4
02030:  MOVWF  x2A
02032:  MOVLB  0
02034:  CALL   1814
....................    Temporal=read_eeprom(29); 
02038:  MOVFF  FF2,415
0203C:  BCF    FF2.6
0203E:  BCF    FF2.7
02040:  CLRF   FAA
02042:  MOVLW  1D
02044:  MOVWF  FA9
02046:  BCF    FA6.6
02048:  BCF    FA6.7
0204A:  BSF    FA6.0
0204C:  MOVF   FA8,W
0204E:  MOVLB  4
02050:  BTFSC  x15.6
02052:  BSF    FF2.6
02054:  BTFSC  x15.7
02056:  BSF    FF2.7
02058:  CLRF   x2B
0205A:  MOVWF  x2A
0205C:  MOVLB  0
0205E:  CALL   183C
02062:  MOVFF  03,2B0
02066:  MOVFF  02,2AF
0206A:  MOVFF  01,2AE
0206E:  MOVFF  00,2AD
....................    Temporal=Temporal/10.0; 
02072:  MOVFF  2B0,41D
02076:  MOVFF  2AF,41C
0207A:  MOVFF  2AE,41B
0207E:  MOVFF  2AD,41A
02082:  MOVLB  4
02084:  CLRF   x21
02086:  CLRF   x20
02088:  MOVLW  20
0208A:  MOVWF  x1F
0208C:  MOVLW  82
0208E:  MOVWF  x1E
02090:  MOVLB  0
02092:  CALL   1872
02096:  MOVFF  03,2B0
0209A:  MOVFF  02,2AF
0209E:  MOVFF  01,2AE
020A2:  MOVFF  00,2AD
....................    delay_ms(10); 
020A6:  MOVLW  0A
020A8:  MOVLB  4
020AA:  MOVWF  x2A
020AC:  MOVLB  0
020AE:  CALL   1814
....................    Gain=read_eeprom(28)+Temporal; 
020B2:  MOVFF  FF2,415
020B6:  BCF    FF2.6
020B8:  BCF    FF2.7
020BA:  CLRF   FAA
020BC:  MOVLW  1C
020BE:  MOVWF  FA9
020C0:  BCF    FA6.6
020C2:  BCF    FA6.7
020C4:  BSF    FA6.0
020C6:  MOVF   FA8,W
020C8:  MOVLB  4
020CA:  BTFSC  x15.6
020CC:  BSF    FF2.6
020CE:  BTFSC  x15.7
020D0:  BSF    FF2.7
020D2:  CLRF   x2B
020D4:  MOVWF  x2A
020D6:  MOVLB  0
020D8:  CALL   183C
020DC:  BCF    FD8.1
020DE:  MOVFF  03,42D
020E2:  MOVFF  02,42C
020E6:  MOVFF  01,42B
020EA:  MOVFF  00,42A
020EE:  MOVFF  2B0,431
020F2:  MOVFF  2AF,430
020F6:  MOVFF  2AE,42F
020FA:  MOVFF  2AD,42E
020FE:  RCALL  19D0
02100:  MOVFF  03,2A8
02104:  MOVFF  02,2A7
02108:  MOVFF  01,2A6
0210C:  MOVFF  00,2A5
....................    delay_ms(10); 
02110:  MOVLW  0A
02112:  MOVLB  4
02114:  MOVWF  x2A
02116:  MOVLB  0
02118:  CALL   1814
....................    R1=make16(read_eeprom(31),read_eeprom(30)); 
0211C:  MOVFF  FF2,415
02120:  BCF    FF2.6
02122:  BCF    FF2.7
02124:  CLRF   FAA
02126:  MOVLW  1F
02128:  MOVWF  FA9
0212A:  BCF    FA6.6
0212C:  BCF    FA6.7
0212E:  BSF    FA6.0
02130:  MOVF   FA8,W
02132:  MOVLB  4
02134:  BTFSC  x15.6
02136:  BSF    FF2.6
02138:  BTFSC  x15.7
0213A:  BSF    FF2.7
0213C:  MOVWF  x16
0213E:  MOVFF  FF2,417
02142:  BCF    FF2.6
02144:  BCF    FF2.7
02146:  CLRF   FAA
02148:  MOVLW  1E
0214A:  MOVWF  FA9
0214C:  BCF    FA6.6
0214E:  BCF    FA6.7
02150:  BSF    FA6.0
02152:  MOVF   FA8,W
02154:  BTFSC  x17.6
02156:  BSF    FF2.6
02158:  BTFSC  x17.7
0215A:  BSF    FF2.7
0215C:  MOVWF  x18
0215E:  MOVFF  416,03
02162:  MOVF   x18,W
02164:  MOVWF  x2A
02166:  MOVFF  03,42B
0216A:  MOVLB  0
0216C:  CALL   183C
02170:  MOVFF  03,2B4
02174:  MOVFF  02,2B3
02178:  MOVFF  01,2B2
0217C:  MOVFF  00,2B1
....................    delay_ms(10); 
02180:  MOVLW  0A
02182:  MOVLB  4
02184:  MOVWF  x2A
02186:  MOVLB  0
02188:  CALL   1814
....................    Temporal=read_eeprom(33); 
0218C:  MOVFF  FF2,415
02190:  BCF    FF2.6
02192:  BCF    FF2.7
02194:  CLRF   FAA
02196:  MOVLW  21
02198:  MOVWF  FA9
0219A:  BCF    FA6.6
0219C:  BCF    FA6.7
0219E:  BSF    FA6.0
021A0:  MOVF   FA8,W
021A2:  MOVLB  4
021A4:  BTFSC  x15.6
021A6:  BSF    FF2.6
021A8:  BTFSC  x15.7
021AA:  BSF    FF2.7
021AC:  CLRF   x2B
021AE:  MOVWF  x2A
021B0:  MOVLB  0
021B2:  CALL   183C
021B6:  MOVFF  03,2B0
021BA:  MOVFF  02,2AF
021BE:  MOVFF  01,2AE
021C2:  MOVFF  00,2AD
....................    Temporal=Temporal/10.0; 
021C6:  MOVFF  2B0,41D
021CA:  MOVFF  2AF,41C
021CE:  MOVFF  2AE,41B
021D2:  MOVFF  2AD,41A
021D6:  MOVLB  4
021D8:  CLRF   x21
021DA:  CLRF   x20
021DC:  MOVLW  20
021DE:  MOVWF  x1F
021E0:  MOVLW  82
021E2:  MOVWF  x1E
021E4:  MOVLB  0
021E6:  CALL   1872
021EA:  MOVFF  03,2B0
021EE:  MOVFF  02,2AF
021F2:  MOVFF  01,2AE
021F6:  MOVFF  00,2AD
....................    delay_ms(10); 
021FA:  MOVLW  0A
021FC:  MOVLB  4
021FE:  MOVWF  x2A
02200:  MOVLB  0
02202:  CALL   1814
....................    RPT100=read_eeprom(32)+Temporal; 
02206:  MOVFF  FF2,415
0220A:  BCF    FF2.6
0220C:  BCF    FF2.7
0220E:  CLRF   FAA
02210:  MOVLW  20
02212:  MOVWF  FA9
02214:  BCF    FA6.6
02216:  BCF    FA6.7
02218:  BSF    FA6.0
0221A:  MOVF   FA8,W
0221C:  MOVLB  4
0221E:  BTFSC  x15.6
02220:  BSF    FF2.6
02222:  BTFSC  x15.7
02224:  BSF    FF2.7
02226:  CLRF   x2B
02228:  MOVWF  x2A
0222A:  MOVLB  0
0222C:  CALL   183C
02230:  BCF    FD8.1
02232:  MOVFF  03,42D
02236:  MOVFF  02,42C
0223A:  MOVFF  01,42B
0223E:  MOVFF  00,42A
02242:  MOVFF  2B0,431
02246:  MOVFF  2AF,430
0224A:  MOVFF  2AE,42F
0224E:  MOVFF  2AD,42E
02252:  CALL   19D0
02256:  MOVFF  03,2AC
0225A:  MOVFF  02,2AB
0225E:  MOVFF  01,2AA
02262:  MOVFF  00,2A9
....................    delay_ms(10); 
02266:  MOVLW  0A
02268:  MOVLB  4
0226A:  MOVWF  x2A
0226C:  MOVLB  0
0226E:  CALL   1814
....................    CiclosL=read_eeprom(37); 
02272:  MOVFF  FF2,415
02276:  BCF    FF2.6
02278:  BCF    FF2.7
0227A:  CLRF   FAA
0227C:  MOVLW  25
0227E:  MOVWF  FA9
02280:  BCF    FA6.6
02282:  BCF    FA6.7
02284:  BSF    FA6.0
02286:  MOVF   FA8,W
02288:  MOVLB  4
0228A:  BTFSC  x15.6
0228C:  BSF    FF2.6
0228E:  BTFSC  x15.7
02290:  BSF    FF2.7
02292:  MOVLB  3
02294:  MOVWF  x4D
....................    delay_ms(10); 
02296:  MOVLW  0A
02298:  MOVLB  4
0229A:  MOVWF  x2A
0229C:  MOVLB  0
0229E:  CALL   1814
....................    CiclosH=read_eeprom(38); 
022A2:  MOVFF  FF2,415
022A6:  BCF    FF2.6
022A8:  BCF    FF2.7
022AA:  CLRF   FAA
022AC:  MOVLW  26
022AE:  MOVWF  FA9
022B0:  BCF    FA6.6
022B2:  BCF    FA6.7
022B4:  BSF    FA6.0
022B6:  MOVF   FA8,W
022B8:  MOVLB  4
022BA:  BTFSC  x15.6
022BC:  BSF    FF2.6
022BE:  BTFSC  x15.7
022C0:  BSF    FF2.7
022C2:  MOVLB  3
022C4:  MOVWF  x4E
....................    delay_ms(10); 
022C6:  MOVLW  0A
022C8:  MOVLB  4
022CA:  MOVWF  x2A
022CC:  MOVLB  0
022CE:  CALL   1814
....................    Ciclos=make16(CiclosH,CiclosL); 
022D2:  MOVFF  34E,367
022D6:  MOVFF  34D,366
....................    delay_ms(10); 
022DA:  MOVLW  0A
022DC:  MOVLB  4
022DE:  MOVWF  x2A
022E0:  MOVLB  0
022E2:  CALL   1814
....................    TTrampa=read_eeprom(39); 
022E6:  MOVFF  FF2,415
022EA:  BCF    FF2.6
022EC:  BCF    FF2.7
022EE:  CLRF   FAA
022F0:  MOVLW  27
022F2:  MOVWF  FA9
022F4:  BCF    FA6.6
022F6:  BCF    FA6.7
022F8:  BSF    FA6.0
022FA:  MOVF   FA8,W
022FC:  MOVLB  4
022FE:  BTFSC  x15.6
02300:  BSF    FF2.6
02302:  BTFSC  x15.7
02304:  BSF    FF2.7
02306:  MOVLB  2
02308:  MOVWF  xD2
....................    delay_ms(10); 
0230A:  MOVLW  0A
0230C:  MOVLB  4
0230E:  MOVWF  x2A
02310:  MOVLB  0
02312:  CALL   1814
....................    ActivaImpresion=read_eeprom(40); 
02316:  MOVFF  FF2,415
0231A:  BCF    FF2.6
0231C:  BCF    FF2.7
0231E:  CLRF   FAA
02320:  MOVLW  28
02322:  MOVWF  FA9
02324:  BCF    FA6.6
02326:  BCF    FA6.7
02328:  BSF    FA6.0
0232A:  MOVF   FA8,W
0232C:  MOVLB  4
0232E:  BTFSC  x15.6
02330:  BSF    FF2.6
02332:  BTFSC  x15.7
02334:  BSF    FF2.7
02336:  MOVLB  3
02338:  MOVWF  x42
....................    delay_ms(10); 
0233A:  MOVLW  0A
0233C:  MOVLB  4
0233E:  MOVWF  x2A
02340:  MOVLB  0
02342:  CALL   1814
....................    timpresion=read_eeprom(41); 
02346:  MOVFF  FF2,415
0234A:  BCF    FF2.6
0234C:  BCF    FF2.7
0234E:  CLRF   FAA
02350:  MOVLW  29
02352:  MOVWF  FA9
02354:  BCF    FA6.6
02356:  BCF    FA6.7
02358:  BSF    FA6.0
0235A:  MOVF   FA8,W
0235C:  MOVLB  4
0235E:  BTFSC  x15.6
02360:  BSF    FF2.6
02362:  BTFSC  x15.7
02364:  BSF    FF2.7
02366:  MOVLB  3
02368:  MOVWF  x43
....................    delay_ms(10); 
0236A:  MOVLW  0A
0236C:  MOVLB  4
0236E:  MOVWF  x2A
02370:  MOVLB  0
02372:  CALL   1814
....................    G1=read_eeprom(42); 
02376:  MOVFF  FF2,415
0237A:  BCF    FF2.6
0237C:  BCF    FF2.7
0237E:  CLRF   FAA
02380:  MOVLW  2A
02382:  MOVWF  FA9
02384:  BCF    FA6.6
02386:  BCF    FA6.7
02388:  BSF    FA6.0
0238A:  MOVF   FA8,W
0238C:  MOVLB  4
0238E:  BTFSC  x15.6
02390:  BSF    FF2.6
02392:  BTFSC  x15.7
02394:  BSF    FF2.7
02396:  MOVLB  3
02398:  MOVWF  x8F
....................    delay_ms(10); 
0239A:  MOVLW  0A
0239C:  MOVLB  4
0239E:  MOVWF  x2A
023A0:  MOVLB  0
023A2:  CALL   1814
....................    G2=read_eeprom(43); 
023A6:  MOVFF  FF2,415
023AA:  BCF    FF2.6
023AC:  BCF    FF2.7
023AE:  CLRF   FAA
023B0:  MOVLW  2B
023B2:  MOVWF  FA9
023B4:  BCF    FA6.6
023B6:  BCF    FA6.7
023B8:  BSF    FA6.0
023BA:  MOVF   FA8,W
023BC:  MOVLB  4
023BE:  BTFSC  x15.6
023C0:  BSF    FF2.6
023C2:  BTFSC  x15.7
023C4:  BSF    FF2.7
023C6:  MOVLB  3
023C8:  MOVWF  x90
....................    delay_ms(10); 
023CA:  MOVLW  0A
023CC:  MOVLB  4
023CE:  MOVWF  x2A
023D0:  MOVLB  0
023D2:  CALL   1814
....................    sg1=read_eeprom(44); 
023D6:  MOVFF  FF2,415
023DA:  BCF    FF2.6
023DC:  BCF    FF2.7
023DE:  CLRF   FAA
023E0:  MOVLW  2C
023E2:  MOVWF  FA9
023E4:  BCF    FA6.6
023E6:  BCF    FA6.7
023E8:  BSF    FA6.0
023EA:  MOVF   FA8,W
023EC:  MOVLB  4
023EE:  BTFSC  x15.6
023F0:  BSF    FF2.6
023F2:  BTFSC  x15.7
023F4:  BSF    FF2.7
023F6:  MOVLB  3
023F8:  MOVWF  x91
....................    delay_ms(10); 
023FA:  MOVLW  0A
023FC:  MOVLB  4
023FE:  MOVWF  x2A
02400:  MOVLB  0
02402:  CALL   1814
....................    sg2=read_eeprom(45); 
02406:  MOVFF  FF2,415
0240A:  BCF    FF2.6
0240C:  BCF    FF2.7
0240E:  CLRF   FAA
02410:  MOVLW  2D
02412:  MOVWF  FA9
02414:  BCF    FA6.6
02416:  BCF    FA6.7
02418:  BSF    FA6.0
0241A:  MOVF   FA8,W
0241C:  MOVLB  4
0241E:  BTFSC  x15.6
02420:  BSF    FF2.6
02422:  BTFSC  x15.7
02424:  BSF    FF2.7
02426:  MOVLB  3
02428:  MOVWF  x92
....................     
....................    for(i=0;i<10;i++){//Lee valores almacenados de ciclos personalizados 
0242A:  CLRF   x4C
0242C:  MOVF   x4C,W
0242E:  SUBLW  09
02430:  BTFSS  FD8.0
02432:  BRA    29AA
....................       CiclosPersonalizados[i].Temperatura=read_eeprom(100+(i*8));  
02434:  MOVF   x4C,W
02436:  MULLW  0A
02438:  MOVF   FF3,W
0243A:  MOVLB  4
0243C:  CLRF   x16
0243E:  MOVWF  x15
02440:  MOVLW  B1
02442:  ADDWF  x15,W
02444:  MOVWF  FE9
02446:  MOVLW  03
02448:  ADDWFC x16,W
0244A:  MOVWF  FEA
0244C:  MOVLB  3
0244E:  MOVF   x4C,W
02450:  MULLW  08
02452:  MOVF   FF3,W
02454:  ADDLW  64
02456:  MOVLB  4
02458:  MOVWF  x17
0245A:  MOVFF  FF2,418
0245E:  BCF    FF2.6
02460:  BCF    FF2.7
02462:  CLRF   FAA
02464:  MOVFF  417,FA9
02468:  BCF    FA6.6
0246A:  BCF    FA6.7
0246C:  BSF    FA6.0
0246E:  MOVF   FA8,W
02470:  BTFSC  x18.6
02472:  BSF    FF2.6
02474:  BTFSC  x18.7
02476:  BSF    FF2.7
02478:  MOVWF  FEF
....................       CiclosPersonalizados[i].MinutoestH=read_eeprom(101+(i*8));  
0247A:  MOVLB  3
0247C:  MOVF   x4C,W
0247E:  MULLW  0A
02480:  MOVF   FF3,W
02482:  MOVLB  4
02484:  CLRF   x16
02486:  MOVWF  x15
02488:  MOVLW  01
0248A:  ADDWF  x15,W
0248C:  MOVWF  01
0248E:  MOVLW  00
02490:  ADDWFC x16,W
02492:  MOVWF  03
02494:  MOVF   01,W
02496:  ADDLW  B1
02498:  MOVWF  FE9
0249A:  MOVLW  03
0249C:  ADDWFC 03,W
0249E:  MOVWF  FEA
024A0:  MOVLB  3
024A2:  MOVF   x4C,W
024A4:  MULLW  08
024A6:  MOVF   FF3,W
024A8:  ADDLW  65
024AA:  MOVLB  4
024AC:  MOVWF  x17
024AE:  MOVFF  FF2,418
024B2:  BCF    FF2.6
024B4:  BCF    FF2.7
024B6:  CLRF   FAA
024B8:  MOVFF  417,FA9
024BC:  BCF    FA6.6
024BE:  BCF    FA6.7
024C0:  BSF    FA6.0
024C2:  MOVF   FA8,W
024C4:  BTFSC  x18.6
024C6:  BSF    FF2.6
024C8:  BTFSC  x18.7
024CA:  BSF    FF2.7
024CC:  MOVWF  FEF
....................       CiclosPersonalizados[i].Minutoest=read_eeprom(102+(i*8));  
024CE:  MOVLB  3
024D0:  MOVF   x4C,W
024D2:  MULLW  0A
024D4:  MOVF   FF3,W
024D6:  MOVLB  4
024D8:  CLRF   x16
024DA:  MOVWF  x15
024DC:  MOVLW  09
024DE:  ADDWF  x15,W
024E0:  MOVWF  01
024E2:  MOVLW  00
024E4:  ADDWFC x16,W
024E6:  MOVWF  03
024E8:  MOVF   01,W
024EA:  ADDLW  B1
024EC:  MOVWF  FE9
024EE:  MOVLW  03
024F0:  ADDWFC 03,W
024F2:  MOVWF  FEA
024F4:  MOVLB  3
024F6:  MOVF   x4C,W
024F8:  MULLW  08
024FA:  MOVF   FF3,W
024FC:  ADDLW  66
024FE:  MOVLB  4
02500:  MOVWF  x17
02502:  MOVFF  FF2,418
02506:  BCF    FF2.6
02508:  BCF    FF2.7
0250A:  CLRF   FAA
0250C:  MOVFF  417,FA9
02510:  BCF    FA6.6
02512:  BCF    FA6.7
02514:  BSF    FA6.0
02516:  MOVF   FA8,W
02518:  BTFSC  x18.6
0251A:  BSF    FF2.6
0251C:  BTFSC  x18.7
0251E:  BSF    FF2.7
02520:  MOVWF  FEF
....................       CiclosPersonalizados[i].Segundoest=read_eeprom(103+(i*8));  
02522:  MOVLB  3
02524:  MOVF   x4C,W
02526:  MULLW  0A
02528:  MOVF   FF3,W
0252A:  MOVLB  4
0252C:  CLRF   x16
0252E:  MOVWF  x15
02530:  MOVLW  03
02532:  ADDWF  x15,W
02534:  MOVWF  01
02536:  MOVLW  00
02538:  ADDWFC x16,W
0253A:  MOVWF  03
0253C:  MOVF   01,W
0253E:  ADDLW  B1
02540:  MOVWF  FE9
02542:  MOVLW  03
02544:  ADDWFC 03,W
02546:  MOVWF  FEA
02548:  MOVLB  3
0254A:  MOVF   x4C,W
0254C:  MULLW  08
0254E:  MOVF   FF3,W
02550:  ADDLW  67
02552:  MOVLB  4
02554:  MOVWF  x17
02556:  MOVFF  FF2,418
0255A:  BCF    FF2.6
0255C:  BCF    FF2.7
0255E:  CLRF   FAA
02560:  MOVFF  417,FA9
02564:  BCF    FA6.6
02566:  BCF    FA6.7
02568:  BSF    FA6.0
0256A:  MOVF   FA8,W
0256C:  BTFSC  x18.6
0256E:  BSF    FF2.6
02570:  BTFSC  x18.7
02572:  BSF    FF2.7
02574:  MOVWF  FEF
....................       CiclosPersonalizados[i].Minutosec=read_eeprom(104+(i*8));  
02576:  MOVLB  3
02578:  MOVF   x4C,W
0257A:  MULLW  0A
0257C:  MOVF   FF3,W
0257E:  MOVLB  4
02580:  CLRF   x16
02582:  MOVWF  x15
02584:  MOVLW  04
02586:  ADDWF  x15,W
02588:  MOVWF  01
0258A:  MOVLW  00
0258C:  ADDWFC x16,W
0258E:  MOVWF  03
02590:  MOVF   01,W
02592:  ADDLW  B1
02594:  MOVWF  FE9
02596:  MOVLW  03
02598:  ADDWFC 03,W
0259A:  MOVWF  FEA
0259C:  MOVLB  3
0259E:  MOVF   x4C,W
025A0:  MULLW  08
025A2:  MOVF   FF3,W
025A4:  ADDLW  68
025A6:  MOVLB  4
025A8:  MOVWF  x17
025AA:  MOVFF  FF2,418
025AE:  BCF    FF2.6
025B0:  BCF    FF2.7
025B2:  CLRF   FAA
025B4:  MOVFF  417,FA9
025B8:  BCF    FA6.6
025BA:  BCF    FA6.7
025BC:  BSF    FA6.0
025BE:  MOVF   FA8,W
025C0:  BTFSC  x18.6
025C2:  BSF    FF2.6
025C4:  BTFSC  x18.7
025C6:  BSF    FF2.7
025C8:  MOVWF  FEF
....................       CiclosPersonalizados[i].Segundosec=read_eeprom(105+(i*8));  
025CA:  MOVLB  3
025CC:  MOVF   x4C,W
025CE:  MULLW  0A
025D0:  MOVF   FF3,W
025D2:  MOVLB  4
025D4:  CLRF   x16
025D6:  MOVWF  x15
025D8:  MOVLW  05
025DA:  ADDWF  x15,W
025DC:  MOVWF  01
025DE:  MOVLW  00
025E0:  ADDWFC x16,W
025E2:  MOVWF  03
025E4:  MOVF   01,W
025E6:  ADDLW  B1
025E8:  MOVWF  FE9
025EA:  MOVLW  03
025EC:  ADDWFC 03,W
025EE:  MOVWF  FEA
025F0:  MOVLB  3
025F2:  MOVF   x4C,W
025F4:  MULLW  08
025F6:  MOVF   FF3,W
025F8:  ADDLW  69
025FA:  MOVLB  4
025FC:  MOVWF  x17
025FE:  MOVFF  FF2,418
02602:  BCF    FF2.6
02604:  BCF    FF2.7
02606:  CLRF   FAA
02608:  MOVFF  417,FA9
0260C:  BCF    FA6.6
0260E:  BCF    FA6.7
02610:  BSF    FA6.0
02612:  MOVF   FA8,W
02614:  BTFSC  x18.6
02616:  BSF    FF2.6
02618:  BTFSC  x18.7
0261A:  BSF    FF2.7
0261C:  MOVWF  FEF
....................       CiclosPersonalizados[i].PulsosVacio=read_eeprom(106+(i*8));  
0261E:  MOVLB  3
02620:  MOVF   x4C,W
02622:  MULLW  0A
02624:  MOVF   FF3,W
02626:  MOVLB  4
02628:  CLRF   x16
0262A:  MOVWF  x15
0262C:  MOVLW  06
0262E:  ADDWF  x15,W
02630:  MOVWF  01
02632:  MOVLW  00
02634:  ADDWFC x16,W
02636:  MOVWF  03
02638:  MOVF   01,W
0263A:  ADDLW  B1
0263C:  MOVWF  FE9
0263E:  MOVLW  03
02640:  ADDWFC 03,W
02642:  MOVWF  FEA
02644:  MOVLB  3
02646:  MOVF   x4C,W
02648:  MULLW  08
0264A:  MOVF   FF3,W
0264C:  ADDLW  6A
0264E:  MOVLB  4
02650:  MOVWF  x17
02652:  MOVFF  FF2,418
02656:  BCF    FF2.6
02658:  BCF    FF2.7
0265A:  CLRF   FAA
0265C:  MOVFF  417,FA9
02660:  BCF    FA6.6
02662:  BCF    FA6.7
02664:  BSF    FA6.0
02666:  MOVF   FA8,W
02668:  BTFSC  x18.6
0266A:  BSF    FF2.6
0266C:  BTFSC  x18.7
0266E:  BSF    FF2.7
02670:  MOVWF  FEF
....................       CiclosPersonalizados[i].NivelDesfogue=read_eeprom(107+(i*8));  
02672:  MOVLB  3
02674:  MOVF   x4C,W
02676:  MULLW  0A
02678:  MOVF   FF3,W
0267A:  MOVLB  4
0267C:  CLRF   x16
0267E:  MOVWF  x15
02680:  MOVLW  08
02682:  ADDWF  x15,W
02684:  MOVWF  01
02686:  MOVLW  00
02688:  ADDWFC x16,W
0268A:  MOVWF  03
0268C:  MOVF   01,W
0268E:  ADDLW  B1
02690:  MOVWF  FE9
02692:  MOVLW  03
02694:  ADDWFC 03,W
02696:  MOVWF  FEA
02698:  MOVLB  3
0269A:  MOVF   x4C,W
0269C:  MULLW  08
0269E:  MOVF   FF3,W
026A0:  ADDLW  6B
026A2:  MOVLB  4
026A4:  MOVWF  x17
026A6:  MOVFF  FF2,418
026AA:  BCF    FF2.6
026AC:  BCF    FF2.7
026AE:  CLRF   FAA
026B0:  MOVFF  417,FA9
026B4:  BCF    FA6.6
026B6:  BCF    FA6.7
026B8:  BSF    FA6.0
026BA:  MOVF   FA8,W
026BC:  BTFSC  x18.6
026BE:  BSF    FF2.6
026C0:  BTFSC  x18.7
026C2:  BSF    FF2.7
026C4:  MOVWF  FEF
....................        
....................       if(CiclosPersonalizados[i].Temperatura>134 || CiclosPersonalizados[i].Temperatura<105) 
026C6:  MOVLB  3
026C8:  MOVF   x4C,W
026CA:  MULLW  0A
026CC:  MOVF   FF3,W
026CE:  MOVLB  4
026D0:  CLRF   x16
026D2:  MOVWF  x15
026D4:  MOVLW  B1
026D6:  ADDWF  x15,W
026D8:  MOVWF  FE9
026DA:  MOVLW  03
026DC:  ADDWFC x16,W
026DE:  MOVWF  FEA
026E0:  MOVF   FEF,W
026E2:  SUBLW  86
026E4:  BNC   2706
026E6:  MOVLB  3
026E8:  MOVF   x4C,W
026EA:  MULLW  0A
026EC:  MOVF   FF3,W
026EE:  MOVLB  4
026F0:  CLRF   x16
026F2:  MOVWF  x15
026F4:  MOVLW  B1
026F6:  ADDWF  x15,W
026F8:  MOVWF  FE9
026FA:  MOVLW  03
026FC:  ADDWFC x16,W
026FE:  MOVWF  FEA
02700:  MOVF   FEF,W
02702:  SUBLW  68
02704:  BNC   2724
....................          CiclosPersonalizados[i].Temperatura=121; 
02706:  MOVLB  3
02708:  MOVF   x4C,W
0270A:  MULLW  0A
0270C:  MOVF   FF3,W
0270E:  MOVLB  4
02710:  CLRF   x16
02712:  MOVWF  x15
02714:  MOVLW  B1
02716:  ADDWF  x15,W
02718:  MOVWF  FE9
0271A:  MOVLW  03
0271C:  ADDWFC x16,W
0271E:  MOVWF  FEA
02720:  MOVLW  79
02722:  MOVWF  FEF
....................       if(CiclosPersonalizados[i].Minutoest>59) 
02724:  MOVLB  3
02726:  MOVF   x4C,W
02728:  MULLW  0A
0272A:  MOVF   FF3,W
0272C:  MOVLB  4
0272E:  CLRF   x16
02730:  MOVWF  x15
02732:  MOVLW  09
02734:  ADDWF  x15,W
02736:  MOVWF  01
02738:  MOVLW  00
0273A:  ADDWFC x16,W
0273C:  MOVWF  03
0273E:  MOVF   01,W
02740:  ADDLW  B1
02742:  MOVWF  FE9
02744:  MOVLW  03
02746:  ADDWFC 03,W
02748:  MOVWF  FEA
0274A:  MOVF   FEF,W
0274C:  SUBLW  3B
0274E:  BC    277A
....................          CiclosPersonalizados[i].Minutoest=1; 
02750:  MOVLB  3
02752:  MOVF   x4C,W
02754:  MULLW  0A
02756:  MOVF   FF3,W
02758:  MOVLB  4
0275A:  CLRF   x16
0275C:  MOVWF  x15
0275E:  MOVLW  09
02760:  ADDWF  x15,W
02762:  MOVWF  01
02764:  MOVLW  00
02766:  ADDWFC x16,W
02768:  MOVWF  03
0276A:  MOVF   01,W
0276C:  ADDLW  B1
0276E:  MOVWF  FE9
02770:  MOVLW  03
02772:  ADDWFC 03,W
02774:  MOVWF  FEA
02776:  MOVLW  01
02778:  MOVWF  FEF
....................       if(CiclosPersonalizados[i].Segundoest>59) 
0277A:  MOVLB  3
0277C:  MOVF   x4C,W
0277E:  MULLW  0A
02780:  MOVF   FF3,W
02782:  MOVLB  4
02784:  CLRF   x16
02786:  MOVWF  x15
02788:  MOVLW  03
0278A:  ADDWF  x15,W
0278C:  MOVWF  01
0278E:  MOVLW  00
02790:  ADDWFC x16,W
02792:  MOVWF  03
02794:  MOVF   01,W
02796:  ADDLW  B1
02798:  MOVWF  FE9
0279A:  MOVLW  03
0279C:  ADDWFC 03,W
0279E:  MOVWF  FEA
027A0:  MOVF   FEF,W
027A2:  SUBLW  3B
027A4:  BC    27CE
....................          CiclosPersonalizados[i].Segundoest=0; 
027A6:  MOVLB  3
027A8:  MOVF   x4C,W
027AA:  MULLW  0A
027AC:  MOVF   FF3,W
027AE:  MOVLB  4
027B0:  CLRF   x16
027B2:  MOVWF  x15
027B4:  MOVLW  03
027B6:  ADDWF  x15,W
027B8:  MOVWF  01
027BA:  MOVLW  00
027BC:  ADDWFC x16,W
027BE:  MOVWF  03
027C0:  MOVF   01,W
027C2:  ADDLW  B1
027C4:  MOVWF  FE9
027C6:  MOVLW  03
027C8:  ADDWFC 03,W
027CA:  MOVWF  FEA
027CC:  CLRF   FEF
....................       if(CiclosPersonalizados[i].Minutosec>59) 
027CE:  MOVLB  3
027D0:  MOVF   x4C,W
027D2:  MULLW  0A
027D4:  MOVF   FF3,W
027D6:  MOVLB  4
027D8:  CLRF   x16
027DA:  MOVWF  x15
027DC:  MOVLW  04
027DE:  ADDWF  x15,W
027E0:  MOVWF  01
027E2:  MOVLW  00
027E4:  ADDWFC x16,W
027E6:  MOVWF  03
027E8:  MOVF   01,W
027EA:  ADDLW  B1
027EC:  MOVWF  FE9
027EE:  MOVLW  03
027F0:  ADDWFC 03,W
027F2:  MOVWF  FEA
027F4:  MOVF   FEF,W
027F6:  SUBLW  3B
027F8:  BC    2822
....................          CiclosPersonalizados[i].Minutosec=0;    
027FA:  MOVLB  3
027FC:  MOVF   x4C,W
027FE:  MULLW  0A
02800:  MOVF   FF3,W
02802:  MOVLB  4
02804:  CLRF   x16
02806:  MOVWF  x15
02808:  MOVLW  04
0280A:  ADDWF  x15,W
0280C:  MOVWF  01
0280E:  MOVLW  00
02810:  ADDWFC x16,W
02812:  MOVWF  03
02814:  MOVF   01,W
02816:  ADDLW  B1
02818:  MOVWF  FE9
0281A:  MOVLW  03
0281C:  ADDWFC 03,W
0281E:  MOVWF  FEA
02820:  CLRF   FEF
....................       if(CiclosPersonalizados[i].Segundosec>59) 
02822:  MOVLB  3
02824:  MOVF   x4C,W
02826:  MULLW  0A
02828:  MOVF   FF3,W
0282A:  MOVLB  4
0282C:  CLRF   x16
0282E:  MOVWF  x15
02830:  MOVLW  05
02832:  ADDWF  x15,W
02834:  MOVWF  01
02836:  MOVLW  00
02838:  ADDWFC x16,W
0283A:  MOVWF  03
0283C:  MOVF   01,W
0283E:  ADDLW  B1
02840:  MOVWF  FE9
02842:  MOVLW  03
02844:  ADDWFC 03,W
02846:  MOVWF  FEA
02848:  MOVF   FEF,W
0284A:  SUBLW  3B
0284C:  BC    2876
....................          CiclosPersonalizados[i].Segundosec=0;       
0284E:  MOVLB  3
02850:  MOVF   x4C,W
02852:  MULLW  0A
02854:  MOVF   FF3,W
02856:  MOVLB  4
02858:  CLRF   x16
0285A:  MOVWF  x15
0285C:  MOVLW  05
0285E:  ADDWF  x15,W
02860:  MOVWF  01
02862:  MOVLW  00
02864:  ADDWFC x16,W
02866:  MOVWF  03
02868:  MOVF   01,W
0286A:  ADDLW  B1
0286C:  MOVWF  FE9
0286E:  MOVLW  03
02870:  ADDWFC 03,W
02872:  MOVWF  FEA
02874:  CLRF   FEF
....................       if(CiclosPersonalizados[i].PulsosVacio>15) 
02876:  MOVLB  3
02878:  MOVF   x4C,W
0287A:  MULLW  0A
0287C:  MOVF   FF3,W
0287E:  MOVLB  4
02880:  CLRF   x16
02882:  MOVWF  x15
02884:  MOVLW  06
02886:  ADDWF  x15,W
02888:  MOVWF  01
0288A:  MOVLW  00
0288C:  ADDWFC x16,W
0288E:  MOVWF  03
02890:  MOVF   01,W
02892:  ADDLW  B1
02894:  MOVWF  FE9
02896:  MOVLW  03
02898:  ADDWFC 03,W
0289A:  MOVWF  FEA
0289C:  MOVF   FEF,W
0289E:  SUBLW  0F
028A0:  BC    28CC
....................          CiclosPersonalizados[i].PulsosVacio=4; 
028A2:  MOVLB  3
028A4:  MOVF   x4C,W
028A6:  MULLW  0A
028A8:  MOVF   FF3,W
028AA:  MOVLB  4
028AC:  CLRF   x16
028AE:  MOVWF  x15
028B0:  MOVLW  06
028B2:  ADDWF  x15,W
028B4:  MOVWF  01
028B6:  MOVLW  00
028B8:  ADDWFC x16,W
028BA:  MOVWF  03
028BC:  MOVF   01,W
028BE:  ADDLW  B1
028C0:  MOVWF  FE9
028C2:  MOVLW  03
028C4:  ADDWFC 03,W
028C6:  MOVWF  FEA
028C8:  MOVLW  04
028CA:  MOVWF  FEF
....................       if(CiclosPersonalizados[i].NivelVacio>100 || CiclosPersonalizados[i].NivelVacio<10) 
028CC:  MOVLB  3
028CE:  MOVF   x4C,W
028D0:  MULLW  0A
028D2:  MOVF   FF3,W
028D4:  MOVLB  4
028D6:  CLRF   x16
028D8:  MOVWF  x15
028DA:  MOVLW  07
028DC:  ADDWF  x15,W
028DE:  MOVWF  01
028E0:  MOVLW  00
028E2:  ADDWFC x16,W
028E4:  MOVWF  03
028E6:  MOVF   01,W
028E8:  ADDLW  B1
028EA:  MOVWF  FE9
028EC:  MOVLW  03
028EE:  ADDWFC 03,W
028F0:  MOVWF  FEA
028F2:  MOVF   FEF,W
028F4:  SUBLW  64
028F6:  BNC   2924
028F8:  MOVLB  3
028FA:  MOVF   x4C,W
028FC:  MULLW  0A
028FE:  MOVF   FF3,W
02900:  MOVLB  4
02902:  CLRF   x16
02904:  MOVWF  x15
02906:  MOVLW  07
02908:  ADDWF  x15,W
0290A:  MOVWF  01
0290C:  MOVLW  00
0290E:  ADDWFC x16,W
02910:  MOVWF  03
02912:  MOVF   01,W
02914:  ADDLW  B1
02916:  MOVWF  FE9
02918:  MOVLW  03
0291A:  ADDWFC 03,W
0291C:  MOVWF  FEA
0291E:  MOVF   FEF,W
02920:  SUBLW  09
02922:  BNC   294E
....................          CiclosPersonalizados[i].NivelVacio=25;    
02924:  MOVLB  3
02926:  MOVF   x4C,W
02928:  MULLW  0A
0292A:  MOVF   FF3,W
0292C:  MOVLB  4
0292E:  CLRF   x16
02930:  MOVWF  x15
02932:  MOVLW  07
02934:  ADDWF  x15,W
02936:  MOVWF  01
02938:  MOVLW  00
0293A:  ADDWFC x16,W
0293C:  MOVWF  03
0293E:  MOVF   01,W
02940:  ADDLW  B1
02942:  MOVWF  FE9
02944:  MOVLW  03
02946:  ADDWFC 03,W
02948:  MOVWF  FEA
0294A:  MOVLW  19
0294C:  MOVWF  FEF
....................       if(CiclosPersonalizados[i].NivelDesfogue>6) 
0294E:  MOVLB  3
02950:  MOVF   x4C,W
02952:  MULLW  0A
02954:  MOVF   FF3,W
02956:  MOVLB  4
02958:  CLRF   x16
0295A:  MOVWF  x15
0295C:  MOVLW  08
0295E:  ADDWF  x15,W
02960:  MOVWF  01
02962:  MOVLW  00
02964:  ADDWFC x16,W
02966:  MOVWF  03
02968:  MOVF   01,W
0296A:  ADDLW  B1
0296C:  MOVWF  FE9
0296E:  MOVLW  03
02970:  ADDWFC 03,W
02972:  MOVWF  FEA
02974:  MOVF   FEF,W
02976:  SUBLW  06
02978:  BC    29A4
....................          CiclosPersonalizados[i].NivelDesfogue=6; 
0297A:  MOVLB  3
0297C:  MOVF   x4C,W
0297E:  MULLW  0A
02980:  MOVF   FF3,W
02982:  MOVLB  4
02984:  CLRF   x16
02986:  MOVWF  x15
02988:  MOVLW  08
0298A:  ADDWF  x15,W
0298C:  MOVWF  01
0298E:  MOVLW  00
02990:  ADDWFC x16,W
02992:  MOVWF  03
02994:  MOVF   01,W
02996:  ADDLW  B1
02998:  MOVWF  FE9
0299A:  MOVLW  03
0299C:  ADDWFC 03,W
0299E:  MOVWF  FEA
029A0:  MOVLW  06
029A2:  MOVWF  FEF
....................    } 
029A4:  MOVLB  3
029A6:  INCF   x4C,F
029A8:  BRA    242C
.................... } 
029AA:  MOVLB  0
029AC:  GOTO   6156 (RETURN)
....................  
.................... void LimitaValores(){ 
....................    if(Testerilizacionp[0]>9 || Testerilizacionp[0]<0){ 
*
02B5E:  BTFSC  xB8.7
02B60:  BRA    2B68
02B62:  MOVF   xB8,W
02B64:  SUBLW  09
02B66:  BNC   2B6E
02B68:  BTFSC  xB8.7
02B6A:  BRA    2B6E
02B6C:  BRA    2BA6
....................       Testerilizacionp[0]=0; 
02B6E:  CLRF   xB8
....................       write_eeprom(0,0); 
02B70:  CLRF   FAA
02B72:  CLRF   FA9
02B74:  CLRF   FA8
02B76:  BCF    FA6.6
02B78:  BCF    FA6.7
02B7A:  BSF    FA6.2
02B7C:  MOVF   FF2,W
02B7E:  MOVWF  00
02B80:  BCF    FF2.6
02B82:  BCF    FF2.7
02B84:  MOVLB  F
02B86:  MOVLW  55
02B88:  MOVWF  FA7
02B8A:  MOVLW  AA
02B8C:  MOVWF  FA7
02B8E:  BSF    FA6.1
02B90:  BTFSC  FA6.1
02B92:  BRA    2B90
02B94:  BCF    FA6.2
02B96:  MOVF   00,W
02B98:  IORWF  FF2,F
....................       delay_ms(10); 
02B9A:  MOVLW  0A
02B9C:  MOVLB  4
02B9E:  MOVWF  x2A
02BA0:  MOVLB  0
02BA2:  CALL   1814
....................    } 
....................    if(Testerilizacionp[1]>9 || Testerilizacionp[1]<0){ 
02BA6:  BTFSC  xB9.7
02BA8:  BRA    2BB0
02BAA:  MOVF   xB9,W
02BAC:  SUBLW  09
02BAE:  BNC   2BB6
02BB0:  BTFSC  xB9.7
02BB2:  BRA    2BB6
02BB4:  BRA    2BF0
....................       Testerilizacionp[1]=0; 
02BB6:  CLRF   xB9
....................       write_eeprom(1,0); 
02BB8:  CLRF   FAA
02BBA:  MOVLW  01
02BBC:  MOVWF  FA9
02BBE:  CLRF   FA8
02BC0:  BCF    FA6.6
02BC2:  BCF    FA6.7
02BC4:  BSF    FA6.2
02BC6:  MOVF   FF2,W
02BC8:  MOVWF  00
02BCA:  BCF    FF2.6
02BCC:  BCF    FF2.7
02BCE:  MOVLB  F
02BD0:  MOVLW  55
02BD2:  MOVWF  FA7
02BD4:  MOVLW  AA
02BD6:  MOVWF  FA7
02BD8:  BSF    FA6.1
02BDA:  BTFSC  FA6.1
02BDC:  BRA    2BDA
02BDE:  BCF    FA6.2
02BE0:  MOVF   00,W
02BE2:  IORWF  FF2,F
....................       delay_ms(10); 
02BE4:  MOVLW  0A
02BE6:  MOVLB  4
02BE8:  MOVWF  x2A
02BEA:  MOVLB  0
02BEC:  CALL   1814
....................    } 
....................    if(Testerilizacionp[2]>9 || Testerilizacionp[2]<0){ 
02BF0:  BTFSC  xBA.7
02BF2:  BRA    2BFA
02BF4:  MOVF   xBA,W
02BF6:  SUBLW  09
02BF8:  BNC   2C00
02BFA:  BTFSC  xBA.7
02BFC:  BRA    2C00
02BFE:  BRA    2C3A
....................       Testerilizacionp[2]=0; 
02C00:  CLRF   xBA
....................       write_eeprom(2,0); 
02C02:  CLRF   FAA
02C04:  MOVLW  02
02C06:  MOVWF  FA9
02C08:  CLRF   FA8
02C0A:  BCF    FA6.6
02C0C:  BCF    FA6.7
02C0E:  BSF    FA6.2
02C10:  MOVF   FF2,W
02C12:  MOVWF  00
02C14:  BCF    FF2.6
02C16:  BCF    FF2.7
02C18:  MOVLB  F
02C1A:  MOVLW  55
02C1C:  MOVWF  FA7
02C1E:  MOVLW  AA
02C20:  MOVWF  FA7
02C22:  BSF    FA6.1
02C24:  BTFSC  FA6.1
02C26:  BRA    2C24
02C28:  BCF    FA6.2
02C2A:  MOVF   00,W
02C2C:  IORWF  FF2,F
....................       delay_ms(10); 
02C2E:  MOVLW  0A
02C30:  MOVLB  4
02C32:  MOVWF  x2A
02C34:  MOVLB  0
02C36:  CALL   1814
....................    } 
....................    if(Testerilizacionp[3]>9 || Testerilizacionp[3]<0){ 
02C3A:  BTFSC  xBB.7
02C3C:  BRA    2C44
02C3E:  MOVF   xBB,W
02C40:  SUBLW  09
02C42:  BNC   2C4A
02C44:  BTFSC  xBB.7
02C46:  BRA    2C4A
02C48:  BRA    2C84
....................       Testerilizacionp[3]=0; 
02C4A:  CLRF   xBB
....................       write_eeprom(3,0); 
02C4C:  CLRF   FAA
02C4E:  MOVLW  03
02C50:  MOVWF  FA9
02C52:  CLRF   FA8
02C54:  BCF    FA6.6
02C56:  BCF    FA6.7
02C58:  BSF    FA6.2
02C5A:  MOVF   FF2,W
02C5C:  MOVWF  00
02C5E:  BCF    FF2.6
02C60:  BCF    FF2.7
02C62:  MOVLB  F
02C64:  MOVLW  55
02C66:  MOVWF  FA7
02C68:  MOVLW  AA
02C6A:  MOVWF  FA7
02C6C:  BSF    FA6.1
02C6E:  BTFSC  FA6.1
02C70:  BRA    2C6E
02C72:  BCF    FA6.2
02C74:  MOVF   00,W
02C76:  IORWF  FF2,F
....................       delay_ms(10); 
02C78:  MOVLW  0A
02C7A:  MOVLB  4
02C7C:  MOVWF  x2A
02C7E:  MOVLB  0
02C80:  CALL   1814
....................    } 
....................    if(Tsecadop[0]>9 || Tsecadop[0]<0){ 
02C84:  BTFSC  xC1.7
02C86:  BRA    2C8E
02C88:  MOVF   xC1,W
02C8A:  SUBLW  09
02C8C:  BNC   2C94
02C8E:  BTFSC  xC1.7
02C90:  BRA    2C94
02C92:  BRA    2CCE
....................       Tsecadop[0]=0; 
02C94:  CLRF   xC1
....................       write_eeprom(4,0); 
02C96:  CLRF   FAA
02C98:  MOVLW  04
02C9A:  MOVWF  FA9
02C9C:  CLRF   FA8
02C9E:  BCF    FA6.6
02CA0:  BCF    FA6.7
02CA2:  BSF    FA6.2
02CA4:  MOVF   FF2,W
02CA6:  MOVWF  00
02CA8:  BCF    FF2.6
02CAA:  BCF    FF2.7
02CAC:  MOVLB  F
02CAE:  MOVLW  55
02CB0:  MOVWF  FA7
02CB2:  MOVLW  AA
02CB4:  MOVWF  FA7
02CB6:  BSF    FA6.1
02CB8:  BTFSC  FA6.1
02CBA:  BRA    2CB8
02CBC:  BCF    FA6.2
02CBE:  MOVF   00,W
02CC0:  IORWF  FF2,F
....................       delay_ms(10); 
02CC2:  MOVLW  0A
02CC4:  MOVLB  4
02CC6:  MOVWF  x2A
02CC8:  MOVLB  0
02CCA:  CALL   1814
....................    } 
....................    if(Tsecadop[1]>9 || Tsecadop[1]<0){ 
02CCE:  BTFSC  xC2.7
02CD0:  BRA    2CD8
02CD2:  MOVF   xC2,W
02CD4:  SUBLW  09
02CD6:  BNC   2CDE
02CD8:  BTFSC  xC2.7
02CDA:  BRA    2CDE
02CDC:  BRA    2D18
....................       Tsecadop[1]=0; 
02CDE:  CLRF   xC2
....................       write_eeprom(5,0); 
02CE0:  CLRF   FAA
02CE2:  MOVLW  05
02CE4:  MOVWF  FA9
02CE6:  CLRF   FA8
02CE8:  BCF    FA6.6
02CEA:  BCF    FA6.7
02CEC:  BSF    FA6.2
02CEE:  MOVF   FF2,W
02CF0:  MOVWF  00
02CF2:  BCF    FF2.6
02CF4:  BCF    FF2.7
02CF6:  MOVLB  F
02CF8:  MOVLW  55
02CFA:  MOVWF  FA7
02CFC:  MOVLW  AA
02CFE:  MOVWF  FA7
02D00:  BSF    FA6.1
02D02:  BTFSC  FA6.1
02D04:  BRA    2D02
02D06:  BCF    FA6.2
02D08:  MOVF   00,W
02D0A:  IORWF  FF2,F
....................       delay_ms(10); 
02D0C:  MOVLW  0A
02D0E:  MOVLB  4
02D10:  MOVWF  x2A
02D12:  MOVLB  0
02D14:  CALL   1814
....................    } 
....................    if(Tsecadop[2]>9 || Tsecadop[2]<0){ 
02D18:  BTFSC  xC3.7
02D1A:  BRA    2D22
02D1C:  MOVF   xC3,W
02D1E:  SUBLW  09
02D20:  BNC   2D28
02D22:  BTFSC  xC3.7
02D24:  BRA    2D28
02D26:  BRA    2D62
....................       Tsecadop[2]=0; 
02D28:  CLRF   xC3
....................       write_eeprom(6,0); 
02D2A:  CLRF   FAA
02D2C:  MOVLW  06
02D2E:  MOVWF  FA9
02D30:  CLRF   FA8
02D32:  BCF    FA6.6
02D34:  BCF    FA6.7
02D36:  BSF    FA6.2
02D38:  MOVF   FF2,W
02D3A:  MOVWF  00
02D3C:  BCF    FF2.6
02D3E:  BCF    FF2.7
02D40:  MOVLB  F
02D42:  MOVLW  55
02D44:  MOVWF  FA7
02D46:  MOVLW  AA
02D48:  MOVWF  FA7
02D4A:  BSF    FA6.1
02D4C:  BTFSC  FA6.1
02D4E:  BRA    2D4C
02D50:  BCF    FA6.2
02D52:  MOVF   00,W
02D54:  IORWF  FF2,F
....................       delay_ms(10); 
02D56:  MOVLW  0A
02D58:  MOVLB  4
02D5A:  MOVWF  x2A
02D5C:  MOVLB  0
02D5E:  CALL   1814
....................    } 
....................    if(Tsecadop[3]>9 || Tsecadop[3]<0){ 
02D62:  BTFSC  xC4.7
02D64:  BRA    2D6C
02D66:  MOVF   xC4,W
02D68:  SUBLW  09
02D6A:  BNC   2D72
02D6C:  BTFSC  xC4.7
02D6E:  BRA    2D72
02D70:  BRA    2DAC
....................       Tsecadop[3]=0; 
02D72:  CLRF   xC4
....................       write_eeprom(7,0); 
02D74:  CLRF   FAA
02D76:  MOVLW  07
02D78:  MOVWF  FA9
02D7A:  CLRF   FA8
02D7C:  BCF    FA6.6
02D7E:  BCF    FA6.7
02D80:  BSF    FA6.2
02D82:  MOVF   FF2,W
02D84:  MOVWF  00
02D86:  BCF    FF2.6
02D88:  BCF    FF2.7
02D8A:  MOVLB  F
02D8C:  MOVLW  55
02D8E:  MOVWF  FA7
02D90:  MOVLW  AA
02D92:  MOVWF  FA7
02D94:  BSF    FA6.1
02D96:  BTFSC  FA6.1
02D98:  BRA    2D96
02D9A:  BCF    FA6.2
02D9C:  MOVF   00,W
02D9E:  IORWF  FF2,F
....................       delay_ms(10); 
02DA0:  MOVLW  0A
02DA2:  MOVLB  4
02DA4:  MOVWF  x2A
02DA6:  MOVLB  0
02DA8:  CALL   1814
....................    } 
....................    if(Setpoint>134){ 
02DAC:  MOVLB  3
02DAE:  MOVF   x50,W
02DB0:  SUBLW  86
02DB2:  BC    2DF4
....................       Setpoint=134; 
02DB4:  MOVLW  86
02DB6:  MOVWF  x50
....................       write_eeprom(8,134); 
02DB8:  CLRF   FAA
02DBA:  MOVLW  08
02DBC:  MOVWF  FA9
02DBE:  MOVLW  86
02DC0:  MOVWF  FA8
02DC2:  BCF    FA6.6
02DC4:  BCF    FA6.7
02DC6:  BSF    FA6.2
02DC8:  MOVF   FF2,W
02DCA:  MOVWF  00
02DCC:  BCF    FF2.6
02DCE:  BCF    FF2.7
02DD0:  MOVLB  F
02DD2:  MOVLW  55
02DD4:  MOVWF  FA7
02DD6:  MOVLW  AA
02DD8:  MOVWF  FA7
02DDA:  BSF    FA6.1
02DDC:  BTFSC  FA6.1
02DDE:  BRA    2DDC
02DE0:  BCF    FA6.2
02DE2:  MOVF   00,W
02DE4:  IORWF  FF2,F
....................       delay_ms(10); 
02DE6:  MOVLW  0A
02DE8:  MOVLB  4
02DEA:  MOVWF  x2A
02DEC:  MOVLB  0
02DEE:  CALL   1814
02DF2:  MOVLB  3
....................    } 
....................    if(Nivel>6){ 
02DF4:  MOVF   x5F,F
02DF6:  BNZ   2DFE
02DF8:  MOVF   x5E,W
02DFA:  SUBLW  06
02DFC:  BC    2E40
....................       Nivel=3; 
02DFE:  CLRF   x5F
02E00:  MOVLW  03
02E02:  MOVWF  x5E
....................       write_eeprom(9,3); 
02E04:  CLRF   FAA
02E06:  MOVLW  09
02E08:  MOVWF  FA9
02E0A:  MOVLW  03
02E0C:  MOVWF  FA8
02E0E:  BCF    FA6.6
02E10:  BCF    FA6.7
02E12:  BSF    FA6.2
02E14:  MOVF   FF2,W
02E16:  MOVWF  00
02E18:  BCF    FF2.6
02E1A:  BCF    FF2.7
02E1C:  MOVLB  F
02E1E:  MOVLW  55
02E20:  MOVWF  FA7
02E22:  MOVLW  AA
02E24:  MOVWF  FA7
02E26:  BSF    FA6.1
02E28:  BTFSC  FA6.1
02E2A:  BRA    2E28
02E2C:  BCF    FA6.2
02E2E:  MOVF   00,W
02E30:  IORWF  FF2,F
....................       delay_ms(10); 
02E32:  MOVLW  0A
02E34:  MOVLB  4
02E36:  MOVWF  x2A
02E38:  MOVLB  0
02E3A:  CALL   1814
02E3E:  MOVLB  3
....................    } 
....................    if(Password[0]>9 || Password[0]<0){ 
02E40:  BTFSC  x6E.7
02E42:  BRA    2E4A
02E44:  MOVF   x6E,W
02E46:  SUBLW  09
02E48:  BNC   2E50
02E4A:  BTFSC  x6E.7
02E4C:  BRA    2E50
02E4E:  BRA    2E8C
....................       Password[0]=0; 
02E50:  CLRF   x6E
....................       write_eeprom(10,0); 
02E52:  CLRF   FAA
02E54:  MOVLW  0A
02E56:  MOVWF  FA9
02E58:  CLRF   FA8
02E5A:  BCF    FA6.6
02E5C:  BCF    FA6.7
02E5E:  BSF    FA6.2
02E60:  MOVF   FF2,W
02E62:  MOVWF  00
02E64:  BCF    FF2.6
02E66:  BCF    FF2.7
02E68:  MOVLB  F
02E6A:  MOVLW  55
02E6C:  MOVWF  FA7
02E6E:  MOVLW  AA
02E70:  MOVWF  FA7
02E72:  BSF    FA6.1
02E74:  BTFSC  FA6.1
02E76:  BRA    2E74
02E78:  BCF    FA6.2
02E7A:  MOVF   00,W
02E7C:  IORWF  FF2,F
....................       delay_ms(10); 
02E7E:  MOVLW  0A
02E80:  MOVLB  4
02E82:  MOVWF  x2A
02E84:  MOVLB  0
02E86:  CALL   1814
02E8A:  MOVLB  3
....................    } 
....................    if(Password[1]>9 || Password[1]<0){ 
02E8C:  BTFSC  x6F.7
02E8E:  BRA    2E96
02E90:  MOVF   x6F,W
02E92:  SUBLW  09
02E94:  BNC   2E9C
02E96:  BTFSC  x6F.7
02E98:  BRA    2E9C
02E9A:  BRA    2ED8
....................       Password[1]=0; 
02E9C:  CLRF   x6F
....................       write_eeprom(11,0); 
02E9E:  CLRF   FAA
02EA0:  MOVLW  0B
02EA2:  MOVWF  FA9
02EA4:  CLRF   FA8
02EA6:  BCF    FA6.6
02EA8:  BCF    FA6.7
02EAA:  BSF    FA6.2
02EAC:  MOVF   FF2,W
02EAE:  MOVWF  00
02EB0:  BCF    FF2.6
02EB2:  BCF    FF2.7
02EB4:  MOVLB  F
02EB6:  MOVLW  55
02EB8:  MOVWF  FA7
02EBA:  MOVLW  AA
02EBC:  MOVWF  FA7
02EBE:  BSF    FA6.1
02EC0:  BTFSC  FA6.1
02EC2:  BRA    2EC0
02EC4:  BCF    FA6.2
02EC6:  MOVF   00,W
02EC8:  IORWF  FF2,F
....................       delay_ms(10); 
02ECA:  MOVLW  0A
02ECC:  MOVLB  4
02ECE:  MOVWF  x2A
02ED0:  MOVLB  0
02ED2:  CALL   1814
02ED6:  MOVLB  3
....................    } 
....................    if(Password[2]>9 || Password[2]<0){ 
02ED8:  BTFSC  x70.7
02EDA:  BRA    2EE2
02EDC:  MOVF   x70,W
02EDE:  SUBLW  09
02EE0:  BNC   2EE8
02EE2:  BTFSC  x70.7
02EE4:  BRA    2EE8
02EE6:  BRA    2F24
....................       Password[2]=0; 
02EE8:  CLRF   x70
....................       write_eeprom(12,0); 
02EEA:  CLRF   FAA
02EEC:  MOVLW  0C
02EEE:  MOVWF  FA9
02EF0:  CLRF   FA8
02EF2:  BCF    FA6.6
02EF4:  BCF    FA6.7
02EF6:  BSF    FA6.2
02EF8:  MOVF   FF2,W
02EFA:  MOVWF  00
02EFC:  BCF    FF2.6
02EFE:  BCF    FF2.7
02F00:  MOVLB  F
02F02:  MOVLW  55
02F04:  MOVWF  FA7
02F06:  MOVLW  AA
02F08:  MOVWF  FA7
02F0A:  BSF    FA6.1
02F0C:  BTFSC  FA6.1
02F0E:  BRA    2F0C
02F10:  BCF    FA6.2
02F12:  MOVF   00,W
02F14:  IORWF  FF2,F
....................       delay_ms(10); 
02F16:  MOVLW  0A
02F18:  MOVLB  4
02F1A:  MOVWF  x2A
02F1C:  MOVLB  0
02F1E:  CALL   1814
02F22:  MOVLB  3
....................    } 
....................    if(Password[3]>9 || Password[3]<0){ 
02F24:  BTFSC  x71.7
02F26:  BRA    2F2E
02F28:  MOVF   x71,W
02F2A:  SUBLW  09
02F2C:  BNC   2F34
02F2E:  BTFSC  x71.7
02F30:  BRA    2F34
02F32:  BRA    2F6E
....................       Password[3]=0; 
02F34:  CLRF   x71
....................       write_eeprom(13,0); 
02F36:  CLRF   FAA
02F38:  MOVLW  0D
02F3A:  MOVWF  FA9
02F3C:  CLRF   FA8
02F3E:  BCF    FA6.6
02F40:  BCF    FA6.7
02F42:  BSF    FA6.2
02F44:  MOVF   FF2,W
02F46:  MOVWF  00
02F48:  BCF    FF2.6
02F4A:  BCF    FF2.7
02F4C:  MOVLB  F
02F4E:  MOVLW  55
02F50:  MOVWF  FA7
02F52:  MOVLW  AA
02F54:  MOVWF  FA7
02F56:  BSF    FA6.1
02F58:  BTFSC  FA6.1
02F5A:  BRA    2F58
02F5C:  BCF    FA6.2
02F5E:  MOVF   00,W
02F60:  IORWF  FF2,F
....................       delay_ms(10); 
02F62:  MOVLW  0A
02F64:  MOVLB  4
02F66:  MOVWF  x2A
02F68:  MOVLB  0
02F6A:  CALL   1814
....................    } 
....................    if(Ganancia>12.0){ 
02F6E:  MOVLB  4
02F70:  CLRF   x1C
02F72:  CLRF   x1B
02F74:  MOVLW  40
02F76:  MOVWF  x1A
02F78:  MOVLW  82
02F7A:  MOVWF  x19
02F7C:  MOVFF  2FA,420
02F80:  MOVFF  2F9,41F
02F84:  MOVFF  2F8,41E
02F88:  MOVFF  2F7,41D
02F8C:  MOVLB  0
02F8E:  RCALL  2A96
02F90:  BNC   2FDA
....................       Ganancia=12.0; 
02F92:  MOVLB  2
02F94:  CLRF   xFA
02F96:  CLRF   xF9
02F98:  MOVLW  40
02F9A:  MOVWF  xF8
02F9C:  MOVLW  82
02F9E:  MOVWF  xF7
....................       write_eeprom(20,12); 
02FA0:  CLRF   FAA
02FA2:  MOVLW  14
02FA4:  MOVWF  FA9
02FA6:  MOVLW  0C
02FA8:  MOVWF  FA8
02FAA:  BCF    FA6.6
02FAC:  BCF    FA6.7
02FAE:  BSF    FA6.2
02FB0:  MOVF   FF2,W
02FB2:  MOVWF  00
02FB4:  BCF    FF2.6
02FB6:  BCF    FF2.7
02FB8:  MOVLB  F
02FBA:  MOVLW  55
02FBC:  MOVWF  FA7
02FBE:  MOVLW  AA
02FC0:  MOVWF  FA7
02FC2:  BSF    FA6.1
02FC4:  BTFSC  FA6.1
02FC6:  BRA    2FC4
02FC8:  BCF    FA6.2
02FCA:  MOVF   00,W
02FCC:  IORWF  FF2,F
....................       delay_ms(10); 
02FCE:  MOVLW  0A
02FD0:  MOVLB  4
02FD2:  MOVWF  x2A
02FD4:  MOVLB  0
02FD6:  CALL   1814
....................    } 
....................    if(Ajuste>10){ 
02FDA:  MOVLB  2
02FDC:  MOVF   xCF,W
02FDE:  SUBLW  0A
02FE0:  BC    301E
....................       Ajuste=0; 
02FE2:  CLRF   xCF
....................       write_eeprom(21,0); 
02FE4:  CLRF   FAA
02FE6:  MOVLW  15
02FE8:  MOVWF  FA9
02FEA:  CLRF   FA8
02FEC:  BCF    FA6.6
02FEE:  BCF    FA6.7
02FF0:  BSF    FA6.2
02FF2:  MOVF   FF2,W
02FF4:  MOVWF  00
02FF6:  BCF    FF2.6
02FF8:  BCF    FF2.7
02FFA:  MOVLB  F
02FFC:  MOVLW  55
02FFE:  MOVWF  FA7
03000:  MOVLW  AA
03002:  MOVWF  FA7
03004:  BSF    FA6.1
03006:  BTFSC  FA6.1
03008:  BRA    3006
0300A:  BCF    FA6.2
0300C:  MOVF   00,W
0300E:  IORWF  FF2,F
....................       delay_ms(10); 
03010:  MOVLW  0A
03012:  MOVLB  4
03014:  MOVWF  x2A
03016:  MOVLB  0
03018:  CALL   1814
0301C:  MOVLB  2
....................    } 
....................    if(Ajusten>10){ 
0301E:  MOVF   xD0,W
03020:  SUBLW  0A
03022:  BC    3060
....................       Ajusten=0; 
03024:  CLRF   xD0
....................       write_eeprom(22,0); 
03026:  CLRF   FAA
03028:  MOVLW  16
0302A:  MOVWF  FA9
0302C:  CLRF   FA8
0302E:  BCF    FA6.6
03030:  BCF    FA6.7
03032:  BSF    FA6.2
03034:  MOVF   FF2,W
03036:  MOVWF  00
03038:  BCF    FF2.6
0303A:  BCF    FF2.7
0303C:  MOVLB  F
0303E:  MOVLW  55
03040:  MOVWF  FA7
03042:  MOVLW  AA
03044:  MOVWF  FA7
03046:  BSF    FA6.1
03048:  BTFSC  FA6.1
0304A:  BRA    3048
0304C:  BCF    FA6.2
0304E:  MOVF   00,W
03050:  IORWF  FF2,F
....................       delay_ms(10); 
03052:  MOVLW  0A
03054:  MOVLB  4
03056:  MOVWF  x2A
03058:  MOVLB  0
0305A:  CALL   1814
0305E:  MOVLB  2
....................    } 
....................    if(MediaMovil>80){ 
03060:  MOVF   xD1,W
03062:  SUBLW  50
03064:  BC    30A4
....................       MediaMovil=80; 
03066:  MOVLW  50
03068:  MOVWF  xD1
....................       write_eeprom(24,80); 
0306A:  CLRF   FAA
0306C:  MOVLW  18
0306E:  MOVWF  FA9
03070:  MOVLW  50
03072:  MOVWF  FA8
03074:  BCF    FA6.6
03076:  BCF    FA6.7
03078:  BSF    FA6.2
0307A:  MOVF   FF2,W
0307C:  MOVWF  00
0307E:  BCF    FF2.6
03080:  BCF    FF2.7
03082:  MOVLB  F
03084:  MOVLW  55
03086:  MOVWF  FA7
03088:  MOVLW  AA
0308A:  MOVWF  FA7
0308C:  BSF    FA6.1
0308E:  BTFSC  FA6.1
03090:  BRA    308E
03092:  BCF    FA6.2
03094:  MOVF   00,W
03096:  IORWF  FF2,F
....................       delay_ms(10); 
03098:  MOVLW  0A
0309A:  MOVLB  4
0309C:  MOVWF  x2A
0309E:  MOVLB  0
030A0:  CALL   1814
....................    } 
....................    if(Tciclo>10){ 
030A4:  MOVLB  4
030A6:  CLRF   x1C
030A8:  CLRF   x1B
030AA:  MOVLW  20
030AC:  MOVWF  x1A
030AE:  MOVLW  82
030B0:  MOVWF  x19
030B2:  MOVFF  2E2,420
030B6:  MOVFF  2E1,41F
030BA:  MOVFF  2E0,41E
030BE:  MOVFF  2DF,41D
030C2:  MOVLB  0
030C4:  RCALL  2A96
030C6:  BNC   3110
....................       Tciclo=10; 
030C8:  MOVLB  2
030CA:  CLRF   xE2
030CC:  CLRF   xE1
030CE:  MOVLW  20
030D0:  MOVWF  xE0
030D2:  MOVLW  82
030D4:  MOVWF  xDF
....................       write_eeprom(25,10); 
030D6:  CLRF   FAA
030D8:  MOVLW  19
030DA:  MOVWF  FA9
030DC:  MOVLW  0A
030DE:  MOVWF  FA8
030E0:  BCF    FA6.6
030E2:  BCF    FA6.7
030E4:  BSF    FA6.2
030E6:  MOVF   FF2,W
030E8:  MOVWF  00
030EA:  BCF    FF2.6
030EC:  BCF    FF2.7
030EE:  MOVLB  F
030F0:  MOVLW  55
030F2:  MOVWF  FA7
030F4:  MOVLW  AA
030F6:  MOVWF  FA7
030F8:  BSF    FA6.1
030FA:  BTFSC  FA6.1
030FC:  BRA    30FA
030FE:  BCF    FA6.2
03100:  MOVF   00,W
03102:  IORWF  FF2,F
....................       delay_ms(10); 
03104:  MOVLW  0A
03106:  MOVLB  4
03108:  MOVWF  x2A
0310A:  MOVLB  0
0310C:  CALL   1814
....................    } 
....................    if(Integral>2.0){ 
03110:  MOVLB  4
03112:  CLRF   x2B
03114:  MOVFF  33B,42A
03118:  MOVLB  0
0311A:  CALL   183C
0311E:  MOVLB  4
03120:  CLRF   x1C
03122:  CLRF   x1B
03124:  CLRF   x1A
03126:  MOVLW  80
03128:  MOVWF  x19
0312A:  MOVFF  03,420
0312E:  MOVFF  02,41F
03132:  MOVFF  01,41E
03136:  MOVFF  00,41D
0313A:  MOVLB  0
0313C:  RCALL  2A96
0313E:  BNC   3180
....................       Integral=1.0; 
03140:  MOVLW  01
03142:  MOVLB  3
03144:  MOVWF  x3B
....................       write_eeprom(26,1); 
03146:  CLRF   FAA
03148:  MOVLW  1A
0314A:  MOVWF  FA9
0314C:  MOVLW  01
0314E:  MOVWF  FA8
03150:  BCF    FA6.6
03152:  BCF    FA6.7
03154:  BSF    FA6.2
03156:  MOVF   FF2,W
03158:  MOVWF  00
0315A:  BCF    FF2.6
0315C:  BCF    FF2.7
0315E:  MOVLB  F
03160:  MOVLW  55
03162:  MOVWF  FA7
03164:  MOVLW  AA
03166:  MOVWF  FA7
03168:  BSF    FA6.1
0316A:  BTFSC  FA6.1
0316C:  BRA    316A
0316E:  BCF    FA6.2
03170:  MOVF   00,W
03172:  IORWF  FF2,F
....................       delay_ms(10); 
03174:  MOVLW  0A
03176:  MOVLB  4
03178:  MOVWF  x2A
0317A:  MOVLB  0
0317C:  CALL   1814
....................    } 
....................    if(Derivativo>20.0){ 
03180:  MOVLB  4
03182:  CLRF   x2B
03184:  MOVFF  33C,42A
03188:  MOVLB  0
0318A:  CALL   183C
0318E:  MOVLB  4
03190:  CLRF   x1C
03192:  CLRF   x1B
03194:  MOVLW  20
03196:  MOVWF  x1A
03198:  MOVLW  83
0319A:  MOVWF  x19
0319C:  MOVFF  03,420
031A0:  MOVFF  02,41F
031A4:  MOVFF  01,41E
031A8:  MOVFF  00,41D
031AC:  MOVLB  0
031AE:  RCALL  2A96
031B0:  BNC   31F2
....................       Derivativo=15.0; 
031B2:  MOVLW  0F
031B4:  MOVLB  3
031B6:  MOVWF  x3C
....................       write_eeprom(27,15); 
031B8:  CLRF   FAA
031BA:  MOVLW  1B
031BC:  MOVWF  FA9
031BE:  MOVLW  0F
031C0:  MOVWF  FA8
031C2:  BCF    FA6.6
031C4:  BCF    FA6.7
031C6:  BSF    FA6.2
031C8:  MOVF   FF2,W
031CA:  MOVWF  00
031CC:  BCF    FF2.6
031CE:  BCF    FF2.7
031D0:  MOVLB  F
031D2:  MOVLW  55
031D4:  MOVWF  FA7
031D6:  MOVLW  AA
031D8:  MOVWF  FA7
031DA:  BSF    FA6.1
031DC:  BTFSC  FA6.1
031DE:  BRA    31DC
031E0:  BCF    FA6.2
031E2:  MOVF   00,W
031E4:  IORWF  FF2,F
....................       delay_ms(10); 
031E6:  MOVLW  0A
031E8:  MOVLB  4
031EA:  MOVWF  x2A
031EC:  MOVLB  0
031EE:  CALL   1814
....................    } 
....................    if(Gain>50){ 
031F2:  MOVLB  4
031F4:  CLRF   x1C
031F6:  CLRF   x1B
031F8:  MOVLW  48
031FA:  MOVWF  x1A
031FC:  MOVLW  84
031FE:  MOVWF  x19
03200:  MOVFF  2A8,420
03204:  MOVFF  2A7,41F
03208:  MOVFF  2A6,41E
0320C:  MOVFF  2A5,41D
03210:  MOVLB  0
03212:  RCALL  2A96
03214:  BNC   329C
....................       Gain=40.2; 
03216:  MOVLW  CD
03218:  MOVLB  2
0321A:  MOVWF  xA8
0321C:  MOVLW  CC
0321E:  MOVWF  xA7
03220:  MOVLW  20
03222:  MOVWF  xA6
03224:  MOVLW  84
03226:  MOVWF  xA5
....................       write_eeprom(28,40); 
03228:  CLRF   FAA
0322A:  MOVLW  1C
0322C:  MOVWF  FA9
0322E:  MOVLW  28
03230:  MOVWF  FA8
03232:  BCF    FA6.6
03234:  BCF    FA6.7
03236:  BSF    FA6.2
03238:  MOVF   FF2,W
0323A:  MOVWF  00
0323C:  BCF    FF2.6
0323E:  BCF    FF2.7
03240:  MOVLB  F
03242:  MOVLW  55
03244:  MOVWF  FA7
03246:  MOVLW  AA
03248:  MOVWF  FA7
0324A:  BSF    FA6.1
0324C:  BTFSC  FA6.1
0324E:  BRA    324C
03250:  BCF    FA6.2
03252:  MOVF   00,W
03254:  IORWF  FF2,F
....................       delay_ms(10); 
03256:  MOVLW  0A
03258:  MOVLB  4
0325A:  MOVWF  x2A
0325C:  MOVLB  0
0325E:  CALL   1814
....................       write_eeprom(29,2); 
03262:  CLRF   FAA
03264:  MOVLW  1D
03266:  MOVWF  FA9
03268:  MOVLW  02
0326A:  MOVWF  FA8
0326C:  BCF    FA6.6
0326E:  BCF    FA6.7
03270:  BSF    FA6.2
03272:  MOVF   FF2,W
03274:  MOVWF  00
03276:  BCF    FF2.6
03278:  BCF    FF2.7
0327A:  MOVLB  F
0327C:  MOVLW  55
0327E:  MOVWF  FA7
03280:  MOVLW  AA
03282:  MOVWF  FA7
03284:  BSF    FA6.1
03286:  BTFSC  FA6.1
03288:  BRA    3286
0328A:  BCF    FA6.2
0328C:  MOVF   00,W
0328E:  IORWF  FF2,F
....................       delay_ms(10); 
03290:  MOVLW  0A
03292:  MOVLB  4
03294:  MOVWF  x2A
03296:  MOVLB  0
03298:  CALL   1814
....................    } 
....................    if(R1>6400){ 
0329C:  MOVLB  4
0329E:  CLRF   x1C
032A0:  CLRF   x1B
032A2:  MOVLW  48
032A4:  MOVWF  x1A
032A6:  MOVLW  8B
032A8:  MOVWF  x19
032AA:  MOVFF  2B4,420
032AE:  MOVFF  2B3,41F
032B2:  MOVFF  2B2,41E
032B6:  MOVFF  2B1,41D
032BA:  MOVLB  0
032BC:  CALL   2A96
032C0:  BNC   3346
....................       R1=6200; 
032C2:  MOVLB  2
032C4:  CLRF   xB4
032C6:  MOVLW  C0
032C8:  MOVWF  xB3
032CA:  MOVLW  41
032CC:  MOVWF  xB2
032CE:  MOVLW  8B
032D0:  MOVWF  xB1
....................       write_eeprom(30,0x38); 
032D2:  CLRF   FAA
032D4:  MOVLW  1E
032D6:  MOVWF  FA9
032D8:  MOVLW  38
032DA:  MOVWF  FA8
032DC:  BCF    FA6.6
032DE:  BCF    FA6.7
032E0:  BSF    FA6.2
032E2:  MOVF   FF2,W
032E4:  MOVWF  00
032E6:  BCF    FF2.6
032E8:  BCF    FF2.7
032EA:  MOVLB  F
032EC:  MOVLW  55
032EE:  MOVWF  FA7
032F0:  MOVLW  AA
032F2:  MOVWF  FA7
032F4:  BSF    FA6.1
032F6:  BTFSC  FA6.1
032F8:  BRA    32F6
032FA:  BCF    FA6.2
032FC:  MOVF   00,W
032FE:  IORWF  FF2,F
....................       delay_ms(10); 
03300:  MOVLW  0A
03302:  MOVLB  4
03304:  MOVWF  x2A
03306:  MOVLB  0
03308:  CALL   1814
....................       write_eeprom(31,0x18); 
0330C:  CLRF   FAA
0330E:  MOVLW  1F
03310:  MOVWF  FA9
03312:  MOVLW  18
03314:  MOVWF  FA8
03316:  BCF    FA6.6
03318:  BCF    FA6.7
0331A:  BSF    FA6.2
0331C:  MOVF   FF2,W
0331E:  MOVWF  00
03320:  BCF    FF2.6
03322:  BCF    FF2.7
03324:  MOVLB  F
03326:  MOVLW  55
03328:  MOVWF  FA7
0332A:  MOVLW  AA
0332C:  MOVWF  FA7
0332E:  BSF    FA6.1
03330:  BTFSC  FA6.1
03332:  BRA    3330
03334:  BCF    FA6.2
03336:  MOVF   00,W
03338:  IORWF  FF2,F
....................       delay_ms(10); 
0333A:  MOVLW  0A
0333C:  MOVLB  4
0333E:  MOVWF  x2A
03340:  MOVLB  0
03342:  CALL   1814
....................    } 
....................    if(RPT100>2.0){ 
03346:  MOVLB  4
03348:  CLRF   x1C
0334A:  CLRF   x1B
0334C:  CLRF   x1A
0334E:  MOVLW  80
03350:  MOVWF  x19
03352:  MOVFF  2AC,420
03356:  MOVFF  2AB,41F
0335A:  MOVFF  2AA,41E
0335E:  MOVFF  2A9,41D
03362:  MOVLB  0
03364:  CALL   2A96
03368:  BNC   33E8
....................       RPT100=0.5; 
0336A:  MOVLB  2
0336C:  CLRF   xAC
0336E:  CLRF   xAB
03370:  CLRF   xAA
03372:  MOVLW  7E
03374:  MOVWF  xA9
....................       write_eeprom(32,0); 
03376:  CLRF   FAA
03378:  MOVLW  20
0337A:  MOVWF  FA9
0337C:  CLRF   FA8
0337E:  BCF    FA6.6
03380:  BCF    FA6.7
03382:  BSF    FA6.2
03384:  MOVF   FF2,W
03386:  MOVWF  00
03388:  BCF    FF2.6
0338A:  BCF    FF2.7
0338C:  MOVLB  F
0338E:  MOVLW  55
03390:  MOVWF  FA7
03392:  MOVLW  AA
03394:  MOVWF  FA7
03396:  BSF    FA6.1
03398:  BTFSC  FA6.1
0339A:  BRA    3398
0339C:  BCF    FA6.2
0339E:  MOVF   00,W
033A0:  IORWF  FF2,F
....................       delay_ms(10); 
033A2:  MOVLW  0A
033A4:  MOVLB  4
033A6:  MOVWF  x2A
033A8:  MOVLB  0
033AA:  CALL   1814
....................       write_eeprom(33,5); 
033AE:  CLRF   FAA
033B0:  MOVLW  21
033B2:  MOVWF  FA9
033B4:  MOVLW  05
033B6:  MOVWF  FA8
033B8:  BCF    FA6.6
033BA:  BCF    FA6.7
033BC:  BSF    FA6.2
033BE:  MOVF   FF2,W
033C0:  MOVWF  00
033C2:  BCF    FF2.6
033C4:  BCF    FF2.7
033C6:  MOVLB  F
033C8:  MOVLW  55
033CA:  MOVWF  FA7
033CC:  MOVLW  AA
033CE:  MOVWF  FA7
033D0:  BSF    FA6.1
033D2:  BTFSC  FA6.1
033D4:  BRA    33D2
033D6:  BCF    FA6.2
033D8:  MOVF   00,W
033DA:  IORWF  FF2,F
....................       delay_ms(10); 
033DC:  MOVLW  0A
033DE:  MOVLB  4
033E0:  MOVWF  x2A
033E2:  MOVLB  0
033E4:  CALL   1814
....................    } 
....................    if(Ciclos>60000){ 
033E8:  MOVLB  3
033EA:  MOVF   x67,W
033EC:  SUBLW  E9
033EE:  BC    346E
033F0:  XORLW  FF
033F2:  BNZ   33FA
033F4:  MOVF   x66,W
033F6:  SUBLW  60
033F8:  BC    346E
....................       Ciclos=0; 
033FA:  CLRF   x67
033FC:  CLRF   x66
....................       write_eeprom(37,0); 
033FE:  CLRF   FAA
03400:  MOVLW  25
03402:  MOVWF  FA9
03404:  CLRF   FA8
03406:  BCF    FA6.6
03408:  BCF    FA6.7
0340A:  BSF    FA6.2
0340C:  MOVF   FF2,W
0340E:  MOVWF  00
03410:  BCF    FF2.6
03412:  BCF    FF2.7
03414:  MOVLB  F
03416:  MOVLW  55
03418:  MOVWF  FA7
0341A:  MOVLW  AA
0341C:  MOVWF  FA7
0341E:  BSF    FA6.1
03420:  BTFSC  FA6.1
03422:  BRA    3420
03424:  BCF    FA6.2
03426:  MOVF   00,W
03428:  IORWF  FF2,F
....................       delay_ms(10); 
0342A:  MOVLW  0A
0342C:  MOVLB  4
0342E:  MOVWF  x2A
03430:  MOVLB  0
03432:  CALL   1814
....................       write_eeprom(38,0); 
03436:  CLRF   FAA
03438:  MOVLW  26
0343A:  MOVWF  FA9
0343C:  CLRF   FA8
0343E:  BCF    FA6.6
03440:  BCF    FA6.7
03442:  BSF    FA6.2
03444:  MOVF   FF2,W
03446:  MOVWF  00
03448:  BCF    FF2.6
0344A:  BCF    FF2.7
0344C:  MOVLB  F
0344E:  MOVLW  55
03450:  MOVWF  FA7
03452:  MOVLW  AA
03454:  MOVWF  FA7
03456:  BSF    FA6.1
03458:  BTFSC  FA6.1
0345A:  BRA    3458
0345C:  BCF    FA6.2
0345E:  MOVF   00,W
03460:  IORWF  FF2,F
....................       delay_ms(10); 
03462:  MOVLW  0A
03464:  MOVLB  4
03466:  MOVWF  x2A
03468:  MOVLB  0
0346A:  CALL   1814
....................    } 
....................    if(TTrampa>100){ 
0346E:  MOVLB  2
03470:  MOVF   xD2,W
03472:  SUBLW  64
03474:  BC    34B4
....................       TTrampa=80; 
03476:  MOVLW  50
03478:  MOVWF  xD2
....................       write_eeprom(39,80); 
0347A:  CLRF   FAA
0347C:  MOVLW  27
0347E:  MOVWF  FA9
03480:  MOVLW  50
03482:  MOVWF  FA8
03484:  BCF    FA6.6
03486:  BCF    FA6.7
03488:  BSF    FA6.2
0348A:  MOVF   FF2,W
0348C:  MOVWF  00
0348E:  BCF    FF2.6
03490:  BCF    FF2.7
03492:  MOVLB  F
03494:  MOVLW  55
03496:  MOVWF  FA7
03498:  MOVLW  AA
0349A:  MOVWF  FA7
0349C:  BSF    FA6.1
0349E:  BTFSC  FA6.1
034A0:  BRA    349E
034A2:  BCF    FA6.2
034A4:  MOVF   00,W
034A6:  IORWF  FF2,F
....................       delay_ms(10); 
034A8:  MOVLW  0A
034AA:  MOVLB  4
034AC:  MOVWF  x2A
034AE:  MOVLB  0
034B0:  CALL   1814
....................    } 
....................    if(ActivaImpresion>1){ 
034B4:  MOVLB  3
034B6:  MOVF   x42,W
034B8:  SUBLW  01
034BA:  BC    34FC
....................       ActivaImpresion=1; 
034BC:  MOVLW  01
034BE:  MOVWF  x42
....................       write_eeprom(40,1); 
034C0:  CLRF   FAA
034C2:  MOVLW  28
034C4:  MOVWF  FA9
034C6:  MOVLW  01
034C8:  MOVWF  FA8
034CA:  BCF    FA6.6
034CC:  BCF    FA6.7
034CE:  BSF    FA6.2
034D0:  MOVF   FF2,W
034D2:  MOVWF  00
034D4:  BCF    FF2.6
034D6:  BCF    FF2.7
034D8:  MOVLB  F
034DA:  MOVLW  55
034DC:  MOVWF  FA7
034DE:  MOVLW  AA
034E0:  MOVWF  FA7
034E2:  BSF    FA6.1
034E4:  BTFSC  FA6.1
034E6:  BRA    34E4
034E8:  BCF    FA6.2
034EA:  MOVF   00,W
034EC:  IORWF  FF2,F
....................       delay_ms(10); 
034EE:  MOVLW  0A
034F0:  MOVLB  4
034F2:  MOVWF  x2A
034F4:  MOVLB  0
034F6:  CALL   1814
034FA:  MOVLB  3
....................    } 
....................    if(timpresion>30){ 
034FC:  MOVF   x43,W
034FE:  SUBLW  1E
03500:  BC    3542
....................       timpresion=2; 
03502:  MOVLW  02
03504:  MOVWF  x43
....................       write_eeprom(41,2); 
03506:  CLRF   FAA
03508:  MOVLW  29
0350A:  MOVWF  FA9
0350C:  MOVLW  02
0350E:  MOVWF  FA8
03510:  BCF    FA6.6
03512:  BCF    FA6.7
03514:  BSF    FA6.2
03516:  MOVF   FF2,W
03518:  MOVWF  00
0351A:  BCF    FF2.6
0351C:  BCF    FF2.7
0351E:  MOVLB  F
03520:  MOVLW  55
03522:  MOVWF  FA7
03524:  MOVLW  AA
03526:  MOVWF  FA7
03528:  BSF    FA6.1
0352A:  BTFSC  FA6.1
0352C:  BRA    352A
0352E:  BCF    FA6.2
03530:  MOVF   00,W
03532:  IORWF  FF2,F
....................       delay_ms(10); 
03534:  MOVLW  0A
03536:  MOVLB  4
03538:  MOVWF  x2A
0353A:  MOVLB  0
0353C:  CALL   1814
03540:  MOVLB  3
....................    } 
....................    if(sg1==10){ 
03542:  MOVF   x91,W
03544:  SUBLW  0A
03546:  BNZ   355E
....................       G1=G1*(-1); 
03548:  MOVFF  38F,417
0354C:  MOVLW  FF
0354E:  MOVLB  4
03550:  MOVWF  x18
03552:  MOVLB  0
03554:  CALL   2B10
03558:  MOVFF  01,38F
0355C:  MOVLB  3
....................    } 
....................    if(sg2==10){ 
0355E:  MOVF   x92,W
03560:  SUBLW  0A
03562:  BNZ   357A
....................       G2=G2*(-1); 
03564:  MOVFF  390,417
03568:  MOVLW  FF
0356A:  MOVLB  4
0356C:  MOVWF  x18
0356E:  MOVLB  0
03570:  CALL   2B10
03574:  MOVFF  01,390
03578:  MOVLB  3
....................    } 
.................... } 
0357A:  MOVLB  0
0357C:  GOTO   616A (RETURN)
....................  
.................... void LeeDisplay(void){ 
....................    if(Dato_Exitoso==5){ 
*
03B32:  MOVLB  3
03B34:  MOVF   x46,W
03B36:  SUBLW  05
03B38:  BTFSS  FD8.2
03B3A:  BRA    3C9A
....................          RX_Buffer[0]=RX_Buffer2[0]; 
03B3C:  MOVFF  3B,30
....................          RX_Buffer[1]=RX_Buffer2[1]; 
03B40:  MOVFF  3C,31
....................          RX_Buffer[2]=RX_Buffer2[2]; 
03B44:  MOVFF  3D,32
....................          RX_Buffer[3]=RX_Buffer2[3]; 
03B48:  MOVFF  3E,33
....................          RX_Buffer[4]=RX_Buffer2[4]; 
03B4C:  MOVFF  3F,34
....................          RX_Buffer[5]=RX_Buffer2[5]; 
03B50:  MOVFF  40,35
....................          RX_Buffer[6]=RX_Buffer2[6]; 
03B54:  MOVFF  41,36
....................          RX_Buffer[7]=RX_Buffer2[7]; 
03B58:  MOVFF  42,37
....................          RX_Buffer[8]=RX_Buffer2[8]; 
03B5C:  MOVFF  43,38
....................          RX_Buffer[9]=RX_Buffer2[9]; 
03B60:  MOVFF  44,39
....................           
....................       if(RX_Buffer[3]==0x01){// Pregunta por la pagina en la que esta el display,01 es Contrasea de Acceso 
03B64:  DECFSZ 33,W
03B66:  BRA    3B76
....................          Menu=0; 
03B68:  CLRF   x49
....................          if(MenuAntt!=Menu) 
03B6A:  MOVF   x49,W
03B6C:  SUBWF  x4B,W
03B6E:  BZ    3B74
....................             MenuAntt=Menu; 
03B70:  MOVFF  349,34B
....................       }else if(RX_Buffer[3]==0x02){//02 es Menu Principal con PantallaPriincipal=0, y con PantallaPrincipal=1 es Ciclo Libre 
03B74:  BRA    3C98
03B76:  MOVF   33,W
03B78:  SUBLW  02
03B7A:  BNZ   3B8C
....................          Menu=1; 
03B7C:  MOVLW  01
03B7E:  MOVWF  x49
....................          if(MenuAntt!=Menu) 
03B80:  MOVF   x49,W
03B82:  SUBWF  x4B,W
03B84:  BZ    3B8A
....................             MenuAntt=Menu; 
03B86:  MOVFF  349,34B
....................       }else if(RX_Buffer[3]==0x03){//03 es Tiempo Esterilizacion 
03B8A:  BRA    3C98
03B8C:  MOVF   33,W
03B8E:  SUBLW  03
03B90:  BNZ   3BA2
....................          Menu=2; 
03B92:  MOVLW  02
03B94:  MOVWF  x49
....................          if(MenuAntt!=Menu) 
03B96:  MOVF   x49,W
03B98:  SUBWF  x4B,W
03B9A:  BZ    3BA0
....................             MenuAntt=Menu; 
03B9C:  MOVFF  349,34B
....................       }else if(RX_Buffer[3]==0x04){//04 es Tiempo de Secado 
03BA0:  BRA    3C98
03BA2:  MOVF   33,W
03BA4:  SUBLW  04
03BA6:  BNZ   3BB8
....................          Menu=3; 
03BA8:  MOVLW  03
03BAA:  MOVWF  x49
....................          if(MenuAntt!=Menu) 
03BAC:  MOVF   x49,W
03BAE:  SUBWF  x4B,W
03BB0:  BZ    3BB6
....................             MenuAntt=Menu; 
03BB2:  MOVFF  349,34B
....................       }else if(RX_Buffer[3]==0x05){//05 es Temperatura 
03BB6:  BRA    3C98
03BB8:  MOVF   33,W
03BBA:  SUBLW  05
03BBC:  BNZ   3BCE
....................          Menu=4; 
03BBE:  MOVLW  04
03BC0:  MOVWF  x49
....................          if(MenuAntt!=Menu) 
03BC2:  MOVF   x49,W
03BC4:  SUBWF  x4B,W
03BC6:  BZ    3BCC
....................             MenuAntt=Menu; 
03BC8:  MOVFF  349,34B
....................       }else if(RX_Buffer[3]==0x06){//06 es Nivel 
03BCC:  BRA    3C98
03BCE:  MOVF   33,W
03BD0:  SUBLW  06
03BD2:  BNZ   3BE4
....................          Menu=5; 
03BD4:  MOVLW  05
03BD6:  MOVWF  x49
....................          if(MenuAntt!=Menu) 
03BD8:  MOVF   x49,W
03BDA:  SUBWF  x4B,W
03BDC:  BZ    3BE2
....................             MenuAntt=Menu; 
03BDE:  MOVFF  349,34B
....................       }else if(RX_Buffer[3]==0x07){//07 es Test de Componentes 
03BE2:  BRA    3C98
03BE4:  MOVF   33,W
03BE6:  SUBLW  07
03BE8:  BNZ   3BFA
....................          Menu=6; 
03BEA:  MOVLW  06
03BEC:  MOVWF  x49
....................          if(MenuAntt!=Menu) 
03BEE:  MOVF   x49,W
03BF0:  SUBWF  x4B,W
03BF2:  BZ    3BF8
....................             MenuAntt=Menu; 
03BF4:  MOVFF  349,34B
....................       }else if(RX_Buffer[3]==0x08){//08 es Fecha y hora 
03BF8:  BRA    3C98
03BFA:  MOVF   33,W
03BFC:  SUBLW  08
03BFE:  BNZ   3C10
....................          Menu=7; 
03C00:  MOVLW  07
03C02:  MOVWF  x49
....................          if(MenuAntt!=Menu) 
03C04:  MOVF   x49,W
03C06:  SUBWF  x4B,W
03C08:  BZ    3C0E
....................             MenuAntt=Menu; 
03C0A:  MOVFF  349,34B
....................       }else if(RX_Buffer[3]==0x09){//09 es Ciclos Personalizados 
03C0E:  BRA    3C98
03C10:  MOVF   33,W
03C12:  SUBLW  09
03C14:  BNZ   3C26
....................          Menu=8; 
03C16:  MOVLW  08
03C18:  MOVWF  x49
....................          if(MenuAntt!=Menu) 
03C1A:  MOVF   x49,W
03C1C:  SUBWF  x4B,W
03C1E:  BZ    3C24
....................             MenuAntt=Menu; 
03C20:  MOVFF  349,34B
....................       }else if(RX_Buffer[3]==0x0f){//0f es Recibe caracteres de contrasea desde display 
03C24:  BRA    3C98
03C26:  MOVF   33,W
03C28:  SUBLW  0F
03C2A:  BNZ   3C2E
....................           
....................       }else if(RX_Buffer[3]==0x1a){//1a es Menu de Funcionamiento 
03C2C:  BRA    3C98
03C2E:  MOVF   33,W
03C30:  SUBLW  1A
03C32:  BNZ   3C44
....................          Menu=20; 
03C34:  MOVLW  14
03C36:  MOVWF  x49
....................          if(MenuAntt!=Menu) 
03C38:  MOVF   x49,W
03C3A:  SUBWF  x4B,W
03C3C:  BZ    3C42
....................             MenuAntt=Menu; 
03C3E:  MOVFF  349,34B
....................       }else if(RX_Buffer[3]==0x1b){//1b es Menu de clave correcta 
03C42:  BRA    3C98
03C44:  MOVF   33,W
03C46:  SUBLW  1B
03C48:  BNZ   3C5A
....................          Menu=15; 
03C4A:  MOVLW  0F
03C4C:  MOVWF  x49
....................          if(MenuAntt!=Menu) 
03C4E:  MOVF   x49,W
03C50:  SUBWF  x4B,W
03C52:  BZ    3C58
....................             MenuAntt=Menu; 
03C54:  MOVFF  349,34B
....................       }else if(RX_Buffer[3]==0x1c){//1c es Menu de clave incorrecta 
03C58:  BRA    3C98
03C5A:  MOVF   33,W
03C5C:  SUBLW  1C
03C5E:  BNZ   3C70
....................          Menu=16; 
03C60:  MOVLW  10
03C62:  MOVWF  x49
....................          if(MenuAntt!=Menu) 
03C64:  MOVF   x49,W
03C66:  SUBWF  x4B,W
03C68:  BZ    3C6E
....................             MenuAntt=Menu; 
03C6A:  MOVFF  349,34B
....................       }else if(RX_Buffer[3]==0x2c){//2c es Menu de Configuracion de Parametros 
03C6E:  BRA    3C98
03C70:  MOVF   33,W
03C72:  SUBLW  2C
03C74:  BNZ   3C86
....................          Menu=100; 
03C76:  MOVLW  64
03C78:  MOVWF  x49
....................          if(MenuAntt!=Menu) 
03C7A:  MOVF   x49,W
03C7C:  SUBWF  x4B,W
03C7E:  BZ    3C84
....................             MenuAntt=Menu; 
03C80:  MOVFF  349,34B
....................       }else if(RX_Buffer[3]==0xcc){//cc es Menu de Bienvenida 
03C84:  BRA    3C98
03C86:  MOVF   33,W
03C88:  SUBLW  CC
03C8A:  BNZ   3C98
....................          Menu=240; 
03C8C:  MOVLW  F0
03C8E:  MOVWF  x49
....................          if(MenuAntt!=240) 
03C90:  MOVF   x4B,W
03C92:  SUBLW  F0
03C94:  BZ    3C98
....................             reset_cpu(); 
03C96:  RESET
....................       } 
....................    }else{ 
03C98:  BRA    3CA6
....................       for(z=0;z<RX_BUFFER_SIZE;z++){ 
03C9A:  CLRF   x48
03C9C:  MOVF   x48,W
03C9E:  SUBLW  09
03CA0:  BNC   3CA6
....................             //Rx_Buffer[z]=0; 
....................             //Rx_Buffer2[z]=0; 
....................          } 
03CA2:  INCF   x48,F
03CA4:  BRA    3C9C
....................    } 
.................... } 
03CA6:  MOVLB  0
03CA8:  GOTO   628E (RETURN)
....................  
.................... void ConfiguraCiclo(int8 este0,este1,este2,este3,secado0,secado1,secado2,secado3,liquidos,ciclo,temperatura){ 
....................    Testerilizacionp[0]=este0;Testerilizacionp[1]=este1;Testerilizacionp[2]=este2;Testerilizacionp[3]=este3; 
*
04556:  MOVFF  41F,B8
0455A:  MOVFF  420,B9
0455E:  MOVFF  421,BA
04562:  MOVFF  422,BB
....................    Tsecadop[0]=secado0;Tsecadop[1]=secado1;Tsecadop[2]=secado2;Tsecadop[3]=secado3; 
04566:  MOVFF  423,C1
0456A:  MOVFF  424,C2
0456E:  MOVFF  425,C3
04572:  MOVFF  426,C4
....................    Setpoint=temperatura;                
04576:  MOVFF  429,350
....................    tiempo_secado=0; 
0457A:  MOVLB  3
0457C:  CLRF   x54
....................    desfoguelento=liquidos; 
0457E:  MOVLB  0
04580:  BCF    xA4.2
04582:  MOVLB  4
04584:  BTFSS  x27.0
04586:  BRA    458E
04588:  MOVLB  0
0458A:  BSF    xA4.2
0458C:  MOVLB  4
....................    CicloSeleccionado=ciclo; 
0458E:  MOVFF  428,34F
....................    Testerilizacion[0]=Testerilizacionp[0];Testerilizacion[1]=Testerilizacionp[1];Testerilizacion[2]=Testerilizacionp[2]; 
04592:  MOVFF  B8,B3
04596:  MOVFF  B9,B4
0459A:  MOVFF  BA,B5
....................    Testerilizacion[3]=Testerilizacionp[3];Testerilizacion[4]=Testerilizacionp[4]; 
0459E:  MOVFF  BB,B6
045A2:  MOVFF  BC,B7
....................    Tsecado[0]=Tsecadop[0];Tsecado[1]=Tsecadop[1];Tsecado[2]=Tsecadop[2];Tsecado[3]=Tsecadop[3]; 
045A6:  MOVFF  C1,BD
045AA:  MOVFF  C2,BE
045AE:  MOVFF  C3,BF
045B2:  MOVFF  C4,C0
....................    Imprime=15; 
045B6:  MOVLW  0F
045B8:  MOVLB  3
045BA:  MOVWF  x8E
....................    Envio_Esclavos(); 
045BC:  MOVLB  0
045BE:  RCALL  3F06
....................    delay_ms(100); 
045C0:  MOVLW  64
045C2:  MOVLB  4
045C4:  MOVWF  x2A
045C6:  MOVLB  0
045C8:  CALL   1814
....................    Imprime=10; 
045CC:  MOVLW  0A
045CE:  MOVLB  3
045D0:  MOVWF  x8E
.................... } 
045D2:  MOVLB  0
045D4:  RETLW  00
....................  
.................... void ActivaAlarma(int8 Tipo){ 
....................     
....................    if(tsilencio>12000){ 
*
04378:  MOVLB  3
0437A:  MOVF   x7E,W
0437C:  SUBLW  2D
0437E:  BC    4392
04380:  XORLW  FF
04382:  BNZ   438A
04384:  MOVF   x7D,W
04386:  SUBLW  E0
04388:  BC    4392
....................       tsilencio=0; 
0438A:  CLRF   x7E
0438C:  CLRF   x7D
....................       flagSilencio=OFF; 
0438E:  MOVLB  0
04390:  BCF    xA3.1
....................    } 
....................     
....................    if(Tipo==1){ // Alarma por Error 
04392:  MOVLB  4
04394:  DECFSZ x15,W
04396:  BRA    43EE
....................    if(UP || DOWN || RIGHT || LEFT) 
04398:  BSF    F93.0
0439A:  BTFSS  F81.0
0439C:  BRA    43B0
0439E:  BSF    F93.1
043A0:  BTFSS  F81.1
043A2:  BRA    43B0
043A4:  BSF    F93.2
043A6:  BTFSS  F81.2
043A8:  BRA    43B0
043AA:  BSF    F93.3
043AC:  BTFSC  F81.3
043AE:  BRA    43B4
....................       flagSilencio=ON; 
043B0:  MOVLB  0
043B2:  BSF    xA3.1
....................        
....................       if(!flagSilencio){ 
043B4:  MOVLB  0
043B6:  BTFSC  xA3.1
043B8:  BRA    43E4
....................          flagAlarma=1; 
043BA:  BSF    xA2.7
....................          if(tbuzzer>200){ 
043BC:  MOVLB  3
043BE:  MOVF   x7C,F
043C0:  BNZ   43C8
043C2:  MOVF   x7B,W
043C4:  SUBLW  C8
043C6:  BC    43E0
....................             tbuzzer=0; 
043C8:  CLRF   x7C
043CA:  CLRF   x7B
....................             flagBuzzer=!flagBuzzer; 
043CC:  MOVLB  0
043CE:  BTG    xA3.0
....................             if(flagBuzzer) 
043D0:  BTFSS  xA3.0
043D2:  BRA    43DA
....................                Buzzer_on; 
043D4:  BSF    F8C.0
043D6:  BCF    F95.0
....................             else 
043D8:  BRA    43DE
....................                Buzzer_off; 
043DA:  BCF    F8C.0
043DC:  BCF    F95.0
043DE:  MOVLB  3
....................          } 
....................       }else{ 
043E0:  BRA    43EA
043E2:  MOVLB  0
....................          Buzzer_off; 
043E4:  BCF    F8C.0
043E6:  BCF    F95.0
043E8:  MOVLB  3
....................       } 
....................    }else if(Tipo==2){ 
043EA:  BRA    4448
043EC:  MOVLB  4
043EE:  MOVF   x15,W
043F0:  SUBLW  02
043F2:  BNZ   444A
....................    if(UP || DOWN || RIGHT || LEFT) 
043F4:  BSF    F93.0
043F6:  BTFSS  F81.0
043F8:  BRA    440C
043FA:  BSF    F93.1
043FC:  BTFSS  F81.1
043FE:  BRA    440C
04400:  BSF    F93.2
04402:  BTFSS  F81.2
04404:  BRA    440C
04406:  BSF    F93.3
04408:  BTFSC  F81.3
0440A:  BRA    4412
....................       ConteoBuzzer=21; 
0440C:  MOVLW  15
0440E:  MOVLB  3
04410:  MOVWF  x78
....................        
....................       flagAlarma=1; 
04412:  MOVLB  0
04414:  BSF    xA2.7
....................       if(ConteoBuzzer<20){    
04416:  MOVLB  3
04418:  MOVF   x78,W
0441A:  SUBLW  13
0441C:  BNC   4444
....................          if(tbuzzer>100){ 
0441E:  MOVF   x7C,F
04420:  BNZ   4428
04422:  MOVF   x7B,W
04424:  SUBLW  64
04426:  BC    4442
....................             tbuzzer=0; 
04428:  CLRF   x7C
0442A:  CLRF   x7B
....................             flagBuzzer=!flagBuzzer; 
0442C:  MOVLB  0
0442E:  BTG    xA3.0
....................             if(flagBuzzer) 
04430:  BTFSS  xA3.0
04432:  BRA    443A
....................                Buzzer_on; 
04434:  BSF    F8C.0
04436:  BCF    F95.0
....................             else 
04438:  BRA    443E
....................                Buzzer_off; 
0443A:  BCF    F8C.0
0443C:  BCF    F95.0
....................                 
....................             ConteoBuzzer++;    
0443E:  MOVLB  3
04440:  INCF   x78,F
....................          } 
....................       }else{ 
04442:  BRA    4448
....................          Buzzer_off; 
04444:  BCF    F8C.0
04446:  BCF    F95.0
04448:  MOVLB  4
....................       } 
....................    } 
.................... } 
0444A:  MOVLB  0
0444C:  RETLW  00
....................  
.................... void CalientaChaqueta(){ 
....................    /*if(PresionPrecamara<130){ 
....................       SSR_on; 
....................    }else if(PresionPreCamara>150){ 
....................       SSR_off; 
....................    } 
....................    */                                  
....................    Tp=200; 
*
058F8:  CLRF   xAC
058FA:  MOVLW  C8
058FC:  MOVWF  xAB
....................    Tc=(Tciclo/0.005); 
058FE:  MOVFF  2E2,41D
05902:  MOVFF  2E1,41C
05906:  MOVFF  2E0,41B
0590A:  MOVFF  2DF,41A
0590E:  MOVLW  0A
05910:  MOVLB  4
05912:  MOVWF  x21
05914:  MOVLW  D7
05916:  MOVWF  x20
05918:  MOVLW  23
0591A:  MOVWF  x1F
0591C:  MOVLW  77
0591E:  MOVWF  x1E
05920:  MOVLB  0
05922:  CALL   1872
05926:  MOVFF  03,42D
0592A:  MOVFF  02,42C
0592E:  MOVFF  01,42B
05932:  MOVFF  00,42A
05936:  CALL   3CAC
0593A:  MOVFF  02,AE
0593E:  MOVFF  01,AD
....................    Controlando=1;  
05942:  MOVLW  01
05944:  MOVLB  3
05946:  MOVWF  x41
.................... } 
05948:  MOVLB  0
0594A:  RETLW  00
....................  
.................... void ApagaSalidas(){ 
....................    Desfogue_off; 
*
035E8:  BCF    F8C.4
035EA:  BCF    F95.4
....................    Bomba_off; 
035EC:  BCF    F8C.6
035EE:  BCF    F95.6
....................    Buzzer_off; 
035F0:  BCF    F8C.0
035F2:  BCF    F95.0
....................    SSR_off; 
035F4:  BSF    F8B.2
035F6:  BCF    F94.2
....................    Aire=OFF; 
035F8:  BCF    xA3.7
....................    Agua_off; 
035FA:  BCF    F8C.5
035FC:  BCF    F95.5
....................    Controlando=0; 
035FE:  MOVLB  3
03600:  CLRF   x41
.................... } 
03602:  MOVLB  0
03604:  RETLW  00
....................  
.................... void purgaAire(){ 
....................    if(!purga){ 
....................       for(i=0;i<4;i++){ 
....................          Desfogue_on; 
....................          delay_ms(2000); 
....................          Desfogue_off; 
....................          delay_ms(1000); 
....................       } 
....................       purga=ON; 
....................    } 
.................... } 
....................  
.................... int8 extraeDecima(int8 tiempo){ 
*
04B02:  MOVLB  4
04B04:  CLRF   x1D
04B06:  CLRF   x1E
....................    int8 tmp=0,decima=0; 
....................    tmp=tiempo/10; 
04B08:  MOVFF  41C,41F
04B0C:  MOVLW  0A
04B0E:  MOVWF  x20
04B10:  MOVLB  0
04B12:  RCALL  44AC
04B14:  MOVFF  01,41D
....................    tmp=tmp*10; 
04B18:  MOVLB  4
04B1A:  MOVF   x1D,W
04B1C:  MULLW  0A
04B1E:  MOVFF  FF3,41D
....................    decima=tiempo-tmp; 
04B22:  MOVF   x1D,W
04B24:  SUBWF  x1C,W
04B26:  MOVWF  x1E
....................    return decima; 
04B28:  MOVFF  41E,01
.................... } 
04B2C:  MOVLB  0
04B2E:  RETLW  00
....................  
.................... void enciendeBombaAgua(){ 
....................    if(tBombaAgua>120){ 
04B30:  MOVF   xB0,F
04B32:  BNZ   4B3A
04B34:  MOVF   xAF,W
04B36:  SUBLW  78
04B38:  BC    4B52
....................       Bomba_off; 
04B3A:  BCF    F8C.6
04B3C:  BCF    F95.6
....................       flagBombaAgua=OFF; 
04B3E:  BCF    xA4.0
....................       flagBombaAguaOff=ON; 
04B40:  BSF    xA4.1
....................       if(tBombaAguaOff>=60){ 
04B42:  MOVF   xB2,F
04B44:  BNZ   4B4C
04B46:  MOVF   xB1,W
04B48:  SUBLW  3B
04B4A:  BC    4B50
....................          tBombaAgua=0; 
04B4C:  CLRF   xB0
04B4E:  CLRF   xAF
....................       } 
....................    }else{ 
04B50:  BRA    4B5E
....................       Bomba_on; 
04B52:  BSF    F8C.6
04B54:  BCF    F95.6
....................       flagBombaAgua=ON; 
04B56:  BSF    xA4.0
....................       flagBombaAguaOff=OFF; 
04B58:  BCF    xA4.1
....................       tBombaAguaOff=0; 
04B5A:  CLRF   xB2
04B5C:  CLRF   xB1
....................    } 
.................... } 
04B5E:  GOTO   A9DA (RETURN)
....................  
.................... void apagaBombaAgua(){ 
....................    Bomba_off; 
04B62:  BCF    F8C.6
04B64:  BCF    F95.6
....................    flagBombaAgua=OFF; 
04B66:  BCF    xA4.0
....................    flagBombaAguaOff=OFF; 
04B68:  BCF    xA4.1
....................    tBombaAguaOff=0; 
04B6A:  CLRF   xB2
04B6C:  CLRF   xB1
....................    tBombaAgua=0; 
04B6E:  CLRF   xB0
04B70:  CLRF   xAF
.................... } 
04B72:  GOTO   AB00 (RETURN)
....................  
....................  
.................... #int_rda HIGH 
.................... void serial_rx_isr(){ 
....................  
....................    Dato2=fgetc(); 
*
0025A:  BTFSS  F9E.5
0025C:  BRA    025A
0025E:  MOVFF  FAE,347
00262:  MOVLB  3
....................    if(Dato2==0x65){//Inicio Comunicacion 
00264:  MOVF   x47,W
00266:  SUBLW  65
00268:  BNZ   0270
....................       Inicio=1; 
0026A:  MOVLW  01
0026C:  MOVWF  x45
....................       RX_Wr_Index =0; 
0026E:  CLRF   46
....................    } 
....................    //Inicio=1; 
....................    if(Inicio==1){ 
00270:  DECFSZ x45,W
00272:  BRA    0288
....................       Rx_Buffer2[RX_Wr_Index] = Dato2; 
00274:  CLRF   03
00276:  MOVF   46,W
00278:  ADDLW  3B
0027A:  MOVWF  FE9
0027C:  MOVLW  00
0027E:  ADDWFC 03,W
00280:  MOVWF  FEA
00282:  MOVFF  347,FEF
....................       RX_Wr_Index++; 
00286:  INCF   46,F
....................    } 
....................    if(RX_Wr_Index >= RX_BUFFER_SIZE){ 
00288:  MOVF   46,W
0028A:  SUBLW  09
0028C:  BC    0292
....................       RX_Wr_Index =0; 
0028E:  CLRF   46
....................       Inicio=0; 
00290:  CLRF   x45
....................    } 
....................  
....................    if(RX_Wr_Index==0){ 
00292:  MOVF   46,F
00294:  BNZ   02B6
....................       if(Rx_Buffer2[0]==0x65 && Rx_Buffer2[1]==0xff && Rx_Buffer2[2]==0xff && Rx_Buffer2[8]==0x00 && Rx_Buffer2[9]==0xff ){ 
00296:  MOVF   3B,W
00298:  SUBLW  65
0029A:  BNZ   02B2
0029C:  INCFSZ 3C,W
0029E:  BRA    02B2
002A0:  INCFSZ 3D,W
002A2:  BRA    02B2
002A4:  MOVF   43,F
002A6:  BNZ   02B2
002A8:  INCFSZ 44,W
002AA:  BRA    02B2
....................          Dato_Exitoso=5; 
002AC:  MOVLW  05
002AE:  MOVWF  x46
....................       }else{ 
002B0:  BRA    02B6
....................          Dato_Exitoso=10; 
002B2:  MOVLW  0A
002B4:  MOVWF  x46
....................       } 
....................    } 
....................    //Dato_Exitoso=5; 
....................    if(Menu==20) 
002B6:  MOVF   x49,W
002B8:  SUBLW  14
002BA:  BNZ   02C0
....................      Buzzer_on; 
002BC:  BSF    F8C.0
002BE:  BCF    F95.0
.................... } 
....................  
002C0:  BCF    F9E.5
002C2:  MOVLB  0
002C4:  GOTO   010A
.................... #int_TIMER0 
.................... void temp0s(void){ 
....................    set_timer0(0); 
002C8:  CLRF   FD7
002CA:  CLRF   FD6
....................    t_exhaust++; 
002CC:  MOVLB  3
002CE:  INCF   x79,F
002D0:  BTFSC  FD8.2
002D2:  INCF   x7A,F
....................    if(DesfogueSuave){ 
002D4:  MOVLB  0
002D6:  BTFSS  xA0.6
002D8:  BRA    031A
....................       if(Nivel<6){ 
002DA:  MOVLB  3
002DC:  MOVF   x5F,F
002DE:  BNZ   0314
002E0:  MOVF   x5E,W
002E2:  SUBLW  05
002E4:  BNC   0314
....................          if(t_exhaust<=NivelSeleccionado) // Si el tiempo es menor o igual al tiempo de control se enciende la resistencia de lo contrario se apaga. 
002E6:  MOVF   x7A,W
002E8:  SUBWF  x69,W
002EA:  BNC   02FA
002EC:  BNZ   02F4
002EE:  MOVF   x79,W
002F0:  SUBWF  x68,W
002F2:  BNC   02FA
....................             Desfogue_on; 
002F4:  BSF    F8C.4
002F6:  BCF    F95.4
....................          else             
002F8:  BRA    02FE
....................             Desfogue_off; 
002FA:  BCF    F8C.4
002FC:  BCF    F95.4
....................        
....................          if(t_exhaust>=60000) // Si el tiempo de control es mayor al tiempo de ciclo se reinicia tiempo de control          
002FE:  MOVF   x7A,W
00300:  SUBLW  E9
00302:  BC    0312
00304:  XORLW  FF
00306:  BNZ   030E
00308:  MOVF   x79,W
0030A:  SUBLW  5F
0030C:  BC    0312
....................             t_exhaust=0; // tiempoctrl incrementa una unidad cada Xms, por eso se dividen los tiempos por 0.005. 
0030E:  CLRF   x7A
00310:  CLRF   x79
....................       }else{ 
00312:  BRA    0318
....................          Desfogue_on; 
00314:  BSF    F8C.4
00316:  BCF    F95.4
00318:  MOVLB  0
....................       } 
....................    }   
.................... } 
....................  
0031A:  BCF    FF2.2
0031C:  GOTO   0074
.................... #int_TIMER1 
.................... void temp1s(void){ 
....................    set_timer1(40536); // Se repite cada 5ms 
00320:  MOVLW  9E
00322:  MOVWF  FCF
00324:  MOVLW  58
00326:  MOVWF  FCE
....................    tiempos++; 
00328:  MOVLB  3
0032A:  INCF   x56,F
0032C:  BTFSC  FD8.2
0032E:  INCF   x57,F
....................    tiempos2++; 
00330:  INCF   x58,F
00332:  BTFSC  FD8.2
00334:  INCF   x59,F
....................    tiempos3++; 
00336:  INCF   x5A,F
00338:  BTFSC  FD8.2
0033A:  INCF   x5B,F
....................    tiempoctrl++; 
0033C:  INCF   x5C,F
0033E:  BTFSC  FD8.2
00340:  INCF   x5D,F
....................     
....................    if(flagAlarma) 
00342:  MOVLB  0
00344:  BTFSS  xA2.7
00346:  BRA    0352
....................       tbuzzer++; 
00348:  MOVLB  3
0034A:  INCF   x7B,F
0034C:  BTFSC  FD8.2
0034E:  INCF   x7C,F
00350:  MOVLB  0
....................        
....................    if(flagSilencio)    
00352:  BTFSS  xA3.1
00354:  BRA    035E
....................       tsilencio++; 
00356:  MOVLB  3
00358:  INCF   x7D,F
0035A:  BTFSC  FD8.2
0035C:  INCF   x7E,F
....................     
....................    if(Controlando==1){ 
0035E:  MOVLB  3
00360:  DECFSZ x41,W
00362:  BRA    03A0
....................       if(tiempoctrl<Tp) // Si el tiempo es menor o igual al tiempo de control se enciende la resistencia de lo contrario se apaga. 
00364:  MOVF   x5D,W
00366:  MOVLB  0
00368:  SUBWF  xAC,W
0036A:  BNC   0384
0036C:  BNZ   037E
0036E:  MOVF   xAB,W
00370:  MOVLB  3
00372:  SUBWF  x5C,W
00374:  BTFSS  FD8.0
00376:  BRA    037C
00378:  MOVLB  0
0037A:  BRA    0384
0037C:  MOVLB  0
....................          SSR_on; 
0037E:  BCF    F8B.2
00380:  BCF    F94.2
....................       else          
00382:  BRA    0388
....................          SSR_off; 
00384:  BSF    F8B.2
00386:  BCF    F94.2
....................              
....................       if(tiempoctrl>=Tc) // Si el tiempo de control es mayor al tiempo de ciclo se reinicia tiempo de control 
00388:  MOVF   xAE,W
0038A:  MOVLB  3
0038C:  SUBWF  x5D,W
0038E:  BNC   03A0
00390:  BNZ   039C
00392:  MOVLB  0
00394:  MOVF   xAD,W
00396:  MOVLB  3
00398:  SUBWF  x5C,W
0039A:  BNC   03A0
....................          tiempoctrl=0;// tiempoctrl incrementa una unidad cada 5ms, por eso se dividen los tiempos por 0.005. 
0039C:  CLRF   x5D
0039E:  CLRF   x5C
....................    } 
....................     
....................    if(tiempos>=200)  // 12000 para que incremente cada minuto, 200para que incremente cada segundo. 
003A0:  MOVF   x57,F
003A2:  BNZ   03AC
003A4:  MOVF   x56,W
003A6:  SUBLW  C7
003A8:  BTFSC  FD8.0
003AA:  BRA    04DC
....................    { 
....................       if(flagTC) 
003AC:  MOVLB  0
003AE:  BTFSS  xA4.6
003B0:  BRA    03B6
....................          TiempoControl++; 
003B2:  MOVLB  3
003B4:  INCF   x76,F
....................        
....................       tiemporecta++; 
003B6:  MOVLB  3
003B8:  INCF   x40,F
....................        
....................       if(flagBombaAgua) 
003BA:  MOVLB  0
003BC:  BTFSS  xA4.0
003BE:  BRA    03C6
....................          tBombaAgua++; 
003C0:  INCF   xAF,F
003C2:  BTFSC  FD8.2
003C4:  INCF   xB0,F
....................        
....................       if(flagBombaAguaOff) 
003C6:  BTFSS  xA4.1
003C8:  BRA    03D0
....................          tBombaAguaOff++; 
003CA:  INCF   xB1,F
003CC:  BTFSC  FD8.2
003CE:  INCF   xB2,F
....................        
....................       if(IniciaCiclo && tiempoImpresion<CalculoImpresion){ 
003D0:  BTFSS  xA0.1
003D2:  BRA    03E6
003D4:  MOVLB  3
003D6:  MOVF   x44,W
003D8:  SUBWF  x55,W
003DA:  BTFSS  FD8.0
003DC:  BRA    03E2
003DE:  MOVLB  0
003E0:  BRA    03E6
....................          tiempoImpresion++; 
003E2:  INCF   x55,F
....................       }else if(tiempoImpresion>=CalculoImpresion){ 
003E4:  BRA    03F6
003E6:  MOVLB  3
003E8:  MOVF   x44,W
003EA:  SUBWF  x55,W
003EC:  BNC   03F6
....................          flagImprime=1; 
003EE:  MOVLB  0
003F0:  BSF    xA4.7
....................          tiempoImpresion=0; 
003F2:  MOVLB  3
003F4:  CLRF   x55
....................       } 
....................        
....................       if(IniciaCiclo && !Esterilizando){ 
003F6:  MOVLB  0
003F8:  BTFSS  xA0.1
003FA:  BRA    0406
003FC:  BTFSC  xA0.2
003FE:  BRA    0406
....................          TiempoCiclo++; 
00400:  INCF   xA5,F
00402:  BTFSC  FD8.2
00404:  INCF   xA6,F
....................       } 
....................        
....................       if(IniciaLlenado && !CalderinLleno){ 
00406:  BTFSS  x9F.7
00408:  BRA    0414
0040A:  BTFSC  xA0.0
0040C:  BRA    0414
....................          TiempoLlenado++; 
0040E:  INCF   xA7,F
00410:  BTFSC  FD8.2
00412:  INCF   xA8,F
....................       } 
....................        
....................       if(SensadoNivel){ 
00414:  BTFSS  xA0.4
00416:  BRA    041E
....................          TiempoSensadoNivel++; 
00418:  INCF   xA9,F
0041A:  BTFSC  FD8.2
0041C:  INCF   xAA,F
....................       } 
....................        
....................       tiempos=0;Lectura=1;tinicio++; 
0041E:  MOVLB  3
00420:  CLRF   x57
00422:  CLRF   x56
00424:  MOVLB  0
00426:  BSF    xA4.3
00428:  MOVLB  3
0042A:  INCF   x60,F
0042C:  BTFSC  FD8.2
0042E:  INCF   x61,F
....................     
....................       if(Esterilizando && !Desfogando){                
00430:  MOVLB  0
00432:  BTFSS  xA0.2
00434:  BRA    0488
00436:  BTFSC  xA0.5
00438:  BRA    0488
....................          if(Testerilizacion[0]>0){ 
0043A:  BTFSC  xB3.7
0043C:  BRA    0448
0043E:  MOVF   xB3,W
00440:  SUBLW  00
00442:  BC    0448
....................             Testerilizacion[0]--; 
00444:  DECF   xB3,F
....................          }else if(Testerilizacion[1]>0){ 
00446:  BRA    0488
00448:  BTFSC  xB4.7
0044A:  BRA    045A
0044C:  MOVF   xB4,W
0044E:  SUBLW  00
00450:  BC    045A
....................             Testerilizacion[1]--; 
00452:  DECF   xB4,F
....................             Testerilizacion[0]=9; 
00454:  MOVLW  09
00456:  MOVWF  xB3
....................          }else if(Testerilizacion[2]>0){ 
00458:  BRA    0488
0045A:  BTFSC  xB5.7
0045C:  BRA    0470
0045E:  MOVF   xB5,W
00460:  SUBLW  00
00462:  BC    0470
....................             Testerilizacion[2]--; 
00464:  DECF   xB5,F
....................             Testerilizacion[1]=5; 
00466:  MOVLW  05
00468:  MOVWF  xB4
....................             Testerilizacion[0]=9; 
0046A:  MOVLW  09
0046C:  MOVWF  xB3
....................          }else if(Testerilizacion[3]>0){ 
0046E:  BRA    0488
00470:  BTFSC  xB6.7
00472:  BRA    0488
00474:  MOVF   xB6,W
00476:  SUBLW  00
00478:  BC    0488
....................             Testerilizacion[3]--; 
0047A:  DECF   xB6,F
....................             Testerilizacion[2]=9; 
0047C:  MOVLW  09
0047E:  MOVWF  xB5
....................             Testerilizacion[1]=5; 
00480:  MOVLW  05
00482:  MOVWF  xB4
....................             Testerilizacion[0]=9; 
00484:  MOVLW  09
00486:  MOVWF  xB3
....................          } 
....................       } 
....................        
....................       if(Secando){ 
00488:  BTFSS  xA0.3
0048A:  BRA    04DA
....................          if(Tsecado[0]>0){ 
0048C:  BTFSC  xBD.7
0048E:  BRA    049A
00490:  MOVF   xBD,W
00492:  SUBLW  00
00494:  BC    049A
....................             Tsecado[0]--; 
00496:  DECF   xBD,F
....................          }else if(Tsecado[1]>0){ 
00498:  BRA    04DA
0049A:  BTFSC  xBE.7
0049C:  BRA    04AC
0049E:  MOVF   xBE,W
004A0:  SUBLW  00
004A2:  BC    04AC
....................             Tsecado[1]--; 
004A4:  DECF   xBE,F
....................             Tsecado[0]=9; 
004A6:  MOVLW  09
004A8:  MOVWF  xBD
....................          }else if(Tsecado[2]>0){ 
004AA:  BRA    04DA
004AC:  BTFSC  xBF.7
004AE:  BRA    04C2
004B0:  MOVF   xBF,W
004B2:  SUBLW  00
004B4:  BC    04C2
....................             Tsecado[2]--; 
004B6:  DECF   xBF,F
....................             Tsecado[1]=5; 
004B8:  MOVLW  05
004BA:  MOVWF  xBE
....................             Tsecado[0]=9; 
004BC:  MOVLW  09
004BE:  MOVWF  xBD
....................          }else if(Tsecado[3]>0){ 
004C0:  BRA    04DA
004C2:  BTFSC  xC0.7
004C4:  BRA    04DA
004C6:  MOVF   xC0,W
004C8:  SUBLW  00
004CA:  BC    04DA
....................             Tsecado[3]--; 
004CC:  DECF   xC0,F
....................             Tsecado[2]=9; 
004CE:  MOVLW  09
004D0:  MOVWF  xBF
....................             Tsecado[1]=5; 
004D2:  MOVLW  05
004D4:  MOVWF  xBE
....................             Tsecado[0]=9; 
004D6:  MOVLW  09
004D8:  MOVWF  xBD
004DA:  MOVLB  3
....................          } 
....................       } 
....................    } 
.................... } 
....................  
004DC:  BCF    F9E.0
004DE:  MOVLB  0
004E0:  GOTO   0074
.................... void main() 
.................... { 
*
0594C:  CLRF   FF8
0594E:  BCF    FF1.2
05950:  BCF    F9F.0
05952:  BSF    F9F.5
05954:  BSF    FD0.7
05956:  BSF    07.7
05958:  CLRF   FEA
0595A:  CLRF   FE9
0595C:  BSF    FB8.3
0595E:  MOVLW  08
05960:  MOVWF  FAF
05962:  MOVLW  02
05964:  MOVWF  FB0
05966:  MOVLW  A6
05968:  MOVWF  FAC
0596A:  MOVLW  90
0596C:  MOVWF  FAB
0596E:  CLRF   46
05970:  CLRF   47
05972:  CLRF   48
05974:  CLRF   x62
05976:  CLRF   x63
05978:  CLRF   x84
0597A:  CLRF   x85
0597C:  CLRF   x86
0597E:  BCF    x9F.0
05980:  BCF    x9F.1
05982:  BCF    x9F.2
05984:  BCF    x9F.3
05986:  BCF    x9F.4
05988:  BCF    x9F.5
0598A:  BCF    x9F.6
0598C:  BCF    x9F.7
0598E:  BCF    xA0.0
05990:  BCF    xA0.1
05992:  BCF    xA0.2
05994:  BCF    xA0.3
05996:  BCF    xA0.4
05998:  BCF    xA0.5
0599A:  BCF    xA0.6
0599C:  BCF    xA0.7
0599E:  BCF    xA1.0
059A0:  BCF    xA1.1
059A2:  BCF    xA1.2
059A4:  BCF    xA1.3
059A6:  BCF    xA1.4
059A8:  BCF    xA1.5
059AA:  BCF    xA1.6
059AC:  BCF    xA1.7
059AE:  BCF    xA2.0
059B0:  BCF    xA2.1
059B2:  BCF    xA2.2
059B4:  BCF    xA2.3
059B6:  BCF    xA2.4
059B8:  BCF    xA2.5
059BA:  BCF    xA2.6
059BC:  BCF    xA2.7
059BE:  BCF    xA3.0
059C0:  BCF    xA3.1
059C2:  BCF    xA3.2
059C4:  BCF    xA3.3
059C6:  BCF    xA3.4
059C8:  BCF    xA3.5
059CA:  BCF    xA3.6
059CC:  BCF    xA3.7
059CE:  BCF    xA4.0
059D0:  BCF    xA4.1
059D2:  CLRF   xA6
059D4:  CLRF   xA5
059D6:  CLRF   xA8
059D8:  CLRF   xA7
059DA:  CLRF   xAA
059DC:  CLRF   xA9
059DE:  CLRF   xAC
059E0:  CLRF   xAB
059E2:  CLRF   xAE
059E4:  CLRF   xAD
059E6:  CLRF   xB0
059E8:  CLRF   xAF
059EA:  CLRF   xB2
059EC:  CLRF   xB1
059EE:  MOVLW  9A
059F0:  MOVLB  2
059F2:  MOVWF  xA8
059F4:  MOVLW  99
059F6:  MOVWF  xA7
059F8:  MOVLW  0D
059FA:  MOVWF  xA6
059FC:  MOVLW  86
059FE:  MOVWF  xA5
05A00:  CLRF   xAC
05A02:  CLRF   xAB
05A04:  CLRF   xAA
05A06:  MOVLW  7E
05A08:  MOVWF  xA9
05A0A:  CLRF   xB0
05A0C:  CLRF   xAF
05A0E:  CLRF   xAE
05A10:  CLRF   xAD
05A12:  CLRF   xB4
05A14:  CLRF   xB3
05A16:  MOVLW  48
05A18:  MOVWF  xB2
05A1A:  MOVLW  85
05A1C:  MOVWF  xB1
05A1E:  CLRF   xB8
05A20:  MOVLW  10
05A22:  MOVWF  xB7
05A24:  MOVLW  56
05A26:  MOVWF  xB6
05A28:  MOVLW  8B
05A2A:  MOVWF  xB5
05A2C:  CLRF   xC4
05A2E:  CLRF   xC3
05A30:  CLRF   xC2
05A32:  CLRF   xC1
05A34:  CLRF   xC8
05A36:  CLRF   xC7
05A38:  CLRF   xC6
05A3A:  CLRF   xC5
05A3C:  CLRF   xCC
05A3E:  CLRF   xCB
05A40:  CLRF   xCA
05A42:  CLRF   xC9
05A44:  CLRF   xCD
05A46:  CLRF   xCE
05A48:  CLRF   xCF
05A4A:  CLRF   xD0
05A4C:  MOVLW  14
05A4E:  MOVWF  xD1
05A50:  CLRF   xD2
05A52:  CLRF   xD3
05A54:  CLRF   xD4
05A56:  CLRF   xD5
05A58:  CLRF   xD6
05A5A:  CLRF   xDA
05A5C:  CLRF   xD9
05A5E:  CLRF   xD8
05A60:  CLRF   xD7
05A62:  CLRF   xE2
05A64:  CLRF   xE1
05A66:  MOVLW  20
05A68:  MOVWF  xE0
05A6A:  MOVLW  82
05A6C:  MOVWF  xDF
05A6E:  CLRF   xE6
05A70:  CLRF   xE5
05A72:  CLRF   xE4
05A74:  CLRF   xE3
05A76:  CLRF   xEA
05A78:  CLRF   xE9
05A7A:  CLRF   xE8
05A7C:  CLRF   xE7
05A7E:  CLRF   xEE
05A80:  CLRF   xED
05A82:  CLRF   xEC
05A84:  CLRF   xEB
05A86:  CLRF   xF2
05A88:  CLRF   xF1
05A8A:  CLRF   xF0
05A8C:  CLRF   xEF
05A8E:  CLRF   xF6
05A90:  CLRF   xF5
05A92:  CLRF   xF4
05A94:  CLRF   xF3
05A96:  CLRF   xFA
05A98:  CLRF   xF9
05A9A:  MOVLW  48
05A9C:  MOVWF  xF8
05A9E:  MOVLW  83
05AA0:  MOVWF  xF7
05AA2:  CLRF   xFE
05AA4:  CLRF   xFD
05AA6:  MOVLW  20
05AA8:  MOVWF  xFC
05AAA:  MOVLW  83
05AAC:  MOVWF  xFB
05AAE:  MOVLB  3
05AB0:  CLRF   x02
05AB2:  CLRF   x01
05AB4:  CLRF   x00
05AB6:  MOVLW  7F
05AB8:  MOVLB  2
05ABA:  MOVWF  xFF
05ABC:  MOVLB  3
05ABE:  CLRF   x06
05AC0:  CLRF   x05
05AC2:  CLRF   x04
05AC4:  CLRF   x03
05AC6:  CLRF   x0A
05AC8:  CLRF   x09
05ACA:  CLRF   x08
05ACC:  CLRF   x07
05ACE:  CLRF   x0E
05AD0:  CLRF   x0D
05AD2:  CLRF   x0C
05AD4:  CLRF   x0B
05AD6:  CLRF   x12
05AD8:  CLRF   x11
05ADA:  CLRF   x10
05ADC:  CLRF   x0F
05ADE:  CLRF   x16
05AE0:  CLRF   x15
05AE2:  CLRF   x14
05AE4:  CLRF   x13
05AE6:  CLRF   x1A
05AE8:  CLRF   x19
05AEA:  CLRF   x18
05AEC:  CLRF   x17
05AEE:  MOVLW  4A
05AF0:  MOVWF  x1E
05AF2:  MOVLW  88
05AF4:  MOVWF  x1D
05AF6:  MOVLW  28
05AF8:  MOVWF  x1C
05AFA:  MOVLW  75
05AFC:  MOVWF  x1B
05AFE:  MOVLW  E0
05B00:  MOVWF  x22
05B02:  MOVLW  2D
05B04:  MOVWF  x21
05B06:  MOVLW  10
05B08:  MOVWF  x20
05B0A:  MOVLW  75
05B0C:  MOVWF  x1F
05B0E:  MOVLW  FF
05B10:  MOVWF  x26
05B12:  MOVLW  21
05B14:  MOVWF  x25
05B16:  MOVLW  15
05B18:  MOVWF  x24
05B1A:  MOVLW  80
05B1C:  MOVWF  x23
05B1E:  MOVLW  82
05B20:  MOVWF  x2A
05B22:  MOVLW  12
05B24:  MOVWF  x29
05B26:  MOVLW  F4
05B28:  MOVWF  x28
05B2A:  MOVLW  86
05B2C:  MOVWF  x27
05B2E:  MOVLW  99
05B30:  MOVWF  x2E
05B32:  MOVLW  11
05B34:  MOVWF  x2D
05B36:  MOVLW  BD
05B38:  MOVWF  x2C
05B3A:  MOVLW  73
05B3C:  MOVWF  x2B
05B3E:  MOVLW  DA
05B40:  MOVWF  x32
05B42:  MOVLW  72
05B44:  MOVWF  x31
05B46:  MOVLW  1E
05B48:  MOVWF  x30
05B4A:  MOVLW  7D
05B4C:  MOVWF  x2F
05B4E:  MOVLW  CB
05B50:  MOVWF  x36
05B52:  MOVLW  A1
05B54:  MOVWF  x35
05B56:  MOVLW  11
05B58:  MOVWF  x34
05B5A:  MOVLW  85
05B5C:  MOVWF  x33
05B5E:  CLRF   x3A
05B60:  CLRF   x39
05B62:  CLRF   x38
05B64:  CLRF   x37
05B66:  CLRF   x3B
05B68:  CLRF   x3C
05B6A:  CLRF   x3D
05B6C:  MOVLB  0
05B6E:  BCF    xA4.2
05B70:  BCF    xA4.3
05B72:  BCF    xA4.4
05B74:  BCF    xA4.5
05B76:  BCF    xA4.6
05B78:  BCF    xA4.7
05B7A:  MOVLB  3
05B7C:  BCF    x3E.0
05B7E:  CLRF   x3F
05B80:  CLRF   x40
05B82:  CLRF   x41
05B84:  MOVLW  01
05B86:  MOVWF  x42
05B88:  MOVLW  02
05B8A:  MOVWF  x43
05B8C:  CLRF   x44
05B8E:  MOVLW  01
05B90:  MOVWF  x45
05B92:  CLRF   x46
05B94:  CLRF   x47
05B96:  CLRF   x48
05B98:  CLRF   x49
05B9A:  CLRF   x4A
05B9C:  MOVLW  F0
05B9E:  MOVWF  x4B
05BA0:  CLRF   x4C
05BA2:  CLRF   x4D
05BA4:  CLRF   x4E
05BA6:  CLRF   x4F
05BA8:  CLRF   x50
05BAA:  MOVLW  01
05BAC:  MOVWF  x51
05BAE:  MOVWF  x52
05BB0:  CLRF   x53
05BB2:  CLRF   x54
05BB4:  CLRF   x55
05BB6:  CLRF   x57
05BB8:  CLRF   x56
05BBA:  CLRF   x59
05BBC:  CLRF   x58
05BBE:  CLRF   x5B
05BC0:  CLRF   x5A
05BC2:  CLRF   x5D
05BC4:  CLRF   x5C
05BC6:  CLRF   x5F
05BC8:  CLRF   x5E
05BCA:  CLRF   x61
05BCC:  CLRF   x60
05BCE:  CLRF   x63
05BD0:  CLRF   x62
05BD2:  CLRF   x65
05BD4:  CLRF   x64
05BD6:  CLRF   x67
05BD8:  CLRF   x66
05BDA:  CLRF   x69
05BDC:  CLRF   x68
05BDE:  CLRF   x72
05BE0:  CLRF   x73
05BE2:  CLRF   x74
05BE4:  CLRF   x75
05BE6:  CLRF   x76
05BE8:  CLRF   x77
05BEA:  CLRF   x78
05BEC:  CLRF   x7A
05BEE:  CLRF   x79
05BF0:  CLRF   x7C
05BF2:  CLRF   x7B
05BF4:  CLRF   x7E
05BF6:  CLRF   x7D
05BF8:  MOVLW  12
05BFA:  MOVWF  x7F
05BFC:  MOVLW  09
05BFE:  MOVWF  x80
05C00:  MOVLW  0D
05C02:  MOVWF  x81
05C04:  CLRF   x82
05C06:  CLRF   x83
05C08:  CLRF   x84
05C0A:  CLRF   x85
05C0C:  CLRF   x86
05C0E:  CLRF   x87
05C10:  CLRF   x88
05C12:  CLRF   x89
05C14:  CLRF   x8A
05C16:  CLRF   x8B
05C18:  CLRF   x8C
05C1A:  CLRF   x8D
05C1C:  CLRF   x8E
05C1E:  CLRF   x8F
05C20:  CLRF   x90
05C22:  CLRF   x91
05C24:  CLRF   x92
05C26:  MOVF   FC1,W
05C28:  ANDLW  C0
05C2A:  IORLW  0F
05C2C:  MOVWF  FC1
05C2E:  MOVLW  07
05C30:  MOVWF  FB4
05C32:  CLRF   2A
05C34:  CLRF   2B
05C36:  MOVLB  0
05C38:  CLRF   x87
05C3A:  MOVLW  03
05C3C:  MOVWF  x88
05C3E:  MOVWF  x89
05C40:  MOVLW  06
05C42:  MOVWF  x8A
05C44:  MOVLW  01
05C46:  MOVWF  x8B
05C48:  MOVLW  04
05C4A:  MOVWF  x8C
05C4C:  MOVLW  06
05C4E:  MOVWF  x8D
05C50:  MOVLW  02
05C52:  MOVWF  x8E
05C54:  MOVLW  05
05C56:  MOVWF  x8F
05C58:  CLRF   x90
05C5A:  MOVLW  03
05C5C:  MOVWF  x91
05C5E:  MOVLW  05
05C60:  MOVWF  x92
05C62:  CLRF   x93
05C64:  MOVLW  03
05C66:  MOVWF  x94
05C68:  MOVLW  04
05C6A:  MOVWF  x95
05C6C:  CLRF   x96
05C6E:  MOVLW  02
05C70:  MOVWF  x97
05C72:  MOVLW  05
05C74:  MOVWF  x98
05C76:  CLRF   x99
05C78:  MOVLW  03
05C7A:  MOVWF  x9A
05C7C:  MOVLW  06
05C7E:  MOVWF  x9B
05C80:  MOVLW  01
05C82:  MOVWF  x9C
05C84:  MOVLW  04
05C86:  MOVWF  x9D
05C88:  MOVLW  06
05C8A:  MOVWF  x9E
05C8C:  CLRF   xB3
05C8E:  CLRF   xB4
05C90:  CLRF   xB5
05C92:  CLRF   xB6
05C94:  CLRF   xB7
05C96:  CLRF   xB8
05C98:  CLRF   xB9
05C9A:  CLRF   xBA
05C9C:  CLRF   xBB
05C9E:  CLRF   xBC
05CA0:  CLRF   xBD
05CA2:  CLRF   xBE
05CA4:  CLRF   xBF
05CA6:  CLRF   xC0
05CA8:  CLRF   xC1
05CAA:  CLRF   xC2
05CAC:  CLRF   xC3
05CAE:  CLRF   xC4
05CB0:  CLRF   xC5
05CB2:  CLRF   xC6
05CB4:  CLRF   xC7
05CB6:  CLRF   xC8
05CB8:  CLRF   xC9
05CBA:  CLRF   xCA
05CBC:  CLRF   xCB
05CBE:  CLRF   xCC
05CC0:  CLRF   xCD
05CC2:  CLRF   xCE
05CC4:  CLRF   xCF
05CC6:  CLRF   xD0
05CC8:  CLRF   xD1
05CCA:  CLRF   xD2
05CCC:  CLRF   xD3
05CCE:  CLRF   xD4
05CD0:  CLRF   xD5
05CD2:  CLRF   xD6
05CD4:  CLRF   xD7
05CD6:  CLRF   xD8
05CD8:  CLRF   xD9
05CDA:  CLRF   xDA
05CDC:  CLRF   xDB
05CDE:  CLRF   xDC
05CE0:  CLRF   xDD
05CE2:  CLRF   xDE
05CE4:  CLRF   xDF
05CE6:  CLRF   xE0
05CE8:  CLRF   xE1
05CEA:  CLRF   xE2
05CEC:  CLRF   xE3
05CEE:  CLRF   xE4
05CF0:  CLRF   xE5
05CF2:  CLRF   xE6
05CF4:  CLRF   xE7
05CF6:  CLRF   xE8
05CF8:  CLRF   xE9
05CFA:  CLRF   xEA
05CFC:  CLRF   xEB
05CFE:  CLRF   xEC
05D00:  CLRF   xED
05D02:  CLRF   xEE
05D04:  CLRF   xEF
05D06:  CLRF   xF0
05D08:  CLRF   xF1
05D0A:  CLRF   xF2
05D0C:  CLRF   xF3
05D0E:  CLRF   xF4
05D10:  CLRF   xF5
05D12:  CLRF   xF6
05D14:  CLRF   xF7
05D16:  CLRF   xF8
05D18:  CLRF   xF9
05D1A:  CLRF   xFA
05D1C:  CLRF   xFB
05D1E:  CLRF   xFC
05D20:  CLRF   xFD
05D22:  CLRF   xFE
05D24:  CLRF   xFF
05D26:  MOVLB  1
05D28:  CLRF   x00
05D2A:  CLRF   x01
05D2C:  CLRF   x02
05D2E:  CLRF   x03
05D30:  CLRF   x04
05D32:  CLRF   x05
05D34:  CLRF   x06
05D36:  CLRF   x07
05D38:  CLRF   x08
05D3A:  CLRF   x09
05D3C:  CLRF   x0A
05D3E:  CLRF   x0B
05D40:  CLRF   x0C
05D42:  CLRF   x0D
05D44:  CLRF   x0E
05D46:  CLRF   x0F
05D48:  CLRF   x10
05D4A:  CLRF   x11
05D4C:  CLRF   x12
05D4E:  CLRF   x13
05D50:  CLRF   x14
05D52:  CLRF   x15
05D54:  CLRF   x16
05D56:  CLRF   x17
05D58:  CLRF   x18
05D5A:  CLRF   x19
05D5C:  CLRF   x1A
05D5E:  CLRF   x1B
05D60:  CLRF   x1C
05D62:  CLRF   x1D
05D64:  CLRF   x1E
05D66:  CLRF   x1F
05D68:  CLRF   x20
05D6A:  CLRF   x21
05D6C:  CLRF   x22
05D6E:  CLRF   x23
05D70:  CLRF   x24
05D72:  CLRF   x25
05D74:  CLRF   x26
05D76:  CLRF   x27
05D78:  CLRF   x28
05D7A:  CLRF   x29
05D7C:  CLRF   x2A
05D7E:  CLRF   x2B
05D80:  CLRF   x2C
05D82:  CLRF   x2D
05D84:  CLRF   x2E
05D86:  CLRF   x2F
05D88:  CLRF   x30
05D8A:  CLRF   x31
05D8C:  CLRF   x32
05D8E:  CLRF   x33
05D90:  CLRF   x34
05D92:  CLRF   x35
05D94:  CLRF   x36
05D96:  CLRF   x37
05D98:  CLRF   x38
05D9A:  CLRF   x39
05D9C:  CLRF   x3A
05D9E:  CLRF   x3B
05DA0:  CLRF   x3C
05DA2:  CLRF   x3D
05DA4:  CLRF   x3E
05DA6:  CLRF   x3F
05DA8:  CLRF   x40
05DAA:  CLRF   x41
05DAC:  CLRF   x42
05DAE:  CLRF   x43
05DB0:  CLRF   x44
05DB2:  CLRF   x45
05DB4:  CLRF   x46
05DB6:  CLRF   x47
05DB8:  CLRF   x48
05DBA:  CLRF   x49
05DBC:  CLRF   x4A
05DBE:  CLRF   x4B
05DC0:  CLRF   x4C
05DC2:  CLRF   x4D
05DC4:  CLRF   x4E
05DC6:  CLRF   x4F
05DC8:  CLRF   x50
05DCA:  CLRF   x51
05DCC:  CLRF   x52
05DCE:  CLRF   x53
05DD0:  CLRF   x54
05DD2:  CLRF   x55
05DD4:  CLRF   x56
05DD6:  CLRF   x57
05DD8:  CLRF   x58
05DDA:  CLRF   x59
05DDC:  CLRF   x5A
05DDE:  CLRF   x5B
05DE0:  CLRF   x5C
05DE2:  CLRF   x5D
05DE4:  CLRF   x5E
05DE6:  CLRF   x5F
05DE8:  CLRF   x60
05DEA:  CLRF   x61
05DEC:  CLRF   x62
05DEE:  CLRF   x63
05DF0:  CLRF   x64
05DF2:  CLRF   x65
05DF4:  CLRF   x66
05DF6:  CLRF   x67
05DF8:  CLRF   x68
05DFA:  CLRF   x69
05DFC:  CLRF   x6A
05DFE:  CLRF   x6B
05E00:  CLRF   x6C
05E02:  CLRF   x6D
05E04:  CLRF   x6E
05E06:  CLRF   x6F
05E08:  CLRF   x70
05E0A:  CLRF   x71
05E0C:  CLRF   x72
05E0E:  CLRF   x73
05E10:  CLRF   x74
05E12:  CLRF   x75
05E14:  CLRF   x76
05E16:  CLRF   x77
05E18:  CLRF   x78
05E1A:  CLRF   x79
05E1C:  CLRF   x7A
05E1E:  CLRF   x7B
05E20:  CLRF   x7C
05E22:  CLRF   x7D
05E24:  CLRF   x7E
05E26:  CLRF   x7F
05E28:  CLRF   x80
05E2A:  CLRF   x81
05E2C:  CLRF   x82
05E2E:  CLRF   x83
05E30:  CLRF   x84
05E32:  CLRF   x85
05E34:  CLRF   x86
05E36:  CLRF   x87
05E38:  CLRF   x88
05E3A:  CLRF   x89
05E3C:  CLRF   x8A
05E3E:  CLRF   x8B
05E40:  CLRF   x8C
05E42:  CLRF   x8D
05E44:  CLRF   x8E
05E46:  CLRF   x8F
05E48:  CLRF   x90
05E4A:  CLRF   x91
05E4C:  CLRF   x92
05E4E:  CLRF   x93
05E50:  CLRF   x94
05E52:  CLRF   x95
05E54:  CLRF   x96
05E56:  CLRF   x97
05E58:  CLRF   x98
05E5A:  CLRF   x99
05E5C:  CLRF   x9A
05E5E:  CLRF   x9B
05E60:  CLRF   x9C
05E62:  CLRF   x9D
05E64:  CLRF   x9E
05E66:  CLRF   x9F
05E68:  CLRF   xA0
05E6A:  CLRF   xA1
05E6C:  CLRF   xA2
05E6E:  CLRF   xA3
05E70:  CLRF   xA4
05E72:  CLRF   xA5
05E74:  CLRF   xA6
05E76:  CLRF   xA7
05E78:  CLRF   xA8
05E7A:  CLRF   xA9
05E7C:  CLRF   xAA
05E7E:  CLRF   xAB
05E80:  CLRF   xAC
05E82:  CLRF   xAD
05E84:  CLRF   xAE
05E86:  CLRF   xAF
05E88:  CLRF   xB0
05E8A:  CLRF   xB1
05E8C:  CLRF   xB2
05E8E:  CLRF   xB3
05E90:  CLRF   xB4
05E92:  CLRF   xB5
05E94:  CLRF   xB6
05E96:  CLRF   xB7
05E98:  CLRF   xB8
05E9A:  CLRF   xB9
05E9C:  CLRF   xBA
05E9E:  CLRF   xBB
05EA0:  CLRF   xBC
05EA2:  CLRF   xBD
05EA4:  CLRF   xBE
05EA6:  CLRF   xBF
05EA8:  CLRF   xC0
05EAA:  CLRF   xC1
05EAC:  CLRF   xC2
05EAE:  CLRF   xC3
05EB0:  CLRF   xC4
05EB2:  CLRF   xC5
05EB4:  CLRF   xC6
05EB6:  CLRF   xC7
05EB8:  CLRF   xC8
05EBA:  CLRF   xC9
05EBC:  CLRF   xCA
05EBE:  CLRF   xCB
05EC0:  CLRF   xCC
05EC2:  CLRF   xCD
05EC4:  CLRF   xCE
05EC6:  CLRF   xCF
05EC8:  CLRF   xD0
05ECA:  CLRF   xD1
05ECC:  CLRF   xD2
05ECE:  CLRF   xD3
05ED0:  CLRF   xD4
05ED2:  CLRF   xD5
05ED4:  CLRF   xD6
05ED6:  CLRF   xD7
05ED8:  CLRF   xD8
05EDA:  CLRF   xD9
05EDC:  CLRF   xDA
05EDE:  CLRF   xDB
05EE0:  CLRF   xDC
05EE2:  CLRF   xDD
05EE4:  CLRF   xDE
05EE6:  CLRF   xDF
05EE8:  CLRF   xE0
05EEA:  CLRF   xE1
05EEC:  CLRF   xE2
05EEE:  CLRF   xE3
05EF0:  CLRF   xE4
05EF2:  CLRF   xE5
05EF4:  CLRF   xE6
05EF6:  CLRF   xE7
05EF8:  CLRF   xE8
05EFA:  CLRF   xE9
05EFC:  CLRF   xEA
05EFE:  CLRF   xEB
05F00:  CLRF   xEC
05F02:  CLRF   xED
05F04:  CLRF   xEE
05F06:  CLRF   xEF
05F08:  CLRF   xF0
05F0A:  CLRF   xF1
05F0C:  CLRF   xF2
05F0E:  CLRF   xF3
05F10:  CLRF   xF4
05F12:  CLRF   xF5
05F14:  CLRF   xF6
05F16:  CLRF   xF7
05F18:  CLRF   xF8
05F1A:  CLRF   xF9
05F1C:  CLRF   xFA
05F1E:  CLRF   xFB
05F20:  CLRF   xFC
05F22:  CLRF   xFD
05F24:  CLRF   xFE
05F26:  CLRF   xFF
05F28:  MOVLB  2
05F2A:  CLRF   x00
05F2C:  CLRF   x01
05F2E:  CLRF   x02
05F30:  CLRF   x03
05F32:  CLRF   x04
05F34:  CLRF   x05
05F36:  CLRF   x06
05F38:  CLRF   x07
05F3A:  CLRF   x08
05F3C:  CLRF   x09
05F3E:  CLRF   x0A
05F40:  CLRF   x0B
05F42:  CLRF   x0C
05F44:  CLRF   x0D
05F46:  CLRF   x0E
05F48:  CLRF   x0F
05F4A:  CLRF   x10
05F4C:  CLRF   x11
05F4E:  CLRF   x12
05F50:  CLRF   x13
05F52:  CLRF   x14
05F54:  CLRF   x15
05F56:  CLRF   x16
05F58:  CLRF   x17
05F5A:  CLRF   x18
05F5C:  CLRF   x19
05F5E:  CLRF   x1A
05F60:  CLRF   x1B
05F62:  CLRF   x1C
05F64:  CLRF   x1D
05F66:  CLRF   x1E
05F68:  CLRF   x1F
05F6A:  CLRF   x20
05F6C:  CLRF   x21
05F6E:  CLRF   x22
05F70:  CLRF   x23
05F72:  CLRF   x24
05F74:  CLRF   x25
05F76:  CLRF   x26
05F78:  CLRF   x27
05F7A:  CLRF   x28
05F7C:  CLRF   x29
05F7E:  CLRF   x2A
05F80:  CLRF   x2B
05F82:  CLRF   x2C
05F84:  CLRF   x2D
05F86:  CLRF   x2E
05F88:  CLRF   x2F
05F8A:  CLRF   x30
05F8C:  CLRF   x31
05F8E:  CLRF   x32
05F90:  CLRF   x33
05F92:  CLRF   x34
05F94:  CLRF   x35
05F96:  CLRF   x36
05F98:  CLRF   x37
05F9A:  CLRF   x38
05F9C:  CLRF   x39
05F9E:  CLRF   x3A
05FA0:  CLRF   x3B
05FA2:  CLRF   x3C
05FA4:  CLRF   x3D
05FA6:  CLRF   x3E
05FA8:  CLRF   x3F
05FAA:  CLRF   x40
05FAC:  CLRF   x41
05FAE:  CLRF   x42
05FB0:  CLRF   x43
05FB2:  CLRF   x44
05FB4:  CLRF   x45
05FB6:  CLRF   x46
05FB8:  CLRF   x47
05FBA:  CLRF   x48
05FBC:  CLRF   x49
05FBE:  CLRF   x4A
05FC0:  CLRF   x4B
05FC2:  CLRF   x4C
05FC4:  CLRF   x4D
05FC6:  CLRF   x4E
05FC8:  CLRF   x4F
05FCA:  CLRF   x50
05FCC:  CLRF   x51
05FCE:  CLRF   x52
05FD0:  CLRF   x53
05FD2:  CLRF   x54
05FD4:  CLRF   x55
05FD6:  CLRF   x56
05FD8:  CLRF   x57
05FDA:  CLRF   x58
05FDC:  CLRF   x59
05FDE:  CLRF   x5A
05FE0:  CLRF   x5B
05FE2:  CLRF   x5C
05FE4:  CLRF   x5D
05FE6:  CLRF   x5E
05FE8:  CLRF   x5F
05FEA:  CLRF   x60
05FEC:  CLRF   x61
05FEE:  CLRF   x62
05FF0:  CLRF   x63
05FF2:  CLRF   x64
05FF4:  CLRF   x65
05FF6:  CLRF   x66
05FF8:  CLRF   x67
05FFA:  CLRF   x68
05FFC:  CLRF   x69
05FFE:  CLRF   x6A
06000:  CLRF   x6B
06002:  CLRF   x6C
06004:  CLRF   x6D
06006:  CLRF   x6E
06008:  CLRF   x6F
0600A:  CLRF   x70
0600C:  CLRF   x71
0600E:  CLRF   x72
06010:  CLRF   x73
06012:  CLRF   x74
06014:  CLRF   x75
06016:  CLRF   x76
06018:  CLRF   x77
0601A:  CLRF   x78
0601C:  CLRF   x79
0601E:  CLRF   x7A
06020:  CLRF   x7B
06022:  CLRF   x7C
06024:  CLRF   x7D
06026:  CLRF   x7E
06028:  CLRF   x7F
0602A:  CLRF   x80
0602C:  CLRF   x81
0602E:  CLRF   x82
06030:  CLRF   x83
06032:  CLRF   x84
06034:  CLRF   x85
06036:  CLRF   x86
06038:  CLRF   x87
0603A:  CLRF   x88
0603C:  CLRF   x89
0603E:  CLRF   x8A
06040:  CLRF   x8B
06042:  CLRF   x8C
06044:  CLRF   x8D
06046:  CLRF   x8E
06048:  CLRF   x8F
0604A:  CLRF   x90
0604C:  CLRF   x91
0604E:  CLRF   x92
06050:  CLRF   x93
06052:  CLRF   x94
06054:  CLRF   x95
06056:  CLRF   x96
06058:  CLRF   x97
0605A:  CLRF   x98
0605C:  CLRF   x99
0605E:  CLRF   x9A
06060:  CLRF   x9B
06062:  CLRF   x9C
06064:  CLRF   x9D
06066:  CLRF   x9E
06068:  CLRF   x9F
0606A:  CLRF   xA0
0606C:  CLRF   xA1
0606E:  CLRF   xA2
06070:  CLRF   xA3
06072:  CLRF   xA4
06074:  CLRF   xB9
06076:  CLRF   xBA
06078:  CLRF   xBB
0607A:  CLRF   xBC
0607C:  CLRF   xBD
0607E:  CLRF   xBE
06080:  CLRF   xBF
06082:  CLRF   xC0
06084:  MOVLB  3
06086:  CLRF   x6A
06088:  CLRF   x6B
0608A:  CLRF   x6C
0608C:  CLRF   x6D
0608E:  CLRF   x6E
06090:  CLRF   x6F
06092:  CLRF   x70
06094:  CLRF   x71
06096:  MOVLW  16
06098:  MOVWF  x93
0609A:  MOVLW  3C
0609C:  MOVWF  x94
0609E:  MOVLW  44
060A0:  MOVWF  x95
060A2:  MOVLW  3B
060A4:  MOVWF  x96
060A6:  MOVLW  19
060A8:  MOVWF  x97
060AA:  MOVLW  18
060AC:  MOVWF  x98
060AE:  MOVLW  42
060B0:  MOVWF  x99
060B2:  MOVLW  40
060B4:  MOVWF  x9A
060B6:  MOVLW  10
060B8:  MOVWF  x9B
060BA:  MOVLW  3E
060BC:  MOVWF  x9C
060BE:  MOVLW  17
060C0:  MOVWF  x9D
060C2:  MOVLW  1C
060C4:  MOVWF  x9E
060C6:  MOVLW  14
060C8:  MOVWF  x9F
060CA:  MOVLW  2E
060CC:  MOVWF  xA0
060CE:  CLRF   xA1
060D0:  MOVLW  12
060D2:  MOVWF  xA2
060D4:  MOVLW  39
060D6:  MOVWF  xA3
060D8:  MOVLW  43
060DA:  MOVWF  xA4
060DC:  MOVLW  3A
060DE:  MOVWF  xA5
060E0:  MOVLW  22
060E2:  MOVWF  xA6
060E4:  MOVLW  21
060E6:  MOVWF  xA7
060E8:  MOVLW  41
060EA:  MOVWF  xA8
060EC:  MOVLW  3F
060EE:  MOVWF  xA9
060F0:  MOVLW  24
060F2:  MOVWF  xAA
060F4:  MOVLW  3D
060F6:  MOVWF  xAB
060F8:  MOVLW  20
060FA:  MOVWF  xAC
060FC:  MOVLW  26
060FE:  MOVWF  xAD
06100:  MOVLW  13
06102:  MOVWF  xAE
06104:  MOVLW  11
06106:  MOVWF  xAF
06108:  CLRF   xB0
....................     
....................    for (posicion=0;posicion<0x10;posicion++){ 
0610A:  MOVLB  0
0610C:  CLRF   x86
0610E:  MOVF   x86,W
06110:  SUBLW  0F
06112:  BNC   6128
....................       SlaveA0Tx[posicion] = 0x00; 
06114:  CLRF   03
06116:  MOVF   x86,W
06118:  ADDLW  64
0611A:  MOVWF  FE9
0611C:  MOVLW  00
0611E:  ADDWFC 03,W
06120:  MOVWF  FEA
06122:  CLRF   FEF
....................    } 
06124:  INCF   x86,F
06126:  BRA    610E
....................    setup_timer_0(RTCC_8_BIT|RTCC_DIV_1); 
06128:  MOVLW  C8
0612A:  MOVWF  FD5
....................    enable_interrupts(INT_TIMER0); 
0612C:  BSF    FF2.5
....................    setup_timer_1(T1_INTERNAL|T1_DIV_BY_1); 
0612E:  MOVLW  85
06130:  MOVWF  FCD
....................    enable_interrupts(INT_TIMER1); 
06132:  BSF    F9D.0
....................    setup_adc_ports(AN0_TO_AN3); 
06134:  MOVF   FC1,W
06136:  ANDLW  C0
06138:  IORLW  0B
0613A:  MOVWF  FC1
....................    setup_adc(ADC_CLOCK_DIV_32 ); 
0613C:  MOVF   FC0,W
0613E:  ANDLW  C0
06140:  IORLW  02
06142:  MOVWF  FC0
06144:  BSF    FC0.7
06146:  BSF    FC2.0
....................    port_b_pullups(true); 
06148:  BCF    FF1.7
....................    enable_interrupts(int_rda); 
0614A:  BSF    F9D.5
....................    setup_wdt(WDT_ON); 
0614C:  BSF    FD1.0
....................    enable_interrupts(global); 
0614E:  MOVLW  C0
06150:  IORWF  FF2,F
....................    LeeEEPROM(); 
06152:  GOTO   1C48
....................    rtc_init(); 
06156:  GOTO   2A44
....................    delay_ms(1); 
0615A:  MOVLW  01
0615C:  MOVLB  4
0615E:  MOVWF  x2A
06160:  MOVLB  0
06162:  CALL   1814
....................    LimitaValores(); 
06166:  GOTO   2B5E
....................    CalculoImpresion=timpresion*60; 
0616A:  MOVLB  3
0616C:  MOVF   x43,W
0616E:  MULLW  3C
06170:  MOVFF  FF3,344
....................    printf("page Bienvenida"); 
06174:  MOVLW  E4
06176:  MOVWF  FF6
06178:  MOVLW  04
0617A:  MOVWF  FF7
0617C:  MOVLW  00
0617E:  MOVWF  FF8
06180:  MOVLB  0
06182:  CALL   3580
....................    SendDataDisplay(); 
06186:  CALL   35B2
....................    printf("bkcmd=0"); 
0618A:  MOVLW  F4
0618C:  MOVWF  FF6
0618E:  MOVLW  04
06190:  MOVWF  FF7
06192:  MOVLW  00
06194:  MOVWF  FF8
06196:  CALL   3580
....................    SendDataDisplay(); 
0619A:  CALL   35B2
....................    delay_ms(1500); 
0619E:  MOVLW  06
061A0:  MOVLB  4
061A2:  MOVWF  x15
061A4:  MOVLW  FA
061A6:  MOVWF  x2A
061A8:  MOVLB  0
061AA:  CALL   1814
061AE:  MOVLB  4
061B0:  DECFSZ x15,F
061B2:  BRA    61A4
....................    printf("page Clave"); 
061B4:  MOVLW  FC
061B6:  MOVWF  FF6
061B8:  MOVLW  04
061BA:  MOVWF  FF7
061BC:  MOVLW  00
061BE:  MOVWF  FF8
061C0:  MOVLB  0
061C2:  CALL   3580
....................    SendDataDisplay(); 
061C6:  CALL   35B2
....................    ApagaSalidas(); 
061CA:  CALL   35E8
....................     
....................    for(i=0;i<MediaMovil;i++){ 
061CE:  MOVLB  3
061D0:  CLRF   x4C
061D2:  MOVLB  2
061D4:  MOVF   xD1,W
061D6:  MOVLB  3
061D8:  SUBWF  x4C,W
061DA:  BC    61FC
....................       Temperatura=LeerPT100(MediaMovil); 
061DC:  MOVFF  2D1,415
061E0:  MOVLB  0
061E2:  CALL   3776
061E6:  MOVFF  03,31A
061EA:  MOVFF  02,319
061EE:  MOVFF  01,318
061F2:  MOVFF  00,317
....................    } 
061F6:  MOVLB  3
061F8:  INCF   x4C,F
061FA:  BRA    61D2
....................     
....................    if(UP && DOWN && RIGHT && LEFT)//Si oprime boton de Toma. 
061FC:  BSF    F93.0
061FE:  BTFSC  F81.0
06200:  BRA    6288
06202:  BSF    F93.1
06204:  BTFSC  F81.1
06206:  BRA    6288
06208:  BSF    F93.2
0620A:  BTFSC  F81.2
0620C:  BRA    6288
0620E:  BSF    F93.3
06210:  BTFSC  F81.3
06212:  BRA    6288
....................    { 
....................       write_eeprom(37,0); 
06214:  CLRF   FAA
06216:  MOVLW  25
06218:  MOVWF  FA9
0621A:  CLRF   FA8
0621C:  BCF    FA6.6
0621E:  BCF    FA6.7
06220:  BSF    FA6.2
06222:  MOVF   FF2,W
06224:  MOVWF  00
06226:  BCF    FF2.6
06228:  BCF    FF2.7
0622A:  MOVLB  F
0622C:  MOVLW  55
0622E:  MOVWF  FA7
06230:  MOVLW  AA
06232:  MOVWF  FA7
06234:  BSF    FA6.1
06236:  BTFSC  FA6.1
06238:  BRA    6236
0623A:  BCF    FA6.2
0623C:  MOVF   00,W
0623E:  IORWF  FF2,F
....................       delay_ms(20); 
06240:  MOVLW  14
06242:  MOVLB  4
06244:  MOVWF  x2A
06246:  MOVLB  0
06248:  CALL   1814
....................       write_eeprom(38,0); 
0624C:  CLRF   FAA
0624E:  MOVLW  26
06250:  MOVWF  FA9
06252:  CLRF   FA8
06254:  BCF    FA6.6
06256:  BCF    FA6.7
06258:  BSF    FA6.2
0625A:  MOVF   FF2,W
0625C:  MOVWF  00
0625E:  BCF    FF2.6
06260:  BCF    FF2.7
06262:  MOVLB  F
06264:  MOVLW  55
06266:  MOVWF  FA7
06268:  MOVLW  AA
0626A:  MOVWF  FA7
0626C:  BSF    FA6.1
0626E:  BTFSC  FA6.1
06270:  BRA    626E
06272:  BCF    FA6.2
06274:  MOVF   00,W
06276:  IORWF  FF2,F
....................       delay_ms(20); 
06278:  MOVLW  14
0627A:  MOVLB  4
0627C:  MOVWF  x2A
0627E:  MOVLB  0
06280:  CALL   1814
....................       reset_cpu(); 
06284:  RESET
06286:  MOVLB  3
....................    } 
....................     
....................    while(true) 
....................    { 
....................       LeeDisplay(); 
06288:  MOVLB  0
0628A:  GOTO   3B32
....................       Envio_Esclavos(); 
0628E:  CALL   3F06
....................       delay_ms(1); 
06292:  MOVLW  01
06294:  MOVLB  4
06296:  MOVWF  x2A
06298:  MOVLB  0
0629A:  CALL   1814
....................       //Lectura_Esclavos(); 
....................       restart_wdt(); 
0629E:  CLRWDT
....................        
....................       if(!Esterilizando || Desfogando){ 
062A0:  BTFSS  xA0.2
062A2:  BRA    62A8
062A4:  BTFSS  xA0.5
062A6:  BRA    62B2
....................          CalculoImpresion=180; 
062A8:  MOVLW  B4
062AA:  MOVLB  3
062AC:  MOVWF  x44
....................       }else{ 
062AE:  BRA    62B8
062B0:  MOVLB  0
....................          CalculoImpresion=60; 
062B2:  MOVLW  3C
062B4:  MOVLB  3
062B6:  MOVWF  x44
....................       } 
....................        
....................       // Monitoreo Nivel de Agua//-------------------------------------- 
....................             if(!LOW){//Si no sensa agua en el nivel alto y no se ha llenado el calderin          
062B8:  BSF    F94.1
062BA:  BTFSC  F82.1
062BC:  BRA    62D4
....................                TiempoSensadoNivel=0; 
062BE:  MOVLB  0
062C0:  CLRF   xAA
062C2:  CLRF   xA9
....................                Controlando=0;    
062C4:  MOVLB  3
062C6:  CLRF   x41
....................                //CalderinLleno=OFF; 
....................                SensadoNivel=OFF; 
062C8:  MOVLB  0
062CA:  BCF    xA0.4
....................                TiempoSensadoNivel=0; 
062CC:  CLRF   xAA
062CE:  CLRF   xA9
....................             } else{ 
062D0:  BRA    62E8
062D2:  MOVLB  3
....................                SensadoNivel=ON; 
062D4:  MOVLB  0
062D6:  BSF    xA0.4
....................                if(TiempoSensadoNivel>5){ 
062D8:  MOVF   xAA,F
062DA:  BNZ   62E2
062DC:  MOVF   xA9,W
062DE:  SUBLW  05
062E0:  BC    62E8
....................                   SensadoNivel=OFF; 
062E2:  BCF    xA0.4
....................                   CalderinLleno=ON; 
062E4:  BSF    xA0.0
....................                   IniciaLlenado=OFF;                   
062E6:  BCF    x9F.7
....................                } 
....................             } 
.................... // Tiempo de Grafica//-------------------------------------- 
....................       if(tiempos2>=6400){ 
062E8:  MOVLB  3
062EA:  MOVF   x59,W
062EC:  SUBLW  18
062EE:  BC    62FA
....................          Grafica=1; 
062F0:  MOVLB  0
062F2:  BSF    xA4.4
....................          tiempos2=0; 
062F4:  MOVLB  3
062F6:  CLRF   x59
062F8:  CLRF   x58
....................       } 
....................  
.................... // Tiempo de Muestreo//-------------------------------------- 
....................       if(tiempos3>=20){ 
062FA:  MOVF   x5B,F
062FC:  BNZ   6306
062FE:  MOVF   x5A,W
06300:  SUBLW  13
06302:  BTFSC  FD8.0
06304:  BRA    643A
....................          Temperatura=LeerPt100(MediaMovil); 
06306:  MOVFF  2D1,415
0630A:  MOVLB  0
0630C:  CALL   3776
06310:  MOVFF  03,31A
06314:  MOVFF  02,319
06318:  MOVFF  01,318
0631C:  MOVFF  00,317
....................          PresionCamara=Leer_Sensor_Presion_Camara(10); 
06320:  MOVLW  0A
06322:  MOVLB  4
06324:  MOVWF  x15
06326:  MOVLB  0
06328:  GOTO   3F46
0632C:  MOVFF  03,42D
06330:  MOVFF  02,42C
06334:  MOVFF  01,42B
06338:  MOVFF  00,42A
0633C:  CALL   3CAC
06340:  MOVFF  02,363
06344:  MOVFF  01,362
....................          PresionPreCamara=Leer_Sensor_Presion_PreCamara(10); 
06348:  MOVLW  0A
0634A:  MOVLB  4
0634C:  MOVWF  x15
0634E:  MOVLB  0
06350:  GOTO   4146
06354:  MOVFF  03,42D
06358:  MOVFF  02,42C
0635C:  MOVFF  01,42B
06360:  MOVFF  00,42A
06364:  CALL   3CAC
06368:  MOVFF  02,365
0636C:  MOVFF  01,364
....................          rtc_get_date(Dia,Mes,Year,dow); 
....................          rtc_get_time(Hora,Minuto,Segundo); 
....................          tiempos3=0; 
*
06434:  MOVLB  3
06436:  CLRF   x5B
06438:  CLRF   x5A
....................       } 
....................        
.................... // Monitoreo Parada Emergencia//--------------------------------------       
....................       if(!STOP && !IniciaCiclo && !PruebaEstados){ 
0643A:  BSF    F93.7
0643C:  BTFSS  F81.7
0643E:  BRA    64A0
06440:  MOVLB  0
06442:  BTFSS  xA0.1
06444:  BRA    644A
06446:  MOVLB  3
06448:  BRA    64A0
0644A:  BTFSS  xA1.2
0644C:  BRA    6452
0644E:  MOVLB  3
06450:  BRA    64A0
....................          if(!disp_Stop){ 
06452:  BTFSC  xA4.5
06454:  BRA    6474
....................             disp_Stop=1;Menu=255; 
06456:  BSF    xA4.5
06458:  MOVLW  FF
0645A:  MOVLB  3
0645C:  MOVWF  x49
....................             printf("page Emergencia"); 
0645E:  MOVLW  08
06460:  MOVWF  FF6
06462:  MOVLW  05
06464:  MOVWF  FF7
06466:  MOVLW  00
06468:  MOVWF  FF8
0646A:  MOVLB  0
0646C:  CALL   3580
....................             SendDataDisplay(); 
06470:  CALL   35B2
....................          } 
....................          Controlando=0; 
06474:  MOVLB  3
06476:  CLRF   x41
....................          Desfogue_on; 
06478:  BSF    F8C.4
0647A:  BCF    F95.4
....................          SSR_off; 
0647C:  BSF    F8B.2
0647E:  BCF    F94.2
....................          Bomba_off; 
06480:  BCF    F8C.6
06482:  BCF    F95.6
....................          Agua_off; 
06484:  BCF    F8C.5
06486:  BCF    F95.5
....................          DesfogueSuave=OFF; 
06488:  MOVLB  0
0648A:  BCF    xA0.6
....................          ActivaAlarma(1); 
0648C:  MOVLW  01
0648E:  MOVLB  4
06490:  MOVWF  x15
06492:  MOVLB  0
06494:  CALL   4378
....................          BorraBuffer(); 
06498:  GOTO   444E
....................       }else{ 
0649C:  BRA    64A8
0649E:  MOVLB  3
....................          if(disp_Stop){ 
064A0:  MOVLB  0
064A2:  BTFSS  xA4.5
064A4:  BRA    64A8
....................             reset_cpu(); 
064A6:  RESET
....................          } 
....................       }            
....................    //Buzzer_off;    
.................... //_-------------------------------------------------------------------------------------------------------------------------------------------------------- 
....................    if(Menu==240){ //Menu de Bienvenida. 
064A8:  MOVLB  3
064AA:  MOVF   x49,W
064AC:  SUBLW  F0
064AE:  BNZ   64F8
....................       printf("bkcmd=0"); 
064B0:  MOVLW  18
064B2:  MOVWF  FF6
064B4:  MOVLW  05
064B6:  MOVWF  FF7
064B8:  MOVLW  00
064BA:  MOVWF  FF8
064BC:  MOVLB  0
064BE:  CALL   3580
....................       SendDataDisplay(); 
064C2:  CALL   35B2
....................       delay_ms(1500); 
064C6:  MOVLW  06
064C8:  MOVLB  4
064CA:  MOVWF  x15
064CC:  MOVLW  FA
064CE:  MOVWF  x2A
064D0:  MOVLB  0
064D2:  CALL   1814
064D6:  MOVLB  4
064D8:  DECFSZ x15,F
064DA:  BRA    64CC
....................       printf("page Clave"); 
064DC:  MOVLW  20
064DE:  MOVWF  FF6
064E0:  MOVLW  05
064E2:  MOVWF  FF7
064E4:  MOVLW  00
064E6:  MOVWF  FF8
064E8:  MOVLB  0
064EA:  CALL   3580
....................       SendDataDisplay(); 
064EE:  CALL   35B2
....................       ApagaSalidas(); 
064F2:  CALL   35E8
064F6:  MOVLB  3
....................    } 
.................... //_-------------------------------------------------------------------------------------------------------------------------------------------------------- 
....................  
.................... //_-------------------------------------------------------------------------------------------------------------------------------------------------------- 
....................     if(Menu==0){ //Menu de Contrasea de acceso. 
064F8:  MOVF   x49,F
064FA:  BTFSS  FD8.2
064FC:  GOTO   6F76
....................       ApagaSalidas(); 
06500:  MOVLB  0
06502:  CALL   35E8
....................       entro=OFF; 
06506:  BCF    xA3.6
....................       if(Digito==1){ 
06508:  MOVLB  2
0650A:  DECFSZ xD6,W
0650C:  BRA    6558
....................          printf("t0.txt=\"%u\"",Contrasena[0]); 
0650E:  MOVLW  2C
06510:  MOVWF  FF6
06512:  MOVLW  05
06514:  MOVWF  FF7
06516:  MOVLW  00
06518:  MOVWF  FF8
0651A:  MOVLW  08
0651C:  MOVLB  4
0651E:  MOVWF  x19
06520:  MOVLB  0
06522:  CALL   447A
06526:  MOVFF  36A,417
0652A:  MOVLW  1B
0652C:  MOVLB  4
0652E:  MOVWF  x18
06530:  MOVLB  0
06532:  CALL   44D8
06536:  MOVLW  22
06538:  BTFSS  F9E.4
0653A:  BRA    6538
0653C:  MOVWF  FAD
....................          SendDataDisplay(); 
0653E:  CALL   35B2
....................          printf("va0.val=1"); 
06542:  MOVLW  38
06544:  MOVWF  FF6
06546:  MOVLW  05
06548:  MOVWF  FF7
0654A:  MOVLW  00
0654C:  MOVWF  FF8
0654E:  CALL   3580
....................          SendDataDisplay(); 
06552:  CALL   35B2
06556:  MOVLB  2
....................       } 
....................        
....................       if(Digito==2){ 
06558:  MOVF   xD6,W
0655A:  SUBLW  02
0655C:  BNZ   65B8
....................          printf("t0.txt=\"%u%u\"",Contrasena[0],Contrasena[1]); 
0655E:  MOVLW  42
06560:  MOVWF  FF6
06562:  MOVLW  05
06564:  MOVWF  FF7
06566:  MOVLW  00
06568:  MOVWF  FF8
0656A:  MOVLW  08
0656C:  MOVLB  4
0656E:  MOVWF  x19
06570:  MOVLB  0
06572:  CALL   447A
06576:  MOVFF  36A,417
0657A:  MOVLW  1B
0657C:  MOVLB  4
0657E:  MOVWF  x18
06580:  MOVLB  0
06582:  CALL   44D8
06586:  MOVFF  36B,417
0658A:  MOVLW  1B
0658C:  MOVLB  4
0658E:  MOVWF  x18
06590:  MOVLB  0
06592:  CALL   44D8
06596:  MOVLW  22
06598:  BTFSS  F9E.4
0659A:  BRA    6598
0659C:  MOVWF  FAD
....................          SendDataDisplay(); 
0659E:  CALL   35B2
....................          printf("va0.val=2"); 
065A2:  MOVLW  50
065A4:  MOVWF  FF6
065A6:  MOVLW  05
065A8:  MOVWF  FF7
065AA:  MOVLW  00
065AC:  MOVWF  FF8
065AE:  CALL   3580
....................          SendDataDisplay(); 
065B2:  CALL   35B2
065B6:  MOVLB  2
....................       } 
....................        
....................       if(Digito==3){ 
065B8:  MOVF   xD6,W
065BA:  SUBLW  03
065BC:  BNZ   6628
....................          printf("t0.txt=\"%u%u%u\"",Contrasena[0],Contrasena[1],Contrasena[2]); 
065BE:  MOVLW  5A
065C0:  MOVWF  FF6
065C2:  MOVLW  05
065C4:  MOVWF  FF7
065C6:  MOVLW  00
065C8:  MOVWF  FF8
065CA:  MOVLW  08
065CC:  MOVLB  4
065CE:  MOVWF  x19
065D0:  MOVLB  0
065D2:  CALL   447A
065D6:  MOVFF  36A,417
065DA:  MOVLW  1B
065DC:  MOVLB  4
065DE:  MOVWF  x18
065E0:  MOVLB  0
065E2:  CALL   44D8
065E6:  MOVFF  36B,417
065EA:  MOVLW  1B
065EC:  MOVLB  4
065EE:  MOVWF  x18
065F0:  MOVLB  0
065F2:  CALL   44D8
065F6:  MOVFF  36C,417
065FA:  MOVLW  1B
065FC:  MOVLB  4
065FE:  MOVWF  x18
06600:  MOVLB  0
06602:  CALL   44D8
06606:  MOVLW  22
06608:  BTFSS  F9E.4
0660A:  BRA    6608
0660C:  MOVWF  FAD
....................          SendDataDisplay(); 
0660E:  CALL   35B2
....................          printf("va0.val=3"); 
06612:  MOVLW  6A
06614:  MOVWF  FF6
06616:  MOVLW  05
06618:  MOVWF  FF7
0661A:  MOVLW  00
0661C:  MOVWF  FF8
0661E:  CALL   3580
....................          SendDataDisplay(); 
06622:  CALL   35B2
06626:  MOVLB  2
....................       } 
....................        
....................       if(Digito==4){ 
06628:  MOVF   xD6,W
0662A:  SUBLW  04
0662C:  BNZ   66A8
....................          printf("t0.txt=\"%u%u%u%u\"",Contrasena[0],Contrasena[1],Contrasena[2],Contrasena[3]); 
0662E:  MOVLW  74
06630:  MOVWF  FF6
06632:  MOVLW  05
06634:  MOVWF  FF7
06636:  MOVLW  00
06638:  MOVWF  FF8
0663A:  MOVLW  08
0663C:  MOVLB  4
0663E:  MOVWF  x19
06640:  MOVLB  0
06642:  CALL   447A
06646:  MOVFF  36A,417
0664A:  MOVLW  1B
0664C:  MOVLB  4
0664E:  MOVWF  x18
06650:  MOVLB  0
06652:  CALL   44D8
06656:  MOVFF  36B,417
0665A:  MOVLW  1B
0665C:  MOVLB  4
0665E:  MOVWF  x18
06660:  MOVLB  0
06662:  CALL   44D8
06666:  MOVFF  36C,417
0666A:  MOVLW  1B
0666C:  MOVLB  4
0666E:  MOVWF  x18
06670:  MOVLB  0
06672:  CALL   44D8
06676:  MOVFF  36D,417
0667A:  MOVLW  1B
0667C:  MOVLB  4
0667E:  MOVWF  x18
06680:  MOVLB  0
06682:  CALL   44D8
06686:  MOVLW  22
06688:  BTFSS  F9E.4
0668A:  BRA    6688
0668C:  MOVWF  FAD
....................          SendDataDisplay(); 
0668E:  CALL   35B2
....................          printf("va0.val=4"); 
06692:  MOVLW  86
06694:  MOVWF  FF6
06696:  MOVLW  05
06698:  MOVWF  FF7
0669A:  MOVLW  00
0669C:  MOVWF  FF8
0669E:  CALL   3580
....................          SendDataDisplay(); 
066A2:  CALL   35B2
066A6:  MOVLB  2
....................       } 
....................        
....................       if(UP){ 
066A8:  BSF    F93.0
066AA:  BTFSC  F81.0
066AC:  BRA    66F6
....................          delay_ms(100); 
066AE:  MOVLW  64
066B0:  MOVLB  4
066B2:  MOVWF  x2A
066B4:  MOVLB  0
066B6:  CALL   1814
....................          if(UP){ 
066BA:  BSF    F93.0
066BC:  BTFSC  F81.0
066BE:  BRA    66F8
....................          if(Digito==0) 
066C0:  MOVLB  2
066C2:  MOVF   xD6,F
066C4:  BNZ   66CA
....................             Digito=1; 
066C6:  MOVLW  01
066C8:  MOVWF  xD6
....................             if(Contrasena[Digito-1]<9) 
066CA:  MOVLW  01
066CC:  SUBWF  xD6,W
066CE:  CLRF   03
066D0:  ADDLW  6A
066D2:  MOVWF  FE9
066D4:  MOVLW  03
066D6:  ADDWFC 03,W
066D8:  MOVWF  FEA
066DA:  BTFSC  FEF.7
066DC:  BRA    66E4
066DE:  MOVF   FEF,W
066E0:  SUBLW  08
066E2:  BNC   66F6
....................                Contrasena[Digito-1]++; 
066E4:  MOVLW  01
066E6:  SUBWF  xD6,W
066E8:  CLRF   03
066EA:  ADDLW  6A
066EC:  MOVWF  FE9
066EE:  MOVLW  03
066F0:  ADDWFC 03,W
066F2:  MOVWF  FEA
066F4:  INCF   FEF,F
066F6:  MOVLB  0
....................          } 
....................       } 
....................        
....................       if(DOWN){ 
066F8:  BSF    F93.1
066FA:  BTFSC  F81.1
066FC:  BRA    6748
....................          delay_ms(100); 
066FE:  MOVLW  64
06700:  MOVLB  4
06702:  MOVWF  x2A
06704:  MOVLB  0
06706:  CALL   1814
....................          if(Digito==0) 
0670A:  MOVLB  2
0670C:  MOVF   xD6,F
0670E:  BNZ   6714
....................             Digito=1; 
06710:  MOVLW  01
06712:  MOVWF  xD6
....................          if(DOWN){ 
06714:  BSF    F93.1
06716:  BTFSC  F81.1
06718:  BRA    6746
....................             if(Contrasena[Digito-1]>0) 
0671A:  MOVLW  01
0671C:  SUBWF  xD6,W
0671E:  CLRF   03
06720:  ADDLW  6A
06722:  MOVWF  FE9
06724:  MOVLW  03
06726:  ADDWFC 03,W
06728:  MOVWF  FEA
0672A:  BTFSC  FEF.7
0672C:  BRA    6746
0672E:  MOVF   FEF,W
06730:  SUBLW  00
06732:  BC    6746
....................                Contrasena[Digito-1]--; 
06734:  MOVLW  01
06736:  SUBWF  xD6,W
06738:  CLRF   03
0673A:  ADDLW  6A
0673C:  MOVWF  FE9
0673E:  MOVLW  03
06740:  ADDWFC 03,W
06742:  MOVWF  FEA
06744:  DECF   FEF,F
06746:  MOVLB  0
....................          } 
....................       } 
....................        
....................       if(RIGHT){ 
06748:  BSF    F93.2
0674A:  BTFSC  F81.2
0674C:  BRA    6766
....................          delay_ms(100); 
0674E:  MOVLW  64
06750:  MOVLB  4
06752:  MOVWF  x2A
06754:  MOVLB  0
06756:  CALL   1814
....................          if(RIGHT){ 
0675A:  BSF    F93.2
0675C:  BTFSC  F81.2
0675E:  BRA    6766
....................             Digito++; 
06760:  MOVLB  2
06762:  INCF   xD6,F
06764:  MOVLB  0
....................          } 
....................       } 
....................        
....................       if(Digito>4){ 
06766:  MOVLB  2
06768:  MOVF   xD6,W
0676A:  SUBLW  04
0676C:  BTFSC  FD8.0
0676E:  BRA    6AC0
....................       Digito=0; 
06770:  CLRF   xD6
....................       printf("t0.txt=\"\""); 
06772:  MOVLW  90
06774:  MOVWF  FF6
06776:  MOVLW  05
06778:  MOVWF  FF7
0677A:  MOVLW  00
0677C:  MOVWF  FF8
0677E:  MOVLB  0
06780:  CALL   3580
....................       SendDataDisplay(); 
06784:  CALL   35B2
....................          if(TipoClave==0){ 
06788:  MOVLB  2
0678A:  MOVF   xD4,F
0678C:  BTFSS  FD8.2
0678E:  BRA    68DE
....................             if(Contrasena[0]==3&&Contrasena[1]==8&&Contrasena[2]==9&&Contrasena[3]==2){ // Si Ingresa clave para reset general del sistema. 
06790:  MOVLB  3
06792:  MOVF   x6A,W
06794:  SUBLW  03
06796:  BTFSS  FD8.2
06798:  BRA    6892
0679A:  MOVF   x6B,W
0679C:  SUBLW  08
0679E:  BTFSS  FD8.2
067A0:  BRA    6892
067A2:  MOVF   x6C,W
067A4:  SUBLW  09
067A6:  BNZ   6892
067A8:  MOVF   x6D,W
067AA:  SUBLW  02
067AC:  BNZ   6892
....................                write_eeprom(10,0);delay_ms(20);write_eeprom(11,0);delay_ms(20);// Reestablece a contrasea de Fabrica y reinicia Programa. 
067AE:  CLRF   FAA
067B0:  MOVLW  0A
067B2:  MOVWF  FA9
067B4:  CLRF   FA8
067B6:  BCF    FA6.6
067B8:  BCF    FA6.7
067BA:  BSF    FA6.2
067BC:  MOVF   FF2,W
067BE:  MOVWF  00
067C0:  BCF    FF2.6
067C2:  BCF    FF2.7
067C4:  MOVLB  F
067C6:  MOVLW  55
067C8:  MOVWF  FA7
067CA:  MOVLW  AA
067CC:  MOVWF  FA7
067CE:  BSF    FA6.1
067D0:  BTFSC  FA6.1
067D2:  BRA    67D0
067D4:  BCF    FA6.2
067D6:  MOVF   00,W
067D8:  IORWF  FF2,F
067DA:  MOVLW  14
067DC:  MOVLB  4
067DE:  MOVWF  x2A
067E0:  MOVLB  0
067E2:  CALL   1814
067E6:  CLRF   FAA
067E8:  MOVLW  0B
067EA:  MOVWF  FA9
067EC:  CLRF   FA8
067EE:  BCF    FA6.6
067F0:  BCF    FA6.7
067F2:  BSF    FA6.2
067F4:  MOVF   FF2,W
067F6:  MOVWF  00
067F8:  BCF    FF2.6
067FA:  BCF    FF2.7
067FC:  MOVLB  F
067FE:  MOVLW  55
06800:  MOVWF  FA7
06802:  MOVLW  AA
06804:  MOVWF  FA7
06806:  BSF    FA6.1
06808:  BTFSC  FA6.1
0680A:  BRA    6808
0680C:  BCF    FA6.2
0680E:  MOVF   00,W
06810:  IORWF  FF2,F
06812:  MOVLW  14
06814:  MOVLB  4
06816:  MOVWF  x2A
06818:  MOVLB  0
0681A:  CALL   1814
....................                write_eeprom(12,0);delay_ms(20);write_eeprom(13,0);delay_ms(20); 
0681E:  CLRF   FAA
06820:  MOVLW  0C
06822:  MOVWF  FA9
06824:  CLRF   FA8
06826:  BCF    FA6.6
06828:  BCF    FA6.7
0682A:  BSF    FA6.2
0682C:  MOVF   FF2,W
0682E:  MOVWF  00
06830:  BCF    FF2.6
06832:  BCF    FF2.7
06834:  MOVLB  F
06836:  MOVLW  55
06838:  MOVWF  FA7
0683A:  MOVLW  AA
0683C:  MOVWF  FA7
0683E:  BSF    FA6.1
06840:  BTFSC  FA6.1
06842:  BRA    6840
06844:  BCF    FA6.2
06846:  MOVF   00,W
06848:  IORWF  FF2,F
0684A:  MOVLW  14
0684C:  MOVLB  4
0684E:  MOVWF  x2A
06850:  MOVLB  0
06852:  CALL   1814
06856:  CLRF   FAA
06858:  MOVLW  0D
0685A:  MOVWF  FA9
0685C:  CLRF   FA8
0685E:  BCF    FA6.6
06860:  BCF    FA6.7
06862:  BSF    FA6.2
06864:  MOVF   FF2,W
06866:  MOVWF  00
06868:  BCF    FF2.6
0686A:  BCF    FF2.7
0686C:  MOVLB  F
0686E:  MOVLW  55
06870:  MOVWF  FA7
06872:  MOVLW  AA
06874:  MOVWF  FA7
06876:  BSF    FA6.1
06878:  BTFSC  FA6.1
0687A:  BRA    6878
0687C:  BCF    FA6.2
0687E:  MOVF   00,W
06880:  IORWF  FF2,F
06882:  MOVLW  14
06884:  MOVLB  4
06886:  MOVWF  x2A
06888:  MOVLB  0
0688A:  CALL   1814
....................                reset_cpu(); 
0688E:  RESET
06890:  MOVLB  3
....................             } 
....................              
....................             if((Contrasena[0]==Password[0])&&(Contrasena[1]==Password[1])&&(Contrasena[2]==Password[2])&&(Contrasena[3]==Password[3])){ 
06892:  MOVF   x6E,W
06894:  SUBWF  x6A,W
06896:  BNZ   68C4
06898:  MOVF   x6F,W
0689A:  SUBWF  x6B,W
0689C:  BNZ   68C4
0689E:  MOVF   x70,W
068A0:  SUBWF  x6C,W
068A2:  BNZ   68C4
068A4:  MOVF   x71,W
068A6:  SUBWF  x6D,W
068A8:  BNZ   68C4
....................                //BorraBuffer(); 
....................                printf("page ClaveCorrecta"); 
068AA:  MOVLW  9A
068AC:  MOVWF  FF6
068AE:  MOVLW  05
068B0:  MOVWF  FF7
068B2:  MOVLW  00
068B4:  MOVWF  FF8
068B6:  MOVLB  0
068B8:  CALL   3580
....................                SendDataDisplay(); 
068BC:  CALL   35B2
....................             }else{ 
068C0:  BRA    68DA
068C2:  MOVLB  3
....................                //BorraBuffer(); 
....................                printf("page ClaveBad"); 
068C4:  MOVLW  AE
068C6:  MOVWF  FF6
068C8:  MOVLW  05
068CA:  MOVWF  FF7
068CC:  MOVLW  00
068CE:  MOVWF  FF8
068D0:  MOVLB  0
068D2:  CALL   3580
....................                SendDataDisplay(); 
068D6:  CALL   35B2
....................             }  
....................          }else if(TipoClave==1){ 
068DA:  BRA    6ABE
068DC:  MOVLB  2
068DE:  DECFSZ xD4,W
068E0:  BRA    6930
....................             if(Contrasena[0]==4&&Contrasena[1]==4&&Contrasena[2]==4&&Contrasena[3]==4){ // Si Ingresa clave de Servicio Tecnico 
068E2:  MOVLB  3
068E4:  MOVF   x6A,W
068E6:  SUBLW  04
068E8:  BNZ   6916
068EA:  MOVF   x6B,W
068EC:  SUBLW  04
068EE:  BNZ   6916
068F0:  MOVF   x6C,W
068F2:  SUBLW  04
068F4:  BNZ   6916
068F6:  MOVF   x6D,W
068F8:  SUBLW  04
068FA:  BNZ   6916
....................                printf("page Config"); 
068FC:  MOVLW  BC
068FE:  MOVWF  FF6
06900:  MOVLW  05
06902:  MOVWF  FF7
06904:  MOVLW  00
06906:  MOVWF  FF8
06908:  MOVLB  0
0690A:  CALL   3580
....................                SendDataDisplay(); 
0690E:  CALL   35B2
....................             }else{ 
06912:  BRA    692C
06914:  MOVLB  3
....................                printf("page MenuPrincipal"); 
06916:  MOVLW  C8
06918:  MOVWF  FF6
0691A:  MOVLW  05
0691C:  MOVWF  FF7
0691E:  MOVLW  00
06920:  MOVWF  FF8
06922:  MOVLB  0
06924:  CALL   3580
....................                SendDataDisplay(); 
06928:  CALL   35B2
....................             } 
....................          }else if(TipoClave==2){ 
0692C:  BRA    6ABE
0692E:  MOVLB  2
06930:  MOVF   xD4,W
06932:  SUBLW  02
06934:  BNZ   699E
....................             if((Contrasena[0]==Password[0])&&(Contrasena[1]==Password[1])&&(Contrasena[2]==Password[2])&&(Contrasena[3]==Password[3])){ 
06936:  MOVLB  3
06938:  MOVF   x6E,W
0693A:  SUBWF  x6A,W
0693C:  BNZ   6984
0693E:  MOVF   x6F,W
06940:  SUBWF  x6B,W
06942:  BNZ   6984
06944:  MOVF   x70,W
06946:  SUBWF  x6C,W
06948:  BNZ   6984
0694A:  MOVF   x71,W
0694C:  SUBWF  x6D,W
0694E:  BNZ   6984
....................                printf("page Clave"); 
06950:  MOVLW  DC
06952:  MOVWF  FF6
06954:  MOVLW  05
06956:  MOVWF  FF7
06958:  MOVLW  00
0695A:  MOVWF  FF8
0695C:  MOVLB  0
0695E:  CALL   3580
....................                SendDataDisplay(); 
06962:  CALL   35B2
....................                printf("titulo.txt=\"Clave Nueva\""); 
06966:  MOVLW  E8
06968:  MOVWF  FF6
0696A:  MOVLW  05
0696C:  MOVWF  FF7
0696E:  MOVLW  00
06970:  MOVWF  FF8
06972:  CALL   3580
....................                SendDataDisplay(); 
06976:  CALL   35B2
....................                TipoClave=3; 
0697A:  MOVLW  03
0697C:  MOVLB  2
0697E:  MOVWF  xD4
....................             }else{ 
06980:  BRA    699C
06982:  MOVLB  3
....................                printf("page MenuPrincipal"); 
06984:  MOVLW  02
06986:  MOVWF  FF6
06988:  MOVLW  06
0698A:  MOVWF  FF7
0698C:  MOVLW  00
0698E:  MOVWF  FF8
06990:  MOVLB  0
06992:  CALL   3580
....................                SendDataDisplay(); 
06996:  CALL   35B2
0699A:  MOVLB  2
....................             }  
....................          }else if(TipoClave==3){ 
0699C:  BRA    6AC0
0699E:  MOVF   xD4,W
069A0:  SUBLW  03
069A2:  BTFSS  FD8.2
069A4:  BRA    6AC0
....................             printf("titulo.txt=\"Clave Nueva\""); 
069A6:  MOVLW  16
069A8:  MOVWF  FF6
069AA:  MOVLW  06
069AC:  MOVWF  FF7
069AE:  MOVLW  00
069B0:  MOVWF  FF8
069B2:  MOVLB  0
069B4:  CALL   3580
....................             SendDataDisplay(); 
069B8:  CALL   35B2
....................             printf("page MenuPrincipal"); 
069BC:  MOVLW  30
069BE:  MOVWF  FF6
069C0:  MOVLW  06
069C2:  MOVWF  FF7
069C4:  MOVLW  00
069C6:  MOVWF  FF8
069C8:  CALL   3580
....................             SendDataDisplay(); 
069CC:  CALL   35B2
....................             if(!GuardaEEPROM){ 
069D0:  BTFSC  xA2.4
069D2:  BRA    6ABE
....................                write_eeprom(10,Contrasena[0]);delay_ms(20);write_eeprom(11,Contrasena[1]);delay_ms(20); 
069D4:  CLRF   FAA
069D6:  MOVLW  0A
069D8:  MOVWF  FA9
069DA:  MOVFF  36A,FA8
069DE:  BCF    FA6.6
069E0:  BCF    FA6.7
069E2:  BSF    FA6.2
069E4:  MOVF   FF2,W
069E6:  MOVWF  00
069E8:  BCF    FF2.6
069EA:  BCF    FF2.7
069EC:  MOVLB  F
069EE:  MOVLW  55
069F0:  MOVWF  FA7
069F2:  MOVLW  AA
069F4:  MOVWF  FA7
069F6:  BSF    FA6.1
069F8:  BTFSC  FA6.1
069FA:  BRA    69F8
069FC:  BCF    FA6.2
069FE:  MOVF   00,W
06A00:  IORWF  FF2,F
06A02:  MOVLW  14
06A04:  MOVLB  4
06A06:  MOVWF  x2A
06A08:  MOVLB  0
06A0A:  CALL   1814
06A0E:  CLRF   FAA
06A10:  MOVLW  0B
06A12:  MOVWF  FA9
06A14:  MOVFF  36B,FA8
06A18:  BCF    FA6.6
06A1A:  BCF    FA6.7
06A1C:  BSF    FA6.2
06A1E:  MOVF   FF2,W
06A20:  MOVWF  00
06A22:  BCF    FF2.6
06A24:  BCF    FF2.7
06A26:  MOVLB  F
06A28:  MOVLW  55
06A2A:  MOVWF  FA7
06A2C:  MOVLW  AA
06A2E:  MOVWF  FA7
06A30:  BSF    FA6.1
06A32:  BTFSC  FA6.1
06A34:  BRA    6A32
06A36:  BCF    FA6.2
06A38:  MOVF   00,W
06A3A:  IORWF  FF2,F
06A3C:  MOVLW  14
06A3E:  MOVLB  4
06A40:  MOVWF  x2A
06A42:  MOVLB  0
06A44:  CALL   1814
....................                write_eeprom(12,Contrasena[2]);delay_ms(20);write_eeprom(13,Contrasena[3]);delay_ms(20); 
06A48:  CLRF   FAA
06A4A:  MOVLW  0C
06A4C:  MOVWF  FA9
06A4E:  MOVFF  36C,FA8
06A52:  BCF    FA6.6
06A54:  BCF    FA6.7
06A56:  BSF    FA6.2
06A58:  MOVF   FF2,W
06A5A:  MOVWF  00
06A5C:  BCF    FF2.6
06A5E:  BCF    FF2.7
06A60:  MOVLB  F
06A62:  MOVLW  55
06A64:  MOVWF  FA7
06A66:  MOVLW  AA
06A68:  MOVWF  FA7
06A6A:  BSF    FA6.1
06A6C:  BTFSC  FA6.1
06A6E:  BRA    6A6C
06A70:  BCF    FA6.2
06A72:  MOVF   00,W
06A74:  IORWF  FF2,F
06A76:  MOVLW  14
06A78:  MOVLB  4
06A7A:  MOVWF  x2A
06A7C:  MOVLB  0
06A7E:  CALL   1814
06A82:  CLRF   FAA
06A84:  MOVLW  0D
06A86:  MOVWF  FA9
06A88:  MOVFF  36D,FA8
06A8C:  BCF    FA6.6
06A8E:  BCF    FA6.7
06A90:  BSF    FA6.2
06A92:  MOVF   FF2,W
06A94:  MOVWF  00
06A96:  BCF    FF2.6
06A98:  BCF    FF2.7
06A9A:  MOVLB  F
06A9C:  MOVLW  55
06A9E:  MOVWF  FA7
06AA0:  MOVLW  AA
06AA2:  MOVWF  FA7
06AA4:  BSF    FA6.1
06AA6:  BTFSC  FA6.1
06AA8:  BRA    6AA6
06AAA:  BCF    FA6.2
06AAC:  MOVF   00,W
06AAE:  IORWF  FF2,F
06AB0:  MOVLW  14
06AB2:  MOVLB  4
06AB4:  MOVWF  x2A
06AB6:  MOVLB  0
06AB8:  CALL   1814
....................                GuardaEEPROM=ON; 
06ABC:  BSF    xA2.4
06ABE:  MOVLB  2
....................             } 
....................          } 
....................       } 
....................        
....................       if(RX_Buffer[4]==0x11){//11 
06AC0:  MOVF   34,W
06AC2:  SUBLW  11
06AC4:  BNZ   6AE4
....................          if(TipoClave!=0){ 
06AC6:  MOVF   xD4,F
06AC8:  BZ    6AE4
....................             printf("page MenuPrincipal"); 
06ACA:  MOVLW  44
06ACC:  MOVWF  FF6
06ACE:  MOVLW  06
06AD0:  MOVWF  FF7
06AD2:  MOVLW  00
06AD4:  MOVWF  FF8
06AD6:  MOVLB  0
06AD8:  CALL   3580
....................             SendDataDisplay(); 
06ADC:  CALL   35B2
....................             PantallaPrincipal=0; 
06AE0:  MOVLB  2
06AE2:  CLRF   xD3
....................          } 
....................       } 
....................        
....................       if(TipoClave==3){ 
06AE4:  MOVF   xD4,W
06AE6:  SUBLW  03
06AE8:  BNZ   6B16
....................          printf("titulo.txt=\"Clave Nueva\""); 
06AEA:  MOVLW  58
06AEC:  MOVWF  FF6
06AEE:  MOVLW  06
06AF0:  MOVWF  FF7
06AF2:  MOVLW  00
06AF4:  MOVWF  FF8
06AF6:  MOVLB  0
06AF8:  CALL   3580
....................          SendDataDisplay(); 
06AFC:  CALL   35B2
....................          printf("doevents"); 
06B00:  MOVLW  72
06B02:  MOVWF  FF6
06B04:  MOVLW  06
06B06:  MOVWF  FF7
06B08:  MOVLW  00
06B0A:  MOVWF  FF8
06B0C:  CALL   3580
....................          SendDataDisplay(); 
06B10:  CALL   35B2
06B14:  MOVLB  2
....................       } 
....................        
....................       if(TipoClave==2){ 
06B16:  MOVF   xD4,W
06B18:  SUBLW  02
06B1A:  BNZ   6B48
....................          printf("titulo.txt=\"Clave Actual\""); 
06B1C:  MOVLW  7C
06B1E:  MOVWF  FF6
06B20:  MOVLW  06
06B22:  MOVWF  FF7
06B24:  MOVLW  00
06B26:  MOVWF  FF8
06B28:  MOVLB  0
06B2A:  CALL   3580
....................          SendDataDisplay(); 
06B2E:  CALL   35B2
....................          printf("doevents"); 
06B32:  MOVLW  96
06B34:  MOVWF  FF6
06B36:  MOVLW  06
06B38:  MOVWF  FF7
06B3A:  MOVLW  00
06B3C:  MOVWF  FF8
06B3E:  CALL   3580
....................          SendDataDisplay(); 
06B42:  CALL   35B2
06B46:  MOVLB  2
....................       } 
....................        
....................       if(TipoClave==1){ 
06B48:  DECFSZ xD4,W
06B4A:  BRA    6B78
....................          printf("titulo.txt=\"Clave Tecnico\""); 
06B4C:  MOVLW  A0
06B4E:  MOVWF  FF6
06B50:  MOVLW  06
06B52:  MOVWF  FF7
06B54:  MOVLW  00
06B56:  MOVWF  FF8
06B58:  MOVLB  0
06B5A:  CALL   3580
....................          SendDataDisplay(); 
06B5E:  CALL   35B2
....................          printf("doevents"); 
06B62:  MOVLW  BC
06B64:  MOVWF  FF6
06B66:  MOVLW  06
06B68:  MOVWF  FF7
06B6A:  MOVLW  00
06B6C:  MOVWF  FF8
06B6E:  CALL   3580
....................          SendDataDisplay(); 
06B72:  CALL   35B2
06B76:  MOVLB  2
....................       } 
....................        
....................       if(TipoClave==0){ 
06B78:  MOVF   xD4,F
06B7A:  BNZ   6B94
....................          printf("titulo.txt=\"Ingrese Contrasea\""); 
06B7C:  MOVLW  C6
06B7E:  MOVWF  FF6
06B80:  MOVLW  06
06B82:  MOVWF  FF7
06B84:  MOVLW  00
06B86:  MOVWF  FF8
06B88:  MOVLB  0
06B8A:  CALL   3580
....................          SendDataDisplay(); 
06B8E:  CALL   35B2
06B92:  MOVLB  2
....................       } 
....................       if(RX_Buffer[3]==0x0f){//0f, recibe caracteres ingresados desde el Display 
06B94:  MOVF   33,W
06B96:  SUBLW  0F
06B98:  BTFSS  FD8.2
06B9A:  BRA    6F74
....................          if(TipoClave==0){ 
06B9C:  MOVF   xD4,F
06B9E:  BTFSS  FD8.2
06BA0:  BRA    6D30
....................             if(RX_Buffer[4]==0x33&&RX_Buffer[5]==0x38&&RX_Buffer[6]==0x39&&RX_Buffer[7]==0x32){ // Si Ingresa clave para reset general del sistema. 
06BA2:  MOVF   34,W
06BA4:  SUBLW  33
06BA6:  BTFSS  FD8.2
06BA8:  BRA    6CA2
06BAA:  MOVF   35,W
06BAC:  SUBLW  38
06BAE:  BTFSS  FD8.2
06BB0:  BRA    6CA2
06BB2:  MOVF   36,W
06BB4:  SUBLW  39
06BB6:  BNZ   6CA2
06BB8:  MOVF   37,W
06BBA:  SUBLW  32
06BBC:  BNZ   6CA2
....................                write_eeprom(10,0);delay_ms(20);write_eeprom(11,0);delay_ms(20);// Reestablece a contrasea de Fabrica y reinicia Programa. 
06BBE:  CLRF   FAA
06BC0:  MOVLW  0A
06BC2:  MOVWF  FA9
06BC4:  CLRF   FA8
06BC6:  BCF    FA6.6
06BC8:  BCF    FA6.7
06BCA:  BSF    FA6.2
06BCC:  MOVF   FF2,W
06BCE:  MOVWF  00
06BD0:  BCF    FF2.6
06BD2:  BCF    FF2.7
06BD4:  MOVLB  F
06BD6:  MOVLW  55
06BD8:  MOVWF  FA7
06BDA:  MOVLW  AA
06BDC:  MOVWF  FA7
06BDE:  BSF    FA6.1
06BE0:  BTFSC  FA6.1
06BE2:  BRA    6BE0
06BE4:  BCF    FA6.2
06BE6:  MOVF   00,W
06BE8:  IORWF  FF2,F
06BEA:  MOVLW  14
06BEC:  MOVLB  4
06BEE:  MOVWF  x2A
06BF0:  MOVLB  0
06BF2:  CALL   1814
06BF6:  CLRF   FAA
06BF8:  MOVLW  0B
06BFA:  MOVWF  FA9
06BFC:  CLRF   FA8
06BFE:  BCF    FA6.6
06C00:  BCF    FA6.7
06C02:  BSF    FA6.2
06C04:  MOVF   FF2,W
06C06:  MOVWF  00
06C08:  BCF    FF2.6
06C0A:  BCF    FF2.7
06C0C:  MOVLB  F
06C0E:  MOVLW  55
06C10:  MOVWF  FA7
06C12:  MOVLW  AA
06C14:  MOVWF  FA7
06C16:  BSF    FA6.1
06C18:  BTFSC  FA6.1
06C1A:  BRA    6C18
06C1C:  BCF    FA6.2
06C1E:  MOVF   00,W
06C20:  IORWF  FF2,F
06C22:  MOVLW  14
06C24:  MOVLB  4
06C26:  MOVWF  x2A
06C28:  MOVLB  0
06C2A:  CALL   1814
....................                write_eeprom(12,0);delay_ms(20);write_eeprom(13,0);delay_ms(20); 
06C2E:  CLRF   FAA
06C30:  MOVLW  0C
06C32:  MOVWF  FA9
06C34:  CLRF   FA8
06C36:  BCF    FA6.6
06C38:  BCF    FA6.7
06C3A:  BSF    FA6.2
06C3C:  MOVF   FF2,W
06C3E:  MOVWF  00
06C40:  BCF    FF2.6
06C42:  BCF    FF2.7
06C44:  MOVLB  F
06C46:  MOVLW  55
06C48:  MOVWF  FA7
06C4A:  MOVLW  AA
06C4C:  MOVWF  FA7
06C4E:  BSF    FA6.1
06C50:  BTFSC  FA6.1
06C52:  BRA    6C50
06C54:  BCF    FA6.2
06C56:  MOVF   00,W
06C58:  IORWF  FF2,F
06C5A:  MOVLW  14
06C5C:  MOVLB  4
06C5E:  MOVWF  x2A
06C60:  MOVLB  0
06C62:  CALL   1814
06C66:  CLRF   FAA
06C68:  MOVLW  0D
06C6A:  MOVWF  FA9
06C6C:  CLRF   FA8
06C6E:  BCF    FA6.6
06C70:  BCF    FA6.7
06C72:  BSF    FA6.2
06C74:  MOVF   FF2,W
06C76:  MOVWF  00
06C78:  BCF    FF2.6
06C7A:  BCF    FF2.7
06C7C:  MOVLB  F
06C7E:  MOVLW  55
06C80:  MOVWF  FA7
06C82:  MOVLW  AA
06C84:  MOVWF  FA7
06C86:  BSF    FA6.1
06C88:  BTFSC  FA6.1
06C8A:  BRA    6C88
06C8C:  BCF    FA6.2
06C8E:  MOVF   00,W
06C90:  IORWF  FF2,F
06C92:  MOVLW  14
06C94:  MOVLB  4
06C96:  MOVWF  x2A
06C98:  MOVLB  0
06C9A:  CALL   1814
....................                reset_cpu(); 
06C9E:  RESET
06CA0:  MOVLB  2
....................             } 
....................             if(RX_Buffer[4]>=0x30 && RX_Buffer[5]>=0x30 && RX_Buffer[6]>=0x30 && RX_Buffer[7]>=0x30 
....................             && RX_Buffer[4]<=0x39 && RX_Buffer[5]<=0x39 && RX_Buffer[6]<=0x39 && RX_Buffer[7]<=0x39){ 
06CA2:  MOVF   34,W
06CA4:  SUBLW  2F
06CA6:  BC    6D2E
06CA8:  MOVF   35,W
06CAA:  SUBLW  2F
06CAC:  BC    6D2E
06CAE:  MOVF   36,W
06CB0:  SUBLW  2F
06CB2:  BC    6D2E
06CB4:  MOVF   37,W
06CB6:  SUBLW  2F
06CB8:  BC    6D2E
06CBA:  MOVF   34,W
06CBC:  SUBLW  39
06CBE:  BNC   6D2E
06CC0:  MOVF   35,W
06CC2:  SUBLW  39
06CC4:  BNC   6D2E
06CC6:  MOVF   36,W
06CC8:  SUBLW  39
06CCA:  BNC   6D2E
06CCC:  MOVF   37,W
06CCE:  SUBLW  39
06CD0:  BNC   6D2E
....................             if((RX_Buffer[4]==Password[0]+0x30)&&(RX_Buffer[5]==Password[1]+0x30)&&(RX_Buffer[6]==Password[2]+0x30)&&(RX_Buffer[7]==Password[3]+0x30)){ 
06CD2:  MOVLW  30
06CD4:  MOVLB  3
06CD6:  ADDWF  x6E,W
06CD8:  SUBWF  34,W
06CDA:  BNZ   6D12
06CDC:  MOVLW  30
06CDE:  ADDWF  x6F,W
06CE0:  SUBWF  35,W
06CE2:  BNZ   6D12
06CE4:  MOVLW  30
06CE6:  ADDWF  x70,W
06CE8:  SUBWF  36,W
06CEA:  BNZ   6D12
06CEC:  MOVLW  30
06CEE:  ADDWF  x71,W
06CF0:  SUBWF  37,W
06CF2:  BNZ   6D12
....................                   printf("page ClaveCorrecta"); 
06CF4:  MOVLW  E6
06CF6:  MOVWF  FF6
06CF8:  MOVLW  06
06CFA:  MOVWF  FF7
06CFC:  MOVLW  00
06CFE:  MOVWF  FF8
06D00:  MOVLB  0
06D02:  CALL   3580
....................                   //printf("page MenuPrincipal"); 
....................                   SendDataDisplay(); 
06D06:  CALL   35B2
....................                   RX_Buffer[3]=0x00;RX_Buffer2[3]=0x00;   
06D0A:  CLRF   33
06D0C:  CLRF   3E
....................                }else{ 
06D0E:  BRA    6D2C
06D10:  MOVLB  3
....................                   printf("page ClaveBad"); 
06D12:  MOVLW  FA
06D14:  MOVWF  FF6
06D16:  MOVLW  06
06D18:  MOVWF  FF7
06D1A:  MOVLW  00
06D1C:  MOVWF  FF8
06D1E:  MOVLB  0
06D20:  CALL   3580
....................                   SendDataDisplay(); 
06D24:  CALL   35B2
....................                   RX_Buffer[3]=0x00;RX_Buffer2[3]=0x00;   
06D28:  CLRF   33
06D2A:  CLRF   3E
06D2C:  MOVLB  2
....................                }  
....................             } 
....................          }else if(TipoClave==1){ 
06D2E:  BRA    6F74
06D30:  DECFSZ xD4,W
06D32:  BRA    6D80
....................             if(RX_Buffer[4]==0x34&&RX_Buffer[5]==0x34&&RX_Buffer[6]==0x34&&RX_Buffer[7]==0x34){ // Si Ingresa clave de Servicio Tecnico 
06D34:  MOVF   34,W
06D36:  SUBLW  34
06D38:  BNZ   6D66
06D3A:  MOVF   35,W
06D3C:  SUBLW  34
06D3E:  BNZ   6D66
06D40:  MOVF   36,W
06D42:  SUBLW  34
06D44:  BNZ   6D66
06D46:  MOVF   37,W
06D48:  SUBLW  34
06D4A:  BNZ   6D66
....................                printf("page Config"); 
06D4C:  MOVLW  08
06D4E:  MOVWF  FF6
06D50:  MOVLW  07
06D52:  MOVWF  FF7
06D54:  MOVLW  00
06D56:  MOVWF  FF8
06D58:  MOVLB  0
06D5A:  CALL   3580
....................                SendDataDisplay(); 
06D5E:  CALL   35B2
....................             }else{ 
06D62:  BRA    6D7C
06D64:  MOVLB  2
....................                printf("page MenuPrincipal"); 
06D66:  MOVLW  14
06D68:  MOVWF  FF6
06D6A:  MOVLW  07
06D6C:  MOVWF  FF7
06D6E:  MOVLW  00
06D70:  MOVWF  FF8
06D72:  MOVLB  0
06D74:  CALL   3580
....................                SendDataDisplay(); 
06D78:  CALL   35B2
....................             } 
....................          }else if(TipoClave==2){ 
06D7C:  BRA    6F72
06D7E:  MOVLB  2
06D80:  MOVF   xD4,W
06D82:  SUBLW  02
06D84:  BNZ   6E2E
....................             if(RX_Buffer[4]>=0x30 && RX_Buffer[5]>=0x30 && RX_Buffer[6]>=0x30 && RX_Buffer[7]>=0x30 
....................             && RX_Buffer[4]<=0x39 && RX_Buffer[5]<=0x39 && RX_Buffer[6]<=0x39 && RX_Buffer[7]<=0x39){ 
06D86:  MOVF   34,W
06D88:  SUBLW  2F
06D8A:  BC    6E2C
06D8C:  MOVF   35,W
06D8E:  SUBLW  2F
06D90:  BC    6E2C
06D92:  MOVF   36,W
06D94:  SUBLW  2F
06D96:  BC    6E2C
06D98:  MOVF   37,W
06D9A:  SUBLW  2F
06D9C:  BC    6E2C
06D9E:  MOVF   34,W
06DA0:  SUBLW  39
06DA2:  BNC   6E2C
06DA4:  MOVF   35,W
06DA6:  SUBLW  39
06DA8:  BNC   6E2C
06DAA:  MOVF   36,W
06DAC:  SUBLW  39
06DAE:  BNC   6E2C
06DB0:  MOVF   37,W
06DB2:  SUBLW  39
06DB4:  BNC   6E2C
....................             if((RX_Buffer[4]==Password[0]+0x30)&&(RX_Buffer[5]==Password[1]+0x30)&&(RX_Buffer[6]==Password[2]+0x30)&&(RX_Buffer[7]==Password[3]+0x30)){ 
06DB6:  MOVLW  30
06DB8:  MOVLB  3
06DBA:  ADDWF  x6E,W
06DBC:  SUBWF  34,W
06DBE:  BNZ   6E10
06DC0:  MOVLW  30
06DC2:  ADDWF  x6F,W
06DC4:  SUBWF  35,W
06DC6:  BNZ   6E10
06DC8:  MOVLW  30
06DCA:  ADDWF  x70,W
06DCC:  SUBWF  36,W
06DCE:  BNZ   6E10
06DD0:  MOVLW  30
06DD2:  ADDWF  x71,W
06DD4:  SUBWF  37,W
06DD6:  BNZ   6E10
....................                printf("page Clave"); 
06DD8:  MOVLW  28
06DDA:  MOVWF  FF6
06DDC:  MOVLW  07
06DDE:  MOVWF  FF7
06DE0:  MOVLW  00
06DE2:  MOVWF  FF8
06DE4:  MOVLB  0
06DE6:  CALL   3580
....................                SendDataDisplay(); 
06DEA:  CALL   35B2
....................                printf("titulo.txt=\"Clave Nueva\""); 
06DEE:  MOVLW  34
06DF0:  MOVWF  FF6
06DF2:  MOVLW  07
06DF4:  MOVWF  FF7
06DF6:  MOVLW  00
06DF8:  MOVWF  FF8
06DFA:  CALL   3580
....................                SendDataDisplay(); 
06DFE:  CALL   35B2
....................                TipoClave=3; 
06E02:  MOVLW  03
06E04:  MOVLB  2
06E06:  MOVWF  xD4
....................                RX_Buffer[3]=0x00; 
06E08:  CLRF   33
....................                RX_Buffer2[3]=0x00; 
06E0A:  CLRF   3E
....................             }else{ 
06E0C:  BRA    6E2C
06E0E:  MOVLB  3
....................                printf("page MenuPrincipal"); 
06E10:  MOVLW  4E
06E12:  MOVWF  FF6
06E14:  MOVLW  07
06E16:  MOVWF  FF7
06E18:  MOVLW  00
06E1A:  MOVWF  FF8
06E1C:  MOVLB  0
06E1E:  CALL   3580
....................                SendDataDisplay(); 
06E22:  CALL   35B2
....................                RX_Buffer[3]=0x00; 
06E26:  CLRF   33
....................                RX_Buffer2[3]=0x00; 
06E28:  CLRF   3E
06E2A:  MOVLB  2
....................             }  
....................             } 
....................          }else if(TipoClave==3){ 
06E2C:  BRA    6F74
06E2E:  MOVF   xD4,W
06E30:  SUBLW  03
06E32:  BTFSS  FD8.2
06E34:  BRA    6F74
....................             printf("titulo.txt=\"Clave Nueva\""); 
06E36:  MOVLW  62
06E38:  MOVWF  FF6
06E3A:  MOVLW  07
06E3C:  MOVWF  FF7
06E3E:  MOVLW  00
06E40:  MOVWF  FF8
06E42:  MOVLB  0
06E44:  CALL   3580
....................             SendDataDisplay(); 
06E48:  CALL   35B2
....................             printf("page MenuPrincipal"); 
06E4C:  MOVLW  7C
06E4E:  MOVWF  FF6
06E50:  MOVLW  07
06E52:  MOVWF  FF7
06E54:  MOVLW  00
06E56:  MOVWF  FF8
06E58:  CALL   3580
....................             SendDataDisplay(); 
06E5C:  CALL   35B2
....................             if(!GuardaEEPROM){ 
06E60:  BTFSC  xA2.4
06E62:  BRA    6F6E
....................                write_eeprom(10,RX_Buffer[4]-0x30);delay_ms(20);write_eeprom(11,RX_Buffer[5]-0x30);delay_ms(20); 
06E64:  MOVLW  30
06E66:  SUBWF  34,W
06E68:  MOVLB  4
06E6A:  MOVWF  x15
06E6C:  CLRF   FAA
06E6E:  MOVLW  0A
06E70:  MOVWF  FA9
06E72:  MOVFF  415,FA8
06E76:  BCF    FA6.6
06E78:  BCF    FA6.7
06E7A:  BSF    FA6.2
06E7C:  MOVF   FF2,W
06E7E:  MOVWF  00
06E80:  BCF    FF2.6
06E82:  BCF    FF2.7
06E84:  MOVLB  F
06E86:  MOVLW  55
06E88:  MOVWF  FA7
06E8A:  MOVLW  AA
06E8C:  MOVWF  FA7
06E8E:  BSF    FA6.1
06E90:  BTFSC  FA6.1
06E92:  BRA    6E90
06E94:  BCF    FA6.2
06E96:  MOVF   00,W
06E98:  IORWF  FF2,F
06E9A:  MOVLW  14
06E9C:  MOVLB  4
06E9E:  MOVWF  x2A
06EA0:  MOVLB  0
06EA2:  CALL   1814
06EA6:  MOVLW  30
06EA8:  SUBWF  35,W
06EAA:  MOVLB  4
06EAC:  MOVWF  x15
06EAE:  CLRF   FAA
06EB0:  MOVLW  0B
06EB2:  MOVWF  FA9
06EB4:  MOVFF  415,FA8
06EB8:  BCF    FA6.6
06EBA:  BCF    FA6.7
06EBC:  BSF    FA6.2
06EBE:  MOVF   FF2,W
06EC0:  MOVWF  00
06EC2:  BCF    FF2.6
06EC4:  BCF    FF2.7
06EC6:  MOVLB  F
06EC8:  MOVLW  55
06ECA:  MOVWF  FA7
06ECC:  MOVLW  AA
06ECE:  MOVWF  FA7
06ED0:  BSF    FA6.1
06ED2:  BTFSC  FA6.1
06ED4:  BRA    6ED2
06ED6:  BCF    FA6.2
06ED8:  MOVF   00,W
06EDA:  IORWF  FF2,F
06EDC:  MOVLW  14
06EDE:  MOVLB  4
06EE0:  MOVWF  x2A
06EE2:  MOVLB  0
06EE4:  CALL   1814
....................                write_eeprom(12,RX_Buffer[6]-0x30);delay_ms(20);write_eeprom(13,RX_Buffer[7]-0x30);delay_ms(20); 
06EE8:  MOVLW  30
06EEA:  SUBWF  36,W
06EEC:  MOVLB  4
06EEE:  MOVWF  x15
06EF0:  CLRF   FAA
06EF2:  MOVLW  0C
06EF4:  MOVWF  FA9
06EF6:  MOVFF  415,FA8
06EFA:  BCF    FA6.6
06EFC:  BCF    FA6.7
06EFE:  BSF    FA6.2
06F00:  MOVF   FF2,W
06F02:  MOVWF  00
06F04:  BCF    FF2.6
06F06:  BCF    FF2.7
06F08:  MOVLB  F
06F0A:  MOVLW  55
06F0C:  MOVWF  FA7
06F0E:  MOVLW  AA
06F10:  MOVWF  FA7
06F12:  BSF    FA6.1
06F14:  BTFSC  FA6.1
06F16:  BRA    6F14
06F18:  BCF    FA6.2
06F1A:  MOVF   00,W
06F1C:  IORWF  FF2,F
06F1E:  MOVLW  14
06F20:  MOVLB  4
06F22:  MOVWF  x2A
06F24:  MOVLB  0
06F26:  CALL   1814
06F2A:  MOVLW  30
06F2C:  SUBWF  37,W
06F2E:  MOVLB  4
06F30:  MOVWF  x15
06F32:  CLRF   FAA
06F34:  MOVLW  0D
06F36:  MOVWF  FA9
06F38:  MOVFF  415,FA8
06F3C:  BCF    FA6.6
06F3E:  BCF    FA6.7
06F40:  BSF    FA6.2
06F42:  MOVF   FF2,W
06F44:  MOVWF  00
06F46:  BCF    FF2.6
06F48:  BCF    FF2.7
06F4A:  MOVLB  F
06F4C:  MOVLW  55
06F4E:  MOVWF  FA7
06F50:  MOVLW  AA
06F52:  MOVWF  FA7
06F54:  BSF    FA6.1
06F56:  BTFSC  FA6.1
06F58:  BRA    6F56
06F5A:  BCF    FA6.2
06F5C:  MOVF   00,W
06F5E:  IORWF  FF2,F
06F60:  MOVLW  14
06F62:  MOVLB  4
06F64:  MOVWF  x2A
06F66:  MOVLB  0
06F68:  CALL   1814
....................                GuardaEEPROM=ON; 
06F6C:  BSF    xA2.4
....................             } 
....................             RX_Buffer[3]=0x00; 
06F6E:  CLRF   33
....................             RX_Buffer2[3]=0x00; 
06F70:  CLRF   3E
06F72:  MOVLB  2
06F74:  MOVLB  3
....................          } 
....................       } 
....................     } 
.................... //_--------------------------------------------------------------------------------------------------------------------------------------------------------        
....................  
.................... //_-------------------------------------------------------------------------------------------------------------------------------------------------------- 
....................    if(Menu==1){ //Menu Principal. 
06F76:  DECFSZ x49,W
06F78:  GOTO   7AFA
....................       printf("fecha.txt=\"Fecha:%02u/%02u/20%02u    Hora: %02u:%02u\"",Dia,Mes,Year,Hora,Minuto); 
06F7C:  MOVLW  90
06F7E:  MOVWF  FF6
06F80:  MOVLW  07
06F82:  MOVWF  FF7
06F84:  MOVLW  00
06F86:  MOVWF  FF8
06F88:  MOVLW  11
06F8A:  MOVLB  4
06F8C:  MOVWF  x19
06F8E:  MOVLB  0
06F90:  CALL   447A
06F94:  MOVFF  381,417
06F98:  MOVLW  01
06F9A:  MOVLB  4
06F9C:  MOVWF  x18
06F9E:  MOVLB  0
06FA0:  CALL   44D8
06FA4:  MOVLW  2F
06FA6:  BTFSS  F9E.4
06FA8:  BRA    6FA6
06FAA:  MOVWF  FAD
06FAC:  MOVFF  380,417
06FB0:  MOVLW  01
06FB2:  MOVLB  4
06FB4:  MOVWF  x18
06FB6:  MOVLB  0
06FB8:  CALL   44D8
06FBC:  MOVLW  2F
06FBE:  BTFSS  F9E.4
06FC0:  BRA    6FBE
06FC2:  MOVWF  FAD
06FC4:  MOVLW  32
06FC6:  BTFSS  F9E.4
06FC8:  BRA    6FC6
06FCA:  MOVWF  FAD
06FCC:  MOVLW  30
06FCE:  BTFSS  F9E.4
06FD0:  BRA    6FCE
06FD2:  MOVWF  FAD
06FD4:  MOVFF  37F,417
06FD8:  MOVLW  01
06FDA:  MOVLB  4
06FDC:  MOVWF  x18
06FDE:  MOVLB  0
06FE0:  CALL   44D8
06FE4:  MOVLW  B1
06FE6:  MOVWF  FF6
06FE8:  MOVLW  07
06FEA:  MOVWF  FF7
06FEC:  MOVLW  00
06FEE:  MOVWF  FF8
06FF0:  MOVLW  0A
06FF2:  MOVLB  4
06FF4:  MOVWF  x19
06FF6:  MOVLB  0
06FF8:  CALL   447A
06FFC:  MOVFF  382,417
07000:  MOVLW  01
07002:  MOVLB  4
07004:  MOVWF  x18
07006:  MOVLB  0
07008:  CALL   44D8
0700C:  MOVLW  3A
0700E:  BTFSS  F9E.4
07010:  BRA    700E
07012:  MOVWF  FAD
07014:  MOVFF  383,417
07018:  MOVLW  01
0701A:  MOVLB  4
0701C:  MOVWF  x18
0701E:  MOVLB  0
07020:  CALL   44D8
07024:  MOVLW  22
07026:  BTFSS  F9E.4
07028:  BRA    7026
0702A:  MOVWF  FAD
....................       SendDataDisplay(); 
0702C:  CALL   35B2
....................       GuardaEEPROM=OFF; 
07030:  BCF    xA2.4
....................       if(RX_Buffer[3]==0x0f || UP){//0f, recibe caracteres ingresados desde el Display 
07032:  MOVF   33,W
07034:  SUBLW  0F
07036:  BZ    703E
07038:  BSF    F93.0
0703A:  BTFSC  F81.0
0703C:  BRA    7476
....................          delay_ms(5); 
0703E:  MOVLW  05
07040:  MOVLB  4
07042:  MOVWF  x2A
07044:  MOVLB  0
07046:  CALL   1814
....................          if(RX_Buffer[3]==0x0f || UP){ 
0704A:  MOVF   33,W
0704C:  SUBLW  0F
0704E:  BZ    7056
07050:  BSF    F93.0
07052:  BTFSC  F81.0
07054:  BRA    7470
....................          if(PantallaPrincipal==0){//Si esta en menu principal 
07056:  MOVLB  2
07058:  MOVF   xD3,F
0705A:  BTFSS  FD8.2
0705C:  BRA    7474
....................             if(RX_Buffer[4]==0x37){//Ajustes y pasa a solicitud de password de tecnico 
0705E:  MOVF   34,W
07060:  SUBLW  37
07062:  BNZ   7090
....................                printf("page Clave"); 
07064:  MOVLW  C6
07066:  MOVWF  FF6
07068:  MOVLW  07
0706A:  MOVWF  FF7
0706C:  MOVLW  00
0706E:  MOVWF  FF8
07070:  MOVLB  0
07072:  CALL   3580
....................                SendDataDisplay();  
07076:  CALL   35B2
....................                Op=OFF; 
0707A:  BCF    xA2.0
....................                Op2=OFF; 
0707C:  BCF    xA2.1
....................                MenuAnt=Menu; 
0707E:  MOVFF  349,34A
....................                TipoClave=1; 
07082:  MOVLW  01
07084:  MOVLB  2
07086:  MOVWF  xD4
....................                RX_Buffer[3]=0x00; 
07088:  CLRF   33
....................                RX_Buffer2[3]=0x00; 
0708A:  CLRF   3E
....................                Opcion=0; 
0708C:  MOVLB  3
0708E:  CLRF   x51
....................             }  
....................             if(Opcion==14){// Cambio de Clave 
07090:  MOVLB  3
07092:  MOVF   x51,W
07094:  SUBLW  0E
07096:  BNZ   70C6
....................                printf("page Clave"); 
07098:  MOVLW  D2
0709A:  MOVWF  FF6
0709C:  MOVLW  07
0709E:  MOVWF  FF7
070A0:  MOVLW  00
070A2:  MOVWF  FF8
070A4:  MOVLB  0
070A6:  CALL   3580
....................                SendDataDisplay();  
070AA:  CALL   35B2
....................                Op=OFF; 
070AE:  BCF    xA2.0
....................                Op2=OFF; 
070B0:  BCF    xA2.1
....................                MenuAnt=Menu; 
070B2:  MOVFF  349,34A
....................                TipoClave=2; 
070B6:  MOVLW  02
070B8:  MOVLB  2
070BA:  MOVWF  xD4
....................                RX_Buffer[3]=0x00; 
070BC:  CLRF   33
....................                RX_Buffer2[3]=0x00; 
070BE:  CLRF   3E
....................                Opcion=0; 
070C0:  MOVLB  3
070C2:  CLRF   x51
....................             }else if(Opcion==13){//Hora y Fecha 
070C4:  BRA    7472
070C6:  MOVF   x51,W
070C8:  SUBLW  0D
070CA:  BNZ   7108
....................                printf("page Fecha"); 
070CC:  MOVLW  DE
070CE:  MOVWF  FF6
070D0:  MOVLW  07
070D2:  MOVWF  FF7
070D4:  MOVLW  00
070D6:  MOVWF  FF8
070D8:  MOVLB  0
070DA:  CALL   3580
....................                SendDataDisplay();      
070DE:  CALL   35B2
....................                PantallaPrincipal=0; 
070E2:  MOVLB  2
070E4:  CLRF   xD3
....................                MenuAnt=Menu; 
070E6:  MOVFF  349,34A
....................                Op=OFF; 
070EA:  MOVLB  0
070EC:  BCF    xA2.0
....................                Op2=OFF; 
070EE:  BCF    xA2.1
....................                DiaTx=Dia; 
070F0:  MOVFF  381,388
....................                MesTx=Mes; 
070F4:  MOVFF  380,387
....................                YearTx=Year; 
070F8:  MOVFF  37F,386
....................                HoraTx=Hora; 
070FC:  MOVFF  382,389
....................                MinutoTx=Minuto; 
07100:  MOVFF  383,38A
....................             }else if(Opcion==12){//Test 
07104:  BRA    7470
07106:  MOVLB  3
07108:  MOVF   x51,W
0710A:  SUBLW  0C
0710C:  BNZ   7136
....................                printf("page Test"); 
0710E:  MOVLW  EA
07110:  MOVWF  FF6
07112:  MOVLW  07
07114:  MOVWF  FF7
07116:  MOVLW  00
07118:  MOVWF  FF8
0711A:  MOVLB  0
0711C:  CALL   3580
....................                SendDataDisplay();      
07120:  CALL   35B2
....................                PantallaPrincipal=0; 
07124:  MOVLB  2
07126:  CLRF   xD3
....................                MenuAnt=Menu; 
07128:  MOVFF  349,34A
....................                Op=OFF; 
0712C:  MOVLB  0
0712E:  BCF    xA2.0
....................                Op2=OFF; 
07130:  BCF    xA2.1
....................             }else if(Opcion==11){//Ciclo Libre 
07132:  BRA    7470
07134:  MOVLB  3
07136:  MOVF   x51,W
07138:  SUBLW  0B
0713A:  BNZ   715E
....................                printf("page CicloPersona"); 
0713C:  MOVLW  F4
0713E:  MOVWF  FF6
07140:  MOVLW  07
07142:  MOVWF  FF7
07144:  MOVLW  00
07146:  MOVWF  FF8
07148:  MOVLB  0
0714A:  CALL   3580
....................                SendDataDisplay();  
0714E:  CALL   35B2
....................                MenuAnt=Menu; 
07152:  MOVFF  349,34A
....................                Op=OFF; 
07156:  BCF    xA2.0
....................                Op2=OFF; 
07158:  BCF    xA2.1
....................             }else if(Opcion==10){//Desinfeccion 
0715A:  BRA    7470
0715C:  MOVLB  3
0715E:  MOVF   x51,W
07160:  SUBLW  0A
07162:  BNZ   71B0
....................                printf("page Funcionamiento"); 
07164:  MOVLW  06
07166:  MOVWF  FF6
07168:  MOVLW  08
0716A:  MOVWF  FF7
0716C:  MOVLW  00
0716E:  MOVWF  FF8
07170:  MOVLB  0
07172:  CALL   3580
....................                SendDataDisplay();        
07176:  CALL   35B2
....................                ConfiguraCiclo(0,0,5,2,0,0,5,1,1,10,105); 
0717A:  MOVLB  4
0717C:  CLRF   x1F
0717E:  CLRF   x20
07180:  MOVLW  05
07182:  MOVWF  x21
07184:  MOVLW  02
07186:  MOVWF  x22
07188:  CLRF   x23
0718A:  CLRF   x24
0718C:  MOVLW  05
0718E:  MOVWF  x25
07190:  MOVLW  01
07192:  MOVWF  x26
07194:  MOVWF  x27
07196:  MOVLW  0A
07198:  MOVWF  x28
0719A:  MOVLW  69
0719C:  MOVWF  x29
0719E:  MOVLB  0
071A0:  CALL   4556
....................                Op=OFF; 
071A4:  BCF    xA2.0
....................                Op2=OFF; 
071A6:  BCF    xA2.1
....................                MenuAnt=2; 
071A8:  MOVLW  02
071AA:  MOVLB  3
071AC:  MOVWF  x4A
....................             }else if(Opcion==9){//SolidosB 
071AE:  BRA    7472
071B0:  MOVF   x51,W
071B2:  SUBLW  09
071B4:  BNZ   71FE
....................                printf("page Funcionamiento"); 
071B6:  MOVLW  1A
071B8:  MOVWF  FF6
071BA:  MOVLW  08
071BC:  MOVWF  FF7
071BE:  MOVLW  00
071C0:  MOVWF  FF8
071C2:  MOVLB  0
071C4:  CALL   3580
....................                SendDataDisplay();        
071C8:  CALL   35B2
....................                ConfiguraCiclo(0,0,4,0,0,0,0,3,0,9,134); 
071CC:  MOVLB  4
071CE:  CLRF   x1F
071D0:  CLRF   x20
071D2:  MOVLW  04
071D4:  MOVWF  x21
071D6:  CLRF   x22
071D8:  CLRF   x23
071DA:  CLRF   x24
071DC:  CLRF   x25
071DE:  MOVLW  03
071E0:  MOVWF  x26
071E2:  CLRF   x27
071E4:  MOVLW  09
071E6:  MOVWF  x28
071E8:  MOVLW  86
071EA:  MOVWF  x29
071EC:  MOVLB  0
071EE:  CALL   4556
....................                Op=OFF; 
071F2:  BCF    xA2.0
....................                Op2=OFF; 
071F4:  BCF    xA2.1
....................                MenuAnt=2; 
071F6:  MOVLW  02
071F8:  MOVLB  3
071FA:  MOVWF  x4A
....................             }else if(Opcion==8){//SolidosA 
071FC:  BRA    7472
071FE:  MOVF   x51,W
07200:  SUBLW  08
07202:  BNZ   724E
....................                printf("page Funcionamiento"); 
07204:  MOVLW  2E
07206:  MOVWF  FF6
07208:  MOVLW  08
0720A:  MOVWF  FF7
0720C:  MOVLW  00
0720E:  MOVWF  FF8
07210:  MOVLB  0
07212:  CALL   3580
....................                SendDataDisplay();        
07216:  CALL   35B2
....................                ConfiguraCiclo(0,0,5,1,0,0,0,3,0,8,121); 
0721A:  MOVLB  4
0721C:  CLRF   x1F
0721E:  CLRF   x20
07220:  MOVLW  05
07222:  MOVWF  x21
07224:  MOVLW  01
07226:  MOVWF  x22
07228:  CLRF   x23
0722A:  CLRF   x24
0722C:  CLRF   x25
0722E:  MOVLW  03
07230:  MOVWF  x26
07232:  CLRF   x27
07234:  MOVLW  08
07236:  MOVWF  x28
07238:  MOVLW  79
0723A:  MOVWF  x29
0723C:  MOVLB  0
0723E:  CALL   4556
....................                Op=OFF; 
07242:  BCF    xA2.0
....................                Op2=OFF; 
07244:  BCF    xA2.1
....................                MenuAnt=2; 
07246:  MOVLW  02
07248:  MOVLB  3
0724A:  MOVWF  x4A
....................             }else if(Opcion==7){//LiquidosC 
0724C:  BRA    7472
0724E:  MOVF   x51,W
07250:  SUBLW  07
07252:  BNZ   729C
....................                printf("page Nivel"); 
07254:  MOVLW  42
07256:  MOVWF  FF6
07258:  MOVLW  08
0725A:  MOVWF  FF7
0725C:  MOVLW  00
0725E:  MOVWF  FF8
07260:  MOVLB  0
07262:  CALL   3580
....................                SendDataDisplay();        
07266:  CALL   35B2
....................                ConfiguraCiclo(0,0,0,3,0,0,0,0,1,7,121); 
0726A:  MOVLB  4
0726C:  CLRF   x1F
0726E:  CLRF   x20
07270:  CLRF   x21
07272:  MOVLW  03
07274:  MOVWF  x22
07276:  CLRF   x23
07278:  CLRF   x24
0727A:  CLRF   x25
0727C:  CLRF   x26
0727E:  MOVLW  01
07280:  MOVWF  x27
07282:  MOVLW  07
07284:  MOVWF  x28
07286:  MOVLW  79
07288:  MOVWF  x29
0728A:  MOVLB  0
0728C:  CALL   4556
....................                Op=OFF; 
07290:  BCF    xA2.0
....................                Op2=OFF; 
07292:  BCF    xA2.1
....................                MenuAnt=2; 
07294:  MOVLW  02
07296:  MOVLB  3
07298:  MOVWF  x4A
....................             }else if(Opcion==6){//LiquidosB 
0729A:  BRA    7472
0729C:  MOVF   x51,W
0729E:  SUBLW  06
072A0:  BNZ   72EA
....................                printf("page Nivel"); 
072A2:  MOVLW  4E
072A4:  MOVWF  FF6
072A6:  MOVLW  08
072A8:  MOVWF  FF7
072AA:  MOVLW  00
072AC:  MOVWF  FF8
072AE:  MOVLB  0
072B0:  CALL   3580
....................                SendDataDisplay();        
072B4:  CALL   35B2
....................                ConfiguraCiclo(0,0,0,2,0,0,0,0,1,6,121); 
072B8:  MOVLB  4
072BA:  CLRF   x1F
072BC:  CLRF   x20
072BE:  CLRF   x21
072C0:  MOVLW  02
072C2:  MOVWF  x22
072C4:  CLRF   x23
072C6:  CLRF   x24
072C8:  CLRF   x25
072CA:  CLRF   x26
072CC:  MOVLW  01
072CE:  MOVWF  x27
072D0:  MOVLW  06
072D2:  MOVWF  x28
072D4:  MOVLW  79
072D6:  MOVWF  x29
072D8:  MOVLB  0
072DA:  CALL   4556
....................                Op=OFF; 
072DE:  BCF    xA2.0
....................                Op2=OFF; 
072E0:  BCF    xA2.1
....................                MenuAnt=2; 
072E2:  MOVLW  02
072E4:  MOVLB  3
072E6:  MOVWF  x4A
....................             }else if(Opcion==5){//LiquidosA 
072E8:  BRA    7472
072EA:  MOVF   x51,W
072EC:  SUBLW  05
072EE:  BNZ   7338
....................                printf("page Nivel"); 
072F0:  MOVLW  5A
072F2:  MOVWF  FF6
072F4:  MOVLW  08
072F6:  MOVWF  FF7
072F8:  MOVLW  00
072FA:  MOVWF  FF8
072FC:  MOVLB  0
072FE:  CALL   3580
....................                SendDataDisplay();        
07302:  CALL   35B2
....................                ConfiguraCiclo(0,0,5,1,0,0,0,0,1,5,121); 
07306:  MOVLB  4
07308:  CLRF   x1F
0730A:  CLRF   x20
0730C:  MOVLW  05
0730E:  MOVWF  x21
07310:  MOVLW  01
07312:  MOVWF  x22
07314:  CLRF   x23
07316:  CLRF   x24
07318:  CLRF   x25
0731A:  CLRF   x26
0731C:  MOVWF  x27
0731E:  MOVLW  05
07320:  MOVWF  x28
07322:  MOVLW  79
07324:  MOVWF  x29
07326:  MOVLB  0
07328:  CALL   4556
....................                Op=OFF; 
0732C:  BCF    xA2.0
....................                Op2=OFF; 
0732E:  BCF    xA2.1
....................                MenuAnt=2; 
07330:  MOVLW  02
07332:  MOVLB  3
07334:  MOVWF  x4A
....................             }else if(Opcion==4){//Delicado Envuelto 
07336:  BRA    7472
07338:  MOVF   x51,W
0733A:  SUBLW  04
0733C:  BNZ   7386
....................                printf("page Funcionamiento"); 
0733E:  MOVLW  66
07340:  MOVWF  FF6
07342:  MOVLW  08
07344:  MOVWF  FF7
07346:  MOVLW  00
07348:  MOVWF  FF8
0734A:  MOVLB  0
0734C:  CALL   3580
....................                SendDataDisplay();        
07350:  CALL   35B2
....................                ConfiguraCiclo(0,0,0,3,0,0,0,2,0,4,121); 
07354:  MOVLB  4
07356:  CLRF   x1F
07358:  CLRF   x20
0735A:  CLRF   x21
0735C:  MOVLW  03
0735E:  MOVWF  x22
07360:  CLRF   x23
07362:  CLRF   x24
07364:  CLRF   x25
07366:  MOVLW  02
07368:  MOVWF  x26
0736A:  CLRF   x27
0736C:  MOVLW  04
0736E:  MOVWF  x28
07370:  MOVLW  79
07372:  MOVWF  x29
07374:  MOVLB  0
07376:  CALL   4556
....................                Op=OFF; 
0737A:  BCF    xA2.0
....................                Op2=OFF; 
0737C:  BCF    xA2.1
....................                MenuAnt=2; 
0737E:  MOVLW  02
07380:  MOVLB  3
07382:  MOVWF  x4A
....................             }else if(Opcion==3){//Delicado No envuelto 
07384:  BRA    7472
07386:  MOVF   x51,W
07388:  SUBLW  03
0738A:  BNZ   73D8
....................                printf("page Funcionamiento"); 
0738C:  MOVLW  7A
0738E:  MOVWF  FF6
07390:  MOVLW  08
07392:  MOVWF  FF7
07394:  MOVLW  00
07396:  MOVWF  FF8
07398:  MOVLB  0
0739A:  CALL   3580
....................                SendDataDisplay();        
0739E:  CALL   35B2
....................                ConfiguraCiclo(0,0,5,1,0,0,5,1,0,3,121); 
073A2:  MOVLB  4
073A4:  CLRF   x1F
073A6:  CLRF   x20
073A8:  MOVLW  05
073AA:  MOVWF  x21
073AC:  MOVLW  01
073AE:  MOVWF  x22
073B0:  CLRF   x23
073B2:  CLRF   x24
073B4:  MOVLW  05
073B6:  MOVWF  x25
073B8:  MOVLW  01
073BA:  MOVWF  x26
073BC:  CLRF   x27
073BE:  MOVLW  03
073C0:  MOVWF  x28
073C2:  MOVLW  79
073C4:  MOVWF  x29
073C6:  MOVLB  0
073C8:  CALL   4556
....................                Op=OFF; 
073CC:  BCF    xA2.0
....................                Op2=OFF; 
073CE:  BCF    xA2.1
....................                MenuAnt=2; 
073D0:  MOVLW  02
073D2:  MOVLB  3
073D4:  MOVWF  x4A
....................             }else if(Opcion==2){//Envuelto 
073D6:  BRA    7472
073D8:  MOVF   x51,W
073DA:  SUBLW  02
073DC:  BNZ   7428
....................                printf("page Funcionamiento"); 
073DE:  MOVLW  8E
073E0:  MOVWF  FF6
073E2:  MOVLW  08
073E4:  MOVWF  FF7
073E6:  MOVLW  00
073E8:  MOVWF  FF8
073EA:  MOVLB  0
073EC:  CALL   3580
....................                SendDataDisplay();        
073F0:  CALL   35B2
....................                ConfiguraCiclo(0,0,2,1,0,0,0,3,0,2,134); 
073F4:  MOVLB  4
073F6:  CLRF   x1F
073F8:  CLRF   x20
073FA:  MOVLW  02
073FC:  MOVWF  x21
073FE:  MOVLW  01
07400:  MOVWF  x22
07402:  CLRF   x23
07404:  CLRF   x24
07406:  CLRF   x25
07408:  MOVLW  03
0740A:  MOVWF  x26
0740C:  CLRF   x27
0740E:  MOVLW  02
07410:  MOVWF  x28
07412:  MOVLW  86
07414:  MOVWF  x29
07416:  MOVLB  0
07418:  CALL   4556
....................                Op=OFF; 
0741C:  BCF    xA2.0
....................                Op2=OFF; 
0741E:  BCF    xA2.1
....................                MenuAnt=Menu;                
07420:  MOVFF  349,34A
....................             }else if(Opcion==1){//No Envuelto 
07424:  BRA    7470
07426:  MOVLB  3
07428:  DECFSZ x51,W
0742A:  BRA    7472
....................                printf("page Funcionamiento"); 
0742C:  MOVLW  A2
0742E:  MOVWF  FF6
07430:  MOVLW  08
07432:  MOVWF  FF7
07434:  MOVLW  00
07436:  MOVWF  FF8
07438:  MOVLB  0
0743A:  CALL   3580
....................                SendDataDisplay();        
0743E:  CALL   35B2
....................                ConfiguraCiclo(0,0,4,0,0,0,5,1,0,1,134); 
07442:  MOVLB  4
07444:  CLRF   x1F
07446:  CLRF   x20
07448:  MOVLW  04
0744A:  MOVWF  x21
0744C:  CLRF   x22
0744E:  CLRF   x23
07450:  CLRF   x24
07452:  MOVLW  05
07454:  MOVWF  x25
07456:  MOVLW  01
07458:  MOVWF  x26
0745A:  CLRF   x27
0745C:  MOVWF  x28
0745E:  MOVLW  86
07460:  MOVWF  x29
07462:  MOVLB  0
07464:  CALL   4556
....................                Op=OFF; 
07468:  BCF    xA2.0
....................                Op2=OFF; 
0746A:  BCF    xA2.1
....................                MenuAnt=Menu; 
0746C:  MOVFF  349,34A
07470:  MOVLB  3
07472:  MOVLB  2
....................             } 
....................          } 
....................          } 
....................       }else if(PantallaPrincipal==0){ 
07474:  BRA    7AAC
07476:  MOVLB  2
07478:  MOVF   xD3,F
0747A:  BTFSS  FD8.2
0747C:  BRA    7AAC
....................          if(Opcion>14) 
0747E:  MOVLB  3
07480:  MOVF   x51,W
07482:  SUBLW  0E
07484:  BC    748A
....................             Opcion=1; 
07486:  MOVLW  01
07488:  MOVWF  x51
....................              
....................          if(Opcion<1) 
0748A:  MOVF   x51,F
0748C:  BNZ   7492
....................             Opcion=14; 
0748E:  MOVLW  0E
07490:  MOVWF  x51
....................           
....................          if(Opcion==1){ 
07492:  DECFSZ x51,W
07494:  BRA    7656
....................             printf("bc.pic=%u",iconoGrande[Opcion-1]); 
07496:  MOVLW  01
07498:  SUBWF  x51,W
0749A:  CLRF   03
0749C:  ADDLW  93
0749E:  MOVWF  FE9
074A0:  MOVLW  03
074A2:  ADDWFC 03,W
074A4:  MOVWF  FEA
074A6:  MOVFF  FEF,415
074AA:  MOVLW  B6
074AC:  MOVWF  FF6
074AE:  MOVLW  08
074B0:  MOVWF  FF7
074B2:  MOVLW  00
074B4:  MOVWF  FF8
074B6:  MOVLW  07
074B8:  MOVLB  4
074BA:  MOVWF  x19
074BC:  MOVLB  0
074BE:  CALL   447A
074C2:  MOVFF  415,417
074C6:  MOVLW  1B
074C8:  MOVLB  4
074CA:  MOVWF  x18
074CC:  MOVLB  0
074CE:  CALL   44D8
....................             SendDataDisplay(); 
074D2:  CALL   35B2
....................             printf("bd.pic=%u",iconoPeque[Opcion]); 
074D6:  CLRF   03
074D8:  MOVLB  3
074DA:  MOVF   x51,W
074DC:  ADDLW  A2
074DE:  MOVWF  FE9
074E0:  MOVLW  03
074E2:  ADDWFC 03,W
074E4:  MOVWF  FEA
074E6:  MOVFF  FEF,415
074EA:  MOVLW  C0
074EC:  MOVWF  FF6
074EE:  MOVLW  08
074F0:  MOVWF  FF7
074F2:  MOVLW  00
074F4:  MOVWF  FF8
074F6:  MOVLW  07
074F8:  MOVLB  4
074FA:  MOVWF  x19
074FC:  MOVLB  0
074FE:  CALL   447A
07502:  MOVFF  415,417
07506:  MOVLW  1B
07508:  MOVLB  4
0750A:  MOVWF  x18
0750C:  MOVLB  0
0750E:  CALL   44D8
....................             SendDataDisplay(); 
07512:  CALL   35B2
....................             printf("bi.pic=%u",iconoPeque[13]); 
07516:  MOVLW  CA
07518:  MOVWF  FF6
0751A:  MOVLW  08
0751C:  MOVWF  FF7
0751E:  MOVLW  00
07520:  MOVWF  FF8
07522:  MOVLW  07
07524:  MOVLB  4
07526:  MOVWF  x19
07528:  MOVLB  0
0752A:  CALL   447A
0752E:  MOVFF  3AF,417
07532:  MOVLW  1B
07534:  MOVLB  4
07536:  MOVWF  x18
07538:  MOVLB  0
0753A:  CALL   44D8
....................             SendDataDisplay(); 
0753E:  CALL   35B2
....................             printf("bc.pic2=%u",iconoGrande[Opcion-1]); 
07542:  MOVLW  01
07544:  MOVLB  3
07546:  SUBWF  x51,W
07548:  CLRF   03
0754A:  ADDLW  93
0754C:  MOVWF  FE9
0754E:  MOVLW  03
07550:  ADDWFC 03,W
07552:  MOVWF  FEA
07554:  MOVFF  FEF,415
07558:  MOVLW  D4
0755A:  MOVWF  FF6
0755C:  MOVLW  08
0755E:  MOVWF  FF7
07560:  MOVLW  00
07562:  MOVWF  FF8
07564:  MOVLW  08
07566:  MOVLB  4
07568:  MOVWF  x19
0756A:  MOVLB  0
0756C:  CALL   447A
07570:  MOVFF  415,417
07574:  MOVLW  1B
07576:  MOVLB  4
07578:  MOVWF  x18
0757A:  MOVLB  0
0757C:  CALL   44D8
....................             SendDataDisplay(); 
07580:  CALL   35B2
....................             printf("bd.pic2=%u",iconoPeque[Opcion]); 
07584:  CLRF   03
07586:  MOVLB  3
07588:  MOVF   x51,W
0758A:  ADDLW  A2
0758C:  MOVWF  FE9
0758E:  MOVLW  03
07590:  ADDWFC 03,W
07592:  MOVWF  FEA
07594:  MOVFF  FEF,415
07598:  MOVLW  E0
0759A:  MOVWF  FF6
0759C:  MOVLW  08
0759E:  MOVWF  FF7
075A0:  MOVLW  00
075A2:  MOVWF  FF8
075A4:  MOVLW  08
075A6:  MOVLB  4
075A8:  MOVWF  x19
075AA:  MOVLB  0
075AC:  CALL   447A
075B0:  MOVFF  415,417
075B4:  MOVLW  1B
075B6:  MOVLB  4
075B8:  MOVWF  x18
075BA:  MOVLB  0
075BC:  CALL   44D8
....................             SendDataDisplay(); 
075C0:  CALL   35B2
....................             printf("bi.pic2=%u",iconoPeque[13]); 
075C4:  MOVLW  EC
075C6:  MOVWF  FF6
075C8:  MOVLW  08
075CA:  MOVWF  FF7
075CC:  MOVLW  00
075CE:  MOVWF  FF8
075D0:  MOVLW  08
075D2:  MOVLB  4
075D4:  MOVWF  x19
075D6:  MOVLB  0
075D8:  CALL   447A
075DC:  MOVFF  3AF,417
075E0:  MOVLW  1B
075E2:  MOVLB  4
075E4:  MOVWF  x18
075E6:  MOVLB  0
075E8:  CALL   44D8
....................             SendDataDisplay(); 
075EC:  CALL   35B2
....................             printf("textop.txt=\"%s\"",texto[Opcion-1]); 
075F0:  MOVLW  01
075F2:  MOVLB  3
075F4:  SUBWF  x51,W
075F6:  MOVLB  4
075F8:  MOVWF  x16
075FA:  CLRF   x1A
075FC:  MOVWF  x19
075FE:  CLRF   x1C
07600:  MOVLW  14
07602:  MOVWF  x1B
07604:  MOVLB  0
07606:  CALL   365E
0760A:  MOVFF  02,416
0760E:  MOVLB  4
07610:  MOVFF  01,415
07614:  MOVLW  F8
07616:  MOVWF  FF6
07618:  MOVLW  08
0761A:  MOVWF  FF7
0761C:  MOVLW  00
0761E:  MOVWF  FF8
07620:  MOVLW  0C
07622:  MOVWF  x19
07624:  MOVLB  0
07626:  CALL   447A
0762A:  MOVLW  50
0762C:  MOVWF  FF6
0762E:  MOVLW  01
07630:  MOVWF  FF7
07632:  MOVLW  00
07634:  MOVWF  FF8
07636:  MOVLB  4
07638:  MOVF   x15,W
0763A:  ADDWF  FF6,F
0763C:  MOVF   x16,W
0763E:  ADDWFC FF7,F
07640:  MOVLB  0
07642:  CALL   3580
07646:  MOVLW  22
07648:  BTFSS  F9E.4
0764A:  BRA    7648
0764C:  MOVWF  FAD
....................             SendDataDisplay(); 
0764E:  CALL   35B2
....................          }else if(Opcion==14){ 
07652:  BRA    7A0A
07654:  MOVLB  3
07656:  MOVF   x51,W
07658:  SUBLW  0E
0765A:  BTFSS  FD8.2
0765C:  BRA    7822
....................             printf("bc.pic=%u",iconoGrande[Opcion-1]); 
0765E:  MOVLW  01
07660:  SUBWF  x51,W
07662:  CLRF   03
07664:  ADDLW  93
07666:  MOVWF  FE9
07668:  MOVLW  03
0766A:  ADDWFC 03,W
0766C:  MOVWF  FEA
0766E:  MOVFF  FEF,415
07672:  MOVLW  08
07674:  MOVWF  FF6
07676:  MOVLW  09
07678:  MOVWF  FF7
0767A:  MOVLW  00
0767C:  MOVWF  FF8
0767E:  MOVLW  07
07680:  MOVLB  4
07682:  MOVWF  x19
07684:  MOVLB  0
07686:  CALL   447A
0768A:  MOVFF  415,417
0768E:  MOVLW  1B
07690:  MOVLB  4
07692:  MOVWF  x18
07694:  MOVLB  0
07696:  CALL   44D8
....................             SendDataDisplay(); 
0769A:  CALL   35B2
....................             printf("bd.pic=%u",iconoPeque[0]); 
0769E:  MOVLW  12
076A0:  MOVWF  FF6
076A2:  MOVLW  09
076A4:  MOVWF  FF7
076A6:  MOVLW  00
076A8:  MOVWF  FF8
076AA:  MOVLW  07
076AC:  MOVLB  4
076AE:  MOVWF  x19
076B0:  MOVLB  0
076B2:  CALL   447A
076B6:  MOVFF  3A2,417
076BA:  MOVLW  1B
076BC:  MOVLB  4
076BE:  MOVWF  x18
076C0:  MOVLB  0
076C2:  CALL   44D8
....................             SendDataDisplay(); 
076C6:  CALL   35B2
....................             printf("bi.pic=%u",iconoPeque[Opcion-2]); 
076CA:  MOVLW  02
076CC:  MOVLB  3
076CE:  SUBWF  x51,W
076D0:  CLRF   03
076D2:  ADDLW  A2
076D4:  MOVWF  FE9
076D6:  MOVLW  03
076D8:  ADDWFC 03,W
076DA:  MOVWF  FEA
076DC:  MOVFF  FEF,415
076E0:  MOVLW  1C
076E2:  MOVWF  FF6
076E4:  MOVLW  09
076E6:  MOVWF  FF7
076E8:  MOVLW  00
076EA:  MOVWF  FF8
076EC:  MOVLW  07
076EE:  MOVLB  4
076F0:  MOVWF  x19
076F2:  MOVLB  0
076F4:  CALL   447A
076F8:  MOVFF  415,417
076FC:  MOVLW  1B
076FE:  MOVLB  4
07700:  MOVWF  x18
07702:  MOVLB  0
07704:  CALL   44D8
....................             SendDataDisplay(); 
07708:  CALL   35B2
....................             printf("bc.pic2=%u",iconoGrande[Opcion-1]); 
0770C:  MOVLW  01
0770E:  MOVLB  3
07710:  SUBWF  x51,W
07712:  CLRF   03
07714:  ADDLW  93
07716:  MOVWF  FE9
07718:  MOVLW  03
0771A:  ADDWFC 03,W
0771C:  MOVWF  FEA
0771E:  MOVFF  FEF,415
07722:  MOVLW  26
07724:  MOVWF  FF6
07726:  MOVLW  09
07728:  MOVWF  FF7
0772A:  MOVLW  00
0772C:  MOVWF  FF8
0772E:  MOVLW  08
07730:  MOVLB  4
07732:  MOVWF  x19
07734:  MOVLB  0
07736:  CALL   447A
0773A:  MOVFF  415,417
0773E:  MOVLW  1B
07740:  MOVLB  4
07742:  MOVWF  x18
07744:  MOVLB  0
07746:  CALL   44D8
....................             SendDataDisplay(); 
0774A:  CALL   35B2
....................             printf("bd.pic2=%u",iconoPeque[0]); 
0774E:  MOVLW  32
07750:  MOVWF  FF6
07752:  MOVLW  09
07754:  MOVWF  FF7
07756:  MOVLW  00
07758:  MOVWF  FF8
0775A:  MOVLW  08
0775C:  MOVLB  4
0775E:  MOVWF  x19
07760:  MOVLB  0
07762:  CALL   447A
07766:  MOVFF  3A2,417
0776A:  MOVLW  1B
0776C:  MOVLB  4
0776E:  MOVWF  x18
07770:  MOVLB  0
07772:  CALL   44D8
....................             SendDataDisplay(); 
07776:  CALL   35B2
....................             printf("bi.pic2=%u",iconoPeque[Opcion-2]); 
0777A:  MOVLW  02
0777C:  MOVLB  3
0777E:  SUBWF  x51,W
07780:  CLRF   03
07782:  ADDLW  A2
07784:  MOVWF  FE9
07786:  MOVLW  03
07788:  ADDWFC 03,W
0778A:  MOVWF  FEA
0778C:  MOVFF  FEF,415
07790:  MOVLW  3E
07792:  MOVWF  FF6
07794:  MOVLW  09
07796:  MOVWF  FF7
07798:  MOVLW  00
0779A:  MOVWF  FF8
0779C:  MOVLW  08
0779E:  MOVLB  4
077A0:  MOVWF  x19
077A2:  MOVLB  0
077A4:  CALL   447A
077A8:  MOVFF  415,417
077AC:  MOVLW  1B
077AE:  MOVLB  4
077B0:  MOVWF  x18
077B2:  MOVLB  0
077B4:  CALL   44D8
....................             SendDataDisplay(); 
077B8:  CALL   35B2
....................             printf("textop.txt=\"%s\"",texto[Opcion-1]); 
077BC:  MOVLW  01
077BE:  MOVLB  3
077C0:  SUBWF  x51,W
077C2:  MOVLB  4
077C4:  MOVWF  x16
077C6:  CLRF   x1A
077C8:  MOVWF  x19
077CA:  CLRF   x1C
077CC:  MOVLW  14
077CE:  MOVWF  x1B
077D0:  MOVLB  0
077D2:  CALL   365E
077D6:  MOVFF  02,416
077DA:  MOVLB  4
077DC:  MOVFF  01,415
077E0:  MOVLW  4A
077E2:  MOVWF  FF6
077E4:  MOVLW  09
077E6:  MOVWF  FF7
077E8:  MOVLW  00
077EA:  MOVWF  FF8
077EC:  MOVLW  0C
077EE:  MOVWF  x19
077F0:  MOVLB  0
077F2:  CALL   447A
077F6:  MOVLW  50
077F8:  MOVWF  FF6
077FA:  MOVLW  01
077FC:  MOVWF  FF7
077FE:  MOVLW  00
07800:  MOVWF  FF8
07802:  MOVLB  4
07804:  MOVF   x15,W
07806:  ADDWF  FF6,F
07808:  MOVF   x16,W
0780A:  ADDWFC FF7,F
0780C:  MOVLB  0
0780E:  CALL   3580
07812:  MOVLW  22
07814:  BTFSS  F9E.4
07816:  BRA    7814
07818:  MOVWF  FAD
....................             SendDataDisplay(); 
0781A:  CALL   35B2
....................          }else{ 
0781E:  BRA    7A0A
07820:  MOVLB  3
....................             printf("bc.pic=%u",iconoGrande[Opcion-1]); 
07822:  MOVLW  01
07824:  SUBWF  x51,W
07826:  CLRF   03
07828:  ADDLW  93
0782A:  MOVWF  FE9
0782C:  MOVLW  03
0782E:  ADDWFC 03,W
07830:  MOVWF  FEA
07832:  MOVFF  FEF,415
07836:  MOVLW  5A
07838:  MOVWF  FF6
0783A:  MOVLW  09
0783C:  MOVWF  FF7
0783E:  MOVLW  00
07840:  MOVWF  FF8
07842:  MOVLW  07
07844:  MOVLB  4
07846:  MOVWF  x19
07848:  MOVLB  0
0784A:  CALL   447A
0784E:  MOVFF  415,417
07852:  MOVLW  1B
07854:  MOVLB  4
07856:  MOVWF  x18
07858:  MOVLB  0
0785A:  CALL   44D8
....................             SendDataDisplay(); 
0785E:  CALL   35B2
....................             printf("bd.pic=%u",iconoPeque[Opcion]); 
07862:  CLRF   03
07864:  MOVLB  3
07866:  MOVF   x51,W
07868:  ADDLW  A2
0786A:  MOVWF  FE9
0786C:  MOVLW  03
0786E:  ADDWFC 03,W
07870:  MOVWF  FEA
07872:  MOVFF  FEF,415
07876:  MOVLW  64
07878:  MOVWF  FF6
0787A:  MOVLW  09
0787C:  MOVWF  FF7
0787E:  MOVLW  00
07880:  MOVWF  FF8
07882:  MOVLW  07
07884:  MOVLB  4
07886:  MOVWF  x19
07888:  MOVLB  0
0788A:  CALL   447A
0788E:  MOVFF  415,417
07892:  MOVLW  1B
07894:  MOVLB  4
07896:  MOVWF  x18
07898:  MOVLB  0
0789A:  CALL   44D8
....................             SendDataDisplay(); 
0789E:  CALL   35B2
....................             printf("bi.pic=%u",iconoPeque[Opcion-2]); 
078A2:  MOVLW  02
078A4:  MOVLB  3
078A6:  SUBWF  x51,W
078A8:  CLRF   03
078AA:  ADDLW  A2
078AC:  MOVWF  FE9
078AE:  MOVLW  03
078B0:  ADDWFC 03,W
078B2:  MOVWF  FEA
078B4:  MOVFF  FEF,415
078B8:  MOVLW  6E
078BA:  MOVWF  FF6
078BC:  MOVLW  09
078BE:  MOVWF  FF7
078C0:  MOVLW  00
078C2:  MOVWF  FF8
078C4:  MOVLW  07
078C6:  MOVLB  4
078C8:  MOVWF  x19
078CA:  MOVLB  0
078CC:  CALL   447A
078D0:  MOVFF  415,417
078D4:  MOVLW  1B
078D6:  MOVLB  4
078D8:  MOVWF  x18
078DA:  MOVLB  0
078DC:  CALL   44D8
....................             SendDataDisplay(); 
078E0:  CALL   35B2
....................             printf("bc.pic2=%u",iconoGrande[Opcion-1]); 
078E4:  MOVLW  01
078E6:  MOVLB  3
078E8:  SUBWF  x51,W
078EA:  CLRF   03
078EC:  ADDLW  93
078EE:  MOVWF  FE9
078F0:  MOVLW  03
078F2:  ADDWFC 03,W
078F4:  MOVWF  FEA
078F6:  MOVFF  FEF,415
078FA:  MOVLW  78
078FC:  MOVWF  FF6
078FE:  MOVLW  09
07900:  MOVWF  FF7
07902:  MOVLW  00
07904:  MOVWF  FF8
07906:  MOVLW  08
07908:  MOVLB  4
0790A:  MOVWF  x19
0790C:  MOVLB  0
0790E:  CALL   447A
07912:  MOVFF  415,417
07916:  MOVLW  1B
07918:  MOVLB  4
0791A:  MOVWF  x18
0791C:  MOVLB  0
0791E:  CALL   44D8
....................             SendDataDisplay(); 
07922:  CALL   35B2
....................             printf("bd.pic2=%u",iconoPeque[Opcion]); 
07926:  CLRF   03
07928:  MOVLB  3
0792A:  MOVF   x51,W
0792C:  ADDLW  A2
0792E:  MOVWF  FE9
07930:  MOVLW  03
07932:  ADDWFC 03,W
07934:  MOVWF  FEA
07936:  MOVFF  FEF,415
0793A:  MOVLW  84
0793C:  MOVWF  FF6
0793E:  MOVLW  09
07940:  MOVWF  FF7
07942:  MOVLW  00
07944:  MOVWF  FF8
07946:  MOVLW  08
07948:  MOVLB  4
0794A:  MOVWF  x19
0794C:  MOVLB  0
0794E:  CALL   447A
07952:  MOVFF  415,417
07956:  MOVLW  1B
07958:  MOVLB  4
0795A:  MOVWF  x18
0795C:  MOVLB  0
0795E:  CALL   44D8
....................             SendDataDisplay(); 
07962:  CALL   35B2
....................             printf("bi.pic2=%u",iconoPeque[Opcion-2]); 
07966:  MOVLW  02
07968:  MOVLB  3
0796A:  SUBWF  x51,W
0796C:  CLRF   03
0796E:  ADDLW  A2
07970:  MOVWF  FE9
07972:  MOVLW  03
07974:  ADDWFC 03,W
07976:  MOVWF  FEA
07978:  MOVFF  FEF,415
0797C:  MOVLW  90
0797E:  MOVWF  FF6
07980:  MOVLW  09
07982:  MOVWF  FF7
07984:  MOVLW  00
07986:  MOVWF  FF8
07988:  MOVLW  08
0798A:  MOVLB  4
0798C:  MOVWF  x19
0798E:  MOVLB  0
07990:  CALL   447A
07994:  MOVFF  415,417
07998:  MOVLW  1B
0799A:  MOVLB  4
0799C:  MOVWF  x18
0799E:  MOVLB  0
079A0:  CALL   44D8
....................             SendDataDisplay(); 
079A4:  CALL   35B2
....................             printf("textop.txt=\"%s\"",texto[Opcion-1]); 
079A8:  MOVLW  01
079AA:  MOVLB  3
079AC:  SUBWF  x51,W
079AE:  MOVLB  4
079B0:  MOVWF  x16
079B2:  CLRF   x1A
079B4:  MOVWF  x19
079B6:  CLRF   x1C
079B8:  MOVLW  14
079BA:  MOVWF  x1B
079BC:  MOVLB  0
079BE:  CALL   365E
079C2:  MOVFF  02,416
079C6:  MOVLB  4
079C8:  MOVFF  01,415
079CC:  MOVLW  9C
079CE:  MOVWF  FF6
079D0:  MOVLW  09
079D2:  MOVWF  FF7
079D4:  MOVLW  00
079D6:  MOVWF  FF8
079D8:  MOVLW  0C
079DA:  MOVWF  x19
079DC:  MOVLB  0
079DE:  CALL   447A
079E2:  MOVLW  50
079E4:  MOVWF  FF6
079E6:  MOVLW  01
079E8:  MOVWF  FF7
079EA:  MOVLW  00
079EC:  MOVWF  FF8
079EE:  MOVLB  4
079F0:  MOVF   x15,W
079F2:  ADDWF  FF6,F
079F4:  MOVF   x16,W
079F6:  ADDWFC FF7,F
079F8:  MOVLB  0
079FA:  CALL   3580
079FE:  MOVLW  22
07A00:  BTFSS  F9E.4
07A02:  BRA    7A00
07A04:  MOVWF  FAD
....................             SendDataDisplay(); 
07A06:  CALL   35B2
....................          } 
....................           
....................          printf("ttitulo.txt=\"SELECCIONE SU CICLO\""); 
07A0A:  MOVLW  AC
07A0C:  MOVWF  FF6
07A0E:  MOVLW  09
07A10:  MOVWF  FF7
07A12:  MOVLW  00
07A14:  MOVWF  FF8
07A16:  CALL   3580
....................          SendDataDisplay(); 
07A1A:  CALL   35B2
....................           
....................          if(RIGHT){ 
07A1E:  BSF    F93.2
07A20:  BTFSC  F81.2
07A22:  BRA    7A3C
....................             delay_ms(20); 
07A24:  MOVLW  14
07A26:  MOVLB  4
07A28:  MOVWF  x2A
07A2A:  MOVLB  0
07A2C:  CALL   1814
....................             if(RIGHT){ 
07A30:  BSF    F93.2
07A32:  BTFSC  F81.2
07A34:  BRA    7A3C
....................                Opcion++; 
07A36:  MOVLB  3
07A38:  INCF   x51,F
07A3A:  MOVLB  0
....................             } 
....................          } 
....................           
....................          if(LEFT){ 
07A3C:  BSF    F93.3
07A3E:  BTFSC  F81.3
07A40:  BRA    7A5A
....................             delay_ms(20); 
07A42:  MOVLW  14
07A44:  MOVLB  4
07A46:  MOVWF  x2A
07A48:  MOVLB  0
07A4A:  CALL   1814
....................             if(LEFT){ 
07A4E:  BSF    F93.3
07A50:  BTFSC  F81.3
07A52:  BRA    7A5A
....................                Opcion--; 
07A54:  MOVLB  3
07A56:  DECF   x51,F
07A58:  MOVLB  0
....................             } 
....................          } 
....................           
....................          if(RX_Buffer[4]==0x0d && !Op){//Tecla Derecha Oprimida 
07A5A:  MOVF   34,W
07A5C:  SUBLW  0D
07A5E:  BNZ   7A6E
07A60:  BTFSC  xA2.0
07A62:  BRA    7A6E
....................             Opcion++; 
07A64:  MOVLB  3
07A66:  INCF   x51,F
....................             RX_Buffer[4]=0x00; 
07A68:  CLRF   34
....................             Op=ON; 
07A6A:  MOVLB  0
07A6C:  BSF    xA2.0
....................             //BorraBuffer(); 
....................          } 
....................           
....................          if(RX_Buffer[4]==0x0c && Op){//Tecla Derecha Oprimida 
07A6E:  MOVF   34,W
07A70:  SUBLW  0C
07A72:  BNZ   7A82
07A74:  BTFSS  xA2.0
07A76:  BRA    7A82
....................             Opcion++; 
07A78:  MOVLB  3
07A7A:  INCF   x51,F
....................             RX_Buffer[4]=0x00; 
07A7C:  CLRF   34
....................             Op=OFF; 
07A7E:  MOVLB  0
07A80:  BCF    xA2.0
....................             //BorraBuffer(); 
....................          } 
....................           
....................          if(RX_Buffer[4]==0x0e && !Op2){//Tecla Izquierda Oprimida 
07A82:  MOVF   34,W
07A84:  SUBLW  0E
07A86:  BNZ   7A96
07A88:  BTFSC  xA2.1
07A8A:  BRA    7A96
....................             Opcion--; 
07A8C:  MOVLB  3
07A8E:  DECF   x51,F
....................             RX_Buffer[4]=0x00; 
07A90:  CLRF   34
....................             Op2=ON; 
07A92:  MOVLB  0
07A94:  BSF    xA2.1
....................             //BorraBuffer(); 
....................          } 
....................           
....................          if(RX_Buffer[4]==0x0f && Op2){//Tecla Izquierda Oprimida 
07A96:  MOVF   34,W
07A98:  SUBLW  0F
07A9A:  BNZ   7AAA
07A9C:  BTFSS  xA2.1
07A9E:  BRA    7AAA
....................             Opcion--; 
07AA0:  MOVLB  3
07AA2:  DECF   x51,F
....................             RX_Buffer[4]=0x00; 
07AA4:  CLRF   34
....................             Op2=OFF; 
07AA6:  MOVLB  0
07AA8:  BCF    xA2.1
07AAA:  MOVLB  2
....................             //BorraBuffer(); 
....................          } 
....................           
....................       } 
....................          if(RIGHT && LEFT){ 
07AAC:  BSF    F93.2
07AAE:  BTFSC  F81.2
07AB0:  BRA    7AFE
07AB2:  BSF    F93.3
07AB4:  BTFSC  F81.3
07AB6:  BRA    7AFE
....................             delay_ms(20); 
07AB8:  MOVLW  14
07ABA:  MOVLB  4
07ABC:  MOVWF  x2A
07ABE:  MOVLB  0
07AC0:  CALL   1814
....................             if(RIGHT && LEFT){ 
07AC4:  BSF    F93.2
07AC6:  BTFSC  F81.2
07AC8:  BRA    7AFC
07ACA:  BSF    F93.3
07ACC:  BTFSC  F81.3
07ACE:  BRA    7AFC
....................                printf("page Clave"); 
07AD0:  MOVLW  CE
07AD2:  MOVWF  FF6
07AD4:  MOVLW  09
07AD6:  MOVWF  FF7
07AD8:  MOVLW  00
07ADA:  MOVWF  FF8
07ADC:  CALL   3580
....................                SendDataDisplay();  
07AE0:  CALL   35B2
....................                Op=OFF; 
07AE4:  BCF    xA2.0
....................                Op2=OFF; 
07AE6:  BCF    xA2.1
....................                MenuAnt=Menu; 
07AE8:  MOVFF  349,34A
....................                TipoClave=1; 
07AEC:  MOVLW  01
07AEE:  MOVLB  2
07AF0:  MOVWF  xD4
....................                RX_Buffer[3]=0x00; 
07AF2:  CLRF   33
....................                RX_Buffer2[3]=0x00; 
07AF4:  CLRF   3E
....................                Opcion=0; 
07AF6:  MOVLB  3
07AF8:  CLRF   x51
07AFA:  MOVLB  0
07AFC:  MOVLB  2
....................             } 
....................          } 
....................    } 
.................... //_--------------------------------------------------------------------------------------------------------------------------------------------------------        
....................  
.................... //_-------------------------------------------------------------------------------------------------------------------------------------------------------- 
....................     if(Menu==2){ //Menu de Tiempo Esterilizacion      
07AFE:  MOVLB  3
07B00:  MOVF   x49,W
07B02:  SUBLW  02
07B04:  BTFSS  FD8.2
07B06:  BRA    7FE2
....................       printf("fecha.txt=\"Fecha:%02u/%02u/20%02u    Hora: %02u:%02u\"",Dia,Mes,Year,Hora,Minuto); 
07B08:  MOVLW  DA
07B0A:  MOVWF  FF6
07B0C:  MOVLW  09
07B0E:  MOVWF  FF7
07B10:  MOVLW  00
07B12:  MOVWF  FF8
07B14:  MOVLW  11
07B16:  MOVLB  4
07B18:  MOVWF  x19
07B1A:  MOVLB  0
07B1C:  CALL   447A
07B20:  MOVFF  381,417
07B24:  MOVLW  01
07B26:  MOVLB  4
07B28:  MOVWF  x18
07B2A:  MOVLB  0
07B2C:  CALL   44D8
07B30:  MOVLW  2F
07B32:  BTFSS  F9E.4
07B34:  BRA    7B32
07B36:  MOVWF  FAD
07B38:  MOVFF  380,417
07B3C:  MOVLW  01
07B3E:  MOVLB  4
07B40:  MOVWF  x18
07B42:  MOVLB  0
07B44:  CALL   44D8
07B48:  MOVLW  2F
07B4A:  BTFSS  F9E.4
07B4C:  BRA    7B4A
07B4E:  MOVWF  FAD
07B50:  MOVLW  32
07B52:  BTFSS  F9E.4
07B54:  BRA    7B52
07B56:  MOVWF  FAD
07B58:  MOVLW  30
07B5A:  BTFSS  F9E.4
07B5C:  BRA    7B5A
07B5E:  MOVWF  FAD
07B60:  MOVFF  37F,417
07B64:  MOVLW  01
07B66:  MOVLB  4
07B68:  MOVWF  x18
07B6A:  MOVLB  0
07B6C:  CALL   44D8
07B70:  MOVLW  FB
07B72:  MOVWF  FF6
07B74:  MOVLW  09
07B76:  MOVWF  FF7
07B78:  MOVLW  00
07B7A:  MOVWF  FF8
07B7C:  MOVLW  0A
07B7E:  MOVLB  4
07B80:  MOVWF  x19
07B82:  MOVLB  0
07B84:  CALL   447A
07B88:  MOVFF  382,417
07B8C:  MOVLW  01
07B8E:  MOVLB  4
07B90:  MOVWF  x18
07B92:  MOVLB  0
07B94:  CALL   44D8
07B98:  MOVLW  3A
07B9A:  BTFSS  F9E.4
07B9C:  BRA    7B9A
07B9E:  MOVWF  FAD
07BA0:  MOVFF  383,417
07BA4:  MOVLW  01
07BA6:  MOVLB  4
07BA8:  MOVWF  x18
07BAA:  MOVLB  0
07BAC:  CALL   44D8
07BB0:  MOVLW  22
07BB2:  BTFSS  F9E.4
07BB4:  BRA    7BB2
07BB6:  MOVWF  FAD
....................       SendDataDisplay(); 
07BB8:  CALL   35B2
....................          if(RX_Buffer[4]==0x0a){//Selecciono Minutos 
07BBC:  MOVF   34,W
07BBE:  SUBLW  0A
07BC0:  BNZ   7BC6
....................             Minutos=ON; 
07BC2:  BSF    xA2.2
....................             Segundos=OFF; 
07BC4:  BCF    xA2.3
....................          } 
....................           
....................          if(RX_Buffer[4]==0x0b){//Selecciono Segundos 
07BC6:  MOVF   34,W
07BC8:  SUBLW  0B
07BCA:  BNZ   7BD0
....................             Segundos=ON; 
07BCC:  BSF    xA2.3
....................             Minutos=OFF; 
07BCE:  BCF    xA2.2
....................          }            
....................           
....................          if(RX_Buffer[4]==0x11 || LEFT){//Selecciono Regresar 
07BD0:  MOVF   34,W
07BD2:  SUBLW  11
07BD4:  BZ    7BDC
07BD6:  BSF    F93.3
07BD8:  BTFSC  F81.3
07BDA:  BRA    7D66
....................             delay_ms(100); 
07BDC:  MOVLW  64
07BDE:  MOVLB  4
07BE0:  MOVWF  x2A
07BE2:  MOVLB  0
07BE4:  CALL   1814
....................             if(RX_Buffer[4]==0x11 || LEFT){ 
07BE8:  MOVF   34,W
07BEA:  SUBLW  11
07BEC:  BZ    7BF4
07BEE:  BSF    F93.3
07BF0:  BTFSC  F81.3
07BF2:  BRA    7D66
....................                Segundos=OFF; 
07BF4:  BCF    xA2.3
....................                Minutos=OFF; 
07BF6:  BCF    xA2.2
....................                printf("page CicloPersona"); 
07BF8:  MOVLW  10
07BFA:  MOVWF  FF6
07BFC:  MOVLW  0A
07BFE:  MOVWF  FF7
07C00:  MOVLW  00
07C02:  MOVWF  FF8
07C04:  CALL   3580
....................                SendDataDisplay();   
07C08:  CALL   35B2
....................                PantallaPrincipal=1; 
07C0C:  MOVLW  01
07C0E:  MOVLB  2
07C10:  MOVWF  xD3
....................                Op=OFF; 
07C12:  MOVLB  0
07C14:  BCF    xA2.0
....................                Op2=OFF; 
07C16:  BCF    xA2.1
....................                if(!GuardaEEPROM){ 
07C18:  BTFSC  xA2.4
07C1A:  BRA    7D66
....................                   CiclosPersonalizados[CicloLibre-1].Minutoest=Testerilizacionp[2]+(Testerilizacionp[3]*10); 
07C1C:  MOVLW  01
07C1E:  MOVLB  3
07C20:  SUBWF  x3D,W
07C22:  MULLW  0A
07C24:  MOVF   FF3,W
07C26:  MOVLB  4
07C28:  CLRF   x16
07C2A:  MOVWF  x15
07C2C:  MOVLW  09
07C2E:  ADDWF  x15,W
07C30:  MOVWF  01
07C32:  MOVLW  00
07C34:  ADDWFC x16,W
07C36:  MOVWF  03
07C38:  MOVF   01,W
07C3A:  ADDLW  B1
07C3C:  MOVWF  FE9
07C3E:  MOVLW  03
07C40:  ADDWFC 03,W
07C42:  MOVWF  FEA
07C44:  MOVFF  BB,417
07C48:  MOVLW  0A
07C4A:  MOVWF  x18
07C4C:  MOVLB  0
07C4E:  CALL   2B10
07C52:  MOVF   01,W
07C54:  ADDWF  xBA,W
07C56:  MOVWF  FEF
....................                   CiclosPersonalizados[CicloLibre-1].Segundoest=Testerilizacionp[0]+(Testerilizacionp[1]*10); 
07C58:  MOVLW  01
07C5A:  MOVLB  3
07C5C:  SUBWF  x3D,W
07C5E:  MULLW  0A
07C60:  MOVF   FF3,W
07C62:  MOVLB  4
07C64:  CLRF   x16
07C66:  MOVWF  x15
07C68:  MOVLW  03
07C6A:  ADDWF  x15,W
07C6C:  MOVWF  01
07C6E:  MOVLW  00
07C70:  ADDWFC x16,W
07C72:  MOVWF  03
07C74:  MOVF   01,W
07C76:  ADDLW  B1
07C78:  MOVWF  FE9
07C7A:  MOVLW  03
07C7C:  ADDWFC 03,W
07C7E:  MOVWF  FEA
07C80:  MOVFF  B9,417
07C84:  MOVLW  0A
07C86:  MOVWF  x18
07C88:  MOVLB  0
07C8A:  CALL   2B10
07C8E:  MOVF   01,W
07C90:  ADDWF  xB8,W
07C92:  MOVWF  FEF
....................                   write_eeprom(102+((CicloLibre-1)*8),Testerilizacionp[2]+(Testerilizacionp[3]*10)); 
07C94:  MOVLW  01
07C96:  MOVLB  3
07C98:  SUBWF  x3D,W
07C9A:  MULLW  08
07C9C:  MOVF   FF3,W
07C9E:  ADDLW  66
07CA0:  MOVLB  4
07CA2:  MOVWF  x15
07CA4:  MOVFF  BB,417
07CA8:  MOVLW  0A
07CAA:  MOVWF  x18
07CAC:  MOVLB  0
07CAE:  CALL   2B10
07CB2:  MOVF   01,W
07CB4:  ADDWF  xBA,W
07CB6:  MOVLB  4
07CB8:  MOVWF  x16
07CBA:  CLRF   FAA
07CBC:  MOVFF  415,FA9
07CC0:  MOVFF  416,FA8
07CC4:  BCF    FA6.6
07CC6:  BCF    FA6.7
07CC8:  BSF    FA6.2
07CCA:  MOVF   FF2,W
07CCC:  MOVWF  00
07CCE:  BCF    FF2.6
07CD0:  BCF    FF2.7
07CD2:  MOVLB  F
07CD4:  MOVLW  55
07CD6:  MOVWF  FA7
07CD8:  MOVLW  AA
07CDA:  MOVWF  FA7
07CDC:  BSF    FA6.1
07CDE:  BTFSC  FA6.1
07CE0:  BRA    7CDE
07CE2:  BCF    FA6.2
07CE4:  MOVF   00,W
07CE6:  IORWF  FF2,F
....................                   delay_ms(10); 
07CE8:  MOVLW  0A
07CEA:  MOVLB  4
07CEC:  MOVWF  x2A
07CEE:  MOVLB  0
07CF0:  CALL   1814
....................                   write_eeprom(103+((CicloLibre-1)*8),Testerilizacionp[0]+(Testerilizacionp[1]*10)); 
07CF4:  MOVLW  01
07CF6:  MOVLB  3
07CF8:  SUBWF  x3D,W
07CFA:  MULLW  08
07CFC:  MOVF   FF3,W
07CFE:  ADDLW  67
07D00:  MOVLB  4
07D02:  MOVWF  x15
07D04:  MOVFF  B9,417
07D08:  MOVLW  0A
07D0A:  MOVWF  x18
07D0C:  MOVLB  0
07D0E:  CALL   2B10
07D12:  MOVF   01,W
07D14:  ADDWF  xB8,W
07D16:  MOVLB  4
07D18:  MOVWF  x16
07D1A:  CLRF   FAA
07D1C:  MOVFF  415,FA9
07D20:  MOVFF  416,FA8
07D24:  BCF    FA6.6
07D26:  BCF    FA6.7
07D28:  BSF    FA6.2
07D2A:  MOVF   FF2,W
07D2C:  MOVWF  00
07D2E:  BCF    FF2.6
07D30:  BCF    FF2.7
07D32:  MOVLB  F
07D34:  MOVLW  55
07D36:  MOVWF  FA7
07D38:  MOVLW  AA
07D3A:  MOVWF  FA7
07D3C:  BSF    FA6.1
07D3E:  BTFSC  FA6.1
07D40:  BRA    7D3E
07D42:  BCF    FA6.2
07D44:  MOVF   00,W
07D46:  IORWF  FF2,F
....................                   delay_ms(10); 
07D48:  MOVLW  0A
07D4A:  MOVLB  4
07D4C:  MOVWF  x2A
07D4E:  MOVLB  0
07D50:  CALL   1814
....................                   Testerilizacion[0]=Testerilizacionp[0]; 
07D54:  MOVFF  B8,B3
....................                   Testerilizacion[1]=Testerilizacionp[1]; 
07D58:  MOVFF  B9,B4
....................                   Testerilizacion[2]=Testerilizacionp[2]; 
07D5C:  MOVFF  BA,B5
....................                   Testerilizacion[3]=Testerilizacionp[3];                   
07D60:  MOVFF  BB,B6
....................                   GuardaEEPROM=ON; 
07D64:  BSF    xA2.4
....................                } 
....................             } 
....................          } 
....................           
....................          if(RIGHT){ 
07D66:  BSF    F93.2
07D68:  BTFSC  F81.2
07D6A:  BRA    7DE0
....................             delay_ms(100); 
07D6C:  MOVLW  64
07D6E:  MOVLB  4
07D70:  MOVWF  x2A
07D72:  MOVLB  0
07D74:  CALL   1814
....................             if(RIGHT){ 
07D78:  BSF    F93.2
07D7A:  BTFSC  F81.2
07D7C:  BRA    7DE0
....................                if(!Segundos){ 
07D7E:  BTFSC  xA2.3
07D80:  BRA    7DB0
....................                   Segundos=ON; 
07D82:  BSF    xA2.3
....................                   Minutos=OFF; 
07D84:  BCF    xA2.2
....................                   printf("tsecest.pco=65535"); 
07D86:  MOVLW  22
07D88:  MOVWF  FF6
07D8A:  MOVLW  0A
07D8C:  MOVWF  FF7
07D8E:  MOVLW  00
07D90:  MOVWF  FF8
07D92:  CALL   3580
....................                   SendDataDisplay();   
07D96:  CALL   35B2
....................                   printf("tminest.pco=0"); 
07D9A:  MOVLW  34
07D9C:  MOVWF  FF6
07D9E:  MOVLW  0A
07DA0:  MOVWF  FF7
07DA2:  MOVLW  00
07DA4:  MOVWF  FF8
07DA6:  CALL   3580
....................                   SendDataDisplay();   
07DAA:  CALL   35B2
....................                }else if(!Minutos){ 
07DAE:  BRA    7DE0
07DB0:  BTFSC  xA2.2
07DB2:  BRA    7DE0
....................                   Segundos=OFF; 
07DB4:  BCF    xA2.3
....................                   Minutos=ON; 
07DB6:  BSF    xA2.2
....................                   printf("tsecest.pco=0"); 
07DB8:  MOVLW  42
07DBA:  MOVWF  FF6
07DBC:  MOVLW  0A
07DBE:  MOVWF  FF7
07DC0:  MOVLW  00
07DC2:  MOVWF  FF8
07DC4:  CALL   3580
....................                   SendDataDisplay();   
07DC8:  CALL   35B2
....................                   printf("tminest.pco=65535"); 
07DCC:  MOVLW  50
07DCE:  MOVWF  FF6
07DD0:  MOVLW  0A
07DD2:  MOVWF  FF7
07DD4:  MOVLW  00
07DD6:  MOVWF  FF8
07DD8:  CALL   3580
....................                   SendDataDisplay();   
07DDC:  CALL   35B2
....................                } 
....................             } 
....................          } 
....................           
....................          if(UP){ 
07DE0:  BSF    F93.0
07DE2:  BTFSC  F81.0
07DE4:  BRA    7E2C
....................             delay_ms(100); 
07DE6:  MOVLW  64
07DE8:  MOVLB  4
07DEA:  MOVWF  x2A
07DEC:  MOVLB  0
07DEE:  CALL   1814
....................             if(UP){ 
07DF2:  BSF    F93.0
07DF4:  BTFSC  F81.0
07DF6:  BRA    7E2C
....................                if(Segundos){ 
07DF8:  BTFSS  xA2.3
07DFA:  BRA    7E0C
....................                   Testerilizacionp[0]++; 
07DFC:  INCF   xB8,F
....................                   if(Testerilizacionp[0]>9){ 
07DFE:  BTFSC  xB8.7
07E00:  BRA    7E0C
07E02:  MOVF   xB8,W
07E04:  SUBLW  09
07E06:  BC    7E0C
....................                      Testerilizacionp[1]++; 
07E08:  INCF   xB9,F
....................                      Testerilizacionp[0]=0; 
07E0A:  CLRF   xB8
....................                   } 
....................                } 
....................                if(Minutos){ 
07E0C:  BTFSS  xA2.2
07E0E:  BRA    7E2C
....................                   Testerilizacionp[2]++; 
07E10:  INCF   xBA,F
....................                   if(Testerilizacionp[2]>9){ 
07E12:  BTFSC  xBA.7
07E14:  BRA    7E20
07E16:  MOVF   xBA,W
07E18:  SUBLW  09
07E1A:  BC    7E20
....................                      Testerilizacionp[3]++; 
07E1C:  INCF   xBB,F
....................                      Testerilizacionp[2]=0; 
07E1E:  CLRF   xBA
....................                   } 
....................                   if(Testerilizacionp[3]>9){                      
07E20:  BTFSC  xBB.7
07E22:  BRA    7E2C
07E24:  MOVF   xBB,W
07E26:  SUBLW  09
07E28:  BC    7E2C
....................                      Testerilizacionp[3]=0; 
07E2A:  CLRF   xBB
....................                   } 
....................                }     
....................             } 
....................          } 
....................           
....................          if(DOWN){ 
07E2C:  BSF    F93.1
07E2E:  BTFSC  F81.1
07E30:  BRA    7E72
....................             delay_ms(100); 
07E32:  MOVLW  64
07E34:  MOVLB  4
07E36:  MOVWF  x2A
07E38:  MOVLB  0
07E3A:  CALL   1814
....................             if(DOWN){ 
07E3E:  BSF    F93.1
07E40:  BTFSC  F81.1
07E42:  BRA    7E72
....................                if(Segundos){ 
07E44:  BTFSS  xA2.3
07E46:  BRA    7E56
....................                   Testerilizacionp[0]--; 
07E48:  DECF   xB8,F
....................                   if(Testerilizacionp[0]<0){ 
07E4A:  BTFSC  xB8.7
07E4C:  BRA    7E50
07E4E:  BRA    7E56
....................                      Testerilizacionp[1]--; 
07E50:  DECF   xB9,F
....................                      Testerilizacionp[0]=9; 
07E52:  MOVLW  09
07E54:  MOVWF  xB8
....................                   } 
....................                } 
....................                if(Minutos){ 
07E56:  BTFSS  xA2.2
07E58:  BRA    7E72
....................                   Testerilizacionp[2]--; 
07E5A:  DECF   xBA,F
....................                   if(Testerilizacionp[2]<0){ 
07E5C:  BTFSC  xBA.7
07E5E:  BRA    7E62
07E60:  BRA    7E68
....................                      Testerilizacionp[3]--; 
07E62:  DECF   xBB,F
....................                      Testerilizacionp[2]=9; 
07E64:  MOVLW  09
07E66:  MOVWF  xBA
....................                   } 
....................                   if(Testerilizacionp[3]<0){ 
07E68:  BTFSC  xBB.7
07E6A:  BRA    7E6E
07E6C:  BRA    7E72
....................                      Testerilizacionp[3]=9; 
07E6E:  MOVLW  09
07E70:  MOVWF  xBB
....................                   } 
....................                }     
....................             } 
....................          } 
....................           
....................          if(RX_Buffer[4]==0x0c || RX_Buffer[4]==0x0d){//Tecla Derecha Oprimida 
07E72:  MOVF   34,W
07E74:  SUBLW  0C
07E76:  BZ    7E7E
07E78:  MOVF   34,W
07E7A:  SUBLW  0D
07E7C:  BNZ   7EB6
....................             if(Segundos){ 
07E7E:  BTFSS  xA2.3
07E80:  BRA    7E92
....................                Testerilizacionp[0]++; 
07E82:  INCF   xB8,F
....................                if(Testerilizacionp[0]>9){ 
07E84:  BTFSC  xB8.7
07E86:  BRA    7E92
07E88:  MOVF   xB8,W
07E8A:  SUBLW  09
07E8C:  BC    7E92
....................                   Testerilizacionp[1]++; 
07E8E:  INCF   xB9,F
....................                   Testerilizacionp[0]=0; 
07E90:  CLRF   xB8
....................                } 
....................             } 
....................             if(Minutos){ 
07E92:  BTFSS  xA2.2
07E94:  BRA    7EB2
....................                Testerilizacionp[2]++; 
07E96:  INCF   xBA,F
....................                if(Testerilizacionp[2]>9){ 
07E98:  BTFSC  xBA.7
07E9A:  BRA    7EA6
07E9C:  MOVF   xBA,W
07E9E:  SUBLW  09
07EA0:  BC    7EA6
....................                   Testerilizacionp[3]++; 
07EA2:  INCF   xBB,F
....................                   Testerilizacionp[2]=0; 
07EA4:  CLRF   xBA
....................                } 
....................                if(Testerilizacionp[3]>9){                   
07EA6:  BTFSC  xBB.7
07EA8:  BRA    7EB2
07EAA:  MOVF   xBB,W
07EAC:  SUBLW  09
07EAE:  BC    7EB2
....................                   Testerilizacionp[3]=0; 
07EB0:  CLRF   xBB
....................                } 
....................             } 
....................             RX_Buffer[4]=0x00;   
07EB2:  CLRF   34
....................             RX_Buffer2[4]=0x00; 
07EB4:  CLRF   3F
....................          } 
....................           
....................          if(RX_Buffer[4]==0x0f || RX_Buffer[4]==0x0e){//Tecla Izquierda Oprimida 
07EB6:  MOVF   34,W
07EB8:  SUBLW  0F
07EBA:  BZ    7EC2
07EBC:  MOVF   34,W
07EBE:  SUBLW  0E
07EC0:  BNZ   7EF4
....................              
....................             if(Segundos){ 
07EC2:  BTFSS  xA2.3
07EC4:  BRA    7ED4
....................                Testerilizacionp[0]--; 
07EC6:  DECF   xB8,F
....................                if(Testerilizacionp[0]<0){ 
07EC8:  BTFSC  xB8.7
07ECA:  BRA    7ECE
07ECC:  BRA    7ED4
....................                   Testerilizacionp[1]--; 
07ECE:  DECF   xB9,F
....................                   Testerilizacionp[0]=9; 
07ED0:  MOVLW  09
07ED2:  MOVWF  xB8
....................                } 
....................             } 
....................             if(Minutos){ 
07ED4:  BTFSS  xA2.2
07ED6:  BRA    7EF0
....................                Testerilizacionp[2]--; 
07ED8:  DECF   xBA,F
....................                if(Testerilizacionp[2]<0){ 
07EDA:  BTFSC  xBA.7
07EDC:  BRA    7EE0
07EDE:  BRA    7EE6
....................                   Testerilizacionp[3]--; 
07EE0:  DECF   xBB,F
....................                   Testerilizacionp[2]=9; 
07EE2:  MOVLW  09
07EE4:  MOVWF  xBA
....................                } 
....................                if(Testerilizacionp[3]<0){ 
07EE6:  BTFSC  xBB.7
07EE8:  BRA    7EEC
07EEA:  BRA    7EF0
....................                   Testerilizacionp[3]=9; 
07EEC:  MOVLW  09
07EEE:  MOVWF  xBB
....................                } 
....................             } 
....................             RX_Buffer[4]=0x00;   
07EF0:  CLRF   34
....................             RX_Buffer2[4]=0x00; 
07EF2:  CLRF   3F
....................          } 
....................           
....................          if(Testerilizacionp[0]<0) 
07EF4:  BTFSC  xB8.7
07EF6:  BRA    7EFA
07EF8:  BRA    7EFE
....................             Testerilizacionp[0]=9;             
07EFA:  MOVLW  09
07EFC:  MOVWF  xB8
....................          if(Testerilizacionp[1]<0) 
07EFE:  BTFSC  xB9.7
07F00:  BRA    7F04
07F02:  BRA    7F08
....................             Testerilizacionp[1]=5;             
07F04:  MOVLW  05
07F06:  MOVWF  xB9
....................          if(Testerilizacionp[2]<0) 
07F08:  BTFSC  xBA.7
07F0A:  BRA    7F0E
07F0C:  BRA    7F12
....................             Testerilizacionp[2]=9;             
07F0E:  MOVLW  09
07F10:  MOVWF  xBA
....................          if(Testerilizacionp[3]<0) 
07F12:  BTFSC  xBB.7
07F14:  BRA    7F18
07F16:  BRA    7F1C
....................             Testerilizacionp[3]=9;             
07F18:  MOVLW  09
07F1A:  MOVWF  xBB
....................           
....................          if(Testerilizacionp[0]>9) 
07F1C:  BTFSC  xB8.7
07F1E:  BRA    7F28
07F20:  MOVF   xB8,W
07F22:  SUBLW  09
07F24:  BC    7F28
....................             Testerilizacionp[0]=0;             
07F26:  CLRF   xB8
....................          if(Testerilizacionp[1]>5) 
07F28:  BTFSC  xB9.7
07F2A:  BRA    7F34
07F2C:  MOVF   xB9,W
07F2E:  SUBLW  05
07F30:  BC    7F34
....................             Testerilizacionp[1]=0;             
07F32:  CLRF   xB9
....................          if(Testerilizacionp[2]>9) 
07F34:  BTFSC  xBA.7
07F36:  BRA    7F40
07F38:  MOVF   xBA,W
07F3A:  SUBLW  09
07F3C:  BC    7F40
....................             Testerilizacionp[2]=0;             
07F3E:  CLRF   xBA
....................          if(Testerilizacionp[3]>9) 
07F40:  BTFSC  xBB.7
07F42:  BRA    7F4C
07F44:  MOVF   xBB,W
07F46:  SUBLW  09
07F48:  BC    7F4C
....................             Testerilizacionp[3]=0;  
07F4A:  CLRF   xBB
....................              
....................          printf("tminest.txt=\"%02u\"",((Testerilizacionp[3]*10)+Testerilizacionp[2])); 
07F4C:  MOVFF  BB,417
07F50:  MOVLW  0A
07F52:  MOVLB  4
07F54:  MOVWF  x18
07F56:  MOVLB  0
07F58:  CALL   2B10
07F5C:  MOVF   xBA,W
07F5E:  ADDWF  01,W
07F60:  MOVLB  4
07F62:  MOVWF  x15
07F64:  MOVLW  62
07F66:  MOVWF  FF6
07F68:  MOVLW  0A
07F6A:  MOVWF  FF7
07F6C:  MOVLW  00
07F6E:  MOVWF  FF8
07F70:  MOVLW  0D
07F72:  MOVWF  x19
07F74:  MOVLB  0
07F76:  CALL   447A
07F7A:  MOVFF  415,417
07F7E:  MOVLW  01
07F80:  MOVLB  4
07F82:  MOVWF  x18
07F84:  MOVLB  0
07F86:  CALL   44D8
07F8A:  MOVLW  22
07F8C:  BTFSS  F9E.4
07F8E:  BRA    7F8C
07F90:  MOVWF  FAD
....................          SendDataDisplay(); 
07F92:  CALL   35B2
....................          printf("tsecest.txt=\"%02u\"",((Testerilizacionp[1]*10)+Testerilizacionp[0])); 
07F96:  MOVFF  B9,417
07F9A:  MOVLW  0A
07F9C:  MOVLB  4
07F9E:  MOVWF  x18
07FA0:  MOVLB  0
07FA2:  CALL   2B10
07FA6:  MOVF   xB8,W
07FA8:  ADDWF  01,W
07FAA:  MOVLB  4
07FAC:  MOVWF  x15
07FAE:  MOVLW  76
07FB0:  MOVWF  FF6
07FB2:  MOVLW  0A
07FB4:  MOVWF  FF7
07FB6:  MOVLW  00
07FB8:  MOVWF  FF8
07FBA:  MOVLW  0D
07FBC:  MOVWF  x19
07FBE:  MOVLB  0
07FC0:  CALL   447A
07FC4:  MOVFF  415,417
07FC8:  MOVLW  01
07FCA:  MOVLB  4
07FCC:  MOVWF  x18
07FCE:  MOVLB  0
07FD0:  CALL   44D8
07FD4:  MOVLW  22
07FD6:  BTFSS  F9E.4
07FD8:  BRA    7FD6
07FDA:  MOVWF  FAD
....................          SendDataDisplay(); 
07FDC:  CALL   35B2
07FE0:  MOVLB  3
....................     } 
.................... //_--------------------------------------------------------------------------------------------------------------------------------------------------------        
....................  
.................... //_-------------------------------------------------------------------------------------------------------------------------------------------------------- 
....................     if(Menu==3){ //Menu de Tiempo de Secado 
07FE2:  MOVF   x49,W
07FE4:  SUBLW  03
07FE6:  BTFSS  FD8.2
07FE8:  BRA    8494
....................       printf("fecha.txt=\"Fecha:%02u/%02u/20%02u    Hora: %02u:%02u\"",Dia,Mes,Year,Hora,Minuto); 
07FEA:  MOVLW  8A
07FEC:  MOVWF  FF6
07FEE:  MOVLW  0A
07FF0:  MOVWF  FF7
07FF2:  MOVLW  00
07FF4:  MOVWF  FF8
07FF6:  MOVLW  11
07FF8:  MOVLB  4
07FFA:  MOVWF  x19
07FFC:  MOVLB  0
07FFE:  CALL   447A
08002:  MOVFF  381,417
08006:  MOVLW  01
08008:  MOVLB  4
0800A:  MOVWF  x18
0800C:  MOVLB  0
0800E:  CALL   44D8
08012:  MOVLW  2F
08014:  BTFSS  F9E.4
08016:  BRA    8014
08018:  MOVWF  FAD
0801A:  MOVFF  380,417
0801E:  MOVLW  01
08020:  MOVLB  4
08022:  MOVWF  x18
08024:  MOVLB  0
08026:  CALL   44D8
0802A:  MOVLW  2F
0802C:  BTFSS  F9E.4
0802E:  BRA    802C
08030:  MOVWF  FAD
08032:  MOVLW  32
08034:  BTFSS  F9E.4
08036:  BRA    8034
08038:  MOVWF  FAD
0803A:  MOVLW  30
0803C:  BTFSS  F9E.4
0803E:  BRA    803C
08040:  MOVWF  FAD
08042:  MOVFF  37F,417
08046:  MOVLW  01
08048:  MOVLB  4
0804A:  MOVWF  x18
0804C:  MOVLB  0
0804E:  CALL   44D8
08052:  MOVLW  AB
08054:  MOVWF  FF6
08056:  MOVLW  0A
08058:  MOVWF  FF7
0805A:  MOVLW  00
0805C:  MOVWF  FF8
0805E:  MOVLW  0A
08060:  MOVLB  4
08062:  MOVWF  x19
08064:  MOVLB  0
08066:  CALL   447A
0806A:  MOVFF  382,417
0806E:  MOVLW  01
08070:  MOVLB  4
08072:  MOVWF  x18
08074:  MOVLB  0
08076:  CALL   44D8
0807A:  MOVLW  3A
0807C:  BTFSS  F9E.4
0807E:  BRA    807C
08080:  MOVWF  FAD
08082:  MOVFF  383,417
08086:  MOVLW  01
08088:  MOVLB  4
0808A:  MOVWF  x18
0808C:  MOVLB  0
0808E:  CALL   44D8
08092:  MOVLW  22
08094:  BTFSS  F9E.4
08096:  BRA    8094
08098:  MOVWF  FAD
....................       SendDataDisplay();             
0809A:  CALL   35B2
....................              
....................          if(RX_Buffer[4]==0x0a){//Selecciono Minutos 
0809E:  MOVF   34,W
080A0:  SUBLW  0A
080A2:  BNZ   80A8
....................             Minutos=ON; 
080A4:  BSF    xA2.2
....................             Segundos=OFF; 
080A6:  BCF    xA2.3
....................          } 
....................           
....................          if(RX_Buffer[4]==0x0b){//Selecciono Segundos 
080A8:  MOVF   34,W
080AA:  SUBLW  0B
080AC:  BNZ   80B2
....................             Segundos=ON; 
080AE:  BSF    xA2.3
....................             Minutos=OFF; 
080B0:  BCF    xA2.2
....................          } 
....................           
....................          if(RX_Buffer[4]==0x11 || LEFT){//Selecciono Regresar 
080B2:  MOVF   34,W
080B4:  SUBLW  11
080B6:  BZ    80BE
080B8:  BSF    F93.3
080BA:  BTFSC  F81.3
080BC:  BRA    8228
....................             Segundos=OFF; 
080BE:  BCF    xA2.3
....................             Minutos=OFF; 
080C0:  BCF    xA2.2
....................             printf("page CicloPersona"); 
080C2:  MOVLW  C0
080C4:  MOVWF  FF6
080C6:  MOVLW  0A
080C8:  MOVWF  FF7
080CA:  MOVLW  00
080CC:  MOVWF  FF8
080CE:  CALL   3580
....................             SendDataDisplay();   
080D2:  CALL   35B2
....................             //PantallaPrincipal=1; 
....................             Op=OFF; 
080D6:  BCF    xA2.0
....................             Op2=OFF; 
080D8:  BCF    xA2.1
....................             if(!GuardaEEPROM){ 
080DA:  BTFSC  xA2.4
080DC:  BRA    8228
....................                CiclosPersonalizados[CicloLibre-1].Minutosec=Tsecadop[2]+(Tsecadop[3]*10); 
080DE:  MOVLW  01
080E0:  MOVLB  3
080E2:  SUBWF  x3D,W
080E4:  MULLW  0A
080E6:  MOVF   FF3,W
080E8:  MOVLB  4
080EA:  CLRF   x16
080EC:  MOVWF  x15
080EE:  MOVLW  04
080F0:  ADDWF  x15,W
080F2:  MOVWF  01
080F4:  MOVLW  00
080F6:  ADDWFC x16,W
080F8:  MOVWF  03
080FA:  MOVF   01,W
080FC:  ADDLW  B1
080FE:  MOVWF  FE9
08100:  MOVLW  03
08102:  ADDWFC 03,W
08104:  MOVWF  FEA
08106:  MOVFF  C4,417
0810A:  MOVLW  0A
0810C:  MOVWF  x18
0810E:  MOVLB  0
08110:  CALL   2B10
08114:  MOVF   01,W
08116:  ADDWF  xC3,W
08118:  MOVWF  FEF
....................                CiclosPersonalizados[CicloLibre-1].Segundosec=Tsecadop[0]+(Tsecadop[1]*10); 
0811A:  MOVLW  01
0811C:  MOVLB  3
0811E:  SUBWF  x3D,W
08120:  MULLW  0A
08122:  MOVF   FF3,W
08124:  MOVLB  4
08126:  CLRF   x16
08128:  MOVWF  x15
0812A:  MOVLW  05
0812C:  ADDWF  x15,W
0812E:  MOVWF  01
08130:  MOVLW  00
08132:  ADDWFC x16,W
08134:  MOVWF  03
08136:  MOVF   01,W
08138:  ADDLW  B1
0813A:  MOVWF  FE9
0813C:  MOVLW  03
0813E:  ADDWFC 03,W
08140:  MOVWF  FEA
08142:  MOVFF  C2,417
08146:  MOVLW  0A
08148:  MOVWF  x18
0814A:  MOVLB  0
0814C:  CALL   2B10
08150:  MOVF   01,W
08152:  ADDWF  xC1,W
08154:  MOVWF  FEF
....................                write_eeprom(104+((CicloLibre-1)*8),Tsecadop[2]+(Tsecadop[3]*10)); 
08156:  MOVLW  01
08158:  MOVLB  3
0815A:  SUBWF  x3D,W
0815C:  MULLW  08
0815E:  MOVF   FF3,W
08160:  ADDLW  68
08162:  MOVLB  4
08164:  MOVWF  x15
08166:  MOVFF  C4,417
0816A:  MOVLW  0A
0816C:  MOVWF  x18
0816E:  MOVLB  0
08170:  CALL   2B10
08174:  MOVF   01,W
08176:  ADDWF  xC3,W
08178:  MOVLB  4
0817A:  MOVWF  x16
0817C:  CLRF   FAA
0817E:  MOVFF  415,FA9
08182:  MOVFF  416,FA8
08186:  BCF    FA6.6
08188:  BCF    FA6.7
0818A:  BSF    FA6.2
0818C:  MOVF   FF2,W
0818E:  MOVWF  00
08190:  BCF    FF2.6
08192:  BCF    FF2.7
08194:  MOVLB  F
08196:  MOVLW  55
08198:  MOVWF  FA7
0819A:  MOVLW  AA
0819C:  MOVWF  FA7
0819E:  BSF    FA6.1
081A0:  BTFSC  FA6.1
081A2:  BRA    81A0
081A4:  BCF    FA6.2
081A6:  MOVF   00,W
081A8:  IORWF  FF2,F
....................                delay_ms(10); 
081AA:  MOVLW  0A
081AC:  MOVLB  4
081AE:  MOVWF  x2A
081B0:  MOVLB  0
081B2:  CALL   1814
....................                write_eeprom(105+((CicloLibre-1)*8),Tsecadop[0]+(Tsecadop[1]*10)); 
081B6:  MOVLW  01
081B8:  MOVLB  3
081BA:  SUBWF  x3D,W
081BC:  MULLW  08
081BE:  MOVF   FF3,W
081C0:  ADDLW  69
081C2:  MOVLB  4
081C4:  MOVWF  x15
081C6:  MOVFF  C2,417
081CA:  MOVLW  0A
081CC:  MOVWF  x18
081CE:  MOVLB  0
081D0:  CALL   2B10
081D4:  MOVF   01,W
081D6:  ADDWF  xC1,W
081D8:  MOVLB  4
081DA:  MOVWF  x16
081DC:  CLRF   FAA
081DE:  MOVFF  415,FA9
081E2:  MOVFF  416,FA8
081E6:  BCF    FA6.6
081E8:  BCF    FA6.7
081EA:  BSF    FA6.2
081EC:  MOVF   FF2,W
081EE:  MOVWF  00
081F0:  BCF    FF2.6
081F2:  BCF    FF2.7
081F4:  MOVLB  F
081F6:  MOVLW  55
081F8:  MOVWF  FA7
081FA:  MOVLW  AA
081FC:  MOVWF  FA7
081FE:  BSF    FA6.1
08200:  BTFSC  FA6.1
08202:  BRA    8200
08204:  BCF    FA6.2
08206:  MOVF   00,W
08208:  IORWF  FF2,F
....................                delay_ms(10); 
0820A:  MOVLW  0A
0820C:  MOVLB  4
0820E:  MOVWF  x2A
08210:  MOVLB  0
08212:  CALL   1814
....................                Tsecado[0]=Tsecadop[0]; 
08216:  MOVFF  C1,BD
....................                Tsecado[1]=Tsecadop[1]; 
0821A:  MOVFF  C2,BE
....................                Tsecado[2]=Tsecadop[2]; 
0821E:  MOVFF  C3,BF
....................                Tsecado[3]=Tsecadop[3]; 
08222:  MOVFF  C4,C0
....................                GuardaEEPROM=ON; 
08226:  BSF    xA2.4
....................             } 
....................          } 
....................           
....................          if(RIGHT){ 
08228:  BSF    F93.2
0822A:  BTFSC  F81.2
0822C:  BRA    82A2
....................             delay_ms(100); 
0822E:  MOVLW  64
08230:  MOVLB  4
08232:  MOVWF  x2A
08234:  MOVLB  0
08236:  CALL   1814
....................             if(RIGHT){ 
0823A:  BSF    F93.2
0823C:  BTFSC  F81.2
0823E:  BRA    82A2
....................                if(!Segundos){ 
08240:  BTFSC  xA2.3
08242:  BRA    8272
....................                   Segundos=ON; 
08244:  BSF    xA2.3
....................                   Minutos=OFF; 
08246:  BCF    xA2.2
....................                   printf("tminsec.pco=0"); 
08248:  MOVLW  D2
0824A:  MOVWF  FF6
0824C:  MOVLW  0A
0824E:  MOVWF  FF7
08250:  MOVLW  00
08252:  MOVWF  FF8
08254:  CALL   3580
....................                   SendDataDisplay();                    
08258:  CALL   35B2
....................                   printf("tsecsec.pco=65535"); 
0825C:  MOVLW  E0
0825E:  MOVWF  FF6
08260:  MOVLW  0A
08262:  MOVWF  FF7
08264:  MOVLW  00
08266:  MOVWF  FF8
08268:  CALL   3580
....................                   SendDataDisplay();   
0826C:  CALL   35B2
....................                }else if(!Minutos){ 
08270:  BRA    82A2
08272:  BTFSC  xA2.2
08274:  BRA    82A2
....................                   Segundos=OFF; 
08276:  BCF    xA2.3
....................                   Minutos=ON; 
08278:  BSF    xA2.2
....................                   printf("tminsec.pco=65535"); 
0827A:  MOVLW  F2
0827C:  MOVWF  FF6
0827E:  MOVLW  0A
08280:  MOVWF  FF7
08282:  MOVLW  00
08284:  MOVWF  FF8
08286:  CALL   3580
....................                   SendDataDisplay();   
0828A:  CALL   35B2
....................                   printf("tsecsec.pco=0"); 
0828E:  MOVLW  04
08290:  MOVWF  FF6
08292:  MOVLW  0B
08294:  MOVWF  FF7
08296:  MOVLW  00
08298:  MOVWF  FF8
0829A:  CALL   3580
....................                   SendDataDisplay();   
0829E:  CALL   35B2
....................                } 
....................             } 
....................          } 
....................           
....................          if(UP){ 
082A2:  BSF    F93.0
082A4:  BTFSC  F81.0
082A6:  BRA    82E2
....................             delay_ms(100); 
082A8:  MOVLW  64
082AA:  MOVLB  4
082AC:  MOVWF  x2A
082AE:  MOVLB  0
082B0:  CALL   1814
....................             if(UP){ 
082B4:  BSF    F93.0
082B6:  BTFSC  F81.0
082B8:  BRA    82E2
....................                if(Segundos){ 
082BA:  BTFSS  xA2.3
082BC:  BRA    82CE
....................                   Tsecadop[0]++; 
082BE:  INCF   xC1,F
....................                   if(Tsecadop[0]>9){ 
082C0:  BTFSC  xC1.7
082C2:  BRA    82CE
082C4:  MOVF   xC1,W
082C6:  SUBLW  09
082C8:  BC    82CE
....................                      Tsecadop[1]++; 
082CA:  INCF   xC2,F
....................                      Tsecadop[0]=0; 
082CC:  CLRF   xC1
....................                   } 
....................                } 
....................                if(Minutos){ 
082CE:  BTFSS  xA2.2
082D0:  BRA    82E2
....................                   Tsecado[2]++; 
082D2:  INCF   xBF,F
....................                   if(Tsecadop[2]>9){ 
082D4:  BTFSC  xC3.7
082D6:  BRA    82E2
082D8:  MOVF   xC3,W
082DA:  SUBLW  09
082DC:  BC    82E2
....................                      Tsecadop[3]++; 
082DE:  INCF   xC4,F
....................                      Tsecadop[2]=0; 
082E0:  CLRF   xC3
....................                   } 
....................                }   
....................             } 
....................          } 
....................           
....................          if(DOWN){ 
082E2:  BSF    F93.1
082E4:  BTFSC  F81.1
082E6:  BRA    832C
....................             delay_ms(100); 
082E8:  MOVLW  64
082EA:  MOVLB  4
082EC:  MOVWF  x2A
082EE:  MOVLB  0
082F0:  CALL   1814
....................             if(DOWN){ 
082F4:  BSF    F93.1
082F6:  BTFSC  F81.1
082F8:  BRA    832C
....................                if(Segundos){ 
082FA:  BTFSS  xA2.3
082FC:  BRA    831A
....................                   Tsecadop[0]--; 
082FE:  DECF   xC1,F
....................                   if(Tsecadop[0]<0){ 
08300:  BTFSC  xC1.7
08302:  BRA    8306
08304:  BRA    830C
....................                      Tsecadop[1]--; 
08306:  DECF   xC2,F
....................                      Tsecadop[0]=9; 
08308:  MOVLW  09
0830A:  MOVWF  xC1
....................                   } 
....................                   if(Tsecadop[1]<0){ 
0830C:  BTFSC  xC2.7
0830E:  BRA    8312
08310:  BRA    831A
....................                      Tsecadop[1]=5; 
08312:  MOVLW  05
08314:  MOVWF  xC2
....................                      Tsecadop[0]=9; 
08316:  MOVLW  09
08318:  MOVWF  xC1
....................                   } 
....................                } 
....................                if(Minutos){ 
0831A:  BTFSS  xA2.2
0831C:  BRA    832C
....................                   Tsecadop[2]--; 
0831E:  DECF   xC3,F
....................                   if(Tsecadop[2]<0){ 
08320:  BTFSC  xC3.7
08322:  BRA    8326
08324:  BRA    832C
....................                      Tsecadop[3]--; 
08326:  DECF   xC4,F
....................                      Tsecadop[2]=9; 
08328:  MOVLW  09
0832A:  MOVWF  xC3
....................                   } 
....................                }   
....................             } 
....................          } 
....................           
....................          if(RX_Buffer[4]==0x0c || RX_Buffer[4]==0x0d){//Tecla Derecha Oprimida 
0832C:  MOVF   34,W
0832E:  SUBLW  0C
08330:  BZ    8338
08332:  MOVF   34,W
08334:  SUBLW  0D
08336:  BNZ   8364
....................             if(Segundos){ 
08338:  BTFSS  xA2.3
0833A:  BRA    834C
....................                Tsecadop[0]++; 
0833C:  INCF   xC1,F
....................                if(Tsecadop[0]>9){ 
0833E:  BTFSC  xC1.7
08340:  BRA    834C
08342:  MOVF   xC1,W
08344:  SUBLW  09
08346:  BC    834C
....................                   Tsecadop[1]++; 
08348:  INCF   xC2,F
....................                   Tsecadop[0]=0; 
0834A:  CLRF   xC1
....................                } 
....................             } 
....................             if(Minutos){ 
0834C:  BTFSS  xA2.2
0834E:  BRA    8360
....................                Tsecadop[2]++; 
08350:  INCF   xC3,F
....................                if(Tsecadop[2]>9){ 
08352:  BTFSC  xC3.7
08354:  BRA    8360
08356:  MOVF   xC3,W
08358:  SUBLW  09
0835A:  BC    8360
....................                   Tsecadop[3]++; 
0835C:  INCF   xC4,F
....................                   Tsecadop[2]=0; 
0835E:  CLRF   xC3
....................                } 
....................             } 
....................             RX_Buffer[4]=0x00;   
08360:  CLRF   34
....................             RX_Buffer2[4]=0x00;  
08362:  CLRF   3F
....................          } 
....................           
....................          if(RX_Buffer[4]==0x0f || RX_Buffer[4]==0x0e){//Tecla Izquierda Oprimida 
08364:  MOVF   34,W
08366:  SUBLW  0F
08368:  BZ    8370
0836A:  MOVF   34,W
0836C:  SUBLW  0E
0836E:  BNZ   83A6
....................             if(Segundos){ 
08370:  BTFSS  xA2.3
08372:  BRA    8390
....................                Tsecadop[0]--; 
08374:  DECF   xC1,F
....................                if(Tsecadop[0]<0){ 
08376:  BTFSC  xC1.7
08378:  BRA    837C
0837A:  BRA    8382
....................                   Tsecadop[1]--; 
0837C:  DECF   xC2,F
....................                   Tsecadop[0]=9; 
0837E:  MOVLW  09
08380:  MOVWF  xC1
....................                } 
....................                if(Tsecadop[1]<0){ 
08382:  BTFSC  xC2.7
08384:  BRA    8388
08386:  BRA    8390
....................                   Tsecadop[1]=5; 
08388:  MOVLW  05
0838A:  MOVWF  xC2
....................                   Tsecadop[0]=9; 
0838C:  MOVLW  09
0838E:  MOVWF  xC1
....................                } 
....................             } 
....................             if(Minutos){ 
08390:  BTFSS  xA2.2
08392:  BRA    83A2
....................                Tsecadop[2]--; 
08394:  DECF   xC3,F
....................                if(Tsecadop[2]<0){ 
08396:  BTFSC  xC3.7
08398:  BRA    839C
0839A:  BRA    83A2
....................                   Tsecadop[3]--; 
0839C:  DECF   xC4,F
....................                   Tsecadop[2]=9; 
0839E:  MOVLW  09
083A0:  MOVWF  xC3
....................                } 
....................             } 
....................             RX_Buffer[4]=0x00;   
083A2:  CLRF   34
....................             RX_Buffer2[4]=0x00;             
083A4:  CLRF   3F
....................          } 
....................        
....................          if(Tsecadop[0]<0) 
083A6:  BTFSC  xC1.7
083A8:  BRA    83AC
083AA:  BRA    83B0
....................             Tsecadop[0]=9;             
083AC:  MOVLW  09
083AE:  MOVWF  xC1
....................          if(Tsecadop[1]<0) 
083B0:  BTFSC  xC2.7
083B2:  BRA    83B6
083B4:  BRA    83BA
....................             Tsecadop[1]=5;             
083B6:  MOVLW  05
083B8:  MOVWF  xC2
....................          if(Tsecadop[2]<0) 
083BA:  BTFSC  xC3.7
083BC:  BRA    83C0
083BE:  BRA    83C4
....................             Tsecadop[2]=9;             
083C0:  MOVLW  09
083C2:  MOVWF  xC3
....................          if(Tsecadop[3]<0) 
083C4:  BTFSC  xC4.7
083C6:  BRA    83CA
083C8:  BRA    83CE
....................             Tsecadop[3]=9;             
083CA:  MOVLW  09
083CC:  MOVWF  xC4
....................           
....................          if(Tsecadop[0]>9) 
083CE:  BTFSC  xC1.7
083D0:  BRA    83DA
083D2:  MOVF   xC1,W
083D4:  SUBLW  09
083D6:  BC    83DA
....................             Tsecadop[0]=0;             
083D8:  CLRF   xC1
....................          if(Tsecadop[1]>5) 
083DA:  BTFSC  xC2.7
083DC:  BRA    83E6
083DE:  MOVF   xC2,W
083E0:  SUBLW  05
083E2:  BC    83E6
....................             Tsecadop[1]=0;             
083E4:  CLRF   xC2
....................          if(Tsecadop[2]>9) 
083E6:  BTFSC  xC3.7
083E8:  BRA    83F2
083EA:  MOVF   xC3,W
083EC:  SUBLW  09
083EE:  BC    83F2
....................             Tsecadop[2]=0;             
083F0:  CLRF   xC3
....................          if(Tsecadop[3]>9) 
083F2:  BTFSC  xC4.7
083F4:  BRA    83FE
083F6:  MOVF   xC4,W
083F8:  SUBLW  09
083FA:  BC    83FE
....................             Tsecadop[3]=0; 
083FC:  CLRF   xC4
....................              
....................       printf("tminsec.txt=\"%02u\"",((Tsecadop[3]*10)+Tsecadop[2])); 
083FE:  MOVFF  C4,417
08402:  MOVLW  0A
08404:  MOVLB  4
08406:  MOVWF  x18
08408:  MOVLB  0
0840A:  CALL   2B10
0840E:  MOVF   xC3,W
08410:  ADDWF  01,W
08412:  MOVLB  4
08414:  MOVWF  x15
08416:  MOVLW  12
08418:  MOVWF  FF6
0841A:  MOVLW  0B
0841C:  MOVWF  FF7
0841E:  MOVLW  00
08420:  MOVWF  FF8
08422:  MOVLW  0D
08424:  MOVWF  x19
08426:  MOVLB  0
08428:  CALL   447A
0842C:  MOVFF  415,417
08430:  MOVLW  01
08432:  MOVLB  4
08434:  MOVWF  x18
08436:  MOVLB  0
08438:  CALL   44D8
0843C:  MOVLW  22
0843E:  BTFSS  F9E.4
08440:  BRA    843E
08442:  MOVWF  FAD
....................       SendDataDisplay(); 
08444:  CALL   35B2
....................       printf("tsecsec.txt=\"%02u\"",((Tsecadop[1]*10)+Tsecadop[0])); 
08448:  MOVFF  C2,417
0844C:  MOVLW  0A
0844E:  MOVLB  4
08450:  MOVWF  x18
08452:  MOVLB  0
08454:  CALL   2B10
08458:  MOVF   xC1,W
0845A:  ADDWF  01,W
0845C:  MOVLB  4
0845E:  MOVWF  x15
08460:  MOVLW  26
08462:  MOVWF  FF6
08464:  MOVLW  0B
08466:  MOVWF  FF7
08468:  MOVLW  00
0846A:  MOVWF  FF8
0846C:  MOVLW  0D
0846E:  MOVWF  x19
08470:  MOVLB  0
08472:  CALL   447A
08476:  MOVFF  415,417
0847A:  MOVLW  01
0847C:  MOVLB  4
0847E:  MOVWF  x18
08480:  MOVLB  0
08482:  CALL   44D8
08486:  MOVLW  22
08488:  BTFSS  F9E.4
0848A:  BRA    8488
0848C:  MOVWF  FAD
....................       SendDataDisplay(); 
0848E:  CALL   35B2
08492:  MOVLB  3
....................     } 
.................... //_--------------------------------------------------------------------------------------------------------------------------------------------------------        
....................  
.................... //_-------------------------------------------------------------------------------------------------------------------------------------------------------- 
....................     if(Menu==4){ //Menu de Temperatura 
08494:  MOVF   x49,W
08496:  SUBLW  04
08498:  BTFSS  FD8.2
0849A:  BRA    869C
....................       printf("fecha.txt=\"Fecha:%02u/%02u/20%02u    Hora: %02u:%02u\"",Dia,Mes,Year,Hora,Minuto); 
0849C:  MOVLW  3A
0849E:  MOVWF  FF6
084A0:  MOVLW  0B
084A2:  MOVWF  FF7
084A4:  MOVLW  00
084A6:  MOVWF  FF8
084A8:  MOVLW  11
084AA:  MOVLB  4
084AC:  MOVWF  x19
084AE:  MOVLB  0
084B0:  CALL   447A
084B4:  MOVFF  381,417
084B8:  MOVLW  01
084BA:  MOVLB  4
084BC:  MOVWF  x18
084BE:  MOVLB  0
084C0:  CALL   44D8
084C4:  MOVLW  2F
084C6:  BTFSS  F9E.4
084C8:  BRA    84C6
084CA:  MOVWF  FAD
084CC:  MOVFF  380,417
084D0:  MOVLW  01
084D2:  MOVLB  4
084D4:  MOVWF  x18
084D6:  MOVLB  0
084D8:  CALL   44D8
084DC:  MOVLW  2F
084DE:  BTFSS  F9E.4
084E0:  BRA    84DE
084E2:  MOVWF  FAD
084E4:  MOVLW  32
084E6:  BTFSS  F9E.4
084E8:  BRA    84E6
084EA:  MOVWF  FAD
084EC:  MOVLW  30
084EE:  BTFSS  F9E.4
084F0:  BRA    84EE
084F2:  MOVWF  FAD
084F4:  MOVFF  37F,417
084F8:  MOVLW  01
084FA:  MOVLB  4
084FC:  MOVWF  x18
084FE:  MOVLB  0
08500:  CALL   44D8
08504:  MOVLW  5B
08506:  MOVWF  FF6
08508:  MOVLW  0B
0850A:  MOVWF  FF7
0850C:  MOVLW  00
0850E:  MOVWF  FF8
08510:  MOVLW  0A
08512:  MOVLB  4
08514:  MOVWF  x19
08516:  MOVLB  0
08518:  CALL   447A
0851C:  MOVFF  382,417
08520:  MOVLW  01
08522:  MOVLB  4
08524:  MOVWF  x18
08526:  MOVLB  0
08528:  CALL   44D8
0852C:  MOVLW  3A
0852E:  BTFSS  F9E.4
08530:  BRA    852E
08532:  MOVWF  FAD
08534:  MOVFF  383,417
08538:  MOVLW  01
0853A:  MOVLB  4
0853C:  MOVWF  x18
0853E:  MOVLB  0
08540:  CALL   44D8
08544:  MOVLW  22
08546:  BTFSS  F9E.4
08548:  BRA    8546
0854A:  MOVWF  FAD
....................       SendDataDisplay(); 
0854C:  CALL   35B2
....................          if(Setpoint<105) 
08550:  MOVLB  3
08552:  MOVF   x50,W
08554:  SUBLW  68
08556:  BNC   855C
....................             Setpoint=134; 
08558:  MOVLW  86
0855A:  MOVWF  x50
....................          if(Setpoint>134) 
0855C:  MOVF   x50,W
0855E:  SUBLW  86
08560:  BC    8566
....................             Setpoint=105; 
08562:  MOVLW  69
08564:  MOVWF  x50
....................           
....................          if(RX_Buffer[4]==0x11 || LEFT){//Selecciono Regresar 
08566:  MOVF   34,W
08568:  SUBLW  11
0856A:  BZ    8572
0856C:  BSF    F93.3
0856E:  BTFSC  F81.3
08570:  BRA    860A
....................             Segundos=OFF; 
08572:  MOVLB  0
08574:  BCF    xA2.3
....................             Minutos=OFF; 
08576:  BCF    xA2.2
....................             printf("page CicloPersona"); 
08578:  MOVLW  70
0857A:  MOVWF  FF6
0857C:  MOVLW  0B
0857E:  MOVWF  FF7
08580:  MOVLW  00
08582:  MOVWF  FF8
08584:  CALL   3580
....................             SendDataDisplay();   
08588:  CALL   35B2
....................             PantallaPrincipal=1; 
0858C:  MOVLW  01
0858E:  MOVLB  2
08590:  MOVWF  xD3
....................             Op=OFF; 
08592:  MOVLB  0
08594:  BCF    xA2.0
....................             Op2=OFF; 
08596:  BCF    xA2.1
....................             if(!GuardaEEPROM){ 
08598:  BTFSC  xA2.4
0859A:  BRA    8608
....................                CiclosPersonalizados[CicloLibre-1].Temperatura=Setpoint; 
0859C:  MOVLW  01
0859E:  MOVLB  3
085A0:  SUBWF  x3D,W
085A2:  MULLW  0A
085A4:  MOVF   FF3,W
085A6:  MOVLB  4
085A8:  CLRF   x16
085AA:  MOVWF  x15
085AC:  MOVLW  B1
085AE:  ADDWF  x15,W
085B0:  MOVWF  FE9
085B2:  MOVLW  03
085B4:  ADDWFC x16,W
085B6:  MOVWF  FEA
085B8:  MOVFF  350,FEF
....................                write_eeprom(100+((CicloLibre-1)*8),Setpoint); 
085BC:  MOVLW  01
085BE:  MOVLB  3
085C0:  SUBWF  x3D,W
085C2:  MULLW  08
085C4:  MOVF   FF3,W
085C6:  ADDLW  64
085C8:  MOVLB  4
085CA:  MOVWF  x15
085CC:  CLRF   FAA
085CE:  MOVFF  415,FA9
085D2:  MOVFF  350,FA8
085D6:  BCF    FA6.6
085D8:  BCF    FA6.7
085DA:  BSF    FA6.2
085DC:  MOVF   FF2,W
085DE:  MOVWF  00
085E0:  BCF    FF2.6
085E2:  BCF    FF2.7
085E4:  MOVLB  F
085E6:  MOVLW  55
085E8:  MOVWF  FA7
085EA:  MOVLW  AA
085EC:  MOVWF  FA7
085EE:  BSF    FA6.1
085F0:  BTFSC  FA6.1
085F2:  BRA    85F0
085F4:  BCF    FA6.2
085F6:  MOVF   00,W
085F8:  IORWF  FF2,F
....................                delay_ms(10); 
085FA:  MOVLW  0A
085FC:  MOVLB  4
085FE:  MOVWF  x2A
08600:  MOVLB  0
08602:  CALL   1814
....................                GuardaEEPROM=ON; 
08606:  BSF    xA2.4
08608:  MOVLB  3
....................             } 
....................          } 
....................           
....................          if(UP){ 
0860A:  BSF    F93.0
0860C:  BTFSC  F81.0
0860E:  BRA    8626
....................             delay_ms(100); 
08610:  MOVLW  64
08612:  MOVLB  4
08614:  MOVWF  x2A
08616:  MOVLB  0
08618:  CALL   1814
....................             if(UP){ 
0861C:  BSF    F93.0
0861E:  BTFSC  F81.0
08620:  BRA    8628
....................                Setpoint++; 
08622:  MOVLB  3
08624:  INCF   x50,F
08626:  MOVLB  0
....................             } 
....................          } 
....................           
....................          if(DOWN){ 
08628:  BSF    F93.1
0862A:  BTFSC  F81.1
0862C:  BRA    8646
....................             delay_ms(100); 
0862E:  MOVLW  64
08630:  MOVLB  4
08632:  MOVWF  x2A
08634:  MOVLB  0
08636:  CALL   1814
....................             if(DOWN){ 
0863A:  BSF    F93.1
0863C:  BTFSC  F81.1
0863E:  BRA    8646
....................                Setpoint--; 
08640:  MOVLB  3
08642:  DECF   x50,F
08644:  MOVLB  0
....................             } 
....................          } 
....................           
....................          if(RX_Buffer[4]==0x0d){//Tecla Arriba Oprimida 
08646:  MOVF   34,W
08648:  SUBLW  0D
0864A:  BNZ   8656
....................             Setpoint++; 
0864C:  MOVLB  3
0864E:  INCF   x50,F
....................             RX_Buffer[4]=0x00;   
08650:  CLRF   34
....................             RX_Buffer2[4]=0x00;             
08652:  CLRF   3F
08654:  MOVLB  0
....................             //BorraBuffer(); 
....................          } 
....................           
....................          if(RX_Buffer[4]==0x0c){//Tecla Abajo Oprimida 
08656:  MOVF   34,W
08658:  SUBLW  0C
0865A:  BNZ   8666
....................             Setpoint--; 
0865C:  MOVLB  3
0865E:  DECF   x50,F
....................             RX_Buffer[4]=0x00; 
08660:  CLRF   34
....................             RX_Buffer2[4]=0x00;             
08662:  CLRF   3F
08664:  MOVLB  0
....................             //BorraBuffer(); 
....................          } 
....................           
....................       printf("tsettem.txt=\"%03u\"",Setpoint); 
08666:  MOVLW  82
08668:  MOVWF  FF6
0866A:  MOVLW  0B
0866C:  MOVWF  FF7
0866E:  MOVLW  00
08670:  MOVWF  FF8
08672:  MOVLW  0D
08674:  MOVLB  4
08676:  MOVWF  x19
08678:  MOVLB  0
0867A:  CALL   447A
0867E:  MOVFF  350,417
08682:  MOVLW  03
08684:  MOVLB  4
08686:  MOVWF  x18
08688:  MOVLB  0
0868A:  CALL   44D8
0868E:  MOVLW  22
08690:  BTFSS  F9E.4
08692:  BRA    8690
08694:  MOVWF  FAD
....................       SendDataDisplay(); 
08696:  CALL   35B2
0869A:  MOVLB  3
....................     } 
.................... //_--------------------------------------------------------------------------------------------------------------------------------------------------------        
....................  
.................... //_--------------------------------------------------------------------------------------------------------------------------------------------------------       
....................    if(Menu==5){//Menu de Nivel 
0869C:  MOVF   x49,W
0869E:  SUBLW  05
086A0:  BTFSS  FD8.2
086A2:  BRA    8926
....................       printf("fecha.txt=\"Fecha:%02u/%02u/20%02u    Hora: %02u:%02u\"",Dia,Mes,Year,Hora,Minuto); 
086A4:  MOVLW  96
086A6:  MOVWF  FF6
086A8:  MOVLW  0B
086AA:  MOVWF  FF7
086AC:  MOVLW  00
086AE:  MOVWF  FF8
086B0:  MOVLW  11
086B2:  MOVLB  4
086B4:  MOVWF  x19
086B6:  MOVLB  0
086B8:  CALL   447A
086BC:  MOVFF  381,417
086C0:  MOVLW  01
086C2:  MOVLB  4
086C4:  MOVWF  x18
086C6:  MOVLB  0
086C8:  CALL   44D8
086CC:  MOVLW  2F
086CE:  BTFSS  F9E.4
086D0:  BRA    86CE
086D2:  MOVWF  FAD
086D4:  MOVFF  380,417
086D8:  MOVLW  01
086DA:  MOVLB  4
086DC:  MOVWF  x18
086DE:  MOVLB  0
086E0:  CALL   44D8
086E4:  MOVLW  2F
086E6:  BTFSS  F9E.4
086E8:  BRA    86E6
086EA:  MOVWF  FAD
086EC:  MOVLW  32
086EE:  BTFSS  F9E.4
086F0:  BRA    86EE
086F2:  MOVWF  FAD
086F4:  MOVLW  30
086F6:  BTFSS  F9E.4
086F8:  BRA    86F6
086FA:  MOVWF  FAD
086FC:  MOVFF  37F,417
08700:  MOVLW  01
08702:  MOVLB  4
08704:  MOVWF  x18
08706:  MOVLB  0
08708:  CALL   44D8
0870C:  MOVLW  B7
0870E:  MOVWF  FF6
08710:  MOVLW  0B
08712:  MOVWF  FF7
08714:  MOVLW  00
08716:  MOVWF  FF8
08718:  MOVLW  0A
0871A:  MOVLB  4
0871C:  MOVWF  x19
0871E:  MOVLB  0
08720:  CALL   447A
08724:  MOVFF  382,417
08728:  MOVLW  01
0872A:  MOVLB  4
0872C:  MOVWF  x18
0872E:  MOVLB  0
08730:  CALL   44D8
08734:  MOVLW  3A
08736:  BTFSS  F9E.4
08738:  BRA    8736
0873A:  MOVWF  FAD
0873C:  MOVFF  383,417
08740:  MOVLW  01
08742:  MOVLB  4
08744:  MOVWF  x18
08746:  MOVLB  0
08748:  CALL   44D8
0874C:  MOVLW  22
0874E:  BTFSS  F9E.4
08750:  BRA    874E
08752:  MOVWF  FAD
....................       SendDataDisplay(); 
08754:  CALL   35B2
....................          if(Nivel<1) 
08758:  MOVLB  3
0875A:  MOVF   x5E,F
0875C:  BNZ   8768
0875E:  MOVF   x5F,F
08760:  BNZ   8768
....................             Nivel=6; 
08762:  CLRF   x5F
08764:  MOVLW  06
08766:  MOVWF  x5E
....................          if(Nivel>6) 
08768:  MOVF   x5F,F
0876A:  BNZ   8772
0876C:  MOVF   x5E,W
0876E:  SUBLW  06
08770:  BC    8778
....................             Nivel=1; 
08772:  CLRF   x5F
08774:  MOVLW  01
08776:  MOVWF  x5E
....................           
....................          if(RX_Buffer[4]==0x11 || LEFT){//Selecciono Regresar 
08778:  MOVF   34,W
0877A:  SUBLW  11
0877C:  BZ    8784
0877E:  BSF    F93.3
08780:  BTFSC  F81.3
08782:  BRA    8880
....................             Segundos=OFF; 
08784:  MOVLB  0
08786:  BCF    xA2.3
....................             Minutos=OFF;             
08788:  BCF    xA2.2
....................             tiempo_secado=0; 
0878A:  MOVLB  3
0878C:  CLRF   x54
....................              
....................             if(!GuardaEEPROM){     
0878E:  MOVLB  0
08790:  BTFSC  xA2.4
08792:  BRA    882C
....................                CiclosPersonalizados[CicloLibre-1].NivelDesfogue=Nivel; 
08794:  MOVLW  01
08796:  MOVLB  3
08798:  SUBWF  x3D,W
0879A:  MULLW  0A
0879C:  MOVF   FF3,W
0879E:  MOVLB  4
087A0:  CLRF   x16
087A2:  MOVWF  x15
087A4:  MOVLW  08
087A6:  ADDWF  x15,W
087A8:  MOVWF  01
087AA:  MOVLW  00
087AC:  ADDWFC x16,W
087AE:  MOVWF  03
087B0:  MOVF   01,W
087B2:  ADDLW  B1
087B4:  MOVWF  FE9
087B6:  MOVLW  03
087B8:  ADDWFC 03,W
087BA:  MOVWF  FEA
087BC:  MOVFF  35E,FEF
....................                write_eeprom(107+((CicloLibre-1)*8),Nivel); 
087C0:  MOVLW  01
087C2:  MOVLB  3
087C4:  SUBWF  x3D,W
087C6:  MULLW  08
087C8:  MOVF   FF3,W
087CA:  ADDLW  6B
087CC:  MOVLB  4
087CE:  MOVWF  x15
087D0:  CLRF   FAA
087D2:  MOVFF  415,FA9
087D6:  MOVFF  35E,FA8
087DA:  BCF    FA6.6
087DC:  BCF    FA6.7
087DE:  BSF    FA6.2
087E0:  MOVF   FF2,W
087E2:  MOVWF  00
087E4:  BCF    FF2.6
087E6:  BCF    FF2.7
087E8:  MOVLB  F
087EA:  MOVLW  55
087EC:  MOVWF  FA7
087EE:  MOVLW  AA
087F0:  MOVWF  FA7
087F2:  BSF    FA6.1
087F4:  BTFSC  FA6.1
087F6:  BRA    87F4
087F8:  BCF    FA6.2
087FA:  MOVF   00,W
087FC:  IORWF  FF2,F
....................                delay_ms(20);             
087FE:  MOVLW  14
08800:  MOVLB  4
08802:  MOVWF  x2A
08804:  MOVLB  0
08806:  CALL   1814
....................                NivelSeleccionado=4995*Nivel; 
0880A:  MOVLW  13
0880C:  MOVLB  4
0880E:  MOVWF  x1A
08810:  MOVLW  83
08812:  MOVWF  x19
08814:  MOVFF  35F,41C
08818:  MOVFF  35E,41B
0881C:  MOVLB  0
0881E:  CALL   365E
08822:  MOVFF  02,369
08826:  MOVFF  01,368
....................                GuardaEEPROM=ON; 
0882A:  BSF    xA2.4
....................             } 
....................              
....................             if(Nivel<6) 
0882C:  MOVLB  3
0882E:  MOVF   x5F,F
08830:  BNZ   883E
08832:  MOVF   x5E,W
08834:  SUBLW  05
08836:  BNC   883E
....................                desfoguelento=1; 
08838:  MOVLB  0
0883A:  BSF    xA4.2
....................             else             
0883C:  BRA    8842
....................                desfoguelento=0; 
0883E:  MOVLB  0
08840:  BCF    xA4.2
....................  
....................             if(MenuAnt==1){ 
08842:  MOVLB  3
08844:  DECFSZ x4A,W
08846:  BRA    8862
....................                //Buzzer_on; 
....................                printf("page CicloPersona"); 
08848:  MOVLW  CC
0884A:  MOVWF  FF6
0884C:  MOVLW  0B
0884E:  MOVWF  FF7
08850:  MOVLW  00
08852:  MOVWF  FF8
08854:  MOVLB  0
08856:  CALL   3580
....................                SendDataDisplay();  
0885A:  CALL   35B2
....................                //PantallaPrincipal=1; 
....................             }else if(MenuAnt==2){ 
0885E:  BRA    887E
08860:  MOVLB  3
08862:  MOVF   x4A,W
08864:  SUBLW  02
08866:  BNZ   8880
....................                printf("page Funcionamiento"); 
08868:  MOVLW  DE
0886A:  MOVWF  FF6
0886C:  MOVLW  0B
0886E:  MOVWF  FF7
08870:  MOVLW  00
08872:  MOVWF  FF8
08874:  MOVLB  0
08876:  CALL   3580
....................                SendDataDisplay();  
0887A:  CALL   35B2
0887E:  MOVLB  3
....................                //if(Temperatura>60)TTrampa=TTrampa+5; 
....................             } 
....................          } 
....................           
....................          if(UP){ 
08880:  BSF    F93.0
08882:  BTFSC  F81.0
08884:  BRA    88A0
....................             delay_ms(100); 
08886:  MOVLW  64
08888:  MOVLB  4
0888A:  MOVWF  x2A
0888C:  MOVLB  0
0888E:  CALL   1814
....................             if(UP){ 
08892:  BSF    F93.0
08894:  BTFSC  F81.0
08896:  BRA    88A2
....................                Nivel++; 
08898:  MOVLB  3
0889A:  INCF   x5E,F
0889C:  BTFSC  FD8.2
0889E:  INCF   x5F,F
088A0:  MOVLB  0
....................             } 
....................          } 
....................           
....................          if(DOWN){ 
088A2:  BSF    F93.1
088A4:  BTFSC  F81.1
088A6:  BRA    88C6
....................             delay_ms(100); 
088A8:  MOVLW  64
088AA:  MOVLB  4
088AC:  MOVWF  x2A
088AE:  MOVLB  0
088B0:  CALL   1814
....................             if(DOWN){ 
088B4:  BSF    F93.1
088B6:  BTFSC  F81.1
088B8:  BRA    88C6
....................                Nivel--; 
088BA:  MOVLB  3
088BC:  MOVF   x5E,W
088BE:  BTFSC  FD8.2
088C0:  DECF   x5F,F
088C2:  DECF   x5E,F
088C4:  MOVLB  0
....................             } 
....................          } 
....................           
....................          if(RX_Buffer[4]==0x0d){//Tecla Arriba Oprimida 
088C6:  MOVF   34,W
088C8:  SUBLW  0D
088CA:  BNZ   88DA
....................             Nivel++; 
088CC:  MOVLB  3
088CE:  INCF   x5E,F
088D0:  BTFSC  FD8.2
088D2:  INCF   x5F,F
....................             RX_Buffer[4]=0x00;             
088D4:  CLRF   34
....................             RX_Buffer2[4]=0x00;             
088D6:  CLRF   3F
088D8:  MOVLB  0
....................             //BorraBuffer(); 
....................          } 
....................           
....................          if(RX_Buffer[4]==0x0c){//Tecla Abajo Oprimida 
088DA:  MOVF   34,W
088DC:  SUBLW  0C
088DE:  BNZ   88F0
....................             Nivel--; 
088E0:  MOVLB  3
088E2:  MOVF   x5E,W
088E4:  BTFSC  FD8.2
088E6:  DECF   x5F,F
088E8:  DECF   x5E,F
....................             RX_Buffer[4]=0x00; 
088EA:  CLRF   34
....................             RX_Buffer2[4]=0x00;             
088EC:  CLRF   3F
088EE:  MOVLB  0
....................             //BorraBuffer(); 
....................          } 
....................           
....................       printf("tnivel.txt=\"%Lu\"",Nivel); 
088F0:  MOVLW  F2
088F2:  MOVWF  FF6
088F4:  MOVLW  0B
088F6:  MOVWF  FF7
088F8:  MOVLW  00
088FA:  MOVWF  FF8
088FC:  MOVLW  0C
088FE:  MOVLB  4
08900:  MOVWF  x19
08902:  MOVLB  0
08904:  CALL   447A
08908:  MOVLW  10
0890A:  MOVWF  FE9
0890C:  MOVFF  35F,41A
08910:  MOVFF  35E,419
08914:  CALL   45D6
08918:  MOVLW  22
0891A:  BTFSS  F9E.4
0891C:  BRA    891A
0891E:  MOVWF  FAD
....................       SendDataDisplay(); 
08920:  CALL   35B2
08924:  MOVLB  3
....................    } 
.................... //_--------------------------------------------------------------------------------------------------------------------------------------------------------       
....................  
.................... //_--------------------------------------------------------------------------------------------------------------------------------------------------------       
....................       if(Menu==6){ // Menu de Prueba de Componentes 
08926:  MOVF   x49,W
08928:  SUBLW  06
0892A:  BTFSS  FD8.2
0892C:  BRA    9078
....................          PruebaEstados=ON; 
0892E:  MOVLB  0
08930:  BSF    xA1.2
....................           
....................          if(RX_Buffer[4]==0x02)//Oprimio EV Desfogue 
08932:  MOVF   34,W
08934:  SUBLW  02
08936:  BNZ   893E
....................          { 
....................             EstadoDesfogue=!EstadoDesfogue; 
08938:  BTG    xA0.7
....................             RX_Buffer[4]=0x00; 
0893A:  CLRF   34
....................             RX_Buffer2[4]=0x00; 
0893C:  CLRF   3F
....................          } 
....................           
....................          if(EstadoDesfogue){ 
0893E:  BTFSS  xA0.7
08940:  BRA    895C
....................             printf("b1.bco=2016"); 
08942:  MOVLW  04
08944:  MOVWF  FF6
08946:  MOVLW  0C
08948:  MOVWF  FF7
0894A:  MOVLW  00
0894C:  MOVWF  FF8
0894E:  CALL   3580
....................             SendDataDisplay();  
08952:  CALL   35B2
....................             Desfogue_on; 
08956:  BSF    F8C.4
08958:  BCF    F95.4
....................          } 
....................          else{ 
0895A:  BRA    8974
....................             printf("b1.bco=63488"); 
0895C:  MOVLW  10
0895E:  MOVWF  FF6
08960:  MOVLW  0C
08962:  MOVWF  FF7
08964:  MOVLW  00
08966:  MOVWF  FF8
08968:  CALL   3580
....................             SendDataDisplay();  
0896C:  CALL   35B2
....................             Desfogue_off; 
08970:  BCF    F8C.4
08972:  BCF    F95.4
....................          } 
....................           
....................          if(RX_Buffer[4]==0x01)//Oprimio EV Agua 
08974:  DECFSZ 34,W
08976:  BRA    897E
....................          { 
....................             EstadoAgua=!EstadoAgua; 
08978:  BTG    xA1.0
....................             RX_Buffer[4]=0x00; 
0897A:  CLRF   34
....................             RX_Buffer2[4]=0x00; 
0897C:  CLRF   3F
....................          } 
....................           
....................          if(EstadoAgua){ 
0897E:  BTFSS  xA1.0
08980:  BRA    899C
....................             printf("b0.bco=2016"); 
08982:  MOVLW  1E
08984:  MOVWF  FF6
08986:  MOVLW  0C
08988:  MOVWF  FF7
0898A:  MOVLW  00
0898C:  MOVWF  FF8
0898E:  CALL   3580
....................             SendDataDisplay();  
08992:  CALL   35B2
....................             Agua_on; 
08996:  BSF    F8C.5
08998:  BCF    F95.5
....................          } 
....................          else{ 
0899A:  BRA    89B4
....................             printf("b0.bco=63488"); 
0899C:  MOVLW  2A
0899E:  MOVWF  FF6
089A0:  MOVLW  0C
089A2:  MOVWF  FF7
089A4:  MOVLW  00
089A6:  MOVWF  FF8
089A8:  CALL   3580
....................             SendDataDisplay();  
089AC:  CALL   35B2
....................             Agua_off; 
089B0:  BCF    F8C.5
089B2:  BCF    F95.5
....................          } 
....................           
....................          if(RX_Buffer[4]==0x03)//Oprimio EV Paso 
089B4:  MOVF   34,W
089B6:  SUBLW  03
089B8:  BNZ   89C0
....................          { 
....................             EstadoPaso=!EstadoPaso; 
089BA:  BTG    xA2.5
....................             RX_Buffer[4]=0x00; 
089BC:  CLRF   34
....................             RX_Buffer2[4]=0x00; 
089BE:  CLRF   3F
....................          } 
....................           
....................          if(EstadoPaso){ 
089C0:  BTFSS  xA2.5
089C2:  BRA    89DE
....................             printf("b2.bco=2016"); 
089C4:  MOVLW  38
089C6:  MOVWF  FF6
089C8:  MOVLW  0C
089CA:  MOVWF  FF7
089CC:  MOVLW  00
089CE:  MOVWF  FF8
089D0:  CALL   3580
....................             SendDataDisplay();  
089D4:  CALL   35B2
....................             Bomba_on; 
089D8:  BSF    F8C.6
089DA:  BCF    F95.6
....................          } 
....................          else{ 
089DC:  BRA    89F6
....................             printf("b2.bco=63488"); 
089DE:  MOVLW  44
089E0:  MOVWF  FF6
089E2:  MOVLW  0C
089E4:  MOVWF  FF7
089E6:  MOVLW  00
089E8:  MOVWF  FF8
089EA:  CALL   3580
....................             SendDataDisplay();  
089EE:  CALL   35B2
....................             Bomba_off; 
089F2:  BCF    F8C.6
089F4:  BCF    F95.6
....................          } 
....................          
....................           
....................          if(RX_Buffer[4]==0x05)//Oprimio Bloqueo 
089F6:  MOVF   34,W
089F8:  SUBLW  05
089FA:  BNZ   8A02
....................          { 
....................             EstadoAire=!EstadoAire; 
089FC:  BTG    xA1.6
....................             RX_Buffer[4]=0x00; 
089FE:  CLRF   34
....................             RX_Buffer2[4]=0x00; 
08A00:  CLRF   3F
....................          } 
....................           
....................          if(EstadoAire){ 
08A02:  BTFSS  xA1.6
08A04:  BRA    8A1E
....................             printf("b4.bco=2016"); 
08A06:  MOVLW  52
08A08:  MOVWF  FF6
08A0A:  MOVLW  0C
08A0C:  MOVWF  FF7
08A0E:  MOVLW  00
08A10:  MOVWF  FF8
08A12:  CALL   3580
....................             SendDataDisplay();  
08A16:  CALL   35B2
....................             Aire=ON;    
08A1A:  BSF    xA3.7
....................          }else{ 
08A1C:  BRA    8A34
....................             printf("b4.bco=63488"); 
08A1E:  MOVLW  5E
08A20:  MOVWF  FF6
08A22:  MOVLW  0C
08A24:  MOVWF  FF7
08A26:  MOVLW  00
08A28:  MOVWF  FF8
08A2A:  CALL   3580
....................             SendDataDisplay();  
08A2E:  CALL   35B2
....................             Aire=OFF; 
08A32:  BCF    xA3.7
....................          } 
....................           
....................           
....................          if(RX_Buffer[4]==0x04)//Oprimio SSR1 
08A34:  MOVF   34,W
08A36:  SUBLW  04
08A38:  BNZ   8A40
....................          { 
....................             EstadoSSR=!EstadoSSR; 
08A3A:  BTG    xA1.1
....................             RX_Buffer[4]=0x00; 
08A3C:  CLRF   34
....................             RX_Buffer2[4]=0x00; 
08A3E:  CLRF   3F
....................          } 
....................           
....................          if(EstadoSSR){ 
08A40:  BTFSS  xA1.1
08A42:  BRA    8A5E
....................             printf("b3.bco=2016"); 
08A44:  MOVLW  6C
08A46:  MOVWF  FF6
08A48:  MOVLW  0C
08A4A:  MOVWF  FF7
08A4C:  MOVLW  00
08A4E:  MOVWF  FF8
08A50:  CALL   3580
....................             SendDataDisplay();  
08A54:  CALL   35B2
....................             SSR_on; 
08A58:  BCF    F8B.2
08A5A:  BCF    F94.2
....................          } 
....................          else{ 
08A5C:  BRA    8A76
....................             printf("b3.bco=63488"); 
08A5E:  MOVLW  78
08A60:  MOVWF  FF6
08A62:  MOVLW  0C
08A64:  MOVWF  FF7
08A66:  MOVLW  00
08A68:  MOVWF  FF8
08A6A:  CALL   3580
....................             SendDataDisplay();  
08A6E:  CALL   35B2
....................             SSR_off; 
08A72:  BSF    F8B.2
08A74:  BCF    F94.2
....................          } 
....................           
....................          if(DOOR){ 
08A76:  BSF    F93.6
08A78:  BTFSC  F81.6
08A7A:  BRA    8A92
....................             printf("b8.bco=2016"); 
08A7C:  MOVLW  86
08A7E:  MOVWF  FF6
08A80:  MOVLW  0C
08A82:  MOVWF  FF7
08A84:  MOVLW  00
08A86:  MOVWF  FF8
08A88:  CALL   3580
....................             SendDataDisplay();  
08A8C:  CALL   35B2
....................          }else{ 
08A90:  BRA    8AA6
....................             printf("b8.bco=63488"); 
08A92:  MOVLW  92
08A94:  MOVWF  FF6
08A96:  MOVLW  0C
08A98:  MOVWF  FF7
08A9A:  MOVLW  00
08A9C:  MOVWF  FF8
08A9E:  CALL   3580
....................             SendDataDisplay();  
08AA2:  CALL   35B2
....................          } 
....................           
....................          if(TERM){ 
08AA6:  BSF    F93.5
08AA8:  BTFSC  F81.5
08AAA:  BRA    8AC2
....................             printf("b9.bco=2016"); 
08AAC:  MOVLW  A0
08AAE:  MOVWF  FF6
08AB0:  MOVLW  0C
08AB2:  MOVWF  FF7
08AB4:  MOVLW  00
08AB6:  MOVWF  FF8
08AB8:  CALL   3580
....................             SendDataDisplay();  
08ABC:  CALL   35B2
....................          }else{ 
08AC0:  BRA    8AD6
....................             printf("b9.bco=63488"); 
08AC2:  MOVLW  AC
08AC4:  MOVWF  FF6
08AC6:  MOVLW  0C
08AC8:  MOVWF  FF7
08ACA:  MOVLW  00
08ACC:  MOVWF  FF8
08ACE:  CALL   3580
....................             SendDataDisplay();  
08AD2:  CALL   35B2
....................          } 
....................           
....................          if(STOP){ 
08AD6:  BSF    F93.7
08AD8:  BTFSC  F81.7
08ADA:  BRA    8AF2
....................             printf("b10.bco=2016"); 
08ADC:  MOVLW  BA
08ADE:  MOVWF  FF6
08AE0:  MOVLW  0C
08AE2:  MOVWF  FF7
08AE4:  MOVLW  00
08AE6:  MOVWF  FF8
08AE8:  CALL   3580
....................             SendDataDisplay();  
08AEC:  CALL   35B2
....................          }else{ 
08AF0:  BRA    8B06
....................             printf("b10.bco=63488"); 
08AF2:  MOVLW  C8
08AF4:  MOVWF  FF6
08AF6:  MOVLW  0C
08AF8:  MOVWF  FF7
08AFA:  MOVLW  00
08AFC:  MOVWF  FF8
08AFE:  CALL   3580
....................             SendDataDisplay();  
08B02:  CALL   35B2
....................          } 
....................           
....................          /*if(PRES){ 
....................             printf("b11.bco=2016"); 
....................             SendDataDisplay();  
....................          }else{ 
....................             printf("b11.bco=63488"); 
....................             SendDataDisplay();  
....................          }*/ 
....................           
....................          if(RX_Buffer[4]==0x13)//Oprimio Buzzer 
08B06:  MOVF   34,W
08B08:  SUBLW  13
08B0A:  BNZ   8B12
....................          { 
....................             EstadoBuzzer=!EstadoBuzzer; 
08B0C:  BTG    xA2.6
....................             RX_Buffer[4]=0x00; 
08B0E:  CLRF   34
....................             RX_Buffer2[4]=0x00; 
08B10:  CLRF   3F
....................          } 
....................           
....................          if(EstadoBuzzer){ 
08B12:  BTFSS  xA2.6
08B14:  BRA    8B30
....................             printf("b12.bco=2016"); 
08B16:  MOVLW  D6
08B18:  MOVWF  FF6
08B1A:  MOVLW  0C
08B1C:  MOVWF  FF7
08B1E:  MOVLW  00
08B20:  MOVWF  FF8
08B22:  CALL   3580
....................             SendDataDisplay();  
08B26:  CALL   35B2
....................             Buzzer_on; 
08B2A:  BSF    F8C.0
08B2C:  BCF    F95.0
....................          } 
....................          else{ 
08B2E:  BRA    8B48
....................             printf("b12.bco=63488"); 
08B30:  MOVLW  E4
08B32:  MOVWF  FF6
08B34:  MOVLW  0C
08B36:  MOVWF  FF7
08B38:  MOVLW  00
08B3A:  MOVWF  FF8
08B3C:  CALL   3580
....................             SendDataDisplay();  
08B40:  CALL   35B2
....................             Buzzer_off; 
08B44:  BCF    F8C.0
08B46:  BCF    F95.0
....................          } 
....................           
....................          if(HIG){ 
08B48:  BSF    F94.0
08B4A:  BTFSS  F82.0
08B4C:  BRA    8B64
....................             printf("b16.bco=2016"); 
08B4E:  MOVLW  F2
08B50:  MOVWF  FF6
08B52:  MOVLW  0C
08B54:  MOVWF  FF7
08B56:  MOVLW  00
08B58:  MOVWF  FF8
08B5A:  CALL   3580
....................             SendDataDisplay();  
08B5E:  CALL   35B2
....................          }else{ 
08B62:  BRA    8B78
....................             printf("b16.bco=63488"); 
08B64:  MOVLW  00
08B66:  MOVWF  FF6
08B68:  MOVLW  0D
08B6A:  MOVWF  FF7
08B6C:  MOVLW  00
08B6E:  MOVWF  FF8
08B70:  CALL   3580
....................             SendDataDisplay();  
08B74:  CALL   35B2
....................          } 
....................           
....................          if(LOW){ 
08B78:  BSF    F94.1
08B7A:  BTFSS  F82.1
08B7C:  BRA    8B94
....................             printf("b17.bco=2016"); 
08B7E:  MOVLW  0E
08B80:  MOVWF  FF6
08B82:  MOVLW  0D
08B84:  MOVWF  FF7
08B86:  MOVLW  00
08B88:  MOVWF  FF8
08B8A:  CALL   3580
....................             SendDataDisplay();  
08B8E:  CALL   35B2
....................          }else{ 
08B92:  BRA    8BA8
....................             printf("b17.bco=63488"); 
08B94:  MOVLW  1C
08B96:  MOVWF  FF6
08B98:  MOVLW  0D
08B9A:  MOVWF  FF7
08B9C:  MOVLW  00
08B9E:  MOVWF  FF8
08BA0:  CALL   3580
....................             SendDataDisplay();  
08BA4:  CALL   35B2
....................          } 
....................           
....................          printf("b13.txt=\"ADC0:%3.0f\"",sensores(0));          
08BA8:  MOVLB  4
08BAA:  CLRF   x16
08BAC:  MOVLB  0
08BAE:  CALL   3606
08BB2:  MOVFF  00,415
08BB6:  MOVFF  01,416
08BBA:  MOVFF  02,417
08BBE:  MOVFF  03,418
08BC2:  MOVLW  2A
08BC4:  MOVWF  FF6
08BC6:  MOVLW  0D
08BC8:  MOVWF  FF7
08BCA:  MOVLW  00
08BCC:  MOVWF  FF8
08BCE:  MOVLW  0E
08BD0:  MOVLB  4
08BD2:  MOVWF  x19
08BD4:  MOVLB  0
08BD6:  CALL   447A
08BDA:  MOVLW  02
08BDC:  MOVWF  FE9
08BDE:  MOVFF  418,41C
08BE2:  MOVFF  417,41B
08BE6:  MOVFF  416,41A
08BEA:  MOVFF  415,419
08BEE:  MOVLB  4
08BF0:  CLRF   x1D
08BF2:  MOVLB  0
08BF4:  CALL   4744
08BF8:  MOVLW  22
08BFA:  BTFSS  F9E.4
08BFC:  BRA    8BFA
08BFE:  MOVWF  FAD
....................          SendDataDisplay(); 
08C00:  CALL   35B2
....................          printf("b14.txt=\"ADC1:%3.0f\"",sensores(1));          
08C04:  MOVLW  01
08C06:  MOVLB  4
08C08:  MOVWF  x16
08C0A:  MOVLB  0
08C0C:  CALL   3606
08C10:  MOVFF  00,415
08C14:  MOVFF  01,416
08C18:  MOVFF  02,417
08C1C:  MOVFF  03,418
08C20:  MOVLW  40
08C22:  MOVWF  FF6
08C24:  MOVLW  0D
08C26:  MOVWF  FF7
08C28:  MOVLW  00
08C2A:  MOVWF  FF8
08C2C:  MOVLW  0E
08C2E:  MOVLB  4
08C30:  MOVWF  x19
08C32:  MOVLB  0
08C34:  CALL   447A
08C38:  MOVLW  02
08C3A:  MOVWF  FE9
08C3C:  MOVFF  418,41C
08C40:  MOVFF  417,41B
08C44:  MOVFF  416,41A
08C48:  MOVFF  415,419
08C4C:  MOVLB  4
08C4E:  CLRF   x1D
08C50:  MOVLB  0
08C52:  CALL   4744
08C56:  MOVLW  22
08C58:  BTFSS  F9E.4
08C5A:  BRA    8C58
08C5C:  MOVWF  FAD
....................          SendDataDisplay(); 
08C5E:  CALL   35B2
....................          printf("b15.txt=\"A2:%3.0f %03Lu\"",sensores(2),PresionCamara); 
08C62:  MOVLW  02
08C64:  MOVLB  4
08C66:  MOVWF  x16
08C68:  MOVLB  0
08C6A:  CALL   3606
08C6E:  MOVFF  00,415
08C72:  MOVFF  01,416
08C76:  MOVFF  02,417
08C7A:  MOVFF  03,418
08C7E:  MOVLW  56
08C80:  MOVWF  FF6
08C82:  MOVLW  0D
08C84:  MOVWF  FF7
08C86:  MOVLW  00
08C88:  MOVWF  FF8
08C8A:  MOVLW  0C
08C8C:  MOVLB  4
08C8E:  MOVWF  x19
08C90:  MOVLB  0
08C92:  CALL   447A
08C96:  MOVLW  02
08C98:  MOVWF  FE9
08C9A:  MOVFF  418,41C
08C9E:  MOVFF  417,41B
08CA2:  MOVFF  416,41A
08CA6:  MOVFF  415,419
08CAA:  MOVLB  4
08CAC:  CLRF   x1D
08CAE:  MOVLB  0
08CB0:  CALL   4744
08CB4:  MOVLW  20
08CB6:  BTFSS  F9E.4
08CB8:  BRA    8CB6
08CBA:  MOVWF  FAD
08CBC:  MOVLW  0A
08CBE:  MOVWF  FE9
08CC0:  MOVFF  363,41A
08CC4:  MOVFF  362,419
08CC8:  CALL   45D6
08CCC:  MOVLW  22
08CCE:  BTFSS  F9E.4
08CD0:  BRA    8CCE
08CD2:  MOVWF  FAD
....................          SendDataDisplay(); 
08CD4:  CALL   35B2
....................          printf("b18.txt=\"A3:%3.0f %03Lu\"",sensores(3),PresionPreCamara); 
08CD8:  MOVLW  03
08CDA:  MOVLB  4
08CDC:  MOVWF  x16
08CDE:  MOVLB  0
08CE0:  CALL   3606
08CE4:  MOVFF  00,415
08CE8:  MOVFF  01,416
08CEC:  MOVFF  02,417
08CF0:  MOVFF  03,418
08CF4:  MOVLW  70
08CF6:  MOVWF  FF6
08CF8:  MOVLW  0D
08CFA:  MOVWF  FF7
08CFC:  MOVLW  00
08CFE:  MOVWF  FF8
08D00:  MOVLW  0C
08D02:  MOVLB  4
08D04:  MOVWF  x19
08D06:  MOVLB  0
08D08:  CALL   447A
08D0C:  MOVLW  02
08D0E:  MOVWF  FE9
08D10:  MOVFF  418,41C
08D14:  MOVFF  417,41B
08D18:  MOVFF  416,41A
08D1C:  MOVFF  415,419
08D20:  MOVLB  4
08D22:  CLRF   x1D
08D24:  MOVLB  0
08D26:  CALL   4744
08D2A:  MOVLW  20
08D2C:  BTFSS  F9E.4
08D2E:  BRA    8D2C
08D30:  MOVWF  FAD
08D32:  MOVLW  0A
08D34:  MOVWF  FE9
08D36:  MOVFF  365,41A
08D3A:  MOVFF  364,419
08D3E:  CALL   45D6
08D42:  MOVLW  22
08D44:  BTFSS  F9E.4
08D46:  BRA    8D44
08D48:  MOVWF  FAD
....................          SendDataDisplay(); 
08D4A:  CALL   35B2
....................          printf("b20.txt=\"T1:%3.1f\"",Temperatura); 
08D4E:  MOVLW  8A
08D50:  MOVWF  FF6
08D52:  MOVLW  0D
08D54:  MOVWF  FF7
08D56:  MOVLW  00
08D58:  MOVWF  FF8
08D5A:  MOVLW  0C
08D5C:  MOVLB  4
08D5E:  MOVWF  x19
08D60:  MOVLB  0
08D62:  CALL   447A
08D66:  MOVLW  02
08D68:  MOVWF  FE9
08D6A:  MOVFF  31A,41C
08D6E:  MOVFF  319,41B
08D72:  MOVFF  318,41A
08D76:  MOVFF  317,419
08D7A:  MOVLW  01
08D7C:  MOVLB  4
08D7E:  MOVWF  x1D
08D80:  MOVLB  0
08D82:  CALL   4744
08D86:  MOVLW  22
08D88:  BTFSS  F9E.4
08D8A:  BRA    8D88
08D8C:  MOVWF  FAD
....................          SendDataDisplay(); 
08D8E:  CALL   35B2
....................           
....................          if(RX_Buffer[4]==0x21 || LEFT){//Oprimio salir 
08D92:  MOVF   34,W
08D94:  SUBLW  21
08D96:  BZ    8D9E
08D98:  BSF    F93.3
08D9A:  BTFSC  F81.3
08D9C:  BRA    8DE6
....................             delay_ms(100); 
08D9E:  MOVLW  64
08DA0:  MOVLB  4
08DA2:  MOVWF  x2A
08DA4:  MOVLB  0
08DA6:  CALL   1814
....................             if(RX_Buffer[4]==0x21 || LEFT){ 
08DAA:  MOVF   34,W
08DAC:  SUBLW  21
08DAE:  BZ    8DB6
08DB0:  BSF    F93.3
08DB2:  BTFSC  F81.3
08DB4:  BRA    8DE6
....................                printf("page MenuPrincipal"); 
08DB6:  MOVLW  9E
08DB8:  MOVWF  FF6
08DBA:  MOVLW  0D
08DBC:  MOVWF  FF7
08DBE:  MOVLW  00
08DC0:  MOVWF  FF8
08DC2:  CALL   3580
....................                SendDataDisplay(); 
08DC6:  CALL   35B2
....................                PantallaPrincipal=0; 
08DCA:  MOVLB  2
08DCC:  CLRF   xD3
....................                PruebaEstados=OFF;Desfogue_off;Agua_off;Bomba_off;SSR_off; 
08DCE:  MOVLB  0
08DD0:  BCF    xA1.2
08DD2:  BCF    F8C.4
08DD4:  BCF    F95.4
08DD6:  BCF    F8C.5
08DD8:  BCF    F95.5
08DDA:  BCF    F8C.6
08DDC:  BCF    F95.6
08DDE:  BSF    F8B.2
08DE0:  BCF    F94.2
....................                ApagaSalidas(); 
08DE2:  CALL   35E8
....................                // Falta apagar Todo 
....................             } 
....................          } 
....................           
....................          if(UP){ 
08DE6:  BSF    F93.0
08DE8:  BTFSC  F81.0
08DEA:  BRA    8F2E
....................             delay_ms(100); 
08DEC:  MOVLW  64
08DEE:  MOVLB  4
08DF0:  MOVWF  x2A
08DF2:  MOVLB  0
08DF4:  CALL   1814
....................             if(UP){ 
08DF8:  BSF    F93.0
08DFA:  BTFSC  F81.0
08DFC:  BRA    8F2E
....................                G1=41-sensores(2); 
08DFE:  MOVLW  02
08E00:  MOVLB  4
08E02:  MOVWF  x16
08E04:  MOVLB  0
08E06:  CALL   3606
08E0A:  MOVFF  FEA,416
08E0E:  MOVFF  FE9,415
08E12:  BSF    FD8.1
08E14:  MOVLB  4
08E16:  CLRF   x2D
08E18:  CLRF   x2C
08E1A:  MOVLW  24
08E1C:  MOVWF  x2B
08E1E:  MOVLW  84
08E20:  MOVWF  x2A
08E22:  MOVFF  03,431
08E26:  MOVFF  02,430
08E2A:  MOVFF  01,42F
08E2E:  MOVFF  00,42E
08E32:  MOVLB  0
08E34:  CALL   19D0
08E38:  MOVFF  416,FEA
08E3C:  MOVFF  415,FE9
08E40:  MOVFF  03,42D
08E44:  MOVFF  02,42C
08E48:  MOVFF  01,42B
08E4C:  MOVFF  00,42A
08E50:  CALL   3CAC
08E54:  MOVFF  01,38F
....................                if(G1<0) 
08E58:  MOVLB  3
08E5A:  BTFSC  x8F.7
08E5C:  BRA    8E60
08E5E:  BRA    8E66
....................                   sg1=10; 
08E60:  MOVLW  0A
08E62:  MOVWF  x91
....................                else 
08E64:  BRA    8E6A
....................                   sg1=5; 
08E66:  MOVLW  05
08E68:  MOVWF  x91
....................                    
....................                write_eeprom(42,(int8)G1); 
08E6A:  CLRF   FAA
08E6C:  MOVLW  2A
08E6E:  MOVWF  FA9
08E70:  MOVFF  38F,FA8
08E74:  BCF    FA6.6
08E76:  BCF    FA6.7
08E78:  BSF    FA6.2
08E7A:  MOVF   FF2,W
08E7C:  MOVWF  00
08E7E:  BCF    FF2.6
08E80:  BCF    FF2.7
08E82:  MOVLB  F
08E84:  MOVLW  55
08E86:  MOVWF  FA7
08E88:  MOVLW  AA
08E8A:  MOVWF  FA7
08E8C:  BSF    FA6.1
08E8E:  BTFSC  FA6.1
08E90:  BRA    8E8E
08E92:  BCF    FA6.2
08E94:  MOVF   00,W
08E96:  IORWF  FF2,F
....................                delay_ms(10); 
08E98:  MOVLW  0A
08E9A:  MOVLB  4
08E9C:  MOVWF  x2A
08E9E:  MOVLB  0
08EA0:  CALL   1814
....................                write_eeprom(44,(int8)sg1); 
08EA4:  CLRF   FAA
08EA6:  MOVLW  2C
08EA8:  MOVWF  FA9
08EAA:  MOVFF  391,FA8
08EAE:  BCF    FA6.6
08EB0:  BCF    FA6.7
08EB2:  BSF    FA6.2
08EB4:  MOVF   FF2,W
08EB6:  MOVWF  00
08EB8:  BCF    FF2.6
08EBA:  BCF    FF2.7
08EBC:  MOVLB  F
08EBE:  MOVLW  55
08EC0:  MOVWF  FA7
08EC2:  MOVLW  AA
08EC4:  MOVWF  FA7
08EC6:  BSF    FA6.1
08EC8:  BTFSC  FA6.1
08ECA:  BRA    8EC8
08ECC:  BCF    FA6.2
08ECE:  MOVF   00,W
08ED0:  IORWF  FF2,F
....................                delay_ms(10); 
08ED2:  MOVLW  0A
08ED4:  MOVLB  4
08ED6:  MOVWF  x2A
08ED8:  MOVLB  0
08EDA:  CALL   1814
....................                Buzzer_on; 
08EDE:  BSF    F8C.0
08EE0:  BCF    F95.0
....................                delay_ms(1000); 
08EE2:  MOVLW  04
08EE4:  MOVLB  4
08EE6:  MOVWF  x15
08EE8:  MOVLW  FA
08EEA:  MOVWF  x2A
08EEC:  MOVLB  0
08EEE:  CALL   1814
08EF2:  MOVLB  4
08EF4:  DECFSZ x15,F
08EF6:  BRA    8EE8
....................                Buzzer_off; 
08EF8:  BCF    F8C.0
08EFA:  BCF    F95.0
....................                delay_ms(1000); 
08EFC:  MOVLW  04
08EFE:  MOVWF  x15
08F00:  MOVLW  FA
08F02:  MOVWF  x2A
08F04:  MOVLB  0
08F06:  CALL   1814
08F0A:  MOVLB  4
08F0C:  DECFSZ x15,F
08F0E:  BRA    8F00
....................                Buzzer_on; 
08F10:  BSF    F8C.0
08F12:  BCF    F95.0
....................                delay_ms(1000); 
08F14:  MOVLW  04
08F16:  MOVWF  x15
08F18:  MOVLW  FA
08F1A:  MOVWF  x2A
08F1C:  MOVLB  0
08F1E:  CALL   1814
08F22:  MOVLB  4
08F24:  DECFSZ x15,F
08F26:  BRA    8F18
....................                Buzzer_off; 
08F28:  BCF    F8C.0
08F2A:  BCF    F95.0
08F2C:  MOVLB  0
....................             } 
....................          } 
....................           
....................          if(DOWN){ 
08F2E:  BSF    F93.1
08F30:  BTFSC  F81.1
08F32:  BRA    9076
....................             delay_ms(100); 
08F34:  MOVLW  64
08F36:  MOVLB  4
08F38:  MOVWF  x2A
08F3A:  MOVLB  0
08F3C:  CALL   1814
....................             if(DOWN){ 
08F40:  BSF    F93.1
08F42:  BTFSC  F81.1
08F44:  BRA    9076
....................                G2=41-sensores(3); 
08F46:  MOVLW  03
08F48:  MOVLB  4
08F4A:  MOVWF  x16
08F4C:  MOVLB  0
08F4E:  CALL   3606
08F52:  MOVFF  FEA,416
08F56:  MOVFF  FE9,415
08F5A:  BSF    FD8.1
08F5C:  MOVLB  4
08F5E:  CLRF   x2D
08F60:  CLRF   x2C
08F62:  MOVLW  24
08F64:  MOVWF  x2B
08F66:  MOVLW  84
08F68:  MOVWF  x2A
08F6A:  MOVFF  03,431
08F6E:  MOVFF  02,430
08F72:  MOVFF  01,42F
08F76:  MOVFF  00,42E
08F7A:  MOVLB  0
08F7C:  CALL   19D0
08F80:  MOVFF  416,FEA
08F84:  MOVFF  415,FE9
08F88:  MOVFF  03,42D
08F8C:  MOVFF  02,42C
08F90:  MOVFF  01,42B
08F94:  MOVFF  00,42A
08F98:  CALL   3CAC
08F9C:  MOVFF  01,390
....................                if(G2<0) 
08FA0:  MOVLB  3
08FA2:  BTFSC  x90.7
08FA4:  BRA    8FA8
08FA6:  BRA    8FAE
....................                   sg2=10; 
08FA8:  MOVLW  0A
08FAA:  MOVWF  x92
....................                else 
08FAC:  BRA    8FB2
....................                   sg2=5; 
08FAE:  MOVLW  05
08FB0:  MOVWF  x92
....................                    
....................                write_eeprom(43,(int8)G2); 
08FB2:  CLRF   FAA
08FB4:  MOVLW  2B
08FB6:  MOVWF  FA9
08FB8:  MOVFF  390,FA8
08FBC:  BCF    FA6.6
08FBE:  BCF    FA6.7
08FC0:  BSF    FA6.2
08FC2:  MOVF   FF2,W
08FC4:  MOVWF  00
08FC6:  BCF    FF2.6
08FC8:  BCF    FF2.7
08FCA:  MOVLB  F
08FCC:  MOVLW  55
08FCE:  MOVWF  FA7
08FD0:  MOVLW  AA
08FD2:  MOVWF  FA7
08FD4:  BSF    FA6.1
08FD6:  BTFSC  FA6.1
08FD8:  BRA    8FD6
08FDA:  BCF    FA6.2
08FDC:  MOVF   00,W
08FDE:  IORWF  FF2,F
....................                delay_ms(10); 
08FE0:  MOVLW  0A
08FE2:  MOVLB  4
08FE4:  MOVWF  x2A
08FE6:  MOVLB  0
08FE8:  CALL   1814
....................                write_eeprom(45,(int8)sg2); 
08FEC:  CLRF   FAA
08FEE:  MOVLW  2D
08FF0:  MOVWF  FA9
08FF2:  MOVFF  392,FA8
08FF6:  BCF    FA6.6
08FF8:  BCF    FA6.7
08FFA:  BSF    FA6.2
08FFC:  MOVF   FF2,W
08FFE:  MOVWF  00
09000:  BCF    FF2.6
09002:  BCF    FF2.7
09004:  MOVLB  F
09006:  MOVLW  55
09008:  MOVWF  FA7
0900A:  MOVLW  AA
0900C:  MOVWF  FA7
0900E:  BSF    FA6.1
09010:  BTFSC  FA6.1
09012:  BRA    9010
09014:  BCF    FA6.2
09016:  MOVF   00,W
09018:  IORWF  FF2,F
....................                delay_ms(10); 
0901A:  MOVLW  0A
0901C:  MOVLB  4
0901E:  MOVWF  x2A
09020:  MOVLB  0
09022:  CALL   1814
....................                Buzzer_on; 
09026:  BSF    F8C.0
09028:  BCF    F95.0
....................                delay_ms(1000); 
0902A:  MOVLW  04
0902C:  MOVLB  4
0902E:  MOVWF  x15
09030:  MOVLW  FA
09032:  MOVWF  x2A
09034:  MOVLB  0
09036:  CALL   1814
0903A:  MOVLB  4
0903C:  DECFSZ x15,F
0903E:  BRA    9030
....................                Buzzer_off; 
09040:  BCF    F8C.0
09042:  BCF    F95.0
....................                delay_ms(1000); 
09044:  MOVLW  04
09046:  MOVWF  x15
09048:  MOVLW  FA
0904A:  MOVWF  x2A
0904C:  MOVLB  0
0904E:  CALL   1814
09052:  MOVLB  4
09054:  DECFSZ x15,F
09056:  BRA    9048
....................                Buzzer_on; 
09058:  BSF    F8C.0
0905A:  BCF    F95.0
....................                delay_ms(1000); 
0905C:  MOVLW  04
0905E:  MOVWF  x15
09060:  MOVLW  FA
09062:  MOVWF  x2A
09064:  MOVLB  0
09066:  CALL   1814
0906A:  MOVLB  4
0906C:  DECFSZ x15,F
0906E:  BRA    9060
....................                Buzzer_off; 
09070:  BCF    F8C.0
09072:  BCF    F95.0
09074:  MOVLB  0
09076:  MOVLB  3
....................             } 
....................          } 
....................      } 
.................... //_--------------------------------------------------------------------------------------------------------------------------------------------------------     
....................  
.................... //_--------------------------------------------------------------------------------------------------------------------------------------------------------       
....................       if(Menu==7){ //Menu de Configuracin de Fecha y Hora 
09078:  MOVF   x49,W
0907A:  SUBLW  07
0907C:  BTFSS  FD8.2
0907E:  BRA    94A6
....................        
....................          if(RX_Buffer[4]==0x0a){//Selecciono Hora 
09080:  MOVF   34,W
09082:  SUBLW  0A
09084:  BNZ   908A
....................             Opcion=4; 
09086:  MOVLW  04
09088:  MOVWF  x51
....................          } 
....................           
....................          if(RX_Buffer[4]==0x0b){//Selecciono Minuto 
0908A:  MOVF   34,W
0908C:  SUBLW  0B
0908E:  BNZ   9094
....................             Opcion=5; 
09090:  MOVLW  05
09092:  MOVWF  x51
....................          } 
....................           
....................          if(RX_Buffer[4]==0x0c){//Selecciono Dia 
09094:  MOVF   34,W
09096:  SUBLW  0C
09098:  BNZ   909E
....................             Opcion=1; 
0909A:  MOVLW  01
0909C:  MOVWF  x51
....................          } 
....................           
....................          if(RX_Buffer[4]==0x0d){//Selecciono Hora 
0909E:  MOVF   34,W
090A0:  SUBLW  0D
090A2:  BNZ   90A8
....................             Opcion=2; 
090A4:  MOVLW  02
090A6:  MOVWF  x51
....................          } 
....................           
....................          if(RX_Buffer[4]==0x0e){//Selecciono Year 
090A8:  MOVF   34,W
090AA:  SUBLW  0E
090AC:  BNZ   90B2
....................             Opcion=3; 
090AE:  MOVLW  03
090B0:  MOVWF  x51
....................          } 
....................           
....................          if(RIGHT){ 
090B2:  BSF    F93.2
090B4:  BTFSC  F81.2
090B6:  BRA    90CE
....................             delay_ms(200); 
090B8:  MOVLW  C8
090BA:  MOVLB  4
090BC:  MOVWF  x2A
090BE:  MOVLB  0
090C0:  CALL   1814
....................             if(RIGHT){ 
090C4:  BSF    F93.2
090C6:  BTFSC  F81.2
090C8:  BRA    90D0
....................                Opcion++; 
090CA:  MOVLB  3
090CC:  INCF   x51,F
090CE:  MOVLB  0
....................             } 
....................          } 
....................          if(Opcion>5) 
090D0:  MOVLB  3
090D2:  MOVF   x51,W
090D4:  SUBLW  05
090D6:  BC    90DC
....................             Opcion=1; 
090D8:  MOVLW  01
090DA:  MOVWF  x51
....................          if(Opcion<1) 
090DC:  MOVF   x51,F
090DE:  BNZ   90E4
....................             Opcion=5; 
090E0:  MOVLW  05
090E2:  MOVWF  x51
....................              
....................          if(RX_Buffer[4]==0x11 || LEFT){//Selecciono Regresar 
090E4:  MOVF   34,W
090E6:  SUBLW  11
090E8:  BZ    90F0
090EA:  BSF    F93.3
090EC:  BTFSC  F81.3
090EE:  BRA    9208
....................             printf("page MenuPrincipal"); 
090F0:  MOVLW  B2
090F2:  MOVWF  FF6
090F4:  MOVLW  0D
090F6:  MOVWF  FF7
090F8:  MOVLW  00
090FA:  MOVWF  FF8
090FC:  MOVLB  0
090FE:  CALL   3580
....................             SendDataDisplay();   
09102:  CALL   35B2
....................             PantallaPrincipal=0; 
09106:  MOVLB  2
09108:  CLRF   xD3
....................             Op=OFF; 
0910A:  MOVLB  0
0910C:  BCF    xA2.0
....................             Op2=OFF; 
0910E:  BCF    xA2.1
....................              
....................             if(esBisiesto(YearTx)) 
09110:  MOVFF  386,415
09114:  CALL   4930
09118:  MOVF   01,F
0911A:  BZ    9136
....................                Modulo=Bisiesto[MesTx]; 
0911C:  CLRF   03
0911E:  MOVLB  3
09120:  MOVF   x87,W
09122:  ADDLW  93
09124:  MOVWF  FE9
09126:  MOVLW  00
09128:  ADDWFC 03,W
0912A:  MOVWF  FEA
0912C:  MOVFF  FEF,2D5
09130:  MOVLB  2
....................             else 
09132:  BRA    914C
09134:  MOVLB  0
....................                Modulo=Regular[MesTx]; 
09136:  CLRF   03
09138:  MOVLB  3
0913A:  MOVF   x87,W
0913C:  ADDLW  87
0913E:  MOVWF  FE9
09140:  MOVLW  00
09142:  ADDWFC 03,W
09144:  MOVWF  FEA
09146:  MOVFF  FEF,2D5
0914A:  MOVLB  2
....................           
....................             dowTx=((YearTx-1)%7+((YearTx-1)/4-3*((YearTx-1)/100+1)/4)%7+Modulo+DiaTx%7)%7; 
0914C:  MOVLW  01
0914E:  MOVLB  3
09150:  SUBWF  x86,W
09152:  MOVLB  4
09154:  MOVWF  x16
09156:  MOVWF  x1F
09158:  MOVLW  07
0915A:  MOVWF  x20
0915C:  MOVLB  0
0915E:  CALL   44AC
09162:  MOVFF  00,415
09166:  MOVLW  01
09168:  MOVLB  3
0916A:  SUBWF  x86,W
0916C:  MOVWF  00
0916E:  RRCF   00,W
09170:  MOVLB  4
09172:  MOVWF  x16
09174:  RRCF   x16,F
09176:  MOVLW  3F
09178:  ANDWF  x16,F
0917A:  MOVLW  01
0917C:  MOVLB  3
0917E:  SUBWF  x86,W
09180:  MOVLB  4
09182:  MOVWF  x18
09184:  MOVWF  x1F
09186:  MOVLW  64
09188:  MOVWF  x20
0918A:  MOVLB  0
0918C:  CALL   44AC
09190:  MOVLW  01
09192:  ADDWF  01,W
09194:  MULLW  03
09196:  MOVFF  FF3,00
0919A:  RRCF   00,F
0919C:  RRCF   00,F
0919E:  MOVLW  3F
091A0:  ANDWF  00,F
091A2:  MOVF   00,W
091A4:  MOVLB  4
091A6:  SUBWF  x16,W
091A8:  MOVWF  x17
091AA:  MOVWF  x1F
091AC:  MOVLW  07
091AE:  MOVWF  x20
091B0:  MOVLB  0
091B2:  CALL   44AC
091B6:  MOVF   00,W
091B8:  MOVLB  4
091BA:  ADDWF  x15,W
091BC:  MOVLB  2
091BE:  ADDWF  xD5,W
091C0:  MOVLB  4
091C2:  MOVWF  x15
091C4:  MOVFF  388,41F
091C8:  MOVLW  07
091CA:  MOVWF  x20
091CC:  MOVLB  0
091CE:  CALL   44AC
091D2:  MOVF   00,W
091D4:  MOVLB  4
091D6:  ADDWF  x15,W
091D8:  MOVWF  x16
091DA:  MOVWF  x1F
091DC:  MOVLW  07
091DE:  MOVWF  x20
091E0:  MOVLB  0
091E2:  CALL   44AC
091E6:  MOVFF  00,38C
....................             rtc_set_datetime(DiaTx,MesTx,YearTx,dowTx,HoraTx,MinutoTx); 
091EA:  MOVFF  388,415
091EE:  MOVFF  387,416
091F2:  MOVFF  386,417
091F6:  MOVFF  38C,418
091FA:  MOVFF  389,419
091FE:  MOVFF  38A,41A
09202:  GOTO   49B2
09206:  MOVLB  3
....................          } 
....................           
....................          if((RX_Buffer[4]==0x2a)|| UP){//Tecla Arriba Oprimida 
09208:  MOVF   34,W
0920A:  SUBLW  2A
0920C:  BZ    9214
0920E:  BSF    F93.0
09210:  BTFSC  F81.0
09212:  BRA    9312
....................             delay_ms(200); 
09214:  MOVLW  C8
09216:  MOVLB  4
09218:  MOVWF  x2A
0921A:  MOVLB  0
0921C:  CALL   1814
....................             if((RX_Buffer[4]==0x2a)|| UP){    
09220:  MOVF   34,W
09222:  SUBLW  2A
09224:  BZ    922C
09226:  BSF    F93.0
09228:  BTFSC  F81.0
0922A:  BRA    9314
....................                if(Opcion==1){ 
0922C:  MOVLB  3
0922E:  DECFSZ x51,W
09230:  BRA    92BE
....................                   if(MesTx==2){ 
09232:  MOVF   x87,W
09234:  SUBLW  02
09236:  BNZ   926C
....................                      if(esBisiesto(YearTx)){ 
09238:  MOVFF  386,415
0923C:  MOVLB  0
0923E:  CALL   4930
09242:  MOVF   01,F
09244:  BZ    925A
....................                         if(DiaTx<29) 
09246:  MOVLB  3
09248:  MOVF   x88,W
0924A:  SUBLW  1C
0924C:  BNC   9252
....................                            DiaTx++; 
0924E:  INCF   x88,F
....................                         else 
09250:  BRA    9256
....................                            DiaTx=1;    
09252:  MOVLW  01
09254:  MOVWF  x88
....................                      }else{ 
09256:  BRA    926A
09258:  MOVLB  0
....................                         if(DiaTx<28) 
0925A:  MOVLB  3
0925C:  MOVF   x88,W
0925E:  SUBLW  1B
09260:  BNC   9266
....................                            DiaTx++; 
09262:  INCF   x88,F
....................                         else 
09264:  BRA    926A
....................                            DiaTx=1;    
09266:  MOVLW  01
09268:  MOVWF  x88
....................                      } 
....................                   }else{ 
0926A:  BRA    92BC
....................                      if(MesTx<=7){ 
0926C:  MOVF   x87,W
0926E:  SUBLW  07
09270:  BNC   9298
....................                         if(MesTx % 2 ==0){ 
09272:  MOVF   x87,W
09274:  ANDLW  01
09276:  BNZ   9288
....................                            if(DiaTx<30) 
09278:  MOVF   x88,W
0927A:  SUBLW  1D
0927C:  BNC   9282
....................                               DiaTx++;     
0927E:  INCF   x88,F
....................                            else 
09280:  BRA    9286
....................                               DiaTx=1;    
09282:  MOVLW  01
09284:  MOVWF  x88
....................                         }else{ 
09286:  BRA    9296
....................                            if(DiaTx<31) 
09288:  MOVF   x88,W
0928A:  SUBLW  1E
0928C:  BNC   9292
....................                               DiaTx++;     
0928E:  INCF   x88,F
....................                            else 
09290:  BRA    9296
....................                               DiaTx=1;    
09292:  MOVLW  01
09294:  MOVWF  x88
....................                         }     
....................                      }else{ 
09296:  BRA    92BC
....................                         if(MesTx % 2 ==0){ 
09298:  MOVF   x87,W
0929A:  ANDLW  01
0929C:  BNZ   92AE
....................                            if(DiaTx<31) 
0929E:  MOVF   x88,W
092A0:  SUBLW  1E
092A2:  BNC   92A8
....................                               DiaTx++;   
092A4:  INCF   x88,F
....................                            else 
092A6:  BRA    92AC
....................                               DiaTx=1; 
092A8:  MOVLW  01
092AA:  MOVWF  x88
....................                         }else{ 
092AC:  BRA    92BC
....................                            if(DiaTx<30) 
092AE:  MOVF   x88,W
092B0:  SUBLW  1D
092B2:  BNC   92B8
....................                               DiaTx++;     
092B4:  INCF   x88,F
....................                            else 
092B6:  BRA    92BC
....................                               DiaTx=1; 
092B8:  MOVLW  01
092BA:  MOVWF  x88
....................                         }     
....................                      } 
....................                   } 
....................                }else if(Opcion==2){ 
092BC:  BRA    930E
092BE:  MOVF   x51,W
092C0:  SUBLW  02
092C2:  BNZ   92D4
....................                   if(MesTx<12) 
092C4:  MOVF   x87,W
092C6:  SUBLW  0B
092C8:  BNC   92CE
....................                      MesTx++; 
092CA:  INCF   x87,F
....................                   else 
092CC:  BRA    92D2
....................                      MesTx=1; 
092CE:  MOVLW  01
092D0:  MOVWF  x87
....................                }else if(Opcion==3){ 
092D2:  BRA    930E
092D4:  MOVF   x51,W
092D6:  SUBLW  03
092D8:  BNZ   92E8
....................                   if(YearTx<99) 
092DA:  MOVF   x86,W
092DC:  SUBLW  62
092DE:  BNC   92E4
....................                      YearTx++; 
092E0:  INCF   x86,F
....................                   else  
092E2:  BRA    92E6
....................                      YearTx=0; 
092E4:  CLRF   x86
....................                }else if(Opcion==4){ 
092E6:  BRA    930E
092E8:  MOVF   x51,W
092EA:  SUBLW  04
092EC:  BNZ   92FC
....................                   if(HoraTx<24) 
092EE:  MOVF   x89,W
092F0:  SUBLW  17
092F2:  BNC   92F8
....................                      HoraTx++; 
092F4:  INCF   x89,F
....................                   else 
092F6:  BRA    92FA
....................                      HoraTx=0; 
092F8:  CLRF   x89
....................                }else if(Opcion==5){ 
092FA:  BRA    930E
092FC:  MOVF   x51,W
092FE:  SUBLW  05
09300:  BNZ   930E
....................                   if(MinutoTx<59) 
09302:  MOVF   x8A,W
09304:  SUBLW  3A
09306:  BNC   930C
....................                      MinutoTx++; 
09308:  INCF   x8A,F
....................                   else 
0930A:  BRA    930E
....................                      MinutoTx=0; 
0930C:  CLRF   x8A
....................                } 
....................                RX_Buffer[4]=0x00; 
0930E:  CLRF   34
....................                RX_Buffer2[4]=0x00; 
09310:  CLRF   3F
09312:  MOVLB  0
....................             } 
....................          } 
....................           
....................          if(RX_Buffer[4]==0x2b || DOWN){//Tecla Abajo Oprimida 
09314:  MOVF   34,W
09316:  SUBLW  2B
09318:  BZ    9320
0931A:  BSF    F93.1
0931C:  BTFSC  F81.1
0931E:  BRA    939C
....................             delay_ms(200); 
09320:  MOVLW  C8
09322:  MOVLB  4
09324:  MOVWF  x2A
09326:  MOVLB  0
09328:  CALL   1814
....................             if(RX_Buffer[4]==0x2b || DOWN){    
0932C:  MOVF   34,W
0932E:  SUBLW  2B
09330:  BZ    9338
09332:  BSF    F93.1
09334:  BTFSC  F81.1
09336:  BRA    939C
....................                if(Opcion==1){ 
09338:  MOVLB  3
0933A:  DECFSZ x51,W
0933C:  BRA    9346
....................                   if(DiaTx>0) 
0933E:  MOVF   x88,F
09340:  BZ    9344
....................                      DiaTx--; 
09342:  DECF   x88,F
....................                }else if(Opcion==2){ 
09344:  BRA    9396
09346:  MOVF   x51,W
09348:  SUBLW  02
0934A:  BNZ   935C
....................                   if(MesTx>1) 
0934C:  MOVF   x87,W
0934E:  SUBLW  01
09350:  BC    9356
....................                      MesTx--; 
09352:  DECF   x87,F
....................                   else 
09354:  BRA    935A
....................                      MesTx=12; 
09356:  MOVLW  0C
09358:  MOVWF  x87
....................                }else if(Opcion==3){ 
0935A:  BRA    9396
0935C:  MOVF   x51,W
0935E:  SUBLW  03
09360:  BNZ   9370
....................                   if(YearTx>0) 
09362:  MOVF   x86,F
09364:  BZ    936A
....................                      YearTx--; 
09366:  DECF   x86,F
....................                   else 
09368:  BRA    936E
....................                      YearTx=99; 
0936A:  MOVLW  63
0936C:  MOVWF  x86
....................                }else if(Opcion==4){ 
0936E:  BRA    9396
09370:  MOVF   x51,W
09372:  SUBLW  04
09374:  BNZ   9384
....................                   if(HoraTx>0) 
09376:  MOVF   x89,F
09378:  BZ    937E
....................                      HoraTx--; 
0937A:  DECF   x89,F
....................                   else 
0937C:  BRA    9382
....................                      HoraTx=23; 
0937E:  MOVLW  17
09380:  MOVWF  x89
....................                }else if(Opcion==5){ 
09382:  BRA    9396
09384:  MOVF   x51,W
09386:  SUBLW  05
09388:  BNZ   9396
....................                   if(MinutoTx>0) 
0938A:  MOVF   x8A,F
0938C:  BZ    9392
....................                      MinutoTx--; 
0938E:  DECF   x8A,F
....................                   else 
09390:  BRA    9396
....................                      MinutoTx=59; 
09392:  MOVLW  3B
09394:  MOVWF  x8A
....................                } 
....................                RX_Buffer[4]=0x00; 
09396:  CLRF   34
....................                RX_Buffer2[4]=0x00; 
09398:  CLRF   3F
0939A:  MOVLB  0
....................             } 
....................          } 
....................        
....................       printf("thora.txt=\"%02u\"",HoraTx); 
0939C:  MOVLW  C6
0939E:  MOVWF  FF6
093A0:  MOVLW  0D
093A2:  MOVWF  FF7
093A4:  MOVLW  00
093A6:  MOVWF  FF8
093A8:  MOVLW  0B
093AA:  MOVLB  4
093AC:  MOVWF  x19
093AE:  MOVLB  0
093B0:  CALL   447A
093B4:  MOVFF  389,417
093B8:  MOVLW  01
093BA:  MOVLB  4
093BC:  MOVWF  x18
093BE:  MOVLB  0
093C0:  CALL   44D8
093C4:  MOVLW  22
093C6:  BTFSS  F9E.4
093C8:  BRA    93C6
093CA:  MOVWF  FAD
....................       SendDataDisplay(); 
093CC:  CALL   35B2
....................       printf("tminutos.txt=\"%02u\"",MinutoTx); 
093D0:  MOVLW  D8
093D2:  MOVWF  FF6
093D4:  MOVLW  0D
093D6:  MOVWF  FF7
093D8:  MOVLW  00
093DA:  MOVWF  FF8
093DC:  MOVLW  0E
093DE:  MOVLB  4
093E0:  MOVWF  x19
093E2:  MOVLB  0
093E4:  CALL   447A
093E8:  MOVFF  38A,417
093EC:  MOVLW  01
093EE:  MOVLB  4
093F0:  MOVWF  x18
093F2:  MOVLB  0
093F4:  CALL   44D8
093F8:  MOVLW  22
093FA:  BTFSS  F9E.4
093FC:  BRA    93FA
093FE:  MOVWF  FAD
....................       SendDataDisplay(); 
09400:  CALL   35B2
....................       printf("tdia.txt=\"%02u\"",DiaTx); 
09404:  MOVLW  EC
09406:  MOVWF  FF6
09408:  MOVLW  0D
0940A:  MOVWF  FF7
0940C:  MOVLW  00
0940E:  MOVWF  FF8
09410:  MOVLW  0A
09412:  MOVLB  4
09414:  MOVWF  x19
09416:  MOVLB  0
09418:  CALL   447A
0941C:  MOVFF  388,417
09420:  MOVLW  01
09422:  MOVLB  4
09424:  MOVWF  x18
09426:  MOVLB  0
09428:  CALL   44D8
0942C:  MOVLW  22
0942E:  BTFSS  F9E.4
09430:  BRA    942E
09432:  MOVWF  FAD
....................       SendDataDisplay(); 
09434:  CALL   35B2
....................       printf("tmes.txt=\"%02u\"",MesTx); 
09438:  MOVLW  FC
0943A:  MOVWF  FF6
0943C:  MOVLW  0D
0943E:  MOVWF  FF7
09440:  MOVLW  00
09442:  MOVWF  FF8
09444:  MOVLW  0A
09446:  MOVLB  4
09448:  MOVWF  x19
0944A:  MOVLB  0
0944C:  CALL   447A
09450:  MOVFF  387,417
09454:  MOVLW  01
09456:  MOVLB  4
09458:  MOVWF  x18
0945A:  MOVLB  0
0945C:  CALL   44D8
09460:  MOVLW  22
09462:  BTFSS  F9E.4
09464:  BRA    9462
09466:  MOVWF  FAD
....................       SendDataDisplay(); 
09468:  CALL   35B2
....................       printf("tyear.txt=\"%02u\"",YearTx); 
0946C:  MOVLW  0C
0946E:  MOVWF  FF6
09470:  MOVLW  0E
09472:  MOVWF  FF7
09474:  MOVLW  00
09476:  MOVWF  FF8
09478:  MOVLW  0B
0947A:  MOVLB  4
0947C:  MOVWF  x19
0947E:  MOVLB  0
09480:  CALL   447A
09484:  MOVFF  386,417
09488:  MOVLW  01
0948A:  MOVLB  4
0948C:  MOVWF  x18
0948E:  MOVLB  0
09490:  CALL   44D8
09494:  MOVLW  22
09496:  BTFSS  F9E.4
09498:  BRA    9496
0949A:  MOVWF  FAD
....................       SendDataDisplay(); 
0949C:  CALL   35B2
....................       LimitaDia();   
094A0:  GOTO   4A6E
094A4:  MOVLB  3
....................     } 
.................... //_--------------------------------------------------------------------------------------------------------------------------------------------------------        
....................  
.................... //_-------------------------------------------------------------------------------------------------------------------------------------------------------- 
....................    if(Menu==8){ //Menu Ciclos Personalizados 
094A6:  MOVF   x49,W
094A8:  SUBLW  08
094AA:  BTFSS  FD8.2
094AC:  GOTO   A2D0
....................       printf("fecha.txt=\"Fecha:%02u/%02u/20%02u Hora: %02u:%02u:%02u\"",Dia,Mes,Year,Hora,Minuto,Segundo); 
094B0:  MOVLW  1E
094B2:  MOVWF  FF6
094B4:  MOVLW  0E
094B6:  MOVWF  FF7
094B8:  MOVLW  00
094BA:  MOVWF  FF8
094BC:  MOVLW  11
094BE:  MOVLB  4
094C0:  MOVWF  x19
094C2:  MOVLB  0
094C4:  CALL   447A
094C8:  MOVFF  381,417
094CC:  MOVLW  01
094CE:  MOVLB  4
094D0:  MOVWF  x18
094D2:  MOVLB  0
094D4:  CALL   44D8
094D8:  MOVLW  2F
094DA:  BTFSS  F9E.4
094DC:  BRA    94DA
094DE:  MOVWF  FAD
094E0:  MOVFF  380,417
094E4:  MOVLW  01
094E6:  MOVLB  4
094E8:  MOVWF  x18
094EA:  MOVLB  0
094EC:  CALL   44D8
094F0:  MOVLW  2F
094F2:  BTFSS  F9E.4
094F4:  BRA    94F2
094F6:  MOVWF  FAD
094F8:  MOVLW  32
094FA:  BTFSS  F9E.4
094FC:  BRA    94FA
094FE:  MOVWF  FAD
09500:  MOVLW  30
09502:  BTFSS  F9E.4
09504:  BRA    9502
09506:  MOVWF  FAD
09508:  MOVFF  37F,417
0950C:  MOVLW  01
0950E:  MOVLB  4
09510:  MOVWF  x18
09512:  MOVLB  0
09514:  CALL   44D8
09518:  MOVLW  3F
0951A:  MOVWF  FF6
0951C:  MOVLW  0E
0951E:  MOVWF  FF7
09520:  MOVLW  00
09522:  MOVWF  FF8
09524:  MOVLW  07
09526:  MOVLB  4
09528:  MOVWF  x19
0952A:  MOVLB  0
0952C:  CALL   447A
09530:  MOVFF  382,417
09534:  MOVLW  01
09536:  MOVLB  4
09538:  MOVWF  x18
0953A:  MOVLB  0
0953C:  CALL   44D8
09540:  MOVLW  3A
09542:  BTFSS  F9E.4
09544:  BRA    9542
09546:  MOVWF  FAD
09548:  MOVFF  383,417
0954C:  MOVLW  01
0954E:  MOVLB  4
09550:  MOVWF  x18
09552:  MOVLB  0
09554:  CALL   44D8
09558:  MOVLW  3A
0955A:  BTFSS  F9E.4
0955C:  BRA    955A
0955E:  MOVWF  FAD
09560:  MOVFF  384,417
09564:  MOVLW  01
09566:  MOVLB  4
09568:  MOVWF  x18
0956A:  MOVLB  0
0956C:  CALL   44D8
09570:  MOVLW  22
09572:  BTFSS  F9E.4
09574:  BRA    9572
09576:  MOVWF  FAD
....................       SendDataDisplay(); 
09578:  CALL   35B2
....................       GuardaEEPROM=OFF; 
0957C:  BCF    xA2.4
....................        
....................       if(RX_Buffer[4]>0x00 && RX_Buffer[4]<0x07){//Personalizados 
0957E:  MOVF   34,F
09580:  BTFSC  FD8.2
09582:  BRA    97B0
09584:  MOVF   34,W
09586:  SUBLW  06
09588:  BTFSS  FD8.0
0958A:  BRA    97B0
....................          printf("ciclo.txt=\"CICLO P%02u\"",RX_Buffer[4]+0x0a); 
0958C:  MOVLW  0A
0958E:  ADDWF  34,W
09590:  MOVLB  4
09592:  MOVWF  x15
09594:  MOVLW  56
09596:  MOVWF  FF6
09598:  MOVLW  0E
0959A:  MOVWF  FF7
0959C:  MOVLW  00
0959E:  MOVWF  FF8
095A0:  MOVLW  12
095A2:  MOVWF  x19
095A4:  MOVLB  0
095A6:  CALL   447A
095AA:  MOVFF  415,417
095AE:  MOVLW  01
095B0:  MOVLB  4
095B2:  MOVWF  x18
095B4:  MOVLB  0
095B6:  CALL   44D8
095BA:  MOVLW  22
095BC:  BTFSS  F9E.4
095BE:  BRA    95BC
095C0:  MOVWF  FAD
....................          SendDataDisplay();           
095C2:  CALL   35B2
....................          printf("temp.txt=\"%u\"",CiclosPersonalizados[RX_Buffer[4]-1].Temperatura); 
095C6:  MOVLW  01
095C8:  SUBWF  34,W
095CA:  MULLW  0A
095CC:  MOVF   FF3,W
095CE:  MOVLB  4
095D0:  CLRF   x16
095D2:  MOVWF  x15
095D4:  MOVLW  B1
095D6:  ADDWF  x15,W
095D8:  MOVWF  FE9
095DA:  MOVLW  03
095DC:  ADDWFC x16,W
095DE:  MOVWF  FEA
095E0:  MOVFF  FEF,415
095E4:  MOVLW  6E
095E6:  MOVWF  FF6
095E8:  MOVLW  0E
095EA:  MOVWF  FF7
095EC:  MOVLW  00
095EE:  MOVWF  FF8
095F0:  MOVLW  0A
095F2:  MOVWF  x19
095F4:  MOVLB  0
095F6:  CALL   447A
095FA:  MOVFF  415,417
095FE:  MOVLW  1B
09600:  MOVLB  4
09602:  MOVWF  x18
09604:  MOVLB  0
09606:  CALL   44D8
0960A:  MOVLW  22
0960C:  BTFSS  F9E.4
0960E:  BRA    960C
09610:  MOVWF  FAD
....................          SendDataDisplay(); 
09612:  CALL   35B2
....................          printf("test.txt=\"%02u:%02u\"",CiclosPersonalizados[RX_Buffer[4]-1].Minutoest,CiclosPersonalizados[RX_Buffer[4]-1].Segundoest); 
09616:  MOVLW  01
09618:  SUBWF  34,W
0961A:  MULLW  0A
0961C:  MOVF   FF3,W
0961E:  MOVLB  4
09620:  CLRF   x16
09622:  MOVWF  x15
09624:  MOVLW  09
09626:  ADDWF  x15,W
09628:  MOVWF  01
0962A:  MOVLW  00
0962C:  ADDWFC x16,W
0962E:  MOVWF  03
09630:  MOVF   01,W
09632:  ADDLW  B1
09634:  MOVWF  FE9
09636:  MOVLW  03
09638:  ADDWFC 03,W
0963A:  MOVWF  FEA
0963C:  MOVFF  FEF,415
09640:  MOVLW  01
09642:  SUBWF  34,W
09644:  MULLW  0A
09646:  MOVF   FF3,W
09648:  CLRF   x17
0964A:  MOVWF  x16
0964C:  MOVLW  03
0964E:  ADDWF  x16,W
09650:  MOVWF  01
09652:  MOVLW  00
09654:  ADDWFC x17,W
09656:  MOVWF  03
09658:  MOVF   01,W
0965A:  ADDLW  B1
0965C:  MOVWF  FE9
0965E:  MOVLW  03
09660:  ADDWFC 03,W
09662:  MOVWF  FEA
09664:  MOVFF  FEF,416
09668:  MOVLW  7C
0966A:  MOVWF  FF6
0966C:  MOVLW  0E
0966E:  MOVWF  FF7
09670:  MOVLW  00
09672:  MOVWF  FF8
09674:  MOVLW  0A
09676:  MOVWF  x19
09678:  MOVLB  0
0967A:  CALL   447A
0967E:  MOVFF  415,417
09682:  MOVLW  01
09684:  MOVLB  4
09686:  MOVWF  x18
09688:  MOVLB  0
0968A:  CALL   44D8
0968E:  MOVLW  3A
09690:  BTFSS  F9E.4
09692:  BRA    9690
09694:  MOVWF  FAD
09696:  MOVFF  416,417
0969A:  MOVLW  01
0969C:  MOVLB  4
0969E:  MOVWF  x18
096A0:  MOVLB  0
096A2:  CALL   44D8
096A6:  MOVLW  22
096A8:  BTFSS  F9E.4
096AA:  BRA    96A8
096AC:  MOVWF  FAD
....................          SendDataDisplay(); 
096AE:  CALL   35B2
....................          printf("tsec.txt=\"%02u:%02u\"",CiclosPersonalizados[RX_Buffer[4]-1].Minutosec,CiclosPersonalizados[RX_Buffer[4]-1].Segundosec); 
096B2:  MOVLW  01
096B4:  SUBWF  34,W
096B6:  MULLW  0A
096B8:  MOVF   FF3,W
096BA:  MOVLB  4
096BC:  CLRF   x16
096BE:  MOVWF  x15
096C0:  MOVLW  04
096C2:  ADDWF  x15,W
096C4:  MOVWF  01
096C6:  MOVLW  00
096C8:  ADDWFC x16,W
096CA:  MOVWF  03
096CC:  MOVF   01,W
096CE:  ADDLW  B1
096D0:  MOVWF  FE9
096D2:  MOVLW  03
096D4:  ADDWFC 03,W
096D6:  MOVWF  FEA
096D8:  MOVFF  FEF,415
096DC:  MOVLW  01
096DE:  SUBWF  34,W
096E0:  MULLW  0A
096E2:  MOVF   FF3,W
096E4:  CLRF   x17
096E6:  MOVWF  x16
096E8:  MOVLW  05
096EA:  ADDWF  x16,W
096EC:  MOVWF  01
096EE:  MOVLW  00
096F0:  ADDWFC x17,W
096F2:  MOVWF  03
096F4:  MOVF   01,W
096F6:  ADDLW  B1
096F8:  MOVWF  FE9
096FA:  MOVLW  03
096FC:  ADDWFC 03,W
096FE:  MOVWF  FEA
09700:  MOVFF  FEF,416
09704:  MOVLW  92
09706:  MOVWF  FF6
09708:  MOVLW  0E
0970A:  MOVWF  FF7
0970C:  MOVLW  00
0970E:  MOVWF  FF8
09710:  MOVLW  0A
09712:  MOVWF  x19
09714:  MOVLB  0
09716:  CALL   447A
0971A:  MOVFF  415,417
0971E:  MOVLW  01
09720:  MOVLB  4
09722:  MOVWF  x18
09724:  MOVLB  0
09726:  CALL   44D8
0972A:  MOVLW  3A
0972C:  BTFSS  F9E.4
0972E:  BRA    972C
09730:  MOVWF  FAD
09732:  MOVFF  416,417
09736:  MOVLW  01
09738:  MOVLB  4
0973A:  MOVWF  x18
0973C:  MOVLB  0
0973E:  CALL   44D8
09742:  MOVLW  22
09744:  BTFSS  F9E.4
09746:  BRA    9744
09748:  MOVWF  FAD
....................          SendDataDisplay(); 
0974A:  CALL   35B2
....................          printf("desfogue.txt=\"%u\"",CiclosPersonalizados[RX_Buffer[4]-1].NivelDesfogue); 
0974E:  MOVLW  01
09750:  SUBWF  34,W
09752:  MULLW  0A
09754:  MOVF   FF3,W
09756:  MOVLB  4
09758:  CLRF   x16
0975A:  MOVWF  x15
0975C:  MOVLW  08
0975E:  ADDWF  x15,W
09760:  MOVWF  01
09762:  MOVLW  00
09764:  ADDWFC x16,W
09766:  MOVWF  03
09768:  MOVF   01,W
0976A:  ADDLW  B1
0976C:  MOVWF  FE9
0976E:  MOVLW  03
09770:  ADDWFC 03,W
09772:  MOVWF  FEA
09774:  MOVFF  FEF,415
09778:  MOVLW  A8
0977A:  MOVWF  FF6
0977C:  MOVLW  0E
0977E:  MOVWF  FF7
09780:  MOVLW  00
09782:  MOVWF  FF8
09784:  MOVLW  0E
09786:  MOVWF  x19
09788:  MOVLB  0
0978A:  CALL   447A
0978E:  MOVFF  415,417
09792:  MOVLW  1B
09794:  MOVLB  4
09796:  MOVWF  x18
09798:  MOVLB  0
0979A:  CALL   44D8
0979E:  MOVLW  22
097A0:  BTFSS  F9E.4
097A2:  BRA    97A0
097A4:  MOVWF  FAD
....................          SendDataDisplay(); 
097A6:  CALL   35B2
....................          CicloLibre=RX_Buffer[4]; 
097AA:  MOVFF  34,33D
....................       }else if(CicloLibre==0x00){ 
097AE:  BRA    9A5C
097B0:  MOVLB  3
097B2:  MOVF   x3D,F
097B4:  BNZ   9820
....................          printf("ciclo.txt=\"CICLO P--\""); 
097B6:  MOVLW  BA
097B8:  MOVWF  FF6
097BA:  MOVLW  0E
097BC:  MOVWF  FF7
097BE:  MOVLW  00
097C0:  MOVWF  FF8
097C2:  MOVLB  0
097C4:  CALL   3580
....................          SendDataDisplay();           
097C8:  CALL   35B2
....................          printf("temp.txt=\"--\""); 
097CC:  MOVLW  D0
097CE:  MOVWF  FF6
097D0:  MOVLW  0E
097D2:  MOVWF  FF7
097D4:  MOVLW  00
097D6:  MOVWF  FF8
097D8:  CALL   3580
....................          SendDataDisplay(); 
097DC:  CALL   35B2
....................          printf("test.txt=\"--:--\""); 
097E0:  MOVLW  DE
097E2:  MOVWF  FF6
097E4:  MOVLW  0E
097E6:  MOVWF  FF7
097E8:  MOVLW  00
097EA:  MOVWF  FF8
097EC:  CALL   3580
....................          SendDataDisplay(); 
097F0:  CALL   35B2
....................          printf("tsec.txt=\"--:--\""); 
097F4:  MOVLW  F0
097F6:  MOVWF  FF6
097F8:  MOVLW  0E
097FA:  MOVWF  FF7
097FC:  MOVLW  00
097FE:  MOVWF  FF8
09800:  CALL   3580
....................          SendDataDisplay(); 
09804:  CALL   35B2
....................          printf("desfogue.txt=\"--\""); 
09808:  MOVLW  02
0980A:  MOVWF  FF6
0980C:  MOVLW  0F
0980E:  MOVWF  FF7
09810:  MOVLW  00
09812:  MOVWF  FF8
09814:  CALL   3580
....................          SendDataDisplay(); 
09818:  CALL   35B2
....................       }else if(CicloLibre>0 && CicloLibre<7){ 
0981C:  BRA    9A5C
0981E:  MOVLB  3
09820:  MOVF   x3D,F
09822:  BTFSC  FD8.2
09824:  BRA    9A5E
09826:  MOVF   x3D,W
09828:  SUBLW  06
0982A:  BTFSS  FD8.0
0982C:  BRA    9A5E
....................          printf("ciclo.txt=\"CICLO P%02u\"",CicloLibre+0x0a); 
0982E:  MOVLW  0A
09830:  ADDWF  x3D,W
09832:  MOVLB  4
09834:  MOVWF  x15
09836:  MOVLW  14
09838:  MOVWF  FF6
0983A:  MOVLW  0F
0983C:  MOVWF  FF7
0983E:  MOVLW  00
09840:  MOVWF  FF8
09842:  MOVLW  12
09844:  MOVWF  x19
09846:  MOVLB  0
09848:  CALL   447A
0984C:  MOVFF  415,417
09850:  MOVLW  01
09852:  MOVLB  4
09854:  MOVWF  x18
09856:  MOVLB  0
09858:  CALL   44D8
0985C:  MOVLW  22
0985E:  BTFSS  F9E.4
09860:  BRA    985E
09862:  MOVWF  FAD
....................          SendDataDisplay();           
09864:  CALL   35B2
....................          printf("temp.txt=\"%u\"",CiclosPersonalizados[CicloLibre-1].Temperatura); 
09868:  MOVLW  01
0986A:  MOVLB  3
0986C:  SUBWF  x3D,W
0986E:  MULLW  0A
09870:  MOVF   FF3,W
09872:  MOVLB  4
09874:  CLRF   x16
09876:  MOVWF  x15
09878:  MOVLW  B1
0987A:  ADDWF  x15,W
0987C:  MOVWF  FE9
0987E:  MOVLW  03
09880:  ADDWFC x16,W
09882:  MOVWF  FEA
09884:  MOVFF  FEF,415
09888:  MOVLW  2C
0988A:  MOVWF  FF6
0988C:  MOVLW  0F
0988E:  MOVWF  FF7
09890:  MOVLW  00
09892:  MOVWF  FF8
09894:  MOVLW  0A
09896:  MOVWF  x19
09898:  MOVLB  0
0989A:  CALL   447A
0989E:  MOVFF  415,417
098A2:  MOVLW  1B
098A4:  MOVLB  4
098A6:  MOVWF  x18
098A8:  MOVLB  0
098AA:  CALL   44D8
098AE:  MOVLW  22
098B0:  BTFSS  F9E.4
098B2:  BRA    98B0
098B4:  MOVWF  FAD
....................          SendDataDisplay(); 
098B6:  CALL   35B2
....................          printf("test.txt=\"%02u:%02u\"",CiclosPersonalizados[CicloLibre-1].Minutoest,CiclosPersonalizados[CicloLibre-1].Segundoest); 
098BA:  MOVLW  01
098BC:  MOVLB  3
098BE:  SUBWF  x3D,W
098C0:  MULLW  0A
098C2:  MOVF   FF3,W
098C4:  MOVLB  4
098C6:  CLRF   x16
098C8:  MOVWF  x15
098CA:  MOVLW  09
098CC:  ADDWF  x15,W
098CE:  MOVWF  01
098D0:  MOVLW  00
098D2:  ADDWFC x16,W
098D4:  MOVWF  03
098D6:  MOVF   01,W
098D8:  ADDLW  B1
098DA:  MOVWF  FE9
098DC:  MOVLW  03
098DE:  ADDWFC 03,W
098E0:  MOVWF  FEA
098E2:  MOVFF  FEF,415
098E6:  MOVLW  01
098E8:  MOVLB  3
098EA:  SUBWF  x3D,W
098EC:  MULLW  0A
098EE:  MOVF   FF3,W
098F0:  MOVLB  4
098F2:  CLRF   x17
098F4:  MOVWF  x16
098F6:  MOVLW  03
098F8:  ADDWF  x16,W
098FA:  MOVWF  01
098FC:  MOVLW  00
098FE:  ADDWFC x17,W
09900:  MOVWF  03
09902:  MOVF   01,W
09904:  ADDLW  B1
09906:  MOVWF  FE9
09908:  MOVLW  03
0990A:  ADDWFC 03,W
0990C:  MOVWF  FEA
0990E:  MOVFF  FEF,416
09912:  MOVLW  3A
09914:  MOVWF  FF6
09916:  MOVLW  0F
09918:  MOVWF  FF7
0991A:  MOVLW  00
0991C:  MOVWF  FF8
0991E:  MOVLW  0A
09920:  MOVWF  x19
09922:  MOVLB  0
09924:  CALL   447A
09928:  MOVFF  415,417
0992C:  MOVLW  01
0992E:  MOVLB  4
09930:  MOVWF  x18
09932:  MOVLB  0
09934:  CALL   44D8
09938:  MOVLW  3A
0993A:  BTFSS  F9E.4
0993C:  BRA    993A
0993E:  MOVWF  FAD
09940:  MOVFF  416,417
09944:  MOVLW  01
09946:  MOVLB  4
09948:  MOVWF  x18
0994A:  MOVLB  0
0994C:  CALL   44D8
09950:  MOVLW  22
09952:  BTFSS  F9E.4
09954:  BRA    9952
09956:  MOVWF  FAD
....................          SendDataDisplay(); 
09958:  CALL   35B2
....................          printf("tsec.txt=\"%02u:%02u\"",CiclosPersonalizados[CicloLibre-1].Minutosec,CiclosPersonalizados[CicloLibre-1].Segundosec); 
0995C:  MOVLW  01
0995E:  MOVLB  3
09960:  SUBWF  x3D,W
09962:  MULLW  0A
09964:  MOVF   FF3,W
09966:  MOVLB  4
09968:  CLRF   x16
0996A:  MOVWF  x15
0996C:  MOVLW  04
0996E:  ADDWF  x15,W
09970:  MOVWF  01
09972:  MOVLW  00
09974:  ADDWFC x16,W
09976:  MOVWF  03
09978:  MOVF   01,W
0997A:  ADDLW  B1
0997C:  MOVWF  FE9
0997E:  MOVLW  03
09980:  ADDWFC 03,W
09982:  MOVWF  FEA
09984:  MOVFF  FEF,415
09988:  MOVLW  01
0998A:  MOVLB  3
0998C:  SUBWF  x3D,W
0998E:  MULLW  0A
09990:  MOVF   FF3,W
09992:  MOVLB  4
09994:  CLRF   x17
09996:  MOVWF  x16
09998:  MOVLW  05
0999A:  ADDWF  x16,W
0999C:  MOVWF  01
0999E:  MOVLW  00
099A0:  ADDWFC x17,W
099A2:  MOVWF  03
099A4:  MOVF   01,W
099A6:  ADDLW  B1
099A8:  MOVWF  FE9
099AA:  MOVLW  03
099AC:  ADDWFC 03,W
099AE:  MOVWF  FEA
099B0:  MOVFF  FEF,416
099B4:  MOVLW  50
099B6:  MOVWF  FF6
099B8:  MOVLW  0F
099BA:  MOVWF  FF7
099BC:  MOVLW  00
099BE:  MOVWF  FF8
099C0:  MOVLW  0A
099C2:  MOVWF  x19
099C4:  MOVLB  0
099C6:  CALL   447A
099CA:  MOVFF  415,417
099CE:  MOVLW  01
099D0:  MOVLB  4
099D2:  MOVWF  x18
099D4:  MOVLB  0
099D6:  CALL   44D8
099DA:  MOVLW  3A
099DC:  BTFSS  F9E.4
099DE:  BRA    99DC
099E0:  MOVWF  FAD
099E2:  MOVFF  416,417
099E6:  MOVLW  01
099E8:  MOVLB  4
099EA:  MOVWF  x18
099EC:  MOVLB  0
099EE:  CALL   44D8
099F2:  MOVLW  22
099F4:  BTFSS  F9E.4
099F6:  BRA    99F4
099F8:  MOVWF  FAD
....................          SendDataDisplay(); 
099FA:  CALL   35B2
....................          printf("desfogue.txt=\"%u\"",CiclosPersonalizados[CicloLibre-1].NivelDesfogue); 
099FE:  MOVLW  01
09A00:  MOVLB  3
09A02:  SUBWF  x3D,W
09A04:  MULLW  0A
09A06:  MOVF   FF3,W
09A08:  MOVLB  4
09A0A:  CLRF   x16
09A0C:  MOVWF  x15
09A0E:  MOVLW  08
09A10:  ADDWF  x15,W
09A12:  MOVWF  01
09A14:  MOVLW  00
09A16:  ADDWFC x16,W
09A18:  MOVWF  03
09A1A:  MOVF   01,W
09A1C:  ADDLW  B1
09A1E:  MOVWF  FE9
09A20:  MOVLW  03
09A22:  ADDWFC 03,W
09A24:  MOVWF  FEA
09A26:  MOVFF  FEF,415
09A2A:  MOVLW  66
09A2C:  MOVWF  FF6
09A2E:  MOVLW  0F
09A30:  MOVWF  FF7
09A32:  MOVLW  00
09A34:  MOVWF  FF8
09A36:  MOVLW  0E
09A38:  MOVWF  x19
09A3A:  MOVLB  0
09A3C:  CALL   447A
09A40:  MOVFF  415,417
09A44:  MOVLW  1B
09A46:  MOVLB  4
09A48:  MOVWF  x18
09A4A:  MOVLB  0
09A4C:  CALL   44D8
09A50:  MOVLW  22
09A52:  BTFSS  F9E.4
09A54:  BRA    9A52
09A56:  MOVWF  FAD
....................          SendDataDisplay(); 
09A58:  CALL   35B2
09A5C:  MOVLB  3
....................       } 
....................        
....................       if(RIGHT){ 
09A5E:  BSF    F93.2
09A60:  BTFSC  F81.2
09A62:  BRA    9A7A
....................          delay_ms(100); 
09A64:  MOVLW  64
09A66:  MOVLB  4
09A68:  MOVWF  x2A
09A6A:  MOVLB  0
09A6C:  CALL   1814
....................          if(RIGHT){ 
09A70:  BSF    F93.2
09A72:  BTFSC  F81.2
09A74:  BRA    9A7C
....................             CicloLibre++; 
09A76:  MOVLB  3
09A78:  INCF   x3D,F
09A7A:  MOVLB  0
....................          } 
....................       }       
....................        
....................       if(CicloLibre<1) 
09A7C:  MOVLB  3
09A7E:  MOVF   x3D,F
09A80:  BNZ   9A86
....................          CicloLibre=1; 
09A82:  MOVLW  01
09A84:  MOVWF  x3D
....................       if(CicloLibre>6) 
09A86:  MOVF   x3D,W
09A88:  SUBLW  06
09A8A:  BC    9A90
....................          CicloLibre=6; 
09A8C:  MOVLW  06
09A8E:  MOVWF  x3D
....................        
....................       if(RX_Buffer[4]==0xa0 || LEFT){//a0, Menu Principal 
09A90:  MOVF   34,W
09A92:  SUBLW  A0
09A94:  BZ    9A9C
09A96:  BSF    F93.3
09A98:  BTFSC  F81.3
09A9A:  BRA    9AD4
....................          delay_ms(100); 
09A9C:  MOVLW  64
09A9E:  MOVLB  4
09AA0:  MOVWF  x2A
09AA2:  MOVLB  0
09AA4:  CALL   1814
....................          if(RX_Buffer[4]==0xa0 || LEFT){ 
09AA8:  MOVF   34,W
09AAA:  SUBLW  A0
09AAC:  BZ    9AB4
09AAE:  BSF    F93.3
09AB0:  BTFSC  F81.3
09AB2:  BRA    9AD2
....................             printf("page MenuPrincipal"); 
09AB4:  MOVLW  78
09AB6:  MOVWF  FF6
09AB8:  MOVLW  0F
09ABA:  MOVWF  FF7
09ABC:  MOVLW  00
09ABE:  MOVWF  FF8
09AC0:  CALL   3580
....................             SendDataDisplay();      
09AC4:  CALL   35B2
....................             PantallaPrincipal=0; 
09AC8:  MOVLB  2
09ACA:  CLRF   xD3
....................             Op=OFF; 
09ACC:  MOVLB  0
09ACE:  BCF    xA2.0
....................             Op2=OFF; 
09AD0:  BCF    xA2.1
09AD2:  MOVLB  3
....................          } 
....................       } 
....................        
....................       if(RX_Buffer[4]==0x20 && CicloLibre>0){//20, Temperatura 
09AD4:  MOVF   34,W
09AD6:  SUBLW  20
09AD8:  BNZ   9B16
09ADA:  MOVF   x3D,F
09ADC:  BZ    9B16
....................             printf("page Temperatura"); 
09ADE:  MOVLW  8C
09AE0:  MOVWF  FF6
09AE2:  MOVLW  0F
09AE4:  MOVWF  FF7
09AE6:  MOVLW  00
09AE8:  MOVWF  FF8
09AEA:  MOVLB  0
09AEC:  CALL   3580
....................             SendDataDisplay();      
09AF0:  CALL   35B2
....................             Setpoint=CiclosPersonalizados[CicloLibre-1].Temperatura; 
09AF4:  MOVLW  01
09AF6:  MOVLB  3
09AF8:  SUBWF  x3D,W
09AFA:  MULLW  0A
09AFC:  MOVF   FF3,W
09AFE:  MOVLB  4
09B00:  CLRF   x16
09B02:  MOVWF  x15
09B04:  MOVLW  B1
09B06:  ADDWF  x15,W
09B08:  MOVWF  FE9
09B0A:  MOVLW  03
09B0C:  ADDWFC x16,W
09B0E:  MOVWF  FEA
09B10:  MOVFF  FEF,350
09B14:  MOVLB  3
....................       } 
....................        
....................       if(RX_Buffer[4]==0x30 && CicloLibre>0){//30, Test 
09B16:  MOVF   34,W
09B18:  SUBLW  30
09B1A:  BTFSS  FD8.2
09B1C:  BRA    9C38
09B1E:  MOVF   x3D,F
09B20:  BTFSC  FD8.2
09B22:  BRA    9C38
....................             printf("page TiempoEst"); 
09B24:  MOVLW  9E
09B26:  MOVWF  FF6
09B28:  MOVLW  0F
09B2A:  MOVWF  FF7
09B2C:  MOVLW  00
09B2E:  MOVWF  FF8
09B30:  MOVLB  0
09B32:  CALL   3580
....................             SendDataDisplay();      
09B36:  CALL   35B2
....................             Testerilizacionp[3]=CiclosPersonalizados[CicloLibre-1].Minutoest/10; 
09B3A:  MOVLW  01
09B3C:  MOVLB  3
09B3E:  SUBWF  x3D,W
09B40:  MULLW  0A
09B42:  MOVF   FF3,W
09B44:  MOVLB  4
09B46:  CLRF   x16
09B48:  MOVWF  x15
09B4A:  MOVLW  09
09B4C:  ADDWF  x15,W
09B4E:  MOVWF  01
09B50:  MOVLW  00
09B52:  ADDWFC x16,W
09B54:  MOVWF  03
09B56:  MOVF   01,W
09B58:  ADDLW  B1
09B5A:  MOVWF  FE9
09B5C:  MOVLW  03
09B5E:  ADDWFC 03,W
09B60:  MOVWF  FEA
09B62:  MOVFF  FEF,41F
09B66:  MOVLW  0A
09B68:  MOVWF  x20
09B6A:  MOVLB  0
09B6C:  CALL   44AC
09B70:  MOVFF  01,BB
....................             Testerilizacionp[2]=CiclosPersonalizados[CicloLibre-1].Minutoest-(Testerilizacionp[3]*10); 
09B74:  MOVLW  01
09B76:  MOVLB  3
09B78:  SUBWF  x3D,W
09B7A:  MULLW  0A
09B7C:  MOVF   FF3,W
09B7E:  MOVLB  4
09B80:  CLRF   x16
09B82:  MOVWF  x15
09B84:  MOVLW  09
09B86:  ADDWF  x15,W
09B88:  MOVWF  01
09B8A:  MOVLW  00
09B8C:  ADDWFC x16,W
09B8E:  MOVWF  03
09B90:  MOVF   01,W
09B92:  ADDLW  B1
09B94:  MOVWF  FE9
09B96:  MOVLW  03
09B98:  ADDWFC 03,W
09B9A:  MOVWF  FEA
09B9C:  MOVFF  FEF,415
09BA0:  MOVFF  BB,417
09BA4:  MOVLW  0A
09BA6:  MOVWF  x18
09BA8:  MOVLB  0
09BAA:  CALL   2B10
09BAE:  MOVF   01,W
09BB0:  MOVLB  4
09BB2:  SUBWF  x15,W
09BB4:  MOVLB  0
09BB6:  MOVWF  xBA
....................             Testerilizacionp[1]=CiclosPersonalizados[CicloLibre-1].Segundoest/10; 
09BB8:  MOVLW  01
09BBA:  MOVLB  3
09BBC:  SUBWF  x3D,W
09BBE:  MULLW  0A
09BC0:  MOVF   FF3,W
09BC2:  MOVLB  4
09BC4:  CLRF   x16
09BC6:  MOVWF  x15
09BC8:  MOVLW  03
09BCA:  ADDWF  x15,W
09BCC:  MOVWF  01
09BCE:  MOVLW  00
09BD0:  ADDWFC x16,W
09BD2:  MOVWF  03
09BD4:  MOVF   01,W
09BD6:  ADDLW  B1
09BD8:  MOVWF  FE9
09BDA:  MOVLW  03
09BDC:  ADDWFC 03,W
09BDE:  MOVWF  FEA
09BE0:  MOVFF  FEF,41F
09BE4:  MOVLW  0A
09BE6:  MOVWF  x20
09BE8:  MOVLB  0
09BEA:  CALL   44AC
09BEE:  MOVFF  01,B9
....................             Testerilizacionp[0]=CiclosPersonalizados[CicloLibre-1].Segundoest-(Testerilizacionp[1]*10); 
09BF2:  MOVLW  01
09BF4:  MOVLB  3
09BF6:  SUBWF  x3D,W
09BF8:  MULLW  0A
09BFA:  MOVF   FF3,W
09BFC:  MOVLB  4
09BFE:  CLRF   x16
09C00:  MOVWF  x15
09C02:  MOVLW  03
09C04:  ADDWF  x15,W
09C06:  MOVWF  01
09C08:  MOVLW  00
09C0A:  ADDWFC x16,W
09C0C:  MOVWF  03
09C0E:  MOVF   01,W
09C10:  ADDLW  B1
09C12:  MOVWF  FE9
09C14:  MOVLW  03
09C16:  ADDWFC 03,W
09C18:  MOVWF  FEA
09C1A:  MOVFF  FEF,415
09C1E:  MOVFF  B9,417
09C22:  MOVLW  0A
09C24:  MOVWF  x18
09C26:  MOVLB  0
09C28:  CALL   2B10
09C2C:  MOVF   01,W
09C2E:  MOVLB  4
09C30:  SUBWF  x15,W
09C32:  MOVLB  0
09C34:  MOVWF  xB8
09C36:  MOVLB  3
....................       } 
....................        
....................       if(RX_Buffer[4]==0x40 && CicloLibre>0){//30, Test 
09C38:  MOVF   34,W
09C3A:  SUBLW  40
09C3C:  BTFSS  FD8.2
09C3E:  BRA    9D5A
09C40:  MOVF   x3D,F
09C42:  BTFSC  FD8.2
09C44:  BRA    9D5A
....................             printf("page TiempoSec"); 
09C46:  MOVLW  AE
09C48:  MOVWF  FF6
09C4A:  MOVLW  0F
09C4C:  MOVWF  FF7
09C4E:  MOVLW  00
09C50:  MOVWF  FF8
09C52:  MOVLB  0
09C54:  CALL   3580
....................             SendDataDisplay();      
09C58:  CALL   35B2
....................             Tsecadop[3]=CiclosPersonalizados[CicloLibre-1].Minutosec/10; 
09C5C:  MOVLW  01
09C5E:  MOVLB  3
09C60:  SUBWF  x3D,W
09C62:  MULLW  0A
09C64:  MOVF   FF3,W
09C66:  MOVLB  4
09C68:  CLRF   x16
09C6A:  MOVWF  x15
09C6C:  MOVLW  04
09C6E:  ADDWF  x15,W
09C70:  MOVWF  01
09C72:  MOVLW  00
09C74:  ADDWFC x16,W
09C76:  MOVWF  03
09C78:  MOVF   01,W
09C7A:  ADDLW  B1
09C7C:  MOVWF  FE9
09C7E:  MOVLW  03
09C80:  ADDWFC 03,W
09C82:  MOVWF  FEA
09C84:  MOVFF  FEF,41F
09C88:  MOVLW  0A
09C8A:  MOVWF  x20
09C8C:  MOVLB  0
09C8E:  CALL   44AC
09C92:  MOVFF  01,C4
....................             Tsecadop[2]=CiclosPersonalizados[CicloLibre-1].Minutosec-(Tsecadop[3]*10); 
09C96:  MOVLW  01
09C98:  MOVLB  3
09C9A:  SUBWF  x3D,W
09C9C:  MULLW  0A
09C9E:  MOVF   FF3,W
09CA0:  MOVLB  4
09CA2:  CLRF   x16
09CA4:  MOVWF  x15
09CA6:  MOVLW  04
09CA8:  ADDWF  x15,W
09CAA:  MOVWF  01
09CAC:  MOVLW  00
09CAE:  ADDWFC x16,W
09CB0:  MOVWF  03
09CB2:  MOVF   01,W
09CB4:  ADDLW  B1
09CB6:  MOVWF  FE9
09CB8:  MOVLW  03
09CBA:  ADDWFC 03,W
09CBC:  MOVWF  FEA
09CBE:  MOVFF  FEF,415
09CC2:  MOVFF  C4,417
09CC6:  MOVLW  0A
09CC8:  MOVWF  x18
09CCA:  MOVLB  0
09CCC:  CALL   2B10
09CD0:  MOVF   01,W
09CD2:  MOVLB  4
09CD4:  SUBWF  x15,W
09CD6:  MOVLB  0
09CD8:  MOVWF  xC3
....................             Tsecadop[1]=CiclosPersonalizados[CicloLibre-1].Segundosec/10; 
09CDA:  MOVLW  01
09CDC:  MOVLB  3
09CDE:  SUBWF  x3D,W
09CE0:  MULLW  0A
09CE2:  MOVF   FF3,W
09CE4:  MOVLB  4
09CE6:  CLRF   x16
09CE8:  MOVWF  x15
09CEA:  MOVLW  05
09CEC:  ADDWF  x15,W
09CEE:  MOVWF  01
09CF0:  MOVLW  00
09CF2:  ADDWFC x16,W
09CF4:  MOVWF  03
09CF6:  MOVF   01,W
09CF8:  ADDLW  B1
09CFA:  MOVWF  FE9
09CFC:  MOVLW  03
09CFE:  ADDWFC 03,W
09D00:  MOVWF  FEA
09D02:  MOVFF  FEF,41F
09D06:  MOVLW  0A
09D08:  MOVWF  x20
09D0A:  MOVLB  0
09D0C:  CALL   44AC
09D10:  MOVFF  01,C2
....................             Tsecadop[0]=CiclosPersonalizados[CicloLibre-1].Segundosec-(Tsecadop[1]*10); 
09D14:  MOVLW  01
09D16:  MOVLB  3
09D18:  SUBWF  x3D,W
09D1A:  MULLW  0A
09D1C:  MOVF   FF3,W
09D1E:  MOVLB  4
09D20:  CLRF   x16
09D22:  MOVWF  x15
09D24:  MOVLW  05
09D26:  ADDWF  x15,W
09D28:  MOVWF  01
09D2A:  MOVLW  00
09D2C:  ADDWFC x16,W
09D2E:  MOVWF  03
09D30:  MOVF   01,W
09D32:  ADDLW  B1
09D34:  MOVWF  FE9
09D36:  MOVLW  03
09D38:  ADDWFC 03,W
09D3A:  MOVWF  FEA
09D3C:  MOVFF  FEF,415
09D40:  MOVFF  C2,417
09D44:  MOVLW  0A
09D46:  MOVWF  x18
09D48:  MOVLB  0
09D4A:  CALL   2B10
09D4E:  MOVF   01,W
09D50:  MOVLB  4
09D52:  SUBWF  x15,W
09D54:  MOVLB  0
09D56:  MOVWF  xC1
09D58:  MOVLB  3
....................       } 
....................        
....................       if(RX_Buffer[4]==0x80 && CicloLibre>0){//80, NivelDesfogue          
09D5A:  MOVF   34,W
09D5C:  SUBLW  80
09D5E:  BNZ   9DAE
09D60:  MOVF   x3D,F
09D62:  BZ    9DAE
....................             printf("page Nivel"); 
09D64:  MOVLW  BE
09D66:  MOVWF  FF6
09D68:  MOVLW  0F
09D6A:  MOVWF  FF7
09D6C:  MOVLW  00
09D6E:  MOVWF  FF8
09D70:  MOVLB  0
09D72:  CALL   3580
....................             SendDataDisplay();      
09D76:  CALL   35B2
....................             Nivel=CiclosPersonalizados[CicloLibre-1].NivelDesfogue;          
09D7A:  MOVLW  01
09D7C:  MOVLB  3
09D7E:  SUBWF  x3D,W
09D80:  MULLW  0A
09D82:  MOVF   FF3,W
09D84:  MOVLB  4
09D86:  CLRF   x16
09D88:  MOVWF  x15
09D8A:  MOVLW  08
09D8C:  ADDWF  x15,W
09D8E:  MOVWF  01
09D90:  MOVLW  00
09D92:  ADDWFC x16,W
09D94:  MOVWF  03
09D96:  MOVF   01,W
09D98:  ADDLW  B1
09D9A:  MOVWF  FE9
09D9C:  MOVLW  03
09D9E:  ADDWFC 03,W
09DA0:  MOVWF  FEA
09DA2:  MOVF   FEF,W
09DA4:  CLRF   03
09DA6:  MOVLB  3
09DA8:  MOVWF  x5E
09DAA:  MOVFF  03,35F
....................       } 
....................        
....................       if((RX_Buffer[4]==0x70 || UP)&& CicloLibre>0){//70, Iniciar Ciclo 
09DAE:  MOVF   34,W
09DB0:  SUBLW  70
09DB2:  BZ    9DBA
09DB4:  BSF    F93.0
09DB6:  BTFSC  F81.0
09DB8:  BRA    A2D0
09DBA:  MOVF   x3D,F
09DBC:  BTFSC  FD8.2
09DBE:  BRA    A2D0
....................          delay_ms(100); 
09DC0:  MOVLW  64
09DC2:  MOVLB  4
09DC4:  MOVWF  x2A
09DC6:  MOVLB  0
09DC8:  CALL   1814
....................          if((RX_Buffer[4]==0x70 || UP)&& CicloLibre>0){ 
09DCC:  MOVF   34,W
09DCE:  SUBLW  70
09DD0:  BZ    9DD8
09DD2:  BSF    F93.0
09DD4:  BTFSC  F81.0
09DD6:  BRA    A2CE
09DD8:  MOVLB  3
09DDA:  MOVF   x3D,F
09DDC:  BTFSS  FD8.2
09DDE:  BRA    9DE4
09DE0:  MOVLB  0
09DE2:  BRA    A2CE
....................             printf("page Funcionamiento"); 
09DE4:  MOVLW  CA
09DE6:  MOVWF  FF6
09DE8:  MOVLW  0F
09DEA:  MOVWF  FF7
09DEC:  MOVLW  00
09DEE:  MOVWF  FF8
09DF0:  MOVLB  0
09DF2:  CALL   3580
....................             SendDataDisplay();        
09DF6:  CALL   35B2
....................             Libre=ON; 
09DFA:  BSF    xA3.4
....................             if(CiclosPersonalizados[CicloLibre-1].NivelDesfogue>5){ 
09DFC:  MOVLW  01
09DFE:  MOVLB  3
09E00:  SUBWF  x3D,W
09E02:  MULLW  0A
09E04:  MOVF   FF3,W
09E06:  MOVLB  4
09E08:  CLRF   x16
09E0A:  MOVWF  x15
09E0C:  MOVLW  08
09E0E:  ADDWF  x15,W
09E10:  MOVWF  01
09E12:  MOVLW  00
09E14:  ADDWFC x16,W
09E16:  MOVWF  03
09E18:  MOVF   01,W
09E1A:  ADDLW  B1
09E1C:  MOVWF  FE9
09E1E:  MOVLW  03
09E20:  ADDWFC 03,W
09E22:  MOVWF  FEA
09E24:  MOVF   FEF,W
09E26:  SUBLW  05
09E28:  BTFSC  FD8.0
09E2A:  BRA    A05A
....................                ConfiguraCiclo(extraeDecima(CiclosPersonalizados[CicloLibre-1].Segundoest), 
....................                            CiclosPersonalizados[CicloLibre-1].Segundoest/10, 
....................                            extraeDecima(CiclosPersonalizados[CicloLibre-1].Minutoest), 
....................                            CiclosPersonalizados[CicloLibre-1].Minutoest/10, 
....................                            extraeDecima(CiclosPersonalizados[CicloLibre-1].Segundosec), 
....................                            CiclosPersonalizados[CicloLibre-1].Segundosec/10, 
....................                            extraeDecima(CiclosPersonalizados[CicloLibre-1].Minutosec), 
....................                            CiclosPersonalizados[CicloLibre-1].Minutosec/10,0,CicloLibre+10,CiclosPersonalizados[CicloLibre-1].Temperatura);             
09E2C:  MOVLW  01
09E2E:  MOVLB  3
09E30:  SUBWF  x3D,W
09E32:  MULLW  0A
09E34:  MOVF   FF3,W
09E36:  MOVLB  4
09E38:  CLRF   x16
09E3A:  MOVWF  x15
09E3C:  MOVLW  03
09E3E:  ADDWF  x15,W
09E40:  MOVWF  01
09E42:  MOVLW  00
09E44:  ADDWFC x16,W
09E46:  MOVWF  03
09E48:  MOVF   01,W
09E4A:  ADDLW  B1
09E4C:  MOVWF  FE9
09E4E:  MOVLW  03
09E50:  ADDWFC 03,W
09E52:  MOVWF  FEA
09E54:  MOVFF  FEF,415
09E58:  MOVFF  415,41C
09E5C:  MOVLB  0
09E5E:  CALL   4B02
09E62:  MOVFF  01,415
09E66:  MOVLW  01
09E68:  MOVLB  3
09E6A:  SUBWF  x3D,W
09E6C:  MULLW  0A
09E6E:  MOVF   FF3,W
09E70:  MOVLB  4
09E72:  CLRF   x17
09E74:  MOVWF  x16
09E76:  MOVLW  03
09E78:  ADDWF  x16,W
09E7A:  MOVWF  01
09E7C:  MOVLW  00
09E7E:  ADDWFC x17,W
09E80:  MOVWF  03
09E82:  MOVF   01,W
09E84:  ADDLW  B1
09E86:  MOVWF  FE9
09E88:  MOVLW  03
09E8A:  ADDWFC 03,W
09E8C:  MOVWF  FEA
09E8E:  MOVFF  FEF,41F
09E92:  MOVLW  0A
09E94:  MOVWF  x20
09E96:  MOVLB  0
09E98:  CALL   44AC
09E9C:  MOVFF  01,416
09EA0:  MOVLW  01
09EA2:  MOVLB  3
09EA4:  SUBWF  x3D,W
09EA6:  MULLW  0A
09EA8:  MOVF   FF3,W
09EAA:  MOVLB  4
09EAC:  CLRF   x18
09EAE:  MOVWF  x17
09EB0:  MOVLW  09
09EB2:  ADDWF  x17,W
09EB4:  MOVWF  01
09EB6:  MOVLW  00
09EB8:  ADDWFC x18,W
09EBA:  MOVWF  03
09EBC:  MOVF   01,W
09EBE:  ADDLW  B1
09EC0:  MOVWF  FE9
09EC2:  MOVLW  03
09EC4:  ADDWFC 03,W
09EC6:  MOVWF  FEA
09EC8:  MOVFF  FEF,417
09ECC:  MOVFF  417,41C
09ED0:  MOVLB  0
09ED2:  CALL   4B02
09ED6:  MOVFF  01,417
09EDA:  MOVLW  01
09EDC:  MOVLB  3
09EDE:  SUBWF  x3D,W
09EE0:  MULLW  0A
09EE2:  MOVF   FF3,W
09EE4:  MOVLB  4
09EE6:  CLRF   x19
09EE8:  MOVWF  x18
09EEA:  MOVLW  09
09EEC:  ADDWF  x18,W
09EEE:  MOVWF  01
09EF0:  MOVLW  00
09EF2:  ADDWFC x19,W
09EF4:  MOVWF  03
09EF6:  MOVF   01,W
09EF8:  ADDLW  B1
09EFA:  MOVWF  FE9
09EFC:  MOVLW  03
09EFE:  ADDWFC 03,W
09F00:  MOVWF  FEA
09F02:  MOVFF  FEF,41F
09F06:  MOVLW  0A
09F08:  MOVWF  x20
09F0A:  MOVLB  0
09F0C:  CALL   44AC
09F10:  MOVFF  01,418
09F14:  MOVLW  01
09F16:  MOVLB  3
09F18:  SUBWF  x3D,W
09F1A:  MULLW  0A
09F1C:  MOVF   FF3,W
09F1E:  MOVLB  4
09F20:  CLRF   x1A
09F22:  MOVWF  x19
09F24:  MOVLW  05
09F26:  ADDWF  x19,W
09F28:  MOVWF  01
09F2A:  MOVLW  00
09F2C:  ADDWFC x1A,W
09F2E:  MOVWF  03
09F30:  MOVF   01,W
09F32:  ADDLW  B1
09F34:  MOVWF  FE9
09F36:  MOVLW  03
09F38:  ADDWFC 03,W
09F3A:  MOVWF  FEA
09F3C:  MOVFF  FEF,419
09F40:  MOVFF  419,41C
09F44:  MOVLB  0
09F46:  CALL   4B02
09F4A:  MOVFF  01,419
09F4E:  MOVLW  01
09F50:  MOVLB  3
09F52:  SUBWF  x3D,W
09F54:  MULLW  0A
09F56:  MOVF   FF3,W
09F58:  MOVLB  4
09F5A:  CLRF   x1B
09F5C:  MOVWF  x1A
09F5E:  MOVLW  05
09F60:  ADDWF  x1A,W
09F62:  MOVWF  01
09F64:  MOVLW  00
09F66:  ADDWFC x1B,W
09F68:  MOVWF  03
09F6A:  MOVF   01,W
09F6C:  ADDLW  B1
09F6E:  MOVWF  FE9
09F70:  MOVLW  03
09F72:  ADDWFC 03,W
09F74:  MOVWF  FEA
09F76:  MOVFF  FEF,41F
09F7A:  MOVLW  0A
09F7C:  MOVWF  x20
09F7E:  MOVLB  0
09F80:  CALL   44AC
09F84:  MOVFF  01,41A
09F88:  MOVLW  01
09F8A:  MOVLB  3
09F8C:  SUBWF  x3D,W
09F8E:  MULLW  0A
09F90:  MOVF   FF3,W
09F92:  MOVLB  4
09F94:  CLRF   x1C
09F96:  MOVWF  x1B
09F98:  MOVLW  04
09F9A:  ADDWF  x1B,W
09F9C:  MOVWF  01
09F9E:  MOVLW  00
09FA0:  ADDWFC x1C,W
09FA2:  MOVWF  03
09FA4:  MOVF   01,W
09FA6:  ADDLW  B1
09FA8:  MOVWF  FE9
09FAA:  MOVLW  03
09FAC:  ADDWFC 03,W
09FAE:  MOVWF  FEA
09FB0:  MOVFF  FEF,41B
09FB4:  MOVFF  41B,41C
09FB8:  MOVLB  0
09FBA:  CALL   4B02
09FBE:  MOVFF  01,41B
09FC2:  MOVLW  01
09FC4:  MOVLB  3
09FC6:  SUBWF  x3D,W
09FC8:  MULLW  0A
09FCA:  MOVF   FF3,W
09FCC:  MOVLB  4
09FCE:  CLRF   x1D
09FD0:  MOVWF  x1C
09FD2:  MOVLW  04
09FD4:  ADDWF  x1C,W
09FD6:  MOVWF  01
09FD8:  MOVLW  00
09FDA:  ADDWFC x1D,W
09FDC:  MOVWF  03
09FDE:  MOVF   01,W
09FE0:  ADDLW  B1
09FE2:  MOVWF  FE9
09FE4:  MOVLW  03
09FE6:  ADDWFC 03,W
09FE8:  MOVWF  FEA
09FEA:  MOVFF  FEF,41F
09FEE:  MOVLW  0A
09FF0:  MOVWF  x20
09FF2:  MOVLB  0
09FF4:  CALL   44AC
09FF8:  MOVFF  01,41C
09FFC:  MOVLW  0A
09FFE:  MOVLB  3
0A000:  ADDWF  x3D,W
0A002:  MOVLB  4
0A004:  MOVWF  x1D
0A006:  MOVLW  01
0A008:  MOVLB  3
0A00A:  SUBWF  x3D,W
0A00C:  MULLW  0A
0A00E:  MOVF   FF3,W
0A010:  MOVLB  4
0A012:  CLRF   x1F
0A014:  MOVWF  x1E
0A016:  MOVLW  B1
0A018:  ADDWF  x1E,W
0A01A:  MOVWF  FE9
0A01C:  MOVLW  03
0A01E:  ADDWFC x1F,W
0A020:  MOVWF  FEA
0A022:  MOVFF  FEF,41E
0A026:  MOVFF  415,41F
0A02A:  MOVFF  416,420
0A02E:  MOVFF  417,421
0A032:  MOVFF  418,422
0A036:  MOVFF  419,423
0A03A:  MOVFF  41A,424
0A03E:  MOVFF  41B,425
0A042:  MOVFF  01,426
0A046:  CLRF   x27
0A048:  MOVFF  41D,428
0A04C:  MOVFF  41E,429
0A050:  MOVLB  0
0A052:  CALL   4556
....................             }else{ 
0A056:  BRA    A2CE
0A058:  MOVLB  4
....................                ConfiguraCiclo(extraeDecima(CiclosPersonalizados[CicloLibre-1].Segundoest), 
....................                            CiclosPersonalizados[CicloLibre-1].Segundoest/10, 
....................                            extraeDecima(CiclosPersonalizados[CicloLibre-1].Minutoest), 
....................                            CiclosPersonalizados[CicloLibre-1].Minutoest/10, 
....................                            extraeDecima(CiclosPersonalizados[CicloLibre-1].Segundosec), 
....................                            CiclosPersonalizados[CicloLibre-1].Segundosec/10, 
....................                            extraeDecima(CiclosPersonalizados[CicloLibre-1].Minutosec), 
....................                            CiclosPersonalizados[CicloLibre-1].Minutosec/10,1,CicloLibre+10,CiclosPersonalizados[CicloLibre-1].Temperatura);             
0A05A:  MOVLW  01
0A05C:  MOVLB  3
0A05E:  SUBWF  x3D,W
0A060:  MULLW  0A
0A062:  MOVF   FF3,W
0A064:  MOVLB  4
0A066:  CLRF   x16
0A068:  MOVWF  x15
0A06A:  MOVLW  03
0A06C:  ADDWF  x15,W
0A06E:  MOVWF  01
0A070:  MOVLW  00
0A072:  ADDWFC x16,W
0A074:  MOVWF  03
0A076:  MOVF   01,W
0A078:  ADDLW  B1
0A07A:  MOVWF  FE9
0A07C:  MOVLW  03
0A07E:  ADDWFC 03,W
0A080:  MOVWF  FEA
0A082:  MOVFF  FEF,415
0A086:  MOVFF  415,41C
0A08A:  MOVLB  0
0A08C:  CALL   4B02
0A090:  MOVFF  01,415
0A094:  MOVLW  01
0A096:  MOVLB  3
0A098:  SUBWF  x3D,W
0A09A:  MULLW  0A
0A09C:  MOVF   FF3,W
0A09E:  MOVLB  4
0A0A0:  CLRF   x17
0A0A2:  MOVWF  x16
0A0A4:  MOVLW  03
0A0A6:  ADDWF  x16,W
0A0A8:  MOVWF  01
0A0AA:  MOVLW  00
0A0AC:  ADDWFC x17,W
0A0AE:  MOVWF  03
0A0B0:  MOVF   01,W
0A0B2:  ADDLW  B1
0A0B4:  MOVWF  FE9
0A0B6:  MOVLW  03
0A0B8:  ADDWFC 03,W
0A0BA:  MOVWF  FEA
0A0BC:  MOVFF  FEF,41F
0A0C0:  MOVLW  0A
0A0C2:  MOVWF  x20
0A0C4:  MOVLB  0
0A0C6:  CALL   44AC
0A0CA:  MOVFF  01,416
0A0CE:  MOVLW  01
0A0D0:  MOVLB  3
0A0D2:  SUBWF  x3D,W
0A0D4:  MULLW  0A
0A0D6:  MOVF   FF3,W
0A0D8:  MOVLB  4
0A0DA:  CLRF   x18
0A0DC:  MOVWF  x17
0A0DE:  MOVLW  09
0A0E0:  ADDWF  x17,W
0A0E2:  MOVWF  01
0A0E4:  MOVLW  00
0A0E6:  ADDWFC x18,W
0A0E8:  MOVWF  03
0A0EA:  MOVF   01,W
0A0EC:  ADDLW  B1
0A0EE:  MOVWF  FE9
0A0F0:  MOVLW  03
0A0F2:  ADDWFC 03,W
0A0F4:  MOVWF  FEA
0A0F6:  MOVFF  FEF,417
0A0FA:  MOVFF  417,41C
0A0FE:  MOVLB  0
0A100:  CALL   4B02
0A104:  MOVFF  01,417
0A108:  MOVLW  01
0A10A:  MOVLB  3
0A10C:  SUBWF  x3D,W
0A10E:  MULLW  0A
0A110:  MOVF   FF3,W
0A112:  MOVLB  4
0A114:  CLRF   x19
0A116:  MOVWF  x18
0A118:  MOVLW  09
0A11A:  ADDWF  x18,W
0A11C:  MOVWF  01
0A11E:  MOVLW  00
0A120:  ADDWFC x19,W
0A122:  MOVWF  03
0A124:  MOVF   01,W
0A126:  ADDLW  B1
0A128:  MOVWF  FE9
0A12A:  MOVLW  03
0A12C:  ADDWFC 03,W
0A12E:  MOVWF  FEA
0A130:  MOVFF  FEF,41F
0A134:  MOVLW  0A
0A136:  MOVWF  x20
0A138:  MOVLB  0
0A13A:  CALL   44AC
0A13E:  MOVFF  01,418
0A142:  MOVLW  01
0A144:  MOVLB  3
0A146:  SUBWF  x3D,W
0A148:  MULLW  0A
0A14A:  MOVF   FF3,W
0A14C:  MOVLB  4
0A14E:  CLRF   x1A
0A150:  MOVWF  x19
0A152:  MOVLW  05
0A154:  ADDWF  x19,W
0A156:  MOVWF  01
0A158:  MOVLW  00
0A15A:  ADDWFC x1A,W
0A15C:  MOVWF  03
0A15E:  MOVF   01,W
0A160:  ADDLW  B1
0A162:  MOVWF  FE9
0A164:  MOVLW  03
0A166:  ADDWFC 03,W
0A168:  MOVWF  FEA
0A16A:  MOVFF  FEF,419
0A16E:  MOVFF  419,41C
0A172:  MOVLB  0
0A174:  CALL   4B02
0A178:  MOVFF  01,419
0A17C:  MOVLW  01
0A17E:  MOVLB  3
0A180:  SUBWF  x3D,W
0A182:  MULLW  0A
0A184:  MOVF   FF3,W
0A186:  MOVLB  4
0A188:  CLRF   x1B
0A18A:  MOVWF  x1A
0A18C:  MOVLW  05
0A18E:  ADDWF  x1A,W
0A190:  MOVWF  01
0A192:  MOVLW  00
0A194:  ADDWFC x1B,W
0A196:  MOVWF  03
0A198:  MOVF   01,W
0A19A:  ADDLW  B1
0A19C:  MOVWF  FE9
0A19E:  MOVLW  03
0A1A0:  ADDWFC 03,W
0A1A2:  MOVWF  FEA
0A1A4:  MOVFF  FEF,41F
0A1A8:  MOVLW  0A
0A1AA:  MOVWF  x20
0A1AC:  MOVLB  0
0A1AE:  CALL   44AC
0A1B2:  MOVFF  01,41A
0A1B6:  MOVLW  01
0A1B8:  MOVLB  3
0A1BA:  SUBWF  x3D,W
0A1BC:  MULLW  0A
0A1BE:  MOVF   FF3,W
0A1C0:  MOVLB  4
0A1C2:  CLRF   x1C
0A1C4:  MOVWF  x1B
0A1C6:  MOVLW  04
0A1C8:  ADDWF  x1B,W
0A1CA:  MOVWF  01
0A1CC:  MOVLW  00
0A1CE:  ADDWFC x1C,W
0A1D0:  MOVWF  03
0A1D2:  MOVF   01,W
0A1D4:  ADDLW  B1
0A1D6:  MOVWF  FE9
0A1D8:  MOVLW  03
0A1DA:  ADDWFC 03,W
0A1DC:  MOVWF  FEA
0A1DE:  MOVFF  FEF,41B
0A1E2:  MOVFF  41B,41C
0A1E6:  MOVLB  0
0A1E8:  CALL   4B02
0A1EC:  MOVFF  01,41B
0A1F0:  MOVLW  01
0A1F2:  MOVLB  3
0A1F4:  SUBWF  x3D,W
0A1F6:  MULLW  0A
0A1F8:  MOVF   FF3,W
0A1FA:  MOVLB  4
0A1FC:  CLRF   x1D
0A1FE:  MOVWF  x1C
0A200:  MOVLW  04
0A202:  ADDWF  x1C,W
0A204:  MOVWF  01
0A206:  MOVLW  00
0A208:  ADDWFC x1D,W
0A20A:  MOVWF  03
0A20C:  MOVF   01,W
0A20E:  ADDLW  B1
0A210:  MOVWF  FE9
0A212:  MOVLW  03
0A214:  ADDWFC 03,W
0A216:  MOVWF  FEA
0A218:  MOVFF  FEF,41F
0A21C:  MOVLW  0A
0A21E:  MOVWF  x20
0A220:  MOVLB  0
0A222:  CALL   44AC
0A226:  MOVFF  01,41C
0A22A:  MOVLW  0A
0A22C:  MOVLB  3
0A22E:  ADDWF  x3D,W
0A230:  MOVLB  4
0A232:  MOVWF  x1D
0A234:  MOVLW  01
0A236:  MOVLB  3
0A238:  SUBWF  x3D,W
0A23A:  MULLW  0A
0A23C:  MOVF   FF3,W
0A23E:  MOVLB  4
0A240:  CLRF   x1F
0A242:  MOVWF  x1E
0A244:  MOVLW  B1
0A246:  ADDWF  x1E,W
0A248:  MOVWF  FE9
0A24A:  MOVLW  03
0A24C:  ADDWFC x1F,W
0A24E:  MOVWF  FEA
0A250:  MOVFF  FEF,41E
0A254:  MOVFF  415,41F
0A258:  MOVFF  416,420
0A25C:  MOVFF  417,421
0A260:  MOVFF  418,422
0A264:  MOVFF  419,423
0A268:  MOVFF  41A,424
0A26C:  MOVFF  41B,425
0A270:  MOVFF  01,426
0A274:  MOVLW  01
0A276:  MOVWF  x27
0A278:  MOVFF  41D,428
0A27C:  MOVFF  41E,429
0A280:  MOVLB  0
0A282:  CALL   4556
....................                NivelSeleccionado=4995*CiclosPersonalizados[CicloLibre-1].NivelDesfogue; 
0A286:  MOVLW  01
0A288:  MOVLB  3
0A28A:  SUBWF  x3D,W
0A28C:  MULLW  0A
0A28E:  MOVF   FF3,W
0A290:  MOVLB  4
0A292:  CLRF   x16
0A294:  MOVWF  x15
0A296:  MOVLW  08
0A298:  ADDWF  x15,W
0A29A:  MOVWF  01
0A29C:  MOVLW  00
0A29E:  ADDWFC x16,W
0A2A0:  MOVWF  03
0A2A2:  MOVF   01,W
0A2A4:  ADDLW  B1
0A2A6:  MOVWF  FE9
0A2A8:  MOVLW  03
0A2AA:  ADDWFC 03,W
0A2AC:  MOVWF  FEA
0A2AE:  MOVFF  FEF,415
0A2B2:  MOVLW  13
0A2B4:  MOVWF  x1A
0A2B6:  MOVLW  83
0A2B8:  MOVWF  x19
0A2BA:  CLRF   x1C
0A2BC:  MOVFF  415,41B
0A2C0:  MOVLB  0
0A2C2:  CALL   365E
0A2C6:  MOVFF  02,369
0A2CA:  MOVFF  01,368
0A2CE:  MOVLB  3
....................             } 
....................          } 
....................       } 
....................    } 
.................... //_--------------------------------------------------------------------------------------------------------------------------------------------------------        
....................  
.................... //_--------------------------------------------------------------------------------------------------------------------------------------------------------       
....................     if(Menu==15){//Menu de Clave Correcta 
0A2D0:  MOVF   x49,W
0A2D2:  SUBLW  0F
0A2D4:  BNZ   A30C
....................       if(!entro){ 
0A2D6:  MOVLB  0
0A2D8:  BTFSC  xA3.6
0A2DA:  BRA    A2F6
....................          delay_ms(2000); 
0A2DC:  MOVLW  08
0A2DE:  MOVLB  4
0A2E0:  MOVWF  x15
0A2E2:  MOVLW  FA
0A2E4:  MOVWF  x2A
0A2E6:  MOVLB  0
0A2E8:  CALL   1814
0A2EC:  MOVLB  4
0A2EE:  DECFSZ x15,F
0A2F0:  BRA    A2E2
....................          entro=ON; 
0A2F2:  MOVLB  0
0A2F4:  BSF    xA3.6
....................       } 
....................       printf("page MenuPrincipal"); 
0A2F6:  MOVLW  DE
0A2F8:  MOVWF  FF6
0A2FA:  MOVLW  0F
0A2FC:  MOVWF  FF7
0A2FE:  MOVLW  00
0A300:  MOVWF  FF8
0A302:  CALL   3580
....................       SendDataDisplay(); 
0A306:  CALL   35B2
0A30A:  MOVLB  3
....................    } 
.................... //_--------------------------------------------------------------------------------------------------------------------------------------------------------       
....................  
.................... //_--------------------------------------------------------------------------------------------------------------------------------------------------------       
....................     if(Menu==16){//Menu de Clave InCorrecta 
0A30C:  MOVF   x49,W
0A30E:  SUBLW  10
0A310:  BNZ   A348
....................       if(!entro){ 
0A312:  MOVLB  0
0A314:  BTFSC  xA3.6
0A316:  BRA    A332
....................          delay_ms(2000); 
0A318:  MOVLW  08
0A31A:  MOVLB  4
0A31C:  MOVWF  x15
0A31E:  MOVLW  FA
0A320:  MOVWF  x2A
0A322:  MOVLB  0
0A324:  CALL   1814
0A328:  MOVLB  4
0A32A:  DECFSZ x15,F
0A32C:  BRA    A31E
....................          entro=ON; 
0A32E:  MOVLB  0
0A330:  BSF    xA3.6
....................       } 
....................       printf("page Clave"); 
0A332:  MOVLW  F2
0A334:  MOVWF  FF6
0A336:  MOVLW  0F
0A338:  MOVWF  FF7
0A33A:  MOVLW  00
0A33C:  MOVWF  FF8
0A33E:  CALL   3580
....................       SendDataDisplay(); 
0A342:  CALL   35B2
0A346:  MOVLB  3
....................    } 
.................... //_--------------------------------------------------------------------------------------------------------------------------------------------------------       
....................  
.................... //_--------------------------------------------------------------------------------------------------------------------------------------------------------     
....................    if(Menu==20){ // Este es el menu de cuando el proceso se inicio. 
0A348:  MOVF   x49,W
0A34A:  SUBLW  14
0A34C:  BTFSS  FD8.2
0A34E:  GOTO   B21E
....................    //Lectura_Esclavos(); 
....................     
....................    if(!Libre){ 
0A352:  MOVLB  0
0A354:  BTFSC  xA3.4
0A356:  BRA    A3F0
....................       printf("t2f.txt=\"%u\"",CicloSeleccionado); 
0A358:  MOVLW  FE
0A35A:  MOVWF  FF6
0A35C:  MOVLW  0F
0A35E:  MOVWF  FF7
0A360:  MOVLW  00
0A362:  MOVWF  FF8
0A364:  MOVLW  09
0A366:  MOVLB  4
0A368:  MOVWF  x19
0A36A:  MOVLB  0
0A36C:  CALL   447A
0A370:  MOVFF  34F,417
0A374:  MOVLW  1B
0A376:  MOVLB  4
0A378:  MOVWF  x18
0A37A:  MOVLB  0
0A37C:  CALL   44D8
0A380:  MOVLW  22
0A382:  BTFSS  F9E.4
0A384:  BRA    A382
0A386:  MOVWF  FAD
....................       SendDataDisplay(); 
0A388:  CALL   35B2
....................       printf("t3f.txt=\"%s\"",texto[CicloSeleccionado-1]); 
0A38C:  MOVLW  01
0A38E:  MOVLB  3
0A390:  SUBWF  x4F,W
0A392:  MOVLB  4
0A394:  MOVWF  x16
0A396:  CLRF   x1A
0A398:  MOVWF  x19
0A39A:  CLRF   x1C
0A39C:  MOVLW  14
0A39E:  MOVWF  x1B
0A3A0:  MOVLB  0
0A3A2:  CALL   365E
0A3A6:  MOVFF  02,416
0A3AA:  MOVLB  4
0A3AC:  MOVFF  01,415
0A3B0:  MOVLW  0C
0A3B2:  MOVWF  FF6
0A3B4:  MOVLW  10
0A3B6:  MOVWF  FF7
0A3B8:  MOVLW  00
0A3BA:  MOVWF  FF8
0A3BC:  MOVLW  09
0A3BE:  MOVWF  x19
0A3C0:  MOVLB  0
0A3C2:  CALL   447A
0A3C6:  MOVLW  50
0A3C8:  MOVWF  FF6
0A3CA:  MOVLW  01
0A3CC:  MOVWF  FF7
0A3CE:  MOVLW  00
0A3D0:  MOVWF  FF8
0A3D2:  MOVLB  4
0A3D4:  MOVF   x15,W
0A3D6:  ADDWF  FF6,F
0A3D8:  MOVF   x16,W
0A3DA:  ADDWFC FF7,F
0A3DC:  MOVLB  0
0A3DE:  CALL   3580
0A3E2:  MOVLW  22
0A3E4:  BTFSS  F9E.4
0A3E6:  BRA    A3E4
0A3E8:  MOVWF  FAD
....................       SendDataDisplay(); 
0A3EA:  CALL   35B2
....................    }else{ 
0A3EE:  BRA    A440
....................       printf("t2f.txt=\"%u\"",CicloLibre+10); 
0A3F0:  MOVLW  0A
0A3F2:  MOVLB  3
0A3F4:  ADDWF  x3D,W
0A3F6:  MOVLB  4
0A3F8:  MOVWF  x15
0A3FA:  MOVLW  1A
0A3FC:  MOVWF  FF6
0A3FE:  MOVLW  10
0A400:  MOVWF  FF7
0A402:  MOVLW  00
0A404:  MOVWF  FF8
0A406:  MOVLW  09
0A408:  MOVWF  x19
0A40A:  MOVLB  0
0A40C:  CALL   447A
0A410:  MOVFF  415,417
0A414:  MOVLW  1B
0A416:  MOVLB  4
0A418:  MOVWF  x18
0A41A:  MOVLB  0
0A41C:  CALL   44D8
0A420:  MOVLW  22
0A422:  BTFSS  F9E.4
0A424:  BRA    A422
0A426:  MOVWF  FAD
....................       SendDataDisplay(); 
0A428:  CALL   35B2
....................       printf("t3f.txt=\"Personalizado\""); 
0A42C:  MOVLW  28
0A42E:  MOVWF  FF6
0A430:  MOVLW  10
0A432:  MOVWF  FF7
0A434:  MOVLW  00
0A436:  MOVWF  FF8
0A438:  CALL   3580
....................       SendDataDisplay(); 
0A43C:  CALL   35B2
....................    } 
....................     
....................    if(RIGHT){ 
0A440:  BSF    F93.2
0A442:  BTFSC  F81.2
0A444:  BRA    A45C
....................       //glcd_init(ON); 
....................       delay_ms(1000); 
0A446:  MOVLW  04
0A448:  MOVLB  4
0A44A:  MOVWF  x15
0A44C:  MOVLW  FA
0A44E:  MOVWF  x2A
0A450:  MOVLB  0
0A452:  CALL   1814
0A456:  MOVLB  4
0A458:  DECFSZ x15,F
0A45A:  BRA    A44C
....................       /*flagCalentando=OFF; 
....................       flagDesfogando=OFF; 
....................       flagEsterilizando=OFF;*/ 
....................    } 
....................     
....................    if(PresionCamara>275){ 
0A45C:  MOVLB  3
0A45E:  MOVF   x63,W
0A460:  SUBLW  00
0A462:  BC    A472
0A464:  XORLW  FF
0A466:  BNZ   A46E
0A468:  MOVF   x62,W
0A46A:  SUBLW  13
0A46C:  BC    A472
....................       AlarmaPresion=ON; 
0A46E:  MOVLB  0
0A470:  BSF    xA3.3
....................    } 
....................     
....................    if(Temperatura>105 && PresionCamara<10 && !Desfogando){ 
0A472:  MOVLB  4
0A474:  CLRF   x1C
0A476:  CLRF   x1B
0A478:  MOVLW  52
0A47A:  MOVWF  x1A
0A47C:  MOVLW  85
0A47E:  MOVWF  x19
0A480:  MOVFF  31A,420
0A484:  MOVFF  319,41F
0A488:  MOVFF  318,41E
0A48C:  MOVFF  317,41D
0A490:  MOVLB  0
0A492:  CALL   2A96
0A496:  BNC   A4B8
0A498:  MOVLB  3
0A49A:  MOVF   x63,F
0A49C:  BTFSC  FD8.2
0A49E:  BRA    A4A4
0A4A0:  MOVLB  0
0A4A2:  BRA    A4B8
0A4A4:  MOVF   x62,W
0A4A6:  SUBLW  09
0A4A8:  BTFSC  FD8.0
0A4AA:  BRA    A4B0
0A4AC:  MOVLB  0
0A4AE:  BRA    A4B8
0A4B0:  MOVLB  0
0A4B2:  BTFSC  xA0.5
0A4B4:  BRA    A4B8
....................       AlarmaCiclo=ON; 
0A4B6:  BSF    x9F.6
....................    } 
....................     
....................    if(TiempoCiclo>3000){ 
0A4B8:  MOVF   xA6,W
0A4BA:  SUBLW  0A
0A4BC:  BC    A4F0
0A4BE:  XORLW  FF
0A4C0:  BNZ   A4C8
0A4C2:  MOVF   xA5,W
0A4C4:  SUBLW  B8
0A4C6:  BC    A4F0
....................       if(TiempoCiclo>5000) 
0A4C8:  MOVF   xA6,W
0A4CA:  SUBLW  12
0A4CC:  BC    A4DA
0A4CE:  XORLW  FF
0A4D0:  BNZ   A4D8
0A4D2:  MOVF   xA5,W
0A4D4:  SUBLW  88
0A4D6:  BC    A4DA
....................          AlarmaTiempoProlongado=ON; 
0A4D8:  BSF    x9F.0
....................       if(PresionCamara<10){ 
0A4DA:  MOVLB  3
0A4DC:  MOVF   x63,F
0A4DE:  BNZ   A4EC
0A4E0:  MOVF   x62,W
0A4E2:  SUBLW  09
0A4E4:  BNC   A4EC
....................          AlarmaTiempoProlongado=ON; 
0A4E6:  MOVLB  0
0A4E8:  BSF    x9F.0
0A4EA:  MOVLB  3
....................       } 
....................    }else{ 
0A4EC:  BRA    A4F2
0A4EE:  MOVLB  0
....................       AlarmaTiempoProlongado=OFF; 
0A4F0:  BCF    x9F.0
....................    } 
....................     
....................    if(Temperatura>Setpoint+3.0){ 
0A4F2:  MOVLB  4
0A4F4:  CLRF   x2B
0A4F6:  MOVFF  350,42A
0A4FA:  MOVLB  0
0A4FC:  CALL   183C
0A500:  BCF    FD8.1
0A502:  MOVFF  03,42D
0A506:  MOVFF  02,42C
0A50A:  MOVFF  01,42B
0A50E:  MOVFF  00,42A
0A512:  MOVLB  4
0A514:  CLRF   x31
0A516:  CLRF   x30
0A518:  MOVLW  40
0A51A:  MOVWF  x2F
0A51C:  MOVLW  80
0A51E:  MOVWF  x2E
0A520:  MOVLB  0
0A522:  CALL   19D0
0A526:  MOVFF  03,41C
0A52A:  MOVFF  02,41B
0A52E:  MOVFF  01,41A
0A532:  MOVFF  00,419
0A536:  MOVFF  31A,420
0A53A:  MOVFF  319,41F
0A53E:  MOVFF  318,41E
0A542:  MOVFF  317,41D
0A546:  CALL   2A96
0A54A:  BNC   A54E
....................       AlarmaSobreTemperatura=ON; 
0A54C:  BSF    x9F.1
....................    } 
....................     
....................    if(TiempoLlenado>600){ 
0A54E:  MOVF   xA8,W
0A550:  SUBLW  01
0A552:  BC    A562
0A554:  XORLW  FF
0A556:  BNZ   A55E
0A558:  MOVF   xA7,W
0A55A:  SUBLW  58
0A55C:  BC    A562
....................       AlarmaLlenado=ON; 
0A55E:  BSF    x9F.2
....................    }else{ 
0A560:  BRA    A564
....................       AlarmaLlenado=OFF; 
0A562:  BCF    x9F.2
....................    } 
....................     
....................    if(!TERM){ 
0A564:  BSF    F93.5
0A566:  BTFSS  F81.5
0A568:  BRA    A58A
....................       delay_ms(1500); 
0A56A:  MOVLW  06
0A56C:  MOVLB  4
0A56E:  MOVWF  x15
0A570:  MOVLW  FA
0A572:  MOVWF  x2A
0A574:  MOVLB  0
0A576:  CALL   1814
0A57A:  MOVLB  4
0A57C:  DECFSZ x15,F
0A57E:  BRA    A570
....................       if(!TERM){ 
0A580:  BSF    F93.5
0A582:  BTFSS  F81.5
0A584:  BRA    A58C
....................          AlarmaTermostato=ON; 
0A586:  MOVLB  0
0A588:  BSF    x9F.3
0A58A:  MOVLB  4
....................       } 
....................    } 
....................     
....................    if(!DOOR){ 
0A58C:  BSF    F93.6
0A58E:  BTFSS  F81.6
0A590:  BRA    A5B0
....................       //Desfogue_off; 
....................       //Solenoide_off; 
....................       Agua_off; 
0A592:  BCF    F8C.5
0A594:  BCF    F95.5
....................       Bomba_off; 
0A596:  BCF    F8C.6
0A598:  BCF    F95.6
....................       Aire=OFF; 
0A59A:  MOVLB  0
0A59C:  BCF    xA3.7
....................       if(!Secando && !Finalizo && !Desfogando){ 
0A59E:  BTFSC  xA0.3
0A5A0:  BRA    A5AC
0A5A2:  BTFSC  xA3.2
0A5A4:  BRA    A5AC
0A5A6:  BTFSC  xA0.5
0A5A8:  BRA    A5AC
....................          AlarmaPuerta=ON; 
0A5AA:  BSF    x9F.4
....................       } 
....................    }else{ 
0A5AC:  BRA    A5B4
0A5AE:  MOVLB  4
....................       AlarmaPuerta=OFF; 
0A5B0:  MOVLB  0
0A5B2:  BCF    x9F.4
....................    } 
....................  
....................    if(!STOP){ 
0A5B4:  BSF    F93.7
0A5B6:  BTFSS  F81.7
0A5B8:  BRA    A5BC
....................       AlarmaEmergencia=ON; 
0A5BA:  BSF    x9F.5
....................    } 
....................     
....................    if(AlarmaPuerta || AlarmaTermostato || AlarmaLlenado || AlarmaSobreTemperatura || AlarmaTiempoProlongado || AlarmaEmergencia || AlarmaPresion 
....................    || AlarmaCiclo){ 
0A5BC:  BTFSC  x9F.4
0A5BE:  BRA    A5DC
0A5C0:  BTFSC  x9F.3
0A5C2:  BRA    A5DC
0A5C4:  BTFSC  x9F.2
0A5C6:  BRA    A5DC
0A5C8:  BTFSC  x9F.1
0A5CA:  BRA    A5DC
0A5CC:  BTFSC  x9F.0
0A5CE:  BRA    A5DC
0A5D0:  BTFSC  x9F.5
0A5D2:  BRA    A5DC
0A5D4:  BTFSC  xA3.3
0A5D6:  BRA    A5DC
0A5D8:  BTFSS  x9F.6
0A5DA:  BRA    A95E
....................       ActivaAlarma(1); 
0A5DC:  MOVLW  01
0A5DE:  MOVLB  4
0A5E0:  MOVWF  x15
0A5E2:  MOVLB  0
0A5E4:  CALL   4378
....................       if(AlarmaEmergencia){ 
0A5E8:  BTFSS  x9F.5
0A5EA:  BRA    A65C
....................          printf("Funcionamiento.t4f.txt=\" Parada de Emergencia\""); 
0A5EC:  MOVLW  40
0A5EE:  MOVWF  FF6
0A5F0:  MOVLW  10
0A5F2:  MOVWF  FF7
0A5F4:  MOVLW  00
0A5F6:  MOVWF  FF8
0A5F8:  CALL   3580
....................          SendDataDisplay(); 
0A5FC:  CALL   35B2
....................          printf("Funcionamiento.t5f.txt=\" Cancelado\""); 
0A600:  MOVLW  70
0A602:  MOVWF  FF6
0A604:  MOVLW  10
0A606:  MOVWF  FF7
0A608:  MOVLW  00
0A60A:  MOVWF  FF8
0A60C:  CALL   3580
....................          SendDataDisplay(); 
0A610:  CALL   35B2
....................          Desfogue_on; 
0A614:  BSF    F8C.4
0A616:  BCF    F95.4
....................          SSR_off; 
0A618:  BSF    F8B.2
0A61A:  BCF    F94.2
....................          Agua_off; 
0A61C:  BCF    F8C.5
0A61E:  BCF    F95.5
....................          Bomba_off; 
0A620:  BCF    F8C.6
0A622:  BCF    F95.6
....................          Aire=OFF; 
0A624:  BCF    xA3.7
....................          Esterilizando=OFF; 
0A626:  BCF    xA0.2
....................          Desfogando=OFF; 
0A628:  BCF    xA0.5
....................          DesfogueSuave=OFF; 
0A62A:  BCF    xA0.6
....................          Esterilizando=OFF; 
0A62C:  BCF    xA0.2
....................          //IniciaCiclo=OFF; 
....................          Controlando=0; 
0A62E:  MOVLB  3
0A630:  CLRF   x41
....................          if(!flagImprimir && ActivaImpresion==1){ 
0A632:  BTFSC  x3E.0
0A634:  BRA    A658
0A636:  DECFSZ x42,W
0A638:  BRA    A658
....................             Imprime=20; 
0A63A:  MOVLW  14
0A63C:  MOVWF  x8E
....................             Envio_Esclavos(); 
0A63E:  MOVLB  0
0A640:  CALL   3F06
....................             delay_ms(100); 
0A644:  MOVLW  64
0A646:  MOVLB  4
0A648:  MOVWF  x2A
0A64A:  MOVLB  0
0A64C:  CALL   1814
....................             Imprime=10; 
0A650:  MOVLW  0A
0A652:  MOVLB  3
0A654:  MOVWF  x8E
....................             flagImprimir=1; 
0A656:  BSF    x3E.0
....................          } 
....................       }else if(AlarmaPuerta){ 
0A658:  BRA    A95A
0A65A:  MOVLB  0
0A65C:  BTFSS  x9F.4
0A65E:  BRA    A6A4
....................             printf("Funcionamiento.t4f.txt=\" Puerta Abierta\""); 
0A660:  MOVLW  94
0A662:  MOVWF  FF6
0A664:  MOVLW  10
0A666:  MOVWF  FF7
0A668:  MOVLW  00
0A66A:  MOVWF  FF8
0A66C:  CALL   3580
....................             SendDataDisplay(); 
0A670:  CALL   35B2
....................             printf("Funcionamiento.t5f.txt=\" Pausado\""); 
0A674:  MOVLW  BE
0A676:  MOVWF  FF6
0A678:  MOVLW  10
0A67A:  MOVWF  FF7
0A67C:  MOVLW  00
0A67E:  MOVWF  FF8
0A680:  CALL   3580
....................             SendDataDisplay(); 
0A684:  CALL   35B2
....................             SSR_off; 
0A688:  BSF    F8B.2
0A68A:  BCF    F94.2
....................             Agua_off; 
0A68C:  BCF    F8C.5
0A68E:  BCF    F95.5
....................             Bomba_off; 
0A690:  BCF    F8C.6
0A692:  BCF    F95.6
....................             Aire=OFF; 
0A694:  BCF    xA3.7
....................             IniciaLlenado=OFF; 
0A696:  BCF    x9F.7
....................             IniciaCiclo=OFF; 
0A698:  BCF    xA0.1
....................             Esterilizando=OFF; 
0A69A:  BCF    xA0.2
....................             Controlando=0; 
0A69C:  MOVLB  3
0A69E:  CLRF   x41
....................       }else if(AlarmaLlenado){ 
0A6A0:  BRA    A95A
0A6A2:  MOVLB  0
0A6A4:  BTFSS  x9F.2
0A6A6:  BRA    A716
....................             printf("Funcionamiento.t4f.txt=\" Tiempo Llenado\""); 
0A6A8:  MOVLW  E0
0A6AA:  MOVWF  FF6
0A6AC:  MOVLW  10
0A6AE:  MOVWF  FF7
0A6B0:  MOVLW  00
0A6B2:  MOVWF  FF8
0A6B4:  CALL   3580
....................             SendDataDisplay(); 
0A6B8:  CALL   35B2
....................             printf("Funcionamiento.t5f.txt=\" Cancelado\""); 
0A6BC:  MOVLW  0A
0A6BE:  MOVWF  FF6
0A6C0:  MOVLW  11
0A6C2:  MOVWF  FF7
0A6C4:  MOVLW  00
0A6C6:  MOVWF  FF8
0A6C8:  CALL   3580
....................             SendDataDisplay(); 
0A6CC:  CALL   35B2
....................             Desfogue_off; 
0A6D0:  BCF    F8C.4
0A6D2:  BCF    F95.4
....................             SSR_off; 
0A6D4:  BSF    F8B.2
0A6D6:  BCF    F94.2
....................             Agua_off; 
0A6D8:  BCF    F8C.5
0A6DA:  BCF    F95.5
....................             Bomba_off; 
0A6DC:  BCF    F8C.6
0A6DE:  BCF    F95.6
....................             Aire=OFF; 
0A6E0:  BCF    xA3.7
....................             IniciaLlenado=OFF; 
0A6E2:  BCF    x9F.7
....................             IniciaCiclo=OFF; 
0A6E4:  BCF    xA0.1
....................             Esterilizando=OFF; 
0A6E6:  BCF    xA0.2
....................             Controlando=0; 
0A6E8:  MOVLB  3
0A6EA:  CLRF   x41
....................             if(!flagImprimir && ActivaImpresion==1){ 
0A6EC:  BTFSC  x3E.0
0A6EE:  BRA    A712
0A6F0:  DECFSZ x42,W
0A6F2:  BRA    A712
....................                Imprime=21; 
0A6F4:  MOVLW  15
0A6F6:  MOVWF  x8E
....................                Envio_Esclavos(); 
0A6F8:  MOVLB  0
0A6FA:  CALL   3F06
....................                delay_ms(100); 
0A6FE:  MOVLW  64
0A700:  MOVLB  4
0A702:  MOVWF  x2A
0A704:  MOVLB  0
0A706:  CALL   1814
....................                Imprime=10; 
0A70A:  MOVLW  0A
0A70C:  MOVLB  3
0A70E:  MOVWF  x8E
....................                flagImprimir=1; 
0A710:  BSF    x3E.0
....................             } 
....................       }else if(AlarmaTermostato){ // Alarma de Termostato 
0A712:  BRA    A95A
0A714:  MOVLB  0
0A716:  BTFSS  x9F.3
0A718:  BRA    A790
....................             tiempo_esterilizacion=0;tiempo_secado=0;          
0A71A:  MOVLB  3
0A71C:  CLRF   x53
0A71E:  CLRF   x54
....................             printf("Funcionamiento.t4f.txt=\" Termostato\""); 
0A720:  MOVLW  2E
0A722:  MOVWF  FF6
0A724:  MOVLW  11
0A726:  MOVWF  FF7
0A728:  MOVLW  00
0A72A:  MOVWF  FF8
0A72C:  MOVLB  0
0A72E:  CALL   3580
....................             SendDataDisplay(); 
0A732:  CALL   35B2
....................             printf("Funcionamiento.t5f.txt=\" Cancelado\""); 
0A736:  MOVLW  54
0A738:  MOVWF  FF6
0A73A:  MOVLW  11
0A73C:  MOVWF  FF7
0A73E:  MOVLW  00
0A740:  MOVWF  FF8
0A742:  CALL   3580
....................             SendDataDisplay(); 
0A746:  CALL   35B2
....................             Desfogue_on;             
0A74A:  BSF    F8C.4
0A74C:  BCF    F95.4
....................             SSR_off; 
0A74E:  BSF    F8B.2
0A750:  BCF    F94.2
....................             Agua_off; 
0A752:  BCF    F8C.5
0A754:  BCF    F95.5
....................             Bomba_off; 
0A756:  BCF    F8C.6
0A758:  BCF    F95.6
....................             Aire=OFF; 
0A75A:  BCF    xA3.7
....................             Esterilizando=OFF; 
0A75C:  BCF    xA0.2
....................             Desfogando=OFF; 
0A75E:  BCF    xA0.5
....................             IniciaCiclo=OFF; 
0A760:  BCF    xA0.1
....................             Controlando=0; 
0A762:  MOVLB  3
0A764:  CLRF   x41
....................             if(!flagImprimir && ActivaImpresion==1){ 
0A766:  BTFSC  x3E.0
0A768:  BRA    A78C
0A76A:  DECFSZ x42,W
0A76C:  BRA    A78C
....................                Imprime=22; 
0A76E:  MOVLW  16
0A770:  MOVWF  x8E
....................                Envio_Esclavos(); 
0A772:  MOVLB  0
0A774:  CALL   3F06
....................                delay_ms(100); 
0A778:  MOVLW  64
0A77A:  MOVLB  4
0A77C:  MOVWF  x2A
0A77E:  MOVLB  0
0A780:  CALL   1814
....................                Imprime=10; 
0A784:  MOVLW  0A
0A786:  MOVLB  3
0A788:  MOVWF  x8E
....................                flagImprimir=1; 
0A78A:  BSF    x3E.0
....................             } 
....................       }else if(AlarmaSobreTemperatura){ // Alarma de Sobre Temperatura 
0A78C:  BRA    A95A
0A78E:  MOVLB  0
0A790:  BTFSS  x9F.1
0A792:  BRA    A80E
....................          tiempo_esterilizacion=0;tiempo_secado=0;          
0A794:  MOVLB  3
0A796:  CLRF   x53
0A798:  CLRF   x54
....................          printf("Funcionamiento.t4f.txt=\" Sobretemperatura\""); 
0A79A:  MOVLW  78
0A79C:  MOVWF  FF6
0A79E:  MOVLW  11
0A7A0:  MOVWF  FF7
0A7A2:  MOVLW  00
0A7A4:  MOVWF  FF8
0A7A6:  MOVLB  0
0A7A8:  CALL   3580
....................          SendDataDisplay(); 
0A7AC:  CALL   35B2
....................          printf("Funcionamiento.t5f.txt=\" Cancelado\""); 
0A7B0:  MOVLW  A4
0A7B2:  MOVWF  FF6
0A7B4:  MOVLW  11
0A7B6:  MOVWF  FF7
0A7B8:  MOVLW  00
0A7BA:  MOVWF  FF8
0A7BC:  CALL   3580
....................          SendDataDisplay();   
0A7C0:  CALL   35B2
....................          Desfogue_on; 
0A7C4:  BSF    F8C.4
0A7C6:  BCF    F95.4
....................          SSR_off; 
0A7C8:  BSF    F8B.2
0A7CA:  BCF    F94.2
....................          Agua_off; 
0A7CC:  BCF    F8C.5
0A7CE:  BCF    F95.5
....................          Bomba_off; 
0A7D0:  BCF    F8C.6
0A7D2:  BCF    F95.6
....................          Aire=OFF; 
0A7D4:  BCF    xA3.7
....................          Controlando=0; 
0A7D6:  MOVLB  3
0A7D8:  CLRF   x41
....................          IniciaLlenado=OFF; 
0A7DA:  MOVLB  0
0A7DC:  BCF    x9F.7
....................          IniciaCiclo=OFF; 
0A7DE:  BCF    xA0.1
....................          Esterilizando=OFF; 
0A7E0:  BCF    xA0.2
....................          if(!flagImprimir && ActivaImpresion==1){ 
0A7E2:  MOVLB  3
0A7E4:  BTFSC  x3E.0
0A7E6:  BRA    A80A
0A7E8:  DECFSZ x42,W
0A7EA:  BRA    A80A
....................             Imprime=23; 
0A7EC:  MOVLW  17
0A7EE:  MOVWF  x8E
....................             Envio_Esclavos(); 
0A7F0:  MOVLB  0
0A7F2:  CALL   3F06
....................             delay_ms(100); 
0A7F6:  MOVLW  64
0A7F8:  MOVLB  4
0A7FA:  MOVWF  x2A
0A7FC:  MOVLB  0
0A7FE:  CALL   1814
....................             Imprime=10; 
0A802:  MOVLW  0A
0A804:  MOVLB  3
0A806:  MOVWF  x8E
....................             flagImprimir=1; 
0A808:  BSF    x3E.0
....................          } 
....................       }else if(AlarmaTiempoProlongado){ // Alarma de Error de Tiempo: Error por exceso de tiempo de calentamiento. 
0A80A:  BRA    A95A
0A80C:  MOVLB  0
0A80E:  BTFSS  x9F.0
0A810:  BRA    A884
....................          printf("Funcionamiento.t4f.txt=\" Tiempo Prolongado\""); 
0A812:  MOVLW  C8
0A814:  MOVWF  FF6
0A816:  MOVLW  11
0A818:  MOVWF  FF7
0A81A:  MOVLW  00
0A81C:  MOVWF  FF8
0A81E:  CALL   3580
....................          SendDataDisplay(); 
0A822:  CALL   35B2
....................          printf("Funcionamiento.t5f.txt=\" Cancelado\""); 
0A826:  MOVLW  F4
0A828:  MOVWF  FF6
0A82A:  MOVLW  11
0A82C:  MOVWF  FF7
0A82E:  MOVLW  00
0A830:  MOVWF  FF8
0A832:  CALL   3580
....................          SendDataDisplay(); 
0A836:  CALL   35B2
....................          Desfogue_on; 
0A83A:  BSF    F8C.4
0A83C:  BCF    F95.4
....................          SSR_off; 
0A83E:  BSF    F8B.2
0A840:  BCF    F94.2
....................          Agua_off; 
0A842:  BCF    F8C.5
0A844:  BCF    F95.5
....................          Bomba_off; 
0A846:  BCF    F8C.6
0A848:  BCF    F95.6
....................          Aire=OFF; 
0A84A:  BCF    xA3.7
....................          Controlando=0; 
0A84C:  MOVLB  3
0A84E:  CLRF   x41
....................          IniciaLlenado=OFF; 
0A850:  MOVLB  0
0A852:  BCF    x9F.7
....................          IniciaCiclo=OFF; 
0A854:  BCF    xA0.1
....................          Esterilizando=OFF; 
0A856:  BCF    xA0.2
....................          if(!flagImprimir && ActivaImpresion==1){ 
0A858:  MOVLB  3
0A85A:  BTFSC  x3E.0
0A85C:  BRA    A880
0A85E:  DECFSZ x42,W
0A860:  BRA    A880
....................             Imprime=24; 
0A862:  MOVLW  18
0A864:  MOVWF  x8E
....................             Envio_Esclavos(); 
0A866:  MOVLB  0
0A868:  CALL   3F06
....................             delay_ms(100); 
0A86C:  MOVLW  64
0A86E:  MOVLB  4
0A870:  MOVWF  x2A
0A872:  MOVLB  0
0A874:  CALL   1814
....................             Imprime=10; 
0A878:  MOVLW  0A
0A87A:  MOVLB  3
0A87C:  MOVWF  x8E
....................             flagImprimir=1; 
0A87E:  BSF    x3E.0
....................          } 
....................       }else if(AlarmaPresion){ // Alarma de Error de SobrePresion: Error por exceso de Presion. 
0A880:  BRA    A95A
0A882:  MOVLB  0
0A884:  BTFSS  xA3.3
0A886:  BRA    A8F6
....................          printf("Funcionamiento.t4f.txt=\" SobrePresin\""); 
0A888:  MOVLW  18
0A88A:  MOVWF  FF6
0A88C:  MOVLW  12
0A88E:  MOVWF  FF7
0A890:  MOVLW  00
0A892:  MOVWF  FF8
0A894:  CALL   3580
....................          SendDataDisplay(); 
0A898:  CALL   35B2
....................          printf("Funcionamiento.t5f.txt=\" Cancelado\""); 
0A89C:  MOVLW  40
0A89E:  MOVWF  FF6
0A8A0:  MOVLW  12
0A8A2:  MOVWF  FF7
0A8A4:  MOVLW  00
0A8A6:  MOVWF  FF8
0A8A8:  CALL   3580
....................          SendDataDisplay(); 
0A8AC:  CALL   35B2
....................          Desfogue_on; 
0A8B0:  BSF    F8C.4
0A8B2:  BCF    F95.4
....................          SSR_off; 
0A8B4:  BSF    F8B.2
0A8B6:  BCF    F94.2
....................          IniciaLlenado=OFF; 
0A8B8:  BCF    x9F.7
....................          IniciaCiclo=OFF; 
0A8BA:  BCF    xA0.1
....................          Esterilizando=OFF; 
0A8BC:  BCF    xA0.2
....................          Agua_off; 
0A8BE:  BCF    F8C.5
0A8C0:  BCF    F95.5
....................          Bomba_off; 
0A8C2:  BCF    F8C.6
0A8C4:  BCF    F95.6
....................          Aire=OFF; 
0A8C6:  BCF    xA3.7
....................          Controlando=0; 
0A8C8:  MOVLB  3
0A8CA:  CLRF   x41
....................          if(!flagImprimir && ActivaImpresion==1){ 
0A8CC:  BTFSC  x3E.0
0A8CE:  BRA    A8F2
0A8D0:  DECFSZ x42,W
0A8D2:  BRA    A8F2
....................             Imprime=25; 
0A8D4:  MOVLW  19
0A8D6:  MOVWF  x8E
....................             Envio_Esclavos(); 
0A8D8:  MOVLB  0
0A8DA:  CALL   3F06
....................             delay_ms(100); 
0A8DE:  MOVLW  64
0A8E0:  MOVLB  4
0A8E2:  MOVWF  x2A
0A8E4:  MOVLB  0
0A8E6:  CALL   1814
....................             Imprime=10; 
0A8EA:  MOVLW  0A
0A8EC:  MOVLB  3
0A8EE:  MOVWF  x8E
....................             flagImprimir=1; 
0A8F0:  BSF    x3E.0
....................          } 
....................       }else if(AlarmaCiclo){ // Alarma de Error de SobrePresion: Error por exceso de Presion. 
0A8F2:  BRA    A95A
0A8F4:  MOVLB  0
0A8F6:  BTFSS  x9F.6
0A8F8:  BRA    A95C
....................          printf("Funcionamiento.t4f.txt=\" Error Ciclo\""); 
0A8FA:  MOVLW  64
0A8FC:  MOVWF  FF6
0A8FE:  MOVLW  12
0A900:  MOVWF  FF7
0A902:  MOVLW  00
0A904:  MOVWF  FF8
0A906:  CALL   3580
....................          SendDataDisplay(); 
0A90A:  CALL   35B2
....................          printf("Funcionamiento.t5f.txt=\" Cancelado\""); 
0A90E:  MOVLW  8A
0A910:  MOVWF  FF6
0A912:  MOVLW  12
0A914:  MOVWF  FF7
0A916:  MOVLW  00
0A918:  MOVWF  FF8
0A91A:  CALL   3580
....................          SendDataDisplay(); 
0A91E:  CALL   35B2
....................          Desfogue_on; 
0A922:  BSF    F8C.4
0A924:  BCF    F95.4
....................          SSR_off; 
0A926:  BSF    F8B.2
0A928:  BCF    F94.2
....................          IniciaLlenado=OFF; 
0A92A:  BCF    x9F.7
....................          IniciaCiclo=OFF; 
0A92C:  BCF    xA0.1
....................          Esterilizando=OFF; 
0A92E:  BCF    xA0.2
....................          Controlando=0; 
0A930:  MOVLB  3
0A932:  CLRF   x41
....................          if(!flagImprimir && ActivaImpresion==1){ 
0A934:  BTFSC  x3E.0
0A936:  BRA    A95A
0A938:  DECFSZ x42,W
0A93A:  BRA    A95A
....................             Imprime=25; 
0A93C:  MOVLW  19
0A93E:  MOVWF  x8E
....................             Envio_Esclavos(); 
0A940:  MOVLB  0
0A942:  CALL   3F06
....................             delay_ms(100); 
0A946:  MOVLW  64
0A948:  MOVLB  4
0A94A:  MOVWF  x2A
0A94C:  MOVLB  0
0A94E:  CALL   1814
....................             Imprime=10; 
0A952:  MOVLW  0A
0A954:  MOVLB  3
0A956:  MOVWF  x8E
....................             flagImprimir=1; 
0A958:  BSF    x3E.0
0A95A:  MOVLB  0
....................          } 
....................       } 
....................    } 
....................    else{   
0A95C:  BRA    AF16
....................       Buzzer_off; 
0A95E:  BCF    F8C.0
0A960:  BCF    F95.0
....................       IniciaCiclo=ON; 
0A962:  BSF    xA0.1
....................       if(flagImprime && ActivaImpresion==1){ 
0A964:  BTFSS  xA4.7
0A966:  BRA    A994
0A968:  MOVLB  3
0A96A:  DECFSZ x42,W
0A96C:  BRA    A970
0A96E:  BRA    A974
0A970:  MOVLB  0
0A972:  BRA    A994
....................          Imprime=5; 
0A974:  MOVLW  05
0A976:  MOVWF  x8E
....................          Envio_Esclavos(); 
0A978:  MOVLB  0
0A97A:  CALL   3F06
....................          delay_ms(100); 
0A97E:  MOVLW  64
0A980:  MOVLB  4
0A982:  MOVWF  x2A
0A984:  MOVLB  0
0A986:  CALL   1814
....................          Imprime=10; 
0A98A:  MOVLW  0A
0A98C:  MOVLB  3
0A98E:  MOVWF  x8E
....................          flagImprime=0; 
0A990:  MOVLB  0
0A992:  BCF    xA4.7
....................       } 
....................          if(!CalderinLleno){ 
0A994:  BTFSC  xA0.0
0A996:  BRA    A9DE
....................             printf("Funcionamiento.t4f.txt=\" Ninguna\""); 
0A998:  MOVLW  AE
0A99A:  MOVWF  FF6
0A99C:  MOVLW  12
0A99E:  MOVWF  FF7
0A9A0:  MOVLW  00
0A9A2:  MOVWF  FF8
0A9A4:  CALL   3580
....................             SendDataDisplay(); 
0A9A8:  CALL   35B2
....................             printf("Funcionamiento.t5f.txt=\" Llenando Camara\""); 
0A9AC:  MOVLW  D0
0A9AE:  MOVWF  FF6
0A9B0:  MOVLW  12
0A9B2:  MOVWF  FF7
0A9B4:  MOVLW  00
0A9B6:  MOVWF  FF8
0A9B8:  CALL   3580
....................             SendDataDisplay(); 
0A9BC:  CALL   35B2
....................             Control=0; 
0A9C0:  MOVLB  3
0A9C2:  CLRF   x3F
....................             IniciaLlenado=ON; 
0A9C4:  MOVLB  0
0A9C6:  BSF    x9F.7
....................             Controlando=0; 
0A9C8:  MOVLB  3
0A9CA:  CLRF   x41
....................             Desfogue_off; 
0A9CC:  BCF    F8C.4
0A9CE:  BCF    F95.4
....................             Agua_on; 
0A9D0:  BSF    F8C.5
0A9D2:  BCF    F95.5
....................             enciendeBombaAgua(); 
0A9D4:  MOVLB  0
0A9D6:  GOTO   4B30
....................             Aire=ON; 
0A9DA:  BSF    xA3.7
....................          } 
....................          else{ 
0A9DC:  BRA    AF16
....................             Agua_off; 
0A9DE:  BCF    F8C.5
0A9E0:  BCF    F95.5
....................             if(Temperatura>=((float)Setpoint-0.3)){// || Tactual>=((float)Setpoint-0.3)){ 
0A9E2:  MOVLB  4
0A9E4:  CLRF   x2B
0A9E6:  MOVFF  350,42A
0A9EA:  MOVLB  0
0A9EC:  CALL   183C
0A9F0:  MOVFF  00,415
0A9F4:  MOVFF  01,416
0A9F8:  MOVFF  02,417
0A9FC:  MOVFF  03,418
0AA00:  BSF    FD8.1
0AA02:  MOVFF  03,42D
0AA06:  MOVFF  02,42C
0AA0A:  MOVFF  01,42B
0AA0E:  MOVFF  00,42A
0AA12:  MOVLW  9A
0AA14:  MOVLB  4
0AA16:  MOVWF  x31
0AA18:  MOVLW  99
0AA1A:  MOVWF  x30
0AA1C:  MOVLW  19
0AA1E:  MOVWF  x2F
0AA20:  MOVLW  7D
0AA22:  MOVWF  x2E
0AA24:  MOVLB  0
0AA26:  CALL   19D0
0AA2A:  MOVFF  03,41C
0AA2E:  MOVFF  02,41B
0AA32:  MOVFF  01,41A
0AA36:  MOVFF  00,419
0AA3A:  MOVFF  31A,420
0AA3E:  MOVFF  319,41F
0AA42:  MOVFF  318,41E
0AA46:  MOVFF  317,41D
0AA4A:  CALL   2A96
0AA4E:  BC    AA52
0AA50:  BNZ   AA54
....................                Esterilizando=ON; 
0AA52:  BSF    xA0.2
....................             } 
....................              
....................             if(Temperatura<((float)Setpoint-0.9) && !Desfogando){ 
0AA54:  MOVLB  4
0AA56:  CLRF   x2B
0AA58:  MOVFF  350,42A
0AA5C:  MOVLB  0
0AA5E:  CALL   183C
0AA62:  MOVFF  00,415
0AA66:  MOVFF  01,416
0AA6A:  MOVFF  02,417
0AA6E:  MOVFF  03,418
0AA72:  BSF    FD8.1
0AA74:  MOVFF  03,42D
0AA78:  MOVFF  02,42C
0AA7C:  MOVFF  01,42B
0AA80:  MOVFF  00,42A
0AA84:  MOVLW  66
0AA86:  MOVLB  4
0AA88:  MOVWF  x31
0AA8A:  MOVWF  x30
0AA8C:  MOVWF  x2F
0AA8E:  MOVLW  7E
0AA90:  MOVWF  x2E
0AA92:  MOVLB  0
0AA94:  CALL   19D0
0AA98:  MOVFF  31A,41C
0AA9C:  MOVFF  319,41B
0AAA0:  MOVFF  318,41A
0AAA4:  MOVFF  317,419
0AAA8:  MOVFF  03,420
0AAAC:  MOVFF  02,41F
0AAB0:  MOVFF  01,41E
0AAB4:  MOVFF  00,41D
0AAB8:  CALL   2A96
0AABC:  BNC   AAC4
0AABE:  BTFSC  xA0.5
0AAC0:  BRA    AAC4
....................                Esterilizando=OFF; 
0AAC2:  BCF    xA0.2
....................             } 
....................              
....................             if(!Esterilizando){ 
0AAC4:  BTFSC  xA0.2
0AAC6:  BRA    AB4A
....................                printf("Funcionamiento.t4f.txt=\" Ninguna\""); 
0AAC8:  MOVLW  FA
0AACA:  MOVWF  FF6
0AACC:  MOVLW  12
0AACE:  MOVWF  FF7
0AAD0:  MOVLW  00
0AAD2:  MOVWF  FF8
0AAD4:  CALL   3580
....................                SendDataDisplay(); 
0AAD8:  CALL   35B2
....................                printf("Funcionamiento.t5f.txt=\" Calentando\""); 
0AADC:  MOVLW  1C
0AADE:  MOVWF  FF6
0AAE0:  MOVLW  13
0AAE2:  MOVWF  FF7
0AAE4:  MOVLW  00
0AAE6:  MOVWF  FF8
0AAE8:  CALL   3580
....................                SendDataDisplay(); 
0AAEC:  CALL   35B2
....................                Control=1; 
0AAF0:  MOVLW  01
0AAF2:  MOVLB  3
0AAF4:  MOVWF  x3F
....................                Bomba_off; 
0AAF6:  BCF    F8C.6
0AAF8:  BCF    F95.6
....................                apagaBombaAgua(); 
0AAFA:  MOVLB  0
0AAFC:  GOTO   4B62
....................                Desfogue_off; 
0AB00:  BCF    F8C.4
0AB02:  BCF    F95.4
....................                if(Temperatura<=TTrampa){ 
0AB04:  MOVLB  4
0AB06:  CLRF   x2B
0AB08:  MOVFF  2D2,42A
0AB0C:  MOVLB  0
0AB0E:  CALL   183C
0AB12:  MOVFF  31A,41C
0AB16:  MOVFF  319,41B
0AB1A:  MOVFF  318,41A
0AB1E:  MOVFF  317,419
0AB22:  MOVFF  03,420
0AB26:  MOVFF  02,41F
0AB2A:  MOVFF  01,41E
0AB2E:  MOVFF  00,41D
0AB32:  CALL   2A96
0AB36:  BC    AB3A
0AB38:  BNZ   AB42
....................                   Aire=ON; 
0AB3A:  BSF    xA3.7
....................                   Controla(); 
0AB3C:  GOTO   4BE2
....................                }else{ 
0AB40:  BRA    AB48
....................                   Aire=OFF; 
0AB42:  BCF    xA3.7
....................                   ControlaPresion(); 
0AB44:  CALL   5178
....................                } 
....................             }else{ 
0AB48:  BRA    AF16
....................                TiempoCiclo=0; 
0AB4A:  CLRF   xA6
0AB4C:  CLRF   xA5
....................                if((Testerilizacion[0]==0)&&(Testerilizacion[1]==0)&& 
....................                (Testerilizacion[2]==0)&&(Testerilizacion[3]==0)){  
0AB4E:  MOVF   xB3,F
0AB50:  BTFSS  FD8.2
0AB52:  BRA    AED8
0AB54:  MOVF   xB4,F
0AB56:  BTFSS  FD8.2
0AB58:  BRA    AED8
0AB5A:  MOVF   xB5,F
0AB5C:  BTFSS  FD8.2
0AB5E:  BRA    AED8
0AB60:  MOVF   xB6,F
0AB62:  BTFSS  FD8.2
0AB64:  BRA    AED8
....................                   if(desfoguelento){ 
0AB66:  BTFSS  xA4.2
0AB68:  BRA    ACF8
....................                      Controlando=0; 
0AB6A:  MOVLB  3
0AB6C:  CLRF   x41
....................                      if(PresionCamara<=25){ 
0AB6E:  MOVF   x63,F
0AB70:  BTFSS  FD8.2
0AB72:  BRA    ACB8
0AB74:  MOVF   x62,W
0AB76:  SUBLW  19
0AB78:  BTFSS  FD8.0
0AB7A:  BRA    ACB8
....................                         Secando=OFF; 
0AB7C:  MOVLB  0
0AB7E:  BCF    xA0.3
....................                         DesfogueSuave=OFF; 
0AB80:  BCF    xA0.6
....................                         if(!DOOR){ 
0AB82:  BSF    F93.6
0AB84:  BTFSS  F81.6
0AB86:  BRA    AB8E
....................                            Desfogue_off;  
0AB88:  BCF    F8C.4
0AB8A:  BCF    F95.4
....................                         }else{ 
0AB8C:  BRA    AB92
....................                            Desfogue_on;                            
0AB8E:  BSF    F8C.4
0AB90:  BCF    F95.4
....................                         } 
....................                         Bomba_off; 
0AB92:  BCF    F8C.6
0AB94:  BCF    F95.6
....................                         Aire=OFF; 
0AB96:  BCF    xA3.7
....................                         if(PresionCamara<2){ 
0AB98:  MOVLB  3
0AB9A:  MOVF   x63,F
0AB9C:  BTFSS  FD8.2
0AB9E:  BRA    ACB2
0ABA0:  MOVF   x62,W
0ABA2:  SUBLW  01
0ABA4:  BTFSS  FD8.0
0ABA6:  BRA    ACB2
....................                            if(Temperatura<=90){ 
0ABA8:  MOVFF  31A,41C
0ABAC:  MOVFF  319,41B
0ABB0:  MOVFF  318,41A
0ABB4:  MOVFF  317,419
0ABB8:  MOVLB  4
0ABBA:  CLRF   x20
0ABBC:  CLRF   x1F
0ABBE:  MOVLW  34
0ABC0:  MOVWF  x1E
0ABC2:  MOVLW  85
0ABC4:  MOVWF  x1D
0ABC6:  MOVLB  0
0ABC8:  CALL   2A96
0ABCC:  BC    ABD0
0ABCE:  BNZ   AC06
....................                               ActivaAlarma(2); 
0ABD0:  MOVLW  02
0ABD2:  MOVLB  4
0ABD4:  MOVWF  x15
0ABD6:  MOVLB  0
0ABD8:  CALL   4378
....................                               printf("Funcionamiento.t4f.txt=\" Ninguna\""); 
0ABDC:  MOVLW  42
0ABDE:  MOVWF  FF6
0ABE0:  MOVLW  13
0ABE2:  MOVWF  FF7
0ABE4:  MOVLW  00
0ABE6:  MOVWF  FF8
0ABE8:  CALL   3580
....................                               SendDataDisplay(); 
0ABEC:  CALL   35B2
....................                               printf("Funcionamiento.t5f.txt=\" Finalizado\""); 
0ABF0:  MOVLW  64
0ABF2:  MOVWF  FF6
0ABF4:  MOVLW  13
0ABF6:  MOVWF  FF7
0ABF8:  MOVLW  00
0ABFA:  MOVWF  FF8
0ABFC:  CALL   3580
....................                               SendDataDisplay(); 
0AC00:  CALL   35B2
....................                               Finalizo=ON; 
0AC04:  BSF    xA3.2
....................                            } 
....................                            if(!Ciclo){ 
0AC06:  BTFSC  xA1.3
0AC08:  BRA    ACB4
....................                               Ciclo=ON; 
0AC0A:  BSF    xA1.3
....................                               Ciclos++; 
0AC0C:  MOVLB  3
0AC0E:  INCF   x66,F
0AC10:  BTFSC  FD8.2
0AC12:  INCF   x67,F
....................                               CiclosL=make8(Ciclos,0); 
0AC14:  MOVFF  366,34D
....................                               CiclosH=make8(Ciclos,1); 
0AC18:  MOVFF  367,34E
....................                               write_eeprom(37,CiclosL); 
0AC1C:  CLRF   FAA
0AC1E:  MOVLW  25
0AC20:  MOVWF  FA9
0AC22:  MOVFF  34D,FA8
0AC26:  BCF    FA6.6
0AC28:  BCF    FA6.7
0AC2A:  BSF    FA6.2
0AC2C:  MOVF   FF2,W
0AC2E:  MOVWF  00
0AC30:  BCF    FF2.6
0AC32:  BCF    FF2.7
0AC34:  MOVLB  F
0AC36:  MOVLW  55
0AC38:  MOVWF  FA7
0AC3A:  MOVLW  AA
0AC3C:  MOVWF  FA7
0AC3E:  BSF    FA6.1
0AC40:  BTFSC  FA6.1
0AC42:  BRA    AC40
0AC44:  BCF    FA6.2
0AC46:  MOVF   00,W
0AC48:  IORWF  FF2,F
....................                               delay_ms(20); 
0AC4A:  MOVLW  14
0AC4C:  MOVLB  4
0AC4E:  MOVWF  x2A
0AC50:  MOVLB  0
0AC52:  CALL   1814
....................                               write_eeprom(38,CiclosH); 
0AC56:  CLRF   FAA
0AC58:  MOVLW  26
0AC5A:  MOVWF  FA9
0AC5C:  MOVFF  34E,FA8
0AC60:  BCF    FA6.6
0AC62:  BCF    FA6.7
0AC64:  BSF    FA6.2
0AC66:  MOVF   FF2,W
0AC68:  MOVWF  00
0AC6A:  BCF    FF2.6
0AC6C:  BCF    FF2.7
0AC6E:  MOVLB  F
0AC70:  MOVLW  55
0AC72:  MOVWF  FA7
0AC74:  MOVLW  AA
0AC76:  MOVWF  FA7
0AC78:  BSF    FA6.1
0AC7A:  BTFSC  FA6.1
0AC7C:  BRA    AC7A
0AC7E:  BCF    FA6.2
0AC80:  MOVF   00,W
0AC82:  IORWF  FF2,F
....................                               delay_ms(20); 
0AC84:  MOVLW  14
0AC86:  MOVLB  4
0AC88:  MOVWF  x2A
0AC8A:  MOVLB  0
0AC8C:  CALL   1814
....................                               if(ActivaImpresion==1){ 
0AC90:  MOVLB  3
0AC92:  DECFSZ x42,W
0AC94:  BRA    ACB2
....................                                  Imprime=28; 
0AC96:  MOVLW  1C
0AC98:  MOVWF  x8E
....................                                  Envio_Esclavos(); 
0AC9A:  MOVLB  0
0AC9C:  CALL   3F06
....................                                  delay_ms(100); 
0ACA0:  MOVLW  64
0ACA2:  MOVLB  4
0ACA4:  MOVWF  x2A
0ACA6:  MOVLB  0
0ACA8:  CALL   1814
....................                                  Imprime=10; 
0ACAC:  MOVLW  0A
0ACAE:  MOVLB  3
0ACB0:  MOVWF  x8E
0ACB2:  MOVLB  0
....................                               } 
....................                            } 
....................                         } 
....................                      }else{ 
0ACB4:  BRA    ACF6
0ACB6:  MOVLB  3
....................                         Desfogando=ON; 
0ACB8:  MOVLB  0
0ACBA:  BSF    xA0.5
....................                         DesfogueSuave=ON; 
0ACBC:  BSF    xA0.6
....................                         printf("Funcionamiento.t4f.txt=\" Ninguna\""); 
0ACBE:  MOVLW  8A
0ACC0:  MOVWF  FF6
0ACC2:  MOVLW  13
0ACC4:  MOVWF  FF7
0ACC6:  MOVLW  00
0ACC8:  MOVWF  FF8
0ACCA:  CALL   3580
....................                         SendDataDisplay(); 
0ACCE:  CALL   35B2
....................                         printf("Funcionamiento.t5f.txt=\" Despresurizando\""); 
0ACD2:  MOVLW  AC
0ACD4:  MOVWF  FF6
0ACD6:  MOVLW  13
0ACD8:  MOVWF  FF7
0ACDA:  MOVLW  00
0ACDC:  MOVWF  FF8
0ACDE:  CALL   3580
....................                         SendDataDisplay(); 
0ACE2:  CALL   35B2
....................                         Control=0; 
0ACE6:  MOVLB  3
0ACE8:  CLRF   x3F
....................                         SSR_off; 
0ACEA:  BSF    F8B.2
0ACEC:  BCF    F94.2
....................                         Bomba_off; 
0ACEE:  BCF    F8C.6
0ACF0:  BCF    F95.6
....................                         Aire=OFF; 
0ACF2:  MOVLB  0
0ACF4:  BCF    xA3.7
....................                      } 
....................                   }else{ 
0ACF6:  BRA    AED2
....................                      //SSR_off; 
....................                      Controlando=0; 
0ACF8:  MOVLB  3
0ACFA:  CLRF   x41
....................                      Control=0; 
0ACFC:  CLRF   x3F
....................                      if(PresionCamara<=2){ 
0ACFE:  MOVF   x63,F
0AD00:  BTFSS  FD8.2
0AD02:  BRA    AE8E
0AD04:  MOVF   x62,W
0AD06:  SUBLW  02
0AD08:  BTFSS  FD8.0
0AD0A:  BRA    AE8E
....................                         if((Tsecado[0]==0)&&(Tsecado[1]==0)&&(Tsecado[2]==0)&&(Tsecado[3]==0)){ 
0AD0C:  MOVLB  0
0AD0E:  MOVF   xBD,F
0AD10:  BTFSS  FD8.2
0AD12:  BRA    AE52
0AD14:  MOVF   xBE,F
0AD16:  BTFSS  FD8.2
0AD18:  BRA    AE52
0AD1A:  MOVF   xBF,F
0AD1C:  BTFSS  FD8.2
0AD1E:  BRA    AE52
0AD20:  MOVF   xC0,F
0AD22:  BTFSS  FD8.2
0AD24:  BRA    AE52
....................                            if(!DOOR){ 
0AD26:  BSF    F93.6
0AD28:  BTFSS  F81.6
0AD2A:  BRA    AD32
....................                               Desfogue_off;                               
0AD2C:  BCF    F8C.4
0AD2E:  BCF    F95.4
....................                            }else{ 
0AD30:  BRA    AD36
....................                               Desfogue_on;  
0AD32:  BSF    F8C.4
0AD34:  BCF    F95.4
....................                            } 
....................                            SSR_off; 
0AD36:  BSF    F8B.2
0AD38:  BCF    F94.2
....................                            Secando=OFF; 
0AD3A:  BCF    xA0.3
....................                            if(Temperatura<=90){ 
0AD3C:  MOVFF  31A,41C
0AD40:  MOVFF  319,41B
0AD44:  MOVFF  318,41A
0AD48:  MOVFF  317,419
0AD4C:  MOVLB  4
0AD4E:  CLRF   x20
0AD50:  CLRF   x1F
0AD52:  MOVLW  34
0AD54:  MOVWF  x1E
0AD56:  MOVLW  85
0AD58:  MOVWF  x1D
0AD5A:  MOVLB  0
0AD5C:  CALL   2A96
0AD60:  BC    AD64
0AD62:  BNZ   ADA0
....................                               ActivaAlarma(2); 
0AD64:  MOVLW  02
0AD66:  MOVLB  4
0AD68:  MOVWF  x15
0AD6A:  MOVLB  0
0AD6C:  CALL   4378
....................                               printf("Funcionamiento.t4f.txt=\" Ninguna\""); 
0AD70:  MOVLW  D6
0AD72:  MOVWF  FF6
0AD74:  MOVLW  13
0AD76:  MOVWF  FF7
0AD78:  MOVLW  00
0AD7A:  MOVWF  FF8
0AD7C:  CALL   3580
....................                               SendDataDisplay(); 
0AD80:  CALL   35B2
....................                               printf("Funcionamiento.t5f.txt=\" Finalizado\""); 
0AD84:  MOVLW  F8
0AD86:  MOVWF  FF6
0AD88:  MOVLW  13
0AD8A:  MOVWF  FF7
0AD8C:  MOVLW  00
0AD8E:  MOVWF  FF8
0AD90:  CALL   3580
....................                               SendDataDisplay(); 
0AD94:  CALL   35B2
....................                               Finalizo=ON; 
0AD98:  BSF    xA3.2
....................                               Bomba_off; 
0AD9A:  BCF    F8C.6
0AD9C:  BCF    F95.6
....................                               Aire=OFF; 
0AD9E:  BCF    xA3.7
....................                            } 
....................                            if(!Ciclo){ 
0ADA0:  BTFSC  xA1.3
0ADA2:  BRA    AE4E
....................                               Ciclo=ON; 
0ADA4:  BSF    xA1.3
....................                               Ciclos++; 
0ADA6:  MOVLB  3
0ADA8:  INCF   x66,F
0ADAA:  BTFSC  FD8.2
0ADAC:  INCF   x67,F
....................                               CiclosL=make8(Ciclos,0); 
0ADAE:  MOVFF  366,34D
....................                               CiclosH=make8(Ciclos,1); 
0ADB2:  MOVFF  367,34E
....................                               write_eeprom(37,CiclosL); 
0ADB6:  CLRF   FAA
0ADB8:  MOVLW  25
0ADBA:  MOVWF  FA9
0ADBC:  MOVFF  34D,FA8
0ADC0:  BCF    FA6.6
0ADC2:  BCF    FA6.7
0ADC4:  BSF    FA6.2
0ADC6:  MOVF   FF2,W
0ADC8:  MOVWF  00
0ADCA:  BCF    FF2.6
0ADCC:  BCF    FF2.7
0ADCE:  MOVLB  F
0ADD0:  MOVLW  55
0ADD2:  MOVWF  FA7
0ADD4:  MOVLW  AA
0ADD6:  MOVWF  FA7
0ADD8:  BSF    FA6.1
0ADDA:  BTFSC  FA6.1
0ADDC:  BRA    ADDA
0ADDE:  BCF    FA6.2
0ADE0:  MOVF   00,W
0ADE2:  IORWF  FF2,F
....................                               delay_ms(20); 
0ADE4:  MOVLW  14
0ADE6:  MOVLB  4
0ADE8:  MOVWF  x2A
0ADEA:  MOVLB  0
0ADEC:  CALL   1814
....................                               write_eeprom(38,CiclosH); 
0ADF0:  CLRF   FAA
0ADF2:  MOVLW  26
0ADF4:  MOVWF  FA9
0ADF6:  MOVFF  34E,FA8
0ADFA:  BCF    FA6.6
0ADFC:  BCF    FA6.7
0ADFE:  BSF    FA6.2
0AE00:  MOVF   FF2,W
0AE02:  MOVWF  00
0AE04:  BCF    FF2.6
0AE06:  BCF    FF2.7
0AE08:  MOVLB  F
0AE0A:  MOVLW  55
0AE0C:  MOVWF  FA7
0AE0E:  MOVLW  AA
0AE10:  MOVWF  FA7
0AE12:  BSF    FA6.1
0AE14:  BTFSC  FA6.1
0AE16:  BRA    AE14
0AE18:  BCF    FA6.2
0AE1A:  MOVF   00,W
0AE1C:  IORWF  FF2,F
....................                               delay_ms(20); 
0AE1E:  MOVLW  14
0AE20:  MOVLB  4
0AE22:  MOVWF  x2A
0AE24:  MOVLB  0
0AE26:  CALL   1814
....................                               if(ActivaImpresion==1){ 
0AE2A:  MOVLB  3
0AE2C:  DECFSZ x42,W
0AE2E:  BRA    AE4C
....................                                  Imprime=28; 
0AE30:  MOVLW  1C
0AE32:  MOVWF  x8E
....................                                  Envio_Esclavos(); 
0AE34:  MOVLB  0
0AE36:  CALL   3F06
....................                                  delay_ms(100); 
0AE3A:  MOVLW  64
0AE3C:  MOVLB  4
0AE3E:  MOVWF  x2A
0AE40:  MOVLB  0
0AE42:  CALL   1814
....................                                  Imprime=10; 
0AE46:  MOVLW  0A
0AE48:  MOVLB  3
0AE4A:  MOVWF  x8E
0AE4C:  MOVLB  0
....................                               } 
....................                            } 
....................                            Secando=OFF; 
0AE4E:  BCF    xA0.3
....................                         }else{ 
0AE50:  BRA    AE8A
....................                            Secando=ON; 
0AE52:  BSF    xA0.3
....................                            printf("Funcionamiento.t4f.txt=\" Ninguna\""); 
0AE54:  MOVLW  1E
0AE56:  MOVWF  FF6
0AE58:  MOVLW  14
0AE5A:  MOVWF  FF7
0AE5C:  MOVLW  00
0AE5E:  MOVWF  FF8
0AE60:  CALL   3580
....................                            SendDataDisplay(); 
0AE64:  CALL   35B2
....................                            printf("Funcionamiento.t5f.txt=\" Secando\""); 
0AE68:  MOVLW  40
0AE6A:  MOVWF  FF6
0AE6C:  MOVLW  14
0AE6E:  MOVWF  FF7
0AE70:  MOVLW  00
0AE72:  MOVWF  FF8
0AE74:  CALL   3580
....................                            SendDataDisplay();                            
0AE78:  CALL   35B2
....................                            CalientaChaqueta(); 
0AE7C:  CALL   58F8
....................                            Bomba_off; 
0AE80:  BCF    F8C.6
0AE82:  BCF    F95.6
....................                            Aire=ON; 
0AE84:  BSF    xA3.7
....................                            Desfogue_off; 
0AE86:  BCF    F8C.4
0AE88:  BCF    F95.4
....................                         } 
....................                      }else if(PresionCamara>5){ 
0AE8A:  BRA    AED2
0AE8C:  MOVLB  3
0AE8E:  MOVF   x63,F
0AE90:  BNZ   AE98
0AE92:  MOVF   x62,W
0AE94:  SUBLW  05
0AE96:  BC    AED4
....................                         Desfogando=ON; 
0AE98:  MOVLB  0
0AE9A:  BSF    xA0.5
....................                         printf("Funcionamiento.t4f.txt=\" Ninguna\""); 
0AE9C:  MOVLW  62
0AE9E:  MOVWF  FF6
0AEA0:  MOVLW  14
0AEA2:  MOVWF  FF7
0AEA4:  MOVLW  00
0AEA6:  MOVWF  FF8
0AEA8:  CALL   3580
....................                         SendDataDisplay(); 
0AEAC:  CALL   35B2
....................                         printf("Funcionamiento.t5f.txt=\" Despresurizando\""); 
0AEB0:  MOVLW  84
0AEB2:  MOVWF  FF6
0AEB4:  MOVLW  14
0AEB6:  MOVWF  FF7
0AEB8:  MOVLW  00
0AEBA:  MOVWF  FF8
0AEBC:  CALL   3580
....................                         SendDataDisplay();                         
0AEC0:  CALL   35B2
....................                         CalientaChaqueta(); 
0AEC4:  CALL   58F8
....................                         Bomba_off; 
0AEC8:  BCF    F8C.6
0AECA:  BCF    F95.6
....................                         Aire=OFF; 
0AECC:  BCF    xA3.7
....................                         Desfogue_on; 
0AECE:  BSF    F8C.4
0AED0:  BCF    F95.4
0AED2:  MOVLB  3
....................                      } 
....................                   } 
....................                    
....................                }else{ 
0AED4:  BRA    AF18
0AED6:  MOVLB  0
....................                   printf("Funcionamiento.t4f.txt=\" Ninguna\""); 
0AED8:  MOVLW  AE
0AEDA:  MOVWF  FF6
0AEDC:  MOVLW  14
0AEDE:  MOVWF  FF7
0AEE0:  MOVLW  00
0AEE2:  MOVWF  FF8
0AEE4:  CALL   3580
....................                   SendDataDisplay(); 
0AEE8:  CALL   35B2
....................                   printf("Funcionamiento.t5f.txt=\" Esterilizando\""); 
0AEEC:  MOVLW  D0
0AEEE:  MOVWF  FF6
0AEF0:  MOVLW  14
0AEF2:  MOVWF  FF7
0AEF4:  MOVLW  00
0AEF6:  MOVWF  FF8
0AEF8:  CALL   3580
....................                   SendDataDisplay(); 
0AEFC:  CALL   35B2
....................                   Bomba_off; 
0AF00:  BCF    F8C.6
0AF02:  BCF    F95.6
....................                   Aire=OFF; 
0AF04:  BCF    xA3.7
....................                   Desfogue_off; 
0AF06:  BCF    F8C.4
0AF08:  BCF    F95.4
....................                   Control=1; 
0AF0A:  MOVLW  01
0AF0C:  MOVLB  3
0AF0E:  MOVWF  x3F
....................                   //Controla(); 
....................                   ControlaPresion(); 
0AF10:  MOVLB  0
0AF12:  CALL   5178
0AF16:  MOVLB  3
....................                } 
....................             } 
....................          } 
....................    } 
....................  
....................    if(Grafica==1){ 
0AF18:  MOVLB  0
0AF1A:  BTFSS  xA4.4
0AF1C:  BRA    AF5A
....................       printf("add 14,0,%1.0f",Temperatura); 
0AF1E:  MOVLW  F8
0AF20:  MOVWF  FF6
0AF22:  MOVLW  14
0AF24:  MOVWF  FF7
0AF26:  MOVLW  00
0AF28:  MOVWF  FF8
0AF2A:  MOVLW  09
0AF2C:  MOVLB  4
0AF2E:  MOVWF  x19
0AF30:  MOVLB  0
0AF32:  CALL   447A
0AF36:  MOVLW  00
0AF38:  MOVWF  FE9
0AF3A:  MOVFF  31A,41C
0AF3E:  MOVFF  319,41B
0AF42:  MOVFF  318,41A
0AF46:  MOVFF  317,419
0AF4A:  MOVLB  4
0AF4C:  CLRF   x1D
0AF4E:  MOVLB  0
0AF50:  CALL   4744
....................       SendDataDisplay(); 
0AF54:  CALL   35B2
....................       Grafica=0; 
0AF58:  BCF    xA4.4
....................    } 
....................    if(Lectura==1)// Utilizado para visualizar la lectura de la temperatura 
0AF5A:  BTFSS  xA4.3
0AF5C:  BRA    B21C
....................    {                             
....................       Lectura=0; 
0AF5E:  BCF    xA4.3
....................       printf("t6f.txt=\"%3.1fC\"",Temperatura); 
0AF60:  MOVLW  08
0AF62:  MOVWF  FF6
0AF64:  MOVLW  15
0AF66:  MOVWF  FF7
0AF68:  MOVLW  00
0AF6A:  MOVWF  FF8
0AF6C:  MOVLW  09
0AF6E:  MOVLB  4
0AF70:  MOVWF  x19
0AF72:  MOVLB  0
0AF74:  CALL   447A
0AF78:  MOVLW  02
0AF7A:  MOVWF  FE9
0AF7C:  MOVFF  31A,41C
0AF80:  MOVFF  319,41B
0AF84:  MOVFF  318,41A
0AF88:  MOVFF  317,419
0AF8C:  MOVLW  01
0AF8E:  MOVLB  4
0AF90:  MOVWF  x1D
0AF92:  MOVLB  0
0AF94:  CALL   4744
0AF98:  MOVLW  B0
0AF9A:  BTFSS  F9E.4
0AF9C:  BRA    AF9A
0AF9E:  MOVWF  FAD
0AFA0:  MOVLW  43
0AFA2:  BTFSS  F9E.4
0AFA4:  BRA    AFA2
0AFA6:  MOVWF  FAD
0AFA8:  MOVLW  22
0AFAA:  BTFSS  F9E.4
0AFAC:  BRA    AFAA
0AFAE:  MOVWF  FAD
....................       SendDataDisplay(); 
0AFB0:  CALL   35B2
....................       printf("Funcionamiento.t7f.txt=\"%03LukPa\"",PresionCamara); 
0AFB4:  MOVLW  1A
0AFB6:  MOVWF  FF6
0AFB8:  MOVLW  15
0AFBA:  MOVWF  FF7
0AFBC:  MOVLW  00
0AFBE:  MOVWF  FF8
0AFC0:  MOVLW  18
0AFC2:  MOVLB  4
0AFC4:  MOVWF  x19
0AFC6:  MOVLB  0
0AFC8:  CALL   447A
0AFCC:  MOVLW  0A
0AFCE:  MOVWF  FE9
0AFD0:  MOVFF  363,41A
0AFD4:  MOVFF  362,419
0AFD8:  CALL   45D6
0AFDC:  MOVLW  37
0AFDE:  MOVWF  FF6
0AFE0:  MOVLW  15
0AFE2:  MOVWF  FF7
0AFE4:  MOVLW  00
0AFE6:  MOVWF  FF8
0AFE8:  MOVLW  04
0AFEA:  MOVLB  4
0AFEC:  MOVWF  x19
0AFEE:  MOVLB  0
0AFF0:  CALL   447A
....................       SendDataDisplay(); 
0AFF4:  CALL   35B2
....................       //printf("Funcionamiento.t12f.txt=\"%03LukPa\"",PresionPreCamara); 
....................       printf("Funcionamiento.t12f.txt=\"000kPa\""); 
0AFF8:  MOVLW  3C
0AFFA:  MOVWF  FF6
0AFFC:  MOVLW  15
0AFFE:  MOVWF  FF7
0B000:  MOVLW  00
0B002:  MOVWF  FF8
0B004:  CALL   3580
....................       SendDataDisplay(); 
0B008:  CALL   35B2
....................       printf("Funcionamiento.t9f.txt=\"%03u\"",Setpoint); 
0B00C:  MOVLW  5E
0B00E:  MOVWF  FF6
0B010:  MOVLW  15
0B012:  MOVWF  FF7
0B014:  MOVLW  00
0B016:  MOVWF  FF8
0B018:  MOVLW  18
0B01A:  MOVLB  4
0B01C:  MOVWF  x19
0B01E:  MOVLB  0
0B020:  CALL   447A
0B024:  MOVFF  350,417
0B028:  MOVLW  03
0B02A:  MOVLB  4
0B02C:  MOVWF  x18
0B02E:  MOVLB  0
0B030:  CALL   44D8
0B034:  MOVLW  22
0B036:  BTFSS  F9E.4
0B038:  BRA    B036
0B03A:  MOVWF  FAD
....................       SendDataDisplay();       
0B03C:  CALL   35B2
....................       printf("Funcionamiento.t10f.txt=\"%02u\"",((Testerilizacion[3]*10)+Testerilizacion[2])); 
0B040:  MOVFF  B6,417
0B044:  MOVLW  0A
0B046:  MOVLB  4
0B048:  MOVWF  x18
0B04A:  MOVLB  0
0B04C:  CALL   2B10
0B050:  MOVF   xB5,W
0B052:  ADDWF  01,W
0B054:  MOVLB  4
0B056:  MOVWF  x15
0B058:  MOVLW  7C
0B05A:  MOVWF  FF6
0B05C:  MOVLW  15
0B05E:  MOVWF  FF7
0B060:  MOVLW  00
0B062:  MOVWF  FF8
0B064:  MOVLW  19
0B066:  MOVWF  x19
0B068:  MOVLB  0
0B06A:  CALL   447A
0B06E:  MOVFF  415,417
0B072:  MOVLW  01
0B074:  MOVLB  4
0B076:  MOVWF  x18
0B078:  MOVLB  0
0B07A:  CALL   44D8
0B07E:  MOVLW  22
0B080:  BTFSS  F9E.4
0B082:  BRA    B080
0B084:  MOVWF  FAD
....................       SendDataDisplay();       
0B086:  CALL   35B2
....................       printf("Funcionamiento.t13f.txt=\"%02u\"",((Testerilizacion[1]*10)+Testerilizacion[0])); 
0B08A:  MOVFF  B4,417
0B08E:  MOVLW  0A
0B090:  MOVLB  4
0B092:  MOVWF  x18
0B094:  MOVLB  0
0B096:  CALL   2B10
0B09A:  MOVF   xB3,W
0B09C:  ADDWF  01,W
0B09E:  MOVLB  4
0B0A0:  MOVWF  x15
0B0A2:  MOVLW  9C
0B0A4:  MOVWF  FF6
0B0A6:  MOVLW  15
0B0A8:  MOVWF  FF7
0B0AA:  MOVLW  00
0B0AC:  MOVWF  FF8
0B0AE:  MOVLW  19
0B0B0:  MOVWF  x19
0B0B2:  MOVLB  0
0B0B4:  CALL   447A
0B0B8:  MOVFF  415,417
0B0BC:  MOVLW  01
0B0BE:  MOVLB  4
0B0C0:  MOVWF  x18
0B0C2:  MOVLB  0
0B0C4:  CALL   44D8
0B0C8:  MOVLW  22
0B0CA:  BTFSS  F9E.4
0B0CC:  BRA    B0CA
0B0CE:  MOVWF  FAD
....................       SendDataDisplay();       
0B0D0:  CALL   35B2
....................       printf("Funcionamiento.t11f.txt=\"%02u\"",((Tsecado[3]*10)+Tsecado[2])); 
0B0D4:  MOVFF  C0,417
0B0D8:  MOVLW  0A
0B0DA:  MOVLB  4
0B0DC:  MOVWF  x18
0B0DE:  MOVLB  0
0B0E0:  CALL   2B10
0B0E4:  MOVF   xBF,W
0B0E6:  ADDWF  01,W
0B0E8:  MOVLB  4
0B0EA:  MOVWF  x15
0B0EC:  MOVLW  BC
0B0EE:  MOVWF  FF6
0B0F0:  MOVLW  15
0B0F2:  MOVWF  FF7
0B0F4:  MOVLW  00
0B0F6:  MOVWF  FF8
0B0F8:  MOVLW  19
0B0FA:  MOVWF  x19
0B0FC:  MOVLB  0
0B0FE:  CALL   447A
0B102:  MOVFF  415,417
0B106:  MOVLW  01
0B108:  MOVLB  4
0B10A:  MOVWF  x18
0B10C:  MOVLB  0
0B10E:  CALL   44D8
0B112:  MOVLW  22
0B114:  BTFSS  F9E.4
0B116:  BRA    B114
0B118:  MOVWF  FAD
....................       SendDataDisplay();       
0B11A:  CALL   35B2
....................       printf("Funcionamiento.t16f.txt=\"%02u\"",((Tsecado[1]*10)+Tsecado[0])); 
0B11E:  MOVFF  BE,417
0B122:  MOVLW  0A
0B124:  MOVLB  4
0B126:  MOVWF  x18
0B128:  MOVLB  0
0B12A:  CALL   2B10
0B12E:  MOVF   xBD,W
0B130:  ADDWF  01,W
0B132:  MOVLB  4
0B134:  MOVWF  x15
0B136:  MOVLW  DC
0B138:  MOVWF  FF6
0B13A:  MOVLW  15
0B13C:  MOVWF  FF7
0B13E:  MOVLW  00
0B140:  MOVWF  FF8
0B142:  MOVLW  19
0B144:  MOVWF  x19
0B146:  MOVLB  0
0B148:  CALL   447A
0B14C:  MOVFF  415,417
0B150:  MOVLW  01
0B152:  MOVLB  4
0B154:  MOVWF  x18
0B156:  MOVLB  0
0B158:  CALL   44D8
0B15C:  MOVLW  22
0B15E:  BTFSS  F9E.4
0B160:  BRA    B15E
0B162:  MOVWF  FAD
....................       SendDataDisplay();       
0B164:  CALL   35B2
....................        
....................       printf("fecha.txt=\"Fecha:%02u/%02u/20%02u  Hora: %02u:%02u\"",Dia,Mes,Year,Hora,Minuto); 
0B168:  MOVLW  FC
0B16A:  MOVWF  FF6
0B16C:  MOVLW  15
0B16E:  MOVWF  FF7
0B170:  MOVLW  00
0B172:  MOVWF  FF8
0B174:  MOVLW  11
0B176:  MOVLB  4
0B178:  MOVWF  x19
0B17A:  MOVLB  0
0B17C:  CALL   447A
0B180:  MOVFF  381,417
0B184:  MOVLW  01
0B186:  MOVLB  4
0B188:  MOVWF  x18
0B18A:  MOVLB  0
0B18C:  CALL   44D8
0B190:  MOVLW  2F
0B192:  BTFSS  F9E.4
0B194:  BRA    B192
0B196:  MOVWF  FAD
0B198:  MOVFF  380,417
0B19C:  MOVLW  01
0B19E:  MOVLB  4
0B1A0:  MOVWF  x18
0B1A2:  MOVLB  0
0B1A4:  CALL   44D8
0B1A8:  MOVLW  2F
0B1AA:  BTFSS  F9E.4
0B1AC:  BRA    B1AA
0B1AE:  MOVWF  FAD
0B1B0:  MOVLW  32
0B1B2:  BTFSS  F9E.4
0B1B4:  BRA    B1B2
0B1B6:  MOVWF  FAD
0B1B8:  MOVLW  30
0B1BA:  BTFSS  F9E.4
0B1BC:  BRA    B1BA
0B1BE:  MOVWF  FAD
0B1C0:  MOVFF  37F,417
0B1C4:  MOVLW  01
0B1C6:  MOVLB  4
0B1C8:  MOVWF  x18
0B1CA:  MOVLB  0
0B1CC:  CALL   44D8
0B1D0:  MOVLW  1D
0B1D2:  MOVWF  FF6
0B1D4:  MOVLW  16
0B1D6:  MOVWF  FF7
0B1D8:  MOVLW  00
0B1DA:  MOVWF  FF8
0B1DC:  MOVLW  08
0B1DE:  MOVLB  4
0B1E0:  MOVWF  x19
0B1E2:  MOVLB  0
0B1E4:  CALL   447A
0B1E8:  MOVFF  382,417
0B1EC:  MOVLW  01
0B1EE:  MOVLB  4
0B1F0:  MOVWF  x18
0B1F2:  MOVLB  0
0B1F4:  CALL   44D8
0B1F8:  MOVLW  3A
0B1FA:  BTFSS  F9E.4
0B1FC:  BRA    B1FA
0B1FE:  MOVWF  FAD
0B200:  MOVFF  383,417
0B204:  MOVLW  01
0B206:  MOVLB  4
0B208:  MOVWF  x18
0B20A:  MOVLB  0
0B20C:  CALL   44D8
0B210:  MOVLW  22
0B212:  BTFSS  F9E.4
0B214:  BRA    B212
0B216:  MOVWF  FAD
....................       SendDataDisplay(); 
0B218:  CALL   35B2
0B21C:  MOVLB  3
....................    } 
....................  
....................  
.................... } 
.................... //_-------------------------------------------------------------------------------------------------------------------------------------------------------- 
....................  
.................... //_-------------------------------------------------------------------------------------------------------------------------------------------------------- 
....................       if(Menu==100){ //Menu de Configuracin de Parametros de Control 
0B21E:  MOVF   x49,W
0B220:  SUBLW  64
0B222:  BTFSS  FD8.2
0B224:  GOTO   BFFE
....................       
....................       if(Opcion2>10) 
0B228:  MOVF   x52,W
0B22A:  SUBLW  0A
0B22C:  BC    B232
....................          Opcion2=1; 
0B22E:  MOVLW  01
0B230:  MOVWF  x52
....................       if(Opcion2<1) 
0B232:  MOVF   x52,F
0B234:  BNZ   B23A
....................          Opcion2=10; 
0B236:  MOVLW  0A
0B238:  MOVWF  x52
....................        
....................       if(Opcion2==1){ 
0B23A:  DECFSZ x52,W
0B23C:  BRA    B3BA
....................          printf("Config.t2c.txt=\"Proporcional\""); 
0B23E:  MOVLW  30
0B240:  MOVWF  FF6
0B242:  MOVLW  16
0B244:  MOVWF  FF7
0B246:  MOVLW  00
0B248:  MOVWF  FF8
0B24A:  MOVLB  0
0B24C:  CALL   3580
....................          SendDataDisplay();       
0B250:  CALL   35B2
....................          printf("t3c.txt=\"%2.0f\"",Ganancia); 
0B254:  MOVLW  4E
0B256:  MOVWF  FF6
0B258:  MOVLW  16
0B25A:  MOVWF  FF7
0B25C:  MOVLW  00
0B25E:  MOVWF  FF8
0B260:  MOVLW  09
0B262:  MOVLB  4
0B264:  MOVWF  x19
0B266:  MOVLB  0
0B268:  CALL   447A
0B26C:  MOVLW  01
0B26E:  MOVWF  FE9
0B270:  MOVFF  2FA,41C
0B274:  MOVFF  2F9,41B
0B278:  MOVFF  2F8,41A
0B27C:  MOVFF  2F7,419
0B280:  MOVLB  4
0B282:  CLRF   x1D
0B284:  MOVLB  0
0B286:  CALL   4744
0B28A:  MOVLW  22
0B28C:  BTFSS  F9E.4
0B28E:  BRA    B28C
0B290:  MOVWF  FAD
....................          SendDataDisplay(); 
0B292:  CALL   35B2
....................          if(RX_Buffer[4]==0x0a || UP){//Tecla Arriba Oprimida 
0B296:  MOVF   34,W
0B298:  SUBLW  0A
0B29A:  BZ    B2A2
0B29C:  BSF    F93.0
0B29E:  BTFSC  F81.0
0B2A0:  BRA    B2F2
....................             delay_ms(20); 
0B2A2:  MOVLW  14
0B2A4:  MOVLB  4
0B2A6:  MOVWF  x2A
0B2A8:  MOVLB  0
0B2AA:  CALL   1814
....................             if(RX_Buffer[4]==0x0a || UP){ 
0B2AE:  MOVF   34,W
0B2B0:  SUBLW  0A
0B2B2:  BZ    B2BA
0B2B4:  BSF    F93.0
0B2B6:  BTFSC  F81.0
0B2B8:  BRA    B2F2
....................                Ganancia+=1.0; 
0B2BA:  BCF    FD8.1
0B2BC:  MOVFF  2FA,42D
0B2C0:  MOVFF  2F9,42C
0B2C4:  MOVFF  2F8,42B
0B2C8:  MOVFF  2F7,42A
0B2CC:  MOVLB  4
0B2CE:  CLRF   x31
0B2D0:  CLRF   x30
0B2D2:  CLRF   x2F
0B2D4:  MOVLW  7F
0B2D6:  MOVWF  x2E
0B2D8:  MOVLB  0
0B2DA:  CALL   19D0
0B2DE:  MOVFF  03,2FA
0B2E2:  MOVFF  02,2F9
0B2E6:  MOVFF  01,2F8
0B2EA:  MOVFF  00,2F7
....................                RX_Buffer[4]=0x00;   
0B2EE:  CLRF   34
....................                RX_Buffer2[4]=0x00;             
0B2F0:  CLRF   3F
....................                //BorraBuffer(); 
....................             } 
....................          } 
....................              
....................          if(RX_Buffer[4]==0x0b || DOWN){//Tecla Abajo Oprimida 
0B2F2:  MOVF   34,W
0B2F4:  SUBLW  0B
0B2F6:  BZ    B2FE
0B2F8:  BSF    F93.1
0B2FA:  BTFSC  F81.1
0B2FC:  BRA    B34E
....................             delay_ms(20); 
0B2FE:  MOVLW  14
0B300:  MOVLB  4
0B302:  MOVWF  x2A
0B304:  MOVLB  0
0B306:  CALL   1814
....................             if(RX_Buffer[4]==0x0b || DOWN){ 
0B30A:  MOVF   34,W
0B30C:  SUBLW  0B
0B30E:  BZ    B316
0B310:  BSF    F93.1
0B312:  BTFSC  F81.1
0B314:  BRA    B34E
....................                Ganancia-=1.0; 
0B316:  BSF    FD8.1
0B318:  MOVFF  2FA,42D
0B31C:  MOVFF  2F9,42C
0B320:  MOVFF  2F8,42B
0B324:  MOVFF  2F7,42A
0B328:  MOVLB  4
0B32A:  CLRF   x31
0B32C:  CLRF   x30
0B32E:  CLRF   x2F
0B330:  MOVLW  7F
0B332:  MOVWF  x2E
0B334:  MOVLB  0
0B336:  CALL   19D0
0B33A:  MOVFF  03,2FA
0B33E:  MOVFF  02,2F9
0B342:  MOVFF  01,2F8
0B346:  MOVFF  00,2F7
....................                RX_Buffer[4]=0x00; 
0B34A:  CLRF   34
....................                RX_Buffer2[4]=0x00;             
0B34C:  CLRF   3F
....................                //BorraBuffer(); 
....................             } 
....................          } 
....................           
....................          if(Ganancia>40) 
0B34E:  MOVLB  4
0B350:  CLRF   x1C
0B352:  CLRF   x1B
0B354:  MOVLW  20
0B356:  MOVWF  x1A
0B358:  MOVLW  84
0B35A:  MOVWF  x19
0B35C:  MOVFF  2FA,420
0B360:  MOVFF  2F9,41F
0B364:  MOVFF  2F8,41E
0B368:  MOVFF  2F7,41D
0B36C:  MOVLB  0
0B36E:  CALL   2A96
0B372:  BNC   B380
....................             Ganancia=1; 
0B374:  MOVLB  2
0B376:  CLRF   xFA
0B378:  CLRF   xF9
0B37A:  CLRF   xF8
0B37C:  MOVLW  7F
0B37E:  MOVWF  xF7
....................          if(Ganancia<1) 
0B380:  MOVFF  2FA,41C
0B384:  MOVFF  2F9,41B
0B388:  MOVFF  2F8,41A
0B38C:  MOVFF  2F7,419
0B390:  MOVLB  4
0B392:  CLRF   x20
0B394:  CLRF   x1F
0B396:  CLRF   x1E
0B398:  MOVLW  7F
0B39A:  MOVWF  x1D
0B39C:  MOVLB  0
0B39E:  CALL   2A96
0B3A2:  BNC   B3B4
....................             Ganancia=40; 
0B3A4:  MOVLB  2
0B3A6:  CLRF   xFA
0B3A8:  CLRF   xF9
0B3AA:  MOVLW  20
0B3AC:  MOVWF  xF8
0B3AE:  MOVLW  84
0B3B0:  MOVWF  xF7
0B3B2:  MOVLB  0
....................       }else if(Opcion2==2){ 
0B3B4:  GOTO   BB70
0B3B8:  MOVLB  3
0B3BA:  MOVF   x52,W
0B3BC:  SUBLW  02
0B3BE:  BNZ   B47E
....................          printf("Config.t2c.txt=\"Derivativo\""); 
0B3C0:  MOVLW  5E
0B3C2:  MOVWF  FF6
0B3C4:  MOVLW  16
0B3C6:  MOVWF  FF7
0B3C8:  MOVLW  00
0B3CA:  MOVWF  FF8
0B3CC:  MOVLB  0
0B3CE:  CALL   3580
....................          SendDataDisplay();       
0B3D2:  CALL   35B2
....................          printf("t3c.txt=\"%u\"",Derivativo); 
0B3D6:  MOVLW  7A
0B3D8:  MOVWF  FF6
0B3DA:  MOVLW  16
0B3DC:  MOVWF  FF7
0B3DE:  MOVLW  00
0B3E0:  MOVWF  FF8
0B3E2:  MOVLW  09
0B3E4:  MOVLB  4
0B3E6:  MOVWF  x19
0B3E8:  MOVLB  0
0B3EA:  CALL   447A
0B3EE:  MOVFF  33C,417
0B3F2:  MOVLW  1B
0B3F4:  MOVLB  4
0B3F6:  MOVWF  x18
0B3F8:  MOVLB  0
0B3FA:  CALL   44D8
0B3FE:  MOVLW  22
0B400:  BTFSS  F9E.4
0B402:  BRA    B400
0B404:  MOVWF  FAD
....................          SendDataDisplay(); 
0B406:  CALL   35B2
....................          if(RX_Buffer[4]==0x0a || UP){//Tecla Arriba Oprimida 
0B40A:  MOVF   34,W
0B40C:  SUBLW  0A
0B40E:  BZ    B416
0B410:  BSF    F93.0
0B412:  BTFSC  F81.0
0B414:  BRA    B438
....................             delay_ms(20); 
0B416:  MOVLW  14
0B418:  MOVLB  4
0B41A:  MOVWF  x2A
0B41C:  MOVLB  0
0B41E:  CALL   1814
....................             if(RX_Buffer[4]==0x0a || UP){ 
0B422:  MOVF   34,W
0B424:  SUBLW  0A
0B426:  BZ    B42E
0B428:  BSF    F93.0
0B42A:  BTFSC  F81.0
0B42C:  BRA    B438
....................                Derivativo++; 
0B42E:  MOVLB  3
0B430:  INCF   x3C,F
....................                RX_Buffer[4]=0x00;   
0B432:  CLRF   34
....................                RX_Buffer2[4]=0x00;             
0B434:  CLRF   3F
0B436:  MOVLB  0
....................                //BorraBuffer(); 
....................             } 
....................          } 
....................              
....................          if(RX_Buffer[4]==0x0b || DOWN){//Tecla Abajo Oprimida 
0B438:  MOVF   34,W
0B43A:  SUBLW  0B
0B43C:  BZ    B444
0B43E:  BSF    F93.1
0B440:  BTFSC  F81.1
0B442:  BRA    B466
....................             delay_ms(20); 
0B444:  MOVLW  14
0B446:  MOVLB  4
0B448:  MOVWF  x2A
0B44A:  MOVLB  0
0B44C:  CALL   1814
....................             if(RX_Buffer[4]==0x0b || DOWN){ 
0B450:  MOVF   34,W
0B452:  SUBLW  0B
0B454:  BZ    B45C
0B456:  BSF    F93.1
0B458:  BTFSC  F81.1
0B45A:  BRA    B466
....................                Derivativo--; 
0B45C:  MOVLB  3
0B45E:  DECF   x3C,F
....................                RX_Buffer[4]=0x00; 
0B460:  CLRF   34
....................                RX_Buffer2[4]=0x00;             
0B462:  CLRF   3F
0B464:  MOVLB  0
....................                //BorraBuffer(); 
....................             } 
....................          } 
....................           
....................           
....................          if(Derivativo>40) 
0B466:  MOVLB  3
0B468:  MOVF   x3C,W
0B46A:  SUBLW  28
0B46C:  BC    B472
....................             Derivativo=1; 
0B46E:  MOVLW  01
0B470:  MOVWF  x3C
....................          if(Derivativo<1) 
0B472:  MOVF   x3C,F
0B474:  BNZ   B47A
....................             Derivativo=40; 
0B476:  MOVLW  28
0B478:  MOVWF  x3C
....................       }else if(Opcion2==3){ 
0B47A:  GOTO   BB72
0B47E:  MOVF   x52,W
0B480:  SUBLW  03
0B482:  BNZ   B540
....................          printf("Config.t2c.txt=\"Integral\""); 
0B484:  MOVLW  88
0B486:  MOVWF  FF6
0B488:  MOVLW  16
0B48A:  MOVWF  FF7
0B48C:  MOVLW  00
0B48E:  MOVWF  FF8
0B490:  MOVLB  0
0B492:  CALL   3580
....................          SendDataDisplay();       
0B496:  CALL   35B2
....................          printf("t3c.txt=\"%u\"",Integral); 
0B49A:  MOVLW  A2
0B49C:  MOVWF  FF6
0B49E:  MOVLW  16
0B4A0:  MOVWF  FF7
0B4A2:  MOVLW  00
0B4A4:  MOVWF  FF8
0B4A6:  MOVLW  09
0B4A8:  MOVLB  4
0B4AA:  MOVWF  x19
0B4AC:  MOVLB  0
0B4AE:  CALL   447A
0B4B2:  MOVFF  33B,417
0B4B6:  MOVLW  1B
0B4B8:  MOVLB  4
0B4BA:  MOVWF  x18
0B4BC:  MOVLB  0
0B4BE:  CALL   44D8
0B4C2:  MOVLW  22
0B4C4:  BTFSS  F9E.4
0B4C6:  BRA    B4C4
0B4C8:  MOVWF  FAD
....................          SendDataDisplay(); 
0B4CA:  CALL   35B2
....................          if(RX_Buffer[4]==0x0a || UP){//Tecla Arriba Oprimida 
0B4CE:  MOVF   34,W
0B4D0:  SUBLW  0A
0B4D2:  BZ    B4DA
0B4D4:  BSF    F93.0
0B4D6:  BTFSC  F81.0
0B4D8:  BRA    B4FC
....................             delay_ms(20); 
0B4DA:  MOVLW  14
0B4DC:  MOVLB  4
0B4DE:  MOVWF  x2A
0B4E0:  MOVLB  0
0B4E2:  CALL   1814
....................             if(RX_Buffer[4]==0x0a || UP){ 
0B4E6:  MOVF   34,W
0B4E8:  SUBLW  0A
0B4EA:  BZ    B4F2
0B4EC:  BSF    F93.0
0B4EE:  BTFSC  F81.0
0B4F0:  BRA    B4FC
....................                Integral++; 
0B4F2:  MOVLB  3
0B4F4:  INCF   x3B,F
....................                RX_Buffer[4]=0x00;   
0B4F6:  CLRF   34
....................                RX_Buffer2[4]=0x00;             
0B4F8:  CLRF   3F
0B4FA:  MOVLB  0
....................                //BorraBuffer(); 
....................             } 
....................          } 
....................              
....................          if(RX_Buffer[4]==0x0b || DOWN){//Tecla Abajo Oprimida 
0B4FC:  MOVF   34,W
0B4FE:  SUBLW  0B
0B500:  BZ    B508
0B502:  BSF    F93.1
0B504:  BTFSC  F81.1
0B506:  BRA    B52A
....................             delay_ms(20); 
0B508:  MOVLW  14
0B50A:  MOVLB  4
0B50C:  MOVWF  x2A
0B50E:  MOVLB  0
0B510:  CALL   1814
....................             if(RX_Buffer[4]==0x0b || DOWN){ 
0B514:  MOVF   34,W
0B516:  SUBLW  0B
0B518:  BZ    B520
0B51A:  BSF    F93.1
0B51C:  BTFSC  F81.1
0B51E:  BRA    B52A
....................                Integral--; 
0B520:  MOVLB  3
0B522:  DECF   x3B,F
....................                RX_Buffer[4]=0x00; 
0B524:  CLRF   34
....................                RX_Buffer2[4]=0x00;             
0B526:  CLRF   3F
0B528:  MOVLB  0
....................                //BorraBuffer(); 
....................             } 
....................          } 
....................           
....................          if(Integral>40) 
0B52A:  MOVLB  3
0B52C:  MOVF   x3B,W
0B52E:  SUBLW  28
0B530:  BC    B536
....................             Integral=1; 
0B532:  MOVLW  01
0B534:  MOVWF  x3B
....................          if(Integral<1) 
0B536:  MOVF   x3B,F
0B538:  BNZ   B53E
....................             Integral=40; 
0B53A:  MOVLW  28
0B53C:  MOVWF  x3B
....................       }else if(Opcion2==4){ 
0B53E:  BRA    BB72
0B540:  MOVF   x52,W
0B542:  SUBLW  04
0B544:  BTFSS  FD8.2
0B546:  BRA    B6C6
....................          printf("Config.t2c.txt=\"Tciclo\""); 
0B548:  MOVLW  B0
0B54A:  MOVWF  FF6
0B54C:  MOVLW  16
0B54E:  MOVWF  FF7
0B550:  MOVLW  00
0B552:  MOVWF  FF8
0B554:  MOVLB  0
0B556:  CALL   3580
....................          SendDataDisplay();       
0B55A:  CALL   35B2
....................          printf("t3c.txt=\"%2.0f\"",Tciclo); 
0B55E:  MOVLW  C8
0B560:  MOVWF  FF6
0B562:  MOVLW  16
0B564:  MOVWF  FF7
0B566:  MOVLW  00
0B568:  MOVWF  FF8
0B56A:  MOVLW  09
0B56C:  MOVLB  4
0B56E:  MOVWF  x19
0B570:  MOVLB  0
0B572:  CALL   447A
0B576:  MOVLW  01
0B578:  MOVWF  FE9
0B57A:  MOVFF  2E2,41C
0B57E:  MOVFF  2E1,41B
0B582:  MOVFF  2E0,41A
0B586:  MOVFF  2DF,419
0B58A:  MOVLB  4
0B58C:  CLRF   x1D
0B58E:  MOVLB  0
0B590:  CALL   4744
0B594:  MOVLW  22
0B596:  BTFSS  F9E.4
0B598:  BRA    B596
0B59A:  MOVWF  FAD
....................          SendDataDisplay(); 
0B59C:  CALL   35B2
....................          if(RX_Buffer[4]==0x0a || UP){//Tecla Arriba Oprimida 
0B5A0:  MOVF   34,W
0B5A2:  SUBLW  0A
0B5A4:  BZ    B5AC
0B5A6:  BSF    F93.0
0B5A8:  BTFSC  F81.0
0B5AA:  BRA    B5FC
....................             delay_ms(20); 
0B5AC:  MOVLW  14
0B5AE:  MOVLB  4
0B5B0:  MOVWF  x2A
0B5B2:  MOVLB  0
0B5B4:  CALL   1814
....................             if(RX_Buffer[4]==0x0a || UP){ 
0B5B8:  MOVF   34,W
0B5BA:  SUBLW  0A
0B5BC:  BZ    B5C4
0B5BE:  BSF    F93.0
0B5C0:  BTFSC  F81.0
0B5C2:  BRA    B5FC
....................                Tciclo+=1.0; 
0B5C4:  BCF    FD8.1
0B5C6:  MOVFF  2E2,42D
0B5CA:  MOVFF  2E1,42C
0B5CE:  MOVFF  2E0,42B
0B5D2:  MOVFF  2DF,42A
0B5D6:  MOVLB  4
0B5D8:  CLRF   x31
0B5DA:  CLRF   x30
0B5DC:  CLRF   x2F
0B5DE:  MOVLW  7F
0B5E0:  MOVWF  x2E
0B5E2:  MOVLB  0
0B5E4:  CALL   19D0
0B5E8:  MOVFF  03,2E2
0B5EC:  MOVFF  02,2E1
0B5F0:  MOVFF  01,2E0
0B5F4:  MOVFF  00,2DF
....................                RX_Buffer[4]=0x00;   
0B5F8:  CLRF   34
....................                RX_Buffer2[4]=0x00;             
0B5FA:  CLRF   3F
....................                //BorraBuffer(); 
....................             } 
....................          } 
....................              
....................          if(RX_Buffer[4]==0x0b || DOWN){//Tecla Abajo Oprimida 
0B5FC:  MOVF   34,W
0B5FE:  SUBLW  0B
0B600:  BZ    B608
0B602:  BSF    F93.1
0B604:  BTFSC  F81.1
0B606:  BRA    B658
....................             delay_ms(20); 
0B608:  MOVLW  14
0B60A:  MOVLB  4
0B60C:  MOVWF  x2A
0B60E:  MOVLB  0
0B610:  CALL   1814
....................             if(RX_Buffer[4]==0x0b || DOWN){ 
0B614:  MOVF   34,W
0B616:  SUBLW  0B
0B618:  BZ    B620
0B61A:  BSF    F93.1
0B61C:  BTFSC  F81.1
0B61E:  BRA    B658
....................                Tciclo-=1.0; 
0B620:  BSF    FD8.1
0B622:  MOVFF  2E2,42D
0B626:  MOVFF  2E1,42C
0B62A:  MOVFF  2E0,42B
0B62E:  MOVFF  2DF,42A
0B632:  MOVLB  4
0B634:  CLRF   x31
0B636:  CLRF   x30
0B638:  CLRF   x2F
0B63A:  MOVLW  7F
0B63C:  MOVWF  x2E
0B63E:  MOVLB  0
0B640:  CALL   19D0
0B644:  MOVFF  03,2E2
0B648:  MOVFF  02,2E1
0B64C:  MOVFF  01,2E0
0B650:  MOVFF  00,2DF
....................                RX_Buffer[4]=0x00; 
0B654:  CLRF   34
....................                RX_Buffer2[4]=0x00;             
0B656:  CLRF   3F
....................                //BorraBuffer(); 
....................             } 
....................          } 
....................           
....................          if(Tciclo>20) 
0B658:  MOVLB  4
0B65A:  CLRF   x1C
0B65C:  CLRF   x1B
0B65E:  MOVLW  20
0B660:  MOVWF  x1A
0B662:  MOVLW  83
0B664:  MOVWF  x19
0B666:  MOVFF  2E2,420
0B66A:  MOVFF  2E1,41F
0B66E:  MOVFF  2E0,41E
0B672:  MOVFF  2DF,41D
0B676:  MOVLB  0
0B678:  CALL   2A96
0B67C:  BNC   B68C
....................             Tciclo=5; 
0B67E:  MOVLB  2
0B680:  CLRF   xE2
0B682:  CLRF   xE1
0B684:  MOVLW  20
0B686:  MOVWF  xE0
0B688:  MOVLW  81
0B68A:  MOVWF  xDF
....................          if(Tciclo<5) 
0B68C:  MOVFF  2E2,41C
0B690:  MOVFF  2E1,41B
0B694:  MOVFF  2E0,41A
0B698:  MOVFF  2DF,419
0B69C:  MOVLB  4
0B69E:  CLRF   x20
0B6A0:  CLRF   x1F
0B6A2:  MOVLW  20
0B6A4:  MOVWF  x1E
0B6A6:  MOVLW  81
0B6A8:  MOVWF  x1D
0B6AA:  MOVLB  0
0B6AC:  CALL   2A96
0B6B0:  BNC   B6C2
....................             Tciclo=20; 
0B6B2:  MOVLB  2
0B6B4:  CLRF   xE2
0B6B6:  CLRF   xE1
0B6B8:  MOVLW  20
0B6BA:  MOVWF  xE0
0B6BC:  MOVLW  83
0B6BE:  MOVWF  xDF
0B6C0:  MOVLB  0
....................       }else if(Opcion2==5){ 
0B6C2:  BRA    BB70
0B6C4:  MOVLB  3
0B6C6:  MOVF   x52,W
0B6C8:  SUBLW  05
0B6CA:  BNZ   B780
....................          printf("Config.t2c.txt=\"Ajuste +\""); 
0B6CC:  MOVLW  D8
0B6CE:  MOVWF  FF6
0B6D0:  MOVLW  16
0B6D2:  MOVWF  FF7
0B6D4:  MOVLW  00
0B6D6:  MOVWF  FF8
0B6D8:  MOVLB  0
0B6DA:  CALL   3580
....................          SendDataDisplay();       
0B6DE:  CALL   35B2
....................          printf("t3c.txt=\"%u\"",Ajuste); 
0B6E2:  MOVLW  F2
0B6E4:  MOVWF  FF6
0B6E6:  MOVLW  16
0B6E8:  MOVWF  FF7
0B6EA:  MOVLW  00
0B6EC:  MOVWF  FF8
0B6EE:  MOVLW  09
0B6F0:  MOVLB  4
0B6F2:  MOVWF  x19
0B6F4:  MOVLB  0
0B6F6:  CALL   447A
0B6FA:  MOVFF  2CF,417
0B6FE:  MOVLW  1B
0B700:  MOVLB  4
0B702:  MOVWF  x18
0B704:  MOVLB  0
0B706:  CALL   44D8
0B70A:  MOVLW  22
0B70C:  BTFSS  F9E.4
0B70E:  BRA    B70C
0B710:  MOVWF  FAD
....................          SendDataDisplay(); 
0B712:  CALL   35B2
....................          if(RX_Buffer[4]==0x0a || UP){//Tecla Arriba Oprimida 
0B716:  MOVF   34,W
0B718:  SUBLW  0A
0B71A:  BZ    B722
0B71C:  BSF    F93.0
0B71E:  BTFSC  F81.0
0B720:  BRA    B74A
....................             delay_ms(20); 
0B722:  MOVLW  14
0B724:  MOVLB  4
0B726:  MOVWF  x2A
0B728:  MOVLB  0
0B72A:  CALL   1814
....................             if(RX_Buffer[4]==0x0a || UP){ 
0B72E:  MOVF   34,W
0B730:  SUBLW  0A
0B732:  BZ    B73A
0B734:  BSF    F93.0
0B736:  BTFSC  F81.0
0B738:  BRA    B74A
....................                if(Ajuste<40) 
0B73A:  MOVLB  2
0B73C:  MOVF   xCF,W
0B73E:  SUBLW  27
0B740:  BNC   B744
....................                   Ajuste++; 
0B742:  INCF   xCF,F
....................                RX_Buffer[4]=0x00;   
0B744:  CLRF   34
....................                RX_Buffer2[4]=0x00;             
0B746:  CLRF   3F
0B748:  MOVLB  0
....................                //BorraBuffer(); 
....................             } 
....................          } 
....................              
....................          if(RX_Buffer[4]==0x0b || DOWN){//Tecla Abajo Oprimida 
0B74A:  MOVF   34,W
0B74C:  SUBLW  0B
0B74E:  BZ    B756
0B750:  BSF    F93.1
0B752:  BTFSC  F81.1
0B754:  BRA    B77C
....................             delay_ms(20); 
0B756:  MOVLW  14
0B758:  MOVLB  4
0B75A:  MOVWF  x2A
0B75C:  MOVLB  0
0B75E:  CALL   1814
....................             if(RX_Buffer[4]==0x0b || DOWN){ 
0B762:  MOVF   34,W
0B764:  SUBLW  0B
0B766:  BZ    B76E
0B768:  BSF    F93.1
0B76A:  BTFSC  F81.1
0B76C:  BRA    B77C
....................                if(Ajuste>0) 
0B76E:  MOVLB  2
0B770:  MOVF   xCF,F
0B772:  BZ    B776
....................                   Ajuste--; 
0B774:  DECF   xCF,F
....................                RX_Buffer[4]=0x00; 
0B776:  CLRF   34
....................                RX_Buffer2[4]=0x00;             
0B778:  CLRF   3F
0B77A:  MOVLB  0
....................                //BorraBuffer(); 
....................             } 
....................          } 
....................       }else if(Opcion2==6){ 
0B77C:  BRA    BB70
0B77E:  MOVLB  3
0B780:  MOVF   x52,W
0B782:  SUBLW  06
0B784:  BNZ   B83A
....................          printf("Config.t2c.txt=\"Ajuste -\""); 
0B786:  MOVLW  00
0B788:  MOVWF  FF6
0B78A:  MOVLW  17
0B78C:  MOVWF  FF7
0B78E:  MOVLW  00
0B790:  MOVWF  FF8
0B792:  MOVLB  0
0B794:  CALL   3580
....................          SendDataDisplay();       
0B798:  CALL   35B2
....................          printf("t3c.txt=\"%u\"",Ajusten); 
0B79C:  MOVLW  1A
0B79E:  MOVWF  FF6
0B7A0:  MOVLW  17
0B7A2:  MOVWF  FF7
0B7A4:  MOVLW  00
0B7A6:  MOVWF  FF8
0B7A8:  MOVLW  09
0B7AA:  MOVLB  4
0B7AC:  MOVWF  x19
0B7AE:  MOVLB  0
0B7B0:  CALL   447A
0B7B4:  MOVFF  2D0,417
0B7B8:  MOVLW  1B
0B7BA:  MOVLB  4
0B7BC:  MOVWF  x18
0B7BE:  MOVLB  0
0B7C0:  CALL   44D8
0B7C4:  MOVLW  22
0B7C6:  BTFSS  F9E.4
0B7C8:  BRA    B7C6
0B7CA:  MOVWF  FAD
....................          SendDataDisplay(); 
0B7CC:  CALL   35B2
....................          if(RX_Buffer[4]==0x0a || UP){//Tecla Arriba Oprimida 
0B7D0:  MOVF   34,W
0B7D2:  SUBLW  0A
0B7D4:  BZ    B7DC
0B7D6:  BSF    F93.0
0B7D8:  BTFSC  F81.0
0B7DA:  BRA    B804
....................             delay_ms(20); 
0B7DC:  MOVLW  14
0B7DE:  MOVLB  4
0B7E0:  MOVWF  x2A
0B7E2:  MOVLB  0
0B7E4:  CALL   1814
....................             if(RX_Buffer[4]==0x0a || UP){ 
0B7E8:  MOVF   34,W
0B7EA:  SUBLW  0A
0B7EC:  BZ    B7F4
0B7EE:  BSF    F93.0
0B7F0:  BTFSC  F81.0
0B7F2:  BRA    B804
....................                if(Ajusten<40) 
0B7F4:  MOVLB  2
0B7F6:  MOVF   xD0,W
0B7F8:  SUBLW  27
0B7FA:  BNC   B7FE
....................                   Ajusten++; 
0B7FC:  INCF   xD0,F
....................                RX_Buffer[4]=0x00;   
0B7FE:  CLRF   34
....................                RX_Buffer2[4]=0x00;             
0B800:  CLRF   3F
0B802:  MOVLB  0
....................                //BorraBuffer(); 
....................             } 
....................          } 
....................              
....................          if(RX_Buffer[4]==0x0b || DOWN){//Tecla Abajo Oprimida 
0B804:  MOVF   34,W
0B806:  SUBLW  0B
0B808:  BZ    B810
0B80A:  BSF    F93.1
0B80C:  BTFSC  F81.1
0B80E:  BRA    B836
....................             delay_ms(20); 
0B810:  MOVLW  14
0B812:  MOVLB  4
0B814:  MOVWF  x2A
0B816:  MOVLB  0
0B818:  CALL   1814
....................             if(RX_Buffer[4]==0x0b || DOWN){ 
0B81C:  MOVF   34,W
0B81E:  SUBLW  0B
0B820:  BZ    B828
0B822:  BSF    F93.1
0B824:  BTFSC  F81.1
0B826:  BRA    B836
....................                if(Ajusten>0) 
0B828:  MOVLB  2
0B82A:  MOVF   xD0,F
0B82C:  BZ    B830
....................                   Ajusten--; 
0B82E:  DECF   xD0,F
....................                RX_Buffer[4]=0x00; 
0B830:  CLRF   34
....................                RX_Buffer2[4]=0x00;             
0B832:  CLRF   3F
0B834:  MOVLB  0
....................                //BorraBuffer(); 
....................             } 
....................          } 
....................       }else if(Opcion2==7){ 
0B836:  BRA    BB70
0B838:  MOVLB  3
0B83A:  MOVF   x52,W
0B83C:  SUBLW  07
0B83E:  BNZ   B8F6
....................          printf("Config.t2c.txt=\"Media\""); 
0B840:  MOVLW  28
0B842:  MOVWF  FF6
0B844:  MOVLW  17
0B846:  MOVWF  FF7
0B848:  MOVLW  00
0B84A:  MOVWF  FF8
0B84C:  MOVLB  0
0B84E:  CALL   3580
....................          SendDataDisplay();       
0B852:  CALL   35B2
....................          printf("t3c.txt=\"%u\"",MediaMovil); 
0B856:  MOVLW  40
0B858:  MOVWF  FF6
0B85A:  MOVLW  17
0B85C:  MOVWF  FF7
0B85E:  MOVLW  00
0B860:  MOVWF  FF8
0B862:  MOVLW  09
0B864:  MOVLB  4
0B866:  MOVWF  x19
0B868:  MOVLB  0
0B86A:  CALL   447A
0B86E:  MOVFF  2D1,417
0B872:  MOVLW  1B
0B874:  MOVLB  4
0B876:  MOVWF  x18
0B878:  MOVLB  0
0B87A:  CALL   44D8
0B87E:  MOVLW  22
0B880:  BTFSS  F9E.4
0B882:  BRA    B880
0B884:  MOVWF  FAD
....................          SendDataDisplay(); 
0B886:  CALL   35B2
....................          if(RX_Buffer[4]==0x0a || UP){//Tecla Arriba Oprimida 
0B88A:  MOVF   34,W
0B88C:  SUBLW  0A
0B88E:  BZ    B896
0B890:  BSF    F93.0
0B892:  BTFSC  F81.0
0B894:  BRA    B8BE
....................             delay_ms(20); 
0B896:  MOVLW  14
0B898:  MOVLB  4
0B89A:  MOVWF  x2A
0B89C:  MOVLB  0
0B89E:  CALL   1814
....................             if(RX_Buffer[4]==0x0a || UP){ 
0B8A2:  MOVF   34,W
0B8A4:  SUBLW  0A
0B8A6:  BZ    B8AE
0B8A8:  BSF    F93.0
0B8AA:  BTFSC  F81.0
0B8AC:  BRA    B8BE
....................                if(MediaMovil<80) 
0B8AE:  MOVLB  2
0B8B0:  MOVF   xD1,W
0B8B2:  SUBLW  4F
0B8B4:  BNC   B8B8
....................                   MediaMovil++; 
0B8B6:  INCF   xD1,F
....................                RX_Buffer[4]=0x00;   
0B8B8:  CLRF   34
....................                RX_Buffer2[4]=0x00;             
0B8BA:  CLRF   3F
0B8BC:  MOVLB  0
....................                //BorraBuffer(); 
....................             } 
....................          } 
....................              
....................          if(RX_Buffer[4]==0x0b || DOWN){//Tecla Abajo Oprimida 
0B8BE:  MOVF   34,W
0B8C0:  SUBLW  0B
0B8C2:  BZ    B8CA
0B8C4:  BSF    F93.1
0B8C6:  BTFSC  F81.1
0B8C8:  BRA    B8F2
....................             delay_ms(20); 
0B8CA:  MOVLW  14
0B8CC:  MOVLB  4
0B8CE:  MOVWF  x2A
0B8D0:  MOVLB  0
0B8D2:  CALL   1814
....................             if(RX_Buffer[4]==0x0b || DOWN){ 
0B8D6:  MOVF   34,W
0B8D8:  SUBLW  0B
0B8DA:  BZ    B8E2
0B8DC:  BSF    F93.1
0B8DE:  BTFSC  F81.1
0B8E0:  BRA    B8F2
....................                if(MediaMovil>10) 
0B8E2:  MOVLB  2
0B8E4:  MOVF   xD1,W
0B8E6:  SUBLW  0A
0B8E8:  BC    B8EC
....................                   MediaMovil--; 
0B8EA:  DECF   xD1,F
....................                RX_Buffer[4]=0x00; 
0B8EC:  CLRF   34
....................                RX_Buffer2[4]=0x00;             
0B8EE:  CLRF   3F
0B8F0:  MOVLB  0
....................                //BorraBuffer(); 
....................             } 
....................          } 
....................       }else if(Opcion2==8){ 
0B8F2:  BRA    BB70
0B8F4:  MOVLB  3
0B8F6:  MOVF   x52,W
0B8F8:  SUBLW  08
0B8FA:  BTFSS  FD8.2
0B8FC:  BRA    BA64
....................          printf("Config.t2c.txt=\"RPT100B\""); 
0B8FE:  MOVLW  4E
0B900:  MOVWF  FF6
0B902:  MOVLW  17
0B904:  MOVWF  FF7
0B906:  MOVLW  00
0B908:  MOVWF  FF8
0B90A:  MOVLB  0
0B90C:  CALL   3580
....................          SendDataDisplay();       
0B910:  CALL   35B2
....................          printf("t3c.txt=\"%2.1f\"",RPT100); 
0B914:  MOVLW  68
0B916:  MOVWF  FF6
0B918:  MOVLW  17
0B91A:  MOVWF  FF7
0B91C:  MOVLW  00
0B91E:  MOVWF  FF8
0B920:  MOVLW  09
0B922:  MOVLB  4
0B924:  MOVWF  x19
0B926:  MOVLB  0
0B928:  CALL   447A
0B92C:  MOVLW  01
0B92E:  MOVWF  FE9
0B930:  MOVFF  2AC,41C
0B934:  MOVFF  2AB,41B
0B938:  MOVFF  2AA,41A
0B93C:  MOVFF  2A9,419
0B940:  MOVLB  4
0B942:  MOVWF  x1D
0B944:  MOVLB  0
0B946:  CALL   4744
0B94A:  MOVLW  22
0B94C:  BTFSS  F9E.4
0B94E:  BRA    B94C
0B950:  MOVWF  FAD
....................          SendDataDisplay(); 
0B952:  CALL   35B2
....................          if(RX_Buffer[4]==0x0a || UP){//Tecla Arriba Oprimida 
0B956:  MOVF   34,W
0B958:  SUBLW  0A
0B95A:  BZ    B962
0B95C:  BSF    F93.0
0B95E:  BTFSC  F81.0
0B960:  BRA    B9DC
....................             delay_ms(20); 
0B962:  MOVLW  14
0B964:  MOVLB  4
0B966:  MOVWF  x2A
0B968:  MOVLB  0
0B96A:  CALL   1814
....................             if(RX_Buffer[4]==0x0a || UP){ 
0B96E:  MOVF   34,W
0B970:  SUBLW  0A
0B972:  BZ    B97A
0B974:  BSF    F93.0
0B976:  BTFSC  F81.0
0B978:  BRA    B9DC
....................                if(RPT100<2.0) 
0B97A:  MOVFF  2AC,41C
0B97E:  MOVFF  2AB,41B
0B982:  MOVFF  2AA,41A
0B986:  MOVFF  2A9,419
0B98A:  MOVLB  4
0B98C:  CLRF   x20
0B98E:  CLRF   x1F
0B990:  CLRF   x1E
0B992:  MOVLW  80
0B994:  MOVWF  x1D
0B996:  MOVLB  0
0B998:  CALL   2A96
0B99C:  BNC   B9D8
....................                   RPT100+=0.1; 
0B99E:  BCF    FD8.1
0B9A0:  MOVFF  2AC,42D
0B9A4:  MOVFF  2AB,42C
0B9A8:  MOVFF  2AA,42B
0B9AC:  MOVFF  2A9,42A
0B9B0:  MOVLW  CD
0B9B2:  MOVLB  4
0B9B4:  MOVWF  x31
0B9B6:  MOVLW  CC
0B9B8:  MOVWF  x30
0B9BA:  MOVLW  4C
0B9BC:  MOVWF  x2F
0B9BE:  MOVLW  7B
0B9C0:  MOVWF  x2E
0B9C2:  MOVLB  0
0B9C4:  CALL   19D0
0B9C8:  MOVFF  03,2AC
0B9CC:  MOVFF  02,2AB
0B9D0:  MOVFF  01,2AA
0B9D4:  MOVFF  00,2A9
....................                RX_Buffer[4]=0x00;   
0B9D8:  CLRF   34
....................                RX_Buffer2[4]=0x00;             
0B9DA:  CLRF   3F
....................                //BorraBuffer(); 
....................             } 
....................          } 
....................              
....................          if(RX_Buffer[4]==0x0b || DOWN){//Tecla Abajo Oprimida 
0B9DC:  MOVF   34,W
0B9DE:  SUBLW  0B
0B9E0:  BZ    B9E8
0B9E2:  BSF    F93.1
0B9E4:  BTFSC  F81.1
0B9E6:  BRA    BA60
....................             delay_ms(20); 
0B9E8:  MOVLW  14
0B9EA:  MOVLB  4
0B9EC:  MOVWF  x2A
0B9EE:  MOVLB  0
0B9F0:  CALL   1814
....................             if(RX_Buffer[4]==0x0b || DOWN){ 
0B9F4:  MOVF   34,W
0B9F6:  SUBLW  0B
0B9F8:  BZ    BA00
0B9FA:  BSF    F93.1
0B9FC:  BTFSC  F81.1
0B9FE:  BRA    BA60
....................                if(RPT100>0.0) 
0BA00:  MOVLB  4
0BA02:  CLRF   x1C
0BA04:  CLRF   x1B
0BA06:  CLRF   x1A
0BA08:  CLRF   x19
0BA0A:  MOVFF  2AC,420
0BA0E:  MOVFF  2AB,41F
0BA12:  MOVFF  2AA,41E
0BA16:  MOVFF  2A9,41D
0BA1A:  MOVLB  0
0BA1C:  CALL   2A96
0BA20:  BNC   BA5C
....................                   RPT100-=0.1; 
0BA22:  BSF    FD8.1
0BA24:  MOVFF  2AC,42D
0BA28:  MOVFF  2AB,42C
0BA2C:  MOVFF  2AA,42B
0BA30:  MOVFF  2A9,42A
0BA34:  MOVLW  CD
0BA36:  MOVLB  4
0BA38:  MOVWF  x31
0BA3A:  MOVLW  CC
0BA3C:  MOVWF  x30
0BA3E:  MOVLW  4C
0BA40:  MOVWF  x2F
0BA42:  MOVLW  7B
0BA44:  MOVWF  x2E
0BA46:  MOVLB  0
0BA48:  CALL   19D0
0BA4C:  MOVFF  03,2AC
0BA50:  MOVFF  02,2AB
0BA54:  MOVFF  01,2AA
0BA58:  MOVFF  00,2A9
....................                RX_Buffer[4]=0x00; 
0BA5C:  CLRF   34
....................                RX_Buffer2[4]=0x00;             
0BA5E:  CLRF   3F
....................                //BorraBuffer(); 
....................             } 
....................          } 
....................       }else if(Opcion2==9){ 
0BA60:  BRA    BB70
0BA62:  MOVLB  3
0BA64:  MOVF   x52,W
0BA66:  SUBLW  09
0BA68:  BNZ   BB20
....................          printf("Config.t2c.txt=\"TTrampa\""); 
0BA6A:  MOVLW  78
0BA6C:  MOVWF  FF6
0BA6E:  MOVLW  17
0BA70:  MOVWF  FF7
0BA72:  MOVLW  00
0BA74:  MOVWF  FF8
0BA76:  MOVLB  0
0BA78:  CALL   3580
....................          SendDataDisplay();       
0BA7C:  CALL   35B2
....................          printf("t3c.txt=\"%02u\"",TTrampa); 
0BA80:  MOVLW  92
0BA82:  MOVWF  FF6
0BA84:  MOVLW  17
0BA86:  MOVWF  FF7
0BA88:  MOVLW  00
0BA8A:  MOVWF  FF8
0BA8C:  MOVLW  09
0BA8E:  MOVLB  4
0BA90:  MOVWF  x19
0BA92:  MOVLB  0
0BA94:  CALL   447A
0BA98:  MOVFF  2D2,417
0BA9C:  MOVLW  01
0BA9E:  MOVLB  4
0BAA0:  MOVWF  x18
0BAA2:  MOVLB  0
0BAA4:  CALL   44D8
0BAA8:  MOVLW  22
0BAAA:  BTFSS  F9E.4
0BAAC:  BRA    BAAA
0BAAE:  MOVWF  FAD
....................          SendDataDisplay(); 
0BAB0:  CALL   35B2
....................          if(RX_Buffer[4]==0x0a || UP){//Tecla Arriba Oprimida 
0BAB4:  MOVF   34,W
0BAB6:  SUBLW  0A
0BAB8:  BZ    BAC0
0BABA:  BSF    F93.0
0BABC:  BTFSC  F81.0
0BABE:  BRA    BAE8
....................             delay_ms(20); 
0BAC0:  MOVLW  14
0BAC2:  MOVLB  4
0BAC4:  MOVWF  x2A
0BAC6:  MOVLB  0
0BAC8:  CALL   1814
....................             if(RX_Buffer[4]==0x0a || UP){ 
0BACC:  MOVF   34,W
0BACE:  SUBLW  0A
0BAD0:  BZ    BAD8
0BAD2:  BSF    F93.0
0BAD4:  BTFSC  F81.0
0BAD6:  BRA    BAE8
....................                if(TTrampa<100) 
0BAD8:  MOVLB  2
0BADA:  MOVF   xD2,W
0BADC:  SUBLW  63
0BADE:  BNC   BAE2
....................                   TTrampa++; 
0BAE0:  INCF   xD2,F
....................                RX_Buffer[4]=0x00;   
0BAE2:  CLRF   34
....................                RX_Buffer2[4]=0x00;             
0BAE4:  CLRF   3F
0BAE6:  MOVLB  0
....................                //BorraBuffer(); 
....................             } 
....................          } 
....................              
....................          if(RX_Buffer[4]==0x0b || DOWN){//Tecla Abajo Oprimida 
0BAE8:  MOVF   34,W
0BAEA:  SUBLW  0B
0BAEC:  BZ    BAF4
0BAEE:  BSF    F93.1
0BAF0:  BTFSC  F81.1
0BAF2:  BRA    BB1C
....................             delay_ms(20); 
0BAF4:  MOVLW  14
0BAF6:  MOVLB  4
0BAF8:  MOVWF  x2A
0BAFA:  MOVLB  0
0BAFC:  CALL   1814
....................             if(RX_Buffer[4]==0x0b || DOWN){ 
0BB00:  MOVF   34,W
0BB02:  SUBLW  0B
0BB04:  BZ    BB0C
0BB06:  BSF    F93.1
0BB08:  BTFSC  F81.1
0BB0A:  BRA    BB1C
....................                if(TTrampa>50) 
0BB0C:  MOVLB  2
0BB0E:  MOVF   xD2,W
0BB10:  SUBLW  32
0BB12:  BC    BB16
....................                   TTrampa--; 
0BB14:  DECF   xD2,F
....................                RX_Buffer[4]=0x00; 
0BB16:  CLRF   34
....................                RX_Buffer2[4]=0x00;             
0BB18:  CLRF   3F
0BB1A:  MOVLB  0
....................                //BorraBuffer(); 
....................             } 
....................          } 
....................       }else if(Opcion2==10){ 
0BB1C:  BRA    BB70
0BB1E:  MOVLB  3
0BB20:  MOVF   x52,W
0BB22:  SUBLW  0A
0BB24:  BNZ   BB72
....................          printf("Config.t2c.txt=\"Ciclos\""); 
0BB26:  MOVLW  A2
0BB28:  MOVWF  FF6
0BB2A:  MOVLW  17
0BB2C:  MOVWF  FF7
0BB2E:  MOVLW  00
0BB30:  MOVWF  FF8
0BB32:  MOVLB  0
0BB34:  CALL   3580
....................          SendDataDisplay();       
0BB38:  CALL   35B2
....................          printf("t3c.txt=\"%05Lu\"",Ciclos); 
0BB3C:  MOVLW  BA
0BB3E:  MOVWF  FF6
0BB40:  MOVLW  17
0BB42:  MOVWF  FF7
0BB44:  MOVLW  00
0BB46:  MOVWF  FF8
0BB48:  MOVLW  09
0BB4A:  MOVLB  4
0BB4C:  MOVWF  x19
0BB4E:  MOVLB  0
0BB50:  CALL   447A
0BB54:  MOVLW  08
0BB56:  MOVWF  FE9
0BB58:  MOVFF  367,41A
0BB5C:  MOVFF  366,419
0BB60:  CALL   45D6
0BB64:  MOVLW  22
0BB66:  BTFSS  F9E.4
0BB68:  BRA    BB66
0BB6A:  MOVWF  FAD
....................          SendDataDisplay(); 
0BB6C:  CALL   35B2
0BB70:  MOVLB  3
....................       } 
....................        
....................       if(RX_Buffer[4]==0x0c || LEFT){//Tecla Izquierda Oprimida 
0BB72:  MOVF   34,W
0BB74:  SUBLW  0C
0BB76:  BZ    BB7E
0BB78:  BSF    F93.3
0BB7A:  BTFSC  F81.3
0BB7C:  BRA    BB9E
....................          delay_ms(20); 
0BB7E:  MOVLW  14
0BB80:  MOVLB  4
0BB82:  MOVWF  x2A
0BB84:  MOVLB  0
0BB86:  CALL   1814
....................          if(RX_Buffer[4]==0x0c || LEFT){ 
0BB8A:  MOVF   34,W
0BB8C:  SUBLW  0C
0BB8E:  BZ    BB96
0BB90:  BSF    F93.3
0BB92:  BTFSC  F81.3
0BB94:  BRA    BBA0
....................             Opcion2++; 
0BB96:  MOVLB  3
0BB98:  INCF   x52,F
....................             RX_Buffer[4]=0x00;   
0BB9A:  CLRF   34
....................             RX_Buffer2[4]=0x00;             
0BB9C:  CLRF   3F
0BB9E:  MOVLB  0
....................             //BorraBuffer(); 
....................          } 
....................       } 
....................           
....................       if(RX_Buffer[4]==0x0d || RIGHT){//Tecla Derecha Oprimida 
0BBA0:  MOVF   34,W
0BBA2:  SUBLW  0D
0BBA4:  BZ    BBAC
0BBA6:  BSF    F93.2
0BBA8:  BTFSC  F81.2
0BBAA:  BRA    BBCE
....................          delay_ms(20); 
0BBAC:  MOVLW  14
0BBAE:  MOVLB  4
0BBB0:  MOVWF  x2A
0BBB2:  MOVLB  0
0BBB4:  CALL   1814
....................          if(RX_Buffer[4]==0x0d || RIGHT){ 
0BBB8:  MOVF   34,W
0BBBA:  SUBLW  0D
0BBBC:  BZ    BBC4
0BBBE:  BSF    F93.2
0BBC0:  BTFSC  F81.2
0BBC2:  BRA    BBCE
....................             Opcion2--; 
0BBC4:  MOVLB  3
0BBC6:  DECF   x52,F
....................             RX_Buffer[4]=0x00; 
0BBC8:  CLRF   34
....................             RX_Buffer2[4]=0x00;             
0BBCA:  CLRF   3F
0BBCC:  MOVLB  0
....................             //BorraBuffer(); 
....................          } 
....................       } 
....................        
....................       if(RX_Buffer[4]==0x11 || (RIGHT && LEFT)){//Tecla Regresar 
0BBCE:  MOVF   34,W
0BBD0:  SUBLW  11
0BBD2:  BZ    BBE0
0BBD4:  BSF    F93.2
0BBD6:  BTFSC  F81.2
0BBD8:  BRA    BF48
0BBDA:  BSF    F93.3
0BBDC:  BTFSC  F81.3
0BBDE:  BRA    BF48
....................          delay_ms(20); 
0BBE0:  MOVLW  14
0BBE2:  MOVLB  4
0BBE4:  MOVWF  x2A
0BBE6:  MOVLB  0
0BBE8:  CALL   1814
....................          if(RX_Buffer[4]==0x11 || (RIGHT && LEFT)){ 
0BBEC:  MOVF   34,W
0BBEE:  SUBLW  11
0BBF0:  BZ    BBFE
0BBF2:  BSF    F93.2
0BBF4:  BTFSC  F81.2
0BBF6:  BRA    BF48
0BBF8:  BSF    F93.3
0BBFA:  BTFSC  F81.3
0BBFC:  BRA    BF48
....................             if(!GuardaEEPROM){ 
0BBFE:  BTFSC  xA2.4
0BC00:  BRA    BF34
....................                write_eeprom(20,(int8)Ganancia); 
0BC02:  MOVFF  2FA,42D
0BC06:  MOVFF  2F9,42C
0BC0A:  MOVFF  2F8,42B
0BC0E:  MOVFF  2F7,42A
0BC12:  CALL   3CAC
0BC16:  MOVFF  01,415
0BC1A:  CLRF   FAA
0BC1C:  MOVLW  14
0BC1E:  MOVWF  FA9
0BC20:  MOVFF  415,FA8
0BC24:  BCF    FA6.6
0BC26:  BCF    FA6.7
0BC28:  BSF    FA6.2
0BC2A:  MOVF   FF2,W
0BC2C:  MOVWF  00
0BC2E:  BCF    FF2.6
0BC30:  BCF    FF2.7
0BC32:  MOVLB  F
0BC34:  MOVLW  55
0BC36:  MOVWF  FA7
0BC38:  MOVLW  AA
0BC3A:  MOVWF  FA7
0BC3C:  BSF    FA6.1
0BC3E:  BTFSC  FA6.1
0BC40:  BRA    BC3E
0BC42:  BCF    FA6.2
0BC44:  MOVF   00,W
0BC46:  IORWF  FF2,F
....................                delay_ms(10); 
0BC48:  MOVLW  0A
0BC4A:  MOVLB  4
0BC4C:  MOVWF  x2A
0BC4E:  MOVLB  0
0BC50:  CALL   1814
....................                write_eeprom(26,(int8)Integral); 
0BC54:  CLRF   FAA
0BC56:  MOVLW  1A
0BC58:  MOVWF  FA9
0BC5A:  MOVFF  33B,FA8
0BC5E:  BCF    FA6.6
0BC60:  BCF    FA6.7
0BC62:  BSF    FA6.2
0BC64:  MOVF   FF2,W
0BC66:  MOVWF  00
0BC68:  BCF    FF2.6
0BC6A:  BCF    FF2.7
0BC6C:  MOVLB  F
0BC6E:  MOVLW  55
0BC70:  MOVWF  FA7
0BC72:  MOVLW  AA
0BC74:  MOVWF  FA7
0BC76:  BSF    FA6.1
0BC78:  BTFSC  FA6.1
0BC7A:  BRA    BC78
0BC7C:  BCF    FA6.2
0BC7E:  MOVF   00,W
0BC80:  IORWF  FF2,F
....................                delay_ms(10); 
0BC82:  MOVLW  0A
0BC84:  MOVLB  4
0BC86:  MOVWF  x2A
0BC88:  MOVLB  0
0BC8A:  CALL   1814
....................                write_eeprom(27,(int8)Derivativo); 
0BC8E:  CLRF   FAA
0BC90:  MOVLW  1B
0BC92:  MOVWF  FA9
0BC94:  MOVFF  33C,FA8
0BC98:  BCF    FA6.6
0BC9A:  BCF    FA6.7
0BC9C:  BSF    FA6.2
0BC9E:  MOVF   FF2,W
0BCA0:  MOVWF  00
0BCA2:  BCF    FF2.6
0BCA4:  BCF    FF2.7
0BCA6:  MOVLB  F
0BCA8:  MOVLW  55
0BCAA:  MOVWF  FA7
0BCAC:  MOVLW  AA
0BCAE:  MOVWF  FA7
0BCB0:  BSF    FA6.1
0BCB2:  BTFSC  FA6.1
0BCB4:  BRA    BCB2
0BCB6:  BCF    FA6.2
0BCB8:  MOVF   00,W
0BCBA:  IORWF  FF2,F
....................                delay_ms(10); 
0BCBC:  MOVLW  0A
0BCBE:  MOVLB  4
0BCC0:  MOVWF  x2A
0BCC2:  MOVLB  0
0BCC4:  CALL   1814
....................                write_eeprom(25,(int8)Tciclo); 
0BCC8:  MOVFF  2E2,42D
0BCCC:  MOVFF  2E1,42C
0BCD0:  MOVFF  2E0,42B
0BCD4:  MOVFF  2DF,42A
0BCD8:  CALL   3CAC
0BCDC:  MOVFF  01,415
0BCE0:  CLRF   FAA
0BCE2:  MOVLW  19
0BCE4:  MOVWF  FA9
0BCE6:  MOVFF  415,FA8
0BCEA:  BCF    FA6.6
0BCEC:  BCF    FA6.7
0BCEE:  BSF    FA6.2
0BCF0:  MOVF   FF2,W
0BCF2:  MOVWF  00
0BCF4:  BCF    FF2.6
0BCF6:  BCF    FF2.7
0BCF8:  MOVLB  F
0BCFA:  MOVLW  55
0BCFC:  MOVWF  FA7
0BCFE:  MOVLW  AA
0BD00:  MOVWF  FA7
0BD02:  BSF    FA6.1
0BD04:  BTFSC  FA6.1
0BD06:  BRA    BD04
0BD08:  BCF    FA6.2
0BD0A:  MOVF   00,W
0BD0C:  IORWF  FF2,F
....................                delay_ms(10); 
0BD0E:  MOVLW  0A
0BD10:  MOVLB  4
0BD12:  MOVWF  x2A
0BD14:  MOVLB  0
0BD16:  CALL   1814
....................                write_eeprom(21,Ajuste); 
0BD1A:  CLRF   FAA
0BD1C:  MOVLW  15
0BD1E:  MOVWF  FA9
0BD20:  MOVFF  2CF,FA8
0BD24:  BCF    FA6.6
0BD26:  BCF    FA6.7
0BD28:  BSF    FA6.2
0BD2A:  MOVF   FF2,W
0BD2C:  MOVWF  00
0BD2E:  BCF    FF2.6
0BD30:  BCF    FF2.7
0BD32:  MOVLB  F
0BD34:  MOVLW  55
0BD36:  MOVWF  FA7
0BD38:  MOVLW  AA
0BD3A:  MOVWF  FA7
0BD3C:  BSF    FA6.1
0BD3E:  BTFSC  FA6.1
0BD40:  BRA    BD3E
0BD42:  BCF    FA6.2
0BD44:  MOVF   00,W
0BD46:  IORWF  FF2,F
....................                delay_ms(10); 
0BD48:  MOVLW  0A
0BD4A:  MOVLB  4
0BD4C:  MOVWF  x2A
0BD4E:  MOVLB  0
0BD50:  CALL   1814
....................                write_eeprom(22,Ajusten); 
0BD54:  CLRF   FAA
0BD56:  MOVLW  16
0BD58:  MOVWF  FA9
0BD5A:  MOVFF  2D0,FA8
0BD5E:  BCF    FA6.6
0BD60:  BCF    FA6.7
0BD62:  BSF    FA6.2
0BD64:  MOVF   FF2,W
0BD66:  MOVWF  00
0BD68:  BCF    FF2.6
0BD6A:  BCF    FF2.7
0BD6C:  MOVLB  F
0BD6E:  MOVLW  55
0BD70:  MOVWF  FA7
0BD72:  MOVLW  AA
0BD74:  MOVWF  FA7
0BD76:  BSF    FA6.1
0BD78:  BTFSC  FA6.1
0BD7A:  BRA    BD78
0BD7C:  BCF    FA6.2
0BD7E:  MOVF   00,W
0BD80:  IORWF  FF2,F
....................                delay_ms(10); 
0BD82:  MOVLW  0A
0BD84:  MOVLB  4
0BD86:  MOVWF  x2A
0BD88:  MOVLB  0
0BD8A:  CALL   1814
....................                write_eeprom(24,(int8)MediaMovil); 
0BD8E:  CLRF   FAA
0BD90:  MOVLW  18
0BD92:  MOVWF  FA9
0BD94:  MOVFF  2D1,FA8
0BD98:  BCF    FA6.6
0BD9A:  BCF    FA6.7
0BD9C:  BSF    FA6.2
0BD9E:  MOVF   FF2,W
0BDA0:  MOVWF  00
0BDA2:  BCF    FF2.6
0BDA4:  BCF    FF2.7
0BDA6:  MOVLB  F
0BDA8:  MOVLW  55
0BDAA:  MOVWF  FA7
0BDAC:  MOVLW  AA
0BDAE:  MOVWF  FA7
0BDB0:  BSF    FA6.1
0BDB2:  BTFSC  FA6.1
0BDB4:  BRA    BDB2
0BDB6:  BCF    FA6.2
0BDB8:  MOVF   00,W
0BDBA:  IORWF  FF2,F
....................                delay_ms(10); 
0BDBC:  MOVLW  0A
0BDBE:  MOVLB  4
0BDC0:  MOVWF  x2A
0BDC2:  MOVLB  0
0BDC4:  CALL   1814
....................                write_eeprom(32,(int8)RPT100); 
0BDC8:  MOVFF  2AC,42D
0BDCC:  MOVFF  2AB,42C
0BDD0:  MOVFF  2AA,42B
0BDD4:  MOVFF  2A9,42A
0BDD8:  CALL   3CAC
0BDDC:  MOVFF  01,415
0BDE0:  CLRF   FAA
0BDE2:  MOVLW  20
0BDE4:  MOVWF  FA9
0BDE6:  MOVFF  415,FA8
0BDEA:  BCF    FA6.6
0BDEC:  BCF    FA6.7
0BDEE:  BSF    FA6.2
0BDF0:  MOVF   FF2,W
0BDF2:  MOVWF  00
0BDF4:  BCF    FF2.6
0BDF6:  BCF    FF2.7
0BDF8:  MOVLB  F
0BDFA:  MOVLW  55
0BDFC:  MOVWF  FA7
0BDFE:  MOVLW  AA
0BE00:  MOVWF  FA7
0BE02:  BSF    FA6.1
0BE04:  BTFSC  FA6.1
0BE06:  BRA    BE04
0BE08:  BCF    FA6.2
0BE0A:  MOVF   00,W
0BE0C:  IORWF  FF2,F
....................                delay_ms(10); 
0BE0E:  MOVLW  0A
0BE10:  MOVLB  4
0BE12:  MOVWF  x2A
0BE14:  MOVLB  0
0BE16:  CALL   1814
....................                Temporal=RPT100-((int8)RPT100); 
0BE1A:  MOVFF  2AC,42D
0BE1E:  MOVFF  2AB,42C
0BE22:  MOVFF  2AA,42B
0BE26:  MOVFF  2A9,42A
0BE2A:  CALL   3CAC
0BE2E:  MOVLB  4
0BE30:  CLRF   x2B
0BE32:  MOVFF  01,42A
0BE36:  MOVLB  0
0BE38:  CALL   183C
0BE3C:  BSF    FD8.1
0BE3E:  MOVFF  2AC,42D
0BE42:  MOVFF  2AB,42C
0BE46:  MOVFF  2AA,42B
0BE4A:  MOVFF  2A9,42A
0BE4E:  MOVFF  03,431
0BE52:  MOVFF  02,430
0BE56:  MOVFF  01,42F
0BE5A:  MOVFF  00,42E
0BE5E:  CALL   19D0
0BE62:  MOVFF  03,2B0
0BE66:  MOVFF  02,2AF
0BE6A:  MOVFF  01,2AE
0BE6E:  MOVFF  00,2AD
....................                Temporal=Temporal*10; 
0BE72:  MOVFF  2B0,431
0BE76:  MOVFF  2AF,430
0BE7A:  MOVFF  2AE,42F
0BE7E:  MOVFF  2AD,42E
0BE82:  MOVLB  4
0BE84:  CLRF   x35
0BE86:  CLRF   x34
0BE88:  MOVLW  20
0BE8A:  MOVWF  x33
0BE8C:  MOVLW  82
0BE8E:  MOVWF  x32
0BE90:  MOVLB  0
0BE92:  CALL   3680
0BE96:  MOVFF  03,2B0
0BE9A:  MOVFF  02,2AF
0BE9E:  MOVFF  01,2AE
0BEA2:  MOVFF  00,2AD
....................                write_eeprom(33,(int8)Temporal); 
0BEA6:  MOVFF  2B0,42D
0BEAA:  MOVFF  2AF,42C
0BEAE:  MOVFF  2AE,42B
0BEB2:  MOVFF  2AD,42A
0BEB6:  CALL   3CAC
0BEBA:  MOVFF  01,415
0BEBE:  CLRF   FAA
0BEC0:  MOVLW  21
0BEC2:  MOVWF  FA9
0BEC4:  MOVFF  415,FA8
0BEC8:  BCF    FA6.6
0BECA:  BCF    FA6.7
0BECC:  BSF    FA6.2
0BECE:  MOVF   FF2,W
0BED0:  MOVWF  00
0BED2:  BCF    FF2.6
0BED4:  BCF    FF2.7
0BED6:  MOVLB  F
0BED8:  MOVLW  55
0BEDA:  MOVWF  FA7
0BEDC:  MOVLW  AA
0BEDE:  MOVWF  FA7
0BEE0:  BSF    FA6.1
0BEE2:  BTFSC  FA6.1
0BEE4:  BRA    BEE2
0BEE6:  BCF    FA6.2
0BEE8:  MOVF   00,W
0BEEA:  IORWF  FF2,F
....................                delay_ms(10); 
0BEEC:  MOVLW  0A
0BEEE:  MOVLB  4
0BEF0:  MOVWF  x2A
0BEF2:  MOVLB  0
0BEF4:  CALL   1814
....................                write_eeprom(39,TTrampa); 
0BEF8:  CLRF   FAA
0BEFA:  MOVLW  27
0BEFC:  MOVWF  FA9
0BEFE:  MOVFF  2D2,FA8
0BF02:  BCF    FA6.6
0BF04:  BCF    FA6.7
0BF06:  BSF    FA6.2
0BF08:  MOVF   FF2,W
0BF0A:  MOVWF  00
0BF0C:  BCF    FF2.6
0BF0E:  BCF    FF2.7
0BF10:  MOVLB  F
0BF12:  MOVLW  55
0BF14:  MOVWF  FA7
0BF16:  MOVLW  AA
0BF18:  MOVWF  FA7
0BF1A:  BSF    FA6.1
0BF1C:  BTFSC  FA6.1
0BF1E:  BRA    BF1C
0BF20:  BCF    FA6.2
0BF22:  MOVF   00,W
0BF24:  IORWF  FF2,F
....................                delay_ms(10); 
0BF26:  MOVLW  0A
0BF28:  MOVLB  4
0BF2A:  MOVWF  x2A
0BF2C:  MOVLB  0
0BF2E:  CALL   1814
....................                GuardaEEPROM=ON; 
0BF32:  BSF    xA2.4
....................             } 
....................             printf("page MenuPrincipal"); 
0BF34:  MOVLW  CA
0BF36:  MOVWF  FF6
0BF38:  MOVLW  17
0BF3A:  MOVWF  FF7
0BF3C:  MOVLW  00
0BF3E:  MOVWF  FF8
0BF40:  CALL   3580
....................             SendDataDisplay(); 
0BF44:  CALL   35B2
....................             //BorraBuffer(); 
....................          } 
....................       } 
....................       printf("fecha.txt=\"Fecha:%02u/%02u/20%02u    Hora: %02u:%02u\"",Dia,Mes,Year,Hora,Minuto); 
0BF48:  MOVLW  DE
0BF4A:  MOVWF  FF6
0BF4C:  MOVLW  17
0BF4E:  MOVWF  FF7
0BF50:  MOVLW  00
0BF52:  MOVWF  FF8
0BF54:  MOVLW  11
0BF56:  MOVLB  4
0BF58:  MOVWF  x19
0BF5A:  MOVLB  0
0BF5C:  CALL   447A
0BF60:  MOVFF  381,417
0BF64:  MOVLW  01
0BF66:  MOVLB  4
0BF68:  MOVWF  x18
0BF6A:  MOVLB  0
0BF6C:  CALL   44D8
0BF70:  MOVLW  2F
0BF72:  BTFSS  F9E.4
0BF74:  BRA    BF72
0BF76:  MOVWF  FAD
0BF78:  MOVFF  380,417
0BF7C:  MOVLW  01
0BF7E:  MOVLB  4
0BF80:  MOVWF  x18
0BF82:  MOVLB  0
0BF84:  CALL   44D8
0BF88:  MOVLW  2F
0BF8A:  BTFSS  F9E.4
0BF8C:  BRA    BF8A
0BF8E:  MOVWF  FAD
0BF90:  MOVLW  32
0BF92:  BTFSS  F9E.4
0BF94:  BRA    BF92
0BF96:  MOVWF  FAD
0BF98:  MOVLW  30
0BF9A:  BTFSS  F9E.4
0BF9C:  BRA    BF9A
0BF9E:  MOVWF  FAD
0BFA0:  MOVFF  37F,417
0BFA4:  MOVLW  01
0BFA6:  MOVLB  4
0BFA8:  MOVWF  x18
0BFAA:  MOVLB  0
0BFAC:  CALL   44D8
0BFB0:  MOVLW  FF
0BFB2:  MOVWF  FF6
0BFB4:  MOVLW  17
0BFB6:  MOVWF  FF7
0BFB8:  MOVLW  00
0BFBA:  MOVWF  FF8
0BFBC:  MOVLW  0A
0BFBE:  MOVLB  4
0BFC0:  MOVWF  x19
0BFC2:  MOVLB  0
0BFC4:  CALL   447A
0BFC8:  MOVFF  382,417
0BFCC:  MOVLW  01
0BFCE:  MOVLB  4
0BFD0:  MOVWF  x18
0BFD2:  MOVLB  0
0BFD4:  CALL   44D8
0BFD8:  MOVLW  3A
0BFDA:  BTFSS  F9E.4
0BFDC:  BRA    BFDA
0BFDE:  MOVWF  FAD
0BFE0:  MOVFF  383,417
0BFE4:  MOVLW  01
0BFE6:  MOVLB  4
0BFE8:  MOVWF  x18
0BFEA:  MOVLB  0
0BFEC:  CALL   44D8
0BFF0:  MOVLW  22
0BFF2:  BTFSS  F9E.4
0BFF4:  BRA    BFF2
0BFF6:  MOVWF  FAD
....................       SendDataDisplay();  
0BFF8:  CALL   35B2
0BFFC:  MOVLB  3
....................     } 
.................... //_--------------------------------------------------------------------------------------------------------------------------------------------------------        
....................  
....................    } 
0BFFE:  GOTO   6288
.................... } 
0C002:  SLEEP 

Configuration Fuses:
   Word  1: 0200   HS NOIESO NOFCMEN
   Word  2: 1B1F   BROWNOUT WDT BORV20 NOPUT WDT8192
   Word  3: 0000   NOPBADEN NOLPT1OSC NOMCLR
   Word  4: 00B0   NOSTVREN NODEBUG NOLVP NOXINST BBSIZ4K
   Word  5: C03F   NOPROTECT NOCPD NOCPB
   Word  6: E03F   NOWRT NOWRTD NOWRTC NOWRTB
   Word  7: 403F   NOEBTR NOEBTRB
