CCS PCH C Compiler, Version 4.104, 5967               02-ago.-19 09:33

               Filename: H:\JP\JP\Laboratorio\Autoclave\Autoclaves Vertical\Sin Precamara\2019\Autoclave 50L-V3.1 Avantika #004587980 OP201976\Firmware V4.0\GLCD_Controller\GLCD_Controller.lst

               ROM used: 46480 bytes (47%)
                         Largest free fragment is 32768
               RAM used: 975 (29%) at main() level
                         1001 (30%) worst case
               Stack:    5 worst case (4 in main + 1 for interrupts)

*
00000:  GOTO   5030
*
00008:  GOTO   00BA
0000C:  NOP   
0000E:  NOP   
00010:  NOP   
00012:  NOP   
00014:  NOP   
00016:  NOP   
00018:  MOVWF  04
0001A:  MOVFF  FD8,05
0001E:  MOVFF  FE0,06
00022:  MOVLB  0
00024:  MOVFF  FE9,0C
00028:  MOVFF  FEA,07
0002C:  MOVFF  FE1,08
00030:  MOVFF  FE2,09
00034:  MOVFF  FD9,0A
00038:  MOVFF  FDA,0B
0003C:  MOVFF  FF3,12
00040:  MOVFF  FF4,13
00044:  MOVFF  FFA,14
00048:  MOVFF  FFB,15
0004C:  MOVFF  00,0E
00050:  MOVFF  01,0F
00054:  MOVFF  02,10
00058:  MOVFF  03,11
0005C:  BTFSS  FF2.5
0005E:  GOTO   0068
00062:  BTFSC  FF2.2
00064:  GOTO   0272
00068:  BTFSS  F9D.0
0006A:  GOTO   0074
0006E:  BTFSC  F9E.0
00070:  GOTO   02CA
00074:  MOVFF  0E,00
00078:  MOVFF  0F,01
0007C:  MOVFF  10,02
00080:  MOVFF  11,03
00084:  MOVFF  0C,FE9
00088:  MOVFF  07,FEA
0008C:  BSF    07.7
0008E:  MOVFF  08,FE1
00092:  MOVFF  09,FE2
00096:  MOVFF  0A,FD9
0009A:  MOVFF  0B,FDA
0009E:  MOVFF  12,FF3
000A2:  MOVFF  13,FF4
000A6:  MOVFF  14,FFA
000AA:  MOVFF  15,FFB
000AE:  MOVF   04,W
000B0:  MOVFF  06,FE0
000B4:  MOVFF  05,FD8
000B8:  RETFIE 0
000BA:  MOVWF  17
000BC:  MOVFF  FD8,18
000C0:  MOVFF  FE0,19
000C4:  MOVLB  0
000C6:  MOVFF  FE9,1F
000CA:  MOVFF  FEA,1A
000CE:  MOVFF  FE1,1B
000D2:  MOVFF  FE2,1C
000D6:  MOVFF  FD9,1D
000DA:  MOVFF  FDA,1E
000DE:  MOVFF  FF3,25
000E2:  MOVFF  FF4,26
000E6:  MOVFF  FFA,27
000EA:  MOVFF  FFB,28
000EE:  MOVFF  00,21
000F2:  MOVFF  01,22
000F6:  MOVFF  02,23
000FA:  MOVFF  03,24
000FE:  BTFSS  F9D.5
00100:  GOTO   010A
00104:  BTFSC  F9E.5
00106:  GOTO   0204
0010A:  MOVFF  21,00
0010E:  MOVFF  22,01
00112:  MOVFF  23,02
00116:  MOVFF  24,03
0011A:  MOVFF  1F,FE9
0011E:  MOVFF  1A,FEA
00122:  BSF    1A.7
00124:  MOVFF  1B,FE1
00128:  MOVFF  1C,FE2
0012C:  MOVFF  1D,FD9
00130:  MOVFF  1E,FDA
00134:  MOVFF  25,FF3
00138:  MOVFF  26,FF4
0013C:  MOVFF  27,FFA
00140:  MOVFF  28,FFB
00144:  MOVF   17,W
00146:  MOVFF  19,FE0
0014A:  MOVFF  18,FD8
0014E:  RETFIE 0
.................... //Falta crear menu de ajuste de variables y de norma CFR21 
....................  
.................... #include <18F4685.h> 
.................... //////// Standard Header file for the PIC18F4685 device //////////////// 
.................... #device PIC18F4685 
.................... #list 
....................  
.................... #device adc=10 
.................... #device HIGH_INTS=TRUE //Activamos niveles de prioridad 
.................... #fuses HS,WDT8192,NOPROTECT,NOLVP,NODEBUG,NOSTVREN,NOPUT,NOCPD,NOWRT,NOIESO,NOFCMEN,NOPBADEN,NOWRTC,NOWRTB,NOEBTR,NOEBTRB,NOCPB,NOXINST,NOLPT1OSC,NOMCLR 
.................... #use delay(clock=20000000) 
*
016D0:  MOVLW  03
016D2:  MOVWF  FEA
016D4:  MOVLW  D4
016D6:  MOVWF  FE9
016D8:  MOVF   FEF,W
016DA:  BZ    16F6
016DC:  MOVLW  06
016DE:  MOVWF  01
016E0:  CLRF   00
016E2:  DECFSZ 00,F
016E4:  BRA    16E2
016E6:  DECFSZ 01,F
016E8:  BRA    16E0
016EA:  MOVLW  7B
016EC:  MOVWF  00
016EE:  DECFSZ 00,F
016F0:  BRA    16EE
016F2:  DECFSZ FEF,F
016F4:  BRA    16DC
016F6:  RETLW  00
.................... #use i2c(Master,slow,sda=PIN_C4,scl=PIN_C3) 
*
03CAE:  MOVLW  08
03CB0:  MOVWF  01
03CB2:  MOVLW  05
03CB4:  MOVWF  00
03CB6:  DECFSZ 00,F
03CB8:  BRA    3CB6
03CBA:  BCF    F8B.3
03CBC:  BCF    F94.3
03CBE:  MOVLW  06
03CC0:  MOVWF  00
03CC2:  DECFSZ 00,F
03CC4:  BRA    3CC2
03CC6:  MOVLB  3
03CC8:  RLCF   xD8,F
03CCA:  BCF    F8B.4
03CCC:  BTFSC  FD8.0
03CCE:  BSF    F94.4
03CD0:  BTFSS  FD8.0
03CD2:  BCF    F94.4
03CD4:  BSF    F94.3
03CD6:  BTFSS  F82.3
03CD8:  BRA    3CD6
03CDA:  DECFSZ 01,F
03CDC:  BRA    3CE0
03CDE:  BRA    3CE4
03CE0:  MOVLB  0
03CE2:  BRA    3CB2
03CE4:  MOVLW  05
03CE6:  MOVWF  00
03CE8:  DECFSZ 00,F
03CEA:  BRA    3CE8
03CEC:  BCF    F8B.3
03CEE:  BCF    F94.3
03CF0:  NOP   
03CF2:  BSF    F94.4
03CF4:  MOVLW  06
03CF6:  MOVWF  00
03CF8:  DECFSZ 00,F
03CFA:  BRA    3CF8
03CFC:  MOVLW  06
03CFE:  MOVWF  00
03D00:  DECFSZ 00,F
03D02:  BRA    3D00
03D04:  BSF    F94.3
03D06:  BTFSS  F82.3
03D08:  BRA    3D06
03D0A:  CLRF   01
03D0C:  MOVLW  06
03D0E:  MOVWF  00
03D10:  DECFSZ 00,F
03D12:  BRA    3D10
03D14:  BTFSC  F82.4
03D16:  BSF    01.0
03D18:  BCF    F8B.3
03D1A:  BCF    F94.3
03D1C:  BCF    F8B.4
03D1E:  BCF    F94.4
03D20:  MOVLB  0
03D22:  RETLW  00
.................... #use rs232(baud=9600, xmit=PIN_C6, rcv=PIN_C7, bits=8, parity=N) 
*
0343A:  BTFSS  F9E.4
0343C:  BRA    343A
0343E:  MOVWF  FAD
03440:  RETLW  00
.................... //#include "HDM64GS12.c" 
.................... //#include "GRAPHICS.c" 
.................... ///#include "imagen.h" 
.................... #include <stdio.h> 
.................... /////////////////////////////////////////////////////////////////////////// 
.................... ////        (C) Copyright 1996,2003 Custom Computer Services           //// 
.................... //// This source code may only be used by licensed users of the CCS C  //// 
.................... //// compiler.  This source code may only be distributed to other      //// 
.................... //// licensed users of the CCS C compiler.  No other use, reproduction //// 
.................... //// or distribution is permitted without written permission.          //// 
.................... //// Derivative programs created using this software in object code    //// 
.................... //// form are not restricted in any way.                               //// 
.................... /////////////////////////////////////////////////////////////////////////// 
....................  
.................... #ifndef _STDIO 
.................... #define _STDIO 
.................... #include <string.h> 
.................... //////////////////////////////////////////////////////////////////////////// 
.................... ////        (C) Copyright 1996,2008 Custom Computer Services            //// 
.................... //// This source code may only be used by licensed users of the CCS C   //// 
.................... //// compiler.  This source code may only be distributed to other       //// 
.................... //// licensed users of the CCS C compiler.  No other use, reproduction  //// 
.................... //// or distribution is permitted without written permission.           //// 
.................... //// Derivative programs created using this software in object code     //// 
.................... //// form are not restricted in any way.                                //// 
.................... //////////////////////////////////////////////////////////////////////////// 
....................  
.................... #ifndef _STRING 
.................... #define _STRING 
.................... #include <stddef.h> 
.................... /////////////////////////////////////////////////////////////////////////// 
.................... ////        (C) Copyright 1996,2003 Custom Computer Services           //// 
.................... //// This source code may only be used by licensed users of the CCS C  //// 
.................... //// compiler.  This source code may only be distributed to other      //// 
.................... //// licensed users of the CCS C compiler.  No other use, reproduction //// 
.................... //// or distribution is permitted without written permission.          //// 
.................... //// Derivative programs created using this software in object code    //// 
.................... //// form are not restricted in any way.                               //// 
.................... /////////////////////////////////////////////////////////////////////////// 
....................  
.................... #ifndef _STDDEF 
....................  
.................... #define _STDDEF 
....................  
.................... #if sizeof(unsigned int8 *)==1 
.................... #define ptrdiff_t unsigned int8 
.................... #else 
.................... #define ptrdiff_t unsigned int16 
.................... #endif 
....................  
.................... #define size_t unsigned int8 
.................... #define wchar_t char 
.................... #define NULL 0 
....................  
.................... #define offsetof(s,f) (offsetofbit(s,f)/8) 
....................  
.................... #endif 
....................  
.................... #include <ctype.h> 
.................... //////////////////////////////////////////////////////////////////////////// 
.................... ////        (C) Copyright 1996,2003 Custom Computer Services            //// 
.................... //// This source code may only be used by licensed users of the CCS C   //// 
.................... //// compiler.  This source code may only be distributed to other       //// 
.................... //// licensed users of the CCS C compiler.  No other use, reproduction  //// 
.................... //// or distribution is permitted without written permission.           //// 
.................... //// Derivative programs created using this software in object code     //// 
.................... //// form are not restricted in any way.                                //// 
.................... //////////////////////////////////////////////////////////////////////////// 
....................  
.................... #ifndef _CTYPE 
.................... #define _CTYPE 
....................  
.................... #define islower(x)  isamong(x,"abcdefghijklmnopqrstuvwxyz") 
.................... #define isupper(x)  isamong(x,"ABCDEFGHIJKLMNOPQRSTUVWXYZ") 
.................... #define isalnum(x)  isamong(x,"0123456789ABCDEFGHIJKLMNOPQRSTUVWXYZabcdefghijklmnopqrstuvwxyz") 
.................... #define isalpha(x)  isamong(x,"ABCDEFGHIJKLMNOPQRSTUVWXYZabcdefghijklmnopqrstuvwxyz") 
.................... #define isdigit(x)  isamong(x,"0123456789") 
.................... #define isspace(x)  ((x)==' ') 
.................... #define isxdigit(x) isamong(x,"0123456789ABCDEFabcdef") 
.................... #define iscntrl(x)  ((x)<' ') 
.................... #define isprint(x)  ((x)>=' ') 
.................... #define isgraph(x)  ((x)>' ') 
.................... #define ispunct(x)  (((x)>' ')&&!isalnum(x)) 
....................  
.................... #endif 
....................  
....................  
....................  
....................  
....................  
.................... ////////////////////////////////////////////// 
.................... //// Uncomment the following define to    //// 
.................... //// allow some functions to use a        //// 
.................... //// quicker algorithm, but use more ROM  //// 
.................... ////                                      //// 
.................... //// #define FASTER_BUT_MORE_ROM          //// 
.................... ////////////////////////////////////////////// 
....................  
....................  
....................  
.................... /*Copying functions*/ 
.................... /* standard template: 
....................    void *memmove(void *s1, void *s2, size_t n). 
....................    Copies max of n characters safely (not following ending '\0') 
....................    from s2 in s1; if s2 has less than n characters, appends 0 */ 
....................  
.................... char *memmove(void *s1,char *s2,size_t n) 
.................... { 
....................    char *sc1; 
....................    char *sc2; 
....................    sc1=s1; 
....................    sc2=s2; 
....................    if(sc2<sc1 && sc1 <sc2 +n) 
....................       for(sc1+=n,sc2+=n;0<n;--n) 
....................          *--sc1=*--sc2; 
....................    else 
....................       for(;0<n;--n) 
....................          *sc1++=*sc2++; 
....................   return s1; 
....................   } 
....................  
.................... /* Standard template: char *strcpy(char *s1, const char *s2) 
....................    copies the string s2 including the null character to s1. 
....................    This is a compiler built in to handle the different address 
....................    spaces */ 
....................  
.................... #define strcopy strcpy 
....................  
.................... /* standard template: 
....................    char *strncpy(char *s1, const char *s2, size_t n). 
....................    Copies max of n characters (not following ending '\0') 
....................    from s2 in s1; if s2 has less than n characters, appends 0 */ 
....................  
.................... char *strncpy(char *s1, char *s2, size_t n) 
.................... { 
....................   char *s; 
....................  
....................   for (s = s1; n > 0 && *s2 != '\0'; n--) 
....................      *s++ = *s2++; 
....................   for (; n > 0; n--) 
....................      *s++ = '\0'; 
....................  
....................   return(s1); 
.................... } 
.................... /***********************************************************/ 
....................  
.................... /*concatenation functions*/ 
.................... /* standard template: char *strcat(char *s1, const char *s2) 
.................... appends s2 to s1*/ 
....................  
.................... char *strcat(char *s1, char *s2) 
.................... { 
....................    char *s; 
....................  
....................    for (s = s1; *s != '\0'; ++s); 
....................    while(*s2 != '\0') 
....................    { 
....................       *s = *s2; 
....................       ++s; 
....................       ++s2; 
....................    } 
....................  
....................    *s = '\0'; 
....................    return(s1); 
.................... } 
.................... /* standard template: char *strncat(char *s1, char *s2,size_t n) 
.................... appends not more than n characters from s2 to s1*/ 
....................  
.................... char *strncat(char *s1, char *s2, size_t n) 
.................... { 
....................    char *s; 
....................  
....................    for (s = s1; *s != '\0'; ++s); 
....................    while(*s2 != '\0' && 0<n) 
....................    { 
....................       *s = *s2; 
....................       ++s; 
....................       ++s2; 
....................       --n; 
....................    } 
....................  
....................    *s = '\0'; 
....................    return(s1); 
.................... } 
....................  
.................... /***********************************************************/ 
....................  
....................  
.................... /*comparison functions*/ 
.................... /* standard template: signed int memcmp(void *s1, void *s2). 
....................    Compares s1 & s2; returns -1 if s1<s2, 0 if s1=s2, 1 if s1>s2 */ 
....................  
.................... signed int8 memcmp(void * s1,char *s2,size_t n) 
.................... { 
.................... char *su1, *su2; 
.................... for(su1=s1, su2=s2; 0<n; ++su1, ++su2, --n) 
.................... { 
....................    if(*su1!=*su2) 
....................       return ((*su1<*su2)?-1:+1); 
.................... } 
.................... return 0; 
.................... } 
....................  
.................... /* standard template: int strcmp(const char *s1, const char *s2). 
....................    Compares s1 & s2; returns -1 if s1<s2, 0 if s1=s2, 1 if s1>s2 */ 
....................  
.................... signed int8 strcmp(char *s1, char *s2) 
.................... { 
....................    for (; *s1 == *s2; s1++, s2++) 
....................       if (*s1 == '\0') 
....................          return(0); 
....................    return((*s1 < *s2) ? -1: 1); 
.................... } 
.................... /* standard template: int strcoll(const char *s1, const char *s2). 
....................    Compares s1 & s2; returns -1 if s1<s2, 0 if s1=s2, 1 if s1>s2 */ 
....................  
.................... signed int8 strcoll(char *s1, char *s2) 
.................... { 
....................    for (; *s1 == *s2; s1++, s2++) 
....................       if (*s1 == '\0') 
....................          return(0); 
....................    return((*s1 < *s2) ? -1: 1); 
.................... } 
....................  
.................... /* standard template: 
....................    int strncmp(const char *s1, const char *s2, size_t n). 
....................    Compares max of n characters (not following 0) from s1 to s2; 
....................    returns same as strcmp */ 
....................  
.................... signed int8 strncmp(char *s1, char *s2, size_t n) 
.................... { 
....................    for (; n > 0; s1++, s2++, n--) 
....................       if (*s1 != *s2) 
....................          return((*s1 <*s2) ? -1: 1); 
....................       else if (*s1 == '\0') 
....................          return(0); 
....................    return(0); 
.................... } 
.................... /* standard template: 
....................    int strxfrm(const char *s1, const char *s2, size_t n). 
....................    transforms maximum of n characters from s2 and places them into s1*/ 
.................... size_t strxfrm(char *s1, char *s2, size_t n) 
.................... { 
....................   char *s; 
....................   unsigned int8 n1; 
....................   n1=n; 
....................   for (s = s1; n > 0 && *s2 != '\0'; n--) 
....................      *s++ = *s2++; 
....................   for (; n > 0; n--) 
....................      *s++ = '\0'; 
....................  
....................   return(n1); 
.................... } 
....................  
....................  
....................  
....................  
....................  
.................... /***********************************************************/ 
.................... /*Search functions*/ 
.................... /* standard template: void *memchr(const char *s, int c). 
....................    Finds first occurrence of c in n characters of s */ 
....................  
.................... char *memchr(void *s,unsigned int8 c,size_t n) 
.................... { 
....................    char uc; 
....................    char *su; 
....................    uc=c; 
....................    for(su=s;0<n;++su,--n) 
....................       if(*su==uc) 
....................       return su; 
....................    return NULL; 
.................... } 
....................  
.................... /* standard template: char *strchr(const char *s, int c). 
....................    Finds first occurrence of c in s */ 
....................  
.................... char *strchr(char *s, unsigned int8 c) 
.................... { 
....................    for (; *s != c; s++) 
....................       if (*s == '\0') 
....................          return(0); 
....................    return(s); 
.................... } 
.................... /* standard template: 
....................    size_t strcspn(const char *s1, const char *s2). 
....................    Computes length of max initial segment of s1 that 
....................    consists entirely of characters NOT from s2*/ 
....................  
.................... unsigned int8  strcspn(char *s1, char *s2) 
.................... { 
....................    char *sc1, *sc2; 
....................  
....................    for (sc1 = s1; *sc1 != 0; sc1++) 
....................       for (sc2 = s2; *sc2 != 0; sc2++) 
....................          if (*sc1 == *sc2) 
....................             return(sc1 - s1); 
....................    return(sc1 - s1); 
.................... } 
.................... /* standard template: 
....................    char *strpbrk(const char *s1, const char *s2). 
....................    Locates first occurence of any character from s2 in s1; 
....................    returns s1 if s2 is empty string */ 
....................  
.................... char *strpbrk(char *s1, char *s2) 
.................... { 
....................    char *sc1, *sc2; 
....................  
....................    for (sc1 = s1; *sc1 != 0; sc1++) 
....................       for (sc2 = s2; *sc2 != 0; sc2++) 
....................          if (*sc1 == *sc2) 
....................             return(sc1); 
....................    return(0); 
.................... } 
....................  
....................  
.................... /* standard template: char *strrchr(const char *s, int c). 
....................    Finds last occurrence of c in s */ 
....................  
.................... char *strrchr(char *s, unsigned int8 c) 
.................... { 
....................    char *p; 
....................  
....................    for (p = 0; ; s++) 
....................    { 
....................       if (*s == c) 
....................          p = s; 
....................       if (*s == '\0') 
....................          return(p); 
....................    } 
.................... } 
.................... /* computes length of max initial segment of s1 consisting 
....................    entirely of characters from s2 */ 
....................  
.................... unsigned int8  strspn(char *s1, char *s2) 
.................... { 
....................    char *sc1, *sc2; 
....................  
....................    for (sc1 = s1; *sc1 != 0; sc1++) 
....................       for (sc2 = s2; ; sc2++) 
....................     if (*sc2 == '\0') 
....................        return(sc1 - s1); 
....................          else if (*sc1 == *sc2) 
....................             break; 
....................    return(sc1 - s1); 
.................... } 
.................... /* standard template: 
....................    char *strstr(const char *s1, const char *s2); 
....................    Locates first occurence of character sequence s2 in s1; 
....................    returns 0 if s2 is empty string 
....................  
....................    Uncomment #define FASTER_BUT_MORE_ROM at the top of the 
....................    file to use the faster algorithm */ 
.................... char *strstr(char *s1, char *s2) 
.................... { 
....................    char *s, *t; 
....................  
....................    #ifdef FASTER_BUT_MORE_ROM 
....................    if (*s2 == '\0') 
....................          return(s1); 
....................    #endif 
....................  
....................    while (*s1) 
....................    { 
....................       for(s = s1, t = s2; *t && (*s == *t); ++s, ++t); 
....................  
....................       if (*t == '\0') 
....................          return s1; 
....................       ++s1; 
....................       #ifdef FASTER_BUT_MORE_ROM 
....................          while(*s1 != '\0' && *s1 != *s2) 
....................             ++s1; 
....................       #endif 
....................    } 
....................    return 0; 
.................... } 
....................  
.................... /* standard template: char *strtok(char *s1, const char *s2). 
....................  
....................    Finds next token in s1 delimited by a character from separator 
....................    string s2 (which can be different from call to call).  First call 
....................    starts at beginning of s1 searching for first character NOT 
....................    contained in s2; returns 0 if none is found. 
....................    If one is found, it is the start of first token (return value). 
....................    Function then searches from there for a character contained in s2. 
....................    If none is found, current token extends to end of s1, and subsequent 
....................    searches for a token will return 0.  If one is found, it is 
....................    overwritten by '\0', which terminates current token.  Function saves 
....................    pointer to following character from which next search will start. 
....................    Each subsequent call, with 0 as first argument, starts searching 
....................    from saved pointer */ 
....................  
.................... char *strtok(char *s1, char *s2) 
.................... { 
....................    char *beg, *end; 
....................    static char *save; 
....................  
....................    beg = (s1)? s1: save; 
....................    beg += strspn(beg, s2); 
....................    if (*beg == '\0') 
....................    { 
....................       *save = ' '; 
....................       return(0); 
....................    } 
....................    end = strpbrk(beg, s2); 
....................    if (*end != '\0') 
....................    { 
....................       *end = '\0'; 
....................       end++; 
....................    } 
....................    save = end; 
....................    return(beg); 
.................... } 
....................  
.................... /*****************************************************************/ 
.................... /*Miscellaneous functions*/ 
.................... /* standard template 
.................... maps error number in errnum to an error message string 
.................... Returns: Pointer to string 
.................... */ 
.................... #ifdef _ERRNO 
.................... char * strerror(unsigned int8 errnum) 
.................... { 
.................... char s[15]; 
.................... switch( errnum) 
.................... { 
.................... case 0: 
....................    strcpy(s,"no errors"); 
....................    return s; 
.................... case EDOM : 
....................    strcpy(s,"domain error"); 
....................    return s; 
.................... case ERANGE: 
....................    strcpy(s,"range error"); 
....................    return s; 
.................... } 
.................... } 
.................... #ENDIF 
.................... /* standard template: size_t strlen(const char *s). 
....................    Computes length of s1 (preceding terminating 0) */ 
....................  
.................... unsigned int8 strlen(char *s) 
.................... { 
....................    char *sc; 
....................  
....................    for (sc = s; *sc != 0; sc++); 
....................    return(sc - s); 
.................... } 
....................  
.................... /* standard template: size_t stricmp(const char *s1, const char *s2). 
....................    Compares s1 to s2 ignoring case (upper vs. lower) */ 
....................  
.................... signed int8 stricmp(char *s1, char *s2) 
.................... { 
....................  for(; *s1==*s2||(isalpha(*s1)&&isalpha(*s2)&&(*s1==*s2+32||*s2==*s1+32)); 
....................     s1++, s2++) 
....................     if (*s1 == '\0') 
....................        return(0); 
....................  return((*s1 < *s2) ? -1: 1); 
.................... } 
....................  
....................  
.................... /* standard template: char *strlwr(char *s). 
....................    Replaces uppercase letters by lowercase; 
....................    returns pointer to new string s */ 
....................  
.................... char *strlwr(char *s) 
.................... { 
....................    char *p; 
....................  
....................    for (p = s; *p != '\0'; p++) 
....................       if (*p >= 'A' && *p <='Z') 
....................          *p += 'a' - 'A'; 
....................    return(s); 
.................... } 
....................  
....................  
.................... /************************************************************/ 
....................  
....................  
.................... #endif 
....................  
.................... #ifndef getc 
.................... #define getc getch 
.................... #define getchar getch 
.................... #define puts(s) {printf(s); putchar(13); putchar(10);} 
.................... #define putc putchar 
.................... #endif 
.................... /* maps error number to an error message. Writes a sequence of characters to 
.................... stderr stream thus: if s is not null then string pointed to by s follwed by 
.................... a colon (:) and a space and the appropriate error message returned by strerror 
.................... function with argument errno 
....................  
.................... Returns: no value 
.................... */ 
....................  
.................... #ifdef _ERRNO 
.................... void perror(char *s) 
.................... { 
....................   if(s) 
....................   fprintf(STDERR,"%s: ",s); 
....................   fprintf(STDERR,"%s\r\n",strerror(errno)); 
.................... } 
.................... #endif 
.................... #endif 
....................  
.................... #include <string.h> 
.................... //////////////////////////////////////////////////////////////////////////// 
.................... ////        (C) Copyright 1996,2008 Custom Computer Services            //// 
.................... //// This source code may only be used by licensed users of the CCS C   //// 
.................... //// compiler.  This source code may only be distributed to other       //// 
.................... //// licensed users of the CCS C compiler.  No other use, reproduction  //// 
.................... //// or distribution is permitted without written permission.           //// 
.................... //// Derivative programs created using this software in object code     //// 
.................... //// form are not restricted in any way.                                //// 
.................... //////////////////////////////////////////////////////////////////////////// 
....................  
.................... #ifndef _STRING 
.................... #define _STRING 
.................... #include <stddef.h> 
.................... #include <ctype.h> 
....................  
....................  
....................  
.................... ////////////////////////////////////////////// 
.................... //// Uncomment the following define to    //// 
.................... //// allow some functions to use a        //// 
.................... //// quicker algorithm, but use more ROM  //// 
.................... ////                                      //// 
.................... //// #define FASTER_BUT_MORE_ROM          //// 
.................... ////////////////////////////////////////////// 
....................  
....................  
....................  
.................... /*Copying functions*/ 
.................... /* standard template: 
....................    void *memmove(void *s1, void *s2, size_t n). 
....................    Copies max of n characters safely (not following ending '\0') 
....................    from s2 in s1; if s2 has less than n characters, appends 0 */ 
....................  
.................... char *memmove(void *s1,char *s2,size_t n) 
.................... { 
....................    char *sc1; 
....................    char *sc2; 
....................    sc1=s1; 
....................    sc2=s2; 
....................    if(sc2<sc1 && sc1 <sc2 +n) 
....................       for(sc1+=n,sc2+=n;0<n;--n) 
....................          *--sc1=*--sc2; 
....................    else 
....................       for(;0<n;--n) 
....................          *sc1++=*sc2++; 
....................   return s1; 
....................   } 
....................  
.................... /* Standard template: char *strcpy(char *s1, const char *s2) 
....................    copies the string s2 including the null character to s1. 
....................    This is a compiler built in to handle the different address 
....................    spaces */ 
....................  
.................... #define strcopy strcpy 
....................  
.................... /* standard template: 
....................    char *strncpy(char *s1, const char *s2, size_t n). 
....................    Copies max of n characters (not following ending '\0') 
....................    from s2 in s1; if s2 has less than n characters, appends 0 */ 
....................  
.................... char *strncpy(char *s1, char *s2, size_t n) 
.................... { 
....................   char *s; 
....................  
....................   for (s = s1; n > 0 && *s2 != '\0'; n--) 
....................      *s++ = *s2++; 
....................   for (; n > 0; n--) 
....................      *s++ = '\0'; 
....................  
....................   return(s1); 
.................... } 
.................... /***********************************************************/ 
....................  
.................... /*concatenation functions*/ 
.................... /* standard template: char *strcat(char *s1, const char *s2) 
.................... appends s2 to s1*/ 
....................  
.................... char *strcat(char *s1, char *s2) 
.................... { 
....................    char *s; 
....................  
....................    for (s = s1; *s != '\0'; ++s); 
....................    while(*s2 != '\0') 
....................    { 
....................       *s = *s2; 
....................       ++s; 
....................       ++s2; 
....................    } 
....................  
....................    *s = '\0'; 
....................    return(s1); 
.................... } 
.................... /* standard template: char *strncat(char *s1, char *s2,size_t n) 
.................... appends not more than n characters from s2 to s1*/ 
....................  
.................... char *strncat(char *s1, char *s2, size_t n) 
.................... { 
....................    char *s; 
....................  
....................    for (s = s1; *s != '\0'; ++s); 
....................    while(*s2 != '\0' && 0<n) 
....................    { 
....................       *s = *s2; 
....................       ++s; 
....................       ++s2; 
....................       --n; 
....................    } 
....................  
....................    *s = '\0'; 
....................    return(s1); 
.................... } 
....................  
.................... /***********************************************************/ 
....................  
....................  
.................... /*comparison functions*/ 
.................... /* standard template: signed int memcmp(void *s1, void *s2). 
....................    Compares s1 & s2; returns -1 if s1<s2, 0 if s1=s2, 1 if s1>s2 */ 
....................  
.................... signed int8 memcmp(void * s1,char *s2,size_t n) 
.................... { 
.................... char *su1, *su2; 
.................... for(su1=s1, su2=s2; 0<n; ++su1, ++su2, --n) 
.................... { 
....................    if(*su1!=*su2) 
....................       return ((*su1<*su2)?-1:+1); 
.................... } 
.................... return 0; 
.................... } 
....................  
.................... /* standard template: int strcmp(const char *s1, const char *s2). 
....................    Compares s1 & s2; returns -1 if s1<s2, 0 if s1=s2, 1 if s1>s2 */ 
....................  
.................... signed int8 strcmp(char *s1, char *s2) 
.................... { 
....................    for (; *s1 == *s2; s1++, s2++) 
....................       if (*s1 == '\0') 
....................          return(0); 
....................    return((*s1 < *s2) ? -1: 1); 
.................... } 
.................... /* standard template: int strcoll(const char *s1, const char *s2). 
....................    Compares s1 & s2; returns -1 if s1<s2, 0 if s1=s2, 1 if s1>s2 */ 
....................  
.................... signed int8 strcoll(char *s1, char *s2) 
.................... { 
....................    for (; *s1 == *s2; s1++, s2++) 
....................       if (*s1 == '\0') 
....................          return(0); 
....................    return((*s1 < *s2) ? -1: 1); 
.................... } 
....................  
.................... /* standard template: 
....................    int strncmp(const char *s1, const char *s2, size_t n). 
....................    Compares max of n characters (not following 0) from s1 to s2; 
....................    returns same as strcmp */ 
....................  
.................... signed int8 strncmp(char *s1, char *s2, size_t n) 
.................... { 
....................    for (; n > 0; s1++, s2++, n--) 
....................       if (*s1 != *s2) 
....................          return((*s1 <*s2) ? -1: 1); 
....................       else if (*s1 == '\0') 
....................          return(0); 
....................    return(0); 
.................... } 
.................... /* standard template: 
....................    int strxfrm(const char *s1, const char *s2, size_t n). 
....................    transforms maximum of n characters from s2 and places them into s1*/ 
.................... size_t strxfrm(char *s1, char *s2, size_t n) 
.................... { 
....................   char *s; 
....................   unsigned int8 n1; 
....................   n1=n; 
....................   for (s = s1; n > 0 && *s2 != '\0'; n--) 
....................      *s++ = *s2++; 
....................   for (; n > 0; n--) 
....................      *s++ = '\0'; 
....................  
....................   return(n1); 
.................... } 
....................  
....................  
....................  
....................  
....................  
.................... /***********************************************************/ 
.................... /*Search functions*/ 
.................... /* standard template: void *memchr(const char *s, int c). 
....................    Finds first occurrence of c in n characters of s */ 
....................  
.................... char *memchr(void *s,unsigned int8 c,size_t n) 
.................... { 
....................    char uc; 
....................    char *su; 
....................    uc=c; 
....................    for(su=s;0<n;++su,--n) 
....................       if(*su==uc) 
....................       return su; 
....................    return NULL; 
.................... } 
....................  
.................... /* standard template: char *strchr(const char *s, int c). 
....................    Finds first occurrence of c in s */ 
....................  
.................... char *strchr(char *s, unsigned int8 c) 
.................... { 
....................    for (; *s != c; s++) 
....................       if (*s == '\0') 
....................          return(0); 
....................    return(s); 
.................... } 
.................... /* standard template: 
....................    size_t strcspn(const char *s1, const char *s2). 
....................    Computes length of max initial segment of s1 that 
....................    consists entirely of characters NOT from s2*/ 
....................  
.................... unsigned int8  strcspn(char *s1, char *s2) 
.................... { 
....................    char *sc1, *sc2; 
....................  
....................    for (sc1 = s1; *sc1 != 0; sc1++) 
....................       for (sc2 = s2; *sc2 != 0; sc2++) 
....................          if (*sc1 == *sc2) 
....................             return(sc1 - s1); 
....................    return(sc1 - s1); 
.................... } 
.................... /* standard template: 
....................    char *strpbrk(const char *s1, const char *s2). 
....................    Locates first occurence of any character from s2 in s1; 
....................    returns s1 if s2 is empty string */ 
....................  
.................... char *strpbrk(char *s1, char *s2) 
.................... { 
....................    char *sc1, *sc2; 
....................  
....................    for (sc1 = s1; *sc1 != 0; sc1++) 
....................       for (sc2 = s2; *sc2 != 0; sc2++) 
....................          if (*sc1 == *sc2) 
....................             return(sc1); 
....................    return(0); 
.................... } 
....................  
....................  
.................... /* standard template: char *strrchr(const char *s, int c). 
....................    Finds last occurrence of c in s */ 
....................  
.................... char *strrchr(char *s, unsigned int8 c) 
.................... { 
....................    char *p; 
....................  
....................    for (p = 0; ; s++) 
....................    { 
....................       if (*s == c) 
....................          p = s; 
....................       if (*s == '\0') 
....................          return(p); 
....................    } 
.................... } 
.................... /* computes length of max initial segment of s1 consisting 
....................    entirely of characters from s2 */ 
....................  
.................... unsigned int8  strspn(char *s1, char *s2) 
.................... { 
....................    char *sc1, *sc2; 
....................  
....................    for (sc1 = s1; *sc1 != 0; sc1++) 
....................       for (sc2 = s2; ; sc2++) 
....................     if (*sc2 == '\0') 
....................        return(sc1 - s1); 
....................          else if (*sc1 == *sc2) 
....................             break; 
....................    return(sc1 - s1); 
.................... } 
.................... /* standard template: 
....................    char *strstr(const char *s1, const char *s2); 
....................    Locates first occurence of character sequence s2 in s1; 
....................    returns 0 if s2 is empty string 
....................  
....................    Uncomment #define FASTER_BUT_MORE_ROM at the top of the 
....................    file to use the faster algorithm */ 
.................... char *strstr(char *s1, char *s2) 
.................... { 
....................    char *s, *t; 
....................  
....................    #ifdef FASTER_BUT_MORE_ROM 
....................    if (*s2 == '\0') 
....................          return(s1); 
....................    #endif 
....................  
....................    while (*s1) 
....................    { 
....................       for(s = s1, t = s2; *t && (*s == *t); ++s, ++t); 
....................  
....................       if (*t == '\0') 
....................          return s1; 
....................       ++s1; 
....................       #ifdef FASTER_BUT_MORE_ROM 
....................          while(*s1 != '\0' && *s1 != *s2) 
....................             ++s1; 
....................       #endif 
....................    } 
....................    return 0; 
.................... } 
....................  
.................... /* standard template: char *strtok(char *s1, const char *s2). 
....................  
....................    Finds next token in s1 delimited by a character from separator 
....................    string s2 (which can be different from call to call).  First call 
....................    starts at beginning of s1 searching for first character NOT 
....................    contained in s2; returns 0 if none is found. 
....................    If one is found, it is the start of first token (return value). 
....................    Function then searches from there for a character contained in s2. 
....................    If none is found, current token extends to end of s1, and subsequent 
....................    searches for a token will return 0.  If one is found, it is 
....................    overwritten by '\0', which terminates current token.  Function saves 
....................    pointer to following character from which next search will start. 
....................    Each subsequent call, with 0 as first argument, starts searching 
....................    from saved pointer */ 
....................  
.................... char *strtok(char *s1, char *s2) 
.................... { 
....................    char *beg, *end; 
....................    static char *save; 
....................  
....................    beg = (s1)? s1: save; 
....................    beg += strspn(beg, s2); 
....................    if (*beg == '\0') 
....................    { 
....................       *save = ' '; 
....................       return(0); 
....................    } 
....................    end = strpbrk(beg, s2); 
....................    if (*end != '\0') 
....................    { 
....................       *end = '\0'; 
....................       end++; 
....................    } 
....................    save = end; 
....................    return(beg); 
.................... } 
....................  
.................... /*****************************************************************/ 
.................... /*Miscellaneous functions*/ 
.................... /* standard template 
.................... maps error number in errnum to an error message string 
.................... Returns: Pointer to string 
.................... */ 
.................... #ifdef _ERRNO 
.................... char * strerror(unsigned int8 errnum) 
.................... { 
.................... char s[15]; 
.................... switch( errnum) 
.................... { 
.................... case 0: 
....................    strcpy(s,"no errors"); 
....................    return s; 
.................... case EDOM : 
....................    strcpy(s,"domain error"); 
....................    return s; 
.................... case ERANGE: 
....................    strcpy(s,"range error"); 
....................    return s; 
.................... } 
.................... } 
.................... #ENDIF 
.................... /* standard template: size_t strlen(const char *s). 
....................    Computes length of s1 (preceding terminating 0) */ 
....................  
.................... unsigned int8 strlen(char *s) 
.................... { 
....................    char *sc; 
....................  
....................    for (sc = s; *sc != 0; sc++); 
....................    return(sc - s); 
.................... } 
....................  
.................... /* standard template: size_t stricmp(const char *s1, const char *s2). 
....................    Compares s1 to s2 ignoring case (upper vs. lower) */ 
....................  
.................... signed int8 stricmp(char *s1, char *s2) 
.................... { 
....................  for(; *s1==*s2||(isalpha(*s1)&&isalpha(*s2)&&(*s1==*s2+32||*s2==*s1+32)); 
....................     s1++, s2++) 
....................     if (*s1 == '\0') 
....................        return(0); 
....................  return((*s1 < *s2) ? -1: 1); 
.................... } 
....................  
....................  
.................... /* standard template: char *strlwr(char *s). 
....................    Replaces uppercase letters by lowercase; 
....................    returns pointer to new string s */ 
....................  
.................... char *strlwr(char *s) 
.................... { 
....................    char *p; 
....................  
....................    for (p = s; *p != '\0'; p++) 
....................       if (*p >= 'A' && *p <='Z') 
....................          *p += 'a' - 'A'; 
....................    return(s); 
.................... } 
....................  
....................  
.................... /************************************************************/ 
....................  
....................  
.................... #endif 
....................  
.................... #include <stdlib.h> 
.................... /////////////////////////////////////////////////////////////////////////// 
.................... ////        (C) Copyright 1996,2007 Custom Computer Services           //// 
.................... //// This source code may only be used by licensed users of the CCS C  //// 
.................... //// compiler.  This source code may only be distributed to other      //// 
.................... //// licensed users of the CCS C compiler.  No other use, reproduction //// 
.................... //// or distribution is permitted without written permission.          //// 
.................... //// Derivative programs created using this software in object code    //// 
.................... //// form are not restricted in any way.                               //// 
.................... /////////////////////////////////////////////////////////////////////////// 
....................  
.................... #ifndef _STDLIB 
.................... #define _STDLIB 
....................  
.................... //--------------------------------------------------------------------------- 
.................... // Definitions and types 
.................... //--------------------------------------------------------------------------- 
....................  
.................... #ifndef RAND_MAX 
.................... #define RAND_MAX  32767    // The value of which is the maximum value 
....................                            // ... returned by the rand function 
.................... #endif 
....................  
....................  
.................... #IF (sizeof(int16*)>1) 
.................... #DEFINE LONG_POINTERS 1 
.................... #ELSE  
.................... #DEFINE LONG_POINTERS 0 
.................... #ENDIF 
....................  
.................... typedef struct { 
....................    signed int quot; 
....................    signed int rem; 
.................... } div_t; 
....................  
.................... typedef struct { 
....................    signed long quot; 
....................    signed long rem; 
.................... } ldiv_t; 
....................  
.................... #include <stddef.h> 
.................... /////////////////////////////////////////////////////////////////////////// 
.................... ////        (C) Copyright 1996,2003 Custom Computer Services           //// 
.................... //// This source code may only be used by licensed users of the CCS C  //// 
.................... //// compiler.  This source code may only be distributed to other      //// 
.................... //// licensed users of the CCS C compiler.  No other use, reproduction //// 
.................... //// or distribution is permitted without written permission.          //// 
.................... //// Derivative programs created using this software in object code    //// 
.................... //// form are not restricted in any way.                               //// 
.................... /////////////////////////////////////////////////////////////////////////// 
....................  
.................... #ifndef _STDDEF 
....................  
.................... #define _STDDEF 
....................  
.................... #if sizeof(unsigned int8 *)==1 
.................... #define ptrdiff_t unsigned int8 
.................... #else 
.................... #define ptrdiff_t unsigned int16 
.................... #endif 
....................  
.................... #define size_t unsigned int8 
.................... #define wchar_t char 
.................... #define NULL 0 
....................  
.................... #define offsetof(s,f) (offsetofbit(s,f)/8) 
....................  
.................... #endif 
....................  
....................  
.................... //--------------------------------------------------------------------------- 
.................... // String conversion functions 
.................... //--------------------------------------------------------------------------- 
....................  
.................... /* Standard template: signed int  atoi(char * s) 
....................  * converts the initial portion of the string s to a signed int 
....................  * returns the converted value if any, 0 otherwise 
....................  */ 
.................... signed int atoi(char *s); 
....................  
.................... /* Syntax: signed int32  atoi32(char * s) 
....................    converts the initial portion of the string s to a signed int32 
....................    returns the converted value if any, 0 otherwise*/ 
.................... #if (sizeof(long)==4) 
....................  #define atoi32(s) atol(s) 
.................... #else  
....................  signed int32 atoi32(char *s); 
.................... #endif 
....................  
.................... #if defined(__PCD__) 
.................... // The following functions only work on the 24 bit compiler 
.................... // for the 30F, 33F, 24F and 24H parts 
.................... /* Syntax: signed int48  atoi48(char * s) 
....................    converts the initial portion of the string s to a signed int48 
....................    returns the converted value if any, 0 otherwise*/ 
....................     
.................... signed int48 atoi48(char *s); 
....................  
.................... /* Syntax: signed int64  atoi64(char * s) 
....................    converts the initial portion of the string s to a signed int64 
....................    returns the converted value if any, 0 otherwise*/ 
.................... signed int64 atoi64(char *s); 
.................... #endif 
....................  
.................... /* Syntax: char *  itoa(signed int32 num, int8 base, char * s) 
....................    converts the signed int32 to a string and 
....................    returns the converted value if any, 0 otherwise*/ 
.................... char * itoa(signed int32 num, unsigned int base, char * s); 
....................  
.................... /* Standard template: signed int16  atol(char * s) 
....................  * converts the initial portion of the string s to a signed int16 
....................  * returns the converted value if any, 0 otherwise 
....................  */ 
.................... signed long atol(char *s); 
....................  
.................... /* Standard template: int16 strtoul(char * s,char *endptr,signed int base) 
....................  * converts the initial portion of the string s, represented as an 
....................  * integral value of radix base  to a signed long. 
....................  * Returns the converted value if any, 0 otherwise 
....................  * the final string is returned in the endptr, if endptr is not null 
....................  */ 
.................... signed long strtol(char *s,char *endptr, signed int base); 
....................  
.................... /* Standard template: int16 strtoul(char * s,char *endptr,signed int base) 
....................  * converts the initial portion of the string s, represented as an 
....................  * integral value of radix base to a unsigned long. 
....................  * returns the converted value if any, 0 otherwise 
....................  * the final string is returned in the endptr, if endptr is not null 
....................  */ 
.................... unsigned long strtoul(char *s,char *endptr, signed int base); 
....................  
.................... /* Standart template: float strtof(char * s,char *endptr) 
....................                       float48 strtof48(char *s,char *endptr); 
....................                       float64 strtod(char *s,char *endptr); 
....................  * converts the initial portion of the string s to a float32, float48 or float64, 
....................  * returns the converted value if any, 0 otherwise 
....................  * the final string is returned in the endptr, if endptr is not null                    
.................... */ 
.................... float strtof(char *s,char *endptr); 
.................... #if defined(__PCD__) 
.................... float48 strtof48(char *s,char *endptr); 
.................... float64 strtod(char *s,char *endptr); 
.................... #else 
.................... //provided for compatibility 
.................... #define strtof48(s, e) strtof(s, e) 
.................... #define strtod(s, e) strtof(s, e) 
.................... #endif 
....................  
.................... /* Standard template: float32 atof(char * s) 
....................  * converts the initial portion of the string s to a float. 
....................  * returns the converted value if any, 0 otherwise 
....................  */ 
.................... #define atof(s)   strtof(s, 0) 
....................  
.................... #if defined(__PCD__) 
.................... // The following functions only work on the 24 bit compiler 
.................... // for the 30F, 33F, 24F and 24H parts 
....................  
.................... /* Standard template: float48 atof48(char * s) 
....................  * converts the initial portion of the string s to a float. 
....................  * returns the converted value if any, 0 otherwise 
....................  */ 
.................... #define atof48(s) strtof48(s, 0) 
....................  
.................... /* Standard template: float64 atof64(char * s) 
....................  * converts the initial portion of the string s to a float. 
....................  * returns the converted value if any, 0 otherwise 
....................  */ 
.................... #define atof64(s) strtod(s, 0) 
.................... #endif 
....................  
.................... /* Standard template: float32 atoe(char * s) 
....................  * converts the initial portion of the string s to a float. 
....................  * returns the converted value if any, 0 otherwise 
....................  * also handles E format numbers 
....................  */ 
.................... #if !defined(__PCD__) 
.................... float atoe(char * s); 
.................... #endif 
....................  
.................... #if defined(__PCD__) 
.................... float32 atoe(char * s); 
.................... #endif 
....................  
.................... //--------------------------------------------------------------------------- 
.................... // Pseudo-random sequence generation functions 
.................... //--------------------------------------------------------------------------- 
....................  
.................... /* The rand function computes a sequence of pseudo-random integers in 
....................  * the range 0 to RAND_MAX 
....................  * 
....................  * Parameters: 
....................  *       (none) 
....................  * 
....................  * Returns: 
....................  *       The pseudo-random integer 
....................  */ 
.................... unsigned int16 rand(void); 
....................  
.................... /* The srand function uses the argument as a seed for a new sequence of 
....................  * pseudo-random numbers to be returned by subsequent calls to rand. 
....................  * 
....................  * Parameters: 
....................  *       [in] seed: The seed value to start from. You might need to pass 
....................  * 
....................  * Returns: 
....................  *       (none) 
....................  * 
....................  * Remarks 
....................  *          The srand function sets the starting point for generating 
....................  *       a series of pseudorandom integers. To reinitialize the 
....................  *       generator, use 1 as the seed argument. Any other value for 
....................  *       seed sets the generator to a random starting point. rand 
....................  *       retrieves the pseudorandom numbers that are generated. 
....................  *       Calling rand before any call to srand generates the same 
....................  *       sequence as calling srand with seed passed as 1. 
....................  *          Usually, you need to pass a time here from outer source 
....................  *       so that the numbers will be different every time you run. 
....................  */ 
.................... void srand(unsigned int32 seed); 
....................  
.................... //--------------------------------------------------------------------------- 
.................... // Memory management functions 
.................... //--------------------------------------------------------------------------- 
....................  
.................... // Comming soon 
....................  
.................... //--------------------------------------------------------------------------- 
.................... // Communication with the environment 
.................... //--------------------------------------------------------------------------- 
....................  
.................... /* The function returns 0 always 
....................  */ 
.................... signed int8 system(char *string); 
....................  
.................... //--------------------------------------------------------------------------- 
.................... // Searching and sorting utilities 
.................... //--------------------------------------------------------------------------- 
....................  
.................... /* Performs a binary search of a sorted array.. 
....................  * 
....................  * Parameters: 
....................  *       [in] key: Object to search for 
....................  *       [in] base: Pointer to base of search data 
....................  *       [in] num: Number of elements 
....................  *       [in] width: Width of elements 
....................  *       [in] compare: Function that compares two elements 
....................  * 
....................  * Returns: 
....................  *       bsearch returns a pointer to an occurrence of key in the array pointed 
....................  *       to by base. If key is not found, the function returns NULL. If the 
....................  *       array is not in order or contains duplicate records with identical keys, 
....................  *       the result is unpredictable. 
....................  */ 
.................... //void *bsearch(const void *key, const void *base, size_t num, size_t width, 
.................... //              int (*compare)(const void *, const void *)); 
....................  
.................... /* Performs the shell-metzner sort (not the quick sort algorithm). The contents 
....................  * of the array are sorted into ascending order according to a comparison 
....................  * function pointed to by compar. 
....................  * 
....................  * Parameters: 
....................  *       [in] base: Pointer to base of search data 
....................  *       [in] num: Number of elements 
....................  *       [in] width: Width of elements 
....................  *       [in] compare: Function that compares two elements 
....................  * 
....................  * Returns: 
....................  *       (none) 
....................  */ 
.................... //void *qsort(const void *base, size_t num, size_t width, 
.................... //              int (*compare)(const void *, const void *)); 
....................  
.................... //--------------------------------------------------------------------------- 
.................... // Integer arithmetic functions 
.................... //--------------------------------------------------------------------------- 
....................  
.................... #define labs abs 
....................  
.................... div_t div(signed int numer, signed int denom); 
.................... ldiv_t ldiv(signed long numer, signed long denom); 
....................  
.................... //--------------------------------------------------------------------------- 
.................... // Multibyte character functions 
.................... //--------------------------------------------------------------------------- 
....................  
.................... // Not supported 
....................  
.................... //--------------------------------------------------------------------------- 
.................... // Multibyte string functions 
.................... //--------------------------------------------------------------------------- 
....................  
.................... // Not supported 
....................  
....................  
.................... //--------------------------------------------------------------------------- 
.................... // Internal implementation 
.................... //--------------------------------------------------------------------------- 
....................  
.................... #include <stddef.h> 
.................... /////////////////////////////////////////////////////////////////////////// 
.................... ////        (C) Copyright 1996,2003 Custom Computer Services           //// 
.................... //// This source code may only be used by licensed users of the CCS C  //// 
.................... //// compiler.  This source code may only be distributed to other      //// 
.................... //// licensed users of the CCS C compiler.  No other use, reproduction //// 
.................... //// or distribution is permitted without written permission.          //// 
.................... //// Derivative programs created using this software in object code    //// 
.................... //// form are not restricted in any way.                               //// 
.................... /////////////////////////////////////////////////////////////////////////// 
....................  
.................... #ifndef _STDDEF 
....................  
.................... #define _STDDEF 
....................  
.................... #if sizeof(unsigned int8 *)==1 
.................... #define ptrdiff_t unsigned int8 
.................... #else 
.................... #define ptrdiff_t unsigned int16 
.................... #endif 
....................  
.................... #define size_t unsigned int8 
.................... #define wchar_t char 
.................... #define NULL 0 
....................  
.................... #define offsetof(s,f) (offsetofbit(s,f)/8) 
....................  
.................... #endif 
....................  
.................... #include <string.h> 
.................... //////////////////////////////////////////////////////////////////////////// 
.................... ////        (C) Copyright 1996,2008 Custom Computer Services            //// 
.................... //// This source code may only be used by licensed users of the CCS C   //// 
.................... //// compiler.  This source code may only be distributed to other       //// 
.................... //// licensed users of the CCS C compiler.  No other use, reproduction  //// 
.................... //// or distribution is permitted without written permission.           //// 
.................... //// Derivative programs created using this software in object code     //// 
.................... //// form are not restricted in any way.                                //// 
.................... //////////////////////////////////////////////////////////////////////////// 
....................  
.................... #ifndef _STRING 
.................... #define _STRING 
.................... #include <stddef.h> 
.................... #include <ctype.h> 
....................  
....................  
....................  
.................... ////////////////////////////////////////////// 
.................... //// Uncomment the following define to    //// 
.................... //// allow some functions to use a        //// 
.................... //// quicker algorithm, but use more ROM  //// 
.................... ////                                      //// 
.................... //// #define FASTER_BUT_MORE_ROM          //// 
.................... ////////////////////////////////////////////// 
....................  
....................  
....................  
.................... /*Copying functions*/ 
.................... /* standard template: 
....................    void *memmove(void *s1, void *s2, size_t n). 
....................    Copies max of n characters safely (not following ending '\0') 
....................    from s2 in s1; if s2 has less than n characters, appends 0 */ 
....................  
.................... char *memmove(void *s1,char *s2,size_t n) 
.................... { 
....................    char *sc1; 
....................    char *sc2; 
....................    sc1=s1; 
....................    sc2=s2; 
....................    if(sc2<sc1 && sc1 <sc2 +n) 
....................       for(sc1+=n,sc2+=n;0<n;--n) 
....................          *--sc1=*--sc2; 
....................    else 
....................       for(;0<n;--n) 
....................          *sc1++=*sc2++; 
....................   return s1; 
....................   } 
....................  
.................... /* Standard template: char *strcpy(char *s1, const char *s2) 
....................    copies the string s2 including the null character to s1. 
....................    This is a compiler built in to handle the different address 
....................    spaces */ 
....................  
.................... #define strcopy strcpy 
....................  
.................... /* standard template: 
....................    char *strncpy(char *s1, const char *s2, size_t n). 
....................    Copies max of n characters (not following ending '\0') 
....................    from s2 in s1; if s2 has less than n characters, appends 0 */ 
....................  
.................... char *strncpy(char *s1, char *s2, size_t n) 
.................... { 
....................   char *s; 
....................  
....................   for (s = s1; n > 0 && *s2 != '\0'; n--) 
....................      *s++ = *s2++; 
....................   for (; n > 0; n--) 
....................      *s++ = '\0'; 
....................  
....................   return(s1); 
.................... } 
.................... /***********************************************************/ 
....................  
.................... /*concatenation functions*/ 
.................... /* standard template: char *strcat(char *s1, const char *s2) 
.................... appends s2 to s1*/ 
....................  
.................... char *strcat(char *s1, char *s2) 
.................... { 
....................    char *s; 
....................  
....................    for (s = s1; *s != '\0'; ++s); 
....................    while(*s2 != '\0') 
....................    { 
....................       *s = *s2; 
....................       ++s; 
....................       ++s2; 
....................    } 
....................  
....................    *s = '\0'; 
....................    return(s1); 
.................... } 
.................... /* standard template: char *strncat(char *s1, char *s2,size_t n) 
.................... appends not more than n characters from s2 to s1*/ 
....................  
.................... char *strncat(char *s1, char *s2, size_t n) 
.................... { 
....................    char *s; 
....................  
....................    for (s = s1; *s != '\0'; ++s); 
....................    while(*s2 != '\0' && 0<n) 
....................    { 
....................       *s = *s2; 
....................       ++s; 
....................       ++s2; 
....................       --n; 
....................    } 
....................  
....................    *s = '\0'; 
....................    return(s1); 
.................... } 
....................  
.................... /***********************************************************/ 
....................  
....................  
.................... /*comparison functions*/ 
.................... /* standard template: signed int memcmp(void *s1, void *s2). 
....................    Compares s1 & s2; returns -1 if s1<s2, 0 if s1=s2, 1 if s1>s2 */ 
....................  
.................... signed int8 memcmp(void * s1,char *s2,size_t n) 
.................... { 
.................... char *su1, *su2; 
.................... for(su1=s1, su2=s2; 0<n; ++su1, ++su2, --n) 
.................... { 
....................    if(*su1!=*su2) 
....................       return ((*su1<*su2)?-1:+1); 
.................... } 
.................... return 0; 
.................... } 
....................  
.................... /* standard template: int strcmp(const char *s1, const char *s2). 
....................    Compares s1 & s2; returns -1 if s1<s2, 0 if s1=s2, 1 if s1>s2 */ 
....................  
.................... signed int8 strcmp(char *s1, char *s2) 
.................... { 
....................    for (; *s1 == *s2; s1++, s2++) 
....................       if (*s1 == '\0') 
....................          return(0); 
....................    return((*s1 < *s2) ? -1: 1); 
.................... } 
.................... /* standard template: int strcoll(const char *s1, const char *s2). 
....................    Compares s1 & s2; returns -1 if s1<s2, 0 if s1=s2, 1 if s1>s2 */ 
....................  
.................... signed int8 strcoll(char *s1, char *s2) 
.................... { 
....................    for (; *s1 == *s2; s1++, s2++) 
....................       if (*s1 == '\0') 
....................          return(0); 
....................    return((*s1 < *s2) ? -1: 1); 
.................... } 
....................  
.................... /* standard template: 
....................    int strncmp(const char *s1, const char *s2, size_t n). 
....................    Compares max of n characters (not following 0) from s1 to s2; 
....................    returns same as strcmp */ 
....................  
.................... signed int8 strncmp(char *s1, char *s2, size_t n) 
.................... { 
....................    for (; n > 0; s1++, s2++, n--) 
....................       if (*s1 != *s2) 
....................          return((*s1 <*s2) ? -1: 1); 
....................       else if (*s1 == '\0') 
....................          return(0); 
....................    return(0); 
.................... } 
.................... /* standard template: 
....................    int strxfrm(const char *s1, const char *s2, size_t n). 
....................    transforms maximum of n characters from s2 and places them into s1*/ 
.................... size_t strxfrm(char *s1, char *s2, size_t n) 
.................... { 
....................   char *s; 
....................   unsigned int8 n1; 
....................   n1=n; 
....................   for (s = s1; n > 0 && *s2 != '\0'; n--) 
....................      *s++ = *s2++; 
....................   for (; n > 0; n--) 
....................      *s++ = '\0'; 
....................  
....................   return(n1); 
.................... } 
....................  
....................  
....................  
....................  
....................  
.................... /***********************************************************/ 
.................... /*Search functions*/ 
.................... /* standard template: void *memchr(const char *s, int c). 
....................    Finds first occurrence of c in n characters of s */ 
....................  
.................... char *memchr(void *s,unsigned int8 c,size_t n) 
.................... { 
....................    char uc; 
....................    char *su; 
....................    uc=c; 
....................    for(su=s;0<n;++su,--n) 
....................       if(*su==uc) 
....................       return su; 
....................    return NULL; 
.................... } 
....................  
.................... /* standard template: char *strchr(const char *s, int c). 
....................    Finds first occurrence of c in s */ 
....................  
.................... char *strchr(char *s, unsigned int8 c) 
.................... { 
....................    for (; *s != c; s++) 
....................       if (*s == '\0') 
....................          return(0); 
....................    return(s); 
.................... } 
.................... /* standard template: 
....................    size_t strcspn(const char *s1, const char *s2). 
....................    Computes length of max initial segment of s1 that 
....................    consists entirely of characters NOT from s2*/ 
....................  
.................... unsigned int8  strcspn(char *s1, char *s2) 
.................... { 
....................    char *sc1, *sc2; 
....................  
....................    for (sc1 = s1; *sc1 != 0; sc1++) 
....................       for (sc2 = s2; *sc2 != 0; sc2++) 
....................          if (*sc1 == *sc2) 
....................             return(sc1 - s1); 
....................    return(sc1 - s1); 
.................... } 
.................... /* standard template: 
....................    char *strpbrk(const char *s1, const char *s2). 
....................    Locates first occurence of any character from s2 in s1; 
....................    returns s1 if s2 is empty string */ 
....................  
.................... char *strpbrk(char *s1, char *s2) 
.................... { 
....................    char *sc1, *sc2; 
....................  
....................    for (sc1 = s1; *sc1 != 0; sc1++) 
....................       for (sc2 = s2; *sc2 != 0; sc2++) 
....................          if (*sc1 == *sc2) 
....................             return(sc1); 
....................    return(0); 
.................... } 
....................  
....................  
.................... /* standard template: char *strrchr(const char *s, int c). 
....................    Finds last occurrence of c in s */ 
....................  
.................... char *strrchr(char *s, unsigned int8 c) 
.................... { 
....................    char *p; 
....................  
....................    for (p = 0; ; s++) 
....................    { 
....................       if (*s == c) 
....................          p = s; 
....................       if (*s == '\0') 
....................          return(p); 
....................    } 
.................... } 
.................... /* computes length of max initial segment of s1 consisting 
....................    entirely of characters from s2 */ 
....................  
.................... unsigned int8  strspn(char *s1, char *s2) 
.................... { 
....................    char *sc1, *sc2; 
....................  
....................    for (sc1 = s1; *sc1 != 0; sc1++) 
....................       for (sc2 = s2; ; sc2++) 
....................     if (*sc2 == '\0') 
....................        return(sc1 - s1); 
....................          else if (*sc1 == *sc2) 
....................             break; 
....................    return(sc1 - s1); 
.................... } 
.................... /* standard template: 
....................    char *strstr(const char *s1, const char *s2); 
....................    Locates first occurence of character sequence s2 in s1; 
....................    returns 0 if s2 is empty string 
....................  
....................    Uncomment #define FASTER_BUT_MORE_ROM at the top of the 
....................    file to use the faster algorithm */ 
.................... char *strstr(char *s1, char *s2) 
.................... { 
....................    char *s, *t; 
....................  
....................    #ifdef FASTER_BUT_MORE_ROM 
....................    if (*s2 == '\0') 
....................          return(s1); 
....................    #endif 
....................  
....................    while (*s1) 
....................    { 
....................       for(s = s1, t = s2; *t && (*s == *t); ++s, ++t); 
....................  
....................       if (*t == '\0') 
....................          return s1; 
....................       ++s1; 
....................       #ifdef FASTER_BUT_MORE_ROM 
....................          while(*s1 != '\0' && *s1 != *s2) 
....................             ++s1; 
....................       #endif 
....................    } 
....................    return 0; 
.................... } 
....................  
.................... /* standard template: char *strtok(char *s1, const char *s2). 
....................  
....................    Finds next token in s1 delimited by a character from separator 
....................    string s2 (which can be different from call to call).  First call 
....................    starts at beginning of s1 searching for first character NOT 
....................    contained in s2; returns 0 if none is found. 
....................    If one is found, it is the start of first token (return value). 
....................    Function then searches from there for a character contained in s2. 
....................    If none is found, current token extends to end of s1, and subsequent 
....................    searches for a token will return 0.  If one is found, it is 
....................    overwritten by '\0', which terminates current token.  Function saves 
....................    pointer to following character from which next search will start. 
....................    Each subsequent call, with 0 as first argument, starts searching 
....................    from saved pointer */ 
....................  
.................... char *strtok(char *s1, char *s2) 
.................... { 
....................    char *beg, *end; 
....................    static char *save; 
....................  
....................    beg = (s1)? s1: save; 
....................    beg += strspn(beg, s2); 
....................    if (*beg == '\0') 
....................    { 
....................       *save = ' '; 
....................       return(0); 
....................    } 
....................    end = strpbrk(beg, s2); 
....................    if (*end != '\0') 
....................    { 
....................       *end = '\0'; 
....................       end++; 
....................    } 
....................    save = end; 
....................    return(beg); 
.................... } 
....................  
.................... /*****************************************************************/ 
.................... /*Miscellaneous functions*/ 
.................... /* standard template 
.................... maps error number in errnum to an error message string 
.................... Returns: Pointer to string 
.................... */ 
.................... #ifdef _ERRNO 
.................... char * strerror(unsigned int8 errnum) 
.................... { 
.................... char s[15]; 
.................... switch( errnum) 
.................... { 
.................... case 0: 
....................    strcpy(s,"no errors"); 
....................    return s; 
.................... case EDOM : 
....................    strcpy(s,"domain error"); 
....................    return s; 
.................... case ERANGE: 
....................    strcpy(s,"range error"); 
....................    return s; 
.................... } 
.................... } 
.................... #ENDIF 
.................... /* standard template: size_t strlen(const char *s). 
....................    Computes length of s1 (preceding terminating 0) */ 
....................  
.................... unsigned int8 strlen(char *s) 
.................... { 
....................    char *sc; 
....................  
....................    for (sc = s; *sc != 0; sc++); 
....................    return(sc - s); 
.................... } 
....................  
.................... /* standard template: size_t stricmp(const char *s1, const char *s2). 
....................    Compares s1 to s2 ignoring case (upper vs. lower) */ 
....................  
.................... signed int8 stricmp(char *s1, char *s2) 
.................... { 
....................  for(; *s1==*s2||(isalpha(*s1)&&isalpha(*s2)&&(*s1==*s2+32||*s2==*s1+32)); 
....................     s1++, s2++) 
....................     if (*s1 == '\0') 
....................        return(0); 
....................  return((*s1 < *s2) ? -1: 1); 
.................... } 
....................  
....................  
.................... /* standard template: char *strlwr(char *s). 
....................    Replaces uppercase letters by lowercase; 
....................    returns pointer to new string s */ 
....................  
.................... char *strlwr(char *s) 
.................... { 
....................    char *p; 
....................  
....................    for (p = s; *p != '\0'; p++) 
....................       if (*p >= 'A' && *p <='Z') 
....................          *p += 'a' - 'A'; 
....................    return(s); 
.................... } 
....................  
....................  
.................... /************************************************************/ 
....................  
....................  
.................... #endif 
....................  
....................  
.................... div_t div(signed int numer, signed int denom) 
.................... { 
....................    div_t val; 
....................    val.quot = numer / denom; 
....................    val.rem = numer - (denom * val.quot); 
....................    return (val); 
.................... } 
....................  
.................... ldiv_t ldiv(signed long numer, signed long denom) 
.................... { 
....................    ldiv_t val; 
....................  
....................    val.quot = numer / denom; 
....................    val.rem = numer - (denom * val.quot); 
....................    return (val); 
.................... } 
....................  
.................... #if defined(__PCD__) 
.................... float32 atoe(char * s) 
.................... { 
....................    float32 pow10 = 1.0; 
....................    float32 result = 0.0; 
....................    unsigned int8 sign = 0; 
....................    unsigned int8 expsign = 0; 
....................    char c; 
....................    unsigned int8 ptr = 0; 
....................    unsigned int8 i; 
....................    float32 exp = 1.0; 
....................    unsigned int8 expcnt = 0; 
....................  
....................    c = s[ptr++]; 
....................  
....................    if ((c>='0' && c<='9') || c=='+' || c=='-' || c=='.' || c=='E' || c=='e') { 
....................       if(c == '-') { 
....................          sign = 1; 
....................          c = s[ptr++]; 
....................       } 
....................       if(c == '+') 
....................          c = s[ptr++]; 
....................  
....................       while((c >= '0' && c <= '9')) { 
....................          result = 10*result + c - '0'; 
....................          c = s[ptr++]; 
....................       } 
....................  
....................       if (c == '.') { 
....................          c = s[ptr++]; 
....................          while((c >= '0' && c <= '9')) { 
....................              pow10 = pow10*10; 
....................              result += (c - '0')/pow10; 
....................              c = s[ptr++]; 
....................          } 
....................       } 
....................  
....................       // Handling the exponent 
....................       if (c=='e' || c=='E') { 
....................          c = s[ptr++]; 
....................  
....................          if(c == '-') { 
....................             expsign = 1; 
....................             c = s[ptr++]; 
....................          } 
....................          if(c == '+') 
....................             c = s[ptr++]; 
....................  
....................          while((c >= '0' && c <= '9')) { 
....................             expcnt = 10*expcnt + c - '0'; 
....................             c = s[ptr++]; 
....................          } 
....................  
....................          for(i=0;i<expcnt;i++) 
....................             exp*=10; 
....................  
....................          if(expsign==1) 
....................             result/=exp; 
....................          else 
....................             result*=exp; 
....................       } 
....................    } 
....................  
....................    if (sign == 1) 
....................       result = -1*result; 
....................    return(result); 
.................... } 
.................... #endif 
....................  
.................... #if !defined(__PCD__) 
.................... float atoe(char * s) 
.................... { 
....................    float pow10 = 1.0; 
....................    float result = 0.0; 
....................    unsigned int8 sign = 0; 
....................    unsigned int8 expsign = 0; 
....................    char c; 
....................    unsigned int8 ptr = 0; 
....................    unsigned int8 i; 
....................    float exp = 1.0; 
....................    unsigned int8 expcnt = 0; 
....................  
....................    c = s[ptr++]; 
....................  
....................    if ((c>='0' && c<='9') || c=='+' || c=='-' || c=='.' || c=='E' || c=='e') { 
....................       if(c == '-') { 
....................          sign = 1; 
....................          c = s[ptr++]; 
....................       } 
....................       if(c == '+') 
....................          c = s[ptr++]; 
....................  
....................       while((c >= '0' && c <= '9')) { 
....................          result = 10*result + c - '0'; 
....................          c = s[ptr++]; 
....................       } 
....................  
....................       if (c == '.') { 
....................          c = s[ptr++]; 
....................          while((c >= '0' && c <= '9')) { 
....................              pow10 = pow10*10; 
....................              result += (c - '0')/pow10; 
....................              c = s[ptr++]; 
....................          } 
....................       } 
....................  
....................       // Handling the exponent 
....................       if (c=='e' || c=='E') { 
....................          c = s[ptr++]; 
....................  
....................          if(c == '-') { 
....................             expsign = 1; 
....................             c = s[ptr++]; 
....................          } 
....................          if(c == '+') 
....................             c = s[ptr++]; 
....................  
....................          while((c >= '0' && c <= '9')) { 
....................             expcnt = 10*expcnt + c - '0'; 
....................             c = s[ptr++]; 
....................          } 
....................  
....................          for(i=0;i<expcnt;i++) 
....................             exp*=10; 
....................  
....................          if(expsign==1) 
....................             result/=exp; 
....................          else 
....................             result*=exp; 
....................       } 
....................    } 
....................  
....................    if (sign == 1) 
....................       result = -1*result; 
....................    return(result); 
.................... } 
.................... #endif 
....................  
.................... signed int atoi(char *s) 
.................... { 
....................    signed int result; 
....................    unsigned int sign, base, index; 
....................    char c; 
....................  
....................    index = 0; 
....................    sign = 0; 
....................    base = 10; 
....................    result = 0; 
....................  
....................    if (!s) 
....................       return 0; 
....................    // Omit all preceeding alpha characters 
....................    c = s[index++]; 
....................  
....................    // increase index if either positive or negative sign is detected 
....................    if (c == '-') 
....................    { 
....................       sign = 1;         // Set the sign to negative 
....................       c = s[index++]; 
....................    } 
....................    else if (c == '+') 
....................    { 
....................       c = s[index++]; 
....................    } 
....................  
....................    if (c >= '0' && c <= '9') 
....................    { 
....................  
....................       // Check for hexa number 
....................       if (c == '0' && (s[index] == 'x' || s[index] == 'X')) 
....................       { 
....................          base = 16; 
....................          index++; 
....................          c = s[index++]; 
....................       } 
....................  
....................       // The number is a decimal number 
....................       if (base == 10) 
....................       { 
....................          while (c >= '0' && c <= '9') 
....................          { 
....................             result = 10*result + (c - '0'); 
....................             c = s[index++]; 
....................          } 
....................       } 
....................       else if (base == 16)    // The number is a hexa number 
....................       { 
....................          c = toupper(c); 
....................          while ( (c >= '0' && c <= '9') || (c >= 'A' && c<='F')) 
....................          { 
....................             if (c >= '0' && c <= '9') 
....................                result = (result << 4) + (c - '0'); 
....................             else 
....................                result = (result << 4) + (c - 'A' + 10); 
....................  
....................             c = s[index++]; 
....................             c = toupper(c); 
....................          } 
....................       } 
....................    } 
....................  
....................    if (sign == 1 && base == 10) 
....................        result = -result; 
....................  
....................    return(result); 
.................... } 
....................  
.................... signed long atol(char *s) 
.................... { 
....................    signed long result; 
....................    unsigned int sign, base, index; 
....................    char c; 
....................  
....................    index = 0; 
....................    sign = 0; 
....................    base = 10; 
....................    result = 0; 
....................  
....................    if (!s) 
....................       return 0; 
....................    c = s[index++]; 
....................  
....................    // increase index if either positive or negative sign is detected 
....................    if (c == '-') 
....................    { 
....................       sign = 1;         // Set the sign to negative 
....................       c = s[index++]; 
....................    } 
....................    else if (c == '+') 
....................    { 
....................       c = s[index++]; 
....................    } 
....................  
....................    if (c >= '0' && c <= '9') 
....................    { 
....................       if (c == '0' && (s[index] == 'x' || s[index] == 'X')) 
....................       { 
....................          base = 16; 
....................          index++; 
....................          c = s[index++]; 
....................       } 
....................  
....................       // The number is a decimal number 
....................       if (base == 10) 
....................       { 
....................          while (c >= '0' && c <= '9') 
....................          { 
....................             result = 10*result + (c - '0'); 
....................             c = s[index++]; 
....................          } 
....................       } 
....................       else if (base == 16)    // The number is a hexa number 
....................       { 
....................          c = toupper(c); 
....................          while ( (c >= '0' && c <= '9') || (c >= 'A' && c <='F')) 
....................          { 
....................             if (c >= '0' && c <= '9') 
....................                result = (result << 4) + (c - '0'); 
....................             else 
....................                result = (result << 4) + (c - 'A' + 10); 
....................  
....................             c = s[index++];c = toupper(c); 
....................          } 
....................       } 
....................    } 
....................  
....................    if (base == 10 && sign == 1) 
....................       result = -result; 
....................  
....................    return(result); 
.................... } 
....................  
.................... /* A fast routine to multiply by 10 
....................  */ 
.................... signed int32 mult_with10(int32 num) 
.................... { 
....................    return ( (num << 1) + (num << 3) ); 
.................... } 
....................  
.................... #if sizeof(long)==2 
.................... signed int32 atoi32(char *s) 
.................... { 
....................    signed int32 result; 
....................    int8 sign, base, index; 
....................    char c; 
....................  
....................    index = 0; 
....................    sign = 0; 
....................    base = 10; 
....................    result = 0; 
....................  
....................    if (!s) 
....................       return 0; 
....................    c = s[index++]; 
....................  
....................    // increase index if either positive or negative sign is detected 
....................    if (c == '-') 
....................    { 
....................       sign = 1;         // Set the sign to negative 
....................       c = s[index++]; 
....................    } 
....................    else if (c == '+') 
....................    { 
....................       c = s[index++]; 
....................    } 
....................  
....................    if (c >= '0' && c <= '9') 
....................    { 
....................       if (c == '0' && (s[index] == 'x' || s[index] == 'X')) 
....................       { 
....................          base = 16; 
....................          index++; 
....................          c = s[index++]; 
....................       } 
....................  
....................       // The number is a decimal number 
....................       if (base == 10) 
....................       { 
....................          while (c >= '0' && c <= '9') { 
....................             result = (result << 1) + (result << 3);  // result *= 10; 
....................             result += (c - '0'); 
....................             c = s[index++]; 
....................          } 
....................       } 
....................       else if (base == 16)    // The number is a hexa number 
....................       { 
....................          c = toupper(c); 
....................          while ((c >= '0' && c <= '9') || (c >= 'A' && c <='F')) 
....................          { 
....................             if (c >= '0' && c <= '9') 
....................                result = (result << 4) + (c - '0'); 
....................             else 
....................                result = (result << 4) + (c - 'A' + 10); 
....................  
....................             c = s[index++];c = toupper(c); 
....................          } 
....................       } 
....................    } 
....................  
....................    if (base == 10 && sign == 1) 
....................       result = -result; 
....................  
....................    return(result); 
.................... } 
.................... #endif 
....................  
.................... #if defined(__PCD__) 
....................  
.................... signed int48 atoi48(char *s) 
.................... { 
....................    signed int48 result; 
....................    int8 sign, base, index; 
....................    char c; 
....................  
....................    index = 0; 
....................    sign = 0; 
....................    base = 10; 
....................    result = 0; 
....................  
....................    if (!s) 
....................       return 0; 
....................    c = s[index++]; 
....................  
....................    // increase index if either positive or negative sign is detected 
....................    if (c == '-') 
....................    { 
....................       sign = 1;         // Set the sign to negative 
....................       c = s[index++]; 
....................    } 
....................    else if (c == '+') 
....................    { 
....................       c = s[index++]; 
....................    } 
....................  
....................    if (c >= '0' && c <= '9') 
....................    { 
....................       if (c == '0' && (s[index] == 'x' || s[index] == 'X')) 
....................       { 
....................          base = 16; 
....................          index++; 
....................          c = s[index++]; 
....................       } 
....................  
....................       // The number is a decimal number 
....................       if (base == 10) 
....................       { 
....................          while (c >= '0' && c <= '9') { 
....................             result = (result << 1) + (result << 3);  // result *= 10; 
....................             result += (c - '0'); 
....................             c = s[index++]; 
....................          } 
....................       } 
....................       else if (base == 16)    // The number is a hexa number 
....................       { 
....................          c = toupper(c); 
....................          while ((c >= '0' && c <= '9') || (c >= 'A' && c <='F')) 
....................          { 
....................             if (c >= '0' && c <= '9') 
....................                result = (result << 4) + (c - '0'); 
....................             else 
....................                result = (result << 4) + (c - 'A' + 10); 
....................  
....................             c = s[index++];c = toupper(c); 
....................          } 
....................       } 
....................    } 
....................  
....................    if (base == 10 && sign == 1) 
....................       result = -result; 
....................  
....................    return(result); 
.................... } 
....................  
.................... signed int64 atoi64(char *s) 
.................... { 
....................    signed int64 result; 
....................    int8 sign, base, index; 
....................    char c; 
....................  
....................    index = 0; 
....................    sign = 0; 
....................    base = 10; 
....................    result = 0; 
....................  
....................    if (!s) 
....................       return 0; 
....................    c = s[index++]; 
....................  
....................    // increase index if either positive or negative sign is detected 
....................    if (c == '-') 
....................    { 
....................       sign = 1;         // Set the sign to negative 
....................       c = s[index++]; 
....................    } 
....................    else if (c == '+') 
....................    { 
....................       c = s[index++]; 
....................    } 
....................  
....................    if (c >= '0' && c <= '9') 
....................    { 
....................       if (c == '0' && (s[index] == 'x' || s[index] == 'X')) 
....................       { 
....................          base = 16; 
....................          index++; 
....................          c = s[index++]; 
....................       } 
....................  
....................       // The number is a decimal number 
....................       if (base == 10) 
....................       { 
....................          while (c >= '0' && c <= '9') { 
....................             result = (result << 1) + (result << 3);  // result *= 10; 
....................             result += (c - '0'); 
....................             c = s[index++]; 
....................          } 
....................       } 
....................       else if (base == 16)    // The number is a hexa number 
....................       { 
....................          c = toupper(c); 
....................          while ((c >= '0' && c <= '9') || (c >= 'A' && c <='F')) 
....................          { 
....................             if (c >= '0' && c <= '9') 
....................                result = (result << 4) + (c - '0'); 
....................             else 
....................                result = (result << 4) + (c - 'A' + 10); 
....................  
....................             c = s[index++];c = toupper(c); 
....................          } 
....................       } 
....................    } 
....................  
....................    if (base == 10 && sign == 1) 
....................       result = -result; 
....................  
....................    return(result); 
.................... } 
.................... #endif 
....................  
.................... char * itoa(signed int32 num, unsigned int base, char * s) 
.................... { 
....................      unsigned int32 temp=1; 
....................      unsigned int8 i,sign=0,cnt=0; 
....................      char c; 
....................  
....................      if(num<0) { 
....................          sign=1;        // Check for negative number 
....................          num*=-1; 
....................      } 
....................  
....................      while(temp>0) { 
....................          temp=(num/base); 
....................          s[cnt]=(num%base)+'0';    // Conversion 
....................  
....................          if(s[cnt]>0x39) 
....................             s[cnt]+=0x7; 
....................  
....................          cnt++; 
....................          num=temp; 
....................      } 
....................  
....................      if(sign==1) { 
....................          s[cnt]=0x2D;      // Negative sign 
....................          cnt++; 
....................      } 
....................  
....................      for(i = 0;i<(int8)(cnt/2);i++) { 
....................  
....................          c=s[i]; 
....................          s[i]=s[cnt-i-1];        // Reverse the number 
....................          s[cnt-i-1]=c; 
....................      } 
....................      s[cnt]='\0';     // End the string 
....................      return s; 
.................... } 
....................  
.................... float strtof(char *s, char *endptr) 
.................... { 
....................    float pow10 = 1.0; 
....................    float result = 0.0; 
....................    int1 skip = 1, sign = 0, point = 0; 
....................    char c; 
....................    unsigned int8 ptr = 0; 
....................  
....................    if (!s) 
....................       return 0; 
....................  
....................    for(c=s[ptr++]; c!=0; c=s[ptr++]) 
....................    { 
....................       if (skip && !isspace(c)) 
....................       { 
....................          skip = 0; 
....................          if (c == '+') 
....................          { 
....................             sign = 0; 
....................             continue; 
....................          }             
....................          else if (c == '-') 
....................          { 
....................             sign = 1; 
....................             continue; 
....................          } 
....................       } 
....................       if (!skip && (c == '.') && !point) 
....................          point = 1; 
....................       else if (!skip && isdigit(c)) 
....................       { 
....................          c -= '0'; 
....................          if (point) 
....................          { 
....................             pow10 = pow10 * 10.0; 
....................             result += (float)c / pow10;    
....................          } 
....................          else 
....................          { 
....................             result = 10.0 * result + (float)c; 
....................          } 
....................       } 
....................       else if (!skip) 
....................          break; 
....................    } 
....................  
....................    if (sign) 
....................       result = -1*result; 
....................        
....................    if(endptr) 
....................    { 
....................       if (ptr) { 
....................          ptr--; 
....................        #IF LONG_POINTERS  
....................          *((long *)endptr)= s+ptr;  
....................        #ELSE 
....................          *((char *)endptr)=s+ptr; 
....................        #ENDIF 
....................       } 
....................       else 
....................       { 
....................       #IF LONG_POINTERS 
....................       *((long *)endptr)= s;  
....................       #ELSE 
....................       *((char *)endptr)=s; 
....................       #ENDIF 
....................       } 
....................    } 
....................  
....................    return(result); 
.................... } 
....................  
.................... #if defined(__PCD__) 
.................... float48 strtof48(char *s, char *endptr) 
.................... { 
....................    float48 pow10 = 1.0; 
....................    float48 result = 0.0; 
....................    int1 skip = 1, sign = 0, point = 0; 
....................    char c; 
....................    unsigned int8 ptr = 0; 
....................  
....................    if (!s) 
....................       return 0; 
....................  
....................    for(c=s[ptr++]; c!=0; c=s[ptr++]) 
....................    { 
....................       if (skip && !isspace(c)) 
....................       { 
....................          skip = 0; 
....................          if (c == '+') 
....................          { 
....................             sign = 0; 
....................             continue; 
....................          }             
....................          else if (c == '-') 
....................          { 
....................             sign = 1; 
....................             continue; 
....................          } 
....................       } 
....................       if (!skip && (c == '.') && !point) 
....................          point = 1; 
....................       else if (!skip && isdigit(c)) 
....................       { 
....................          c -= '0'; 
....................          if (point) 
....................          { 
....................             pow10 = pow10 * 10.0; 
....................             result += (float48)c / pow10;    
....................          } 
....................          else 
....................          { 
....................             result = 10.0 * result + (float48)c; 
....................          } 
....................       } 
....................       else if (!skip) 
....................          break; 
....................    } 
....................  
....................    if (sign) 
....................       result = -1*result; 
....................        
....................    if(endptr) 
....................    { 
....................       if (ptr) { 
....................          ptr--; 
....................        #IF LONG_POINTERS  
....................          *((long *)endptr)= s+ptr;  
....................        #ELSE 
....................          *((char *)endptr)=s+ptr; 
....................        #ENDIF 
....................       } 
....................       else 
....................       { 
....................       #IF LONG_POINTERS 
....................       *((long *)endptr)= s;  
....................       #ELSE 
....................       *((char *)endptr)=s; 
....................       #ENDIF 
....................       } 
....................    } 
....................  
....................    return(result); 
.................... } 
....................  
.................... float64 strtod(char *s, char *endptr) 
.................... { 
....................    float64 pow10 = 1.0; 
....................    float64 result = 0.0; 
....................    int1 skip = 1, sign = 0, point = 0; 
....................    char c; 
....................    unsigned int8 ptr = 0; 
....................  
....................    if (!s) 
....................       return 0; 
....................  
....................    for(c=s[ptr++]; c!=0; c=s[ptr++]) 
....................    { 
....................       if (skip && !isspace(c)) 
....................       { 
....................          skip = 0; 
....................          if (c == '+') 
....................          { 
....................             sign = 0; 
....................             continue; 
....................          }             
....................          else if (c == '-') 
....................          { 
....................             sign = 1; 
....................             continue; 
....................          } 
....................       } 
....................       if (!skip && (c == '.') && !point) 
....................          point = 1; 
....................       else if (!skip && isdigit(c)) 
....................       { 
....................          c -= '0'; 
....................          if (point) 
....................          { 
....................             pow10 = pow10 * 10.0; 
....................             result += (float64)c / pow10;    
....................          } 
....................          else 
....................          { 
....................             result = 10.0 * result + (float64)c; 
....................          } 
....................       } 
....................       else if (!skip) 
....................          break; 
....................    } 
....................  
....................    if (sign) 
....................       result = -1*result; 
....................        
....................    if(endptr) 
....................    { 
....................       if (ptr) { 
....................          ptr--; 
....................        #IF LONG_POINTERS  
....................          *((long *)endptr)= s+ptr;  
....................        #ELSE 
....................          *((char *)endptr)=s+ptr; 
....................        #ENDIF 
....................       } 
....................       else 
....................       { 
....................       #IF LONG_POINTERS 
....................       *((long *)endptr)= s;  
....................       #ELSE 
....................       *((char *)endptr)=s; 
....................       #ENDIF 
....................       } 
....................    } 
....................  
....................    return(result); 
.................... } 
.................... #endif 
....................  
.................... unsigned long strtoul(char *s, char *endptr, signed int base) 
.................... { 
....................    char *sc,*s1,*sd; 
....................    unsigned long x=0; 
....................    char sign; 
....................    char digits[]="0123456789abcdefghijklmnopqstuvwxyz"; 
....................    for(sc=s;isspace(*sc);++sc); 
....................    sign=*sc=='-'||*sc=='+'?*sc++:'+'; 
....................    if(sign=='-' || base <0 || base ==1|| base >36) // invalid base 
....................    goto StrtoulGO; 
....................  
....................    else if (base) 
....................    { 
....................       if(base==16 && *sc =='0'&&(sc[1]=='x' || sc[1]=='X')) 
....................          sc+=2; 
....................       if(base==8 && *sc =='0') 
....................          sc+=1; 
....................       if(base==2 && *sc =='0'&&sc[1]=='b') 
....................          sc+=2; 
....................  
....................    } 
....................    else if(*sc!='0') // base is 0, find base 
....................       base=10; 
....................    else if (sc[1]=='x' || sc[1]=='X') 
....................       base =16,sc+=2; 
....................    else if(sc[1]=='b') 
....................       base=2,sc+=2; 
....................    else 
....................       base=8; 
....................    for (s1=sc;*sc=='0';++sc);// skip leading zeroes 
....................    sd=memchr(digits,tolower(*sc),base); 
....................    for(; sd!=0; ) 
....................    { 
....................       x=x*base+(int16)(sd-digits); 
....................       ++sc; 
....................       sd=memchr(digits,tolower(*sc),base); 
....................    } 
....................    if(s1==sc) 
....................    { 
....................    StrtoulGO: 
....................       if (endptr) 
....................       { 
....................          #IF LONG_POINTERS 
....................          *((long *)endptr)= s;  
....................          #ELSE 
....................          *((char *)endptr)=s; 
....................          #ENDIF 
....................          } 
....................    return 0; 
....................    } 
....................    if (endptr) 
....................    { 
....................          #IF LONG_POINTERS 
....................          *((long *)endptr)= sc;  
....................          #ELSE 
....................          *((char *)endptr)=sc;  
....................          #ENDIF 
....................    } 
....................    return x; 
.................... } 
....................  
....................  
.................... signed long strtol(char *s,char *endptr, signed int base) 
.................... { 
....................    char *sc,*s1,*sd; 
....................    signed long x=0; 
....................    char sign; 
....................    char digits[]="0123456789abcdefghijklmnopqstuvwxyz"; 
....................    for(sc=s;isspace(*sc);++sc); 
....................    sign=*sc=='-'||*sc=='+'?*sc++:'+'; 
....................    if (base <0 || base ==1|| base >36) // invalid base 
....................    goto StrtolGO; 
....................    else if (base) 
....................    { 
....................       if(base==16 && *sc =='0'&&(sc[1]=='x' || sc[1]=='X')) 
....................          sc+=2; 
....................       if(base==8 && *sc =='0') 
....................          sc+=1; 
....................       if(base==2 && *sc =='0'&&sc[1]=='b') 
....................          sc+=2; 
....................  
....................    } 
....................    else if(*sc!='0') // base is 0, find base 
....................       base=10; 
....................    else if (sc[1]=='x' || sc[1]=='X') 
....................       base =16,sc+=2; 
....................    else if(sc[1]=='b') 
....................       base=2,sc+=2; 
....................    else 
....................       base=8; 
....................    for (s1=sc;*sc=='0';++sc);// skip leading zeroes 
....................  
....................    sd=memchr(digits,tolower(*sc),base); 
....................    for(;sd!=0;) 
....................    { 
....................       x=x*base+(int16)(sd-digits); 
....................       ++sc; 
....................       sd=memchr(digits,tolower(*sc),base); 
....................    } 
....................    if(s1==sc) 
....................    { 
....................    StrtolGO: 
....................       if (endptr) 
....................       { 
....................          #IF LONG_POINTERS 
....................          *((long *)endptr)= s;  
....................          #ELSE 
....................          *((char *)endptr)=s; 
....................          #ENDIF 
....................       } 
....................    return 0; 
....................    } 
....................    if(sign=='-') 
....................       x  =-x; 
....................    if (endptr) 
....................    { 
....................         #IF LONG_POINTERS 
....................          *((long *)endptr)= sc;  
....................         #ELSE 
....................         *((char *)endptr)=sc; 
....................         #ENDIF 
....................    } 
....................    return x; 
.................... } 
....................  
.................... signed int8 system(char *string) 
.................... { 
....................    return 0; 
.................... } 
....................  
.................... int8 mblen(char *s,size_t n) 
.................... { 
....................    return strlen(s); 
.................... } 
....................  
.................... int8 mbtowc(wchar_t *pwc,char *s,size_t n) 
.................... { 
....................    *pwc=*s; 
....................    return 1; 
.................... } 
....................  
.................... int8 wctomb(char *s,wchar_t wchar) 
.................... { 
....................    *s=wchar; 
....................    return 1; 
.................... } 
....................  
.................... size_t mbstowcs(wchar_t *pwcs,char *s,size_t n) 
.................... { 
....................    strncpy(pwcs,s,n); 
....................    return strlen(pwcs); 
.................... } 
....................  
.................... size_t wcstombs(char *s,wchar_t *pwcs,size_t n) 
.................... { 
....................    strncpy(s,pwcs,n); 
....................    return strlen(s); 
.................... } 
....................  
.................... //--------------------------------------------------------------------------- 
.................... // The random number implementation 
.................... //--------------------------------------------------------------------------- 
....................  
.................... unsigned int32 _Randseed; 
....................  
.................... unsigned int16 rand(void) 
.................... { 
....................    _Randseed = _Randseed * 1103515245 + 12345; 
....................    return ((unsigned int16)(_Randseed >> 16) % RAND_MAX); 
.................... } 
....................  
.................... void srand(unsigned int32 seed) 
.................... { 
....................    _Randseed = seed; 
.................... } 
....................  
.................... //--------------------------------------------------------------------------- 
.................... // Searching and sorting utilities implementation 
.................... //--------------------------------------------------------------------------- 
....................  
.................... #if !defined(__PCD__) 
.................... typedef signed int8 (*_Cmpfun)(char * p1,char * p2);  
.................... #else  
.................... typedef signed int16 (*_Cmpfun)(char * p1,char * p2);  
.................... #endif 
....................  
....................  
....................  
.................... void qsort(char * qdata, unsigned int qitems, unsigned int qsize, _Cmpfun cmp) { 
....................    unsigned int m,j,i,l; 
....................    int1 done; 
....................    unsigned int8 t[16]; 
....................  
....................    m = qitems/2; 
....................    while( m > 0 ) { 
....................      for(j=0; j<(qitems-m); ++j) { 
....................         i = j; 
....................         do 
....................         { 
....................            done=1; 
....................            l = i+m; 
....................            if( (*cmp)(qdata+i*qsize, qdata+l*qsize) > 0 ) { 
....................               memcpy(t, qdata+i*qsize, qsize); 
....................               memcpy(qdata+i*qsize, qdata+l*qsize, qsize); 
....................               memcpy(qdata+l*qsize, t, qsize); 
....................               if(m <= i) 
....................                 i -= m; 
....................                 done = 0; 
....................            } 
....................         } while(!done); 
....................      } 
....................      m = m/2; 
....................    } 
.................... } 
....................  
....................  
.................... char *bsearch(char *key, char *base, size_t num, size_t width,_Cmpfun cmp) 
.................... { 
....................    char *p, *q; 
....................    size_t n; 
....................    size_t pivot; 
....................    signed int val; 
....................  
....................    p = base; 
....................    n = num; 
....................  
....................    while (n > 0) 
....................    { 
....................       pivot = n >> 1; 
....................       q = p + width * pivot; 
....................  
....................       val = (*cmp)(key, q); 
....................  
....................       if (val < 0) 
....................          n = pivot; 
....................       else if (val == 0) 
....................          return ((char *)q); 
....................       else { 
....................          p = q + width; 
....................          n -= pivot + 1; 
....................       } 
....................    } 
....................  
....................    return NULL;      // There's no match 
.................... } 
....................  
....................  
.................... #endif 
....................  
.................... #include <DS1302.c> 
.................... ////////////////////////////////////////////////////////////////////////// 
.................... ////                               DS1302.C                           //// 
.................... ////                     Driver for Real Time Clock                   //// 
.................... ////                                                                  //// 
.................... ////  rtc_init()                                   Call after power up//// 
.................... ////                                                                  //// 
.................... ////  rtc_set_datetime(day,mth,year,dow,hour,min)  Set the date/time  //// 
.................... ////                                                                  //// 
.................... ////  rtc_get_date(day,mth,year,dow)               Get the date       //// 
.................... ////                                                                  //// 
.................... ////  rtc_get_time(hr,min,sec)                     Get the time       //// 
.................... ////                                                                  //// 
.................... ////  rtc_write_nvr(address,data)                  Write to NVR       //// 
.................... ////                                                                  //// 
.................... ////  data = rtc_read_nvr(address)                 Read from NVR      //// 
.................... ////                                                                  //// 
.................... ////  get_bcd(data)                              Convert data to BCD  //// 
.................... ////                                                                  //// 
.................... ////  rm_bcd(data)                               Convert data to int  //// 
.................... ////                                                                  //// 
.................... ////////////////////////////////////////////////////////////////////////// 
.................... ////        (C) Copyright 1996,2003 Custom Computer Services          //// 
.................... //// This source code may only be used by licensed users of the CCS C //// 
.................... //// compiler.  This source code may only be distributed to other     //// 
.................... //// licensed users of the CCS C compiler.  No other use, reproduction//// 
.................... //// or distribution is permitted without written permission.         //// 
.................... //// Derivative programs created using this software in object code   //// 
.................... //// form are not restricted in any way.                              //// 
.................... ////////////////////////////////////////////////////////////////////////// 
....................  
.................... //#ifndef RTC_SCLK 
....................  
.................... #define RTC_SCLK PIN_D1 
.................... #define RTC_IO   PIN_D2 
.................... #define RTC_RST  PIN_D3 
....................  
.................... //#endif 
....................  
.................... void write_ds1302_byte(BYTE cmd) { 
....................    BYTE i; 
....................  
....................    for(i=0;i<=7;++i) { 
*
02842:  MOVLB  3
02844:  CLRF   xD3
02846:  MOVF   xD3,W
02848:  SUBLW  07
0284A:  BNC   2866
....................       output_bit(RTC_IO, shift_right(&cmd,1,0) ); 
0284C:  BCF    FD8.0
0284E:  RRCF   xD2,F
02850:  BC    2856
02852:  BCF    F8C.2
02854:  BRA    2858
02856:  BSF    F8C.2
02858:  BCF    F95.2
....................       output_high(RTC_SCLK); 
0285A:  BCF    F95.1
0285C:  BSF    F8C.1
....................       output_low(RTC_SCLK); 
0285E:  BCF    F95.1
02860:  BCF    F8C.1
....................    } 
02862:  INCF   xD3,F
02864:  BRA    2846
.................... } 
02866:  MOVLB  0
02868:  RETLW  00
....................  
.................... void write_ds1302(BYTE cmd, BYTE data) { 
....................  
....................    output_high(RTC_RST); 
0286A:  BCF    F95.3
0286C:  BSF    F8C.3
....................    write_ds1302_byte(cmd); 
0286E:  MOVFF  3D0,3D2
02872:  RCALL  2842
....................    write_ds1302_byte(data); 
02874:  MOVFF  3D1,3D2
02878:  RCALL  2842
....................    output_low(RTC_RST); 
0287A:  BCF    F95.3
0287C:  BCF    F8C.3
.................... } 
0287E:  RETLW  00
....................  
.................... BYTE read_ds1302(BYTE cmd) { 
....................    BYTE i,data; 
....................  
....................    output_high(RTC_RST); 
02880:  BCF    F95.3
02882:  BSF    F8C.3
....................    write_ds1302_byte(cmd); 
02884:  MOVFF  3CD,3D2
02888:  RCALL  2842
....................     
....................    input(RTC_IO); 
0288A:  BSF    F95.2
....................    delay_us(10); 
0288C:  MOVLW  10
0288E:  MOVWF  00
02890:  DECFSZ 00,F
02892:  BRA    2890
02894:  NOP   
....................           
....................    for(i=0;i<=7;++i) { 
02896:  MOVLB  3
02898:  CLRF   xCE
0289A:  MOVF   xCE,W
0289C:  SUBLW  07
0289E:  BNC   28CA
....................       shift_right(&data,1,input(RTC_IO)); 
028A0:  BSF    F95.2
028A2:  BTFSC  F83.2
028A4:  BRA    28AA
028A6:  BCF    FD8.0
028A8:  BRA    28AC
028AA:  BSF    FD8.0
028AC:  RRCF   xCF,F
....................       output_high(RTC_SCLK); 
028AE:  BCF    F95.1
028B0:  BSF    F8C.1
....................       delay_us(20); 
028B2:  MOVLW  21
028B4:  MOVWF  00
028B6:  DECFSZ 00,F
028B8:  BRA    28B6
....................       output_low(RTC_SCLK); 
028BA:  BCF    F95.1
028BC:  BCF    F8C.1
....................       delay_us(20); 
028BE:  MOVLW  21
028C0:  MOVWF  00
028C2:  DECFSZ 00,F
028C4:  BRA    28C2
....................    } 
028C6:  INCF   xCE,F
028C8:  BRA    289A
....................    output_low(RTC_RST); 
028CA:  BCF    F95.3
028CC:  BCF    F8C.3
....................  
....................    return(data); 
028CE:  MOVFF  3CF,01
.................... } 
028D2:  MOVLB  0
028D4:  RETLW  00
....................  
.................... void rtc_init() { 
....................    BYTE x; 
....................    output_low(RTC_RST); 
028D6:  BCF    F95.3
028D8:  BCF    F8C.3
....................    delay_us(20); 
028DA:  MOVLW  21
028DC:  MOVWF  00
028DE:  DECFSZ 00,F
028E0:  BRA    28DE
....................    output_low(RTC_SCLK); 
028E2:  BCF    F95.1
028E4:  BCF    F8C.1
....................    write_ds1302(0x8e,0); 
028E6:  MOVLW  8E
028E8:  MOVLB  3
028EA:  MOVWF  xD0
028EC:  CLRF   xD1
028EE:  MOVLB  0
028F0:  RCALL  286A
....................    write_ds1302(0x90,0xa4); 
028F2:  MOVLW  90
028F4:  MOVLB  3
028F6:  MOVWF  xD0
028F8:  MOVLW  A4
028FA:  MOVWF  xD1
028FC:  MOVLB  0
028FE:  RCALL  286A
....................    x=read_ds1302(0x81); 
02900:  MOVLW  81
02902:  MOVLB  3
02904:  MOVWF  xCD
02906:  MOVLB  0
02908:  RCALL  2880
0290A:  MOVFF  01,3C9
....................    if((x & 0x80)!=0) 
0290E:  MOVLB  3
02910:  MOVF   xC9,W
02912:  ANDLW  80
02914:  BZ    2922
....................      write_ds1302(0x80,0); 
02916:  MOVLW  80
02918:  MOVWF  xD0
0291A:  CLRF   xD1
0291C:  MOVLB  0
0291E:  RCALL  286A
02920:  MOVLB  3
.................... } 
02922:  MOVLB  0
02924:  GOTO   57DE (RETURN)
....................  
.................... byte get_bcd(BYTE data) 
.................... { 
....................    byte nibh; 
....................    byte nibl; 
....................  
....................    nibh=data/10; 
*
0488A:  MOVFF  3CF,3D2
0488E:  MOVLW  0A
04890:  MOVLB  3
04892:  MOVWF  xD3
04894:  MOVLB  0
04896:  RCALL  43EA
04898:  MOVFF  01,3D0
....................    nibl=data-(nibh*10); 
0489C:  MOVLB  3
0489E:  MOVF   xD0,W
048A0:  MULLW  0A
048A2:  MOVF   FF3,W
048A4:  SUBWF  xCF,W
048A6:  MOVWF  xD1
....................  
....................    return((nibh<<4)|nibl); 
048A8:  SWAPF  xD0,W
048AA:  MOVWF  00
048AC:  MOVLW  F0
048AE:  ANDWF  00,F
048B0:  MOVF   00,W
048B2:  IORWF  xD1,W
048B4:  MOVWF  01
.................... } 
048B6:  MOVLB  0
048B8:  RETLW  00
....................  
.................... byte rm_bcd(BYTE data) 
.................... { 
....................    byte i; 
....................  
....................    i=data; 
*
0428A:  MOVFF  3CE,3CF
....................    data=(i>>4)*10; 
0428E:  MOVLB  3
04290:  SWAPF  xCF,W
04292:  MOVWF  00
04294:  MOVLW  0F
04296:  ANDWF  00,F
04298:  MOVF   00,W
0429A:  MULLW  0A
0429C:  MOVFF  FF3,3CE
....................    data=data+(i<<4>>4); 
042A0:  SWAPF  xCF,W
042A2:  MOVWF  00
042A4:  MOVLW  F0
042A6:  ANDWF  00,F
042A8:  MOVF   00,W
042AA:  SWAPF  00,F
042AC:  MOVLW  0F
042AE:  ANDWF  00,F
042B0:  MOVF   00,W
042B2:  ADDWF  xCE,F
....................  
....................    return data; 
042B4:  MOVFF  3CE,01
.................... } 
042B8:  MOVLB  0
042BA:  RETLW  00
....................  
.................... void rtc_set_datetime(BYTE day, BYTE mth, BYTE year, BYTE dow, BYTE hr, BYTE min) { 
....................  
....................    write_ds1302(0x86,get_bcd(day)); 
*
048BA:  MOVFF  3C9,3CF
048BE:  RCALL  488A
048C0:  MOVFF  01,3CF
048C4:  MOVLW  86
048C6:  MOVLB  3
048C8:  MOVWF  xD0
048CA:  MOVFF  01,3D1
048CE:  MOVLB  0
048D0:  CALL   286A
....................    write_ds1302(0x88,get_bcd(mth)); 
048D4:  MOVFF  3CA,3CF
048D8:  RCALL  488A
048DA:  MOVFF  01,3CF
048DE:  MOVLW  88
048E0:  MOVLB  3
048E2:  MOVWF  xD0
048E4:  MOVFF  01,3D1
048E8:  MOVLB  0
048EA:  CALL   286A
....................    write_ds1302(0x8c,get_bcd(year)); 
048EE:  MOVFF  3CB,3CF
048F2:  RCALL  488A
048F4:  MOVFF  01,3CF
048F8:  MOVLW  8C
048FA:  MOVLB  3
048FC:  MOVWF  xD0
048FE:  MOVFF  01,3D1
04902:  MOVLB  0
04904:  CALL   286A
....................    write_ds1302(0x8a,get_bcd(dow)); 
04908:  MOVFF  3CC,3CF
0490C:  RCALL  488A
0490E:  MOVFF  01,3CF
04912:  MOVLW  8A
04914:  MOVLB  3
04916:  MOVWF  xD0
04918:  MOVFF  01,3D1
0491C:  MOVLB  0
0491E:  CALL   286A
....................    write_ds1302(0x84,get_bcd(hr)); 
04922:  MOVFF  3CD,3CF
04926:  RCALL  488A
04928:  MOVFF  01,3CF
0492C:  MOVLW  84
0492E:  MOVLB  3
04930:  MOVWF  xD0
04932:  MOVFF  01,3D1
04936:  MOVLB  0
04938:  CALL   286A
....................    write_ds1302(0x82,get_bcd(min)); 
0493C:  MOVFF  3CE,3CF
04940:  RCALL  488A
04942:  MOVFF  01,3CF
04946:  MOVLW  82
04948:  MOVLB  3
0494A:  MOVWF  xD0
0494C:  MOVFF  01,3D1
04950:  MOVLB  0
04952:  CALL   286A
....................    write_ds1302(0x80,get_bcd(0)); 
04956:  MOVLB  3
04958:  CLRF   xCF
0495A:  MOVLB  0
0495C:  RCALL  488A
0495E:  MOVFF  01,3CF
04962:  MOVLW  80
04964:  MOVLB  3
04966:  MOVWF  xD0
04968:  MOVFF  01,3D1
0496C:  MOVLB  0
0496E:  CALL   286A
.................... } 
04972:  GOTO   89B6 (RETURN)
....................  
.................... void rtc_get_date(BYTE& day, BYTE& mth, BYTE& year, BYTE& dow) { 
....................    day = rm_bcd(read_ds1302(0x87)); 
*
059DE:  MOVLW  87
059E0:  MOVLB  3
059E2:  MOVWF  xCD
059E4:  MOVLB  0
059E6:  CALL   2880
059EA:  MOVFF  01,3C9
059EE:  MOVFF  01,3CE
059F2:  CALL   428A
059F6:  MOVFF  01,36D
....................    mth = rm_bcd(read_ds1302(0x89)); 
059FA:  MOVLW  89
059FC:  MOVLB  3
059FE:  MOVWF  xCD
05A00:  MOVLB  0
05A02:  CALL   2880
05A06:  MOVFF  01,3C9
05A0A:  MOVFF  01,3CE
05A0E:  CALL   428A
05A12:  MOVFF  01,36C
....................    year = rm_bcd(read_ds1302(0x8d)); 
05A16:  MOVLW  8D
05A18:  MOVLB  3
05A1A:  MOVWF  xCD
05A1C:  MOVLB  0
05A1E:  CALL   2880
05A22:  MOVFF  01,3C9
05A26:  MOVFF  01,3CE
05A2A:  CALL   428A
05A2E:  MOVFF  01,36B
....................    dow = rm_bcd(read_ds1302(0x8b)); 
05A32:  MOVLW  8B
05A34:  MOVLB  3
05A36:  MOVWF  xCD
05A38:  MOVLB  0
05A3A:  CALL   2880
05A3E:  MOVFF  01,3C9
05A42:  MOVFF  01,3CE
05A46:  CALL   428A
05A4A:  MOVFF  01,371
.................... } 
....................  
.................... void rtc_get_time(BYTE& hr, BYTE& min, BYTE& sec) { 
....................    hr = rm_bcd(read_ds1302(0x85)); 
05A4E:  MOVLW  85
05A50:  MOVLB  3
05A52:  MOVWF  xCD
05A54:  MOVLB  0
05A56:  CALL   2880
05A5A:  MOVFF  01,3C9
05A5E:  MOVFF  01,3CE
05A62:  CALL   428A
05A66:  MOVFF  01,36E
....................    min = rm_bcd(read_ds1302(0x83)); 
05A6A:  MOVLW  83
05A6C:  MOVLB  3
05A6E:  MOVWF  xCD
05A70:  MOVLB  0
05A72:  CALL   2880
05A76:  MOVFF  01,3C9
05A7A:  MOVFF  01,3CE
05A7E:  CALL   428A
05A82:  MOVFF  01,36F
....................    sec = rm_bcd(read_ds1302(0x81)); 
05A86:  MOVLW  81
05A88:  MOVLB  3
05A8A:  MOVWF  xCD
05A8C:  MOVLB  0
05A8E:  CALL   2880
05A92:  MOVFF  01,3C9
05A96:  MOVFF  01,3CE
05A9A:  CALL   428A
05A9E:  MOVFF  01,370
.................... } 
....................  
.................... void rtc_write_nvr(BYTE address, BYTE data) { 
....................    write_ds1302(address|0xc0,data); 
.................... } 
....................  
.................... BYTE rtc_read_nvr(BYTE address) { 
....................     return(read_ds1302(address|0xc1)); 
.................... } 
....................  
....................  
.................... #define   UP            !input(PIN_B0) 
.................... #define   DOWN          !input(PIN_B1) 
.................... #define   RIGHT         !input(PIN_B2) 
.................... #define   LEFT          !input(PIN_B3) 
....................  
.................... #define   DOOR          !input(PIN_B6) 
.................... #define   STOP          !input(PIN_B7) 
.................... #define   TERM          !input(PIN_B5) 
....................  
.................... #define   LOW           input(PIN_C1) 
.................... #define   HIG           input(PIN_C0) 
....................  
.................... #define   SSR_on           output_bit(PIN_C2,0) 
.................... #define   SSR_off          output_bit(PIN_C2,1) 
....................  
.................... #define   Buzzer_on        output_bit(PIN_D0,1) 
.................... #define   Buzzer_off       output_bit(PIN_D0,0) 
....................  
.................... #define   Desfogue_on      output_bit(PIN_D4,1) 
.................... #define   Desfogue_off     output_bit(PIN_D4,0) 
....................  
.................... #define   AguaIn_on        output_bit(PIN_D6,1) 
.................... #define   AguaIn_off       output_bit(PIN_D6,0) 
....................  
.................... #define   Paso_on          output_bit(PIN_D5,1) 
.................... #define   Paso_off         output_bit(PIN_D5,0) 
....................  
.................... #define OFF 0 
.................... #define ON  1 
.................... #define RX_BUFFER_SIZE  10 
.................... char Rx_Buffer[RX_BUFFER_SIZE+1]; 
.................... char Rx_Buffer2[RX_BUFFER_SIZE+1]; 
.................... char RX_Wr_Index=0; 
.................... char RX_Rd_Index=0; 
.................... char RX_Counter=0; 
....................  
.................... #define TX_BUFFER_SIZE  24 
.................... char Tx_Buffer[TX_BUFFER_SIZE+1]; 
.................... char TX_Wr_Index=0; 
.................... char TX_Counter=0; 
.................... //int1 RX_Buffer_Overflow=0; 
....................  
.................... //Comunicacion//------------------------ 
.................... byte SlaveA0Tx[0X20]; 
.................... byte dato=0;            //Contendr la informacin a enviar o recibir 
.................... byte direccion=0;       //Contendr la direccin del esclavo en el bus I2C 
.................... byte posicion=0;        //Contendr la posicin en el buffer de memoria del esclavo donde se almacenar o de donde se recuperar el dato 
....................  
.................... /* Tabla de Modulos, Primera Fila Ao Regular y el siguiente ao Bisiesto 
.................... E   F   M   A   M   J   J   A   S   O   N   D 
.................... 0   3   3   6   1   4   6   2   5   0   3   5 
.................... 0   3   4   0   2   5   0   3   6   1   4   6 
.................... */ 
.................... int8 Regular[12]={0,3,3,6,1,4,6,2,5,0,3,5}; 
.................... int8 Bisiesto[12]={0,3,4,0,2,5,0,3,6,1,4,6}; 
....................  
.................... //Alarmas//--------------------- 
.................... short AlarmaTiempoProlongado=OFF,AlarmaSobreTemperatura=OFF,AlarmaLlenado=OFF,AlarmaTermostato=OFF,AlarmaPuerta=OFF,AlarmaEmergencia=OFF; 
....................  
.................... //Banderas//-------------------- 
.................... short IniciaLlenado=OFF,CalderinLleno=OFF,IniciaCiclo=OFF,Esterilizando=OFF,Secando=OFF,SensadoNivel=OFF,Desfogando=OFF,DesfogueSuave=OFF; 
.................... short EstadoDesfogue=OFF,EstadoAgua=OFF,EstadoSSR=OFF,PruebaEstados=OFF,Ciclo=OFF,flagCalentando=OFF,flagEsterilizando=OFF; 
.................... short flagDesfogando=OFF,Op=OFF,Op2=OFF,Minutos=OFF,Segundos=OFF,GuardaEEPROM=OFF,EstadoPaso=OFF,EstadoBuzzer=OFF,flagAlarma=OFF; 
.................... short flagBuzzer=OFF,flagSilencio=OFF,Finalizo=OFF,AlarmaPresion=OFF,Libre=OFF,flagTrampa=OFF,flagSetpoint=OFF; 
....................  
.................... //Tiempos//--------------------- 
.................... int16 TiempoCiclo=0,TiempoLlenado=0,TiempoSensadoNivel=0,Tp=0,Tc=0,te=0; 
.................... signed int  Testerilizacion[5]={0,0,0,0,0};   // Tiempo transcurrido 
.................... signed int  Testerilizacionp[5]={0,0,0,0,0};   // Tiempo transcurrido 
.................... signed int  Tsecado[4]={0,0,0,0};   // Tiempo transcurrido 
.................... signed int  Tsecadop[4]={0,0,0,0};   // Tiempo transcurrido 
.................... int8 segundoEst=0; 
.................... int16 minutoEst=0; 
....................  
.................... //Control//------------------------ 
.................... float promedio[80]={0.0,0.0,0.0,0.0,0.0,0.0,0.0,0.0,0.0,0.0,0.0,0.0,0.0,0.0,0.0,0.0,0.0,0.0,0.0,0.0,0.0,0.0,0.0,0.0,0.0,0.0,0.0,0.0,0.0,0.0,0.0,0.0,0.0,0.0,0.0,0.0,0.0,0.0,0.0,0.0,0.0,0.0,0.0,0.0,0.0,0.0,0.0,0.0,0.0,0.0,0.0,0.0,0.0,0.0,0.0,0.0,0.0,0.0,0.0,0.0,0.0,0.0,0.0,0.0}; 
.................... float PromPresion[20]={0.0,0.0,0.0,0.0,0.0,0.0,0.0,0.0,0.0,0.0,0.0,0.0,0.0,0.0,0.0,0.0,0.0,0.0,0.0,0.0}; 
.................... float PromPresionp[20]={0.0,0.0,0.0,0.0,0.0,0.0,0.0,0.0,0.0,0.0,0.0,0.0,0.0,0.0,0.0,0.0,0.0,0.0,0.0,0.0}; 
.................... float Gain=141.6,RPT100=0.5,Temporal=0.0; 
.................... float R1=100,R10=6800; 
.................... float X[2]={0.0,0.0}; 
.................... float promediopresion=0.0,Aumento=0.0,promediopresionp=0.0; 
.................... int8 h=0,l=0,Ajuste=0,Ajusten=0,MediaMovil=20,TTrampa=0,PantallaPrincipal=0,TipoClave=0,Modulo=0,Digito=0; 
.................... float V0=0.0,Pt,Tciclo=10.0,Tpulso=0.0,error=0.0,Prom=0.0,Temperature=0.0,tmp=0.0,Ganancia=25.0,Ganancia2=20.0,desvio=1.0; 
.................... float V1=0.0,Presion=0.0,V2=0.0,Presionp=0.0; 
.................... float Temperatura=0.0,K=0.0012858; 
.................... float a=0.0011,b=2.3302,c=-244.0723; 
.................... int8 Integral=0,Derivativo=0,CicloLibre=0; 
....................  
.................... //Varios//-------------------------------- 
.................... short desfoguelento=0,Lectura=0,Grafica=0; 
.................... short disp_Stop=0,flagTC=0,flagImprime=0,flagImprimir=0; 
.................... int8 Control=0,tiemporecta=0,Controlando=0,ActivaImpresion=1,timpresion=2,CalculoImpresion=0,Inicio=1,Dato_Exitoso=0,Dato2=0,z=0; 
.................... int8 Menu=0, MenuAnt=0,MenuAntt=240,i=0,CiclosL=0,CiclosH=0,CicloSeleccionado=0; 
.................... int8 Setpoint=0,Opcion=1,Opcion2=1,tiempo_esterilizacion=0,tiempo_secado=0,tiempoImpresion=0; 
.................... int16 tiempos=0,tiempos2=0,tiempos3=0,tiempoctrl=0,Nivel=0,tinicio=0,PresionCamara=0,PresionPreCamara=0,Ciclos=0,NivelSeleccionado=0; 
.................... signed int  Contrasena[4]={0,0,0,0};      // Contrasena de 4 digitos 
.................... signed int  Password[4]={0,0,0,0};        // Contrasena Almacenada de 4 digitos 
.................... int8 r=0,t=0,r22=0,t2=0,TiempoControl=0; 
.................... int8 y=0,ConteoBuzzer=0; 
.................... int16 t_exhaust=0,tbuzzer=0,tsilencio=0; 
.................... int8 Year=18,Mes=9,Dia=13,Hora=0,Minuto=0,Segundo=0,dow=0; 
.................... int8 YearTx=0,MesTx=0,DiaTx=0,HoraTx=0,MinutoTx=0,SegundoTx=0,dowTx=0,SetTime=0,Imprime=0; 
.................... signed int8 G1=0,G2=0,sg1=0,sg2=0; 
.................... int8 iconoGrande[15]={25,16,22,24,23,28,20,46}; 
.................... int8 iconoPeque[15]={34,36,18,33,32,38,19,17}; 
.................... char const texto[9][20]={"LIQUIDOS","DESCONTAMINACION","SOLIDOS","FUSION","LIBRE","TEST","HORA Y FECHA","CLAVE"}; 
....................  
.................... typedef struct{ 
....................    int8 Temperatura; 
....................    int8 MinutoestH; 
....................    int8 MinutoestL; 
....................    int8 Segundoest; 
....................    int8 Minutosec; 
....................    int8 Segundosec; 
....................    int8 PulsosVacio; 
....................    int8 NivelVacio; 
....................    int8 NivelDesfogue; 
....................    int16 Minutoeste; 
.................... }Personalizado; 
....................  
.................... Personalizado CiclosPersonalizados[4]; 
....................  
.................... #include "Funciones.h" 
.................... void BorraBuffer(void){ 
.................... RX_Buffer[0]=0; 
*
0438C:  CLRF   30
.................... RX_Buffer[1]=0; 
0438E:  CLRF   31
.................... RX_Buffer[2]=0; 
04390:  CLRF   32
.................... RX_Buffer[3]=0; 
04392:  CLRF   33
.................... RX_Buffer[4]=0; 
04394:  CLRF   34
.................... RX_Buffer[5]=0; 
04396:  CLRF   35
.................... RX_Buffer[6]=0; 
04398:  CLRF   36
.................... RX_Buffer[7]=0; 
0439A:  CLRF   37
.................... RX_Buffer[8]=0; 
0439C:  CLRF   38
.................... RX_Buffer[9]=0; 
0439E:  CLRF   39
....................  
.................... RX_Buffer2[0]=0; 
043A0:  CLRF   3B
.................... RX_Buffer2[1]=0; 
043A2:  CLRF   3C
.................... RX_Buffer2[2]=0; 
043A4:  CLRF   3D
.................... RX_Buffer2[3]=0; 
043A6:  CLRF   3E
.................... RX_Buffer2[4]=0; 
043A8:  CLRF   3F
.................... RX_Buffer2[5]=0; 
043AA:  CLRF   40
.................... RX_Buffer2[6]=0; 
043AC:  CLRF   41
.................... RX_Buffer2[7]=0; 
043AE:  CLRF   42
.................... RX_Buffer2[8]=0; 
043B0:  CLRF   43
.................... RX_Buffer2[9]=0; 
043B2:  CLRF   44
....................  
.................... } 
043B4:  GOTO   5B0A (RETURN)
....................  
.................... char bgetc(void){ 
....................    char c; 
....................    while(RX_Counter==0) 
....................       ; 
....................    c=Rx_Buffer2[RX_Rd_Index]; 
....................    if(++RX_Rd_Index>RX_BUFFER_SIZE) 
....................       RX_Rd_Index=0; 
....................    if(RX_Counter) 
....................       RX_Counter--; 
....................    return c; 
.................... } 
....................  
.................... void bputc(char c){ 
....................    char restart=0; 
....................    while(TX_Counter> (TX_BUFFER_SIZE-1)) 
....................       ; 
....................    if(TX_Counter==0) 
....................       restart=1; 
....................    TX_Buffer[TX_Wr_Index++]=c; 
....................    if(TX_Wr_Index>TX_BUFFER_SIZE) 
....................       TX_Wr_Index=0; 
....................     
....................    TX_Counter++; 
....................     
....................    if(restart==1) 
....................       enable_interrupts(int_tbe); 
.................... } 
....................  
.................... void SendDataDisplay(void){ 
.................... delay_us(10); 
*
03442:  MOVLW  10
03444:  MOVWF  00
03446:  DECFSZ 00,F
03448:  BRA    3446
0344A:  NOP   
.................... putc(0xFF); 
0344C:  MOVLW  FF
0344E:  RCALL  343A
.................... delay_us(10); 
03450:  MOVLW  10
03452:  MOVWF  00
03454:  DECFSZ 00,F
03456:  BRA    3454
03458:  NOP   
.................... putc(0xFF); 
0345A:  MOVLW  FF
0345C:  RCALL  343A
.................... delay_us(10); 
0345E:  MOVLW  10
03460:  MOVWF  00
03462:  DECFSZ 00,F
03464:  BRA    3462
03466:  NOP   
.................... putc(0xFF); 
03468:  MOVLW  FF
0346A:  RCALL  343A
.................... delay_us(10); 
0346C:  MOVLW  10
0346E:  MOVWF  00
03470:  DECFSZ 00,F
03472:  BRA    3470
03474:  NOP   
.................... } 
03476:  RETLW  00
....................  
.................... short esBisiesto(int8 year) { 
....................      return ((year % 4 == 0 && year % 100 != 0) || year % 400 == 0); 
*
04838:  MOVLB  3
0483A:  MOVF   xC9,W
0483C:  ANDLW  03
0483E:  BNZ   4852
04840:  MOVFF  3C9,3D2
04844:  MOVLW  64
04846:  MOVWF  xD3
04848:  MOVLB  0
0484A:  RCALL  43EA
0484C:  MOVF   00,F
0484E:  BNZ   4880
04850:  MOVLB  3
04852:  CLRF   xCB
04854:  MOVFF  3C9,3CA
04858:  MOVLW  01
0485A:  MOVWF  xCD
0485C:  MOVLW  90
0485E:  MOVWF  xCC
04860:  MOVLB  0
04862:  BRA    47F0
04864:  MOVFF  00,3CA
04868:  MOVLB  3
0486A:  MOVFF  03,3CB
0486E:  MOVF   xCA,F
04870:  BNZ   487C
04872:  MOVF   xCB,F
04874:  BTFSS  FD8.2
04876:  BRA    487C
04878:  MOVLB  0
0487A:  BRA    4880
0487C:  MOVLW  00
0487E:  BRA    4884
04880:  MOVLW  01
04882:  MOVLB  3
04884:  MOVWF  01
.................... } 
04886:  MOVLB  0
04888:  RETLW  00
....................  
.................... void LimitaDia(){ 
....................    if(MesTx>12) 
*
04976:  MOVLB  3
04978:  MOVF   x73,W
0497A:  SUBLW  0C
0497C:  BC    4982
....................       MesTx=10; 
0497E:  MOVLW  0A
04980:  MOVWF  x73
....................    if(DiaTx>31) 
04982:  MOVF   x74,W
04984:  SUBLW  1F
04986:  BC    498C
....................       DiaTx=16; 
04988:  MOVLW  10
0498A:  MOVWF  x74
....................    if(YearTx>99) 
0498C:  MOVF   x72,W
0498E:  SUBLW  63
04990:  BC    4996
....................       YearTx=18;    
04992:  MOVLW  12
04994:  MOVWF  x72
....................    if(HoraTx>24) 
04996:  MOVF   x75,W
04998:  SUBLW  18
0499A:  BC    49A0
....................       HoraTx=11;       
0499C:  MOVLW  0B
0499E:  MOVWF  x75
....................    if(MinutoTx>59) 
049A0:  MOVF   x76,W
049A2:  SUBLW  3B
049A4:  BC    49AA
....................       MinutoTx=30;       
049A6:  MOVLW  1E
049A8:  MOVWF  x76
....................     
....................       if(MesTx==2){ 
049AA:  MOVF   x73,W
049AC:  SUBLW  02
049AE:  BNZ   49DA
....................          if(esBisiesto(YearTx)){ 
049B0:  MOVFF  372,3C9
049B4:  MOVLB  0
049B6:  RCALL  4838
049B8:  MOVF   01,F
049BA:  BZ    49CC
....................             if(DiaTx>29){ 
049BC:  MOVLB  3
049BE:  MOVF   x74,W
049C0:  SUBLW  1D
049C2:  BC    49C8
....................                DiaTx=29; 
049C4:  MOVLW  1D
049C6:  MOVWF  x74
....................                //glcd_fillScreen(OFF); 
....................             } 
....................          }else{ 
049C8:  BRA    49D8
049CA:  MOVLB  0
....................             if(DiaTx>28){ 
049CC:  MOVLB  3
049CE:  MOVF   x74,W
049D0:  SUBLW  1C
049D2:  BC    49D8
....................                DiaTx=28; 
049D4:  MOVLW  1C
049D6:  MOVWF  x74
....................                //glcd_fillScreen(OFF); 
....................             } 
....................          } 
....................       }else{ 
049D8:  BRA    4A04
....................          if(MesTx<=7){ 
049DA:  MOVF   x73,W
049DC:  SUBLW  07
049DE:  BNC   49F2
....................             if(MesTx % 2 ==0){ 
049E0:  MOVF   x73,W
049E2:  ANDLW  01
049E4:  BNZ   49F0
....................                if(DiaTx>30){ 
049E6:  MOVF   x74,W
049E8:  SUBLW  1E
049EA:  BC    49F0
....................                   DiaTx=30;  
049EC:  MOVLW  1E
049EE:  MOVWF  x74
....................                   //glcd_fillScreen(OFF); 
....................                } 
....................             } 
....................          }else{ 
049F0:  BRA    4A04
....................             if(MesTx % 2 ==1){ 
049F2:  MOVF   x73,W
049F4:  ANDLW  01
049F6:  SUBLW  01
049F8:  BNZ   4A04
....................                if(DiaTx>30){ 
049FA:  MOVF   x74,W
049FC:  SUBLW  1E
049FE:  BC    4A04
....................                   DiaTx=30;  
04A00:  MOVLW  1E
04A02:  MOVWF  x74
....................                   //glcd_fillScreen(OFF); 
....................                } 
....................             } 
....................          } 
....................       } 
.................... } 
04A04:  MOVLB  0
04A06:  GOTO   8C52 (RETURN)
....................  
.................... void ActualizaRecta(){ 
....................    X[y]=Temperature; 
04A0A:  MOVLB  3
04A0C:  MOVF   x63,W
04A0E:  MULLW  04
04A10:  MOVF   FF3,W
04A12:  CLRF   03
04A14:  ADDLW  B9
04A16:  MOVWF  FE9
04A18:  MOVLW  02
04A1A:  ADDWFC 03,W
04A1C:  MOVWF  FEA
04A1E:  MOVFF  2EF,FEF
04A22:  MOVFF  2F0,FEC
04A26:  MOVFF  2F1,FEC
04A2A:  MOVFF  2F2,FEC
....................    y++; 
04A2E:  INCF   x63,F
....................    if(y>=2) 
04A30:  MOVF   x63,W
04A32:  SUBLW  01
04A34:  BC    4A72
....................    { 
....................       y=0; 
04A36:  CLRF   x63
....................       Aumento=X[1]-X[0]; 
04A38:  BSF    FD8.1
04A3A:  MOVFF  2C0,3D7
04A3E:  MOVFF  2BF,3D6
04A42:  MOVFF  2BE,3D5
04A46:  MOVFF  2BD,3D4
04A4A:  MOVFF  2BC,3DB
04A4E:  MOVFF  2BB,3DA
04A52:  MOVFF  2BA,3D9
04A56:  MOVFF  2B9,3D8
04A5A:  MOVLB  0
04A5C:  CALL   188C
04A60:  MOVFF  03,2C8
04A64:  MOVFF  02,2C7
04A68:  MOVFF  01,2C6
04A6C:  MOVFF  00,2C5
04A70:  MOVLB  3
....................    } 
.................... } 
04A72:  MOVLB  0
04A74:  GOTO   4AF0 (RETURN)
....................  
.................... // Funcion para conversor analogo-digital 
.................... float sensores(int x){ 
.................... float y;set_adc_channel(x);delay_ms(1);y=read_adc();return (y); 
*
03494:  MOVLB  3
03496:  RLCF   xCA,W
03498:  MOVWF  00
0349A:  RLCF   00,F
0349C:  MOVLW  FC
0349E:  ANDWF  00,F
034A0:  MOVFF  00,01
034A4:  MOVF   FC2,W
034A6:  ANDLW  C3
034A8:  IORWF  00,W
034AA:  MOVWF  FC2
034AC:  MOVLW  01
034AE:  MOVWF  xD4
034B0:  MOVLB  0
034B2:  CALL   16D0
034B6:  BSF    FC2.1
034B8:  BTFSC  FC2.1
034BA:  BRA    34B8
034BC:  MOVFF  FC4,3D5
034C0:  MOVFF  FC3,3D4
034C4:  MOVLB  0
034C6:  CALL   16F8
034CA:  MOVFF  03,3CE
034CE:  MOVFF  02,3CD
034D2:  MOVFF  01,3CC
034D6:  MOVFF  00,3CB
034DA:  MOVFF  3CB,00
034DE:  MOVFF  3CC,01
034E2:  MOVFF  3CD,02
034E6:  MOVFF  3CE,03
.................... } 
034EA:  RETLW  00
.................... float LeerPT100(int media) 
.................... { 
....................    Prom=0.0; 
*
03604:  MOVLB  2
03606:  CLRF   xEE
03608:  CLRF   xED
0360A:  CLRF   xEC
0360C:  CLRF   xEB
....................    V0 = sensores(0);   //Lectura de Divisor de Voltaje de PT100 con resistencia de 6.18k (+-2%) 
0360E:  MOVLB  3
03610:  CLRF   xCA
03612:  MOVLB  0
03614:  RCALL  3494
03616:  MOVFF  03,2DA
0361A:  MOVFF  02,2D9
0361E:  MOVFF  01,2D8
03622:  MOVFF  00,2D7
....................    V0 = V0/103.0; // Se elimina la ganancia 
03626:  MOVFF  2DA,3D1
0362A:  MOVFF  2D9,3D0
0362E:  MOVFF  2D8,3CF
03632:  MOVFF  2D7,3CE
03636:  MOVLB  3
03638:  CLRF   xD5
0363A:  CLRF   xD4
0363C:  MOVLW  4E
0363E:  MOVWF  xD3
03640:  MOVLW  85
03642:  MOVWF  xD2
03644:  MOVLB  0
03646:  CALL   172E
0364A:  MOVFF  03,2DA
0364E:  MOVFF  02,2D9
03652:  MOVFF  01,2D8
03656:  MOVFF  00,2D7
....................    V0 += 14.82; 
0365A:  BCF    FD8.1
0365C:  MOVFF  2DA,3D7
03660:  MOVFF  2D9,3D6
03664:  MOVFF  2D8,3D5
03668:  MOVFF  2D7,3D4
0366C:  MOVLW  B8
0366E:  MOVLB  3
03670:  MOVWF  xDB
03672:  MOVLW  1E
03674:  MOVWF  xDA
03676:  MOVLW  6D
03678:  MOVWF  xD9
0367A:  MOVLW  82
0367C:  MOVWF  xD8
0367E:  MOVLB  0
03680:  CALL   188C
03684:  MOVFF  03,2DA
03688:  MOVFF  02,2D9
0368C:  MOVFF  01,2D8
03690:  MOVFF  00,2D7
....................    Pt=R10/((1023/V0)-1); 
03694:  MOVLB  3
03696:  CLRF   xD1
03698:  MOVLW  C0
0369A:  MOVWF  xD0
0369C:  MOVLW  7F
0369E:  MOVWF  xCF
036A0:  MOVLW  88
036A2:  MOVWF  xCE
036A4:  MOVFF  2DA,3D5
036A8:  MOVFF  2D9,3D4
036AC:  MOVFF  2D8,3D3
036B0:  MOVFF  2D7,3D2
036B4:  MOVLB  0
036B6:  CALL   172E
036BA:  MOVFF  00,3CA
036BE:  MOVFF  01,3CB
036C2:  MOVFF  02,3CC
036C6:  MOVFF  03,3CD
036CA:  BSF    FD8.1
036CC:  MOVFF  03,3D7
036D0:  MOVFF  02,3D6
036D4:  MOVFF  01,3D5
036D8:  MOVFF  00,3D4
036DC:  MOVLB  3
036DE:  CLRF   xDB
036E0:  CLRF   xDA
036E2:  CLRF   xD9
036E4:  MOVLW  7F
036E6:  MOVWF  xD8
036E8:  MOVLB  0
036EA:  CALL   188C
036EE:  MOVFF  2B8,3D1
036F2:  MOVFF  2B7,3D0
036F6:  MOVFF  2B6,3CF
036FA:  MOVFF  2B5,3CE
036FE:  MOVFF  03,3D5
03702:  MOVFF  02,3D4
03706:  MOVFF  01,3D3
0370A:  MOVFF  00,3D2
0370E:  CALL   172E
03712:  MOVFF  03,2DE
03716:  MOVFF  02,2DD
0371A:  MOVFF  01,2DC
0371E:  MOVFF  00,2DB
....................              
....................    if(l>(media-1)) 
03722:  MOVLW  01
03724:  MOVLB  3
03726:  SUBWF  xC9,W
03728:  MOVLB  2
0372A:  SUBWF  xCE,W
0372C:  BZ    3732
0372E:  BNC   3732
....................    {l=0;} 
03730:  CLRF   xCE
....................    //promedio[l]=Temperature;l++; 
....................    promedio[l]=Pt;l++; 
03732:  MOVLB  3
03734:  CLRF   xCB
03736:  MOVFF  2CE,3CA
0373A:  CLRF   xCD
0373C:  MOVLW  04
0373E:  MOVWF  xCC
03740:  MOVLB  0
03742:  RCALL  34EC
03744:  MOVF   01,W
03746:  ADDLW  C5
03748:  MOVWF  FE9
0374A:  MOVLW  00
0374C:  ADDWFC 02,W
0374E:  MOVWF  FEA
03750:  MOVFF  2DB,FEF
03754:  MOVFF  2DC,FEC
03758:  MOVFF  2DD,FEC
0375C:  MOVFF  2DE,FEC
03760:  MOVLB  2
03762:  INCF   xCE,F
....................           
....................    for(h=0;h<media;h++) 
03764:  CLRF   xCD
03766:  MOVLB  3
03768:  MOVF   xC9,W
0376A:  MOVLB  2
0376C:  SUBWF  xCD,W
0376E:  BC    37EE
....................    { 
....................       Prom+=promedio[h]; 
03770:  MOVLB  3
03772:  CLRF   xCB
03774:  MOVFF  2CD,3CA
03778:  CLRF   xCD
0377A:  MOVLW  04
0377C:  MOVWF  xCC
0377E:  MOVLB  0
03780:  RCALL  34EC
03782:  MOVFF  02,03
03786:  MOVF   01,W
03788:  ADDLW  C5
0378A:  MOVWF  FE9
0378C:  MOVLW  00
0378E:  ADDWFC 02,W
03790:  MOVWF  FEA
03792:  MOVFF  FEF,00
03796:  MOVFF  FEC,01
0379A:  MOVFF  FEC,02
0379E:  MOVFF  FEC,03
037A2:  MOVFF  FEA,3CB
037A6:  MOVFF  FE9,3CA
037AA:  BCF    FD8.1
037AC:  MOVFF  2EE,3D7
037B0:  MOVFF  2ED,3D6
037B4:  MOVFF  2EC,3D5
037B8:  MOVFF  2EB,3D4
037BC:  MOVFF  03,3DB
037C0:  MOVFF  02,3DA
037C4:  MOVFF  01,3D9
037C8:  MOVFF  00,3D8
037CC:  CALL   188C
037D0:  MOVFF  3CB,FEA
037D4:  MOVFF  3CA,FE9
037D8:  MOVFF  03,2EE
037DC:  MOVFF  02,2ED
037E0:  MOVFF  01,2EC
037E4:  MOVFF  00,2EB
....................    }  
037E8:  MOVLB  2
037EA:  INCF   xCD,F
037EC:  BRA    3766
....................    Prom=Prom/media;    
037EE:  MOVLB  3
037F0:  CLRF   xD5
037F2:  MOVFF  3C9,3D4
037F6:  MOVLB  0
037F8:  CALL   16F8
037FC:  MOVFF  2EE,3D1
03800:  MOVFF  2ED,3D0
03804:  MOVFF  2EC,3CF
03808:  MOVFF  2EB,3CE
0380C:  MOVFF  03,3D5
03810:  MOVFF  02,3D4
03814:  MOVFF  01,3D3
03818:  MOVFF  00,3D2
0381C:  CALL   172E
03820:  MOVFF  03,2EE
03824:  MOVFF  02,2ED
03828:  MOVFF  01,2EC
0382C:  MOVFF  00,2EB
....................    //Temperature=(Prom-100.0)/(0.385);  // Ecuacin determinada por linealizacin en Matlab. Revisar este polinomio.   
....................    Temperature=((Prom*Prom)*a)+(Prom*b)+c;  // Ecuacin determinada por linealizacin en Matlab. Revisar este polinomio. 
03830:  MOVFF  2EE,3DD
03834:  MOVFF  2ED,3DC
03838:  MOVFF  2EC,3DB
0383C:  MOVFF  2EB,3DA
03840:  MOVFF  2EE,3E1
03844:  MOVFF  2ED,3E0
03848:  MOVFF  2EC,3DF
0384C:  MOVFF  2EB,3DE
03850:  RCALL  350E
03852:  MOVFF  00,3CA
03856:  MOVFF  01,3CB
0385A:  MOVFF  02,3CC
0385E:  MOVFF  03,3CD
03862:  MOVFF  03,3DD
03866:  MOVFF  02,3DC
0386A:  MOVFF  01,3DB
0386E:  MOVFF  00,3DA
03872:  MOVFF  31E,3E1
03876:  MOVFF  31D,3E0
0387A:  MOVFF  31C,3DF
0387E:  MOVFF  31B,3DE
03882:  RCALL  350E
03884:  MOVFF  00,3CA
03888:  MOVFF  01,3CB
0388C:  MOVFF  02,3CC
03890:  MOVFF  03,3CD
03894:  MOVFF  2EE,3DD
03898:  MOVFF  2ED,3DC
0389C:  MOVFF  2EC,3DB
038A0:  MOVFF  2EB,3DA
038A4:  MOVFF  322,3E1
038A8:  MOVFF  321,3E0
038AC:  MOVFF  320,3DF
038B0:  MOVFF  31F,3DE
038B4:  RCALL  350E
038B6:  BCF    FD8.1
038B8:  MOVFF  3CD,3D7
038BC:  MOVFF  3CC,3D6
038C0:  MOVFF  3CB,3D5
038C4:  MOVFF  3CA,3D4
038C8:  MOVFF  03,3DB
038CC:  MOVFF  02,3DA
038D0:  MOVFF  01,3D9
038D4:  MOVFF  00,3D8
038D8:  CALL   188C
038DC:  MOVFF  00,3CA
038E0:  MOVFF  01,3CB
038E4:  MOVFF  02,3CC
038E8:  MOVFF  03,3CD
038EC:  BCF    FD8.1
038EE:  MOVFF  03,3D7
038F2:  MOVFF  02,3D6
038F6:  MOVFF  01,3D5
038FA:  MOVFF  00,3D4
038FE:  MOVFF  326,3DB
03902:  MOVFF  325,3DA
03906:  MOVFF  324,3D9
0390A:  MOVFF  323,3D8
0390E:  CALL   188C
03912:  MOVFF  03,2F2
03916:  MOVFF  02,2F1
0391A:  MOVFF  01,2F0
0391E:  MOVFF  00,2EF
....................    Temperature+=((float)Ajuste-(float)Ajusten); 
03922:  MOVLB  3
03924:  CLRF   xD5
03926:  MOVFF  2CF,3D4
0392A:  MOVLB  0
0392C:  CALL   16F8
03930:  MOVFF  00,3CA
03934:  MOVFF  01,3CB
03938:  MOVFF  02,3CC
0393C:  MOVFF  03,3CD
03940:  MOVLB  3
03942:  CLRF   xD5
03944:  MOVFF  2D0,3D4
03948:  MOVLB  0
0394A:  CALL   16F8
0394E:  BSF    FD8.1
03950:  MOVFF  3CD,3D7
03954:  MOVFF  3CC,3D6
03958:  MOVFF  3CB,3D5
0395C:  MOVFF  3CA,3D4
03960:  MOVFF  03,3DB
03964:  MOVFF  02,3DA
03968:  MOVFF  01,3D9
0396C:  MOVFF  00,3D8
03970:  CALL   188C
03974:  BCF    FD8.1
03976:  MOVFF  2F2,3D7
0397A:  MOVFF  2F1,3D6
0397E:  MOVFF  2F0,3D5
03982:  MOVFF  2EF,3D4
03986:  MOVFF  03,3DB
0398A:  MOVFF  02,3DA
0398E:  MOVFF  01,3D9
03992:  MOVFF  00,3D8
03996:  CALL   188C
0399A:  MOVFF  03,2F2
0399E:  MOVFF  02,2F1
039A2:  MOVFF  01,2F0
039A6:  MOVFF  00,2EF
....................    //Temperature-=39.0; 
....................     
....................    //return Prom; 
....................    return Temperature; 
039AA:  MOVFF  2EF,00
039AE:  MOVFF  2F0,01
039B2:  MOVFF  2F1,02
039B6:  MOVFF  2F2,03
.................... } 
039BA:  RETLW  00
....................  
.................... float Leer_Sensor_Presion_Camara(int media){ 
....................    promediopresion=0.0; 
*
03E0E:  MOVLB  2
03E10:  CLRF   xC4
03E12:  CLRF   xC3
03E14:  CLRF   xC2
03E16:  CLRF   xC1
....................    V1 = sensores(2);   //Lectura de Divisor de Voltaje de PT100 con resistencia de 1k (+-10%) 
03E18:  MOVLW  02
03E1A:  MOVLB  3
03E1C:  MOVWF  xCA
03E1E:  MOVLB  0
03E20:  CALL   3494
03E24:  MOVFF  03,306
03E28:  MOVFF  02,305
03E2C:  MOVFF  01,304
03E30:  MOVFF  00,303
....................    //V1 = V1*(5.0/1024.0); 
....................    //Presion=(V1-0.2)/(K); 
....................    Presion=(((V1+G1)/1023)-0.04)/K; 
03E34:  MOVLB  3
03E36:  CLRF   xCB
03E38:  MOVFF  37B,3CA
03E3C:  BTFSC  xCA.7
03E3E:  DECF   xCB,F
03E40:  MOVLB  0
03E42:  RCALL  3DBE
03E44:  BCF    FD8.1
03E46:  MOVFF  306,3D7
03E4A:  MOVFF  305,3D6
03E4E:  MOVFF  304,3D5
03E52:  MOVFF  303,3D4
03E56:  MOVFF  03,3DB
03E5A:  MOVFF  02,3DA
03E5E:  MOVFF  01,3D9
03E62:  MOVFF  00,3D8
03E66:  CALL   188C
03E6A:  MOVFF  00,3CA
03E6E:  MOVFF  01,3CB
03E72:  MOVFF  02,3CC
03E76:  MOVFF  03,3CD
03E7A:  MOVFF  03,3D1
03E7E:  MOVFF  02,3D0
03E82:  MOVFF  01,3CF
03E86:  MOVFF  00,3CE
03E8A:  MOVLB  3
03E8C:  CLRF   xD5
03E8E:  MOVLW  C0
03E90:  MOVWF  xD4
03E92:  MOVLW  7F
03E94:  MOVWF  xD3
03E96:  MOVLW  88
03E98:  MOVWF  xD2
03E9A:  MOVLB  0
03E9C:  CALL   172E
03EA0:  MOVFF  00,3CA
03EA4:  MOVFF  01,3CB
03EA8:  MOVFF  02,3CC
03EAC:  MOVFF  03,3CD
03EB0:  BSF    FD8.1
03EB2:  MOVFF  03,3D7
03EB6:  MOVFF  02,3D6
03EBA:  MOVFF  01,3D5
03EBE:  MOVFF  00,3D4
03EC2:  MOVLW  0A
03EC4:  MOVLB  3
03EC6:  MOVWF  xDB
03EC8:  MOVLW  D7
03ECA:  MOVWF  xDA
03ECC:  MOVLW  23
03ECE:  MOVWF  xD9
03ED0:  MOVLW  7A
03ED2:  MOVWF  xD8
03ED4:  MOVLB  0
03ED6:  CALL   188C
03EDA:  MOVFF  00,3CA
03EDE:  MOVFF  01,3CB
03EE2:  MOVFF  02,3CC
03EE6:  MOVFF  03,3CD
03EEA:  MOVFF  03,3D1
03EEE:  MOVFF  02,3D0
03EF2:  MOVFF  01,3CF
03EF6:  MOVFF  00,3CE
03EFA:  MOVFF  31A,3D5
03EFE:  MOVFF  319,3D4
03F02:  MOVFF  318,3D3
03F06:  MOVFF  317,3D2
03F0A:  CALL   172E
03F0E:  MOVFF  03,30A
03F12:  MOVFF  02,309
03F16:  MOVFF  01,308
03F1A:  MOVFF  00,307
....................     
....................    if(Presion<0.0) 
03F1E:  MOVFF  30A,3D0
03F22:  MOVFF  309,3CF
03F26:  MOVFF  308,3CE
03F2A:  MOVFF  307,3CD
03F2E:  MOVLB  3
03F30:  CLRF   xD4
03F32:  CLRF   xD3
03F34:  CLRF   xD2
03F36:  CLRF   xD1
03F38:  MOVLB  0
03F3A:  CALL   2928
03F3E:  BNC   3F4A
....................    { 
....................       Presion=0.0; 
03F40:  MOVLB  3
03F42:  CLRF   x0A
03F44:  CLRF   x09
03F46:  CLRF   x08
03F48:  CLRF   x07
....................    } 
....................     
....................    if(r>media-1) 
03F4A:  MOVLW  01
03F4C:  MOVLB  3
03F4E:  SUBWF  xC9,W
03F50:  SUBWF  x5E,W
03F52:  BZ    3F58
03F54:  BNC   3F58
....................    {r=0;} 
03F56:  CLRF   x5E
....................    PromPresion[r]=Presion;r++; 
03F58:  MOVF   x5E,W
03F5A:  MULLW  04
03F5C:  MOVF   FF3,W
03F5E:  CLRF   03
03F60:  ADDLW  05
03F62:  MOVWF  FE9
03F64:  MOVLW  02
03F66:  ADDWFC 03,W
03F68:  MOVWF  FEA
03F6A:  MOVFF  307,FEF
03F6E:  MOVFF  308,FEC
03F72:  MOVFF  309,FEC
03F76:  MOVFF  30A,FEC
03F7A:  INCF   x5E,F
....................           
....................    for(t=0;t<=(media-1);t++) 
03F7C:  CLRF   x5F
03F7E:  MOVLW  01
03F80:  SUBWF  xC9,W
03F82:  SUBWF  x5F,W
03F84:  BZ    3F88
03F86:  BC    3FF8
....................    { 
....................       promediopresion+=PromPresion[t]; 
03F88:  MOVF   x5F,W
03F8A:  MULLW  04
03F8C:  MOVF   FF3,W
03F8E:  CLRF   03
03F90:  ADDLW  05
03F92:  MOVWF  FE9
03F94:  MOVLW  02
03F96:  ADDWFC 03,W
03F98:  MOVWF  FEA
03F9A:  MOVFF  FEF,00
03F9E:  MOVFF  FEC,01
03FA2:  MOVFF  FEC,02
03FA6:  MOVFF  FEC,03
03FAA:  MOVFF  FEA,3CB
03FAE:  MOVFF  FE9,3CA
03FB2:  BCF    FD8.1
03FB4:  MOVFF  2C4,3D7
03FB8:  MOVFF  2C3,3D6
03FBC:  MOVFF  2C2,3D5
03FC0:  MOVFF  2C1,3D4
03FC4:  MOVFF  03,3DB
03FC8:  MOVFF  02,3DA
03FCC:  MOVFF  01,3D9
03FD0:  MOVFF  00,3D8
03FD4:  MOVLB  0
03FD6:  CALL   188C
03FDA:  MOVFF  3CB,FEA
03FDE:  MOVFF  3CA,FE9
03FE2:  MOVFF  03,2C4
03FE6:  MOVFF  02,2C3
03FEA:  MOVFF  01,2C2
03FEE:  MOVFF  00,2C1
....................    }  
03FF2:  MOVLB  3
03FF4:  INCF   x5F,F
03FF6:  BRA    3F7E
....................    promediopresion=promediopresion/media;    
03FF8:  CLRF   xD5
03FFA:  MOVFF  3C9,3D4
03FFE:  MOVLB  0
04000:  CALL   16F8
04004:  MOVFF  2C4,3D1
04008:  MOVFF  2C3,3D0
0400C:  MOVFF  2C2,3CF
04010:  MOVFF  2C1,3CE
04014:  MOVFF  03,3D5
04018:  MOVFF  02,3D4
0401C:  MOVFF  01,3D3
04020:  MOVFF  00,3D2
04024:  CALL   172E
04028:  MOVFF  03,2C4
0402C:  MOVFF  02,2C3
04030:  MOVFF  01,2C2
04034:  MOVFF  00,2C1
....................     
....................    return promediopresion; 
04038:  MOVFF  2C1,00
0403C:  MOVFF  2C2,01
04040:  MOVFF  2C3,02
04044:  MOVFF  2C4,03
.................... } 
04048:  GOTO   599A (RETURN)
....................  
.................... float Leer_Sensor_Presion_PreCamara(int media){ 
....................    promediopresionp=0.0; 
0404C:  MOVLB  2
0404E:  CLRF   xCC
04050:  CLRF   xCB
04052:  CLRF   xCA
04054:  CLRF   xC9
....................    V2 = sensores(3);   //Lectura de Divisor de Voltaje de PT100 con resistencia de 1k (+-10%) 
04056:  MOVLW  03
04058:  MOVLB  3
0405A:  MOVWF  xCA
0405C:  MOVLB  0
0405E:  CALL   3494
04062:  MOVFF  03,30E
04066:  MOVFF  02,30D
0406A:  MOVFF  01,30C
0406E:  MOVFF  00,30B
....................    //V2 = V2*(5.0/1024.0); 
....................    //Presionp=(V2-0.2)/(K); 
....................    Presionp=(((V2+G2)/1023)-0.04)/K; 
04072:  MOVLB  3
04074:  CLRF   xCB
04076:  MOVFF  37C,3CA
0407A:  BTFSC  xCA.7
0407C:  DECF   xCB,F
0407E:  MOVLB  0
04080:  RCALL  3DBE
04082:  BCF    FD8.1
04084:  MOVFF  30E,3D7
04088:  MOVFF  30D,3D6
0408C:  MOVFF  30C,3D5
04090:  MOVFF  30B,3D4
04094:  MOVFF  03,3DB
04098:  MOVFF  02,3DA
0409C:  MOVFF  01,3D9
040A0:  MOVFF  00,3D8
040A4:  CALL   188C
040A8:  MOVFF  00,3CA
040AC:  MOVFF  01,3CB
040B0:  MOVFF  02,3CC
040B4:  MOVFF  03,3CD
040B8:  MOVFF  03,3D1
040BC:  MOVFF  02,3D0
040C0:  MOVFF  01,3CF
040C4:  MOVFF  00,3CE
040C8:  MOVLB  3
040CA:  CLRF   xD5
040CC:  MOVLW  C0
040CE:  MOVWF  xD4
040D0:  MOVLW  7F
040D2:  MOVWF  xD3
040D4:  MOVLW  88
040D6:  MOVWF  xD2
040D8:  MOVLB  0
040DA:  CALL   172E
040DE:  MOVFF  00,3CA
040E2:  MOVFF  01,3CB
040E6:  MOVFF  02,3CC
040EA:  MOVFF  03,3CD
040EE:  BSF    FD8.1
040F0:  MOVFF  03,3D7
040F4:  MOVFF  02,3D6
040F8:  MOVFF  01,3D5
040FC:  MOVFF  00,3D4
04100:  MOVLW  0A
04102:  MOVLB  3
04104:  MOVWF  xDB
04106:  MOVLW  D7
04108:  MOVWF  xDA
0410A:  MOVLW  23
0410C:  MOVWF  xD9
0410E:  MOVLW  7A
04110:  MOVWF  xD8
04112:  MOVLB  0
04114:  CALL   188C
04118:  MOVFF  00,3CA
0411C:  MOVFF  01,3CB
04120:  MOVFF  02,3CC
04124:  MOVFF  03,3CD
04128:  MOVFF  03,3D1
0412C:  MOVFF  02,3D0
04130:  MOVFF  01,3CF
04134:  MOVFF  00,3CE
04138:  MOVFF  31A,3D5
0413C:  MOVFF  319,3D4
04140:  MOVFF  318,3D3
04144:  MOVFF  317,3D2
04148:  CALL   172E
0414C:  MOVFF  03,312
04150:  MOVFF  02,311
04154:  MOVFF  01,310
04158:  MOVFF  00,30F
....................     
....................    if(Presionp<0.0) 
0415C:  MOVFF  312,3D0
04160:  MOVFF  311,3CF
04164:  MOVFF  310,3CE
04168:  MOVFF  30F,3CD
0416C:  MOVLB  3
0416E:  CLRF   xD4
04170:  CLRF   xD3
04172:  CLRF   xD2
04174:  CLRF   xD1
04176:  MOVLB  0
04178:  CALL   2928
0417C:  BNC   4188
....................    { 
....................       Presionp=0.0; 
0417E:  MOVLB  3
04180:  CLRF   x12
04182:  CLRF   x11
04184:  CLRF   x10
04186:  CLRF   x0F
....................    } 
....................     
....................    if(r22>media-1) 
04188:  MOVLW  01
0418A:  MOVLB  3
0418C:  SUBWF  xC9,W
0418E:  SUBWF  x60,W
04190:  BZ    4196
04192:  BNC   4196
....................    {r22=0;} 
04194:  CLRF   x60
....................    PromPresionp[r22]=Presionp;r22++; 
04196:  MOVF   x60,W
04198:  MULLW  04
0419A:  MOVF   FF3,W
0419C:  CLRF   03
0419E:  ADDLW  55
041A0:  MOVWF  FE9
041A2:  MOVLW  02
041A4:  ADDWFC 03,W
041A6:  MOVWF  FEA
041A8:  MOVFF  30F,FEF
041AC:  MOVFF  310,FEC
041B0:  MOVFF  311,FEC
041B4:  MOVFF  312,FEC
041B8:  INCF   x60,F
....................           
....................    for(t2=0;t2<=(media-1);t2++) 
041BA:  CLRF   x61
041BC:  MOVLW  01
041BE:  SUBWF  xC9,W
041C0:  SUBWF  x61,W
041C2:  BZ    41C6
041C4:  BC    4236
....................    { 
....................       promediopresionp+=PromPresionp[t2]; 
041C6:  MOVF   x61,W
041C8:  MULLW  04
041CA:  MOVF   FF3,W
041CC:  CLRF   03
041CE:  ADDLW  55
041D0:  MOVWF  FE9
041D2:  MOVLW  02
041D4:  ADDWFC 03,W
041D6:  MOVWF  FEA
041D8:  MOVFF  FEF,00
041DC:  MOVFF  FEC,01
041E0:  MOVFF  FEC,02
041E4:  MOVFF  FEC,03
041E8:  MOVFF  FEA,3CB
041EC:  MOVFF  FE9,3CA
041F0:  BCF    FD8.1
041F2:  MOVFF  2CC,3D7
041F6:  MOVFF  2CB,3D6
041FA:  MOVFF  2CA,3D5
041FE:  MOVFF  2C9,3D4
04202:  MOVFF  03,3DB
04206:  MOVFF  02,3DA
0420A:  MOVFF  01,3D9
0420E:  MOVFF  00,3D8
04212:  MOVLB  0
04214:  CALL   188C
04218:  MOVFF  3CB,FEA
0421C:  MOVFF  3CA,FE9
04220:  MOVFF  03,2CC
04224:  MOVFF  02,2CB
04228:  MOVFF  01,2CA
0422C:  MOVFF  00,2C9
....................    }  
04230:  MOVLB  3
04232:  INCF   x61,F
04234:  BRA    41BC
....................    promediopresionp=promediopresionp/media;    
04236:  CLRF   xD5
04238:  MOVFF  3C9,3D4
0423C:  MOVLB  0
0423E:  CALL   16F8
04242:  MOVFF  2CC,3D1
04246:  MOVFF  2CB,3D0
0424A:  MOVFF  2CA,3CF
0424E:  MOVFF  2C9,3CE
04252:  MOVFF  03,3D5
04256:  MOVFF  02,3D4
0425A:  MOVFF  01,3D3
0425E:  MOVFF  00,3D2
04262:  CALL   172E
04266:  MOVFF  03,2CC
0426A:  MOVFF  02,2CB
0426E:  MOVFF  01,2CA
04272:  MOVFF  00,2C9
....................     
....................    return promediopresionp; 
04276:  MOVFF  2C9,00
0427A:  MOVFF  2CA,01
0427E:  MOVFF  2CB,02
04282:  MOVFF  2CC,03
.................... } 
04286:  GOTO   59C2 (RETURN)
....................  
.................... void Controla(){ 
....................    if(tiemporecta>=Derivativo/2.0) 
*
04A78:  MOVLB  3
04A7A:  CLRF   xD5
04A7C:  MOVFF  328,3D4
04A80:  MOVLB  0
04A82:  CALL   16F8
04A86:  MOVFF  03,3D1
04A8A:  MOVFF  02,3D0
04A8E:  MOVFF  01,3CF
04A92:  MOVFF  00,3CE
04A96:  MOVLB  3
04A98:  CLRF   xD5
04A9A:  CLRF   xD4
04A9C:  CLRF   xD3
04A9E:  MOVLW  80
04AA0:  MOVWF  xD2
04AA2:  MOVLB  0
04AA4:  CALL   172E
04AA8:  MOVFF  00,3C9
04AAC:  MOVFF  01,3CA
04AB0:  MOVFF  02,3CB
04AB4:  MOVFF  03,3CC
04AB8:  MOVLB  3
04ABA:  CLRF   xD5
04ABC:  MOVFF  32C,3D4
04AC0:  MOVLB  0
04AC2:  CALL   16F8
04AC6:  MOVFF  3CC,3D0
04ACA:  MOVFF  3CB,3CF
04ACE:  MOVFF  3CA,3CE
04AD2:  MOVFF  3C9,3CD
04AD6:  MOVFF  03,3D4
04ADA:  MOVFF  02,3D3
04ADE:  MOVFF  01,3D2
04AE2:  MOVFF  00,3D1
04AE6:  CALL   2928
04AEA:  BC    4AEE
04AEC:  BNZ   4AF4
....................    { 
....................       ActualizaRecta(); 
04AEE:  BRA    4A0A
....................       tiemporecta=0; 
04AF0:  MOVLB  3
04AF2:  CLRF   x2C
....................    }  
.................... //-------------------------------Control de Calentamiento------------------------------------------------------------//          
....................    error=desvio+Setpoint-Temperatura;      // Clculo del error ****** 
04AF4:  MOVLB  3
04AF6:  CLRF   xD5
04AF8:  MOVFF  33C,3D4
04AFC:  MOVLB  0
04AFE:  CALL   16F8
04B02:  BCF    FD8.1
04B04:  MOVFF  302,3D7
04B08:  MOVFF  301,3D6
04B0C:  MOVFF  300,3D5
04B10:  MOVFF  2FF,3D4
04B14:  MOVFF  03,3DB
04B18:  MOVFF  02,3DA
04B1C:  MOVFF  01,3D9
04B20:  MOVFF  00,3D8
04B24:  CALL   188C
04B28:  MOVFF  00,3C9
04B2C:  MOVFF  01,3CA
04B30:  MOVFF  02,3CB
04B34:  MOVFF  03,3CC
04B38:  BSF    FD8.1
04B3A:  MOVFF  03,3D7
04B3E:  MOVFF  02,3D6
04B42:  MOVFF  01,3D5
04B46:  MOVFF  00,3D4
04B4A:  MOVFF  316,3DB
04B4E:  MOVFF  315,3DA
04B52:  MOVFF  314,3D9
04B56:  MOVFF  313,3D8
04B5A:  CALL   188C
04B5E:  MOVFF  03,2EA
04B62:  MOVFF  02,2E9
04B66:  MOVFF  01,2E8
04B6A:  MOVFF  00,2E7
....................     
....................    if(error>1.0 && error<15 && Aumento<0.3) 
04B6E:  MOVLB  3
04B70:  CLRF   xD0
04B72:  CLRF   xCF
04B74:  CLRF   xCE
04B76:  MOVLW  7F
04B78:  MOVWF  xCD
04B7A:  MOVFF  2EA,3D4
04B7E:  MOVFF  2E9,3D3
04B82:  MOVFF  2E8,3D2
04B86:  MOVFF  2E7,3D1
04B8A:  MOVLB  0
04B8C:  CALL   2928
04B90:  BTFSS  FD8.0
04B92:  BRA    4DBA
04B94:  MOVFF  2EA,3D0
04B98:  MOVFF  2E9,3CF
04B9C:  MOVFF  2E8,3CE
04BA0:  MOVFF  2E7,3CD
04BA4:  MOVLB  3
04BA6:  CLRF   xD4
04BA8:  CLRF   xD3
04BAA:  MOVLW  70
04BAC:  MOVWF  xD2
04BAE:  MOVLW  82
04BB0:  MOVWF  xD1
04BB2:  MOVLB  0
04BB4:  CALL   2928
04BB8:  BTFSS  FD8.0
04BBA:  BRA    4DBA
04BBC:  MOVFF  2C8,3D0
04BC0:  MOVFF  2C7,3CF
04BC4:  MOVFF  2C6,3CE
04BC8:  MOVFF  2C5,3CD
04BCC:  MOVLW  9A
04BCE:  MOVLB  3
04BD0:  MOVWF  xD4
04BD2:  MOVLW  99
04BD4:  MOVWF  xD3
04BD6:  MOVLW  19
04BD8:  MOVWF  xD2
04BDA:  MOVLW  7D
04BDC:  MOVWF  xD1
04BDE:  MOVLB  0
04BE0:  CALL   2928
04BE4:  BTFSS  FD8.0
04BE6:  BRA    4DBA
....................    { 
....................       if(Tpulso<4.0) 
04BE8:  MOVFF  2E6,3D0
04BEC:  MOVFF  2E5,3CF
04BF0:  MOVFF  2E4,3CE
04BF4:  MOVFF  2E3,3CD
04BF8:  MOVLB  3
04BFA:  CLRF   xD4
04BFC:  CLRF   xD3
04BFE:  CLRF   xD2
04C00:  MOVLW  81
04C02:  MOVWF  xD1
04C04:  MOVLB  0
04C06:  CALL   2928
04C0A:  BTFSS  FD8.0
04C0C:  BRA    4DB6
....................       { 
....................          flagTC=1; 
04C0E:  MOVLB  3
04C10:  BSF    x2A.1
....................          if(TiempoControl>=Derivativo) 
04C12:  MOVF   x28,W
04C14:  SUBWF  x62,W
04C16:  BTFSS  FD8.0
04C18:  BRA    4DB2
....................          { 
....................             TiempoControl=0; 
04C1A:  CLRF   x62
....................             if(Aumento<-0.5){ 
04C1C:  MOVFF  2C8,3D0
04C20:  MOVFF  2C7,3CF
04C24:  MOVFF  2C6,3CE
04C28:  MOVFF  2C5,3CD
04C2C:  CLRF   xD4
04C2E:  CLRF   xD3
04C30:  MOVLW  80
04C32:  MOVWF  xD2
04C34:  MOVLW  7E
04C36:  MOVWF  xD1
04C38:  MOVLB  0
04C3A:  CALL   2928
04C3E:  BNC   4CB0
....................                Ganancia+=Integral+0.2; 
04C40:  MOVLB  3
04C42:  CLRF   xD5
04C44:  MOVFF  327,3D4
04C48:  MOVLB  0
04C4A:  CALL   16F8
04C4E:  BCF    FD8.1
04C50:  MOVFF  03,3D7
04C54:  MOVFF  02,3D6
04C58:  MOVFF  01,3D5
04C5C:  MOVFF  00,3D4
04C60:  MOVLW  CD
04C62:  MOVLB  3
04C64:  MOVWF  xDB
04C66:  MOVLW  CC
04C68:  MOVWF  xDA
04C6A:  MOVLW  4C
04C6C:  MOVWF  xD9
04C6E:  MOVLW  7C
04C70:  MOVWF  xD8
04C72:  MOVLB  0
04C74:  CALL   188C
04C78:  BCF    FD8.1
04C7A:  MOVFF  2FA,3D7
04C7E:  MOVFF  2F9,3D6
04C82:  MOVFF  2F8,3D5
04C86:  MOVFF  2F7,3D4
04C8A:  MOVFF  03,3DB
04C8E:  MOVFF  02,3DA
04C92:  MOVFF  01,3D9
04C96:  MOVFF  00,3D8
04C9A:  CALL   188C
04C9E:  MOVFF  03,2FA
04CA2:  MOVFF  02,2F9
04CA6:  MOVFF  01,2F8
04CAA:  MOVFF  00,2F7
....................             }else{ 
04CAE:  BRA    4DB0
....................                if(Aumento<-0.1){ 
04CB0:  MOVFF  2C8,3D0
04CB4:  MOVFF  2C7,3CF
04CB8:  MOVFF  2C6,3CE
04CBC:  MOVFF  2C5,3CD
04CC0:  MOVLW  CD
04CC2:  MOVLB  3
04CC4:  MOVWF  xD4
04CC6:  MOVLW  CC
04CC8:  MOVWF  xD3
04CCA:  MOVWF  xD2
04CCC:  MOVLW  7B
04CCE:  MOVWF  xD1
04CD0:  MOVLB  0
04CD2:  CALL   2928
04CD6:  BNC   4D48
....................                   Ganancia+=Integral-0.2; 
04CD8:  MOVLB  3
04CDA:  CLRF   xD5
04CDC:  MOVFF  327,3D4
04CE0:  MOVLB  0
04CE2:  CALL   16F8
04CE6:  BSF    FD8.1
04CE8:  MOVFF  03,3D7
04CEC:  MOVFF  02,3D6
04CF0:  MOVFF  01,3D5
04CF4:  MOVFF  00,3D4
04CF8:  MOVLW  CD
04CFA:  MOVLB  3
04CFC:  MOVWF  xDB
04CFE:  MOVLW  CC
04D00:  MOVWF  xDA
04D02:  MOVLW  4C
04D04:  MOVWF  xD9
04D06:  MOVLW  7C
04D08:  MOVWF  xD8
04D0A:  MOVLB  0
04D0C:  CALL   188C
04D10:  BCF    FD8.1
04D12:  MOVFF  2FA,3D7
04D16:  MOVFF  2F9,3D6
04D1A:  MOVFF  2F8,3D5
04D1E:  MOVFF  2F7,3D4
04D22:  MOVFF  03,3DB
04D26:  MOVFF  02,3DA
04D2A:  MOVFF  01,3D9
04D2E:  MOVFF  00,3D8
04D32:  CALL   188C
04D36:  MOVFF  03,2FA
04D3A:  MOVFF  02,2F9
04D3E:  MOVFF  01,2F8
04D42:  MOVFF  00,2F7
....................                }else{ 
04D46:  BRA    4DB0
....................                   Ganancia+=Integral-0.5; 
04D48:  MOVLB  3
04D4A:  CLRF   xD5
04D4C:  MOVFF  327,3D4
04D50:  MOVLB  0
04D52:  CALL   16F8
04D56:  BSF    FD8.1
04D58:  MOVFF  03,3D7
04D5C:  MOVFF  02,3D6
04D60:  MOVFF  01,3D5
04D64:  MOVFF  00,3D4
04D68:  MOVLB  3
04D6A:  CLRF   xDB
04D6C:  CLRF   xDA
04D6E:  CLRF   xD9
04D70:  MOVLW  7E
04D72:  MOVWF  xD8
04D74:  MOVLB  0
04D76:  CALL   188C
04D7A:  BCF    FD8.1
04D7C:  MOVFF  2FA,3D7
04D80:  MOVFF  2F9,3D6
04D84:  MOVFF  2F8,3D5
04D88:  MOVFF  2F7,3D4
04D8C:  MOVFF  03,3DB
04D90:  MOVFF  02,3DA
04D94:  MOVFF  01,3D9
04D98:  MOVFF  00,3D8
04D9C:  CALL   188C
04DA0:  MOVFF  03,2FA
04DA4:  MOVFF  02,2F9
04DA8:  MOVFF  01,2F8
04DAC:  MOVFF  00,2F7
04DB0:  MOVLB  3
....................                } 
....................             } 
....................          } 
....................       }else{ 
04DB2:  BRA    4DBA
04DB4:  MOVLB  0
....................          flagTC=0; 
04DB6:  MOVLB  3
04DB8:  BCF    x2A.1
....................       } 
....................    } 
....................     
....................    if(error<-0.3) 
04DBA:  MOVFF  2EA,3D0
04DBE:  MOVFF  2E9,3CF
04DC2:  MOVFF  2E8,3CE
04DC6:  MOVFF  2E7,3CD
04DCA:  MOVLW  9A
04DCC:  MOVLB  3
04DCE:  MOVWF  xD4
04DD0:  MOVLW  99
04DD2:  MOVWF  xD3
04DD4:  MOVWF  xD2
04DD6:  MOVLW  7D
04DD8:  MOVWF  xD1
04DDA:  MOVLB  0
04DDC:  CALL   2928
04DE0:  BNC   4DF2
....................    { 
....................       Ganancia=Ganancia2; 
04DE2:  MOVFF  2FE,2FA
04DE6:  MOVFF  2FD,2F9
04DEA:  MOVFF  2FC,2F8
04DEE:  MOVFF  2FB,2F7
....................    } 
....................     
....................    if(Ganancia<1) 
04DF2:  MOVFF  2FA,3D0
04DF6:  MOVFF  2F9,3CF
04DFA:  MOVFF  2F8,3CE
04DFE:  MOVFF  2F7,3CD
04E02:  MOVLB  3
04E04:  CLRF   xD4
04E06:  CLRF   xD3
04E08:  CLRF   xD2
04E0A:  MOVLW  7F
04E0C:  MOVWF  xD1
04E0E:  MOVLB  0
04E10:  CALL   2928
04E14:  BNC   4E22
....................    { 
....................       Ganancia=1; 
04E16:  MOVLB  2
04E18:  CLRF   xFA
04E1A:  CLRF   xF9
04E1C:  CLRF   xF8
04E1E:  MOVLW  7F
04E20:  MOVWF  xF7
....................    } 
....................     
....................    if(error<0.0)     // Anti Wind_DOWN     
04E22:  MOVFF  2EA,3D0
04E26:  MOVFF  2E9,3CF
04E2A:  MOVFF  2E8,3CE
04E2E:  MOVFF  2E7,3CD
04E32:  MOVLB  3
04E34:  CLRF   xD4
04E36:  CLRF   xD3
04E38:  CLRF   xD2
04E3A:  CLRF   xD1
04E3C:  MOVLB  0
04E3E:  CALL   2928
04E42:  BNC   4E50
....................    { 
....................       error=0.0; 
04E44:  MOVLB  2
04E46:  CLRF   xEA
04E48:  CLRF   xE9
04E4A:  CLRF   xE8
04E4C:  CLRF   xE7
04E4E:  MOVLB  0
....................    } 
....................    //tmp=(Setpoint-Prom)*Ganancia;  // Control Proporcional. 
....................    tmp=error*Ganancia;  // Control Proporcional. 
04E50:  MOVFF  2EA,3DD
04E54:  MOVFF  2E9,3DC
04E58:  MOVFF  2E8,3DB
04E5C:  MOVFF  2E7,3DA
04E60:  MOVFF  2FA,3E1
04E64:  MOVFF  2F9,3E0
04E68:  MOVFF  2F8,3DF
04E6C:  MOVFF  2F7,3DE
04E70:  CALL   350E
04E74:  MOVFF  03,2F6
04E78:  MOVFF  02,2F5
04E7C:  MOVFF  01,2F4
04E80:  MOVFF  00,2F3
....................           
....................    if(tmp>Setpoint)   // Anti Wind-UP       
04E84:  MOVLB  3
04E86:  CLRF   xD5
04E88:  MOVFF  33C,3D4
04E8C:  MOVLB  0
04E8E:  CALL   16F8
04E92:  MOVFF  03,3D0
04E96:  MOVFF  02,3CF
04E9A:  MOVFF  01,3CE
04E9E:  MOVFF  00,3CD
04EA2:  MOVFF  2F6,3D4
04EA6:  MOVFF  2F5,3D3
04EAA:  MOVFF  2F4,3D2
04EAE:  MOVFF  2F3,3D1
04EB2:  CALL   2928
04EB6:  BNC   4ED6
....................    { 
....................       tmp=Setpoint; 
04EB8:  MOVLB  3
04EBA:  CLRF   xD5
04EBC:  MOVFF  33C,3D4
04EC0:  MOVLB  0
04EC2:  CALL   16F8
04EC6:  MOVFF  03,2F6
04ECA:  MOVFF  02,2F5
04ECE:  MOVFF  01,2F4
04ED2:  MOVFF  00,2F3
....................    } 
....................                 
....................    if(tmp<0.0)     // Anti Wind_DOWN     
04ED6:  MOVFF  2F6,3D0
04EDA:  MOVFF  2F5,3CF
04EDE:  MOVFF  2F4,3CE
04EE2:  MOVFF  2F3,3CD
04EE6:  MOVLB  3
04EE8:  CLRF   xD4
04EEA:  CLRF   xD3
04EEC:  CLRF   xD2
04EEE:  CLRF   xD1
04EF0:  MOVLB  0
04EF2:  CALL   2928
04EF6:  BNC   4F02
....................    { 
....................       tmp=0.0; 
04EF8:  MOVLB  2
04EFA:  CLRF   xF6
04EFC:  CLRF   xF5
04EFE:  CLRF   xF4
04F00:  CLRF   xF3
....................    } 
....................     
....................    // Tpulso(t)= Tciclo*(y(t)-ymin)/(ymax - ymin); calculo de ciclo util para control de resistencia.ymax=140.ymin=0; 
....................    // Tpulso es float, hay que pasar ese ciclo a una salida de un puerto usando el TMR1. 
....................    Tpulso=(tmp/Setpoint)*Tciclo;   
04F02:  MOVLB  3
04F04:  CLRF   xD5
04F06:  MOVFF  33C,3D4
04F0A:  MOVLB  0
04F0C:  CALL   16F8
04F10:  MOVFF  2F6,3D1
04F14:  MOVFF  2F5,3D0
04F18:  MOVFF  2F4,3CF
04F1C:  MOVFF  2F3,3CE
04F20:  MOVFF  03,3D5
04F24:  MOVFF  02,3D4
04F28:  MOVFF  01,3D3
04F2C:  MOVFF  00,3D2
04F30:  CALL   172E
04F34:  MOVFF  00,3C9
04F38:  MOVFF  01,3CA
04F3C:  MOVFF  02,3CB
04F40:  MOVFF  03,3CC
04F44:  MOVFF  03,3DD
04F48:  MOVFF  02,3DC
04F4C:  MOVFF  01,3DB
04F50:  MOVFF  00,3DA
04F54:  MOVFF  2E2,3E1
04F58:  MOVFF  2E1,3E0
04F5C:  MOVFF  2E0,3DF
04F60:  MOVFF  2DF,3DE
04F64:  CALL   350E
04F68:  MOVFF  03,2E6
04F6C:  MOVFF  02,2E5
04F70:  MOVFF  01,2E4
04F74:  MOVFF  00,2E3
....................                                        
....................    Tp=(Tpulso/0.005); 
04F78:  MOVFF  2E6,3D1
04F7C:  MOVFF  2E5,3D0
04F80:  MOVFF  2E4,3CF
04F84:  MOVFF  2E3,3CE
04F88:  MOVLW  0A
04F8A:  MOVLB  3
04F8C:  MOVWF  xD5
04F8E:  MOVLW  D7
04F90:  MOVWF  xD4
04F92:  MOVLW  23
04F94:  MOVWF  xD3
04F96:  MOVLW  77
04F98:  MOVWF  xD2
04F9A:  MOVLB  0
04F9C:  CALL   172E
04FA0:  MOVFF  03,3D7
04FA4:  MOVFF  02,3D6
04FA8:  MOVFF  01,3D5
04FAC:  MOVFF  00,3D4
04FB0:  CALL   3B36
04FB4:  MOVFF  02,AB
04FB8:  MOVFF  01,AA
....................    Tc=(Tciclo/0.005); 
04FBC:  MOVFF  2E2,3D1
04FC0:  MOVFF  2E1,3D0
04FC4:  MOVFF  2E0,3CF
04FC8:  MOVFF  2DF,3CE
04FCC:  MOVLW  0A
04FCE:  MOVLB  3
04FD0:  MOVWF  xD5
04FD2:  MOVLW  D7
04FD4:  MOVWF  xD4
04FD6:  MOVLW  23
04FD8:  MOVWF  xD3
04FDA:  MOVLW  77
04FDC:  MOVWF  xD2
04FDE:  MOVLB  0
04FE0:  CALL   172E
04FE4:  MOVFF  03,3D7
04FE8:  MOVFF  02,3D6
04FEC:  MOVFF  01,3D5
04FF0:  MOVFF  00,3D4
04FF4:  CALL   3B36
04FF8:  MOVFF  02,AD
04FFC:  MOVFF  01,AC
....................    Controlando=1;    
05000:  MOVLW  01
05002:  MOVLB  3
05004:  MOVWF  x2D
.................... //--------------------------------------------------------------------------------------------------------------------//    
.................... } 
05006:  MOVLB  0
05008:  RETLW  00
....................  
.................... void Envio_I2C(direccion, posicion, dato){ 
....................  
....................    i2c_start();            // Comienzo comunicacin 
*
03D24:  BSF    F94.4
03D26:  MOVLW  05
03D28:  MOVWF  00
03D2A:  DECFSZ 00,F
03D2C:  BRA    3D2A
03D2E:  BSF    F94.3
03D30:  MOVLW  06
03D32:  MOVWF  00
03D34:  DECFSZ 00,F
03D36:  BRA    3D34
03D38:  BCF    F8B.4
03D3A:  BCF    F94.4
03D3C:  MOVLW  05
03D3E:  MOVWF  00
03D40:  DECFSZ 00,F
03D42:  BRA    3D40
03D44:  BCF    F8B.3
03D46:  BCF    F94.3
....................    i2c_write(direccion);   // Direccin del esclavo en el bus I2C 
03D48:  MOVFF  3D5,3D8
03D4C:  RCALL  3CAE
....................    i2c_write(posicion);    // Posicin donde se guardara el dato transmitido 
03D4E:  MOVFF  3D6,3D8
03D52:  RCALL  3CAE
....................    i2c_write(dato);        // Dato a transmitir 
03D54:  MOVFF  3D7,3D8
03D58:  RCALL  3CAE
....................    i2c_stop();             // Fin comunicacin 
03D5A:  BCF    F94.4
03D5C:  NOP   
03D5E:  BSF    F94.3
03D60:  BTFSS  F82.3
03D62:  BRA    3D60
03D64:  MOVLW  05
03D66:  MOVWF  00
03D68:  DECFSZ 00,F
03D6A:  BRA    3D68
03D6C:  BRA    3D6E
03D6E:  NOP   
03D70:  BSF    F94.4
03D72:  MOVLW  05
03D74:  MOVWF  00
03D76:  DECFSZ 00,F
03D78:  BRA    3D76
....................  } 
03D7A:  GOTO   3DB4 (RETURN)
....................  
.................... void Lectura_I2C (byte direccion, byte posicion, byte &dato) { 
....................  
....................    i2c_start();            // Comienzo de la comunicacin 
....................    i2c_write(direccion);   // Direccin del esclavo en el bus I2C 
....................    i2c_write(posicion);    // Posicin de donde se leer el dato en el esclavo 
....................    i2c_start();            // Reinicio 
....................    i2c_write(direccion+1); // Direccin del esclavo en modo lectura 
....................    dato=i2c_read(0);       // Lectura del dato 
....................    i2c_stop();             // Fin comunicacin 
.................... } 
....................  
.................... void Carga_Vector(void){ 
....................    SlaveA0Tx[0]=(int8)Temperatura; 
*
03B72:  MOVFF  316,3D7
03B76:  MOVFF  315,3D6
03B7A:  MOVFF  314,3D5
03B7E:  MOVFF  313,3D4
03B82:  RCALL  3B36
03B84:  MOVFF  01,64
....................    SlaveA0Tx[1]=(Temperatura-((int8)Temperatura))*10; 
03B88:  MOVFF  316,3D7
03B8C:  MOVFF  315,3D6
03B90:  MOVFF  314,3D5
03B94:  MOVFF  313,3D4
03B98:  RCALL  3B36
03B9A:  MOVLB  3
03B9C:  CLRF   xD5
03B9E:  MOVFF  01,3D4
03BA2:  MOVLB  0
03BA4:  CALL   16F8
03BA8:  BSF    FD8.1
03BAA:  MOVFF  316,3D7
03BAE:  MOVFF  315,3D6
03BB2:  MOVFF  314,3D5
03BB6:  MOVFF  313,3D4
03BBA:  MOVFF  03,3DB
03BBE:  MOVFF  02,3DA
03BC2:  MOVFF  01,3D9
03BC6:  MOVFF  00,3D8
03BCA:  CALL   188C
03BCE:  MOVFF  00,3D4
03BD2:  MOVFF  01,3D5
03BD6:  MOVFF  02,3D6
03BDA:  MOVFF  03,3D7
03BDE:  MOVFF  03,3DD
03BE2:  MOVFF  02,3DC
03BE6:  MOVFF  01,3DB
03BEA:  MOVFF  00,3DA
03BEE:  MOVLB  3
03BF0:  CLRF   xE1
03BF2:  CLRF   xE0
03BF4:  MOVLW  20
03BF6:  MOVWF  xDF
03BF8:  MOVLW  82
03BFA:  MOVWF  xDE
03BFC:  MOVLB  0
03BFE:  RCALL  350E
03C00:  MOVFF  03,3D7
03C04:  MOVFF  02,3D6
03C08:  MOVFF  01,3D5
03C0C:  MOVFF  00,3D4
03C10:  RCALL  3B36
03C12:  MOVFF  01,65
....................    SlaveA0Tx[2]=make8((int16)PresionCamara,0); 
03C16:  MOVFF  34E,66
03C1A:  MOVLB  0
....................    SlaveA0Tx[3]=make8((int16)PresionCamara,1); 
03C1C:  MOVFF  34F,67
03C20:  MOVLB  0
....................    SlaveA0Tx[4]=make8((int16)PresionPreCamara,0); 
03C22:  MOVFF  350,68
03C26:  MOVLB  0
....................    SlaveA0Tx[5]=make8((int16)PresionPreCamara,1); 
03C28:  MOVFF  351,69
03C2C:  MOVLB  0
....................    SlaveA0Tx[6]=(int8)Tpulso*10; 
03C2E:  MOVFF  2E6,3D7
03C32:  MOVFF  2E5,3D6
03C36:  MOVFF  2E4,3D5
03C3A:  MOVFF  2E3,3D4
03C3E:  RCALL  3B36
03C40:  MOVF   01,W
03C42:  MULLW  0A
03C44:  MOVFF  FF3,6A
....................    SlaveA0Tx[7]=HIG; 
03C48:  BSF    F94.0
03C4A:  CLRF   x6B
03C4C:  BTFSC  F82.0
03C4E:  INCF   x6B,F
....................    SlaveA0Tx[8]=LOW; 
03C50:  BSF    F94.1
03C52:  CLRF   x6C
03C54:  BTFSC  F82.1
03C56:  INCF   x6C,F
....................    SlaveA0Tx[9]=TERM; 
03C58:  BSF    F93.5
03C5A:  CLRF   x6D
03C5C:  BTFSS  F81.5
03C5E:  INCF   x6D,F
....................    SlaveA0Tx[10]=DOOR; 
03C60:  BSF    F93.6
03C62:  CLRF   x6E
03C64:  BTFSS  F81.6
03C66:  INCF   x6E,F
....................    SlaveA0Tx[11]=STOP; 
03C68:  BSF    F93.7
03C6A:  CLRF   x6F
03C6C:  BTFSS  F81.7
03C6E:  INCF   x6F,F
....................    SlaveA0Tx[12]=(int8)error; 
03C70:  MOVFF  2EA,3D7
03C74:  MOVFF  2E9,3D6
03C78:  MOVFF  2E8,3D5
03C7C:  MOVFF  2E7,3D4
03C80:  RCALL  3B36
03C82:  MOVFF  01,70
....................    SlaveA0Tx[13]=CicloSeleccionado; 
03C86:  MOVFF  33B,71
....................    SlaveA0Tx[14]=SetTime; 
03C8A:  MOVFF  379,72
....................    SlaveA0Tx[15]=DiaTx; 
03C8E:  MOVFF  374,73
....................    SlaveA0Tx[16]=MesTx; 
03C92:  MOVFF  373,74
....................    SlaveA0Tx[17]=YearTx; 
03C96:  MOVFF  372,75
....................    SlaveA0Tx[18]=HoraTx; 
03C9A:  MOVFF  375,76
....................    SlaveA0Tx[19]=MinutoTx; 
03C9E:  MOVFF  376,77
....................    SlaveA0Tx[20]=SegundoTx; 
03CA2:  MOVFF  377,78
....................    SlaveA0Tx[21]=Imprime; 
03CA6:  MOVFF  37A,79
.................... } 
03CAA:  GOTO   3D80 (RETURN)
....................  
.................... void Lee_Vector(void){ 
....................    /*Dia=txbuf[0]; 
....................    Mess=txbuf[1]; 
....................    Year=txbuf[2]; 
....................    Hora=txbuf[3]; 
....................    Minuto=txbuf[4]; 
....................    Segundo=txbuf[5]; 
....................    dow=txbuf[6];*/ 
.................... } 
....................  
.................... void Envio_Esclavos(void){ 
....................    Carga_Vector(); 
*
03D7E:  BRA    3B72
....................    for(i=0;i<22;i++) 
03D80:  MOVLB  3
03D82:  CLRF   x38
03D84:  MOVF   x38,W
03D86:  SUBLW  15
03D88:  BNC   3DBA
....................    { 
....................       direccion=0xA0; 
03D8A:  MOVLW  A0
03D8C:  MOVLB  0
03D8E:  MOVWF  x85
....................       Envio_I2C(direccion,i,SlaveA0Tx[i]); 
03D90:  CLRF   03
03D92:  MOVLB  3
03D94:  MOVF   x38,W
03D96:  ADDLW  64
03D98:  MOVWF  FE9
03D9A:  MOVLW  00
03D9C:  ADDWFC 03,W
03D9E:  MOVWF  FEA
03DA0:  MOVFF  FEF,3D4
03DA4:  MOVFF  85,3D5
03DA8:  MOVFF  338,3D6
03DAC:  MOVFF  3D4,3D7
03DB0:  MOVLB  0
03DB2:  BRA    3D24
....................    }  
03DB4:  MOVLB  3
03DB6:  INCF   x38,F
03DB8:  BRA    3D84
.................... } 
03DBA:  MOVLB  0
03DBC:  RETLW  00
.................... void Lectura_Esclavos(void){ 
....................    //for(i=0;i<7;i++) 
....................    //{ 
....................    //   direccion=0xA0;                        //Direccin en el bus I2c 
....................    //   posicion=i;                         //Posicin de memoria a leer 
....................    //   Lectura_I2C(direccion, posicion, dato);    //Lectura por I2C 
....................    //   txbuf[i]=(int8)dato; 
....................    //} 
....................    //Lee_Vector(); 
.................... } 
....................  
.................... void LeeEEPROM(){ 
.................... //Lectura EEPROM//-------------------------- 
....................    Testerilizacionp[0]=read_eeprom(0); 
*
01B04:  MOVFF  FF2,3C9
01B08:  BCF    FF2.6
01B0A:  BCF    FF2.7
01B0C:  CLRF   FAA
01B0E:  CLRF   FA9
01B10:  BCF    FA6.6
01B12:  BCF    FA6.7
01B14:  BSF    FA6.0
01B16:  MOVF   FA8,W
01B18:  MOVLB  3
01B1A:  BTFSC  xC9.6
01B1C:  BSF    FF2.6
01B1E:  BTFSC  xC9.7
01B20:  BSF    FF2.7
01B22:  MOVLB  0
01B24:  MOVWF  xB5
....................    delay_ms(10); 
01B26:  MOVLW  0A
01B28:  MOVLB  3
01B2A:  MOVWF  xD4
01B2C:  MOVLB  0
01B2E:  RCALL  16D0
....................    Testerilizacionp[1]=read_eeprom(1); 
01B30:  MOVFF  FF2,3C9
01B34:  BCF    FF2.6
01B36:  BCF    FF2.7
01B38:  CLRF   FAA
01B3A:  MOVLW  01
01B3C:  MOVWF  FA9
01B3E:  BCF    FA6.6
01B40:  BCF    FA6.7
01B42:  BSF    FA6.0
01B44:  MOVF   FA8,W
01B46:  MOVLB  3
01B48:  BTFSC  xC9.6
01B4A:  BSF    FF2.6
01B4C:  BTFSC  xC9.7
01B4E:  BSF    FF2.7
01B50:  MOVLB  0
01B52:  MOVWF  xB6
....................    delay_ms(10); 
01B54:  MOVLW  0A
01B56:  MOVLB  3
01B58:  MOVWF  xD4
01B5A:  MOVLB  0
01B5C:  RCALL  16D0
....................    Testerilizacionp[2]=read_eeprom(2); 
01B5E:  MOVFF  FF2,3C9
01B62:  BCF    FF2.6
01B64:  BCF    FF2.7
01B66:  CLRF   FAA
01B68:  MOVLW  02
01B6A:  MOVWF  FA9
01B6C:  BCF    FA6.6
01B6E:  BCF    FA6.7
01B70:  BSF    FA6.0
01B72:  MOVF   FA8,W
01B74:  MOVLB  3
01B76:  BTFSC  xC9.6
01B78:  BSF    FF2.6
01B7A:  BTFSC  xC9.7
01B7C:  BSF    FF2.7
01B7E:  MOVLB  0
01B80:  MOVWF  xB7
....................    delay_ms(10); 
01B82:  MOVLW  0A
01B84:  MOVLB  3
01B86:  MOVWF  xD4
01B88:  MOVLB  0
01B8A:  RCALL  16D0
....................    Testerilizacionp[3]=read_eeprom(3); 
01B8C:  MOVFF  FF2,3C9
01B90:  BCF    FF2.6
01B92:  BCF    FF2.7
01B94:  CLRF   FAA
01B96:  MOVLW  03
01B98:  MOVWF  FA9
01B9A:  BCF    FA6.6
01B9C:  BCF    FA6.7
01B9E:  BSF    FA6.0
01BA0:  MOVF   FA8,W
01BA2:  MOVLB  3
01BA4:  BTFSC  xC9.6
01BA6:  BSF    FF2.6
01BA8:  BTFSC  xC9.7
01BAA:  BSF    FF2.7
01BAC:  MOVLB  0
01BAE:  MOVWF  xB8
....................    delay_ms(10); 
01BB0:  MOVLW  0A
01BB2:  MOVLB  3
01BB4:  MOVWF  xD4
01BB6:  MOVLB  0
01BB8:  RCALL  16D0
....................    Tsecadop[0]=read_eeprom(4); 
01BBA:  MOVFF  FF2,3C9
01BBE:  BCF    FF2.6
01BC0:  BCF    FF2.7
01BC2:  CLRF   FAA
01BC4:  MOVLW  04
01BC6:  MOVWF  FA9
01BC8:  BCF    FA6.6
01BCA:  BCF    FA6.7
01BCC:  BSF    FA6.0
01BCE:  MOVF   FA8,W
01BD0:  MOVLB  3
01BD2:  BTFSC  xC9.6
01BD4:  BSF    FF2.6
01BD6:  BTFSC  xC9.7
01BD8:  BSF    FF2.7
01BDA:  MOVLB  0
01BDC:  MOVWF  xBE
....................    delay_ms(10); 
01BDE:  MOVLW  0A
01BE0:  MOVLB  3
01BE2:  MOVWF  xD4
01BE4:  MOVLB  0
01BE6:  RCALL  16D0
....................    Tsecadop[1]=read_eeprom(5); 
01BE8:  MOVFF  FF2,3C9
01BEC:  BCF    FF2.6
01BEE:  BCF    FF2.7
01BF0:  CLRF   FAA
01BF2:  MOVLW  05
01BF4:  MOVWF  FA9
01BF6:  BCF    FA6.6
01BF8:  BCF    FA6.7
01BFA:  BSF    FA6.0
01BFC:  MOVF   FA8,W
01BFE:  MOVLB  3
01C00:  BTFSC  xC9.6
01C02:  BSF    FF2.6
01C04:  BTFSC  xC9.7
01C06:  BSF    FF2.7
01C08:  MOVLB  0
01C0A:  MOVWF  xBF
....................    delay_ms(10); 
01C0C:  MOVLW  0A
01C0E:  MOVLB  3
01C10:  MOVWF  xD4
01C12:  MOVLB  0
01C14:  RCALL  16D0
....................    Tsecadop[2]=read_eeprom(6); 
01C16:  MOVFF  FF2,3C9
01C1A:  BCF    FF2.6
01C1C:  BCF    FF2.7
01C1E:  CLRF   FAA
01C20:  MOVLW  06
01C22:  MOVWF  FA9
01C24:  BCF    FA6.6
01C26:  BCF    FA6.7
01C28:  BSF    FA6.0
01C2A:  MOVF   FA8,W
01C2C:  MOVLB  3
01C2E:  BTFSC  xC9.6
01C30:  BSF    FF2.6
01C32:  BTFSC  xC9.7
01C34:  BSF    FF2.7
01C36:  MOVLB  0
01C38:  MOVWF  xC0
....................    delay_ms(10); 
01C3A:  MOVLW  0A
01C3C:  MOVLB  3
01C3E:  MOVWF  xD4
01C40:  MOVLB  0
01C42:  RCALL  16D0
....................    Tsecadop[3]=read_eeprom(7); 
01C44:  MOVFF  FF2,3C9
01C48:  BCF    FF2.6
01C4A:  BCF    FF2.7
01C4C:  CLRF   FAA
01C4E:  MOVLW  07
01C50:  MOVWF  FA9
01C52:  BCF    FA6.6
01C54:  BCF    FA6.7
01C56:  BSF    FA6.0
01C58:  MOVF   FA8,W
01C5A:  MOVLB  3
01C5C:  BTFSC  xC9.6
01C5E:  BSF    FF2.6
01C60:  BTFSC  xC9.7
01C62:  BSF    FF2.7
01C64:  MOVLB  0
01C66:  MOVWF  xC1
....................    delay_ms(10); 
01C68:  MOVLW  0A
01C6A:  MOVLB  3
01C6C:  MOVWF  xD4
01C6E:  MOVLB  0
01C70:  RCALL  16D0
....................    Setpoint=read_eeprom(8); 
01C72:  MOVFF  FF2,3C9
01C76:  BCF    FF2.6
01C78:  BCF    FF2.7
01C7A:  CLRF   FAA
01C7C:  MOVLW  08
01C7E:  MOVWF  FA9
01C80:  BCF    FA6.6
01C82:  BCF    FA6.7
01C84:  BSF    FA6.0
01C86:  MOVF   FA8,W
01C88:  MOVLB  3
01C8A:  BTFSC  xC9.6
01C8C:  BSF    FF2.6
01C8E:  BTFSC  xC9.7
01C90:  BSF    FF2.7
01C92:  MOVWF  x3C
....................    delay_ms(10); 
01C94:  MOVLW  0A
01C96:  MOVWF  xD4
01C98:  MOVLB  0
01C9A:  RCALL  16D0
....................    Nivel=read_eeprom(9); 
01C9C:  MOVFF  FF2,3C9
01CA0:  BCF    FF2.6
01CA2:  BCF    FF2.7
01CA4:  CLRF   FAA
01CA6:  MOVLW  09
01CA8:  MOVWF  FA9
01CAA:  BCF    FA6.6
01CAC:  BCF    FA6.7
01CAE:  BSF    FA6.0
01CB0:  MOVF   FA8,W
01CB2:  MOVLB  3
01CB4:  BTFSC  xC9.6
01CB6:  BSF    FF2.6
01CB8:  BTFSC  xC9.7
01CBA:  BSF    FF2.7
01CBC:  CLRF   x4B
01CBE:  MOVWF  x4A
....................    delay_ms(10); 
01CC0:  MOVLW  0A
01CC2:  MOVWF  xD4
01CC4:  MOVLB  0
01CC6:  RCALL  16D0
....................    Password[0]=read_eeprom(10); 
01CC8:  MOVFF  FF2,3C9
01CCC:  BCF    FF2.6
01CCE:  BCF    FF2.7
01CD0:  CLRF   FAA
01CD2:  MOVLW  0A
01CD4:  MOVWF  FA9
01CD6:  BCF    FA6.6
01CD8:  BCF    FA6.7
01CDA:  BSF    FA6.0
01CDC:  MOVF   FA8,W
01CDE:  MOVLB  3
01CE0:  BTFSC  xC9.6
01CE2:  BSF    FF2.6
01CE4:  BTFSC  xC9.7
01CE6:  BSF    FF2.7
01CE8:  MOVWF  x5A
....................    delay_ms(10); 
01CEA:  MOVLW  0A
01CEC:  MOVWF  xD4
01CEE:  MOVLB  0
01CF0:  RCALL  16D0
....................    Password[1]=read_eeprom(11); 
01CF2:  MOVFF  FF2,3C9
01CF6:  BCF    FF2.6
01CF8:  BCF    FF2.7
01CFA:  CLRF   FAA
01CFC:  MOVLW  0B
01CFE:  MOVWF  FA9
01D00:  BCF    FA6.6
01D02:  BCF    FA6.7
01D04:  BSF    FA6.0
01D06:  MOVF   FA8,W
01D08:  MOVLB  3
01D0A:  BTFSC  xC9.6
01D0C:  BSF    FF2.6
01D0E:  BTFSC  xC9.7
01D10:  BSF    FF2.7
01D12:  MOVWF  x5B
....................    delay_ms(10); 
01D14:  MOVLW  0A
01D16:  MOVWF  xD4
01D18:  MOVLB  0
01D1A:  RCALL  16D0
....................    Password[2]=read_eeprom(12); 
01D1C:  MOVFF  FF2,3C9
01D20:  BCF    FF2.6
01D22:  BCF    FF2.7
01D24:  CLRF   FAA
01D26:  MOVLW  0C
01D28:  MOVWF  FA9
01D2A:  BCF    FA6.6
01D2C:  BCF    FA6.7
01D2E:  BSF    FA6.0
01D30:  MOVF   FA8,W
01D32:  MOVLB  3
01D34:  BTFSC  xC9.6
01D36:  BSF    FF2.6
01D38:  BTFSC  xC9.7
01D3A:  BSF    FF2.7
01D3C:  MOVWF  x5C
....................    delay_ms(10); 
01D3E:  MOVLW  0A
01D40:  MOVWF  xD4
01D42:  MOVLB  0
01D44:  RCALL  16D0
....................    Password[3]=read_eeprom(13); 
01D46:  MOVFF  FF2,3C9
01D4A:  BCF    FF2.6
01D4C:  BCF    FF2.7
01D4E:  CLRF   FAA
01D50:  MOVLW  0D
01D52:  MOVWF  FA9
01D54:  BCF    FA6.6
01D56:  BCF    FA6.7
01D58:  BSF    FA6.0
01D5A:  MOVF   FA8,W
01D5C:  MOVLB  3
01D5E:  BTFSC  xC9.6
01D60:  BSF    FF2.6
01D62:  BTFSC  xC9.7
01D64:  BSF    FF2.7
01D66:  MOVWF  x5D
....................    delay_ms(10); 
01D68:  MOVLW  0A
01D6A:  MOVWF  xD4
01D6C:  MOVLB  0
01D6E:  RCALL  16D0
....................    Ganancia=read_eeprom(20); 
01D70:  MOVFF  FF2,3C9
01D74:  BCF    FF2.6
01D76:  BCF    FF2.7
01D78:  CLRF   FAA
01D7A:  MOVLW  14
01D7C:  MOVWF  FA9
01D7E:  BCF    FA6.6
01D80:  BCF    FA6.7
01D82:  BSF    FA6.0
01D84:  MOVF   FA8,W
01D86:  MOVLB  3
01D88:  BTFSC  xC9.6
01D8A:  BSF    FF2.6
01D8C:  BTFSC  xC9.7
01D8E:  BSF    FF2.7
01D90:  CLRF   xD5
01D92:  MOVWF  xD4
01D94:  MOVLB  0
01D96:  RCALL  16F8
01D98:  MOVFF  03,2FA
01D9C:  MOVFF  02,2F9
01DA0:  MOVFF  01,2F8
01DA4:  MOVFF  00,2F7
....................    delay_ms(10); 
01DA8:  MOVLW  0A
01DAA:  MOVLB  3
01DAC:  MOVWF  xD4
01DAE:  MOVLB  0
01DB0:  RCALL  16D0
....................    Ajuste=read_eeprom(21); 
01DB2:  MOVFF  FF2,3C9
01DB6:  BCF    FF2.6
01DB8:  BCF    FF2.7
01DBA:  CLRF   FAA
01DBC:  MOVLW  15
01DBE:  MOVWF  FA9
01DC0:  BCF    FA6.6
01DC2:  BCF    FA6.7
01DC4:  BSF    FA6.0
01DC6:  MOVF   FA8,W
01DC8:  MOVLB  3
01DCA:  BTFSC  xC9.6
01DCC:  BSF    FF2.6
01DCE:  BTFSC  xC9.7
01DD0:  BSF    FF2.7
01DD2:  MOVLB  2
01DD4:  MOVWF  xCF
....................    delay_ms(10); 
01DD6:  MOVLW  0A
01DD8:  MOVLB  3
01DDA:  MOVWF  xD4
01DDC:  MOVLB  0
01DDE:  RCALL  16D0
....................    Ajusten=read_eeprom(22); 
01DE0:  MOVFF  FF2,3C9
01DE4:  BCF    FF2.6
01DE6:  BCF    FF2.7
01DE8:  CLRF   FAA
01DEA:  MOVLW  16
01DEC:  MOVWF  FA9
01DEE:  BCF    FA6.6
01DF0:  BCF    FA6.7
01DF2:  BSF    FA6.0
01DF4:  MOVF   FA8,W
01DF6:  MOVLB  3
01DF8:  BTFSC  xC9.6
01DFA:  BSF    FF2.6
01DFC:  BTFSC  xC9.7
01DFE:  BSF    FF2.7
01E00:  MOVLB  2
01E02:  MOVWF  xD0
....................    delay_ms(10); 
01E04:  MOVLW  0A
01E06:  MOVLB  3
01E08:  MOVWF  xD4
01E0A:  MOVLB  0
01E0C:  RCALL  16D0
....................    //Desvio=read_eeprom(23); 
....................    MediaMovil=read_eeprom(24); 
01E0E:  MOVFF  FF2,3C9
01E12:  BCF    FF2.6
01E14:  BCF    FF2.7
01E16:  CLRF   FAA
01E18:  MOVLW  18
01E1A:  MOVWF  FA9
01E1C:  BCF    FA6.6
01E1E:  BCF    FA6.7
01E20:  BSF    FA6.0
01E22:  MOVF   FA8,W
01E24:  MOVLB  3
01E26:  BTFSC  xC9.6
01E28:  BSF    FF2.6
01E2A:  BTFSC  xC9.7
01E2C:  BSF    FF2.7
01E2E:  MOVLB  2
01E30:  MOVWF  xD1
....................    delay_ms(10); 
01E32:  MOVLW  0A
01E34:  MOVLB  3
01E36:  MOVWF  xD4
01E38:  MOVLB  0
01E3A:  RCALL  16D0
....................    Tciclo=read_eeprom(25); 
01E3C:  MOVFF  FF2,3C9
01E40:  BCF    FF2.6
01E42:  BCF    FF2.7
01E44:  CLRF   FAA
01E46:  MOVLW  19
01E48:  MOVWF  FA9
01E4A:  BCF    FA6.6
01E4C:  BCF    FA6.7
01E4E:  BSF    FA6.0
01E50:  MOVF   FA8,W
01E52:  MOVLB  3
01E54:  BTFSC  xC9.6
01E56:  BSF    FF2.6
01E58:  BTFSC  xC9.7
01E5A:  BSF    FF2.7
01E5C:  CLRF   xD5
01E5E:  MOVWF  xD4
01E60:  MOVLB  0
01E62:  RCALL  16F8
01E64:  MOVFF  03,2E2
01E68:  MOVFF  02,2E1
01E6C:  MOVFF  01,2E0
01E70:  MOVFF  00,2DF
....................    delay_ms(10); 
01E74:  MOVLW  0A
01E76:  MOVLB  3
01E78:  MOVWF  xD4
01E7A:  MOVLB  0
01E7C:  RCALL  16D0
....................    Integral=read_eeprom(26); 
01E7E:  MOVFF  FF2,3C9
01E82:  BCF    FF2.6
01E84:  BCF    FF2.7
01E86:  CLRF   FAA
01E88:  MOVLW  1A
01E8A:  MOVWF  FA9
01E8C:  BCF    FA6.6
01E8E:  BCF    FA6.7
01E90:  BSF    FA6.0
01E92:  MOVF   FA8,W
01E94:  MOVLB  3
01E96:  BTFSC  xC9.6
01E98:  BSF    FF2.6
01E9A:  BTFSC  xC9.7
01E9C:  BSF    FF2.7
01E9E:  MOVWF  x27
....................    delay_ms(10); 
01EA0:  MOVLW  0A
01EA2:  MOVWF  xD4
01EA4:  MOVLB  0
01EA6:  RCALL  16D0
....................    Derivativo=read_eeprom(27); 
01EA8:  MOVFF  FF2,3C9
01EAC:  BCF    FF2.6
01EAE:  BCF    FF2.7
01EB0:  CLRF   FAA
01EB2:  MOVLW  1B
01EB4:  MOVWF  FA9
01EB6:  BCF    FA6.6
01EB8:  BCF    FA6.7
01EBA:  BSF    FA6.0
01EBC:  MOVF   FA8,W
01EBE:  MOVLB  3
01EC0:  BTFSC  xC9.6
01EC2:  BSF    FF2.6
01EC4:  BTFSC  xC9.7
01EC6:  BSF    FF2.7
01EC8:  MOVWF  x28
....................    delay_ms(10); 
01ECA:  MOVLW  0A
01ECC:  MOVWF  xD4
01ECE:  MOVLB  0
01ED0:  CALL   16D0
....................    Temporal=read_eeprom(29); 
01ED4:  MOVFF  FF2,3C9
01ED8:  BCF    FF2.6
01EDA:  BCF    FF2.7
01EDC:  CLRF   FAA
01EDE:  MOVLW  1D
01EE0:  MOVWF  FA9
01EE2:  BCF    FA6.6
01EE4:  BCF    FA6.7
01EE6:  BSF    FA6.0
01EE8:  MOVF   FA8,W
01EEA:  MOVLB  3
01EEC:  BTFSC  xC9.6
01EEE:  BSF    FF2.6
01EF0:  BTFSC  xC9.7
01EF2:  BSF    FF2.7
01EF4:  CLRF   xD5
01EF6:  MOVWF  xD4
01EF8:  MOVLB  0
01EFA:  CALL   16F8
01EFE:  MOVFF  03,2B0
01F02:  MOVFF  02,2AF
01F06:  MOVFF  01,2AE
01F0A:  MOVFF  00,2AD
....................    Temporal=Temporal/10.0; 
01F0E:  MOVFF  2B0,3D1
01F12:  MOVFF  2AF,3D0
01F16:  MOVFF  2AE,3CF
01F1A:  MOVFF  2AD,3CE
01F1E:  MOVLB  3
01F20:  CLRF   xD5
01F22:  CLRF   xD4
01F24:  MOVLW  20
01F26:  MOVWF  xD3
01F28:  MOVLW  82
01F2A:  MOVWF  xD2
01F2C:  MOVLB  0
01F2E:  CALL   172E
01F32:  MOVFF  03,2B0
01F36:  MOVFF  02,2AF
01F3A:  MOVFF  01,2AE
01F3E:  MOVFF  00,2AD
....................    delay_ms(10); 
01F42:  MOVLW  0A
01F44:  MOVLB  3
01F46:  MOVWF  xD4
01F48:  MOVLB  0
01F4A:  CALL   16D0
....................    Gain=read_eeprom(28)+Temporal; 
01F4E:  MOVFF  FF2,3C9
01F52:  BCF    FF2.6
01F54:  BCF    FF2.7
01F56:  CLRF   FAA
01F58:  MOVLW  1C
01F5A:  MOVWF  FA9
01F5C:  BCF    FA6.6
01F5E:  BCF    FA6.7
01F60:  BSF    FA6.0
01F62:  MOVF   FA8,W
01F64:  MOVLB  3
01F66:  BTFSC  xC9.6
01F68:  BSF    FF2.6
01F6A:  BTFSC  xC9.7
01F6C:  BSF    FF2.7
01F6E:  CLRF   xD5
01F70:  MOVWF  xD4
01F72:  MOVLB  0
01F74:  CALL   16F8
01F78:  BCF    FD8.1
01F7A:  MOVFF  03,3D7
01F7E:  MOVFF  02,3D6
01F82:  MOVFF  01,3D5
01F86:  MOVFF  00,3D4
01F8A:  MOVFF  2B0,3DB
01F8E:  MOVFF  2AF,3DA
01F92:  MOVFF  2AE,3D9
01F96:  MOVFF  2AD,3D8
01F9A:  RCALL  188C
01F9C:  MOVFF  03,2A8
01FA0:  MOVFF  02,2A7
01FA4:  MOVFF  01,2A6
01FA8:  MOVFF  00,2A5
....................    delay_ms(10); 
01FAC:  MOVLW  0A
01FAE:  MOVLB  3
01FB0:  MOVWF  xD4
01FB2:  MOVLB  0
01FB4:  CALL   16D0
....................    R1=make16(read_eeprom(31),read_eeprom(30)); 
01FB8:  MOVFF  FF2,3C9
01FBC:  BCF    FF2.6
01FBE:  BCF    FF2.7
01FC0:  CLRF   FAA
01FC2:  MOVLW  1F
01FC4:  MOVWF  FA9
01FC6:  BCF    FA6.6
01FC8:  BCF    FA6.7
01FCA:  BSF    FA6.0
01FCC:  MOVF   FA8,W
01FCE:  MOVLB  3
01FD0:  BTFSC  xC9.6
01FD2:  BSF    FF2.6
01FD4:  BTFSC  xC9.7
01FD6:  BSF    FF2.7
01FD8:  MOVWF  xCA
01FDA:  MOVFF  FF2,3CB
01FDE:  BCF    FF2.6
01FE0:  BCF    FF2.7
01FE2:  CLRF   FAA
01FE4:  MOVLW  1E
01FE6:  MOVWF  FA9
01FE8:  BCF    FA6.6
01FEA:  BCF    FA6.7
01FEC:  BSF    FA6.0
01FEE:  MOVF   FA8,W
01FF0:  BTFSC  xCB.6
01FF2:  BSF    FF2.6
01FF4:  BTFSC  xCB.7
01FF6:  BSF    FF2.7
01FF8:  MOVWF  xCC
01FFA:  MOVFF  3CA,03
01FFE:  MOVF   xCC,W
02000:  MOVWF  xD4
02002:  MOVFF  03,3D5
02006:  MOVLB  0
02008:  CALL   16F8
0200C:  MOVFF  03,2B4
02010:  MOVFF  02,2B3
02014:  MOVFF  01,2B2
02018:  MOVFF  00,2B1
....................    delay_ms(10); 
0201C:  MOVLW  0A
0201E:  MOVLB  3
02020:  MOVWF  xD4
02022:  MOVLB  0
02024:  CALL   16D0
....................    Temporal=read_eeprom(33); 
02028:  MOVFF  FF2,3C9
0202C:  BCF    FF2.6
0202E:  BCF    FF2.7
02030:  CLRF   FAA
02032:  MOVLW  21
02034:  MOVWF  FA9
02036:  BCF    FA6.6
02038:  BCF    FA6.7
0203A:  BSF    FA6.0
0203C:  MOVF   FA8,W
0203E:  MOVLB  3
02040:  BTFSC  xC9.6
02042:  BSF    FF2.6
02044:  BTFSC  xC9.7
02046:  BSF    FF2.7
02048:  CLRF   xD5
0204A:  MOVWF  xD4
0204C:  MOVLB  0
0204E:  CALL   16F8
02052:  MOVFF  03,2B0
02056:  MOVFF  02,2AF
0205A:  MOVFF  01,2AE
0205E:  MOVFF  00,2AD
....................    Temporal=Temporal/10.0; 
02062:  MOVFF  2B0,3D1
02066:  MOVFF  2AF,3D0
0206A:  MOVFF  2AE,3CF
0206E:  MOVFF  2AD,3CE
02072:  MOVLB  3
02074:  CLRF   xD5
02076:  CLRF   xD4
02078:  MOVLW  20
0207A:  MOVWF  xD3
0207C:  MOVLW  82
0207E:  MOVWF  xD2
02080:  MOVLB  0
02082:  CALL   172E
02086:  MOVFF  03,2B0
0208A:  MOVFF  02,2AF
0208E:  MOVFF  01,2AE
02092:  MOVFF  00,2AD
....................    delay_ms(10); 
02096:  MOVLW  0A
02098:  MOVLB  3
0209A:  MOVWF  xD4
0209C:  MOVLB  0
0209E:  CALL   16D0
....................    RPT100=read_eeprom(32)+Temporal; 
020A2:  MOVFF  FF2,3C9
020A6:  BCF    FF2.6
020A8:  BCF    FF2.7
020AA:  CLRF   FAA
020AC:  MOVLW  20
020AE:  MOVWF  FA9
020B0:  BCF    FA6.6
020B2:  BCF    FA6.7
020B4:  BSF    FA6.0
020B6:  MOVF   FA8,W
020B8:  MOVLB  3
020BA:  BTFSC  xC9.6
020BC:  BSF    FF2.6
020BE:  BTFSC  xC9.7
020C0:  BSF    FF2.7
020C2:  CLRF   xD5
020C4:  MOVWF  xD4
020C6:  MOVLB  0
020C8:  CALL   16F8
020CC:  BCF    FD8.1
020CE:  MOVFF  03,3D7
020D2:  MOVFF  02,3D6
020D6:  MOVFF  01,3D5
020DA:  MOVFF  00,3D4
020DE:  MOVFF  2B0,3DB
020E2:  MOVFF  2AF,3DA
020E6:  MOVFF  2AE,3D9
020EA:  MOVFF  2AD,3D8
020EE:  CALL   188C
020F2:  MOVFF  03,2AC
020F6:  MOVFF  02,2AB
020FA:  MOVFF  01,2AA
020FE:  MOVFF  00,2A9
....................    delay_ms(10); 
02102:  MOVLW  0A
02104:  MOVLB  3
02106:  MOVWF  xD4
02108:  MOVLB  0
0210A:  CALL   16D0
....................    CiclosL=read_eeprom(37); 
0210E:  MOVFF  FF2,3C9
02112:  BCF    FF2.6
02114:  BCF    FF2.7
02116:  CLRF   FAA
02118:  MOVLW  25
0211A:  MOVWF  FA9
0211C:  BCF    FA6.6
0211E:  BCF    FA6.7
02120:  BSF    FA6.0
02122:  MOVF   FA8,W
02124:  MOVLB  3
02126:  BTFSC  xC9.6
02128:  BSF    FF2.6
0212A:  BTFSC  xC9.7
0212C:  BSF    FF2.7
0212E:  MOVWF  x39
....................    delay_ms(10); 
02130:  MOVLW  0A
02132:  MOVWF  xD4
02134:  MOVLB  0
02136:  CALL   16D0
....................    CiclosH=read_eeprom(38); 
0213A:  MOVFF  FF2,3C9
0213E:  BCF    FF2.6
02140:  BCF    FF2.7
02142:  CLRF   FAA
02144:  MOVLW  26
02146:  MOVWF  FA9
02148:  BCF    FA6.6
0214A:  BCF    FA6.7
0214C:  BSF    FA6.0
0214E:  MOVF   FA8,W
02150:  MOVLB  3
02152:  BTFSC  xC9.6
02154:  BSF    FF2.6
02156:  BTFSC  xC9.7
02158:  BSF    FF2.7
0215A:  MOVWF  x3A
....................    delay_ms(10); 
0215C:  MOVLW  0A
0215E:  MOVWF  xD4
02160:  MOVLB  0
02162:  CALL   16D0
....................    Ciclos=make16(CiclosH,CiclosL); 
02166:  MOVFF  33A,353
0216A:  MOVFF  339,352
....................    delay_ms(10); 
0216E:  MOVLW  0A
02170:  MOVLB  3
02172:  MOVWF  xD4
02174:  MOVLB  0
02176:  CALL   16D0
....................    TTrampa=read_eeprom(39); 
0217A:  MOVFF  FF2,3C9
0217E:  BCF    FF2.6
02180:  BCF    FF2.7
02182:  CLRF   FAA
02184:  MOVLW  27
02186:  MOVWF  FA9
02188:  BCF    FA6.6
0218A:  BCF    FA6.7
0218C:  BSF    FA6.0
0218E:  MOVF   FA8,W
02190:  MOVLB  3
02192:  BTFSC  xC9.6
02194:  BSF    FF2.6
02196:  BTFSC  xC9.7
02198:  BSF    FF2.7
0219A:  MOVLB  2
0219C:  MOVWF  xD2
....................    delay_ms(10); 
0219E:  MOVLW  0A
021A0:  MOVLB  3
021A2:  MOVWF  xD4
021A4:  MOVLB  0
021A6:  CALL   16D0
....................    ActivaImpresion=read_eeprom(40); 
021AA:  MOVFF  FF2,3C9
021AE:  BCF    FF2.6
021B0:  BCF    FF2.7
021B2:  CLRF   FAA
021B4:  MOVLW  28
021B6:  MOVWF  FA9
021B8:  BCF    FA6.6
021BA:  BCF    FA6.7
021BC:  BSF    FA6.0
021BE:  MOVF   FA8,W
021C0:  MOVLB  3
021C2:  BTFSC  xC9.6
021C4:  BSF    FF2.6
021C6:  BTFSC  xC9.7
021C8:  BSF    FF2.7
021CA:  MOVWF  x2E
....................    delay_ms(10); 
021CC:  MOVLW  0A
021CE:  MOVWF  xD4
021D0:  MOVLB  0
021D2:  CALL   16D0
....................    timpresion=read_eeprom(41); 
021D6:  MOVFF  FF2,3C9
021DA:  BCF    FF2.6
021DC:  BCF    FF2.7
021DE:  CLRF   FAA
021E0:  MOVLW  29
021E2:  MOVWF  FA9
021E4:  BCF    FA6.6
021E6:  BCF    FA6.7
021E8:  BSF    FA6.0
021EA:  MOVF   FA8,W
021EC:  MOVLB  3
021EE:  BTFSC  xC9.6
021F0:  BSF    FF2.6
021F2:  BTFSC  xC9.7
021F4:  BSF    FF2.7
021F6:  MOVWF  x2F
....................    delay_ms(10); 
021F8:  MOVLW  0A
021FA:  MOVWF  xD4
021FC:  MOVLB  0
021FE:  CALL   16D0
....................    G1=read_eeprom(42); 
02202:  MOVFF  FF2,3C9
02206:  BCF    FF2.6
02208:  BCF    FF2.7
0220A:  CLRF   FAA
0220C:  MOVLW  2A
0220E:  MOVWF  FA9
02210:  BCF    FA6.6
02212:  BCF    FA6.7
02214:  BSF    FA6.0
02216:  MOVF   FA8,W
02218:  MOVLB  3
0221A:  BTFSC  xC9.6
0221C:  BSF    FF2.6
0221E:  BTFSC  xC9.7
02220:  BSF    FF2.7
02222:  MOVWF  x7B
....................    delay_ms(10); 
02224:  MOVLW  0A
02226:  MOVWF  xD4
02228:  MOVLB  0
0222A:  CALL   16D0
....................    G2=read_eeprom(43); 
0222E:  MOVFF  FF2,3C9
02232:  BCF    FF2.6
02234:  BCF    FF2.7
02236:  CLRF   FAA
02238:  MOVLW  2B
0223A:  MOVWF  FA9
0223C:  BCF    FA6.6
0223E:  BCF    FA6.7
02240:  BSF    FA6.0
02242:  MOVF   FA8,W
02244:  MOVLB  3
02246:  BTFSC  xC9.6
02248:  BSF    FF2.6
0224A:  BTFSC  xC9.7
0224C:  BSF    FF2.7
0224E:  MOVWF  x7C
....................    delay_ms(10); 
02250:  MOVLW  0A
02252:  MOVWF  xD4
02254:  MOVLB  0
02256:  CALL   16D0
....................    sg1=read_eeprom(44); 
0225A:  MOVFF  FF2,3C9
0225E:  BCF    FF2.6
02260:  BCF    FF2.7
02262:  CLRF   FAA
02264:  MOVLW  2C
02266:  MOVWF  FA9
02268:  BCF    FA6.6
0226A:  BCF    FA6.7
0226C:  BSF    FA6.0
0226E:  MOVF   FA8,W
02270:  MOVLB  3
02272:  BTFSC  xC9.6
02274:  BSF    FF2.6
02276:  BTFSC  xC9.7
02278:  BSF    FF2.7
0227A:  MOVWF  x7D
....................    delay_ms(10); 
0227C:  MOVLW  0A
0227E:  MOVWF  xD4
02280:  MOVLB  0
02282:  CALL   16D0
....................    sg2=read_eeprom(45); 
02286:  MOVFF  FF2,3C9
0228A:  BCF    FF2.6
0228C:  BCF    FF2.7
0228E:  CLRF   FAA
02290:  MOVLW  2D
02292:  MOVWF  FA9
02294:  BCF    FA6.6
02296:  BCF    FA6.7
02298:  BSF    FA6.0
0229A:  MOVF   FA8,W
0229C:  MOVLB  3
0229E:  BTFSC  xC9.6
022A0:  BSF    FF2.6
022A2:  BTFSC  xC9.7
022A4:  BSF    FF2.7
022A6:  MOVWF  x7E
....................     
....................    for(i=0;i<4;i++){//Lee valores almacenados de ciclos personalizados 
022A8:  CLRF   x38
022AA:  MOVF   x38,W
022AC:  SUBLW  03
022AE:  BTFSS  FD8.0
022B0:  BRA    283C
....................       CiclosPersonalizados[i].Temperatura=read_eeprom(100+(i*8));  
022B2:  MOVF   x38,W
022B4:  MULLW  0B
022B6:  MOVF   FF3,W
022B8:  CLRF   xCA
022BA:  MOVWF  xC9
022BC:  MOVLW  9D
022BE:  ADDWF  xC9,W
022C0:  MOVWF  FE9
022C2:  MOVLW  03
022C4:  ADDWFC xCA,W
022C6:  MOVWF  FEA
022C8:  MOVF   x38,W
022CA:  MULLW  08
022CC:  MOVF   FF3,W
022CE:  ADDLW  64
022D0:  MOVWF  xCB
022D2:  MOVFF  FF2,3CC
022D6:  BCF    FF2.6
022D8:  BCF    FF2.7
022DA:  CLRF   FAA
022DC:  MOVFF  3CB,FA9
022E0:  BCF    FA6.6
022E2:  BCF    FA6.7
022E4:  BSF    FA6.0
022E6:  MOVF   FA8,W
022E8:  BTFSC  xCC.6
022EA:  BSF    FF2.6
022EC:  BTFSC  xCC.7
022EE:  BSF    FF2.7
022F0:  MOVWF  FEF
....................       CiclosPersonalizados[i].MinutoestH=read_eeprom(101+(i*8));  
022F2:  MOVF   x38,W
022F4:  MULLW  0B
022F6:  MOVF   FF3,W
022F8:  CLRF   xCA
022FA:  MOVWF  xC9
022FC:  MOVLW  01
022FE:  ADDWF  xC9,W
02300:  MOVWF  01
02302:  MOVLW  00
02304:  ADDWFC xCA,W
02306:  MOVWF  03
02308:  MOVF   01,W
0230A:  ADDLW  9D
0230C:  MOVWF  FE9
0230E:  MOVLW  03
02310:  ADDWFC 03,W
02312:  MOVWF  FEA
02314:  MOVF   x38,W
02316:  MULLW  08
02318:  MOVF   FF3,W
0231A:  ADDLW  65
0231C:  MOVWF  xCB
0231E:  MOVFF  FF2,3CC
02322:  BCF    FF2.6
02324:  BCF    FF2.7
02326:  CLRF   FAA
02328:  MOVFF  3CB,FA9
0232C:  BCF    FA6.6
0232E:  BCF    FA6.7
02330:  BSF    FA6.0
02332:  MOVF   FA8,W
02334:  BTFSC  xCC.6
02336:  BSF    FF2.6
02338:  BTFSC  xCC.7
0233A:  BSF    FF2.7
0233C:  MOVWF  FEF
....................       CiclosPersonalizados[i].MinutoestL=read_eeprom(102+(i*8));  
0233E:  MOVF   x38,W
02340:  MULLW  0B
02342:  MOVF   FF3,W
02344:  CLRF   xCA
02346:  MOVWF  xC9
02348:  MOVLW  02
0234A:  ADDWF  xC9,W
0234C:  MOVWF  01
0234E:  MOVLW  00
02350:  ADDWFC xCA,W
02352:  MOVWF  03
02354:  MOVF   01,W
02356:  ADDLW  9D
02358:  MOVWF  FE9
0235A:  MOVLW  03
0235C:  ADDWFC 03,W
0235E:  MOVWF  FEA
02360:  MOVF   x38,W
02362:  MULLW  08
02364:  MOVF   FF3,W
02366:  ADDLW  66
02368:  MOVWF  xCB
0236A:  MOVFF  FF2,3CC
0236E:  BCF    FF2.6
02370:  BCF    FF2.7
02372:  CLRF   FAA
02374:  MOVFF  3CB,FA9
02378:  BCF    FA6.6
0237A:  BCF    FA6.7
0237C:  BSF    FA6.0
0237E:  MOVF   FA8,W
02380:  BTFSC  xCC.6
02382:  BSF    FF2.6
02384:  BTFSC  xCC.7
02386:  BSF    FF2.7
02388:  MOVWF  FEF
....................       CiclosPersonalizados[i].Segundoest=read_eeprom(103+(i*8));  
0238A:  MOVF   x38,W
0238C:  MULLW  0B
0238E:  MOVF   FF3,W
02390:  CLRF   xCA
02392:  MOVWF  xC9
02394:  MOVLW  03
02396:  ADDWF  xC9,W
02398:  MOVWF  01
0239A:  MOVLW  00
0239C:  ADDWFC xCA,W
0239E:  MOVWF  03
023A0:  MOVF   01,W
023A2:  ADDLW  9D
023A4:  MOVWF  FE9
023A6:  MOVLW  03
023A8:  ADDWFC 03,W
023AA:  MOVWF  FEA
023AC:  MOVF   x38,W
023AE:  MULLW  08
023B0:  MOVF   FF3,W
023B2:  ADDLW  67
023B4:  MOVWF  xCB
023B6:  MOVFF  FF2,3CC
023BA:  BCF    FF2.6
023BC:  BCF    FF2.7
023BE:  CLRF   FAA
023C0:  MOVFF  3CB,FA9
023C4:  BCF    FA6.6
023C6:  BCF    FA6.7
023C8:  BSF    FA6.0
023CA:  MOVF   FA8,W
023CC:  BTFSC  xCC.6
023CE:  BSF    FF2.6
023D0:  BTFSC  xCC.7
023D2:  BSF    FF2.7
023D4:  MOVWF  FEF
....................       CiclosPersonalizados[i].Minutosec=read_eeprom(104+(i*8));  
023D6:  MOVF   x38,W
023D8:  MULLW  0B
023DA:  MOVF   FF3,W
023DC:  CLRF   xCA
023DE:  MOVWF  xC9
023E0:  MOVLW  04
023E2:  ADDWF  xC9,W
023E4:  MOVWF  01
023E6:  MOVLW  00
023E8:  ADDWFC xCA,W
023EA:  MOVWF  03
023EC:  MOVF   01,W
023EE:  ADDLW  9D
023F0:  MOVWF  FE9
023F2:  MOVLW  03
023F4:  ADDWFC 03,W
023F6:  MOVWF  FEA
023F8:  MOVF   x38,W
023FA:  MULLW  08
023FC:  MOVF   FF3,W
023FE:  ADDLW  68
02400:  MOVWF  xCB
02402:  MOVFF  FF2,3CC
02406:  BCF    FF2.6
02408:  BCF    FF2.7
0240A:  CLRF   FAA
0240C:  MOVFF  3CB,FA9
02410:  BCF    FA6.6
02412:  BCF    FA6.7
02414:  BSF    FA6.0
02416:  MOVF   FA8,W
02418:  BTFSC  xCC.6
0241A:  BSF    FF2.6
0241C:  BTFSC  xCC.7
0241E:  BSF    FF2.7
02420:  MOVWF  FEF
....................       CiclosPersonalizados[i].Segundosec=read_eeprom(105+(i*8));  
02422:  MOVF   x38,W
02424:  MULLW  0B
02426:  MOVF   FF3,W
02428:  CLRF   xCA
0242A:  MOVWF  xC9
0242C:  MOVLW  05
0242E:  ADDWF  xC9,W
02430:  MOVWF  01
02432:  MOVLW  00
02434:  ADDWFC xCA,W
02436:  MOVWF  03
02438:  MOVF   01,W
0243A:  ADDLW  9D
0243C:  MOVWF  FE9
0243E:  MOVLW  03
02440:  ADDWFC 03,W
02442:  MOVWF  FEA
02444:  MOVF   x38,W
02446:  MULLW  08
02448:  MOVF   FF3,W
0244A:  ADDLW  69
0244C:  MOVWF  xCB
0244E:  MOVFF  FF2,3CC
02452:  BCF    FF2.6
02454:  BCF    FF2.7
02456:  CLRF   FAA
02458:  MOVFF  3CB,FA9
0245C:  BCF    FA6.6
0245E:  BCF    FA6.7
02460:  BSF    FA6.0
02462:  MOVF   FA8,W
02464:  BTFSC  xCC.6
02466:  BSF    FF2.6
02468:  BTFSC  xCC.7
0246A:  BSF    FF2.7
0246C:  MOVWF  FEF
....................       CiclosPersonalizados[i].PulsosVacio=read_eeprom(106+(i*8));  
0246E:  MOVF   x38,W
02470:  MULLW  0B
02472:  MOVF   FF3,W
02474:  CLRF   xCA
02476:  MOVWF  xC9
02478:  MOVLW  06
0247A:  ADDWF  xC9,W
0247C:  MOVWF  01
0247E:  MOVLW  00
02480:  ADDWFC xCA,W
02482:  MOVWF  03
02484:  MOVF   01,W
02486:  ADDLW  9D
02488:  MOVWF  FE9
0248A:  MOVLW  03
0248C:  ADDWFC 03,W
0248E:  MOVWF  FEA
02490:  MOVF   x38,W
02492:  MULLW  08
02494:  MOVF   FF3,W
02496:  ADDLW  6A
02498:  MOVWF  xCB
0249A:  MOVFF  FF2,3CC
0249E:  BCF    FF2.6
024A0:  BCF    FF2.7
024A2:  CLRF   FAA
024A4:  MOVFF  3CB,FA9
024A8:  BCF    FA6.6
024AA:  BCF    FA6.7
024AC:  BSF    FA6.0
024AE:  MOVF   FA8,W
024B0:  BTFSC  xCC.6
024B2:  BSF    FF2.6
024B4:  BTFSC  xCC.7
024B6:  BSF    FF2.7
024B8:  MOVWF  FEF
....................       CiclosPersonalizados[i].NivelDesfogue=read_eeprom(107+(i*8));  
024BA:  MOVF   x38,W
024BC:  MULLW  0B
024BE:  MOVF   FF3,W
024C0:  CLRF   xCA
024C2:  MOVWF  xC9
024C4:  MOVLW  08
024C6:  ADDWF  xC9,W
024C8:  MOVWF  01
024CA:  MOVLW  00
024CC:  ADDWFC xCA,W
024CE:  MOVWF  03
024D0:  MOVF   01,W
024D2:  ADDLW  9D
024D4:  MOVWF  FE9
024D6:  MOVLW  03
024D8:  ADDWFC 03,W
024DA:  MOVWF  FEA
024DC:  MOVF   x38,W
024DE:  MULLW  08
024E0:  MOVF   FF3,W
024E2:  ADDLW  6B
024E4:  MOVWF  xCB
024E6:  MOVFF  FF2,3CC
024EA:  BCF    FF2.6
024EC:  BCF    FF2.7
024EE:  CLRF   FAA
024F0:  MOVFF  3CB,FA9
024F4:  BCF    FA6.6
024F6:  BCF    FA6.7
024F8:  BSF    FA6.0
024FA:  MOVF   FA8,W
024FC:  BTFSC  xCC.6
024FE:  BSF    FF2.6
02500:  BTFSC  xCC.7
02502:  BSF    FF2.7
02504:  MOVWF  FEF
....................       CiclosPersonalizados[i].Minutoeste=make16(CiclosPersonalizados[i].MinutoestH,CiclosPersonalizados[i].MinutoestL); 
02506:  MOVF   x38,W
02508:  MULLW  0B
0250A:  MOVF   FF3,W
0250C:  CLRF   xCA
0250E:  MOVWF  xC9
02510:  MOVLW  09
02512:  ADDWF  xC9,W
02514:  MOVWF  01
02516:  MOVLW  00
02518:  ADDWFC xCA,W
0251A:  MOVWF  03
0251C:  MOVF   01,W
0251E:  ADDLW  9D
02520:  MOVWF  01
02522:  MOVLW  03
02524:  ADDWFC 03,F
02526:  MOVFF  01,3C9
0252A:  MOVFF  03,3CA
0252E:  MOVF   x38,W
02530:  MULLW  0B
02532:  MOVF   FF3,W
02534:  CLRF   xCC
02536:  MOVWF  xCB
02538:  MOVLW  01
0253A:  ADDWF  xCB,W
0253C:  MOVWF  01
0253E:  MOVLW  00
02540:  ADDWFC xCC,W
02542:  MOVWF  03
02544:  MOVF   01,W
02546:  ADDLW  9D
02548:  MOVWF  FE9
0254A:  MOVLW  03
0254C:  ADDWFC 03,W
0254E:  MOVWF  FEA
02550:  MOVFF  FEF,3CB
02554:  MOVF   x38,W
02556:  MULLW  0B
02558:  MOVF   FF3,W
0255A:  CLRF   xCD
0255C:  MOVWF  xCC
0255E:  MOVLW  02
02560:  ADDWF  xCC,W
02562:  MOVWF  01
02564:  MOVLW  00
02566:  ADDWFC xCD,W
02568:  MOVWF  03
0256A:  MOVF   01,W
0256C:  ADDLW  9D
0256E:  MOVWF  FE9
02570:  MOVLW  03
02572:  ADDWFC 03,W
02574:  MOVWF  FEA
02576:  MOVFF  FEF,3CC
0257A:  MOVFF  3CA,FEA
0257E:  MOVFF  3C9,FE9
02582:  MOVFF  3CB,FEC
02586:  MOVF   FED,F
02588:  MOVFF  3CC,FEF
....................       if(CiclosPersonalizados[i].Minutoeste>999) 
0258C:  MOVF   x38,W
0258E:  MULLW  0B
02590:  MOVF   FF3,W
02592:  CLRF   xCA
02594:  MOVWF  xC9
02596:  MOVLW  09
02598:  ADDWF  xC9,W
0259A:  MOVWF  01
0259C:  MOVLW  00
0259E:  ADDWFC xCA,W
025A0:  MOVWF  03
025A2:  MOVF   01,W
025A4:  ADDLW  9D
025A6:  MOVWF  FE9
025A8:  MOVLW  03
025AA:  ADDWFC 03,W
025AC:  MOVWF  FEA
025AE:  MOVFF  FEC,3CA
025B2:  MOVF   FED,F
025B4:  MOVFF  FEF,3C9
025B8:  MOVF   xCA,W
025BA:  SUBLW  02
025BC:  BC    25F0
025BE:  XORLW  FF
025C0:  BNZ   25C8
025C2:  MOVF   xC9,W
025C4:  SUBLW  E7
025C6:  BC    25F0
....................          CiclosPersonalizados[i].Minutoeste=0; 
025C8:  MOVF   x38,W
025CA:  MULLW  0B
025CC:  MOVF   FF3,W
025CE:  CLRF   xCA
025D0:  MOVWF  xC9
025D2:  MOVLW  09
025D4:  ADDWF  xC9,W
025D6:  MOVWF  01
025D8:  MOVLW  00
025DA:  ADDWFC xCA,W
025DC:  MOVWF  03
025DE:  MOVF   01,W
025E0:  ADDLW  9D
025E2:  MOVWF  FE9
025E4:  MOVLW  03
025E6:  ADDWFC 03,W
025E8:  MOVWF  FEA
025EA:  CLRF   FEC
025EC:  MOVF   FED,F
025EE:  CLRF   FEF
....................        
....................       if(CiclosPersonalizados[i].Temperatura>123 || CiclosPersonalizados[i].Temperatura<60) 
025F0:  MOVF   x38,W
025F2:  MULLW  0B
025F4:  MOVF   FF3,W
025F6:  CLRF   xCA
025F8:  MOVWF  xC9
025FA:  MOVLW  9D
025FC:  ADDWF  xC9,W
025FE:  MOVWF  FE9
02600:  MOVLW  03
02602:  ADDWFC xCA,W
02604:  MOVWF  FEA
02606:  MOVF   FEF,W
02608:  SUBLW  7B
0260A:  BNC   2628
0260C:  MOVF   x38,W
0260E:  MULLW  0B
02610:  MOVF   FF3,W
02612:  CLRF   xCA
02614:  MOVWF  xC9
02616:  MOVLW  9D
02618:  ADDWF  xC9,W
0261A:  MOVWF  FE9
0261C:  MOVLW  03
0261E:  ADDWFC xCA,W
02620:  MOVWF  FEA
02622:  MOVF   FEF,W
02624:  SUBLW  3B
02626:  BNC   2642
....................          CiclosPersonalizados[i].Temperatura=121; 
02628:  MOVF   x38,W
0262A:  MULLW  0B
0262C:  MOVF   FF3,W
0262E:  CLRF   xCA
02630:  MOVWF  xC9
02632:  MOVLW  9D
02634:  ADDWF  xC9,W
02636:  MOVWF  FE9
02638:  MOVLW  03
0263A:  ADDWFC xCA,W
0263C:  MOVWF  FEA
0263E:  MOVLW  79
02640:  MOVWF  FEF
....................        
....................       if(CiclosPersonalizados[i].Minutosec>59) 
02642:  MOVF   x38,W
02644:  MULLW  0B
02646:  MOVF   FF3,W
02648:  CLRF   xCA
0264A:  MOVWF  xC9
0264C:  MOVLW  04
0264E:  ADDWF  xC9,W
02650:  MOVWF  01
02652:  MOVLW  00
02654:  ADDWFC xCA,W
02656:  MOVWF  03
02658:  MOVF   01,W
0265A:  ADDLW  9D
0265C:  MOVWF  FE9
0265E:  MOVLW  03
02660:  ADDWFC 03,W
02662:  MOVWF  FEA
02664:  MOVF   FEF,W
02666:  SUBLW  3B
02668:  BC    268E
....................          CiclosPersonalizados[i].Minutosec=0;    
0266A:  MOVF   x38,W
0266C:  MULLW  0B
0266E:  MOVF   FF3,W
02670:  CLRF   xCA
02672:  MOVWF  xC9
02674:  MOVLW  04
02676:  ADDWF  xC9,W
02678:  MOVWF  01
0267A:  MOVLW  00
0267C:  ADDWFC xCA,W
0267E:  MOVWF  03
02680:  MOVF   01,W
02682:  ADDLW  9D
02684:  MOVWF  FE9
02686:  MOVLW  03
02688:  ADDWFC 03,W
0268A:  MOVWF  FEA
0268C:  CLRF   FEF
....................       if(CiclosPersonalizados[i].Segundoest>59) 
0268E:  MOVF   x38,W
02690:  MULLW  0B
02692:  MOVF   FF3,W
02694:  CLRF   xCA
02696:  MOVWF  xC9
02698:  MOVLW  03
0269A:  ADDWF  xC9,W
0269C:  MOVWF  01
0269E:  MOVLW  00
026A0:  ADDWFC xCA,W
026A2:  MOVWF  03
026A4:  MOVF   01,W
026A6:  ADDLW  9D
026A8:  MOVWF  FE9
026AA:  MOVLW  03
026AC:  ADDWFC 03,W
026AE:  MOVWF  FEA
026B0:  MOVF   FEF,W
026B2:  SUBLW  3B
026B4:  BC    26DA
....................          CiclosPersonalizados[i].Segundoest=0; 
026B6:  MOVF   x38,W
026B8:  MULLW  0B
026BA:  MOVF   FF3,W
026BC:  CLRF   xCA
026BE:  MOVWF  xC9
026C0:  MOVLW  03
026C2:  ADDWF  xC9,W
026C4:  MOVWF  01
026C6:  MOVLW  00
026C8:  ADDWFC xCA,W
026CA:  MOVWF  03
026CC:  MOVF   01,W
026CE:  ADDLW  9D
026D0:  MOVWF  FE9
026D2:  MOVLW  03
026D4:  ADDWFC 03,W
026D6:  MOVWF  FEA
026D8:  CLRF   FEF
....................       if(CiclosPersonalizados[i].Segundosec>59) 
026DA:  MOVF   x38,W
026DC:  MULLW  0B
026DE:  MOVF   FF3,W
026E0:  CLRF   xCA
026E2:  MOVWF  xC9
026E4:  MOVLW  05
026E6:  ADDWF  xC9,W
026E8:  MOVWF  01
026EA:  MOVLW  00
026EC:  ADDWFC xCA,W
026EE:  MOVWF  03
026F0:  MOVF   01,W
026F2:  ADDLW  9D
026F4:  MOVWF  FE9
026F6:  MOVLW  03
026F8:  ADDWFC 03,W
026FA:  MOVWF  FEA
026FC:  MOVF   FEF,W
026FE:  SUBLW  3B
02700:  BC    2726
....................          CiclosPersonalizados[i].Segundosec=0;       
02702:  MOVF   x38,W
02704:  MULLW  0B
02706:  MOVF   FF3,W
02708:  CLRF   xCA
0270A:  MOVWF  xC9
0270C:  MOVLW  05
0270E:  ADDWF  xC9,W
02710:  MOVWF  01
02712:  MOVLW  00
02714:  ADDWFC xCA,W
02716:  MOVWF  03
02718:  MOVF   01,W
0271A:  ADDLW  9D
0271C:  MOVWF  FE9
0271E:  MOVLW  03
02720:  ADDWFC 03,W
02722:  MOVWF  FEA
02724:  CLRF   FEF
....................       if(CiclosPersonalizados[i].PulsosVacio>15) 
02726:  MOVF   x38,W
02728:  MULLW  0B
0272A:  MOVF   FF3,W
0272C:  CLRF   xCA
0272E:  MOVWF  xC9
02730:  MOVLW  06
02732:  ADDWF  xC9,W
02734:  MOVWF  01
02736:  MOVLW  00
02738:  ADDWFC xCA,W
0273A:  MOVWF  03
0273C:  MOVF   01,W
0273E:  ADDLW  9D
02740:  MOVWF  FE9
02742:  MOVLW  03
02744:  ADDWFC 03,W
02746:  MOVWF  FEA
02748:  MOVF   FEF,W
0274A:  SUBLW  0F
0274C:  BC    2774
....................          CiclosPersonalizados[i].PulsosVacio=4; 
0274E:  MOVF   x38,W
02750:  MULLW  0B
02752:  MOVF   FF3,W
02754:  CLRF   xCA
02756:  MOVWF  xC9
02758:  MOVLW  06
0275A:  ADDWF  xC9,W
0275C:  MOVWF  01
0275E:  MOVLW  00
02760:  ADDWFC xCA,W
02762:  MOVWF  03
02764:  MOVF   01,W
02766:  ADDLW  9D
02768:  MOVWF  FE9
0276A:  MOVLW  03
0276C:  ADDWFC 03,W
0276E:  MOVWF  FEA
02770:  MOVLW  04
02772:  MOVWF  FEF
....................       if(CiclosPersonalizados[i].NivelVacio>100 || CiclosPersonalizados[i].NivelVacio<10) 
02774:  MOVF   x38,W
02776:  MULLW  0B
02778:  MOVF   FF3,W
0277A:  CLRF   xCA
0277C:  MOVWF  xC9
0277E:  MOVLW  07
02780:  ADDWF  xC9,W
02782:  MOVWF  01
02784:  MOVLW  00
02786:  ADDWFC xCA,W
02788:  MOVWF  03
0278A:  MOVF   01,W
0278C:  ADDLW  9D
0278E:  MOVWF  FE9
02790:  MOVLW  03
02792:  ADDWFC 03,W
02794:  MOVWF  FEA
02796:  MOVF   FEF,W
02798:  SUBLW  64
0279A:  BNC   27C4
0279C:  MOVF   x38,W
0279E:  MULLW  0B
027A0:  MOVF   FF3,W
027A2:  CLRF   xCA
027A4:  MOVWF  xC9
027A6:  MOVLW  07
027A8:  ADDWF  xC9,W
027AA:  MOVWF  01
027AC:  MOVLW  00
027AE:  ADDWFC xCA,W
027B0:  MOVWF  03
027B2:  MOVF   01,W
027B4:  ADDLW  9D
027B6:  MOVWF  FE9
027B8:  MOVLW  03
027BA:  ADDWFC 03,W
027BC:  MOVWF  FEA
027BE:  MOVF   FEF,W
027C0:  SUBLW  09
027C2:  BNC   27EA
....................          CiclosPersonalizados[i].NivelVacio=25;    
027C4:  MOVF   x38,W
027C6:  MULLW  0B
027C8:  MOVF   FF3,W
027CA:  CLRF   xCA
027CC:  MOVWF  xC9
027CE:  MOVLW  07
027D0:  ADDWF  xC9,W
027D2:  MOVWF  01
027D4:  MOVLW  00
027D6:  ADDWFC xCA,W
027D8:  MOVWF  03
027DA:  MOVF   01,W
027DC:  ADDLW  9D
027DE:  MOVWF  FE9
027E0:  MOVLW  03
027E2:  ADDWFC 03,W
027E4:  MOVWF  FEA
027E6:  MOVLW  19
027E8:  MOVWF  FEF
....................       if(CiclosPersonalizados[i].NivelDesfogue>6) 
027EA:  MOVF   x38,W
027EC:  MULLW  0B
027EE:  MOVF   FF3,W
027F0:  CLRF   xCA
027F2:  MOVWF  xC9
027F4:  MOVLW  08
027F6:  ADDWF  xC9,W
027F8:  MOVWF  01
027FA:  MOVLW  00
027FC:  ADDWFC xCA,W
027FE:  MOVWF  03
02800:  MOVF   01,W
02802:  ADDLW  9D
02804:  MOVWF  FE9
02806:  MOVLW  03
02808:  ADDWFC 03,W
0280A:  MOVWF  FEA
0280C:  MOVF   FEF,W
0280E:  SUBLW  06
02810:  BC    2838
....................          CiclosPersonalizados[i].NivelDesfogue=6; 
02812:  MOVF   x38,W
02814:  MULLW  0B
02816:  MOVF   FF3,W
02818:  CLRF   xCA
0281A:  MOVWF  xC9
0281C:  MOVLW  08
0281E:  ADDWF  xC9,W
02820:  MOVWF  01
02822:  MOVLW  00
02824:  ADDWFC xCA,W
02826:  MOVWF  03
02828:  MOVF   01,W
0282A:  ADDLW  9D
0282C:  MOVWF  FE9
0282E:  MOVLW  03
02830:  ADDWFC 03,W
02832:  MOVWF  FEA
02834:  MOVLW  06
02836:  MOVWF  FEF
....................    } 
02838:  INCF   x38,F
0283A:  BRA    22AA
.................... } 
0283C:  MOVLB  0
0283E:  GOTO   57DA (RETURN)
....................  
.................... void LimitaValores(){ 
....................    if(Testerilizacionp[0]>9 || Testerilizacionp[0]<0){ 
*
029F0:  BTFSC  xB5.7
029F2:  BRA    29FA
029F4:  MOVF   xB5,W
029F6:  SUBLW  09
029F8:  BNC   2A00
029FA:  BTFSC  xB5.7
029FC:  BRA    2A00
029FE:  BRA    2A38
....................       Testerilizacionp[0]=0; 
02A00:  CLRF   xB5
....................       write_eeprom(0,0); 
02A02:  CLRF   FAA
02A04:  CLRF   FA9
02A06:  CLRF   FA8
02A08:  BCF    FA6.6
02A0A:  BCF    FA6.7
02A0C:  BSF    FA6.2
02A0E:  MOVF   FF2,W
02A10:  MOVWF  00
02A12:  BCF    FF2.6
02A14:  BCF    FF2.7
02A16:  MOVLB  F
02A18:  MOVLW  55
02A1A:  MOVWF  FA7
02A1C:  MOVLW  AA
02A1E:  MOVWF  FA7
02A20:  BSF    FA6.1
02A22:  BTFSC  FA6.1
02A24:  BRA    2A22
02A26:  BCF    FA6.2
02A28:  MOVF   00,W
02A2A:  IORWF  FF2,F
....................       delay_ms(10); 
02A2C:  MOVLW  0A
02A2E:  MOVLB  3
02A30:  MOVWF  xD4
02A32:  MOVLB  0
02A34:  CALL   16D0
....................    } 
....................    if(Testerilizacionp[1]>9 || Testerilizacionp[1]<0){ 
02A38:  BTFSC  xB6.7
02A3A:  BRA    2A42
02A3C:  MOVF   xB6,W
02A3E:  SUBLW  09
02A40:  BNC   2A48
02A42:  BTFSC  xB6.7
02A44:  BRA    2A48
02A46:  BRA    2A82
....................       Testerilizacionp[1]=0; 
02A48:  CLRF   xB6
....................       write_eeprom(1,0); 
02A4A:  CLRF   FAA
02A4C:  MOVLW  01
02A4E:  MOVWF  FA9
02A50:  CLRF   FA8
02A52:  BCF    FA6.6
02A54:  BCF    FA6.7
02A56:  BSF    FA6.2
02A58:  MOVF   FF2,W
02A5A:  MOVWF  00
02A5C:  BCF    FF2.6
02A5E:  BCF    FF2.7
02A60:  MOVLB  F
02A62:  MOVLW  55
02A64:  MOVWF  FA7
02A66:  MOVLW  AA
02A68:  MOVWF  FA7
02A6A:  BSF    FA6.1
02A6C:  BTFSC  FA6.1
02A6E:  BRA    2A6C
02A70:  BCF    FA6.2
02A72:  MOVF   00,W
02A74:  IORWF  FF2,F
....................       delay_ms(10); 
02A76:  MOVLW  0A
02A78:  MOVLB  3
02A7A:  MOVWF  xD4
02A7C:  MOVLB  0
02A7E:  CALL   16D0
....................    } 
....................    if(Testerilizacionp[2]>9 || Testerilizacionp[2]<0){ 
02A82:  BTFSC  xB7.7
02A84:  BRA    2A8C
02A86:  MOVF   xB7,W
02A88:  SUBLW  09
02A8A:  BNC   2A92
02A8C:  BTFSC  xB7.7
02A8E:  BRA    2A92
02A90:  BRA    2ACC
....................       Testerilizacionp[2]=0; 
02A92:  CLRF   xB7
....................       write_eeprom(2,0); 
02A94:  CLRF   FAA
02A96:  MOVLW  02
02A98:  MOVWF  FA9
02A9A:  CLRF   FA8
02A9C:  BCF    FA6.6
02A9E:  BCF    FA6.7
02AA0:  BSF    FA6.2
02AA2:  MOVF   FF2,W
02AA4:  MOVWF  00
02AA6:  BCF    FF2.6
02AA8:  BCF    FF2.7
02AAA:  MOVLB  F
02AAC:  MOVLW  55
02AAE:  MOVWF  FA7
02AB0:  MOVLW  AA
02AB2:  MOVWF  FA7
02AB4:  BSF    FA6.1
02AB6:  BTFSC  FA6.1
02AB8:  BRA    2AB6
02ABA:  BCF    FA6.2
02ABC:  MOVF   00,W
02ABE:  IORWF  FF2,F
....................       delay_ms(10); 
02AC0:  MOVLW  0A
02AC2:  MOVLB  3
02AC4:  MOVWF  xD4
02AC6:  MOVLB  0
02AC8:  CALL   16D0
....................    } 
....................    if(Testerilizacionp[3]>9 || Testerilizacionp[3]<0){ 
02ACC:  BTFSC  xB8.7
02ACE:  BRA    2AD6
02AD0:  MOVF   xB8,W
02AD2:  SUBLW  09
02AD4:  BNC   2ADC
02AD6:  BTFSC  xB8.7
02AD8:  BRA    2ADC
02ADA:  BRA    2B16
....................       Testerilizacionp[3]=0; 
02ADC:  CLRF   xB8
....................       write_eeprom(3,0); 
02ADE:  CLRF   FAA
02AE0:  MOVLW  03
02AE2:  MOVWF  FA9
02AE4:  CLRF   FA8
02AE6:  BCF    FA6.6
02AE8:  BCF    FA6.7
02AEA:  BSF    FA6.2
02AEC:  MOVF   FF2,W
02AEE:  MOVWF  00
02AF0:  BCF    FF2.6
02AF2:  BCF    FF2.7
02AF4:  MOVLB  F
02AF6:  MOVLW  55
02AF8:  MOVWF  FA7
02AFA:  MOVLW  AA
02AFC:  MOVWF  FA7
02AFE:  BSF    FA6.1
02B00:  BTFSC  FA6.1
02B02:  BRA    2B00
02B04:  BCF    FA6.2
02B06:  MOVF   00,W
02B08:  IORWF  FF2,F
....................       delay_ms(10); 
02B0A:  MOVLW  0A
02B0C:  MOVLB  3
02B0E:  MOVWF  xD4
02B10:  MOVLB  0
02B12:  CALL   16D0
....................    } 
....................    if(Tsecadop[0]>9 || Tsecadop[0]<0){ 
02B16:  BTFSC  xBE.7
02B18:  BRA    2B20
02B1A:  MOVF   xBE,W
02B1C:  SUBLW  09
02B1E:  BNC   2B26
02B20:  BTFSC  xBE.7
02B22:  BRA    2B26
02B24:  BRA    2B60
....................       Tsecadop[0]=0; 
02B26:  CLRF   xBE
....................       write_eeprom(4,0); 
02B28:  CLRF   FAA
02B2A:  MOVLW  04
02B2C:  MOVWF  FA9
02B2E:  CLRF   FA8
02B30:  BCF    FA6.6
02B32:  BCF    FA6.7
02B34:  BSF    FA6.2
02B36:  MOVF   FF2,W
02B38:  MOVWF  00
02B3A:  BCF    FF2.6
02B3C:  BCF    FF2.7
02B3E:  MOVLB  F
02B40:  MOVLW  55
02B42:  MOVWF  FA7
02B44:  MOVLW  AA
02B46:  MOVWF  FA7
02B48:  BSF    FA6.1
02B4A:  BTFSC  FA6.1
02B4C:  BRA    2B4A
02B4E:  BCF    FA6.2
02B50:  MOVF   00,W
02B52:  IORWF  FF2,F
....................       delay_ms(10); 
02B54:  MOVLW  0A
02B56:  MOVLB  3
02B58:  MOVWF  xD4
02B5A:  MOVLB  0
02B5C:  CALL   16D0
....................    } 
....................    if(Tsecadop[1]>9 || Tsecadop[1]<0){ 
02B60:  BTFSC  xBF.7
02B62:  BRA    2B6A
02B64:  MOVF   xBF,W
02B66:  SUBLW  09
02B68:  BNC   2B70
02B6A:  BTFSC  xBF.7
02B6C:  BRA    2B70
02B6E:  BRA    2BAA
....................       Tsecadop[1]=0; 
02B70:  CLRF   xBF
....................       write_eeprom(5,0); 
02B72:  CLRF   FAA
02B74:  MOVLW  05
02B76:  MOVWF  FA9
02B78:  CLRF   FA8
02B7A:  BCF    FA6.6
02B7C:  BCF    FA6.7
02B7E:  BSF    FA6.2
02B80:  MOVF   FF2,W
02B82:  MOVWF  00
02B84:  BCF    FF2.6
02B86:  BCF    FF2.7
02B88:  MOVLB  F
02B8A:  MOVLW  55
02B8C:  MOVWF  FA7
02B8E:  MOVLW  AA
02B90:  MOVWF  FA7
02B92:  BSF    FA6.1
02B94:  BTFSC  FA6.1
02B96:  BRA    2B94
02B98:  BCF    FA6.2
02B9A:  MOVF   00,W
02B9C:  IORWF  FF2,F
....................       delay_ms(10); 
02B9E:  MOVLW  0A
02BA0:  MOVLB  3
02BA2:  MOVWF  xD4
02BA4:  MOVLB  0
02BA6:  CALL   16D0
....................    } 
....................    if(Tsecadop[2]>9 || Tsecadop[2]<0){ 
02BAA:  BTFSC  xC0.7
02BAC:  BRA    2BB4
02BAE:  MOVF   xC0,W
02BB0:  SUBLW  09
02BB2:  BNC   2BBA
02BB4:  BTFSC  xC0.7
02BB6:  BRA    2BBA
02BB8:  BRA    2BF4
....................       Tsecadop[2]=0; 
02BBA:  CLRF   xC0
....................       write_eeprom(6,0); 
02BBC:  CLRF   FAA
02BBE:  MOVLW  06
02BC0:  MOVWF  FA9
02BC2:  CLRF   FA8
02BC4:  BCF    FA6.6
02BC6:  BCF    FA6.7
02BC8:  BSF    FA6.2
02BCA:  MOVF   FF2,W
02BCC:  MOVWF  00
02BCE:  BCF    FF2.6
02BD0:  BCF    FF2.7
02BD2:  MOVLB  F
02BD4:  MOVLW  55
02BD6:  MOVWF  FA7
02BD8:  MOVLW  AA
02BDA:  MOVWF  FA7
02BDC:  BSF    FA6.1
02BDE:  BTFSC  FA6.1
02BE0:  BRA    2BDE
02BE2:  BCF    FA6.2
02BE4:  MOVF   00,W
02BE6:  IORWF  FF2,F
....................       delay_ms(10); 
02BE8:  MOVLW  0A
02BEA:  MOVLB  3
02BEC:  MOVWF  xD4
02BEE:  MOVLB  0
02BF0:  CALL   16D0
....................    } 
....................    if(Tsecadop[3]>9 || Tsecadop[3]<0){ 
02BF4:  BTFSC  xC1.7
02BF6:  BRA    2BFE
02BF8:  MOVF   xC1,W
02BFA:  SUBLW  09
02BFC:  BNC   2C04
02BFE:  BTFSC  xC1.7
02C00:  BRA    2C04
02C02:  BRA    2C3E
....................       Tsecadop[3]=0; 
02C04:  CLRF   xC1
....................       write_eeprom(7,0); 
02C06:  CLRF   FAA
02C08:  MOVLW  07
02C0A:  MOVWF  FA9
02C0C:  CLRF   FA8
02C0E:  BCF    FA6.6
02C10:  BCF    FA6.7
02C12:  BSF    FA6.2
02C14:  MOVF   FF2,W
02C16:  MOVWF  00
02C18:  BCF    FF2.6
02C1A:  BCF    FF2.7
02C1C:  MOVLB  F
02C1E:  MOVLW  55
02C20:  MOVWF  FA7
02C22:  MOVLW  AA
02C24:  MOVWF  FA7
02C26:  BSF    FA6.1
02C28:  BTFSC  FA6.1
02C2A:  BRA    2C28
02C2C:  BCF    FA6.2
02C2E:  MOVF   00,W
02C30:  IORWF  FF2,F
....................       delay_ms(10); 
02C32:  MOVLW  0A
02C34:  MOVLB  3
02C36:  MOVWF  xD4
02C38:  MOVLB  0
02C3A:  CALL   16D0
....................    } 
....................    if(Setpoint>134){ 
02C3E:  MOVLB  3
02C40:  MOVF   x3C,W
02C42:  SUBLW  86
02C44:  BC    2C86
....................       Setpoint=121; 
02C46:  MOVLW  79
02C48:  MOVWF  x3C
....................       write_eeprom(8,121); 
02C4A:  CLRF   FAA
02C4C:  MOVLW  08
02C4E:  MOVWF  FA9
02C50:  MOVLW  79
02C52:  MOVWF  FA8
02C54:  BCF    FA6.6
02C56:  BCF    FA6.7
02C58:  BSF    FA6.2
02C5A:  MOVF   FF2,W
02C5C:  MOVWF  00
02C5E:  BCF    FF2.6
02C60:  BCF    FF2.7
02C62:  MOVLB  F
02C64:  MOVLW  55
02C66:  MOVWF  FA7
02C68:  MOVLW  AA
02C6A:  MOVWF  FA7
02C6C:  BSF    FA6.1
02C6E:  BTFSC  FA6.1
02C70:  BRA    2C6E
02C72:  BCF    FA6.2
02C74:  MOVF   00,W
02C76:  IORWF  FF2,F
....................       delay_ms(10); 
02C78:  MOVLW  0A
02C7A:  MOVLB  3
02C7C:  MOVWF  xD4
02C7E:  MOVLB  0
02C80:  CALL   16D0
02C84:  MOVLB  3
....................    } 
....................    if(Nivel>6){ 
02C86:  MOVF   x4B,F
02C88:  BNZ   2C90
02C8A:  MOVF   x4A,W
02C8C:  SUBLW  06
02C8E:  BC    2CD2
....................       Nivel=3; 
02C90:  CLRF   x4B
02C92:  MOVLW  03
02C94:  MOVWF  x4A
....................       write_eeprom(9,3); 
02C96:  CLRF   FAA
02C98:  MOVLW  09
02C9A:  MOVWF  FA9
02C9C:  MOVLW  03
02C9E:  MOVWF  FA8
02CA0:  BCF    FA6.6
02CA2:  BCF    FA6.7
02CA4:  BSF    FA6.2
02CA6:  MOVF   FF2,W
02CA8:  MOVWF  00
02CAA:  BCF    FF2.6
02CAC:  BCF    FF2.7
02CAE:  MOVLB  F
02CB0:  MOVLW  55
02CB2:  MOVWF  FA7
02CB4:  MOVLW  AA
02CB6:  MOVWF  FA7
02CB8:  BSF    FA6.1
02CBA:  BTFSC  FA6.1
02CBC:  BRA    2CBA
02CBE:  BCF    FA6.2
02CC0:  MOVF   00,W
02CC2:  IORWF  FF2,F
....................       delay_ms(10); 
02CC4:  MOVLW  0A
02CC6:  MOVLB  3
02CC8:  MOVWF  xD4
02CCA:  MOVLB  0
02CCC:  CALL   16D0
02CD0:  MOVLB  3
....................    } 
....................    if(Password[0]>9 || Password[0]<0){ 
02CD2:  BTFSC  x5A.7
02CD4:  BRA    2CDC
02CD6:  MOVF   x5A,W
02CD8:  SUBLW  09
02CDA:  BNC   2CE2
02CDC:  BTFSC  x5A.7
02CDE:  BRA    2CE2
02CE0:  BRA    2D1E
....................       Password[0]=0; 
02CE2:  CLRF   x5A
....................       write_eeprom(10,0); 
02CE4:  CLRF   FAA
02CE6:  MOVLW  0A
02CE8:  MOVWF  FA9
02CEA:  CLRF   FA8
02CEC:  BCF    FA6.6
02CEE:  BCF    FA6.7
02CF0:  BSF    FA6.2
02CF2:  MOVF   FF2,W
02CF4:  MOVWF  00
02CF6:  BCF    FF2.6
02CF8:  BCF    FF2.7
02CFA:  MOVLB  F
02CFC:  MOVLW  55
02CFE:  MOVWF  FA7
02D00:  MOVLW  AA
02D02:  MOVWF  FA7
02D04:  BSF    FA6.1
02D06:  BTFSC  FA6.1
02D08:  BRA    2D06
02D0A:  BCF    FA6.2
02D0C:  MOVF   00,W
02D0E:  IORWF  FF2,F
....................       delay_ms(10); 
02D10:  MOVLW  0A
02D12:  MOVLB  3
02D14:  MOVWF  xD4
02D16:  MOVLB  0
02D18:  CALL   16D0
02D1C:  MOVLB  3
....................    } 
....................    if(Password[1]>9 || Password[1]<0){ 
02D1E:  BTFSC  x5B.7
02D20:  BRA    2D28
02D22:  MOVF   x5B,W
02D24:  SUBLW  09
02D26:  BNC   2D2E
02D28:  BTFSC  x5B.7
02D2A:  BRA    2D2E
02D2C:  BRA    2D6A
....................       Password[1]=0; 
02D2E:  CLRF   x5B
....................       write_eeprom(11,0); 
02D30:  CLRF   FAA
02D32:  MOVLW  0B
02D34:  MOVWF  FA9
02D36:  CLRF   FA8
02D38:  BCF    FA6.6
02D3A:  BCF    FA6.7
02D3C:  BSF    FA6.2
02D3E:  MOVF   FF2,W
02D40:  MOVWF  00
02D42:  BCF    FF2.6
02D44:  BCF    FF2.7
02D46:  MOVLB  F
02D48:  MOVLW  55
02D4A:  MOVWF  FA7
02D4C:  MOVLW  AA
02D4E:  MOVWF  FA7
02D50:  BSF    FA6.1
02D52:  BTFSC  FA6.1
02D54:  BRA    2D52
02D56:  BCF    FA6.2
02D58:  MOVF   00,W
02D5A:  IORWF  FF2,F
....................       delay_ms(10); 
02D5C:  MOVLW  0A
02D5E:  MOVLB  3
02D60:  MOVWF  xD4
02D62:  MOVLB  0
02D64:  CALL   16D0
02D68:  MOVLB  3
....................    } 
....................    if(Password[2]>9 || Password[2]<0){ 
02D6A:  BTFSC  x5C.7
02D6C:  BRA    2D74
02D6E:  MOVF   x5C,W
02D70:  SUBLW  09
02D72:  BNC   2D7A
02D74:  BTFSC  x5C.7
02D76:  BRA    2D7A
02D78:  BRA    2DB6
....................       Password[2]=0; 
02D7A:  CLRF   x5C
....................       write_eeprom(12,0); 
02D7C:  CLRF   FAA
02D7E:  MOVLW  0C
02D80:  MOVWF  FA9
02D82:  CLRF   FA8
02D84:  BCF    FA6.6
02D86:  BCF    FA6.7
02D88:  BSF    FA6.2
02D8A:  MOVF   FF2,W
02D8C:  MOVWF  00
02D8E:  BCF    FF2.6
02D90:  BCF    FF2.7
02D92:  MOVLB  F
02D94:  MOVLW  55
02D96:  MOVWF  FA7
02D98:  MOVLW  AA
02D9A:  MOVWF  FA7
02D9C:  BSF    FA6.1
02D9E:  BTFSC  FA6.1
02DA0:  BRA    2D9E
02DA2:  BCF    FA6.2
02DA4:  MOVF   00,W
02DA6:  IORWF  FF2,F
....................       delay_ms(10); 
02DA8:  MOVLW  0A
02DAA:  MOVLB  3
02DAC:  MOVWF  xD4
02DAE:  MOVLB  0
02DB0:  CALL   16D0
02DB4:  MOVLB  3
....................    } 
....................    if(Password[3]>9 || Password[3]<0){ 
02DB6:  BTFSC  x5D.7
02DB8:  BRA    2DC0
02DBA:  MOVF   x5D,W
02DBC:  SUBLW  09
02DBE:  BNC   2DC6
02DC0:  BTFSC  x5D.7
02DC2:  BRA    2DC6
02DC4:  BRA    2E02
....................       Password[3]=0; 
02DC6:  CLRF   x5D
....................       write_eeprom(13,0); 
02DC8:  CLRF   FAA
02DCA:  MOVLW  0D
02DCC:  MOVWF  FA9
02DCE:  CLRF   FA8
02DD0:  BCF    FA6.6
02DD2:  BCF    FA6.7
02DD4:  BSF    FA6.2
02DD6:  MOVF   FF2,W
02DD8:  MOVWF  00
02DDA:  BCF    FF2.6
02DDC:  BCF    FF2.7
02DDE:  MOVLB  F
02DE0:  MOVLW  55
02DE2:  MOVWF  FA7
02DE4:  MOVLW  AA
02DE6:  MOVWF  FA7
02DE8:  BSF    FA6.1
02DEA:  BTFSC  FA6.1
02DEC:  BRA    2DEA
02DEE:  BCF    FA6.2
02DF0:  MOVF   00,W
02DF2:  IORWF  FF2,F
....................       delay_ms(10); 
02DF4:  MOVLW  0A
02DF6:  MOVLB  3
02DF8:  MOVWF  xD4
02DFA:  MOVLB  0
02DFC:  CALL   16D0
02E00:  MOVLB  3
....................    } 
....................    if(Ganancia>20.0){ 
02E02:  CLRF   xD0
02E04:  CLRF   xCF
02E06:  MOVLW  20
02E08:  MOVWF  xCE
02E0A:  MOVLW  83
02E0C:  MOVWF  xCD
02E0E:  MOVFF  2FA,3D4
02E12:  MOVFF  2F9,3D3
02E16:  MOVFF  2F8,3D2
02E1A:  MOVFF  2F7,3D1
02E1E:  MOVLB  0
02E20:  RCALL  2928
02E22:  BNC   2E6C
....................       Ganancia=15.0; 
02E24:  MOVLB  2
02E26:  CLRF   xFA
02E28:  CLRF   xF9
02E2A:  MOVLW  70
02E2C:  MOVWF  xF8
02E2E:  MOVLW  82
02E30:  MOVWF  xF7
....................       write_eeprom(20,15); 
02E32:  CLRF   FAA
02E34:  MOVLW  14
02E36:  MOVWF  FA9
02E38:  MOVLW  0F
02E3A:  MOVWF  FA8
02E3C:  BCF    FA6.6
02E3E:  BCF    FA6.7
02E40:  BSF    FA6.2
02E42:  MOVF   FF2,W
02E44:  MOVWF  00
02E46:  BCF    FF2.6
02E48:  BCF    FF2.7
02E4A:  MOVLB  F
02E4C:  MOVLW  55
02E4E:  MOVWF  FA7
02E50:  MOVLW  AA
02E52:  MOVWF  FA7
02E54:  BSF    FA6.1
02E56:  BTFSC  FA6.1
02E58:  BRA    2E56
02E5A:  BCF    FA6.2
02E5C:  MOVF   00,W
02E5E:  IORWF  FF2,F
....................       delay_ms(10); 
02E60:  MOVLW  0A
02E62:  MOVLB  3
02E64:  MOVWF  xD4
02E66:  MOVLB  0
02E68:  CALL   16D0
....................    } 
....................    if(Ajuste>50){ 
02E6C:  MOVLB  2
02E6E:  MOVF   xCF,W
02E70:  SUBLW  32
02E72:  BC    2EB0
....................       Ajuste=0; 
02E74:  CLRF   xCF
....................       write_eeprom(21,0); 
02E76:  CLRF   FAA
02E78:  MOVLW  15
02E7A:  MOVWF  FA9
02E7C:  CLRF   FA8
02E7E:  BCF    FA6.6
02E80:  BCF    FA6.7
02E82:  BSF    FA6.2
02E84:  MOVF   FF2,W
02E86:  MOVWF  00
02E88:  BCF    FF2.6
02E8A:  BCF    FF2.7
02E8C:  MOVLB  F
02E8E:  MOVLW  55
02E90:  MOVWF  FA7
02E92:  MOVLW  AA
02E94:  MOVWF  FA7
02E96:  BSF    FA6.1
02E98:  BTFSC  FA6.1
02E9A:  BRA    2E98
02E9C:  BCF    FA6.2
02E9E:  MOVF   00,W
02EA0:  IORWF  FF2,F
....................       delay_ms(10); 
02EA2:  MOVLW  0A
02EA4:  MOVLB  3
02EA6:  MOVWF  xD4
02EA8:  MOVLB  0
02EAA:  CALL   16D0
02EAE:  MOVLB  2
....................    } 
....................    if(Ajusten>50){ 
02EB0:  MOVF   xD0,W
02EB2:  SUBLW  32
02EB4:  BC    2EF2
....................       Ajusten=0; 
02EB6:  CLRF   xD0
....................       write_eeprom(22,0); 
02EB8:  CLRF   FAA
02EBA:  MOVLW  16
02EBC:  MOVWF  FA9
02EBE:  CLRF   FA8
02EC0:  BCF    FA6.6
02EC2:  BCF    FA6.7
02EC4:  BSF    FA6.2
02EC6:  MOVF   FF2,W
02EC8:  MOVWF  00
02ECA:  BCF    FF2.6
02ECC:  BCF    FF2.7
02ECE:  MOVLB  F
02ED0:  MOVLW  55
02ED2:  MOVWF  FA7
02ED4:  MOVLW  AA
02ED6:  MOVWF  FA7
02ED8:  BSF    FA6.1
02EDA:  BTFSC  FA6.1
02EDC:  BRA    2EDA
02EDE:  BCF    FA6.2
02EE0:  MOVF   00,W
02EE2:  IORWF  FF2,F
....................       delay_ms(10); 
02EE4:  MOVLW  0A
02EE6:  MOVLB  3
02EE8:  MOVWF  xD4
02EEA:  MOVLB  0
02EEC:  CALL   16D0
02EF0:  MOVLB  2
....................    } 
....................    if(MediaMovil>80){ 
02EF2:  MOVF   xD1,W
02EF4:  SUBLW  50
02EF6:  BC    2F36
....................       MediaMovil=80; 
02EF8:  MOVLW  50
02EFA:  MOVWF  xD1
....................       write_eeprom(24,80); 
02EFC:  CLRF   FAA
02EFE:  MOVLW  18
02F00:  MOVWF  FA9
02F02:  MOVLW  50
02F04:  MOVWF  FA8
02F06:  BCF    FA6.6
02F08:  BCF    FA6.7
02F0A:  BSF    FA6.2
02F0C:  MOVF   FF2,W
02F0E:  MOVWF  00
02F10:  BCF    FF2.6
02F12:  BCF    FF2.7
02F14:  MOVLB  F
02F16:  MOVLW  55
02F18:  MOVWF  FA7
02F1A:  MOVLW  AA
02F1C:  MOVWF  FA7
02F1E:  BSF    FA6.1
02F20:  BTFSC  FA6.1
02F22:  BRA    2F20
02F24:  BCF    FA6.2
02F26:  MOVF   00,W
02F28:  IORWF  FF2,F
....................       delay_ms(10); 
02F2A:  MOVLW  0A
02F2C:  MOVLB  3
02F2E:  MOVWF  xD4
02F30:  MOVLB  0
02F32:  CALL   16D0
....................    } 
....................    if(Tciclo>10){ 
02F36:  MOVLB  3
02F38:  CLRF   xD0
02F3A:  CLRF   xCF
02F3C:  MOVLW  20
02F3E:  MOVWF  xCE
02F40:  MOVLW  82
02F42:  MOVWF  xCD
02F44:  MOVFF  2E2,3D4
02F48:  MOVFF  2E1,3D3
02F4C:  MOVFF  2E0,3D2
02F50:  MOVFF  2DF,3D1
02F54:  MOVLB  0
02F56:  RCALL  2928
02F58:  BNC   2FA2
....................       Tciclo=10; 
02F5A:  MOVLB  2
02F5C:  CLRF   xE2
02F5E:  CLRF   xE1
02F60:  MOVLW  20
02F62:  MOVWF  xE0
02F64:  MOVLW  82
02F66:  MOVWF  xDF
....................       write_eeprom(25,10); 
02F68:  CLRF   FAA
02F6A:  MOVLW  19
02F6C:  MOVWF  FA9
02F6E:  MOVLW  0A
02F70:  MOVWF  FA8
02F72:  BCF    FA6.6
02F74:  BCF    FA6.7
02F76:  BSF    FA6.2
02F78:  MOVF   FF2,W
02F7A:  MOVWF  00
02F7C:  BCF    FF2.6
02F7E:  BCF    FF2.7
02F80:  MOVLB  F
02F82:  MOVLW  55
02F84:  MOVWF  FA7
02F86:  MOVLW  AA
02F88:  MOVWF  FA7
02F8A:  BSF    FA6.1
02F8C:  BTFSC  FA6.1
02F8E:  BRA    2F8C
02F90:  BCF    FA6.2
02F92:  MOVF   00,W
02F94:  IORWF  FF2,F
....................       delay_ms(10); 
02F96:  MOVLW  0A
02F98:  MOVLB  3
02F9A:  MOVWF  xD4
02F9C:  MOVLB  0
02F9E:  CALL   16D0
....................    } 
....................    if(Integral>10.0){ 
02FA2:  MOVLB  3
02FA4:  CLRF   xD5
02FA6:  MOVFF  327,3D4
02FAA:  MOVLB  0
02FAC:  CALL   16F8
02FB0:  MOVLB  3
02FB2:  CLRF   xD0
02FB4:  CLRF   xCF
02FB6:  MOVLW  20
02FB8:  MOVWF  xCE
02FBA:  MOVLW  82
02FBC:  MOVWF  xCD
02FBE:  MOVFF  03,3D4
02FC2:  MOVFF  02,3D3
02FC6:  MOVFF  01,3D2
02FCA:  MOVFF  00,3D1
02FCE:  MOVLB  0
02FD0:  RCALL  2928
02FD2:  BNC   3014
....................       Integral=1.0; 
02FD4:  MOVLW  01
02FD6:  MOVLB  3
02FD8:  MOVWF  x27
....................       write_eeprom(26,1); 
02FDA:  CLRF   FAA
02FDC:  MOVLW  1A
02FDE:  MOVWF  FA9
02FE0:  MOVLW  01
02FE2:  MOVWF  FA8
02FE4:  BCF    FA6.6
02FE6:  BCF    FA6.7
02FE8:  BSF    FA6.2
02FEA:  MOVF   FF2,W
02FEC:  MOVWF  00
02FEE:  BCF    FF2.6
02FF0:  BCF    FF2.7
02FF2:  MOVLB  F
02FF4:  MOVLW  55
02FF6:  MOVWF  FA7
02FF8:  MOVLW  AA
02FFA:  MOVWF  FA7
02FFC:  BSF    FA6.1
02FFE:  BTFSC  FA6.1
03000:  BRA    2FFE
03002:  BCF    FA6.2
03004:  MOVF   00,W
03006:  IORWF  FF2,F
....................       delay_ms(10); 
03008:  MOVLW  0A
0300A:  MOVLB  3
0300C:  MOVWF  xD4
0300E:  MOVLB  0
03010:  CALL   16D0
....................    } 
....................    if(Derivativo>90.0){ 
03014:  MOVLB  3
03016:  CLRF   xD5
03018:  MOVFF  328,3D4
0301C:  MOVLB  0
0301E:  CALL   16F8
03022:  MOVLB  3
03024:  CLRF   xD0
03026:  CLRF   xCF
03028:  MOVLW  34
0302A:  MOVWF  xCE
0302C:  MOVLW  85
0302E:  MOVWF  xCD
03030:  MOVFF  03,3D4
03034:  MOVFF  02,3D3
03038:  MOVFF  01,3D2
0303C:  MOVFF  00,3D1
03040:  MOVLB  0
03042:  RCALL  2928
03044:  BNC   3086
....................       Derivativo=15.0; 
03046:  MOVLW  0F
03048:  MOVLB  3
0304A:  MOVWF  x28
....................       write_eeprom(27,15); 
0304C:  CLRF   FAA
0304E:  MOVLW  1B
03050:  MOVWF  FA9
03052:  MOVLW  0F
03054:  MOVWF  FA8
03056:  BCF    FA6.6
03058:  BCF    FA6.7
0305A:  BSF    FA6.2
0305C:  MOVF   FF2,W
0305E:  MOVWF  00
03060:  BCF    FF2.6
03062:  BCF    FF2.7
03064:  MOVLB  F
03066:  MOVLW  55
03068:  MOVWF  FA7
0306A:  MOVLW  AA
0306C:  MOVWF  FA7
0306E:  BSF    FA6.1
03070:  BTFSC  FA6.1
03072:  BRA    3070
03074:  BCF    FA6.2
03076:  MOVF   00,W
03078:  IORWF  FF2,F
....................       delay_ms(10); 
0307A:  MOVLW  0A
0307C:  MOVLB  3
0307E:  MOVWF  xD4
03080:  MOVLB  0
03082:  CALL   16D0
....................    } 
....................    if(Gain>50){ 
03086:  MOVLB  3
03088:  CLRF   xD0
0308A:  CLRF   xCF
0308C:  MOVLW  48
0308E:  MOVWF  xCE
03090:  MOVLW  84
03092:  MOVWF  xCD
03094:  MOVFF  2A8,3D4
03098:  MOVFF  2A7,3D3
0309C:  MOVFF  2A6,3D2
030A0:  MOVFF  2A5,3D1
030A4:  MOVLB  0
030A6:  RCALL  2928
030A8:  BNC   3130
....................       Gain=40.2; 
030AA:  MOVLW  CD
030AC:  MOVLB  2
030AE:  MOVWF  xA8
030B0:  MOVLW  CC
030B2:  MOVWF  xA7
030B4:  MOVLW  20
030B6:  MOVWF  xA6
030B8:  MOVLW  84
030BA:  MOVWF  xA5
....................       write_eeprom(28,40); 
030BC:  CLRF   FAA
030BE:  MOVLW  1C
030C0:  MOVWF  FA9
030C2:  MOVLW  28
030C4:  MOVWF  FA8
030C6:  BCF    FA6.6
030C8:  BCF    FA6.7
030CA:  BSF    FA6.2
030CC:  MOVF   FF2,W
030CE:  MOVWF  00
030D0:  BCF    FF2.6
030D2:  BCF    FF2.7
030D4:  MOVLB  F
030D6:  MOVLW  55
030D8:  MOVWF  FA7
030DA:  MOVLW  AA
030DC:  MOVWF  FA7
030DE:  BSF    FA6.1
030E0:  BTFSC  FA6.1
030E2:  BRA    30E0
030E4:  BCF    FA6.2
030E6:  MOVF   00,W
030E8:  IORWF  FF2,F
....................       delay_ms(10); 
030EA:  MOVLW  0A
030EC:  MOVLB  3
030EE:  MOVWF  xD4
030F0:  MOVLB  0
030F2:  CALL   16D0
....................       write_eeprom(29,2); 
030F6:  CLRF   FAA
030F8:  MOVLW  1D
030FA:  MOVWF  FA9
030FC:  MOVLW  02
030FE:  MOVWF  FA8
03100:  BCF    FA6.6
03102:  BCF    FA6.7
03104:  BSF    FA6.2
03106:  MOVF   FF2,W
03108:  MOVWF  00
0310A:  BCF    FF2.6
0310C:  BCF    FF2.7
0310E:  MOVLB  F
03110:  MOVLW  55
03112:  MOVWF  FA7
03114:  MOVLW  AA
03116:  MOVWF  FA7
03118:  BSF    FA6.1
0311A:  BTFSC  FA6.1
0311C:  BRA    311A
0311E:  BCF    FA6.2
03120:  MOVF   00,W
03122:  IORWF  FF2,F
....................       delay_ms(10); 
03124:  MOVLW  0A
03126:  MOVLB  3
03128:  MOVWF  xD4
0312A:  MOVLB  0
0312C:  CALL   16D0
....................    } 
....................    if(R1>6400){ 
03130:  MOVLB  3
03132:  CLRF   xD0
03134:  CLRF   xCF
03136:  MOVLW  48
03138:  MOVWF  xCE
0313A:  MOVLW  8B
0313C:  MOVWF  xCD
0313E:  MOVFF  2B4,3D4
03142:  MOVFF  2B3,3D3
03146:  MOVFF  2B2,3D2
0314A:  MOVFF  2B1,3D1
0314E:  MOVLB  0
03150:  CALL   2928
03154:  BNC   31DA
....................       R1=6200; 
03156:  MOVLB  2
03158:  CLRF   xB4
0315A:  MOVLW  C0
0315C:  MOVWF  xB3
0315E:  MOVLW  41
03160:  MOVWF  xB2
03162:  MOVLW  8B
03164:  MOVWF  xB1
....................       write_eeprom(30,0x38); 
03166:  CLRF   FAA
03168:  MOVLW  1E
0316A:  MOVWF  FA9
0316C:  MOVLW  38
0316E:  MOVWF  FA8
03170:  BCF    FA6.6
03172:  BCF    FA6.7
03174:  BSF    FA6.2
03176:  MOVF   FF2,W
03178:  MOVWF  00
0317A:  BCF    FF2.6
0317C:  BCF    FF2.7
0317E:  MOVLB  F
03180:  MOVLW  55
03182:  MOVWF  FA7
03184:  MOVLW  AA
03186:  MOVWF  FA7
03188:  BSF    FA6.1
0318A:  BTFSC  FA6.1
0318C:  BRA    318A
0318E:  BCF    FA6.2
03190:  MOVF   00,W
03192:  IORWF  FF2,F
....................       delay_ms(10); 
03194:  MOVLW  0A
03196:  MOVLB  3
03198:  MOVWF  xD4
0319A:  MOVLB  0
0319C:  CALL   16D0
....................       write_eeprom(31,0x18); 
031A0:  CLRF   FAA
031A2:  MOVLW  1F
031A4:  MOVWF  FA9
031A6:  MOVLW  18
031A8:  MOVWF  FA8
031AA:  BCF    FA6.6
031AC:  BCF    FA6.7
031AE:  BSF    FA6.2
031B0:  MOVF   FF2,W
031B2:  MOVWF  00
031B4:  BCF    FF2.6
031B6:  BCF    FF2.7
031B8:  MOVLB  F
031BA:  MOVLW  55
031BC:  MOVWF  FA7
031BE:  MOVLW  AA
031C0:  MOVWF  FA7
031C2:  BSF    FA6.1
031C4:  BTFSC  FA6.1
031C6:  BRA    31C4
031C8:  BCF    FA6.2
031CA:  MOVF   00,W
031CC:  IORWF  FF2,F
....................       delay_ms(10); 
031CE:  MOVLW  0A
031D0:  MOVLB  3
031D2:  MOVWF  xD4
031D4:  MOVLB  0
031D6:  CALL   16D0
....................    } 
....................    if(RPT100>2.0){ 
031DA:  MOVLB  3
031DC:  CLRF   xD0
031DE:  CLRF   xCF
031E0:  CLRF   xCE
031E2:  MOVLW  80
031E4:  MOVWF  xCD
031E6:  MOVFF  2AC,3D4
031EA:  MOVFF  2AB,3D3
031EE:  MOVFF  2AA,3D2
031F2:  MOVFF  2A9,3D1
031F6:  MOVLB  0
031F8:  CALL   2928
031FC:  BNC   327C
....................       RPT100=0.5; 
031FE:  MOVLB  2
03200:  CLRF   xAC
03202:  CLRF   xAB
03204:  CLRF   xAA
03206:  MOVLW  7E
03208:  MOVWF  xA9
....................       write_eeprom(32,0); 
0320A:  CLRF   FAA
0320C:  MOVLW  20
0320E:  MOVWF  FA9
03210:  CLRF   FA8
03212:  BCF    FA6.6
03214:  BCF    FA6.7
03216:  BSF    FA6.2
03218:  MOVF   FF2,W
0321A:  MOVWF  00
0321C:  BCF    FF2.6
0321E:  BCF    FF2.7
03220:  MOVLB  F
03222:  MOVLW  55
03224:  MOVWF  FA7
03226:  MOVLW  AA
03228:  MOVWF  FA7
0322A:  BSF    FA6.1
0322C:  BTFSC  FA6.1
0322E:  BRA    322C
03230:  BCF    FA6.2
03232:  MOVF   00,W
03234:  IORWF  FF2,F
....................       delay_ms(10); 
03236:  MOVLW  0A
03238:  MOVLB  3
0323A:  MOVWF  xD4
0323C:  MOVLB  0
0323E:  CALL   16D0
....................       write_eeprom(33,5); 
03242:  CLRF   FAA
03244:  MOVLW  21
03246:  MOVWF  FA9
03248:  MOVLW  05
0324A:  MOVWF  FA8
0324C:  BCF    FA6.6
0324E:  BCF    FA6.7
03250:  BSF    FA6.2
03252:  MOVF   FF2,W
03254:  MOVWF  00
03256:  BCF    FF2.6
03258:  BCF    FF2.7
0325A:  MOVLB  F
0325C:  MOVLW  55
0325E:  MOVWF  FA7
03260:  MOVLW  AA
03262:  MOVWF  FA7
03264:  BSF    FA6.1
03266:  BTFSC  FA6.1
03268:  BRA    3266
0326A:  BCF    FA6.2
0326C:  MOVF   00,W
0326E:  IORWF  FF2,F
....................       delay_ms(10); 
03270:  MOVLW  0A
03272:  MOVLB  3
03274:  MOVWF  xD4
03276:  MOVLB  0
03278:  CALL   16D0
....................    } 
....................    if(Ciclos>60000){ 
0327C:  MOVLB  3
0327E:  MOVF   x53,W
03280:  SUBLW  E9
03282:  BC    3302
03284:  XORLW  FF
03286:  BNZ   328E
03288:  MOVF   x52,W
0328A:  SUBLW  60
0328C:  BC    3302
....................       Ciclos=0; 
0328E:  CLRF   x53
03290:  CLRF   x52
....................       write_eeprom(37,0); 
03292:  CLRF   FAA
03294:  MOVLW  25
03296:  MOVWF  FA9
03298:  CLRF   FA8
0329A:  BCF    FA6.6
0329C:  BCF    FA6.7
0329E:  BSF    FA6.2
032A0:  MOVF   FF2,W
032A2:  MOVWF  00
032A4:  BCF    FF2.6
032A6:  BCF    FF2.7
032A8:  MOVLB  F
032AA:  MOVLW  55
032AC:  MOVWF  FA7
032AE:  MOVLW  AA
032B0:  MOVWF  FA7
032B2:  BSF    FA6.1
032B4:  BTFSC  FA6.1
032B6:  BRA    32B4
032B8:  BCF    FA6.2
032BA:  MOVF   00,W
032BC:  IORWF  FF2,F
....................       delay_ms(10); 
032BE:  MOVLW  0A
032C0:  MOVLB  3
032C2:  MOVWF  xD4
032C4:  MOVLB  0
032C6:  CALL   16D0
....................       write_eeprom(38,0); 
032CA:  CLRF   FAA
032CC:  MOVLW  26
032CE:  MOVWF  FA9
032D0:  CLRF   FA8
032D2:  BCF    FA6.6
032D4:  BCF    FA6.7
032D6:  BSF    FA6.2
032D8:  MOVF   FF2,W
032DA:  MOVWF  00
032DC:  BCF    FF2.6
032DE:  BCF    FF2.7
032E0:  MOVLB  F
032E2:  MOVLW  55
032E4:  MOVWF  FA7
032E6:  MOVLW  AA
032E8:  MOVWF  FA7
032EA:  BSF    FA6.1
032EC:  BTFSC  FA6.1
032EE:  BRA    32EC
032F0:  BCF    FA6.2
032F2:  MOVF   00,W
032F4:  IORWF  FF2,F
....................       delay_ms(10); 
032F6:  MOVLW  0A
032F8:  MOVLB  3
032FA:  MOVWF  xD4
032FC:  MOVLB  0
032FE:  CALL   16D0
....................    } 
....................    if(TTrampa>100){ 
03302:  MOVLB  2
03304:  MOVF   xD2,W
03306:  SUBLW  64
03308:  BC    3348
....................       TTrampa=80; 
0330A:  MOVLW  50
0330C:  MOVWF  xD2
....................       write_eeprom(39,80); 
0330E:  CLRF   FAA
03310:  MOVLW  27
03312:  MOVWF  FA9
03314:  MOVLW  50
03316:  MOVWF  FA8
03318:  BCF    FA6.6
0331A:  BCF    FA6.7
0331C:  BSF    FA6.2
0331E:  MOVF   FF2,W
03320:  MOVWF  00
03322:  BCF    FF2.6
03324:  BCF    FF2.7
03326:  MOVLB  F
03328:  MOVLW  55
0332A:  MOVWF  FA7
0332C:  MOVLW  AA
0332E:  MOVWF  FA7
03330:  BSF    FA6.1
03332:  BTFSC  FA6.1
03334:  BRA    3332
03336:  BCF    FA6.2
03338:  MOVF   00,W
0333A:  IORWF  FF2,F
....................       delay_ms(10); 
0333C:  MOVLW  0A
0333E:  MOVLB  3
03340:  MOVWF  xD4
03342:  MOVLB  0
03344:  CALL   16D0
....................    } 
....................    if(ActivaImpresion>1){ 
03348:  MOVLB  3
0334A:  MOVF   x2E,W
0334C:  SUBLW  01
0334E:  BC    3390
....................       ActivaImpresion=1; 
03350:  MOVLW  01
03352:  MOVWF  x2E
....................       write_eeprom(40,1); 
03354:  CLRF   FAA
03356:  MOVLW  28
03358:  MOVWF  FA9
0335A:  MOVLW  01
0335C:  MOVWF  FA8
0335E:  BCF    FA6.6
03360:  BCF    FA6.7
03362:  BSF    FA6.2
03364:  MOVF   FF2,W
03366:  MOVWF  00
03368:  BCF    FF2.6
0336A:  BCF    FF2.7
0336C:  MOVLB  F
0336E:  MOVLW  55
03370:  MOVWF  FA7
03372:  MOVLW  AA
03374:  MOVWF  FA7
03376:  BSF    FA6.1
03378:  BTFSC  FA6.1
0337A:  BRA    3378
0337C:  BCF    FA6.2
0337E:  MOVF   00,W
03380:  IORWF  FF2,F
....................       delay_ms(10); 
03382:  MOVLW  0A
03384:  MOVLB  3
03386:  MOVWF  xD4
03388:  MOVLB  0
0338A:  CALL   16D0
0338E:  MOVLB  3
....................    } 
....................    if(timpresion>30){ 
03390:  MOVF   x2F,W
03392:  SUBLW  1E
03394:  BC    33D6
....................       timpresion=2; 
03396:  MOVLW  02
03398:  MOVWF  x2F
....................       write_eeprom(41,2); 
0339A:  CLRF   FAA
0339C:  MOVLW  29
0339E:  MOVWF  FA9
033A0:  MOVLW  02
033A2:  MOVWF  FA8
033A4:  BCF    FA6.6
033A6:  BCF    FA6.7
033A8:  BSF    FA6.2
033AA:  MOVF   FF2,W
033AC:  MOVWF  00
033AE:  BCF    FF2.6
033B0:  BCF    FF2.7
033B2:  MOVLB  F
033B4:  MOVLW  55
033B6:  MOVWF  FA7
033B8:  MOVLW  AA
033BA:  MOVWF  FA7
033BC:  BSF    FA6.1
033BE:  BTFSC  FA6.1
033C0:  BRA    33BE
033C2:  BCF    FA6.2
033C4:  MOVF   00,W
033C6:  IORWF  FF2,F
....................       delay_ms(10); 
033C8:  MOVLW  0A
033CA:  MOVLB  3
033CC:  MOVWF  xD4
033CE:  MOVLB  0
033D0:  CALL   16D0
033D4:  MOVLB  3
....................    } 
....................    if(sg1==10){ 
033D6:  MOVF   x7D,W
033D8:  SUBLW  0A
033DA:  BNZ   33F0
....................       G1=G1*(-1); 
033DC:  MOVFF  37B,3CA
033E0:  MOVLW  FF
033E2:  MOVWF  xCB
033E4:  MOVLB  0
033E6:  CALL   29A2
033EA:  MOVFF  01,37B
033EE:  MOVLB  3
....................    } 
....................    if(sg2==10){ 
033F0:  MOVF   x7E,W
033F2:  SUBLW  0A
033F4:  BNZ   340A
....................       G2=G2*(-1); 
033F6:  MOVFF  37C,3CA
033FA:  MOVLW  FF
033FC:  MOVWF  xCB
033FE:  MOVLB  0
03400:  CALL   29A2
03404:  MOVFF  01,37C
03408:  MOVLB  3
....................    } 
.................... } 
0340A:  MOVLB  0
0340C:  GOTO   57EE (RETURN)
....................  
.................... void LeeDisplay(void){ 
....................    if(Dato_Exitoso==5){ 
*
039BC:  MOVLB  3
039BE:  MOVF   x32,W
039C0:  SUBLW  05
039C2:  BTFSS  FD8.2
039C4:  BRA    3B24
....................          RX_Buffer[0]=RX_Buffer2[0]; 
039C6:  MOVFF  3B,30
....................          RX_Buffer[1]=RX_Buffer2[1]; 
039CA:  MOVFF  3C,31
....................          RX_Buffer[2]=RX_Buffer2[2]; 
039CE:  MOVFF  3D,32
....................          RX_Buffer[3]=RX_Buffer2[3]; 
039D2:  MOVFF  3E,33
....................          RX_Buffer[4]=RX_Buffer2[4]; 
039D6:  MOVFF  3F,34
....................          RX_Buffer[5]=RX_Buffer2[5]; 
039DA:  MOVFF  40,35
....................          RX_Buffer[6]=RX_Buffer2[6]; 
039DE:  MOVFF  41,36
....................          RX_Buffer[7]=RX_Buffer2[7]; 
039E2:  MOVFF  42,37
....................          RX_Buffer[8]=RX_Buffer2[8]; 
039E6:  MOVFF  43,38
....................          RX_Buffer[9]=RX_Buffer2[9]; 
039EA:  MOVFF  44,39
....................           
....................       if(RX_Buffer[3]==0x01){// Pregunta por la pagina en la que esta el display,01 es Contrasea de Acceso 
039EE:  DECFSZ 33,W
039F0:  BRA    3A00
....................          Menu=0; 
039F2:  CLRF   x35
....................          if(MenuAntt!=Menu) 
039F4:  MOVF   x35,W
039F6:  SUBWF  x37,W
039F8:  BZ    39FE
....................             MenuAntt=Menu; 
039FA:  MOVFF  335,337
....................       }else if(RX_Buffer[3]==0x02){//02 es Menu Principal con PantallaPriincipal=0, y con PantallaPrincipal=1 es Ciclo Libre 
039FE:  BRA    3B22
03A00:  MOVF   33,W
03A02:  SUBLW  02
03A04:  BNZ   3A16
....................          Menu=1; 
03A06:  MOVLW  01
03A08:  MOVWF  x35
....................          if(MenuAntt!=Menu) 
03A0A:  MOVF   x35,W
03A0C:  SUBWF  x37,W
03A0E:  BZ    3A14
....................             MenuAntt=Menu; 
03A10:  MOVFF  335,337
....................       }else if(RX_Buffer[3]==0x03){//03 es Tiempo Esterilizacion 
03A14:  BRA    3B22
03A16:  MOVF   33,W
03A18:  SUBLW  03
03A1A:  BNZ   3A2C
....................          Menu=2; 
03A1C:  MOVLW  02
03A1E:  MOVWF  x35
....................          if(MenuAntt!=Menu) 
03A20:  MOVF   x35,W
03A22:  SUBWF  x37,W
03A24:  BZ    3A2A
....................             MenuAntt=Menu; 
03A26:  MOVFF  335,337
....................       }else if(RX_Buffer[3]==0x04){//04 es Tiempo de Secado 
03A2A:  BRA    3B22
03A2C:  MOVF   33,W
03A2E:  SUBLW  04
03A30:  BNZ   3A42
....................          Menu=3; 
03A32:  MOVLW  03
03A34:  MOVWF  x35
....................          if(MenuAntt!=Menu) 
03A36:  MOVF   x35,W
03A38:  SUBWF  x37,W
03A3A:  BZ    3A40
....................             MenuAntt=Menu; 
03A3C:  MOVFF  335,337
....................       }else if(RX_Buffer[3]==0x05){//05 es Temperatura 
03A40:  BRA    3B22
03A42:  MOVF   33,W
03A44:  SUBLW  05
03A46:  BNZ   3A58
....................          Menu=4; 
03A48:  MOVLW  04
03A4A:  MOVWF  x35
....................          if(MenuAntt!=Menu) 
03A4C:  MOVF   x35,W
03A4E:  SUBWF  x37,W
03A50:  BZ    3A56
....................             MenuAntt=Menu; 
03A52:  MOVFF  335,337
....................       }else if(RX_Buffer[3]==0x06){//06 es Nivel 
03A56:  BRA    3B22
03A58:  MOVF   33,W
03A5A:  SUBLW  06
03A5C:  BNZ   3A6E
....................          Menu=5; 
03A5E:  MOVLW  05
03A60:  MOVWF  x35
....................          if(MenuAntt!=Menu) 
03A62:  MOVF   x35,W
03A64:  SUBWF  x37,W
03A66:  BZ    3A6C
....................             MenuAntt=Menu; 
03A68:  MOVFF  335,337
....................       }else if(RX_Buffer[3]==0x07){//07 es Test de Componentes 
03A6C:  BRA    3B22
03A6E:  MOVF   33,W
03A70:  SUBLW  07
03A72:  BNZ   3A84
....................          Menu=6; 
03A74:  MOVLW  06
03A76:  MOVWF  x35
....................          if(MenuAntt!=Menu) 
03A78:  MOVF   x35,W
03A7A:  SUBWF  x37,W
03A7C:  BZ    3A82
....................             MenuAntt=Menu; 
03A7E:  MOVFF  335,337
....................       }else if(RX_Buffer[3]==0x08){//08 es Fecha y hora 
03A82:  BRA    3B22
03A84:  MOVF   33,W
03A86:  SUBLW  08
03A88:  BNZ   3A9A
....................          Menu=7; 
03A8A:  MOVLW  07
03A8C:  MOVWF  x35
....................          if(MenuAntt!=Menu) 
03A8E:  MOVF   x35,W
03A90:  SUBWF  x37,W
03A92:  BZ    3A98
....................             MenuAntt=Menu; 
03A94:  MOVFF  335,337
....................       }else if(RX_Buffer[3]==0x09){//09 es Ciclos Personalizados 
03A98:  BRA    3B22
03A9A:  MOVF   33,W
03A9C:  SUBLW  09
03A9E:  BNZ   3AB0
....................          Menu=8; 
03AA0:  MOVLW  08
03AA2:  MOVWF  x35
....................          if(MenuAntt!=Menu) 
03AA4:  MOVF   x35,W
03AA6:  SUBWF  x37,W
03AA8:  BZ    3AAE
....................             MenuAntt=Menu; 
03AAA:  MOVFF  335,337
....................       }else if(RX_Buffer[3]==0x0f){//0f es Recibe caracteres de contrasea desde display 
03AAE:  BRA    3B22
03AB0:  MOVF   33,W
03AB2:  SUBLW  0F
03AB4:  BNZ   3AB8
....................           
....................       }else if(RX_Buffer[3]==0x1a){//1a es Menu de Funcionamiento 
03AB6:  BRA    3B22
03AB8:  MOVF   33,W
03ABA:  SUBLW  1A
03ABC:  BNZ   3ACE
....................          Menu=20; 
03ABE:  MOVLW  14
03AC0:  MOVWF  x35
....................          if(MenuAntt!=Menu) 
03AC2:  MOVF   x35,W
03AC4:  SUBWF  x37,W
03AC6:  BZ    3ACC
....................             MenuAntt=Menu; 
03AC8:  MOVFF  335,337
....................       }else if(RX_Buffer[3]==0x1b){//1b es Menu de clave correcta 
03ACC:  BRA    3B22
03ACE:  MOVF   33,W
03AD0:  SUBLW  1B
03AD2:  BNZ   3AE4
....................          Menu=15; 
03AD4:  MOVLW  0F
03AD6:  MOVWF  x35
....................          if(MenuAntt!=Menu) 
03AD8:  MOVF   x35,W
03ADA:  SUBWF  x37,W
03ADC:  BZ    3AE2
....................             MenuAntt=Menu; 
03ADE:  MOVFF  335,337
....................       }else if(RX_Buffer[3]==0x1c){//1c es Menu de clave incorrecta 
03AE2:  BRA    3B22
03AE4:  MOVF   33,W
03AE6:  SUBLW  1C
03AE8:  BNZ   3AFA
....................          Menu=16; 
03AEA:  MOVLW  10
03AEC:  MOVWF  x35
....................          if(MenuAntt!=Menu) 
03AEE:  MOVF   x35,W
03AF0:  SUBWF  x37,W
03AF2:  BZ    3AF8
....................             MenuAntt=Menu; 
03AF4:  MOVFF  335,337
....................       }else if(RX_Buffer[3]==0x2c){//2c es Menu de Configuracion de Parametros 
03AF8:  BRA    3B22
03AFA:  MOVF   33,W
03AFC:  SUBLW  2C
03AFE:  BNZ   3B10
....................          Menu=100; 
03B00:  MOVLW  64
03B02:  MOVWF  x35
....................          if(MenuAntt!=Menu) 
03B04:  MOVF   x35,W
03B06:  SUBWF  x37,W
03B08:  BZ    3B0E
....................             MenuAntt=Menu; 
03B0A:  MOVFF  335,337
....................       }else if(RX_Buffer[3]==0xcc){//cc es Menu de Bienvenida 
03B0E:  BRA    3B22
03B10:  MOVF   33,W
03B12:  SUBLW  CC
03B14:  BNZ   3B22
....................          Menu=240; 
03B16:  MOVLW  F0
03B18:  MOVWF  x35
....................          if(MenuAntt!=240) 
03B1A:  MOVF   x37,W
03B1C:  SUBLW  F0
03B1E:  BZ    3B22
....................             reset_cpu(); 
03B20:  RESET
....................       } 
....................    }else{ 
03B22:  BRA    3B30
....................       for(z=0;z<RX_BUFFER_SIZE;z++){ 
03B24:  CLRF   x34
03B26:  MOVF   x34,W
03B28:  SUBLW  09
03B2A:  BNC   3B30
....................             //Rx_Buffer[z]=0; 
....................             //Rx_Buffer2[z]=0; 
....................          } 
03B2C:  INCF   x34,F
03B2E:  BRA    3B26
....................    } 
.................... } 
03B30:  MOVLB  0
03B32:  GOTO   591A (RETURN)
....................  
.................... void ConfiguraCiclo(int16 mesteri,int8 sesteri,liquidos,ciclo,temperatura){ 
....................    Setpoint=temperatura;                
*
04494:  MOVFF  3D3,33C
....................    tiempo_secado=0; 
04498:  MOVLB  3
0449A:  CLRF   x40
....................    desfoguelento=liquidos; 
0449C:  MOVLB  0
0449E:  BCF    xA3.5
044A0:  MOVLB  3
044A2:  BTFSS  xD1.0
044A4:  BRA    44AC
044A6:  MOVLB  0
044A8:  BSF    xA3.5
044AA:  MOVLB  3
....................    CicloSeleccionado=ciclo; 
044AC:  MOVFF  3D2,33B
....................    if(ActivaImpresion==1){ 
044B0:  DECFSZ x2E,W
044B2:  BRA    44CE
....................       Imprime=5; 
044B4:  MOVLW  05
044B6:  MOVWF  x7A
....................       Envio_Esclavos(); 
044B8:  MOVLB  0
044BA:  RCALL  3D7E
....................       delay_ms(100); 
044BC:  MOVLW  64
044BE:  MOVLB  3
044C0:  MOVWF  xD4
044C2:  MOVLB  0
044C4:  CALL   16D0
....................       Imprime=10; 
044C8:  MOVLW  0A
044CA:  MOVLB  3
044CC:  MOVWF  x7A
....................    } 
....................    segundoEst=sesteri; 
044CE:  MOVFF  3D0,C2
....................    minutoEst=mesteri; 
044D2:  MOVFF  3CF,C4
044D6:  MOVFF  3CE,C3
.................... } 
044DA:  MOVLB  0
044DC:  RETLW  00
....................  
.................... void ActivaAlarma(int8 Tipo){ 
....................     
....................    if(tsilencio>12000){ 
*
042BC:  MOVLB  3
042BE:  MOVF   x6A,W
042C0:  SUBLW  2D
042C2:  BC    42D8
042C4:  XORLW  FF
042C6:  BNZ   42CE
042C8:  MOVF   x69,W
042CA:  SUBLW  E0
042CC:  BC    42D8
....................       tsilencio=0; 
042CE:  CLRF   x6A
042D0:  CLRF   x69
....................       flagSilencio=OFF; 
042D2:  MOVLB  0
042D4:  BCF    xA2.7
042D6:  MOVLB  3
....................    } 
....................     
....................    if(Tipo==1){ // Alarma por Error 
042D8:  DECFSZ xC9,W
042DA:  BRA    4330
....................    if(UP || DOWN || RIGHT || LEFT) 
042DC:  BSF    F93.0
042DE:  BTFSS  F81.0
042E0:  BRA    42F4
042E2:  BSF    F93.1
042E4:  BTFSS  F81.1
042E6:  BRA    42F4
042E8:  BSF    F93.2
042EA:  BTFSS  F81.2
042EC:  BRA    42F4
042EE:  BSF    F93.3
042F0:  BTFSC  F81.3
042F2:  BRA    42F8
....................       flagSilencio=ON; 
042F4:  MOVLB  0
042F6:  BSF    xA2.7
....................        
....................       if(!flagSilencio){ 
042F8:  MOVLB  0
042FA:  BTFSC  xA2.7
042FC:  BRA    4328
....................          flagAlarma=1; 
042FE:  BSF    xA2.5
....................          if(tbuzzer>200){ 
04300:  MOVLB  3
04302:  MOVF   x68,F
04304:  BNZ   430C
04306:  MOVF   x67,W
04308:  SUBLW  C8
0430A:  BC    4324
....................             tbuzzer=0; 
0430C:  CLRF   x68
0430E:  CLRF   x67
....................             flagBuzzer=!flagBuzzer; 
04310:  MOVLB  0
04312:  BTG    xA2.6
....................             if(flagBuzzer) 
04314:  BTFSS  xA2.6
04316:  BRA    431E
....................                Buzzer_on; 
04318:  BSF    F8C.0
0431A:  BCF    F95.0
....................             else 
0431C:  BRA    4322
....................                Buzzer_off; 
0431E:  BCF    F8C.0
04320:  BCF    F95.0
04322:  MOVLB  3
....................          } 
....................       }else{ 
04324:  BRA    432E
04326:  MOVLB  0
....................          Buzzer_off; 
04328:  BCF    F8C.0
0432A:  BCF    F95.0
0432C:  MOVLB  3
....................       } 
....................    }else if(Tipo==2){ 
0432E:  BRA    4388
04330:  MOVF   xC9,W
04332:  SUBLW  02
04334:  BNZ   4388
....................    if(UP || DOWN || RIGHT || LEFT) 
04336:  BSF    F93.0
04338:  BTFSS  F81.0
0433A:  BRA    434E
0433C:  BSF    F93.1
0433E:  BTFSS  F81.1
04340:  BRA    434E
04342:  BSF    F93.2
04344:  BTFSS  F81.2
04346:  BRA    434E
04348:  BSF    F93.3
0434A:  BTFSC  F81.3
0434C:  BRA    4352
....................       ConteoBuzzer=21; 
0434E:  MOVLW  15
04350:  MOVWF  x64
....................        
....................       flagAlarma=1; 
04352:  MOVLB  0
04354:  BSF    xA2.5
....................       if(ConteoBuzzer<20){    
04356:  MOVLB  3
04358:  MOVF   x64,W
0435A:  SUBLW  13
0435C:  BNC   4384
....................          if(tbuzzer>100){ 
0435E:  MOVF   x68,F
04360:  BNZ   4368
04362:  MOVF   x67,W
04364:  SUBLW  64
04366:  BC    4382
....................             tbuzzer=0; 
04368:  CLRF   x68
0436A:  CLRF   x67
....................             flagBuzzer=!flagBuzzer; 
0436C:  MOVLB  0
0436E:  BTG    xA2.6
....................             if(flagBuzzer) 
04370:  BTFSS  xA2.6
04372:  BRA    437A
....................                Buzzer_on; 
04374:  BSF    F8C.0
04376:  BCF    F95.0
....................             else 
04378:  BRA    437E
....................                Buzzer_off; 
0437A:  BCF    F8C.0
0437C:  BCF    F95.0
....................                 
....................             ConteoBuzzer++;    
0437E:  MOVLB  3
04380:  INCF   x64,F
....................          } 
....................       }else{ 
04382:  BRA    4388
....................          Buzzer_off; 
04384:  BCF    F8C.0
04386:  BCF    F95.0
....................       } 
....................    } 
.................... } 
04388:  MOVLB  0
0438A:  RETLW  00
....................  
.................... void CalientaChaqueta(){ 
....................    if(PresionPrecamara<130){ 
*
0500A:  MOVLB  3
0500C:  MOVF   x51,F
0500E:  BNZ   501C
05010:  MOVF   x50,W
05012:  SUBLW  81
05014:  BNC   501C
....................       SSR_on; 
05016:  BCF    F8B.2
05018:  BCF    F94.2
....................    }else if(PresionPreCamara>150){ 
0501A:  BRA    502A
0501C:  MOVF   x51,F
0501E:  BNZ   5026
05020:  MOVF   x50,W
05022:  SUBLW  96
05024:  BC    502A
....................       SSR_off; 
05026:  BSF    F8B.2
05028:  BCF    F94.2
....................    } 
.................... } 
0502A:  MOVLB  0
0502C:  GOTO   A4FA (RETURN)
....................  
.................... void ApagaSalidas(){ 
....................    Desfogue_off; 
*
03478:  BCF    F8C.4
0347A:  BCF    F95.4
....................    Paso_off; 
0347C:  BCF    F8C.5
0347E:  BCF    F95.5
....................    AguaIn_off; 
03480:  BCF    F8C.6
03482:  BCF    F95.6
....................    Buzzer_off; 
03484:  BCF    F8C.0
03486:  BCF    F95.0
....................    SSR_off; 
03488:  BSF    F8B.2
0348A:  BCF    F94.2
....................    Controlando=0; 
0348C:  MOVLB  3
0348E:  CLRF   x2D
.................... } 
03490:  MOVLB  0
03492:  RETLW  00
....................  
....................  
.................... #int_rda HIGH 
.................... void serial_rx_isr(){ 
....................  
....................    Dato2=fgetc(); 
*
00204:  BTFSS  F9E.5
00206:  BRA    0204
00208:  MOVFF  FAE,333
0020C:  MOVLB  3
....................    if(Dato2==0x65){//Inicio Comunicacion 
0020E:  MOVF   x33,W
00210:  SUBLW  65
00212:  BNZ   021A
....................       Inicio=1; 
00214:  MOVLW  01
00216:  MOVWF  x31
....................       RX_Wr_Index =0; 
00218:  CLRF   46
....................    } 
....................    //Inicio=1; 
....................    if(Inicio==1){ 
0021A:  DECFSZ x31,W
0021C:  BRA    0232
....................       Rx_Buffer2[RX_Wr_Index] = Dato2; 
0021E:  CLRF   03
00220:  MOVF   46,W
00222:  ADDLW  3B
00224:  MOVWF  FE9
00226:  MOVLW  00
00228:  ADDWFC 03,W
0022A:  MOVWF  FEA
0022C:  MOVFF  333,FEF
....................       RX_Wr_Index++; 
00230:  INCF   46,F
....................    } 
....................    if(RX_Wr_Index >= RX_BUFFER_SIZE){ 
00232:  MOVF   46,W
00234:  SUBLW  09
00236:  BC    023C
....................       RX_Wr_Index =0; 
00238:  CLRF   46
....................       Inicio=0; 
0023A:  CLRF   x31
....................    } 
....................  
....................    if(RX_Wr_Index==0){ 
0023C:  MOVF   46,F
0023E:  BNZ   0260
....................       if(Rx_Buffer2[0]==0x65 && Rx_Buffer2[1]==0xff && Rx_Buffer2[2]==0xff && Rx_Buffer2[8]==0x00 && Rx_Buffer2[9]==0xff ){ 
00240:  MOVF   3B,W
00242:  SUBLW  65
00244:  BNZ   025C
00246:  INCFSZ 3C,W
00248:  BRA    025C
0024A:  INCFSZ 3D,W
0024C:  BRA    025C
0024E:  MOVF   43,F
00250:  BNZ   025C
00252:  INCFSZ 44,W
00254:  BRA    025C
....................          Dato_Exitoso=5; 
00256:  MOVLW  05
00258:  MOVWF  x32
....................       }else{ 
0025A:  BRA    0260
....................          Dato_Exitoso=10; 
0025C:  MOVLW  0A
0025E:  MOVWF  x32
....................       } 
....................    } 
....................    //Dato_Exitoso=5; 
....................    if(Menu==20) 
00260:  MOVF   x35,W
00262:  SUBLW  14
00264:  BNZ   026A
....................      Buzzer_on; 
00266:  BSF    F8C.0
00268:  BCF    F95.0
.................... } 
....................  
0026A:  BCF    F9E.5
0026C:  MOVLB  0
0026E:  GOTO   010A
.................... #int_TIMER0 
.................... void temp0s(void){ 
....................    set_timer0(0); 
00272:  CLRF   FD7
00274:  CLRF   FD6
....................    t_exhaust++; 
00276:  MOVLB  3
00278:  INCF   x65,F
0027A:  BTFSC  FD8.2
0027C:  INCF   x66,F
....................    if(DesfogueSuave) 
0027E:  MOVLB  0
00280:  BTFSS  xA0.5
00282:  BRA    02C4
....................    { 
....................       if(Nivel<6) 
00284:  MOVLB  3
00286:  MOVF   x4B,F
00288:  BNZ   02BE
0028A:  MOVF   x4A,W
0028C:  SUBLW  05
0028E:  BNC   02BE
....................       { 
....................          if(t_exhaust<=NivelSeleccionado) // Si el tiempo es menor o igual al tiempo de control se enciende la resistencia de lo contrario se apaga. 
00290:  MOVF   x66,W
00292:  SUBWF  x55,W
00294:  BNC   02A4
00296:  BNZ   029E
00298:  MOVF   x65,W
0029A:  SUBWF  x54,W
0029C:  BNC   02A4
....................          { 
....................             Desfogue_on; 
0029E:  BSF    F8C.4
002A0:  BCF    F95.4
....................          }else{             
002A2:  BRA    02A8
....................             Desfogue_off; 
002A4:  BCF    F8C.4
002A6:  BCF    F95.4
....................          }    
....................        
....................          if(t_exhaust>=60000) // Si el tiempo de control es mayor al tiempo de ciclo se reinicia tiempo de control 
002A8:  MOVF   x66,W
002AA:  SUBLW  E9
002AC:  BC    02BC
002AE:  XORLW  FF
002B0:  BNZ   02B8
002B2:  MOVF   x65,W
002B4:  SUBLW  5F
002B6:  BC    02BC
....................          { 
....................             t_exhaust=0; 
002B8:  CLRF   x66
002BA:  CLRF   x65
....................          } // tiempoctrl incrementa una unidad cada Xms, por eso se dividen los tiempos por 0.005. 
....................       } 
....................       else 
002BC:  BRA    02C2
....................       { 
....................          Desfogue_on; 
002BE:  BSF    F8C.4
002C0:  BCF    F95.4
002C2:  MOVLB  0
....................       } 
....................    }   
.................... } 
....................  
002C4:  BCF    FF2.2
002C6:  GOTO   0074
.................... #int_TIMER1 
.................... void temp1s(void){ 
....................    set_timer1(40536); // Se repite cada 5ms 
002CA:  MOVLW  9E
002CC:  MOVWF  FCF
002CE:  MOVLW  58
002D0:  MOVWF  FCE
....................    tiempos++; 
002D2:  MOVLB  3
002D4:  INCF   x42,F
002D6:  BTFSC  FD8.2
002D8:  INCF   x43,F
....................    tiempos2++; 
002DA:  INCF   x44,F
002DC:  BTFSC  FD8.2
002DE:  INCF   x45,F
....................    tiempos3++; 
002E0:  INCF   x46,F
002E2:  BTFSC  FD8.2
002E4:  INCF   x47,F
....................    tiempoctrl++; 
002E6:  INCF   x48,F
002E8:  BTFSC  FD8.2
002EA:  INCF   x49,F
....................     
....................    if(flagAlarma) 
002EC:  MOVLB  0
002EE:  BTFSS  xA2.5
002F0:  BRA    02FC
....................       tbuzzer++; 
002F2:  MOVLB  3
002F4:  INCF   x67,F
002F6:  BTFSC  FD8.2
002F8:  INCF   x68,F
002FA:  MOVLB  0
....................        
....................    if(flagSilencio)    
002FC:  BTFSS  xA2.7
002FE:  BRA    0308
....................       tsilencio++; 
00300:  MOVLB  3
00302:  INCF   x69,F
00304:  BTFSC  FD8.2
00306:  INCF   x6A,F
....................     
....................    if(Controlando==1){ 
00308:  MOVLB  3
0030A:  DECFSZ x2D,W
0030C:  BRA    034A
....................       if(tiempoctrl<Tp) // Si el tiempo es menor o igual al tiempo de control se enciende la resistencia de lo contrario se apaga. 
0030E:  MOVF   x49,W
00310:  MOVLB  0
00312:  SUBWF  xAB,W
00314:  BNC   032E
00316:  BNZ   0328
00318:  MOVF   xAA,W
0031A:  MOVLB  3
0031C:  SUBWF  x48,W
0031E:  BTFSS  FD8.0
00320:  BRA    0326
00322:  MOVLB  0
00324:  BRA    032E
00326:  MOVLB  0
....................       { 
....................          SSR_on; 
00328:  BCF    F8B.2
0032A:  BCF    F94.2
....................       } 
....................       else          
0032C:  BRA    0332
....................       { 
....................          SSR_off; 
0032E:  BSF    F8B.2
00330:  BCF    F94.2
....................       } 
....................              
....................       if(tiempoctrl>=Tc) // Si el tiempo de control es mayor al tiempo de ciclo se reinicia tiempo de control 
00332:  MOVF   xAD,W
00334:  MOVLB  3
00336:  SUBWF  x49,W
00338:  BNC   034A
0033A:  BNZ   0346
0033C:  MOVLB  0
0033E:  MOVF   xAC,W
00340:  MOVLB  3
00342:  SUBWF  x48,W
00344:  BNC   034A
....................       { 
....................          tiempoctrl=0; 
00346:  CLRF   x49
00348:  CLRF   x48
....................       } // tiempoctrl incrementa una unidad cada 5ms, por eso se dividen los tiempos por 0.005. 
....................    } 
....................     
....................    if(tiempos>=200)  // 12000 para que incremente cada minuto, 200para que incremente cada segundo. 
0034A:  MOVF   x43,F
0034C:  BNZ   0354
0034E:  MOVF   x42,W
00350:  SUBLW  C7
00352:  BC    03E2
....................    { 
....................       if(flagTC) 
00354:  BTFSS  x2A.1
00356:  BRA    035A
....................          TiempoControl++; 
00358:  INCF   x62,F
....................        
....................       tiemporecta++; 
0035A:  INCF   x2C,F
....................        
....................       if(IniciaCiclo && tiempoImpresion<CalculoImpresion){ 
0035C:  MOVLB  0
0035E:  BTFSS  xA0.0
00360:  BRA    0374
00362:  MOVLB  3
00364:  MOVF   x30,W
00366:  SUBWF  x41,W
00368:  BTFSS  FD8.0
0036A:  BRA    0370
0036C:  MOVLB  0
0036E:  BRA    0374
....................          tiempoImpresion++; 
00370:  INCF   x41,F
....................       }else if(tiempoImpresion>=CalculoImpresion){ 
00372:  BRA    0380
00374:  MOVLB  3
00376:  MOVF   x30,W
00378:  SUBWF  x41,W
0037A:  BNC   0380
....................          flagImprime=1; 
0037C:  BSF    x2A.2
....................          tiempoImpresion=0; 
0037E:  CLRF   x41
....................       } 
....................        
....................       if(IniciaCiclo && !Esterilizando){ 
00380:  MOVLB  0
00382:  BTFSS  xA0.0
00384:  BRA    0390
00386:  BTFSC  xA0.1
00388:  BRA    0390
....................          TiempoCiclo++; 
0038A:  INCF   xA4,F
0038C:  BTFSC  FD8.2
0038E:  INCF   xA5,F
....................       } 
....................        
....................       if(IniciaLlenado && !CalderinLleno){ 
00390:  BTFSS  x9F.6
00392:  BRA    039E
00394:  BTFSC  x9F.7
00396:  BRA    039E
....................          TiempoLlenado++; 
00398:  INCF   xA6,F
0039A:  BTFSC  FD8.2
0039C:  INCF   xA7,F
....................       } 
....................        
....................       if(SensadoNivel){ 
0039E:  BTFSS  xA0.3
003A0:  BRA    03A8
....................          TiempoSensadoNivel++; 
003A2:  INCF   xA8,F
003A4:  BTFSC  FD8.2
003A6:  INCF   xA9,F
....................       } 
....................        
....................       tiempos=0;Lectura=1;tinicio++; 
003A8:  MOVLB  3
003AA:  CLRF   x43
003AC:  CLRF   x42
003AE:  MOVLB  0
003B0:  BSF    xA3.6
003B2:  MOVLB  3
003B4:  INCF   x4C,F
003B6:  BTFSC  FD8.2
003B8:  INCF   x4D,F
....................     
....................       if(Esterilizando && !Desfogando){                
003BA:  MOVLB  0
003BC:  BTFSS  xA0.1
003BE:  BRA    03E0
003C0:  BTFSC  xA0.4
003C2:  BRA    03E0
....................          if(segundoEst>0){ 
003C4:  MOVF   xC2,F
003C6:  BZ    03CC
....................             segundoEst--; 
003C8:  DECF   xC2,F
....................          }else if(minutoEst>0){ 
003CA:  BRA    03E0
003CC:  MOVF   xC3,F
003CE:  BNZ   03D4
003D0:  MOVF   xC4,F
003D2:  BZ    03E0
....................             minutoEst--; 
003D4:  MOVF   xC3,W
003D6:  BTFSC  FD8.2
003D8:  DECF   xC4,F
003DA:  DECF   xC3,F
....................             segundoEst=59; 
003DC:  MOVLW  3B
003DE:  MOVWF  xC2
003E0:  MOVLB  3
....................          } 
....................       } 
....................        
....................       /*if(Secando){ 
....................          if(Tsecado[0]>0){ 
....................             Tsecado[0]--; 
....................          }else if(Tsecado[1]>0){ 
....................             Tsecado[1]--; 
....................             Tsecado[0]=9; 
....................          }else if(Tsecado[2]>0){ 
....................             Tsecado[2]--; 
....................             Tsecado[1]=5; 
....................             Tsecado[0]=9; 
....................          }else if(Tsecado[3]>0){ 
....................             Tsecado[3]--; 
....................             Tsecado[2]=9; 
....................             Tsecado[1]=5; 
....................             Tsecado[0]=9; 
....................          } 
....................       }*/ 
....................    } 
.................... } 
....................  
003E2:  BCF    F9E.0
003E4:  MOVLB  0
003E6:  GOTO   0074
.................... void main() 
.................... { 
*
05030:  CLRF   FF8
05032:  BCF    FF1.2
05034:  BCF    F9F.0
05036:  BSF    F9F.5
05038:  BSF    FD0.7
0503A:  BSF    07.7
0503C:  CLRF   FEA
0503E:  CLRF   FE9
05040:  BSF    FB8.3
05042:  MOVLW  08
05044:  MOVWF  FAF
05046:  MOVLW  02
05048:  MOVWF  FB0
0504A:  MOVLW  A6
0504C:  MOVWF  FAC
0504E:  MOVLW  90
05050:  MOVWF  FAB
05052:  CLRF   46
05054:  CLRF   47
05056:  CLRF   48
05058:  CLRF   x62
0505A:  CLRF   x63
0505C:  CLRF   x84
0505E:  CLRF   x85
05060:  CLRF   x86
05062:  BCF    x9F.0
05064:  BCF    x9F.1
05066:  BCF    x9F.2
05068:  BCF    x9F.3
0506A:  BCF    x9F.4
0506C:  BCF    x9F.5
0506E:  BCF    x9F.6
05070:  BCF    x9F.7
05072:  BCF    xA0.0
05074:  BCF    xA0.1
05076:  BCF    xA0.2
05078:  BCF    xA0.3
0507A:  BCF    xA0.4
0507C:  BCF    xA0.5
0507E:  BCF    xA0.6
05080:  BCF    xA0.7
05082:  BCF    xA1.0
05084:  BCF    xA1.1
05086:  BCF    xA1.2
05088:  BCF    xA1.3
0508A:  BCF    xA1.4
0508C:  BCF    xA1.5
0508E:  BCF    xA1.6
05090:  BCF    xA1.7
05092:  BCF    xA2.0
05094:  BCF    xA2.1
05096:  BCF    xA2.2
05098:  BCF    xA2.3
0509A:  BCF    xA2.4
0509C:  BCF    xA2.5
0509E:  BCF    xA2.6
050A0:  BCF    xA2.7
050A2:  BCF    xA3.0
050A4:  BCF    xA3.1
050A6:  BCF    xA3.2
050A8:  BCF    xA3.3
050AA:  BCF    xA3.4
050AC:  CLRF   xA5
050AE:  CLRF   xA4
050B0:  CLRF   xA7
050B2:  CLRF   xA6
050B4:  CLRF   xA9
050B6:  CLRF   xA8
050B8:  CLRF   xAB
050BA:  CLRF   xAA
050BC:  CLRF   xAD
050BE:  CLRF   xAC
050C0:  CLRF   xAF
050C2:  CLRF   xAE
050C4:  CLRF   xC2
050C6:  CLRF   xC4
050C8:  CLRF   xC3
050CA:  MOVLW  9A
050CC:  MOVLB  2
050CE:  MOVWF  xA8
050D0:  MOVLW  99
050D2:  MOVWF  xA7
050D4:  MOVLW  0D
050D6:  MOVWF  xA6
050D8:  MOVLW  86
050DA:  MOVWF  xA5
050DC:  CLRF   xAC
050DE:  CLRF   xAB
050E0:  CLRF   xAA
050E2:  MOVLW  7E
050E4:  MOVWF  xA9
050E6:  CLRF   xB0
050E8:  CLRF   xAF
050EA:  CLRF   xAE
050EC:  CLRF   xAD
050EE:  CLRF   xB4
050F0:  CLRF   xB3
050F2:  MOVLW  48
050F4:  MOVWF  xB2
050F6:  MOVLW  85
050F8:  MOVWF  xB1
050FA:  CLRF   xB8
050FC:  MOVLW  80
050FE:  MOVWF  xB7
05100:  MOVLW  54
05102:  MOVWF  xB6
05104:  MOVLW  8B
05106:  MOVWF  xB5
05108:  CLRF   xC4
0510A:  CLRF   xC3
0510C:  CLRF   xC2
0510E:  CLRF   xC1
05110:  CLRF   xC8
05112:  CLRF   xC7
05114:  CLRF   xC6
05116:  CLRF   xC5
05118:  CLRF   xCC
0511A:  CLRF   xCB
0511C:  CLRF   xCA
0511E:  CLRF   xC9
05120:  CLRF   xCD
05122:  CLRF   xCE
05124:  CLRF   xCF
05126:  CLRF   xD0
05128:  MOVLW  14
0512A:  MOVWF  xD1
0512C:  CLRF   xD2
0512E:  CLRF   xD3
05130:  CLRF   xD4
05132:  CLRF   xD5
05134:  CLRF   xD6
05136:  CLRF   xDA
05138:  CLRF   xD9
0513A:  CLRF   xD8
0513C:  CLRF   xD7
0513E:  CLRF   xE2
05140:  CLRF   xE1
05142:  MOVLW  20
05144:  MOVWF  xE0
05146:  MOVLW  82
05148:  MOVWF  xDF
0514A:  CLRF   xE6
0514C:  CLRF   xE5
0514E:  CLRF   xE4
05150:  CLRF   xE3
05152:  CLRF   xEA
05154:  CLRF   xE9
05156:  CLRF   xE8
05158:  CLRF   xE7
0515A:  CLRF   xEE
0515C:  CLRF   xED
0515E:  CLRF   xEC
05160:  CLRF   xEB
05162:  CLRF   xF2
05164:  CLRF   xF1
05166:  CLRF   xF0
05168:  CLRF   xEF
0516A:  CLRF   xF6
0516C:  CLRF   xF5
0516E:  CLRF   xF4
05170:  CLRF   xF3
05172:  CLRF   xFA
05174:  CLRF   xF9
05176:  MOVLW  48
05178:  MOVWF  xF8
0517A:  MOVLW  83
0517C:  MOVWF  xF7
0517E:  CLRF   xFE
05180:  CLRF   xFD
05182:  MOVLW  20
05184:  MOVWF  xFC
05186:  MOVLW  83
05188:  MOVWF  xFB
0518A:  MOVLB  3
0518C:  CLRF   x02
0518E:  CLRF   x01
05190:  CLRF   x00
05192:  MOVLW  7F
05194:  MOVLB  2
05196:  MOVWF  xFF
05198:  MOVLB  3
0519A:  CLRF   x06
0519C:  CLRF   x05
0519E:  CLRF   x04
051A0:  CLRF   x03
051A2:  CLRF   x0A
051A4:  CLRF   x09
051A6:  CLRF   x08
051A8:  CLRF   x07
051AA:  CLRF   x0E
051AC:  CLRF   x0D
051AE:  CLRF   x0C
051B0:  CLRF   x0B
051B2:  CLRF   x12
051B4:  CLRF   x11
051B6:  CLRF   x10
051B8:  CLRF   x0F
051BA:  CLRF   x16
051BC:  CLRF   x15
051BE:  CLRF   x14
051C0:  CLRF   x13
051C2:  MOVLW  4A
051C4:  MOVWF  x1A
051C6:  MOVLW  88
051C8:  MOVWF  x19
051CA:  MOVLW  28
051CC:  MOVWF  x18
051CE:  MOVLW  75
051D0:  MOVWF  x17
051D2:  MOVLW  E0
051D4:  MOVWF  x1E
051D6:  MOVLW  2D
051D8:  MOVWF  x1D
051DA:  MOVLW  10
051DC:  MOVWF  x1C
051DE:  MOVLW  75
051E0:  MOVWF  x1B
051E2:  MOVLW  FF
051E4:  MOVWF  x22
051E6:  MOVLW  21
051E8:  MOVWF  x21
051EA:  MOVLW  15
051EC:  MOVWF  x20
051EE:  MOVLW  80
051F0:  MOVWF  x1F
051F2:  MOVLW  82
051F4:  MOVWF  x26
051F6:  MOVLW  12
051F8:  MOVWF  x25
051FA:  MOVLW  F4
051FC:  MOVWF  x24
051FE:  MOVLW  86
05200:  MOVWF  x23
05202:  CLRF   x27
05204:  CLRF   x28
05206:  CLRF   x29
05208:  MOVLB  0
0520A:  BCF    xA3.5
0520C:  BCF    xA3.6
0520E:  BCF    xA3.7
05210:  MOVLB  3
05212:  BCF    x2A.0
05214:  BCF    x2A.1
05216:  BCF    x2A.2
05218:  BCF    x2A.3
0521A:  CLRF   x2B
0521C:  CLRF   x2C
0521E:  CLRF   x2D
05220:  MOVLW  01
05222:  MOVWF  x2E
05224:  MOVLW  02
05226:  MOVWF  x2F
05228:  CLRF   x30
0522A:  MOVLW  01
0522C:  MOVWF  x31
0522E:  CLRF   x32
05230:  CLRF   x33
05232:  CLRF   x34
05234:  CLRF   x35
05236:  CLRF   x36
05238:  MOVLW  F0
0523A:  MOVWF  x37
0523C:  CLRF   x38
0523E:  CLRF   x39
05240:  CLRF   x3A
05242:  CLRF   x3B
05244:  CLRF   x3C
05246:  MOVLW  01
05248:  MOVWF  x3D
0524A:  MOVWF  x3E
0524C:  CLRF   x3F
0524E:  CLRF   x40
05250:  CLRF   x41
05252:  CLRF   x43
05254:  CLRF   x42
05256:  CLRF   x45
05258:  CLRF   x44
0525A:  CLRF   x47
0525C:  CLRF   x46
0525E:  CLRF   x49
05260:  CLRF   x48
05262:  CLRF   x4B
05264:  CLRF   x4A
05266:  CLRF   x4D
05268:  CLRF   x4C
0526A:  CLRF   x4F
0526C:  CLRF   x4E
0526E:  CLRF   x51
05270:  CLRF   x50
05272:  CLRF   x53
05274:  CLRF   x52
05276:  CLRF   x55
05278:  CLRF   x54
0527A:  CLRF   x5E
0527C:  CLRF   x5F
0527E:  CLRF   x60
05280:  CLRF   x61
05282:  CLRF   x62
05284:  CLRF   x63
05286:  CLRF   x64
05288:  CLRF   x66
0528A:  CLRF   x65
0528C:  CLRF   x68
0528E:  CLRF   x67
05290:  CLRF   x6A
05292:  CLRF   x69
05294:  MOVLW  12
05296:  MOVWF  x6B
05298:  MOVLW  09
0529A:  MOVWF  x6C
0529C:  MOVLW  0D
0529E:  MOVWF  x6D
052A0:  CLRF   x6E
052A2:  CLRF   x6F
052A4:  CLRF   x70
052A6:  CLRF   x71
052A8:  CLRF   x72
052AA:  CLRF   x73
052AC:  CLRF   x74
052AE:  CLRF   x75
052B0:  CLRF   x76
052B2:  CLRF   x77
052B4:  CLRF   x78
052B6:  CLRF   x79
052B8:  CLRF   x7A
052BA:  CLRF   x7B
052BC:  CLRF   x7C
052BE:  CLRF   x7D
052C0:  CLRF   x7E
052C2:  MOVF   FC1,W
052C4:  ANDLW  C0
052C6:  IORLW  0F
052C8:  MOVWF  FC1
052CA:  MOVLW  07
052CC:  MOVWF  FB4
052CE:  CLRF   2A
052D0:  CLRF   2B
052D2:  MOVLB  0
052D4:  CLRF   x87
052D6:  MOVLW  03
052D8:  MOVWF  x88
052DA:  MOVWF  x89
052DC:  MOVLW  06
052DE:  MOVWF  x8A
052E0:  MOVLW  01
052E2:  MOVWF  x8B
052E4:  MOVLW  04
052E6:  MOVWF  x8C
052E8:  MOVLW  06
052EA:  MOVWF  x8D
052EC:  MOVLW  02
052EE:  MOVWF  x8E
052F0:  MOVLW  05
052F2:  MOVWF  x8F
052F4:  CLRF   x90
052F6:  MOVLW  03
052F8:  MOVWF  x91
052FA:  MOVLW  05
052FC:  MOVWF  x92
052FE:  CLRF   x93
05300:  MOVLW  03
05302:  MOVWF  x94
05304:  MOVLW  04
05306:  MOVWF  x95
05308:  CLRF   x96
0530A:  MOVLW  02
0530C:  MOVWF  x97
0530E:  MOVLW  05
05310:  MOVWF  x98
05312:  CLRF   x99
05314:  MOVLW  03
05316:  MOVWF  x9A
05318:  MOVLW  06
0531A:  MOVWF  x9B
0531C:  MOVLW  01
0531E:  MOVWF  x9C
05320:  MOVLW  04
05322:  MOVWF  x9D
05324:  MOVLW  06
05326:  MOVWF  x9E
05328:  CLRF   xB0
0532A:  CLRF   xB1
0532C:  CLRF   xB2
0532E:  CLRF   xB3
05330:  CLRF   xB4
05332:  CLRF   xB5
05334:  CLRF   xB6
05336:  CLRF   xB7
05338:  CLRF   xB8
0533A:  CLRF   xB9
0533C:  CLRF   xBA
0533E:  CLRF   xBB
05340:  CLRF   xBC
05342:  CLRF   xBD
05344:  CLRF   xBE
05346:  CLRF   xBF
05348:  CLRF   xC0
0534A:  CLRF   xC1
0534C:  CLRF   xC5
0534E:  CLRF   xC6
05350:  CLRF   xC7
05352:  CLRF   xC8
05354:  CLRF   xC9
05356:  CLRF   xCA
05358:  CLRF   xCB
0535A:  CLRF   xCC
0535C:  CLRF   xCD
0535E:  CLRF   xCE
05360:  CLRF   xCF
05362:  CLRF   xD0
05364:  CLRF   xD1
05366:  CLRF   xD2
05368:  CLRF   xD3
0536A:  CLRF   xD4
0536C:  CLRF   xD5
0536E:  CLRF   xD6
05370:  CLRF   xD7
05372:  CLRF   xD8
05374:  CLRF   xD9
05376:  CLRF   xDA
05378:  CLRF   xDB
0537A:  CLRF   xDC
0537C:  CLRF   xDD
0537E:  CLRF   xDE
05380:  CLRF   xDF
05382:  CLRF   xE0
05384:  CLRF   xE1
05386:  CLRF   xE2
05388:  CLRF   xE3
0538A:  CLRF   xE4
0538C:  CLRF   xE5
0538E:  CLRF   xE6
05390:  CLRF   xE7
05392:  CLRF   xE8
05394:  CLRF   xE9
05396:  CLRF   xEA
05398:  CLRF   xEB
0539A:  CLRF   xEC
0539C:  CLRF   xED
0539E:  CLRF   xEE
053A0:  CLRF   xEF
053A2:  CLRF   xF0
053A4:  CLRF   xF1
053A6:  CLRF   xF2
053A8:  CLRF   xF3
053AA:  CLRF   xF4
053AC:  CLRF   xF5
053AE:  CLRF   xF6
053B0:  CLRF   xF7
053B2:  CLRF   xF8
053B4:  CLRF   xF9
053B6:  CLRF   xFA
053B8:  CLRF   xFB
053BA:  CLRF   xFC
053BC:  CLRF   xFD
053BE:  CLRF   xFE
053C0:  CLRF   xFF
053C2:  MOVLB  1
053C4:  CLRF   x00
053C6:  CLRF   x01
053C8:  CLRF   x02
053CA:  CLRF   x03
053CC:  CLRF   x04
053CE:  CLRF   x05
053D0:  CLRF   x06
053D2:  CLRF   x07
053D4:  CLRF   x08
053D6:  CLRF   x09
053D8:  CLRF   x0A
053DA:  CLRF   x0B
053DC:  CLRF   x0C
053DE:  CLRF   x0D
053E0:  CLRF   x0E
053E2:  CLRF   x0F
053E4:  CLRF   x10
053E6:  CLRF   x11
053E8:  CLRF   x12
053EA:  CLRF   x13
053EC:  CLRF   x14
053EE:  CLRF   x15
053F0:  CLRF   x16
053F2:  CLRF   x17
053F4:  CLRF   x18
053F6:  CLRF   x19
053F8:  CLRF   x1A
053FA:  CLRF   x1B
053FC:  CLRF   x1C
053FE:  CLRF   x1D
05400:  CLRF   x1E
05402:  CLRF   x1F
05404:  CLRF   x20
05406:  CLRF   x21
05408:  CLRF   x22
0540A:  CLRF   x23
0540C:  CLRF   x24
0540E:  CLRF   x25
05410:  CLRF   x26
05412:  CLRF   x27
05414:  CLRF   x28
05416:  CLRF   x29
05418:  CLRF   x2A
0541A:  CLRF   x2B
0541C:  CLRF   x2C
0541E:  CLRF   x2D
05420:  CLRF   x2E
05422:  CLRF   x2F
05424:  CLRF   x30
05426:  CLRF   x31
05428:  CLRF   x32
0542A:  CLRF   x33
0542C:  CLRF   x34
0542E:  CLRF   x35
05430:  CLRF   x36
05432:  CLRF   x37
05434:  CLRF   x38
05436:  CLRF   x39
05438:  CLRF   x3A
0543A:  CLRF   x3B
0543C:  CLRF   x3C
0543E:  CLRF   x3D
05440:  CLRF   x3E
05442:  CLRF   x3F
05444:  CLRF   x40
05446:  CLRF   x41
05448:  CLRF   x42
0544A:  CLRF   x43
0544C:  CLRF   x44
0544E:  CLRF   x45
05450:  CLRF   x46
05452:  CLRF   x47
05454:  CLRF   x48
05456:  CLRF   x49
05458:  CLRF   x4A
0545A:  CLRF   x4B
0545C:  CLRF   x4C
0545E:  CLRF   x4D
05460:  CLRF   x4E
05462:  CLRF   x4F
05464:  CLRF   x50
05466:  CLRF   x51
05468:  CLRF   x52
0546A:  CLRF   x53
0546C:  CLRF   x54
0546E:  CLRF   x55
05470:  CLRF   x56
05472:  CLRF   x57
05474:  CLRF   x58
05476:  CLRF   x59
05478:  CLRF   x5A
0547A:  CLRF   x5B
0547C:  CLRF   x5C
0547E:  CLRF   x5D
05480:  CLRF   x5E
05482:  CLRF   x5F
05484:  CLRF   x60
05486:  CLRF   x61
05488:  CLRF   x62
0548A:  CLRF   x63
0548C:  CLRF   x64
0548E:  CLRF   x65
05490:  CLRF   x66
05492:  CLRF   x67
05494:  CLRF   x68
05496:  CLRF   x69
05498:  CLRF   x6A
0549A:  CLRF   x6B
0549C:  CLRF   x6C
0549E:  CLRF   x6D
054A0:  CLRF   x6E
054A2:  CLRF   x6F
054A4:  CLRF   x70
054A6:  CLRF   x71
054A8:  CLRF   x72
054AA:  CLRF   x73
054AC:  CLRF   x74
054AE:  CLRF   x75
054B0:  CLRF   x76
054B2:  CLRF   x77
054B4:  CLRF   x78
054B6:  CLRF   x79
054B8:  CLRF   x7A
054BA:  CLRF   x7B
054BC:  CLRF   x7C
054BE:  CLRF   x7D
054C0:  CLRF   x7E
054C2:  CLRF   x7F
054C4:  CLRF   x80
054C6:  CLRF   x81
054C8:  CLRF   x82
054CA:  CLRF   x83
054CC:  CLRF   x84
054CE:  CLRF   x85
054D0:  CLRF   x86
054D2:  CLRF   x87
054D4:  CLRF   x88
054D6:  CLRF   x89
054D8:  CLRF   x8A
054DA:  CLRF   x8B
054DC:  CLRF   x8C
054DE:  CLRF   x8D
054E0:  CLRF   x8E
054E2:  CLRF   x8F
054E4:  CLRF   x90
054E6:  CLRF   x91
054E8:  CLRF   x92
054EA:  CLRF   x93
054EC:  CLRF   x94
054EE:  CLRF   x95
054F0:  CLRF   x96
054F2:  CLRF   x97
054F4:  CLRF   x98
054F6:  CLRF   x99
054F8:  CLRF   x9A
054FA:  CLRF   x9B
054FC:  CLRF   x9C
054FE:  CLRF   x9D
05500:  CLRF   x9E
05502:  CLRF   x9F
05504:  CLRF   xA0
05506:  CLRF   xA1
05508:  CLRF   xA2
0550A:  CLRF   xA3
0550C:  CLRF   xA4
0550E:  CLRF   xA5
05510:  CLRF   xA6
05512:  CLRF   xA7
05514:  CLRF   xA8
05516:  CLRF   xA9
05518:  CLRF   xAA
0551A:  CLRF   xAB
0551C:  CLRF   xAC
0551E:  CLRF   xAD
05520:  CLRF   xAE
05522:  CLRF   xAF
05524:  CLRF   xB0
05526:  CLRF   xB1
05528:  CLRF   xB2
0552A:  CLRF   xB3
0552C:  CLRF   xB4
0552E:  CLRF   xB5
05530:  CLRF   xB6
05532:  CLRF   xB7
05534:  CLRF   xB8
05536:  CLRF   xB9
05538:  CLRF   xBA
0553A:  CLRF   xBB
0553C:  CLRF   xBC
0553E:  CLRF   xBD
05540:  CLRF   xBE
05542:  CLRF   xBF
05544:  CLRF   xC0
05546:  CLRF   xC1
05548:  CLRF   xC2
0554A:  CLRF   xC3
0554C:  CLRF   xC4
0554E:  CLRF   xC5
05550:  CLRF   xC6
05552:  CLRF   xC7
05554:  CLRF   xC8
05556:  CLRF   xC9
05558:  CLRF   xCA
0555A:  CLRF   xCB
0555C:  CLRF   xCC
0555E:  CLRF   xCD
05560:  CLRF   xCE
05562:  CLRF   xCF
05564:  CLRF   xD0
05566:  CLRF   xD1
05568:  CLRF   xD2
0556A:  CLRF   xD3
0556C:  CLRF   xD4
0556E:  CLRF   xD5
05570:  CLRF   xD6
05572:  CLRF   xD7
05574:  CLRF   xD8
05576:  CLRF   xD9
05578:  CLRF   xDA
0557A:  CLRF   xDB
0557C:  CLRF   xDC
0557E:  CLRF   xDD
05580:  CLRF   xDE
05582:  CLRF   xDF
05584:  CLRF   xE0
05586:  CLRF   xE1
05588:  CLRF   xE2
0558A:  CLRF   xE3
0558C:  CLRF   xE4
0558E:  CLRF   xE5
05590:  CLRF   xE6
05592:  CLRF   xE7
05594:  CLRF   xE8
05596:  CLRF   xE9
05598:  CLRF   xEA
0559A:  CLRF   xEB
0559C:  CLRF   xEC
0559E:  CLRF   xED
055A0:  CLRF   xEE
055A2:  CLRF   xEF
055A4:  CLRF   xF0
055A6:  CLRF   xF1
055A8:  CLRF   xF2
055AA:  CLRF   xF3
055AC:  CLRF   xF4
055AE:  CLRF   xF5
055B0:  CLRF   xF6
055B2:  CLRF   xF7
055B4:  CLRF   xF8
055B6:  CLRF   xF9
055B8:  CLRF   xFA
055BA:  CLRF   xFB
055BC:  CLRF   xFC
055BE:  CLRF   xFD
055C0:  CLRF   xFE
055C2:  CLRF   xFF
055C4:  MOVLB  2
055C6:  CLRF   x00
055C8:  CLRF   x01
055CA:  CLRF   x02
055CC:  CLRF   x03
055CE:  CLRF   x04
055D0:  CLRF   x05
055D2:  CLRF   x06
055D4:  CLRF   x07
055D6:  CLRF   x08
055D8:  CLRF   x09
055DA:  CLRF   x0A
055DC:  CLRF   x0B
055DE:  CLRF   x0C
055E0:  CLRF   x0D
055E2:  CLRF   x0E
055E4:  CLRF   x0F
055E6:  CLRF   x10
055E8:  CLRF   x11
055EA:  CLRF   x12
055EC:  CLRF   x13
055EE:  CLRF   x14
055F0:  CLRF   x15
055F2:  CLRF   x16
055F4:  CLRF   x17
055F6:  CLRF   x18
055F8:  CLRF   x19
055FA:  CLRF   x1A
055FC:  CLRF   x1B
055FE:  CLRF   x1C
05600:  CLRF   x1D
05602:  CLRF   x1E
05604:  CLRF   x1F
05606:  CLRF   x20
05608:  CLRF   x21
0560A:  CLRF   x22
0560C:  CLRF   x23
0560E:  CLRF   x24
05610:  CLRF   x25
05612:  CLRF   x26
05614:  CLRF   x27
05616:  CLRF   x28
05618:  CLRF   x29
0561A:  CLRF   x2A
0561C:  CLRF   x2B
0561E:  CLRF   x2C
05620:  CLRF   x2D
05622:  CLRF   x2E
05624:  CLRF   x2F
05626:  CLRF   x30
05628:  CLRF   x31
0562A:  CLRF   x32
0562C:  CLRF   x33
0562E:  CLRF   x34
05630:  CLRF   x35
05632:  CLRF   x36
05634:  CLRF   x37
05636:  CLRF   x38
05638:  CLRF   x39
0563A:  CLRF   x3A
0563C:  CLRF   x3B
0563E:  CLRF   x3C
05640:  CLRF   x3D
05642:  CLRF   x3E
05644:  CLRF   x3F
05646:  CLRF   x40
05648:  CLRF   x41
0564A:  CLRF   x42
0564C:  CLRF   x43
0564E:  CLRF   x44
05650:  CLRF   x45
05652:  CLRF   x46
05654:  CLRF   x47
05656:  CLRF   x48
05658:  CLRF   x49
0565A:  CLRF   x4A
0565C:  CLRF   x4B
0565E:  CLRF   x4C
05660:  CLRF   x4D
05662:  CLRF   x4E
05664:  CLRF   x4F
05666:  CLRF   x50
05668:  CLRF   x51
0566A:  CLRF   x52
0566C:  CLRF   x53
0566E:  CLRF   x54
05670:  CLRF   x55
05672:  CLRF   x56
05674:  CLRF   x57
05676:  CLRF   x58
05678:  CLRF   x59
0567A:  CLRF   x5A
0567C:  CLRF   x5B
0567E:  CLRF   x5C
05680:  CLRF   x5D
05682:  CLRF   x5E
05684:  CLRF   x5F
05686:  CLRF   x60
05688:  CLRF   x61
0568A:  CLRF   x62
0568C:  CLRF   x63
0568E:  CLRF   x64
05690:  CLRF   x65
05692:  CLRF   x66
05694:  CLRF   x67
05696:  CLRF   x68
05698:  CLRF   x69
0569A:  CLRF   x6A
0569C:  CLRF   x6B
0569E:  CLRF   x6C
056A0:  CLRF   x6D
056A2:  CLRF   x6E
056A4:  CLRF   x6F
056A6:  CLRF   x70
056A8:  CLRF   x71
056AA:  CLRF   x72
056AC:  CLRF   x73
056AE:  CLRF   x74
056B0:  CLRF   x75
056B2:  CLRF   x76
056B4:  CLRF   x77
056B6:  CLRF   x78
056B8:  CLRF   x79
056BA:  CLRF   x7A
056BC:  CLRF   x7B
056BE:  CLRF   x7C
056C0:  CLRF   x7D
056C2:  CLRF   x7E
056C4:  CLRF   x7F
056C6:  CLRF   x80
056C8:  CLRF   x81
056CA:  CLRF   x82
056CC:  CLRF   x83
056CE:  CLRF   x84
056D0:  CLRF   x85
056D2:  CLRF   x86
056D4:  CLRF   x87
056D6:  CLRF   x88
056D8:  CLRF   x89
056DA:  CLRF   x8A
056DC:  CLRF   x8B
056DE:  CLRF   x8C
056E0:  CLRF   x8D
056E2:  CLRF   x8E
056E4:  CLRF   x8F
056E6:  CLRF   x90
056E8:  CLRF   x91
056EA:  CLRF   x92
056EC:  CLRF   x93
056EE:  CLRF   x94
056F0:  CLRF   x95
056F2:  CLRF   x96
056F4:  CLRF   x97
056F6:  CLRF   x98
056F8:  CLRF   x99
056FA:  CLRF   x9A
056FC:  CLRF   x9B
056FE:  CLRF   x9C
05700:  CLRF   x9D
05702:  CLRF   x9E
05704:  CLRF   x9F
05706:  CLRF   xA0
05708:  CLRF   xA1
0570A:  CLRF   xA2
0570C:  CLRF   xA3
0570E:  CLRF   xA4
05710:  CLRF   xB9
05712:  CLRF   xBA
05714:  CLRF   xBB
05716:  CLRF   xBC
05718:  CLRF   xBD
0571A:  CLRF   xBE
0571C:  CLRF   xBF
0571E:  CLRF   xC0
05720:  MOVLB  3
05722:  CLRF   x56
05724:  CLRF   x57
05726:  CLRF   x58
05728:  CLRF   x59
0572A:  CLRF   x5A
0572C:  CLRF   x5B
0572E:  CLRF   x5C
05730:  CLRF   x5D
05732:  MOVLW  19
05734:  MOVWF  x7F
05736:  MOVLW  10
05738:  MOVWF  x80
0573A:  MOVLW  16
0573C:  MOVWF  x81
0573E:  MOVLW  18
05740:  MOVWF  x82
05742:  MOVLW  17
05744:  MOVWF  x83
05746:  MOVLW  1C
05748:  MOVWF  x84
0574A:  MOVLW  14
0574C:  MOVWF  x85
0574E:  MOVLW  2E
05750:  MOVWF  x86
05752:  CLRF   x87
05754:  CLRF   x88
05756:  CLRF   x89
05758:  CLRF   x8A
0575A:  CLRF   x8B
0575C:  CLRF   x8C
0575E:  CLRF   x8D
05760:  MOVLW  22
05762:  MOVWF  x8E
05764:  MOVLW  24
05766:  MOVWF  x8F
05768:  MOVLW  12
0576A:  MOVWF  x90
0576C:  MOVLW  21
0576E:  MOVWF  x91
05770:  MOVLW  20
05772:  MOVWF  x92
05774:  MOVLW  26
05776:  MOVWF  x93
05778:  MOVLW  13
0577A:  MOVWF  x94
0577C:  MOVLW  11
0577E:  MOVWF  x95
05780:  CLRF   x96
05782:  CLRF   x97
05784:  CLRF   x98
05786:  CLRF   x99
05788:  CLRF   x9A
0578A:  CLRF   x9B
0578C:  CLRF   x9C
....................     
....................    for (posicion=0;posicion<0x10;posicion++){ 
0578E:  MOVLB  0
05790:  CLRF   x86
05792:  MOVF   x86,W
05794:  SUBLW  0F
05796:  BNC   57AC
....................       SlaveA0Tx[posicion] = 0x00; 
05798:  CLRF   03
0579A:  MOVF   x86,W
0579C:  ADDLW  64
0579E:  MOVWF  FE9
057A0:  MOVLW  00
057A2:  ADDWFC 03,W
057A4:  MOVWF  FEA
057A6:  CLRF   FEF
....................    } 
057A8:  INCF   x86,F
057AA:  BRA    5792
....................    setup_timer_0(RTCC_8_BIT|RTCC_DIV_1); 
057AC:  MOVLW  C8
057AE:  MOVWF  FD5
....................    enable_interrupts(INT_TIMER0); 
057B0:  BSF    FF2.5
....................    setup_timer_1(T1_INTERNAL|T1_DIV_BY_1); 
057B2:  MOVLW  85
057B4:  MOVWF  FCD
....................    enable_interrupts(INT_TIMER1); 
057B6:  BSF    F9D.0
....................    setup_adc_ports(AN0_TO_AN3); 
057B8:  MOVF   FC1,W
057BA:  ANDLW  C0
057BC:  IORLW  0B
057BE:  MOVWF  FC1
....................    setup_adc(ADC_CLOCK_DIV_32 ); 
057C0:  MOVF   FC0,W
057C2:  ANDLW  C0
057C4:  IORLW  02
057C6:  MOVWF  FC0
057C8:  BSF    FC0.7
057CA:  BSF    FC2.0
....................    port_b_pullups(true); 
057CC:  BCF    FF1.7
....................    enable_interrupts(int_rda); 
057CE:  BSF    F9D.5
....................    setup_wdt(WDT_ON); 
057D0:  BSF    FD1.0
....................    enable_interrupts(global); 
057D2:  MOVLW  C0
057D4:  IORWF  FF2,F
....................    LeeEEPROM(); 
057D6:  GOTO   1B04
....................    rtc_init(); 
057DA:  GOTO   28D6
....................    delay_ms(1); 
057DE:  MOVLW  01
057E0:  MOVLB  3
057E2:  MOVWF  xD4
057E4:  MOVLB  0
057E6:  CALL   16D0
....................    LimitaValores(); 
057EA:  GOTO   29F0
....................    CalculoImpresion=timpresion*60; 
057EE:  MOVLB  3
057F0:  MOVF   x2F,W
057F2:  MULLW  3C
057F4:  MOVFF  FF3,330
....................    printf("page Bienvenida"); 
057F8:  MOVLW  EA
057FA:  MOVWF  FF6
057FC:  MOVLW  03
057FE:  MOVWF  FF7
05800:  MOVLW  00
05802:  MOVWF  FF8
05804:  MOVLB  0
05806:  CALL   3410
....................    SendDataDisplay(); 
0580A:  CALL   3442
....................    printf("bkcmd=0"); 
0580E:  MOVLW  FA
05810:  MOVWF  FF6
05812:  MOVLW  03
05814:  MOVWF  FF7
05816:  MOVLW  00
05818:  MOVWF  FF8
0581A:  CALL   3410
....................    SendDataDisplay(); 
0581E:  CALL   3442
....................    delay_ms(1500); 
05822:  MOVLW  06
05824:  MOVLB  3
05826:  MOVWF  xC9
05828:  MOVLW  FA
0582A:  MOVWF  xD4
0582C:  MOVLB  0
0582E:  CALL   16D0
05832:  MOVLB  3
05834:  DECFSZ xC9,F
05836:  BRA    5828
....................    printf("page Clave"); 
05838:  MOVLW  02
0583A:  MOVWF  FF6
0583C:  MOVLW  04
0583E:  MOVWF  FF7
05840:  MOVLW  00
05842:  MOVWF  FF8
05844:  MOVLB  0
05846:  CALL   3410
....................    SendDataDisplay(); 
0584A:  CALL   3442
....................    ApagaSalidas(); 
0584E:  CALL   3478
....................    Tsecado[0]=0;Tsecado[1]=0;Tsecado[2]=0;Tsecado[3]=0; 
05852:  CLRF   xBA
05854:  CLRF   xBB
05856:  CLRF   xBC
05858:  CLRF   xBD
....................     
....................    for(i=0;i<MediaMovil;i++){ 
0585A:  MOVLB  3
0585C:  CLRF   x38
0585E:  MOVLB  2
05860:  MOVF   xD1,W
05862:  MOVLB  3
05864:  SUBWF  x38,W
05866:  BC    5888
....................       Temperatura=LeerPT100(MediaMovil); 
05868:  MOVFF  2D1,3C9
0586C:  MOVLB  0
0586E:  CALL   3604
05872:  MOVFF  03,316
05876:  MOVFF  02,315
0587A:  MOVFF  01,314
0587E:  MOVFF  00,313
....................    } 
05882:  MOVLB  3
05884:  INCF   x38,F
05886:  BRA    585E
....................     
....................    if(UP && DOWN && RIGHT && LEFT)//Si oprime boton de Toma. 
05888:  BSF    F93.0
0588A:  BTFSC  F81.0
0588C:  BRA    5914
0588E:  BSF    F93.1
05890:  BTFSC  F81.1
05892:  BRA    5914
05894:  BSF    F93.2
05896:  BTFSC  F81.2
05898:  BRA    5914
0589A:  BSF    F93.3
0589C:  BTFSC  F81.3
0589E:  BRA    5914
....................    { 
....................       write_eeprom(37,0); 
058A0:  CLRF   FAA
058A2:  MOVLW  25
058A4:  MOVWF  FA9
058A6:  CLRF   FA8
058A8:  BCF    FA6.6
058AA:  BCF    FA6.7
058AC:  BSF    FA6.2
058AE:  MOVF   FF2,W
058B0:  MOVWF  00
058B2:  BCF    FF2.6
058B4:  BCF    FF2.7
058B6:  MOVLB  F
058B8:  MOVLW  55
058BA:  MOVWF  FA7
058BC:  MOVLW  AA
058BE:  MOVWF  FA7
058C0:  BSF    FA6.1
058C2:  BTFSC  FA6.1
058C4:  BRA    58C2
058C6:  BCF    FA6.2
058C8:  MOVF   00,W
058CA:  IORWF  FF2,F
....................       delay_ms(20); 
058CC:  MOVLW  14
058CE:  MOVLB  3
058D0:  MOVWF  xD4
058D2:  MOVLB  0
058D4:  CALL   16D0
....................       write_eeprom(38,0); 
058D8:  CLRF   FAA
058DA:  MOVLW  26
058DC:  MOVWF  FA9
058DE:  CLRF   FA8
058E0:  BCF    FA6.6
058E2:  BCF    FA6.7
058E4:  BSF    FA6.2
058E6:  MOVF   FF2,W
058E8:  MOVWF  00
058EA:  BCF    FF2.6
058EC:  BCF    FF2.7
058EE:  MOVLB  F
058F0:  MOVLW  55
058F2:  MOVWF  FA7
058F4:  MOVLW  AA
058F6:  MOVWF  FA7
058F8:  BSF    FA6.1
058FA:  BTFSC  FA6.1
058FC:  BRA    58FA
058FE:  BCF    FA6.2
05900:  MOVF   00,W
05902:  IORWF  FF2,F
....................       delay_ms(20); 
05904:  MOVLW  14
05906:  MOVLB  3
05908:  MOVWF  xD4
0590A:  MOVLB  0
0590C:  CALL   16D0
....................       reset_cpu(); 
05910:  RESET
05912:  MOVLB  3
....................    } 
....................     
....................    while(true) 
....................    { 
....................       LeeDisplay(); 
05914:  MOVLB  0
05916:  GOTO   39BC
....................       Envio_Esclavos(); 
0591A:  CALL   3D7E
....................       delay_ms(1); 
0591E:  MOVLW  01
05920:  MOVLB  3
05922:  MOVWF  xD4
05924:  MOVLB  0
05926:  CALL   16D0
....................       //Lectura_Esclavos(); 
....................       restart_wdt(); 
0592A:  CLRWDT
....................  
....................       // Monitoreo Nivel de Agua//-------------------------------------- 
....................             if(!LOW){//Si no sensa agua en el nivel alto y no se ha llenado el calderin          
0592C:  BSF    F94.1
0592E:  BTFSC  F82.1
05930:  BRA    5944
....................                TiempoSensadoNivel=0; 
05932:  CLRF   xA9
05934:  CLRF   xA8
....................                Controlando=0;    
05936:  MOVLB  3
05938:  CLRF   x2D
....................                //CalderinLleno=OFF; 
....................                SensadoNivel=OFF; 
0593A:  MOVLB  0
0593C:  BCF    xA0.3
....................                TiempoSensadoNivel=0; 
0593E:  CLRF   xA9
05940:  CLRF   xA8
....................             } else{ 
05942:  BRA    5956
....................                SensadoNivel=ON; 
05944:  BSF    xA0.3
....................                if(TiempoSensadoNivel>4){ 
05946:  MOVF   xA9,F
05948:  BNZ   5950
0594A:  MOVF   xA8,W
0594C:  SUBLW  04
0594E:  BC    5956
....................                   SensadoNivel=OFF; 
05950:  BCF    xA0.3
....................                   CalderinLleno=ON; 
05952:  BSF    x9F.7
....................                   IniciaLlenado=OFF;                   
05954:  BCF    x9F.6
....................                } 
....................             } 
.................... // Tiempo de Grafica//-------------------------------------- 
....................       if(tiempos2>=6400){ 
05956:  MOVLB  3
05958:  MOVF   x45,W
0595A:  SUBLW  18
0595C:  BC    5968
....................          Grafica=1; 
0595E:  MOVLB  0
05960:  BSF    xA3.7
....................          tiempos2=0; 
05962:  MOVLB  3
05964:  CLRF   x45
05966:  CLRF   x44
....................       } 
....................  
.................... // Tiempo de Muestreo//-------------------------------------- 
....................       if(tiempos3>=20){ 
05968:  MOVF   x47,F
0596A:  BNZ   5974
0596C:  MOVF   x46,W
0596E:  SUBLW  13
05970:  BTFSC  FD8.0
05972:  BRA    5AA8
....................          Temperatura=LeerPt100(MediaMovil); 
05974:  MOVFF  2D1,3C9
05978:  MOVLB  0
0597A:  CALL   3604
0597E:  MOVFF  03,316
05982:  MOVFF  02,315
05986:  MOVFF  01,314
0598A:  MOVFF  00,313
....................          PresionCamara=Leer_Sensor_Presion_Camara(10); 
0598E:  MOVLW  0A
05990:  MOVLB  3
05992:  MOVWF  xC9
05994:  MOVLB  0
05996:  GOTO   3E0E
0599A:  MOVFF  03,3D7
0599E:  MOVFF  02,3D6
059A2:  MOVFF  01,3D5
059A6:  MOVFF  00,3D4
059AA:  CALL   3B36
059AE:  MOVFF  02,34F
059B2:  MOVFF  01,34E
....................          PresionPreCamara=Leer_Sensor_Presion_PreCamara(5); 
059B6:  MOVLW  05
059B8:  MOVLB  3
059BA:  MOVWF  xC9
059BC:  MOVLB  0
059BE:  GOTO   404C
059C2:  MOVFF  03,3D7
059C6:  MOVFF  02,3D6
059CA:  MOVFF  01,3D5
059CE:  MOVFF  00,3D4
059D2:  CALL   3B36
059D6:  MOVFF  02,351
059DA:  MOVFF  01,350
....................          rtc_get_date(Dia,Mes,Year,dow); 
....................          rtc_get_time(Hora,Minuto,Segundo); 
....................          tiempos3=0; 
*
05AA2:  MOVLB  3
05AA4:  CLRF   x47
05AA6:  CLRF   x46
....................       } 
....................        
.................... // Monitoreo Parada Emergencia//--------------------------------------       
....................       if(!STOP && !IniciaCiclo && !PruebaEstados){ 
05AA8:  BSF    F93.7
05AAA:  BTFSS  F81.7
05AAC:  BRA    5B0E
05AAE:  MOVLB  0
05AB0:  BTFSS  xA0.0
05AB2:  BRA    5AB8
05AB4:  MOVLB  3
05AB6:  BRA    5B0E
05AB8:  BTFSS  xA1.1
05ABA:  BRA    5AC0
05ABC:  MOVLB  3
05ABE:  BRA    5B0E
....................          if(!disp_Stop){ 
05AC0:  MOVLB  3
05AC2:  BTFSC  x2A.0
05AC4:  BRA    5AE4
....................             disp_Stop=1;Menu=255; 
05AC6:  BSF    x2A.0
05AC8:  MOVLW  FF
05ACA:  MOVWF  x35
....................             printf("page Emergencia"); 
05ACC:  MOVLW  0E
05ACE:  MOVWF  FF6
05AD0:  MOVLW  04
05AD2:  MOVWF  FF7
05AD4:  MOVLW  00
05AD6:  MOVWF  FF8
05AD8:  MOVLB  0
05ADA:  CALL   3410
....................             SendDataDisplay(); 
05ADE:  CALL   3442
05AE2:  MOVLB  3
....................          } 
....................          Controlando=0; 
05AE4:  CLRF   x2D
....................          Desfogue_on; 
05AE6:  BSF    F8C.4
05AE8:  BCF    F95.4
....................          AguaIn_off; 
05AEA:  BCF    F8C.6
05AEC:  BCF    F95.6
....................          SSR_off; 
05AEE:  BSF    F8B.2
05AF0:  BCF    F94.2
....................          Paso_off; 
05AF2:  BCF    F8C.5
05AF4:  BCF    F95.5
....................          DesfogueSuave=OFF; 
05AF6:  MOVLB  0
05AF8:  BCF    xA0.5
....................          ActivaAlarma(1); 
05AFA:  MOVLW  01
05AFC:  MOVLB  3
05AFE:  MOVWF  xC9
05B00:  MOVLB  0
05B02:  CALL   42BC
....................          BorraBuffer(); 
05B06:  GOTO   438C
....................       }else{ 
05B0A:  BRA    5B14
05B0C:  MOVLB  3
....................          if(disp_Stop){ 
05B0E:  BTFSS  x2A.0
05B10:  BRA    5B14
....................             reset_cpu(); 
05B12:  RESET
....................          } 
....................       }            
....................    //Buzzer_off;    
.................... //_-------------------------------------------------------------------------------------------------------------------------------------------------------- 
....................    if(Menu==240){ //Menu de Bienvenida. 
05B14:  MOVLB  3
05B16:  MOVF   x35,W
05B18:  SUBLW  F0
05B1A:  BNZ   5B64
....................       printf("bkcmd=0"); 
05B1C:  MOVLW  1E
05B1E:  MOVWF  FF6
05B20:  MOVLW  04
05B22:  MOVWF  FF7
05B24:  MOVLW  00
05B26:  MOVWF  FF8
05B28:  MOVLB  0
05B2A:  CALL   3410
....................       SendDataDisplay(); 
05B2E:  CALL   3442
....................       delay_ms(1500); 
05B32:  MOVLW  06
05B34:  MOVLB  3
05B36:  MOVWF  xC9
05B38:  MOVLW  FA
05B3A:  MOVWF  xD4
05B3C:  MOVLB  0
05B3E:  CALL   16D0
05B42:  MOVLB  3
05B44:  DECFSZ xC9,F
05B46:  BRA    5B38
....................       printf("page Clave"); 
05B48:  MOVLW  26
05B4A:  MOVWF  FF6
05B4C:  MOVLW  04
05B4E:  MOVWF  FF7
05B50:  MOVLW  00
05B52:  MOVWF  FF8
05B54:  MOVLB  0
05B56:  CALL   3410
....................       SendDataDisplay(); 
05B5A:  CALL   3442
....................       ApagaSalidas(); 
05B5E:  CALL   3478
05B62:  MOVLB  3
....................    } 
.................... //_-------------------------------------------------------------------------------------------------------------------------------------------------------- 
....................  
.................... //_-------------------------------------------------------------------------------------------------------------------------------------------------------- 
....................     if(Menu==0){ //Menu de Contrasea de acceso. 
05B64:  MOVF   x35,F
05B66:  BTFSS  FD8.2
05B68:  GOTO   65D8
....................       ApagaSalidas(); 
05B6C:  MOVLB  0
05B6E:  CALL   3478
....................       //printf("bkcmd=0"); 
....................       //SendDataDisplay(); 
....................       if(Digito==1){ 
05B72:  MOVLB  2
05B74:  DECFSZ xD6,W
05B76:  BRA    5BC2
....................          printf("t0.txt=\"%u\"",Contrasena[0]); 
05B78:  MOVLW  32
05B7A:  MOVWF  FF6
05B7C:  MOVLW  04
05B7E:  MOVWF  FF7
05B80:  MOVLW  00
05B82:  MOVWF  FF8
05B84:  MOVLW  08
05B86:  MOVLB  3
05B88:  MOVWF  xCD
05B8A:  MOVLB  0
05B8C:  CALL   43B8
05B90:  MOVFF  356,3CC
05B94:  MOVLW  1B
05B96:  MOVLB  3
05B98:  MOVWF  xCD
05B9A:  MOVLB  0
05B9C:  CALL   4416
05BA0:  MOVLW  22
05BA2:  BTFSS  F9E.4
05BA4:  BRA    5BA2
05BA6:  MOVWF  FAD
....................          SendDataDisplay(); 
05BA8:  CALL   3442
....................          printf("va0.val=1"); 
05BAC:  MOVLW  3E
05BAE:  MOVWF  FF6
05BB0:  MOVLW  04
05BB2:  MOVWF  FF7
05BB4:  MOVLW  00
05BB6:  MOVWF  FF8
05BB8:  CALL   3410
....................          SendDataDisplay(); 
05BBC:  CALL   3442
05BC0:  MOVLB  2
....................       } 
....................        
....................       if(Digito==2){ 
05BC2:  MOVF   xD6,W
05BC4:  SUBLW  02
05BC6:  BNZ   5C22
....................          printf("t0.txt=\"%u%u\"",Contrasena[0],Contrasena[1]); 
05BC8:  MOVLW  48
05BCA:  MOVWF  FF6
05BCC:  MOVLW  04
05BCE:  MOVWF  FF7
05BD0:  MOVLW  00
05BD2:  MOVWF  FF8
05BD4:  MOVLW  08
05BD6:  MOVLB  3
05BD8:  MOVWF  xCD
05BDA:  MOVLB  0
05BDC:  CALL   43B8
05BE0:  MOVFF  356,3CC
05BE4:  MOVLW  1B
05BE6:  MOVLB  3
05BE8:  MOVWF  xCD
05BEA:  MOVLB  0
05BEC:  CALL   4416
05BF0:  MOVFF  357,3CC
05BF4:  MOVLW  1B
05BF6:  MOVLB  3
05BF8:  MOVWF  xCD
05BFA:  MOVLB  0
05BFC:  CALL   4416
05C00:  MOVLW  22
05C02:  BTFSS  F9E.4
05C04:  BRA    5C02
05C06:  MOVWF  FAD
....................          SendDataDisplay(); 
05C08:  CALL   3442
....................          printf("va0.val=2"); 
05C0C:  MOVLW  56
05C0E:  MOVWF  FF6
05C10:  MOVLW  04
05C12:  MOVWF  FF7
05C14:  MOVLW  00
05C16:  MOVWF  FF8
05C18:  CALL   3410
....................          SendDataDisplay(); 
05C1C:  CALL   3442
05C20:  MOVLB  2
....................       } 
....................        
....................       if(Digito==3){ 
05C22:  MOVF   xD6,W
05C24:  SUBLW  03
05C26:  BNZ   5C92
....................          printf("t0.txt=\"%u%u%u\"",Contrasena[0],Contrasena[1],Contrasena[2]); 
05C28:  MOVLW  60
05C2A:  MOVWF  FF6
05C2C:  MOVLW  04
05C2E:  MOVWF  FF7
05C30:  MOVLW  00
05C32:  MOVWF  FF8
05C34:  MOVLW  08
05C36:  MOVLB  3
05C38:  MOVWF  xCD
05C3A:  MOVLB  0
05C3C:  CALL   43B8
05C40:  MOVFF  356,3CC
05C44:  MOVLW  1B
05C46:  MOVLB  3
05C48:  MOVWF  xCD
05C4A:  MOVLB  0
05C4C:  CALL   4416
05C50:  MOVFF  357,3CC
05C54:  MOVLW  1B
05C56:  MOVLB  3
05C58:  MOVWF  xCD
05C5A:  MOVLB  0
05C5C:  CALL   4416
05C60:  MOVFF  358,3CC
05C64:  MOVLW  1B
05C66:  MOVLB  3
05C68:  MOVWF  xCD
05C6A:  MOVLB  0
05C6C:  CALL   4416
05C70:  MOVLW  22
05C72:  BTFSS  F9E.4
05C74:  BRA    5C72
05C76:  MOVWF  FAD
....................          SendDataDisplay(); 
05C78:  CALL   3442
....................          printf("va0.val=3"); 
05C7C:  MOVLW  70
05C7E:  MOVWF  FF6
05C80:  MOVLW  04
05C82:  MOVWF  FF7
05C84:  MOVLW  00
05C86:  MOVWF  FF8
05C88:  CALL   3410
....................          SendDataDisplay(); 
05C8C:  CALL   3442
05C90:  MOVLB  2
....................       } 
....................        
....................       if(Digito==4){ 
05C92:  MOVF   xD6,W
05C94:  SUBLW  04
05C96:  BNZ   5D12
....................          printf("t0.txt=\"%u%u%u%u\"",Contrasena[0],Contrasena[1],Contrasena[2],Contrasena[3]); 
05C98:  MOVLW  7A
05C9A:  MOVWF  FF6
05C9C:  MOVLW  04
05C9E:  MOVWF  FF7
05CA0:  MOVLW  00
05CA2:  MOVWF  FF8
05CA4:  MOVLW  08
05CA6:  MOVLB  3
05CA8:  MOVWF  xCD
05CAA:  MOVLB  0
05CAC:  CALL   43B8
05CB0:  MOVFF  356,3CC
05CB4:  MOVLW  1B
05CB6:  MOVLB  3
05CB8:  MOVWF  xCD
05CBA:  MOVLB  0
05CBC:  CALL   4416
05CC0:  MOVFF  357,3CC
05CC4:  MOVLW  1B
05CC6:  MOVLB  3
05CC8:  MOVWF  xCD
05CCA:  MOVLB  0
05CCC:  CALL   4416
05CD0:  MOVFF  358,3CC
05CD4:  MOVLW  1B
05CD6:  MOVLB  3
05CD8:  MOVWF  xCD
05CDA:  MOVLB  0
05CDC:  CALL   4416
05CE0:  MOVFF  359,3CC
05CE4:  MOVLW  1B
05CE6:  MOVLB  3
05CE8:  MOVWF  xCD
05CEA:  MOVLB  0
05CEC:  CALL   4416
05CF0:  MOVLW  22
05CF2:  BTFSS  F9E.4
05CF4:  BRA    5CF2
05CF6:  MOVWF  FAD
....................          SendDataDisplay(); 
05CF8:  CALL   3442
....................          printf("va0.val=4"); 
05CFC:  MOVLW  8C
05CFE:  MOVWF  FF6
05D00:  MOVLW  04
05D02:  MOVWF  FF7
05D04:  MOVLW  00
05D06:  MOVWF  FF8
05D08:  CALL   3410
....................          SendDataDisplay(); 
05D0C:  CALL   3442
05D10:  MOVLB  2
....................       } 
....................        
....................       if(UP){ 
05D12:  BSF    F93.0
05D14:  BTFSC  F81.0
05D16:  BRA    5D60
....................          delay_ms(200); 
05D18:  MOVLW  C8
05D1A:  MOVLB  3
05D1C:  MOVWF  xD4
05D1E:  MOVLB  0
05D20:  CALL   16D0
....................          if(UP){ 
05D24:  BSF    F93.0
05D26:  BTFSC  F81.0
05D28:  BRA    5D62
....................          if(Digito==0) 
05D2A:  MOVLB  2
05D2C:  MOVF   xD6,F
05D2E:  BNZ   5D34
....................             Digito=1; 
05D30:  MOVLW  01
05D32:  MOVWF  xD6
....................             if(Contrasena[Digito-1]<9) 
05D34:  MOVLW  01
05D36:  SUBWF  xD6,W
05D38:  CLRF   03
05D3A:  ADDLW  56
05D3C:  MOVWF  FE9
05D3E:  MOVLW  03
05D40:  ADDWFC 03,W
05D42:  MOVWF  FEA
05D44:  BTFSC  FEF.7
05D46:  BRA    5D4E
05D48:  MOVF   FEF,W
05D4A:  SUBLW  08
05D4C:  BNC   5D60
....................                Contrasena[Digito-1]++; 
05D4E:  MOVLW  01
05D50:  SUBWF  xD6,W
05D52:  CLRF   03
05D54:  ADDLW  56
05D56:  MOVWF  FE9
05D58:  MOVLW  03
05D5A:  ADDWFC 03,W
05D5C:  MOVWF  FEA
05D5E:  INCF   FEF,F
05D60:  MOVLB  0
....................          } 
....................       } 
....................        
....................       if(DOWN){ 
05D62:  BSF    F93.1
05D64:  BTFSC  F81.1
05D66:  BRA    5DB2
....................          delay_ms(200); 
05D68:  MOVLW  C8
05D6A:  MOVLB  3
05D6C:  MOVWF  xD4
05D6E:  MOVLB  0
05D70:  CALL   16D0
....................          if(Digito==0) 
05D74:  MOVLB  2
05D76:  MOVF   xD6,F
05D78:  BNZ   5D7E
....................             Digito=1; 
05D7A:  MOVLW  01
05D7C:  MOVWF  xD6
....................          if(DOWN){ 
05D7E:  BSF    F93.1
05D80:  BTFSC  F81.1
05D82:  BRA    5DB0
....................             if(Contrasena[Digito-1]>0) 
05D84:  MOVLW  01
05D86:  SUBWF  xD6,W
05D88:  CLRF   03
05D8A:  ADDLW  56
05D8C:  MOVWF  FE9
05D8E:  MOVLW  03
05D90:  ADDWFC 03,W
05D92:  MOVWF  FEA
05D94:  BTFSC  FEF.7
05D96:  BRA    5DB0
05D98:  MOVF   FEF,W
05D9A:  SUBLW  00
05D9C:  BC    5DB0
....................                Contrasena[Digito-1]--; 
05D9E:  MOVLW  01
05DA0:  SUBWF  xD6,W
05DA2:  CLRF   03
05DA4:  ADDLW  56
05DA6:  MOVWF  FE9
05DA8:  MOVLW  03
05DAA:  ADDWFC 03,W
05DAC:  MOVWF  FEA
05DAE:  DECF   FEF,F
05DB0:  MOVLB  0
....................          } 
....................       } 
....................        
....................       if(RIGHT){ 
05DB2:  BSF    F93.2
05DB4:  BTFSC  F81.2
05DB6:  BRA    5DD0
....................          delay_ms(200); 
05DB8:  MOVLW  C8
05DBA:  MOVLB  3
05DBC:  MOVWF  xD4
05DBE:  MOVLB  0
05DC0:  CALL   16D0
....................          if(RIGHT){ 
05DC4:  BSF    F93.2
05DC6:  BTFSC  F81.2
05DC8:  BRA    5DD0
....................             Digito++; 
05DCA:  MOVLB  2
05DCC:  INCF   xD6,F
05DCE:  MOVLB  0
....................          } 
....................       } 
....................        
....................       if(Digito>4){ 
05DD0:  MOVLB  2
05DD2:  MOVF   xD6,W
05DD4:  SUBLW  04
05DD6:  BTFSC  FD8.0
05DD8:  BRA    612A
....................       Digito=0; 
05DDA:  CLRF   xD6
....................       printf("t0.txt=\"\""); 
05DDC:  MOVLW  96
05DDE:  MOVWF  FF6
05DE0:  MOVLW  04
05DE2:  MOVWF  FF7
05DE4:  MOVLW  00
05DE6:  MOVWF  FF8
05DE8:  MOVLB  0
05DEA:  CALL   3410
....................       SendDataDisplay(); 
05DEE:  CALL   3442
....................          if(TipoClave==0){ 
05DF2:  MOVLB  2
05DF4:  MOVF   xD4,F
05DF6:  BTFSS  FD8.2
05DF8:  BRA    5F48
....................             if(Contrasena[0]==3&&Contrasena[1]==8&&Contrasena[2]==9&&Contrasena[3]==2){ // Si Ingresa clave para reset general del sistema. 
05DFA:  MOVLB  3
05DFC:  MOVF   x56,W
05DFE:  SUBLW  03
05E00:  BTFSS  FD8.2
05E02:  BRA    5EFC
05E04:  MOVF   x57,W
05E06:  SUBLW  08
05E08:  BTFSS  FD8.2
05E0A:  BRA    5EFC
05E0C:  MOVF   x58,W
05E0E:  SUBLW  09
05E10:  BNZ   5EFC
05E12:  MOVF   x59,W
05E14:  SUBLW  02
05E16:  BNZ   5EFC
....................                write_eeprom(10,0);delay_ms(20);write_eeprom(11,0);delay_ms(20);// Reestablece a contrasea de Fabrica y reinicia Programa. 
05E18:  CLRF   FAA
05E1A:  MOVLW  0A
05E1C:  MOVWF  FA9
05E1E:  CLRF   FA8
05E20:  BCF    FA6.6
05E22:  BCF    FA6.7
05E24:  BSF    FA6.2
05E26:  MOVF   FF2,W
05E28:  MOVWF  00
05E2A:  BCF    FF2.6
05E2C:  BCF    FF2.7
05E2E:  MOVLB  F
05E30:  MOVLW  55
05E32:  MOVWF  FA7
05E34:  MOVLW  AA
05E36:  MOVWF  FA7
05E38:  BSF    FA6.1
05E3A:  BTFSC  FA6.1
05E3C:  BRA    5E3A
05E3E:  BCF    FA6.2
05E40:  MOVF   00,W
05E42:  IORWF  FF2,F
05E44:  MOVLW  14
05E46:  MOVLB  3
05E48:  MOVWF  xD4
05E4A:  MOVLB  0
05E4C:  CALL   16D0
05E50:  CLRF   FAA
05E52:  MOVLW  0B
05E54:  MOVWF  FA9
05E56:  CLRF   FA8
05E58:  BCF    FA6.6
05E5A:  BCF    FA6.7
05E5C:  BSF    FA6.2
05E5E:  MOVF   FF2,W
05E60:  MOVWF  00
05E62:  BCF    FF2.6
05E64:  BCF    FF2.7
05E66:  MOVLB  F
05E68:  MOVLW  55
05E6A:  MOVWF  FA7
05E6C:  MOVLW  AA
05E6E:  MOVWF  FA7
05E70:  BSF    FA6.1
05E72:  BTFSC  FA6.1
05E74:  BRA    5E72
05E76:  BCF    FA6.2
05E78:  MOVF   00,W
05E7A:  IORWF  FF2,F
05E7C:  MOVLW  14
05E7E:  MOVLB  3
05E80:  MOVWF  xD4
05E82:  MOVLB  0
05E84:  CALL   16D0
....................                write_eeprom(12,0);delay_ms(20);write_eeprom(13,0);delay_ms(20); 
05E88:  CLRF   FAA
05E8A:  MOVLW  0C
05E8C:  MOVWF  FA9
05E8E:  CLRF   FA8
05E90:  BCF    FA6.6
05E92:  BCF    FA6.7
05E94:  BSF    FA6.2
05E96:  MOVF   FF2,W
05E98:  MOVWF  00
05E9A:  BCF    FF2.6
05E9C:  BCF    FF2.7
05E9E:  MOVLB  F
05EA0:  MOVLW  55
05EA2:  MOVWF  FA7
05EA4:  MOVLW  AA
05EA6:  MOVWF  FA7
05EA8:  BSF    FA6.1
05EAA:  BTFSC  FA6.1
05EAC:  BRA    5EAA
05EAE:  BCF    FA6.2
05EB0:  MOVF   00,W
05EB2:  IORWF  FF2,F
05EB4:  MOVLW  14
05EB6:  MOVLB  3
05EB8:  MOVWF  xD4
05EBA:  MOVLB  0
05EBC:  CALL   16D0
05EC0:  CLRF   FAA
05EC2:  MOVLW  0D
05EC4:  MOVWF  FA9
05EC6:  CLRF   FA8
05EC8:  BCF    FA6.6
05ECA:  BCF    FA6.7
05ECC:  BSF    FA6.2
05ECE:  MOVF   FF2,W
05ED0:  MOVWF  00
05ED2:  BCF    FF2.6
05ED4:  BCF    FF2.7
05ED6:  MOVLB  F
05ED8:  MOVLW  55
05EDA:  MOVWF  FA7
05EDC:  MOVLW  AA
05EDE:  MOVWF  FA7
05EE0:  BSF    FA6.1
05EE2:  BTFSC  FA6.1
05EE4:  BRA    5EE2
05EE6:  BCF    FA6.2
05EE8:  MOVF   00,W
05EEA:  IORWF  FF2,F
05EEC:  MOVLW  14
05EEE:  MOVLB  3
05EF0:  MOVWF  xD4
05EF2:  MOVLB  0
05EF4:  CALL   16D0
....................                reset_cpu(); 
05EF8:  RESET
05EFA:  MOVLB  3
....................             } 
....................              
....................             if((Contrasena[0]==Password[0])&&(Contrasena[1]==Password[1])&&(Contrasena[2]==Password[2])&&(Contrasena[3]==Password[3])){ 
05EFC:  MOVF   x5A,W
05EFE:  SUBWF  x56,W
05F00:  BNZ   5F2E
05F02:  MOVF   x5B,W
05F04:  SUBWF  x57,W
05F06:  BNZ   5F2E
05F08:  MOVF   x5C,W
05F0A:  SUBWF  x58,W
05F0C:  BNZ   5F2E
05F0E:  MOVF   x5D,W
05F10:  SUBWF  x59,W
05F12:  BNZ   5F2E
....................                //BorraBuffer(); 
....................                printf("page MenuPrincipal"); 
05F14:  MOVLW  A0
05F16:  MOVWF  FF6
05F18:  MOVLW  04
05F1A:  MOVWF  FF7
05F1C:  MOVLW  00
05F1E:  MOVWF  FF8
05F20:  MOVLB  0
05F22:  CALL   3410
....................                SendDataDisplay(); 
05F26:  CALL   3442
....................             }else{ 
05F2A:  BRA    5F44
05F2C:  MOVLB  3
....................                //BorraBuffer(); 
....................                printf("page Clave"); 
05F2E:  MOVLW  B4
05F30:  MOVWF  FF6
05F32:  MOVLW  04
05F34:  MOVWF  FF7
05F36:  MOVLW  00
05F38:  MOVWF  FF8
05F3A:  MOVLB  0
05F3C:  CALL   3410
....................                SendDataDisplay(); 
05F40:  CALL   3442
....................             }  
....................          }else if(TipoClave==1){ 
05F44:  BRA    6128
05F46:  MOVLB  2
05F48:  DECFSZ xD4,W
05F4A:  BRA    5F9A
....................             if(Contrasena[0]==4&&Contrasena[1]==4&&Contrasena[2]==4&&Contrasena[3]==4){ // Si Ingresa clave de Servicio Tecnico 
05F4C:  MOVLB  3
05F4E:  MOVF   x56,W
05F50:  SUBLW  04
05F52:  BNZ   5F80
05F54:  MOVF   x57,W
05F56:  SUBLW  04
05F58:  BNZ   5F80
05F5A:  MOVF   x58,W
05F5C:  SUBLW  04
05F5E:  BNZ   5F80
05F60:  MOVF   x59,W
05F62:  SUBLW  04
05F64:  BNZ   5F80
....................                printf("page Config"); 
05F66:  MOVLW  C0
05F68:  MOVWF  FF6
05F6A:  MOVLW  04
05F6C:  MOVWF  FF7
05F6E:  MOVLW  00
05F70:  MOVWF  FF8
05F72:  MOVLB  0
05F74:  CALL   3410
....................                SendDataDisplay(); 
05F78:  CALL   3442
....................             }else{ 
05F7C:  BRA    5F96
05F7E:  MOVLB  3
....................                printf("page MenuPrincipal"); 
05F80:  MOVLW  CC
05F82:  MOVWF  FF6
05F84:  MOVLW  04
05F86:  MOVWF  FF7
05F88:  MOVLW  00
05F8A:  MOVWF  FF8
05F8C:  MOVLB  0
05F8E:  CALL   3410
....................                SendDataDisplay(); 
05F92:  CALL   3442
....................             } 
....................          }else if(TipoClave==2){ 
05F96:  BRA    6128
05F98:  MOVLB  2
05F9A:  MOVF   xD4,W
05F9C:  SUBLW  02
05F9E:  BNZ   6008
....................             if((Contrasena[0]==Password[0])&&(Contrasena[1]==Password[1])&&(Contrasena[2]==Password[2])&&(Contrasena[3]==Password[3])){ 
05FA0:  MOVLB  3
05FA2:  MOVF   x5A,W
05FA4:  SUBWF  x56,W
05FA6:  BNZ   5FEE
05FA8:  MOVF   x5B,W
05FAA:  SUBWF  x57,W
05FAC:  BNZ   5FEE
05FAE:  MOVF   x5C,W
05FB0:  SUBWF  x58,W
05FB2:  BNZ   5FEE
05FB4:  MOVF   x5D,W
05FB6:  SUBWF  x59,W
05FB8:  BNZ   5FEE
....................                printf("page Clave"); 
05FBA:  MOVLW  E0
05FBC:  MOVWF  FF6
05FBE:  MOVLW  04
05FC0:  MOVWF  FF7
05FC2:  MOVLW  00
05FC4:  MOVWF  FF8
05FC6:  MOVLB  0
05FC8:  CALL   3410
....................                SendDataDisplay(); 
05FCC:  CALL   3442
....................                printf("titulo.txt=\"Clave Nueva\""); 
05FD0:  MOVLW  EC
05FD2:  MOVWF  FF6
05FD4:  MOVLW  04
05FD6:  MOVWF  FF7
05FD8:  MOVLW  00
05FDA:  MOVWF  FF8
05FDC:  CALL   3410
....................                SendDataDisplay(); 
05FE0:  CALL   3442
....................                TipoClave=3; 
05FE4:  MOVLW  03
05FE6:  MOVLB  2
05FE8:  MOVWF  xD4
....................             }else{ 
05FEA:  BRA    6006
05FEC:  MOVLB  3
....................                printf("page MenuPrincipal"); 
05FEE:  MOVLW  06
05FF0:  MOVWF  FF6
05FF2:  MOVLW  05
05FF4:  MOVWF  FF7
05FF6:  MOVLW  00
05FF8:  MOVWF  FF8
05FFA:  MOVLB  0
05FFC:  CALL   3410
....................                SendDataDisplay(); 
06000:  CALL   3442
06004:  MOVLB  2
....................             }  
....................          }else if(TipoClave==3){ 
06006:  BRA    612A
06008:  MOVF   xD4,W
0600A:  SUBLW  03
0600C:  BTFSS  FD8.2
0600E:  BRA    612A
....................             printf("titulo.txt=\"Clave Nueva\""); 
06010:  MOVLW  1A
06012:  MOVWF  FF6
06014:  MOVLW  05
06016:  MOVWF  FF7
06018:  MOVLW  00
0601A:  MOVWF  FF8
0601C:  MOVLB  0
0601E:  CALL   3410
....................             SendDataDisplay(); 
06022:  CALL   3442
....................             printf("page MenuPrincipal"); 
06026:  MOVLW  34
06028:  MOVWF  FF6
0602A:  MOVLW  05
0602C:  MOVWF  FF7
0602E:  MOVLW  00
06030:  MOVWF  FF8
06032:  CALL   3410
....................             SendDataDisplay(); 
06036:  CALL   3442
....................             if(!GuardaEEPROM){ 
0603A:  BTFSC  xA2.2
0603C:  BRA    6128
....................                write_eeprom(10,Contrasena[0]);delay_ms(20);write_eeprom(11,Contrasena[1]);delay_ms(20); 
0603E:  CLRF   FAA
06040:  MOVLW  0A
06042:  MOVWF  FA9
06044:  MOVFF  356,FA8
06048:  BCF    FA6.6
0604A:  BCF    FA6.7
0604C:  BSF    FA6.2
0604E:  MOVF   FF2,W
06050:  MOVWF  00
06052:  BCF    FF2.6
06054:  BCF    FF2.7
06056:  MOVLB  F
06058:  MOVLW  55
0605A:  MOVWF  FA7
0605C:  MOVLW  AA
0605E:  MOVWF  FA7
06060:  BSF    FA6.1
06062:  BTFSC  FA6.1
06064:  BRA    6062
06066:  BCF    FA6.2
06068:  MOVF   00,W
0606A:  IORWF  FF2,F
0606C:  MOVLW  14
0606E:  MOVLB  3
06070:  MOVWF  xD4
06072:  MOVLB  0
06074:  CALL   16D0
06078:  CLRF   FAA
0607A:  MOVLW  0B
0607C:  MOVWF  FA9
0607E:  MOVFF  357,FA8
06082:  BCF    FA6.6
06084:  BCF    FA6.7
06086:  BSF    FA6.2
06088:  MOVF   FF2,W
0608A:  MOVWF  00
0608C:  BCF    FF2.6
0608E:  BCF    FF2.7
06090:  MOVLB  F
06092:  MOVLW  55
06094:  MOVWF  FA7
06096:  MOVLW  AA
06098:  MOVWF  FA7
0609A:  BSF    FA6.1
0609C:  BTFSC  FA6.1
0609E:  BRA    609C
060A0:  BCF    FA6.2
060A2:  MOVF   00,W
060A4:  IORWF  FF2,F
060A6:  MOVLW  14
060A8:  MOVLB  3
060AA:  MOVWF  xD4
060AC:  MOVLB  0
060AE:  CALL   16D0
....................                write_eeprom(12,Contrasena[2]);delay_ms(20);write_eeprom(13,Contrasena[3]);delay_ms(20); 
060B2:  CLRF   FAA
060B4:  MOVLW  0C
060B6:  MOVWF  FA9
060B8:  MOVFF  358,FA8
060BC:  BCF    FA6.6
060BE:  BCF    FA6.7
060C0:  BSF    FA6.2
060C2:  MOVF   FF2,W
060C4:  MOVWF  00
060C6:  BCF    FF2.6
060C8:  BCF    FF2.7
060CA:  MOVLB  F
060CC:  MOVLW  55
060CE:  MOVWF  FA7
060D0:  MOVLW  AA
060D2:  MOVWF  FA7
060D4:  BSF    FA6.1
060D6:  BTFSC  FA6.1
060D8:  BRA    60D6
060DA:  BCF    FA6.2
060DC:  MOVF   00,W
060DE:  IORWF  FF2,F
060E0:  MOVLW  14
060E2:  MOVLB  3
060E4:  MOVWF  xD4
060E6:  MOVLB  0
060E8:  CALL   16D0
060EC:  CLRF   FAA
060EE:  MOVLW  0D
060F0:  MOVWF  FA9
060F2:  MOVFF  359,FA8
060F6:  BCF    FA6.6
060F8:  BCF    FA6.7
060FA:  BSF    FA6.2
060FC:  MOVF   FF2,W
060FE:  MOVWF  00
06100:  BCF    FF2.6
06102:  BCF    FF2.7
06104:  MOVLB  F
06106:  MOVLW  55
06108:  MOVWF  FA7
0610A:  MOVLW  AA
0610C:  MOVWF  FA7
0610E:  BSF    FA6.1
06110:  BTFSC  FA6.1
06112:  BRA    6110
06114:  BCF    FA6.2
06116:  MOVF   00,W
06118:  IORWF  FF2,F
0611A:  MOVLW  14
0611C:  MOVLB  3
0611E:  MOVWF  xD4
06120:  MOVLB  0
06122:  CALL   16D0
....................                GuardaEEPROM=ON; 
06126:  BSF    xA2.2
06128:  MOVLB  2
....................             } 
....................          } 
....................       } 
....................        
....................       if(RX_Buffer[4]==0x11){//11 
0612A:  MOVF   34,W
0612C:  SUBLW  11
0612E:  BNZ   614E
....................          if(TipoClave!=0){ 
06130:  MOVF   xD4,F
06132:  BZ    614E
....................             printf("page MenuPrincipal"); 
06134:  MOVLW  48
06136:  MOVWF  FF6
06138:  MOVLW  05
0613A:  MOVWF  FF7
0613C:  MOVLW  00
0613E:  MOVWF  FF8
06140:  MOVLB  0
06142:  CALL   3410
....................             SendDataDisplay(); 
06146:  CALL   3442
....................             PantallaPrincipal=0; 
0614A:  MOVLB  2
0614C:  CLRF   xD3
....................          } 
....................       } 
....................        
....................       if(TipoClave==3){ 
0614E:  MOVF   xD4,W
06150:  SUBLW  03
06152:  BNZ   6180
....................          printf("titulo.txt=\"Clave Nueva\""); 
06154:  MOVLW  5C
06156:  MOVWF  FF6
06158:  MOVLW  05
0615A:  MOVWF  FF7
0615C:  MOVLW  00
0615E:  MOVWF  FF8
06160:  MOVLB  0
06162:  CALL   3410
....................          SendDataDisplay(); 
06166:  CALL   3442
....................          printf("doevents"); 
0616A:  MOVLW  76
0616C:  MOVWF  FF6
0616E:  MOVLW  05
06170:  MOVWF  FF7
06172:  MOVLW  00
06174:  MOVWF  FF8
06176:  CALL   3410
....................          SendDataDisplay(); 
0617A:  CALL   3442
0617E:  MOVLB  2
....................       } 
....................        
....................       if(TipoClave==2){ 
06180:  MOVF   xD4,W
06182:  SUBLW  02
06184:  BNZ   61B2
....................          printf("titulo.txt=\"Clave Actual\""); 
06186:  MOVLW  80
06188:  MOVWF  FF6
0618A:  MOVLW  05
0618C:  MOVWF  FF7
0618E:  MOVLW  00
06190:  MOVWF  FF8
06192:  MOVLB  0
06194:  CALL   3410
....................          SendDataDisplay(); 
06198:  CALL   3442
....................          printf("doevents"); 
0619C:  MOVLW  9A
0619E:  MOVWF  FF6
061A0:  MOVLW  05
061A2:  MOVWF  FF7
061A4:  MOVLW  00
061A6:  MOVWF  FF8
061A8:  CALL   3410
....................          SendDataDisplay(); 
061AC:  CALL   3442
061B0:  MOVLB  2
....................       } 
....................        
....................       if(TipoClave==1){ 
061B2:  DECFSZ xD4,W
061B4:  BRA    61E2
....................          printf("titulo.txt=\"Clave Tecnico\""); 
061B6:  MOVLW  A4
061B8:  MOVWF  FF6
061BA:  MOVLW  05
061BC:  MOVWF  FF7
061BE:  MOVLW  00
061C0:  MOVWF  FF8
061C2:  MOVLB  0
061C4:  CALL   3410
....................          SendDataDisplay(); 
061C8:  CALL   3442
....................          printf("doevents"); 
061CC:  MOVLW  C0
061CE:  MOVWF  FF6
061D0:  MOVLW  05
061D2:  MOVWF  FF7
061D4:  MOVLW  00
061D6:  MOVWF  FF8
061D8:  CALL   3410
....................          SendDataDisplay(); 
061DC:  CALL   3442
061E0:  MOVLB  2
....................       } 
....................        
....................       if(TipoClave==0){ 
061E2:  MOVF   xD4,F
061E4:  BNZ   61FE
....................          printf("titulo.txt=\"Ingrese Contrasea\""); 
061E6:  MOVLW  CA
061E8:  MOVWF  FF6
061EA:  MOVLW  05
061EC:  MOVWF  FF7
061EE:  MOVLW  00
061F0:  MOVWF  FF8
061F2:  MOVLB  0
061F4:  CALL   3410
....................          SendDataDisplay(); 
061F8:  CALL   3442
061FC:  MOVLB  2
....................       } 
....................       if(RX_Buffer[3]==0x0f){//0f, recibe caracteres ingresados desde el Display 
061FE:  MOVF   33,W
06200:  SUBLW  0F
06202:  BTFSS  FD8.2
06204:  BRA    65D6
....................          if(TipoClave==0){ 
06206:  MOVF   xD4,F
06208:  BTFSS  FD8.2
0620A:  BRA    6392
....................             if(RX_Buffer[4]==0x33&&RX_Buffer[5]==0x38&&RX_Buffer[6]==0x39&&RX_Buffer[7]==0x32){ // Si Ingresa clave para reset general del sistema. 
0620C:  MOVF   34,W
0620E:  SUBLW  33
06210:  BTFSS  FD8.2
06212:  BRA    630C
06214:  MOVF   35,W
06216:  SUBLW  38
06218:  BTFSS  FD8.2
0621A:  BRA    630C
0621C:  MOVF   36,W
0621E:  SUBLW  39
06220:  BNZ   630C
06222:  MOVF   37,W
06224:  SUBLW  32
06226:  BNZ   630C
....................                write_eeprom(10,0);delay_ms(20);write_eeprom(11,0);delay_ms(20);// Reestablece a contrasea de Fabrica y reinicia Programa. 
06228:  CLRF   FAA
0622A:  MOVLW  0A
0622C:  MOVWF  FA9
0622E:  CLRF   FA8
06230:  BCF    FA6.6
06232:  BCF    FA6.7
06234:  BSF    FA6.2
06236:  MOVF   FF2,W
06238:  MOVWF  00
0623A:  BCF    FF2.6
0623C:  BCF    FF2.7
0623E:  MOVLB  F
06240:  MOVLW  55
06242:  MOVWF  FA7
06244:  MOVLW  AA
06246:  MOVWF  FA7
06248:  BSF    FA6.1
0624A:  BTFSC  FA6.1
0624C:  BRA    624A
0624E:  BCF    FA6.2
06250:  MOVF   00,W
06252:  IORWF  FF2,F
06254:  MOVLW  14
06256:  MOVLB  3
06258:  MOVWF  xD4
0625A:  MOVLB  0
0625C:  CALL   16D0
06260:  CLRF   FAA
06262:  MOVLW  0B
06264:  MOVWF  FA9
06266:  CLRF   FA8
06268:  BCF    FA6.6
0626A:  BCF    FA6.7
0626C:  BSF    FA6.2
0626E:  MOVF   FF2,W
06270:  MOVWF  00
06272:  BCF    FF2.6
06274:  BCF    FF2.7
06276:  MOVLB  F
06278:  MOVLW  55
0627A:  MOVWF  FA7
0627C:  MOVLW  AA
0627E:  MOVWF  FA7
06280:  BSF    FA6.1
06282:  BTFSC  FA6.1
06284:  BRA    6282
06286:  BCF    FA6.2
06288:  MOVF   00,W
0628A:  IORWF  FF2,F
0628C:  MOVLW  14
0628E:  MOVLB  3
06290:  MOVWF  xD4
06292:  MOVLB  0
06294:  CALL   16D0
....................                write_eeprom(12,0);delay_ms(20);write_eeprom(13,0);delay_ms(20); 
06298:  CLRF   FAA
0629A:  MOVLW  0C
0629C:  MOVWF  FA9
0629E:  CLRF   FA8
062A0:  BCF    FA6.6
062A2:  BCF    FA6.7
062A4:  BSF    FA6.2
062A6:  MOVF   FF2,W
062A8:  MOVWF  00
062AA:  BCF    FF2.6
062AC:  BCF    FF2.7
062AE:  MOVLB  F
062B0:  MOVLW  55
062B2:  MOVWF  FA7
062B4:  MOVLW  AA
062B6:  MOVWF  FA7
062B8:  BSF    FA6.1
062BA:  BTFSC  FA6.1
062BC:  BRA    62BA
062BE:  BCF    FA6.2
062C0:  MOVF   00,W
062C2:  IORWF  FF2,F
062C4:  MOVLW  14
062C6:  MOVLB  3
062C8:  MOVWF  xD4
062CA:  MOVLB  0
062CC:  CALL   16D0
062D0:  CLRF   FAA
062D2:  MOVLW  0D
062D4:  MOVWF  FA9
062D6:  CLRF   FA8
062D8:  BCF    FA6.6
062DA:  BCF    FA6.7
062DC:  BSF    FA6.2
062DE:  MOVF   FF2,W
062E0:  MOVWF  00
062E2:  BCF    FF2.6
062E4:  BCF    FF2.7
062E6:  MOVLB  F
062E8:  MOVLW  55
062EA:  MOVWF  FA7
062EC:  MOVLW  AA
062EE:  MOVWF  FA7
062F0:  BSF    FA6.1
062F2:  BTFSC  FA6.1
062F4:  BRA    62F2
062F6:  BCF    FA6.2
062F8:  MOVF   00,W
062FA:  IORWF  FF2,F
062FC:  MOVLW  14
062FE:  MOVLB  3
06300:  MOVWF  xD4
06302:  MOVLB  0
06304:  CALL   16D0
....................                reset_cpu(); 
06308:  RESET
0630A:  MOVLB  2
....................             } 
....................             if(RX_Buffer[4]>=0x30 && RX_Buffer[5]>=0x30 && RX_Buffer[6]>=0x30 && RX_Buffer[7]>=0x30 
....................             && RX_Buffer[4]<=0x39 && RX_Buffer[5]<=0x39 && RX_Buffer[6]<=0x39 && RX_Buffer[7]<=0x39){ 
0630C:  MOVF   34,W
0630E:  SUBLW  2F
06310:  BC    6390
06312:  MOVF   35,W
06314:  SUBLW  2F
06316:  BC    6390
06318:  MOVF   36,W
0631A:  SUBLW  2F
0631C:  BC    6390
0631E:  MOVF   37,W
06320:  SUBLW  2F
06322:  BC    6390
06324:  MOVF   34,W
06326:  SUBLW  39
06328:  BNC   6390
0632A:  MOVF   35,W
0632C:  SUBLW  39
0632E:  BNC   6390
06330:  MOVF   36,W
06332:  SUBLW  39
06334:  BNC   6390
06336:  MOVF   37,W
06338:  SUBLW  39
0633A:  BNC   6390
....................             if((RX_Buffer[4]==Password[0]+0x30)&&(RX_Buffer[5]==Password[1]+0x30)&&(RX_Buffer[6]==Password[2]+0x30)&&(RX_Buffer[7]==Password[3]+0x30)){ 
0633C:  MOVLW  30
0633E:  MOVLB  3
06340:  ADDWF  x5A,W
06342:  SUBWF  34,W
06344:  BNZ   6378
06346:  MOVLW  30
06348:  ADDWF  x5B,W
0634A:  SUBWF  35,W
0634C:  BNZ   6378
0634E:  MOVLW  30
06350:  ADDWF  x5C,W
06352:  SUBWF  36,W
06354:  BNZ   6378
06356:  MOVLW  30
06358:  ADDWF  x5D,W
0635A:  SUBWF  37,W
0635C:  BNZ   6378
....................                   printf("page ClaveCorrecta"); 
0635E:  MOVLW  EA
06360:  MOVWF  FF6
06362:  MOVLW  05
06364:  MOVWF  FF7
06366:  MOVLW  00
06368:  MOVWF  FF8
0636A:  MOVLB  0
0636C:  CALL   3410
....................                   //printf("page MenuPrincipal"); 
....................                   SendDataDisplay(); 
06370:  CALL   3442
....................                }else{ 
06374:  BRA    638E
06376:  MOVLB  3
....................                   printf("page ClaveBad"); 
06378:  MOVLW  FE
0637A:  MOVWF  FF6
0637C:  MOVLW  05
0637E:  MOVWF  FF7
06380:  MOVLW  00
06382:  MOVWF  FF8
06384:  MOVLB  0
06386:  CALL   3410
....................                   SendDataDisplay(); 
0638A:  CALL   3442
0638E:  MOVLB  2
....................                }  
....................             } 
....................          }else if(TipoClave==1){ 
06390:  BRA    65D6
06392:  DECFSZ xD4,W
06394:  BRA    63E2
....................             if(RX_Buffer[4]==0x34&&RX_Buffer[5]==0x34&&RX_Buffer[6]==0x34&&RX_Buffer[7]==0x34){ // Si Ingresa clave de Servicio Tecnico 
06396:  MOVF   34,W
06398:  SUBLW  34
0639A:  BNZ   63C8
0639C:  MOVF   35,W
0639E:  SUBLW  34
063A0:  BNZ   63C8
063A2:  MOVF   36,W
063A4:  SUBLW  34
063A6:  BNZ   63C8
063A8:  MOVF   37,W
063AA:  SUBLW  34
063AC:  BNZ   63C8
....................                printf("page Config"); 
063AE:  MOVLW  0C
063B0:  MOVWF  FF6
063B2:  MOVLW  06
063B4:  MOVWF  FF7
063B6:  MOVLW  00
063B8:  MOVWF  FF8
063BA:  MOVLB  0
063BC:  CALL   3410
....................                SendDataDisplay(); 
063C0:  CALL   3442
....................             }else{ 
063C4:  BRA    63DE
063C6:  MOVLB  2
....................                printf("page MenuPrincipal"); 
063C8:  MOVLW  18
063CA:  MOVWF  FF6
063CC:  MOVLW  06
063CE:  MOVWF  FF7
063D0:  MOVLW  00
063D2:  MOVWF  FF8
063D4:  MOVLB  0
063D6:  CALL   3410
....................                SendDataDisplay(); 
063DA:  CALL   3442
....................             } 
....................          }else if(TipoClave==2){ 
063DE:  BRA    65D4
063E0:  MOVLB  2
063E2:  MOVF   xD4,W
063E4:  SUBLW  02
063E6:  BNZ   6490
....................             if(RX_Buffer[4]>=0x30 && RX_Buffer[5]>=0x30 && RX_Buffer[6]>=0x30 && RX_Buffer[7]>=0x30 
....................             && RX_Buffer[4]<=0x39 && RX_Buffer[5]<=0x39 && RX_Buffer[6]<=0x39 && RX_Buffer[7]<=0x39){ 
063E8:  MOVF   34,W
063EA:  SUBLW  2F
063EC:  BC    648E
063EE:  MOVF   35,W
063F0:  SUBLW  2F
063F2:  BC    648E
063F4:  MOVF   36,W
063F6:  SUBLW  2F
063F8:  BC    648E
063FA:  MOVF   37,W
063FC:  SUBLW  2F
063FE:  BC    648E
06400:  MOVF   34,W
06402:  SUBLW  39
06404:  BNC   648E
06406:  MOVF   35,W
06408:  SUBLW  39
0640A:  BNC   648E
0640C:  MOVF   36,W
0640E:  SUBLW  39
06410:  BNC   648E
06412:  MOVF   37,W
06414:  SUBLW  39
06416:  BNC   648E
....................             if((RX_Buffer[4]==Password[0]+0x30)&&(RX_Buffer[5]==Password[1]+0x30)&&(RX_Buffer[6]==Password[2]+0x30)&&(RX_Buffer[7]==Password[3]+0x30)){ 
06418:  MOVLW  30
0641A:  MOVLB  3
0641C:  ADDWF  x5A,W
0641E:  SUBWF  34,W
06420:  BNZ   6472
06422:  MOVLW  30
06424:  ADDWF  x5B,W
06426:  SUBWF  35,W
06428:  BNZ   6472
0642A:  MOVLW  30
0642C:  ADDWF  x5C,W
0642E:  SUBWF  36,W
06430:  BNZ   6472
06432:  MOVLW  30
06434:  ADDWF  x5D,W
06436:  SUBWF  37,W
06438:  BNZ   6472
....................                printf("page Clave"); 
0643A:  MOVLW  2C
0643C:  MOVWF  FF6
0643E:  MOVLW  06
06440:  MOVWF  FF7
06442:  MOVLW  00
06444:  MOVWF  FF8
06446:  MOVLB  0
06448:  CALL   3410
....................                SendDataDisplay(); 
0644C:  CALL   3442
....................                printf("titulo.txt=\"Clave Nueva\""); 
06450:  MOVLW  38
06452:  MOVWF  FF6
06454:  MOVLW  06
06456:  MOVWF  FF7
06458:  MOVLW  00
0645A:  MOVWF  FF8
0645C:  CALL   3410
....................                SendDataDisplay(); 
06460:  CALL   3442
....................                TipoClave=3; 
06464:  MOVLW  03
06466:  MOVLB  2
06468:  MOVWF  xD4
....................                RX_Buffer[3]=0x00; 
0646A:  CLRF   33
....................                RX_Buffer2[3]=0x00; 
0646C:  CLRF   3E
....................             }else{ 
0646E:  BRA    648E
06470:  MOVLB  3
....................                printf("page MenuPrincipal"); 
06472:  MOVLW  52
06474:  MOVWF  FF6
06476:  MOVLW  06
06478:  MOVWF  FF7
0647A:  MOVLW  00
0647C:  MOVWF  FF8
0647E:  MOVLB  0
06480:  CALL   3410
....................                SendDataDisplay(); 
06484:  CALL   3442
....................                RX_Buffer[3]=0x00; 
06488:  CLRF   33
....................                RX_Buffer2[3]=0x00; 
0648A:  CLRF   3E
0648C:  MOVLB  2
....................             }  
....................             } 
....................          }else if(TipoClave==3){ 
0648E:  BRA    65D6
06490:  MOVF   xD4,W
06492:  SUBLW  03
06494:  BTFSS  FD8.2
06496:  BRA    65D6
....................             printf("titulo.txt=\"Clave Nueva\""); 
06498:  MOVLW  66
0649A:  MOVWF  FF6
0649C:  MOVLW  06
0649E:  MOVWF  FF7
064A0:  MOVLW  00
064A2:  MOVWF  FF8
064A4:  MOVLB  0
064A6:  CALL   3410
....................             SendDataDisplay(); 
064AA:  CALL   3442
....................             printf("page MenuPrincipal"); 
064AE:  MOVLW  80
064B0:  MOVWF  FF6
064B2:  MOVLW  06
064B4:  MOVWF  FF7
064B6:  MOVLW  00
064B8:  MOVWF  FF8
064BA:  CALL   3410
....................             SendDataDisplay(); 
064BE:  CALL   3442
....................             if(!GuardaEEPROM){ 
064C2:  BTFSC  xA2.2
064C4:  BRA    65D0
....................                write_eeprom(10,RX_Buffer[4]-0x30);delay_ms(20);write_eeprom(11,RX_Buffer[5]-0x30);delay_ms(20); 
064C6:  MOVLW  30
064C8:  SUBWF  34,W
064CA:  MOVLB  3
064CC:  MOVWF  xC9
064CE:  CLRF   FAA
064D0:  MOVLW  0A
064D2:  MOVWF  FA9
064D4:  MOVFF  3C9,FA8
064D8:  BCF    FA6.6
064DA:  BCF    FA6.7
064DC:  BSF    FA6.2
064DE:  MOVF   FF2,W
064E0:  MOVWF  00
064E2:  BCF    FF2.6
064E4:  BCF    FF2.7
064E6:  MOVLB  F
064E8:  MOVLW  55
064EA:  MOVWF  FA7
064EC:  MOVLW  AA
064EE:  MOVWF  FA7
064F0:  BSF    FA6.1
064F2:  BTFSC  FA6.1
064F4:  BRA    64F2
064F6:  BCF    FA6.2
064F8:  MOVF   00,W
064FA:  IORWF  FF2,F
064FC:  MOVLW  14
064FE:  MOVLB  3
06500:  MOVWF  xD4
06502:  MOVLB  0
06504:  CALL   16D0
06508:  MOVLW  30
0650A:  SUBWF  35,W
0650C:  MOVLB  3
0650E:  MOVWF  xC9
06510:  CLRF   FAA
06512:  MOVLW  0B
06514:  MOVWF  FA9
06516:  MOVFF  3C9,FA8
0651A:  BCF    FA6.6
0651C:  BCF    FA6.7
0651E:  BSF    FA6.2
06520:  MOVF   FF2,W
06522:  MOVWF  00
06524:  BCF    FF2.6
06526:  BCF    FF2.7
06528:  MOVLB  F
0652A:  MOVLW  55
0652C:  MOVWF  FA7
0652E:  MOVLW  AA
06530:  MOVWF  FA7
06532:  BSF    FA6.1
06534:  BTFSC  FA6.1
06536:  BRA    6534
06538:  BCF    FA6.2
0653A:  MOVF   00,W
0653C:  IORWF  FF2,F
0653E:  MOVLW  14
06540:  MOVLB  3
06542:  MOVWF  xD4
06544:  MOVLB  0
06546:  CALL   16D0
....................                write_eeprom(12,RX_Buffer[6]-0x30);delay_ms(20);write_eeprom(13,RX_Buffer[7]-0x30);delay_ms(20); 
0654A:  MOVLW  30
0654C:  SUBWF  36,W
0654E:  MOVLB  3
06550:  MOVWF  xC9
06552:  CLRF   FAA
06554:  MOVLW  0C
06556:  MOVWF  FA9
06558:  MOVFF  3C9,FA8
0655C:  BCF    FA6.6
0655E:  BCF    FA6.7
06560:  BSF    FA6.2
06562:  MOVF   FF2,W
06564:  MOVWF  00
06566:  BCF    FF2.6
06568:  BCF    FF2.7
0656A:  MOVLB  F
0656C:  MOVLW  55
0656E:  MOVWF  FA7
06570:  MOVLW  AA
06572:  MOVWF  FA7
06574:  BSF    FA6.1
06576:  BTFSC  FA6.1
06578:  BRA    6576
0657A:  BCF    FA6.2
0657C:  MOVF   00,W
0657E:  IORWF  FF2,F
06580:  MOVLW  14
06582:  MOVLB  3
06584:  MOVWF  xD4
06586:  MOVLB  0
06588:  CALL   16D0
0658C:  MOVLW  30
0658E:  SUBWF  37,W
06590:  MOVLB  3
06592:  MOVWF  xC9
06594:  CLRF   FAA
06596:  MOVLW  0D
06598:  MOVWF  FA9
0659A:  MOVFF  3C9,FA8
0659E:  BCF    FA6.6
065A0:  BCF    FA6.7
065A2:  BSF    FA6.2
065A4:  MOVF   FF2,W
065A6:  MOVWF  00
065A8:  BCF    FF2.6
065AA:  BCF    FF2.7
065AC:  MOVLB  F
065AE:  MOVLW  55
065B0:  MOVWF  FA7
065B2:  MOVLW  AA
065B4:  MOVWF  FA7
065B6:  BSF    FA6.1
065B8:  BTFSC  FA6.1
065BA:  BRA    65B8
065BC:  BCF    FA6.2
065BE:  MOVF   00,W
065C0:  IORWF  FF2,F
065C2:  MOVLW  14
065C4:  MOVLB  3
065C6:  MOVWF  xD4
065C8:  MOVLB  0
065CA:  CALL   16D0
....................                GuardaEEPROM=ON; 
065CE:  BSF    xA2.2
....................             } 
....................             RX_Buffer[3]=0x00; 
065D0:  CLRF   33
....................             RX_Buffer2[3]=0x00; 
065D2:  CLRF   3E
065D4:  MOVLB  2
065D6:  MOVLB  3
....................          } 
....................       } 
....................     } 
.................... //_--------------------------------------------------------------------------------------------------------------------------------------------------------        
....................  
.................... //_-------------------------------------------------------------------------------------------------------------------------------------------------------- 
....................    if(Menu==1){ //Menu Principal. 
065D8:  DECFSZ x35,W
065DA:  GOTO   6EF0
....................       printf("fecha.txt=\"Fecha:%02u/%02u/20%02u    Hora: %02u:%02u\"",Dia,Mes,Year,Hora,Minuto); 
065DE:  MOVLW  94
065E0:  MOVWF  FF6
065E2:  MOVLW  06
065E4:  MOVWF  FF7
065E6:  MOVLW  00
065E8:  MOVWF  FF8
065EA:  MOVLW  11
065EC:  MOVWF  xCD
065EE:  MOVLB  0
065F0:  CALL   43B8
065F4:  MOVFF  36D,3CC
065F8:  MOVLW  01
065FA:  MOVLB  3
065FC:  MOVWF  xCD
065FE:  MOVLB  0
06600:  CALL   4416
06604:  MOVLW  2F
06606:  BTFSS  F9E.4
06608:  BRA    6606
0660A:  MOVWF  FAD
0660C:  MOVFF  36C,3CC
06610:  MOVLW  01
06612:  MOVLB  3
06614:  MOVWF  xCD
06616:  MOVLB  0
06618:  CALL   4416
0661C:  MOVLW  2F
0661E:  BTFSS  F9E.4
06620:  BRA    661E
06622:  MOVWF  FAD
06624:  MOVLW  32
06626:  BTFSS  F9E.4
06628:  BRA    6626
0662A:  MOVWF  FAD
0662C:  MOVLW  30
0662E:  BTFSS  F9E.4
06630:  BRA    662E
06632:  MOVWF  FAD
06634:  MOVFF  36B,3CC
06638:  MOVLW  01
0663A:  MOVLB  3
0663C:  MOVWF  xCD
0663E:  MOVLB  0
06640:  CALL   4416
06644:  MOVLW  B5
06646:  MOVWF  FF6
06648:  MOVLW  06
0664A:  MOVWF  FF7
0664C:  MOVLW  00
0664E:  MOVWF  FF8
06650:  MOVLW  0A
06652:  MOVLB  3
06654:  MOVWF  xCD
06656:  MOVLB  0
06658:  CALL   43B8
0665C:  MOVFF  36E,3CC
06660:  MOVLW  01
06662:  MOVLB  3
06664:  MOVWF  xCD
06666:  MOVLB  0
06668:  CALL   4416
0666C:  MOVLW  3A
0666E:  BTFSS  F9E.4
06670:  BRA    666E
06672:  MOVWF  FAD
06674:  MOVFF  36F,3CC
06678:  MOVLW  01
0667A:  MOVLB  3
0667C:  MOVWF  xCD
0667E:  MOVLB  0
06680:  CALL   4416
06684:  MOVLW  22
06686:  BTFSS  F9E.4
06688:  BRA    6686
0668A:  MOVWF  FAD
....................       SendDataDisplay(); 
0668C:  CALL   3442
....................       GuardaEEPROM=OFF; 
06690:  BCF    xA2.2
....................       if(RX_Buffer[3]==0x0f || UP){//0f, recibe caracteres ingresados desde el Display 
06692:  MOVF   33,W
06694:  SUBLW  0F
06696:  BZ    669E
06698:  BSF    F93.0
0669A:  BTFSC  F81.0
0669C:  BRA    68C8
....................          delay_ms(5); 
0669E:  MOVLW  05
066A0:  MOVLB  3
066A2:  MOVWF  xD4
066A4:  MOVLB  0
066A6:  CALL   16D0
....................          if(RX_Buffer[3]==0x0f || UP){ 
066AA:  MOVF   33,W
066AC:  SUBLW  0F
066AE:  BZ    66B6
066B0:  BSF    F93.0
066B2:  BTFSC  F81.0
066B4:  BRA    68C2
....................          if(PantallaPrincipal==0){//Si esta en menu principal 
066B6:  MOVLB  2
066B8:  MOVF   xD3,F
066BA:  BTFSS  FD8.2
066BC:  BRA    68C6
....................             if(RX_Buffer[4]==0x37){//Ajustes y pasa a solicitud de password de tecnico 
066BE:  MOVF   34,W
066C0:  SUBLW  37
066C2:  BNZ   66F0
....................                printf("page Clave"); 
066C4:  MOVLW  CA
066C6:  MOVWF  FF6
066C8:  MOVLW  06
066CA:  MOVWF  FF7
066CC:  MOVLW  00
066CE:  MOVWF  FF8
066D0:  MOVLB  0
066D2:  CALL   3410
....................                SendDataDisplay();  
066D6:  CALL   3442
....................                Op=OFF; 
066DA:  BCF    xA1.6
....................                Op2=OFF; 
066DC:  BCF    xA1.7
....................                MenuAnt=Menu; 
066DE:  MOVFF  335,336
....................                TipoClave=1; 
066E2:  MOVLW  01
066E4:  MOVLB  2
066E6:  MOVWF  xD4
....................                RX_Buffer[3]=0x00; 
066E8:  CLRF   33
....................                RX_Buffer2[3]=0x00; 
066EA:  CLRF   3E
....................                Opcion=0; 
066EC:  MOVLB  3
066EE:  CLRF   x3D
....................             }  
....................             if(Opcion==8){// Cambio de Clave 
066F0:  MOVLB  3
066F2:  MOVF   x3D,W
066F4:  SUBLW  08
066F6:  BNZ   6726
....................                printf("page Clave"); 
066F8:  MOVLW  D6
066FA:  MOVWF  FF6
066FC:  MOVLW  06
066FE:  MOVWF  FF7
06700:  MOVLW  00
06702:  MOVWF  FF8
06704:  MOVLB  0
06706:  CALL   3410
....................                SendDataDisplay();  
0670A:  CALL   3442
....................                Op=OFF; 
0670E:  BCF    xA1.6
....................                Op2=OFF; 
06710:  BCF    xA1.7
....................                MenuAnt=Menu; 
06712:  MOVFF  335,336
....................                TipoClave=2; 
06716:  MOVLW  02
06718:  MOVLB  2
0671A:  MOVWF  xD4
....................                RX_Buffer[3]=0x00; 
0671C:  CLRF   33
....................                RX_Buffer2[3]=0x00; 
0671E:  CLRF   3E
....................                Opcion=0; 
06720:  MOVLB  3
06722:  CLRF   x3D
....................             }else if(Opcion==7){//Hora y Fecha 
06724:  BRA    68C4
06726:  MOVF   x3D,W
06728:  SUBLW  07
0672A:  BNZ   6768
....................                printf("page Fecha"); 
0672C:  MOVLW  E2
0672E:  MOVWF  FF6
06730:  MOVLW  06
06732:  MOVWF  FF7
06734:  MOVLW  00
06736:  MOVWF  FF8
06738:  MOVLB  0
0673A:  CALL   3410
....................                SendDataDisplay();      
0673E:  CALL   3442
....................                PantallaPrincipal=0; 
06742:  MOVLB  2
06744:  CLRF   xD3
....................                MenuAnt=Menu; 
06746:  MOVFF  335,336
....................                Op=OFF; 
0674A:  MOVLB  0
0674C:  BCF    xA1.6
....................                Op2=OFF; 
0674E:  BCF    xA1.7
....................                DiaTx=Dia; 
06750:  MOVFF  36D,374
....................                MesTx=Mes; 
06754:  MOVFF  36C,373
....................                YearTx=Year; 
06758:  MOVFF  36B,372
....................                HoraTx=Hora; 
0675C:  MOVFF  36E,375
....................                MinutoTx=Minuto; 
06760:  MOVFF  36F,376
....................             }else if(Opcion==6){//Test 
06764:  BRA    68C2
06766:  MOVLB  3
06768:  MOVF   x3D,W
0676A:  SUBLW  06
0676C:  BNZ   6796
....................                printf("page Test"); 
0676E:  MOVLW  EE
06770:  MOVWF  FF6
06772:  MOVLW  06
06774:  MOVWF  FF7
06776:  MOVLW  00
06778:  MOVWF  FF8
0677A:  MOVLB  0
0677C:  CALL   3410
....................                SendDataDisplay();      
06780:  CALL   3442
....................                PantallaPrincipal=0; 
06784:  MOVLB  2
06786:  CLRF   xD3
....................                MenuAnt=Menu; 
06788:  MOVFF  335,336
....................                Op=OFF; 
0678C:  MOVLB  0
0678E:  BCF    xA1.6
....................                Op2=OFF; 
06790:  BCF    xA1.7
....................             }else if(Opcion==5){//Ciclo Personalizado 
06792:  BRA    68C2
06794:  MOVLB  3
06796:  MOVF   x3D,W
06798:  SUBLW  05
0679A:  BNZ   67BE
....................                printf("page CicloPersona"); 
0679C:  MOVLW  F8
0679E:  MOVWF  FF6
067A0:  MOVLW  06
067A2:  MOVWF  FF7
067A4:  MOVLW  00
067A6:  MOVWF  FF8
067A8:  MOVLB  0
067AA:  CALL   3410
....................                SendDataDisplay();  
067AE:  CALL   3442
....................                MenuAnt=Menu; 
067B2:  MOVFF  335,336
....................                Op=OFF; 
067B6:  BCF    xA1.6
....................                Op2=OFF; 
067B8:  BCF    xA1.7
....................             }else if(Opcion==4){//Fusion 
067BA:  BRA    68C2
067BC:  MOVLB  3
067BE:  MOVF   x3D,W
067C0:  SUBLW  04
067C2:  BNZ   6802
....................                printf("page Nivel"); 
067C4:  MOVLW  0A
067C6:  MOVWF  FF6
067C8:  MOVLW  07
067CA:  MOVWF  FF7
067CC:  MOVLW  00
067CE:  MOVWF  FF8
067D0:  MOVLB  0
067D2:  CALL   3410
....................                SendDataDisplay();        
067D6:  CALL   3442
....................                ConfiguraCiclo(30,0,1,4,100); 
067DA:  MOVLB  3
067DC:  CLRF   xCF
067DE:  MOVLW  1E
067E0:  MOVWF  xCE
067E2:  CLRF   xD0
067E4:  MOVLW  01
067E6:  MOVWF  xD1
067E8:  MOVLW  04
067EA:  MOVWF  xD2
067EC:  MOVLW  64
067EE:  MOVWF  xD3
067F0:  MOVLB  0
067F2:  CALL   4494
....................                Op=OFF; 
067F6:  BCF    xA1.6
....................                Op2=OFF; 
067F8:  BCF    xA1.7
....................                MenuAnt=2; 
067FA:  MOVLW  02
067FC:  MOVLB  3
067FE:  MOVWF  x36
....................             }else if(Opcion==1){//Liquidos 
06800:  BRA    68C4
06802:  DECFSZ x3D,W
06804:  BRA    6842
....................                printf("page Nivel"); 
06806:  MOVLW  16
06808:  MOVWF  FF6
0680A:  MOVLW  07
0680C:  MOVWF  FF7
0680E:  MOVLW  00
06810:  MOVWF  FF8
06812:  MOVLB  0
06814:  CALL   3410
....................                SendDataDisplay();        
06818:  CALL   3442
....................                ConfiguraCiclo(15,0,1,1,121); 
0681C:  MOVLB  3
0681E:  CLRF   xCF
06820:  MOVLW  0F
06822:  MOVWF  xCE
06824:  CLRF   xD0
06826:  MOVLW  01
06828:  MOVWF  xD1
0682A:  MOVWF  xD2
0682C:  MOVLW  79
0682E:  MOVWF  xD3
06830:  MOVLB  0
06832:  CALL   4494
....................                Op=OFF; 
06836:  BCF    xA1.6
....................                Op2=OFF; 
06838:  BCF    xA1.7
....................                MenuAnt=2; 
0683A:  MOVLW  02
0683C:  MOVLB  3
0683E:  MOVWF  x36
....................             }else if(Opcion==3){//Solidos 
06840:  BRA    68C4
06842:  MOVF   x3D,W
06844:  SUBLW  03
06846:  BNZ   6884
....................                printf("page Funcionamiento"); 
06848:  MOVLW  22
0684A:  MOVWF  FF6
0684C:  MOVLW  07
0684E:  MOVWF  FF7
06850:  MOVLW  00
06852:  MOVWF  FF8
06854:  MOVLB  0
06856:  CALL   3410
....................                SendDataDisplay();        
0685A:  CALL   3442
....................                ConfiguraCiclo(20,0,0,3,121); 
0685E:  MOVLB  3
06860:  CLRF   xCF
06862:  MOVLW  14
06864:  MOVWF  xCE
06866:  CLRF   xD0
06868:  CLRF   xD1
0686A:  MOVLW  03
0686C:  MOVWF  xD2
0686E:  MOVLW  79
06870:  MOVWF  xD3
06872:  MOVLB  0
06874:  CALL   4494
....................                Op=OFF; 
06878:  BCF    xA1.6
....................                Op2=OFF; 
0687A:  BCF    xA1.7
....................                MenuAnt=Menu; 
0687C:  MOVFF  335,336
....................                //if(Temperatura>60)TTrampa=TTrampa+5; 
....................             }else if(Opcion==2){//Descontaminacion 
06880:  BRA    68C2
06882:  MOVLB  3
06884:  MOVF   x3D,W
06886:  SUBLW  02
06888:  BNZ   68C4
....................                printf("page Funcionamiento"); 
0688A:  MOVLW  36
0688C:  MOVWF  FF6
0688E:  MOVLW  07
06890:  MOVWF  FF7
06892:  MOVLW  00
06894:  MOVWF  FF8
06896:  MOVLB  0
06898:  CALL   3410
....................                SendDataDisplay();        
0689C:  CALL   3442
....................                ConfiguraCiclo(35,0,0,2,121); 
068A0:  MOVLB  3
068A2:  CLRF   xCF
068A4:  MOVLW  23
068A6:  MOVWF  xCE
068A8:  CLRF   xD0
068AA:  CLRF   xD1
068AC:  MOVLW  02
068AE:  MOVWF  xD2
068B0:  MOVLW  79
068B2:  MOVWF  xD3
068B4:  MOVLB  0
068B6:  CALL   4494
....................                Op=OFF; 
068BA:  BCF    xA1.6
....................                Op2=OFF; 
068BC:  BCF    xA1.7
....................                MenuAnt=Menu; 
068BE:  MOVFF  335,336
068C2:  MOVLB  3
068C4:  MOVLB  2
....................                //if(Temperatura>60)TTrampa=TTrampa+5; 
....................             } 
....................          } 
....................          } 
....................       }else if(PantallaPrincipal==0){ 
068C6:  BRA    6EA2
068C8:  MOVLB  2
068CA:  MOVF   xD3,F
068CC:  BTFSS  FD8.2
068CE:  BRA    6EA2
....................          if(RIGHT){ 
068D0:  BSF    F93.2
068D2:  BTFSC  F81.2
068D4:  BRA    68F0
....................             delay_ms(200); 
068D6:  MOVLW  C8
068D8:  MOVLB  3
068DA:  MOVWF  xD4
068DC:  MOVLB  0
068DE:  CALL   16D0
....................             if(RIGHT){ 
068E2:  BSF    F93.2
068E4:  BTFSC  F81.2
068E6:  BRA    68EE
....................                Opcion++; 
068E8:  MOVLB  3
068EA:  INCF   x3D,F
068EC:  MOVLB  0
068EE:  MOVLB  2
....................             } 
....................          } 
....................           
....................          if(LEFT){ 
068F0:  BSF    F93.3
068F2:  BTFSC  F81.3
068F4:  BRA    690E
....................             delay_ms(200); 
068F6:  MOVLW  C8
068F8:  MOVLB  3
068FA:  MOVWF  xD4
068FC:  MOVLB  0
068FE:  CALL   16D0
....................             if(LEFT){ 
06902:  BSF    F93.3
06904:  BTFSC  F81.3
06906:  BRA    690E
....................                Opcion--; 
06908:  MOVLB  3
0690A:  DECF   x3D,F
0690C:  MOVLB  0
....................             } 
....................          } 
....................           
....................          if(Opcion>8) 
0690E:  MOVLB  3
06910:  MOVF   x3D,W
06912:  SUBLW  08
06914:  BC    691A
....................             Opcion=1; 
06916:  MOVLW  01
06918:  MOVWF  x3D
....................              
....................          if(Opcion<1) 
0691A:  MOVF   x3D,F
0691C:  BNZ   6922
....................             Opcion=8; 
0691E:  MOVLW  08
06920:  MOVWF  x3D
....................           
....................          if(Opcion==1){ 
06922:  DECFSZ x3D,W
06924:  BRA    6AC8
....................             printf("bc.pic=%u",iconoGrande[Opcion-1]); 
06926:  MOVLW  01
06928:  SUBWF  x3D,W
0692A:  CLRF   03
0692C:  ADDLW  7F
0692E:  MOVWF  FE9
06930:  MOVLW  03
06932:  ADDWFC 03,W
06934:  MOVWF  FEA
06936:  MOVFF  FEF,3C9
0693A:  MOVLW  4A
0693C:  MOVWF  FF6
0693E:  MOVLW  07
06940:  MOVWF  FF7
06942:  MOVLW  00
06944:  MOVWF  FF8
06946:  MOVLW  07
06948:  MOVWF  xCD
0694A:  MOVLB  0
0694C:  CALL   43B8
06950:  MOVFF  3C9,3CC
06954:  MOVLW  1B
06956:  MOVLB  3
06958:  MOVWF  xCD
0695A:  MOVLB  0
0695C:  CALL   4416
....................             SendDataDisplay(); 
06960:  CALL   3442
....................             printf("bd.pic=%u",iconoPeque[Opcion]); 
06964:  CLRF   03
06966:  MOVLB  3
06968:  MOVF   x3D,W
0696A:  ADDLW  8E
0696C:  MOVWF  FE9
0696E:  MOVLW  03
06970:  ADDWFC 03,W
06972:  MOVWF  FEA
06974:  MOVFF  FEF,3C9
06978:  MOVLW  54
0697A:  MOVWF  FF6
0697C:  MOVLW  07
0697E:  MOVWF  FF7
06980:  MOVLW  00
06982:  MOVWF  FF8
06984:  MOVLW  07
06986:  MOVWF  xCD
06988:  MOVLB  0
0698A:  CALL   43B8
0698E:  MOVFF  3C9,3CC
06992:  MOVLW  1B
06994:  MOVLB  3
06996:  MOVWF  xCD
06998:  MOVLB  0
0699A:  CALL   4416
....................             SendDataDisplay(); 
0699E:  CALL   3442
....................             printf("bi.pic=%u",iconoPeque[7]); 
069A2:  MOVLW  5E
069A4:  MOVWF  FF6
069A6:  MOVLW  07
069A8:  MOVWF  FF7
069AA:  MOVLW  00
069AC:  MOVWF  FF8
069AE:  MOVLW  07
069B0:  MOVLB  3
069B2:  MOVWF  xCD
069B4:  MOVLB  0
069B6:  CALL   43B8
069BA:  MOVFF  395,3CC
069BE:  MOVLW  1B
069C0:  MOVLB  3
069C2:  MOVWF  xCD
069C4:  MOVLB  0
069C6:  CALL   4416
....................             SendDataDisplay(); 
069CA:  CALL   3442
....................             printf("bc.pic2=%u",iconoGrande[Opcion-1]); 
069CE:  MOVLW  01
069D0:  MOVLB  3
069D2:  SUBWF  x3D,W
069D4:  CLRF   03
069D6:  ADDLW  7F
069D8:  MOVWF  FE9
069DA:  MOVLW  03
069DC:  ADDWFC 03,W
069DE:  MOVWF  FEA
069E0:  MOVFF  FEF,3C9
069E4:  MOVLW  68
069E6:  MOVWF  FF6
069E8:  MOVLW  07
069EA:  MOVWF  FF7
069EC:  MOVLW  00
069EE:  MOVWF  FF8
069F0:  MOVLW  08
069F2:  MOVWF  xCD
069F4:  MOVLB  0
069F6:  CALL   43B8
069FA:  MOVFF  3C9,3CC
069FE:  MOVLW  1B
06A00:  MOVLB  3
06A02:  MOVWF  xCD
06A04:  MOVLB  0
06A06:  CALL   4416
....................             SendDataDisplay(); 
06A0A:  CALL   3442
....................             printf("bd.pic2=%u",iconoPeque[Opcion]); 
06A0E:  CLRF   03
06A10:  MOVLB  3
06A12:  MOVF   x3D,W
06A14:  ADDLW  8E
06A16:  MOVWF  FE9
06A18:  MOVLW  03
06A1A:  ADDWFC 03,W
06A1C:  MOVWF  FEA
06A1E:  MOVFF  FEF,3C9
06A22:  MOVLW  74
06A24:  MOVWF  FF6
06A26:  MOVLW  07
06A28:  MOVWF  FF7
06A2A:  MOVLW  00
06A2C:  MOVWF  FF8
06A2E:  MOVLW  08
06A30:  MOVWF  xCD
06A32:  MOVLB  0
06A34:  CALL   43B8
06A38:  MOVFF  3C9,3CC
06A3C:  MOVLW  1B
06A3E:  MOVLB  3
06A40:  MOVWF  xCD
06A42:  MOVLB  0
06A44:  CALL   4416
....................             SendDataDisplay(); 
06A48:  CALL   3442
....................             printf("bi.pic2=%u",iconoPeque[7]); 
06A4C:  MOVLW  80
06A4E:  MOVWF  FF6
06A50:  MOVLW  07
06A52:  MOVWF  FF7
06A54:  MOVLW  00
06A56:  MOVWF  FF8
06A58:  MOVLW  08
06A5A:  MOVLB  3
06A5C:  MOVWF  xCD
06A5E:  MOVLB  0
06A60:  CALL   43B8
06A64:  MOVFF  395,3CC
06A68:  MOVLW  1B
06A6A:  MOVLB  3
06A6C:  MOVWF  xCD
06A6E:  MOVLB  0
06A70:  CALL   4416
....................             SendDataDisplay(); 
06A74:  CALL   3442
....................             printf("textop.txt=\"%s\"",texto[Opcion-1]); 
06A78:  MOVLW  01
06A7A:  MOVLB  3
06A7C:  SUBWF  x3D,W
06A7E:  MULLW  14
06A80:  MOVF   FF3,W
06A82:  CLRF   03
06A84:  MOVWF  xC9
06A86:  MOVLW  8C
06A88:  MOVWF  FF6
06A8A:  MOVLW  07
06A8C:  MOVWF  FF7
06A8E:  MOVLW  00
06A90:  MOVWF  FF8
06A92:  MOVLW  0C
06A94:  MOVWF  xCD
06A96:  MOVLB  0
06A98:  CALL   43B8
06A9C:  MOVLW  50
06A9E:  MOVWF  FF6
06AA0:  MOVLW  01
06AA2:  MOVWF  FF7
06AA4:  MOVLW  00
06AA6:  MOVWF  FF8
06AA8:  MOVLB  3
06AAA:  MOVF   xC9,W
06AAC:  ADDWF  FF6,F
06AAE:  MOVLW  00
06AB0:  ADDWFC FF7,F
06AB2:  MOVLB  0
06AB4:  CALL   3410
06AB8:  MOVLW  22
06ABA:  BTFSS  F9E.4
06ABC:  BRA    6ABA
06ABE:  MOVWF  FAD
....................             SendDataDisplay(); 
06AC0:  CALL   3442
....................          }else if(Opcion==8){ 
06AC4:  BRA    6E3C
06AC6:  MOVLB  3
06AC8:  MOVF   x3D,W
06ACA:  SUBLW  08
06ACC:  BTFSS  FD8.2
06ACE:  BRA    6C76
....................             printf("bc.pic=%u",iconoGrande[Opcion-1]); 
06AD0:  MOVLW  01
06AD2:  SUBWF  x3D,W
06AD4:  CLRF   03
06AD6:  ADDLW  7F
06AD8:  MOVWF  FE9
06ADA:  MOVLW  03
06ADC:  ADDWFC 03,W
06ADE:  MOVWF  FEA
06AE0:  MOVFF  FEF,3C9
06AE4:  MOVLW  9C
06AE6:  MOVWF  FF6
06AE8:  MOVLW  07
06AEA:  MOVWF  FF7
06AEC:  MOVLW  00
06AEE:  MOVWF  FF8
06AF0:  MOVLW  07
06AF2:  MOVWF  xCD
06AF4:  MOVLB  0
06AF6:  CALL   43B8
06AFA:  MOVFF  3C9,3CC
06AFE:  MOVLW  1B
06B00:  MOVLB  3
06B02:  MOVWF  xCD
06B04:  MOVLB  0
06B06:  CALL   4416
....................             SendDataDisplay(); 
06B0A:  CALL   3442
....................             printf("bd.pic=%u",iconoPeque[0]); 
06B0E:  MOVLW  A6
06B10:  MOVWF  FF6
06B12:  MOVLW  07
06B14:  MOVWF  FF7
06B16:  MOVLW  00
06B18:  MOVWF  FF8
06B1A:  MOVLW  07
06B1C:  MOVLB  3
06B1E:  MOVWF  xCD
06B20:  MOVLB  0
06B22:  CALL   43B8
06B26:  MOVFF  38E,3CC
06B2A:  MOVLW  1B
06B2C:  MOVLB  3
06B2E:  MOVWF  xCD
06B30:  MOVLB  0
06B32:  CALL   4416
....................             SendDataDisplay(); 
06B36:  CALL   3442
....................             printf("bi.pic=%u",iconoPeque[Opcion-2]); 
06B3A:  MOVLW  02
06B3C:  MOVLB  3
06B3E:  SUBWF  x3D,W
06B40:  CLRF   03
06B42:  ADDLW  8E
06B44:  MOVWF  FE9
06B46:  MOVLW  03
06B48:  ADDWFC 03,W
06B4A:  MOVWF  FEA
06B4C:  MOVFF  FEF,3C9
06B50:  MOVLW  B0
06B52:  MOVWF  FF6
06B54:  MOVLW  07
06B56:  MOVWF  FF7
06B58:  MOVLW  00
06B5A:  MOVWF  FF8
06B5C:  MOVLW  07
06B5E:  MOVWF  xCD
06B60:  MOVLB  0
06B62:  CALL   43B8
06B66:  MOVFF  3C9,3CC
06B6A:  MOVLW  1B
06B6C:  MOVLB  3
06B6E:  MOVWF  xCD
06B70:  MOVLB  0
06B72:  CALL   4416
....................             SendDataDisplay(); 
06B76:  CALL   3442
....................             printf("bc.pic2=%u",iconoGrande[Opcion-1]); 
06B7A:  MOVLW  01
06B7C:  MOVLB  3
06B7E:  SUBWF  x3D,W
06B80:  CLRF   03
06B82:  ADDLW  7F
06B84:  MOVWF  FE9
06B86:  MOVLW  03
06B88:  ADDWFC 03,W
06B8A:  MOVWF  FEA
06B8C:  MOVFF  FEF,3C9
06B90:  MOVLW  BA
06B92:  MOVWF  FF6
06B94:  MOVLW  07
06B96:  MOVWF  FF7
06B98:  MOVLW  00
06B9A:  MOVWF  FF8
06B9C:  MOVLW  08
06B9E:  MOVWF  xCD
06BA0:  MOVLB  0
06BA2:  CALL   43B8
06BA6:  MOVFF  3C9,3CC
06BAA:  MOVLW  1B
06BAC:  MOVLB  3
06BAE:  MOVWF  xCD
06BB0:  MOVLB  0
06BB2:  CALL   4416
....................             SendDataDisplay(); 
06BB6:  CALL   3442
....................             printf("bd.pic2=%u",iconoPeque[0]); 
06BBA:  MOVLW  C6
06BBC:  MOVWF  FF6
06BBE:  MOVLW  07
06BC0:  MOVWF  FF7
06BC2:  MOVLW  00
06BC4:  MOVWF  FF8
06BC6:  MOVLW  08
06BC8:  MOVLB  3
06BCA:  MOVWF  xCD
06BCC:  MOVLB  0
06BCE:  CALL   43B8
06BD2:  MOVFF  38E,3CC
06BD6:  MOVLW  1B
06BD8:  MOVLB  3
06BDA:  MOVWF  xCD
06BDC:  MOVLB  0
06BDE:  CALL   4416
....................             SendDataDisplay(); 
06BE2:  CALL   3442
....................             printf("bi.pic2=%u",iconoPeque[Opcion-2]); 
06BE6:  MOVLW  02
06BE8:  MOVLB  3
06BEA:  SUBWF  x3D,W
06BEC:  CLRF   03
06BEE:  ADDLW  8E
06BF0:  MOVWF  FE9
06BF2:  MOVLW  03
06BF4:  ADDWFC 03,W
06BF6:  MOVWF  FEA
06BF8:  MOVFF  FEF,3C9
06BFC:  MOVLW  D2
06BFE:  MOVWF  FF6
06C00:  MOVLW  07
06C02:  MOVWF  FF7
06C04:  MOVLW  00
06C06:  MOVWF  FF8
06C08:  MOVLW  08
06C0A:  MOVWF  xCD
06C0C:  MOVLB  0
06C0E:  CALL   43B8
06C12:  MOVFF  3C9,3CC
06C16:  MOVLW  1B
06C18:  MOVLB  3
06C1A:  MOVWF  xCD
06C1C:  MOVLB  0
06C1E:  CALL   4416
....................             SendDataDisplay(); 
06C22:  CALL   3442
....................             printf("textop.txt=\"%s\"",texto[Opcion-1]); 
06C26:  MOVLW  01
06C28:  MOVLB  3
06C2A:  SUBWF  x3D,W
06C2C:  MULLW  14
06C2E:  MOVF   FF3,W
06C30:  CLRF   03
06C32:  MOVWF  xC9
06C34:  MOVLW  DE
06C36:  MOVWF  FF6
06C38:  MOVLW  07
06C3A:  MOVWF  FF7
06C3C:  MOVLW  00
06C3E:  MOVWF  FF8
06C40:  MOVLW  0C
06C42:  MOVWF  xCD
06C44:  MOVLB  0
06C46:  CALL   43B8
06C4A:  MOVLW  50
06C4C:  MOVWF  FF6
06C4E:  MOVLW  01
06C50:  MOVWF  FF7
06C52:  MOVLW  00
06C54:  MOVWF  FF8
06C56:  MOVLB  3
06C58:  MOVF   xC9,W
06C5A:  ADDWF  FF6,F
06C5C:  MOVLW  00
06C5E:  ADDWFC FF7,F
06C60:  MOVLB  0
06C62:  CALL   3410
06C66:  MOVLW  22
06C68:  BTFSS  F9E.4
06C6A:  BRA    6C68
06C6C:  MOVWF  FAD
....................             SendDataDisplay(); 
06C6E:  CALL   3442
....................          }else{ 
06C72:  BRA    6E3C
06C74:  MOVLB  3
....................             printf("bc.pic=%u",iconoGrande[Opcion-1]); 
06C76:  MOVLW  01
06C78:  SUBWF  x3D,W
06C7A:  CLRF   03
06C7C:  ADDLW  7F
06C7E:  MOVWF  FE9
06C80:  MOVLW  03
06C82:  ADDWFC 03,W
06C84:  MOVWF  FEA
06C86:  MOVFF  FEF,3C9
06C8A:  MOVLW  EE
06C8C:  MOVWF  FF6
06C8E:  MOVLW  07
06C90:  MOVWF  FF7
06C92:  MOVLW  00
06C94:  MOVWF  FF8
06C96:  MOVLW  07
06C98:  MOVWF  xCD
06C9A:  MOVLB  0
06C9C:  CALL   43B8
06CA0:  MOVFF  3C9,3CC
06CA4:  MOVLW  1B
06CA6:  MOVLB  3
06CA8:  MOVWF  xCD
06CAA:  MOVLB  0
06CAC:  CALL   4416
....................             SendDataDisplay(); 
06CB0:  CALL   3442
....................             printf("bd.pic=%u",iconoPeque[Opcion]); 
06CB4:  CLRF   03
06CB6:  MOVLB  3
06CB8:  MOVF   x3D,W
06CBA:  ADDLW  8E
06CBC:  MOVWF  FE9
06CBE:  MOVLW  03
06CC0:  ADDWFC 03,W
06CC2:  MOVWF  FEA
06CC4:  MOVFF  FEF,3C9
06CC8:  MOVLW  F8
06CCA:  MOVWF  FF6
06CCC:  MOVLW  07
06CCE:  MOVWF  FF7
06CD0:  MOVLW  00
06CD2:  MOVWF  FF8
06CD4:  MOVLW  07
06CD6:  MOVWF  xCD
06CD8:  MOVLB  0
06CDA:  CALL   43B8
06CDE:  MOVFF  3C9,3CC
06CE2:  MOVLW  1B
06CE4:  MOVLB  3
06CE6:  MOVWF  xCD
06CE8:  MOVLB  0
06CEA:  CALL   4416
....................             SendDataDisplay(); 
06CEE:  CALL   3442
....................             printf("bi.pic=%u",iconoPeque[Opcion-2]); 
06CF2:  MOVLW  02
06CF4:  MOVLB  3
06CF6:  SUBWF  x3D,W
06CF8:  CLRF   03
06CFA:  ADDLW  8E
06CFC:  MOVWF  FE9
06CFE:  MOVLW  03
06D00:  ADDWFC 03,W
06D02:  MOVWF  FEA
06D04:  MOVFF  FEF,3C9
06D08:  MOVLW  02
06D0A:  MOVWF  FF6
06D0C:  MOVLW  08
06D0E:  MOVWF  FF7
06D10:  MOVLW  00
06D12:  MOVWF  FF8
06D14:  MOVLW  07
06D16:  MOVWF  xCD
06D18:  MOVLB  0
06D1A:  CALL   43B8
06D1E:  MOVFF  3C9,3CC
06D22:  MOVLW  1B
06D24:  MOVLB  3
06D26:  MOVWF  xCD
06D28:  MOVLB  0
06D2A:  CALL   4416
....................             SendDataDisplay(); 
06D2E:  CALL   3442
....................             printf("bc.pic2=%u",iconoGrande[Opcion-1]); 
06D32:  MOVLW  01
06D34:  MOVLB  3
06D36:  SUBWF  x3D,W
06D38:  CLRF   03
06D3A:  ADDLW  7F
06D3C:  MOVWF  FE9
06D3E:  MOVLW  03
06D40:  ADDWFC 03,W
06D42:  MOVWF  FEA
06D44:  MOVFF  FEF,3C9
06D48:  MOVLW  0C
06D4A:  MOVWF  FF6
06D4C:  MOVLW  08
06D4E:  MOVWF  FF7
06D50:  MOVLW  00
06D52:  MOVWF  FF8
06D54:  MOVLW  08
06D56:  MOVWF  xCD
06D58:  MOVLB  0
06D5A:  CALL   43B8
06D5E:  MOVFF  3C9,3CC
06D62:  MOVLW  1B
06D64:  MOVLB  3
06D66:  MOVWF  xCD
06D68:  MOVLB  0
06D6A:  CALL   4416
....................             SendDataDisplay(); 
06D6E:  CALL   3442
....................             printf("bd.pic2=%u",iconoPeque[Opcion]); 
06D72:  CLRF   03
06D74:  MOVLB  3
06D76:  MOVF   x3D,W
06D78:  ADDLW  8E
06D7A:  MOVWF  FE9
06D7C:  MOVLW  03
06D7E:  ADDWFC 03,W
06D80:  MOVWF  FEA
06D82:  MOVFF  FEF,3C9
06D86:  MOVLW  18
06D88:  MOVWF  FF6
06D8A:  MOVLW  08
06D8C:  MOVWF  FF7
06D8E:  MOVLW  00
06D90:  MOVWF  FF8
06D92:  MOVLW  08
06D94:  MOVWF  xCD
06D96:  MOVLB  0
06D98:  CALL   43B8
06D9C:  MOVFF  3C9,3CC
06DA0:  MOVLW  1B
06DA2:  MOVLB  3
06DA4:  MOVWF  xCD
06DA6:  MOVLB  0
06DA8:  CALL   4416
....................             SendDataDisplay(); 
06DAC:  CALL   3442
....................             printf("bi.pic2=%u",iconoPeque[Opcion-2]); 
06DB0:  MOVLW  02
06DB2:  MOVLB  3
06DB4:  SUBWF  x3D,W
06DB6:  CLRF   03
06DB8:  ADDLW  8E
06DBA:  MOVWF  FE9
06DBC:  MOVLW  03
06DBE:  ADDWFC 03,W
06DC0:  MOVWF  FEA
06DC2:  MOVFF  FEF,3C9
06DC6:  MOVLW  24
06DC8:  MOVWF  FF6
06DCA:  MOVLW  08
06DCC:  MOVWF  FF7
06DCE:  MOVLW  00
06DD0:  MOVWF  FF8
06DD2:  MOVLW  08
06DD4:  MOVWF  xCD
06DD6:  MOVLB  0
06DD8:  CALL   43B8
06DDC:  MOVFF  3C9,3CC
06DE0:  MOVLW  1B
06DE2:  MOVLB  3
06DE4:  MOVWF  xCD
06DE6:  MOVLB  0
06DE8:  CALL   4416
....................             SendDataDisplay(); 
06DEC:  CALL   3442
....................             printf("textop.txt=\"%s\"",texto[Opcion-1]); 
06DF0:  MOVLW  01
06DF2:  MOVLB  3
06DF4:  SUBWF  x3D,W
06DF6:  MULLW  14
06DF8:  MOVF   FF3,W
06DFA:  CLRF   03
06DFC:  MOVWF  xC9
06DFE:  MOVLW  30
06E00:  MOVWF  FF6
06E02:  MOVLW  08
06E04:  MOVWF  FF7
06E06:  MOVLW  00
06E08:  MOVWF  FF8
06E0A:  MOVLW  0C
06E0C:  MOVWF  xCD
06E0E:  MOVLB  0
06E10:  CALL   43B8
06E14:  MOVLW  50
06E16:  MOVWF  FF6
06E18:  MOVLW  01
06E1A:  MOVWF  FF7
06E1C:  MOVLW  00
06E1E:  MOVWF  FF8
06E20:  MOVLB  3
06E22:  MOVF   xC9,W
06E24:  ADDWF  FF6,F
06E26:  MOVLW  00
06E28:  ADDWFC FF7,F
06E2A:  MOVLB  0
06E2C:  CALL   3410
06E30:  MOVLW  22
06E32:  BTFSS  F9E.4
06E34:  BRA    6E32
06E36:  MOVWF  FAD
....................             SendDataDisplay(); 
06E38:  CALL   3442
....................          } 
....................           
....................          printf("ttitulo.txt=\"SELECCIONE SU CICLO\""); 
06E3C:  MOVLW  40
06E3E:  MOVWF  FF6
06E40:  MOVLW  08
06E42:  MOVWF  FF7
06E44:  MOVLW  00
06E46:  MOVWF  FF8
06E48:  CALL   3410
....................          SendDataDisplay(); 
06E4C:  CALL   3442
....................              
....................          if(RX_Buffer[4]==0x0d && !Op){//Tecla Derecha Oprimida 
06E50:  MOVF   34,W
06E52:  SUBLW  0D
06E54:  BNZ   6E64
06E56:  BTFSC  xA1.6
06E58:  BRA    6E64
....................             Opcion++; 
06E5A:  MOVLB  3
06E5C:  INCF   x3D,F
....................             RX_Buffer[4]=0x00; 
06E5E:  CLRF   34
....................             Op=ON; 
06E60:  MOVLB  0
06E62:  BSF    xA1.6
....................             //BorraBuffer(); 
....................          } 
....................           
....................          if(RX_Buffer[4]==0x0c && Op){//Tecla Derecha Oprimida 
06E64:  MOVF   34,W
06E66:  SUBLW  0C
06E68:  BNZ   6E78
06E6A:  BTFSS  xA1.6
06E6C:  BRA    6E78
....................             Opcion++; 
06E6E:  MOVLB  3
06E70:  INCF   x3D,F
....................             RX_Buffer[4]=0x00; 
06E72:  CLRF   34
....................             Op=OFF; 
06E74:  MOVLB  0
06E76:  BCF    xA1.6
....................             //BorraBuffer(); 
....................          } 
....................           
....................          if(RX_Buffer[4]==0x0e && !Op2){//Tecla Izquierda Oprimida 
06E78:  MOVF   34,W
06E7A:  SUBLW  0E
06E7C:  BNZ   6E8C
06E7E:  BTFSC  xA1.7
06E80:  BRA    6E8C
....................             Opcion--; 
06E82:  MOVLB  3
06E84:  DECF   x3D,F
....................             RX_Buffer[4]=0x00; 
06E86:  CLRF   34
....................             Op2=ON; 
06E88:  MOVLB  0
06E8A:  BSF    xA1.7
....................             //BorraBuffer(); 
....................          } 
....................           
....................          if(RX_Buffer[4]==0x0f && Op2){//Tecla Izquierda Oprimida 
06E8C:  MOVF   34,W
06E8E:  SUBLW  0F
06E90:  BNZ   6EA0
06E92:  BTFSS  xA1.7
06E94:  BRA    6EA0
....................             Opcion--; 
06E96:  MOVLB  3
06E98:  DECF   x3D,F
....................             RX_Buffer[4]=0x00; 
06E9A:  CLRF   34
....................             Op2=OFF; 
06E9C:  MOVLB  0
06E9E:  BCF    xA1.7
06EA0:  MOVLB  2
....................             //BorraBuffer(); 
....................          } 
....................           
....................       } 
....................          if(RIGHT && LEFT){ 
06EA2:  BSF    F93.2
06EA4:  BTFSC  F81.2
06EA6:  BRA    6EF4
06EA8:  BSF    F93.3
06EAA:  BTFSC  F81.3
06EAC:  BRA    6EF4
....................             delay_ms(20); 
06EAE:  MOVLW  14
06EB0:  MOVLB  3
06EB2:  MOVWF  xD4
06EB4:  MOVLB  0
06EB6:  CALL   16D0
....................             if(RIGHT && LEFT){ 
06EBA:  BSF    F93.2
06EBC:  BTFSC  F81.2
06EBE:  BRA    6EF2
06EC0:  BSF    F93.3
06EC2:  BTFSC  F81.3
06EC4:  BRA    6EF2
....................                printf("page Clave"); 
06EC6:  MOVLW  62
06EC8:  MOVWF  FF6
06ECA:  MOVLW  08
06ECC:  MOVWF  FF7
06ECE:  MOVLW  00
06ED0:  MOVWF  FF8
06ED2:  CALL   3410
....................                SendDataDisplay();  
06ED6:  CALL   3442
....................                Op=OFF; 
06EDA:  BCF    xA1.6
....................                Op2=OFF; 
06EDC:  BCF    xA1.7
....................                MenuAnt=Menu; 
06EDE:  MOVFF  335,336
....................                TipoClave=1; 
06EE2:  MOVLW  01
06EE4:  MOVLB  2
06EE6:  MOVWF  xD4
....................                RX_Buffer[3]=0x00; 
06EE8:  CLRF   33
....................                RX_Buffer2[3]=0x00; 
06EEA:  CLRF   3E
....................                Opcion=0; 
06EEC:  MOVLB  3
06EEE:  CLRF   x3D
06EF0:  MOVLB  0
06EF2:  MOVLB  2
....................             } 
....................          } 
....................    } 
.................... //_--------------------------------------------------------------------------------------------------------------------------------------------------------        
....................  
.................... //_-------------------------------------------------------------------------------------------------------------------------------------------------------- 
....................     if(Menu==2){ //Menu de Tiempo Esterilizacion      
06EF4:  MOVLB  3
06EF6:  MOVF   x35,W
06EF8:  SUBLW  02
06EFA:  BTFSS  FD8.2
06EFC:  GOTO   7856
....................       printf("fecha.txt=\"Fecha:%02u/%02u/20%02u    Hora: %02u:%02u\"",Dia,Mes,Year,Hora,Minuto); 
06F00:  MOVLW  6E
06F02:  MOVWF  FF6
06F04:  MOVLW  08
06F06:  MOVWF  FF7
06F08:  MOVLW  00
06F0A:  MOVWF  FF8
06F0C:  MOVLW  11
06F0E:  MOVWF  xCD
06F10:  MOVLB  0
06F12:  CALL   43B8
06F16:  MOVFF  36D,3CC
06F1A:  MOVLW  01
06F1C:  MOVLB  3
06F1E:  MOVWF  xCD
06F20:  MOVLB  0
06F22:  CALL   4416
06F26:  MOVLW  2F
06F28:  BTFSS  F9E.4
06F2A:  BRA    6F28
06F2C:  MOVWF  FAD
06F2E:  MOVFF  36C,3CC
06F32:  MOVLW  01
06F34:  MOVLB  3
06F36:  MOVWF  xCD
06F38:  MOVLB  0
06F3A:  CALL   4416
06F3E:  MOVLW  2F
06F40:  BTFSS  F9E.4
06F42:  BRA    6F40
06F44:  MOVWF  FAD
06F46:  MOVLW  32
06F48:  BTFSS  F9E.4
06F4A:  BRA    6F48
06F4C:  MOVWF  FAD
06F4E:  MOVLW  30
06F50:  BTFSS  F9E.4
06F52:  BRA    6F50
06F54:  MOVWF  FAD
06F56:  MOVFF  36B,3CC
06F5A:  MOVLW  01
06F5C:  MOVLB  3
06F5E:  MOVWF  xCD
06F60:  MOVLB  0
06F62:  CALL   4416
06F66:  MOVLW  8F
06F68:  MOVWF  FF6
06F6A:  MOVLW  08
06F6C:  MOVWF  FF7
06F6E:  MOVLW  00
06F70:  MOVWF  FF8
06F72:  MOVLW  0A
06F74:  MOVLB  3
06F76:  MOVWF  xCD
06F78:  MOVLB  0
06F7A:  CALL   43B8
06F7E:  MOVFF  36E,3CC
06F82:  MOVLW  01
06F84:  MOVLB  3
06F86:  MOVWF  xCD
06F88:  MOVLB  0
06F8A:  CALL   4416
06F8E:  MOVLW  3A
06F90:  BTFSS  F9E.4
06F92:  BRA    6F90
06F94:  MOVWF  FAD
06F96:  MOVFF  36F,3CC
06F9A:  MOVLW  01
06F9C:  MOVLB  3
06F9E:  MOVWF  xCD
06FA0:  MOVLB  0
06FA2:  CALL   4416
06FA6:  MOVLW  22
06FA8:  BTFSS  F9E.4
06FAA:  BRA    6FA8
06FAC:  MOVWF  FAD
....................       SendDataDisplay(); 
06FAE:  CALL   3442
....................          if(CiclosPersonalizados[CicloLibre-1].Segundoest>59) 
06FB2:  MOVLW  01
06FB4:  MOVLB  3
06FB6:  SUBWF  x29,W
06FB8:  MULLW  0B
06FBA:  MOVF   FF3,W
06FBC:  CLRF   xCA
06FBE:  MOVWF  xC9
06FC0:  MOVLW  03
06FC2:  ADDWF  xC9,W
06FC4:  MOVWF  01
06FC6:  MOVLW  00
06FC8:  ADDWFC xCA,W
06FCA:  MOVWF  03
06FCC:  MOVF   01,W
06FCE:  ADDLW  9D
06FD0:  MOVWF  FE9
06FD2:  MOVLW  03
06FD4:  ADDWFC 03,W
06FD6:  MOVWF  FEA
06FD8:  MOVF   FEF,W
06FDA:  SUBLW  3B
06FDC:  BC    7004
....................             CiclosPersonalizados[CicloLibre-1].Segundoest=0; 
06FDE:  MOVLW  01
06FE0:  SUBWF  x29,W
06FE2:  MULLW  0B
06FE4:  MOVF   FF3,W
06FE6:  CLRF   xCA
06FE8:  MOVWF  xC9
06FEA:  MOVLW  03
06FEC:  ADDWF  xC9,W
06FEE:  MOVWF  01
06FF0:  MOVLW  00
06FF2:  ADDWFC xCA,W
06FF4:  MOVWF  03
06FF6:  MOVF   01,W
06FF8:  ADDLW  9D
06FFA:  MOVWF  FE9
06FFC:  MOVLW  03
06FFE:  ADDWFC 03,W
07000:  MOVWF  FEA
07002:  CLRF   FEF
....................          if(CiclosPersonalizados[CicloLibre-1].Minutoeste>999) 
07004:  MOVLW  01
07006:  SUBWF  x29,W
07008:  MULLW  0B
0700A:  MOVF   FF3,W
0700C:  CLRF   xCA
0700E:  MOVWF  xC9
07010:  MOVLW  09
07012:  ADDWF  xC9,W
07014:  MOVWF  01
07016:  MOVLW  00
07018:  ADDWFC xCA,W
0701A:  MOVWF  03
0701C:  MOVF   01,W
0701E:  ADDLW  9D
07020:  MOVWF  FE9
07022:  MOVLW  03
07024:  ADDWFC 03,W
07026:  MOVWF  FEA
07028:  MOVFF  FEC,3CA
0702C:  MOVF   FED,F
0702E:  MOVFF  FEF,3C9
07032:  MOVF   xCA,W
07034:  SUBLW  02
07036:  BC    706E
07038:  XORLW  FF
0703A:  BNZ   7042
0703C:  MOVF   xC9,W
0703E:  SUBLW  E7
07040:  BC    706E
....................             CiclosPersonalizados[CicloLibre-1].Minutoeste=1; 
07042:  MOVLW  01
07044:  SUBWF  x29,W
07046:  MULLW  0B
07048:  MOVF   FF3,W
0704A:  CLRF   xCA
0704C:  MOVWF  xC9
0704E:  MOVLW  09
07050:  ADDWF  xC9,W
07052:  MOVWF  01
07054:  MOVLW  00
07056:  ADDWFC xCA,W
07058:  MOVWF  03
0705A:  MOVF   01,W
0705C:  ADDLW  9D
0705E:  MOVWF  FE9
07060:  MOVLW  03
07062:  ADDWFC 03,W
07064:  MOVWF  FEA
07066:  CLRF   FEC
07068:  MOVF   FED,F
0706A:  MOVLW  01
0706C:  MOVWF  FEF
....................          if(CiclosPersonalizados[CicloLibre-1].Minutoeste<1) 
0706E:  MOVLW  01
07070:  SUBWF  x29,W
07072:  MULLW  0B
07074:  MOVF   FF3,W
07076:  CLRF   xCA
07078:  MOVWF  xC9
0707A:  MOVLW  09
0707C:  ADDWF  xC9,W
0707E:  MOVWF  01
07080:  MOVLW  00
07082:  ADDWFC xCA,W
07084:  MOVWF  03
07086:  MOVF   01,W
07088:  ADDLW  9D
0708A:  MOVWF  FE9
0708C:  MOVLW  03
0708E:  ADDWFC 03,W
07090:  MOVWF  FEA
07092:  MOVFF  FEC,3CA
07096:  MOVF   FED,F
07098:  MOVFF  FEF,3C9
0709C:  MOVF   xC9,F
0709E:  BNZ   70D2
070A0:  MOVF   xCA,F
070A2:  BNZ   70D2
....................             CiclosPersonalizados[CicloLibre-1].Minutoeste=999; 
070A4:  MOVLW  01
070A6:  SUBWF  x29,W
070A8:  MULLW  0B
070AA:  MOVF   FF3,W
070AC:  CLRF   xCA
070AE:  MOVWF  xC9
070B0:  MOVLW  09
070B2:  ADDWF  xC9,W
070B4:  MOVWF  01
070B6:  MOVLW  00
070B8:  ADDWFC xCA,W
070BA:  MOVWF  03
070BC:  MOVF   01,W
070BE:  ADDLW  9D
070C0:  MOVWF  FE9
070C2:  MOVLW  03
070C4:  ADDWFC 03,W
070C6:  MOVWF  FEA
070C8:  MOVLW  03
070CA:  MOVWF  FEC
070CC:  MOVF   FED,F
070CE:  MOVLW  E7
070D0:  MOVWF  FEF
....................              
....................          if(RX_Buffer[4]==0x0a){//Selecciono Minutos 
070D2:  MOVF   34,W
070D4:  SUBLW  0A
070D6:  BNZ   70E0
....................             Minutos=ON; 
070D8:  MOVLB  0
070DA:  BSF    xA2.0
....................             Segundos=OFF; 
070DC:  BCF    xA2.1
070DE:  MOVLB  3
....................          } 
....................           
....................          if(RX_Buffer[4]==0x0b){//Selecciono Segundos 
070E0:  MOVF   34,W
070E2:  SUBLW  0B
070E4:  BNZ   70EE
....................             Segundos=ON; 
070E6:  MOVLB  0
070E8:  BSF    xA2.1
....................             Minutos=OFF; 
070EA:  BCF    xA2.0
070EC:  MOVLB  3
....................          } 
....................           
....................          if(RX_Buffer[4]==0x11 || LEFT){//Selecciono Regresar 
070EE:  MOVF   34,W
070F0:  SUBLW  11
070F2:  BZ    70FA
070F4:  BSF    F93.3
070F6:  BTFSC  F81.3
070F8:  BRA    7368
....................             delay_ms(200); 
070FA:  MOVLW  C8
070FC:  MOVWF  xD4
070FE:  MOVLB  0
07100:  CALL   16D0
....................             if(RX_Buffer[4]==0x11 || LEFT){ 
07104:  MOVF   34,W
07106:  SUBLW  11
07108:  BZ    7110
0710A:  BSF    F93.3
0710C:  BTFSC  F81.3
0710E:  BRA    7366
....................                Segundos=OFF; 
07110:  BCF    xA2.1
....................                Minutos=OFF; 
07112:  BCF    xA2.0
....................                printf("page CicloPersona"); 
07114:  MOVLW  A4
07116:  MOVWF  FF6
07118:  MOVLW  08
0711A:  MOVWF  FF7
0711C:  MOVLW  00
0711E:  MOVWF  FF8
07120:  CALL   3410
....................                SendDataDisplay();   
07124:  CALL   3442
....................                PantallaPrincipal=1; 
07128:  MOVLW  01
0712A:  MOVLB  2
0712C:  MOVWF  xD3
....................                Op=OFF; 
0712E:  MOVLB  0
07130:  BCF    xA1.6
....................                Op2=OFF; 
07132:  BCF    xA1.7
....................                if(!GuardaEEPROM){ 
07134:  BTFSC  xA2.2
07136:  BRA    7366
....................                   CiclosPersonalizados[CicloLibre-1].MinutoestL=make8(CiclosPersonalizados[CicloLibre-1].Minutoeste,0); 
07138:  MOVLW  01
0713A:  MOVLB  3
0713C:  SUBWF  x29,W
0713E:  MULLW  0B
07140:  MOVF   FF3,W
07142:  CLRF   xCA
07144:  MOVWF  xC9
07146:  MOVLW  02
07148:  ADDWF  xC9,W
0714A:  MOVWF  01
0714C:  MOVLW  00
0714E:  ADDWFC xCA,W
07150:  MOVWF  03
07152:  MOVF   01,W
07154:  ADDLW  9D
07156:  MOVWF  01
07158:  MOVLW  03
0715A:  ADDWFC 03,F
0715C:  MOVFF  01,3C9
07160:  MOVFF  03,3CA
07164:  MOVLW  01
07166:  SUBWF  x29,W
07168:  MULLW  0B
0716A:  MOVF   FF3,W
0716C:  CLRF   xCC
0716E:  MOVWF  xCB
07170:  MOVLW  09
07172:  ADDWF  xCB,W
07174:  MOVWF  01
07176:  MOVLW  00
07178:  ADDWFC xCC,W
0717A:  MOVWF  03
0717C:  MOVF   01,W
0717E:  ADDLW  9D
07180:  MOVWF  FE9
07182:  MOVLW  03
07184:  ADDWFC 03,W
07186:  MOVWF  FEA
07188:  MOVFF  FEC,3CC
0718C:  MOVF   FED,F
0718E:  MOVFF  FEF,3CB
07192:  MOVFF  3CA,FEA
07196:  MOVFF  3C9,FE9
0719A:  MOVFF  3CB,FEF
....................                   CiclosPersonalizados[CicloLibre-1].MinutoestH=make8(CiclosPersonalizados[CicloLibre-1].Minutoeste,1); 
0719E:  MOVLW  01
071A0:  SUBWF  x29,W
071A2:  MULLW  0B
071A4:  MOVF   FF3,W
071A6:  CLRF   xCA
071A8:  MOVWF  xC9
071AA:  MOVLW  01
071AC:  ADDWF  xC9,W
071AE:  MOVWF  01
071B0:  MOVLW  00
071B2:  ADDWFC xCA,W
071B4:  MOVWF  03
071B6:  MOVF   01,W
071B8:  ADDLW  9D
071BA:  MOVWF  01
071BC:  MOVLW  03
071BE:  ADDWFC 03,F
071C0:  MOVFF  01,3C9
071C4:  MOVFF  03,3CA
071C8:  MOVLW  01
071CA:  SUBWF  x29,W
071CC:  MULLW  0B
071CE:  MOVF   FF3,W
071D0:  CLRF   xCC
071D2:  MOVWF  xCB
071D4:  MOVLW  09
071D6:  ADDWF  xCB,W
071D8:  MOVWF  01
071DA:  MOVLW  00
071DC:  ADDWFC xCC,W
071DE:  MOVWF  03
071E0:  MOVF   01,W
071E2:  ADDLW  9D
071E4:  MOVWF  FE9
071E6:  MOVLW  03
071E8:  ADDWFC 03,W
071EA:  MOVWF  FEA
071EC:  MOVFF  FEC,3CC
071F0:  MOVF   FED,F
071F2:  MOVFF  FEF,3CB
071F6:  MOVFF  3CA,FEA
071FA:  MOVFF  3C9,FE9
071FE:  MOVFF  3CC,FEF
....................                   write_eeprom(101+((CicloLibre-1)*8),CiclosPersonalizados[CicloLibre-1].MinutoestH); 
07202:  MOVLW  01
07204:  SUBWF  x29,W
07206:  MULLW  08
07208:  MOVF   FF3,W
0720A:  ADDLW  65
0720C:  MOVWF  xC9
0720E:  MOVLW  01
07210:  SUBWF  x29,W
07212:  MULLW  0B
07214:  MOVF   FF3,W
07216:  CLRF   xCB
07218:  MOVWF  xCA
0721A:  MOVLW  01
0721C:  ADDWF  xCA,W
0721E:  MOVWF  01
07220:  MOVLW  00
07222:  ADDWFC xCB,W
07224:  MOVWF  03
07226:  MOVF   01,W
07228:  ADDLW  9D
0722A:  MOVWF  FE9
0722C:  MOVLW  03
0722E:  ADDWFC 03,W
07230:  MOVWF  FEA
07232:  MOVFF  FEF,3CA
07236:  CLRF   FAA
07238:  MOVFF  3C9,FA9
0723C:  MOVFF  3CA,FA8
07240:  BCF    FA6.6
07242:  BCF    FA6.7
07244:  BSF    FA6.2
07246:  MOVF   FF2,W
07248:  MOVWF  00
0724A:  BCF    FF2.6
0724C:  BCF    FF2.7
0724E:  MOVLB  F
07250:  MOVLW  55
07252:  MOVWF  FA7
07254:  MOVLW  AA
07256:  MOVWF  FA7
07258:  BSF    FA6.1
0725A:  BTFSC  FA6.1
0725C:  BRA    725A
0725E:  BCF    FA6.2
07260:  MOVF   00,W
07262:  IORWF  FF2,F
....................                   delay_ms(10); 
07264:  MOVLW  0A
07266:  MOVLB  3
07268:  MOVWF  xD4
0726A:  MOVLB  0
0726C:  CALL   16D0
....................                   write_eeprom(102+((CicloLibre-1)*8),CiclosPersonalizados[CicloLibre-1].MinutoestL); 
07270:  MOVLW  01
07272:  MOVLB  3
07274:  SUBWF  x29,W
07276:  MULLW  08
07278:  MOVF   FF3,W
0727A:  ADDLW  66
0727C:  MOVWF  xC9
0727E:  MOVLW  01
07280:  SUBWF  x29,W
07282:  MULLW  0B
07284:  MOVF   FF3,W
07286:  CLRF   xCB
07288:  MOVWF  xCA
0728A:  MOVLW  02
0728C:  ADDWF  xCA,W
0728E:  MOVWF  01
07290:  MOVLW  00
07292:  ADDWFC xCB,W
07294:  MOVWF  03
07296:  MOVF   01,W
07298:  ADDLW  9D
0729A:  MOVWF  FE9
0729C:  MOVLW  03
0729E:  ADDWFC 03,W
072A0:  MOVWF  FEA
072A2:  MOVFF  FEF,3CA
072A6:  CLRF   FAA
072A8:  MOVFF  3C9,FA9
072AC:  MOVFF  3CA,FA8
072B0:  BCF    FA6.6
072B2:  BCF    FA6.7
072B4:  BSF    FA6.2
072B6:  MOVF   FF2,W
072B8:  MOVWF  00
072BA:  BCF    FF2.6
072BC:  BCF    FF2.7
072BE:  MOVLB  F
072C0:  MOVLW  55
072C2:  MOVWF  FA7
072C4:  MOVLW  AA
072C6:  MOVWF  FA7
072C8:  BSF    FA6.1
072CA:  BTFSC  FA6.1
072CC:  BRA    72CA
072CE:  BCF    FA6.2
072D0:  MOVF   00,W
072D2:  IORWF  FF2,F
....................                   delay_ms(10); 
072D4:  MOVLW  0A
072D6:  MOVLB  3
072D8:  MOVWF  xD4
072DA:  MOVLB  0
072DC:  CALL   16D0
....................                   write_eeprom(103+((CicloLibre-1)*8),CiclosPersonalizados[CicloLibre-1].Segundoest); 
072E0:  MOVLW  01
072E2:  MOVLB  3
072E4:  SUBWF  x29,W
072E6:  MULLW  08
072E8:  MOVF   FF3,W
072EA:  ADDLW  67
072EC:  MOVWF  xC9
072EE:  MOVLW  01
072F0:  SUBWF  x29,W
072F2:  MULLW  0B
072F4:  MOVF   FF3,W
072F6:  CLRF   xCB
072F8:  MOVWF  xCA
072FA:  MOVLW  03
072FC:  ADDWF  xCA,W
072FE:  MOVWF  01
07300:  MOVLW  00
07302:  ADDWFC xCB,W
07304:  MOVWF  03
07306:  MOVF   01,W
07308:  ADDLW  9D
0730A:  MOVWF  FE9
0730C:  MOVLW  03
0730E:  ADDWFC 03,W
07310:  MOVWF  FEA
07312:  MOVFF  FEF,3CA
07316:  CLRF   FAA
07318:  MOVFF  3C9,FA9
0731C:  MOVFF  3CA,FA8
07320:  BCF    FA6.6
07322:  BCF    FA6.7
07324:  BSF    FA6.2
07326:  MOVF   FF2,W
07328:  MOVWF  00
0732A:  BCF    FF2.6
0732C:  BCF    FF2.7
0732E:  MOVLB  F
07330:  MOVLW  55
07332:  MOVWF  FA7
07334:  MOVLW  AA
07336:  MOVWF  FA7
07338:  BSF    FA6.1
0733A:  BTFSC  FA6.1
0733C:  BRA    733A
0733E:  BCF    FA6.2
07340:  MOVF   00,W
07342:  IORWF  FF2,F
....................                   delay_ms(10); 
07344:  MOVLW  0A
07346:  MOVLB  3
07348:  MOVWF  xD4
0734A:  MOVLB  0
0734C:  CALL   16D0
....................                   Testerilizacion[0]=Testerilizacionp[0]; 
07350:  MOVFF  B5,B0
....................                   Testerilizacion[1]=Testerilizacionp[1]; 
07354:  MOVFF  B6,B1
....................                   Testerilizacion[2]=Testerilizacionp[2]; 
07358:  MOVFF  B7,B2
....................                   Testerilizacion[3]=Testerilizacionp[3]; 
0735C:  MOVFF  B8,B3
....................                   Testerilizacion[4]=Testerilizacionp[4]; 
07360:  MOVFF  B9,B4
....................                   GuardaEEPROM=ON; 
07364:  BSF    xA2.2
07366:  MOVLB  3
....................                } 
....................             } 
....................          } 
....................           
....................          if(RIGHT){ 
07368:  BSF    F93.2
0736A:  BTFSC  F81.2
0736C:  BRA    73E2
....................             delay_ms(200); 
0736E:  MOVLW  C8
07370:  MOVWF  xD4
07372:  MOVLB  0
07374:  CALL   16D0
....................             if(RIGHT){ 
07378:  BSF    F93.2
0737A:  BTFSC  F81.2
0737C:  BRA    73E0
....................                if(!Segundos){ 
0737E:  BTFSC  xA2.1
07380:  BRA    73B0
....................                   Segundos=ON; 
07382:  BSF    xA2.1
....................                   Minutos=OFF; 
07384:  BCF    xA2.0
....................                   printf("tsecest.pco=65535"); 
07386:  MOVLW  B6
07388:  MOVWF  FF6
0738A:  MOVLW  08
0738C:  MOVWF  FF7
0738E:  MOVLW  00
07390:  MOVWF  FF8
07392:  CALL   3410
....................                   SendDataDisplay();   
07396:  CALL   3442
....................                   printf("tminest.pco=0"); 
0739A:  MOVLW  C8
0739C:  MOVWF  FF6
0739E:  MOVLW  08
073A0:  MOVWF  FF7
073A2:  MOVLW  00
073A4:  MOVWF  FF8
073A6:  CALL   3410
....................                   SendDataDisplay();   
073AA:  CALL   3442
....................                }else if(!Minutos){ 
073AE:  BRA    73E0
073B0:  BTFSC  xA2.0
073B2:  BRA    73E0
....................                   Segundos=OFF; 
073B4:  BCF    xA2.1
....................                   Minutos=ON; 
073B6:  BSF    xA2.0
....................                   printf("tsecest.pco=0"); 
073B8:  MOVLW  D6
073BA:  MOVWF  FF6
073BC:  MOVLW  08
073BE:  MOVWF  FF7
073C0:  MOVLW  00
073C2:  MOVWF  FF8
073C4:  CALL   3410
....................                   SendDataDisplay();   
073C8:  CALL   3442
....................                   printf("tminest.pco=65535"); 
073CC:  MOVLW  E4
073CE:  MOVWF  FF6
073D0:  MOVLW  08
073D2:  MOVWF  FF7
073D4:  MOVLW  00
073D6:  MOVWF  FF8
073D8:  CALL   3410
....................                   SendDataDisplay();   
073DC:  CALL   3442
073E0:  MOVLB  3
....................                } 
....................             } 
....................          } 
....................           
....................          if(UP){ 
073E2:  BSF    F93.0
073E4:  BTFSC  F81.0
073E6:  BRA    7458
....................             delay_ms(200); 
073E8:  MOVLW  C8
073EA:  MOVWF  xD4
073EC:  MOVLB  0
073EE:  CALL   16D0
....................             if(UP){ 
073F2:  BSF    F93.0
073F4:  BTFSC  F81.0
073F6:  BRA    745A
....................                if(Segundos){ 
073F8:  BTFSS  xA2.1
073FA:  BRA    7426
....................                   CiclosPersonalizados[CicloLibre-1].Segundoest++; 
073FC:  MOVLW  01
073FE:  MOVLB  3
07400:  SUBWF  x29,W
07402:  MULLW  0B
07404:  MOVF   FF3,W
07406:  CLRF   xCA
07408:  MOVWF  xC9
0740A:  MOVLW  03
0740C:  ADDWF  xC9,W
0740E:  MOVWF  01
07410:  MOVLW  00
07412:  ADDWFC xCA,W
07414:  MOVWF  03
07416:  MOVF   01,W
07418:  ADDLW  9D
0741A:  MOVWF  FE9
0741C:  MOVLW  03
0741E:  ADDWFC 03,W
07420:  MOVWF  FEA
07422:  INCF   FEF,F
07424:  MOVLB  0
....................                } 
....................                if(Minutos){ 
07426:  BTFSS  xA2.0
07428:  BRA    745A
....................                   CiclosPersonalizados[CicloLibre-1].Minutoeste++; 
0742A:  MOVLW  01
0742C:  MOVLB  3
0742E:  SUBWF  x29,W
07430:  MULLW  0B
07432:  MOVF   FF3,W
07434:  CLRF   xCA
07436:  MOVWF  xC9
07438:  MOVLW  09
0743A:  ADDWF  xC9,W
0743C:  MOVWF  01
0743E:  MOVLW  00
07440:  ADDWFC xCA,W
07442:  MOVWF  03
07444:  MOVF   01,W
07446:  ADDLW  9D
07448:  MOVWF  FE9
0744A:  MOVLW  03
0744C:  ADDWFC 03,W
0744E:  MOVWF  FEA
07450:  MOVLW  01
07452:  ADDWF  FEE,F
07454:  BNC   7458
07456:  INCF   FEF,F
07458:  MOVLB  0
....................                }     
....................             } 
....................          } 
....................           
....................          if(DOWN){ 
0745A:  BSF    F93.1
0745C:  BTFSC  F81.1
0745E:  BRA    752A
....................             delay_ms(200); 
07460:  MOVLW  C8
07462:  MOVLB  3
07464:  MOVWF  xD4
07466:  MOVLB  0
07468:  CALL   16D0
....................             if(DOWN){ 
0746C:  BSF    F93.1
0746E:  BTFSC  F81.1
07470:  BRA    752A
....................                if(Segundos){ 
07472:  BTFSS  xA2.1
07474:  BRA    74F4
....................                   if(CiclosPersonalizados[CicloLibre-1].Segundoest>1) 
07476:  MOVLW  01
07478:  MOVLB  3
0747A:  SUBWF  x29,W
0747C:  MULLW  0B
0747E:  MOVF   FF3,W
07480:  CLRF   xCA
07482:  MOVWF  xC9
07484:  MOVLW  03
07486:  ADDWF  xC9,W
07488:  MOVWF  01
0748A:  MOVLW  00
0748C:  ADDWFC xCA,W
0748E:  MOVWF  03
07490:  MOVF   01,W
07492:  ADDLW  9D
07494:  MOVWF  FE9
07496:  MOVLW  03
07498:  ADDWFC 03,W
0749A:  MOVWF  FEA
0749C:  MOVF   FEF,W
0749E:  SUBLW  01
074A0:  BC    74CA
....................                      CiclosPersonalizados[CicloLibre-1].Segundoest--; 
074A2:  MOVLW  01
074A4:  SUBWF  x29,W
074A6:  MULLW  0B
074A8:  MOVF   FF3,W
074AA:  CLRF   xCA
074AC:  MOVWF  xC9
074AE:  MOVLW  03
074B0:  ADDWF  xC9,W
074B2:  MOVWF  01
074B4:  MOVLW  00
074B6:  ADDWFC xCA,W
074B8:  MOVWF  03
074BA:  MOVF   01,W
074BC:  ADDLW  9D
074BE:  MOVWF  FE9
074C0:  MOVLW  03
074C2:  ADDWFC 03,W
074C4:  MOVWF  FEA
074C6:  DECF   FEF,F
....................                   else 
074C8:  BRA    74F2
....................                      CiclosPersonalizados[CicloLibre-1].Segundoest=59; 
074CA:  MOVLW  01
074CC:  SUBWF  x29,W
074CE:  MULLW  0B
074D0:  MOVF   FF3,W
074D2:  CLRF   xCA
074D4:  MOVWF  xC9
074D6:  MOVLW  03
074D8:  ADDWF  xC9,W
074DA:  MOVWF  01
074DC:  MOVLW  00
074DE:  ADDWFC xCA,W
074E0:  MOVWF  03
074E2:  MOVF   01,W
074E4:  ADDLW  9D
074E6:  MOVWF  FE9
074E8:  MOVLW  03
074EA:  ADDWFC 03,W
074EC:  MOVWF  FEA
074EE:  MOVLW  3B
074F0:  MOVWF  FEF
074F2:  MOVLB  0
....................                } 
....................                if(Minutos){ 
074F4:  BTFSS  xA2.0
074F6:  BRA    752A
....................                   CiclosPersonalizados[CicloLibre-1].Minutoeste--; 
074F8:  MOVLW  01
074FA:  MOVLB  3
074FC:  SUBWF  x29,W
074FE:  MULLW  0B
07500:  MOVF   FF3,W
07502:  CLRF   xCA
07504:  MOVWF  xC9
07506:  MOVLW  09
07508:  ADDWF  xC9,W
0750A:  MOVWF  01
0750C:  MOVLW  00
0750E:  ADDWFC xCA,W
07510:  MOVWF  03
07512:  MOVF   01,W
07514:  ADDLW  9D
07516:  MOVWF  FE9
07518:  MOVLW  03
0751A:  ADDWFC 03,W
0751C:  MOVWF  FEA
0751E:  MOVLW  FF
07520:  ADDWF  FEF,F
07522:  BC    7528
07524:  MOVF   FEE,F
07526:  DECF   FED,F
07528:  MOVLB  0
....................                }     
....................             } 
....................          } 
....................           
....................          if(RX_Buffer[4]==0x0d && !Op){//Tecla Arriba Oprimida 
0752A:  MOVF   34,W
0752C:  SUBLW  0D
0752E:  BNZ   759A
07530:  BTFSC  xA1.6
07532:  BRA    759A
....................             if(Segundos){ 
07534:  BTFSS  xA2.1
07536:  BRA    7562
....................                CiclosPersonalizados[CicloLibre-1].Segundoest++; 
07538:  MOVLW  01
0753A:  MOVLB  3
0753C:  SUBWF  x29,W
0753E:  MULLW  0B
07540:  MOVF   FF3,W
07542:  CLRF   xCA
07544:  MOVWF  xC9
07546:  MOVLW  03
07548:  ADDWF  xC9,W
0754A:  MOVWF  01
0754C:  MOVLW  00
0754E:  ADDWFC xCA,W
07550:  MOVWF  03
07552:  MOVF   01,W
07554:  ADDLW  9D
07556:  MOVWF  FE9
07558:  MOVLW  03
0755A:  ADDWFC 03,W
0755C:  MOVWF  FEA
0755E:  INCF   FEF,F
07560:  MOVLB  0
....................             } 
....................             if(Minutos){ 
07562:  BTFSS  xA2.0
07564:  BRA    7596
....................                CiclosPersonalizados[CicloLibre-1].Minutoeste++; 
07566:  MOVLW  01
07568:  MOVLB  3
0756A:  SUBWF  x29,W
0756C:  MULLW  0B
0756E:  MOVF   FF3,W
07570:  CLRF   xCA
07572:  MOVWF  xC9
07574:  MOVLW  09
07576:  ADDWF  xC9,W
07578:  MOVWF  01
0757A:  MOVLW  00
0757C:  ADDWFC xCA,W
0757E:  MOVWF  03
07580:  MOVF   01,W
07582:  ADDLW  9D
07584:  MOVWF  FE9
07586:  MOVLW  03
07588:  ADDWFC 03,W
0758A:  MOVWF  FEA
0758C:  MOVLW  01
0758E:  ADDWF  FEE,F
07590:  BNC   7594
07592:  INCF   FEF,F
07594:  MOVLB  0
....................             }   
....................             RX_Buffer[4]=0x00; 
07596:  CLRF   34
....................             Op=ON; 
07598:  BSF    xA1.6
....................             //BorraBuffer(); 
....................          } 
....................           
....................          if(RX_Buffer[4]==0x0c && Op){//Tecla Derecha Oprimida 
0759A:  MOVF   34,W
0759C:  SUBLW  0C
0759E:  BNZ   760A
075A0:  BTFSS  xA1.6
075A2:  BRA    760A
....................             if(Segundos){ 
075A4:  BTFSS  xA2.1
075A6:  BRA    75D2
....................                CiclosPersonalizados[CicloLibre-1].Segundoest++; 
075A8:  MOVLW  01
075AA:  MOVLB  3
075AC:  SUBWF  x29,W
075AE:  MULLW  0B
075B0:  MOVF   FF3,W
075B2:  CLRF   xCA
075B4:  MOVWF  xC9
075B6:  MOVLW  03
075B8:  ADDWF  xC9,W
075BA:  MOVWF  01
075BC:  MOVLW  00
075BE:  ADDWFC xCA,W
075C0:  MOVWF  03
075C2:  MOVF   01,W
075C4:  ADDLW  9D
075C6:  MOVWF  FE9
075C8:  MOVLW  03
075CA:  ADDWFC 03,W
075CC:  MOVWF  FEA
075CE:  INCF   FEF,F
075D0:  MOVLB  0
....................             } 
....................             if(Minutos){ 
075D2:  BTFSS  xA2.0
075D4:  BRA    7606
....................                CiclosPersonalizados[CicloLibre-1].Minutoeste++; 
075D6:  MOVLW  01
075D8:  MOVLB  3
075DA:  SUBWF  x29,W
075DC:  MULLW  0B
075DE:  MOVF   FF3,W
075E0:  CLRF   xCA
075E2:  MOVWF  xC9
075E4:  MOVLW  09
075E6:  ADDWF  xC9,W
075E8:  MOVWF  01
075EA:  MOVLW  00
075EC:  ADDWFC xCA,W
075EE:  MOVWF  03
075F0:  MOVF   01,W
075F2:  ADDLW  9D
075F4:  MOVWF  FE9
075F6:  MOVLW  03
075F8:  ADDWFC 03,W
075FA:  MOVWF  FEA
075FC:  MOVLW  01
075FE:  ADDWF  FEE,F
07600:  BNC   7604
07602:  INCF   FEF,F
07604:  MOVLB  0
....................             }   
....................             RX_Buffer[4]=0x00; 
07606:  CLRF   34
....................             Op=OFF; 
07608:  BCF    xA1.6
....................             //BorraBuffer(); 
....................          } 
....................           
....................          if(RX_Buffer[4]==0x0e && !Op2){//Tecla Izquierda Oprimida 
0760A:  MOVF   34,W
0760C:  SUBLW  0E
0760E:  BNZ   76D0
07610:  BTFSC  xA1.7
07612:  BRA    76D0
....................             if(Segundos){ 
07614:  BTFSS  xA2.1
07616:  BRA    7696
....................                if(CiclosPersonalizados[CicloLibre-1].Segundoest>1) 
07618:  MOVLW  01
0761A:  MOVLB  3
0761C:  SUBWF  x29,W
0761E:  MULLW  0B
07620:  MOVF   FF3,W
07622:  CLRF   xCA
07624:  MOVWF  xC9
07626:  MOVLW  03
07628:  ADDWF  xC9,W
0762A:  MOVWF  01
0762C:  MOVLW  00
0762E:  ADDWFC xCA,W
07630:  MOVWF  03
07632:  MOVF   01,W
07634:  ADDLW  9D
07636:  MOVWF  FE9
07638:  MOVLW  03
0763A:  ADDWFC 03,W
0763C:  MOVWF  FEA
0763E:  MOVF   FEF,W
07640:  SUBLW  01
07642:  BC    766C
....................                   CiclosPersonalizados[CicloLibre-1].Segundoest--; 
07644:  MOVLW  01
07646:  SUBWF  x29,W
07648:  MULLW  0B
0764A:  MOVF   FF3,W
0764C:  CLRF   xCA
0764E:  MOVWF  xC9
07650:  MOVLW  03
07652:  ADDWF  xC9,W
07654:  MOVWF  01
07656:  MOVLW  00
07658:  ADDWFC xCA,W
0765A:  MOVWF  03
0765C:  MOVF   01,W
0765E:  ADDLW  9D
07660:  MOVWF  FE9
07662:  MOVLW  03
07664:  ADDWFC 03,W
07666:  MOVWF  FEA
07668:  DECF   FEF,F
....................                else 
0766A:  BRA    7694
....................                   CiclosPersonalizados[CicloLibre-1].Segundoest=59; 
0766C:  MOVLW  01
0766E:  SUBWF  x29,W
07670:  MULLW  0B
07672:  MOVF   FF3,W
07674:  CLRF   xCA
07676:  MOVWF  xC9
07678:  MOVLW  03
0767A:  ADDWF  xC9,W
0767C:  MOVWF  01
0767E:  MOVLW  00
07680:  ADDWFC xCA,W
07682:  MOVWF  03
07684:  MOVF   01,W
07686:  ADDLW  9D
07688:  MOVWF  FE9
0768A:  MOVLW  03
0768C:  ADDWFC 03,W
0768E:  MOVWF  FEA
07690:  MOVLW  3B
07692:  MOVWF  FEF
07694:  MOVLB  0
....................             } 
....................             if(Minutos){ 
07696:  BTFSS  xA2.0
07698:  BRA    76CC
....................                CiclosPersonalizados[CicloLibre-1].Minutoeste--; 
0769A:  MOVLW  01
0769C:  MOVLB  3
0769E:  SUBWF  x29,W
076A0:  MULLW  0B
076A2:  MOVF   FF3,W
076A4:  CLRF   xCA
076A6:  MOVWF  xC9
076A8:  MOVLW  09
076AA:  ADDWF  xC9,W
076AC:  MOVWF  01
076AE:  MOVLW  00
076B0:  ADDWFC xCA,W
076B2:  MOVWF  03
076B4:  MOVF   01,W
076B6:  ADDLW  9D
076B8:  MOVWF  FE9
076BA:  MOVLW  03
076BC:  ADDWFC 03,W
076BE:  MOVWF  FEA
076C0:  MOVLW  FF
076C2:  ADDWF  FEF,F
076C4:  BC    76CA
076C6:  MOVF   FEE,F
076C8:  DECF   FED,F
076CA:  MOVLB  0
....................             }   
....................             RX_Buffer[4]=0x00; 
076CC:  CLRF   34
....................             Op2=ON; 
076CE:  BSF    xA1.7
....................             //BorraBuffer(); 
....................          } 
....................           
....................          if(RX_Buffer[4]==0x0f && Op2){//Tecla Izquierda Oprimida 
076D0:  MOVF   34,W
076D2:  SUBLW  0F
076D4:  BNZ   7796
076D6:  BTFSS  xA1.7
076D8:  BRA    7796
....................             if(Segundos){ 
076DA:  BTFSS  xA2.1
076DC:  BRA    775C
....................                if(CiclosPersonalizados[CicloLibre-1].Segundoest>1) 
076DE:  MOVLW  01
076E0:  MOVLB  3
076E2:  SUBWF  x29,W
076E4:  MULLW  0B
076E6:  MOVF   FF3,W
076E8:  CLRF   xCA
076EA:  MOVWF  xC9
076EC:  MOVLW  03
076EE:  ADDWF  xC9,W
076F0:  MOVWF  01
076F2:  MOVLW  00
076F4:  ADDWFC xCA,W
076F6:  MOVWF  03
076F8:  MOVF   01,W
076FA:  ADDLW  9D
076FC:  MOVWF  FE9
076FE:  MOVLW  03
07700:  ADDWFC 03,W
07702:  MOVWF  FEA
07704:  MOVF   FEF,W
07706:  SUBLW  01
07708:  BC    7732
....................                   CiclosPersonalizados[CicloLibre-1].Segundoest--; 
0770A:  MOVLW  01
0770C:  SUBWF  x29,W
0770E:  MULLW  0B
07710:  MOVF   FF3,W
07712:  CLRF   xCA
07714:  MOVWF  xC9
07716:  MOVLW  03
07718:  ADDWF  xC9,W
0771A:  MOVWF  01
0771C:  MOVLW  00
0771E:  ADDWFC xCA,W
07720:  MOVWF  03
07722:  MOVF   01,W
07724:  ADDLW  9D
07726:  MOVWF  FE9
07728:  MOVLW  03
0772A:  ADDWFC 03,W
0772C:  MOVWF  FEA
0772E:  DECF   FEF,F
....................                else 
07730:  BRA    775A
....................                   CiclosPersonalizados[CicloLibre-1].Segundoest=59; 
07732:  MOVLW  01
07734:  SUBWF  x29,W
07736:  MULLW  0B
07738:  MOVF   FF3,W
0773A:  CLRF   xCA
0773C:  MOVWF  xC9
0773E:  MOVLW  03
07740:  ADDWF  xC9,W
07742:  MOVWF  01
07744:  MOVLW  00
07746:  ADDWFC xCA,W
07748:  MOVWF  03
0774A:  MOVF   01,W
0774C:  ADDLW  9D
0774E:  MOVWF  FE9
07750:  MOVLW  03
07752:  ADDWFC 03,W
07754:  MOVWF  FEA
07756:  MOVLW  3B
07758:  MOVWF  FEF
0775A:  MOVLB  0
....................             } 
....................             if(Minutos){ 
0775C:  BTFSS  xA2.0
0775E:  BRA    7792
....................                CiclosPersonalizados[CicloLibre-1].Minutoeste--; 
07760:  MOVLW  01
07762:  MOVLB  3
07764:  SUBWF  x29,W
07766:  MULLW  0B
07768:  MOVF   FF3,W
0776A:  CLRF   xCA
0776C:  MOVWF  xC9
0776E:  MOVLW  09
07770:  ADDWF  xC9,W
07772:  MOVWF  01
07774:  MOVLW  00
07776:  ADDWFC xCA,W
07778:  MOVWF  03
0777A:  MOVF   01,W
0777C:  ADDLW  9D
0777E:  MOVWF  FE9
07780:  MOVLW  03
07782:  ADDWFC 03,W
07784:  MOVWF  FEA
07786:  MOVLW  FF
07788:  ADDWF  FEF,F
0778A:  BC    7790
0778C:  MOVF   FEE,F
0778E:  DECF   FED,F
07790:  MOVLB  0
....................             }   
....................             RX_Buffer[4]=0x00; 
07792:  CLRF   34
....................             Op2=OFF; 
07794:  BCF    xA1.7
....................             //BorraBuffer(); 
....................          }          
....................          printf("tminest.txt=\"%03Lu\"",CiclosPersonalizados[CicloLibre-1].Minutoeste); 
07796:  MOVLW  01
07798:  MOVLB  3
0779A:  SUBWF  x29,W
0779C:  MULLW  0B
0779E:  MOVF   FF3,W
077A0:  CLRF   xCA
077A2:  MOVWF  xC9
077A4:  MOVLW  09
077A6:  ADDWF  xC9,W
077A8:  MOVWF  01
077AA:  MOVLW  00
077AC:  ADDWFC xCA,W
077AE:  MOVWF  03
077B0:  MOVF   01,W
077B2:  ADDLW  9D
077B4:  MOVWF  FE9
077B6:  MOVLW  03
077B8:  ADDWFC 03,W
077BA:  MOVWF  FEA
077BC:  MOVFF  FEC,3CA
077C0:  MOVF   FED,F
077C2:  MOVFF  FEF,3C9
077C6:  MOVLW  F6
077C8:  MOVWF  FF6
077CA:  MOVLW  08
077CC:  MOVWF  FF7
077CE:  MOVLW  00
077D0:  MOVWF  FF8
077D2:  MOVLW  0D
077D4:  MOVWF  xCD
077D6:  MOVLB  0
077D8:  CALL   43B8
077DC:  MOVLW  0A
077DE:  MOVWF  FE9
077E0:  MOVFF  3CA,3CE
077E4:  MOVFF  3C9,3CD
077E8:  CALL   44DE
077EC:  MOVLW  22
077EE:  BTFSS  F9E.4
077F0:  BRA    77EE
077F2:  MOVWF  FAD
....................          SendDataDisplay(); 
077F4:  CALL   3442
....................          printf("tsecest.txt=\"%02u\"",CiclosPersonalizados[CicloLibre-1].Segundoest); 
077F8:  MOVLW  01
077FA:  MOVLB  3
077FC:  SUBWF  x29,W
077FE:  MULLW  0B
07800:  MOVF   FF3,W
07802:  CLRF   xCA
07804:  MOVWF  xC9
07806:  MOVLW  03
07808:  ADDWF  xC9,W
0780A:  MOVWF  01
0780C:  MOVLW  00
0780E:  ADDWFC xCA,W
07810:  MOVWF  03
07812:  MOVF   01,W
07814:  ADDLW  9D
07816:  MOVWF  FE9
07818:  MOVLW  03
0781A:  ADDWFC 03,W
0781C:  MOVWF  FEA
0781E:  MOVFF  FEF,3C9
07822:  MOVLW  0A
07824:  MOVWF  FF6
07826:  MOVLW  09
07828:  MOVWF  FF7
0782A:  MOVLW  00
0782C:  MOVWF  FF8
0782E:  MOVLW  0D
07830:  MOVWF  xCD
07832:  MOVLB  0
07834:  CALL   43B8
07838:  MOVFF  3C9,3CC
0783C:  MOVLW  01
0783E:  MOVLB  3
07840:  MOVWF  xCD
07842:  MOVLB  0
07844:  CALL   4416
07848:  MOVLW  22
0784A:  BTFSS  F9E.4
0784C:  BRA    784A
0784E:  MOVWF  FAD
....................          SendDataDisplay(); 
07850:  CALL   3442
07854:  MOVLB  3
....................     } 
.................... //_--------------------------------------------------------------------------------------------------------------------------------------------------------        
....................  
.................... //_-------------------------------------------------------------------------------------------------------------------------------------------------------- 
....................     if(Menu==3){ //Menu de Tiempo de Secado 
07856:  MOVF   x35,W
07858:  SUBLW  03
0785A:  BTFSS  FD8.2
0785C:  BRA    7CA6
....................       printf("fecha.txt=\"Fecha:%02u/%02u/20%02u    Hora: %02u:%02u\"",Dia,Mes,Year,Hora,Minuto); 
0785E:  MOVLW  1E
07860:  MOVWF  FF6
07862:  MOVLW  09
07864:  MOVWF  FF7
07866:  MOVLW  00
07868:  MOVWF  FF8
0786A:  MOVLW  11
0786C:  MOVWF  xCD
0786E:  MOVLB  0
07870:  CALL   43B8
07874:  MOVFF  36D,3CC
07878:  MOVLW  01
0787A:  MOVLB  3
0787C:  MOVWF  xCD
0787E:  MOVLB  0
07880:  CALL   4416
07884:  MOVLW  2F
07886:  BTFSS  F9E.4
07888:  BRA    7886
0788A:  MOVWF  FAD
0788C:  MOVFF  36C,3CC
07890:  MOVLW  01
07892:  MOVLB  3
07894:  MOVWF  xCD
07896:  MOVLB  0
07898:  CALL   4416
0789C:  MOVLW  2F
0789E:  BTFSS  F9E.4
078A0:  BRA    789E
078A2:  MOVWF  FAD
078A4:  MOVLW  32
078A6:  BTFSS  F9E.4
078A8:  BRA    78A6
078AA:  MOVWF  FAD
078AC:  MOVLW  30
078AE:  BTFSS  F9E.4
078B0:  BRA    78AE
078B2:  MOVWF  FAD
078B4:  MOVFF  36B,3CC
078B8:  MOVLW  01
078BA:  MOVLB  3
078BC:  MOVWF  xCD
078BE:  MOVLB  0
078C0:  CALL   4416
078C4:  MOVLW  3F
078C6:  MOVWF  FF6
078C8:  MOVLW  09
078CA:  MOVWF  FF7
078CC:  MOVLW  00
078CE:  MOVWF  FF8
078D0:  MOVLW  0A
078D2:  MOVLB  3
078D4:  MOVWF  xCD
078D6:  MOVLB  0
078D8:  CALL   43B8
078DC:  MOVFF  36E,3CC
078E0:  MOVLW  01
078E2:  MOVLB  3
078E4:  MOVWF  xCD
078E6:  MOVLB  0
078E8:  CALL   4416
078EC:  MOVLW  3A
078EE:  BTFSS  F9E.4
078F0:  BRA    78EE
078F2:  MOVWF  FAD
078F4:  MOVFF  36F,3CC
078F8:  MOVLW  01
078FA:  MOVLB  3
078FC:  MOVWF  xCD
078FE:  MOVLB  0
07900:  CALL   4416
07904:  MOVLW  22
07906:  BTFSS  F9E.4
07908:  BRA    7906
0790A:  MOVWF  FAD
....................       SendDataDisplay(); 
0790C:  CALL   3442
....................          if(RX_Buffer[4]==0x0a){//Selecciono Minutos 
07910:  MOVF   34,W
07912:  SUBLW  0A
07914:  BNZ   791A
....................             Minutos=ON; 
07916:  BSF    xA2.0
....................             Segundos=OFF; 
07918:  BCF    xA2.1
....................          } 
....................           
....................          if(RX_Buffer[4]==0x0b){//Selecciono Segundos 
0791A:  MOVF   34,W
0791C:  SUBLW  0B
0791E:  BNZ   7924
....................             Segundos=ON; 
07920:  BSF    xA2.1
....................             Minutos=OFF; 
07922:  BCF    xA2.0
....................          } 
....................           
....................          if(RX_Buffer[4]==0x11 || LEFT){//Selecciono Regresar 
07924:  MOVF   34,W
07926:  SUBLW  11
07928:  BZ    7930
0792A:  BSF    F93.3
0792C:  BTFSC  F81.3
0792E:  BRA    7A4A
....................             Segundos=OFF; 
07930:  BCF    xA2.1
....................             Minutos=OFF; 
07932:  BCF    xA2.0
....................             printf("page CicloPersona"); 
07934:  MOVLW  54
07936:  MOVWF  FF6
07938:  MOVLW  09
0793A:  MOVWF  FF7
0793C:  MOVLW  00
0793E:  MOVWF  FF8
07940:  CALL   3410
....................             SendDataDisplay();   
07944:  CALL   3442
....................             //PantallaPrincipal=1; 
....................             Op=OFF; 
07948:  BCF    xA1.6
....................             Op2=OFF; 
0794A:  BCF    xA1.7
....................             if(!GuardaEEPROM){ 
0794C:  BTFSC  xA2.2
0794E:  BRA    7A4A
....................                write_eeprom(4,Tsecadop[0]);delay_ms(10);write_eeprom(5,Tsecadop[1]);delay_ms(10); 
07950:  CLRF   FAA
07952:  MOVLW  04
07954:  MOVWF  FA9
07956:  MOVFF  BE,FA8
0795A:  BCF    FA6.6
0795C:  BCF    FA6.7
0795E:  BSF    FA6.2
07960:  MOVF   FF2,W
07962:  MOVWF  00
07964:  BCF    FF2.6
07966:  BCF    FF2.7
07968:  MOVLB  F
0796A:  MOVLW  55
0796C:  MOVWF  FA7
0796E:  MOVLW  AA
07970:  MOVWF  FA7
07972:  BSF    FA6.1
07974:  BTFSC  FA6.1
07976:  BRA    7974
07978:  BCF    FA6.2
0797A:  MOVF   00,W
0797C:  IORWF  FF2,F
0797E:  MOVLW  0A
07980:  MOVLB  3
07982:  MOVWF  xD4
07984:  MOVLB  0
07986:  CALL   16D0
0798A:  CLRF   FAA
0798C:  MOVLW  05
0798E:  MOVWF  FA9
07990:  MOVFF  BF,FA8
07994:  BCF    FA6.6
07996:  BCF    FA6.7
07998:  BSF    FA6.2
0799A:  MOVF   FF2,W
0799C:  MOVWF  00
0799E:  BCF    FF2.6
079A0:  BCF    FF2.7
079A2:  MOVLB  F
079A4:  MOVLW  55
079A6:  MOVWF  FA7
079A8:  MOVLW  AA
079AA:  MOVWF  FA7
079AC:  BSF    FA6.1
079AE:  BTFSC  FA6.1
079B0:  BRA    79AE
079B2:  BCF    FA6.2
079B4:  MOVF   00,W
079B6:  IORWF  FF2,F
079B8:  MOVLW  0A
079BA:  MOVLB  3
079BC:  MOVWF  xD4
079BE:  MOVLB  0
079C0:  CALL   16D0
....................                write_eeprom(6,Tsecadop[2]);delay_ms(10);write_eeprom(7,Tsecadop[3]);delay_ms(10); 
079C4:  CLRF   FAA
079C6:  MOVLW  06
079C8:  MOVWF  FA9
079CA:  MOVFF  C0,FA8
079CE:  BCF    FA6.6
079D0:  BCF    FA6.7
079D2:  BSF    FA6.2
079D4:  MOVF   FF2,W
079D6:  MOVWF  00
079D8:  BCF    FF2.6
079DA:  BCF    FF2.7
079DC:  MOVLB  F
079DE:  MOVLW  55
079E0:  MOVWF  FA7
079E2:  MOVLW  AA
079E4:  MOVWF  FA7
079E6:  BSF    FA6.1
079E8:  BTFSC  FA6.1
079EA:  BRA    79E8
079EC:  BCF    FA6.2
079EE:  MOVF   00,W
079F0:  IORWF  FF2,F
079F2:  MOVLW  0A
079F4:  MOVLB  3
079F6:  MOVWF  xD4
079F8:  MOVLB  0
079FA:  CALL   16D0
079FE:  CLRF   FAA
07A00:  MOVLW  07
07A02:  MOVWF  FA9
07A04:  MOVFF  C1,FA8
07A08:  BCF    FA6.6
07A0A:  BCF    FA6.7
07A0C:  BSF    FA6.2
07A0E:  MOVF   FF2,W
07A10:  MOVWF  00
07A12:  BCF    FF2.6
07A14:  BCF    FF2.7
07A16:  MOVLB  F
07A18:  MOVLW  55
07A1A:  MOVWF  FA7
07A1C:  MOVLW  AA
07A1E:  MOVWF  FA7
07A20:  BSF    FA6.1
07A22:  BTFSC  FA6.1
07A24:  BRA    7A22
07A26:  BCF    FA6.2
07A28:  MOVF   00,W
07A2A:  IORWF  FF2,F
07A2C:  MOVLW  0A
07A2E:  MOVLB  3
07A30:  MOVWF  xD4
07A32:  MOVLB  0
07A34:  CALL   16D0
....................                Tsecado[0]=Tsecadop[0]; 
07A38:  MOVFF  BE,BA
....................                Tsecado[1]=Tsecadop[1]; 
07A3C:  MOVFF  BF,BB
....................                Tsecado[2]=Tsecadop[2]; 
07A40:  MOVFF  C0,BC
....................                Tsecado[3]=Tsecadop[3]; 
07A44:  MOVFF  C1,BD
....................                GuardaEEPROM=ON; 
07A48:  BSF    xA2.2
....................             } 
....................          } 
....................           
....................          if(RIGHT){ 
07A4A:  BSF    F93.2
07A4C:  BTFSC  F81.2
07A4E:  BRA    7AC4
....................             delay_ms(200); 
07A50:  MOVLW  C8
07A52:  MOVLB  3
07A54:  MOVWF  xD4
07A56:  MOVLB  0
07A58:  CALL   16D0
....................             if(RIGHT){ 
07A5C:  BSF    F93.2
07A5E:  BTFSC  F81.2
07A60:  BRA    7AC4
....................                if(!Segundos){ 
07A62:  BTFSC  xA2.1
07A64:  BRA    7A94
....................                   Segundos=ON; 
07A66:  BSF    xA2.1
....................                   Minutos=OFF; 
07A68:  BCF    xA2.0
....................                   printf("tminsec.pco=0"); 
07A6A:  MOVLW  66
07A6C:  MOVWF  FF6
07A6E:  MOVLW  09
07A70:  MOVWF  FF7
07A72:  MOVLW  00
07A74:  MOVWF  FF8
07A76:  CALL   3410
....................                   SendDataDisplay();                    
07A7A:  CALL   3442
....................                   printf("tsecsec.pco=65535"); 
07A7E:  MOVLW  74
07A80:  MOVWF  FF6
07A82:  MOVLW  09
07A84:  MOVWF  FF7
07A86:  MOVLW  00
07A88:  MOVWF  FF8
07A8A:  CALL   3410
....................                   SendDataDisplay();   
07A8E:  CALL   3442
....................                }else if(!Minutos){ 
07A92:  BRA    7AC4
07A94:  BTFSC  xA2.0
07A96:  BRA    7AC4
....................                   Segundos=OFF; 
07A98:  BCF    xA2.1
....................                   Minutos=ON; 
07A9A:  BSF    xA2.0
....................                   printf("tminsec.pco=65535"); 
07A9C:  MOVLW  86
07A9E:  MOVWF  FF6
07AA0:  MOVLW  09
07AA2:  MOVWF  FF7
07AA4:  MOVLW  00
07AA6:  MOVWF  FF8
07AA8:  CALL   3410
....................                   SendDataDisplay();   
07AAC:  CALL   3442
....................                   printf("tsecsec.pco=0"); 
07AB0:  MOVLW  98
07AB2:  MOVWF  FF6
07AB4:  MOVLW  09
07AB6:  MOVWF  FF7
07AB8:  MOVLW  00
07ABA:  MOVWF  FF8
07ABC:  CALL   3410
....................                   SendDataDisplay();   
07AC0:  CALL   3442
....................                } 
....................             } 
....................          } 
....................           
....................          if(UP){ 
07AC4:  BSF    F93.0
07AC6:  BTFSC  F81.0
07AC8:  BRA    7B04
....................             delay_ms(200); 
07ACA:  MOVLW  C8
07ACC:  MOVLB  3
07ACE:  MOVWF  xD4
07AD0:  MOVLB  0
07AD2:  CALL   16D0
....................             if(UP){ 
07AD6:  BSF    F93.0
07AD8:  BTFSC  F81.0
07ADA:  BRA    7B04
....................                if(Segundos){ 
07ADC:  BTFSS  xA2.1
07ADE:  BRA    7AF0
....................                   Tsecadop[0]++; 
07AE0:  INCF   xBE,F
....................                   if(Tsecadop[0]>9){ 
07AE2:  BTFSC  xBE.7
07AE4:  BRA    7AF0
07AE6:  MOVF   xBE,W
07AE8:  SUBLW  09
07AEA:  BC    7AF0
....................                      Tsecadop[1]++; 
07AEC:  INCF   xBF,F
....................                      Tsecadop[0]=0; 
07AEE:  CLRF   xBE
....................                   } 
....................                } 
....................                if(Minutos){ 
07AF0:  BTFSS  xA2.0
07AF2:  BRA    7B04
....................                   Tsecado[2]++; 
07AF4:  INCF   xBC,F
....................                   if(Tsecadop[2]>9){ 
07AF6:  BTFSC  xC0.7
07AF8:  BRA    7B04
07AFA:  MOVF   xC0,W
07AFC:  SUBLW  09
07AFE:  BC    7B04
....................                      Tsecadop[3]++; 
07B00:  INCF   xC1,F
....................                      Tsecadop[2]=0; 
07B02:  CLRF   xC0
....................                   } 
....................                }   
....................             } 
....................          } 
....................           
....................          if(DOWN){ 
07B04:  BSF    F93.1
07B06:  BTFSC  F81.1
07B08:  BRA    7B40
....................             delay_ms(200); 
07B0A:  MOVLW  C8
07B0C:  MOVLB  3
07B0E:  MOVWF  xD4
07B10:  MOVLB  0
07B12:  CALL   16D0
....................             if(DOWN){ 
07B16:  BSF    F93.1
07B18:  BTFSC  F81.1
07B1A:  BRA    7B40
....................                if(Segundos){ 
07B1C:  BTFSS  xA2.1
07B1E:  BRA    7B2E
....................                   Tsecadop[0]--; 
07B20:  DECF   xBE,F
....................                   if(Tsecadop[0]<0){ 
07B22:  BTFSC  xBE.7
07B24:  BRA    7B28
07B26:  BRA    7B2E
....................                      Tsecadop[1]--; 
07B28:  DECF   xBF,F
....................                      Tsecadop[0]=9; 
07B2A:  MOVLW  09
07B2C:  MOVWF  xBE
....................                   } 
....................                } 
....................                if(Minutos){ 
07B2E:  BTFSS  xA2.0
07B30:  BRA    7B40
....................                   Tsecadop[2]--; 
07B32:  DECF   xC0,F
....................                   if(Tsecadop[2]<0){ 
07B34:  BTFSC  xC0.7
07B36:  BRA    7B3A
07B38:  BRA    7B40
....................                      Tsecadop[3]--; 
07B3A:  DECF   xC1,F
....................                      Tsecadop[2]=9; 
07B3C:  MOVLW  09
07B3E:  MOVWF  xC0
....................                   } 
....................                }   
....................             } 
....................          } 
....................           
....................          if(RX_Buffer[4]==0x0d && !Op){//Tecla Arriba Oprimida 
07B40:  MOVF   34,W
07B42:  SUBLW  0D
07B44:  BNZ   7B76
07B46:  BTFSC  xA1.6
07B48:  BRA    7B76
....................             if(Segundos){ 
07B4A:  BTFSS  xA2.1
07B4C:  BRA    7B5E
....................                Tsecadop[0]++; 
07B4E:  INCF   xBE,F
....................                if(Tsecadop[0]>9){ 
07B50:  BTFSC  xBE.7
07B52:  BRA    7B5E
07B54:  MOVF   xBE,W
07B56:  SUBLW  09
07B58:  BC    7B5E
....................                   Tsecadop[1]++; 
07B5A:  INCF   xBF,F
....................                   Tsecadop[0]=0; 
07B5C:  CLRF   xBE
....................                } 
....................             } 
....................             if(Minutos){ 
07B5E:  BTFSS  xA2.0
07B60:  BRA    7B72
....................                Tsecado[2]++; 
07B62:  INCF   xBC,F
....................                if(Tsecadop[2]>9){ 
07B64:  BTFSC  xC0.7
07B66:  BRA    7B72
07B68:  MOVF   xC0,W
07B6A:  SUBLW  09
07B6C:  BC    7B72
....................                   Tsecadop[3]++; 
07B6E:  INCF   xC1,F
....................                   Tsecadop[2]=0; 
07B70:  CLRF   xC0
....................                } 
....................             } 
....................             RX_Buffer[4]=0x00; 
07B72:  CLRF   34
....................             Op=ON; 
07B74:  BSF    xA1.6
....................             //BorraBuffer(); 
....................          } 
....................           
....................          if(RX_Buffer[4]==0x0c && Op){//Tecla Derecha Oprimida 
07B76:  MOVF   34,W
07B78:  SUBLW  0C
07B7A:  BNZ   7BAC
07B7C:  BTFSS  xA1.6
07B7E:  BRA    7BAC
....................             if(Segundos){ 
07B80:  BTFSS  xA2.1
07B82:  BRA    7B94
....................                Tsecadop[0]++; 
07B84:  INCF   xBE,F
....................                if(Tsecadop[0]>9){ 
07B86:  BTFSC  xBE.7
07B88:  BRA    7B94
07B8A:  MOVF   xBE,W
07B8C:  SUBLW  09
07B8E:  BC    7B94
....................                   Tsecadop[1]++; 
07B90:  INCF   xBF,F
....................                   Tsecadop[0]=0; 
07B92:  CLRF   xBE
....................                } 
....................             } 
....................             if(Minutos){ 
07B94:  BTFSS  xA2.0
07B96:  BRA    7BA8
....................                Tsecadop[2]++; 
07B98:  INCF   xC0,F
....................                if(Tsecadop[2]>9){ 
07B9A:  BTFSC  xC0.7
07B9C:  BRA    7BA8
07B9E:  MOVF   xC0,W
07BA0:  SUBLW  09
07BA2:  BC    7BA8
....................                   Tsecadop[3]++; 
07BA4:  INCF   xC1,F
....................                   Tsecadop[2]=0; 
07BA6:  CLRF   xC0
....................                } 
....................             } 
....................             RX_Buffer[4]=0x00; 
07BA8:  CLRF   34
....................             Op=OFF; 
07BAA:  BCF    xA1.6
....................             //BorraBuffer(); 
....................          } 
....................           
....................          if(RX_Buffer[4]==0x0e && !Op2){//Tecla Izquierda Oprimida 
07BAC:  MOVF   34,W
07BAE:  SUBLW  0E
07BB0:  BNZ   7BDE
07BB2:  BTFSC  xA1.7
07BB4:  BRA    7BDE
....................             if(Segundos){ 
07BB6:  BTFSS  xA2.1
07BB8:  BRA    7BC8
....................                Tsecadop[0]--; 
07BBA:  DECF   xBE,F
....................                if(Tsecadop[0]<0){ 
07BBC:  BTFSC  xBE.7
07BBE:  BRA    7BC2
07BC0:  BRA    7BC8
....................                   Tsecadop[1]--; 
07BC2:  DECF   xBF,F
....................                   Tsecadop[0]=9; 
07BC4:  MOVLW  09
07BC6:  MOVWF  xBE
....................                } 
....................             } 
....................             if(Minutos){ 
07BC8:  BTFSS  xA2.0
07BCA:  BRA    7BDA
....................                Tsecadop[2]--; 
07BCC:  DECF   xC0,F
....................                if(Tsecadop[2]<0){ 
07BCE:  BTFSC  xC0.7
07BD0:  BRA    7BD4
07BD2:  BRA    7BDA
....................                   Tsecadop[3]--; 
07BD4:  DECF   xC1,F
....................                   Tsecadop[2]=9; 
07BD6:  MOVLW  09
07BD8:  MOVWF  xC0
....................                } 
....................             } 
....................             RX_Buffer[4]=0x00; 
07BDA:  CLRF   34
....................             Op2=ON; 
07BDC:  BSF    xA1.7
....................             //BorraBuffer(); 
....................          } 
....................           
....................          if(RX_Buffer[4]==0x0f && Op2){//Tecla Izquierda Oprimida 
07BDE:  MOVF   34,W
07BE0:  SUBLW  0F
07BE2:  BNZ   7C10
07BE4:  BTFSS  xA1.7
07BE6:  BRA    7C10
....................             if(Segundos){ 
07BE8:  BTFSS  xA2.1
07BEA:  BRA    7BFA
....................                Tsecadop[0]--; 
07BEC:  DECF   xBE,F
....................                if(Tsecadop[0]<0){ 
07BEE:  BTFSC  xBE.7
07BF0:  BRA    7BF4
07BF2:  BRA    7BFA
....................                   Tsecadop[1]--; 
07BF4:  DECF   xBF,F
....................                   Tsecadop[0]=9; 
07BF6:  MOVLW  09
07BF8:  MOVWF  xBE
....................                } 
....................             } 
....................             if(Minutos){ 
07BFA:  BTFSS  xA2.0
07BFC:  BRA    7C0C
....................                Tsecadop[2]--; 
07BFE:  DECF   xC0,F
....................                if(Tsecadop[2]<0){ 
07C00:  BTFSC  xC0.7
07C02:  BRA    7C06
07C04:  BRA    7C0C
....................                   Tsecadop[3]--; 
07C06:  DECF   xC1,F
....................                   Tsecadop[2]=9; 
07C08:  MOVLW  09
07C0A:  MOVWF  xC0
....................                } 
....................             } 
....................             RX_Buffer[4]=0x00; 
07C0C:  CLRF   34
....................             Op2=OFF; 
07C0E:  BCF    xA1.7
....................             //BorraBuffer(); 
....................          } 
....................       printf("tminsec.txt=\"%02u\"",((Tsecadop[3]*10)+Tsecadop[2])); 
07C10:  MOVFF  C1,3CA
07C14:  MOVLW  0A
07C16:  MOVLB  3
07C18:  MOVWF  xCB
07C1A:  MOVLB  0
07C1C:  CALL   29A2
07C20:  MOVF   xC0,W
07C22:  ADDWF  01,W
07C24:  MOVLB  3
07C26:  MOVWF  xC9
07C28:  MOVLW  A6
07C2A:  MOVWF  FF6
07C2C:  MOVLW  09
07C2E:  MOVWF  FF7
07C30:  MOVLW  00
07C32:  MOVWF  FF8
07C34:  MOVLW  0D
07C36:  MOVWF  xCD
07C38:  MOVLB  0
07C3A:  CALL   43B8
07C3E:  MOVFF  3C9,3CC
07C42:  MOVLW  01
07C44:  MOVLB  3
07C46:  MOVWF  xCD
07C48:  MOVLB  0
07C4A:  CALL   4416
07C4E:  MOVLW  22
07C50:  BTFSS  F9E.4
07C52:  BRA    7C50
07C54:  MOVWF  FAD
....................       SendDataDisplay(); 
07C56:  CALL   3442
....................       printf("tsecsec.txt=\"%02u\"",((Tsecadop[1]*10)+Tsecadop[0])); 
07C5A:  MOVFF  BF,3CA
07C5E:  MOVLW  0A
07C60:  MOVLB  3
07C62:  MOVWF  xCB
07C64:  MOVLB  0
07C66:  CALL   29A2
07C6A:  MOVF   xBE,W
07C6C:  ADDWF  01,W
07C6E:  MOVLB  3
07C70:  MOVWF  xC9
07C72:  MOVLW  BA
07C74:  MOVWF  FF6
07C76:  MOVLW  09
07C78:  MOVWF  FF7
07C7A:  MOVLW  00
07C7C:  MOVWF  FF8
07C7E:  MOVLW  0D
07C80:  MOVWF  xCD
07C82:  MOVLB  0
07C84:  CALL   43B8
07C88:  MOVFF  3C9,3CC
07C8C:  MOVLW  01
07C8E:  MOVLB  3
07C90:  MOVWF  xCD
07C92:  MOVLB  0
07C94:  CALL   4416
07C98:  MOVLW  22
07C9A:  BTFSS  F9E.4
07C9C:  BRA    7C9A
07C9E:  MOVWF  FAD
....................       SendDataDisplay(); 
07CA0:  CALL   3442
07CA4:  MOVLB  3
....................     } 
.................... //_--------------------------------------------------------------------------------------------------------------------------------------------------------        
....................  
.................... //_-------------------------------------------------------------------------------------------------------------------------------------------------------- 
....................     if(Menu==4){ //Menu de Temperatura 
07CA6:  MOVF   x35,W
07CA8:  SUBLW  04
07CAA:  BTFSS  FD8.2
07CAC:  BRA    7EC0
....................       printf("fecha.txt=\"Fecha:%02u/%02u/20%02u    Hora: %02u:%02u\"",Dia,Mes,Year,Hora,Minuto); 
07CAE:  MOVLW  CE
07CB0:  MOVWF  FF6
07CB2:  MOVLW  09
07CB4:  MOVWF  FF7
07CB6:  MOVLW  00
07CB8:  MOVWF  FF8
07CBA:  MOVLW  11
07CBC:  MOVWF  xCD
07CBE:  MOVLB  0
07CC0:  CALL   43B8
07CC4:  MOVFF  36D,3CC
07CC8:  MOVLW  01
07CCA:  MOVLB  3
07CCC:  MOVWF  xCD
07CCE:  MOVLB  0
07CD0:  CALL   4416
07CD4:  MOVLW  2F
07CD6:  BTFSS  F9E.4
07CD8:  BRA    7CD6
07CDA:  MOVWF  FAD
07CDC:  MOVFF  36C,3CC
07CE0:  MOVLW  01
07CE2:  MOVLB  3
07CE4:  MOVWF  xCD
07CE6:  MOVLB  0
07CE8:  CALL   4416
07CEC:  MOVLW  2F
07CEE:  BTFSS  F9E.4
07CF0:  BRA    7CEE
07CF2:  MOVWF  FAD
07CF4:  MOVLW  32
07CF6:  BTFSS  F9E.4
07CF8:  BRA    7CF6
07CFA:  MOVWF  FAD
07CFC:  MOVLW  30
07CFE:  BTFSS  F9E.4
07D00:  BRA    7CFE
07D02:  MOVWF  FAD
07D04:  MOVFF  36B,3CC
07D08:  MOVLW  01
07D0A:  MOVLB  3
07D0C:  MOVWF  xCD
07D0E:  MOVLB  0
07D10:  CALL   4416
07D14:  MOVLW  EF
07D16:  MOVWF  FF6
07D18:  MOVLW  09
07D1A:  MOVWF  FF7
07D1C:  MOVLW  00
07D1E:  MOVWF  FF8
07D20:  MOVLW  0A
07D22:  MOVLB  3
07D24:  MOVWF  xCD
07D26:  MOVLB  0
07D28:  CALL   43B8
07D2C:  MOVFF  36E,3CC
07D30:  MOVLW  01
07D32:  MOVLB  3
07D34:  MOVWF  xCD
07D36:  MOVLB  0
07D38:  CALL   4416
07D3C:  MOVLW  3A
07D3E:  BTFSS  F9E.4
07D40:  BRA    7D3E
07D42:  MOVWF  FAD
07D44:  MOVFF  36F,3CC
07D48:  MOVLW  01
07D4A:  MOVLB  3
07D4C:  MOVWF  xCD
07D4E:  MOVLB  0
07D50:  CALL   4416
07D54:  MOVLW  22
07D56:  BTFSS  F9E.4
07D58:  BRA    7D56
07D5A:  MOVWF  FAD
....................       SendDataDisplay(); 
07D5C:  CALL   3442
....................          if(CicloLibre<4){ 
07D60:  MOVLB  3
07D62:  MOVF   x29,W
07D64:  SUBLW  03
07D66:  BNC   7D7E
....................             if(Setpoint<110) 
07D68:  MOVF   x3C,W
07D6A:  SUBLW  6D
07D6C:  BNC   7D72
....................                Setpoint=123; 
07D6E:  MOVLW  7B
07D70:  MOVWF  x3C
....................             if(Setpoint>123) 
07D72:  MOVF   x3C,W
07D74:  SUBLW  7B
07D76:  BC    7D7C
....................                Setpoint=110; 
07D78:  MOVLW  6E
07D7A:  MOVWF  x3C
....................          }else{ 
07D7C:  BRA    7D92
....................             if(Setpoint<60) 
07D7E:  MOVF   x3C,W
07D80:  SUBLW  3B
07D82:  BNC   7D88
....................                Setpoint=100; 
07D84:  MOVLW  64
07D86:  MOVWF  x3C
....................             if(Setpoint>100) 
07D88:  MOVF   x3C,W
07D8A:  SUBLW  64
07D8C:  BC    7D92
....................                Setpoint=60; 
07D8E:  MOVLW  3C
07D90:  MOVWF  x3C
....................          } 
....................           
....................          if(RX_Buffer[4]==0x11 || LEFT){//Selecciono Regresar 
07D92:  MOVF   34,W
07D94:  SUBLW  11
07D96:  BZ    7D9E
07D98:  BSF    F93.3
07D9A:  BTFSC  F81.3
07D9C:  BRA    7E30
....................             Segundos=OFF; 
07D9E:  MOVLB  0
07DA0:  BCF    xA2.1
....................             Minutos=OFF; 
07DA2:  BCF    xA2.0
....................             printf("page CicloPersona"); 
07DA4:  MOVLW  04
07DA6:  MOVWF  FF6
07DA8:  MOVLW  0A
07DAA:  MOVWF  FF7
07DAC:  MOVLW  00
07DAE:  MOVWF  FF8
07DB0:  CALL   3410
....................             SendDataDisplay();   
07DB4:  CALL   3442
....................             PantallaPrincipal=1; 
07DB8:  MOVLW  01
07DBA:  MOVLB  2
07DBC:  MOVWF  xD3
....................             Op=OFF; 
07DBE:  MOVLB  0
07DC0:  BCF    xA1.6
....................             Op2=OFF; 
07DC2:  BCF    xA1.7
....................             if(!GuardaEEPROM){ 
07DC4:  BTFSC  xA2.2
07DC6:  BRA    7E2E
....................                CiclosPersonalizados[CicloLibre-1].Temperatura=Setpoint; 
07DC8:  MOVLW  01
07DCA:  MOVLB  3
07DCC:  SUBWF  x29,W
07DCE:  MULLW  0B
07DD0:  MOVF   FF3,W
07DD2:  CLRF   xCA
07DD4:  MOVWF  xC9
07DD6:  MOVLW  9D
07DD8:  ADDWF  xC9,W
07DDA:  MOVWF  FE9
07DDC:  MOVLW  03
07DDE:  ADDWFC xCA,W
07DE0:  MOVWF  FEA
07DE2:  MOVFF  33C,FEF
....................                write_eeprom(100+((CicloLibre-1)*8),Setpoint); 
07DE6:  MOVLW  01
07DE8:  SUBWF  x29,W
07DEA:  MULLW  08
07DEC:  MOVF   FF3,W
07DEE:  ADDLW  64
07DF0:  MOVWF  xC9
07DF2:  CLRF   FAA
07DF4:  MOVFF  3C9,FA9
07DF8:  MOVFF  33C,FA8
07DFC:  BCF    FA6.6
07DFE:  BCF    FA6.7
07E00:  BSF    FA6.2
07E02:  MOVF   FF2,W
07E04:  MOVWF  00
07E06:  BCF    FF2.6
07E08:  BCF    FF2.7
07E0A:  MOVLB  F
07E0C:  MOVLW  55
07E0E:  MOVWF  FA7
07E10:  MOVLW  AA
07E12:  MOVWF  FA7
07E14:  BSF    FA6.1
07E16:  BTFSC  FA6.1
07E18:  BRA    7E16
07E1A:  BCF    FA6.2
07E1C:  MOVF   00,W
07E1E:  IORWF  FF2,F
....................                delay_ms(10); 
07E20:  MOVLW  0A
07E22:  MOVLB  3
07E24:  MOVWF  xD4
07E26:  MOVLB  0
07E28:  CALL   16D0
....................                GuardaEEPROM=ON; 
07E2C:  BSF    xA2.2
07E2E:  MOVLB  3
....................             } 
....................          } 
....................           
....................          if(UP){ 
07E30:  BSF    F93.0
07E32:  BTFSC  F81.0
07E34:  BRA    7E4A
....................             delay_ms(200); 
07E36:  MOVLW  C8
07E38:  MOVWF  xD4
07E3A:  MOVLB  0
07E3C:  CALL   16D0
....................             if(UP){ 
07E40:  BSF    F93.0
07E42:  BTFSC  F81.0
07E44:  BRA    7E4C
....................                Setpoint++; 
07E46:  MOVLB  3
07E48:  INCF   x3C,F
07E4A:  MOVLB  0
....................             } 
....................          } 
....................           
....................          if(DOWN){ 
07E4C:  BSF    F93.1
07E4E:  BTFSC  F81.1
07E50:  BRA    7E6A
....................             delay_ms(200); 
07E52:  MOVLW  C8
07E54:  MOVLB  3
07E56:  MOVWF  xD4
07E58:  MOVLB  0
07E5A:  CALL   16D0
....................             if(DOWN){ 
07E5E:  BSF    F93.1
07E60:  BTFSC  F81.1
07E62:  BRA    7E6A
....................                Setpoint--; 
07E64:  MOVLB  3
07E66:  DECF   x3C,F
07E68:  MOVLB  0
....................             } 
....................          } 
....................           
....................          if(RX_Buffer[4]==0x0d){//Tecla Arriba Oprimida 
07E6A:  MOVF   34,W
07E6C:  SUBLW  0D
07E6E:  BNZ   7E7A
....................             Setpoint++; 
07E70:  MOVLB  3
07E72:  INCF   x3C,F
....................             RX_Buffer[4]=0x00;   
07E74:  CLRF   34
....................             RX_Buffer2[4]=0x00;             
07E76:  CLRF   3F
07E78:  MOVLB  0
....................             //BorraBuffer(); 
....................          } 
....................           
....................          if(RX_Buffer[4]==0x0c){//Tecla Abajo Oprimida 
07E7A:  MOVF   34,W
07E7C:  SUBLW  0C
07E7E:  BNZ   7E8A
....................             Setpoint--; 
07E80:  MOVLB  3
07E82:  DECF   x3C,F
....................             RX_Buffer[4]=0x00; 
07E84:  CLRF   34
....................             RX_Buffer2[4]=0x00;             
07E86:  CLRF   3F
07E88:  MOVLB  0
....................             //BorraBuffer(); 
....................          } 
....................           
....................       printf("tsettem.txt=\"%03u\"",Setpoint); 
07E8A:  MOVLW  16
07E8C:  MOVWF  FF6
07E8E:  MOVLW  0A
07E90:  MOVWF  FF7
07E92:  MOVLW  00
07E94:  MOVWF  FF8
07E96:  MOVLW  0D
07E98:  MOVLB  3
07E9A:  MOVWF  xCD
07E9C:  MOVLB  0
07E9E:  CALL   43B8
07EA2:  MOVFF  33C,3CC
07EA6:  MOVLW  03
07EA8:  MOVLB  3
07EAA:  MOVWF  xCD
07EAC:  MOVLB  0
07EAE:  CALL   4416
07EB2:  MOVLW  22
07EB4:  BTFSS  F9E.4
07EB6:  BRA    7EB4
07EB8:  MOVWF  FAD
....................       SendDataDisplay(); 
07EBA:  CALL   3442
07EBE:  MOVLB  3
....................     } 
.................... //_--------------------------------------------------------------------------------------------------------------------------------------------------------        
....................  
.................... //_--------------------------------------------------------------------------------------------------------------------------------------------------------       
....................    if(Menu==5){//Menu de Nivel 
07EC0:  MOVF   x35,W
07EC2:  SUBLW  05
07EC4:  BTFSS  FD8.2
07EC6:  BRA    8140
....................       printf("fecha.txt=\"Fecha:%02u/%02u/20%02u    Hora: %02u:%02u\"",Dia,Mes,Year,Hora,Minuto); 
07EC8:  MOVLW  2A
07ECA:  MOVWF  FF6
07ECC:  MOVLW  0A
07ECE:  MOVWF  FF7
07ED0:  MOVLW  00
07ED2:  MOVWF  FF8
07ED4:  MOVLW  11
07ED6:  MOVWF  xCD
07ED8:  MOVLB  0
07EDA:  CALL   43B8
07EDE:  MOVFF  36D,3CC
07EE2:  MOVLW  01
07EE4:  MOVLB  3
07EE6:  MOVWF  xCD
07EE8:  MOVLB  0
07EEA:  CALL   4416
07EEE:  MOVLW  2F
07EF0:  BTFSS  F9E.4
07EF2:  BRA    7EF0
07EF4:  MOVWF  FAD
07EF6:  MOVFF  36C,3CC
07EFA:  MOVLW  01
07EFC:  MOVLB  3
07EFE:  MOVWF  xCD
07F00:  MOVLB  0
07F02:  CALL   4416
07F06:  MOVLW  2F
07F08:  BTFSS  F9E.4
07F0A:  BRA    7F08
07F0C:  MOVWF  FAD
07F0E:  MOVLW  32
07F10:  BTFSS  F9E.4
07F12:  BRA    7F10
07F14:  MOVWF  FAD
07F16:  MOVLW  30
07F18:  BTFSS  F9E.4
07F1A:  BRA    7F18
07F1C:  MOVWF  FAD
07F1E:  MOVFF  36B,3CC
07F22:  MOVLW  01
07F24:  MOVLB  3
07F26:  MOVWF  xCD
07F28:  MOVLB  0
07F2A:  CALL   4416
07F2E:  MOVLW  4B
07F30:  MOVWF  FF6
07F32:  MOVLW  0A
07F34:  MOVWF  FF7
07F36:  MOVLW  00
07F38:  MOVWF  FF8
07F3A:  MOVLW  0A
07F3C:  MOVLB  3
07F3E:  MOVWF  xCD
07F40:  MOVLB  0
07F42:  CALL   43B8
07F46:  MOVFF  36E,3CC
07F4A:  MOVLW  01
07F4C:  MOVLB  3
07F4E:  MOVWF  xCD
07F50:  MOVLB  0
07F52:  CALL   4416
07F56:  MOVLW  3A
07F58:  BTFSS  F9E.4
07F5A:  BRA    7F58
07F5C:  MOVWF  FAD
07F5E:  MOVFF  36F,3CC
07F62:  MOVLW  01
07F64:  MOVLB  3
07F66:  MOVWF  xCD
07F68:  MOVLB  0
07F6A:  CALL   4416
07F6E:  MOVLW  22
07F70:  BTFSS  F9E.4
07F72:  BRA    7F70
07F74:  MOVWF  FAD
....................       SendDataDisplay(); 
07F76:  CALL   3442
....................          if(Nivel<1) 
07F7A:  MOVLB  3
07F7C:  MOVF   x4A,F
07F7E:  BNZ   7F8A
07F80:  MOVF   x4B,F
07F82:  BNZ   7F8A
....................             Nivel=6; 
07F84:  CLRF   x4B
07F86:  MOVLW  06
07F88:  MOVWF  x4A
....................          if(Nivel>6) 
07F8A:  MOVF   x4B,F
07F8C:  BNZ   7F94
07F8E:  MOVF   x4A,W
07F90:  SUBLW  06
07F92:  BC    7F9A
....................             Nivel=1; 
07F94:  CLRF   x4B
07F96:  MOVLW  01
07F98:  MOVWF  x4A
....................           
....................          if(RX_Buffer[4]==0x11 || LEFT){//Selecciono Regresar 
07F9A:  MOVF   34,W
07F9C:  SUBLW  11
07F9E:  BZ    7FA6
07FA0:  BSF    F93.3
07FA2:  BTFSC  F81.3
07FA4:  BRA    809C
....................             Segundos=OFF; 
07FA6:  MOVLB  0
07FA8:  BCF    xA2.1
....................             Minutos=OFF;             
07FAA:  BCF    xA2.0
....................             tiempo_secado=0; 
07FAC:  MOVLB  3
07FAE:  CLRF   x40
....................              
....................             if(!GuardaEEPROM){     
07FB0:  MOVLB  0
07FB2:  BTFSC  xA2.2
07FB4:  BRA    8048
....................                CiclosPersonalizados[CicloLibre-1].NivelDesfogue=Nivel; 
07FB6:  MOVLW  01
07FB8:  MOVLB  3
07FBA:  SUBWF  x29,W
07FBC:  MULLW  0B
07FBE:  MOVF   FF3,W
07FC0:  CLRF   xCA
07FC2:  MOVWF  xC9
07FC4:  MOVLW  08
07FC6:  ADDWF  xC9,W
07FC8:  MOVWF  01
07FCA:  MOVLW  00
07FCC:  ADDWFC xCA,W
07FCE:  MOVWF  03
07FD0:  MOVF   01,W
07FD2:  ADDLW  9D
07FD4:  MOVWF  FE9
07FD6:  MOVLW  03
07FD8:  ADDWFC 03,W
07FDA:  MOVWF  FEA
07FDC:  MOVFF  34A,FEF
....................                write_eeprom(107+((CicloLibre-1)*8),Nivel); 
07FE0:  MOVLW  01
07FE2:  SUBWF  x29,W
07FE4:  MULLW  08
07FE6:  MOVF   FF3,W
07FE8:  ADDLW  6B
07FEA:  MOVWF  xC9
07FEC:  CLRF   FAA
07FEE:  MOVFF  3C9,FA9
07FF2:  MOVFF  34A,FA8
07FF6:  BCF    FA6.6
07FF8:  BCF    FA6.7
07FFA:  BSF    FA6.2
07FFC:  MOVF   FF2,W
07FFE:  MOVWF  00
08000:  BCF    FF2.6
08002:  BCF    FF2.7
08004:  MOVLB  F
08006:  MOVLW  55
08008:  MOVWF  FA7
0800A:  MOVLW  AA
0800C:  MOVWF  FA7
0800E:  BSF    FA6.1
08010:  BTFSC  FA6.1
08012:  BRA    8010
08014:  BCF    FA6.2
08016:  MOVF   00,W
08018:  IORWF  FF2,F
....................                delay_ms(20);             
0801A:  MOVLW  14
0801C:  MOVLB  3
0801E:  MOVWF  xD4
08020:  MOVLB  0
08022:  CALL   16D0
....................                NivelSeleccionado=9990*Nivel; 
08026:  MOVLW  27
08028:  MOVLB  3
0802A:  MOVWF  xCB
0802C:  MOVLW  06
0802E:  MOVWF  xCA
08030:  MOVFF  34B,3CD
08034:  MOVFF  34A,3CC
08038:  MOVLB  0
0803A:  CALL   34EC
0803E:  MOVFF  02,355
08042:  MOVFF  01,354
....................                GuardaEEPROM=ON; 
08046:  BSF    xA2.2
....................             } 
....................              
....................             if(Nivel<6) 
08048:  MOVLB  3
0804A:  MOVF   x4B,F
0804C:  BNZ   805A
0804E:  MOVF   x4A,W
08050:  SUBLW  05
08052:  BNC   805A
....................                desfoguelento=1; 
08054:  MOVLB  0
08056:  BSF    xA3.5
....................             else             
08058:  BRA    805E
....................                desfoguelento=0; 
0805A:  MOVLB  0
0805C:  BCF    xA3.5
....................  
....................             if(MenuAnt==1){ 
0805E:  MOVLB  3
08060:  DECFSZ x36,W
08062:  BRA    807E
....................                //Buzzer_on; 
....................                printf("page CicloPersona"); 
08064:  MOVLW  60
08066:  MOVWF  FF6
08068:  MOVLW  0A
0806A:  MOVWF  FF7
0806C:  MOVLW  00
0806E:  MOVWF  FF8
08070:  MOVLB  0
08072:  CALL   3410
....................                SendDataDisplay();  
08076:  CALL   3442
....................                //PantallaPrincipal=1; 
....................             }else if(MenuAnt==2){ 
0807A:  BRA    809A
0807C:  MOVLB  3
0807E:  MOVF   x36,W
08080:  SUBLW  02
08082:  BNZ   809C
....................                printf("page Funcionamiento"); 
08084:  MOVLW  72
08086:  MOVWF  FF6
08088:  MOVLW  0A
0808A:  MOVWF  FF7
0808C:  MOVLW  00
0808E:  MOVWF  FF8
08090:  MOVLB  0
08092:  CALL   3410
....................                SendDataDisplay();  
08096:  CALL   3442
0809A:  MOVLB  3
....................                //if(Temperatura>60)TTrampa=TTrampa+5; 
....................             } 
....................          } 
....................           
....................          if(UP){ 
0809C:  BSF    F93.0
0809E:  BTFSC  F81.0
080A0:  BRA    80BA
....................             delay_ms(200); 
080A2:  MOVLW  C8
080A4:  MOVWF  xD4
080A6:  MOVLB  0
080A8:  CALL   16D0
....................             if(UP){ 
080AC:  BSF    F93.0
080AE:  BTFSC  F81.0
080B0:  BRA    80BC
....................                Nivel++; 
080B2:  MOVLB  3
080B4:  INCF   x4A,F
080B6:  BTFSC  FD8.2
080B8:  INCF   x4B,F
080BA:  MOVLB  0
....................             } 
....................          } 
....................           
....................          if(DOWN){ 
080BC:  BSF    F93.1
080BE:  BTFSC  F81.1
080C0:  BRA    80E0
....................             delay_ms(200); 
080C2:  MOVLW  C8
080C4:  MOVLB  3
080C6:  MOVWF  xD4
080C8:  MOVLB  0
080CA:  CALL   16D0
....................             if(DOWN){ 
080CE:  BSF    F93.1
080D0:  BTFSC  F81.1
080D2:  BRA    80E0
....................                Nivel--; 
080D4:  MOVLB  3
080D6:  MOVF   x4A,W
080D8:  BTFSC  FD8.2
080DA:  DECF   x4B,F
080DC:  DECF   x4A,F
080DE:  MOVLB  0
....................             } 
....................          } 
....................           
....................          if(RX_Buffer[4]==0x0d){//Tecla Arriba Oprimida 
080E0:  MOVF   34,W
080E2:  SUBLW  0D
080E4:  BNZ   80F4
....................             Nivel++; 
080E6:  MOVLB  3
080E8:  INCF   x4A,F
080EA:  BTFSC  FD8.2
080EC:  INCF   x4B,F
....................             RX_Buffer[4]=0x00;             
080EE:  CLRF   34
....................             RX_Buffer2[4]=0x00;             
080F0:  CLRF   3F
080F2:  MOVLB  0
....................             //BorraBuffer(); 
....................          } 
....................           
....................          if(RX_Buffer[4]==0x0c){//Tecla Abajo Oprimida 
080F4:  MOVF   34,W
080F6:  SUBLW  0C
080F8:  BNZ   810A
....................             Nivel--; 
080FA:  MOVLB  3
080FC:  MOVF   x4A,W
080FE:  BTFSC  FD8.2
08100:  DECF   x4B,F
08102:  DECF   x4A,F
....................             RX_Buffer[4]=0x00; 
08104:  CLRF   34
....................             RX_Buffer2[4]=0x00;             
08106:  CLRF   3F
08108:  MOVLB  0
....................             //BorraBuffer(); 
....................          } 
....................           
....................       printf("tnivel.txt=\"%Lu\"",Nivel); 
0810A:  MOVLW  86
0810C:  MOVWF  FF6
0810E:  MOVLW  0A
08110:  MOVWF  FF7
08112:  MOVLW  00
08114:  MOVWF  FF8
08116:  MOVLW  0C
08118:  MOVLB  3
0811A:  MOVWF  xCD
0811C:  MOVLB  0
0811E:  CALL   43B8
08122:  MOVLW  10
08124:  MOVWF  FE9
08126:  MOVFF  34B,3CE
0812A:  MOVFF  34A,3CD
0812E:  CALL   44DE
08132:  MOVLW  22
08134:  BTFSS  F9E.4
08136:  BRA    8134
08138:  MOVWF  FAD
....................       SendDataDisplay(); 
0813A:  CALL   3442
0813E:  MOVLB  3
....................    } 
.................... //_--------------------------------------------------------------------------------------------------------------------------------------------------------       
....................  
.................... //_--------------------------------------------------------------------------------------------------------------------------------------------------------       
....................       if(Menu==6){ // Menu de Prueba de Componentes 
08140:  MOVF   x35,W
08142:  SUBLW  06
08144:  BTFSS  FD8.2
08146:  BRA    882E
....................          PruebaEstados=ON; 
08148:  MOVLB  0
0814A:  BSF    xA1.1
....................           
....................          if(RX_Buffer[4]==0x02)//Oprimio EV Desfogue 
0814C:  MOVF   34,W
0814E:  SUBLW  02
08150:  BNZ   8158
....................          { 
....................             EstadoDesfogue=!EstadoDesfogue; 
08152:  BTG    xA0.6
....................             RX_Buffer[4]=0x00; 
08154:  CLRF   34
....................             RX_Buffer2[4]=0x00; 
08156:  CLRF   3F
....................          } 
....................           
....................          if(EstadoDesfogue){ 
08158:  BTFSS  xA0.6
0815A:  BRA    8176
....................             printf("b1.bco=2016"); 
0815C:  MOVLW  98
0815E:  MOVWF  FF6
08160:  MOVLW  0A
08162:  MOVWF  FF7
08164:  MOVLW  00
08166:  MOVWF  FF8
08168:  CALL   3410
....................             SendDataDisplay();  
0816C:  CALL   3442
....................             Desfogue_on; 
08170:  BSF    F8C.4
08172:  BCF    F95.4
....................          } 
....................          else{ 
08174:  BRA    818E
....................             printf("b1.bco=63488"); 
08176:  MOVLW  A4
08178:  MOVWF  FF6
0817A:  MOVLW  0A
0817C:  MOVWF  FF7
0817E:  MOVLW  00
08180:  MOVWF  FF8
08182:  CALL   3410
....................             SendDataDisplay();  
08186:  CALL   3442
....................             Desfogue_off; 
0818A:  BCF    F8C.4
0818C:  BCF    F95.4
....................          } 
....................           
....................          if(RX_Buffer[4]==0x01)//Oprimio EV Agua 
0818E:  DECFSZ 34,W
08190:  BRA    8198
....................          { 
....................             EstadoAgua=!EstadoAgua; 
08192:  BTG    xA0.7
....................             RX_Buffer[4]=0x00; 
08194:  CLRF   34
....................             RX_Buffer2[4]=0x00; 
08196:  CLRF   3F
....................          } 
....................           
....................          if(EstadoAgua){ 
08198:  BTFSS  xA0.7
0819A:  BRA    81B6
....................             printf("b0.bco=2016"); 
0819C:  MOVLW  B2
0819E:  MOVWF  FF6
081A0:  MOVLW  0A
081A2:  MOVWF  FF7
081A4:  MOVLW  00
081A6:  MOVWF  FF8
081A8:  CALL   3410
....................             SendDataDisplay();  
081AC:  CALL   3442
....................             AguaIn_on; 
081B0:  BSF    F8C.6
081B2:  BCF    F95.6
....................          } 
....................          else{ 
081B4:  BRA    81CE
....................             printf("b0.bco=63488"); 
081B6:  MOVLW  BE
081B8:  MOVWF  FF6
081BA:  MOVLW  0A
081BC:  MOVWF  FF7
081BE:  MOVLW  00
081C0:  MOVWF  FF8
081C2:  CALL   3410
....................             SendDataDisplay();  
081C6:  CALL   3442
....................             AguaIn_off; 
081CA:  BCF    F8C.6
081CC:  BCF    F95.6
....................          } 
....................           
....................          if(RX_Buffer[4]==0x03)//Oprimio EV Paso 
081CE:  MOVF   34,W
081D0:  SUBLW  03
081D2:  BNZ   81DA
....................          { 
....................             EstadoPaso=!EstadoPaso; 
081D4:  BTG    xA2.3
....................             RX_Buffer[4]=0x00; 
081D6:  CLRF   34
....................             RX_Buffer2[4]=0x00; 
081D8:  CLRF   3F
....................          } 
....................           
....................          if(EstadoPaso){ 
081DA:  BTFSS  xA2.3
081DC:  BRA    81F8
....................             printf("b2.bco=2016"); 
081DE:  MOVLW  CC
081E0:  MOVWF  FF6
081E2:  MOVLW  0A
081E4:  MOVWF  FF7
081E6:  MOVLW  00
081E8:  MOVWF  FF8
081EA:  CALL   3410
....................             SendDataDisplay();  
081EE:  CALL   3442
....................             Paso_on; 
081F2:  BSF    F8C.5
081F4:  BCF    F95.5
....................          } 
....................          else{ 
081F6:  BRA    8210
....................             printf("b2.bco=63488"); 
081F8:  MOVLW  D8
081FA:  MOVWF  FF6
081FC:  MOVLW  0A
081FE:  MOVWF  FF7
08200:  MOVLW  00
08202:  MOVWF  FF8
08204:  CALL   3410
....................             SendDataDisplay();  
08208:  CALL   3442
....................             Paso_off; 
0820C:  BCF    F8C.5
0820E:  BCF    F95.5
....................          } 
....................          
....................          /* 
....................          if(RX_Buffer[4]==0x05)//Oprimio Bloqueo 
....................          { 
....................             EstadoBloqueo=!EstadoBloqueo; 
....................             RX_Buffer[4]=0x00; 
....................             RX_Buffer2[4]=0x00; 
....................          } 
....................           
....................          if(EstadoBloqueo){ 
....................             printf("b4.bco=2016"); 
....................             SendDataDisplay();  
....................              
....................          } 
....................          else{ 
....................             printf("b4.bco=63488"); 
....................             SendDataDisplay();  
....................              
....................          } 
....................          */ 
....................           
....................          if(RX_Buffer[4]==0x04)//Oprimio SSR1 
08210:  MOVF   34,W
08212:  SUBLW  04
08214:  BNZ   821C
....................          { 
....................             EstadoSSR=!EstadoSSR; 
08216:  BTG    xA1.0
....................             RX_Buffer[4]=0x00; 
08218:  CLRF   34
....................             RX_Buffer2[4]=0x00; 
0821A:  CLRF   3F
....................          } 
....................           
....................          if(EstadoSSR){ 
0821C:  BTFSS  xA1.0
0821E:  BRA    823A
....................             printf("b3.bco=2016"); 
08220:  MOVLW  E6
08222:  MOVWF  FF6
08224:  MOVLW  0A
08226:  MOVWF  FF7
08228:  MOVLW  00
0822A:  MOVWF  FF8
0822C:  CALL   3410
....................             SendDataDisplay();  
08230:  CALL   3442
....................             SSR_on; 
08234:  BCF    F8B.2
08236:  BCF    F94.2
....................          } 
....................          else{ 
08238:  BRA    8252
....................             printf("b3.bco=63488"); 
0823A:  MOVLW  F2
0823C:  MOVWF  FF6
0823E:  MOVLW  0A
08240:  MOVWF  FF7
08242:  MOVLW  00
08244:  MOVWF  FF8
08246:  CALL   3410
....................             SendDataDisplay();  
0824A:  CALL   3442
....................             SSR_off; 
0824E:  BSF    F8B.2
08250:  BCF    F94.2
....................          } 
....................           
....................          if(DOOR){ 
08252:  BSF    F93.6
08254:  BTFSC  F81.6
08256:  BRA    826E
....................             printf("b8.bco=2016"); 
08258:  MOVLW  00
0825A:  MOVWF  FF6
0825C:  MOVLW  0B
0825E:  MOVWF  FF7
08260:  MOVLW  00
08262:  MOVWF  FF8
08264:  CALL   3410
....................             SendDataDisplay();  
08268:  CALL   3442
....................          }else{ 
0826C:  BRA    8282
....................             printf("b8.bco=63488"); 
0826E:  MOVLW  0C
08270:  MOVWF  FF6
08272:  MOVLW  0B
08274:  MOVWF  FF7
08276:  MOVLW  00
08278:  MOVWF  FF8
0827A:  CALL   3410
....................             SendDataDisplay();  
0827E:  CALL   3442
....................          } 
....................           
....................          if(TERM){ 
08282:  BSF    F93.5
08284:  BTFSC  F81.5
08286:  BRA    829E
....................             printf("b9.bco=2016"); 
08288:  MOVLW  1A
0828A:  MOVWF  FF6
0828C:  MOVLW  0B
0828E:  MOVWF  FF7
08290:  MOVLW  00
08292:  MOVWF  FF8
08294:  CALL   3410
....................             SendDataDisplay();  
08298:  CALL   3442
....................          }else{ 
0829C:  BRA    82B2
....................             printf("b9.bco=63488"); 
0829E:  MOVLW  26
082A0:  MOVWF  FF6
082A2:  MOVLW  0B
082A4:  MOVWF  FF7
082A6:  MOVLW  00
082A8:  MOVWF  FF8
082AA:  CALL   3410
....................             SendDataDisplay();  
082AE:  CALL   3442
....................          } 
....................           
....................          if(STOP){ 
082B2:  BSF    F93.7
082B4:  BTFSC  F81.7
082B6:  BRA    82CE
....................             printf("b10.bco=2016"); 
082B8:  MOVLW  34
082BA:  MOVWF  FF6
082BC:  MOVLW  0B
082BE:  MOVWF  FF7
082C0:  MOVLW  00
082C2:  MOVWF  FF8
082C4:  CALL   3410
....................             SendDataDisplay();  
082C8:  CALL   3442
....................          }else{ 
082CC:  BRA    82E2
....................             printf("b10.bco=63488"); 
082CE:  MOVLW  42
082D0:  MOVWF  FF6
082D2:  MOVLW  0B
082D4:  MOVWF  FF7
082D6:  MOVLW  00
082D8:  MOVWF  FF8
082DA:  CALL   3410
....................             SendDataDisplay();  
082DE:  CALL   3442
....................          } 
....................           
....................          /*if(PRES){ 
....................             printf("b11.bco=2016"); 
....................             SendDataDisplay();  
....................          }else{ 
....................             printf("b11.bco=63488"); 
....................             SendDataDisplay();  
....................          }*/ 
....................           
....................          if(RX_Buffer[4]==0x13)//Oprimio Buzzer 
082E2:  MOVF   34,W
082E4:  SUBLW  13
082E6:  BNZ   82EE
....................          { 
....................             EstadoBuzzer=!EstadoBuzzer; 
082E8:  BTG    xA2.4
....................             RX_Buffer[4]=0x00; 
082EA:  CLRF   34
....................             RX_Buffer2[4]=0x00; 
082EC:  CLRF   3F
....................          } 
....................           
....................          if(EstadoBuzzer){ 
082EE:  BTFSS  xA2.4
082F0:  BRA    830C
....................             printf("b12.bco=2016"); 
082F2:  MOVLW  50
082F4:  MOVWF  FF6
082F6:  MOVLW  0B
082F8:  MOVWF  FF7
082FA:  MOVLW  00
082FC:  MOVWF  FF8
082FE:  CALL   3410
....................             SendDataDisplay();  
08302:  CALL   3442
....................             Buzzer_on; 
08306:  BSF    F8C.0
08308:  BCF    F95.0
....................          } 
....................          else{ 
0830A:  BRA    8324
....................             printf("b12.bco=63488"); 
0830C:  MOVLW  5E
0830E:  MOVWF  FF6
08310:  MOVLW  0B
08312:  MOVWF  FF7
08314:  MOVLW  00
08316:  MOVWF  FF8
08318:  CALL   3410
....................             SendDataDisplay();  
0831C:  CALL   3442
....................             Buzzer_off; 
08320:  BCF    F8C.0
08322:  BCF    F95.0
....................          } 
....................           
....................          if(HIG){ 
08324:  BSF    F94.0
08326:  BTFSS  F82.0
08328:  BRA    8340
....................             printf("b16.bco=2016"); 
0832A:  MOVLW  6C
0832C:  MOVWF  FF6
0832E:  MOVLW  0B
08330:  MOVWF  FF7
08332:  MOVLW  00
08334:  MOVWF  FF8
08336:  CALL   3410
....................             SendDataDisplay();  
0833A:  CALL   3442
....................          }else{ 
0833E:  BRA    8354
....................             printf("b16.bco=63488"); 
08340:  MOVLW  7A
08342:  MOVWF  FF6
08344:  MOVLW  0B
08346:  MOVWF  FF7
08348:  MOVLW  00
0834A:  MOVWF  FF8
0834C:  CALL   3410
....................             SendDataDisplay();  
08350:  CALL   3442
....................          } 
....................           
....................          if(LOW){ 
08354:  BSF    F94.1
08356:  BTFSS  F82.1
08358:  BRA    8370
....................             printf("b17.bco=2016"); 
0835A:  MOVLW  88
0835C:  MOVWF  FF6
0835E:  MOVLW  0B
08360:  MOVWF  FF7
08362:  MOVLW  00
08364:  MOVWF  FF8
08366:  CALL   3410
....................             SendDataDisplay();  
0836A:  CALL   3442
....................          }else{ 
0836E:  BRA    8384
....................             printf("b17.bco=63488"); 
08370:  MOVLW  96
08372:  MOVWF  FF6
08374:  MOVLW  0B
08376:  MOVWF  FF7
08378:  MOVLW  00
0837A:  MOVWF  FF8
0837C:  CALL   3410
....................             SendDataDisplay();  
08380:  CALL   3442
....................          } 
....................           
....................          printf("b13.txt=\"ADC0:%3.0f\"",sensores(0));          
08384:  MOVLB  3
08386:  CLRF   xCA
08388:  MOVLB  0
0838A:  CALL   3494
0838E:  MOVFF  00,3C9
08392:  MOVFF  01,3CA
08396:  MOVFF  02,3CB
0839A:  MOVFF  03,3CC
0839E:  MOVLW  A4
083A0:  MOVWF  FF6
083A2:  MOVLW  0B
083A4:  MOVWF  FF7
083A6:  MOVLW  00
083A8:  MOVWF  FF8
083AA:  MOVLW  0E
083AC:  MOVLB  3
083AE:  MOVWF  xCD
083B0:  MOVLB  0
083B2:  CALL   43B8
083B6:  MOVLW  02
083B8:  MOVWF  FE9
083BA:  MOVFF  3CC,3D0
083BE:  MOVFF  3CB,3CF
083C2:  MOVFF  3CA,3CE
083C6:  MOVFF  3C9,3CD
083CA:  MOVLB  3
083CC:  CLRF   xD1
083CE:  MOVLB  0
083D0:  CALL   464C
083D4:  MOVLW  22
083D6:  BTFSS  F9E.4
083D8:  BRA    83D6
083DA:  MOVWF  FAD
....................          SendDataDisplay(); 
083DC:  CALL   3442
....................          printf("b14.txt=\"ADC1:%3.0f\"",sensores(1));          
083E0:  MOVLW  01
083E2:  MOVLB  3
083E4:  MOVWF  xCA
083E6:  MOVLB  0
083E8:  CALL   3494
083EC:  MOVFF  00,3C9
083F0:  MOVFF  01,3CA
083F4:  MOVFF  02,3CB
083F8:  MOVFF  03,3CC
083FC:  MOVLW  BA
083FE:  MOVWF  FF6
08400:  MOVLW  0B
08402:  MOVWF  FF7
08404:  MOVLW  00
08406:  MOVWF  FF8
08408:  MOVLW  0E
0840A:  MOVLB  3
0840C:  MOVWF  xCD
0840E:  MOVLB  0
08410:  CALL   43B8
08414:  MOVLW  02
08416:  MOVWF  FE9
08418:  MOVFF  3CC,3D0
0841C:  MOVFF  3CB,3CF
08420:  MOVFF  3CA,3CE
08424:  MOVFF  3C9,3CD
08428:  MOVLB  3
0842A:  CLRF   xD1
0842C:  MOVLB  0
0842E:  CALL   464C
08432:  MOVLW  22
08434:  BTFSS  F9E.4
08436:  BRA    8434
08438:  MOVWF  FAD
....................          SendDataDisplay(); 
0843A:  CALL   3442
....................          printf("b15.txt=\"A2:%3.0f %03Lu\"",sensores(2),PresionCamara); 
0843E:  MOVLW  02
08440:  MOVLB  3
08442:  MOVWF  xCA
08444:  MOVLB  0
08446:  CALL   3494
0844A:  MOVFF  00,3C9
0844E:  MOVFF  01,3CA
08452:  MOVFF  02,3CB
08456:  MOVFF  03,3CC
0845A:  MOVLW  D0
0845C:  MOVWF  FF6
0845E:  MOVLW  0B
08460:  MOVWF  FF7
08462:  MOVLW  00
08464:  MOVWF  FF8
08466:  MOVLW  0C
08468:  MOVLB  3
0846A:  MOVWF  xCD
0846C:  MOVLB  0
0846E:  CALL   43B8
08472:  MOVLW  02
08474:  MOVWF  FE9
08476:  MOVFF  3CC,3D0
0847A:  MOVFF  3CB,3CF
0847E:  MOVFF  3CA,3CE
08482:  MOVFF  3C9,3CD
08486:  MOVLB  3
08488:  CLRF   xD1
0848A:  MOVLB  0
0848C:  CALL   464C
08490:  MOVLW  20
08492:  BTFSS  F9E.4
08494:  BRA    8492
08496:  MOVWF  FAD
08498:  MOVLW  0A
0849A:  MOVWF  FE9
0849C:  MOVFF  34F,3CE
084A0:  MOVFF  34E,3CD
084A4:  CALL   44DE
084A8:  MOVLW  22
084AA:  BTFSS  F9E.4
084AC:  BRA    84AA
084AE:  MOVWF  FAD
....................          SendDataDisplay(); 
084B0:  CALL   3442
....................          printf("b18.txt=\"A3:%3.0f %03Lu\"",sensores(3),PresionPreCamara); 
084B4:  MOVLW  03
084B6:  MOVLB  3
084B8:  MOVWF  xCA
084BA:  MOVLB  0
084BC:  CALL   3494
084C0:  MOVFF  00,3C9
084C4:  MOVFF  01,3CA
084C8:  MOVFF  02,3CB
084CC:  MOVFF  03,3CC
084D0:  MOVLW  EA
084D2:  MOVWF  FF6
084D4:  MOVLW  0B
084D6:  MOVWF  FF7
084D8:  MOVLW  00
084DA:  MOVWF  FF8
084DC:  MOVLW  0C
084DE:  MOVLB  3
084E0:  MOVWF  xCD
084E2:  MOVLB  0
084E4:  CALL   43B8
084E8:  MOVLW  02
084EA:  MOVWF  FE9
084EC:  MOVFF  3CC,3D0
084F0:  MOVFF  3CB,3CF
084F4:  MOVFF  3CA,3CE
084F8:  MOVFF  3C9,3CD
084FC:  MOVLB  3
084FE:  CLRF   xD1
08500:  MOVLB  0
08502:  CALL   464C
08506:  MOVLW  20
08508:  BTFSS  F9E.4
0850A:  BRA    8508
0850C:  MOVWF  FAD
0850E:  MOVLW  0A
08510:  MOVWF  FE9
08512:  MOVFF  351,3CE
08516:  MOVFF  350,3CD
0851A:  CALL   44DE
0851E:  MOVLW  22
08520:  BTFSS  F9E.4
08522:  BRA    8520
08524:  MOVWF  FAD
....................          SendDataDisplay(); 
08526:  CALL   3442
....................          printf("b20.txt=\"T1:%3.1f\"",Temperatura); 
0852A:  MOVLW  04
0852C:  MOVWF  FF6
0852E:  MOVLW  0C
08530:  MOVWF  FF7
08532:  MOVLW  00
08534:  MOVWF  FF8
08536:  MOVLW  0C
08538:  MOVLB  3
0853A:  MOVWF  xCD
0853C:  MOVLB  0
0853E:  CALL   43B8
08542:  MOVLW  02
08544:  MOVWF  FE9
08546:  MOVFF  316,3D0
0854A:  MOVFF  315,3CF
0854E:  MOVFF  314,3CE
08552:  MOVFF  313,3CD
08556:  MOVLW  01
08558:  MOVLB  3
0855A:  MOVWF  xD1
0855C:  MOVLB  0
0855E:  CALL   464C
08562:  MOVLW  22
08564:  BTFSS  F9E.4
08566:  BRA    8564
08568:  MOVWF  FAD
....................          SendDataDisplay(); 
0856A:  CALL   3442
....................           
....................          if(RX_Buffer[4]==0x21)//Oprimio salir 
0856E:  MOVF   34,W
08570:  SUBLW  21
08572:  BNZ   85A0
....................          { 
....................             printf("page MenuPrincipal"); 
08574:  MOVLW  18
08576:  MOVWF  FF6
08578:  MOVLW  0C
0857A:  MOVWF  FF7
0857C:  MOVLW  00
0857E:  MOVWF  FF8
08580:  CALL   3410
....................             SendDataDisplay(); 
08584:  CALL   3442
....................             PantallaPrincipal=0; 
08588:  MOVLB  2
0858A:  CLRF   xD3
....................             PruebaEstados=OFF;Desfogue_off;AguaIn_off;SSR_off; 
0858C:  MOVLB  0
0858E:  BCF    xA1.1
08590:  BCF    F8C.4
08592:  BCF    F95.4
08594:  BCF    F8C.6
08596:  BCF    F95.6
08598:  BSF    F8B.2
0859A:  BCF    F94.2
....................             ApagaSalidas(); 
0859C:  CALL   3478
....................             // Falta apagar Todo 
....................          } 
....................           
....................          if(UP){ 
085A0:  BSF    F93.0
085A2:  BTFSC  F81.0
085A4:  BRA    86E8
....................             delay_ms(100); 
085A6:  MOVLW  64
085A8:  MOVLB  3
085AA:  MOVWF  xD4
085AC:  MOVLB  0
085AE:  CALL   16D0
....................             if(UP){ 
085B2:  BSF    F93.0
085B4:  BTFSC  F81.0
085B6:  BRA    86E8
....................                G1=41-sensores(2); 
085B8:  MOVLW  02
085BA:  MOVLB  3
085BC:  MOVWF  xCA
085BE:  MOVLB  0
085C0:  CALL   3494
085C4:  MOVFF  FEA,3CA
085C8:  MOVFF  FE9,3C9
085CC:  BSF    FD8.1
085CE:  MOVLB  3
085D0:  CLRF   xD7
085D2:  CLRF   xD6
085D4:  MOVLW  24
085D6:  MOVWF  xD5
085D8:  MOVLW  84
085DA:  MOVWF  xD4
085DC:  MOVFF  03,3DB
085E0:  MOVFF  02,3DA
085E4:  MOVFF  01,3D9
085E8:  MOVFF  00,3D8
085EC:  MOVLB  0
085EE:  CALL   188C
085F2:  MOVFF  3CA,FEA
085F6:  MOVFF  3C9,FE9
085FA:  MOVFF  03,3D7
085FE:  MOVFF  02,3D6
08602:  MOVFF  01,3D5
08606:  MOVFF  00,3D4
0860A:  CALL   3B36
0860E:  MOVFF  01,37B
....................                if(G1<0) 
08612:  MOVLB  3
08614:  BTFSC  x7B.7
08616:  BRA    861A
08618:  BRA    8620
....................                   sg1=10; 
0861A:  MOVLW  0A
0861C:  MOVWF  x7D
....................                else 
0861E:  BRA    8624
....................                   sg1=5; 
08620:  MOVLW  05
08622:  MOVWF  x7D
....................                    
....................                write_eeprom(42,(int8)G1); 
08624:  CLRF   FAA
08626:  MOVLW  2A
08628:  MOVWF  FA9
0862A:  MOVFF  37B,FA8
0862E:  BCF    FA6.6
08630:  BCF    FA6.7
08632:  BSF    FA6.2
08634:  MOVF   FF2,W
08636:  MOVWF  00
08638:  BCF    FF2.6
0863A:  BCF    FF2.7
0863C:  MOVLB  F
0863E:  MOVLW  55
08640:  MOVWF  FA7
08642:  MOVLW  AA
08644:  MOVWF  FA7
08646:  BSF    FA6.1
08648:  BTFSC  FA6.1
0864A:  BRA    8648
0864C:  BCF    FA6.2
0864E:  MOVF   00,W
08650:  IORWF  FF2,F
....................                delay_ms(10); 
08652:  MOVLW  0A
08654:  MOVLB  3
08656:  MOVWF  xD4
08658:  MOVLB  0
0865A:  CALL   16D0
....................                write_eeprom(44,(int8)sg1); 
0865E:  CLRF   FAA
08660:  MOVLW  2C
08662:  MOVWF  FA9
08664:  MOVFF  37D,FA8
08668:  BCF    FA6.6
0866A:  BCF    FA6.7
0866C:  BSF    FA6.2
0866E:  MOVF   FF2,W
08670:  MOVWF  00
08672:  BCF    FF2.6
08674:  BCF    FF2.7
08676:  MOVLB  F
08678:  MOVLW  55
0867A:  MOVWF  FA7
0867C:  MOVLW  AA
0867E:  MOVWF  FA7
08680:  BSF    FA6.1
08682:  BTFSC  FA6.1
08684:  BRA    8682
08686:  BCF    FA6.2
08688:  MOVF   00,W
0868A:  IORWF  FF2,F
....................                delay_ms(10); 
0868C:  MOVLW  0A
0868E:  MOVLB  3
08690:  MOVWF  xD4
08692:  MOVLB  0
08694:  CALL   16D0
....................                Buzzer_on; 
08698:  BSF    F8C.0
0869A:  BCF    F95.0
....................                delay_ms(1000); 
0869C:  MOVLW  04
0869E:  MOVLB  3
086A0:  MOVWF  xC9
086A2:  MOVLW  FA
086A4:  MOVWF  xD4
086A6:  MOVLB  0
086A8:  CALL   16D0
086AC:  MOVLB  3
086AE:  DECFSZ xC9,F
086B0:  BRA    86A2
....................                Buzzer_off; 
086B2:  BCF    F8C.0
086B4:  BCF    F95.0
....................                delay_ms(1000); 
086B6:  MOVLW  04
086B8:  MOVWF  xC9
086BA:  MOVLW  FA
086BC:  MOVWF  xD4
086BE:  MOVLB  0
086C0:  CALL   16D0
086C4:  MOVLB  3
086C6:  DECFSZ xC9,F
086C8:  BRA    86BA
....................                Buzzer_on; 
086CA:  BSF    F8C.0
086CC:  BCF    F95.0
....................                delay_ms(1000); 
086CE:  MOVLW  04
086D0:  MOVWF  xC9
086D2:  MOVLW  FA
086D4:  MOVWF  xD4
086D6:  MOVLB  0
086D8:  CALL   16D0
086DC:  MOVLB  3
086DE:  DECFSZ xC9,F
086E0:  BRA    86D2
....................                Buzzer_off; 
086E2:  BCF    F8C.0
086E4:  BCF    F95.0
086E6:  MOVLB  0
....................             } 
....................          } 
....................           
....................          if(DOWN){ 
086E8:  BSF    F93.1
086EA:  BTFSC  F81.1
086EC:  BRA    8830
....................             delay_ms(100); 
086EE:  MOVLW  64
086F0:  MOVLB  3
086F2:  MOVWF  xD4
086F4:  MOVLB  0
086F6:  CALL   16D0
....................             if(DOWN){ 
086FA:  BSF    F93.1
086FC:  BTFSC  F81.1
086FE:  BRA    8830
....................                G2=41-sensores(3); 
08700:  MOVLW  03
08702:  MOVLB  3
08704:  MOVWF  xCA
08706:  MOVLB  0
08708:  CALL   3494
0870C:  MOVFF  FEA,3CA
08710:  MOVFF  FE9,3C9
08714:  BSF    FD8.1
08716:  MOVLB  3
08718:  CLRF   xD7
0871A:  CLRF   xD6
0871C:  MOVLW  24
0871E:  MOVWF  xD5
08720:  MOVLW  84
08722:  MOVWF  xD4
08724:  MOVFF  03,3DB
08728:  MOVFF  02,3DA
0872C:  MOVFF  01,3D9
08730:  MOVFF  00,3D8
08734:  MOVLB  0
08736:  CALL   188C
0873A:  MOVFF  3CA,FEA
0873E:  MOVFF  3C9,FE9
08742:  MOVFF  03,3D7
08746:  MOVFF  02,3D6
0874A:  MOVFF  01,3D5
0874E:  MOVFF  00,3D4
08752:  CALL   3B36
08756:  MOVFF  01,37C
....................                if(G2<0) 
0875A:  MOVLB  3
0875C:  BTFSC  x7C.7
0875E:  BRA    8762
08760:  BRA    8768
....................                   sg2=10; 
08762:  MOVLW  0A
08764:  MOVWF  x7E
....................                else 
08766:  BRA    876C
....................                   sg2=5; 
08768:  MOVLW  05
0876A:  MOVWF  x7E
....................                    
....................                write_eeprom(43,(int8)G2); 
0876C:  CLRF   FAA
0876E:  MOVLW  2B
08770:  MOVWF  FA9
08772:  MOVFF  37C,FA8
08776:  BCF    FA6.6
08778:  BCF    FA6.7
0877A:  BSF    FA6.2
0877C:  MOVF   FF2,W
0877E:  MOVWF  00
08780:  BCF    FF2.6
08782:  BCF    FF2.7
08784:  MOVLB  F
08786:  MOVLW  55
08788:  MOVWF  FA7
0878A:  MOVLW  AA
0878C:  MOVWF  FA7
0878E:  BSF    FA6.1
08790:  BTFSC  FA6.1
08792:  BRA    8790
08794:  BCF    FA6.2
08796:  MOVF   00,W
08798:  IORWF  FF2,F
....................                delay_ms(10); 
0879A:  MOVLW  0A
0879C:  MOVLB  3
0879E:  MOVWF  xD4
087A0:  MOVLB  0
087A2:  CALL   16D0
....................                write_eeprom(45,(int8)sg2); 
087A6:  CLRF   FAA
087A8:  MOVLW  2D
087AA:  MOVWF  FA9
087AC:  MOVFF  37E,FA8
087B0:  BCF    FA6.6
087B2:  BCF    FA6.7
087B4:  BSF    FA6.2
087B6:  MOVF   FF2,W
087B8:  MOVWF  00
087BA:  BCF    FF2.6
087BC:  BCF    FF2.7
087BE:  MOVLB  F
087C0:  MOVLW  55
087C2:  MOVWF  FA7
087C4:  MOVLW  AA
087C6:  MOVWF  FA7
087C8:  BSF    FA6.1
087CA:  BTFSC  FA6.1
087CC:  BRA    87CA
087CE:  BCF    FA6.2
087D0:  MOVF   00,W
087D2:  IORWF  FF2,F
....................                delay_ms(10); 
087D4:  MOVLW  0A
087D6:  MOVLB  3
087D8:  MOVWF  xD4
087DA:  MOVLB  0
087DC:  CALL   16D0
....................                Buzzer_on; 
087E0:  BSF    F8C.0
087E2:  BCF    F95.0
....................                delay_ms(1000); 
087E4:  MOVLW  04
087E6:  MOVLB  3
087E8:  MOVWF  xC9
087EA:  MOVLW  FA
087EC:  MOVWF  xD4
087EE:  MOVLB  0
087F0:  CALL   16D0
087F4:  MOVLB  3
087F6:  DECFSZ xC9,F
087F8:  BRA    87EA
....................                Buzzer_off; 
087FA:  BCF    F8C.0
087FC:  BCF    F95.0
....................                delay_ms(1000); 
087FE:  MOVLW  04
08800:  MOVWF  xC9
08802:  MOVLW  FA
08804:  MOVWF  xD4
08806:  MOVLB  0
08808:  CALL   16D0
0880C:  MOVLB  3
0880E:  DECFSZ xC9,F
08810:  BRA    8802
....................                Buzzer_on; 
08812:  BSF    F8C.0
08814:  BCF    F95.0
....................                delay_ms(1000); 
08816:  MOVLW  04
08818:  MOVWF  xC9
0881A:  MOVLW  FA
0881C:  MOVWF  xD4
0881E:  MOVLB  0
08820:  CALL   16D0
08824:  MOVLB  3
08826:  DECFSZ xC9,F
08828:  BRA    881A
....................                Buzzer_off; 
0882A:  BCF    F8C.0
0882C:  BCF    F95.0
0882E:  MOVLB  0
....................             } 
....................          } 
....................      } 
.................... //_--------------------------------------------------------------------------------------------------------------------------------------------------------     
....................  
.................... //_--------------------------------------------------------------------------------------------------------------------------------------------------------       
....................       if(Menu==7){ //Menu de Configuracin de Fecha y Hora 
08830:  MOVLB  3
08832:  MOVF   x35,W
08834:  SUBLW  07
08836:  BTFSS  FD8.2
08838:  BRA    8C54
....................        
....................          if(RX_Buffer[4]==0x0a){//Selecciono Hora 
0883A:  MOVF   34,W
0883C:  SUBLW  0A
0883E:  BNZ   8844
....................             Opcion=4; 
08840:  MOVLW  04
08842:  MOVWF  x3D
....................          } 
....................           
....................          if(RX_Buffer[4]==0x0b){//Selecciono Minuto 
08844:  MOVF   34,W
08846:  SUBLW  0B
08848:  BNZ   884E
....................             Opcion=5; 
0884A:  MOVLW  05
0884C:  MOVWF  x3D
....................          } 
....................           
....................          if(RX_Buffer[4]==0x0c){//Selecciono Dia 
0884E:  MOVF   34,W
08850:  SUBLW  0C
08852:  BNZ   8858
....................             Opcion=1; 
08854:  MOVLW  01
08856:  MOVWF  x3D
....................          } 
....................           
....................          if(RX_Buffer[4]==0x0d){//Selecciono Hora 
08858:  MOVF   34,W
0885A:  SUBLW  0D
0885C:  BNZ   8862
....................             Opcion=2; 
0885E:  MOVLW  02
08860:  MOVWF  x3D
....................          } 
....................           
....................          if(RX_Buffer[4]==0x0e){//Selecciono Year 
08862:  MOVF   34,W
08864:  SUBLW  0E
08866:  BNZ   886C
....................             Opcion=3; 
08868:  MOVLW  03
0886A:  MOVWF  x3D
....................          } 
....................           
....................          if(RIGHT){ 
0886C:  BSF    F93.2
0886E:  BTFSC  F81.2
08870:  BRA    8886
....................             delay_ms(200); 
08872:  MOVLW  C8
08874:  MOVWF  xD4
08876:  MOVLB  0
08878:  CALL   16D0
....................             if(RIGHT){ 
0887C:  BSF    F93.2
0887E:  BTFSC  F81.2
08880:  BRA    8888
....................                Opcion++; 
08882:  MOVLB  3
08884:  INCF   x3D,F
08886:  MOVLB  0
....................             } 
....................          } 
....................           
....................          if(Opcion>5) 
08888:  MOVLB  3
0888A:  MOVF   x3D,W
0888C:  SUBLW  05
0888E:  BC    8894
....................             Opcion=1; 
08890:  MOVLW  01
08892:  MOVWF  x3D
....................          if(Opcion<1) 
08894:  MOVF   x3D,F
08896:  BNZ   889C
....................             Opcion=5; 
08898:  MOVLW  05
0889A:  MOVWF  x3D
....................              
....................          if(RX_Buffer[4]==0x11 || LEFT){//Selecciono Regresar 
0889C:  MOVF   34,W
0889E:  SUBLW  11
088A0:  BZ    88A8
088A2:  BSF    F93.3
088A4:  BTFSC  F81.3
088A6:  BRA    89B8
....................             printf("page MenuPrincipal"); 
088A8:  MOVLW  2C
088AA:  MOVWF  FF6
088AC:  MOVLW  0C
088AE:  MOVWF  FF7
088B0:  MOVLW  00
088B2:  MOVWF  FF8
088B4:  MOVLB  0
088B6:  CALL   3410
....................             SendDataDisplay();   
088BA:  CALL   3442
....................             PantallaPrincipal=0; 
088BE:  MOVLB  2
088C0:  CLRF   xD3
....................             Op=OFF; 
088C2:  MOVLB  0
088C4:  BCF    xA1.6
....................             Op2=OFF; 
088C6:  BCF    xA1.7
....................              
....................             if(esBisiesto(YearTx)) 
088C8:  MOVFF  372,3C9
088CC:  CALL   4838
088D0:  MOVF   01,F
088D2:  BZ    88EE
....................                Modulo=Bisiesto[MesTx]; 
088D4:  CLRF   03
088D6:  MOVLB  3
088D8:  MOVF   x73,W
088DA:  ADDLW  93
088DC:  MOVWF  FE9
088DE:  MOVLW  00
088E0:  ADDWFC 03,W
088E2:  MOVWF  FEA
088E4:  MOVFF  FEF,2D5
088E8:  MOVLB  2
....................             else 
088EA:  BRA    8904
088EC:  MOVLB  0
....................                Modulo=Regular[MesTx]; 
088EE:  CLRF   03
088F0:  MOVLB  3
088F2:  MOVF   x73,W
088F4:  ADDLW  87
088F6:  MOVWF  FE9
088F8:  MOVLW  00
088FA:  ADDWFC 03,W
088FC:  MOVWF  FEA
088FE:  MOVFF  FEF,2D5
08902:  MOVLB  2
....................           
....................             dowTx=((YearTx-1)%7+((YearTx-1)/4-3*((YearTx-1)/100+1)/4)%7+Modulo+DiaTx%7)%7; 
08904:  MOVLW  01
08906:  MOVLB  3
08908:  SUBWF  x72,W
0890A:  MOVWF  xCA
0890C:  MOVWF  xD2
0890E:  MOVLW  07
08910:  MOVWF  xD3
08912:  MOVLB  0
08914:  CALL   43EA
08918:  MOVFF  00,3C9
0891C:  MOVLW  01
0891E:  MOVLB  3
08920:  SUBWF  x72,W
08922:  MOVWF  00
08924:  RRCF   00,W
08926:  MOVWF  xCA
08928:  RRCF   xCA,F
0892A:  MOVLW  3F
0892C:  ANDWF  xCA,F
0892E:  MOVLW  01
08930:  SUBWF  x72,W
08932:  MOVWF  xCC
08934:  MOVWF  xD2
08936:  MOVLW  64
08938:  MOVWF  xD3
0893A:  MOVLB  0
0893C:  CALL   43EA
08940:  MOVLW  01
08942:  ADDWF  01,W
08944:  MULLW  03
08946:  MOVFF  FF3,00
0894A:  RRCF   00,F
0894C:  RRCF   00,F
0894E:  MOVLW  3F
08950:  ANDWF  00,F
08952:  MOVF   00,W
08954:  MOVLB  3
08956:  SUBWF  xCA,W
08958:  MOVWF  xCB
0895A:  MOVWF  xD2
0895C:  MOVLW  07
0895E:  MOVWF  xD3
08960:  MOVLB  0
08962:  CALL   43EA
08966:  MOVF   00,W
08968:  MOVLB  3
0896A:  ADDWF  xC9,W
0896C:  MOVLB  2
0896E:  ADDWF  xD5,W
08970:  MOVLB  3
08972:  MOVWF  xC9
08974:  MOVFF  374,3D2
08978:  MOVLW  07
0897A:  MOVWF  xD3
0897C:  MOVLB  0
0897E:  CALL   43EA
08982:  MOVF   00,W
08984:  MOVLB  3
08986:  ADDWF  xC9,W
08988:  MOVWF  xCA
0898A:  MOVWF  xD2
0898C:  MOVLW  07
0898E:  MOVWF  xD3
08990:  MOVLB  0
08992:  CALL   43EA
08996:  MOVFF  00,378
....................             rtc_set_datetime(DiaTx,MesTx,YearTx,dowTx,HoraTx,MinutoTx); 
0899A:  MOVFF  374,3C9
0899E:  MOVFF  373,3CA
089A2:  MOVFF  372,3CB
089A6:  MOVFF  378,3CC
089AA:  MOVFF  375,3CD
089AE:  MOVFF  376,3CE
089B2:  GOTO   48BA
089B6:  MOVLB  3
....................          } 
....................           
....................          if((RX_Buffer[4]==0x2a)|| UP){//Tecla Arriba Oprimida 
089B8:  MOVF   34,W
089BA:  SUBLW  2A
089BC:  BZ    89C4
089BE:  BSF    F93.0
089C0:  BTFSC  F81.0
089C2:  BRA    8AC0
....................             delay_ms(200); 
089C4:  MOVLW  C8
089C6:  MOVWF  xD4
089C8:  MOVLB  0
089CA:  CALL   16D0
....................             if((RX_Buffer[4]==0x2a)|| UP){    
089CE:  MOVF   34,W
089D0:  SUBLW  2A
089D2:  BZ    89DA
089D4:  BSF    F93.0
089D6:  BTFSC  F81.0
089D8:  BRA    8AC2
....................                if(Opcion==1){ 
089DA:  MOVLB  3
089DC:  DECFSZ x3D,W
089DE:  BRA    8A6C
....................                   if(MesTx==2){ 
089E0:  MOVF   x73,W
089E2:  SUBLW  02
089E4:  BNZ   8A1A
....................                      if(esBisiesto(YearTx)){ 
089E6:  MOVFF  372,3C9
089EA:  MOVLB  0
089EC:  CALL   4838
089F0:  MOVF   01,F
089F2:  BZ    8A08
....................                         if(DiaTx<29) 
089F4:  MOVLB  3
089F6:  MOVF   x74,W
089F8:  SUBLW  1C
089FA:  BNC   8A00
....................                            DiaTx++; 
089FC:  INCF   x74,F
....................                         else 
089FE:  BRA    8A04
....................                            DiaTx=1;    
08A00:  MOVLW  01
08A02:  MOVWF  x74
....................                      }else{ 
08A04:  BRA    8A18
08A06:  MOVLB  0
....................                         if(DiaTx<28) 
08A08:  MOVLB  3
08A0A:  MOVF   x74,W
08A0C:  SUBLW  1B
08A0E:  BNC   8A14
....................                            DiaTx++; 
08A10:  INCF   x74,F
....................                         else 
08A12:  BRA    8A18
....................                            DiaTx=1;    
08A14:  MOVLW  01
08A16:  MOVWF  x74
....................                      } 
....................                   }else{ 
08A18:  BRA    8A6A
....................                      if(MesTx<=7){ 
08A1A:  MOVF   x73,W
08A1C:  SUBLW  07
08A1E:  BNC   8A46
....................                         if(MesTx % 2 ==0){ 
08A20:  MOVF   x73,W
08A22:  ANDLW  01
08A24:  BNZ   8A36
....................                            if(DiaTx<30) 
08A26:  MOVF   x74,W
08A28:  SUBLW  1D
08A2A:  BNC   8A30
....................                               DiaTx++;     
08A2C:  INCF   x74,F
....................                            else 
08A2E:  BRA    8A34
....................                               DiaTx=1;    
08A30:  MOVLW  01
08A32:  MOVWF  x74
....................                         }else{ 
08A34:  BRA    8A44
....................                            if(DiaTx<31) 
08A36:  MOVF   x74,W
08A38:  SUBLW  1E
08A3A:  BNC   8A40
....................                               DiaTx++;     
08A3C:  INCF   x74,F
....................                            else 
08A3E:  BRA    8A44
....................                               DiaTx=1;    
08A40:  MOVLW  01
08A42:  MOVWF  x74
....................                         }     
....................                      }else{ 
08A44:  BRA    8A6A
....................                         if(MesTx % 2 ==0){ 
08A46:  MOVF   x73,W
08A48:  ANDLW  01
08A4A:  BNZ   8A5C
....................                            if(DiaTx<31) 
08A4C:  MOVF   x74,W
08A4E:  SUBLW  1E
08A50:  BNC   8A56
....................                               DiaTx++;   
08A52:  INCF   x74,F
....................                            else 
08A54:  BRA    8A5A
....................                               DiaTx=1; 
08A56:  MOVLW  01
08A58:  MOVWF  x74
....................                         }else{ 
08A5A:  BRA    8A6A
....................                            if(DiaTx<30) 
08A5C:  MOVF   x74,W
08A5E:  SUBLW  1D
08A60:  BNC   8A66
....................                               DiaTx++;     
08A62:  INCF   x74,F
....................                            else 
08A64:  BRA    8A6A
....................                               DiaTx=1; 
08A66:  MOVLW  01
08A68:  MOVWF  x74
....................                         }     
....................                      } 
....................                   } 
....................                }else if(Opcion==2){ 
08A6A:  BRA    8ABC
08A6C:  MOVF   x3D,W
08A6E:  SUBLW  02
08A70:  BNZ   8A82
....................                   if(MesTx<12) 
08A72:  MOVF   x73,W
08A74:  SUBLW  0B
08A76:  BNC   8A7C
....................                      MesTx++; 
08A78:  INCF   x73,F
....................                   else 
08A7A:  BRA    8A80
....................                      MesTx=1; 
08A7C:  MOVLW  01
08A7E:  MOVWF  x73
....................                }else if(Opcion==3){ 
08A80:  BRA    8ABC
08A82:  MOVF   x3D,W
08A84:  SUBLW  03
08A86:  BNZ   8A96
....................                   if(YearTx<99) 
08A88:  MOVF   x72,W
08A8A:  SUBLW  62
08A8C:  BNC   8A92
....................                      YearTx++; 
08A8E:  INCF   x72,F
....................                   else  
08A90:  BRA    8A94
....................                      YearTx=0; 
08A92:  CLRF   x72
....................                }else if(Opcion==4){ 
08A94:  BRA    8ABC
08A96:  MOVF   x3D,W
08A98:  SUBLW  04
08A9A:  BNZ   8AAA
....................                   if(HoraTx<24) 
08A9C:  MOVF   x75,W
08A9E:  SUBLW  17
08AA0:  BNC   8AA6
....................                      HoraTx++; 
08AA2:  INCF   x75,F
....................                   else 
08AA4:  BRA    8AA8
....................                      HoraTx=0; 
08AA6:  CLRF   x75
....................                }else if(Opcion==5){ 
08AA8:  BRA    8ABC
08AAA:  MOVF   x3D,W
08AAC:  SUBLW  05
08AAE:  BNZ   8ABC
....................                   if(MinutoTx<59) 
08AB0:  MOVF   x76,W
08AB2:  SUBLW  3A
08AB4:  BNC   8ABA
....................                      MinutoTx++; 
08AB6:  INCF   x76,F
....................                   else 
08AB8:  BRA    8ABC
....................                      MinutoTx=0; 
08ABA:  CLRF   x76
....................                } 
....................                RX_Buffer[4]=0x00; 
08ABC:  CLRF   34
....................                RX_Buffer2[4]=0x00; 
08ABE:  CLRF   3F
08AC0:  MOVLB  0
....................             } 
....................          } 
....................           
....................          if(RX_Buffer[4]==0x2b || DOWN){//Tecla Abajo Oprimida 
08AC2:  MOVF   34,W
08AC4:  SUBLW  2B
08AC6:  BZ    8ACE
08AC8:  BSF    F93.1
08ACA:  BTFSC  F81.1
08ACC:  BRA    8B4A
....................             delay_ms(200); 
08ACE:  MOVLW  C8
08AD0:  MOVLB  3
08AD2:  MOVWF  xD4
08AD4:  MOVLB  0
08AD6:  CALL   16D0
....................             if(RX_Buffer[4]==0x2b || DOWN){    
08ADA:  MOVF   34,W
08ADC:  SUBLW  2B
08ADE:  BZ    8AE6
08AE0:  BSF    F93.1
08AE2:  BTFSC  F81.1
08AE4:  BRA    8B4A
....................                if(Opcion==1){ 
08AE6:  MOVLB  3
08AE8:  DECFSZ x3D,W
08AEA:  BRA    8AF4
....................                   if(DiaTx>0) 
08AEC:  MOVF   x74,F
08AEE:  BZ    8AF2
....................                      DiaTx--; 
08AF0:  DECF   x74,F
....................                }else if(Opcion==2){ 
08AF2:  BRA    8B44
08AF4:  MOVF   x3D,W
08AF6:  SUBLW  02
08AF8:  BNZ   8B0A
....................                   if(MesTx>1) 
08AFA:  MOVF   x73,W
08AFC:  SUBLW  01
08AFE:  BC    8B04
....................                      MesTx--; 
08B00:  DECF   x73,F
....................                   else 
08B02:  BRA    8B08
....................                      MesTx=12; 
08B04:  MOVLW  0C
08B06:  MOVWF  x73
....................                }else if(Opcion==3){ 
08B08:  BRA    8B44
08B0A:  MOVF   x3D,W
08B0C:  SUBLW  03
08B0E:  BNZ   8B1E
....................                   if(YearTx>0) 
08B10:  MOVF   x72,F
08B12:  BZ    8B18
....................                      YearTx--; 
08B14:  DECF   x72,F
....................                   else 
08B16:  BRA    8B1C
....................                      YearTx=99; 
08B18:  MOVLW  63
08B1A:  MOVWF  x72
....................                }else if(Opcion==4){ 
08B1C:  BRA    8B44
08B1E:  MOVF   x3D,W
08B20:  SUBLW  04
08B22:  BNZ   8B32
....................                   if(HoraTx>0) 
08B24:  MOVF   x75,F
08B26:  BZ    8B2C
....................                      HoraTx--; 
08B28:  DECF   x75,F
....................                   else 
08B2A:  BRA    8B30
....................                      HoraTx=23; 
08B2C:  MOVLW  17
08B2E:  MOVWF  x75
....................                }else if(Opcion==5){ 
08B30:  BRA    8B44
08B32:  MOVF   x3D,W
08B34:  SUBLW  05
08B36:  BNZ   8B44
....................                   if(MinutoTx>0) 
08B38:  MOVF   x76,F
08B3A:  BZ    8B40
....................                      MinutoTx--; 
08B3C:  DECF   x76,F
....................                   else 
08B3E:  BRA    8B44
....................                      MinutoTx=59; 
08B40:  MOVLW  3B
08B42:  MOVWF  x76
....................                } 
....................                RX_Buffer[4]=0x00; 
08B44:  CLRF   34
....................                RX_Buffer2[4]=0x00; 
08B46:  CLRF   3F
08B48:  MOVLB  0
....................             } 
....................          } 
....................        
....................       printf("thora.txt=\"%02u\"",HoraTx); 
08B4A:  MOVLW  40
08B4C:  MOVWF  FF6
08B4E:  MOVLW  0C
08B50:  MOVWF  FF7
08B52:  MOVLW  00
08B54:  MOVWF  FF8
08B56:  MOVLW  0B
08B58:  MOVLB  3
08B5A:  MOVWF  xCD
08B5C:  MOVLB  0
08B5E:  CALL   43B8
08B62:  MOVFF  375,3CC
08B66:  MOVLW  01
08B68:  MOVLB  3
08B6A:  MOVWF  xCD
08B6C:  MOVLB  0
08B6E:  CALL   4416
08B72:  MOVLW  22
08B74:  BTFSS  F9E.4
08B76:  BRA    8B74
08B78:  MOVWF  FAD
....................       SendDataDisplay(); 
08B7A:  CALL   3442
....................       printf("tminutos.txt=\"%02u\"",MinutoTx); 
08B7E:  MOVLW  52
08B80:  MOVWF  FF6
08B82:  MOVLW  0C
08B84:  MOVWF  FF7
08B86:  MOVLW  00
08B88:  MOVWF  FF8
08B8A:  MOVLW  0E
08B8C:  MOVLB  3
08B8E:  MOVWF  xCD
08B90:  MOVLB  0
08B92:  CALL   43B8
08B96:  MOVFF  376,3CC
08B9A:  MOVLW  01
08B9C:  MOVLB  3
08B9E:  MOVWF  xCD
08BA0:  MOVLB  0
08BA2:  CALL   4416
08BA6:  MOVLW  22
08BA8:  BTFSS  F9E.4
08BAA:  BRA    8BA8
08BAC:  MOVWF  FAD
....................       SendDataDisplay(); 
08BAE:  CALL   3442
....................       printf("tdia.txt=\"%02u\"",DiaTx); 
08BB2:  MOVLW  66
08BB4:  MOVWF  FF6
08BB6:  MOVLW  0C
08BB8:  MOVWF  FF7
08BBA:  MOVLW  00
08BBC:  MOVWF  FF8
08BBE:  MOVLW  0A
08BC0:  MOVLB  3
08BC2:  MOVWF  xCD
08BC4:  MOVLB  0
08BC6:  CALL   43B8
08BCA:  MOVFF  374,3CC
08BCE:  MOVLW  01
08BD0:  MOVLB  3
08BD2:  MOVWF  xCD
08BD4:  MOVLB  0
08BD6:  CALL   4416
08BDA:  MOVLW  22
08BDC:  BTFSS  F9E.4
08BDE:  BRA    8BDC
08BE0:  MOVWF  FAD
....................       SendDataDisplay(); 
08BE2:  CALL   3442
....................       printf("tmes.txt=\"%02u\"",MesTx); 
08BE6:  MOVLW  76
08BE8:  MOVWF  FF6
08BEA:  MOVLW  0C
08BEC:  MOVWF  FF7
08BEE:  MOVLW  00
08BF0:  MOVWF  FF8
08BF2:  MOVLW  0A
08BF4:  MOVLB  3
08BF6:  MOVWF  xCD
08BF8:  MOVLB  0
08BFA:  CALL   43B8
08BFE:  MOVFF  373,3CC
08C02:  MOVLW  01
08C04:  MOVLB  3
08C06:  MOVWF  xCD
08C08:  MOVLB  0
08C0A:  CALL   4416
08C0E:  MOVLW  22
08C10:  BTFSS  F9E.4
08C12:  BRA    8C10
08C14:  MOVWF  FAD
....................       SendDataDisplay(); 
08C16:  CALL   3442
....................       printf("tyear.txt=\"%02u\"",YearTx); 
08C1A:  MOVLW  86
08C1C:  MOVWF  FF6
08C1E:  MOVLW  0C
08C20:  MOVWF  FF7
08C22:  MOVLW  00
08C24:  MOVWF  FF8
08C26:  MOVLW  0B
08C28:  MOVLB  3
08C2A:  MOVWF  xCD
08C2C:  MOVLB  0
08C2E:  CALL   43B8
08C32:  MOVFF  372,3CC
08C36:  MOVLW  01
08C38:  MOVLB  3
08C3A:  MOVWF  xCD
08C3C:  MOVLB  0
08C3E:  CALL   4416
08C42:  MOVLW  22
08C44:  BTFSS  F9E.4
08C46:  BRA    8C44
08C48:  MOVWF  FAD
....................       SendDataDisplay(); 
08C4A:  CALL   3442
....................       LimitaDia();   
08C4E:  GOTO   4976
08C52:  MOVLB  3
....................     } 
.................... //_--------------------------------------------------------------------------------------------------------------------------------------------------------        
....................  
.................... //_-------------------------------------------------------------------------------------------------------------------------------------------------------- 
....................    if(Menu==8){ //Menu Ciclos Personalizados 
08C54:  MOVF   x35,W
08C56:  SUBLW  08
08C58:  BTFSS  FD8.2
08C5A:  GOTO   99A2
....................       printf("fecha.txt=\"Fecha:%02u/%02u/20%02u Hora: %02u:%02u:%02u\"",Dia,Mes,Year,Hora,Minuto,Segundo); 
08C5E:  MOVLW  98
08C60:  MOVWF  FF6
08C62:  MOVLW  0C
08C64:  MOVWF  FF7
08C66:  MOVLW  00
08C68:  MOVWF  FF8
08C6A:  MOVLW  11
08C6C:  MOVWF  xCD
08C6E:  MOVLB  0
08C70:  CALL   43B8
08C74:  MOVFF  36D,3CC
08C78:  MOVLW  01
08C7A:  MOVLB  3
08C7C:  MOVWF  xCD
08C7E:  MOVLB  0
08C80:  CALL   4416
08C84:  MOVLW  2F
08C86:  BTFSS  F9E.4
08C88:  BRA    8C86
08C8A:  MOVWF  FAD
08C8C:  MOVFF  36C,3CC
08C90:  MOVLW  01
08C92:  MOVLB  3
08C94:  MOVWF  xCD
08C96:  MOVLB  0
08C98:  CALL   4416
08C9C:  MOVLW  2F
08C9E:  BTFSS  F9E.4
08CA0:  BRA    8C9E
08CA2:  MOVWF  FAD
08CA4:  MOVLW  32
08CA6:  BTFSS  F9E.4
08CA8:  BRA    8CA6
08CAA:  MOVWF  FAD
08CAC:  MOVLW  30
08CAE:  BTFSS  F9E.4
08CB0:  BRA    8CAE
08CB2:  MOVWF  FAD
08CB4:  MOVFF  36B,3CC
08CB8:  MOVLW  01
08CBA:  MOVLB  3
08CBC:  MOVWF  xCD
08CBE:  MOVLB  0
08CC0:  CALL   4416
08CC4:  MOVLW  B9
08CC6:  MOVWF  FF6
08CC8:  MOVLW  0C
08CCA:  MOVWF  FF7
08CCC:  MOVLW  00
08CCE:  MOVWF  FF8
08CD0:  MOVLW  07
08CD2:  MOVLB  3
08CD4:  MOVWF  xCD
08CD6:  MOVLB  0
08CD8:  CALL   43B8
08CDC:  MOVFF  36E,3CC
08CE0:  MOVLW  01
08CE2:  MOVLB  3
08CE4:  MOVWF  xCD
08CE6:  MOVLB  0
08CE8:  CALL   4416
08CEC:  MOVLW  3A
08CEE:  BTFSS  F9E.4
08CF0:  BRA    8CEE
08CF2:  MOVWF  FAD
08CF4:  MOVFF  36F,3CC
08CF8:  MOVLW  01
08CFA:  MOVLB  3
08CFC:  MOVWF  xCD
08CFE:  MOVLB  0
08D00:  CALL   4416
08D04:  MOVLW  3A
08D06:  BTFSS  F9E.4
08D08:  BRA    8D06
08D0A:  MOVWF  FAD
08D0C:  MOVFF  370,3CC
08D10:  MOVLW  01
08D12:  MOVLB  3
08D14:  MOVWF  xCD
08D16:  MOVLB  0
08D18:  CALL   4416
08D1C:  MOVLW  22
08D1E:  BTFSS  F9E.4
08D20:  BRA    8D1E
08D22:  MOVWF  FAD
....................       SendDataDisplay(); 
08D24:  CALL   3442
....................       GuardaEEPROM=OFF; 
08D28:  BCF    xA2.2
....................        
....................       if(RIGHT){ 
08D2A:  BSF    F93.2
08D2C:  BTFSC  F81.2
08D2E:  BRA    8D48
....................          delay_ms(100); 
08D30:  MOVLW  64
08D32:  MOVLB  3
08D34:  MOVWF  xD4
08D36:  MOVLB  0
08D38:  CALL   16D0
....................          if(RIGHT){ 
08D3C:  BSF    F93.2
08D3E:  BTFSC  F81.2
08D40:  BRA    8D48
....................             CicloLibre++; 
08D42:  MOVLB  3
08D44:  INCF   x29,F
08D46:  MOVLB  0
....................          } 
....................       } 
....................        
....................       if(CicloLibre>4) 
08D48:  MOVLB  3
08D4A:  MOVF   x29,W
08D4C:  SUBLW  04
08D4E:  BC    8D54
....................          CicloLibre=1; 
08D50:  MOVLW  01
08D52:  MOVWF  x29
....................        
....................       if(RX_Buffer[4]==0x01){//Esterilizacion 1 
08D54:  DECFSZ 34,W
08D56:  BRA    8EEC
....................          CiclosPersonalizados[RX_Buffer[4]-1].NivelDesfogue=6; 
08D58:  MOVLW  01
08D5A:  SUBWF  34,W
08D5C:  MULLW  0B
08D5E:  MOVF   FF3,W
08D60:  CLRF   xCA
08D62:  MOVWF  xC9
08D64:  MOVLW  08
08D66:  ADDWF  xC9,W
08D68:  MOVWF  01
08D6A:  MOVLW  00
08D6C:  ADDWFC xCA,W
08D6E:  MOVWF  03
08D70:  MOVF   01,W
08D72:  ADDLW  9D
08D74:  MOVWF  FE9
08D76:  MOVLW  03
08D78:  ADDWFC 03,W
08D7A:  MOVWF  FEA
08D7C:  MOVLW  06
08D7E:  MOVWF  FEF
....................          printf("ciclo.txt=\"ESTER. 1\""); 
08D80:  MOVLW  D0
08D82:  MOVWF  FF6
08D84:  MOVLW  0C
08D86:  MOVWF  FF7
08D88:  MOVLW  00
08D8A:  MOVWF  FF8
08D8C:  MOVLB  0
08D8E:  CALL   3410
....................          SendDataDisplay();           
08D92:  CALL   3442
....................          printf("temp.txt=\"%u\"",CiclosPersonalizados[RX_Buffer[4]-1].Temperatura); 
08D96:  MOVLW  01
08D98:  SUBWF  34,W
08D9A:  MULLW  0B
08D9C:  MOVF   FF3,W
08D9E:  MOVLB  3
08DA0:  CLRF   xCA
08DA2:  MOVWF  xC9
08DA4:  MOVLW  9D
08DA6:  ADDWF  xC9,W
08DA8:  MOVWF  FE9
08DAA:  MOVLW  03
08DAC:  ADDWFC xCA,W
08DAE:  MOVWF  FEA
08DB0:  MOVFF  FEF,3C9
08DB4:  MOVLW  E6
08DB6:  MOVWF  FF6
08DB8:  MOVLW  0C
08DBA:  MOVWF  FF7
08DBC:  MOVLW  00
08DBE:  MOVWF  FF8
08DC0:  MOVLW  0A
08DC2:  MOVWF  xCD
08DC4:  MOVLB  0
08DC6:  CALL   43B8
08DCA:  MOVFF  3C9,3CC
08DCE:  MOVLW  1B
08DD0:  MOVLB  3
08DD2:  MOVWF  xCD
08DD4:  MOVLB  0
08DD6:  CALL   4416
08DDA:  MOVLW  22
08DDC:  BTFSS  F9E.4
08DDE:  BRA    8DDC
08DE0:  MOVWF  FAD
....................          SendDataDisplay(); 
08DE2:  CALL   3442
....................          printf("test.txt=\"%03Lu:%02u\"",CiclosPersonalizados[RX_Buffer[4]-1].Minutoeste,CiclosPersonalizados[RX_Buffer[4]-1].Segundoest); 
08DE6:  MOVLW  01
08DE8:  SUBWF  34,W
08DEA:  MULLW  0B
08DEC:  MOVF   FF3,W
08DEE:  MOVLB  3
08DF0:  CLRF   xCA
08DF2:  MOVWF  xC9
08DF4:  MOVLW  09
08DF6:  ADDWF  xC9,W
08DF8:  MOVWF  01
08DFA:  MOVLW  00
08DFC:  ADDWFC xCA,W
08DFE:  MOVWF  03
08E00:  MOVF   01,W
08E02:  ADDLW  9D
08E04:  MOVWF  FE9
08E06:  MOVLW  03
08E08:  ADDWFC 03,W
08E0A:  MOVWF  FEA
08E0C:  MOVFF  FEC,3CA
08E10:  MOVF   FED,F
08E12:  MOVFF  FEF,3C9
08E16:  MOVLW  01
08E18:  SUBWF  34,W
08E1A:  MULLW  0B
08E1C:  MOVF   FF3,W
08E1E:  CLRF   xCC
08E20:  MOVWF  xCB
08E22:  MOVLW  03
08E24:  ADDWF  xCB,W
08E26:  MOVWF  01
08E28:  MOVLW  00
08E2A:  ADDWFC xCC,W
08E2C:  MOVWF  03
08E2E:  MOVF   01,W
08E30:  ADDLW  9D
08E32:  MOVWF  FE9
08E34:  MOVLW  03
08E36:  ADDWFC 03,W
08E38:  MOVWF  FEA
08E3A:  MOVFF  FEF,3CB
08E3E:  MOVLW  F4
08E40:  MOVWF  FF6
08E42:  MOVLW  0C
08E44:  MOVWF  FF7
08E46:  MOVLW  00
08E48:  MOVWF  FF8
08E4A:  MOVLW  0A
08E4C:  MOVWF  xCD
08E4E:  MOVLB  0
08E50:  CALL   43B8
08E54:  MOVLW  0A
08E56:  MOVWF  FE9
08E58:  MOVFF  3CA,3CE
08E5C:  MOVFF  3C9,3CD
08E60:  CALL   44DE
08E64:  MOVLW  3A
08E66:  BTFSS  F9E.4
08E68:  BRA    8E66
08E6A:  MOVWF  FAD
08E6C:  MOVFF  3CB,3CC
08E70:  MOVLW  01
08E72:  MOVLB  3
08E74:  MOVWF  xCD
08E76:  MOVLB  0
08E78:  CALL   4416
08E7C:  MOVLW  22
08E7E:  BTFSS  F9E.4
08E80:  BRA    8E7E
08E82:  MOVWF  FAD
....................          SendDataDisplay(); 
08E84:  CALL   3442
....................          printf("desfogue.txt=\"%u\"",CiclosPersonalizados[RX_Buffer[4]-1].NivelDesfogue); 
08E88:  MOVLW  01
08E8A:  SUBWF  34,W
08E8C:  MULLW  0B
08E8E:  MOVF   FF3,W
08E90:  MOVLB  3
08E92:  CLRF   xCA
08E94:  MOVWF  xC9
08E96:  MOVLW  08
08E98:  ADDWF  xC9,W
08E9A:  MOVWF  01
08E9C:  MOVLW  00
08E9E:  ADDWFC xCA,W
08EA0:  MOVWF  03
08EA2:  MOVF   01,W
08EA4:  ADDLW  9D
08EA6:  MOVWF  FE9
08EA8:  MOVLW  03
08EAA:  ADDWFC 03,W
08EAC:  MOVWF  FEA
08EAE:  MOVFF  FEF,3C9
08EB2:  MOVLW  0A
08EB4:  MOVWF  FF6
08EB6:  MOVLW  0D
08EB8:  MOVWF  FF7
08EBA:  MOVLW  00
08EBC:  MOVWF  FF8
08EBE:  MOVLW  0E
08EC0:  MOVWF  xCD
08EC2:  MOVLB  0
08EC4:  CALL   43B8
08EC8:  MOVFF  3C9,3CC
08ECC:  MOVLW  1B
08ECE:  MOVLB  3
08ED0:  MOVWF  xCD
08ED2:  MOVLB  0
08ED4:  CALL   4416
08ED8:  MOVLW  22
08EDA:  BTFSS  F9E.4
08EDC:  BRA    8EDA
08EDE:  MOVWF  FAD
....................          //printf("desfogue.txt=\"N/A\""); 
....................          SendDataDisplay(); 
08EE0:  CALL   3442
....................          CicloLibre=RX_Buffer[4]; 
08EE4:  MOVFF  34,329
....................       }else if(RX_Buffer[4]==0x02){//Esterilizacion 2 
08EE8:  BRA    95B8
08EEA:  MOVLB  3
08EEC:  MOVF   34,W
08EEE:  SUBLW  02
08EF0:  BTFSS  FD8.2
08EF2:  BRA    9088
....................          CiclosPersonalizados[RX_Buffer[4]-1].NivelDesfogue=6; 
08EF4:  MOVLW  01
08EF6:  SUBWF  34,W
08EF8:  MULLW  0B
08EFA:  MOVF   FF3,W
08EFC:  CLRF   xCA
08EFE:  MOVWF  xC9
08F00:  MOVLW  08
08F02:  ADDWF  xC9,W
08F04:  MOVWF  01
08F06:  MOVLW  00
08F08:  ADDWFC xCA,W
08F0A:  MOVWF  03
08F0C:  MOVF   01,W
08F0E:  ADDLW  9D
08F10:  MOVWF  FE9
08F12:  MOVLW  03
08F14:  ADDWFC 03,W
08F16:  MOVWF  FEA
08F18:  MOVLW  06
08F1A:  MOVWF  FEF
....................          printf("ciclo.txt=\"ESTER. 2\""); 
08F1C:  MOVLW  1C
08F1E:  MOVWF  FF6
08F20:  MOVLW  0D
08F22:  MOVWF  FF7
08F24:  MOVLW  00
08F26:  MOVWF  FF8
08F28:  MOVLB  0
08F2A:  CALL   3410
....................          SendDataDisplay();           
08F2E:  CALL   3442
....................          printf("temp.txt=\"%u\"",CiclosPersonalizados[RX_Buffer[4]-1].Temperatura); 
08F32:  MOVLW  01
08F34:  SUBWF  34,W
08F36:  MULLW  0B
08F38:  MOVF   FF3,W
08F3A:  MOVLB  3
08F3C:  CLRF   xCA
08F3E:  MOVWF  xC9
08F40:  MOVLW  9D
08F42:  ADDWF  xC9,W
08F44:  MOVWF  FE9
08F46:  MOVLW  03
08F48:  ADDWFC xCA,W
08F4A:  MOVWF  FEA
08F4C:  MOVFF  FEF,3C9
08F50:  MOVLW  32
08F52:  MOVWF  FF6
08F54:  MOVLW  0D
08F56:  MOVWF  FF7
08F58:  MOVLW  00
08F5A:  MOVWF  FF8
08F5C:  MOVLW  0A
08F5E:  MOVWF  xCD
08F60:  MOVLB  0
08F62:  CALL   43B8
08F66:  MOVFF  3C9,3CC
08F6A:  MOVLW  1B
08F6C:  MOVLB  3
08F6E:  MOVWF  xCD
08F70:  MOVLB  0
08F72:  CALL   4416
08F76:  MOVLW  22
08F78:  BTFSS  F9E.4
08F7A:  BRA    8F78
08F7C:  MOVWF  FAD
....................          SendDataDisplay(); 
08F7E:  CALL   3442
....................          printf("test.txt=\"%03Lu:%02u\"",CiclosPersonalizados[RX_Buffer[4]-1].Minutoeste,CiclosPersonalizados[RX_Buffer[4]-1].Segundoest); 
08F82:  MOVLW  01
08F84:  SUBWF  34,W
08F86:  MULLW  0B
08F88:  MOVF   FF3,W
08F8A:  MOVLB  3
08F8C:  CLRF   xCA
08F8E:  MOVWF  xC9
08F90:  MOVLW  09
08F92:  ADDWF  xC9,W
08F94:  MOVWF  01
08F96:  MOVLW  00
08F98:  ADDWFC xCA,W
08F9A:  MOVWF  03
08F9C:  MOVF   01,W
08F9E:  ADDLW  9D
08FA0:  MOVWF  FE9
08FA2:  MOVLW  03
08FA4:  ADDWFC 03,W
08FA6:  MOVWF  FEA
08FA8:  MOVFF  FEC,3CA
08FAC:  MOVF   FED,F
08FAE:  MOVFF  FEF,3C9
08FB2:  MOVLW  01
08FB4:  SUBWF  34,W
08FB6:  MULLW  0B
08FB8:  MOVF   FF3,W
08FBA:  CLRF   xCC
08FBC:  MOVWF  xCB
08FBE:  MOVLW  03
08FC0:  ADDWF  xCB,W
08FC2:  MOVWF  01
08FC4:  MOVLW  00
08FC6:  ADDWFC xCC,W
08FC8:  MOVWF  03
08FCA:  MOVF   01,W
08FCC:  ADDLW  9D
08FCE:  MOVWF  FE9
08FD0:  MOVLW  03
08FD2:  ADDWFC 03,W
08FD4:  MOVWF  FEA
08FD6:  MOVFF  FEF,3CB
08FDA:  MOVLW  40
08FDC:  MOVWF  FF6
08FDE:  MOVLW  0D
08FE0:  MOVWF  FF7
08FE2:  MOVLW  00
08FE4:  MOVWF  FF8
08FE6:  MOVLW  0A
08FE8:  MOVWF  xCD
08FEA:  MOVLB  0
08FEC:  CALL   43B8
08FF0:  MOVLW  0A
08FF2:  MOVWF  FE9
08FF4:  MOVFF  3CA,3CE
08FF8:  MOVFF  3C9,3CD
08FFC:  CALL   44DE
09000:  MOVLW  3A
09002:  BTFSS  F9E.4
09004:  BRA    9002
09006:  MOVWF  FAD
09008:  MOVFF  3CB,3CC
0900C:  MOVLW  01
0900E:  MOVLB  3
09010:  MOVWF  xCD
09012:  MOVLB  0
09014:  CALL   4416
09018:  MOVLW  22
0901A:  BTFSS  F9E.4
0901C:  BRA    901A
0901E:  MOVWF  FAD
....................          SendDataDisplay(); 
09020:  CALL   3442
....................          printf("desfogue.txt=\"%u\"",CiclosPersonalizados[RX_Buffer[4]-1].NivelDesfogue); 
09024:  MOVLW  01
09026:  SUBWF  34,W
09028:  MULLW  0B
0902A:  MOVF   FF3,W
0902C:  MOVLB  3
0902E:  CLRF   xCA
09030:  MOVWF  xC9
09032:  MOVLW  08
09034:  ADDWF  xC9,W
09036:  MOVWF  01
09038:  MOVLW  00
0903A:  ADDWFC xCA,W
0903C:  MOVWF  03
0903E:  MOVF   01,W
09040:  ADDLW  9D
09042:  MOVWF  FE9
09044:  MOVLW  03
09046:  ADDWFC 03,W
09048:  MOVWF  FEA
0904A:  MOVFF  FEF,3C9
0904E:  MOVLW  56
09050:  MOVWF  FF6
09052:  MOVLW  0D
09054:  MOVWF  FF7
09056:  MOVLW  00
09058:  MOVWF  FF8
0905A:  MOVLW  0E
0905C:  MOVWF  xCD
0905E:  MOVLB  0
09060:  CALL   43B8
09064:  MOVFF  3C9,3CC
09068:  MOVLW  1B
0906A:  MOVLB  3
0906C:  MOVWF  xCD
0906E:  MOVLB  0
09070:  CALL   4416
09074:  MOVLW  22
09076:  BTFSS  F9E.4
09078:  BRA    9076
0907A:  MOVWF  FAD
....................          //printf("desfogue.txt=\"N/A\""); 
....................          SendDataDisplay(); 
0907C:  CALL   3442
....................          CicloLibre=RX_Buffer[4]; 
09080:  MOVFF  34,329
....................       }else if(RX_Buffer[4]==0x03){//Liquidos 
09084:  BRA    95B8
09086:  MOVLB  3
09088:  MOVF   34,W
0908A:  SUBLW  03
0908C:  BTFSS  FD8.2
0908E:  BRA    91FC
....................          printf("ciclo.txt=\"LIQUIDOS\""); 
09090:  MOVLW  68
09092:  MOVWF  FF6
09094:  MOVLW  0D
09096:  MOVWF  FF7
09098:  MOVLW  00
0909A:  MOVWF  FF8
0909C:  MOVLB  0
0909E:  CALL   3410
....................          SendDataDisplay();           
090A2:  CALL   3442
....................          printf("temp.txt=\"%u\"",CiclosPersonalizados[RX_Buffer[4]-1].Temperatura); 
090A6:  MOVLW  01
090A8:  SUBWF  34,W
090AA:  MULLW  0B
090AC:  MOVF   FF3,W
090AE:  MOVLB  3
090B0:  CLRF   xCA
090B2:  MOVWF  xC9
090B4:  MOVLW  9D
090B6:  ADDWF  xC9,W
090B8:  MOVWF  FE9
090BA:  MOVLW  03
090BC:  ADDWFC xCA,W
090BE:  MOVWF  FEA
090C0:  MOVFF  FEF,3C9
090C4:  MOVLW  7E
090C6:  MOVWF  FF6
090C8:  MOVLW  0D
090CA:  MOVWF  FF7
090CC:  MOVLW  00
090CE:  MOVWF  FF8
090D0:  MOVLW  0A
090D2:  MOVWF  xCD
090D4:  MOVLB  0
090D6:  CALL   43B8
090DA:  MOVFF  3C9,3CC
090DE:  MOVLW  1B
090E0:  MOVLB  3
090E2:  MOVWF  xCD
090E4:  MOVLB  0
090E6:  CALL   4416
090EA:  MOVLW  22
090EC:  BTFSS  F9E.4
090EE:  BRA    90EC
090F0:  MOVWF  FAD
....................          SendDataDisplay(); 
090F2:  CALL   3442
....................          printf("test.txt=\"%03Lu:%02u\"",CiclosPersonalizados[RX_Buffer[4]-1].Minutoeste,CiclosPersonalizados[RX_Buffer[4]-1].Segundoest); 
090F6:  MOVLW  01
090F8:  SUBWF  34,W
090FA:  MULLW  0B
090FC:  MOVF   FF3,W
090FE:  MOVLB  3
09100:  CLRF   xCA
09102:  MOVWF  xC9
09104:  MOVLW  09
09106:  ADDWF  xC9,W
09108:  MOVWF  01
0910A:  MOVLW  00
0910C:  ADDWFC xCA,W
0910E:  MOVWF  03
09110:  MOVF   01,W
09112:  ADDLW  9D
09114:  MOVWF  FE9
09116:  MOVLW  03
09118:  ADDWFC 03,W
0911A:  MOVWF  FEA
0911C:  MOVFF  FEC,3CA
09120:  MOVF   FED,F
09122:  MOVFF  FEF,3C9
09126:  MOVLW  01
09128:  SUBWF  34,W
0912A:  MULLW  0B
0912C:  MOVF   FF3,W
0912E:  CLRF   xCC
09130:  MOVWF  xCB
09132:  MOVLW  03
09134:  ADDWF  xCB,W
09136:  MOVWF  01
09138:  MOVLW  00
0913A:  ADDWFC xCC,W
0913C:  MOVWF  03
0913E:  MOVF   01,W
09140:  ADDLW  9D
09142:  MOVWF  FE9
09144:  MOVLW  03
09146:  ADDWFC 03,W
09148:  MOVWF  FEA
0914A:  MOVFF  FEF,3CB
0914E:  MOVLW  8C
09150:  MOVWF  FF6
09152:  MOVLW  0D
09154:  MOVWF  FF7
09156:  MOVLW  00
09158:  MOVWF  FF8
0915A:  MOVLW  0A
0915C:  MOVWF  xCD
0915E:  MOVLB  0
09160:  CALL   43B8
09164:  MOVLW  0A
09166:  MOVWF  FE9
09168:  MOVFF  3CA,3CE
0916C:  MOVFF  3C9,3CD
09170:  CALL   44DE
09174:  MOVLW  3A
09176:  BTFSS  F9E.4
09178:  BRA    9176
0917A:  MOVWF  FAD
0917C:  MOVFF  3CB,3CC
09180:  MOVLW  01
09182:  MOVLB  3
09184:  MOVWF  xCD
09186:  MOVLB  0
09188:  CALL   4416
0918C:  MOVLW  22
0918E:  BTFSS  F9E.4
09190:  BRA    918E
09192:  MOVWF  FAD
....................          SendDataDisplay(); 
09194:  CALL   3442
....................          printf("desfogue.txt=\"%u\"",CiclosPersonalizados[RX_Buffer[4]-1].NivelDesfogue); 
09198:  MOVLW  01
0919A:  SUBWF  34,W
0919C:  MULLW  0B
0919E:  MOVF   FF3,W
091A0:  MOVLB  3
091A2:  CLRF   xCA
091A4:  MOVWF  xC9
091A6:  MOVLW  08
091A8:  ADDWF  xC9,W
091AA:  MOVWF  01
091AC:  MOVLW  00
091AE:  ADDWFC xCA,W
091B0:  MOVWF  03
091B2:  MOVF   01,W
091B4:  ADDLW  9D
091B6:  MOVWF  FE9
091B8:  MOVLW  03
091BA:  ADDWFC 03,W
091BC:  MOVWF  FEA
091BE:  MOVFF  FEF,3C9
091C2:  MOVLW  A2
091C4:  MOVWF  FF6
091C6:  MOVLW  0D
091C8:  MOVWF  FF7
091CA:  MOVLW  00
091CC:  MOVWF  FF8
091CE:  MOVLW  0E
091D0:  MOVWF  xCD
091D2:  MOVLB  0
091D4:  CALL   43B8
091D8:  MOVFF  3C9,3CC
091DC:  MOVLW  1B
091DE:  MOVLB  3
091E0:  MOVWF  xCD
091E2:  MOVLB  0
091E4:  CALL   4416
091E8:  MOVLW  22
091EA:  BTFSS  F9E.4
091EC:  BRA    91EA
091EE:  MOVWF  FAD
....................          //printf("desfogue.txt=\"N/A\""); 
....................          SendDataDisplay(); 
091F0:  CALL   3442
....................          CicloLibre=RX_Buffer[4]; 
091F4:  MOVFF  34,329
....................       }else if(RX_Buffer[4]==0x04){//Fusion 
091F8:  BRA    95B8
091FA:  MOVLB  3
091FC:  MOVF   34,W
091FE:  SUBLW  04
09200:  BTFSS  FD8.2
09202:  BRA    9398
....................          CiclosPersonalizados[RX_Buffer[4]-1].NivelDesfogue=6; 
09204:  MOVLW  01
09206:  SUBWF  34,W
09208:  MULLW  0B
0920A:  MOVF   FF3,W
0920C:  CLRF   xCA
0920E:  MOVWF  xC9
09210:  MOVLW  08
09212:  ADDWF  xC9,W
09214:  MOVWF  01
09216:  MOVLW  00
09218:  ADDWFC xCA,W
0921A:  MOVWF  03
0921C:  MOVF   01,W
0921E:  ADDLW  9D
09220:  MOVWF  FE9
09222:  MOVLW  03
09224:  ADDWFC 03,W
09226:  MOVWF  FEA
09228:  MOVLW  06
0922A:  MOVWF  FEF
....................          printf("ciclo.txt=\"FUSION\""); 
0922C:  MOVLW  B4
0922E:  MOVWF  FF6
09230:  MOVLW  0D
09232:  MOVWF  FF7
09234:  MOVLW  00
09236:  MOVWF  FF8
09238:  MOVLB  0
0923A:  CALL   3410
....................          SendDataDisplay();           
0923E:  CALL   3442
....................          printf("temp.txt=\"%u\"",CiclosPersonalizados[RX_Buffer[4]-1].Temperatura); 
09242:  MOVLW  01
09244:  SUBWF  34,W
09246:  MULLW  0B
09248:  MOVF   FF3,W
0924A:  MOVLB  3
0924C:  CLRF   xCA
0924E:  MOVWF  xC9
09250:  MOVLW  9D
09252:  ADDWF  xC9,W
09254:  MOVWF  FE9
09256:  MOVLW  03
09258:  ADDWFC xCA,W
0925A:  MOVWF  FEA
0925C:  MOVFF  FEF,3C9
09260:  MOVLW  C8
09262:  MOVWF  FF6
09264:  MOVLW  0D
09266:  MOVWF  FF7
09268:  MOVLW  00
0926A:  MOVWF  FF8
0926C:  MOVLW  0A
0926E:  MOVWF  xCD
09270:  MOVLB  0
09272:  CALL   43B8
09276:  MOVFF  3C9,3CC
0927A:  MOVLW  1B
0927C:  MOVLB  3
0927E:  MOVWF  xCD
09280:  MOVLB  0
09282:  CALL   4416
09286:  MOVLW  22
09288:  BTFSS  F9E.4
0928A:  BRA    9288
0928C:  MOVWF  FAD
....................          SendDataDisplay(); 
0928E:  CALL   3442
....................          printf("test.txt=\"%03Lu:%02u\"",CiclosPersonalizados[RX_Buffer[4]-1].Minutoeste,CiclosPersonalizados[RX_Buffer[4]-1].Segundoest); 
09292:  MOVLW  01
09294:  SUBWF  34,W
09296:  MULLW  0B
09298:  MOVF   FF3,W
0929A:  MOVLB  3
0929C:  CLRF   xCA
0929E:  MOVWF  xC9
092A0:  MOVLW  09
092A2:  ADDWF  xC9,W
092A4:  MOVWF  01
092A6:  MOVLW  00
092A8:  ADDWFC xCA,W
092AA:  MOVWF  03
092AC:  MOVF   01,W
092AE:  ADDLW  9D
092B0:  MOVWF  FE9
092B2:  MOVLW  03
092B4:  ADDWFC 03,W
092B6:  MOVWF  FEA
092B8:  MOVFF  FEC,3CA
092BC:  MOVF   FED,F
092BE:  MOVFF  FEF,3C9
092C2:  MOVLW  01
092C4:  SUBWF  34,W
092C6:  MULLW  0B
092C8:  MOVF   FF3,W
092CA:  CLRF   xCC
092CC:  MOVWF  xCB
092CE:  MOVLW  03
092D0:  ADDWF  xCB,W
092D2:  MOVWF  01
092D4:  MOVLW  00
092D6:  ADDWFC xCC,W
092D8:  MOVWF  03
092DA:  MOVF   01,W
092DC:  ADDLW  9D
092DE:  MOVWF  FE9
092E0:  MOVLW  03
092E2:  ADDWFC 03,W
092E4:  MOVWF  FEA
092E6:  MOVFF  FEF,3CB
092EA:  MOVLW  D6
092EC:  MOVWF  FF6
092EE:  MOVLW  0D
092F0:  MOVWF  FF7
092F2:  MOVLW  00
092F4:  MOVWF  FF8
092F6:  MOVLW  0A
092F8:  MOVWF  xCD
092FA:  MOVLB  0
092FC:  CALL   43B8
09300:  MOVLW  0A
09302:  MOVWF  FE9
09304:  MOVFF  3CA,3CE
09308:  MOVFF  3C9,3CD
0930C:  CALL   44DE
09310:  MOVLW  3A
09312:  BTFSS  F9E.4
09314:  BRA    9312
09316:  MOVWF  FAD
09318:  MOVFF  3CB,3CC
0931C:  MOVLW  01
0931E:  MOVLB  3
09320:  MOVWF  xCD
09322:  MOVLB  0
09324:  CALL   4416
09328:  MOVLW  22
0932A:  BTFSS  F9E.4
0932C:  BRA    932A
0932E:  MOVWF  FAD
....................          SendDataDisplay(); 
09330:  CALL   3442
....................          printf("desfogue.txt=\"%u\"",CiclosPersonalizados[RX_Buffer[4]-1].NivelDesfogue); 
09334:  MOVLW  01
09336:  SUBWF  34,W
09338:  MULLW  0B
0933A:  MOVF   FF3,W
0933C:  MOVLB  3
0933E:  CLRF   xCA
09340:  MOVWF  xC9
09342:  MOVLW  08
09344:  ADDWF  xC9,W
09346:  MOVWF  01
09348:  MOVLW  00
0934A:  ADDWFC xCA,W
0934C:  MOVWF  03
0934E:  MOVF   01,W
09350:  ADDLW  9D
09352:  MOVWF  FE9
09354:  MOVLW  03
09356:  ADDWFC 03,W
09358:  MOVWF  FEA
0935A:  MOVFF  FEF,3C9
0935E:  MOVLW  EC
09360:  MOVWF  FF6
09362:  MOVLW  0D
09364:  MOVWF  FF7
09366:  MOVLW  00
09368:  MOVWF  FF8
0936A:  MOVLW  0E
0936C:  MOVWF  xCD
0936E:  MOVLB  0
09370:  CALL   43B8
09374:  MOVFF  3C9,3CC
09378:  MOVLW  1B
0937A:  MOVLB  3
0937C:  MOVWF  xCD
0937E:  MOVLB  0
09380:  CALL   4416
09384:  MOVLW  22
09386:  BTFSS  F9E.4
09388:  BRA    9386
0938A:  MOVWF  FAD
....................          //printf("desfogue.txt=\"N/A\""); 
....................          SendDataDisplay(); 
0938C:  CALL   3442
....................          CicloLibre=RX_Buffer[4]; 
09390:  MOVFF  34,329
....................       }else if(CicloLibre==0x00){ 
09394:  BRA    95B8
09396:  MOVLB  3
09398:  MOVF   x29,F
0939A:  BNZ   93F2
....................          printf("ciclo.txt=\"CICLO P--\""); 
0939C:  MOVLW  FE
0939E:  MOVWF  FF6
093A0:  MOVLW  0D
093A2:  MOVWF  FF7
093A4:  MOVLW  00
093A6:  MOVWF  FF8
093A8:  MOVLB  0
093AA:  CALL   3410
....................          SendDataDisplay();           
093AE:  CALL   3442
....................          printf("temp.txt=\"--\""); 
093B2:  MOVLW  14
093B4:  MOVWF  FF6
093B6:  MOVLW  0E
093B8:  MOVWF  FF7
093BA:  MOVLW  00
093BC:  MOVWF  FF8
093BE:  CALL   3410
....................          SendDataDisplay(); 
093C2:  CALL   3442
....................          printf("test.txt=\"--:--\""); 
093C6:  MOVLW  22
093C8:  MOVWF  FF6
093CA:  MOVLW  0E
093CC:  MOVWF  FF7
093CE:  MOVLW  00
093D0:  MOVWF  FF8
093D2:  CALL   3410
....................          SendDataDisplay(); 
093D6:  CALL   3442
....................          printf("desfogue.txt=\"--\""); 
093DA:  MOVLW  34
093DC:  MOVWF  FF6
093DE:  MOVLW  0E
093E0:  MOVWF  FF7
093E2:  MOVLW  00
093E4:  MOVWF  FF8
093E6:  CALL   3410
....................          SendDataDisplay(); 
093EA:  CALL   3442
....................       }else if(CicloLibre>0 && CicloLibre<5){ 
093EE:  BRA    95B8
093F0:  MOVLB  3
093F2:  MOVF   x29,F
093F4:  BTFSC  FD8.2
093F6:  BRA    95BA
093F8:  MOVF   x29,W
093FA:  SUBLW  04
093FC:  BTFSS  FD8.0
093FE:  BRA    95BA
....................          if(CicloLibre==1) 
09400:  DECFSZ x29,W
09402:  BRA    9418
....................             printf("ciclo.txt=\"ESTER. 1\""); 
09404:  MOVLW  46
09406:  MOVWF  FF6
09408:  MOVLW  0E
0940A:  MOVWF  FF7
0940C:  MOVLW  00
0940E:  MOVWF  FF8
09410:  MOVLB  0
09412:  CALL   3410
09416:  MOVLB  3
....................          if(CicloLibre==2) 
09418:  MOVF   x29,W
0941A:  SUBLW  02
0941C:  BNZ   9432
....................             printf("ciclo.txt=\"ESTER. 2\""); 
0941E:  MOVLW  5C
09420:  MOVWF  FF6
09422:  MOVLW  0E
09424:  MOVWF  FF7
09426:  MOVLW  00
09428:  MOVWF  FF8
0942A:  MOVLB  0
0942C:  CALL   3410
09430:  MOVLB  3
....................          if(CicloLibre==3) 
09432:  MOVF   x29,W
09434:  SUBLW  03
09436:  BNZ   944C
....................             printf("ciclo.txt=\"LIQUIDOS\""); 
09438:  MOVLW  72
0943A:  MOVWF  FF6
0943C:  MOVLW  0E
0943E:  MOVWF  FF7
09440:  MOVLW  00
09442:  MOVWF  FF8
09444:  MOVLB  0
09446:  CALL   3410
0944A:  MOVLB  3
....................          if(CicloLibre==4) 
0944C:  MOVF   x29,W
0944E:  SUBLW  04
09450:  BNZ   9464
....................             printf("ciclo.txt=\"FUSION\""); 
09452:  MOVLW  88
09454:  MOVWF  FF6
09456:  MOVLW  0E
09458:  MOVWF  FF7
0945A:  MOVLW  00
0945C:  MOVWF  FF8
0945E:  MOVLB  0
09460:  CALL   3410
....................          SendDataDisplay(); 
09464:  MOVLB  0
09466:  CALL   3442
....................          printf("temp.txt=\"%u\"",CiclosPersonalizados[CicloLibre-1].Temperatura); 
0946A:  MOVLW  01
0946C:  MOVLB  3
0946E:  SUBWF  x29,W
09470:  MULLW  0B
09472:  MOVF   FF3,W
09474:  CLRF   xCA
09476:  MOVWF  xC9
09478:  MOVLW  9D
0947A:  ADDWF  xC9,W
0947C:  MOVWF  FE9
0947E:  MOVLW  03
09480:  ADDWFC xCA,W
09482:  MOVWF  FEA
09484:  MOVFF  FEF,3C9
09488:  MOVLW  9C
0948A:  MOVWF  FF6
0948C:  MOVLW  0E
0948E:  MOVWF  FF7
09490:  MOVLW  00
09492:  MOVWF  FF8
09494:  MOVLW  0A
09496:  MOVWF  xCD
09498:  MOVLB  0
0949A:  CALL   43B8
0949E:  MOVFF  3C9,3CC
094A2:  MOVLW  1B
094A4:  MOVLB  3
094A6:  MOVWF  xCD
094A8:  MOVLB  0
094AA:  CALL   4416
094AE:  MOVLW  22
094B0:  BTFSS  F9E.4
094B2:  BRA    94B0
094B4:  MOVWF  FAD
....................          SendDataDisplay(); 
094B6:  CALL   3442
....................          printf("test.txt=\"%03Lu:%02u\"",CiclosPersonalizados[CicloLibre-1].Minutoeste,CiclosPersonalizados[CicloLibre-1].Segundoest); 
094BA:  MOVLW  01
094BC:  MOVLB  3
094BE:  SUBWF  x29,W
094C0:  MULLW  0B
094C2:  MOVF   FF3,W
094C4:  CLRF   xCA
094C6:  MOVWF  xC9
094C8:  MOVLW  09
094CA:  ADDWF  xC9,W
094CC:  MOVWF  01
094CE:  MOVLW  00
094D0:  ADDWFC xCA,W
094D2:  MOVWF  03
094D4:  MOVF   01,W
094D6:  ADDLW  9D
094D8:  MOVWF  FE9
094DA:  MOVLW  03
094DC:  ADDWFC 03,W
094DE:  MOVWF  FEA
094E0:  MOVFF  FEC,3CA
094E4:  MOVF   FED,F
094E6:  MOVFF  FEF,3C9
094EA:  MOVLW  01
094EC:  SUBWF  x29,W
094EE:  MULLW  0B
094F0:  MOVF   FF3,W
094F2:  CLRF   xCC
094F4:  MOVWF  xCB
094F6:  MOVLW  03
094F8:  ADDWF  xCB,W
094FA:  MOVWF  01
094FC:  MOVLW  00
094FE:  ADDWFC xCC,W
09500:  MOVWF  03
09502:  MOVF   01,W
09504:  ADDLW  9D
09506:  MOVWF  FE9
09508:  MOVLW  03
0950A:  ADDWFC 03,W
0950C:  MOVWF  FEA
0950E:  MOVFF  FEF,3CB
09512:  MOVLW  AA
09514:  MOVWF  FF6
09516:  MOVLW  0E
09518:  MOVWF  FF7
0951A:  MOVLW  00
0951C:  MOVWF  FF8
0951E:  MOVLW  0A
09520:  MOVWF  xCD
09522:  MOVLB  0
09524:  CALL   43B8
09528:  MOVLW  0A
0952A:  MOVWF  FE9
0952C:  MOVFF  3CA,3CE
09530:  MOVFF  3C9,3CD
09534:  CALL   44DE
09538:  MOVLW  3A
0953A:  BTFSS  F9E.4
0953C:  BRA    953A
0953E:  MOVWF  FAD
09540:  MOVFF  3CB,3CC
09544:  MOVLW  01
09546:  MOVLB  3
09548:  MOVWF  xCD
0954A:  MOVLB  0
0954C:  CALL   4416
09550:  MOVLW  22
09552:  BTFSS  F9E.4
09554:  BRA    9552
09556:  MOVWF  FAD
....................          SendDataDisplay(); 
09558:  CALL   3442
....................          printf("desfogue.txt=\"%u\"",CiclosPersonalizados[CicloLibre-1].NivelDesfogue); 
0955C:  MOVLW  01
0955E:  MOVLB  3
09560:  SUBWF  x29,W
09562:  MULLW  0B
09564:  MOVF   FF3,W
09566:  CLRF   xCA
09568:  MOVWF  xC9
0956A:  MOVLW  08
0956C:  ADDWF  xC9,W
0956E:  MOVWF  01
09570:  MOVLW  00
09572:  ADDWFC xCA,W
09574:  MOVWF  03
09576:  MOVF   01,W
09578:  ADDLW  9D
0957A:  MOVWF  FE9
0957C:  MOVLW  03
0957E:  ADDWFC 03,W
09580:  MOVWF  FEA
09582:  MOVFF  FEF,3C9
09586:  MOVLW  C0
09588:  MOVWF  FF6
0958A:  MOVLW  0E
0958C:  MOVWF  FF7
0958E:  MOVLW  00
09590:  MOVWF  FF8
09592:  MOVLW  0E
09594:  MOVWF  xCD
09596:  MOVLB  0
09598:  CALL   43B8
0959C:  MOVFF  3C9,3CC
095A0:  MOVLW  1B
095A2:  MOVLB  3
095A4:  MOVWF  xCD
095A6:  MOVLB  0
095A8:  CALL   4416
095AC:  MOVLW  22
095AE:  BTFSS  F9E.4
095B0:  BRA    95AE
095B2:  MOVWF  FAD
....................          //printf("desfogue.txt=\"N/A\""); 
....................          SendDataDisplay(); 
095B4:  CALL   3442
095B8:  MOVLB  3
....................       } 
....................        
....................       if(RX_Buffer[4]==0xa0){//a0, Menu Principal 
095BA:  MOVF   34,W
095BC:  SUBLW  A0
095BE:  BNZ   95E2
....................          printf("page MenuPrincipal"); 
095C0:  MOVLW  D2
095C2:  MOVWF  FF6
095C4:  MOVLW  0E
095C6:  MOVWF  FF7
095C8:  MOVLW  00
095CA:  MOVWF  FF8
095CC:  MOVLB  0
095CE:  CALL   3410
....................          SendDataDisplay();      
095D2:  CALL   3442
....................          PantallaPrincipal=0; 
095D6:  MOVLB  2
095D8:  CLRF   xD3
....................          Op=OFF; 
095DA:  MOVLB  0
095DC:  BCF    xA1.6
....................          Op2=OFF; 
095DE:  BCF    xA1.7
095E0:  MOVLB  3
....................       } 
....................        
....................       if(RX_Buffer[4]==0x20 && CicloLibre>0){//20, Temperatura 
095E2:  MOVF   34,W
095E4:  SUBLW  20
095E6:  BNZ   9620
095E8:  MOVF   x29,F
095EA:  BZ    9620
....................             printf("page Temperatura"); 
095EC:  MOVLW  E6
095EE:  MOVWF  FF6
095F0:  MOVLW  0E
095F2:  MOVWF  FF7
095F4:  MOVLW  00
095F6:  MOVWF  FF8
095F8:  MOVLB  0
095FA:  CALL   3410
....................             SendDataDisplay();      
095FE:  CALL   3442
....................             Setpoint=CiclosPersonalizados[CicloLibre-1].Temperatura; 
09602:  MOVLW  01
09604:  MOVLB  3
09606:  SUBWF  x29,W
09608:  MULLW  0B
0960A:  MOVF   FF3,W
0960C:  CLRF   xCA
0960E:  MOVWF  xC9
09610:  MOVLW  9D
09612:  ADDWF  xC9,W
09614:  MOVWF  FE9
09616:  MOVLW  03
09618:  ADDWFC xCA,W
0961A:  MOVWF  FEA
0961C:  MOVFF  FEF,33C
....................       } 
....................        
....................       if(RX_Buffer[4]==0x30 && CicloLibre>0){//30, Test 
09620:  MOVF   34,W
09622:  SUBLW  30
09624:  BTFSS  FD8.2
09626:  BRA    9766
09628:  MOVF   x29,F
0962A:  BTFSC  FD8.2
0962C:  BRA    9766
....................             printf("page TiempoEst"); 
0962E:  MOVLW  F8
09630:  MOVWF  FF6
09632:  MOVLW  0E
09634:  MOVWF  FF7
09636:  MOVLW  00
09638:  MOVWF  FF8
0963A:  MOVLB  0
0963C:  CALL   3410
....................             SendDataDisplay();      
09640:  CALL   3442
....................             Testerilizacionp[4]=CiclosPersonalizados[CicloLibre-1].MinutoestH; 
09644:  MOVLW  01
09646:  MOVLB  3
09648:  SUBWF  x29,W
0964A:  MULLW  0B
0964C:  MOVF   FF3,W
0964E:  CLRF   xCA
09650:  MOVWF  xC9
09652:  MOVLW  01
09654:  ADDWF  xC9,W
09656:  MOVWF  01
09658:  MOVLW  00
0965A:  ADDWFC xCA,W
0965C:  MOVWF  03
0965E:  MOVF   01,W
09660:  ADDLW  9D
09662:  MOVWF  FE9
09664:  MOVLW  03
09666:  ADDWFC 03,W
09668:  MOVWF  FEA
0966A:  MOVFF  FEF,B9
0966E:  MOVLB  0
....................             Testerilizacionp[3]=CiclosPersonalizados[CicloLibre-1].MinutoestL/10; 
09670:  MOVLW  01
09672:  MOVLB  3
09674:  SUBWF  x29,W
09676:  MULLW  0B
09678:  MOVF   FF3,W
0967A:  CLRF   xCA
0967C:  MOVWF  xC9
0967E:  MOVLW  02
09680:  ADDWF  xC9,W
09682:  MOVWF  01
09684:  MOVLW  00
09686:  ADDWFC xCA,W
09688:  MOVWF  03
0968A:  MOVF   01,W
0968C:  ADDLW  9D
0968E:  MOVWF  FE9
09690:  MOVLW  03
09692:  ADDWFC 03,W
09694:  MOVWF  FEA
09696:  MOVFF  FEF,3D2
0969A:  MOVLW  0A
0969C:  MOVWF  xD3
0969E:  MOVLB  0
096A0:  CALL   43EA
096A4:  MOVFF  01,B8
....................             Testerilizacionp[2]=CiclosPersonalizados[CicloLibre-1].MinutoestL-(Testerilizacion[3]*10); 
096A8:  MOVLW  01
096AA:  MOVLB  3
096AC:  SUBWF  x29,W
096AE:  MULLW  0B
096B0:  MOVF   FF3,W
096B2:  CLRF   xCA
096B4:  MOVWF  xC9
096B6:  MOVLW  02
096B8:  ADDWF  xC9,W
096BA:  MOVWF  01
096BC:  MOVLW  00
096BE:  ADDWFC xCA,W
096C0:  MOVWF  03
096C2:  MOVF   01,W
096C4:  ADDLW  9D
096C6:  MOVWF  FE9
096C8:  MOVLW  03
096CA:  ADDWFC 03,W
096CC:  MOVWF  FEA
096CE:  MOVFF  FEF,3C9
096D2:  MOVFF  B3,3CA
096D6:  MOVLW  0A
096D8:  MOVWF  xCB
096DA:  MOVLB  0
096DC:  CALL   29A2
096E0:  MOVF   01,W
096E2:  MOVLB  3
096E4:  SUBWF  xC9,W
096E6:  MOVLB  0
096E8:  MOVWF  xB7
....................             Testerilizacionp[1]=CiclosPersonalizados[CicloLibre-1].Segundoest/10; 
096EA:  MOVLW  01
096EC:  MOVLB  3
096EE:  SUBWF  x29,W
096F0:  MULLW  0B
096F2:  MOVF   FF3,W
096F4:  CLRF   xCA
096F6:  MOVWF  xC9
096F8:  MOVLW  03
096FA:  ADDWF  xC9,W
096FC:  MOVWF  01
096FE:  MOVLW  00
09700:  ADDWFC xCA,W
09702:  MOVWF  03
09704:  MOVF   01,W
09706:  ADDLW  9D
09708:  MOVWF  FE9
0970A:  MOVLW  03
0970C:  ADDWFC 03,W
0970E:  MOVWF  FEA
09710:  MOVFF  FEF,3D2
09714:  MOVLW  0A
09716:  MOVWF  xD3
09718:  MOVLB  0
0971A:  CALL   43EA
0971E:  MOVFF  01,B6
....................             Testerilizacionp[0]=CiclosPersonalizados[CicloLibre-1].Segundoest-(Testerilizacion[1]*10); 
09722:  MOVLW  01
09724:  MOVLB  3
09726:  SUBWF  x29,W
09728:  MULLW  0B
0972A:  MOVF   FF3,W
0972C:  CLRF   xCA
0972E:  MOVWF  xC9
09730:  MOVLW  03
09732:  ADDWF  xC9,W
09734:  MOVWF  01
09736:  MOVLW  00
09738:  ADDWFC xCA,W
0973A:  MOVWF  03
0973C:  MOVF   01,W
0973E:  ADDLW  9D
09740:  MOVWF  FE9
09742:  MOVLW  03
09744:  ADDWFC 03,W
09746:  MOVWF  FEA
09748:  MOVFF  FEF,3C9
0974C:  MOVFF  B1,3CA
09750:  MOVLW  0A
09752:  MOVWF  xCB
09754:  MOVLB  0
09756:  CALL   29A2
0975A:  MOVF   01,W
0975C:  MOVLB  3
0975E:  SUBWF  xC9,W
09760:  MOVLB  0
09762:  MOVWF  xB5
09764:  MOVLB  3
....................       } 
....................        
....................       if(RX_Buffer[4]==0x80 && CicloLibre==3){//80, NivelDesfogue          
09766:  MOVF   34,W
09768:  SUBLW  80
0976A:  BNZ   97B8
0976C:  MOVF   x29,W
0976E:  SUBLW  03
09770:  BNZ   97B8
....................             printf("page Nivel"); 
09772:  MOVLW  08
09774:  MOVWF  FF6
09776:  MOVLW  0F
09778:  MOVWF  FF7
0977A:  MOVLW  00
0977C:  MOVWF  FF8
0977E:  MOVLB  0
09780:  CALL   3410
....................             SendDataDisplay();      
09784:  CALL   3442
....................             Nivel=CiclosPersonalizados[CicloLibre-1].NivelDesfogue;          
09788:  MOVLW  01
0978A:  MOVLB  3
0978C:  SUBWF  x29,W
0978E:  MULLW  0B
09790:  MOVF   FF3,W
09792:  CLRF   xCA
09794:  MOVWF  xC9
09796:  MOVLW  08
09798:  ADDWF  xC9,W
0979A:  MOVWF  01
0979C:  MOVLW  00
0979E:  ADDWFC xCA,W
097A0:  MOVWF  03
097A2:  MOVF   01,W
097A4:  ADDLW  9D
097A6:  MOVWF  FE9
097A8:  MOVLW  03
097AA:  ADDWFC 03,W
097AC:  MOVWF  FEA
097AE:  MOVF   FEF,W
097B0:  CLRF   03
097B2:  MOVWF  x4A
097B4:  MOVFF  03,34B
....................       } 
....................        
....................       if((RX_Buffer[4]==0x70 && CicloLibre>0) || UP){//70, Iniciar Ciclo          
097B8:  MOVF   34,W
097BA:  SUBLW  70
097BC:  BNZ   97C2
097BE:  MOVF   x29,F
097C0:  BNZ   97C8
097C2:  BSF    F93.0
097C4:  BTFSC  F81.0
097C6:  BRA    99A2
....................          delay_ms(100);    
097C8:  MOVLW  64
097CA:  MOVWF  xD4
097CC:  MOVLB  0
097CE:  CALL   16D0
....................          if((RX_Buffer[4]==0x70 && CicloLibre>0) || UP){//70, Iniciar Ciclo 
097D2:  MOVF   34,W
097D4:  SUBLW  70
097D6:  BNZ   97E0
097D8:  MOVLB  3
097DA:  MOVF   x29,F
097DC:  BNZ   97E8
097DE:  MOVLB  0
097E0:  BSF    F93.0
097E2:  BTFSC  F81.0
097E4:  BRA    99A0
097E6:  MOVLB  3
....................             printf("page Funcionamiento"); 
097E8:  MOVLW  14
097EA:  MOVWF  FF6
097EC:  MOVLW  0F
097EE:  MOVWF  FF7
097F0:  MOVLW  00
097F2:  MOVWF  FF8
097F4:  MOVLB  0
097F6:  CALL   3410
....................             SendDataDisplay();        
097FA:  CALL   3442
....................             Libre=ON; 
097FE:  BSF    xA3.2
....................             if(CiclosPersonalizados[CicloLibre-1].NivelDesfogue>5){ 
09800:  MOVLW  01
09802:  MOVLB  3
09804:  SUBWF  x29,W
09806:  MULLW  0B
09808:  MOVF   FF3,W
0980A:  CLRF   xCA
0980C:  MOVWF  xC9
0980E:  MOVLW  08
09810:  ADDWF  xC9,W
09812:  MOVWF  01
09814:  MOVLW  00
09816:  ADDWFC xCA,W
09818:  MOVWF  03
0981A:  MOVF   01,W
0981C:  ADDLW  9D
0981E:  MOVWF  FE9
09820:  MOVLW  03
09822:  ADDWFC 03,W
09824:  MOVWF  FEA
09826:  MOVF   FEF,W
09828:  SUBLW  05
0982A:  BC    98C4
....................                ConfiguraCiclo(CiclosPersonalizados[CicloLibre-1].Minutoeste, 
....................                            CiclosPersonalizados[CicloLibre-1].Segundoest,0,CicloLibre+10,CiclosPersonalizados[CicloLibre-1].Temperatura);             
0982C:  MOVLW  01
0982E:  SUBWF  x29,W
09830:  MULLW  0B
09832:  MOVF   FF3,W
09834:  CLRF   xCA
09836:  MOVWF  xC9
09838:  MOVLW  09
0983A:  ADDWF  xC9,W
0983C:  MOVWF  01
0983E:  MOVLW  00
09840:  ADDWFC xCA,W
09842:  MOVWF  03
09844:  MOVF   01,W
09846:  ADDLW  9D
09848:  MOVWF  FE9
0984A:  MOVLW  03
0984C:  ADDWFC 03,W
0984E:  MOVWF  FEA
09850:  MOVFF  FEC,3CA
09854:  MOVF   FED,F
09856:  MOVFF  FEF,3C9
0985A:  MOVLW  01
0985C:  SUBWF  x29,W
0985E:  MULLW  0B
09860:  MOVF   FF3,W
09862:  CLRF   xCC
09864:  MOVWF  xCB
09866:  MOVLW  03
09868:  ADDWF  xCB,W
0986A:  MOVWF  01
0986C:  MOVLW  00
0986E:  ADDWFC xCC,W
09870:  MOVWF  03
09872:  MOVF   01,W
09874:  ADDLW  9D
09876:  MOVWF  FE9
09878:  MOVLW  03
0987A:  ADDWFC 03,W
0987C:  MOVWF  FEA
0987E:  MOVFF  FEF,3CB
09882:  MOVLW  0A
09884:  ADDWF  x29,W
09886:  MOVWF  xCC
09888:  MOVLW  01
0988A:  SUBWF  x29,W
0988C:  MULLW  0B
0988E:  MOVF   FF3,W
09890:  CLRF   xCE
09892:  MOVWF  xCD
09894:  MOVLW  9D
09896:  ADDWF  xCD,W
09898:  MOVWF  FE9
0989A:  MOVLW  03
0989C:  ADDWFC xCE,W
0989E:  MOVWF  FEA
098A0:  MOVFF  FEF,3CD
098A4:  MOVFF  3CA,3CF
098A8:  MOVFF  3C9,3CE
098AC:  MOVFF  3CB,3D0
098B0:  CLRF   xD1
098B2:  MOVFF  3CC,3D2
098B6:  MOVFF  3CD,3D3
098BA:  MOVLB  0
098BC:  CALL   4494
....................             }else{ 
098C0:  BRA    99A0
098C2:  MOVLB  3
....................                ConfiguraCiclo(CiclosPersonalizados[CicloLibre-1].Minutoeste, 
....................                            CiclosPersonalizados[CicloLibre-1].Segundoest,1,CicloLibre+10,CiclosPersonalizados[CicloLibre-1].Temperatura); 
098C4:  MOVLW  01
098C6:  SUBWF  x29,W
098C8:  MULLW  0B
098CA:  MOVF   FF3,W
098CC:  CLRF   xCA
098CE:  MOVWF  xC9
098D0:  MOVLW  09
098D2:  ADDWF  xC9,W
098D4:  MOVWF  01
098D6:  MOVLW  00
098D8:  ADDWFC xCA,W
098DA:  MOVWF  03
098DC:  MOVF   01,W
098DE:  ADDLW  9D
098E0:  MOVWF  FE9
098E2:  MOVLW  03
098E4:  ADDWFC 03,W
098E6:  MOVWF  FEA
098E8:  MOVFF  FEC,3CA
098EC:  MOVF   FED,F
098EE:  MOVFF  FEF,3C9
098F2:  MOVLW  01
098F4:  SUBWF  x29,W
098F6:  MULLW  0B
098F8:  MOVF   FF3,W
098FA:  CLRF   xCC
098FC:  MOVWF  xCB
098FE:  MOVLW  03
09900:  ADDWF  xCB,W
09902:  MOVWF  01
09904:  MOVLW  00
09906:  ADDWFC xCC,W
09908:  MOVWF  03
0990A:  MOVF   01,W
0990C:  ADDLW  9D
0990E:  MOVWF  FE9
09910:  MOVLW  03
09912:  ADDWFC 03,W
09914:  MOVWF  FEA
09916:  MOVFF  FEF,3CB
0991A:  MOVLW  0A
0991C:  ADDWF  x29,W
0991E:  MOVWF  xCC
09920:  MOVLW  01
09922:  SUBWF  x29,W
09924:  MULLW  0B
09926:  MOVF   FF3,W
09928:  CLRF   xCE
0992A:  MOVWF  xCD
0992C:  MOVLW  9D
0992E:  ADDWF  xCD,W
09930:  MOVWF  FE9
09932:  MOVLW  03
09934:  ADDWFC xCE,W
09936:  MOVWF  FEA
09938:  MOVFF  FEF,3CD
0993C:  MOVFF  3CA,3CF
09940:  MOVFF  3C9,3CE
09944:  MOVFF  3CB,3D0
09948:  MOVLW  01
0994A:  MOVWF  xD1
0994C:  MOVFF  3CC,3D2
09950:  MOVFF  3CD,3D3
09954:  MOVLB  0
09956:  CALL   4494
....................                NivelSeleccionado=9990*CiclosPersonalizados[CicloLibre-1].NivelDesfogue; 
0995A:  MOVLW  01
0995C:  MOVLB  3
0995E:  SUBWF  x29,W
09960:  MULLW  0B
09962:  MOVF   FF3,W
09964:  CLRF   xCA
09966:  MOVWF  xC9
09968:  MOVLW  08
0996A:  ADDWF  xC9,W
0996C:  MOVWF  01
0996E:  MOVLW  00
09970:  ADDWFC xCA,W
09972:  MOVWF  03
09974:  MOVF   01,W
09976:  ADDLW  9D
09978:  MOVWF  FE9
0997A:  MOVLW  03
0997C:  ADDWFC 03,W
0997E:  MOVWF  FEA
09980:  MOVFF  FEF,3C9
09984:  MOVLW  27
09986:  MOVWF  xCB
09988:  MOVLW  06
0998A:  MOVWF  xCA
0998C:  CLRF   xCD
0998E:  MOVFF  3C9,3CC
09992:  MOVLB  0
09994:  CALL   34EC
09998:  MOVFF  02,355
0999C:  MOVFF  01,354
099A0:  MOVLB  3
....................             } 
....................          } 
....................       } 
....................    } 
.................... //_--------------------------------------------------------------------------------------------------------------------------------------------------------        
....................  
.................... //_--------------------------------------------------------------------------------------------------------------------------------------------------------       
....................     if(Menu==15){//Menu de Clave Correcta 
099A2:  MOVF   x35,W
099A4:  SUBLW  0F
099A6:  BNZ   99D4
....................       delay_ms(2000); 
099A8:  MOVLW  08
099AA:  MOVWF  xC9
099AC:  MOVLW  FA
099AE:  MOVWF  xD4
099B0:  MOVLB  0
099B2:  CALL   16D0
099B6:  MOVLB  3
099B8:  DECFSZ xC9,F
099BA:  BRA    99AC
....................       printf("page MenuPrincipal"); 
099BC:  MOVLW  28
099BE:  MOVWF  FF6
099C0:  MOVLW  0F
099C2:  MOVWF  FF7
099C4:  MOVLW  00
099C6:  MOVWF  FF8
099C8:  MOVLB  0
099CA:  CALL   3410
....................       SendDataDisplay(); 
099CE:  CALL   3442
099D2:  MOVLB  3
....................    } 
.................... //_--------------------------------------------------------------------------------------------------------------------------------------------------------       
....................  
.................... //_--------------------------------------------------------------------------------------------------------------------------------------------------------       
....................     if(Menu==16){//Menu de Clave InCorrecta 
099D4:  MOVF   x35,W
099D6:  SUBLW  10
099D8:  BNZ   9A06
....................       delay_ms(2000); 
099DA:  MOVLW  08
099DC:  MOVWF  xC9
099DE:  MOVLW  FA
099E0:  MOVWF  xD4
099E2:  MOVLB  0
099E4:  CALL   16D0
099E8:  MOVLB  3
099EA:  DECFSZ xC9,F
099EC:  BRA    99DE
....................       printf("page Clave"); 
099EE:  MOVLW  3C
099F0:  MOVWF  FF6
099F2:  MOVLW  0F
099F4:  MOVWF  FF7
099F6:  MOVLW  00
099F8:  MOVWF  FF8
099FA:  MOVLB  0
099FC:  CALL   3410
....................       SendDataDisplay(); 
09A00:  CALL   3442
09A04:  MOVLB  3
....................    } 
.................... //_--------------------------------------------------------------------------------------------------------------------------------------------------------       
....................  
.................... //_--------------------------------------------------------------------------------------------------------------------------------------------------------     
....................    if(Menu==20){ // Este es el menu de cuando el proceso se inicio. 
09A06:  MOVF   x35,W
09A08:  SUBLW  14
09A0A:  BTFSS  FD8.2
09A0C:  GOTO   A7B0
....................    //Lectura_Esclavos(); 
....................     
....................    if(!Libre){ 
09A10:  MOVLB  0
09A12:  BTFSC  xA3.2
09A14:  BRA    9A98
....................       printf("t2f.txt=\"%u\"",CicloSeleccionado); 
09A16:  MOVLW  48
09A18:  MOVWF  FF6
09A1A:  MOVLW  0F
09A1C:  MOVWF  FF7
09A1E:  MOVLW  00
09A20:  MOVWF  FF8
09A22:  MOVLW  09
09A24:  MOVLB  3
09A26:  MOVWF  xCD
09A28:  MOVLB  0
09A2A:  CALL   43B8
09A2E:  MOVFF  33B,3CC
09A32:  MOVLW  1B
09A34:  MOVLB  3
09A36:  MOVWF  xCD
09A38:  MOVLB  0
09A3A:  CALL   4416
09A3E:  MOVLW  22
09A40:  BTFSS  F9E.4
09A42:  BRA    9A40
09A44:  MOVWF  FAD
....................       SendDataDisplay(); 
09A46:  CALL   3442
....................       printf("t3f.txt=\"%s\"",texto[CicloSeleccionado-1]); 
09A4A:  MOVLW  01
09A4C:  MOVLB  3
09A4E:  SUBWF  x3B,W
09A50:  MULLW  14
09A52:  MOVF   FF3,W
09A54:  CLRF   03
09A56:  MOVWF  xC9
09A58:  MOVLW  56
09A5A:  MOVWF  FF6
09A5C:  MOVLW  0F
09A5E:  MOVWF  FF7
09A60:  MOVLW  00
09A62:  MOVWF  FF8
09A64:  MOVLW  09
09A66:  MOVWF  xCD
09A68:  MOVLB  0
09A6A:  CALL   43B8
09A6E:  MOVLW  50
09A70:  MOVWF  FF6
09A72:  MOVLW  01
09A74:  MOVWF  FF7
09A76:  MOVLW  00
09A78:  MOVWF  FF8
09A7A:  MOVLB  3
09A7C:  MOVF   xC9,W
09A7E:  ADDWF  FF6,F
09A80:  MOVLW  00
09A82:  ADDWFC FF7,F
09A84:  MOVLB  0
09A86:  CALL   3410
09A8A:  MOVLW  22
09A8C:  BTFSS  F9E.4
09A8E:  BRA    9A8C
09A90:  MOVWF  FAD
....................       SendDataDisplay(); 
09A92:  CALL   3442
....................    }else{ 
09A96:  BRA    9AE6
....................       printf("t2f.txt=\"%u\"",CicloLibre+4); 
09A98:  MOVLW  04
09A9A:  MOVLB  3
09A9C:  ADDWF  x29,W
09A9E:  MOVWF  xC9
09AA0:  MOVLW  64
09AA2:  MOVWF  FF6
09AA4:  MOVLW  0F
09AA6:  MOVWF  FF7
09AA8:  MOVLW  00
09AAA:  MOVWF  FF8
09AAC:  MOVLW  09
09AAE:  MOVWF  xCD
09AB0:  MOVLB  0
09AB2:  CALL   43B8
09AB6:  MOVFF  3C9,3CC
09ABA:  MOVLW  1B
09ABC:  MOVLB  3
09ABE:  MOVWF  xCD
09AC0:  MOVLB  0
09AC2:  CALL   4416
09AC6:  MOVLW  22
09AC8:  BTFSS  F9E.4
09ACA:  BRA    9AC8
09ACC:  MOVWF  FAD
....................       SendDataDisplay(); 
09ACE:  CALL   3442
....................       printf("t3f.txt=\"Personalizado\""); 
09AD2:  MOVLW  72
09AD4:  MOVWF  FF6
09AD6:  MOVLW  0F
09AD8:  MOVWF  FF7
09ADA:  MOVLW  00
09ADC:  MOVWF  FF8
09ADE:  CALL   3410
....................       SendDataDisplay(); 
09AE2:  CALL   3442
....................    } 
....................     
....................    if(RIGHT){ 
09AE6:  BSF    F93.2
09AE8:  BTFSC  F81.2
09AEA:  BRA    9B0A
....................       //glcd_init(ON); 
....................       delay_ms(1000); 
09AEC:  MOVLW  04
09AEE:  MOVLB  3
09AF0:  MOVWF  xC9
09AF2:  MOVLW  FA
09AF4:  MOVWF  xD4
09AF6:  MOVLB  0
09AF8:  CALL   16D0
09AFC:  MOVLB  3
09AFE:  DECFSZ xC9,F
09B00:  BRA    9AF2
....................       flagCalentando=OFF; 
09B02:  MOVLB  0
09B04:  BCF    xA1.3
....................       flagDesfogando=OFF; 
09B06:  BCF    xA1.5
....................       flagEsterilizando=OFF; 
09B08:  BCF    xA1.4
....................    } 
....................     
....................    if(PresionPreCamara>302 || PresionCamara>200){ 
09B0A:  MOVLB  3
09B0C:  MOVF   x51,W
09B0E:  SUBLW  00
09B10:  BC    9B1C
09B12:  XORLW  FF
09B14:  BNZ   9B26
09B16:  MOVF   x50,W
09B18:  SUBLW  2E
09B1A:  BNC   9B26
09B1C:  MOVF   x4F,F
09B1E:  BNZ   9B26
09B20:  MOVF   x4E,W
09B22:  SUBLW  C8
09B24:  BC    9B2A
....................       AlarmaPresion=ON; 
09B26:  MOVLB  0
09B28:  BSF    xA3.1
....................    } 
....................     
....................    if(TiempoCiclo>2000){ 
09B2A:  MOVLB  0
09B2C:  MOVF   xA5,W
09B2E:  SUBLW  06
09B30:  BC    9B52
09B32:  XORLW  FF
09B34:  BNZ   9B3C
09B36:  MOVF   xA4,W
09B38:  SUBLW  D0
09B3A:  BC    9B52
....................       if(PresionCamara<10){ 
09B3C:  MOVLB  3
09B3E:  MOVF   x4F,F
09B40:  BNZ   9B4E
09B42:  MOVF   x4E,W
09B44:  SUBLW  09
09B46:  BNC   9B4E
....................          AlarmaTiempoProlongado=ON; 
09B48:  MOVLB  0
09B4A:  BSF    x9F.0
09B4C:  MOVLB  3
....................       } 
....................    }else{ 
09B4E:  BRA    9B56
09B50:  MOVLB  0
....................       AlarmaTiempoProlongado=OFF; 
09B52:  BCF    x9F.0
09B54:  MOVLB  3
....................    } 
....................     
....................    if((Temperatura>Setpoint+3.0 && Setpoint>80) || (Temperatura>Setpoint+6.0 && Setpoint<80)){ 
09B56:  CLRF   xD5
09B58:  MOVFF  33C,3D4
09B5C:  MOVLB  0
09B5E:  CALL   16F8
09B62:  BCF    FD8.1
09B64:  MOVFF  03,3D7
09B68:  MOVFF  02,3D6
09B6C:  MOVFF  01,3D5
09B70:  MOVFF  00,3D4
09B74:  MOVLB  3
09B76:  CLRF   xDB
09B78:  CLRF   xDA
09B7A:  MOVLW  40
09B7C:  MOVWF  xD9
09B7E:  MOVLW  80
09B80:  MOVWF  xD8
09B82:  MOVLB  0
09B84:  CALL   188C
09B88:  MOVFF  03,3D0
09B8C:  MOVFF  02,3CF
09B90:  MOVFF  01,3CE
09B94:  MOVFF  00,3CD
09B98:  MOVFF  316,3D4
09B9C:  MOVFF  315,3D3
09BA0:  MOVFF  314,3D2
09BA4:  MOVFF  313,3D1
09BA8:  CALL   2928
09BAC:  BNC   9BB6
09BAE:  MOVLB  3
09BB0:  MOVF   x3C,W
09BB2:  SUBLW  50
09BB4:  BNC   9C1E
09BB6:  MOVLB  3
09BB8:  CLRF   xD5
09BBA:  MOVFF  33C,3D4
09BBE:  MOVLB  0
09BC0:  CALL   16F8
09BC4:  BCF    FD8.1
09BC6:  MOVFF  03,3D7
09BCA:  MOVFF  02,3D6
09BCE:  MOVFF  01,3D5
09BD2:  MOVFF  00,3D4
09BD6:  MOVLB  3
09BD8:  CLRF   xDB
09BDA:  CLRF   xDA
09BDC:  MOVLW  40
09BDE:  MOVWF  xD9
09BE0:  MOVLW  81
09BE2:  MOVWF  xD8
09BE4:  MOVLB  0
09BE6:  CALL   188C
09BEA:  MOVFF  03,3D0
09BEE:  MOVFF  02,3CF
09BF2:  MOVFF  01,3CE
09BF6:  MOVFF  00,3CD
09BFA:  MOVFF  316,3D4
09BFE:  MOVFF  315,3D3
09C02:  MOVFF  314,3D2
09C06:  MOVFF  313,3D1
09C0A:  CALL   2928
09C0E:  BNC   9C22
09C10:  MOVLB  3
09C12:  MOVF   x3C,W
09C14:  SUBLW  4F
09C16:  BTFSC  FD8.0
09C18:  BRA    9C1E
09C1A:  MOVLB  0
09C1C:  BRA    9C22
....................       AlarmaSobreTemperatura=ON; 
09C1E:  MOVLB  0
09C20:  BSF    x9F.1
....................    } 
....................     
....................    if(TiempoLlenado>600){ 
09C22:  MOVF   xA7,W
09C24:  SUBLW  01
09C26:  BC    9C36
09C28:  XORLW  FF
09C2A:  BNZ   9C32
09C2C:  MOVF   xA6,W
09C2E:  SUBLW  58
09C30:  BC    9C36
....................       AlarmaLlenado=ON; 
09C32:  BSF    x9F.2
....................    }else{ 
09C34:  BRA    9C38
....................       AlarmaLlenado=OFF; 
09C36:  BCF    x9F.2
....................    } 
....................     
....................    if(!TERM){ 
09C38:  BSF    F93.5
09C3A:  BTFSS  F81.5
09C3C:  BRA    9C40
....................       AlarmaTermostato=ON; 
09C3E:  BSF    x9F.3
....................    } 
....................     
....................    if(!DOOR){ 
09C40:  BSF    F93.6
09C42:  BTFSS  F81.6
09C44:  BRA    9C56
....................       //Desfogue_off; 
....................       //Solenoide_off; 
....................       Paso_off; 
09C46:  BCF    F8C.5
09C48:  BCF    F95.5
....................       if(!Secando && !Finalizo){ 
09C4A:  BTFSC  xA0.2
09C4C:  BRA    9C54
09C4E:  BTFSC  xA3.0
09C50:  BRA    9C54
....................          AlarmaPuerta=ON; 
09C52:  BSF    x9F.4
....................       } 
....................    }else{ 
09C54:  BRA    9C58
....................       AlarmaPuerta=OFF; 
09C56:  BCF    x9F.4
....................    } 
....................  
....................    if(!STOP){ 
09C58:  BSF    F93.7
09C5A:  BTFSS  F81.7
09C5C:  BRA    9C60
....................       AlarmaEmergencia=ON; 
09C5E:  BSF    x9F.5
....................    } 
....................     
....................    if(AlarmaPuerta || AlarmaTermostato || AlarmaLlenado || AlarmaSobreTemperatura || AlarmaTiempoProlongado || AlarmaEmergencia || AlarmaPresion){ 
09C60:  BTFSC  x9F.4
09C62:  BRA    9C7C
09C64:  BTFSC  x9F.3
09C66:  BRA    9C7C
09C68:  BTFSC  x9F.2
09C6A:  BRA    9C7C
09C6C:  BTFSC  x9F.1
09C6E:  BRA    9C7C
09C70:  BTFSC  x9F.0
09C72:  BRA    9C7C
09C74:  BTFSC  x9F.5
09C76:  BRA    9C7C
09C78:  BTFSS  xA3.1
09C7A:  BRA    9F9A
....................       ActivaAlarma(1); 
09C7C:  MOVLW  01
09C7E:  MOVLB  3
09C80:  MOVWF  xC9
09C82:  MOVLB  0
09C84:  CALL   42BC
....................       if(AlarmaEmergencia){ 
09C88:  BTFSS  x9F.5
09C8A:  BRA    9CFA
....................          printf("Funcionamiento.t4f.txt=\" Parada de Emergencia\""); 
09C8C:  MOVLW  8A
09C8E:  MOVWF  FF6
09C90:  MOVLW  0F
09C92:  MOVWF  FF7
09C94:  MOVLW  00
09C96:  MOVWF  FF8
09C98:  CALL   3410
....................          SendDataDisplay(); 
09C9C:  CALL   3442
....................          printf("Funcionamiento.t5f.txt=\" Cancelado\""); 
09CA0:  MOVLW  BA
09CA2:  MOVWF  FF6
09CA4:  MOVLW  0F
09CA6:  MOVWF  FF7
09CA8:  MOVLW  00
09CAA:  MOVWF  FF8
09CAC:  CALL   3410
....................          SendDataDisplay(); 
09CB0:  CALL   3442
....................          Desfogue_on; 
09CB4:  BSF    F8C.4
09CB6:  BCF    F95.4
....................          AguaIn_off; 
09CB8:  BCF    F8C.6
09CBA:  BCF    F95.6
....................          SSR_off; 
09CBC:  BSF    F8B.2
09CBE:  BCF    F94.2
....................          Paso_off; 
09CC0:  BCF    F8C.5
09CC2:  BCF    F95.5
....................          Esterilizando=OFF; 
09CC4:  BCF    xA0.1
....................          Desfogando=OFF; 
09CC6:  BCF    xA0.4
....................          DesfogueSuave=OFF; 
09CC8:  BCF    xA0.5
....................          Esterilizando=OFF; 
09CCA:  BCF    xA0.1
....................          //IniciaCiclo=OFF; 
....................          Controlando=0; 
09CCC:  MOVLB  3
09CCE:  CLRF   x2D
....................          if(!flagImprimir && ActivaImpresion==1){ 
09CD0:  BTFSC  x2A.3
09CD2:  BRA    9CF6
09CD4:  DECFSZ x2E,W
09CD6:  BRA    9CF6
....................             Imprime=20; 
09CD8:  MOVLW  14
09CDA:  MOVWF  x7A
....................             Envio_Esclavos(); 
09CDC:  MOVLB  0
09CDE:  CALL   3D7E
....................             delay_ms(100); 
09CE2:  MOVLW  64
09CE4:  MOVLB  3
09CE6:  MOVWF  xD4
09CE8:  MOVLB  0
09CEA:  CALL   16D0
....................             Imprime=10; 
09CEE:  MOVLW  0A
09CF0:  MOVLB  3
09CF2:  MOVWF  x7A
....................             flagImprimir=1; 
09CF4:  BSF    x2A.3
....................          } 
....................       }else if(AlarmaPuerta){ 
09CF6:  BRA    9F96
09CF8:  MOVLB  0
09CFA:  BTFSS  x9F.4
09CFC:  BRA    9D3C
....................             printf("Funcionamiento.t4f.txt=\" Puerta Abierta\""); 
09CFE:  MOVLW  DE
09D00:  MOVWF  FF6
09D02:  MOVLW  0F
09D04:  MOVWF  FF7
09D06:  MOVLW  00
09D08:  MOVWF  FF8
09D0A:  CALL   3410
....................             SendDataDisplay(); 
09D0E:  CALL   3442
....................             printf("Funcionamiento.t5f.txt=\" Pausado\""); 
09D12:  MOVLW  08
09D14:  MOVWF  FF6
09D16:  MOVLW  10
09D18:  MOVWF  FF7
09D1A:  MOVLW  00
09D1C:  MOVWF  FF8
09D1E:  CALL   3410
....................             SendDataDisplay(); 
09D22:  CALL   3442
....................             SSR_off; 
09D26:  BSF    F8B.2
09D28:  BCF    F94.2
....................             Paso_off; 
09D2A:  BCF    F8C.5
09D2C:  BCF    F95.5
....................             IniciaLlenado=OFF; 
09D2E:  BCF    x9F.6
....................             IniciaCiclo=OFF; 
09D30:  BCF    xA0.0
....................             Esterilizando=OFF; 
09D32:  BCF    xA0.1
....................             Controlando=0; 
09D34:  MOVLB  3
09D36:  CLRF   x2D
....................       }else if(AlarmaLlenado){ 
09D38:  BRA    9F96
09D3A:  MOVLB  0
09D3C:  BTFSS  x9F.2
09D3E:  BRA    9DAC
....................             printf("Funcionamiento.t4f.txt=\" Tiempo Llenado\""); 
09D40:  MOVLW  2A
09D42:  MOVWF  FF6
09D44:  MOVLW  10
09D46:  MOVWF  FF7
09D48:  MOVLW  00
09D4A:  MOVWF  FF8
09D4C:  CALL   3410
....................             SendDataDisplay(); 
09D50:  CALL   3442
....................             printf("Funcionamiento.t5f.txt=\" Cancelado\""); 
09D54:  MOVLW  54
09D56:  MOVWF  FF6
09D58:  MOVLW  10
09D5A:  MOVWF  FF7
09D5C:  MOVLW  00
09D5E:  MOVWF  FF8
09D60:  CALL   3410
....................             SendDataDisplay(); 
09D64:  CALL   3442
....................             Desfogue_off; 
09D68:  BCF    F8C.4
09D6A:  BCF    F95.4
....................             AguaIn_off; 
09D6C:  BCF    F8C.6
09D6E:  BCF    F95.6
....................             SSR_off; 
09D70:  BSF    F8B.2
09D72:  BCF    F94.2
....................             Paso_off; 
09D74:  BCF    F8C.5
09D76:  BCF    F95.5
....................             IniciaLlenado=OFF; 
09D78:  BCF    x9F.6
....................             IniciaCiclo=OFF; 
09D7A:  BCF    xA0.0
....................             Esterilizando=OFF; 
09D7C:  BCF    xA0.1
....................             Controlando=0; 
09D7E:  MOVLB  3
09D80:  CLRF   x2D
....................             if(!flagImprimir && ActivaImpresion==1){ 
09D82:  BTFSC  x2A.3
09D84:  BRA    9DA8
09D86:  DECFSZ x2E,W
09D88:  BRA    9DA8
....................                Imprime=21; 
09D8A:  MOVLW  15
09D8C:  MOVWF  x7A
....................                Envio_Esclavos(); 
09D8E:  MOVLB  0
09D90:  CALL   3D7E
....................                delay_ms(100); 
09D94:  MOVLW  64
09D96:  MOVLB  3
09D98:  MOVWF  xD4
09D9A:  MOVLB  0
09D9C:  CALL   16D0
....................                Imprime=10; 
09DA0:  MOVLW  0A
09DA2:  MOVLB  3
09DA4:  MOVWF  x7A
....................                flagImprimir=1; 
09DA6:  BSF    x2A.3
....................             } 
....................       }else if(AlarmaTermostato){ // Alarma de Termostato 
09DA8:  BRA    9F96
09DAA:  MOVLB  0
09DAC:  BTFSS  x9F.3
09DAE:  BRA    9E24
....................             tiempo_esterilizacion=0;tiempo_secado=0;          
09DB0:  MOVLB  3
09DB2:  CLRF   x3F
09DB4:  CLRF   x40
....................             printf("Funcionamiento.t4f.txt=\" Termostato\""); 
09DB6:  MOVLW  78
09DB8:  MOVWF  FF6
09DBA:  MOVLW  10
09DBC:  MOVWF  FF7
09DBE:  MOVLW  00
09DC0:  MOVWF  FF8
09DC2:  MOVLB  0
09DC4:  CALL   3410
....................             SendDataDisplay(); 
09DC8:  CALL   3442
....................             printf("Funcionamiento.t5f.txt=\" Cancelado\""); 
09DCC:  MOVLW  9E
09DCE:  MOVWF  FF6
09DD0:  MOVLW  10
09DD2:  MOVWF  FF7
09DD4:  MOVLW  00
09DD6:  MOVWF  FF8
09DD8:  CALL   3410
....................             SendDataDisplay(); 
09DDC:  CALL   3442
....................             Desfogue_on; 
09DE0:  BSF    F8C.4
09DE2:  BCF    F95.4
....................             AguaIn_off; 
09DE4:  BCF    F8C.6
09DE6:  BCF    F95.6
....................             SSR_off; 
09DE8:  BSF    F8B.2
09DEA:  BCF    F94.2
....................             Paso_off; 
09DEC:  BCF    F8C.5
09DEE:  BCF    F95.5
....................             Esterilizando=OFF; 
09DF0:  BCF    xA0.1
....................             Desfogando=OFF; 
09DF2:  BCF    xA0.4
....................             IniciaCiclo=OFF; 
09DF4:  BCF    xA0.0
....................             Controlando=0; 
09DF6:  MOVLB  3
09DF8:  CLRF   x2D
....................             if(!flagImprimir && ActivaImpresion==1){ 
09DFA:  BTFSC  x2A.3
09DFC:  BRA    9E20
09DFE:  DECFSZ x2E,W
09E00:  BRA    9E20
....................                Imprime=22; 
09E02:  MOVLW  16
09E04:  MOVWF  x7A
....................                Envio_Esclavos(); 
09E06:  MOVLB  0
09E08:  CALL   3D7E
....................                delay_ms(100); 
09E0C:  MOVLW  64
09E0E:  MOVLB  3
09E10:  MOVWF  xD4
09E12:  MOVLB  0
09E14:  CALL   16D0
....................                Imprime=10; 
09E18:  MOVLW  0A
09E1A:  MOVLB  3
09E1C:  MOVWF  x7A
....................                flagImprimir=1; 
09E1E:  BSF    x2A.3
....................             } 
....................       }else if(AlarmaSobreTemperatura){ // Alarma de Sobre Temperatura 
09E20:  BRA    9F96
09E22:  MOVLB  0
09E24:  BTFSS  x9F.1
09E26:  BRA    9EA0
....................          tiempo_esterilizacion=0;tiempo_secado=0;          
09E28:  MOVLB  3
09E2A:  CLRF   x3F
09E2C:  CLRF   x40
....................          printf("Funcionamiento.t4f.txt=\" Sobretemperatura\""); 
09E2E:  MOVLW  C2
09E30:  MOVWF  FF6
09E32:  MOVLW  10
09E34:  MOVWF  FF7
09E36:  MOVLW  00
09E38:  MOVWF  FF8
09E3A:  MOVLB  0
09E3C:  CALL   3410
....................          SendDataDisplay(); 
09E40:  CALL   3442
....................          printf("Funcionamiento.t5f.txt=\" Cancelado\""); 
09E44:  MOVLW  EE
09E46:  MOVWF  FF6
09E48:  MOVLW  10
09E4A:  MOVWF  FF7
09E4C:  MOVLW  00
09E4E:  MOVWF  FF8
09E50:  CALL   3410
....................          SendDataDisplay();   
09E54:  CALL   3442
....................          Desfogue_on; 
09E58:  BSF    F8C.4
09E5A:  BCF    F95.4
....................          SSR_off; 
09E5C:  BSF    F8B.2
09E5E:  BCF    F94.2
....................          Paso_off; 
09E60:  BCF    F8C.5
09E62:  BCF    F95.5
....................          Controlando=0; 
09E64:  MOVLB  3
09E66:  CLRF   x2D
....................          AguaIn_off; 
09E68:  BCF    F8C.6
09E6A:  BCF    F95.6
....................          IniciaLlenado=OFF; 
09E6C:  MOVLB  0
09E6E:  BCF    x9F.6
....................          IniciaCiclo=OFF; 
09E70:  BCF    xA0.0
....................          Esterilizando=OFF; 
09E72:  BCF    xA0.1
....................          if(!flagImprimir && ActivaImpresion==1){ 
09E74:  MOVLB  3
09E76:  BTFSC  x2A.3
09E78:  BRA    9E9C
09E7A:  DECFSZ x2E,W
09E7C:  BRA    9E9C
....................             Imprime=23; 
09E7E:  MOVLW  17
09E80:  MOVWF  x7A
....................             Envio_Esclavos(); 
09E82:  MOVLB  0
09E84:  CALL   3D7E
....................             delay_ms(100); 
09E88:  MOVLW  64
09E8A:  MOVLB  3
09E8C:  MOVWF  xD4
09E8E:  MOVLB  0
09E90:  CALL   16D0
....................             Imprime=10; 
09E94:  MOVLW  0A
09E96:  MOVLB  3
09E98:  MOVWF  x7A
....................             flagImprimir=1; 
09E9A:  BSF    x2A.3
....................          } 
....................       }else if(AlarmaTiempoProlongado){ // Alarma de Error de Tiempo: Error por exceso de tiempo de calentamiento. 
09E9C:  BRA    9F96
09E9E:  MOVLB  0
09EA0:  BTFSS  x9F.0
09EA2:  BRA    9F14
....................          printf("Funcionamiento.t4f.txt=\" Tiempo Prolongado\""); 
09EA4:  MOVLW  12
09EA6:  MOVWF  FF6
09EA8:  MOVLW  11
09EAA:  MOVWF  FF7
09EAC:  MOVLW  00
09EAE:  MOVWF  FF8
09EB0:  CALL   3410
....................          SendDataDisplay(); 
09EB4:  CALL   3442
....................          printf("Funcionamiento.t5f.txt=\" Cancelado\""); 
09EB8:  MOVLW  3E
09EBA:  MOVWF  FF6
09EBC:  MOVLW  11
09EBE:  MOVWF  FF7
09EC0:  MOVLW  00
09EC2:  MOVWF  FF8
09EC4:  CALL   3410
....................          SendDataDisplay(); 
09EC8:  CALL   3442
....................          Desfogue_on; 
09ECC:  BSF    F8C.4
09ECE:  BCF    F95.4
....................          AguaIn_off; 
09ED0:  BCF    F8C.6
09ED2:  BCF    F95.6
....................          SSR_off; 
09ED4:  BSF    F8B.2
09ED6:  BCF    F94.2
....................          Paso_off; 
09ED8:  BCF    F8C.5
09EDA:  BCF    F95.5
....................          Controlando=0; 
09EDC:  MOVLB  3
09EDE:  CLRF   x2D
....................          IniciaLlenado=OFF; 
09EE0:  MOVLB  0
09EE2:  BCF    x9F.6
....................          IniciaCiclo=OFF; 
09EE4:  BCF    xA0.0
....................          Esterilizando=OFF; 
09EE6:  BCF    xA0.1
....................          if(!flagImprimir && ActivaImpresion==1){ 
09EE8:  MOVLB  3
09EEA:  BTFSC  x2A.3
09EEC:  BRA    9F10
09EEE:  DECFSZ x2E,W
09EF0:  BRA    9F10
....................             Imprime=24; 
09EF2:  MOVLW  18
09EF4:  MOVWF  x7A
....................             Envio_Esclavos(); 
09EF6:  MOVLB  0
09EF8:  CALL   3D7E
....................             delay_ms(100); 
09EFC:  MOVLW  64
09EFE:  MOVLB  3
09F00:  MOVWF  xD4
09F02:  MOVLB  0
09F04:  CALL   16D0
....................             Imprime=10; 
09F08:  MOVLW  0A
09F0A:  MOVLB  3
09F0C:  MOVWF  x7A
....................             flagImprimir=1; 
09F0E:  BSF    x2A.3
....................          } 
....................       }else if(AlarmaPresion){ // Alarma de Error de SobrePresion: Error por exceso de Presion. 
09F10:  BRA    9F96
09F12:  MOVLB  0
09F14:  BTFSS  xA3.1
09F16:  BRA    9F98
....................          printf("Funcionamiento.t4f.txt=\" SobrePresin\""); 
09F18:  MOVLW  62
09F1A:  MOVWF  FF6
09F1C:  MOVLW  11
09F1E:  MOVWF  FF7
09F20:  MOVLW  00
09F22:  MOVWF  FF8
09F24:  CALL   3410
....................          SendDataDisplay(); 
09F28:  CALL   3442
....................          printf("Funcionamiento.t5f.txt=\" Cancelado\""); 
09F2C:  MOVLW  8A
09F2E:  MOVWF  FF6
09F30:  MOVLW  11
09F32:  MOVWF  FF7
09F34:  MOVLW  00
09F36:  MOVWF  FF8
09F38:  CALL   3410
....................          SendDataDisplay(); 
09F3C:  CALL   3442
....................          Desfogue_on; 
09F40:  BSF    F8C.4
09F42:  BCF    F95.4
....................          AguaIn_off; 
09F44:  BCF    F8C.6
09F46:  BCF    F95.6
....................          SSR_off; 
09F48:  BSF    F8B.2
09F4A:  BCF    F94.2
....................          IniciaLlenado=OFF; 
09F4C:  BCF    x9F.6
....................          IniciaCiclo=OFF; 
09F4E:  BCF    xA0.0
....................          Esterilizando=OFF; 
09F50:  BCF    xA0.1
....................          if(PresionPreCamara>20 && DOOR) 
09F52:  MOVLB  3
09F54:  MOVF   x51,F
09F56:  BNZ   9F5E
09F58:  MOVF   x50,W
09F5A:  SUBLW  14
09F5C:  BC    9F6A
09F5E:  BSF    F93.6
09F60:  BTFSC  F81.6
09F62:  BRA    9F6A
....................             Paso_on; 
09F64:  BSF    F8C.5
09F66:  BCF    F95.5
....................          else 
09F68:  BRA    9F6E
....................             Paso_off; 
09F6A:  BCF    F8C.5
09F6C:  BCF    F95.5
....................          Controlando=0; 
09F6E:  CLRF   x2D
....................          if(!flagImprimir && ActivaImpresion==1){ 
09F70:  BTFSC  x2A.3
09F72:  BRA    9F96
09F74:  DECFSZ x2E,W
09F76:  BRA    9F96
....................             Imprime=24; 
09F78:  MOVLW  18
09F7A:  MOVWF  x7A
....................             Envio_Esclavos(); 
09F7C:  MOVLB  0
09F7E:  CALL   3D7E
....................             delay_ms(100); 
09F82:  MOVLW  64
09F84:  MOVLB  3
09F86:  MOVWF  xD4
09F88:  MOVLB  0
09F8A:  CALL   16D0
....................             Imprime=10; 
09F8E:  MOVLW  0A
09F90:  MOVLB  3
09F92:  MOVWF  x7A
....................             flagImprimir=1; 
09F94:  BSF    x2A.3
09F96:  MOVLB  0
....................          } 
....................       } 
....................    } 
....................    else{   
09F98:  BRA    A578
....................       if(TTrampa>Setpoint-5 && !flagTrampa){ 
09F9A:  MOVLW  05
09F9C:  MOVLB  3
09F9E:  SUBWF  x3C,W
09FA0:  MOVLB  2
09FA2:  SUBWF  xD2,W
09FA4:  BZ    9FC0
09FA6:  BNC   9FC0
09FA8:  MOVLB  0
09FAA:  BTFSS  xA3.3
09FAC:  BRA    9FB2
09FAE:  MOVLB  2
09FB0:  BRA    9FC0
....................          TTrampa=Setpoint-10; 
09FB2:  MOVLW  0A
09FB4:  MOVLB  3
09FB6:  SUBWF  x3C,W
09FB8:  MOVLB  2
09FBA:  MOVWF  xD2
....................          flagTrampa=ON; 
09FBC:  MOVLB  0
09FBE:  BSF    xA3.3
....................       } 
....................        
....................       if(Setpoint<80 && !flagSetpoint){ 
09FC0:  MOVLB  3
09FC2:  MOVF   x3C,W
09FC4:  SUBLW  4F
09FC6:  BNC   9FE4
09FC8:  MOVLB  0
09FCA:  BTFSS  xA3.4
09FCC:  BRA    9FD2
09FCE:  MOVLB  3
09FD0:  BRA    9FE4
....................          Ganancia=1; 
09FD2:  MOVLB  2
09FD4:  CLRF   xFA
09FD6:  CLRF   xF9
09FD8:  CLRF   xF8
09FDA:  MOVLW  7F
09FDC:  MOVWF  xF7
....................          flagSetpoint=ON; 
09FDE:  MOVLB  0
09FE0:  BSF    xA3.4
09FE2:  MOVLB  3
....................       } 
....................       Buzzer_off; 
09FE4:  BCF    F8C.0
09FE6:  BCF    F95.0
....................       IniciaCiclo=ON; 
09FE8:  MOVLB  0
09FEA:  BSF    xA0.0
....................       if(flagImprime && ActivaImpresion==1){ 
09FEC:  MOVLB  3
09FEE:  BTFSS  x2A.2
09FF0:  BRA    A014
09FF2:  DECFSZ x2E,W
09FF4:  BRA    A014
....................          Imprime=5; 
09FF6:  MOVLW  05
09FF8:  MOVWF  x7A
....................          Envio_Esclavos(); 
09FFA:  MOVLB  0
09FFC:  CALL   3D7E
....................          delay_ms(100); 
0A000:  MOVLW  64
0A002:  MOVLB  3
0A004:  MOVWF  xD4
0A006:  MOVLB  0
0A008:  CALL   16D0
....................          Imprime=10; 
0A00C:  MOVLW  0A
0A00E:  MOVLB  3
0A010:  MOVWF  x7A
....................          flagImprime=0; 
0A012:  BCF    x2A.2
....................       } 
....................          if(!CalderinLleno){ 
0A014:  MOVLB  0
0A016:  BTFSC  x9F.7
0A018:  BRA    A05E
....................             printf("Funcionamiento.t4f.txt=\" Ninguna\""); 
0A01A:  MOVLW  AE
0A01C:  MOVWF  FF6
0A01E:  MOVLW  11
0A020:  MOVWF  FF7
0A022:  MOVLW  00
0A024:  MOVWF  FF8
0A026:  CALL   3410
....................             SendDataDisplay(); 
0A02A:  CALL   3442
....................             printf("Funcionamiento.t5f.txt=\" Nivel Bajo\""); 
0A02E:  MOVLW  D0
0A030:  MOVWF  FF6
0A032:  MOVLW  11
0A034:  MOVWF  FF7
0A036:  MOVLW  00
0A038:  MOVWF  FF8
0A03A:  CALL   3410
....................             SendDataDisplay(); 
0A03E:  CALL   3442
....................             Control=0; 
0A042:  MOVLB  3
0A044:  CLRF   x2B
....................             IniciaLlenado=ON; 
0A046:  MOVLB  0
0A048:  BSF    x9F.6
....................             Controlando=0; 
0A04A:  MOVLB  3
0A04C:  CLRF   x2D
....................             Desfogue_on; 
0A04E:  BSF    F8C.4
0A050:  BCF    F95.4
....................             AguaIn_on; 
0A052:  BSF    F8C.6
0A054:  BCF    F95.6
....................             Paso_off; 
0A056:  BCF    F8C.5
0A058:  BCF    F95.5
....................          } 
....................          else{ 
0A05A:  BRA    A57A
0A05C:  MOVLB  0
....................             AguaIn_off; 
0A05E:  BCF    F8C.6
0A060:  BCF    F95.6
....................             if(Temperatura>=((float)Setpoint-0.3)){ 
0A062:  MOVLB  3
0A064:  CLRF   xD5
0A066:  MOVFF  33C,3D4
0A06A:  MOVLB  0
0A06C:  CALL   16F8
0A070:  MOVFF  00,3C9
0A074:  MOVFF  01,3CA
0A078:  MOVFF  02,3CB
0A07C:  MOVFF  03,3CC
0A080:  BSF    FD8.1
0A082:  MOVFF  03,3D7
0A086:  MOVFF  02,3D6
0A08A:  MOVFF  01,3D5
0A08E:  MOVFF  00,3D4
0A092:  MOVLW  9A
0A094:  MOVLB  3
0A096:  MOVWF  xDB
0A098:  MOVLW  99
0A09A:  MOVWF  xDA
0A09C:  MOVLW  19
0A09E:  MOVWF  xD9
0A0A0:  MOVLW  7D
0A0A2:  MOVWF  xD8
0A0A4:  MOVLB  0
0A0A6:  CALL   188C
0A0AA:  MOVFF  03,3D0
0A0AE:  MOVFF  02,3CF
0A0B2:  MOVFF  01,3CE
0A0B6:  MOVFF  00,3CD
0A0BA:  MOVFF  316,3D4
0A0BE:  MOVFF  315,3D3
0A0C2:  MOVFF  314,3D2
0A0C6:  MOVFF  313,3D1
0A0CA:  CALL   2928
0A0CE:  BC    A0D2
0A0D0:  BNZ   A0D4
....................                Esterilizando=ON; 
0A0D2:  BSF    xA0.1
....................             } 
....................              
....................             if(Temperatura<((float)Setpoint-0.9) && !Desfogando){ 
0A0D4:  MOVLB  3
0A0D6:  CLRF   xD5
0A0D8:  MOVFF  33C,3D4
0A0DC:  MOVLB  0
0A0DE:  CALL   16F8
0A0E2:  MOVFF  00,3C9
0A0E6:  MOVFF  01,3CA
0A0EA:  MOVFF  02,3CB
0A0EE:  MOVFF  03,3CC
0A0F2:  BSF    FD8.1
0A0F4:  MOVFF  03,3D7
0A0F8:  MOVFF  02,3D6
0A0FC:  MOVFF  01,3D5
0A100:  MOVFF  00,3D4
0A104:  MOVLW  66
0A106:  MOVLB  3
0A108:  MOVWF  xDB
0A10A:  MOVWF  xDA
0A10C:  MOVWF  xD9
0A10E:  MOVLW  7E
0A110:  MOVWF  xD8
0A112:  MOVLB  0
0A114:  CALL   188C
0A118:  MOVFF  316,3D0
0A11C:  MOVFF  315,3CF
0A120:  MOVFF  314,3CE
0A124:  MOVFF  313,3CD
0A128:  MOVFF  03,3D4
0A12C:  MOVFF  02,3D3
0A130:  MOVFF  01,3D2
0A134:  MOVFF  00,3D1
0A138:  CALL   2928
0A13C:  BNC   A144
0A13E:  BTFSC  xA0.4
0A140:  BRA    A144
....................                Esterilizando=OFF; 
0A142:  BCF    xA0.1
....................             } 
....................              
....................             if(!Esterilizando){ 
0A144:  BTFSC  xA0.1
0A146:  BRA    A1C2
....................                printf("Funcionamiento.t4f.txt=\" Ninguna\""); 
0A148:  MOVLW  F6
0A14A:  MOVWF  FF6
0A14C:  MOVLW  11
0A14E:  MOVWF  FF7
0A150:  MOVLW  00
0A152:  MOVWF  FF8
0A154:  CALL   3410
....................                SendDataDisplay(); 
0A158:  CALL   3442
....................                printf("Funcionamiento.t5f.txt=\" Calentando\""); 
0A15C:  MOVLW  18
0A15E:  MOVWF  FF6
0A160:  MOVLW  12
0A162:  MOVWF  FF7
0A164:  MOVLW  00
0A166:  MOVWF  FF8
0A168:  CALL   3410
....................                SendDataDisplay(); 
0A16C:  CALL   3442
....................                Control=1; 
0A170:  MOVLW  01
0A172:  MOVLB  3
0A174:  MOVWF  x2B
....................                Controla(); 
0A176:  MOVLB  0
0A178:  CALL   4A78
....................                //if(PresionPreCamara>100){ 
....................                //   Paso_on; 
....................                //} 
....................                Paso_on; 
0A17C:  BSF    F8C.5
0A17E:  BCF    F95.5
....................                if(Temperatura<=TTrampa){ 
0A180:  MOVLB  3
0A182:  CLRF   xD5
0A184:  MOVFF  2D2,3D4
0A188:  MOVLB  0
0A18A:  CALL   16F8
0A18E:  MOVFF  316,3D0
0A192:  MOVFF  315,3CF
0A196:  MOVFF  314,3CE
0A19A:  MOVFF  313,3CD
0A19E:  MOVFF  03,3D4
0A1A2:  MOVFF  02,3D3
0A1A6:  MOVFF  01,3D2
0A1AA:  MOVFF  00,3D1
0A1AE:  CALL   2928
0A1B2:  BC    A1B6
0A1B4:  BNZ   A1BC
....................                   Desfogue_on; 
0A1B6:  BSF    F8C.4
0A1B8:  BCF    F95.4
....................                }else{ 
0A1BA:  BRA    A1C0
....................                   Desfogue_off; 
0A1BC:  BCF    F8C.4
0A1BE:  BCF    F95.4
....................                } 
....................             }else{ 
0A1C0:  BRA    A578
....................                TiempoCiclo=0; 
0A1C2:  CLRF   xA5
0A1C4:  CLRF   xA4
....................                if(minutoEst==0 && segundoEst==0){  
0A1C6:  MOVF   xC3,F
0A1C8:  BTFSS  FD8.2
0A1CA:  BRA    A540
0A1CC:  MOVF   xC4,F
0A1CE:  BTFSS  FD8.2
0A1D0:  BRA    A540
0A1D2:  MOVF   xC2,F
0A1D4:  BTFSS  FD8.2
0A1D6:  BRA    A540
....................                   if(desfoguelento){ 
0A1D8:  BTFSS  xA3.5
0A1DA:  BRA    A368
....................                      Controlando=0; 
0A1DC:  MOVLB  3
0A1DE:  CLRF   x2D
....................                      if(PresionCamara<=25){ 
0A1E0:  MOVF   x4F,F
0A1E2:  BTFSS  FD8.2
0A1E4:  BRA    A32A
0A1E6:  MOVF   x4E,W
0A1E8:  SUBLW  19
0A1EA:  BTFSS  FD8.0
0A1EC:  BRA    A32A
....................                         Secando=OFF; 
0A1EE:  MOVLB  0
0A1F0:  BCF    xA0.2
....................                         DesfogueSuave=OFF; 
0A1F2:  BCF    xA0.5
....................                         //Paso_off; 
....................                         if(!DOOR){ 
0A1F4:  BSF    F93.6
0A1F6:  BTFSS  F81.6
0A1F8:  BRA    A204
....................                            Desfogue_off;  
0A1FA:  BCF    F8C.4
0A1FC:  BCF    F95.4
....................                            Paso_off; 
0A1FE:  BCF    F8C.5
0A200:  BCF    F95.5
....................                         }else{ 
0A202:  BRA    A20C
....................                            Desfogue_on; 
0A204:  BSF    F8C.4
0A206:  BCF    F95.4
....................                            Paso_off; 
0A208:  BCF    F8C.5
0A20A:  BCF    F95.5
....................                         } 
....................                         if(PresionCamara<2){ 
0A20C:  MOVLB  3
0A20E:  MOVF   x4F,F
0A210:  BTFSS  FD8.2
0A212:  BRA    A324
0A214:  MOVF   x4E,W
0A216:  SUBLW  01
0A218:  BTFSS  FD8.0
0A21A:  BRA    A324
....................                            if(Temperatura<=80){ 
0A21C:  MOVFF  316,3D0
0A220:  MOVFF  315,3CF
0A224:  MOVFF  314,3CE
0A228:  MOVFF  313,3CD
0A22C:  CLRF   xD4
0A22E:  CLRF   xD3
0A230:  MOVLW  20
0A232:  MOVWF  xD2
0A234:  MOVLW  85
0A236:  MOVWF  xD1
0A238:  MOVLB  0
0A23A:  CALL   2928
0A23E:  BC    A242
0A240:  BNZ   A278
....................                               ActivaAlarma(2); 
0A242:  MOVLW  02
0A244:  MOVLB  3
0A246:  MOVWF  xC9
0A248:  MOVLB  0
0A24A:  CALL   42BC
....................                               printf("Funcionamiento.t4f.txt=\" Ninguna\""); 
0A24E:  MOVLW  3E
0A250:  MOVWF  FF6
0A252:  MOVLW  12
0A254:  MOVWF  FF7
0A256:  MOVLW  00
0A258:  MOVWF  FF8
0A25A:  CALL   3410
....................                               SendDataDisplay(); 
0A25E:  CALL   3442
....................                               printf("Funcionamiento.t5f.txt=\" Finalizado\""); 
0A262:  MOVLW  60
0A264:  MOVWF  FF6
0A266:  MOVLW  12
0A268:  MOVWF  FF7
0A26A:  MOVLW  00
0A26C:  MOVWF  FF8
0A26E:  CALL   3410
....................                               SendDataDisplay(); 
0A272:  CALL   3442
....................                               Finalizo=ON; 
0A276:  BSF    xA3.0
....................                            } 
....................                            if(!Ciclo){ 
0A278:  BTFSC  xA1.2
0A27A:  BRA    A326
....................                               Ciclo=ON; 
0A27C:  BSF    xA1.2
....................                               Ciclos++; 
0A27E:  MOVLB  3
0A280:  INCF   x52,F
0A282:  BTFSC  FD8.2
0A284:  INCF   x53,F
....................                               CiclosL=make8(Ciclos,0); 
0A286:  MOVFF  352,339
....................                               CiclosH=make8(Ciclos,1); 
0A28A:  MOVFF  353,33A
....................                               write_eeprom(37,CiclosL); 
0A28E:  CLRF   FAA
0A290:  MOVLW  25
0A292:  MOVWF  FA9
0A294:  MOVFF  339,FA8
0A298:  BCF    FA6.6
0A29A:  BCF    FA6.7
0A29C:  BSF    FA6.2
0A29E:  MOVF   FF2,W
0A2A0:  MOVWF  00
0A2A2:  BCF    FF2.6
0A2A4:  BCF    FF2.7
0A2A6:  MOVLB  F
0A2A8:  MOVLW  55
0A2AA:  MOVWF  FA7
0A2AC:  MOVLW  AA
0A2AE:  MOVWF  FA7
0A2B0:  BSF    FA6.1
0A2B2:  BTFSC  FA6.1
0A2B4:  BRA    A2B2
0A2B6:  BCF    FA6.2
0A2B8:  MOVF   00,W
0A2BA:  IORWF  FF2,F
....................                               delay_ms(20); 
0A2BC:  MOVLW  14
0A2BE:  MOVLB  3
0A2C0:  MOVWF  xD4
0A2C2:  MOVLB  0
0A2C4:  CALL   16D0
....................                               write_eeprom(38,CiclosH); 
0A2C8:  CLRF   FAA
0A2CA:  MOVLW  26
0A2CC:  MOVWF  FA9
0A2CE:  MOVFF  33A,FA8
0A2D2:  BCF    FA6.6
0A2D4:  BCF    FA6.7
0A2D6:  BSF    FA6.2
0A2D8:  MOVF   FF2,W
0A2DA:  MOVWF  00
0A2DC:  BCF    FF2.6
0A2DE:  BCF    FF2.7
0A2E0:  MOVLB  F
0A2E2:  MOVLW  55
0A2E4:  MOVWF  FA7
0A2E6:  MOVLW  AA
0A2E8:  MOVWF  FA7
0A2EA:  BSF    FA6.1
0A2EC:  BTFSC  FA6.1
0A2EE:  BRA    A2EC
0A2F0:  BCF    FA6.2
0A2F2:  MOVF   00,W
0A2F4:  IORWF  FF2,F
....................                               delay_ms(20); 
0A2F6:  MOVLW  14
0A2F8:  MOVLB  3
0A2FA:  MOVWF  xD4
0A2FC:  MOVLB  0
0A2FE:  CALL   16D0
....................                               if(ActivaImpresion==1){ 
0A302:  MOVLB  3
0A304:  DECFSZ x2E,W
0A306:  BRA    A324
....................                                  Imprime=25; 
0A308:  MOVLW  19
0A30A:  MOVWF  x7A
....................                                  Envio_Esclavos(); 
0A30C:  MOVLB  0
0A30E:  CALL   3D7E
....................                                  delay_ms(100); 
0A312:  MOVLW  64
0A314:  MOVLB  3
0A316:  MOVWF  xD4
0A318:  MOVLB  0
0A31A:  CALL   16D0
....................                                  Imprime=10; 
0A31E:  MOVLW  0A
0A320:  MOVLB  3
0A322:  MOVWF  x7A
0A324:  MOVLB  0
....................                               } 
....................                            } 
....................                         } 
....................                      }else{ 
0A326:  BRA    A366
0A328:  MOVLB  3
....................                         Desfogando=ON; 
0A32A:  MOVLB  0
0A32C:  BSF    xA0.4
....................                         DesfogueSuave=ON; 
0A32E:  BSF    xA0.5
....................                         printf("Funcionamiento.t4f.txt=\" Ninguna\""); 
0A330:  MOVLW  86
0A332:  MOVWF  FF6
0A334:  MOVLW  12
0A336:  MOVWF  FF7
0A338:  MOVLW  00
0A33A:  MOVWF  FF8
0A33C:  CALL   3410
....................                         SendDataDisplay(); 
0A340:  CALL   3442
....................                         printf("Funcionamiento.t5f.txt=\" Despresurizando\""); 
0A344:  MOVLW  A8
0A346:  MOVWF  FF6
0A348:  MOVLW  12
0A34A:  MOVWF  FF7
0A34C:  MOVLW  00
0A34E:  MOVWF  FF8
0A350:  CALL   3410
....................                         SendDataDisplay(); 
0A354:  CALL   3442
....................                         Control=0; 
0A358:  MOVLB  3
0A35A:  CLRF   x2B
....................                         SSR_off; 
0A35C:  BSF    F8B.2
0A35E:  BCF    F94.2
....................                         //Paso_off; 
....................                         Paso_on; 
0A360:  BSF    F8C.5
0A362:  BCF    F95.5
0A364:  MOVLB  0
....................                      } 
....................                   }else{ 
0A366:  BRA    A53E
....................                      //SSR_off; 
....................                      Paso_off; 
0A368:  BCF    F8C.5
0A36A:  BCF    F95.5
....................                      Controlando=0; 
0A36C:  MOVLB  3
0A36E:  CLRF   x2D
....................                      Control=0; 
0A370:  CLRF   x2B
....................                      if(PresionCamara<2){ 
0A372:  MOVF   x4F,F
0A374:  BTFSS  FD8.2
0A376:  BRA    A4FE
0A378:  MOVF   x4E,W
0A37A:  SUBLW  01
0A37C:  BTFSS  FD8.0
0A37E:  BRA    A4FE
....................                         if((Tsecado[0]==0)&&(Tsecado[1]==0)&&(Tsecado[2]==0)&&(Tsecado[3]==0)){ 
0A380:  MOVLB  0
0A382:  MOVF   xBA,F
0A384:  BTFSS  FD8.2
0A386:  BRA    A4C8
0A388:  MOVF   xBB,F
0A38A:  BTFSS  FD8.2
0A38C:  BRA    A4C8
0A38E:  MOVF   xBC,F
0A390:  BTFSS  FD8.2
0A392:  BRA    A4C8
0A394:  MOVF   xBD,F
0A396:  BTFSS  FD8.2
0A398:  BRA    A4C8
....................                            if(!DOOR){ 
0A39A:  BSF    F93.6
0A39C:  BTFSS  F81.6
0A39E:  BRA    A3AA
....................                               Desfogue_off; 
0A3A0:  BCF    F8C.4
0A3A2:  BCF    F95.4
....................                               Paso_off; 
0A3A4:  BCF    F8C.5
0A3A6:  BCF    F95.5
....................                            }else{ 
0A3A8:  BRA    A3B2
....................                               Desfogue_on;  
0A3AA:  BSF    F8C.4
0A3AC:  BCF    F95.4
....................                               Paso_off; 
0A3AE:  BCF    F8C.5
0A3B0:  BCF    F95.5
....................                            } 
....................                            SSR_off; 
0A3B2:  BSF    F8B.2
0A3B4:  BCF    F94.2
....................                            Secando=OFF; 
0A3B6:  BCF    xA0.2
....................                            if(Temperatura<=80){ 
0A3B8:  MOVFF  316,3D0
0A3BC:  MOVFF  315,3CF
0A3C0:  MOVFF  314,3CE
0A3C4:  MOVFF  313,3CD
0A3C8:  MOVLB  3
0A3CA:  CLRF   xD4
0A3CC:  CLRF   xD3
0A3CE:  MOVLW  20
0A3D0:  MOVWF  xD2
0A3D2:  MOVLW  85
0A3D4:  MOVWF  xD1
0A3D6:  MOVLB  0
0A3D8:  CALL   2928
0A3DC:  BC    A3E0
0A3DE:  BNZ   A416
....................                               ActivaAlarma(2); 
0A3E0:  MOVLW  02
0A3E2:  MOVLB  3
0A3E4:  MOVWF  xC9
0A3E6:  MOVLB  0
0A3E8:  CALL   42BC
....................                               printf("Funcionamiento.t4f.txt=\" Ninguna\""); 
0A3EC:  MOVLW  D2
0A3EE:  MOVWF  FF6
0A3F0:  MOVLW  12
0A3F2:  MOVWF  FF7
0A3F4:  MOVLW  00
0A3F6:  MOVWF  FF8
0A3F8:  CALL   3410
....................                               SendDataDisplay(); 
0A3FC:  CALL   3442
....................                               printf("Funcionamiento.t5f.txt=\" Finalizado\""); 
0A400:  MOVLW  F4
0A402:  MOVWF  FF6
0A404:  MOVLW  12
0A406:  MOVWF  FF7
0A408:  MOVLW  00
0A40A:  MOVWF  FF8
0A40C:  CALL   3410
....................                               SendDataDisplay(); 
0A410:  CALL   3442
....................                               Finalizo=ON; 
0A414:  BSF    xA3.0
....................                            } 
....................                            if(!Ciclo){ 
0A416:  BTFSC  xA1.2
0A418:  BRA    A4C4
....................                               Ciclo=ON; 
0A41A:  BSF    xA1.2
....................                               Ciclos++; 
0A41C:  MOVLB  3
0A41E:  INCF   x52,F
0A420:  BTFSC  FD8.2
0A422:  INCF   x53,F
....................                               CiclosL=make8(Ciclos,0); 
0A424:  MOVFF  352,339
....................                               CiclosH=make8(Ciclos,1); 
0A428:  MOVFF  353,33A
....................                               write_eeprom(37,CiclosL); 
0A42C:  CLRF   FAA
0A42E:  MOVLW  25
0A430:  MOVWF  FA9
0A432:  MOVFF  339,FA8
0A436:  BCF    FA6.6
0A438:  BCF    FA6.7
0A43A:  BSF    FA6.2
0A43C:  MOVF   FF2,W
0A43E:  MOVWF  00
0A440:  BCF    FF2.6
0A442:  BCF    FF2.7
0A444:  MOVLB  F
0A446:  MOVLW  55
0A448:  MOVWF  FA7
0A44A:  MOVLW  AA
0A44C:  MOVWF  FA7
0A44E:  BSF    FA6.1
0A450:  BTFSC  FA6.1
0A452:  BRA    A450
0A454:  BCF    FA6.2
0A456:  MOVF   00,W
0A458:  IORWF  FF2,F
....................                               delay_ms(20); 
0A45A:  MOVLW  14
0A45C:  MOVLB  3
0A45E:  MOVWF  xD4
0A460:  MOVLB  0
0A462:  CALL   16D0
....................                               write_eeprom(38,CiclosH); 
0A466:  CLRF   FAA
0A468:  MOVLW  26
0A46A:  MOVWF  FA9
0A46C:  MOVFF  33A,FA8
0A470:  BCF    FA6.6
0A472:  BCF    FA6.7
0A474:  BSF    FA6.2
0A476:  MOVF   FF2,W
0A478:  MOVWF  00
0A47A:  BCF    FF2.6
0A47C:  BCF    FF2.7
0A47E:  MOVLB  F
0A480:  MOVLW  55
0A482:  MOVWF  FA7
0A484:  MOVLW  AA
0A486:  MOVWF  FA7
0A488:  BSF    FA6.1
0A48A:  BTFSC  FA6.1
0A48C:  BRA    A48A
0A48E:  BCF    FA6.2
0A490:  MOVF   00,W
0A492:  IORWF  FF2,F
....................                               delay_ms(20); 
0A494:  MOVLW  14
0A496:  MOVLB  3
0A498:  MOVWF  xD4
0A49A:  MOVLB  0
0A49C:  CALL   16D0
....................                               if(ActivaImpresion==1){ 
0A4A0:  MOVLB  3
0A4A2:  DECFSZ x2E,W
0A4A4:  BRA    A4C2
....................                                  Imprime=25; 
0A4A6:  MOVLW  19
0A4A8:  MOVWF  x7A
....................                                  Envio_Esclavos(); 
0A4AA:  MOVLB  0
0A4AC:  CALL   3D7E
....................                                  delay_ms(100); 
0A4B0:  MOVLW  64
0A4B2:  MOVLB  3
0A4B4:  MOVWF  xD4
0A4B6:  MOVLB  0
0A4B8:  CALL   16D0
....................                                  Imprime=10; 
0A4BC:  MOVLW  0A
0A4BE:  MOVLB  3
0A4C0:  MOVWF  x7A
0A4C2:  MOVLB  0
....................                               } 
....................                            } 
....................                            Secando=OFF; 
0A4C4:  BCF    xA0.2
....................                         }else{ 
0A4C6:  BRA    A4FA
....................                            Secando=ON; 
0A4C8:  BSF    xA0.2
....................                            printf("Funcionamiento.t4f.txt=\" Ninguna\""); 
0A4CA:  MOVLW  1A
0A4CC:  MOVWF  FF6
0A4CE:  MOVLW  13
0A4D0:  MOVWF  FF7
0A4D2:  MOVLW  00
0A4D4:  MOVWF  FF8
0A4D6:  CALL   3410
....................                            SendDataDisplay(); 
0A4DA:  CALL   3442
....................                            printf("Funcionamiento.t5f.txt=\" Secando\""); 
0A4DE:  MOVLW  3C
0A4E0:  MOVWF  FF6
0A4E2:  MOVLW  13
0A4E4:  MOVWF  FF7
0A4E6:  MOVLW  00
0A4E8:  MOVWF  FF8
0A4EA:  CALL   3410
....................                            SendDataDisplay(); 
0A4EE:  CALL   3442
....................                            Paso_off; 
0A4F2:  BCF    F8C.5
0A4F4:  BCF    F95.5
....................                            CalientaChaqueta(); 
0A4F6:  GOTO   500A
....................                         } 
....................                      }else{ 
0A4FA:  BRA    A53E
0A4FC:  MOVLB  3
....................                         Desfogando=ON; 
0A4FE:  MOVLB  0
0A500:  BSF    xA0.4
....................                         printf("Funcionamiento.t4f.txt=\" Ninguna\""); 
0A502:  MOVLW  5E
0A504:  MOVWF  FF6
0A506:  MOVLW  13
0A508:  MOVWF  FF7
0A50A:  MOVLW  00
0A50C:  MOVWF  FF8
0A50E:  CALL   3410
....................                         SendDataDisplay(); 
0A512:  CALL   3442
....................                         printf("Funcionamiento.t5f.txt=\" Despresurizando\""); 
0A516:  MOVLW  80
0A518:  MOVWF  FF6
0A51A:  MOVLW  13
0A51C:  MOVWF  FF7
0A51E:  MOVLW  00
0A520:  MOVWF  FF8
0A522:  CALL   3410
....................                         SendDataDisplay(); 
0A526:  CALL   3442
....................                         Control=0; 
0A52A:  MOVLB  3
0A52C:  CLRF   x2B
....................                         SSR_off; 
0A52E:  BSF    F8B.2
0A530:  BCF    F94.2
....................                         Controlando=0; 
0A532:  CLRF   x2D
....................                         Paso_off; 
0A534:  BCF    F8C.5
0A536:  BCF    F95.5
....................                         Desfogue_on; 
0A538:  BSF    F8C.4
0A53A:  BCF    F95.4
0A53C:  MOVLB  0
....................                      } 
....................                   } 
....................                    
....................                }else{ 
0A53E:  BRA    A578
....................                   printf("Funcionamiento.t4f.txt=\" Ninguna\""); 
0A540:  MOVLW  AA
0A542:  MOVWF  FF6
0A544:  MOVLW  13
0A546:  MOVWF  FF7
0A548:  MOVLW  00
0A54A:  MOVWF  FF8
0A54C:  CALL   3410
....................                   SendDataDisplay(); 
0A550:  CALL   3442
....................                   printf("Funcionamiento.t5f.txt=\" Esterilizando\""); 
0A554:  MOVLW  CC
0A556:  MOVWF  FF6
0A558:  MOVLW  13
0A55A:  MOVWF  FF7
0A55C:  MOVLW  00
0A55E:  MOVWF  FF8
0A560:  CALL   3410
....................                   SendDataDisplay(); 
0A564:  CALL   3442
....................                   Paso_on; 
0A568:  BSF    F8C.5
0A56A:  BCF    F95.5
....................                   Control=1; 
0A56C:  MOVLW  01
0A56E:  MOVLB  3
0A570:  MOVWF  x2B
....................                   Controla(); 
0A572:  MOVLB  0
0A574:  CALL   4A78
0A578:  MOVLB  3
....................                } 
....................             } 
....................          } 
....................    } 
....................  
....................    if(Grafica==1){ 
0A57A:  MOVLB  0
0A57C:  BTFSS  xA3.7
0A57E:  BRA    A5BC
....................       printf("add 14,0,%1.0f",Temperatura); 
0A580:  MOVLW  F4
0A582:  MOVWF  FF6
0A584:  MOVLW  13
0A586:  MOVWF  FF7
0A588:  MOVLW  00
0A58A:  MOVWF  FF8
0A58C:  MOVLW  09
0A58E:  MOVLB  3
0A590:  MOVWF  xCD
0A592:  MOVLB  0
0A594:  CALL   43B8
0A598:  MOVLW  00
0A59A:  MOVWF  FE9
0A59C:  MOVFF  316,3D0
0A5A0:  MOVFF  315,3CF
0A5A4:  MOVFF  314,3CE
0A5A8:  MOVFF  313,3CD
0A5AC:  MOVLB  3
0A5AE:  CLRF   xD1
0A5B0:  MOVLB  0
0A5B2:  CALL   464C
....................       SendDataDisplay(); 
0A5B6:  CALL   3442
....................       Grafica=0; 
0A5BA:  BCF    xA3.7
....................    } 
....................    if(Lectura==1)// Utilizado para visualizar la lectura de la temperatura 
0A5BC:  BTFSS  xA3.6
0A5BE:  BRA    A7AE
....................    {                             
....................       Lectura=0; 
0A5C0:  BCF    xA3.6
....................       printf("t6f.txt=\"%3.1f\"",Temperatura); 
0A5C2:  MOVLW  04
0A5C4:  MOVWF  FF6
0A5C6:  MOVLW  14
0A5C8:  MOVWF  FF7
0A5CA:  MOVLW  00
0A5CC:  MOVWF  FF8
0A5CE:  MOVLW  09
0A5D0:  MOVLB  3
0A5D2:  MOVWF  xCD
0A5D4:  MOVLB  0
0A5D6:  CALL   43B8
0A5DA:  MOVLW  02
0A5DC:  MOVWF  FE9
0A5DE:  MOVFF  316,3D0
0A5E2:  MOVFF  315,3CF
0A5E6:  MOVFF  314,3CE
0A5EA:  MOVFF  313,3CD
0A5EE:  MOVLW  01
0A5F0:  MOVLB  3
0A5F2:  MOVWF  xD1
0A5F4:  MOVLB  0
0A5F6:  CALL   464C
0A5FA:  MOVLW  22
0A5FC:  BTFSS  F9E.4
0A5FE:  BRA    A5FC
0A600:  MOVWF  FAD
....................       SendDataDisplay(); 
0A602:  CALL   3442
....................       printf("Funcionamiento.t7f.txt=\"%03LukPa\"",PresionCamara); 
0A606:  MOVLW  14
0A608:  MOVWF  FF6
0A60A:  MOVLW  14
0A60C:  MOVWF  FF7
0A60E:  MOVLW  00
0A610:  MOVWF  FF8
0A612:  MOVLW  18
0A614:  MOVLB  3
0A616:  MOVWF  xCD
0A618:  MOVLB  0
0A61A:  CALL   43B8
0A61E:  MOVLW  0A
0A620:  MOVWF  FE9
0A622:  MOVFF  34F,3CE
0A626:  MOVFF  34E,3CD
0A62A:  CALL   44DE
0A62E:  MOVLW  31
0A630:  MOVWF  FF6
0A632:  MOVLW  14
0A634:  MOVWF  FF7
0A636:  MOVLW  00
0A638:  MOVWF  FF8
0A63A:  MOVLW  04
0A63C:  MOVLB  3
0A63E:  MOVWF  xCD
0A640:  MOVLB  0
0A642:  CALL   43B8
....................       SendDataDisplay(); 
0A646:  CALL   3442
....................       //printf("Funcionamiento.t12f.txt=\"%03LukPa\"",PresionPreCamara); 
....................       printf("Funcionamiento.t12f.txt=\"000kPa\""); 
0A64A:  MOVLW  36
0A64C:  MOVWF  FF6
0A64E:  MOVLW  14
0A650:  MOVWF  FF7
0A652:  MOVLW  00
0A654:  MOVWF  FF8
0A656:  CALL   3410
....................       SendDataDisplay(); 
0A65A:  CALL   3442
....................       printf("Funcionamiento.t9f.txt=\"%03u\"",Setpoint); 
0A65E:  MOVLW  58
0A660:  MOVWF  FF6
0A662:  MOVLW  14
0A664:  MOVWF  FF7
0A666:  MOVLW  00
0A668:  MOVWF  FF8
0A66A:  MOVLW  18
0A66C:  MOVLB  3
0A66E:  MOVWF  xCD
0A670:  MOVLB  0
0A672:  CALL   43B8
0A676:  MOVFF  33C,3CC
0A67A:  MOVLW  03
0A67C:  MOVLB  3
0A67E:  MOVWF  xCD
0A680:  MOVLB  0
0A682:  CALL   4416
0A686:  MOVLW  22
0A688:  BTFSS  F9E.4
0A68A:  BRA    A688
0A68C:  MOVWF  FAD
....................       SendDataDisplay();       
0A68E:  CALL   3442
....................       printf("Funcionamiento.t10f.txt=\"%03Lu\"",minutoEst); 
0A692:  MOVLW  76
0A694:  MOVWF  FF6
0A696:  MOVLW  14
0A698:  MOVWF  FF7
0A69A:  MOVLW  00
0A69C:  MOVWF  FF8
0A69E:  MOVLW  19
0A6A0:  MOVLB  3
0A6A2:  MOVWF  xCD
0A6A4:  MOVLB  0
0A6A6:  CALL   43B8
0A6AA:  MOVLW  0A
0A6AC:  MOVWF  FE9
0A6AE:  MOVFF  C4,3CE
0A6B2:  MOVFF  C3,3CD
0A6B6:  CALL   44DE
0A6BA:  MOVLW  22
0A6BC:  BTFSS  F9E.4
0A6BE:  BRA    A6BC
0A6C0:  MOVWF  FAD
....................       SendDataDisplay();       
0A6C2:  CALL   3442
....................       printf("Funcionamiento.t13f.txt=\"%02u\"",segundoEst); 
0A6C6:  MOVLW  96
0A6C8:  MOVWF  FF6
0A6CA:  MOVLW  14
0A6CC:  MOVWF  FF7
0A6CE:  MOVLW  00
0A6D0:  MOVWF  FF8
0A6D2:  MOVLW  19
0A6D4:  MOVLB  3
0A6D6:  MOVWF  xCD
0A6D8:  MOVLB  0
0A6DA:  CALL   43B8
0A6DE:  MOVFF  C2,3CC
0A6E2:  MOVLW  01
0A6E4:  MOVLB  3
0A6E6:  MOVWF  xCD
0A6E8:  MOVLB  0
0A6EA:  CALL   4416
0A6EE:  MOVLW  22
0A6F0:  BTFSS  F9E.4
0A6F2:  BRA    A6F0
0A6F4:  MOVWF  FAD
....................       SendDataDisplay();       
0A6F6:  CALL   3442
....................       //printf("Funcionamiento.t11f.txt=\"%02u\"",((Tsecado[3]*10)+Tsecado[2])); 
....................       //SendDataDisplay();       
....................       //printf("Funcionamiento.t16f.txt=\"%02u\"",((Tsecado[1]*10)+Tsecado[0])); 
....................       //SendDataDisplay();       
....................        
....................       printf("fecha.txt=\"Fecha:%02u/%02u/20%02u    Hora: %02u:%02u\"",Dia,Mes,Year,Hora,Minuto); 
0A6FA:  MOVLW  B6
0A6FC:  MOVWF  FF6
0A6FE:  MOVLW  14
0A700:  MOVWF  FF7
0A702:  MOVLW  00
0A704:  MOVWF  FF8
0A706:  MOVLW  11
0A708:  MOVLB  3
0A70A:  MOVWF  xCD
0A70C:  MOVLB  0
0A70E:  CALL   43B8
0A712:  MOVFF  36D,3CC
0A716:  MOVLW  01
0A718:  MOVLB  3
0A71A:  MOVWF  xCD
0A71C:  MOVLB  0
0A71E:  CALL   4416
0A722:  MOVLW  2F
0A724:  BTFSS  F9E.4
0A726:  BRA    A724
0A728:  MOVWF  FAD
0A72A:  MOVFF  36C,3CC
0A72E:  MOVLW  01
0A730:  MOVLB  3
0A732:  MOVWF  xCD
0A734:  MOVLB  0
0A736:  CALL   4416
0A73A:  MOVLW  2F
0A73C:  BTFSS  F9E.4
0A73E:  BRA    A73C
0A740:  MOVWF  FAD
0A742:  MOVLW  32
0A744:  BTFSS  F9E.4
0A746:  BRA    A744
0A748:  MOVWF  FAD
0A74A:  MOVLW  30
0A74C:  BTFSS  F9E.4
0A74E:  BRA    A74C
0A750:  MOVWF  FAD
0A752:  MOVFF  36B,3CC
0A756:  MOVLW  01
0A758:  MOVLB  3
0A75A:  MOVWF  xCD
0A75C:  MOVLB  0
0A75E:  CALL   4416
0A762:  MOVLW  D7
0A764:  MOVWF  FF6
0A766:  MOVLW  14
0A768:  MOVWF  FF7
0A76A:  MOVLW  00
0A76C:  MOVWF  FF8
0A76E:  MOVLW  0A
0A770:  MOVLB  3
0A772:  MOVWF  xCD
0A774:  MOVLB  0
0A776:  CALL   43B8
0A77A:  MOVFF  36E,3CC
0A77E:  MOVLW  01
0A780:  MOVLB  3
0A782:  MOVWF  xCD
0A784:  MOVLB  0
0A786:  CALL   4416
0A78A:  MOVLW  3A
0A78C:  BTFSS  F9E.4
0A78E:  BRA    A78C
0A790:  MOVWF  FAD
0A792:  MOVFF  36F,3CC
0A796:  MOVLW  01
0A798:  MOVLB  3
0A79A:  MOVWF  xCD
0A79C:  MOVLB  0
0A79E:  CALL   4416
0A7A2:  MOVLW  22
0A7A4:  BTFSS  F9E.4
0A7A6:  BRA    A7A4
0A7A8:  MOVWF  FAD
....................       SendDataDisplay(); 
0A7AA:  CALL   3442
0A7AE:  MOVLB  3
....................    } 
....................  
.................... } 
.................... //_-------------------------------------------------------------------------------------------------------------------------------------------------------- 
....................  
.................... //_-------------------------------------------------------------------------------------------------------------------------------------------------------- 
....................       if(Menu==100){ //Menu de Configuracin de Parametros de Control 
0A7B0:  MOVF   x35,W
0A7B2:  SUBLW  64
0A7B4:  BTFSS  FD8.2
0A7B6:  GOTO   B58E
....................       
....................       if(Opcion2>10) 
0A7BA:  MOVF   x3E,W
0A7BC:  SUBLW  0A
0A7BE:  BC    A7C4
....................          Opcion2=1; 
0A7C0:  MOVLW  01
0A7C2:  MOVWF  x3E
....................       if(Opcion2<1) 
0A7C4:  MOVF   x3E,F
0A7C6:  BNZ   A7CC
....................          Opcion2=10; 
0A7C8:  MOVLW  0A
0A7CA:  MOVWF  x3E
....................        
....................       if(Opcion2==1){ 
0A7CC:  DECFSZ x3E,W
0A7CE:  BRA    A94C
....................          printf("Config.t2c.txt=\"Proporcional\""); 
0A7D0:  MOVLW  EC
0A7D2:  MOVWF  FF6
0A7D4:  MOVLW  14
0A7D6:  MOVWF  FF7
0A7D8:  MOVLW  00
0A7DA:  MOVWF  FF8
0A7DC:  MOVLB  0
0A7DE:  CALL   3410
....................          SendDataDisplay();       
0A7E2:  CALL   3442
....................          printf("t3c.txt=\"%2.0f\"",Ganancia); 
0A7E6:  MOVLW  0A
0A7E8:  MOVWF  FF6
0A7EA:  MOVLW  15
0A7EC:  MOVWF  FF7
0A7EE:  MOVLW  00
0A7F0:  MOVWF  FF8
0A7F2:  MOVLW  09
0A7F4:  MOVLB  3
0A7F6:  MOVWF  xCD
0A7F8:  MOVLB  0
0A7FA:  CALL   43B8
0A7FE:  MOVLW  01
0A800:  MOVWF  FE9
0A802:  MOVFF  2FA,3D0
0A806:  MOVFF  2F9,3CF
0A80A:  MOVFF  2F8,3CE
0A80E:  MOVFF  2F7,3CD
0A812:  MOVLB  3
0A814:  CLRF   xD1
0A816:  MOVLB  0
0A818:  CALL   464C
0A81C:  MOVLW  22
0A81E:  BTFSS  F9E.4
0A820:  BRA    A81E
0A822:  MOVWF  FAD
....................          SendDataDisplay(); 
0A824:  CALL   3442
....................          if(RX_Buffer[4]==0x0a || UP){//Tecla Arriba Oprimida 
0A828:  MOVF   34,W
0A82A:  SUBLW  0A
0A82C:  BZ    A834
0A82E:  BSF    F93.0
0A830:  BTFSC  F81.0
0A832:  BRA    A884
....................             delay_ms(20); 
0A834:  MOVLW  14
0A836:  MOVLB  3
0A838:  MOVWF  xD4
0A83A:  MOVLB  0
0A83C:  CALL   16D0
....................             if(RX_Buffer[4]==0x0a || UP){ 
0A840:  MOVF   34,W
0A842:  SUBLW  0A
0A844:  BZ    A84C
0A846:  BSF    F93.0
0A848:  BTFSC  F81.0
0A84A:  BRA    A884
....................                Ganancia+=1.0; 
0A84C:  BCF    FD8.1
0A84E:  MOVFF  2FA,3D7
0A852:  MOVFF  2F9,3D6
0A856:  MOVFF  2F8,3D5
0A85A:  MOVFF  2F7,3D4
0A85E:  MOVLB  3
0A860:  CLRF   xDB
0A862:  CLRF   xDA
0A864:  CLRF   xD9
0A866:  MOVLW  7F
0A868:  MOVWF  xD8
0A86A:  MOVLB  0
0A86C:  CALL   188C
0A870:  MOVFF  03,2FA
0A874:  MOVFF  02,2F9
0A878:  MOVFF  01,2F8
0A87C:  MOVFF  00,2F7
....................                RX_Buffer[4]=0x00;   
0A880:  CLRF   34
....................                RX_Buffer2[4]=0x00;             
0A882:  CLRF   3F
....................                //BorraBuffer(); 
....................             } 
....................          } 
....................              
....................          if(RX_Buffer[4]==0x0b || DOWN){//Tecla Abajo Oprimida 
0A884:  MOVF   34,W
0A886:  SUBLW  0B
0A888:  BZ    A890
0A88A:  BSF    F93.1
0A88C:  BTFSC  F81.1
0A88E:  BRA    A8E0
....................             delay_ms(20); 
0A890:  MOVLW  14
0A892:  MOVLB  3
0A894:  MOVWF  xD4
0A896:  MOVLB  0
0A898:  CALL   16D0
....................             if(RX_Buffer[4]==0x0b || DOWN){ 
0A89C:  MOVF   34,W
0A89E:  SUBLW  0B
0A8A0:  BZ    A8A8
0A8A2:  BSF    F93.1
0A8A4:  BTFSC  F81.1
0A8A6:  BRA    A8E0
....................                Ganancia-=1.0; 
0A8A8:  BSF    FD8.1
0A8AA:  MOVFF  2FA,3D7
0A8AE:  MOVFF  2F9,3D6
0A8B2:  MOVFF  2F8,3D5
0A8B6:  MOVFF  2F7,3D4
0A8BA:  MOVLB  3
0A8BC:  CLRF   xDB
0A8BE:  CLRF   xDA
0A8C0:  CLRF   xD9
0A8C2:  MOVLW  7F
0A8C4:  MOVWF  xD8
0A8C6:  MOVLB  0
0A8C8:  CALL   188C
0A8CC:  MOVFF  03,2FA
0A8D0:  MOVFF  02,2F9
0A8D4:  MOVFF  01,2F8
0A8D8:  MOVFF  00,2F7
....................                RX_Buffer[4]=0x00; 
0A8DC:  CLRF   34
....................                RX_Buffer2[4]=0x00;             
0A8DE:  CLRF   3F
....................                //BorraBuffer(); 
....................             } 
....................          } 
....................           
....................          if(Ganancia>40) 
0A8E0:  MOVLB  3
0A8E2:  CLRF   xD0
0A8E4:  CLRF   xCF
0A8E6:  MOVLW  20
0A8E8:  MOVWF  xCE
0A8EA:  MOVLW  84
0A8EC:  MOVWF  xCD
0A8EE:  MOVFF  2FA,3D4
0A8F2:  MOVFF  2F9,3D3
0A8F6:  MOVFF  2F8,3D2
0A8FA:  MOVFF  2F7,3D1
0A8FE:  MOVLB  0
0A900:  CALL   2928
0A904:  BNC   A912
....................             Ganancia=1; 
0A906:  MOVLB  2
0A908:  CLRF   xFA
0A90A:  CLRF   xF9
0A90C:  CLRF   xF8
0A90E:  MOVLW  7F
0A910:  MOVWF  xF7
....................          if(Ganancia<1) 
0A912:  MOVFF  2FA,3D0
0A916:  MOVFF  2F9,3CF
0A91A:  MOVFF  2F8,3CE
0A91E:  MOVFF  2F7,3CD
0A922:  MOVLB  3
0A924:  CLRF   xD4
0A926:  CLRF   xD3
0A928:  CLRF   xD2
0A92A:  MOVLW  7F
0A92C:  MOVWF  xD1
0A92E:  MOVLB  0
0A930:  CALL   2928
0A934:  BNC   A946
....................             Ganancia=40; 
0A936:  MOVLB  2
0A938:  CLRF   xFA
0A93A:  CLRF   xF9
0A93C:  MOVLW  20
0A93E:  MOVWF  xF8
0A940:  MOVLW  84
0A942:  MOVWF  xF7
0A944:  MOVLB  0
....................       }else if(Opcion2==2){ 
0A946:  GOTO   B102
0A94A:  MOVLB  3
0A94C:  MOVF   x3E,W
0A94E:  SUBLW  02
0A950:  BNZ   AA10
....................          printf("Config.t2c.txt=\"Derivativo\""); 
0A952:  MOVLW  1A
0A954:  MOVWF  FF6
0A956:  MOVLW  15
0A958:  MOVWF  FF7
0A95A:  MOVLW  00
0A95C:  MOVWF  FF8
0A95E:  MOVLB  0
0A960:  CALL   3410
....................          SendDataDisplay();       
0A964:  CALL   3442
....................          printf("t3c.txt=\"%u\"",Derivativo); 
0A968:  MOVLW  36
0A96A:  MOVWF  FF6
0A96C:  MOVLW  15
0A96E:  MOVWF  FF7
0A970:  MOVLW  00
0A972:  MOVWF  FF8
0A974:  MOVLW  09
0A976:  MOVLB  3
0A978:  MOVWF  xCD
0A97A:  MOVLB  0
0A97C:  CALL   43B8
0A980:  MOVFF  328,3CC
0A984:  MOVLW  1B
0A986:  MOVLB  3
0A988:  MOVWF  xCD
0A98A:  MOVLB  0
0A98C:  CALL   4416
0A990:  MOVLW  22
0A992:  BTFSS  F9E.4
0A994:  BRA    A992
0A996:  MOVWF  FAD
....................          SendDataDisplay(); 
0A998:  CALL   3442
....................          if(RX_Buffer[4]==0x0a || UP){//Tecla Arriba Oprimida 
0A99C:  MOVF   34,W
0A99E:  SUBLW  0A
0A9A0:  BZ    A9A8
0A9A2:  BSF    F93.0
0A9A4:  BTFSC  F81.0
0A9A6:  BRA    A9CA
....................             delay_ms(20); 
0A9A8:  MOVLW  14
0A9AA:  MOVLB  3
0A9AC:  MOVWF  xD4
0A9AE:  MOVLB  0
0A9B0:  CALL   16D0
....................             if(RX_Buffer[4]==0x0a || UP){ 
0A9B4:  MOVF   34,W
0A9B6:  SUBLW  0A
0A9B8:  BZ    A9C0
0A9BA:  BSF    F93.0
0A9BC:  BTFSC  F81.0
0A9BE:  BRA    A9CA
....................                Derivativo++; 
0A9C0:  MOVLB  3
0A9C2:  INCF   x28,F
....................                RX_Buffer[4]=0x00;   
0A9C4:  CLRF   34
....................                RX_Buffer2[4]=0x00;             
0A9C6:  CLRF   3F
0A9C8:  MOVLB  0
....................                //BorraBuffer(); 
....................             } 
....................          } 
....................              
....................          if(RX_Buffer[4]==0x0b || DOWN){//Tecla Abajo Oprimida 
0A9CA:  MOVF   34,W
0A9CC:  SUBLW  0B
0A9CE:  BZ    A9D6
0A9D0:  BSF    F93.1
0A9D2:  BTFSC  F81.1
0A9D4:  BRA    A9F8
....................             delay_ms(20); 
0A9D6:  MOVLW  14
0A9D8:  MOVLB  3
0A9DA:  MOVWF  xD4
0A9DC:  MOVLB  0
0A9DE:  CALL   16D0
....................             if(RX_Buffer[4]==0x0b || DOWN){ 
0A9E2:  MOVF   34,W
0A9E4:  SUBLW  0B
0A9E6:  BZ    A9EE
0A9E8:  BSF    F93.1
0A9EA:  BTFSC  F81.1
0A9EC:  BRA    A9F8
....................                Derivativo--; 
0A9EE:  MOVLB  3
0A9F0:  DECF   x28,F
....................                RX_Buffer[4]=0x00; 
0A9F2:  CLRF   34
....................                RX_Buffer2[4]=0x00;             
0A9F4:  CLRF   3F
0A9F6:  MOVLB  0
....................                //BorraBuffer(); 
....................             } 
....................          } 
....................           
....................           
....................          if(Derivativo>40) 
0A9F8:  MOVLB  3
0A9FA:  MOVF   x28,W
0A9FC:  SUBLW  28
0A9FE:  BC    AA04
....................             Derivativo=1; 
0AA00:  MOVLW  01
0AA02:  MOVWF  x28
....................          if(Derivativo<1) 
0AA04:  MOVF   x28,F
0AA06:  BNZ   AA0C
....................             Derivativo=40; 
0AA08:  MOVLW  28
0AA0A:  MOVWF  x28
....................       }else if(Opcion2==3){ 
0AA0C:  GOTO   B104
0AA10:  MOVF   x3E,W
0AA12:  SUBLW  03
0AA14:  BNZ   AAD2
....................          printf("Config.t2c.txt=\"Integral\""); 
0AA16:  MOVLW  44
0AA18:  MOVWF  FF6
0AA1A:  MOVLW  15
0AA1C:  MOVWF  FF7
0AA1E:  MOVLW  00
0AA20:  MOVWF  FF8
0AA22:  MOVLB  0
0AA24:  CALL   3410
....................          SendDataDisplay();       
0AA28:  CALL   3442
....................          printf("t3c.txt=\"%u\"",Integral); 
0AA2C:  MOVLW  5E
0AA2E:  MOVWF  FF6
0AA30:  MOVLW  15
0AA32:  MOVWF  FF7
0AA34:  MOVLW  00
0AA36:  MOVWF  FF8
0AA38:  MOVLW  09
0AA3A:  MOVLB  3
0AA3C:  MOVWF  xCD
0AA3E:  MOVLB  0
0AA40:  CALL   43B8
0AA44:  MOVFF  327,3CC
0AA48:  MOVLW  1B
0AA4A:  MOVLB  3
0AA4C:  MOVWF  xCD
0AA4E:  MOVLB  0
0AA50:  CALL   4416
0AA54:  MOVLW  22
0AA56:  BTFSS  F9E.4
0AA58:  BRA    AA56
0AA5A:  MOVWF  FAD
....................          SendDataDisplay(); 
0AA5C:  CALL   3442
....................          if(RX_Buffer[4]==0x0a || UP){//Tecla Arriba Oprimida 
0AA60:  MOVF   34,W
0AA62:  SUBLW  0A
0AA64:  BZ    AA6C
0AA66:  BSF    F93.0
0AA68:  BTFSC  F81.0
0AA6A:  BRA    AA8E
....................             delay_ms(20); 
0AA6C:  MOVLW  14
0AA6E:  MOVLB  3
0AA70:  MOVWF  xD4
0AA72:  MOVLB  0
0AA74:  CALL   16D0
....................             if(RX_Buffer[4]==0x0a || UP){ 
0AA78:  MOVF   34,W
0AA7A:  SUBLW  0A
0AA7C:  BZ    AA84
0AA7E:  BSF    F93.0
0AA80:  BTFSC  F81.0
0AA82:  BRA    AA8E
....................                Integral++; 
0AA84:  MOVLB  3
0AA86:  INCF   x27,F
....................                RX_Buffer[4]=0x00;   
0AA88:  CLRF   34
....................                RX_Buffer2[4]=0x00;             
0AA8A:  CLRF   3F
0AA8C:  MOVLB  0
....................                //BorraBuffer(); 
....................             } 
....................          } 
....................              
....................          if(RX_Buffer[4]==0x0b || DOWN){//Tecla Abajo Oprimida 
0AA8E:  MOVF   34,W
0AA90:  SUBLW  0B
0AA92:  BZ    AA9A
0AA94:  BSF    F93.1
0AA96:  BTFSC  F81.1
0AA98:  BRA    AABC
....................             delay_ms(20); 
0AA9A:  MOVLW  14
0AA9C:  MOVLB  3
0AA9E:  MOVWF  xD4
0AAA0:  MOVLB  0
0AAA2:  CALL   16D0
....................             if(RX_Buffer[4]==0x0b || DOWN){ 
0AAA6:  MOVF   34,W
0AAA8:  SUBLW  0B
0AAAA:  BZ    AAB2
0AAAC:  BSF    F93.1
0AAAE:  BTFSC  F81.1
0AAB0:  BRA    AABC
....................                Integral--; 
0AAB2:  MOVLB  3
0AAB4:  DECF   x27,F
....................                RX_Buffer[4]=0x00; 
0AAB6:  CLRF   34
....................                RX_Buffer2[4]=0x00;             
0AAB8:  CLRF   3F
0AABA:  MOVLB  0
....................                //BorraBuffer(); 
....................             } 
....................          } 
....................           
....................          if(Integral>40) 
0AABC:  MOVLB  3
0AABE:  MOVF   x27,W
0AAC0:  SUBLW  28
0AAC2:  BC    AAC8
....................             Integral=1; 
0AAC4:  MOVLW  01
0AAC6:  MOVWF  x27
....................          if(Integral<1) 
0AAC8:  MOVF   x27,F
0AACA:  BNZ   AAD0
....................             Integral=40; 
0AACC:  MOVLW  28
0AACE:  MOVWF  x27
....................       }else if(Opcion2==4){ 
0AAD0:  BRA    B104
0AAD2:  MOVF   x3E,W
0AAD4:  SUBLW  04
0AAD6:  BTFSS  FD8.2
0AAD8:  BRA    AC58
....................          printf("Config.t2c.txt=\"Tciclo\""); 
0AADA:  MOVLW  6C
0AADC:  MOVWF  FF6
0AADE:  MOVLW  15
0AAE0:  MOVWF  FF7
0AAE2:  MOVLW  00
0AAE4:  MOVWF  FF8
0AAE6:  MOVLB  0
0AAE8:  CALL   3410
....................          SendDataDisplay();       
0AAEC:  CALL   3442
....................          printf("t3c.txt=\"%2.0f\"",Tciclo); 
0AAF0:  MOVLW  84
0AAF2:  MOVWF  FF6
0AAF4:  MOVLW  15
0AAF6:  MOVWF  FF7
0AAF8:  MOVLW  00
0AAFA:  MOVWF  FF8
0AAFC:  MOVLW  09
0AAFE:  MOVLB  3
0AB00:  MOVWF  xCD
0AB02:  MOVLB  0
0AB04:  CALL   43B8
0AB08:  MOVLW  01
0AB0A:  MOVWF  FE9
0AB0C:  MOVFF  2E2,3D0
0AB10:  MOVFF  2E1,3CF
0AB14:  MOVFF  2E0,3CE
0AB18:  MOVFF  2DF,3CD
0AB1C:  MOVLB  3
0AB1E:  CLRF   xD1
0AB20:  MOVLB  0
0AB22:  CALL   464C
0AB26:  MOVLW  22
0AB28:  BTFSS  F9E.4
0AB2A:  BRA    AB28
0AB2C:  MOVWF  FAD
....................          SendDataDisplay(); 
0AB2E:  CALL   3442
....................          if(RX_Buffer[4]==0x0a || UP){//Tecla Arriba Oprimida 
0AB32:  MOVF   34,W
0AB34:  SUBLW  0A
0AB36:  BZ    AB3E
0AB38:  BSF    F93.0
0AB3A:  BTFSC  F81.0
0AB3C:  BRA    AB8E
....................             delay_ms(20); 
0AB3E:  MOVLW  14
0AB40:  MOVLB  3
0AB42:  MOVWF  xD4
0AB44:  MOVLB  0
0AB46:  CALL   16D0
....................             if(RX_Buffer[4]==0x0a || UP){ 
0AB4A:  MOVF   34,W
0AB4C:  SUBLW  0A
0AB4E:  BZ    AB56
0AB50:  BSF    F93.0
0AB52:  BTFSC  F81.0
0AB54:  BRA    AB8E
....................                Tciclo+=1.0; 
0AB56:  BCF    FD8.1
0AB58:  MOVFF  2E2,3D7
0AB5C:  MOVFF  2E1,3D6
0AB60:  MOVFF  2E0,3D5
0AB64:  MOVFF  2DF,3D4
0AB68:  MOVLB  3
0AB6A:  CLRF   xDB
0AB6C:  CLRF   xDA
0AB6E:  CLRF   xD9
0AB70:  MOVLW  7F
0AB72:  MOVWF  xD8
0AB74:  MOVLB  0
0AB76:  CALL   188C
0AB7A:  MOVFF  03,2E2
0AB7E:  MOVFF  02,2E1
0AB82:  MOVFF  01,2E0
0AB86:  MOVFF  00,2DF
....................                RX_Buffer[4]=0x00;   
0AB8A:  CLRF   34
....................                RX_Buffer2[4]=0x00;             
0AB8C:  CLRF   3F
....................                //BorraBuffer(); 
....................             } 
....................          } 
....................              
....................          if(RX_Buffer[4]==0x0b || DOWN){//Tecla Abajo Oprimida 
0AB8E:  MOVF   34,W
0AB90:  SUBLW  0B
0AB92:  BZ    AB9A
0AB94:  BSF    F93.1
0AB96:  BTFSC  F81.1
0AB98:  BRA    ABEA
....................             delay_ms(20); 
0AB9A:  MOVLW  14
0AB9C:  MOVLB  3
0AB9E:  MOVWF  xD4
0ABA0:  MOVLB  0
0ABA2:  CALL   16D0
....................             if(RX_Buffer[4]==0x0b || DOWN){ 
0ABA6:  MOVF   34,W
0ABA8:  SUBLW  0B
0ABAA:  BZ    ABB2
0ABAC:  BSF    F93.1
0ABAE:  BTFSC  F81.1
0ABB0:  BRA    ABEA
....................                Tciclo-=1.0; 
0ABB2:  BSF    FD8.1
0ABB4:  MOVFF  2E2,3D7
0ABB8:  MOVFF  2E1,3D6
0ABBC:  MOVFF  2E0,3D5
0ABC0:  MOVFF  2DF,3D4
0ABC4:  MOVLB  3
0ABC6:  CLRF   xDB
0ABC8:  CLRF   xDA
0ABCA:  CLRF   xD9
0ABCC:  MOVLW  7F
0ABCE:  MOVWF  xD8
0ABD0:  MOVLB  0
0ABD2:  CALL   188C
0ABD6:  MOVFF  03,2E2
0ABDA:  MOVFF  02,2E1
0ABDE:  MOVFF  01,2E0
0ABE2:  MOVFF  00,2DF
....................                RX_Buffer[4]=0x00; 
0ABE6:  CLRF   34
....................                RX_Buffer2[4]=0x00;             
0ABE8:  CLRF   3F
....................                //BorraBuffer(); 
....................             } 
....................          } 
....................           
....................          if(Tciclo>20) 
0ABEA:  MOVLB  3
0ABEC:  CLRF   xD0
0ABEE:  CLRF   xCF
0ABF0:  MOVLW  20
0ABF2:  MOVWF  xCE
0ABF4:  MOVLW  83
0ABF6:  MOVWF  xCD
0ABF8:  MOVFF  2E2,3D4
0ABFC:  MOVFF  2E1,3D3
0AC00:  MOVFF  2E0,3D2
0AC04:  MOVFF  2DF,3D1
0AC08:  MOVLB  0
0AC0A:  CALL   2928
0AC0E:  BNC   AC1E
....................             Tciclo=5; 
0AC10:  MOVLB  2
0AC12:  CLRF   xE2
0AC14:  CLRF   xE1
0AC16:  MOVLW  20
0AC18:  MOVWF  xE0
0AC1A:  MOVLW  81
0AC1C:  MOVWF  xDF
....................          if(Tciclo<5) 
0AC1E:  MOVFF  2E2,3D0
0AC22:  MOVFF  2E1,3CF
0AC26:  MOVFF  2E0,3CE
0AC2A:  MOVFF  2DF,3CD
0AC2E:  MOVLB  3
0AC30:  CLRF   xD4
0AC32:  CLRF   xD3
0AC34:  MOVLW  20
0AC36:  MOVWF  xD2
0AC38:  MOVLW  81
0AC3A:  MOVWF  xD1
0AC3C:  MOVLB  0
0AC3E:  CALL   2928
0AC42:  BNC   AC54
....................             Tciclo=20; 
0AC44:  MOVLB  2
0AC46:  CLRF   xE2
0AC48:  CLRF   xE1
0AC4A:  MOVLW  20
0AC4C:  MOVWF  xE0
0AC4E:  MOVLW  83
0AC50:  MOVWF  xDF
0AC52:  MOVLB  0
....................       }else if(Opcion2==5){ 
0AC54:  BRA    B102
0AC56:  MOVLB  3
0AC58:  MOVF   x3E,W
0AC5A:  SUBLW  05
0AC5C:  BNZ   AD12
....................          printf("Config.t2c.txt=\"Ajuste +\""); 
0AC5E:  MOVLW  94
0AC60:  MOVWF  FF6
0AC62:  MOVLW  15
0AC64:  MOVWF  FF7
0AC66:  MOVLW  00
0AC68:  MOVWF  FF8
0AC6A:  MOVLB  0
0AC6C:  CALL   3410
....................          SendDataDisplay();       
0AC70:  CALL   3442
....................          printf("t3c.txt=\"%u\"",Ajuste); 
0AC74:  MOVLW  AE
0AC76:  MOVWF  FF6
0AC78:  MOVLW  15
0AC7A:  MOVWF  FF7
0AC7C:  MOVLW  00
0AC7E:  MOVWF  FF8
0AC80:  MOVLW  09
0AC82:  MOVLB  3
0AC84:  MOVWF  xCD
0AC86:  MOVLB  0
0AC88:  CALL   43B8
0AC8C:  MOVFF  2CF,3CC
0AC90:  MOVLW  1B
0AC92:  MOVLB  3
0AC94:  MOVWF  xCD
0AC96:  MOVLB  0
0AC98:  CALL   4416
0AC9C:  MOVLW  22
0AC9E:  BTFSS  F9E.4
0ACA0:  BRA    AC9E
0ACA2:  MOVWF  FAD
....................          SendDataDisplay(); 
0ACA4:  CALL   3442
....................          if(RX_Buffer[4]==0x0a || UP){//Tecla Arriba Oprimida 
0ACA8:  MOVF   34,W
0ACAA:  SUBLW  0A
0ACAC:  BZ    ACB4
0ACAE:  BSF    F93.0
0ACB0:  BTFSC  F81.0
0ACB2:  BRA    ACDC
....................             delay_ms(20); 
0ACB4:  MOVLW  14
0ACB6:  MOVLB  3
0ACB8:  MOVWF  xD4
0ACBA:  MOVLB  0
0ACBC:  CALL   16D0
....................             if(RX_Buffer[4]==0x0a || UP){ 
0ACC0:  MOVF   34,W
0ACC2:  SUBLW  0A
0ACC4:  BZ    ACCC
0ACC6:  BSF    F93.0
0ACC8:  BTFSC  F81.0
0ACCA:  BRA    ACDC
....................                if(Ajuste<40) 
0ACCC:  MOVLB  2
0ACCE:  MOVF   xCF,W
0ACD0:  SUBLW  27
0ACD2:  BNC   ACD6
....................                   Ajuste++; 
0ACD4:  INCF   xCF,F
....................                RX_Buffer[4]=0x00;   
0ACD6:  CLRF   34
....................                RX_Buffer2[4]=0x00;             
0ACD8:  CLRF   3F
0ACDA:  MOVLB  0
....................                //BorraBuffer(); 
....................             } 
....................          } 
....................              
....................          if(RX_Buffer[4]==0x0b || DOWN){//Tecla Abajo Oprimida 
0ACDC:  MOVF   34,W
0ACDE:  SUBLW  0B
0ACE0:  BZ    ACE8
0ACE2:  BSF    F93.1
0ACE4:  BTFSC  F81.1
0ACE6:  BRA    AD0E
....................             delay_ms(20); 
0ACE8:  MOVLW  14
0ACEA:  MOVLB  3
0ACEC:  MOVWF  xD4
0ACEE:  MOVLB  0
0ACF0:  CALL   16D0
....................             if(RX_Buffer[4]==0x0b || DOWN){ 
0ACF4:  MOVF   34,W
0ACF6:  SUBLW  0B
0ACF8:  BZ    AD00
0ACFA:  BSF    F93.1
0ACFC:  BTFSC  F81.1
0ACFE:  BRA    AD0E
....................                if(Ajuste>0) 
0AD00:  MOVLB  2
0AD02:  MOVF   xCF,F
0AD04:  BZ    AD08
....................                   Ajuste--; 
0AD06:  DECF   xCF,F
....................                RX_Buffer[4]=0x00; 
0AD08:  CLRF   34
....................                RX_Buffer2[4]=0x00;             
0AD0A:  CLRF   3F
0AD0C:  MOVLB  0
....................                //BorraBuffer(); 
....................             } 
....................          } 
....................       }else if(Opcion2==6){ 
0AD0E:  BRA    B102
0AD10:  MOVLB  3
0AD12:  MOVF   x3E,W
0AD14:  SUBLW  06
0AD16:  BNZ   ADCC
....................          printf("Config.t2c.txt=\"Ajuste -\""); 
0AD18:  MOVLW  BC
0AD1A:  MOVWF  FF6
0AD1C:  MOVLW  15
0AD1E:  MOVWF  FF7
0AD20:  MOVLW  00
0AD22:  MOVWF  FF8
0AD24:  MOVLB  0
0AD26:  CALL   3410
....................          SendDataDisplay();       
0AD2A:  CALL   3442
....................          printf("t3c.txt=\"%u\"",Ajusten); 
0AD2E:  MOVLW  D6
0AD30:  MOVWF  FF6
0AD32:  MOVLW  15
0AD34:  MOVWF  FF7
0AD36:  MOVLW  00
0AD38:  MOVWF  FF8
0AD3A:  MOVLW  09
0AD3C:  MOVLB  3
0AD3E:  MOVWF  xCD
0AD40:  MOVLB  0
0AD42:  CALL   43B8
0AD46:  MOVFF  2D0,3CC
0AD4A:  MOVLW  1B
0AD4C:  MOVLB  3
0AD4E:  MOVWF  xCD
0AD50:  MOVLB  0
0AD52:  CALL   4416
0AD56:  MOVLW  22
0AD58:  BTFSS  F9E.4
0AD5A:  BRA    AD58
0AD5C:  MOVWF  FAD
....................          SendDataDisplay(); 
0AD5E:  CALL   3442
....................          if(RX_Buffer[4]==0x0a || UP){//Tecla Arriba Oprimida 
0AD62:  MOVF   34,W
0AD64:  SUBLW  0A
0AD66:  BZ    AD6E
0AD68:  BSF    F93.0
0AD6A:  BTFSC  F81.0
0AD6C:  BRA    AD96
....................             delay_ms(20); 
0AD6E:  MOVLW  14
0AD70:  MOVLB  3
0AD72:  MOVWF  xD4
0AD74:  MOVLB  0
0AD76:  CALL   16D0
....................             if(RX_Buffer[4]==0x0a || UP){ 
0AD7A:  MOVF   34,W
0AD7C:  SUBLW  0A
0AD7E:  BZ    AD86
0AD80:  BSF    F93.0
0AD82:  BTFSC  F81.0
0AD84:  BRA    AD96
....................                if(Ajusten<40) 
0AD86:  MOVLB  2
0AD88:  MOVF   xD0,W
0AD8A:  SUBLW  27
0AD8C:  BNC   AD90
....................                   Ajusten++; 
0AD8E:  INCF   xD0,F
....................                RX_Buffer[4]=0x00;   
0AD90:  CLRF   34
....................                RX_Buffer2[4]=0x00;             
0AD92:  CLRF   3F
0AD94:  MOVLB  0
....................                //BorraBuffer(); 
....................             } 
....................          } 
....................              
....................          if(RX_Buffer[4]==0x0b || DOWN){//Tecla Abajo Oprimida 
0AD96:  MOVF   34,W
0AD98:  SUBLW  0B
0AD9A:  BZ    ADA2
0AD9C:  BSF    F93.1
0AD9E:  BTFSC  F81.1
0ADA0:  BRA    ADC8
....................             delay_ms(20); 
0ADA2:  MOVLW  14
0ADA4:  MOVLB  3
0ADA6:  MOVWF  xD4
0ADA8:  MOVLB  0
0ADAA:  CALL   16D0
....................             if(RX_Buffer[4]==0x0b || DOWN){ 
0ADAE:  MOVF   34,W
0ADB0:  SUBLW  0B
0ADB2:  BZ    ADBA
0ADB4:  BSF    F93.1
0ADB6:  BTFSC  F81.1
0ADB8:  BRA    ADC8
....................                if(Ajusten>0) 
0ADBA:  MOVLB  2
0ADBC:  MOVF   xD0,F
0ADBE:  BZ    ADC2
....................                   Ajusten--; 
0ADC0:  DECF   xD0,F
....................                RX_Buffer[4]=0x00; 
0ADC2:  CLRF   34
....................                RX_Buffer2[4]=0x00;             
0ADC4:  CLRF   3F
0ADC6:  MOVLB  0
....................                //BorraBuffer(); 
....................             } 
....................          } 
....................       }else if(Opcion2==7){ 
0ADC8:  BRA    B102
0ADCA:  MOVLB  3
0ADCC:  MOVF   x3E,W
0ADCE:  SUBLW  07
0ADD0:  BNZ   AE88
....................          printf("Config.t2c.txt=\"Media\""); 
0ADD2:  MOVLW  E4
0ADD4:  MOVWF  FF6
0ADD6:  MOVLW  15
0ADD8:  MOVWF  FF7
0ADDA:  MOVLW  00
0ADDC:  MOVWF  FF8
0ADDE:  MOVLB  0
0ADE0:  CALL   3410
....................          SendDataDisplay();       
0ADE4:  CALL   3442
....................          printf("t3c.txt=\"%u\"",MediaMovil); 
0ADE8:  MOVLW  FC
0ADEA:  MOVWF  FF6
0ADEC:  MOVLW  15
0ADEE:  MOVWF  FF7
0ADF0:  MOVLW  00
0ADF2:  MOVWF  FF8
0ADF4:  MOVLW  09
0ADF6:  MOVLB  3
0ADF8:  MOVWF  xCD
0ADFA:  MOVLB  0
0ADFC:  CALL   43B8
0AE00:  MOVFF  2D1,3CC
0AE04:  MOVLW  1B
0AE06:  MOVLB  3
0AE08:  MOVWF  xCD
0AE0A:  MOVLB  0
0AE0C:  CALL   4416
0AE10:  MOVLW  22
0AE12:  BTFSS  F9E.4
0AE14:  BRA    AE12
0AE16:  MOVWF  FAD
....................          SendDataDisplay(); 
0AE18:  CALL   3442
....................          if(RX_Buffer[4]==0x0a || UP){//Tecla Arriba Oprimida 
0AE1C:  MOVF   34,W
0AE1E:  SUBLW  0A
0AE20:  BZ    AE28
0AE22:  BSF    F93.0
0AE24:  BTFSC  F81.0
0AE26:  BRA    AE50
....................             delay_ms(20); 
0AE28:  MOVLW  14
0AE2A:  MOVLB  3
0AE2C:  MOVWF  xD4
0AE2E:  MOVLB  0
0AE30:  CALL   16D0
....................             if(RX_Buffer[4]==0x0a || UP){ 
0AE34:  MOVF   34,W
0AE36:  SUBLW  0A
0AE38:  BZ    AE40
0AE3A:  BSF    F93.0
0AE3C:  BTFSC  F81.0
0AE3E:  BRA    AE50
....................                if(MediaMovil<80) 
0AE40:  MOVLB  2
0AE42:  MOVF   xD1,W
0AE44:  SUBLW  4F
0AE46:  BNC   AE4A
....................                   MediaMovil++; 
0AE48:  INCF   xD1,F
....................                RX_Buffer[4]=0x00;   
0AE4A:  CLRF   34
....................                RX_Buffer2[4]=0x00;             
0AE4C:  CLRF   3F
0AE4E:  MOVLB  0
....................                //BorraBuffer(); 
....................             } 
....................          } 
....................              
....................          if(RX_Buffer[4]==0x0b || DOWN){//Tecla Abajo Oprimida 
0AE50:  MOVF   34,W
0AE52:  SUBLW  0B
0AE54:  BZ    AE5C
0AE56:  BSF    F93.1
0AE58:  BTFSC  F81.1
0AE5A:  BRA    AE84
....................             delay_ms(20); 
0AE5C:  MOVLW  14
0AE5E:  MOVLB  3
0AE60:  MOVWF  xD4
0AE62:  MOVLB  0
0AE64:  CALL   16D0
....................             if(RX_Buffer[4]==0x0b || DOWN){ 
0AE68:  MOVF   34,W
0AE6A:  SUBLW  0B
0AE6C:  BZ    AE74
0AE6E:  BSF    F93.1
0AE70:  BTFSC  F81.1
0AE72:  BRA    AE84
....................                if(MediaMovil>10) 
0AE74:  MOVLB  2
0AE76:  MOVF   xD1,W
0AE78:  SUBLW  0A
0AE7A:  BC    AE7E
....................                   MediaMovil--; 
0AE7C:  DECF   xD1,F
....................                RX_Buffer[4]=0x00; 
0AE7E:  CLRF   34
....................                RX_Buffer2[4]=0x00;             
0AE80:  CLRF   3F
0AE82:  MOVLB  0
....................                //BorraBuffer(); 
....................             } 
....................          } 
....................       }else if(Opcion2==8){ 
0AE84:  BRA    B102
0AE86:  MOVLB  3
0AE88:  MOVF   x3E,W
0AE8A:  SUBLW  08
0AE8C:  BTFSS  FD8.2
0AE8E:  BRA    AFF6
....................          printf("Config.t2c.txt=\"RPT100B\""); 
0AE90:  MOVLW  0A
0AE92:  MOVWF  FF6
0AE94:  MOVLW  16
0AE96:  MOVWF  FF7
0AE98:  MOVLW  00
0AE9A:  MOVWF  FF8
0AE9C:  MOVLB  0
0AE9E:  CALL   3410
....................          SendDataDisplay();       
0AEA2:  CALL   3442
....................          printf("t3c.txt=\"%2.1f\"",RPT100); 
0AEA6:  MOVLW  24
0AEA8:  MOVWF  FF6
0AEAA:  MOVLW  16
0AEAC:  MOVWF  FF7
0AEAE:  MOVLW  00
0AEB0:  MOVWF  FF8
0AEB2:  MOVLW  09
0AEB4:  MOVLB  3
0AEB6:  MOVWF  xCD
0AEB8:  MOVLB  0
0AEBA:  CALL   43B8
0AEBE:  MOVLW  01
0AEC0:  MOVWF  FE9
0AEC2:  MOVFF  2AC,3D0
0AEC6:  MOVFF  2AB,3CF
0AECA:  MOVFF  2AA,3CE
0AECE:  MOVFF  2A9,3CD
0AED2:  MOVLB  3
0AED4:  MOVWF  xD1
0AED6:  MOVLB  0
0AED8:  CALL   464C
0AEDC:  MOVLW  22
0AEDE:  BTFSS  F9E.4
0AEE0:  BRA    AEDE
0AEE2:  MOVWF  FAD
....................          SendDataDisplay(); 
0AEE4:  CALL   3442
....................          if(RX_Buffer[4]==0x0a || UP){//Tecla Arriba Oprimida 
0AEE8:  MOVF   34,W
0AEEA:  SUBLW  0A
0AEEC:  BZ    AEF4
0AEEE:  BSF    F93.0
0AEF0:  BTFSC  F81.0
0AEF2:  BRA    AF6E
....................             delay_ms(20); 
0AEF4:  MOVLW  14
0AEF6:  MOVLB  3
0AEF8:  MOVWF  xD4
0AEFA:  MOVLB  0
0AEFC:  CALL   16D0
....................             if(RX_Buffer[4]==0x0a || UP){ 
0AF00:  MOVF   34,W
0AF02:  SUBLW  0A
0AF04:  BZ    AF0C
0AF06:  BSF    F93.0
0AF08:  BTFSC  F81.0
0AF0A:  BRA    AF6E
....................                if(RPT100<2.0) 
0AF0C:  MOVFF  2AC,3D0
0AF10:  MOVFF  2AB,3CF
0AF14:  MOVFF  2AA,3CE
0AF18:  MOVFF  2A9,3CD
0AF1C:  MOVLB  3
0AF1E:  CLRF   xD4
0AF20:  CLRF   xD3
0AF22:  CLRF   xD2
0AF24:  MOVLW  80
0AF26:  MOVWF  xD1
0AF28:  MOVLB  0
0AF2A:  CALL   2928
0AF2E:  BNC   AF6A
....................                   RPT100+=0.1; 
0AF30:  BCF    FD8.1
0AF32:  MOVFF  2AC,3D7
0AF36:  MOVFF  2AB,3D6
0AF3A:  MOVFF  2AA,3D5
0AF3E:  MOVFF  2A9,3D4
0AF42:  MOVLW  CD
0AF44:  MOVLB  3
0AF46:  MOVWF  xDB
0AF48:  MOVLW  CC
0AF4A:  MOVWF  xDA
0AF4C:  MOVLW  4C
0AF4E:  MOVWF  xD9
0AF50:  MOVLW  7B
0AF52:  MOVWF  xD8
0AF54:  MOVLB  0
0AF56:  CALL   188C
0AF5A:  MOVFF  03,2AC
0AF5E:  MOVFF  02,2AB
0AF62:  MOVFF  01,2AA
0AF66:  MOVFF  00,2A9
....................                RX_Buffer[4]=0x00;   
0AF6A:  CLRF   34
....................                RX_Buffer2[4]=0x00;             
0AF6C:  CLRF   3F
....................                //BorraBuffer(); 
....................             } 
....................          } 
....................              
....................          if(RX_Buffer[4]==0x0b || DOWN){//Tecla Abajo Oprimida 
0AF6E:  MOVF   34,W
0AF70:  SUBLW  0B
0AF72:  BZ    AF7A
0AF74:  BSF    F93.1
0AF76:  BTFSC  F81.1
0AF78:  BRA    AFF2
....................             delay_ms(20); 
0AF7A:  MOVLW  14
0AF7C:  MOVLB  3
0AF7E:  MOVWF  xD4
0AF80:  MOVLB  0
0AF82:  CALL   16D0
....................             if(RX_Buffer[4]==0x0b || DOWN){ 
0AF86:  MOVF   34,W
0AF88:  SUBLW  0B
0AF8A:  BZ    AF92
0AF8C:  BSF    F93.1
0AF8E:  BTFSC  F81.1
0AF90:  BRA    AFF2
....................                if(RPT100>0.0) 
0AF92:  MOVLB  3
0AF94:  CLRF   xD0
0AF96:  CLRF   xCF
0AF98:  CLRF   xCE
0AF9A:  CLRF   xCD
0AF9C:  MOVFF  2AC,3D4
0AFA0:  MOVFF  2AB,3D3
0AFA4:  MOVFF  2AA,3D2
0AFA8:  MOVFF  2A9,3D1
0AFAC:  MOVLB  0
0AFAE:  CALL   2928
0AFB2:  BNC   AFEE
....................                   RPT100-=0.1; 
0AFB4:  BSF    FD8.1
0AFB6:  MOVFF  2AC,3D7
0AFBA:  MOVFF  2AB,3D6
0AFBE:  MOVFF  2AA,3D5
0AFC2:  MOVFF  2A9,3D4
0AFC6:  MOVLW  CD
0AFC8:  MOVLB  3
0AFCA:  MOVWF  xDB
0AFCC:  MOVLW  CC
0AFCE:  MOVWF  xDA
0AFD0:  MOVLW  4C
0AFD2:  MOVWF  xD9
0AFD4:  MOVLW  7B
0AFD6:  MOVWF  xD8
0AFD8:  MOVLB  0
0AFDA:  CALL   188C
0AFDE:  MOVFF  03,2AC
0AFE2:  MOVFF  02,2AB
0AFE6:  MOVFF  01,2AA
0AFEA:  MOVFF  00,2A9
....................                RX_Buffer[4]=0x00; 
0AFEE:  CLRF   34
....................                RX_Buffer2[4]=0x00;             
0AFF0:  CLRF   3F
....................                //BorraBuffer(); 
....................             } 
....................          } 
....................       }else if(Opcion2==9){ 
0AFF2:  BRA    B102
0AFF4:  MOVLB  3
0AFF6:  MOVF   x3E,W
0AFF8:  SUBLW  09
0AFFA:  BNZ   B0B2
....................          printf("Config.t2c.txt=\"TTrampa\""); 
0AFFC:  MOVLW  34
0AFFE:  MOVWF  FF6
0B000:  MOVLW  16
0B002:  MOVWF  FF7
0B004:  MOVLW  00
0B006:  MOVWF  FF8
0B008:  MOVLB  0
0B00A:  CALL   3410
....................          SendDataDisplay();       
0B00E:  CALL   3442
....................          printf("t3c.txt=\"%02u\"",TTrampa); 
0B012:  MOVLW  4E
0B014:  MOVWF  FF6
0B016:  MOVLW  16
0B018:  MOVWF  FF7
0B01A:  MOVLW  00
0B01C:  MOVWF  FF8
0B01E:  MOVLW  09
0B020:  MOVLB  3
0B022:  MOVWF  xCD
0B024:  MOVLB  0
0B026:  CALL   43B8
0B02A:  MOVFF  2D2,3CC
0B02E:  MOVLW  01
0B030:  MOVLB  3
0B032:  MOVWF  xCD
0B034:  MOVLB  0
0B036:  CALL   4416
0B03A:  MOVLW  22
0B03C:  BTFSS  F9E.4
0B03E:  BRA    B03C
0B040:  MOVWF  FAD
....................          SendDataDisplay(); 
0B042:  CALL   3442
....................          if(RX_Buffer[4]==0x0a || UP){//Tecla Arriba Oprimida 
0B046:  MOVF   34,W
0B048:  SUBLW  0A
0B04A:  BZ    B052
0B04C:  BSF    F93.0
0B04E:  BTFSC  F81.0
0B050:  BRA    B07A
....................             delay_ms(20); 
0B052:  MOVLW  14
0B054:  MOVLB  3
0B056:  MOVWF  xD4
0B058:  MOVLB  0
0B05A:  CALL   16D0
....................             if(RX_Buffer[4]==0x0a || UP){ 
0B05E:  MOVF   34,W
0B060:  SUBLW  0A
0B062:  BZ    B06A
0B064:  BSF    F93.0
0B066:  BTFSC  F81.0
0B068:  BRA    B07A
....................                if(TTrampa<100) 
0B06A:  MOVLB  2
0B06C:  MOVF   xD2,W
0B06E:  SUBLW  63
0B070:  BNC   B074
....................                   TTrampa++; 
0B072:  INCF   xD2,F
....................                RX_Buffer[4]=0x00;   
0B074:  CLRF   34
....................                RX_Buffer2[4]=0x00;             
0B076:  CLRF   3F
0B078:  MOVLB  0
....................                //BorraBuffer(); 
....................             } 
....................          } 
....................              
....................          if(RX_Buffer[4]==0x0b || DOWN){//Tecla Abajo Oprimida 
0B07A:  MOVF   34,W
0B07C:  SUBLW  0B
0B07E:  BZ    B086
0B080:  BSF    F93.1
0B082:  BTFSC  F81.1
0B084:  BRA    B0AE
....................             delay_ms(20); 
0B086:  MOVLW  14
0B088:  MOVLB  3
0B08A:  MOVWF  xD4
0B08C:  MOVLB  0
0B08E:  CALL   16D0
....................             if(RX_Buffer[4]==0x0b || DOWN){ 
0B092:  MOVF   34,W
0B094:  SUBLW  0B
0B096:  BZ    B09E
0B098:  BSF    F93.1
0B09A:  BTFSC  F81.1
0B09C:  BRA    B0AE
....................                if(TTrampa>50) 
0B09E:  MOVLB  2
0B0A0:  MOVF   xD2,W
0B0A2:  SUBLW  32
0B0A4:  BC    B0A8
....................                   TTrampa--; 
0B0A6:  DECF   xD2,F
....................                RX_Buffer[4]=0x00; 
0B0A8:  CLRF   34
....................                RX_Buffer2[4]=0x00;             
0B0AA:  CLRF   3F
0B0AC:  MOVLB  0
....................                //BorraBuffer(); 
....................             } 
....................          } 
....................       }else if(Opcion2==10){ 
0B0AE:  BRA    B102
0B0B0:  MOVLB  3
0B0B2:  MOVF   x3E,W
0B0B4:  SUBLW  0A
0B0B6:  BNZ   B104
....................          printf("Config.t2c.txt=\"Ciclos\""); 
0B0B8:  MOVLW  5E
0B0BA:  MOVWF  FF6
0B0BC:  MOVLW  16
0B0BE:  MOVWF  FF7
0B0C0:  MOVLW  00
0B0C2:  MOVWF  FF8
0B0C4:  MOVLB  0
0B0C6:  CALL   3410
....................          SendDataDisplay();       
0B0CA:  CALL   3442
....................          printf("t3c.txt=\"%05Lu\"",Ciclos); 
0B0CE:  MOVLW  76
0B0D0:  MOVWF  FF6
0B0D2:  MOVLW  16
0B0D4:  MOVWF  FF7
0B0D6:  MOVLW  00
0B0D8:  MOVWF  FF8
0B0DA:  MOVLW  09
0B0DC:  MOVLB  3
0B0DE:  MOVWF  xCD
0B0E0:  MOVLB  0
0B0E2:  CALL   43B8
0B0E6:  MOVLW  08
0B0E8:  MOVWF  FE9
0B0EA:  MOVFF  353,3CE
0B0EE:  MOVFF  352,3CD
0B0F2:  CALL   44DE
0B0F6:  MOVLW  22
0B0F8:  BTFSS  F9E.4
0B0FA:  BRA    B0F8
0B0FC:  MOVWF  FAD
....................          SendDataDisplay(); 
0B0FE:  CALL   3442
0B102:  MOVLB  3
....................       } 
....................        
....................       if(RX_Buffer[4]==0x0c || LEFT){//Tecla Izquierda Oprimida 
0B104:  MOVF   34,W
0B106:  SUBLW  0C
0B108:  BZ    B110
0B10A:  BSF    F93.3
0B10C:  BTFSC  F81.3
0B10E:  BRA    B12E
....................          delay_ms(20); 
0B110:  MOVLW  14
0B112:  MOVWF  xD4
0B114:  MOVLB  0
0B116:  CALL   16D0
....................          if(RX_Buffer[4]==0x0c || LEFT){ 
0B11A:  MOVF   34,W
0B11C:  SUBLW  0C
0B11E:  BZ    B126
0B120:  BSF    F93.3
0B122:  BTFSC  F81.3
0B124:  BRA    B130
....................             Opcion2++; 
0B126:  MOVLB  3
0B128:  INCF   x3E,F
....................             RX_Buffer[4]=0x00;   
0B12A:  CLRF   34
....................             RX_Buffer2[4]=0x00;             
0B12C:  CLRF   3F
0B12E:  MOVLB  0
....................             //BorraBuffer(); 
....................          } 
....................       } 
....................           
....................       if(RX_Buffer[4]==0x0d || RIGHT){//Tecla Derecha Oprimida 
0B130:  MOVF   34,W
0B132:  SUBLW  0D
0B134:  BZ    B13C
0B136:  BSF    F93.2
0B138:  BTFSC  F81.2
0B13A:  BRA    B15E
....................          delay_ms(20); 
0B13C:  MOVLW  14
0B13E:  MOVLB  3
0B140:  MOVWF  xD4
0B142:  MOVLB  0
0B144:  CALL   16D0
....................          if(RX_Buffer[4]==0x0d || RIGHT){ 
0B148:  MOVF   34,W
0B14A:  SUBLW  0D
0B14C:  BZ    B154
0B14E:  BSF    F93.2
0B150:  BTFSC  F81.2
0B152:  BRA    B15E
....................             Opcion2--; 
0B154:  MOVLB  3
0B156:  DECF   x3E,F
....................             RX_Buffer[4]=0x00; 
0B158:  CLRF   34
....................             RX_Buffer2[4]=0x00;             
0B15A:  CLRF   3F
0B15C:  MOVLB  0
....................             //BorraBuffer(); 
....................          } 
....................       } 
....................        
....................       if(RX_Buffer[4]==0x11 || (RIGHT && LEFT)){//Tecla Regresar 
0B15E:  MOVF   34,W
0B160:  SUBLW  11
0B162:  BZ    B170
0B164:  BSF    F93.2
0B166:  BTFSC  F81.2
0B168:  BRA    B4D8
0B16A:  BSF    F93.3
0B16C:  BTFSC  F81.3
0B16E:  BRA    B4D8
....................          delay_ms(20); 
0B170:  MOVLW  14
0B172:  MOVLB  3
0B174:  MOVWF  xD4
0B176:  MOVLB  0
0B178:  CALL   16D0
....................          if(RX_Buffer[4]==0x11 || (RIGHT && LEFT)){ 
0B17C:  MOVF   34,W
0B17E:  SUBLW  11
0B180:  BZ    B18E
0B182:  BSF    F93.2
0B184:  BTFSC  F81.2
0B186:  BRA    B4D8
0B188:  BSF    F93.3
0B18A:  BTFSC  F81.3
0B18C:  BRA    B4D8
....................             if(!GuardaEEPROM){ 
0B18E:  BTFSC  xA2.2
0B190:  BRA    B4C4
....................                write_eeprom(20,(int8)Ganancia); 
0B192:  MOVFF  2FA,3D7
0B196:  MOVFF  2F9,3D6
0B19A:  MOVFF  2F8,3D5
0B19E:  MOVFF  2F7,3D4
0B1A2:  CALL   3B36
0B1A6:  MOVFF  01,3C9
0B1AA:  CLRF   FAA
0B1AC:  MOVLW  14
0B1AE:  MOVWF  FA9
0B1B0:  MOVFF  3C9,FA8
0B1B4:  BCF    FA6.6
0B1B6:  BCF    FA6.7
0B1B8:  BSF    FA6.2
0B1BA:  MOVF   FF2,W
0B1BC:  MOVWF  00
0B1BE:  BCF    FF2.6
0B1C0:  BCF    FF2.7
0B1C2:  MOVLB  F
0B1C4:  MOVLW  55
0B1C6:  MOVWF  FA7
0B1C8:  MOVLW  AA
0B1CA:  MOVWF  FA7
0B1CC:  BSF    FA6.1
0B1CE:  BTFSC  FA6.1
0B1D0:  BRA    B1CE
0B1D2:  BCF    FA6.2
0B1D4:  MOVF   00,W
0B1D6:  IORWF  FF2,F
....................                delay_ms(10); 
0B1D8:  MOVLW  0A
0B1DA:  MOVLB  3
0B1DC:  MOVWF  xD4
0B1DE:  MOVLB  0
0B1E0:  CALL   16D0
....................                write_eeprom(26,(int8)Integral); 
0B1E4:  CLRF   FAA
0B1E6:  MOVLW  1A
0B1E8:  MOVWF  FA9
0B1EA:  MOVFF  327,FA8
0B1EE:  BCF    FA6.6
0B1F0:  BCF    FA6.7
0B1F2:  BSF    FA6.2
0B1F4:  MOVF   FF2,W
0B1F6:  MOVWF  00
0B1F8:  BCF    FF2.6
0B1FA:  BCF    FF2.7
0B1FC:  MOVLB  F
0B1FE:  MOVLW  55
0B200:  MOVWF  FA7
0B202:  MOVLW  AA
0B204:  MOVWF  FA7
0B206:  BSF    FA6.1
0B208:  BTFSC  FA6.1
0B20A:  BRA    B208
0B20C:  BCF    FA6.2
0B20E:  MOVF   00,W
0B210:  IORWF  FF2,F
....................                delay_ms(10); 
0B212:  MOVLW  0A
0B214:  MOVLB  3
0B216:  MOVWF  xD4
0B218:  MOVLB  0
0B21A:  CALL   16D0
....................                write_eeprom(27,(int8)Derivativo); 
0B21E:  CLRF   FAA
0B220:  MOVLW  1B
0B222:  MOVWF  FA9
0B224:  MOVFF  328,FA8
0B228:  BCF    FA6.6
0B22A:  BCF    FA6.7
0B22C:  BSF    FA6.2
0B22E:  MOVF   FF2,W
0B230:  MOVWF  00
0B232:  BCF    FF2.6
0B234:  BCF    FF2.7
0B236:  MOVLB  F
0B238:  MOVLW  55
0B23A:  MOVWF  FA7
0B23C:  MOVLW  AA
0B23E:  MOVWF  FA7
0B240:  BSF    FA6.1
0B242:  BTFSC  FA6.1
0B244:  BRA    B242
0B246:  BCF    FA6.2
0B248:  MOVF   00,W
0B24A:  IORWF  FF2,F
....................                delay_ms(10); 
0B24C:  MOVLW  0A
0B24E:  MOVLB  3
0B250:  MOVWF  xD4
0B252:  MOVLB  0
0B254:  CALL   16D0
....................                write_eeprom(25,(int8)Tciclo); 
0B258:  MOVFF  2E2,3D7
0B25C:  MOVFF  2E1,3D6
0B260:  MOVFF  2E0,3D5
0B264:  MOVFF  2DF,3D4
0B268:  CALL   3B36
0B26C:  MOVFF  01,3C9
0B270:  CLRF   FAA
0B272:  MOVLW  19
0B274:  MOVWF  FA9
0B276:  MOVFF  3C9,FA8
0B27A:  BCF    FA6.6
0B27C:  BCF    FA6.7
0B27E:  BSF    FA6.2
0B280:  MOVF   FF2,W
0B282:  MOVWF  00
0B284:  BCF    FF2.6
0B286:  BCF    FF2.7
0B288:  MOVLB  F
0B28A:  MOVLW  55
0B28C:  MOVWF  FA7
0B28E:  MOVLW  AA
0B290:  MOVWF  FA7
0B292:  BSF    FA6.1
0B294:  BTFSC  FA6.1
0B296:  BRA    B294
0B298:  BCF    FA6.2
0B29A:  MOVF   00,W
0B29C:  IORWF  FF2,F
....................                delay_ms(10); 
0B29E:  MOVLW  0A
0B2A0:  MOVLB  3
0B2A2:  MOVWF  xD4
0B2A4:  MOVLB  0
0B2A6:  CALL   16D0
....................                write_eeprom(21,Ajuste); 
0B2AA:  CLRF   FAA
0B2AC:  MOVLW  15
0B2AE:  MOVWF  FA9
0B2B0:  MOVFF  2CF,FA8
0B2B4:  BCF    FA6.6
0B2B6:  BCF    FA6.7
0B2B8:  BSF    FA6.2
0B2BA:  MOVF   FF2,W
0B2BC:  MOVWF  00
0B2BE:  BCF    FF2.6
0B2C0:  BCF    FF2.7
0B2C2:  MOVLB  F
0B2C4:  MOVLW  55
0B2C6:  MOVWF  FA7
0B2C8:  MOVLW  AA
0B2CA:  MOVWF  FA7
0B2CC:  BSF    FA6.1
0B2CE:  BTFSC  FA6.1
0B2D0:  BRA    B2CE
0B2D2:  BCF    FA6.2
0B2D4:  MOVF   00,W
0B2D6:  IORWF  FF2,F
....................                delay_ms(10); 
0B2D8:  MOVLW  0A
0B2DA:  MOVLB  3
0B2DC:  MOVWF  xD4
0B2DE:  MOVLB  0
0B2E0:  CALL   16D0
....................                write_eeprom(22,Ajusten); 
0B2E4:  CLRF   FAA
0B2E6:  MOVLW  16
0B2E8:  MOVWF  FA9
0B2EA:  MOVFF  2D0,FA8
0B2EE:  BCF    FA6.6
0B2F0:  BCF    FA6.7
0B2F2:  BSF    FA6.2
0B2F4:  MOVF   FF2,W
0B2F6:  MOVWF  00
0B2F8:  BCF    FF2.6
0B2FA:  BCF    FF2.7
0B2FC:  MOVLB  F
0B2FE:  MOVLW  55
0B300:  MOVWF  FA7
0B302:  MOVLW  AA
0B304:  MOVWF  FA7
0B306:  BSF    FA6.1
0B308:  BTFSC  FA6.1
0B30A:  BRA    B308
0B30C:  BCF    FA6.2
0B30E:  MOVF   00,W
0B310:  IORWF  FF2,F
....................                delay_ms(10); 
0B312:  MOVLW  0A
0B314:  MOVLB  3
0B316:  MOVWF  xD4
0B318:  MOVLB  0
0B31A:  CALL   16D0
....................                write_eeprom(24,(int8)MediaMovil); 
0B31E:  CLRF   FAA
0B320:  MOVLW  18
0B322:  MOVWF  FA9
0B324:  MOVFF  2D1,FA8
0B328:  BCF    FA6.6
0B32A:  BCF    FA6.7
0B32C:  BSF    FA6.2
0B32E:  MOVF   FF2,W
0B330:  MOVWF  00
0B332:  BCF    FF2.6
0B334:  BCF    FF2.7
0B336:  MOVLB  F
0B338:  MOVLW  55
0B33A:  MOVWF  FA7
0B33C:  MOVLW  AA
0B33E:  MOVWF  FA7
0B340:  BSF    FA6.1
0B342:  BTFSC  FA6.1
0B344:  BRA    B342
0B346:  BCF    FA6.2
0B348:  MOVF   00,W
0B34A:  IORWF  FF2,F
....................                delay_ms(10); 
0B34C:  MOVLW  0A
0B34E:  MOVLB  3
0B350:  MOVWF  xD4
0B352:  MOVLB  0
0B354:  CALL   16D0
....................                write_eeprom(32,(int8)RPT100); 
0B358:  MOVFF  2AC,3D7
0B35C:  MOVFF  2AB,3D6
0B360:  MOVFF  2AA,3D5
0B364:  MOVFF  2A9,3D4
0B368:  CALL   3B36
0B36C:  MOVFF  01,3C9
0B370:  CLRF   FAA
0B372:  MOVLW  20
0B374:  MOVWF  FA9
0B376:  MOVFF  3C9,FA8
0B37A:  BCF    FA6.6
0B37C:  BCF    FA6.7
0B37E:  BSF    FA6.2
0B380:  MOVF   FF2,W
0B382:  MOVWF  00
0B384:  BCF    FF2.6
0B386:  BCF    FF2.7
0B388:  MOVLB  F
0B38A:  MOVLW  55
0B38C:  MOVWF  FA7
0B38E:  MOVLW  AA
0B390:  MOVWF  FA7
0B392:  BSF    FA6.1
0B394:  BTFSC  FA6.1
0B396:  BRA    B394
0B398:  BCF    FA6.2
0B39A:  MOVF   00,W
0B39C:  IORWF  FF2,F
....................                delay_ms(10); 
0B39E:  MOVLW  0A
0B3A0:  MOVLB  3
0B3A2:  MOVWF  xD4
0B3A4:  MOVLB  0
0B3A6:  CALL   16D0
....................                Temporal=RPT100-((int8)RPT100); 
0B3AA:  MOVFF  2AC,3D7
0B3AE:  MOVFF  2AB,3D6
0B3B2:  MOVFF  2AA,3D5
0B3B6:  MOVFF  2A9,3D4
0B3BA:  CALL   3B36
0B3BE:  MOVLB  3
0B3C0:  CLRF   xD5
0B3C2:  MOVFF  01,3D4
0B3C6:  MOVLB  0
0B3C8:  CALL   16F8
0B3CC:  BSF    FD8.1
0B3CE:  MOVFF  2AC,3D7
0B3D2:  MOVFF  2AB,3D6
0B3D6:  MOVFF  2AA,3D5
0B3DA:  MOVFF  2A9,3D4
0B3DE:  MOVFF  03,3DB
0B3E2:  MOVFF  02,3DA
0B3E6:  MOVFF  01,3D9
0B3EA:  MOVFF  00,3D8
0B3EE:  CALL   188C
0B3F2:  MOVFF  03,2B0
0B3F6:  MOVFF  02,2AF
0B3FA:  MOVFF  01,2AE
0B3FE:  MOVFF  00,2AD
....................                Temporal=Temporal*10; 
0B402:  MOVFF  2B0,3DD
0B406:  MOVFF  2AF,3DC
0B40A:  MOVFF  2AE,3DB
0B40E:  MOVFF  2AD,3DA
0B412:  MOVLB  3
0B414:  CLRF   xE1
0B416:  CLRF   xE0
0B418:  MOVLW  20
0B41A:  MOVWF  xDF
0B41C:  MOVLW  82
0B41E:  MOVWF  xDE
0B420:  MOVLB  0
0B422:  CALL   350E
0B426:  MOVFF  03,2B0
0B42A:  MOVFF  02,2AF
0B42E:  MOVFF  01,2AE
0B432:  MOVFF  00,2AD
....................                write_eeprom(33,(int8)Temporal); 
0B436:  MOVFF  2B0,3D7
0B43A:  MOVFF  2AF,3D6
0B43E:  MOVFF  2AE,3D5
0B442:  MOVFF  2AD,3D4
0B446:  CALL   3B36
0B44A:  MOVFF  01,3C9
0B44E:  CLRF   FAA
0B450:  MOVLW  21
0B452:  MOVWF  FA9
0B454:  MOVFF  3C9,FA8
0B458:  BCF    FA6.6
0B45A:  BCF    FA6.7
0B45C:  BSF    FA6.2
0B45E:  MOVF   FF2,W
0B460:  MOVWF  00
0B462:  BCF    FF2.6
0B464:  BCF    FF2.7
0B466:  MOVLB  F
0B468:  MOVLW  55
0B46A:  MOVWF  FA7
0B46C:  MOVLW  AA
0B46E:  MOVWF  FA7
0B470:  BSF    FA6.1
0B472:  BTFSC  FA6.1
0B474:  BRA    B472
0B476:  BCF    FA6.2
0B478:  MOVF   00,W
0B47A:  IORWF  FF2,F
....................                delay_ms(10); 
0B47C:  MOVLW  0A
0B47E:  MOVLB  3
0B480:  MOVWF  xD4
0B482:  MOVLB  0
0B484:  CALL   16D0
....................                write_eeprom(39,TTrampa); 
0B488:  CLRF   FAA
0B48A:  MOVLW  27
0B48C:  MOVWF  FA9
0B48E:  MOVFF  2D2,FA8
0B492:  BCF    FA6.6
0B494:  BCF    FA6.7
0B496:  BSF    FA6.2
0B498:  MOVF   FF2,W
0B49A:  MOVWF  00
0B49C:  BCF    FF2.6
0B49E:  BCF    FF2.7
0B4A0:  MOVLB  F
0B4A2:  MOVLW  55
0B4A4:  MOVWF  FA7
0B4A6:  MOVLW  AA
0B4A8:  MOVWF  FA7
0B4AA:  BSF    FA6.1
0B4AC:  BTFSC  FA6.1
0B4AE:  BRA    B4AC
0B4B0:  BCF    FA6.2
0B4B2:  MOVF   00,W
0B4B4:  IORWF  FF2,F
....................                delay_ms(10); 
0B4B6:  MOVLW  0A
0B4B8:  MOVLB  3
0B4BA:  MOVWF  xD4
0B4BC:  MOVLB  0
0B4BE:  CALL   16D0
....................                GuardaEEPROM=ON; 
0B4C2:  BSF    xA2.2
....................             } 
....................             printf("page MenuPrincipal"); 
0B4C4:  MOVLW  86
0B4C6:  MOVWF  FF6
0B4C8:  MOVLW  16
0B4CA:  MOVWF  FF7
0B4CC:  MOVLW  00
0B4CE:  MOVWF  FF8
0B4D0:  CALL   3410
....................             SendDataDisplay(); 
0B4D4:  CALL   3442
....................             //BorraBuffer(); 
....................          } 
....................       } 
....................       printf("fecha.txt=\"Fecha:%02u/%02u/20%02u    Hora: %02u:%02u\"",Dia,Mes,Year,Hora,Minuto); 
0B4D8:  MOVLW  9A
0B4DA:  MOVWF  FF6
0B4DC:  MOVLW  16
0B4DE:  MOVWF  FF7
0B4E0:  MOVLW  00
0B4E2:  MOVWF  FF8
0B4E4:  MOVLW  11
0B4E6:  MOVLB  3
0B4E8:  MOVWF  xCD
0B4EA:  MOVLB  0
0B4EC:  CALL   43B8
0B4F0:  MOVFF  36D,3CC
0B4F4:  MOVLW  01
0B4F6:  MOVLB  3
0B4F8:  MOVWF  xCD
0B4FA:  MOVLB  0
0B4FC:  CALL   4416
0B500:  MOVLW  2F
0B502:  BTFSS  F9E.4
0B504:  BRA    B502
0B506:  MOVWF  FAD
0B508:  MOVFF  36C,3CC
0B50C:  MOVLW  01
0B50E:  MOVLB  3
0B510:  MOVWF  xCD
0B512:  MOVLB  0
0B514:  CALL   4416
0B518:  MOVLW  2F
0B51A:  BTFSS  F9E.4
0B51C:  BRA    B51A
0B51E:  MOVWF  FAD
0B520:  MOVLW  32
0B522:  BTFSS  F9E.4
0B524:  BRA    B522
0B526:  MOVWF  FAD
0B528:  MOVLW  30
0B52A:  BTFSS  F9E.4
0B52C:  BRA    B52A
0B52E:  MOVWF  FAD
0B530:  MOVFF  36B,3CC
0B534:  MOVLW  01
0B536:  MOVLB  3
0B538:  MOVWF  xCD
0B53A:  MOVLB  0
0B53C:  CALL   4416
0B540:  MOVLW  BB
0B542:  MOVWF  FF6
0B544:  MOVLW  16
0B546:  MOVWF  FF7
0B548:  MOVLW  00
0B54A:  MOVWF  FF8
0B54C:  MOVLW  0A
0B54E:  MOVLB  3
0B550:  MOVWF  xCD
0B552:  MOVLB  0
0B554:  CALL   43B8
0B558:  MOVFF  36E,3CC
0B55C:  MOVLW  01
0B55E:  MOVLB  3
0B560:  MOVWF  xCD
0B562:  MOVLB  0
0B564:  CALL   4416
0B568:  MOVLW  3A
0B56A:  BTFSS  F9E.4
0B56C:  BRA    B56A
0B56E:  MOVWF  FAD
0B570:  MOVFF  36F,3CC
0B574:  MOVLW  01
0B576:  MOVLB  3
0B578:  MOVWF  xCD
0B57A:  MOVLB  0
0B57C:  CALL   4416
0B580:  MOVLW  22
0B582:  BTFSS  F9E.4
0B584:  BRA    B582
0B586:  MOVWF  FAD
....................       SendDataDisplay();  
0B588:  CALL   3442
0B58C:  MOVLB  3
....................     } 
.................... //_--------------------------------------------------------------------------------------------------------------------------------------------------------        
....................  
....................    } 
0B58E:  GOTO   5914
.................... } 
0B592:  SLEEP 

Configuration Fuses:
   Word  1: 0200   HS NOIESO NOFCMEN
   Word  2: 1B1F   BROWNOUT WDT BORV20 NOPUT WDT8192
   Word  3: 0000   NOPBADEN NOLPT1OSC NOMCLR
   Word  4: 00B0   NOSTVREN NODEBUG NOLVP NOXINST BBSIZ4K
   Word  5: C03F   NOPROTECT NOCPD NOCPB
   Word  6: E03F   NOWRT NOWRTD NOWRTC NOWRTB
   Word  7: 403F   NOEBTR NOEBTRB
